ARM GAS  C:\Users\DEVELO~1\AppData\Local\Temp\cc2vwVZD.s 			page 1


   1              		.cpu cortex-m7
   2              		.arch armv7e-m
   3              		.fpu softvfp
   4              		.eabi_attribute 20, 1
   5              		.eabi_attribute 21, 1
   6              		.eabi_attribute 23, 3
   7              		.eabi_attribute 24, 1
   8              		.eabi_attribute 25, 1
   9              		.eabi_attribute 26, 1
  10              		.eabi_attribute 30, 2
  11              		.eabi_attribute 34, 1
  12              		.eabi_attribute 18, 4
  13              		.file	"audio_codec_ada1979.c"
  14              		.text
  15              	.Ltext0:
  16              		.cfi_sections	.debug_frame
  17              		.section	.text.adau1979_init,"ax",%progbits
  18              		.align	1
  19              		.p2align 4,,15
  20              		.global	adau1979_init
  21              		.syntax unified
  22              		.thumb
  23              		.thumb_func
  24              		.type	adau1979_init, %function
  25              	adau1979_init:
  26              	.LFB453:
  27              		.file 1 "drivers/audio/audio_codec_ada1979.c"
  28              		.loc 1 132 27 view -0
  29              		.cfi_startproc
  30              		@ args = 0, pretend = 0, frame = 8
  31              		@ frame_needed = 0, uses_anonymous_args = 0
  32              		.loc 1 133 3 view .LVU1
  33              		.loc 1 132 27 is_stmt 0 view .LVU2
  34 0000 F0B5     		push	{r4, r5, r6, r7, lr}
  35              		.cfi_def_cfa_offset 20
  36              		.cfi_offset 4, -20
  37              		.cfi_offset 5, -16
  38              		.cfi_offset 6, -12
  39              		.cfi_offset 7, -8
  40              		.cfi_offset 14, -4
  41 0002 87B0     		sub	sp, sp, #28
  42              		.cfi_def_cfa_offset 48
  43              		.loc 1 133 3 view .LVU3
  44 0004 1A49     		ldr	r1, .L8
  45 0006 1B48     		ldr	r0, .L8+4
  46              	.LBB30:
  47              	.LBB31:
  48              	.LBB32:
  49              	.LBB33:
  50              	.LBB34:
  51              	.LBB35:
  52              		.loc 1 73 12 view .LVU4
  53 0008 0124     		movs	r4, #1
  54              	.LBE35:
  55              	.LBE34:
  56              	.LBE33:
  57              	.LBE32:
ARM GAS  C:\Users\DEVELO~1\AppData\Local\Temp\cc2vwVZD.s 			page 2


  58              	.LBE31:
  59              	.LBE30:
  60              		.loc 1 133 3 view .LVU5
  61 000a FFF7FEFF 		bl	i2cStart
  62              	.LVL0:
  63              		.loc 1 135 5 is_stmt 1 view .LVU6
  64              	.LBB53:
  65              	.LBI30:
  66              		.loc 1 84 14 view .LVU7
  67              	.LBB51:
  68              		.loc 1 85 5 view .LVU8
  69              	.LBB49:
  70              		.loc 1 85 10 view .LVU9
  71              		.loc 1 85 26 view .LVU10
  72              	.LBB46:
  73              		.loc 1 86 9 view .LVU11
  74              	.LBB42:
  75              	.LBB36:
  76              		.loc 1 73 12 is_stmt 0 view .LVU12
  77 000e 6427     		movs	r7, #100
  78              	.LBE36:
  79              	.LBE42:
  80              		.loc 1 86 17 view .LVU13
  81 0010 0023     		movs	r3, #0
  82              	.LBB43:
  83              	.LBB37:
  84              		.loc 1 73 12 view .LVU14
  85 0012 0DF11605 		add	r5, sp, #22
  86 0016 F026     		movs	r6, #240
  87 0018 0DF11702 		add	r2, sp, #23
  88              	.LBE37:
  89              	.LBE43:
  90              		.loc 1 86 17 view .LVU15
  91 001c 8DF81630 		strb	r3, [sp, #22]
  92              		.loc 1 87 9 is_stmt 1 view .LVU16
  93              	.LVL1:
  94              	.LBB44:
  95              	.LBB38:
  96              		.loc 1 73 12 is_stmt 0 view .LVU17
  97 0020 1121     		movs	r1, #17
  98 0022 2346     		mov	r3, r4
  99 0024 1348     		ldr	r0, .L8+4
 100 0026 0095     		str	r5, [sp]
 101 0028 8DF81760 		strb	r6, [sp, #23]
 102              	.LVL2:
 103              		.loc 1 73 12 view .LVU18
 104              	.LBE38:
 105              	.LBI34:
 106              		.loc 1 72 14 is_stmt 1 view .LVU19
 107              	.LBB39:
 108              		.loc 1 73 5 view .LVU20
 109              		.loc 1 73 12 is_stmt 0 view .LVU21
 110 002c CDE90147 		strd	r4, r7, [sp, #4]
 111 0030 FFF7FEFF 		bl	i2cMasterTransmitTimeout
 112              	.LVL3:
 113              		.loc 1 73 12 view .LVU22
 114              	.LBE39:
ARM GAS  C:\Users\DEVELO~1\AppData\Local\Temp\cc2vwVZD.s 			page 3


 115              	.LBE44:
 116              		.loc 1 88 9 is_stmt 1 view .LVU23
 117              		.loc 1 88 12 is_stmt 0 view .LVU24
 118 0034 B0B9     		cbnz	r0, .L1
 119              		.loc 1 91 9 is_stmt 1 view .LVU25
 120              		.loc 1 91 12 is_stmt 0 view .LVU26
 121 0036 9DF81630 		ldrb	r3, [sp, #22]	@ zero_extendqisi2
 122 003a 792B     		cmp	r3, #121
 123 003c 14D1     		bne	.L4
 124              	.LBE46:
 125              		.loc 1 85 31 is_stmt 1 view .LVU27
 126              	.LVL4:
 127              		.loc 1 85 26 view .LVU28
 128              	.LBB47:
 129              		.loc 1 86 9 view .LVU29
 130              		.loc 1 86 17 is_stmt 0 view .LVU30
 131 003e 8DF81600 		strb	r0, [sp, #22]
 132              		.loc 1 87 9 is_stmt 1 view .LVU31
 133              	.LVL5:
 134              	.LBB45:
 135              	.LBB40:
 136              		.loc 1 73 12 is_stmt 0 view .LVU32
 137 0042 2346     		mov	r3, r4
 138 0044 0DF11702 		add	r2, sp, #23
 139 0048 1221     		movs	r1, #18
 140 004a 0A48     		ldr	r0, .L8+4
 141              	.LVL6:
 142              		.loc 1 73 12 view .LVU33
 143 004c 0297     		str	r7, [sp, #8]
 144 004e 8DF81760 		strb	r6, [sp, #23]
 145              	.LVL7:
 146              		.loc 1 73 12 view .LVU34
 147              	.LBE40:
 148              		.loc 1 72 14 is_stmt 1 view .LVU35
 149              	.LBB41:
 150              		.loc 1 73 5 view .LVU36
 151              		.loc 1 73 12 is_stmt 0 view .LVU37
 152 0052 CDE90054 		strd	r5, r4, [sp]
 153 0056 FFF7FEFF 		bl	i2cMasterTransmitTimeout
 154              	.LVL8:
 155              		.loc 1 73 12 view .LVU38
 156              	.LBE41:
 157              	.LBE45:
 158              		.loc 1 88 9 is_stmt 1 view .LVU39
 159              		.loc 1 88 12 is_stmt 0 view .LVU40
 160 005a 18B9     		cbnz	r0, .L1
 161              		.loc 1 91 9 is_stmt 1 view .LVU41
 162              		.loc 1 91 12 is_stmt 0 view .LVU42
 163 005c 9DF81630 		ldrb	r3, [sp, #22]	@ zero_extendqisi2
 164 0060 792B     		cmp	r3, #121
 165 0062 01D1     		bne	.L4
 166              	.LVL9:
 167              	.L1:
 168              		.loc 1 91 12 view .LVU43
 169              	.LBE47:
 170              	.LBE49:
 171              	.LBE51:
ARM GAS  C:\Users\DEVELO~1\AppData\Local\Temp\cc2vwVZD.s 			page 4


 172              	.LBE53:
 173              		.loc 1 136 1 view .LVU44
 174 0064 07B0     		add	sp, sp, #28
 175              		.cfi_remember_state
 176              		.cfi_def_cfa_offset 20
 177              		@ sp needed
 178 0066 F0BD     		pop	{r4, r5, r6, r7, pc}
 179              	.LVL10:
 180              	.L4:
 181              		.cfi_restore_state
 182              	.LBB54:
 183              	.LBB52:
 184              	.LBB50:
 185              	.LBB48:
 186              		.loc 1 92 20 view .LVU45
 187 0068 6FF00100 		mvn	r0, #1
 188              	.LVL11:
 189              		.loc 1 92 20 view .LVU46
 190 006c FAE7     		b	.L1
 191              	.L9:
 192 006e 00BF     		.align	2
 193              	.L8:
 194 0070 00000000 		.word	.LANCHOR0
 195 0074 00000000 		.word	I2CD3
 196              	.LBE48:
 197              	.LBE50:
 198              	.LBE52:
 199              	.LBE54:
 200              		.cfi_endproc
 201              	.LFE453:
 202              		.size	adau1979_init, .-adau1979_init
 203              		.section	.text.adau1979_set_default_config,"ax",%progbits
 204              		.align	1
 205              		.p2align 4,,15
 206              		.global	adau1979_set_default_config
 207              		.syntax unified
 208              		.thumb
 209              		.thumb_func
 210              		.type	adau1979_set_default_config, %function
 211              	adau1979_set_default_config:
 212              	.LFB454:
 213              		.loc 1 138 41 is_stmt 1 view -0
 214              		.cfi_startproc
 215              		@ args = 0, pretend = 0, frame = 8
 216              		@ frame_needed = 0, uses_anonymous_args = 0
 217              		.loc 1 140 5 view .LVU48
 218              	.LVL12:
 219              	.LBB137:
 220              	.LBI137:
 221              		.loc 1 76 14 view .LVU49
 222              	.LBB138:
 223              		.loc 1 77 5 view .LVU50
 224              		.loc 1 78 5 view .LVU51
 225              	.LBB139:
 226              		.loc 1 78 10 view .LVU52
 227              		.loc 1 78 26 view .LVU53
 228              		.loc 1 79 9 view .LVU54
ARM GAS  C:\Users\DEVELO~1\AppData\Local\Temp\cc2vwVZD.s 			page 5


 229              	.LBB140:
 230              	.LBI140:
 231              		.loc 1 67 14 view .LVU55
 232              	.LBB141:
 233              		.loc 1 68 5 view .LVU56
 234              	.LBE141:
 235              	.LBE140:
 236              	.LBE139:
 237              	.LBE138:
 238              	.LBE137:
 239              		.loc 1 138 41 is_stmt 0 view .LVU57
 240 0000 2DE9F047 		push	{r4, r5, r6, r7, r8, r9, r10, lr}
 241              		.cfi_def_cfa_offset 32
 242              		.cfi_offset 4, -32
 243              		.cfi_offset 5, -28
 244              		.cfi_offset 6, -24
 245              		.cfi_offset 7, -20
 246              		.cfi_offset 8, -16
 247              		.cfi_offset 9, -12
 248              		.cfi_offset 10, -8
 249              		.cfi_offset 14, -4
 250              	.LBB156:
 251              	.LBB153:
 252              	.LBB150:
 253              	.LBB146:
 254              	.LBB142:
 255              		.loc 1 69 12 view .LVU58
 256 0004 0025     		movs	r5, #0
 257              	.LBE142:
 258              	.LBE146:
 259              	.LBE150:
 260              	.LBE153:
 261              	.LBE156:
 262              		.loc 1 138 41 view .LVU59
 263 0006 86B0     		sub	sp, sp, #24
 264              		.cfi_def_cfa_offset 56
 265              	.LBB157:
 266              	.LBB154:
 267              	.LBB151:
 268              	.LBB147:
 269              	.LBB143:
 270              		.loc 1 69 12 view .LVU60
 271 0008 6426     		movs	r6, #100
 272              		.loc 1 68 13 view .LVU61
 273 000a 0427     		movs	r7, #4
 274              		.loc 1 69 12 view .LVU62
 275 000c 0223     		movs	r3, #2
 276 000e 05AA     		add	r2, sp, #20
 277 0010 1121     		movs	r1, #17
 278 0012 5048     		ldr	r0, .L18
 279 0014 0095     		str	r5, [sp]
 280              	.LBE143:
 281              	.LBE147:
 282              	.LBE151:
 283              	.LBE154:
 284              	.LBE157:
 285              	.LBB158:
ARM GAS  C:\Users\DEVELO~1\AppData\Local\Temp\cc2vwVZD.s 			page 6


 286              	.LBB159:
 287              	.LBB160:
 288              	.LBB161:
 289              	.LBB162:
 290              		.loc 1 68 13 view .LVU63
 291 0016 4FF00309 		mov	r9, #3
 292              	.LBE162:
 293              	.LBE161:
 294              	.LBE160:
 295              	.LBE159:
 296              	.LBE158:
 297              	.LBB177:
 298              	.LBB155:
 299              	.LBB152:
 300              	.LBB148:
 301              	.LBB144:
 302 001a ADF81470 		strh	r7, [sp, #20]	@ movhi
 303              		.loc 1 69 5 is_stmt 1 view .LVU64
 304              		.loc 1 69 12 is_stmt 0 view .LVU65
 305 001e CDE90156 		strd	r5, r6, [sp, #4]
 306 0022 FFF7FEFF 		bl	i2cMasterTransmitTimeout
 307              	.LVL13:
 308 0026 0223     		movs	r3, #2
 309 0028 0446     		mov	r4, r0
 310              	.LVL14:
 311              		.loc 1 69 12 view .LVU66
 312              	.LBE144:
 313              	.LBE148:
 314              		.loc 1 78 31 is_stmt 1 view .LVU67
 315              		.loc 1 78 26 view .LVU68
 316              		.loc 1 79 9 view .LVU69
 317              	.LBB149:
 318              		.loc 1 67 14 view .LVU70
 319              	.LBB145:
 320              		.loc 1 68 5 view .LVU71
 321              		.loc 1 69 12 is_stmt 0 view .LVU72
 322 002a 05AA     		add	r2, sp, #20
 323 002c 1221     		movs	r1, #18
 324 002e 4948     		ldr	r0, .L18
 325              	.LVL15:
 326              		.loc 1 69 12 view .LVU73
 327 0030 0095     		str	r5, [sp]
 328              		.loc 1 68 13 view .LVU74
 329 0032 ADF81470 		strh	r7, [sp, #20]	@ movhi
 330              		.loc 1 69 5 is_stmt 1 view .LVU75
 331              		.loc 1 69 12 is_stmt 0 view .LVU76
 332 0036 CDE90156 		strd	r5, r6, [sp, #4]
 333 003a FFF7FEFF 		bl	i2cMasterTransmitTimeout
 334              	.LVL16:
 335 003e 8046     		mov	r8, r0
 336              	.LVL17:
 337              		.loc 1 69 12 view .LVU77
 338              	.LBE145:
 339              	.LBE149:
 340              		.loc 1 78 31 is_stmt 1 view .LVU78
 341              		.loc 1 78 26 view .LVU79
 342              		.loc 1 78 26 is_stmt 0 view .LVU80
ARM GAS  C:\Users\DEVELO~1\AppData\Local\Temp\cc2vwVZD.s 			page 7


 343              	.LBE152:
 344              	.LBE155:
 345              	.LBE177:
 346              	.LBB178:
 347              	.LBB179:
 348              	.LBB180:
 349              		.loc 1 78 26 is_stmt 1 view .LVU81
 350              		.loc 1 79 9 view .LVU82
 351              	.LBB181:
 352              	.LBI181:
 353              		.loc 1 67 14 view .LVU83
 354              	.LBB182:
 355              		.loc 1 68 5 view .LVU84
 356              		.loc 1 69 12 is_stmt 0 view .LVU85
 357 0040 0223     		movs	r3, #2
 358 0042 05AA     		add	r2, sp, #20
 359 0044 1121     		movs	r1, #17
 360 0046 4348     		ldr	r0, .L18
 361 0048 0095     		str	r5, [sp]
 362 004a 44EA0804 		orr	r4, r4, r8
 363              		.loc 1 68 13 view .LVU86
 364 004e ADF81470 		strh	r7, [sp, #20]	@ movhi
 365              		.loc 1 69 5 is_stmt 1 view .LVU87
 366              	.LBE182:
 367              	.LBE181:
 368              	.LBE180:
 369              	.LBE179:
 370              	.LBE178:
 371              	.LBB193:
 372              	.LBB194:
 373              	.LBB195:
 374              	.LBB196:
 375              	.LBB197:
 376              		.loc 1 68 13 is_stmt 0 view .LVU88
 377 0052 4FF00208 		mov	r8, #2
 378              	.LBE197:
 379              	.LBE196:
 380              	.LBE195:
 381              	.LBE194:
 382              	.LBE193:
 383              	.LBB208:
 384              	.LBB191:
 385              	.LBB189:
 386              	.LBB186:
 387              	.LBB183:
 388              		.loc 1 69 12 view .LVU89
 389 0056 CDE90156 		strd	r5, r6, [sp, #4]
 390 005a FFF7FEFF 		bl	i2cMasterTransmitTimeout
 391              	.LVL18:
 392              		.loc 1 68 13 view .LVU90
 393 005e ADF81470 		strh	r7, [sp, #20]	@ movhi
 394              		.loc 1 69 12 view .LVU91
 395 0062 0746     		mov	r7, r0
 396              	.LVL19:
 397              		.loc 1 69 12 view .LVU92
 398              	.LBE183:
 399              	.LBE186:
ARM GAS  C:\Users\DEVELO~1\AppData\Local\Temp\cc2vwVZD.s 			page 8


 400              		.loc 1 78 31 is_stmt 1 view .LVU93
 401              		.loc 1 78 26 view .LVU94
 402              		.loc 1 79 9 view .LVU95
 403              	.LBB187:
 404              		.loc 1 67 14 view .LVU96
 405              	.LBB184:
 406              		.loc 1 68 5 view .LVU97
 407              		.loc 1 69 5 view .LVU98
 408              		.loc 1 69 12 is_stmt 0 view .LVU99
 409 0064 0223     		movs	r3, #2
 410 0066 05AA     		add	r2, sp, #20
 411 0068 1221     		movs	r1, #18
 412 006a 3C43     		orrs	r4, r4, r7
 413 006c 3948     		ldr	r0, .L18
 414              	.LVL20:
 415              		.loc 1 69 12 view .LVU100
 416              	.LBE184:
 417              	.LBE187:
 418              	.LBE189:
 419              	.LBE191:
 420              	.LBE208:
 421              	.LBB209:
 422              	.LBB210:
 423              	.LBB211:
 424              	.LBB212:
 425              	.LBB213:
 426              		.loc 1 68 13 view .LVU101
 427 006e 4FF48077 		mov	r7, #256
 428              	.LVL21:
 429              		.loc 1 68 13 view .LVU102
 430              	.LBE213:
 431              	.LBE212:
 432              	.LBE211:
 433              	.LBE210:
 434              	.LBE209:
 435              	.LBB228:
 436              	.LBB192:
 437              	.LBB190:
 438              	.LBB188:
 439              	.LBB185:
 440              		.loc 1 69 12 view .LVU103
 441 0072 0095     		str	r5, [sp]
 442 0074 CDE90156 		strd	r5, r6, [sp, #4]
 443 0078 FFF7FEFF 		bl	i2cMasterTransmitTimeout
 444              	.LVL22:
 445              		.loc 1 69 12 view .LVU104
 446              	.LBE185:
 447              	.LBE188:
 448              		.loc 1 78 31 is_stmt 1 view .LVU105
 449              		.loc 1 78 26 view .LVU106
 450              	.LBE190:
 451              		.loc 1 81 5 view .LVU107
 452              		.loc 1 81 5 is_stmt 0 view .LVU108
 453              	.LBE192:
 454              	.LBE228:
 455              	.LBB229:
 456              	.LBB225:
ARM GAS  C:\Users\DEVELO~1\AppData\Local\Temp\cc2vwVZD.s 			page 9


 457              	.LBB222:
 458              	.LBB218:
 459              	.LBB214:
 460              		.loc 1 69 12 view .LVU109
 461 007c 0223     		movs	r3, #2
 462 007e 0443     		orrs	r4, r4, r0
 463              	.LVL23:
 464              		.loc 1 69 12 view .LVU110
 465              	.LBE214:
 466              	.LBE218:
 467              	.LBE222:
 468              	.LBE225:
 469              	.LBE229:
 470              		.loc 1 149 5 is_stmt 1 view .LVU111
 471              	.LBB230:
 472              	.LBI209:
 473              		.loc 1 76 14 view .LVU112
 474              	.LBB226:
 475              	.LBB223:
 476              		.loc 1 78 26 view .LVU113
 477              		.loc 1 79 9 view .LVU114
 478              	.LBB219:
 479              	.LBI212:
 480              		.loc 1 67 14 view .LVU115
 481              	.LBB215:
 482              		.loc 1 68 5 view .LVU116
 483              		.loc 1 69 12 is_stmt 0 view .LVU117
 484 0080 05AA     		add	r2, sp, #20
 485 0082 1121     		movs	r1, #17
 486 0084 3348     		ldr	r0, .L18
 487 0086 0095     		str	r5, [sp]
 488              		.loc 1 68 13 view .LVU118
 489 0088 ADF81470 		strh	r7, [sp, #20]	@ movhi
 490              		.loc 1 69 5 is_stmt 1 view .LVU119
 491              		.loc 1 69 12 is_stmt 0 view .LVU120
 492 008c CDE90156 		strd	r5, r6, [sp, #4]
 493 0090 FFF7FEFF 		bl	i2cMasterTransmitTimeout
 494              	.LVL24:
 495              		.loc 1 68 13 view .LVU121
 496 0094 ADF81470 		strh	r7, [sp, #20]	@ movhi
 497              		.loc 1 69 12 view .LVU122
 498 0098 0746     		mov	r7, r0
 499              	.LVL25:
 500              		.loc 1 69 12 view .LVU123
 501              	.LBE215:
 502              	.LBE219:
 503              		.loc 1 78 31 is_stmt 1 view .LVU124
 504              		.loc 1 78 26 view .LVU125
 505              		.loc 1 79 9 view .LVU126
 506              	.LBB220:
 507              		.loc 1 67 14 view .LVU127
 508              	.LBB216:
 509              		.loc 1 68 5 view .LVU128
 510              		.loc 1 69 5 view .LVU129
 511              		.loc 1 69 12 is_stmt 0 view .LVU130
 512 009a 0223     		movs	r3, #2
 513 009c 05AA     		add	r2, sp, #20
ARM GAS  C:\Users\DEVELO~1\AppData\Local\Temp\cc2vwVZD.s 			page 10


 514 009e 1221     		movs	r1, #18
 515 00a0 2743     		orrs	r7, r7, r4
 516 00a2 2C48     		ldr	r0, .L18
 517              	.LVL26:
 518              		.loc 1 69 12 view .LVU131
 519              	.LBE216:
 520              	.LBE220:
 521              	.LBE223:
 522              	.LBE226:
 523              	.LBE230:
 524              	.LBB231:
 525              	.LBB232:
 526              	.LBB233:
 527              	.LBB234:
 528              	.LBB235:
 529              		.loc 1 68 13 view .LVU132
 530 00a4 44F20114 		movw	r4, #16641
 531              	.LBE235:
 532              	.LBE234:
 533              	.LBE233:
 534              	.LBE232:
 535              	.LBE231:
 536              	.LBB246:
 537              	.LBB227:
 538              	.LBB224:
 539              	.LBB221:
 540              	.LBB217:
 541              		.loc 1 69 12 view .LVU133
 542 00a8 0296     		str	r6, [sp, #8]
 543 00aa CDE90055 		strd	r5, r5, [sp]
 544 00ae FFF7FEFF 		bl	i2cMasterTransmitTimeout
 545              	.LVL27:
 546              		.loc 1 69 12 view .LVU134
 547              	.LBE217:
 548              	.LBE221:
 549              		.loc 1 78 31 is_stmt 1 view .LVU135
 550              		.loc 1 78 26 view .LVU136
 551              	.LBE224:
 552              		.loc 1 81 5 view .LVU137
 553              		.loc 1 81 5 is_stmt 0 view .LVU138
 554              	.LBE227:
 555              	.LBE246:
 556              	.LBB247:
 557              	.LBB244:
 558              	.LBB242:
 559              	.LBB239:
 560              	.LBB236:
 561              		.loc 1 69 12 view .LVU139
 562 00b2 0223     		movs	r3, #2
 563 00b4 0743     		orrs	r7, r7, r0
 564              		.loc 1 69 12 view .LVU140
 565              	.LBE236:
 566              	.LBE239:
 567              	.LBE242:
 568              	.LBE244:
 569              	.LBE247:
 570              		.loc 1 150 5 is_stmt 1 view .LVU141
ARM GAS  C:\Users\DEVELO~1\AppData\Local\Temp\cc2vwVZD.s 			page 11


 571              	.LVL28:
 572              	.LBB248:
 573              	.LBI231:
 574              		.loc 1 76 14 view .LVU142
 575              	.LBB245:
 576              	.LBB243:
 577              		.loc 1 78 26 view .LVU143
 578              		.loc 1 79 9 view .LVU144
 579              	.LBB240:
 580              	.LBI234:
 581              		.loc 1 67 14 view .LVU145
 582              	.LBB237:
 583              		.loc 1 68 5 view .LVU146
 584              		.loc 1 69 12 is_stmt 0 view .LVU147
 585 00b6 05AA     		add	r2, sp, #20
 586 00b8 1121     		movs	r1, #17
 587 00ba 2648     		ldr	r0, .L18
 588 00bc 0095     		str	r5, [sp]
 589              		.loc 1 68 13 view .LVU148
 590 00be ADF81440 		strh	r4, [sp, #20]	@ movhi
 591              		.loc 1 69 5 is_stmt 1 view .LVU149
 592              		.loc 1 69 12 is_stmt 0 view .LVU150
 593 00c2 CDE90156 		strd	r5, r6, [sp, #4]
 594 00c6 FFF7FEFF 		bl	i2cMasterTransmitTimeout
 595              	.LVL29:
 596              		.loc 1 68 13 view .LVU151
 597 00ca ADF81440 		strh	r4, [sp, #20]	@ movhi
 598              		.loc 1 69 12 view .LVU152
 599 00ce 0446     		mov	r4, r0
 600              	.LVL30:
 601              		.loc 1 69 12 view .LVU153
 602              	.LBE237:
 603              	.LBE240:
 604              		.loc 1 78 31 is_stmt 1 view .LVU154
 605              		.loc 1 78 26 view .LVU155
 606              		.loc 1 79 9 view .LVU156
 607              	.LBB241:
 608              		.loc 1 67 14 view .LVU157
 609              	.LBB238:
 610              		.loc 1 68 5 view .LVU158
 611              		.loc 1 69 5 view .LVU159
 612              		.loc 1 69 12 is_stmt 0 view .LVU160
 613 00d0 4346     		mov	r3, r8
 614 00d2 05AA     		add	r2, sp, #20
 615 00d4 1221     		movs	r1, #18
 616 00d6 3C43     		orrs	r4, r4, r7
 617 00d8 1E48     		ldr	r0, .L18
 618              	.LVL31:
 619              		.loc 1 69 12 view .LVU161
 620 00da 0296     		str	r6, [sp, #8]
 621 00dc CDE90055 		strd	r5, r5, [sp]
 622 00e0 FFF7FEFF 		bl	i2cMasterTransmitTimeout
 623              	.LVL32:
 624              		.loc 1 69 12 view .LVU162
 625              	.LBE238:
 626              	.LBE241:
 627              		.loc 1 78 31 is_stmt 1 view .LVU163
ARM GAS  C:\Users\DEVELO~1\AppData\Local\Temp\cc2vwVZD.s 			page 12


 628              		.loc 1 78 26 view .LVU164
 629              	.LBE243:
 630              		.loc 1 81 5 view .LVU165
 631              		.loc 1 81 5 is_stmt 0 view .LVU166
 632              	.LBE245:
 633              	.LBE248:
 634              	.LBB249:
 635              	.LBB206:
 636              	.LBB204:
 637              	.LBB201:
 638              	.LBB198:
 639              		.loc 1 69 12 view .LVU167
 640 00e4 4346     		mov	r3, r8
 641 00e6 0443     		orrs	r4, r4, r0
 642              		.loc 1 69 12 view .LVU168
 643              	.LBE198:
 644              	.LBE201:
 645              	.LBE204:
 646              	.LBE206:
 647              	.LBE249:
 648              		.loc 1 152 5 is_stmt 1 view .LVU169
 649              	.LVL33:
 650              	.LBB250:
 651              	.LBI193:
 652              		.loc 1 76 14 view .LVU170
 653              	.LBB207:
 654              	.LBB205:
 655              		.loc 1 78 26 view .LVU171
 656              		.loc 1 79 9 view .LVU172
 657              	.LBB202:
 658              	.LBI196:
 659              		.loc 1 67 14 view .LVU173
 660              	.LBB199:
 661              		.loc 1 68 5 view .LVU174
 662              		.loc 1 69 12 is_stmt 0 view .LVU175
 663 00e8 05AA     		add	r2, sp, #20
 664 00ea 1121     		movs	r1, #17
 665 00ec 1948     		ldr	r0, .L18
 666 00ee 0095     		str	r5, [sp]
 667              		.loc 1 68 13 view .LVU176
 668 00f0 ADF81480 		strh	r8, [sp, #20]	@ movhi
 669              		.loc 1 69 5 is_stmt 1 view .LVU177
 670              		.loc 1 69 12 is_stmt 0 view .LVU178
 671 00f4 CDE90156 		strd	r5, r6, [sp, #4]
 672 00f8 FFF7FEFF 		bl	i2cMasterTransmitTimeout
 673              	.LVL34:
 674 00fc 0746     		mov	r7, r0
 675              	.LVL35:
 676              		.loc 1 69 12 view .LVU179
 677              	.LBE199:
 678              	.LBE202:
 679              		.loc 1 78 31 is_stmt 1 view .LVU180
 680              		.loc 1 78 26 view .LVU181
 681              		.loc 1 79 9 view .LVU182
 682              	.LBB203:
 683              		.loc 1 67 14 view .LVU183
 684              	.LBB200:
ARM GAS  C:\Users\DEVELO~1\AppData\Local\Temp\cc2vwVZD.s 			page 13


 685              		.loc 1 68 5 view .LVU184
 686              		.loc 1 69 12 is_stmt 0 view .LVU185
 687 00fe 4346     		mov	r3, r8
 688 0100 05AA     		add	r2, sp, #20
 689 0102 2743     		orrs	r7, r7, r4
 690 0104 1221     		movs	r1, #18
 691 0106 1348     		ldr	r0, .L18
 692              	.LVL36:
 693              		.loc 1 69 12 view .LVU186
 694 0108 0095     		str	r5, [sp]
 695              		.loc 1 68 13 view .LVU187
 696 010a ADF81480 		strh	r8, [sp, #20]	@ movhi
 697              		.loc 1 69 5 is_stmt 1 view .LVU188
 698              		.loc 1 69 12 is_stmt 0 view .LVU189
 699 010e CDE90156 		strd	r5, r6, [sp, #4]
 700 0112 FFF7FEFF 		bl	i2cMasterTransmitTimeout
 701              	.LVL37:
 702              		.loc 1 69 12 view .LVU190
 703              	.LBE200:
 704              	.LBE203:
 705              		.loc 1 78 31 is_stmt 1 view .LVU191
 706              		.loc 1 78 26 view .LVU192
 707              	.LBE205:
 708              		.loc 1 81 5 view .LVU193
 709              		.loc 1 81 5 is_stmt 0 view .LVU194
 710              	.LBE207:
 711              	.LBE250:
 712              	.LBB251:
 713              	.LBB174:
 714              	.LBB171:
 715              	.LBB167:
 716              	.LBB163:
 717              		.loc 1 69 12 view .LVU195
 718 0116 4346     		mov	r3, r8
 719 0118 0743     		orrs	r7, r7, r0
 720              		.loc 1 69 12 view .LVU196
 721              	.LBE163:
 722              	.LBE167:
 723              	.LBE171:
 724              	.LBE174:
 725              	.LBE251:
 726              		.loc 1 153 5 is_stmt 1 view .LVU197
 727              	.LVL38:
 728              	.LBB252:
 729              	.LBI158:
 730              		.loc 1 76 14 view .LVU198
 731              	.LBB175:
 732              	.LBB172:
 733              		.loc 1 78 26 view .LVU199
 734              		.loc 1 79 9 view .LVU200
 735              	.LBB168:
 736              	.LBI161:
 737              		.loc 1 67 14 view .LVU201
 738              	.LBB164:
 739              		.loc 1 68 5 view .LVU202
 740              		.loc 1 69 12 is_stmt 0 view .LVU203
 741 011a 05AA     		add	r2, sp, #20
ARM GAS  C:\Users\DEVELO~1\AppData\Local\Temp\cc2vwVZD.s 			page 14


 742 011c 1121     		movs	r1, #17
 743 011e 0D48     		ldr	r0, .L18
 744 0120 0095     		str	r5, [sp]
 745              		.loc 1 68 13 view .LVU204
 746 0122 ADF81490 		strh	r9, [sp, #20]	@ movhi
 747              		.loc 1 69 5 is_stmt 1 view .LVU205
 748              		.loc 1 69 12 is_stmt 0 view .LVU206
 749 0126 CDE90156 		strd	r5, r6, [sp, #4]
 750 012a FFF7FEFF 		bl	i2cMasterTransmitTimeout
 751              	.LVL39:
 752 012e 0446     		mov	r4, r0
 753              	.LVL40:
 754              		.loc 1 69 12 view .LVU207
 755              	.LBE164:
 756              	.LBE168:
 757              		.loc 1 78 31 is_stmt 1 view .LVU208
 758              		.loc 1 78 26 view .LVU209
 759              		.loc 1 79 9 view .LVU210
 760              	.LBB169:
 761              		.loc 1 67 14 view .LVU211
 762              	.LBB165:
 763              		.loc 1 68 5 view .LVU212
 764              		.loc 1 69 5 view .LVU213
 765              		.loc 1 69 12 is_stmt 0 view .LVU214
 766 0130 4346     		mov	r3, r8
 767 0132 05AA     		add	r2, sp, #20
 768              	.LBE165:
 769              	.LBE169:
 770              	.LBE172:
 771              	.LBE175:
 772              	.LBE252:
 773              		.loc 1 153 8 view .LVU215
 774 0134 3C43     		orrs	r4, r4, r7
 775              	.LBB253:
 776              	.LBB176:
 777              	.LBB173:
 778              	.LBB170:
 779              	.LBB166:
 780              		.loc 1 69 12 view .LVU216
 781 0136 1221     		movs	r1, #18
 782 0138 0648     		ldr	r0, .L18
 783              	.LVL41:
 784              		.loc 1 69 12 view .LVU217
 785 013a 0296     		str	r6, [sp, #8]
 786              		.loc 1 68 13 view .LVU218
 787 013c ADF81490 		strh	r9, [sp, #20]	@ movhi
 788              		.loc 1 69 12 view .LVU219
 789 0140 CDE90055 		strd	r5, r5, [sp]
 790 0144 FFF7FEFF 		bl	i2cMasterTransmitTimeout
 791              	.LVL42:
 792              		.loc 1 69 12 view .LVU220
 793              	.LBE166:
 794              	.LBE170:
 795              		.loc 1 78 31 is_stmt 1 view .LVU221
 796              		.loc 1 78 26 view .LVU222
 797              	.LBE173:
 798              		.loc 1 81 5 view .LVU223
ARM GAS  C:\Users\DEVELO~1\AppData\Local\Temp\cc2vwVZD.s 			page 15


 799              		.loc 1 81 5 is_stmt 0 view .LVU224
 800              	.LBE176:
 801              	.LBE253:
 802              		.loc 1 154 5 is_stmt 1 view .LVU225
 803              		.loc 1 154 8 is_stmt 0 view .LVU226
 804 0148 0443     		orrs	r4, r4, r0
 805              	.LVL43:
 806              		.loc 1 154 8 view .LVU227
 807 014a 05D0     		beq	.L17
 808              	.LVL44:
 809              	.L10:
 810              		.loc 1 189 1 view .LVU228
 811 014c 2046     		mov	r0, r4
 812 014e 06B0     		add	sp, sp, #24
 813              		.cfi_remember_state
 814              		.cfi_def_cfa_offset 32
 815              		@ sp needed
 816 0150 BDE8F087 		pop	{r4, r5, r6, r7, r8, r9, r10, pc}
 817              	.L19:
 818              		.align	2
 819              	.L18:
 820 0154 00000000 		.word	I2CD3
 821              	.LVL45:
 822              	.L17:
 823              		.cfi_restore_state
 824              		.loc 1 158 5 is_stmt 1 view .LVU229
 825              	.LBB254:
 826              	.LBI254:
 827              		.loc 1 99 14 view .LVU230
 828              	.LBB255:
 829              		.loc 1 100 5 view .LVU231
 830              	.LBB256:
 831              	.LBI256:
 832              		.file 2 "./ChibiOS/os/rt/include/chvt.h"
 833              		.loc 2 135 25 view .LVU232
 834              		.loc 2 140 3 view .LVU233
 835              	.LBB257:
 836              	.LBI257:
 837              		.file 3 "./ChibiOS/os/hal/osal/rt-nil/chcore_timer.h"
 838              		.loc 3 111 25 view .LVU234
 839              	.LBB258:
 840              		.loc 3 113 3 view .LVU235
 841              		.loc 3 113 10 is_stmt 0 view .LVU236
 842 0158 FFF7FEFF 		bl	stGetCounter
 843              	.LVL46:
 844 015c 0DF11307 		add	r7, sp, #19
 845              	.LBE258:
 846              	.LBE257:
 847              	.LBE256:
 848              	.LBB261:
 849              	.LBB262:
 850              	.LBB263:
 851              		.loc 1 106 21 view .LVU237
 852 0160 A246     		mov	r10, r4
 853              	.LBE263:
 854              	.LBE262:
 855              	.LBE261:
ARM GAS  C:\Users\DEVELO~1\AppData\Local\Temp\cc2vwVZD.s 			page 16


 856              	.LBB292:
 857              	.LBB260:
 858              	.LBB259:
 859              		.loc 3 113 10 view .LVU238
 860 0162 8146     		mov	r9, r0
 861              	.LVL47:
 862              		.loc 3 113 10 view .LVU239
 863              	.LBE259:
 864              	.LBE260:
 865              	.LBE292:
 866              		.loc 1 101 5 is_stmt 1 view .LVU240
 867              		.loc 1 101 5 is_stmt 0 view .LVU241
 868 0164 0125     		movs	r5, #1
 869              	.LBB293:
 870              	.LBB282:
 871              	.LBB278:
 872              	.LBB264:
 873              	.LBB265:
 874              		.loc 1 73 12 view .LVU242
 875 0166 DFF83482 		ldr	r8, .L20
 876              	.LVL48:
 877              	.L14:
 878              		.loc 1 73 12 view .LVU243
 879              	.LBE265:
 880              	.LBE264:
 881              	.LBE278:
 882              	.LBE282:
 883              	.LBE293:
 884              		.loc 1 103 5 is_stmt 1 view .LVU244
 885              	.LBB294:
 886              		.loc 1 104 9 view .LVU245
 887              		.loc 1 105 9 view .LVU246
 888              	.LBB283:
 889              		.loc 1 105 14 view .LVU247
 890              		.loc 1 105 30 view .LVU248
 891              	.LBB279:
 892              		.loc 1 106 13 view .LVU249
 893              	.LBB272:
 894              	.LBB266:
 895              		.loc 1 73 12 is_stmt 0 view .LVU250
 896 016a 6426     		movs	r6, #100
 897 016c 0123     		movs	r3, #1
 898 016e 05AA     		add	r2, sp, #20
 899 0170 1121     		movs	r1, #17
 900 0172 4046     		mov	r0, r8
 901 0174 0296     		str	r6, [sp, #8]
 902              	.LBE266:
 903              	.LBE272:
 904              		.loc 1 106 21 view .LVU251
 905 0176 8DF813A0 		strb	r10, [sp, #19]
 906              		.loc 1 107 13 is_stmt 1 view .LVU252
 907              	.LVL49:
 908              		.loc 1 107 13 is_stmt 0 view .LVU253
 909 017a 8DF81450 		strb	r5, [sp, #20]
 910              	.LVL50:
 911              	.LBB273:
 912              	.LBI264:
ARM GAS  C:\Users\DEVELO~1\AppData\Local\Temp\cc2vwVZD.s 			page 17


 913              		.loc 1 72 14 is_stmt 1 view .LVU254
 914              	.LBB267:
 915              		.loc 1 73 5 view .LVU255
 916              		.loc 1 73 12 is_stmt 0 view .LVU256
 917 017e CDE90075 		strd	r7, r5, [sp]
 918 0182 FFF7FEFF 		bl	i2cMasterTransmitTimeout
 919              	.LVL51:
 920              		.loc 1 73 12 view .LVU257
 921              	.LBE267:
 922              	.LBE273:
 923              		.loc 1 111 13 is_stmt 1 view .LVU258
 924              	.LBE279:
 925              		.loc 1 105 35 view .LVU259
 926              		.loc 1 105 30 view .LVU260
 927              	.LBB280:
 928              		.loc 1 106 13 view .LVU261
 929              	.LBB274:
 930              	.LBB268:
 931              		.loc 1 73 12 is_stmt 0 view .LVU262
 932 0186 0446     		mov	r4, r0
 933              	.LVL52:
 934              		.loc 1 73 12 view .LVU263
 935              	.LBE268:
 936              	.LBE274:
 937              		.loc 1 108 13 is_stmt 1 view .LVU264
 938              	.LBB275:
 939              	.LBB269:
 940              		.loc 1 73 12 is_stmt 0 view .LVU265
 941 0188 0123     		movs	r3, #1
 942 018a 05AA     		add	r2, sp, #20
 943 018c 1221     		movs	r1, #18
 944 018e 4046     		mov	r0, r8
 945              	.LVL53:
 946              		.loc 1 73 12 view .LVU266
 947              	.LBE269:
 948              	.LBE275:
 949              		.loc 1 108 16 view .LVU267
 950 0190 002C     		cmp	r4, #0
 951 0192 DBD1     		bne	.L10
 952              		.loc 1 111 16 view .LVU268
 953 0194 9DF913C0 		ldrsb	ip, [sp, #19]
 954 0198 BCF1000F 		cmp	ip, #0
 955 019c 80F2F080 		bge	.L13
 956              	.LBB276:
 957              	.LBB270:
 958              		.loc 1 73 12 view .LVU269
 959 01a0 0097     		str	r7, [sp]
 960              	.LBE270:
 961              	.LBE276:
 962              		.loc 1 106 21 view .LVU270
 963 01a2 8DF81340 		strb	r4, [sp, #19]
 964              		.loc 1 107 13 is_stmt 1 view .LVU271
 965              	.LVL54:
 966              		.loc 1 107 13 is_stmt 0 view .LVU272
 967 01a6 8DF81450 		strb	r5, [sp, #20]
 968              	.LVL55:
 969              	.LBB277:
ARM GAS  C:\Users\DEVELO~1\AppData\Local\Temp\cc2vwVZD.s 			page 18


 970              		.loc 1 72 14 is_stmt 1 view .LVU273
 971              	.LBB271:
 972              		.loc 1 73 5 view .LVU274
 973              		.loc 1 73 12 is_stmt 0 view .LVU275
 974 01aa CDE90156 		strd	r5, r6, [sp, #4]
 975 01ae FFF7FEFF 		bl	i2cMasterTransmitTimeout
 976              	.LVL56:
 977              		.loc 1 73 12 view .LVU276
 978              	.LBE271:
 979              	.LBE277:
 980              		.loc 1 111 13 is_stmt 1 view .LVU277
 981              		.loc 1 108 13 view .LVU278
 982              		.loc 1 108 16 is_stmt 0 view .LVU279
 983 01b2 0446     		mov	r4, r0
 984 01b4 0028     		cmp	r0, #0
 985 01b6 C9D1     		bne	.L10
 986              		.loc 1 111 16 view .LVU280
 987 01b8 9DF91330 		ldrsb	r3, [sp, #19]
 988 01bc 002B     		cmp	r3, #0
 989 01be 80F2DF80 		bge	.L13
 990              	.LBE280:
 991              		.loc 1 105 35 is_stmt 1 view .LVU281
 992              	.LVL57:
 993              		.loc 1 105 30 view .LVU282
 994              		.loc 1 105 30 is_stmt 0 view .LVU283
 995              	.LBE283:
 996              	.LBE294:
 997              	.LBE255:
 998              	.LBE254:
 999              		.loc 1 159 5 is_stmt 1 view .LVU284
 1000              	.LBB298:
 1001              	.LBB299:
 1002              	.LBB300:
 1003              		.loc 1 78 26 view .LVU285
 1004              		.loc 1 79 9 view .LVU286
 1005              	.LBB301:
 1006              	.LBI301:
 1007              		.loc 1 67 14 view .LVU287
 1008              	.LBB302:
 1009              		.loc 1 68 5 view .LVU288
 1010              		.loc 1 68 13 is_stmt 0 view .LVU289
 1011 01c2 44F60507 		movw	r7, #18437
 1012              		.loc 1 69 12 view .LVU290
 1013 01c6 05AA     		add	r2, sp, #20
 1014 01c8 0223     		movs	r3, #2
 1015 01ca 1121     		movs	r1, #17
 1016 01cc 0296     		str	r6, [sp, #8]
 1017              		.loc 1 68 13 view .LVU291
 1018 01ce ADF81470 		strh	r7, [sp, #20]	@ movhi
 1019              		.loc 1 69 5 is_stmt 1 view .LVU292
 1020              		.loc 1 69 12 is_stmt 0 view .LVU293
 1021 01d2 CDE90000 		strd	r0, r0, [sp]
 1022 01d6 7148     		ldr	r0, .L20
 1023 01d8 FFF7FEFF 		bl	i2cMasterTransmitTimeout
 1024              	.LVL58:
 1025 01dc 05AA     		add	r2, sp, #20
 1026 01de 0546     		mov	r5, r0
ARM GAS  C:\Users\DEVELO~1\AppData\Local\Temp\cc2vwVZD.s 			page 19


 1027              	.LVL59:
 1028              		.loc 1 69 12 view .LVU294
 1029              	.LBE302:
 1030              	.LBE301:
 1031              		.loc 1 78 31 is_stmt 1 view .LVU295
 1032              		.loc 1 78 26 view .LVU296
 1033              		.loc 1 79 9 view .LVU297
 1034              	.LBB305:
 1035              		.loc 1 67 14 view .LVU298
 1036              	.LBB303:
 1037              		.loc 1 68 5 view .LVU299
 1038              		.loc 1 69 12 is_stmt 0 view .LVU300
 1039 01e0 0223     		movs	r3, #2
 1040 01e2 1221     		movs	r1, #18
 1041 01e4 0296     		str	r6, [sp, #8]
 1042 01e6 6D48     		ldr	r0, .L20
 1043              	.LVL60:
 1044              		.loc 1 68 13 view .LVU301
 1045 01e8 ADF81470 		strh	r7, [sp, #20]	@ movhi
 1046              		.loc 1 69 5 is_stmt 1 view .LVU302
 1047              	.LBE303:
 1048              	.LBE305:
 1049              	.LBE300:
 1050              	.LBE299:
 1051              	.LBE298:
 1052              	.LBB311:
 1053              	.LBB312:
 1054              	.LBB313:
 1055              	.LBB314:
 1056              	.LBB315:
 1057              		.loc 1 68 13 is_stmt 0 view .LVU303
 1058 01ec 40F60477 		movw	r7, #3844
 1059              	.LBE315:
 1060              	.LBE314:
 1061              	.LBE313:
 1062              	.LBE312:
 1063              	.LBE311:
 1064              	.LBB326:
 1065              	.LBB309:
 1066              	.LBB307:
 1067              	.LBB306:
 1068              	.LBB304:
 1069              		.loc 1 69 12 view .LVU304
 1070 01f0 CDE90044 		strd	r4, r4, [sp]
 1071 01f4 FFF7FEFF 		bl	i2cMasterTransmitTimeout
 1072              	.LVL61:
 1073              		.loc 1 69 12 view .LVU305
 1074              	.LBE304:
 1075              	.LBE306:
 1076              	.LBE307:
 1077              	.LBE309:
 1078              	.LBE326:
 1079              	.LBB327:
 1080              	.LBB328:
 1081              		.loc 1 68 13 view .LVU306
 1082 01f8 0723     		movs	r3, #7
 1083              		.loc 1 69 12 view .LVU307
ARM GAS  C:\Users\DEVELO~1\AppData\Local\Temp\cc2vwVZD.s 			page 20


 1084 01fa 05AA     		add	r2, sp, #20
 1085              	.LBE328:
 1086              	.LBE327:
 1087              	.LBB330:
 1088              	.LBB310:
 1089              	.LBB308:
 1090              		.loc 1 79 12 view .LVU308
 1091 01fc 0543     		orrs	r5, r5, r0
 1092              	.LVL62:
 1093              		.loc 1 78 31 is_stmt 1 view .LVU309
 1094              		.loc 1 78 26 view .LVU310
 1095              	.LBE308:
 1096              		.loc 1 81 5 view .LVU311
 1097              		.loc 1 81 5 is_stmt 0 view .LVU312
 1098              	.LBE310:
 1099              	.LBE330:
 1100              		.loc 1 172 5 is_stmt 1 view .LVU313
 1101              	.LBB331:
 1102              	.LBI327:
 1103              		.loc 1 67 14 view .LVU314
 1104              	.LBB329:
 1105              		.loc 1 68 5 view .LVU315
 1106              		.loc 1 68 13 is_stmt 0 view .LVU316
 1107 01fe ADF81430 		strh	r3, [sp, #20]	@ movhi
 1108              		.loc 1 69 5 is_stmt 1 view .LVU317
 1109              		.loc 1 69 12 is_stmt 0 view .LVU318
 1110 0202 1121     		movs	r1, #17
 1111 0204 0223     		movs	r3, #2
 1112 0206 0296     		str	r6, [sp, #8]
 1113 0208 6448     		ldr	r0, .L20
 1114 020a CDE90044 		strd	r4, r4, [sp]
 1115 020e FFF7FEFF 		bl	i2cMasterTransmitTimeout
 1116              	.LVL63:
 1117              		.loc 1 69 12 view .LVU319
 1118              	.LBE329:
 1119              	.LBE331:
 1120              	.LBB332:
 1121              	.LBB333:
 1122              		.loc 1 68 13 view .LVU320
 1123 0212 42F20813 		movw	r3, #8456
 1124              		.loc 1 69 12 view .LVU321
 1125 0216 05AA     		add	r2, sp, #20
 1126              	.LBE333:
 1127              	.LBE332:
 1128              		.loc 1 172 8 view .LVU322
 1129 0218 0543     		orrs	r5, r5, r0
 1130              	.LVL64:
 1131              		.loc 1 173 5 is_stmt 1 view .LVU323
 1132              	.LBB335:
 1133              	.LBI332:
 1134              		.loc 1 67 14 view .LVU324
 1135              	.LBB334:
 1136              		.loc 1 68 5 view .LVU325
 1137              		.loc 1 68 13 is_stmt 0 view .LVU326
 1138 021a ADF81430 		strh	r3, [sp, #20]	@ movhi
 1139              		.loc 1 69 5 is_stmt 1 view .LVU327
 1140              		.loc 1 69 12 is_stmt 0 view .LVU328
ARM GAS  C:\Users\DEVELO~1\AppData\Local\Temp\cc2vwVZD.s 			page 21


 1141 021e 1121     		movs	r1, #17
 1142 0220 0223     		movs	r3, #2
 1143 0222 0296     		str	r6, [sp, #8]
 1144 0224 5D48     		ldr	r0, .L20
 1145 0226 CDE90044 		strd	r4, r4, [sp]
 1146 022a FFF7FEFF 		bl	i2cMasterTransmitTimeout
 1147              	.LVL65:
 1148              		.loc 1 69 12 view .LVU329
 1149              	.LBE334:
 1150              	.LBE335:
 1151              	.LBB336:
 1152              	.LBB337:
 1153              		.loc 1 68 13 view .LVU330
 1154 022e 44F20923 		movw	r3, #16905
 1155              		.loc 1 69 12 view .LVU331
 1156 0232 05AA     		add	r2, sp, #20
 1157              	.LBE337:
 1158              	.LBE336:
 1159              		.loc 1 173 8 view .LVU332
 1160 0234 0543     		orrs	r5, r5, r0
 1161              	.LVL66:
 1162              		.loc 1 174 5 is_stmt 1 view .LVU333
 1163              	.LBB339:
 1164              	.LBI336:
 1165              		.loc 1 67 14 view .LVU334
 1166              	.LBB338:
 1167              		.loc 1 68 5 view .LVU335
 1168              		.loc 1 68 13 is_stmt 0 view .LVU336
 1169 0236 ADF81430 		strh	r3, [sp, #20]	@ movhi
 1170              		.loc 1 69 5 is_stmt 1 view .LVU337
 1171              		.loc 1 69 12 is_stmt 0 view .LVU338
 1172 023a 1121     		movs	r1, #17
 1173 023c 0223     		movs	r3, #2
 1174 023e 0296     		str	r6, [sp, #8]
 1175 0240 5648     		ldr	r0, .L20
 1176 0242 CDE90044 		strd	r4, r4, [sp]
 1177 0246 FFF7FEFF 		bl	i2cMasterTransmitTimeout
 1178              	.LVL67:
 1179              		.loc 1 69 12 view .LVU339
 1180              	.LBE338:
 1181              	.LBE339:
 1182              	.LBB340:
 1183              	.LBB341:
 1184              		.loc 1 68 13 view .LVU340
 1185 024a 46F20A33 		movw	r3, #25354
 1186              		.loc 1 69 12 view .LVU341
 1187 024e 05AA     		add	r2, sp, #20
 1188              	.LBE341:
 1189              	.LBE340:
 1190              		.loc 1 174 8 view .LVU342
 1191 0250 0543     		orrs	r5, r5, r0
 1192              	.LVL68:
 1193              		.loc 1 175 5 is_stmt 1 view .LVU343
 1194              	.LBB343:
 1195              	.LBI340:
 1196              		.loc 1 67 14 view .LVU344
 1197              	.LBB342:
ARM GAS  C:\Users\DEVELO~1\AppData\Local\Temp\cc2vwVZD.s 			page 22


 1198              		.loc 1 68 5 view .LVU345
 1199              		.loc 1 68 13 is_stmt 0 view .LVU346
 1200 0252 ADF81430 		strh	r3, [sp, #20]	@ movhi
 1201              		.loc 1 69 5 is_stmt 1 view .LVU347
 1202              		.loc 1 69 12 is_stmt 0 view .LVU348
 1203 0256 1121     		movs	r1, #17
 1204 0258 0223     		movs	r3, #2
 1205 025a 0296     		str	r6, [sp, #8]
 1206 025c 4F48     		ldr	r0, .L20
 1207 025e CDE90044 		strd	r4, r4, [sp]
 1208 0262 FFF7FEFF 		bl	i2cMasterTransmitTimeout
 1209              	.LVL69:
 1210              		.loc 1 69 12 view .LVU349
 1211              	.LBE342:
 1212              	.LBE343:
 1213              	.LBB344:
 1214              	.LBB345:
 1215              		.loc 1 68 13 view .LVU350
 1216 0266 41F20703 		movw	r3, #4103
 1217              		.loc 1 69 12 view .LVU351
 1218 026a 05AA     		add	r2, sp, #20
 1219              	.LBE345:
 1220              	.LBE344:
 1221              		.loc 1 175 8 view .LVU352
 1222 026c 0543     		orrs	r5, r5, r0
 1223              	.LVL70:
 1224              		.loc 1 177 5 is_stmt 1 view .LVU353
 1225              	.LBB347:
 1226              	.LBI344:
 1227              		.loc 1 67 14 view .LVU354
 1228              	.LBB346:
 1229              		.loc 1 68 5 view .LVU355
 1230              		.loc 1 68 13 is_stmt 0 view .LVU356
 1231 026e ADF81430 		strh	r3, [sp, #20]	@ movhi
 1232              		.loc 1 69 5 is_stmt 1 view .LVU357
 1233              		.loc 1 69 12 is_stmt 0 view .LVU358
 1234 0272 1221     		movs	r1, #18
 1235 0274 0223     		movs	r3, #2
 1236 0276 0296     		str	r6, [sp, #8]
 1237 0278 4848     		ldr	r0, .L20
 1238 027a CDE90044 		strd	r4, r4, [sp]
 1239 027e FFF7FEFF 		bl	i2cMasterTransmitTimeout
 1240              	.LVL71:
 1241              		.loc 1 69 12 view .LVU359
 1242              	.LBE346:
 1243              	.LBE347:
 1244              	.LBB348:
 1245              	.LBB349:
 1246              		.loc 1 68 13 view .LVU360
 1247 0282 43F20813 		movw	r3, #12552
 1248              		.loc 1 69 12 view .LVU361
 1249 0286 05AA     		add	r2, sp, #20
 1250              	.LBE349:
 1251              	.LBE348:
 1252              		.loc 1 177 8 view .LVU362
 1253 0288 0543     		orrs	r5, r5, r0
 1254              	.LVL72:
ARM GAS  C:\Users\DEVELO~1\AppData\Local\Temp\cc2vwVZD.s 			page 23


 1255              		.loc 1 178 5 is_stmt 1 view .LVU363
 1256              	.LBB351:
 1257              	.LBI348:
 1258              		.loc 1 67 14 view .LVU364
 1259              	.LBB350:
 1260              		.loc 1 68 5 view .LVU365
 1261              		.loc 1 68 13 is_stmt 0 view .LVU366
 1262 028a ADF81430 		strh	r3, [sp, #20]	@ movhi
 1263              		.loc 1 69 5 is_stmt 1 view .LVU367
 1264              		.loc 1 69 12 is_stmt 0 view .LVU368
 1265 028e 1221     		movs	r1, #18
 1266 0290 0223     		movs	r3, #2
 1267 0292 0296     		str	r6, [sp, #8]
 1268 0294 4148     		ldr	r0, .L20
 1269 0296 CDE90044 		strd	r4, r4, [sp]
 1270 029a FFF7FEFF 		bl	i2cMasterTransmitTimeout
 1271              	.LVL73:
 1272              		.loc 1 69 12 view .LVU369
 1273              	.LBE350:
 1274              	.LBE351:
 1275              	.LBB352:
 1276              	.LBB353:
 1277              		.loc 1 68 13 view .LVU370
 1278 029e 45F20923 		movw	r3, #21001
 1279              		.loc 1 69 12 view .LVU371
 1280 02a2 05AA     		add	r2, sp, #20
 1281              	.LBE353:
 1282              	.LBE352:
 1283              		.loc 1 178 8 view .LVU372
 1284 02a4 0543     		orrs	r5, r5, r0
 1285              	.LVL74:
 1286              		.loc 1 179 5 is_stmt 1 view .LVU373
 1287              	.LBB355:
 1288              	.LBI352:
 1289              		.loc 1 67 14 view .LVU374
 1290              	.LBB354:
 1291              		.loc 1 68 5 view .LVU375
 1292              		.loc 1 68 13 is_stmt 0 view .LVU376
 1293 02a6 ADF81430 		strh	r3, [sp, #20]	@ movhi
 1294              		.loc 1 69 5 is_stmt 1 view .LVU377
 1295              		.loc 1 69 12 is_stmt 0 view .LVU378
 1296 02aa 1221     		movs	r1, #18
 1297 02ac 0223     		movs	r3, #2
 1298 02ae 0296     		str	r6, [sp, #8]
 1299 02b0 3A48     		ldr	r0, .L20
 1300 02b2 CDE90044 		strd	r4, r4, [sp]
 1301 02b6 FFF7FEFF 		bl	i2cMasterTransmitTimeout
 1302              	.LVL75:
 1303              		.loc 1 69 12 view .LVU379
 1304              	.LBE354:
 1305              	.LBE355:
 1306              	.LBB356:
 1307              	.LBB357:
 1308              		.loc 1 68 13 view .LVU380
 1309 02ba 47F20A33 		movw	r3, #29450
 1310              	.LBE357:
 1311              	.LBE356:
ARM GAS  C:\Users\DEVELO~1\AppData\Local\Temp\cc2vwVZD.s 			page 24


 1312              		.loc 1 179 8 view .LVU381
 1313 02be 0543     		orrs	r5, r5, r0
 1314              	.LVL76:
 1315              		.loc 1 180 5 is_stmt 1 view .LVU382
 1316              	.LBB359:
 1317              	.LBI356:
 1318              		.loc 1 67 14 view .LVU383
 1319              	.LBB358:
 1320              		.loc 1 68 5 view .LVU384
 1321              		.loc 1 69 12 is_stmt 0 view .LVU385
 1322 02c0 05AA     		add	r2, sp, #20
 1323              		.loc 1 68 13 view .LVU386
 1324 02c2 ADF81430 		strh	r3, [sp, #20]	@ movhi
 1325              		.loc 1 69 5 is_stmt 1 view .LVU387
 1326              		.loc 1 69 12 is_stmt 0 view .LVU388
 1327 02c6 1221     		movs	r1, #18
 1328 02c8 0223     		movs	r3, #2
 1329 02ca 0296     		str	r6, [sp, #8]
 1330 02cc 3348     		ldr	r0, .L20
 1331 02ce CDE90044 		strd	r4, r4, [sp]
 1332 02d2 FFF7FEFF 		bl	i2cMasterTransmitTimeout
 1333              	.LVL77:
 1334              		.loc 1 69 12 view .LVU389
 1335              	.LBE358:
 1336              	.LBE359:
 1337              	.LBB360:
 1338              	.LBB324:
 1339              	.LBB322:
 1340              	.LBB319:
 1341              	.LBB316:
 1342 02d6 05AA     		add	r2, sp, #20
 1343              	.LBE316:
 1344              	.LBE319:
 1345              	.LBE322:
 1346              	.LBE324:
 1347              	.LBE360:
 1348              		.loc 1 180 8 view .LVU390
 1349 02d8 0543     		orrs	r5, r5, r0
 1350              	.LVL78:
 1351              		.loc 1 183 5 is_stmt 1 view .LVU391
 1352              	.LBB361:
 1353              	.LBI311:
 1354              		.loc 1 76 14 view .LVU392
 1355              	.LBB325:
 1356              	.LBB323:
 1357              		.loc 1 78 26 view .LVU393
 1358              		.loc 1 79 9 view .LVU394
 1359              	.LBB320:
 1360              	.LBI314:
 1361              		.loc 1 67 14 view .LVU395
 1362              	.LBB317:
 1363              		.loc 1 68 5 view .LVU396
 1364              		.loc 1 69 12 is_stmt 0 view .LVU397
 1365 02da 0223     		movs	r3, #2
 1366 02dc 1121     		movs	r1, #17
 1367 02de 0296     		str	r6, [sp, #8]
 1368 02e0 2E48     		ldr	r0, .L20
ARM GAS  C:\Users\DEVELO~1\AppData\Local\Temp\cc2vwVZD.s 			page 25


 1369              		.loc 1 68 13 view .LVU398
 1370 02e2 ADF81470 		strh	r7, [sp, #20]	@ movhi
 1371              		.loc 1 69 5 is_stmt 1 view .LVU399
 1372              		.loc 1 69 12 is_stmt 0 view .LVU400
 1373 02e6 CDE90044 		strd	r4, r4, [sp]
 1374 02ea FFF7FEFF 		bl	i2cMasterTransmitTimeout
 1375              	.LVL79:
 1376 02ee 8046     		mov	r8, r0
 1377              	.LVL80:
 1378              		.loc 1 69 12 view .LVU401
 1379              	.LBE317:
 1380              	.LBE320:
 1381              		.loc 1 78 31 is_stmt 1 view .LVU402
 1382              		.loc 1 78 26 view .LVU403
 1383              		.loc 1 79 9 view .LVU404
 1384              	.LBB321:
 1385              		.loc 1 67 14 view .LVU405
 1386              	.LBB318:
 1387              		.loc 1 68 5 view .LVU406
 1388              		.loc 1 69 12 is_stmt 0 view .LVU407
 1389 02f0 05AA     		add	r2, sp, #20
 1390 02f2 0223     		movs	r3, #2
 1391 02f4 45EA0805 		orr	r5, r5, r8
 1392              	.LVL81:
 1393              		.loc 1 69 12 view .LVU408
 1394 02f8 1221     		movs	r1, #18
 1395 02fa 0296     		str	r6, [sp, #8]
 1396 02fc 2748     		ldr	r0, .L20
 1397              	.LVL82:
 1398              		.loc 1 68 13 view .LVU409
 1399 02fe ADF81470 		strh	r7, [sp, #20]	@ movhi
 1400              		.loc 1 69 5 is_stmt 1 view .LVU410
 1401              		.loc 1 69 12 is_stmt 0 view .LVU411
 1402 0302 CDE90044 		strd	r4, r4, [sp]
 1403 0306 FFF7FEFF 		bl	i2cMasterTransmitTimeout
 1404              	.LVL83:
 1405              		.loc 1 69 12 view .LVU412
 1406              	.LBE318:
 1407              	.LBE321:
 1408              		.loc 1 78 31 is_stmt 1 view .LVU413
 1409              		.loc 1 78 26 view .LVU414
 1410              	.LBE323:
 1411              		.loc 1 81 5 view .LVU415
 1412              		.loc 1 81 5 is_stmt 0 view .LVU416
 1413              	.LBE325:
 1414              	.LBE361:
 1415              	.LBB362:
 1416              	.LBB363:
 1417              	.LBB364:
 1418              	.LBB365:
 1419              	.LBB366:
 1420              		.loc 1 69 12 view .LVU417
 1421 030a 05AA     		add	r2, sp, #20
 1422              	.LBE366:
 1423              	.LBE365:
 1424              	.LBE364:
 1425              	.LBE363:
ARM GAS  C:\Users\DEVELO~1\AppData\Local\Temp\cc2vwVZD.s 			page 26


 1426              	.LBE362:
 1427              		.loc 1 183 8 view .LVU418
 1428 030c 0543     		orrs	r5, r5, r0
 1429              	.LVL84:
 1430              		.loc 1 184 5 is_stmt 1 view .LVU419
 1431              	.LBB373:
 1432              	.LBI362:
 1433              		.loc 1 76 14 view .LVU420
 1434              	.LBB372:
 1435              	.LBB371:
 1436              		.loc 1 78 26 view .LVU421
 1437              		.loc 1 79 9 view .LVU422
 1438              	.LBB369:
 1439              	.LBI365:
 1440              		.loc 1 67 14 view .LVU423
 1441              	.LBB367:
 1442              		.loc 1 68 5 view .LVU424
 1443              		.loc 1 69 12 is_stmt 0 view .LVU425
 1444 030e 0223     		movs	r3, #2
 1445 0310 1121     		movs	r1, #17
 1446 0312 0296     		str	r6, [sp, #8]
 1447 0314 2148     		ldr	r0, .L20
 1448              		.loc 1 68 13 view .LVU426
 1449 0316 ADF81470 		strh	r7, [sp, #20]	@ movhi
 1450              		.loc 1 69 5 is_stmt 1 view .LVU427
 1451              		.loc 1 69 12 is_stmt 0 view .LVU428
 1452 031a CDE90044 		strd	r4, r4, [sp]
 1453 031e FFF7FEFF 		bl	i2cMasterTransmitTimeout
 1454              	.LVL85:
 1455              		.loc 1 68 13 view .LVU429
 1456 0322 ADF81470 		strh	r7, [sp, #20]	@ movhi
 1457              		.loc 1 69 12 view .LVU430
 1458 0326 0746     		mov	r7, r0
 1459              	.LVL86:
 1460              		.loc 1 69 12 view .LVU431
 1461              	.LBE367:
 1462              	.LBE369:
 1463              		.loc 1 78 31 is_stmt 1 view .LVU432
 1464              		.loc 1 78 26 view .LVU433
 1465              		.loc 1 79 9 view .LVU434
 1466              	.LBB370:
 1467              		.loc 1 67 14 view .LVU435
 1468              	.LBB368:
 1469              		.loc 1 68 5 view .LVU436
 1470              		.loc 1 69 5 view .LVU437
 1471              		.loc 1 69 12 is_stmt 0 view .LVU438
 1472 0328 05AA     		add	r2, sp, #20
 1473 032a 0194     		str	r4, [sp, #4]
 1474 032c 0223     		movs	r3, #2
 1475 032e 3D43     		orrs	r5, r5, r7
 1476              	.LVL87:
 1477              		.loc 1 69 12 view .LVU439
 1478 0330 0094     		str	r4, [sp]
 1479 0332 1221     		movs	r1, #18
 1480 0334 0296     		str	r6, [sp, #8]
 1481 0336 1948     		ldr	r0, .L20
 1482              	.LVL88:
ARM GAS  C:\Users\DEVELO~1\AppData\Local\Temp\cc2vwVZD.s 			page 27


 1483              		.loc 1 69 12 view .LVU440
 1484 0338 FFF7FEFF 		bl	i2cMasterTransmitTimeout
 1485              	.LVL89:
 1486              		.loc 1 69 12 view .LVU441
 1487              	.LBE368:
 1488              	.LBE370:
 1489              		.loc 1 78 31 is_stmt 1 view .LVU442
 1490              		.loc 1 78 26 view .LVU443
 1491              	.LBE371:
 1492              		.loc 1 81 5 view .LVU444
 1493              		.loc 1 81 5 is_stmt 0 view .LVU445
 1494              	.LBE372:
 1495              	.LBE373:
 1496              		.loc 1 184 8 view .LVU446
 1497 033c 40EA0507 		orr	r7, r0, r5
 1498              	.LVL90:
 1499              		.loc 1 187 5 is_stmt 1 view .LVU447
 1500              	.LBB374:
 1501              	.LBI374:
 1502              		.loc 1 76 14 view .LVU448
 1503              	.LBB375:
 1504              	.LBB376:
 1505              		.loc 1 78 26 view .LVU449
 1506              		.loc 1 79 9 view .LVU450
 1507              	.LBB377:
 1508              	.LBI377:
 1509              		.loc 1 67 14 view .LVU451
 1510              	.LBB378:
 1511              		.loc 1 68 5 view .LVU452
 1512              		.loc 1 68 13 is_stmt 0 view .LVU453
 1513 0340 40F20F45 		movw	r5, #1039
 1514              		.loc 1 69 12 view .LVU454
 1515 0344 05AA     		add	r2, sp, #20
 1516 0346 0223     		movs	r3, #2
 1517 0348 1121     		movs	r1, #17
 1518 034a 0296     		str	r6, [sp, #8]
 1519 034c 1348     		ldr	r0, .L20
 1520              		.loc 1 68 13 view .LVU455
 1521 034e ADF81450 		strh	r5, [sp, #20]	@ movhi
 1522              		.loc 1 69 5 is_stmt 1 view .LVU456
 1523              		.loc 1 69 12 is_stmt 0 view .LVU457
 1524 0352 CDE90044 		strd	r4, r4, [sp]
 1525 0356 FFF7FEFF 		bl	i2cMasterTransmitTimeout
 1526              	.LVL91:
 1527              		.loc 1 68 13 view .LVU458
 1528 035a ADF81450 		strh	r5, [sp, #20]	@ movhi
 1529              		.loc 1 69 12 view .LVU459
 1530 035e 0546     		mov	r5, r0
 1531              	.LVL92:
 1532              		.loc 1 69 12 view .LVU460
 1533              	.LBE378:
 1534              	.LBE377:
 1535              		.loc 1 78 31 is_stmt 1 view .LVU461
 1536              		.loc 1 78 26 view .LVU462
 1537              		.loc 1 79 9 view .LVU463
 1538              	.LBB380:
 1539              		.loc 1 67 14 view .LVU464
ARM GAS  C:\Users\DEVELO~1\AppData\Local\Temp\cc2vwVZD.s 			page 28


 1540              	.LBB379:
 1541              		.loc 1 68 5 view .LVU465
 1542              		.loc 1 69 5 view .LVU466
 1543              		.loc 1 69 12 is_stmt 0 view .LVU467
 1544 0360 0223     		movs	r3, #2
 1545 0362 05AA     		add	r2, sp, #20
 1546 0364 1221     		movs	r1, #18
 1547 0366 3D43     		orrs	r5, r5, r7
 1548 0368 0296     		str	r6, [sp, #8]
 1549 036a 0C48     		ldr	r0, .L20
 1550              	.LVL93:
 1551              		.loc 1 69 12 view .LVU468
 1552 036c CDE90044 		strd	r4, r4, [sp]
 1553 0370 FFF7FEFF 		bl	i2cMasterTransmitTimeout
 1554              	.LVL94:
 1555              		.loc 1 69 12 view .LVU469
 1556              	.LBE379:
 1557              	.LBE380:
 1558              		.loc 1 78 31 is_stmt 1 view .LVU470
 1559              		.loc 1 78 26 view .LVU471
 1560              	.LBE376:
 1561              		.loc 1 81 5 view .LVU472
 1562              		.loc 1 81 5 is_stmt 0 view .LVU473
 1563              	.LBE375:
 1564              	.LBE374:
 1565              		.loc 1 187 8 view .LVU474
 1566 0374 40EA0504 		orr	r4, r0, r5
 1567              	.LVL95:
 1568              		.loc 1 188 5 is_stmt 1 view .LVU475
 1569              		.loc 1 189 1 is_stmt 0 view .LVU476
 1570 0378 2046     		mov	r0, r4
 1571 037a 06B0     		add	sp, sp, #24
 1572              		.cfi_remember_state
 1573              		.cfi_def_cfa_offset 32
 1574              		@ sp needed
 1575 037c BDE8F087 		pop	{r4, r5, r6, r7, r8, r9, r10, pc}
 1576              	.LVL96:
 1577              	.L13:
 1578              		.cfi_restore_state
 1579              	.LBB381:
 1580              	.LBB297:
 1581              	.LBB295:
 1582              	.LBB284:
 1583              	.LBB281:
 1584              		.loc 1 112 17 is_stmt 1 view .LVU477
 1585              		.loc 1 113 17 view .LVU478
 1586              		.loc 1 113 17 is_stmt 0 view .LVU479
 1587              	.LBE281:
 1588              	.LBE284:
 1589              		.loc 1 117 9 is_stmt 1 view .LVU480
 1590              		.loc 1 121 9 view .LVU481
 1591              	.LBB285:
 1592              	.LBI285:
 1593              		.loc 2 172 29 view .LVU482
 1594              		.loc 2 174 3 view .LVU483
 1595              	.LBB286:
 1596              	.LBI286:
ARM GAS  C:\Users\DEVELO~1\AppData\Local\Temp\cc2vwVZD.s 			page 29


 1597              		.loc 2 135 25 view .LVU484
 1598              		.loc 2 140 3 view .LVU485
 1599              	.LBB287:
 1600              	.LBI287:
 1601              		.loc 3 111 25 view .LVU486
 1602              	.LBB288:
 1603              		.loc 3 113 3 view .LVU487
 1604              		.loc 3 113 10 is_stmt 0 view .LVU488
 1605 0380 FFF7FEFF 		bl	stGetCounter
 1606              	.LVL97:
 1607              		.loc 3 113 10 view .LVU489
 1608              	.LBE288:
 1609              	.LBE287:
 1610              	.LBE286:
 1611              	.LBE285:
 1612              		.loc 1 124 9 is_stmt 1 view .LVU490
 1613              	.LBB291:
 1614              	.LBB289:
 1615              	.LBI289:
 1616              		.file 4 "./ChibiOS/os/rt/include/chtime.h"
 1617              		.loc 4 461 29 view .LVU491
 1618              	.LBB290:
 1619              		.loc 4 465 3 view .LVU492
 1620              		.loc 4 465 10 is_stmt 0 view .LVU493
 1621 0384 A0EB0903 		sub	r3, r0, r9
 1622              	.LBE290:
 1623              	.LBE289:
 1624              	.LBE291:
 1625              		.loc 1 121 12 view .LVU494
 1626 0388 C72B     		cmp	r3, #199
 1627 038a 03D8     		bhi	.L15
 1628              		.loc 1 124 9 view .LVU495
 1629 038c 0A20     		movs	r0, #10
 1630 038e FFF7FEFF 		bl	chThdSleep
 1631              	.LVL98:
 1632              	.LBE295:
 1633              		.loc 1 103 11 is_stmt 1 view .LVU496
 1634              		.loc 1 103 18 is_stmt 0 view .LVU497
 1635 0392 EAE6     		b	.L14
 1636              	.L15:
 1637              	.LBB296:
 1638              		.loc 1 122 20 view .LVU498
 1639 0394 4FF0FF34 		mov	r4, #-1
 1640              	.LVL99:
 1641              		.loc 1 122 20 view .LVU499
 1642 0398 D8E6     		b	.L10
 1643              	.L21:
 1644 039a 00BF     		.align	2
 1645              	.L20:
 1646 039c 00000000 		.word	I2CD3
 1647              	.LBE296:
 1648              	.LBE297:
 1649              	.LBE381:
 1650              		.cfi_endproc
 1651              	.LFE454:
 1652              		.size	adau1979_set_default_config, .-adau1979_set_default_config
 1653              		.section	.text.adau1979_mute,"ax",%progbits
ARM GAS  C:\Users\DEVELO~1\AppData\Local\Temp\cc2vwVZD.s 			page 30


 1654              		.align	1
 1655              		.p2align 4,,15
 1656              		.global	adau1979_mute
 1657              		.syntax unified
 1658              		.thumb
 1659              		.thumb_func
 1660              		.type	adau1979_mute, %function
 1661              	adau1979_mute:
 1662              	.LVL100:
 1663              	.LFB455:
 1664              		.loc 1 191 29 is_stmt 1 view -0
 1665              		.cfi_startproc
 1666              		@ args = 0, pretend = 0, frame = 8
 1667              		@ frame_needed = 0, uses_anonymous_args = 0
 1668              		.loc 1 192 5 view .LVU501
 1669              	.LBB388:
 1670              		.loc 1 192 10 view .LVU502
 1671              		.loc 1 192 26 view .LVU503
 1672              	.LBE388:
 1673              		.loc 1 191 29 is_stmt 0 view .LVU504
 1674 0000 2DE9F047 		push	{r4, r5, r6, r7, r8, r9, r10, lr}
 1675              		.cfi_def_cfa_offset 32
 1676              		.cfi_offset 4, -32
 1677              		.cfi_offset 5, -28
 1678              		.cfi_offset 6, -24
 1679              		.cfi_offset 7, -20
 1680              		.cfi_offset 8, -16
 1681              		.cfi_offset 9, -12
 1682              		.cfi_offset 10, -8
 1683              		.cfi_offset 14, -4
 1684 0004 86B0     		sub	sp, sp, #24
 1685              		.cfi_def_cfa_offset 56
 1686              	.LBB401:
 1687 0006 0227     		movs	r7, #2
 1688 0008 1124     		movs	r4, #17
 1689              	.LBE401:
 1690              		.loc 1 191 29 view .LVU505
 1691 000a 8246     		mov	r10, r0
 1692 000c 0DF11306 		add	r6, sp, #19
 1693              	.LBB402:
 1694              	.LBB389:
 1695              		.loc 1 193 17 view .LVU506
 1696 0010 0025     		movs	r5, #0
 1697 0012 4FF00F09 		mov	r9, #15
 1698              	.LBB390:
 1699              	.LBB391:
 1700              		.loc 1 73 12 view .LVU507
 1701 0016 DFF86880 		ldr	r8, .L29
 1702              	.LVL101:
 1703              	.L26:
 1704              		.loc 1 73 12 view .LVU508
 1705              	.LBE391:
 1706              	.LBE390:
 1707              		.loc 1 193 9 is_stmt 1 view .LVU509
 1708              	.LBB394:
 1709              	.LBB392:
 1710              		.loc 1 73 12 is_stmt 0 view .LVU510
ARM GAS  C:\Users\DEVELO~1\AppData\Local\Temp\cc2vwVZD.s 			page 31


 1711 001a 6420     		movs	r0, #100
 1712 001c A4B2     		uxth	r4, r4
 1713 001e 0123     		movs	r3, #1
 1714 0020 05AA     		add	r2, sp, #20
 1715 0022 0290     		str	r0, [sp, #8]
 1716 0024 2146     		mov	r1, r4
 1717 0026 4046     		mov	r0, r8
 1718 0028 0193     		str	r3, [sp, #4]
 1719 002a 0096     		str	r6, [sp]
 1720              	.LBE392:
 1721              	.LBE394:
 1722              		.loc 1 193 17 view .LVU511
 1723 002c 8DF81350 		strb	r5, [sp, #19]
 1724              		.loc 1 194 9 is_stmt 1 view .LVU512
 1725              	.LVL102:
 1726              		.loc 1 194 9 is_stmt 0 view .LVU513
 1727 0030 8DF81490 		strb	r9, [sp, #20]
 1728              	.LVL103:
 1729              	.LBB395:
 1730              	.LBI390:
 1731              		.loc 1 72 14 is_stmt 1 view .LVU514
 1732              	.LBB393:
 1733              		.loc 1 73 5 view .LVU515
 1734              		.loc 1 73 12 is_stmt 0 view .LVU516
 1735 0034 FFF7FEFF 		bl	i2cMasterTransmitTimeout
 1736              	.LVL104:
 1737              		.loc 1 73 12 view .LVU517
 1738              	.LBE393:
 1739              	.LBE395:
 1740              		.loc 1 197 9 is_stmt 1 view .LVU518
 1741              		.loc 1 194 12 is_stmt 0 view .LVU519
 1742 0038 B0B9     		cbnz	r0, .L23
 1743              		.loc 1 198 13 is_stmt 1 view .LVU520
 1744              		.loc 1 200 13 view .LVU521
 1745              		.loc 1 198 18 is_stmt 0 view .LVU522
 1746 003a 9DF81320 		ldrb	r2, [sp, #19]	@ zero_extendqisi2
 1747              		.loc 1 197 12 view .LVU523
 1748 003e BAF1000F 		cmp	r10, #0
 1749 0042 1AD0     		beq	.L24
 1750              		.loc 1 198 18 view .LVU524
 1751 0044 02F0FB02 		and	r2, r2, #251
 1752              	.L25:
 1753              	.LBB396:
 1754              	.LBB397:
 1755              		.loc 1 69 12 view .LVU525
 1756 0048 6423     		movs	r3, #100
 1757 004a 8DF81320 		strb	r2, [sp, #19]
 1758              	.LBE397:
 1759              	.LBE396:
 1760              		.loc 1 202 9 is_stmt 1 view .LVU526
 1761              	.LVL105:
 1762              	.LBB399:
 1763              	.LBI396:
 1764              		.loc 1 67 14 view .LVU527
 1765              	.LBB398:
 1766              		.loc 1 68 5 view .LVU528
 1767              		.loc 1 68 13 is_stmt 0 view .LVU529
ARM GAS  C:\Users\DEVELO~1\AppData\Local\Temp\cc2vwVZD.s 			page 32


 1768 004e 8DF81520 		strb	r2, [sp, #21]
 1769              		.loc 1 69 5 is_stmt 1 view .LVU530
 1770              		.loc 1 69 12 is_stmt 0 view .LVU531
 1771 0052 2146     		mov	r1, r4
 1772 0054 0293     		str	r3, [sp, #8]
 1773 0056 05AA     		add	r2, sp, #20
 1774              	.LVL106:
 1775              		.loc 1 69 12 view .LVU532
 1776 0058 0223     		movs	r3, #2
 1777 005a 4046     		mov	r0, r8
 1778              		.loc 1 68 13 view .LVU533
 1779 005c 8DF81490 		strb	r9, [sp, #20]
 1780              		.loc 1 69 12 view .LVU534
 1781 0060 CDE90055 		strd	r5, r5, [sp]
 1782 0064 FFF7FEFF 		bl	i2cMasterTransmitTimeout
 1783              	.LVL107:
 1784              	.L23:
 1785              		.loc 1 69 12 view .LVU535
 1786              	.LBE398:
 1787              	.LBE399:
 1788              	.LBE389:
 1789              		.loc 1 192 31 is_stmt 1 discriminator 2 view .LVU536
 1790              		.loc 1 192 26 discriminator 2 view .LVU537
 1791 0068 012F     		cmp	r7, #1
 1792 006a 4FF01204 		mov	r4, #18
 1793 006e 4FF00107 		mov	r7, #1
 1794              	.LVL108:
 1795              		.loc 1 192 26 is_stmt 0 discriminator 2 view .LVU538
 1796 0072 D2D1     		bne	.L26
 1797              	.LBE402:
 1798              		.loc 1 204 1 view .LVU539
 1799 0074 06B0     		add	sp, sp, #24
 1800              		.cfi_remember_state
 1801              		.cfi_def_cfa_offset 32
 1802              		@ sp needed
 1803 0076 BDE8F087 		pop	{r4, r5, r6, r7, r8, r9, r10, pc}
 1804              	.LVL109:
 1805              	.L24:
 1806              		.cfi_restore_state
 1807              	.LBB403:
 1808              	.LBB400:
 1809              		.loc 1 200 18 view .LVU540
 1810 007a 42F00402 		orr	r2, r2, #4
 1811 007e E3E7     		b	.L25
 1812              	.L30:
 1813              		.align	2
 1814              	.L29:
 1815 0080 00000000 		.word	I2CD3
 1816              	.LBE400:
 1817              	.LBE403:
 1818              		.cfi_endproc
 1819              	.LFE455:
 1820              		.size	adau1979_mute, .-adau1979_mute
 1821              		.section	.rodata.adau1979_default_i2c_cfg,"a"
 1822              		.align	2
 1823              		.set	.LANCHOR0,. + 0
 1824              		.type	adau1979_default_i2c_cfg, %object
ARM GAS  C:\Users\DEVELO~1\AppData\Local\Temp\cc2vwVZD.s 			page 33


 1825              		.size	adau1979_default_i2c_cfg, 12
 1826              	adau1979_default_i2c_cfg:
 1827 0000 EC9C9010 		.word	277912812
 1828 0004 00000000 		.word	0
 1829 0008 00000000 		.space	4
 1830              		.text
 1831              	.Letext0:
 1832              		.file 5 "c:\\chibistudio\\tools\\gnu tools arm embedded\\11.3 2022.08\\lib\\gcc\\arm-none-eabi\\11
 1833              		.file 6 "c:\\chibistudio\\tools\\gnu tools arm embedded\\11.3 2022.08\\arm-none-eabi\\include\\mac
 1834              		.file 7 "c:\\chibistudio\\tools\\gnu tools arm embedded\\11.3 2022.08\\arm-none-eabi\\include\\sys
 1835              		.file 8 "./ChibiOS/os/common/ports/ARM-common/include/chtypes.h"
 1836              		.file 9 "./ChibiOS/os/rt/include/chearly.h"
 1837              		.file 10 "./ChibiOS/os/rt/include/chobjects.h"
 1838              		.file 11 "./ChibiOS/os/rt/include/chrfcu.h"
 1839              		.file 12 "./ChibiOS/os/rt/include/chdebug.h"
 1840              		.file 13 "./ChibiOS/os/rt/include/chtrace.h"
 1841              		.file 14 "./ChibiOS/os/common/ext/ST/STM32H7xx/stm32h743xx.h"
 1842              		.file 15 "./ChibiOS/os/common/ports/ARMv7-M/chcore.h"
 1843              		.file 16 "./ChibiOS/os/rt/include/chlists.h"
 1844              		.file 17 "./ChibiOS/os/rt/include/chsem.h"
 1845              		.file 18 "./ChibiOS/os/rt/include/chmtx.h"
 1846              		.file 19 "./ChibiOS/os/hal/ports/STM32/LLD/DMAv2/stm32_dma.h"
 1847              		.file 20 "./ChibiOS/os/hal/include/hal_i2c.h"
 1848              		.file 21 "./ChibiOS/os/hal/ports/STM32/LLD/I2Cv3/hal_i2c_lld.h"
 1849              		.file 22 "./ChibiOS/os/hal/include/hal_st.h"
 1850              		.file 23 "./ChibiOS/os/rt/include/chthreads.h"