ARM GAS  C:\Users\DEVELO~1\AppData\Local\Temp\ccS7mMok.s 			page 1


   1              		.cpu cortex-m7
   2              		.arch armv7e-m
   3              		.fpu softvfp
   4              		.eabi_attribute 20, 1
   5              		.eabi_attribute 21, 1
   6              		.eabi_attribute 23, 3
   7              		.eabi_attribute 24, 1
   8              		.eabi_attribute 25, 1
   9              		.eabi_attribute 26, 1
  10              		.eabi_attribute 30, 2
  11              		.eabi_attribute 34, 1
  12              		.eabi_attribute 18, 4
  13              		.file	"brick_cal.c"
  14              		.text
  15              	.Ltext0:
  16              		.cfi_sections	.debug_frame
  17              		.section	.text.brick_cal_pot_init,"ax",%progbits
  18              		.align	1
  19              		.p2align 4,,15
  20              		.global	brick_cal_pot_init
  21              		.syntax unified
  22              		.thumb
  23              		.thumb_func
  24              		.type	brick_cal_pot_init, %function
  25              	brick_cal_pot_init:
  26              	.LVL0:
  27              	.LFB1:
  28              		.file 1 "drivers/HallEffect/brick_cal.c"
  29              		.loc 1 18 87 view -0
  30              		.cfi_startproc
  31              		@ args = 0, pretend = 0, frame = 0
  32              		@ frame_needed = 0, uses_anonymous_args = 0
  33              		.loc 1 19 3 view .LVU1
  34              		.loc 1 19 6 is_stmt 0 view .LVU2
  35 0000 70B3     		cbz	r0, .L5
  36              		.loc 1 23 3 is_stmt 1 view .LVU3
  37 0002 1029     		cmp	r1, #16
  38 0004 0B46     		mov	r3, r1
  39 0006 28BF     		it	cs
  40 0008 1023     		movcs	r3, #16
  41              	.LVL1:
  42              		.loc 1 27 3 view .LVU4
  43              		.loc 1 28 76 is_stmt 0 view .LVU5
  44 000a 102A     		cmp	r2, #16
  45 000c 28BF     		it	cs
  46 000e 1022     		movcs	r2, #16
  47              	.LVL2:
  48              		.loc 1 29 18 view .LVU6
  49 0010 0F29     		cmp	r1, #15
  50              		.loc 1 18 87 view .LVU7
  51 0012 10B5     		push	{r4, lr}
  52              		.cfi_def_cfa_offset 8
  53              		.cfi_offset 4, -8
  54              		.cfi_offset 14, -4
  55 0014 0446     		mov	r4, r0
  56              		.loc 1 27 19 view .LVU8
  57 0016 0370     		strb	r3, [r0]
ARM GAS  C:\Users\DEVELO~1\AppData\Local\Temp\ccS7mMok.s 			page 2


  58              		.loc 1 28 3 is_stmt 1 view .LVU9
  59              		.loc 1 28 15 is_stmt 0 view .LVU10
  60 0018 4270     		strb	r2, [r0, #1]
  61              		.loc 1 29 3 is_stmt 1 view .LVU11
  62              		.loc 1 29 18 is_stmt 0 view .LVU12
  63 001a 1ED8     		bhi	.L6
  64              		.loc 1 29 68 discriminator 1 view .LVU13
  65 001c 0122     		movs	r2, #1
  66 001e 9A40     		lsls	r2, r2, r3
  67              		.loc 1 29 18 discriminator 1 view .LVU14
  68 0020 92B2     		uxth	r2, r2
  69              	.L3:
  70              		.loc 1 29 16 discriminator 4 view .LVU15
  71 0022 2346     		mov	r3, r4
  72              	.LVL3:
  73              		.loc 1 29 16 discriminator 4 view .LVU16
  74 0024 04F12201 		add	r1, r4, #34
  75 0028 23F8022F 		strh	r2, [r3, #2]!	@ movhi
  76              		.loc 1 31 3 is_stmt 1 discriminator 4 view .LVU17
  77              	.LBB18:
  78              		.loc 1 31 8 discriminator 4 view .LVU18
  79              	.LVL4:
  80              		.loc 1 31 25 discriminator 4 view .LVU19
  81              	.L4:
  82              		.loc 1 32 5 view .LVU20
  83              		.loc 1 32 17 is_stmt 0 view .LVU21
  84 002c 23F8022F 		strh	r2, [r3, #2]!	@ movhi
  85              		.loc 1 33 5 is_stmt 1 view .LVU22
  86              		.loc 1 34 5 view .LVU23
  87              		.loc 1 35 5 view .LVU24
  88              		.loc 1 36 5 view .LVU25
  89              		.loc 1 31 25 is_stmt 0 view .LVU26
  90 0030 9942     		cmp	r1, r3
  91              		.loc 1 36 22 view .LVU27
  92 0032 A3F86020 		strh	r2, [r3, #96]	@ movhi
  93              		.loc 1 31 51 is_stmt 1 view .LVU28
  94              		.loc 1 31 25 view .LVU29
  95 0036 F9D1     		bne	.L4
  96              		.loc 1 33 17 is_stmt 0 view .LVU30
  97 0038 4022     		movs	r2, #64
  98 003a 0021     		movs	r1, #0
  99 003c 04F12400 		add	r0, r4, #36
 100              	.LVL5:
 101              		.loc 1 33 17 view .LVU31
 102 0040 FFF7FEFF 		bl	memset
 103              	.LVL6:
 104              		.loc 1 34 20 view .LVU32
 105 0044 0023     		movs	r3, #0
 106              	.LBE18:
 107              		.loc 1 39 10 view .LVU33
 108 0046 1846     		mov	r0, r3
 109              	.LBB19:
 110              		.loc 1 34 20 view .LVU34
 111 0048 C4F88430 		str	r3, [r4, #132]	@ unaligned
 112 004c C4F88830 		str	r3, [r4, #136]	@ unaligned
 113 0050 C4F88C30 		str	r3, [r4, #140]	@ unaligned
 114 0054 C4F89030 		str	r3, [r4, #144]	@ unaligned
ARM GAS  C:\Users\DEVELO~1\AppData\Local\Temp\ccS7mMok.s 			page 3


 115              	.LBE19:
 116              		.loc 1 40 1 view .LVU35
 117 0058 10BD     		pop	{r4, pc}
 118              	.LVL7:
 119              	.L6:
 120              		.loc 1 29 18 view .LVU36
 121 005a 4FF6FF72 		movw	r2, #65535
 122 005e E0E7     		b	.L3
 123              	.LVL8:
 124              	.L5:
 125              		.cfi_def_cfa_offset 0
 126              		.cfi_restore 4
 127              		.cfi_restore 14
 128              		.loc 1 20 12 view .LVU37
 129 0060 0120     		movs	r0, #1
 130              	.LVL9:
 131              		.loc 1 40 1 view .LVU38
 132 0062 7047     		bx	lr
 133              		.cfi_endproc
 134              	.LFE1:
 135              		.size	brick_cal_pot_init, .-brick_cal_pot_init
 136              		.section	.text.brick_cal_pot_enable_range,"ax",%progbits
 137              		.align	1
 138              		.p2align 4,,15
 139              		.global	brick_cal_pot_enable_range
 140              		.syntax unified
 141              		.thumb
 142              		.thumb_func
 143              		.type	brick_cal_pot_enable_range, %function
 144              	brick_cal_pot_enable_range:
 145              	.LVL10:
 146              	.LFB2:
 147              		.loc 1 42 90 is_stmt 1 view -0
 148              		.cfi_startproc
 149              		@ args = 0, pretend = 0, frame = 0
 150              		@ frame_needed = 0, uses_anonymous_args = 0
 151              		.loc 1 43 3 view .LVU40
 152              		.loc 1 43 6 is_stmt 0 view .LVU41
 153 0000 C0B1     		cbz	r0, .L17
 154              		.loc 1 42 90 discriminator 1 view .LVU42
 155 0002 08B5     		push	{r3, lr}
 156              		.cfi_def_cfa_offset 8
 157              		.cfi_offset 3, -8
 158              		.cfi_offset 14, -4
 159              		.loc 1 43 25 discriminator 1 view .LVU43
 160 0004 4378     		ldrb	r3, [r0, #1]	@ zero_extendqisi2
 161              		.loc 1 47 3 is_stmt 1 discriminator 1 view .LVU44
 162              		.loc 1 47 6 is_stmt 0 discriminator 1 view .LVU45
 163 0006 8B42     		cmp	r3, r1
 164 0008 01D8     		bhi	.L24
 165              	.L19:
 166              		.loc 1 44 12 view .LVU46
 167 000a 0120     		movs	r0, #1
 168              	.LVL11:
 169              		.loc 1 60 1 view .LVU47
 170 000c 08BD     		pop	{r3, pc}
 171              	.LVL12:
ARM GAS  C:\Users\DEVELO~1\AppData\Local\Temp\ccS7mMok.s 			page 4


 172              	.L24:
 173              		.loc 1 50 3 is_stmt 1 view .LVU48
 174              		.loc 1 50 23 is_stmt 0 view .LVU49
 175 000e 01EB020C 		add	ip, r1, r2
 176              		.loc 1 50 6 view .LVU50
 177 0012 9C45     		cmp	ip, r3
 178 0014 F9DC     		bgt	.L19
 179              		.loc 1 54 3 is_stmt 1 view .LVU51
 180              	.LVL13:
 181              		.loc 1 55 3 view .LVU52
 182              	.LBB20:
 183              		.loc 1 55 8 view .LVU53
 184              		.loc 1 55 29 view .LVU54
 185 0016 5FFA8CFC 		uxtb	ip, ip
 186 001a 6145     		cmp	r1, ip
 187 001c 08D2     		bcs	.L16
 188              		.loc 1 56 20 is_stmt 0 view .LVU55
 189 001e 013A     		subs	r2, r2, #1
 190              	.LVL14:
 191              		.loc 1 56 20 view .LVU56
 192 0020 01F18403 		add	r3, r1, #132
 193 0024 0121     		movs	r1, #1
 194              	.LVL15:
 195              		.loc 1 56 20 view .LVU57
 196 0026 D2B2     		uxtb	r2, r2
 197 0028 1844     		add	r0, r0, r3
 198              	.LVL16:
 199              		.loc 1 56 20 view .LVU58
 200 002a 0A44     		add	r2, r2, r1
 201 002c FFF7FEFF 		bl	memset
 202              	.LVL17:
 203              	.L16:
 204              		.loc 1 56 20 view .LVU59
 205              	.LBE20:
 206              		.loc 1 59 10 view .LVU60
 207 0030 0020     		movs	r0, #0
 208              		.loc 1 60 1 view .LVU61
 209 0032 08BD     		pop	{r3, pc}
 210              	.LVL18:
 211              	.L17:
 212              		.cfi_def_cfa_offset 0
 213              		.cfi_restore 3
 214              		.cfi_restore 14
 215              		.loc 1 44 12 view .LVU62
 216 0034 0120     		movs	r0, #1
 217              	.LVL19:
 218              		.loc 1 60 1 view .LVU63
 219 0036 7047     		bx	lr
 220              		.cfi_endproc
 221              	.LFE2:
 222              		.size	brick_cal_pot_enable_range, .-brick_cal_pot_enable_range
 223              		.section	.text.brick_cal_pot_enable_get,"ax",%progbits
 224              		.align	1
 225              		.p2align 4,,15
 226              		.global	brick_cal_pot_enable_get
 227              		.syntax unified
 228              		.thumb
ARM GAS  C:\Users\DEVELO~1\AppData\Local\Temp\ccS7mMok.s 			page 5


 229              		.thumb_func
 230              		.type	brick_cal_pot_enable_get, %function
 231              	brick_cal_pot_enable_get:
 232              	.LVL20:
 233              	.LFB3:
 234              		.loc 1 62 91 is_stmt 1 view -0
 235              		.cfi_startproc
 236              		@ args = 0, pretend = 0, frame = 0
 237              		@ frame_needed = 0, uses_anonymous_args = 0
 238              		@ link register save eliminated.
 239              		.loc 1 63 3 view .LVU65
 240              		.loc 1 63 6 is_stmt 0 view .LVU66
 241 0000 48B1     		cbz	r0, .L29
 242 0002 B2FA82F3 		clz	r3, r2
 243 0006 5B09     		lsrs	r3, r3, #5
 244 0008 2AB1     		cbz	r2, .L29
 245              		.loc 1 67 3 is_stmt 1 view .LVU67
 246              	.LVL21:
 247              	.LBB21:
 248              	.LBI21:
 249              		.loc 1 10 13 view .LVU68
 250              	.LBB22:
 251              		.loc 1 11 3 view .LVU69
 252              		.loc 1 15 3 view .LVU70
 253              		.loc 1 15 32 is_stmt 0 view .LVU71
 254 000a 90F801C0 		ldrb	ip, [r0, #1]	@ zero_extendqisi2
 255 000e 8C45     		cmp	ip, r1
 256 0010 01D9     		bls	.L29
 257 0012 0F29     		cmp	r1, #15
 258 0014 01D9     		bls	.L27
 259              	.LVL22:
 260              	.L29:
 261              		.loc 1 15 32 view .LVU72
 262              	.LBE22:
 263              	.LBE21:
 264              		.loc 1 64 12 view .LVU73
 265 0016 0120     		movs	r0, #1
 266              	.LVL23:
 267              		.loc 1 64 12 view .LVU74
 268 0018 7047     		bx	lr
 269              	.LVL24:
 270              	.L27:
 271              		.loc 1 71 3 is_stmt 1 view .LVU75
 272              		.loc 1 71 24 is_stmt 0 view .LVU76
 273 001a 0144     		add	r1, r1, r0
 274              	.LVL25:
 275              		.loc 1 72 10 view .LVU77
 276 001c 1846     		mov	r0, r3
 277              	.LVL26:
 278              		.loc 1 71 24 view .LVU78
 279 001e 91F88430 		ldrb	r3, [r1, #132]	@ zero_extendqisi2
 280              		.loc 1 71 11 view .LVU79
 281 0022 1370     		strb	r3, [r2]
 282              		.loc 1 72 3 is_stmt 1 view .LVU80
 283              		.loc 1 73 1 is_stmt 0 view .LVU81
 284 0024 7047     		bx	lr
 285              		.cfi_endproc
ARM GAS  C:\Users\DEVELO~1\AppData\Local\Temp\ccS7mMok.s 			page 6


 286              	.LFE3:
 287              		.size	brick_cal_pot_enable_get, .-brick_cal_pot_enable_get
 288              		.section	.text.brick_cal_pot_detent_get,"ax",%progbits
 289              		.align	1
 290              		.p2align 4,,15
 291              		.global	brick_cal_pot_detent_get
 292              		.syntax unified
 293              		.thumb
 294              		.thumb_func
 295              		.type	brick_cal_pot_detent_get, %function
 296              	brick_cal_pot_detent_get:
 297              	.LVL27:
 298              	.LFB4:
 299              		.loc 1 75 103 is_stmt 1 view -0
 300              		.cfi_startproc
 301              		@ args = 0, pretend = 0, frame = 0
 302              		@ frame_needed = 0, uses_anonymous_args = 0
 303              		@ link register save eliminated.
 304              		.loc 1 76 3 view .LVU83
 305              		.loc 1 76 6 is_stmt 0 view .LVU84
 306 0000 30B1     		cbz	r0, .L41
 307 0002 2AB1     		cbz	r2, .L41
 308              		.loc 1 80 3 is_stmt 1 view .LVU85
 309              	.LVL28:
 310              	.LBB23:
 311              	.LBI23:
 312              		.loc 1 10 13 view .LVU86
 313              	.LBB24:
 314              		.loc 1 11 3 view .LVU87
 315              		.loc 1 15 3 view .LVU88
 316              		.loc 1 15 32 is_stmt 0 view .LVU89
 317 0004 90F801C0 		ldrb	ip, [r0, #1]	@ zero_extendqisi2
 318 0008 8C45     		cmp	ip, r1
 319 000a 01D9     		bls	.L41
 320 000c 0F29     		cmp	r1, #15
 321 000e 01D9     		bls	.L36
 322              	.LVL29:
 323              	.L41:
 324              		.loc 1 15 32 view .LVU90
 325              	.LBE24:
 326              	.LBE23:
 327              		.loc 1 77 12 view .LVU91
 328 0010 0120     		movs	r0, #1
 329              	.LVL30:
 330              		.loc 1 86 1 view .LVU92
 331 0012 7047     		bx	lr
 332              	.LVL31:
 333              	.L36:
 334              		.loc 1 84 3 is_stmt 1 view .LVU93
 335              		.loc 1 84 11 is_stmt 0 view .LVU94
 336 0014 33B1     		cbz	r3, .L47
 337              		.loc 1 84 11 discriminator 1 view .LVU95
 338 0016 00EB4101 		add	r1, r0, r1, lsl #1
 339              	.LVL32:
 340              		.loc 1 85 10 discriminator 1 view .LVU96
 341 001a 0020     		movs	r0, #0
 342              	.LVL33:
ARM GAS  C:\Users\DEVELO~1\AppData\Local\Temp\ccS7mMok.s 			page 7


 343              		.loc 1 84 11 discriminator 1 view .LVU97
 344 001c B1F86430 		ldrh	r3, [r1, #100]
 345              	.LVL34:
 346              		.loc 1 84 11 discriminator 1 view .LVU98
 347 0020 1380     		strh	r3, [r2]	@ movhi
 348              		.loc 1 85 3 is_stmt 1 discriminator 1 view .LVU99
 349              		.loc 1 85 10 is_stmt 0 discriminator 1 view .LVU100
 350 0022 7047     		bx	lr
 351              	.LVL35:
 352              	.L47:
 353              		.loc 1 84 11 discriminator 2 view .LVU101
 354 0024 00EB4101 		add	r1, r0, r1, lsl #1
 355              	.LVL36:
 356              		.loc 1 85 10 discriminator 2 view .LVU102
 357 0028 0020     		movs	r0, #0
 358              	.LVL37:
 359              		.loc 1 84 11 discriminator 2 view .LVU103
 360 002a B1F84430 		ldrh	r3, [r1, #68]
 361              	.LVL38:
 362              		.loc 1 84 11 discriminator 2 view .LVU104
 363 002e 1380     		strh	r3, [r2]	@ movhi
 364              		.loc 1 85 3 is_stmt 1 discriminator 2 view .LVU105
 365              		.loc 1 85 10 is_stmt 0 discriminator 2 view .LVU106
 366 0030 7047     		bx	lr
 367              		.cfi_endproc
 368              	.LFE4:
 369              		.size	brick_cal_pot_detent_get, .-brick_cal_pot_detent_get
 370 0032 00BF     		.section	.text.brick_cal_pot_detent_set,"ax",%progbits
 371              		.align	1
 372              		.p2align 4,,15
 373              		.global	brick_cal_pot_detent_set
 374              		.syntax unified
 375              		.thumb
 376              		.thumb_func
 377              		.type	brick_cal_pot_detent_set, %function
 378              	brick_cal_pot_detent_set:
 379              	.LVL39:
 380              	.LFB5:
 381              		.loc 1 88 102 is_stmt 1 view -0
 382              		.cfi_startproc
 383              		@ args = 0, pretend = 0, frame = 0
 384              		@ frame_needed = 0, uses_anonymous_args = 0
 385              		@ link register save eliminated.
 386              		.loc 1 89 3 view .LVU108
 387              		.loc 1 89 6 is_stmt 0 view .LVU109
 388 0000 28B1     		cbz	r0, .L54
 389              		.loc 1 93 3 is_stmt 1 view .LVU110
 390              	.LVL40:
 391              	.LBB25:
 392              	.LBI25:
 393              		.loc 1 10 13 view .LVU111
 394              	.LBB26:
 395              		.loc 1 11 3 view .LVU112
 396              		.loc 1 15 3 view .LVU113
 397              		.loc 1 15 32 is_stmt 0 view .LVU114
 398 0002 90F801C0 		ldrb	ip, [r0, #1]	@ zero_extendqisi2
 399 0006 8C45     		cmp	ip, r1
ARM GAS  C:\Users\DEVELO~1\AppData\Local\Temp\ccS7mMok.s 			page 8


 400 0008 01D9     		bls	.L54
 401 000a 0F29     		cmp	r1, #15
 402 000c 01D9     		bls	.L50
 403              	.LVL41:
 404              	.L54:
 405              		.loc 1 15 32 view .LVU115
 406              	.LBE26:
 407              	.LBE25:
 408              		.loc 1 90 12 view .LVU116
 409 000e 0120     		movs	r0, #1
 410              	.LVL42:
 411              		.loc 1 108 1 view .LVU117
 412 0010 7047     		bx	lr
 413              	.LVL43:
 414              	.L50:
 415              		.loc 1 97 3 is_stmt 1 view .LVU118
 416              		.loc 1 88 102 is_stmt 0 view .LVU119
 417 0012 10B4     		push	{r4}
 418              		.cfi_def_cfa_offset 4
 419              		.cfi_offset 4, -4
 420              		.loc 1 97 19 view .LVU120
 421 0014 4418     		adds	r4, r0, r1
 422              		.loc 1 97 6 view .LVU121
 423 0016 94F88440 		ldrb	r4, [r4, #132]	@ zero_extendqisi2
 424 001a 3CB1     		cbz	r4, .L64
 425              		.loc 1 101 3 is_stmt 1 view .LVU122
 426              		.loc 1 102 28 is_stmt 0 view .LVU123
 427 001c 00EB4101 		add	r1, r0, r1, lsl #1
 428              	.LVL44:
 429              		.loc 1 101 6 view .LVU124
 430 0020 3BB1     		cbz	r3, .L52
 431              		.loc 1 102 5 is_stmt 1 view .LVU125
 432              		.loc 1 107 10 is_stmt 0 view .LVU126
 433 0022 0020     		movs	r0, #0
 434              	.LVL45:
 435              		.loc 1 108 1 view .LVU127
 436 0024 10BC     		pop	{r4}
 437              		.cfi_remember_state
 438              		.cfi_restore 4
 439              		.cfi_def_cfa_offset 0
 440              		.loc 1 102 28 view .LVU128
 441 0026 A1F86420 		strh	r2, [r1, #100]	@ movhi
 442              		.loc 1 108 1 view .LVU129
 443 002a 7047     		bx	lr
 444              	.LVL46:
 445              	.L64:
 446              		.cfi_restore_state
 447              		.loc 1 90 12 view .LVU130
 448 002c 0120     		movs	r0, #1
 449              	.LVL47:
 450              		.loc 1 108 1 view .LVU131
 451 002e 10BC     		pop	{r4}
 452              		.cfi_remember_state
 453              		.cfi_restore 4
 454              		.cfi_def_cfa_offset 0
 455 0030 7047     		bx	lr
 456              	.LVL48:
ARM GAS  C:\Users\DEVELO~1\AppData\Local\Temp\ccS7mMok.s 			page 9


 457              	.L52:
 458              		.cfi_restore_state
 459              		.loc 1 104 5 is_stmt 1 view .LVU132
 460              		.loc 1 107 10 is_stmt 0 view .LVU133
 461 0032 1846     		mov	r0, r3
 462              	.LVL49:
 463              		.loc 1 108 1 view .LVU134
 464 0034 10BC     		pop	{r4}
 465              		.cfi_restore 4
 466              		.cfi_def_cfa_offset 0
 467              		.loc 1 104 28 view .LVU135
 468 0036 A1F84420 		strh	r2, [r1, #68]	@ movhi
 469              		.loc 1 108 1 view .LVU136
 470 003a 7047     		bx	lr
 471              		.cfi_endproc
 472              	.LFE5:
 473              		.size	brick_cal_pot_detent_set, .-brick_cal_pot_detent_set
 474              		.section	.text.brick_cal_pot_min_get,"ax",%progbits
 475              		.align	1
 476              		.p2align 4,,15
 477              		.global	brick_cal_pot_min_get
 478              		.syntax unified
 479              		.thumb
 480              		.thumb_func
 481              		.type	brick_cal_pot_min_get, %function
 482              	brick_cal_pot_min_get:
 483              	.LVL50:
 484              	.LFB6:
 485              		.loc 1 110 92 is_stmt 1 view -0
 486              		.cfi_startproc
 487              		@ args = 0, pretend = 0, frame = 0
 488              		@ frame_needed = 0, uses_anonymous_args = 0
 489              		@ link register save eliminated.
 490              		.loc 1 111 3 view .LVU138
 491              		.loc 1 111 6 is_stmt 0 view .LVU139
 492 0000 48B1     		cbz	r0, .L69
 493 0002 B2FA82F3 		clz	r3, r2
 494 0006 5B09     		lsrs	r3, r3, #5
 495 0008 2AB1     		cbz	r2, .L69
 496              		.loc 1 115 3 is_stmt 1 view .LVU140
 497              	.LVL51:
 498              	.LBB27:
 499              	.LBI27:
 500              		.loc 1 10 13 view .LVU141
 501              	.LBB28:
 502              		.loc 1 11 3 view .LVU142
 503              		.loc 1 15 3 view .LVU143
 504              		.loc 1 15 32 is_stmt 0 view .LVU144
 505 000a 90F801C0 		ldrb	ip, [r0, #1]	@ zero_extendqisi2
 506 000e 8C45     		cmp	ip, r1
 507 0010 01D9     		bls	.L69
 508 0012 0F29     		cmp	r1, #15
 509 0014 01D9     		bls	.L67
 510              	.LVL52:
 511              	.L69:
 512              		.loc 1 15 32 view .LVU145
 513              	.LBE28:
ARM GAS  C:\Users\DEVELO~1\AppData\Local\Temp\ccS7mMok.s 			page 10


 514              	.LBE27:
 515              		.loc 1 112 12 view .LVU146
 516 0016 0120     		movs	r0, #1
 517              	.LVL53:
 518              		.loc 1 112 12 view .LVU147
 519 0018 7047     		bx	lr
 520              	.LVL54:
 521              	.L67:
 522              		.loc 1 119 3 is_stmt 1 view .LVU148
 523              		.loc 1 119 24 is_stmt 0 view .LVU149
 524 001a 00EB4101 		add	r1, r0, r1, lsl #1
 525              	.LVL55:
 526              		.loc 1 120 10 view .LVU150
 527 001e 1846     		mov	r0, r3
 528              	.LVL56:
 529              		.loc 1 119 24 view .LVU151
 530 0020 8B88     		ldrh	r3, [r1, #4]
 531              		.loc 1 119 14 view .LVU152
 532 0022 1380     		strh	r3, [r2]	@ movhi
 533              		.loc 1 120 3 is_stmt 1 view .LVU153
 534              		.loc 1 121 1 is_stmt 0 view .LVU154
 535 0024 7047     		bx	lr
 536              		.cfi_endproc
 537              	.LFE6:
 538              		.size	brick_cal_pot_min_get, .-brick_cal_pot_min_get
 539              		.section	.text.brick_cal_pot_max_get,"ax",%progbits
 540              		.align	1
 541              		.p2align 4,,15
 542              		.global	brick_cal_pot_max_get
 543              		.syntax unified
 544              		.thumb
 545              		.thumb_func
 546              		.type	brick_cal_pot_max_get, %function
 547              	brick_cal_pot_max_get:
 548              	.LVL57:
 549              	.LFB7:
 550              		.loc 1 123 92 is_stmt 1 view -0
 551              		.cfi_startproc
 552              		@ args = 0, pretend = 0, frame = 0
 553              		@ frame_needed = 0, uses_anonymous_args = 0
 554              		@ link register save eliminated.
 555              		.loc 1 124 3 view .LVU156
 556              		.loc 1 124 6 is_stmt 0 view .LVU157
 557 0000 48B1     		cbz	r0, .L78
 558 0002 B2FA82F3 		clz	r3, r2
 559 0006 5B09     		lsrs	r3, r3, #5
 560 0008 2AB1     		cbz	r2, .L78
 561              		.loc 1 128 3 is_stmt 1 view .LVU158
 562              	.LVL58:
 563              	.LBB29:
 564              	.LBI29:
 565              		.loc 1 10 13 view .LVU159
 566              	.LBB30:
 567              		.loc 1 11 3 view .LVU160
 568              		.loc 1 15 3 view .LVU161
 569              		.loc 1 15 32 is_stmt 0 view .LVU162
 570 000a 90F801C0 		ldrb	ip, [r0, #1]	@ zero_extendqisi2
ARM GAS  C:\Users\DEVELO~1\AppData\Local\Temp\ccS7mMok.s 			page 11


 571 000e 8C45     		cmp	ip, r1
 572 0010 01D9     		bls	.L78
 573 0012 0F29     		cmp	r1, #15
 574 0014 01D9     		bls	.L76
 575              	.LVL59:
 576              	.L78:
 577              		.loc 1 15 32 view .LVU163
 578              	.LBE30:
 579              	.LBE29:
 580              		.loc 1 125 12 view .LVU164
 581 0016 0120     		movs	r0, #1
 582              	.LVL60:
 583              		.loc 1 125 12 view .LVU165
 584 0018 7047     		bx	lr
 585              	.LVL61:
 586              	.L76:
 587              		.loc 1 132 3 is_stmt 1 view .LVU166
 588              		.loc 1 132 24 is_stmt 0 view .LVU167
 589 001a 00EB4101 		add	r1, r0, r1, lsl #1
 590              	.LVL62:
 591              		.loc 1 133 10 view .LVU168
 592 001e 1846     		mov	r0, r3
 593              	.LVL63:
 594              		.loc 1 132 24 view .LVU169
 595 0020 8B8C     		ldrh	r3, [r1, #36]
 596              		.loc 1 132 14 view .LVU170
 597 0022 1380     		strh	r3, [r2]	@ movhi
 598              		.loc 1 133 3 is_stmt 1 view .LVU171
 599              		.loc 1 134 1 is_stmt 0 view .LVU172
 600 0024 7047     		bx	lr
 601              		.cfi_endproc
 602              	.LFE7:
 603              		.size	brick_cal_pot_max_get, .-brick_cal_pot_max_get
 604              		.section	.text.brick_cal_pot_next,"ax",%progbits
 605              		.align	1
 606              		.p2align 4,,15
 607              		.global	brick_cal_pot_next
 608              		.syntax unified
 609              		.thumb
 610              		.thumb_func
 611              		.type	brick_cal_pot_next, %function
 612              	brick_cal_pot_next:
 613              	.LVL64:
 614              	.LFB10:
 615              		.loc 1 157 96 is_stmt 1 view -0
 616              		.cfi_startproc
 617              		@ args = 0, pretend = 0, frame = 0
 618              		@ frame_needed = 0, uses_anonymous_args = 0
 619              		.loc 1 158 3 view .LVU174
 620              		.loc 1 158 6 is_stmt 0 view .LVU175
 621 0000 80B3     		cbz	r0, .L97
 622 0002 7BB3     		cbz	r3, .L97
 623              		.loc 1 162 3 is_stmt 1 view .LVU176
 624              	.LVL65:
 625              	.LBB31:
 626              	.LBI31:
 627              		.loc 1 10 13 view .LVU177
ARM GAS  C:\Users\DEVELO~1\AppData\Local\Temp\ccS7mMok.s 			page 12


 628              	.LBB32:
 629              		.loc 1 11 3 view .LVU178
 630              		.loc 1 15 3 view .LVU179
 631              	.LBE32:
 632              	.LBE31:
 633              		.loc 1 157 96 is_stmt 0 view .LVU180
 634 0004 30B5     		push	{r4, r5, lr}
 635              		.cfi_def_cfa_offset 12
 636              		.cfi_offset 4, -12
 637              		.cfi_offset 5, -8
 638              		.cfi_offset 14, -4
 639              	.LBB34:
 640              	.LBB33:
 641              		.loc 1 15 32 view .LVU181
 642 0006 4478     		ldrb	r4, [r0, #1]	@ zero_extendqisi2
 643 0008 8C42     		cmp	r4, r1
 644 000a 01D9     		bls	.L99
 645 000c 0F29     		cmp	r1, #15
 646 000e 01D9     		bls	.L85
 647              	.L99:
 648              	.LBE33:
 649              	.LBE34:
 650              		.loc 1 159 12 view .LVU182
 651 0010 0120     		movs	r0, #1
 652              	.LVL66:
 653              		.loc 1 193 1 view .LVU183
 654 0012 30BD     		pop	{r4, r5, pc}
 655              	.LVL67:
 656              	.L85:
 657              		.loc 1 166 3 is_stmt 1 view .LVU184
 658              	.LBB35:
 659              	.LBI35:
 660              		.loc 1 147 17 view .LVU185
 661              	.LBB36:
 662              		.loc 1 148 3 view .LVU186
 663              		.loc 1 151 3 view .LVU187
 664              		.loc 1 151 18 is_stmt 0 view .LVU188
 665 0014 B0F802C0 		ldrh	ip, [r0, #2]
 666              	.LBE36:
 667              	.LBE35:
 668              		.loc 1 168 19 view .LVU189
 669 0018 4418     		adds	r4, r0, r1
 670 001a 6245     		cmp	r2, ip
 671              		.loc 1 168 6 view .LVU190
 672 001c 94F88440 		ldrb	r4, [r4, #132]	@ zero_extendqisi2
 673 0020 28BF     		it	cs
 674 0022 6246     		movcs	r2, ip
 675              	.LVL68:
 676              		.loc 1 168 3 is_stmt 1 view .LVU191
 677              		.loc 1 168 6 is_stmt 0 view .LVU192
 678 0024 2CB3     		cbz	r4, .L110
 679              		.loc 1 173 3 is_stmt 1 view .LVU193
 680 0026 00EB4101 		add	r1, r0, r1, lsl #1
 681              	.LVL69:
 682              		.loc 1 173 6 is_stmt 0 view .LVU194
 683 002a 8C88     		ldrh	r4, [r1, #4]
 684              		.loc 1 176 20 view .LVU195
ARM GAS  C:\Users\DEVELO~1\AppData\Local\Temp\ccS7mMok.s 			page 13


 685 002c 888C     		ldrh	r0, [r1, #36]
 686              	.LVL70:
 687              		.loc 1 173 6 view .LVU196
 688 002e 9442     		cmp	r4, r2
 689 0030 1AD8     		bhi	.L111
 690              		.loc 1 176 3 is_stmt 1 view .LVU197
 691              		.loc 1 176 6 is_stmt 0 view .LVU198
 692 0032 9042     		cmp	r0, r2
 693 0034 01D2     		bcs	.L90
 694              	.L88:
 695              		.loc 1 177 5 is_stmt 1 view .LVU199
 696              		.loc 1 177 23 is_stmt 0 view .LVU200
 697 0036 1046     		mov	r0, r2
 698 0038 8A84     		strh	r2, [r1, #36]	@ movhi
 699              	.L90:
 700              		.loc 1 180 3 is_stmt 1 view .LVU201
 701              		.loc 1 180 6 is_stmt 0 view .LVU202
 702 003a 8442     		cmp	r4, r0
 703 003c 1FD9     		bls	.L96
 704              		.loc 1 181 5 is_stmt 1 view .LVU203
 705              		.loc 1 181 23 is_stmt 0 view .LVU204
 706 003e A646     		mov	lr, r4
 707 0040 0020     		movs	r0, #0
 708 0042 8C84     		strh	r4, [r1, #36]	@ movhi
 709              	.L92:
 710              		.loc 1 184 3 is_stmt 1 view .LVU205
 711              	.LVL71:
 712              		.loc 1 185 3 view .LVU206
 713              		.loc 1 188 3 view .LVU207
 714              		.loc 1 189 3 view .LVU208
 715              	.LBB37:
 716              	.LBI37:
 717              		.loc 1 136 13 view .LVU209
 718              	.LBB38:
 719              		.loc 1 137 3 view .LVU210
 720              		.loc 1 138 3 view .LVU211
 721              		.loc 1 138 12 is_stmt 0 view .LVU212
 722 0044 A042     		cmp	r0, r4
 723 0046 17D2     		bcs	.L98
 724 0048 201A     		subs	r0, r4, r0
 725 004a 80B2     		uxth	r0, r0
 726              	.L93:
 727              	.LVL72:
 728              		.loc 1 139 3 is_stmt 1 view .LVU213
 729              		.loc 1 140 3 view .LVU214
 730              		.loc 1 143 3 view .LVU215
 731              		.loc 1 144 26 is_stmt 0 view .LVU216
 732 004c F445     		cmp	ip, lr
 733 004e 6446     		mov	r4, ip
 734              		.loc 1 143 26 view .LVU217
 735 0050 A1F84400 		strh	r0, [r1, #68]	@ movhi
 736              		.loc 1 144 3 is_stmt 1 view .LVU218
 737              	.LBE38:
 738              	.LBE37:
 739              		.loc 1 192 10 is_stmt 0 view .LVU219
 740 0054 4FF00000 		mov	r0, #0
 741              	.LVL73:
ARM GAS  C:\Users\DEVELO~1\AppData\Local\Temp\ccS7mMok.s 			page 14


 742              	.LBB44:
 743              	.LBB39:
 744              		.loc 1 144 26 view .LVU220
 745 0058 28BF     		it	cs
 746 005a 7446     		movcs	r4, lr
 747 005c A1F86440 		strh	r4, [r1, #100]	@ movhi
 748              	.LVL74:
 749              		.loc 1 144 26 view .LVU221
 750              	.LBE39:
 751              	.LBE44:
 752              		.loc 1 191 3 is_stmt 1 view .LVU222
 753              		.loc 1 191 8 is_stmt 0 view .LVU223
 754 0060 1A80     		strh	r2, [r3]	@ movhi
 755              	.LVL75:
 756              		.loc 1 192 3 is_stmt 1 view .LVU224
 757              		.loc 1 193 1 is_stmt 0 view .LVU225
 758 0062 30BD     		pop	{r4, r5, pc}
 759              	.LVL76:
 760              	.L97:
 761              		.cfi_def_cfa_offset 0
 762              		.cfi_restore 4
 763              		.cfi_restore 5
 764              		.cfi_restore 14
 765              		.loc 1 159 12 view .LVU226
 766 0064 0120     		movs	r0, #1
 767              	.LVL77:
 768              		.loc 1 193 1 view .LVU227
 769 0066 7047     		bx	lr
 770              	.LVL78:
 771              	.L111:
 772              		.cfi_def_cfa_offset 12
 773              		.cfi_offset 4, -12
 774              		.cfi_offset 5, -8
 775              		.cfi_offset 14, -4
 776              		.loc 1 174 5 is_stmt 1 view .LVU228
 777              		.loc 1 176 6 is_stmt 0 view .LVU229
 778 0068 9042     		cmp	r0, r2
 779              		.loc 1 174 23 view .LVU230
 780 006a 8A80     		strh	r2, [r1, #4]	@ movhi
 781              		.loc 1 176 3 is_stmt 1 view .LVU231
 782              		.loc 1 176 6 is_stmt 0 view .LVU232
 783 006c 06D2     		bcs	.L104
 784              		.loc 1 176 6 view .LVU233
 785 006e 94B2     		uxth	r4, r2
 786 0070 E1E7     		b	.L88
 787              	.LVL79:
 788              	.L110:
 789              		.loc 1 169 5 is_stmt 1 view .LVU234
 790              		.loc 1 170 12 is_stmt 0 view .LVU235
 791 0072 2046     		mov	r0, r4
 792              	.LVL80:
 793              		.loc 1 169 10 view .LVU236
 794 0074 1A80     		strh	r2, [r3]	@ movhi
 795              		.loc 1 170 5 is_stmt 1 view .LVU237
 796              		.loc 1 193 1 is_stmt 0 view .LVU238
 797 0076 30BD     		pop	{r4, r5, pc}
 798              	.LVL81:
ARM GAS  C:\Users\DEVELO~1\AppData\Local\Temp\ccS7mMok.s 			page 15


 799              	.L98:
 800              	.LBB45:
 801              	.LBB40:
 802              		.loc 1 138 12 view .LVU239
 803 0078 0020     		movs	r0, #0
 804 007a E7E7     		b	.L93
 805              	.LVL82:
 806              	.L104:
 807              		.loc 1 138 12 view .LVU240
 808              	.LBE40:
 809              	.LBE45:
 810              		.loc 1 180 3 is_stmt 1 view .LVU241
 811              		.loc 1 180 35 is_stmt 0 view .LVU242
 812 007c 8C88     		ldrh	r4, [r1, #4]
 813              	.L96:
 814              		.loc 1 184 12 view .LVU243
 815 007e 001B     		subs	r0, r0, r4
 816              	.LBB46:
 817              	.LBB41:
 818              		.loc 1 137 12 view .LVU244
 819 0080 074D     		ldr	r5, .L112
 820 0082 80B2     		uxth	r0, r0
 821 0084 0128     		cmp	r0, #1
 822 0086 38BF     		it	cc
 823 0088 0120     		movcc	r0, #1
 824              	.LBE41:
 825              	.LBE46:
 826              		.loc 1 188 12 view .LVU245
 827 008a 04EB5004 		add	r4, r4, r0, lsr #1
 828              	.LBB47:
 829              	.LBB42:
 830              		.loc 1 137 12 view .LVU246
 831 008e A5FB0050 		umull	r5, r0, r5, r0
 832              	.LBE42:
 833              	.LBE47:
 834              		.loc 1 188 12 view .LVU247
 835 0092 A4B2     		uxth	r4, r4
 836              	.LBB48:
 837              	.LBB43:
 838              		.loc 1 139 12 view .LVU248
 839 0094 04EB501E 		add	lr, r4, r0, lsr #5
 840              		.loc 1 137 12 view .LVU249
 841 0098 4009     		lsrs	r0, r0, #5
 842              		.loc 1 139 12 view .LVU250
 843 009a 1FFA8EFE 		uxth	lr, lr
 844 009e D1E7     		b	.L92
 845              	.L113:
 846              		.align	2
 847              	.L112:
 848 00a0 CDCCCCCC 		.word	-858993459
 849              	.LBE43:
 850              	.LBE48:
 851              		.cfi_endproc
 852              	.LFE10:
 853              		.size	brick_cal_pot_next, .-brick_cal_pot_next
 854              		.global	brick_cal_state
 855              		.section	.bss.brick_cal_state,"aw",%nobits
ARM GAS  C:\Users\DEVELO~1\AppData\Local\Temp\ccS7mMok.s 			page 16


 856              		.align	2
 857              		.type	brick_cal_state, %object
 858              		.size	brick_cal_state, 148
 859              	brick_cal_state:
 860 0000 00000000 		.space	148
 860      00000000 
 860      00000000 
 860      00000000 
 860      00000000 
 861              		.text
 862              	.Letext0:
 863              		.file 2 "c:\\chibistudio\\tools\\gnu tools arm embedded\\11.3 2022.08\\arm-none-eabi\\include\\mac
 864              		.file 3 "c:\\chibistudio\\tools\\gnu tools arm embedded\\11.3 2022.08\\arm-none-eabi\\include\\sys
 865              		.file 4 "drivers/HallEffect/brick_cal.h"
 866              		.file 5 "<built-in>"