ARM GAS  C:\Users\DEVELO~1\AppData\Local\Temp\ccS7mMok.s 			page 1


   1              		.cpu cortex-m7
   2              		.arch armv7e-m
   3              		.fpu softvfp
   4              		.eabi_attribute 20, 1
   5              		.eabi_attribute 21, 1
   6              		.eabi_attribute 23, 3
   7              		.eabi_attribute 24, 1
   8              		.eabi_attribute 25, 1
   9              		.eabi_attribute 26, 1
  10              		.eabi_attribute 30, 2
  11              		.eabi_attribute 34, 1
  12              		.eabi_attribute 18, 4
  13              		.file	"brick_cal.c"
  14              		.text
  15              	.Ltext0:
  16              		.cfi_sections	.debug_frame
  17              		.section	.text.brick_cal_pot_init,"ax",%progbits
  18              		.align	1
  19              		.p2align 4,,15
  20              		.global	brick_cal_pot_init
  21              		.syntax unified
  22              		.thumb
  23              		.thumb_func
  24              		.type	brick_cal_pot_init, %function
  25              	brick_cal_pot_init:
  26              	.LVL0:
  27              	.LFB1:
  28              		.file 1 "drivers/HallEffect/brick_cal.c"
  29              		.loc 1 18 87 view -0
  30              		.cfi_startproc
  31              		@ args = 0, pretend = 0, frame = 0
  32              		@ frame_needed = 0, uses_anonymous_args = 0
  33              		.loc 1 19 3 view .LVU1
  34              		.loc 1 19 6 is_stmt 0 view .LVU2
  35 0000 70B3     		cbz	r0, .L5
  36              		.loc 1 23 3 is_stmt 1 view .LVU3
  37 0002 1029     		cmp	r1, #16
  38 0004 0B46     		mov	r3, r1
  39 0006 28BF     		it	cs
  40 0008 1023     		movcs	r3, #16
  41              	.LVL1:
  42              		.loc 1 27 3 view .LVU4
  43              		.loc 1 28 76 is_stmt 0 view .LVU5
  44 000a 102A     		cmp	r2, #16
  45 000c 28BF     		it	cs
  46 000e 1022     		movcs	r2, #16
  47              	.LVL2:
  48              		.loc 1 29 18 view .LVU6
  49 0010 0F29     		cmp	r1, #15
  50              		.loc 1 18 87 view .LVU7
  51 0012 10B5     		push	{r4, lr}
  52              		.cfi_def_cfa_offset 8
  53              		.cfi_offset 4, -8
  54              		.cfi_offset 14, -4
  55 0014 0446     		mov	r4, r0
  56              		.loc 1 27 19 view .LVU8
  57 0016 0370     		strb	r3, [r0]
ARM GAS  C:\Users\DEVELO~1\AppData\Local\Temp\ccS7mMok.s 			page 2


  58              		.loc 1 28 3 is_stmt 1 view .LVU9
  59              		.loc 1 28 15 is_stmt 0 view .LVU10
  60 0018 4270     		strb	r2, [r0, #1]
  61              		.loc 1 29 3 is_stmt 1 view .LVU11
  62              		.loc 1 29 18 is_stmt 0 view .LVU12
  63 001a 1ED8     		bhi	.L6
  64              		.loc 1 29 68 discriminator 1 view .LVU13
  65 001c 0122     		movs	r2, #1
  66 001e 9A40     		lsls	r2, r2, r3
  67              		.loc 1 29 18 discriminator 1 view .LVU14
  68 0020 92B2     		uxth	r2, r2
  69              	.L3:
  70              		.loc 1 29 16 discriminator 4 view .LVU15
  71 0022 2346     		mov	r3, r4
  72              	.LVL3:
  73              		.loc 1 29 16 discriminator 4 view .LVU16
  74 0024 04F12201 		add	r1, r4, #34
  75 0028 23F8022F 		strh	r2, [r3, #2]!	@ movhi
  76              		.loc 1 31 3 is_stmt 1 discriminator 4 view .LVU17
  77              	.LBB18:
  78              		.loc 1 31 8 discriminator 4 view .LVU18
  79              	.LVL4:
  80              		.loc 1 31 25 discriminator 4 view .LVU19
  81              	.L4:
  82              		.loc 1 32 5 view .LVU20
  83              		.loc 1 32 17 is_stmt 0 view .LVU21
  84 002c 23F8022F 		strh	r2, [r3, #2]!	@ movhi
  85              		.loc 1 33 5 is_stmt 1 view .LVU22
  86              		.loc 1 34 5 view .LVU23
  87              		.loc 1 35 5 view .LVU24
  88              		.loc 1 36 5 view .LVU25
  89              		.loc 1 31 25 is_stmt 0 view .LVU26
  90 0030 9942     		cmp	r1, r3
  91              		.loc 1 36 22 view .LVU27
  92 0032 A3F86020 		strh	r2, [r3, #96]	@ movhi
  93              		.loc 1 31 51 is_stmt 1 view .LVU28
  94              		.loc 1 31 25 view .LVU29
  95 0036 F9D1     		bne	.L4
  96              		.loc 1 33 17 is_stmt 0 view .LVU30
  97 0038 4022     		movs	r2, #64
  98 003a 0021     		movs	r1, #0
  99 003c 04F12400 		add	r0, r4, #36
 100              	.LVL5:
 101              		.loc 1 33 17 view .LVU31
 102 0040 FFF7FEFF 		bl	memset
 103              	.LVL6:
 104              		.loc 1 34 20 view .LVU32
 105 0044 0023     		movs	r3, #0
 106              	.LBE18:
 107              		.loc 1 39 10 view .LVU33
 108 0046 1846     		mov	r0, r3
 109              	.LBB19:
 110              		.loc 1 34 20 view .LVU34
 111 0048 C4F88430 		str	r3, [r4, #132]	@ unaligned
 112 004c C4F88830 		str	r3, [r4, #136]	@ unaligned
 113 0050 C4F88C30 		str	r3, [r4, #140]	@ unaligned
 114 0054 C4F89030 		str	r3, [r4, #144]	@ unaligned
ARM GAS  C:\Users\DEVELO~1\AppData\Local\Temp\ccS7mMok.s 			page 3


 115              	.LBE19:
 116              		.loc 1 40 1 view .LVU35
 117 0058 10BD     		pop	{r4, pc}
 118              	.LVL7:
 119              	.L6:
 120              		.loc 1 29 18 view .LVU36
 121 005a 4FF6FF72 		movw	r2, #65535
 122 005e E0E7     		b	.L3
 123              	.LVL8:
 124              	.L5:
 125              		.cfi_def_cfa_offset 0
 126              		.cfi_restore 4
 127              		.cfi_restore 14
 128              		.loc 1 20 12 view .LVU37
 129 0060 0120     		movs	r0, #1
 130              	.LVL9:
 131              		.loc 1 40 1 view .LVU38
 132 0062 7047     		bx	lr
 133              		.cfi_endproc
 134              	.LFE1:
 135              		.size	brick_cal_pot_init, .-brick_cal_pot_init
 136              		.section	.text.brick_cal_pot_enable_range,"ax",%progbits
 137              		.align	1
 138              		.p2align 4,,15
 139              		.global	brick_cal_pot_enable_range
 140              		.syntax unified
 141              		.thumb
 142              		.thumb_func
 143              		.type	brick_cal_pot_enable_range, %function
 144              	brick_cal_pot_enable_range:
 145              	.LVL10:
 146              	.LFB2:
 147              		.loc 1 42 90 is_stmt 1 view -0
 148              		.cfi_startproc
 149              		@ args = 0, pretend = 0, frame = 0
 150              		@ frame_needed = 0, uses_anonymous_args = 0
 151              		.loc 1 43 3 view .LVU40
 152              		.loc 1 43 6 is_stmt 0 view .LVU41
 153 0000 C0B1     		cbz	r0, .L17
 154              		.loc 1 42 90 discriminator 1 view .LVU42
 155 0002 08B5     		push	{r3, lr}
 156              		.cfi_def_cfa_offset 8
 157              		.cfi_offset 3, -8
 158              		.cfi_offset 14, -4
 159              		.loc 1 43 25 discriminator 1 view .LVU43
 160 0004 4378     		ldrb	r3, [r0, #1]	@ zero_extendqisi2
 161              		.loc 1 47 3 is_stmt 1 discriminator 1 view .LVU44
 162              		.loc 1 47 6 is_stmt 0 discriminator 1 view .LVU45
 163 0006 8B42     		cmp	r3, r1
 164 0008 01D8     		bhi	.L24
 165              	.L19:
 166              		.loc 1 44 12 view .LVU46
 167 000a 0120     		movs	r0, #1
 168              	.LVL11:
 169              		.loc 1 60 1 view .LVU47
 170 000c 08BD     		pop	{r3, pc}
 171              	.LVL12:
ARM GAS  C:\Users\DEVELO~1\AppData\Local\Temp\ccS7mMok.s 			page 4


 172              	.L24:
 173              		.loc 1 50 3 is_stmt 1 view .LVU48
 174              		.loc 1 50 23 is_stmt 0 view .LVU49
 175 000e 01EB020C 		add	ip, r1, r2
 176              		.loc 1 50 6 view .LVU50
 177 0012 9C45     		cmp	ip, r3
 178 0014 F9DC     		bgt	.L19
 179              		.loc 1 54 3 is_stmt 1 view .LVU51
 180              	.LVL13:
 181              		.loc 1 55 3 view .LVU52
 182              	.LBB20:
 183              		.loc 1 55 8 view .LVU53
 184              		.loc 1 55 29 view .LVU54
 185 0016 5FFA8CFC 		uxtb	ip, ip
 186 001a 6145     		cmp	r1, ip
 187 001c 08D2     		bcs	.L16
 188              		.loc 1 56 20 is_stmt 0 view .LVU55
 189 001e 013A     		subs	r2, r2, #1
 190              	.LVL14:
 191              		.loc 1 56 20 view .LVU56
 192 0020 01F18403 		add	r3, r1, #132
 193 0024 0121     		movs	r1, #1
 194              	.LVL15:
 195              		.loc 1 56 20 view .LVU57
 196 0026 D2B2     		uxtb	r2, r2
 197 0028 1844     		add	r0, r0, r3
 198              	.LVL16:
 199              		.loc 1 56 20 view .LVU58
 200 002a 0A44     		add	r2, r2, r1
 201 002c FFF7FEFF 		bl	memset
 202              	.LVL17:
 203              	.L16:
 204              		.loc 1 56 20 view .LVU59
 205              	.LBE20:
 206              		.loc 1 59 10 view .LVU60
 207 0030 0020     		movs	r0, #0
 208              		.loc 1 60 1 view .LVU61
 209 0032 08BD     		pop	{r3, pc}
 210              	.LVL18:
 211              	.L17:
 212              		.cfi_def_cfa_offset 0
 213              		.cfi_restore 3
 214              		.cfi_restore 14
 215              		.loc 1 44 12 view .LVU62
 216 0034 0120     		movs	r0, #1
 217              	.LVL19:
 218              		.loc 1 60 1 view .LVU63
 219 0036 7047     		bx	lr
 220              		.cfi_endproc
 221              	.LFE2:
 222              		.size	brick_cal_pot_enable_range, .-brick_cal_pot_enable_range
 223              		.section	.text.brick_cal_pot_enable_get,"ax",%progbits
 224              		.align	1
 225              		.p2align 4,,15
 226              		.global	brick_cal_pot_enable_get
 227              		.syntax unified
 228              		.thumb
ARM GAS  C:\Users\DEVELO~1\AppData\Local\Temp\ccS7mMok.s 			page 5


 229              		.thumb_func
 230              		.type	brick_cal_pot_enable_get, %function
 231              	brick_cal_pot_enable_get:
 232              	.LVL20:
 233              	.LFB3:
 234              		.loc 1 62 91 is_stmt 1 view -0
 235              		.cfi_startproc
 236              		@ args = 0, pretend = 0, frame = 0
 237              		@ frame_needed = 0, uses_anonymous_args = 0
 238              		@ link register save eliminated.
 239              		.loc 1 63 3 view .LVU65
 240              		.loc 1 63 6 is_stmt 0 view .LVU66
 241 0000 48B1     		cbz	r0, .L29
 242 0002 B2FA82F3 		clz	r3, r2
 243 0006 5B09     		lsrs	r3, r3, #5
 244 0008 2AB1     		cbz	r2, .L29
 245              		.loc 1 67 3 is_stmt 1 view .LVU67
 246              	.LVL21:
 247              	.LBB21:
 248              	.LBI21:
 249              		.loc 1 10 13 view .LVU68
 250              	.LBB22:
 251              		.loc 1 11 3 view .LVU69
 252              		.loc 1 15 3 view .LVU70
 253              		.loc 1 15 32 is_stmt 0 view .LVU71
 254 000a 90F801C0 		ldrb	ip, [r0, #1]	@ zero_extendqisi2
 255 000e 8C45     		cmp	ip, r1
 256 0010 01D9     		bls	.L29
 257 0012 0F29     		cmp	r1, #15
 258 0014 01D9     		bls	.L27
 259              	.LVL22:
 260              	.L29:
 261              		.loc 1 15 32 view .LVU72
 262              	.LBE22:
 263              	.LBE21:
 264              		.loc 1 64 12 view .LVU73
 265 0016 0120     		movs	r0, #1
 266              	.LVL23:
 267              		.loc 1 64 12 view .LVU74
 268 0018 7047     		bx	lr
 269              	.LVL24:
 270              	.L27:
 271              		.loc 1 71 3 is_stmt 1 view .LVU75
 272              		.loc 1 71 24 is_stmt 0 view .LVU76
 273 001a 0144     		add	r1, r1, r0
 274              	.LVL25:
 275              		.loc 1 72 10 view .LVU77
 276 001c 1846     		mov	r0, r3
 277              	.LVL26:
 278              		.loc 1 71 24 view .LVU78
 279 001e 91F88430 		ldrb	r3, [r1, #132]	@ zero_extendqisi2
 280              		.loc 1 71 11 view .LVU79
 281 0022 1370     		strb	r3, [r2]
 282              		.loc 1 72 3 is_stmt 1 view .LVU80
 283              		.loc 1 73 1 is_stmt 0 view .LVU81
 284 0024 7047     		bx	lr
 285              		.cfi_endproc
ARM GAS  C:\Users\DEVELO~1\AppData\Local\Temp\ccS7mMok.s 			page 6


 286              	.LFE3:
 287              		.size	brick_cal_pot_enable_get, .-brick_cal_pot_enable_get
 288              		.section	.text.brick_cal_pot_detent_get,"ax",%progbits
 289              		.align	1
 290              		.p2align 4,,15
 291              		.global	brick_cal_pot_detent_get
 292              		.syntax unified
 293              		.thumb
 294              		.thumb_func
 295              		.type	brick_cal_pot_detent_get, %function
 296              	brick_cal_pot_detent_get:
 297              	.LVL27:
 298              	.LFB4:
 299              		.loc 1 75 103 is_stmt 1 view -0
 300              		.cfi_startproc
 301              		@ args = 0, pretend = 0, frame = 0
 302              		@ frame_needed = 0, uses_anonymous_args = 0
 303              		@ link register save eliminated.
 304              		.loc 1 76 3 view .LVU83
 305              		.loc 1 76 6 is_stmt 0 view .LVU84
 306 0000 30B1     		cbz	r0, .L41
 307 0002 2AB1     		cbz	r2, .L41
 308              		.loc 1 80 3 is_stmt 1 view .LVU85
 309              	.LVL28:
 310              	.LBB23:
 311              	.LBI23:
 312              		.loc 1 10 13 view .LVU86
 313              	.LBB24:
 314              		.loc 1 11 3 view .LVU87
 315              		.loc 1 15 3 view .LVU88
 316              		.loc 1 15 32 is_stmt 0 view .LVU89
 317 0004 90F801C0 		ldrb	ip, [r0, #1]	@ zero_extendqisi2
 318 0008 8C45     		cmp	ip, r1
 319 000a 01D9     		bls	.L41
 320 000c 0F29     		cmp	r1, #15
 321 000e 01D9     		bls	.L36
 322              	.LVL29:
 323              	.L41:
 324              		.loc 1 15 32 view .LVU90
 325              	.LBE24:
 326              	.LBE23:
 327              		.loc 1 77 12 view .LVU91
 328 0010 0120     		movs	r0, #1
 329              	.LVL30:
 330              		.loc 1 86 1 view .LVU92
 331 0012 7047     		bx	lr
 332              	.LVL31:
 333              	.L36:
 334              		.loc 1 84 3 is_stmt 1 view .LVU93
 335              		.loc 1 84 11 is_stmt 0 view .LVU94
 336 0014 33B1     		cbz	r3, .L47
 337              		.loc 1 84 11 discriminator 1 view .LVU95
 338 0016 00EB4101 		add	r1, r0, r1, lsl #1
 339              	.LVL32:
 340              		.loc 1 85 10 discriminator 1 view .LVU96
 341 001a 0020     		movs	r0, #0
 342              	.LVL33:
ARM GAS  C:\Users\DEVELO~1\AppData\Local\Temp\ccS7mMok.s 			page 7


 343              		.loc 1 84 11 discriminator 1 view .LVU97
 344 001c B1F86430 		ldrh	r3, [r1, #100]
 345              	.LVL34:
 346              		.loc 1 84 11 discriminator 1 view .LVU98
 347 0020 1380     		strh	r3, [r2]	@ movhi
 348              		.loc 1 85 3 is_stmt 1 discriminator 1 view .LVU99
 349              		.loc 1 85 10 is_stmt 0 discriminator 1 view .LVU100
 350 0022 7047     		bx	lr
 351              	.LVL35:
 352              	.L47:
 353              		.loc 1 84 11 discriminator 2 view .LVU101
 354 0024 00EB4101 		add	r1, r0, r1, lsl #1
 355              	.LVL36:
 356              		.loc 1 85 10 discriminator 2 view .LVU102
 357 0028 0020     		movs	r0, #0
 358              	.LVL37:
 359              		.loc 1 84 11 discriminator 2 view .LVU103
 360 002a B1F84430 		ldrh	r3, [r1, #68]
 361              	.LVL38:
 362              		.loc 1 84 11 discriminator 2 view .LVU104
 363 002e 1380     		strh	r3, [r2]	@ movhi
 364              		.loc 1 85 3 is_stmt 1 discriminator 2 view .LVU105
 365              		.loc 1 85 10 is_stmt 0 discriminator 2 view .LVU106
 366 0030 7047     		bx	lr
 367              		.cfi_endproc
 368              	.LFE4:
 369              		.size	brick_cal_pot_detent_get, .-brick_cal_pot_detent_get
 370 0032 00BF     		.section	.text.brick_cal_pot_detent_set,"ax",%progbits
 371              		.align	1
 372              		.p2align 4,,15
 373              		.global	brick_cal_pot_detent_set
 374              		.syntax unified
 375              		.thumb
 376              		.thumb_func
 377              		.type	brick_cal_pot_detent_set, %function
 378              	brick_cal_pot_detent_set:
 379              	.LVL39:
 380              	.LFB5:
 381              		.loc 1 88 102 is_stmt 1 view -0
 382              		.cfi_startproc
 383              		@ args = 0, pretend = 0, frame = 0
 384              		@ frame_needed = 0, uses_anonymous_args = 0
 385              		@ link register save eliminated.
 386              		.loc 1 89 3 view .LVU108
 387              		.loc 1 89 6 is_stmt 0 view .LVU109
 388 0000 28B1     		cbz	r0, .L54
 389              		.loc 1 93 3 is_stmt 1 view .LVU110
 390              	.LVL40:
 391              	.LBB25:
 392              	.LBI25:
 393              		.loc 1 10 13 view .LVU111
 394              	.LBB26:
 395              		.loc 1 11 3 view .LVU112
 396              		.loc 1 15 3 view .LVU113
 397              		.loc 1 15 32 is_stmt 0 view .LVU114
 398 0002 90F801C0 		ldrb	ip, [r0, #1]	@ zero_extendqisi2
 399 0006 8C45     		cmp	ip, r1
ARM GAS  C:\Users\DEVELO~1\AppData\Local\Temp\ccS7mMok.s 			page 8


 400 0008 01D9     		bls	.L54
 401 000a 0F29     		cmp	r1, #15
 402 000c 01D9     		bls	.L50
 403              	.LVL41:
 404              	.L54:
 405              		.loc 1 15 32 view .LVU115
 406              	.LBE26:
 407              	.LBE25:
 408              		.loc 1 90 12 view .LVU116
 409 000e 0120     		movs	r0, #1
 410              	.LVL42:
 411              		.loc 1 108 1 view .LVU117
 412 0010 7047     		bx	lr
 413              	.LVL43:
 414              	.L50:
 415              		.loc 1 97 3 is_stmt 1 view .LVU118
 416              		.loc 1 88 102 is_stmt 0 view .LVU119
 417 0012 10B4     		push	{r4}
 418              		.cfi_def_cfa_offset 4
 419              		.cfi_offset 4, -4
 420              		.loc 1 97 19 view .LVU120
 421 0014 4418     		adds	r4, r0, r1
 422              		.loc 1 97 6 view .LVU121
 423 0016 94F88440 		ldrb	r4, [r4, #132]	@ zero_extendqisi2
 424 001a 3CB1     		cbz	r4, .L64
 425              		.loc 1 101 3 is_stmt 1 view .LVU122
 426              		.loc 1 102 28 is_stmt 0 view .LVU123
 427 001c 00EB4101 		add	r1, r0, r1, lsl #1
 428              	.LVL44:
 429              		.loc 1 101 6 view .LVU124
 430 0020 3BB1     		cbz	r3, .L52
 431              		.loc 1 102 5 is_stmt 1 view .LVU125
 432              		.loc 1 107 10 is_stmt 0 view .LVU126
 433 0022 0020     		movs	r0, #0
 434              	.LVL45:
 435              		.loc 1 108 1 view .LVU127
 436 0024 10BC     		pop	{r4}
 437              		.cfi_remember_state
 438              		.cfi_restore 4
 439              		.cfi_def_cfa_offset 0
 440              		.loc 1 102 28 view .LVU128
 441 0026 A1F86420 		strh	r2, [r1, #100]	@ movhi
 442              		.loc 1 108 1 view .LVU129
 443 002a 7047     		bx	lr
 444              	.LVL46:
 445              	.L64:
 446              		.cfi_restore_state
 447              		.loc 1 90 12 view .LVU130
 448 002c 0120     		movs	r0, #1
 449              	.LVL47:
 450              		.loc 1 108 1 view .LVU131
 451 002e 10BC     		pop	{r4}
 452              		.cfi_remember_state
 453              		.cfi_restore 4
 454              		.cfi_def_cfa_offset 0
 455 0030 7047     		bx	lr
 456              	.LVL48:
ARM GAS  C:\Users\DEVELO~1\AppData\Local\Temp\ccS7mMok.s 			page 9


 457              	.L52:
 458              		.cfi_restore_state
 459              		.loc 1 104 5 is_stmt 1 view .LVU132
 460              		.loc 1 107 10 is_stmt 0 view .LVU133
 461 0032 1846     		mov	r0, r3
 462              	.LVL49:
 463              		.loc 1 108 1 view .LVU134
 464 0034 10BC     		pop	{r4}
 465              		.cfi_restore 4
 466              		.cfi_def_cfa_offset 0
 467              		.loc 1 104 28 view .LVU135
 468 0036 A1F84420 		strh	r2, [r1, #68]	@ movhi
 469              		.loc 1 108 1 view .LVU136
 470 003a 7047     		bx	lr
 471              		.cfi_endproc
 472              	.LFE5:
 473              		.size	brick_cal_pot_detent_set, .-brick_cal_pot_detent_set
 474              		.section	.text.brick_cal_pot_min_get,"ax",%progbits
 475              		.align	1
 476              		.p2align 4,,15
 477              		.global	brick_cal_pot_min_get
 478              		.syntax unified
 479              		.thumb
 480              		.thumb_func
 481              		.type	brick_cal_pot_min_get, %function
 482              	brick_cal_pot_min_get:
 483              	.LVL50:
 484              	.LFB6:
 485              		.loc 1 110 92 is_stmt 1 view -0
 486              		.cfi_startproc
 487              		@ args = 0, pretend = 0, frame = 0
 488              		@ frame_needed = 0, uses_anonymous_args = 0
 489              		@ link register save eliminated.
 490              		.loc 1 111 3 view .LVU138
 491              		.loc 1 111 6 is_stmt 0 view .LVU139
 492 0000 48B1     		cbz	r0, .L69
 493 0002 B2FA82F3 		clz	r3, r2
 494 0006 5B09     		lsrs	r3, r3, #5
 495 0008 2AB1     		cbz	r2, .L69
 496              		.loc 1 115 3 is_stmt 1 view .LVU140
 497              	.LVL51:
 498              	.LBB27:
 499              	.LBI27:
 500              		.loc 1 10 13 view .LVU141
 501              	.LBB28:
 502              		.loc 1 11 3 view .LVU142
 503              		.loc 1 15 3 view .LVU143
 504              		.loc 1 15 32 is_stmt 0 view .LVU144
 505 000a 90F801C0 		ldrb	ip, [r0, #1]	@ zero_extendqisi2
 506 000e 8C45     		cmp	ip, r1
 507 0010 01D9     		bls	.L69
 508 0012 0F29     		cmp	r1, #15
 509 0014 01D9     		bls	.L67
 510              	.LVL52:
 511              	.L69:
 512              		.loc 1 15 32 view .LVU145
 513              	.LBE28:
ARM GAS  C:\Users\DEVELO~1\AppData\Local\Temp\ccS7mMok.s 			page 10


 514              	.LBE27:
 515              		.loc 1 112 12 view .LVU146
 516 0016 0120     		movs	r0, #1
 517              	.LVL53:
 518              		.loc 1 112 12 view .LVU147
 519 0018 7047     		bx	lr
 520              	.LVL54:
 521              	.L67:
 522              		.loc 1 119 3 is_stmt 1 view .LVU148
 523              		.loc 1 119 24 is_stmt 0 view .LVU149
 524 001a 00EB4101 		add	r1, r0, r1, lsl #1
 525              	.LVL55:
 526              		.loc 1 120 10 view .LVU150
 527 001e 1846     		mov	r0, r3
 528              	.LVL56:
 529              		.loc 1 119 24 view .LVU151
 530 0020 8B88     		ldrh	r3, [r1, #4]
 531              		.loc 1 119 14 view .LVU152
 532 0022 1380     		strh	r3, [r2]	@ movhi
 533              		.loc 1 120 3 is_stmt 1 view .LVU153
 534              		.loc 1 121 1 is_stmt 0 view .LVU154
 535 0024 7047     		bx	lr
 536              		.cfi_endproc
 537              	.LFE6:
 538              		.size	brick_cal_pot_min_get, .-brick_cal_pot_min_get
 539              		.section	.text.brick_cal_pot_max_get,"ax",%progbits
 540              		.align	1
 541              		.p2align 4,,15
 542              		.global	brick_cal_pot_max_get
 543              		.syntax unified
 544              		.thumb
 545              		.thumb_func
 546              		.type	brick_cal_pot_max_get, %function
 547              	brick_cal_pot_max_get:
 548              	.LVL57:
 549              	.LFB7:
 550              		.loc 1 123 92 is_stmt 1 view -0
 551              		.cfi_startproc
 552              		@ args = 0, pretend = 0, frame = 0
 553              		@ frame_needed = 0, uses_anonymous_args = 0
 554              		@ link register save eliminated.
 555              		.loc 1 124 3 view .LVU156
 556              		.loc 1 124 6 is_stmt 0 view .LVU157
 557 0000 48B1     		cbz	r0, .L78
 558 0002 B2FA82F3 		clz	r3, r2
 559 0006 5B09     		lsrs	r3, r3, #5
 560 0008 2AB1     		cbz	r2, .L78
 561              		.loc 1 128 3 is_stmt 1 view .LVU158
 562              	.LVL58:
 563              	.LBB29:
 564              	.LBI29:
 565              		.loc 1 10 13 view .LVU159
 566              	.LBB30:
 567              		.loc 1 11 3 view .LVU160
 568              		.loc 1 15 3 view .LVU161
 569              		.loc 1 15 32 is_stmt 0 view .LVU162
 570 000a 90F801C0 		ldrb	ip, [r0, #1]	@ zero_extendqisi2
ARM GAS  C:\Users\DEVELO~1\AppData\Local\Temp\ccS7mMok.s 			page 11


 571 000e 8C45     		cmp	ip, r1
 572 0010 01D9     		bls	.L78
 573 0012 0F29     		cmp	r1, #15
 574 0014 01D9     		bls	.L76
 575              	.LVL59:
 576              	.L78:
 577              		.loc 1 15 32 view .LVU163
 578              	.LBE30:
 579              	.LBE29:
 580              		.loc 1 125 12 view .LVU164
 581 0016 0120     		movs	r0, #1
 582              	.LVL60:
 583              		.loc 1 125 12 view .LVU165
 584 0018 7047     		bx	lr
 585              	.LVL61:
 586              	.L76:
 587              		.loc 1 132 3 is_stmt 1 view .LVU166
 588              		.loc 1 132 24 is_stmt 0 view .LVU167
 589 001a 00EB4101 		add	r1, r0, r1, lsl #1
 590              	.LVL62:
 591              		.loc 1 133 10 view .LVU168
 592 001e 1846     		mov	r0, r3
 593              	.LVL63:
 594              		.loc 1 132 24 view .LVU169
 595 0020 8B8C     		ldrh	r3, [r1, #36]
 596              		.loc 1 132 14 view .LVU170
 597 0022 1380     		strh	r3, [r2]	@ movhi
 598              		.loc 1 133 3 is_stmt 1 view .LVU171
 599              		.loc 1 134 1 is_stmt 0 view .LVU172
 600 0024 7047     		bx	lr
 601              		.cfi_endproc
 602              	.LFE7:
 603              		.size	brick_cal_pot_max_get, .-brick_cal_pot_max_get
 604              		.section	.text.brick_cal_pot_next,"ax",%progbits
 605              		.align	1
 606              		.p2align 4,,15
 607              		.global	brick_cal_pot_next
 608              		.syntax unified
 609              		.thumb
 610              		.thumb_func
 611              		.type	brick_cal_pot_next, %function
 612              	brick_cal_pot_next:
 613              	.LVL64:
 614              	.LFB10:
 615              		.loc 1 157 96 is_stmt 1 view -0
 616              		.cfi_startproc
 617              		@ args = 0, pretend = 0, frame = 0
 618              		@ frame_needed = 0, uses_anonymous_args = 0
 619              		.loc 1 158 3 view .LVU174
 620              		.loc 1 158 6 is_stmt 0 view .LVU175
 621 0000 80B3     		cbz	r0, .L97
 622 0002 7BB3     		cbz	r3, .L97
 623              		.loc 1 162 3 is_stmt 1 view .LVU176
 624              	.LVL65:
 625              	.LBB31:
 626              	.LBI31:
 627              		.loc 1 10 13 view .LVU177
ARM GAS  C:\Users\DEVELO~1\AppData\Local\Temp\ccS7mMok.s 			page 12


 628              	.LBB32:
 629              		.loc 1 11 3 view .LVU178
 630              		.loc 1 15 3 view .LVU179
 631              	.LBE32:
 632              	.LBE31:
 633              		.loc 1 157 96 is_stmt 0 view .LVU180
 634 0004 30B5     		push	{r4, r5, lr}
 635              		.cfi_def_cfa_offset 12
 636              		.cfi_offset 4, -12
 637              		.cfi_offset 5, -8
 638              		.cfi_offset 14, -4
 639              	.LBB34:
 640              	.LBB33:
 641              		.loc 1 15 32 view .LVU181
 642 0006 4478     		ldrb	r4, [r0, #1]	@ zero_extendqisi2
 643 0008 8C42     		cmp	r4, r1
 644 000a 01D9     		bls	.L99
 645 000c 0F29     		cmp	r1, #15
 646 000e 01D9     		bls	.L85
 647              	.L99:
 648              	.LBE33:
 649              	.LBE34:
 650              		.loc 1 159 12 view .LVU182
 651 0010 0120     		movs	r0, #1
 652              	.LVL66:
 653              		.loc 1 193 1 view .LVU183
 654 0012 30BD     		pop	{r4, r5, pc}
 655              	.LVL67:
 656              	.L85:
 657              		.loc 1 166 3 is_stmt 1 view .LVU184
 658              	.LBB35:
 659              	.LBI35:
 660              		.loc 1 147 17 view .LVU185
 661              	.LBB36:
 662              		.loc 1 148 3 view .LVU186
 663              		.loc 1 151 3 view .LVU187
 664              		.loc 1 151 18 is_stmt 0 view .LVU188
 665 0014 B0F802C0 		ldrh	ip, [r0, #2]
 666              	.LBE36:
 667              	.LBE35:
 668              		.loc 1 168 19 view .LVU189
 669 0018 4418     		adds	r4, r0, r1
 670 001a 6245     		cmp	r2, ip
 671              		.loc 1 168 6 view .LVU190
 672 001c 94F88440 		ldrb	r4, [r4, #132]	@ zero_extendqisi2
 673 0020 28BF     		it	cs
 674 0022 6246     		movcs	r2, ip
 675              	.LVL68:
 676              		.loc 1 168 3 is_stmt 1 view .LVU191
 677              		.loc 1 168 6 is_stmt 0 view .LVU192
 678 0024 2CB3     		cbz	r4, .L110
 679              		.loc 1 173 3 is_stmt 1 view .LVU193
 680 0026 00EB4101 		add	r1, r0, r1, lsl #1
 681              	.LVL69:
 682              		.loc 1 173 6 is_stmt 0 view .LVU194
 683 002a 8C88     		ldrh	r4, [r1, #4]
 684              		.loc 1 176 20 view .LVU195
ARM GAS  C:\Users\DEVELO~1\AppData\Local\Temp\ccS7mMok.s 			page 13


 685 002c 888C     		ldrh	r0, [r1, #36]
 686              	.LVL70:
 687              		.loc 1 173 6 view .LVU196
 688 002e 9442     		cmp	r4, r2
 689 0030 1AD8     		bhi	.L111
 690              		.loc 1 176 3 is_stmt 1 view .LVU197
 691              		.loc 1 176 6 is_stmt 0 view .LVU198
 692 0032 9042     		cmp	r0, r2
 693 0034 01D2     		bcs	.L90
 694              	.L88:
 695              		.loc 1 177 5 is_stmt 1 view .LVU199
 696              		.loc 1 177 23 is_stmt 0 view .LVU200
 697 0036 1046     		mov	r0, r2
 698 0038 8A84     		strh	r2, [r1, #36]	@ movhi
 699              	.L90:
 700              		.loc 1 180 3 is_stmt 1 view .LVU201
 701              		.loc 1 180 6 is_stmt 0 view .LVU202
 702 003a 8442     		cmp	r4, r0
 703 003c 1FD9     		bls	.L96
 704              		.loc 1 181 5 is_stmt 1 view .LVU203
 705              		.loc 1 181 23 is_stmt 0 view .LVU204
 706 003e A646     		mov	lr, r4
 707 0040 0020     		movs	r0, #0
 708 0042 8C84     		strh	r4, [r1, #36]	@ movhi
 709              	.L92:
 710              		.loc 1 184 3 is_stmt 1 view .LVU205
 711              	.LVL71:
 712              		.loc 1 185 3 view .LVU206
 713              		.loc 1 188 3 view .LVU207
 714              		.loc 1 189 3 view .LVU208
 715              	.LBB37:
 716              	.LBI37:
 717              		.loc 1 136 13 view .LVU209
 718              	.LBB38:
 719              		.loc 1 137 3 view .LVU210
 720              		.loc 1 138 3 view .LVU211
 721              		.loc 1 138 12 is_stmt 0 view .LVU212
 722 0044 A042     		cmp	r0, r4
 723 0046 17D2     		bcs	.L98
 724 0048 201A     		subs	r0, r4, r0
 725 004a 80B2     		uxth	r0, r0
 726              	.L93:
 727              	.LVL72:
 728              		.loc 1 139 3 is_stmt 1 view .LVU213
 729              		.loc 1 140 3 view .LVU214
 730              		.loc 1 143 3 view .LVU215
 731              		.loc 1 144 26 is_stmt 0 view .LVU216
 732 004c F445     		cmp	ip, lr
 733 004e 6446     		mov	r4, ip
 734              		.loc 1 143 26 view .LVU217
 735 0050 A1F84400 		strh	r0, [r1, #68]	@ movhi
 736              		.loc 1 144 3 is_stmt 1 view .LVU218
 737              	.LBE38:
 738              	.LBE37:
 739              		.loc 1 192 10 is_stmt 0 view .LVU219
 740 0054 4FF00000 		mov	r0, #0
 741              	.LVL73:
ARM GAS  C:\Users\DEVELO~1\AppData\Local\Temp\ccS7mMok.s 			page 14


 742              	.LBB44:
 743              	.LBB39:
 744              		.loc 1 144 26 view .LVU220
 745 0058 28BF     		it	cs
 746 005a 7446     		movcs	r4, lr
 747 005c A1F86440 		strh	r4, [r1, #100]	@ movhi
 748              	.LVL74:
 749              		.loc 1 144 26 view .LVU221
 750              	.LBE39:
 751              	.LBE44:
 752              		.loc 1 191 3 is_stmt 1 view .LVU222
 753              		.loc 1 191 8 is_stmt 0 view .LVU223
 754 0060 1A80     		strh	r2, [r3]	@ movhi
 755              	.LVL75:
 756              		.loc 1 192 3 is_stmt 1 view .LVU224
 757              		.loc 1 193 1 is_stmt 0 view .LVU225
 758 0062 30BD     		pop	{r4, r5, pc}
 759              	.LVL76:
 760              	.L97:
 761              		.cfi_def_cfa_offset 0
 762              		.cfi_restore 4
 763              		.cfi_restore 5
 764              		.cfi_restore 14
 765              		.loc 1 159 12 view .LVU226
 766 0064 0120     		movs	r0, #1
 767              	.LVL77:
 768              		.loc 1 193 1 view .LVU227
 769 0066 7047     		bx	lr
 770              	.LVL78:
 771              	.L111:
 772              		.cfi_def_cfa_offset 12
 773              		.cfi_offset 4, -12
 774              		.cfi_offset 5, -8
 775              		.cfi_offset 14, -4
 776              		.loc 1 174 5 is_stmt 1 view .LVU228
 777              		.loc 1 176 6 is_stmt 0 view .LVU229
 778 0068 9042     		cmp	r0, r2
 779              		.loc 1 174 23 view .LVU230
 780 006a 8A80     		strh	r2, [r1, #4]	@ movhi
 781              		.loc 1 176 3 is_stmt 1 view .LVU231
 782              		.loc 1 176 6 is_stmt 0 view .LVU232
 783 006c 06D2     		bcs	.L104
 784              		.loc 1 176 6 view .LVU233
 785 006e 94B2     		uxth	r4, r2
 786 0070 E1E7     		b	.L88
 787              	.LVL79:
 788              	.L110:
 789              		.loc 1 169 5 is_stmt 1 view .LVU234
 790              		.loc 1 170 12 is_stmt 0 view .LVU235
 791 0072 2046     		mov	r0, r4
 792              	.LVL80:
 793              		.loc 1 169 10 view .LVU236
 794 0074 1A80     		strh	r2, [r3]	@ movhi
 795              		.loc 1 170 5 is_stmt 1 view .LVU237
 796              		.loc 1 193 1 is_stmt 0 view .LVU238
 797 0076 30BD     		pop	{r4, r5, pc}
 798              	.LVL81:
ARM GAS  C:\Users\DEVELO~1\AppData\Local\Temp\ccS7mMok.s 			page 15


 799              	.L98:
 800              	.LBB45:
 801              	.LBB40:
 802              		.loc 1 138 12 view .LVU239
 803 0078 0020     		movs	r0, #0
 804 007a E7E7     		b	.L93
 805              	.LVL82:
 806              	.L104:
 807              		.loc 1 138 12 view .LVU240
 808              	.LBE40:
 809              	.LBE45:
 810              		.loc 1 180 3 is_stmt 1 view .LVU241
 811              		.loc 1 180 35 is_stmt 0 view .LVU242
 812 007c 8C88     		ldrh	r4, [r1, #4]
 813              	.L96:
 814              		.loc 1 184 12 view .LVU243
 815 007e 001B     		subs	r0, r0, r4
 816              	.LBB46:
 817              	.LBB41:
 818              		.loc 1 137 12 view .LVU244
 819 0080 074D     		ldr	r5, .L112
 820 0082 80B2     		uxth	r0, r0
 821 0084 0128     		cmp	r0, #1
 822 0086 38BF     		it	cc
 823 0088 0120     		movcc	r0, #1
 824              	.LBE41:
 825              	.LBE46:
 826              		.loc 1 188 12 view .LVU245
 827 008a 04EB5004 		add	r4, r4, r0, lsr #1
 828              	.LBB47:
 829              	.LBB42:
 830              		.loc 1 137 12 view .LVU246
 831 008e A5FB0050 		umull	r5, r0, r5, r0
 832              	.LBE42:
 833              	.LBE47:
 834              		.loc 1 188 12 view .LVU247
 835 0092 A4B2     		uxth	r4, r4
 836              	.LBB48:
 837              	.LBB43:
 838              		.loc 1 139 12 view .LVU248
 839 0094 04EB501E 		add	lr, r4, r0, lsr #5
 840              		.loc 1 137 12 view .LVU249
 841 0098 4009     		lsrs	r0, r0, #5
 842              		.loc 1 139 12 view .LVU250
 843 009a 1FFA8EFE 		uxth	lr, lr
 844 009e D1E7     		b	.L92
 845              	.L113:
 846              		.align	2
 847              	.L112:
 848 00a0 CDCCCCCC 		.word	-858993459
 849              	.LBE43:
 850              	.LBE48:
 851              		.cfi_endproc
 852              	.LFE10:
 853              		.size	brick_cal_pot_next, .-brick_cal_pot_next
 854              		.global	brick_cal_state
 855              		.section	.bss.brick_cal_state,"aw",%nobits
ARM GAS  C:\Users\DEVELO~1\AppData\Local\Temp\ccS7mMok.s 			page 16


 856              		.align	2
 857              		.type	brick_cal_state, %object
 858              		.size	brick_cal_state, 148
 859              	brick_cal_state:
 860 0000 00000000 		.space	148
 860      00000000 
 860      00000000 
 860      00000000 
 860      00000000 
 861              		.text
 862              	.Letext0:
 863              		.file 2 "c:\\chibistudio\\tools\\gnu tools arm embedded\\11.3 2022.08\\arm-none-eabi\\include\\mac
 864              		.file 3 "c:\\chibistudio\\tools\\gnu tools arm embedded\\11.3 2022.08\\arm-none-eabi\\include\\sys
 865              		.file 4 "drivers/HallEffect/brick_cal.h"
 866              		.file 5 "<built-in>"
 867              		.section	.debug_info,"",%progbits
 868              	.Ldebug_info0:
 869 0000 E3060000 		.4byte	0x6e3
 870 0004 0500     		.2byte	0x5
 871 0006 01       		.byte	0x1
 872 0007 04       		.byte	0x4
 873 0008 00000000 		.4byte	.Ldebug_abbrev0
 874 000c 1A       		.uleb128 0x1a
 875 000d AC020000 		.4byte	.LASF46
 876 0011 1D       		.byte	0x1d
 877 0012 46010000 		.4byte	.LASF47
 878 0016 5D020000 		.4byte	.LASF48
 879 001a 3C000000 		.4byte	.LLRL43
 880 001e 00000000 		.4byte	0
 881 0022 00000000 		.4byte	.Ldebug_line0
 882 0026 02       		.uleb128 0x2
 883 0027 01       		.byte	0x1
 884 0028 06       		.byte	0x6
 885 0029 76030000 		.4byte	.LASF0
 886 002d 0A       		.uleb128 0xa
 887 002e 2D000000 		.4byte	.LASF3
 888 0032 02       		.byte	0x2
 889 0033 2B       		.byte	0x2b
 890 0034 18       		.byte	0x18
 891 0035 39000000 		.4byte	0x39
 892 0039 02       		.uleb128 0x2
 893 003a 01       		.byte	0x1
 894 003b 08       		.byte	0x8
 895 003c B9000000 		.4byte	.LASF1
 896 0040 02       		.uleb128 0x2
 897 0041 02       		.byte	0x2
 898 0042 05       		.byte	0x5
 899 0043 3C020000 		.4byte	.LASF2
 900 0047 0A       		.uleb128 0xa
 901 0048 19010000 		.4byte	.LASF4
 902 004c 02       		.byte	0x2
 903 004d 39       		.byte	0x39
 904 004e 19       		.byte	0x19
 905 004f 53000000 		.4byte	0x53
 906 0053 02       		.uleb128 0x2
 907 0054 02       		.byte	0x2
 908 0055 07       		.byte	0x7
ARM GAS  C:\Users\DEVELO~1\AppData\Local\Temp\ccS7mMok.s 			page 17


 909 0056 D8000000 		.4byte	.LASF5
 910 005a 02       		.uleb128 0x2
 911 005b 04       		.byte	0x4
 912 005c 05       		.byte	0x5
 913 005d 61030000 		.4byte	.LASF6
 914 0061 02       		.uleb128 0x2
 915 0062 04       		.byte	0x4
 916 0063 07       		.byte	0x7
 917 0064 24010000 		.4byte	.LASF7
 918 0068 02       		.uleb128 0x2
 919 0069 08       		.byte	0x8
 920 006a 05       		.byte	0x5
 921 006b E8010000 		.4byte	.LASF8
 922 006f 02       		.uleb128 0x2
 923 0070 08       		.byte	0x8
 924 0071 07       		.byte	0x7
 925 0072 72010000 		.4byte	.LASF9
 926 0076 1B       		.uleb128 0x1b
 927 0077 04       		.byte	0x4
 928 0078 05       		.byte	0x5
 929 0079 696E7400 		.ascii	"int\000"
 930 007d 02       		.uleb128 0x2
 931 007e 04       		.byte	0x4
 932 007f 07       		.byte	0x7
 933 0080 65010000 		.4byte	.LASF10
 934 0084 0A       		.uleb128 0xa
 935 0085 89010000 		.4byte	.LASF11
 936 0089 03       		.byte	0x3
 937 008a 18       		.byte	0x18
 938 008b 13       		.byte	0x13
 939 008c 2D000000 		.4byte	0x2d
 940 0090 0A       		.uleb128 0xa
 941 0091 33020000 		.4byte	.LASF12
 942 0095 03       		.byte	0x3
 943 0096 24       		.byte	0x24
 944 0097 14       		.byte	0x14
 945 0098 47000000 		.4byte	0x47
 946 009c 02       		.uleb128 0x2
 947 009d 01       		.byte	0x1
 948 009e 08       		.byte	0x8
 949 009f 28000000 		.4byte	.LASF13
 950 00a3 11       		.uleb128 0x11
 951 00a4 3F000000 		.4byte	.LASF20
 952 00a8 94       		.byte	0x94
 953 00a9 0F       		.byte	0xf
 954 00aa 0D010000 		.4byte	0x10d
 955 00ae 06       		.uleb128 0x6
 956 00af 82030000 		.4byte	.LASF14
 957 00b3 10       		.byte	0x10
 958 00b4 0B       		.byte	0xb
 959 00b5 84000000 		.4byte	0x84
 960 00b9 00       		.byte	0
 961 00ba 06       		.uleb128 0x6
 962 00bb 93030000 		.4byte	.LASF15
 963 00bf 11       		.byte	0x11
 964 00c0 0B       		.byte	0xb
 965 00c1 84000000 		.4byte	0x84
ARM GAS  C:\Users\DEVELO~1\AppData\Local\Temp\ccS7mMok.s 			page 18


 966 00c5 01       		.byte	0x1
 967 00c6 06       		.uleb128 0x6
 968 00c7 EB000000 		.4byte	.LASF16
 969 00cb 12       		.byte	0x12
 970 00cc 0C       		.byte	0xc
 971 00cd 90000000 		.4byte	0x90
 972 00d1 02       		.byte	0x2
 973 00d2 12       		.uleb128 0x12
 974 00d3 6D696E00 		.ascii	"min\000"
 975 00d7 13       		.byte	0x13
 976 00d8 0D010000 		.4byte	0x10d
 977 00dc 04       		.byte	0x4
 978 00dd 12       		.uleb128 0x12
 979 00de 6D617800 		.ascii	"max\000"
 980 00e2 14       		.byte	0x14
 981 00e3 0D010000 		.4byte	0x10d
 982 00e7 24       		.byte	0x24
 983 00e8 06       		.uleb128 0x6
 984 00e9 97000000 		.4byte	.LASF17
 985 00ed 15       		.byte	0x15
 986 00ee 0C       		.byte	0xc
 987 00ef 0D010000 		.4byte	0x10d
 988 00f3 44       		.byte	0x44
 989 00f4 06       		.uleb128 0x6
 990 00f5 4D000000 		.4byte	.LASF18
 991 00f9 16       		.byte	0x16
 992 00fa 0C       		.byte	0xc
 993 00fb 0D010000 		.4byte	0x10d
 994 00ff 64       		.byte	0x64
 995 0100 06       		.uleb128 0x6
 996 0101 6C000000 		.4byte	.LASF19
 997 0105 17       		.byte	0x17
 998 0106 0B       		.byte	0xb
 999 0107 1C010000 		.4byte	0x11c
 1000 010b 84       		.byte	0x84
 1001 010c 00       		.byte	0
 1002 010d 13       		.uleb128 0x13
 1003 010e 90000000 		.4byte	0x90
 1004 0112 1C010000 		.4byte	0x11c
 1005 0116 14       		.uleb128 0x14
 1006 0117 7D000000 		.4byte	0x7d
 1007 011b 00       		.byte	0
 1008 011c 13       		.uleb128 0x13
 1009 011d 84000000 		.4byte	0x84
 1010 0121 2B010000 		.4byte	0x12b
 1011 0125 14       		.uleb128 0x14
 1012 0126 7D000000 		.4byte	0x7d
 1013 012a 00       		.byte	0
 1014 012b 11       		.uleb128 0x11
 1015 012c 36010000 		.4byte	.LASF21
 1016 0130 94       		.byte	0x94
 1017 0131 23       		.byte	0x23
 1018 0132 43010000 		.4byte	0x143
 1019 0136 06       		.uleb128 0x6
 1020 0137 8E000000 		.4byte	.LASF22
 1021 013b 24       		.byte	0x24
 1022 013c 18       		.byte	0x18
ARM GAS  C:\Users\DEVELO~1\AppData\Local\Temp\ccS7mMok.s 			page 19


 1023 013d A3000000 		.4byte	0xa3
 1024 0141 00       		.byte	0
 1025 0142 00       		.byte	0
 1026 0143 1C       		.uleb128 0x1c
 1027 0144 4D020000 		.4byte	.LASF42
 1028 0148 04       		.byte	0x4
 1029 0149 27       		.byte	0x27
 1030 014a 1F       		.byte	0x1f
 1031 014b 2B010000 		.4byte	0x12b
 1032 014f 02       		.uleb128 0x2
 1033 0150 08       		.byte	0x8
 1034 0151 04       		.byte	0x4
 1035 0152 6A030000 		.4byte	.LASF23
 1036 0156 1D       		.uleb128 0x1d
 1037 0157 43010000 		.4byte	0x143
 1038 015b 01       		.byte	0x1
 1039 015c 08       		.byte	0x8
 1040 015d 18       		.byte	0x18
 1041 015e 05       		.uleb128 0x5
 1042 015f 03       		.byte	0x3
 1043 0160 00000000 		.4byte	brick_cal_state
 1044 0164 05       		.uleb128 0x5
 1045 0165 20020000 		.4byte	.LASF29
 1046 0169 9D       		.byte	0x9d
 1047 016a 76000000 		.4byte	0x76
 1048 016e 00000000 		.4byte	.LFB10
 1049 0172 A4000000 		.4byte	.LFE10-.LFB10
 1050 0176 01       		.uleb128 0x1
 1051 0177 9C       		.byte	0x9c
 1052 0178 8E020000 		.4byte	0x28e
 1053 017c 04       		.uleb128 0x4
 1054 017d 63616C00 		.ascii	"cal\000"
 1055 0181 9D       		.byte	0x9d
 1056 0182 2E       		.byte	0x2e
 1057 0183 8E020000 		.4byte	0x28e
 1058 0187 1C000000 		.4byte	.LLST31
 1059 018b 0C000000 		.4byte	.LVUS31
 1060 018f 03       		.uleb128 0x3
 1061 0190 37000000 		.4byte	.LASF24
 1062 0194 9D       		.byte	0x9d
 1063 0195 3B       		.byte	0x3b
 1064 0196 84000000 		.4byte	0x84
 1065 019a 63000000 		.4byte	.LLST32
 1066 019e 57000000 		.4byte	.LVUS32
 1067 01a2 04       		.uleb128 0x4
 1068 01a3 696E00   		.ascii	"in\000"
 1069 01a6 9D       		.byte	0x9d
 1070 01a7 4D       		.byte	0x4d
 1071 01a8 90000000 		.4byte	0x90
 1072 01ac 95000000 		.4byte	.LLST33
 1073 01b0 91000000 		.4byte	.LVUS33
 1074 01b4 1E       		.uleb128 0x1e
 1075 01b5 6F757400 		.ascii	"out\000"
 1076 01b9 01       		.byte	0x1
 1077 01ba 9D       		.byte	0x9d
 1078 01bb 5B       		.byte	0x5b
 1079 01bc 93020000 		.4byte	0x293
ARM GAS  C:\Users\DEVELO~1\AppData\Local\Temp\ccS7mMok.s 			page 20


 1080 01c0 01       		.uleb128 0x1
 1081 01c1 53       		.byte	0x53
 1082 01c2 0C       		.uleb128 0xc
 1083 01c3 0C010000 		.4byte	.LASF25
 1084 01c7 B8       		.byte	0xb8
 1085 01c8 90000000 		.4byte	0x90
 1086 01cc 0C       		.uleb128 0xc
 1087 01cd 46020000 		.4byte	.LASF26
 1088 01d1 BC       		.byte	0xbc
 1089 01d2 90000000 		.4byte	0x90
 1090 01d6 1F       		.uleb128 0x1f
 1091 01d7 B5060000 		.4byte	0x6b5
 1092 01db 04000000 		.4byte	.LBI31
 1093 01df 01       		.byte	.LVU177
 1094 01e0 18000000 		.4byte	.LLRL34
 1095 01e4 01       		.byte	0x1
 1096 01e5 A2       		.byte	0xa2
 1097 01e6 08       		.byte	0x8
 1098 01e7 06020000 		.4byte	0x206
 1099 01eb 01       		.uleb128 0x1
 1100 01ec CF060000 		.4byte	0x6cf
 1101 01f0 A8000000 		.4byte	.LLST35
 1102 01f4 A6000000 		.4byte	.LVUS35
 1103 01f8 01       		.uleb128 0x1
 1104 01f9 C4060000 		.4byte	0x6c4
 1105 01fd B5000000 		.4byte	.LLST36
 1106 0201 B1000000 		.4byte	.LVUS36
 1107 0205 00       		.byte	0
 1108 0206 20       		.uleb128 0x20
 1109 0207 98020000 		.4byte	0x298
 1110 020b 14000000 		.4byte	.LBI35
 1111 020f 01       		.byte	.LVU185
 1112 0210 14000000 		.4byte	.LBB35
 1113 0214 04000000 		.4byte	.LBE35-.LBB35
 1114 0218 01       		.byte	0x1
 1115 0219 A6       		.byte	0xa6
 1116 021a 08       		.byte	0x8
 1117 021b 3A020000 		.4byte	0x23a
 1118 021f 01       		.uleb128 0x1
 1119 0220 B2020000 		.4byte	0x2b2
 1120 0224 CA000000 		.4byte	.LLST37
 1121 0228 C8000000 		.4byte	.LVUS37
 1122 022c 01       		.uleb128 0x1
 1123 022d A7020000 		.4byte	0x2a7
 1124 0231 D5000000 		.4byte	.LLST38
 1125 0235 D3000000 		.4byte	.LVUS38
 1126 0239 00       		.byte	0
 1127 023a 21       		.uleb128 0x21
 1128 023b BE020000 		.4byte	0x2be
 1129 023f 44000000 		.4byte	.LBI37
 1130 0243 04       		.byte	.LVU209
 1131 0244 24000000 		.4byte	.LLRL39
 1132 0248 01       		.byte	0x1
 1133 0249 BD       		.byte	0xbd
 1134 024a 03       		.byte	0x3
 1135 024b 0D       		.uleb128 0xd
 1136 024c EC020000 		.4byte	0x2ec
ARM GAS  C:\Users\DEVELO~1\AppData\Local\Temp\ccS7mMok.s 			page 21


 1137 0250 0D       		.uleb128 0xd
 1138 0251 E1020000 		.4byte	0x2e1
 1139 0255 0D       		.uleb128 0xd
 1140 0256 D6020000 		.4byte	0x2d6
 1141 025a 01       		.uleb128 0x1
 1142 025b CB020000 		.4byte	0x2cb
 1143 025f E2000000 		.4byte	.LLST40
 1144 0263 DE000000 		.4byte	.LVUS40
 1145 0267 15       		.uleb128 0x15
 1146 0268 24000000 		.4byte	.LLRL39
 1147 026c 22       		.uleb128 0x22
 1148 026d F7020000 		.4byte	0x2f7
 1149 0271 16       		.uleb128 0x16
 1150 0272 01030000 		.4byte	0x301
 1151 0276 FC000000 		.4byte	.LLST41
 1152 027a F8000000 		.4byte	.LVUS41
 1153 027e 16       		.uleb128 0x16
 1154 027f 0A030000 		.4byte	0x30a
 1155 0283 10010000 		.4byte	.LLST42
 1156 0287 0E010000 		.4byte	.LVUS42
 1157 028b 00       		.byte	0
 1158 028c 00       		.byte	0
 1159 028d 00       		.byte	0
 1160 028e 0E       		.uleb128 0xe
 1161 028f A3000000 		.4byte	0xa3
 1162 0293 0E       		.uleb128 0xe
 1163 0294 90000000 		.4byte	0x90
 1164 0298 17       		.uleb128 0x17
 1165 0299 0F020000 		.4byte	.LASF44
 1166 029d 93       		.byte	0x93
 1167 029e 11       		.byte	0x11
 1168 029f 90000000 		.4byte	0x90
 1169 02a3 BE020000 		.4byte	0x2be
 1170 02a7 0F       		.uleb128 0xf
 1171 02a8 63616C00 		.ascii	"cal\000"
 1172 02ac 93       		.byte	0x93
 1173 02ad 38       		.byte	0x38
 1174 02ae 8E020000 		.4byte	0x28e
 1175 02b2 08       		.uleb128 0x8
 1176 02b3 56000000 		.4byte	.LASF27
 1177 02b7 93       		.byte	0x93
 1178 02b8 46       		.byte	0x46
 1179 02b9 90000000 		.4byte	0x90
 1180 02bd 00       		.byte	0
 1181 02be 23       		.uleb128 0x23
 1182 02bf 00000000 		.4byte	.LASF49
 1183 02c3 01       		.byte	0x1
 1184 02c4 88       		.byte	0x88
 1185 02c5 0D       		.byte	0xd
 1186 02c6 01       		.byte	0x1
 1187 02c7 14030000 		.4byte	0x314
 1188 02cb 0F       		.uleb128 0xf
 1189 02cc 63616C00 		.ascii	"cal\000"
 1190 02d0 88       		.byte	0x88
 1191 02d1 31       		.byte	0x31
 1192 02d2 8E020000 		.4byte	0x28e
 1193 02d6 08       		.uleb128 0x8
ARM GAS  C:\Users\DEVELO~1\AppData\Local\Temp\ccS7mMok.s 			page 22


 1194 02d7 37000000 		.4byte	.LASF24
 1195 02db 88       		.byte	0x88
 1196 02dc 3E       		.byte	0x3e
 1197 02dd 84000000 		.4byte	0x84
 1198 02e1 08       		.uleb128 0x8
 1199 02e2 0C010000 		.4byte	.LASF25
 1200 02e6 88       		.byte	0x88
 1201 02e7 50       		.byte	0x50
 1202 02e8 90000000 		.4byte	0x90
 1203 02ec 08       		.uleb128 0x8
 1204 02ed 46020000 		.4byte	.LASF26
 1205 02f1 88       		.byte	0x88
 1206 02f2 60       		.byte	0x60
 1207 02f3 90000000 		.4byte	0x90
 1208 02f7 0C       		.uleb128 0xc
 1209 02f8 CC010000 		.4byte	.LASF28
 1210 02fc 89       		.byte	0x89
 1211 02fd 90000000 		.4byte	0x90
 1212 0301 18       		.uleb128 0x18
 1213 0302 6C6F00   		.ascii	"lo\000"
 1214 0305 8A       		.byte	0x8a
 1215 0306 90000000 		.4byte	0x90
 1216 030a 18       		.uleb128 0x18
 1217 030b 686900   		.ascii	"hi\000"
 1218 030e 8B       		.byte	0x8b
 1219 030f 90000000 		.4byte	0x90
 1220 0313 00       		.byte	0
 1221 0314 05       		.uleb128 0x5
 1222 0315 78000000 		.4byte	.LASF30
 1223 0319 7B       		.byte	0x7b
 1224 031a 76000000 		.4byte	0x76
 1225 031e 00000000 		.4byte	.LFB7
 1226 0322 26000000 		.4byte	.LFE7-.LFB7
 1227 0326 01       		.uleb128 0x1
 1228 0327 9C       		.byte	0x9c
 1229 0328 8E030000 		.4byte	0x38e
 1230 032c 04       		.uleb128 0x4
 1231 032d 63616C00 		.ascii	"cal\000"
 1232 0331 7B       		.byte	0x7b
 1233 0332 31       		.byte	0x31
 1234 0333 8E020000 		.4byte	0x28e
 1235 0337 36010000 		.4byte	.LLST27
 1236 033b 2E010000 		.4byte	.LVUS27
 1237 033f 03       		.uleb128 0x3
 1238 0340 37000000 		.4byte	.LASF24
 1239 0344 7B       		.byte	0x7b
 1240 0345 3E       		.byte	0x3e
 1241 0346 84000000 		.4byte	0x84
 1242 034a 5A010000 		.4byte	.LLST28
 1243 034e 56010000 		.4byte	.LVUS28
 1244 0352 07       		.uleb128 0x7
 1245 0353 AC010000 		.4byte	.LASF31
 1246 0357 7B       		.byte	0x7b
 1247 0358 51       		.byte	0x51
 1248 0359 93020000 		.4byte	0x293
 1249 035d 01       		.uleb128 0x1
 1250 035e 52       		.byte	0x52
ARM GAS  C:\Users\DEVELO~1\AppData\Local\Temp\ccS7mMok.s 			page 23


 1251 035f 09       		.uleb128 0x9
 1252 0360 B5060000 		.4byte	0x6b5
 1253 0364 0A000000 		.4byte	.LBI29
 1254 0368 01       		.byte	.LVU159
 1255 0369 0A000000 		.4byte	.LBB29
 1256 036d 0C000000 		.4byte	.LBE29-.LBB29
 1257 0371 80       		.byte	0x80
 1258 0372 01       		.uleb128 0x1
 1259 0373 CF060000 		.4byte	0x6cf
 1260 0377 6F010000 		.4byte	.LLST29
 1261 037b 6D010000 		.4byte	.LVUS29
 1262 037f 01       		.uleb128 0x1
 1263 0380 C4060000 		.4byte	0x6c4
 1264 0384 7A010000 		.4byte	.LLST30
 1265 0388 78010000 		.4byte	.LVUS30
 1266 038c 00       		.byte	0
 1267 038d 00       		.byte	0
 1268 038e 05       		.uleb128 0x5
 1269 038f B6010000 		.4byte	.LASF32
 1270 0393 6E       		.byte	0x6e
 1271 0394 76000000 		.4byte	0x76
 1272 0398 00000000 		.4byte	.LFB6
 1273 039c 26000000 		.4byte	.LFE6-.LFB6
 1274 03a0 01       		.uleb128 0x1
 1275 03a1 9C       		.byte	0x9c
 1276 03a2 08040000 		.4byte	0x408
 1277 03a6 04       		.uleb128 0x4
 1278 03a7 63616C00 		.ascii	"cal\000"
 1279 03ab 6E       		.byte	0x6e
 1280 03ac 31       		.byte	0x31
 1281 03ad 8E020000 		.4byte	0x28e
 1282 03b1 8B010000 		.4byte	.LLST23
 1283 03b5 83010000 		.4byte	.LVUS23
 1284 03b9 03       		.uleb128 0x3
 1285 03ba 37000000 		.4byte	.LASF24
 1286 03be 6E       		.byte	0x6e
 1287 03bf 3E       		.byte	0x3e
 1288 03c0 84000000 		.4byte	0x84
 1289 03c4 AF010000 		.4byte	.LLST24
 1290 03c8 AB010000 		.4byte	.LVUS24
 1291 03cc 07       		.uleb128 0x7
 1292 03cd 62000000 		.4byte	.LASF33
 1293 03d1 6E       		.byte	0x6e
 1294 03d2 51       		.byte	0x51
 1295 03d3 93020000 		.4byte	0x293
 1296 03d7 01       		.uleb128 0x1
 1297 03d8 52       		.byte	0x52
 1298 03d9 09       		.uleb128 0x9
 1299 03da B5060000 		.4byte	0x6b5
 1300 03de 0A000000 		.4byte	.LBI27
 1301 03e2 01       		.byte	.LVU141
 1302 03e3 0A000000 		.4byte	.LBB27
 1303 03e7 0C000000 		.4byte	.LBE27-.LBB27
 1304 03eb 73       		.byte	0x73
 1305 03ec 01       		.uleb128 0x1
 1306 03ed CF060000 		.4byte	0x6cf
 1307 03f1 C4010000 		.4byte	.LLST25
ARM GAS  C:\Users\DEVELO~1\AppData\Local\Temp\ccS7mMok.s 			page 24


 1308 03f5 C2010000 		.4byte	.LVUS25
 1309 03f9 01       		.uleb128 0x1
 1310 03fa C4060000 		.4byte	0x6c4
 1311 03fe CF010000 		.4byte	.LLST26
 1312 0402 CD010000 		.4byte	.LVUS26
 1313 0406 00       		.byte	0
 1314 0407 00       		.byte	0
 1315 0408 05       		.uleb128 0x5
 1316 0409 F3000000 		.4byte	.LASF34
 1317 040d 58       		.byte	0x58
 1318 040e 76000000 		.4byte	0x76
 1319 0412 00000000 		.4byte	.LFB5
 1320 0416 3C000000 		.4byte	.LFE5-.LFB5
 1321 041a 01       		.uleb128 0x1
 1322 041b 9C       		.byte	0x9c
 1323 041c 8F040000 		.4byte	0x48f
 1324 0420 04       		.uleb128 0x4
 1325 0421 63616C00 		.ascii	"cal\000"
 1326 0425 58       		.byte	0x58
 1327 0426 34       		.byte	0x34
 1328 0427 8E020000 		.4byte	0x28e
 1329 042b E8010000 		.4byte	.LLST19
 1330 042f D8010000 		.4byte	.LVUS19
 1331 0433 03       		.uleb128 0x3
 1332 0434 37000000 		.4byte	.LASF24
 1333 0438 58       		.byte	0x58
 1334 0439 41       		.byte	0x41
 1335 043a 84000000 		.4byte	0x84
 1336 043e 2A020000 		.4byte	.LLST20
 1337 0442 22020000 		.4byte	.LVUS20
 1338 0446 07       		.uleb128 0x7
 1339 0447 21000000 		.4byte	.LASF35
 1340 044b 58       		.byte	0x58
 1341 044c 53       		.byte	0x53
 1342 044d 90000000 		.4byte	0x90
 1343 0451 01       		.uleb128 0x1
 1344 0452 52       		.byte	0x52
 1345 0453 07       		.uleb128 0x7
 1346 0454 73000000 		.4byte	.LASF36
 1347 0458 58       		.byte	0x58
 1348 0459 60       		.byte	0x60
 1349 045a 8F040000 		.4byte	0x48f
 1350 045e 01       		.uleb128 0x1
 1351 045f 53       		.byte	0x53
 1352 0460 09       		.uleb128 0x9
 1353 0461 B5060000 		.4byte	0x6b5
 1354 0465 02000000 		.4byte	.LBI25
 1355 0469 01       		.byte	.LVU111
 1356 046a 02000000 		.4byte	.LBB25
 1357 046e 0C000000 		.4byte	.LBE25-.LBB25
 1358 0472 5D       		.byte	0x5d
 1359 0473 01       		.uleb128 0x1
 1360 0474 CF060000 		.4byte	0x6cf
 1361 0478 4C020000 		.4byte	.LLST21
 1362 047c 4A020000 		.4byte	.LVUS21
 1363 0480 01       		.uleb128 0x1
 1364 0481 C4060000 		.4byte	0x6c4
ARM GAS  C:\Users\DEVELO~1\AppData\Local\Temp\ccS7mMok.s 			page 25


 1365 0485 57020000 		.4byte	.LLST22
 1366 0489 55020000 		.4byte	.LVUS22
 1367 048d 00       		.byte	0
 1368 048e 00       		.byte	0
 1369 048f 02       		.uleb128 0x2
 1370 0490 01       		.byte	0x1
 1371 0491 02       		.byte	0x2
 1372 0492 8D030000 		.4byte	.LASF37
 1373 0496 05       		.uleb128 0x5
 1374 0497 A0000000 		.4byte	.LASF38
 1375 049b 4B       		.byte	0x4b
 1376 049c 76000000 		.4byte	0x76
 1377 04a0 00000000 		.4byte	.LFB4
 1378 04a4 32000000 		.4byte	.LFE4-.LFB4
 1379 04a8 01       		.uleb128 0x1
 1380 04a9 9C       		.byte	0x9c
 1381 04aa 23050000 		.4byte	0x523
 1382 04ae 04       		.uleb128 0x4
 1383 04af 63616C00 		.ascii	"cal\000"
 1384 04b3 4B       		.byte	0x4b
 1385 04b4 34       		.byte	0x34
 1386 04b5 8E020000 		.4byte	0x28e
 1387 04b9 6C020000 		.4byte	.LLST14
 1388 04bd 60020000 		.4byte	.LVUS14
 1389 04c1 03       		.uleb128 0x3
 1390 04c2 37000000 		.4byte	.LASF24
 1391 04c6 4B       		.byte	0x4b
 1392 04c7 41       		.byte	0x41
 1393 04c8 84000000 		.4byte	0x84
 1394 04cc A1020000 		.4byte	.LLST15
 1395 04d0 99020000 		.4byte	.LVUS15
 1396 04d4 07       		.uleb128 0x7
 1397 04d5 21000000 		.4byte	.LASF35
 1398 04d9 4B       		.byte	0x4b
 1399 04da 54       		.byte	0x54
 1400 04db 93020000 		.4byte	0x293
 1401 04df 01       		.uleb128 0x1
 1402 04e0 52       		.byte	0x52
 1403 04e1 03       		.uleb128 0x3
 1404 04e2 73000000 		.4byte	.LASF36
 1405 04e6 4B       		.byte	0x4b
 1406 04e7 61       		.byte	0x61
 1407 04e8 8F040000 		.4byte	0x48f
 1408 04ec C9020000 		.4byte	.LLST16
 1409 04f0 C1020000 		.4byte	.LVUS16
 1410 04f4 09       		.uleb128 0x9
 1411 04f5 B5060000 		.4byte	0x6b5
 1412 04f9 04000000 		.4byte	.LBI23
 1413 04fd 01       		.byte	.LVU86
 1414 04fe 04000000 		.4byte	.LBB23
 1415 0502 0C000000 		.4byte	.LBE23-.LBB23
 1416 0506 50       		.byte	0x50
 1417 0507 01       		.uleb128 0x1
 1418 0508 CF060000 		.4byte	0x6cf
 1419 050c EB020000 		.4byte	.LLST17
 1420 0510 E9020000 		.4byte	.LVUS17
 1421 0514 01       		.uleb128 0x1
ARM GAS  C:\Users\DEVELO~1\AppData\Local\Temp\ccS7mMok.s 			page 26


 1422 0515 C4060000 		.4byte	0x6c4
 1423 0519 F6020000 		.4byte	.LLST18
 1424 051d F4020000 		.4byte	.LVUS18
 1425 0521 00       		.byte	0
 1426 0522 00       		.byte	0
 1427 0523 05       		.uleb128 0x5
 1428 0524 F6010000 		.4byte	.LASF39
 1429 0528 3E       		.byte	0x3e
 1430 0529 76000000 		.4byte	0x76
 1431 052d 00000000 		.4byte	.LFB3
 1432 0531 26000000 		.4byte	.LFE3-.LFB3
 1433 0535 01       		.uleb128 0x1
 1434 0536 9C       		.byte	0x9c
 1435 0537 9D050000 		.4byte	0x59d
 1436 053b 04       		.uleb128 0x4
 1437 053c 63616C00 		.ascii	"cal\000"
 1438 0540 3E       		.byte	0x3e
 1439 0541 34       		.byte	0x34
 1440 0542 8E020000 		.4byte	0x28e
 1441 0546 07030000 		.4byte	.LLST10
 1442 054a FF020000 		.4byte	.LVUS10
 1443 054e 03       		.uleb128 0x3
 1444 054f 37000000 		.4byte	.LASF24
 1445 0553 3E       		.byte	0x3e
 1446 0554 41       		.byte	0x41
 1447 0555 84000000 		.4byte	0x84
 1448 0559 2B030000 		.4byte	.LLST11
 1449 055d 27030000 		.4byte	.LVUS11
 1450 0561 07       		.uleb128 0x7
 1451 0562 6C000000 		.4byte	.LASF19
 1452 0566 3E       		.byte	0x3e
 1453 0567 53       		.byte	0x53
 1454 0568 9D050000 		.4byte	0x59d
 1455 056c 01       		.uleb128 0x1
 1456 056d 52       		.byte	0x52
 1457 056e 09       		.uleb128 0x9
 1458 056f B5060000 		.4byte	0x6b5
 1459 0573 0A000000 		.4byte	.LBI21
 1460 0577 01       		.byte	.LVU68
 1461 0578 0A000000 		.4byte	.LBB21
 1462 057c 0C000000 		.4byte	.LBE21-.LBB21
 1463 0580 43       		.byte	0x43
 1464 0581 01       		.uleb128 0x1
 1465 0582 CF060000 		.4byte	0x6cf
 1466 0586 40030000 		.4byte	.LLST12
 1467 058a 3E030000 		.4byte	.LVUS12
 1468 058e 01       		.uleb128 0x1
 1469 058f C4060000 		.4byte	0x6c4
 1470 0593 4B030000 		.4byte	.LLST13
 1471 0597 49030000 		.4byte	.LVUS13
 1472 059b 00       		.byte	0
 1473 059c 00       		.byte	0
 1474 059d 0E       		.uleb128 0xe
 1475 059e 84000000 		.4byte	0x84
 1476 05a2 05       		.uleb128 0x5
 1477 05a3 91010000 		.4byte	.LASF40
 1478 05a7 2A       		.byte	0x2a
ARM GAS  C:\Users\DEVELO~1\AppData\Local\Temp\ccS7mMok.s 			page 27


 1479 05a8 76000000 		.4byte	0x76
 1480 05ac 00000000 		.4byte	.LFB2
 1481 05b0 38000000 		.4byte	.LFE2-.LFB2
 1482 05b4 01       		.uleb128 0x1
 1483 05b5 9C       		.byte	0x9c
 1484 05b6 31060000 		.4byte	0x631
 1485 05ba 04       		.uleb128 0x4
 1486 05bb 63616C00 		.ascii	"cal\000"
 1487 05bf 2A       		.byte	0x2a
 1488 05c0 36       		.byte	0x36
 1489 05c1 8E020000 		.4byte	0x28e
 1490 05c5 60030000 		.4byte	.LLST5
 1491 05c9 54030000 		.4byte	.LVUS5
 1492 05cd 03       		.uleb128 0x3
 1493 05ce 5C000000 		.4byte	.LASF41
 1494 05d2 2A       		.byte	0x2a
 1495 05d3 43       		.byte	0x43
 1496 05d4 84000000 		.4byte	0x84
 1497 05d8 93030000 		.4byte	.LLST6
 1498 05dc 8D030000 		.4byte	.LVUS6
 1499 05e0 03       		.uleb128 0x3
 1500 05e1 93030000 		.4byte	.LASF15
 1501 05e5 2A       		.byte	0x2a
 1502 05e6 52       		.byte	0x52
 1503 05e7 84000000 		.4byte	0x84
 1504 05eb B1030000 		.4byte	.LLST7
 1505 05ef AB030000 		.4byte	.LVUS7
 1506 05f3 10       		.uleb128 0x10
 1507 05f4 656E6400 		.ascii	"end\000"
 1508 05f8 36       		.byte	0x36
 1509 05f9 0B       		.byte	0xb
 1510 05fa 84000000 		.4byte	0x84
 1511 05fe CF030000 		.4byte	.LLST8
 1512 0602 C9030000 		.4byte	.LVUS8
 1513 0606 24       		.uleb128 0x24
 1514 0607 16000000 		.4byte	.LBB20
 1515 060b 1A000000 		.4byte	.LBE20-.LBB20
 1516 060f 10       		.uleb128 0x10
 1517 0610 6900     		.ascii	"i\000"
 1518 0612 37       		.byte	0x37
 1519 0613 10       		.byte	0x10
 1520 0614 84000000 		.4byte	0x84
 1521 0618 FA030000 		.4byte	.LLST9
 1522 061c F6030000 		.4byte	.LVUS9
 1523 0620 19       		.uleb128 0x19
 1524 0621 30000000 		.4byte	.LVL17
 1525 0625 DB060000 		.4byte	0x6db
 1526 0629 0B       		.uleb128 0xb
 1527 062a 01       		.uleb128 0x1
 1528 062b 51       		.byte	0x51
 1529 062c 01       		.uleb128 0x1
 1530 062d 31       		.byte	0x31
 1531 062e 00       		.byte	0
 1532 062f 00       		.byte	0
 1533 0630 00       		.byte	0
 1534 0631 05       		.uleb128 0x5
 1535 0632 0E000000 		.4byte	.LASF43
ARM GAS  C:\Users\DEVELO~1\AppData\Local\Temp\ccS7mMok.s 			page 28


 1536 0636 12       		.byte	0x12
 1537 0637 76000000 		.4byte	0x76
 1538 063b 00000000 		.4byte	.LFB1
 1539 063f 64000000 		.4byte	.LFE1-.LFB1
 1540 0643 01       		.uleb128 0x1
 1541 0644 9C       		.byte	0x9c
 1542 0645 B5060000 		.4byte	0x6b5
 1543 0649 04       		.uleb128 0x4
 1544 064a 63616C00 		.ascii	"cal\000"
 1545 064e 12       		.byte	0x12
 1546 064f 2E       		.byte	0x2e
 1547 0650 8E020000 		.4byte	0x28e
 1548 0654 15040000 		.4byte	.LLST0
 1549 0658 0D040000 		.4byte	.LVUS0
 1550 065c 03       		.uleb128 0x3
 1551 065d 82030000 		.4byte	.LASF14
 1552 0661 12       		.byte	0x12
 1553 0662 3B       		.byte	0x3b
 1554 0663 84000000 		.4byte	0x84
 1555 0667 3C040000 		.4byte	.LLST1
 1556 066b 32040000 		.4byte	.LVUS1
 1557 066f 03       		.uleb128 0x3
 1558 0670 93030000 		.4byte	.LASF15
 1559 0674 12       		.byte	0x12
 1560 0675 4F       		.byte	0x4f
 1561 0676 84000000 		.4byte	0x84
 1562 067a 62040000 		.4byte	.LLST2
 1563 067e 5C040000 		.4byte	.LVUS2
 1564 0682 15       		.uleb128 0x15
 1565 0683 0C000000 		.4byte	.LLRL3
 1566 0687 10       		.uleb128 0x10
 1567 0688 6900     		.ascii	"i\000"
 1568 068a 1F       		.byte	0x1f
 1569 068b 10       		.byte	0x10
 1570 068c 84000000 		.4byte	0x84
 1571 0690 7C040000 		.4byte	.LLST4
 1572 0694 7A040000 		.4byte	.LVUS4
 1573 0698 19       		.uleb128 0x19
 1574 0699 44000000 		.4byte	.LVL6
 1575 069d DB060000 		.4byte	0x6db
 1576 06a1 0B       		.uleb128 0xb
 1577 06a2 01       		.uleb128 0x1
 1578 06a3 50       		.byte	0x50
 1579 06a4 02       		.uleb128 0x2
 1580 06a5 74       		.byte	0x74
 1581 06a6 24       		.sleb128 36
 1582 06a7 0B       		.uleb128 0xb
 1583 06a8 01       		.uleb128 0x1
 1584 06a9 51       		.byte	0x51
 1585 06aa 01       		.uleb128 0x1
 1586 06ab 30       		.byte	0x30
 1587 06ac 0B       		.uleb128 0xb
 1588 06ad 01       		.uleb128 0x1
 1589 06ae 52       		.byte	0x52
 1590 06af 02       		.uleb128 0x2
 1591 06b0 08       		.byte	0x8
 1592 06b1 40       		.byte	0x40
ARM GAS  C:\Users\DEVELO~1\AppData\Local\Temp\ccS7mMok.s 			page 29


 1593 06b2 00       		.byte	0
 1594 06b3 00       		.byte	0
 1595 06b4 00       		.byte	0
 1596 06b5 17       		.uleb128 0x17
 1597 06b6 DA010000 		.4byte	.LASF45
 1598 06ba 0A       		.byte	0xa
 1599 06bb 0D       		.byte	0xd
 1600 06bc 8F040000 		.4byte	0x48f
 1601 06c0 DB060000 		.4byte	0x6db
 1602 06c4 0F       		.uleb128 0xf
 1603 06c5 63616C00 		.ascii	"cal\000"
 1604 06c9 0A       		.byte	0xa
 1605 06ca 31       		.byte	0x31
 1606 06cb 8E020000 		.4byte	0x28e
 1607 06cf 08       		.uleb128 0x8
 1608 06d0 37000000 		.4byte	.LASF24
 1609 06d4 0A       		.byte	0xa
 1610 06d5 3E       		.byte	0x3e
 1611 06d6 84000000 		.4byte	0x84
 1612 06da 00       		.byte	0
 1613 06db 25       		.uleb128 0x25
 1614 06dc 12010000 		.4byte	.LASF50
 1615 06e0 C7000000 		.4byte	.LASF51
 1616 06e4 05       		.byte	0x5
 1617 06e5 00       		.byte	0
 1618 06e6 00       		.byte	0
 1619              		.section	.debug_abbrev,"",%progbits
 1620              	.Ldebug_abbrev0:
 1621 0000 01       		.uleb128 0x1
 1622 0001 05       		.uleb128 0x5
 1623 0002 00       		.byte	0
 1624 0003 31       		.uleb128 0x31
 1625 0004 13       		.uleb128 0x13
 1626 0005 02       		.uleb128 0x2
 1627 0006 17       		.uleb128 0x17
 1628 0007 B742     		.uleb128 0x2137
 1629 0009 17       		.uleb128 0x17
 1630 000a 00       		.byte	0
 1631 000b 00       		.byte	0
 1632 000c 02       		.uleb128 0x2
 1633 000d 24       		.uleb128 0x24
 1634 000e 00       		.byte	0
 1635 000f 0B       		.uleb128 0xb
 1636 0010 0B       		.uleb128 0xb
 1637 0011 3E       		.uleb128 0x3e
 1638 0012 0B       		.uleb128 0xb
 1639 0013 03       		.uleb128 0x3
 1640 0014 0E       		.uleb128 0xe
 1641 0015 00       		.byte	0
 1642 0016 00       		.byte	0
 1643 0017 03       		.uleb128 0x3
 1644 0018 05       		.uleb128 0x5
 1645 0019 00       		.byte	0
 1646 001a 03       		.uleb128 0x3
 1647 001b 0E       		.uleb128 0xe
 1648 001c 3A       		.uleb128 0x3a
 1649 001d 21       		.uleb128 0x21
ARM GAS  C:\Users\DEVELO~1\AppData\Local\Temp\ccS7mMok.s 			page 30


 1650 001e 01       		.sleb128 1
 1651 001f 3B       		.uleb128 0x3b
 1652 0020 0B       		.uleb128 0xb
 1653 0021 39       		.uleb128 0x39
 1654 0022 0B       		.uleb128 0xb
 1655 0023 49       		.uleb128 0x49
 1656 0024 13       		.uleb128 0x13
 1657 0025 02       		.uleb128 0x2
 1658 0026 17       		.uleb128 0x17
 1659 0027 B742     		.uleb128 0x2137
 1660 0029 17       		.uleb128 0x17
 1661 002a 00       		.byte	0
 1662 002b 00       		.byte	0
 1663 002c 04       		.uleb128 0x4
 1664 002d 05       		.uleb128 0x5
 1665 002e 00       		.byte	0
 1666 002f 03       		.uleb128 0x3
 1667 0030 08       		.uleb128 0x8
 1668 0031 3A       		.uleb128 0x3a
 1669 0032 21       		.uleb128 0x21
 1670 0033 01       		.sleb128 1
 1671 0034 3B       		.uleb128 0x3b
 1672 0035 0B       		.uleb128 0xb
 1673 0036 39       		.uleb128 0x39
 1674 0037 0B       		.uleb128 0xb
 1675 0038 49       		.uleb128 0x49
 1676 0039 13       		.uleb128 0x13
 1677 003a 02       		.uleb128 0x2
 1678 003b 17       		.uleb128 0x17
 1679 003c B742     		.uleb128 0x2137
 1680 003e 17       		.uleb128 0x17
 1681 003f 00       		.byte	0
 1682 0040 00       		.byte	0
 1683 0041 05       		.uleb128 0x5
 1684 0042 2E       		.uleb128 0x2e
 1685 0043 01       		.byte	0x1
 1686 0044 3F       		.uleb128 0x3f
 1687 0045 19       		.uleb128 0x19
 1688 0046 03       		.uleb128 0x3
 1689 0047 0E       		.uleb128 0xe
 1690 0048 3A       		.uleb128 0x3a
 1691 0049 21       		.uleb128 0x21
 1692 004a 01       		.sleb128 1
 1693 004b 3B       		.uleb128 0x3b
 1694 004c 0B       		.uleb128 0xb
 1695 004d 39       		.uleb128 0x39
 1696 004e 21       		.uleb128 0x21
 1697 004f 05       		.sleb128 5
 1698 0050 27       		.uleb128 0x27
 1699 0051 19       		.uleb128 0x19
 1700 0052 49       		.uleb128 0x49
 1701 0053 13       		.uleb128 0x13
 1702 0054 11       		.uleb128 0x11
 1703 0055 01       		.uleb128 0x1
 1704 0056 12       		.uleb128 0x12
 1705 0057 06       		.uleb128 0x6
 1706 0058 40       		.uleb128 0x40
ARM GAS  C:\Users\DEVELO~1\AppData\Local\Temp\ccS7mMok.s 			page 31


 1707 0059 18       		.uleb128 0x18
 1708 005a 7A       		.uleb128 0x7a
 1709 005b 19       		.uleb128 0x19
 1710 005c 01       		.uleb128 0x1
 1711 005d 13       		.uleb128 0x13
 1712 005e 00       		.byte	0
 1713 005f 00       		.byte	0
 1714 0060 06       		.uleb128 0x6
 1715 0061 0D       		.uleb128 0xd
 1716 0062 00       		.byte	0
 1717 0063 03       		.uleb128 0x3
 1718 0064 0E       		.uleb128 0xe
 1719 0065 3A       		.uleb128 0x3a
 1720 0066 21       		.uleb128 0x21
 1721 0067 04       		.sleb128 4
 1722 0068 3B       		.uleb128 0x3b
 1723 0069 0B       		.uleb128 0xb
 1724 006a 39       		.uleb128 0x39
 1725 006b 0B       		.uleb128 0xb
 1726 006c 49       		.uleb128 0x49
 1727 006d 13       		.uleb128 0x13
 1728 006e 38       		.uleb128 0x38
 1729 006f 0B       		.uleb128 0xb
 1730 0070 00       		.byte	0
 1731 0071 00       		.byte	0
 1732 0072 07       		.uleb128 0x7
 1733 0073 05       		.uleb128 0x5
 1734 0074 00       		.byte	0
 1735 0075 03       		.uleb128 0x3
 1736 0076 0E       		.uleb128 0xe
 1737 0077 3A       		.uleb128 0x3a
 1738 0078 21       		.uleb128 0x21
 1739 0079 01       		.sleb128 1
 1740 007a 3B       		.uleb128 0x3b
 1741 007b 0B       		.uleb128 0xb
 1742 007c 39       		.uleb128 0x39
 1743 007d 0B       		.uleb128 0xb
 1744 007e 49       		.uleb128 0x49
 1745 007f 13       		.uleb128 0x13
 1746 0080 02       		.uleb128 0x2
 1747 0081 18       		.uleb128 0x18
 1748 0082 00       		.byte	0
 1749 0083 00       		.byte	0
 1750 0084 08       		.uleb128 0x8
 1751 0085 05       		.uleb128 0x5
 1752 0086 00       		.byte	0
 1753 0087 03       		.uleb128 0x3
 1754 0088 0E       		.uleb128 0xe
 1755 0089 3A       		.uleb128 0x3a
 1756 008a 21       		.uleb128 0x21
 1757 008b 01       		.sleb128 1
 1758 008c 3B       		.uleb128 0x3b
 1759 008d 0B       		.uleb128 0xb
 1760 008e 39       		.uleb128 0x39
 1761 008f 0B       		.uleb128 0xb
 1762 0090 49       		.uleb128 0x49
 1763 0091 13       		.uleb128 0x13
ARM GAS  C:\Users\DEVELO~1\AppData\Local\Temp\ccS7mMok.s 			page 32


 1764 0092 00       		.byte	0
 1765 0093 00       		.byte	0
 1766 0094 09       		.uleb128 0x9
 1767 0095 1D       		.uleb128 0x1d
 1768 0096 01       		.byte	0x1
 1769 0097 31       		.uleb128 0x31
 1770 0098 13       		.uleb128 0x13
 1771 0099 52       		.uleb128 0x52
 1772 009a 01       		.uleb128 0x1
 1773 009b B842     		.uleb128 0x2138
 1774 009d 0B       		.uleb128 0xb
 1775 009e 11       		.uleb128 0x11
 1776 009f 01       		.uleb128 0x1
 1777 00a0 12       		.uleb128 0x12
 1778 00a1 06       		.uleb128 0x6
 1779 00a2 58       		.uleb128 0x58
 1780 00a3 21       		.uleb128 0x21
 1781 00a4 01       		.sleb128 1
 1782 00a5 59       		.uleb128 0x59
 1783 00a6 0B       		.uleb128 0xb
 1784 00a7 57       		.uleb128 0x57
 1785 00a8 21       		.uleb128 0x21
 1786 00a9 08       		.sleb128 8
 1787 00aa 00       		.byte	0
 1788 00ab 00       		.byte	0
 1789 00ac 0A       		.uleb128 0xa
 1790 00ad 16       		.uleb128 0x16
 1791 00ae 00       		.byte	0
 1792 00af 03       		.uleb128 0x3
 1793 00b0 0E       		.uleb128 0xe
 1794 00b1 3A       		.uleb128 0x3a
 1795 00b2 0B       		.uleb128 0xb
 1796 00b3 3B       		.uleb128 0x3b
 1797 00b4 0B       		.uleb128 0xb
 1798 00b5 39       		.uleb128 0x39
 1799 00b6 0B       		.uleb128 0xb
 1800 00b7 49       		.uleb128 0x49
 1801 00b8 13       		.uleb128 0x13
 1802 00b9 00       		.byte	0
 1803 00ba 00       		.byte	0
 1804 00bb 0B       		.uleb128 0xb
 1805 00bc 49       		.uleb128 0x49
 1806 00bd 00       		.byte	0
 1807 00be 02       		.uleb128 0x2
 1808 00bf 18       		.uleb128 0x18
 1809 00c0 7E       		.uleb128 0x7e
 1810 00c1 18       		.uleb128 0x18
 1811 00c2 00       		.byte	0
 1812 00c3 00       		.byte	0
 1813 00c4 0C       		.uleb128 0xc
 1814 00c5 34       		.uleb128 0x34
 1815 00c6 00       		.byte	0
 1816 00c7 03       		.uleb128 0x3
 1817 00c8 0E       		.uleb128 0xe
 1818 00c9 3A       		.uleb128 0x3a
 1819 00ca 21       		.uleb128 0x21
 1820 00cb 01       		.sleb128 1
ARM GAS  C:\Users\DEVELO~1\AppData\Local\Temp\ccS7mMok.s 			page 33


 1821 00cc 3B       		.uleb128 0x3b
 1822 00cd 0B       		.uleb128 0xb
 1823 00ce 39       		.uleb128 0x39
 1824 00cf 21       		.uleb128 0x21
 1825 00d0 0C       		.sleb128 12
 1826 00d1 49       		.uleb128 0x49
 1827 00d2 13       		.uleb128 0x13
 1828 00d3 00       		.byte	0
 1829 00d4 00       		.byte	0
 1830 00d5 0D       		.uleb128 0xd
 1831 00d6 05       		.uleb128 0x5
 1832 00d7 00       		.byte	0
 1833 00d8 31       		.uleb128 0x31
 1834 00d9 13       		.uleb128 0x13
 1835 00da 00       		.byte	0
 1836 00db 00       		.byte	0
 1837 00dc 0E       		.uleb128 0xe
 1838 00dd 0F       		.uleb128 0xf
 1839 00de 00       		.byte	0
 1840 00df 0B       		.uleb128 0xb
 1841 00e0 21       		.uleb128 0x21
 1842 00e1 04       		.sleb128 4
 1843 00e2 49       		.uleb128 0x49
 1844 00e3 13       		.uleb128 0x13
 1845 00e4 00       		.byte	0
 1846 00e5 00       		.byte	0
 1847 00e6 0F       		.uleb128 0xf
 1848 00e7 05       		.uleb128 0x5
 1849 00e8 00       		.byte	0
 1850 00e9 03       		.uleb128 0x3
 1851 00ea 08       		.uleb128 0x8
 1852 00eb 3A       		.uleb128 0x3a
 1853 00ec 21       		.uleb128 0x21
 1854 00ed 01       		.sleb128 1
 1855 00ee 3B       		.uleb128 0x3b
 1856 00ef 0B       		.uleb128 0xb
 1857 00f0 39       		.uleb128 0x39
 1858 00f1 0B       		.uleb128 0xb
 1859 00f2 49       		.uleb128 0x49
 1860 00f3 13       		.uleb128 0x13
 1861 00f4 00       		.byte	0
 1862 00f5 00       		.byte	0
 1863 00f6 10       		.uleb128 0x10
 1864 00f7 34       		.uleb128 0x34
 1865 00f8 00       		.byte	0
 1866 00f9 03       		.uleb128 0x3
 1867 00fa 08       		.uleb128 0x8
 1868 00fb 3A       		.uleb128 0x3a
 1869 00fc 21       		.uleb128 0x21
 1870 00fd 01       		.sleb128 1
 1871 00fe 3B       		.uleb128 0x3b
 1872 00ff 0B       		.uleb128 0xb
 1873 0100 39       		.uleb128 0x39
 1874 0101 0B       		.uleb128 0xb
 1875 0102 49       		.uleb128 0x49
 1876 0103 13       		.uleb128 0x13
 1877 0104 02       		.uleb128 0x2
ARM GAS  C:\Users\DEVELO~1\AppData\Local\Temp\ccS7mMok.s 			page 34


 1878 0105 17       		.uleb128 0x17
 1879 0106 B742     		.uleb128 0x2137
 1880 0108 17       		.uleb128 0x17
 1881 0109 00       		.byte	0
 1882 010a 00       		.byte	0
 1883 010b 11       		.uleb128 0x11
 1884 010c 13       		.uleb128 0x13
 1885 010d 01       		.byte	0x1
 1886 010e 03       		.uleb128 0x3
 1887 010f 0E       		.uleb128 0xe
 1888 0110 0B       		.uleb128 0xb
 1889 0111 0B       		.uleb128 0xb
 1890 0112 3A       		.uleb128 0x3a
 1891 0113 21       		.uleb128 0x21
 1892 0114 04       		.sleb128 4
 1893 0115 3B       		.uleb128 0x3b
 1894 0116 0B       		.uleb128 0xb
 1895 0117 39       		.uleb128 0x39
 1896 0118 21       		.uleb128 0x21
 1897 0119 08       		.sleb128 8
 1898 011a 01       		.uleb128 0x1
 1899 011b 13       		.uleb128 0x13
 1900 011c 00       		.byte	0
 1901 011d 00       		.byte	0
 1902 011e 12       		.uleb128 0x12
 1903 011f 0D       		.uleb128 0xd
 1904 0120 00       		.byte	0
 1905 0121 03       		.uleb128 0x3
 1906 0122 08       		.uleb128 0x8
 1907 0123 3A       		.uleb128 0x3a
 1908 0124 21       		.uleb128 0x21
 1909 0125 04       		.sleb128 4
 1910 0126 3B       		.uleb128 0x3b
 1911 0127 0B       		.uleb128 0xb
 1912 0128 39       		.uleb128 0x39
 1913 0129 21       		.uleb128 0x21
 1914 012a 0C       		.sleb128 12
 1915 012b 49       		.uleb128 0x49
 1916 012c 13       		.uleb128 0x13
 1917 012d 38       		.uleb128 0x38
 1918 012e 0B       		.uleb128 0xb
 1919 012f 00       		.byte	0
 1920 0130 00       		.byte	0
 1921 0131 13       		.uleb128 0x13
 1922 0132 01       		.uleb128 0x1
 1923 0133 01       		.byte	0x1
 1924 0134 49       		.uleb128 0x49
 1925 0135 13       		.uleb128 0x13
 1926 0136 01       		.uleb128 0x1
 1927 0137 13       		.uleb128 0x13
 1928 0138 00       		.byte	0
 1929 0139 00       		.byte	0
 1930 013a 14       		.uleb128 0x14
 1931 013b 21       		.uleb128 0x21
 1932 013c 00       		.byte	0
 1933 013d 49       		.uleb128 0x49
 1934 013e 13       		.uleb128 0x13
ARM GAS  C:\Users\DEVELO~1\AppData\Local\Temp\ccS7mMok.s 			page 35


 1935 013f 2F       		.uleb128 0x2f
 1936 0140 21       		.uleb128 0x21
 1937 0141 0F       		.sleb128 15
 1938 0142 00       		.byte	0
 1939 0143 00       		.byte	0
 1940 0144 15       		.uleb128 0x15
 1941 0145 0B       		.uleb128 0xb
 1942 0146 01       		.byte	0x1
 1943 0147 55       		.uleb128 0x55
 1944 0148 17       		.uleb128 0x17
 1945 0149 00       		.byte	0
 1946 014a 00       		.byte	0
 1947 014b 16       		.uleb128 0x16
 1948 014c 34       		.uleb128 0x34
 1949 014d 00       		.byte	0
 1950 014e 31       		.uleb128 0x31
 1951 014f 13       		.uleb128 0x13
 1952 0150 02       		.uleb128 0x2
 1953 0151 17       		.uleb128 0x17
 1954 0152 B742     		.uleb128 0x2137
 1955 0154 17       		.uleb128 0x17
 1956 0155 00       		.byte	0
 1957 0156 00       		.byte	0
 1958 0157 17       		.uleb128 0x17
 1959 0158 2E       		.uleb128 0x2e
 1960 0159 01       		.byte	0x1
 1961 015a 03       		.uleb128 0x3
 1962 015b 0E       		.uleb128 0xe
 1963 015c 3A       		.uleb128 0x3a
 1964 015d 21       		.uleb128 0x21
 1965 015e 01       		.sleb128 1
 1966 015f 3B       		.uleb128 0x3b
 1967 0160 0B       		.uleb128 0xb
 1968 0161 39       		.uleb128 0x39
 1969 0162 0B       		.uleb128 0xb
 1970 0163 27       		.uleb128 0x27
 1971 0164 19       		.uleb128 0x19
 1972 0165 49       		.uleb128 0x49
 1973 0166 13       		.uleb128 0x13
 1974 0167 20       		.uleb128 0x20
 1975 0168 21       		.uleb128 0x21
 1976 0169 01       		.sleb128 1
 1977 016a 01       		.uleb128 0x1
 1978 016b 13       		.uleb128 0x13
 1979 016c 00       		.byte	0
 1980 016d 00       		.byte	0
 1981 016e 18       		.uleb128 0x18
 1982 016f 34       		.uleb128 0x34
 1983 0170 00       		.byte	0
 1984 0171 03       		.uleb128 0x3
 1985 0172 08       		.uleb128 0x8
 1986 0173 3A       		.uleb128 0x3a
 1987 0174 21       		.uleb128 0x21
 1988 0175 01       		.sleb128 1
 1989 0176 3B       		.uleb128 0x3b
 1990 0177 0B       		.uleb128 0xb
 1991 0178 39       		.uleb128 0x39
ARM GAS  C:\Users\DEVELO~1\AppData\Local\Temp\ccS7mMok.s 			page 36


 1992 0179 21       		.uleb128 0x21
 1993 017a 0C       		.sleb128 12
 1994 017b 49       		.uleb128 0x49
 1995 017c 13       		.uleb128 0x13
 1996 017d 00       		.byte	0
 1997 017e 00       		.byte	0
 1998 017f 19       		.uleb128 0x19
 1999 0180 48       		.uleb128 0x48
 2000 0181 01       		.byte	0x1
 2001 0182 7D       		.uleb128 0x7d
 2002 0183 01       		.uleb128 0x1
 2003 0184 7F       		.uleb128 0x7f
 2004 0185 13       		.uleb128 0x13
 2005 0186 00       		.byte	0
 2006 0187 00       		.byte	0
 2007 0188 1A       		.uleb128 0x1a
 2008 0189 11       		.uleb128 0x11
 2009 018a 01       		.byte	0x1
 2010 018b 25       		.uleb128 0x25
 2011 018c 0E       		.uleb128 0xe
 2012 018d 13       		.uleb128 0x13
 2013 018e 0B       		.uleb128 0xb
 2014 018f 03       		.uleb128 0x3
 2015 0190 0E       		.uleb128 0xe
 2016 0191 1B       		.uleb128 0x1b
 2017 0192 0E       		.uleb128 0xe
 2018 0193 55       		.uleb128 0x55
 2019 0194 17       		.uleb128 0x17
 2020 0195 11       		.uleb128 0x11
 2021 0196 01       		.uleb128 0x1
 2022 0197 10       		.uleb128 0x10
 2023 0198 17       		.uleb128 0x17
 2024 0199 00       		.byte	0
 2025 019a 00       		.byte	0
 2026 019b 1B       		.uleb128 0x1b
 2027 019c 24       		.uleb128 0x24
 2028 019d 00       		.byte	0
 2029 019e 0B       		.uleb128 0xb
 2030 019f 0B       		.uleb128 0xb
 2031 01a0 3E       		.uleb128 0x3e
 2032 01a1 0B       		.uleb128 0xb
 2033 01a2 03       		.uleb128 0x3
 2034 01a3 08       		.uleb128 0x8
 2035 01a4 00       		.byte	0
 2036 01a5 00       		.byte	0
 2037 01a6 1C       		.uleb128 0x1c
 2038 01a7 34       		.uleb128 0x34
 2039 01a8 00       		.byte	0
 2040 01a9 03       		.uleb128 0x3
 2041 01aa 0E       		.uleb128 0xe
 2042 01ab 3A       		.uleb128 0x3a
 2043 01ac 0B       		.uleb128 0xb
 2044 01ad 3B       		.uleb128 0x3b
 2045 01ae 0B       		.uleb128 0xb
 2046 01af 39       		.uleb128 0x39
 2047 01b0 0B       		.uleb128 0xb
 2048 01b1 49       		.uleb128 0x49
ARM GAS  C:\Users\DEVELO~1\AppData\Local\Temp\ccS7mMok.s 			page 37


 2049 01b2 13       		.uleb128 0x13
 2050 01b3 3F       		.uleb128 0x3f
 2051 01b4 19       		.uleb128 0x19
 2052 01b5 3C       		.uleb128 0x3c
 2053 01b6 19       		.uleb128 0x19
 2054 01b7 00       		.byte	0
 2055 01b8 00       		.byte	0
 2056 01b9 1D       		.uleb128 0x1d
 2057 01ba 34       		.uleb128 0x34
 2058 01bb 00       		.byte	0
 2059 01bc 47       		.uleb128 0x47
 2060 01bd 13       		.uleb128 0x13
 2061 01be 3A       		.uleb128 0x3a
 2062 01bf 0B       		.uleb128 0xb
 2063 01c0 3B       		.uleb128 0x3b
 2064 01c1 0B       		.uleb128 0xb
 2065 01c2 39       		.uleb128 0x39
 2066 01c3 0B       		.uleb128 0xb
 2067 01c4 02       		.uleb128 0x2
 2068 01c5 18       		.uleb128 0x18
 2069 01c6 00       		.byte	0
 2070 01c7 00       		.byte	0
 2071 01c8 1E       		.uleb128 0x1e
 2072 01c9 05       		.uleb128 0x5
 2073 01ca 00       		.byte	0
 2074 01cb 03       		.uleb128 0x3
 2075 01cc 08       		.uleb128 0x8
 2076 01cd 3A       		.uleb128 0x3a
 2077 01ce 0B       		.uleb128 0xb
 2078 01cf 3B       		.uleb128 0x3b
 2079 01d0 0B       		.uleb128 0xb
 2080 01d1 39       		.uleb128 0x39
 2081 01d2 0B       		.uleb128 0xb
 2082 01d3 49       		.uleb128 0x49
 2083 01d4 13       		.uleb128 0x13
 2084 01d5 02       		.uleb128 0x2
 2085 01d6 18       		.uleb128 0x18
 2086 01d7 00       		.byte	0
 2087 01d8 00       		.byte	0
 2088 01d9 1F       		.uleb128 0x1f
 2089 01da 1D       		.uleb128 0x1d
 2090 01db 01       		.byte	0x1
 2091 01dc 31       		.uleb128 0x31
 2092 01dd 13       		.uleb128 0x13
 2093 01de 52       		.uleb128 0x52
 2094 01df 01       		.uleb128 0x1
 2095 01e0 B842     		.uleb128 0x2138
 2096 01e2 0B       		.uleb128 0xb
 2097 01e3 55       		.uleb128 0x55
 2098 01e4 17       		.uleb128 0x17
 2099 01e5 58       		.uleb128 0x58
 2100 01e6 0B       		.uleb128 0xb
 2101 01e7 59       		.uleb128 0x59
 2102 01e8 0B       		.uleb128 0xb
 2103 01e9 57       		.uleb128 0x57
 2104 01ea 0B       		.uleb128 0xb
 2105 01eb 01       		.uleb128 0x1
ARM GAS  C:\Users\DEVELO~1\AppData\Local\Temp\ccS7mMok.s 			page 38


 2106 01ec 13       		.uleb128 0x13
 2107 01ed 00       		.byte	0
 2108 01ee 00       		.byte	0
 2109 01ef 20       		.uleb128 0x20
 2110 01f0 1D       		.uleb128 0x1d
 2111 01f1 01       		.byte	0x1
 2112 01f2 31       		.uleb128 0x31
 2113 01f3 13       		.uleb128 0x13
 2114 01f4 52       		.uleb128 0x52
 2115 01f5 01       		.uleb128 0x1
 2116 01f6 B842     		.uleb128 0x2138
 2117 01f8 0B       		.uleb128 0xb
 2118 01f9 11       		.uleb128 0x11
 2119 01fa 01       		.uleb128 0x1
 2120 01fb 12       		.uleb128 0x12
 2121 01fc 06       		.uleb128 0x6
 2122 01fd 58       		.uleb128 0x58
 2123 01fe 0B       		.uleb128 0xb
 2124 01ff 59       		.uleb128 0x59
 2125 0200 0B       		.uleb128 0xb
 2126 0201 57       		.uleb128 0x57
 2127 0202 0B       		.uleb128 0xb
 2128 0203 01       		.uleb128 0x1
 2129 0204 13       		.uleb128 0x13
 2130 0205 00       		.byte	0
 2131 0206 00       		.byte	0
 2132 0207 21       		.uleb128 0x21
 2133 0208 1D       		.uleb128 0x1d
 2134 0209 01       		.byte	0x1
 2135 020a 31       		.uleb128 0x31
 2136 020b 13       		.uleb128 0x13
 2137 020c 52       		.uleb128 0x52
 2138 020d 01       		.uleb128 0x1
 2139 020e B842     		.uleb128 0x2138
 2140 0210 0B       		.uleb128 0xb
 2141 0211 55       		.uleb128 0x55
 2142 0212 17       		.uleb128 0x17
 2143 0213 58       		.uleb128 0x58
 2144 0214 0B       		.uleb128 0xb
 2145 0215 59       		.uleb128 0x59
 2146 0216 0B       		.uleb128 0xb
 2147 0217 57       		.uleb128 0x57
 2148 0218 0B       		.uleb128 0xb
 2149 0219 00       		.byte	0
 2150 021a 00       		.byte	0
 2151 021b 22       		.uleb128 0x22
 2152 021c 34       		.uleb128 0x34
 2153 021d 00       		.byte	0
 2154 021e 31       		.uleb128 0x31
 2155 021f 13       		.uleb128 0x13
 2156 0220 00       		.byte	0
 2157 0221 00       		.byte	0
 2158 0222 23       		.uleb128 0x23
 2159 0223 2E       		.uleb128 0x2e
 2160 0224 01       		.byte	0x1
 2161 0225 03       		.uleb128 0x3
 2162 0226 0E       		.uleb128 0xe
ARM GAS  C:\Users\DEVELO~1\AppData\Local\Temp\ccS7mMok.s 			page 39


 2163 0227 3A       		.uleb128 0x3a
 2164 0228 0B       		.uleb128 0xb
 2165 0229 3B       		.uleb128 0x3b
 2166 022a 0B       		.uleb128 0xb
 2167 022b 39       		.uleb128 0x39
 2168 022c 0B       		.uleb128 0xb
 2169 022d 27       		.uleb128 0x27
 2170 022e 19       		.uleb128 0x19
 2171 022f 20       		.uleb128 0x20
 2172 0230 0B       		.uleb128 0xb
 2173 0231 01       		.uleb128 0x1
 2174 0232 13       		.uleb128 0x13
 2175 0233 00       		.byte	0
 2176 0234 00       		.byte	0
 2177 0235 24       		.uleb128 0x24
 2178 0236 0B       		.uleb128 0xb
 2179 0237 01       		.byte	0x1
 2180 0238 11       		.uleb128 0x11
 2181 0239 01       		.uleb128 0x1
 2182 023a 12       		.uleb128 0x12
 2183 023b 06       		.uleb128 0x6
 2184 023c 00       		.byte	0
 2185 023d 00       		.byte	0
 2186 023e 25       		.uleb128 0x25
 2187 023f 2E       		.uleb128 0x2e
 2188 0240 00       		.byte	0
 2189 0241 3F       		.uleb128 0x3f
 2190 0242 19       		.uleb128 0x19
 2191 0243 3C       		.uleb128 0x3c
 2192 0244 19       		.uleb128 0x19
 2193 0245 6E       		.uleb128 0x6e
 2194 0246 0E       		.uleb128 0xe
 2195 0247 03       		.uleb128 0x3
 2196 0248 0E       		.uleb128 0xe
 2197 0249 3A       		.uleb128 0x3a
 2198 024a 0B       		.uleb128 0xb
 2199 024b 3B       		.uleb128 0x3b
 2200 024c 0B       		.uleb128 0xb
 2201 024d 00       		.byte	0
 2202 024e 00       		.byte	0
 2203 024f 00       		.byte	0
 2204              		.section	.debug_loclists,"",%progbits
 2205 0000 82040000 		.4byte	.Ldebug_loc3-.Ldebug_loc2
 2206              	.Ldebug_loc2:
 2207 0004 0500     		.2byte	0x5
 2208 0006 04       		.byte	0x4
 2209 0007 00       		.byte	0
 2210 0008 00000000 		.4byte	0
 2211              	.Ldebug_loc0:
 2212              	.LVUS31:
 2213 000c 00       		.uleb128 0
 2214 000d 00       		.uleb128 .LVU183
 2215 000e 00       		.uleb128 .LVU183
 2216 000f 00       		.uleb128 .LVU184
 2217 0010 00       		.uleb128 .LVU184
 2218 0011 00       		.uleb128 .LVU196
 2219 0012 00       		.uleb128 .LVU196
ARM GAS  C:\Users\DEVELO~1\AppData\Local\Temp\ccS7mMok.s 			page 40


 2220 0013 00       		.uleb128 .LVU226
 2221 0014 00       		.uleb128 .LVU226
 2222 0015 00       		.uleb128 .LVU227
 2223 0016 00       		.uleb128 .LVU227
 2224 0017 00       		.uleb128 .LVU234
 2225 0018 00       		.uleb128 .LVU234
 2226 0019 00       		.uleb128 .LVU236
 2227 001a 00       		.uleb128 .LVU236
 2228 001b 00       		.uleb128 0
 2229              	.LLST31:
 2230 001c 06       		.byte	0x6
 2231 001d 00000000 		.4byte	.LVL64
 2232 0021 04       		.byte	0x4
 2233 0022 00       		.uleb128 .LVL64-.LVL64
 2234 0023 12       		.uleb128 .LVL66-.LVL64
 2235 0024 01       		.uleb128 0x1
 2236 0025 50       		.byte	0x50
 2237 0026 04       		.byte	0x4
 2238 0027 12       		.uleb128 .LVL66-.LVL64
 2239 0028 14       		.uleb128 .LVL67-.LVL64
 2240 0029 04       		.uleb128 0x4
 2241 002a A3       		.byte	0xa3
 2242 002b 01       		.uleb128 0x1
 2243 002c 50       		.byte	0x50
 2244 002d 9F       		.byte	0x9f
 2245 002e 04       		.byte	0x4
 2246 002f 14       		.uleb128 .LVL67-.LVL64
 2247 0030 2E       		.uleb128 .LVL70-.LVL64
 2248 0031 01       		.uleb128 0x1
 2249 0032 50       		.byte	0x50
 2250 0033 04       		.byte	0x4
 2251 0034 2E       		.uleb128 .LVL70-.LVL64
 2252 0035 64       		.uleb128 .LVL76-.LVL64
 2253 0036 04       		.uleb128 0x4
 2254 0037 A3       		.byte	0xa3
 2255 0038 01       		.uleb128 0x1
 2256 0039 50       		.byte	0x50
 2257 003a 9F       		.byte	0x9f
 2258 003b 04       		.byte	0x4
 2259 003c 64       		.uleb128 .LVL76-.LVL64
 2260 003d 66       		.uleb128 .LVL77-.LVL64
 2261 003e 01       		.uleb128 0x1
 2262 003f 50       		.byte	0x50
 2263 0040 04       		.byte	0x4
 2264 0041 66       		.uleb128 .LVL77-.LVL64
 2265 0042 72       		.uleb128 .LVL79-.LVL64
 2266 0043 04       		.uleb128 0x4
 2267 0044 A3       		.byte	0xa3
 2268 0045 01       		.uleb128 0x1
 2269 0046 50       		.byte	0x50
 2270 0047 9F       		.byte	0x9f
 2271 0048 04       		.byte	0x4
 2272 0049 72       		.uleb128 .LVL79-.LVL64
 2273 004a 74       		.uleb128 .LVL80-.LVL64
 2274 004b 01       		.uleb128 0x1
 2275 004c 50       		.byte	0x50
 2276 004d 04       		.byte	0x4
ARM GAS  C:\Users\DEVELO~1\AppData\Local\Temp\ccS7mMok.s 			page 41


 2277 004e 74       		.uleb128 .LVL80-.LVL64
 2278 004f A401     		.uleb128 .LFE10-.LVL64
 2279 0051 04       		.uleb128 0x4
 2280 0052 A3       		.byte	0xa3
 2281 0053 01       		.uleb128 0x1
 2282 0054 50       		.byte	0x50
 2283 0055 9F       		.byte	0x9f
 2284 0056 00       		.byte	0
 2285              	.LVUS32:
 2286 0057 00       		.uleb128 0
 2287 0058 00       		.uleb128 .LVU194
 2288 0059 00       		.uleb128 .LVU194
 2289 005a 00       		.uleb128 .LVU226
 2290 005b 00       		.uleb128 .LVU226
 2291 005c 00       		.uleb128 .LVU228
 2292 005d 00       		.uleb128 .LVU228
 2293 005e 00       		.uleb128 .LVU234
 2294 005f 00       		.uleb128 .LVU234
 2295 0060 00       		.uleb128 .LVU239
 2296 0061 00       		.uleb128 .LVU239
 2297 0062 00       		.uleb128 0
 2298              	.LLST32:
 2299 0063 06       		.byte	0x6
 2300 0064 00000000 		.4byte	.LVL64
 2301 0068 04       		.byte	0x4
 2302 0069 00       		.uleb128 .LVL64-.LVL64
 2303 006a 2A       		.uleb128 .LVL69-.LVL64
 2304 006b 01       		.uleb128 0x1
 2305 006c 51       		.byte	0x51
 2306 006d 04       		.byte	0x4
 2307 006e 2A       		.uleb128 .LVL69-.LVL64
 2308 006f 64       		.uleb128 .LVL76-.LVL64
 2309 0070 04       		.uleb128 0x4
 2310 0071 A3       		.byte	0xa3
 2311 0072 01       		.uleb128 0x1
 2312 0073 51       		.byte	0x51
 2313 0074 9F       		.byte	0x9f
 2314 0075 04       		.byte	0x4
 2315 0076 64       		.uleb128 .LVL76-.LVL64
 2316 0077 68       		.uleb128 .LVL78-.LVL64
 2317 0078 01       		.uleb128 0x1
 2318 0079 51       		.byte	0x51
 2319 007a 04       		.byte	0x4
 2320 007b 68       		.uleb128 .LVL78-.LVL64
 2321 007c 72       		.uleb128 .LVL79-.LVL64
 2322 007d 04       		.uleb128 0x4
 2323 007e A3       		.byte	0xa3
 2324 007f 01       		.uleb128 0x1
 2325 0080 51       		.byte	0x51
 2326 0081 9F       		.byte	0x9f
 2327 0082 04       		.byte	0x4
 2328 0083 72       		.uleb128 .LVL79-.LVL64
 2329 0084 78       		.uleb128 .LVL81-.LVL64
 2330 0085 01       		.uleb128 0x1
 2331 0086 51       		.byte	0x51
 2332 0087 04       		.byte	0x4
 2333 0088 78       		.uleb128 .LVL81-.LVL64
ARM GAS  C:\Users\DEVELO~1\AppData\Local\Temp\ccS7mMok.s 			page 42


 2334 0089 A401     		.uleb128 .LFE10-.LVL64
 2335 008b 04       		.uleb128 0x4
 2336 008c A3       		.byte	0xa3
 2337 008d 01       		.uleb128 0x1
 2338 008e 51       		.byte	0x51
 2339 008f 9F       		.byte	0x9f
 2340 0090 00       		.byte	0
 2341              	.LVUS33:
 2342 0091 00       		.uleb128 0
 2343 0092 00       		.uleb128 .LVU191
 2344 0093 00       		.uleb128 .LVU191
 2345 0094 00       		.uleb128 0
 2346              	.LLST33:
 2347 0095 06       		.byte	0x6
 2348 0096 00000000 		.4byte	.LVL64
 2349 009a 04       		.byte	0x4
 2350 009b 00       		.uleb128 .LVL64-.LVL64
 2351 009c 24       		.uleb128 .LVL68-.LVL64
 2352 009d 01       		.uleb128 0x1
 2353 009e 52       		.byte	0x52
 2354 009f 04       		.byte	0x4
 2355 00a0 24       		.uleb128 .LVL68-.LVL64
 2356 00a1 A401     		.uleb128 .LFE10-.LVL64
 2357 00a3 01       		.uleb128 0x1
 2358 00a4 52       		.byte	0x52
 2359 00a5 00       		.byte	0
 2360              	.LVUS35:
 2361 00a6 01       		.uleb128 .LVU177
 2362 00a7 00       		.uleb128 .LVU184
 2363              	.LLST35:
 2364 00a8 08       		.byte	0x8
 2365 00a9 04000000 		.4byte	.LVL65
 2366 00ad 10       		.uleb128 .LVL67-.LVL65
 2367 00ae 01       		.uleb128 0x1
 2368 00af 51       		.byte	0x51
 2369 00b0 00       		.byte	0
 2370              	.LVUS36:
 2371 00b1 01       		.uleb128 .LVU177
 2372 00b2 00       		.uleb128 .LVU183
 2373 00b3 00       		.uleb128 .LVU183
 2374 00b4 00       		.uleb128 .LVU184
 2375              	.LLST36:
 2376 00b5 06       		.byte	0x6
 2377 00b6 04000000 		.4byte	.LVL65
 2378 00ba 04       		.byte	0x4
 2379 00bb 00       		.uleb128 .LVL65-.LVL65
 2380 00bc 0E       		.uleb128 .LVL66-.LVL65
 2381 00bd 01       		.uleb128 0x1
 2382 00be 50       		.byte	0x50
 2383 00bf 04       		.byte	0x4
 2384 00c0 0E       		.uleb128 .LVL66-.LVL65
 2385 00c1 10       		.uleb128 .LVL67-.LVL65
 2386 00c2 04       		.uleb128 0x4
 2387 00c3 A3       		.byte	0xa3
 2388 00c4 01       		.uleb128 0x1
 2389 00c5 50       		.byte	0x50
 2390 00c6 9F       		.byte	0x9f
ARM GAS  C:\Users\DEVELO~1\AppData\Local\Temp\ccS7mMok.s 			page 43


 2391 00c7 00       		.byte	0
 2392              	.LVUS37:
 2393 00c8 01       		.uleb128 .LVU185
 2394 00c9 00       		.uleb128 .LVU191
 2395              	.LLST37:
 2396 00ca 08       		.byte	0x8
 2397 00cb 14000000 		.4byte	.LVL67
 2398 00cf 10       		.uleb128 .LVL68-.LVL67
 2399 00d0 01       		.uleb128 0x1
 2400 00d1 52       		.byte	0x52
 2401 00d2 00       		.byte	0
 2402              	.LVUS38:
 2403 00d3 01       		.uleb128 .LVU185
 2404 00d4 00       		.uleb128 .LVU191
 2405              	.LLST38:
 2406 00d5 08       		.byte	0x8
 2407 00d6 14000000 		.4byte	.LVL67
 2408 00da 10       		.uleb128 .LVL68-.LVL67
 2409 00db 01       		.uleb128 0x1
 2410 00dc 50       		.byte	0x50
 2411 00dd 00       		.byte	0
 2412              	.LVUS40:
 2413 00de 04       		.uleb128 .LVU209
 2414 00df 00       		.uleb128 .LVU221
 2415 00e0 00       		.uleb128 .LVU239
 2416 00e1 00       		.uleb128 .LVU240
 2417              	.LLST40:
 2418 00e2 06       		.byte	0x6
 2419 00e3 44000000 		.4byte	.LVL71
 2420 00e7 04       		.byte	0x4
 2421 00e8 00       		.uleb128 .LVL71-.LVL71
 2422 00e9 1C       		.uleb128 .LVL74-.LVL71
 2423 00ea 04       		.uleb128 0x4
 2424 00eb A3       		.byte	0xa3
 2425 00ec 01       		.uleb128 0x1
 2426 00ed 50       		.byte	0x50
 2427 00ee 9F       		.byte	0x9f
 2428 00ef 04       		.byte	0x4
 2429 00f0 34       		.uleb128 .LVL81-.LVL71
 2430 00f1 38       		.uleb128 .LVL82-.LVL71
 2431 00f2 04       		.uleb128 0x4
 2432 00f3 A3       		.byte	0xa3
 2433 00f4 01       		.uleb128 0x1
 2434 00f5 50       		.byte	0x50
 2435 00f6 9F       		.byte	0x9f
 2436 00f7 00       		.byte	0
 2437              	.LVUS41:
 2438 00f8 00       		.uleb128 .LVU213
 2439 00f9 00       		.uleb128 .LVU220
 2440 00fa 00       		.uleb128 .LVU220
 2441 00fb 00       		.uleb128 .LVU224
 2442              	.LLST41:
 2443 00fc 06       		.byte	0x6
 2444 00fd 4C000000 		.4byte	.LVL72
 2445 0101 04       		.byte	0x4
 2446 0102 00       		.uleb128 .LVL72-.LVL72
 2447 0103 0C       		.uleb128 .LVL73-.LVL72
ARM GAS  C:\Users\DEVELO~1\AppData\Local\Temp\ccS7mMok.s 			page 44


 2448 0104 01       		.uleb128 0x1
 2449 0105 50       		.byte	0x50
 2450 0106 04       		.byte	0x4
 2451 0107 0C       		.uleb128 .LVL73-.LVL72
 2452 0108 16       		.uleb128 .LVL75-.LVL72
 2453 0109 03       		.uleb128 0x3
 2454 010a 71       		.byte	0x71
 2455 010b C400     		.sleb128 68
 2456 010d 00       		.byte	0
 2457              	.LVUS42:
 2458 010e 02       		.uleb128 .LVU215
 2459 010f 00       		.uleb128 .LVU221
 2460              	.LLST42:
 2461 0110 08       		.byte	0x8
 2462 0111 4C000000 		.4byte	.LVL72
 2463 0115 14       		.uleb128 .LVL74-.LVL72
 2464 0116 16       		.uleb128 0x16
 2465 0117 7C       		.byte	0x7c
 2466 0118 00       		.sleb128 0
 2467 0119 12       		.byte	0x12
 2468 011a 0A       		.byte	0xa
 2469 011b FFFF     		.2byte	0xffff
 2470 011d 1A       		.byte	0x1a
 2471 011e 7E       		.byte	0x7e
 2472 011f 00       		.sleb128 0
 2473 0120 16       		.byte	0x16
 2474 0121 14       		.byte	0x14
 2475 0122 0A       		.byte	0xa
 2476 0123 FFFF     		.2byte	0xffff
 2477 0125 1A       		.byte	0x1a
 2478 0126 2D       		.byte	0x2d
 2479 0127 28       		.byte	0x28
 2480 0128 0100     		.2byte	0x1
 2481 012a 16       		.byte	0x16
 2482 012b 13       		.byte	0x13
 2483 012c 9F       		.byte	0x9f
 2484 012d 00       		.byte	0
 2485              	.LVUS27:
 2486 012e 00       		.uleb128 0
 2487 012f 00       		.uleb128 .LVU165
 2488 0130 00       		.uleb128 .LVU165
 2489 0131 00       		.uleb128 .LVU166
 2490 0132 00       		.uleb128 .LVU166
 2491 0133 00       		.uleb128 .LVU169
 2492 0134 00       		.uleb128 .LVU169
 2493 0135 00       		.uleb128 0
 2494              	.LLST27:
 2495 0136 06       		.byte	0x6
 2496 0137 00000000 		.4byte	.LVL57
 2497 013b 04       		.byte	0x4
 2498 013c 00       		.uleb128 .LVL57-.LVL57
 2499 013d 18       		.uleb128 .LVL60-.LVL57
 2500 013e 01       		.uleb128 0x1
 2501 013f 50       		.byte	0x50
 2502 0140 04       		.byte	0x4
 2503 0141 18       		.uleb128 .LVL60-.LVL57
 2504 0142 1A       		.uleb128 .LVL61-.LVL57
ARM GAS  C:\Users\DEVELO~1\AppData\Local\Temp\ccS7mMok.s 			page 45


 2505 0143 04       		.uleb128 0x4
 2506 0144 A3       		.byte	0xa3
 2507 0145 01       		.uleb128 0x1
 2508 0146 50       		.byte	0x50
 2509 0147 9F       		.byte	0x9f
 2510 0148 04       		.byte	0x4
 2511 0149 1A       		.uleb128 .LVL61-.LVL57
 2512 014a 20       		.uleb128 .LVL63-.LVL57
 2513 014b 01       		.uleb128 0x1
 2514 014c 50       		.byte	0x50
 2515 014d 04       		.byte	0x4
 2516 014e 20       		.uleb128 .LVL63-.LVL57
 2517 014f 26       		.uleb128 .LFE7-.LVL57
 2518 0150 04       		.uleb128 0x4
 2519 0151 A3       		.byte	0xa3
 2520 0152 01       		.uleb128 0x1
 2521 0153 50       		.byte	0x50
 2522 0154 9F       		.byte	0x9f
 2523 0155 00       		.byte	0
 2524              	.LVUS28:
 2525 0156 00       		.uleb128 0
 2526 0157 00       		.uleb128 .LVU168
 2527 0158 00       		.uleb128 .LVU168
 2528 0159 00       		.uleb128 0
 2529              	.LLST28:
 2530 015a 06       		.byte	0x6
 2531 015b 00000000 		.4byte	.LVL57
 2532 015f 04       		.byte	0x4
 2533 0160 00       		.uleb128 .LVL57-.LVL57
 2534 0161 1E       		.uleb128 .LVL62-.LVL57
 2535 0162 01       		.uleb128 0x1
 2536 0163 51       		.byte	0x51
 2537 0164 04       		.byte	0x4
 2538 0165 1E       		.uleb128 .LVL62-.LVL57
 2539 0166 26       		.uleb128 .LFE7-.LVL57
 2540 0167 04       		.uleb128 0x4
 2541 0168 A3       		.byte	0xa3
 2542 0169 01       		.uleb128 0x1
 2543 016a 51       		.byte	0x51
 2544 016b 9F       		.byte	0x9f
 2545 016c 00       		.byte	0
 2546              	.LVUS29:
 2547 016d 01       		.uleb128 .LVU159
 2548 016e 00       		.uleb128 .LVU163
 2549              	.LLST29:
 2550 016f 08       		.byte	0x8
 2551 0170 0A000000 		.4byte	.LVL58
 2552 0174 0C       		.uleb128 .LVL59-.LVL58
 2553 0175 01       		.uleb128 0x1
 2554 0176 51       		.byte	0x51
 2555 0177 00       		.byte	0
 2556              	.LVUS30:
 2557 0178 01       		.uleb128 .LVU159
 2558 0179 00       		.uleb128 .LVU163
 2559              	.LLST30:
 2560 017a 08       		.byte	0x8
 2561 017b 0A000000 		.4byte	.LVL58
ARM GAS  C:\Users\DEVELO~1\AppData\Local\Temp\ccS7mMok.s 			page 46


 2562 017f 0C       		.uleb128 .LVL59-.LVL58
 2563 0180 01       		.uleb128 0x1
 2564 0181 50       		.byte	0x50
 2565 0182 00       		.byte	0
 2566              	.LVUS23:
 2567 0183 00       		.uleb128 0
 2568 0184 00       		.uleb128 .LVU147
 2569 0185 00       		.uleb128 .LVU147
 2570 0186 00       		.uleb128 .LVU148
 2571 0187 00       		.uleb128 .LVU148
 2572 0188 00       		.uleb128 .LVU151
 2573 0189 00       		.uleb128 .LVU151
 2574 018a 00       		.uleb128 0
 2575              	.LLST23:
 2576 018b 06       		.byte	0x6
 2577 018c 00000000 		.4byte	.LVL50
 2578 0190 04       		.byte	0x4
 2579 0191 00       		.uleb128 .LVL50-.LVL50
 2580 0192 18       		.uleb128 .LVL53-.LVL50
 2581 0193 01       		.uleb128 0x1
 2582 0194 50       		.byte	0x50
 2583 0195 04       		.byte	0x4
 2584 0196 18       		.uleb128 .LVL53-.LVL50
 2585 0197 1A       		.uleb128 .LVL54-.LVL50
 2586 0198 04       		.uleb128 0x4
 2587 0199 A3       		.byte	0xa3
 2588 019a 01       		.uleb128 0x1
 2589 019b 50       		.byte	0x50
 2590 019c 9F       		.byte	0x9f
 2591 019d 04       		.byte	0x4
 2592 019e 1A       		.uleb128 .LVL54-.LVL50
 2593 019f 20       		.uleb128 .LVL56-.LVL50
 2594 01a0 01       		.uleb128 0x1
 2595 01a1 50       		.byte	0x50
 2596 01a2 04       		.byte	0x4
 2597 01a3 20       		.uleb128 .LVL56-.LVL50
 2598 01a4 26       		.uleb128 .LFE6-.LVL50
 2599 01a5 04       		.uleb128 0x4
 2600 01a6 A3       		.byte	0xa3
 2601 01a7 01       		.uleb128 0x1
 2602 01a8 50       		.byte	0x50
 2603 01a9 9F       		.byte	0x9f
 2604 01aa 00       		.byte	0
 2605              	.LVUS24:
 2606 01ab 00       		.uleb128 0
 2607 01ac 00       		.uleb128 .LVU150
 2608 01ad 00       		.uleb128 .LVU150
 2609 01ae 00       		.uleb128 0
 2610              	.LLST24:
 2611 01af 06       		.byte	0x6
 2612 01b0 00000000 		.4byte	.LVL50
 2613 01b4 04       		.byte	0x4
 2614 01b5 00       		.uleb128 .LVL50-.LVL50
 2615 01b6 1E       		.uleb128 .LVL55-.LVL50
 2616 01b7 01       		.uleb128 0x1
 2617 01b8 51       		.byte	0x51
 2618 01b9 04       		.byte	0x4
ARM GAS  C:\Users\DEVELO~1\AppData\Local\Temp\ccS7mMok.s 			page 47


 2619 01ba 1E       		.uleb128 .LVL55-.LVL50
 2620 01bb 26       		.uleb128 .LFE6-.LVL50
 2621 01bc 04       		.uleb128 0x4
 2622 01bd A3       		.byte	0xa3
 2623 01be 01       		.uleb128 0x1
 2624 01bf 51       		.byte	0x51
 2625 01c0 9F       		.byte	0x9f
 2626 01c1 00       		.byte	0
 2627              	.LVUS25:
 2628 01c2 01       		.uleb128 .LVU141
 2629 01c3 00       		.uleb128 .LVU145
 2630              	.LLST25:
 2631 01c4 08       		.byte	0x8
 2632 01c5 0A000000 		.4byte	.LVL51
 2633 01c9 0C       		.uleb128 .LVL52-.LVL51
 2634 01ca 01       		.uleb128 0x1
 2635 01cb 51       		.byte	0x51
 2636 01cc 00       		.byte	0
 2637              	.LVUS26:
 2638 01cd 01       		.uleb128 .LVU141
 2639 01ce 00       		.uleb128 .LVU145
 2640              	.LLST26:
 2641 01cf 08       		.byte	0x8
 2642 01d0 0A000000 		.4byte	.LVL51
 2643 01d4 0C       		.uleb128 .LVL52-.LVL51
 2644 01d5 01       		.uleb128 0x1
 2645 01d6 50       		.byte	0x50
 2646 01d7 00       		.byte	0
 2647              	.LVUS19:
 2648 01d8 00       		.uleb128 0
 2649 01d9 00       		.uleb128 .LVU117
 2650 01da 00       		.uleb128 .LVU117
 2651 01db 00       		.uleb128 .LVU118
 2652 01dc 00       		.uleb128 .LVU118
 2653 01dd 00       		.uleb128 .LVU127
 2654 01de 00       		.uleb128 .LVU127
 2655 01df 00       		.uleb128 .LVU130
 2656 01e0 00       		.uleb128 .LVU130
 2657 01e1 00       		.uleb128 .LVU131
 2658 01e2 00       		.uleb128 .LVU131
 2659 01e3 00       		.uleb128 .LVU132
 2660 01e4 00       		.uleb128 .LVU132
 2661 01e5 00       		.uleb128 .LVU134
 2662 01e6 00       		.uleb128 .LVU134
 2663 01e7 00       		.uleb128 0
 2664              	.LLST19:
 2665 01e8 06       		.byte	0x6
 2666 01e9 00000000 		.4byte	.LVL39
 2667 01ed 04       		.byte	0x4
 2668 01ee 00       		.uleb128 .LVL39-.LVL39
 2669 01ef 10       		.uleb128 .LVL42-.LVL39
 2670 01f0 01       		.uleb128 0x1
 2671 01f1 50       		.byte	0x50
 2672 01f2 04       		.byte	0x4
 2673 01f3 10       		.uleb128 .LVL42-.LVL39
 2674 01f4 12       		.uleb128 .LVL43-.LVL39
 2675 01f5 04       		.uleb128 0x4
ARM GAS  C:\Users\DEVELO~1\AppData\Local\Temp\ccS7mMok.s 			page 48


 2676 01f6 A3       		.byte	0xa3
 2677 01f7 01       		.uleb128 0x1
 2678 01f8 50       		.byte	0x50
 2679 01f9 9F       		.byte	0x9f
 2680 01fa 04       		.byte	0x4
 2681 01fb 12       		.uleb128 .LVL43-.LVL39
 2682 01fc 24       		.uleb128 .LVL45-.LVL39
 2683 01fd 01       		.uleb128 0x1
 2684 01fe 50       		.byte	0x50
 2685 01ff 04       		.byte	0x4
 2686 0200 24       		.uleb128 .LVL45-.LVL39
 2687 0201 2C       		.uleb128 .LVL46-.LVL39
 2688 0202 04       		.uleb128 0x4
 2689 0203 A3       		.byte	0xa3
 2690 0204 01       		.uleb128 0x1
 2691 0205 50       		.byte	0x50
 2692 0206 9F       		.byte	0x9f
 2693 0207 04       		.byte	0x4
 2694 0208 2C       		.uleb128 .LVL46-.LVL39
 2695 0209 2E       		.uleb128 .LVL47-.LVL39
 2696 020a 01       		.uleb128 0x1
 2697 020b 50       		.byte	0x50
 2698 020c 04       		.byte	0x4
 2699 020d 2E       		.uleb128 .LVL47-.LVL39
 2700 020e 32       		.uleb128 .LVL48-.LVL39
 2701 020f 04       		.uleb128 0x4
 2702 0210 A3       		.byte	0xa3
 2703 0211 01       		.uleb128 0x1
 2704 0212 50       		.byte	0x50
 2705 0213 9F       		.byte	0x9f
 2706 0214 04       		.byte	0x4
 2707 0215 32       		.uleb128 .LVL48-.LVL39
 2708 0216 34       		.uleb128 .LVL49-.LVL39
 2709 0217 01       		.uleb128 0x1
 2710 0218 50       		.byte	0x50
 2711 0219 04       		.byte	0x4
 2712 021a 34       		.uleb128 .LVL49-.LVL39
 2713 021b 3C       		.uleb128 .LFE5-.LVL39
 2714 021c 04       		.uleb128 0x4
 2715 021d A3       		.byte	0xa3
 2716 021e 01       		.uleb128 0x1
 2717 021f 50       		.byte	0x50
 2718 0220 9F       		.byte	0x9f
 2719 0221 00       		.byte	0
 2720              	.LVUS20:
 2721 0222 00       		.uleb128 0
 2722 0223 00       		.uleb128 .LVU124
 2723 0224 00       		.uleb128 .LVU124
 2724 0225 00       		.uleb128 .LVU130
 2725 0226 00       		.uleb128 .LVU130
 2726 0227 00       		.uleb128 .LVU132
 2727 0228 00       		.uleb128 .LVU132
 2728 0229 00       		.uleb128 0
 2729              	.LLST20:
 2730 022a 06       		.byte	0x6
 2731 022b 00000000 		.4byte	.LVL39
 2732 022f 04       		.byte	0x4
ARM GAS  C:\Users\DEVELO~1\AppData\Local\Temp\ccS7mMok.s 			page 49


 2733 0230 00       		.uleb128 .LVL39-.LVL39
 2734 0231 20       		.uleb128 .LVL44-.LVL39
 2735 0232 01       		.uleb128 0x1
 2736 0233 51       		.byte	0x51
 2737 0234 04       		.byte	0x4
 2738 0235 20       		.uleb128 .LVL44-.LVL39
 2739 0236 2C       		.uleb128 .LVL46-.LVL39
 2740 0237 04       		.uleb128 0x4
 2741 0238 A3       		.byte	0xa3
 2742 0239 01       		.uleb128 0x1
 2743 023a 51       		.byte	0x51
 2744 023b 9F       		.byte	0x9f
 2745 023c 04       		.byte	0x4
 2746 023d 2C       		.uleb128 .LVL46-.LVL39
 2747 023e 32       		.uleb128 .LVL48-.LVL39
 2748 023f 01       		.uleb128 0x1
 2749 0240 51       		.byte	0x51
 2750 0241 04       		.byte	0x4
 2751 0242 32       		.uleb128 .LVL48-.LVL39
 2752 0243 3C       		.uleb128 .LFE5-.LVL39
 2753 0244 04       		.uleb128 0x4
 2754 0245 A3       		.byte	0xa3
 2755 0246 01       		.uleb128 0x1
 2756 0247 51       		.byte	0x51
 2757 0248 9F       		.byte	0x9f
 2758 0249 00       		.byte	0
 2759              	.LVUS21:
 2760 024a 01       		.uleb128 .LVU111
 2761 024b 00       		.uleb128 .LVU115
 2762              	.LLST21:
 2763 024c 08       		.byte	0x8
 2764 024d 02000000 		.4byte	.LVL40
 2765 0251 0C       		.uleb128 .LVL41-.LVL40
 2766 0252 01       		.uleb128 0x1
 2767 0253 51       		.byte	0x51
 2768 0254 00       		.byte	0
 2769              	.LVUS22:
 2770 0255 01       		.uleb128 .LVU111
 2771 0256 00       		.uleb128 .LVU115
 2772              	.LLST22:
 2773 0257 08       		.byte	0x8
 2774 0258 02000000 		.4byte	.LVL40
 2775 025c 0C       		.uleb128 .LVL41-.LVL40
 2776 025d 01       		.uleb128 0x1
 2777 025e 50       		.byte	0x50
 2778 025f 00       		.byte	0
 2779              	.LVUS14:
 2780 0260 00       		.uleb128 0
 2781 0261 00       		.uleb128 .LVU92
 2782 0262 00       		.uleb128 .LVU92
 2783 0263 00       		.uleb128 .LVU93
 2784 0264 00       		.uleb128 .LVU93
 2785 0265 00       		.uleb128 .LVU97
 2786 0266 00       		.uleb128 .LVU97
 2787 0267 00       		.uleb128 .LVU101
 2788 0268 00       		.uleb128 .LVU101
 2789 0269 00       		.uleb128 .LVU103
ARM GAS  C:\Users\DEVELO~1\AppData\Local\Temp\ccS7mMok.s 			page 50


 2790 026a 00       		.uleb128 .LVU103
 2791 026b 00       		.uleb128 0
 2792              	.LLST14:
 2793 026c 06       		.byte	0x6
 2794 026d 00000000 		.4byte	.LVL27
 2795 0271 04       		.byte	0x4
 2796 0272 00       		.uleb128 .LVL27-.LVL27
 2797 0273 12       		.uleb128 .LVL30-.LVL27
 2798 0274 01       		.uleb128 0x1
 2799 0275 50       		.byte	0x50
 2800 0276 04       		.byte	0x4
 2801 0277 12       		.uleb128 .LVL30-.LVL27
 2802 0278 14       		.uleb128 .LVL31-.LVL27
 2803 0279 04       		.uleb128 0x4
 2804 027a A3       		.byte	0xa3
 2805 027b 01       		.uleb128 0x1
 2806 027c 50       		.byte	0x50
 2807 027d 9F       		.byte	0x9f
 2808 027e 04       		.byte	0x4
 2809 027f 14       		.uleb128 .LVL31-.LVL27
 2810 0280 1C       		.uleb128 .LVL33-.LVL27
 2811 0281 01       		.uleb128 0x1
 2812 0282 50       		.byte	0x50
 2813 0283 04       		.byte	0x4
 2814 0284 1C       		.uleb128 .LVL33-.LVL27
 2815 0285 24       		.uleb128 .LVL35-.LVL27
 2816 0286 04       		.uleb128 0x4
 2817 0287 A3       		.byte	0xa3
 2818 0288 01       		.uleb128 0x1
 2819 0289 50       		.byte	0x50
 2820 028a 9F       		.byte	0x9f
 2821 028b 04       		.byte	0x4
 2822 028c 24       		.uleb128 .LVL35-.LVL27
 2823 028d 2A       		.uleb128 .LVL37-.LVL27
 2824 028e 01       		.uleb128 0x1
 2825 028f 50       		.byte	0x50
 2826 0290 04       		.byte	0x4
 2827 0291 2A       		.uleb128 .LVL37-.LVL27
 2828 0292 32       		.uleb128 .LFE4-.LVL27
 2829 0293 04       		.uleb128 0x4
 2830 0294 A3       		.byte	0xa3
 2831 0295 01       		.uleb128 0x1
 2832 0296 50       		.byte	0x50
 2833 0297 9F       		.byte	0x9f
 2834 0298 00       		.byte	0
 2835              	.LVUS15:
 2836 0299 00       		.uleb128 0
 2837 029a 00       		.uleb128 .LVU96
 2838 029b 00       		.uleb128 .LVU96
 2839 029c 00       		.uleb128 .LVU101
 2840 029d 00       		.uleb128 .LVU101
 2841 029e 00       		.uleb128 .LVU102
 2842 029f 00       		.uleb128 .LVU102
 2843 02a0 00       		.uleb128 0
 2844              	.LLST15:
 2845 02a1 06       		.byte	0x6
 2846 02a2 00000000 		.4byte	.LVL27
ARM GAS  C:\Users\DEVELO~1\AppData\Local\Temp\ccS7mMok.s 			page 51


 2847 02a6 04       		.byte	0x4
 2848 02a7 00       		.uleb128 .LVL27-.LVL27
 2849 02a8 1A       		.uleb128 .LVL32-.LVL27
 2850 02a9 01       		.uleb128 0x1
 2851 02aa 51       		.byte	0x51
 2852 02ab 04       		.byte	0x4
 2853 02ac 1A       		.uleb128 .LVL32-.LVL27
 2854 02ad 24       		.uleb128 .LVL35-.LVL27
 2855 02ae 04       		.uleb128 0x4
 2856 02af A3       		.byte	0xa3
 2857 02b0 01       		.uleb128 0x1
 2858 02b1 51       		.byte	0x51
 2859 02b2 9F       		.byte	0x9f
 2860 02b3 04       		.byte	0x4
 2861 02b4 24       		.uleb128 .LVL35-.LVL27
 2862 02b5 28       		.uleb128 .LVL36-.LVL27
 2863 02b6 01       		.uleb128 0x1
 2864 02b7 51       		.byte	0x51
 2865 02b8 04       		.byte	0x4
 2866 02b9 28       		.uleb128 .LVL36-.LVL27
 2867 02ba 32       		.uleb128 .LFE4-.LVL27
 2868 02bb 04       		.uleb128 0x4
 2869 02bc A3       		.byte	0xa3
 2870 02bd 01       		.uleb128 0x1
 2871 02be 51       		.byte	0x51
 2872 02bf 9F       		.byte	0x9f
 2873 02c0 00       		.byte	0
 2874              	.LVUS16:
 2875 02c1 00       		.uleb128 0
 2876 02c2 00       		.uleb128 .LVU98
 2877 02c3 00       		.uleb128 .LVU98
 2878 02c4 00       		.uleb128 .LVU101
 2879 02c5 00       		.uleb128 .LVU101
 2880 02c6 00       		.uleb128 .LVU104
 2881 02c7 00       		.uleb128 .LVU104
 2882 02c8 00       		.uleb128 0
 2883              	.LLST16:
 2884 02c9 06       		.byte	0x6
 2885 02ca 00000000 		.4byte	.LVL27
 2886 02ce 04       		.byte	0x4
 2887 02cf 00       		.uleb128 .LVL27-.LVL27
 2888 02d0 20       		.uleb128 .LVL34-.LVL27
 2889 02d1 01       		.uleb128 0x1
 2890 02d2 53       		.byte	0x53
 2891 02d3 04       		.byte	0x4
 2892 02d4 20       		.uleb128 .LVL34-.LVL27
 2893 02d5 24       		.uleb128 .LVL35-.LVL27
 2894 02d6 04       		.uleb128 0x4
 2895 02d7 A3       		.byte	0xa3
 2896 02d8 01       		.uleb128 0x1
 2897 02d9 53       		.byte	0x53
 2898 02da 9F       		.byte	0x9f
 2899 02db 04       		.byte	0x4
 2900 02dc 24       		.uleb128 .LVL35-.LVL27
 2901 02dd 2E       		.uleb128 .LVL38-.LVL27
 2902 02de 01       		.uleb128 0x1
 2903 02df 53       		.byte	0x53
ARM GAS  C:\Users\DEVELO~1\AppData\Local\Temp\ccS7mMok.s 			page 52


 2904 02e0 04       		.byte	0x4
 2905 02e1 2E       		.uleb128 .LVL38-.LVL27
 2906 02e2 32       		.uleb128 .LFE4-.LVL27
 2907 02e3 04       		.uleb128 0x4
 2908 02e4 A3       		.byte	0xa3
 2909 02e5 01       		.uleb128 0x1
 2910 02e6 53       		.byte	0x53
 2911 02e7 9F       		.byte	0x9f
 2912 02e8 00       		.byte	0
 2913              	.LVUS17:
 2914 02e9 01       		.uleb128 .LVU86
 2915 02ea 00       		.uleb128 .LVU90
 2916              	.LLST17:
 2917 02eb 08       		.byte	0x8
 2918 02ec 04000000 		.4byte	.LVL28
 2919 02f0 0C       		.uleb128 .LVL29-.LVL28
 2920 02f1 01       		.uleb128 0x1
 2921 02f2 51       		.byte	0x51
 2922 02f3 00       		.byte	0
 2923              	.LVUS18:
 2924 02f4 01       		.uleb128 .LVU86
 2925 02f5 00       		.uleb128 .LVU90
 2926              	.LLST18:
 2927 02f6 08       		.byte	0x8
 2928 02f7 04000000 		.4byte	.LVL28
 2929 02fb 0C       		.uleb128 .LVL29-.LVL28
 2930 02fc 01       		.uleb128 0x1
 2931 02fd 50       		.byte	0x50
 2932 02fe 00       		.byte	0
 2933              	.LVUS10:
 2934 02ff 00       		.uleb128 0
 2935 0300 00       		.uleb128 .LVU74
 2936 0301 00       		.uleb128 .LVU74
 2937 0302 00       		.uleb128 .LVU75
 2938 0303 00       		.uleb128 .LVU75
 2939 0304 00       		.uleb128 .LVU78
 2940 0305 00       		.uleb128 .LVU78
 2941 0306 00       		.uleb128 0
 2942              	.LLST10:
 2943 0307 06       		.byte	0x6
 2944 0308 00000000 		.4byte	.LVL20
 2945 030c 04       		.byte	0x4
 2946 030d 00       		.uleb128 .LVL20-.LVL20
 2947 030e 18       		.uleb128 .LVL23-.LVL20
 2948 030f 01       		.uleb128 0x1
 2949 0310 50       		.byte	0x50
 2950 0311 04       		.byte	0x4
 2951 0312 18       		.uleb128 .LVL23-.LVL20
 2952 0313 1A       		.uleb128 .LVL24-.LVL20
 2953 0314 04       		.uleb128 0x4
 2954 0315 A3       		.byte	0xa3
 2955 0316 01       		.uleb128 0x1
 2956 0317 50       		.byte	0x50
 2957 0318 9F       		.byte	0x9f
 2958 0319 04       		.byte	0x4
 2959 031a 1A       		.uleb128 .LVL24-.LVL20
 2960 031b 1E       		.uleb128 .LVL26-.LVL20
ARM GAS  C:\Users\DEVELO~1\AppData\Local\Temp\ccS7mMok.s 			page 53


 2961 031c 01       		.uleb128 0x1
 2962 031d 50       		.byte	0x50
 2963 031e 04       		.byte	0x4
 2964 031f 1E       		.uleb128 .LVL26-.LVL20
 2965 0320 26       		.uleb128 .LFE3-.LVL20
 2966 0321 04       		.uleb128 0x4
 2967 0322 A3       		.byte	0xa3
 2968 0323 01       		.uleb128 0x1
 2969 0324 50       		.byte	0x50
 2970 0325 9F       		.byte	0x9f
 2971 0326 00       		.byte	0
 2972              	.LVUS11:
 2973 0327 00       		.uleb128 0
 2974 0328 00       		.uleb128 .LVU77
 2975 0329 00       		.uleb128 .LVU77
 2976 032a 00       		.uleb128 0
 2977              	.LLST11:
 2978 032b 06       		.byte	0x6
 2979 032c 00000000 		.4byte	.LVL20
 2980 0330 04       		.byte	0x4
 2981 0331 00       		.uleb128 .LVL20-.LVL20
 2982 0332 1C       		.uleb128 .LVL25-.LVL20
 2983 0333 01       		.uleb128 0x1
 2984 0334 51       		.byte	0x51
 2985 0335 04       		.byte	0x4
 2986 0336 1C       		.uleb128 .LVL25-.LVL20
 2987 0337 26       		.uleb128 .LFE3-.LVL20
 2988 0338 04       		.uleb128 0x4
 2989 0339 A3       		.byte	0xa3
 2990 033a 01       		.uleb128 0x1
 2991 033b 51       		.byte	0x51
 2992 033c 9F       		.byte	0x9f
 2993 033d 00       		.byte	0
 2994              	.LVUS12:
 2995 033e 01       		.uleb128 .LVU68
 2996 033f 00       		.uleb128 .LVU72
 2997              	.LLST12:
 2998 0340 08       		.byte	0x8
 2999 0341 0A000000 		.4byte	.LVL21
 3000 0345 0C       		.uleb128 .LVL22-.LVL21
 3001 0346 01       		.uleb128 0x1
 3002 0347 51       		.byte	0x51
 3003 0348 00       		.byte	0
 3004              	.LVUS13:
 3005 0349 01       		.uleb128 .LVU68
 3006 034a 00       		.uleb128 .LVU72
 3007              	.LLST13:
 3008 034b 08       		.byte	0x8
 3009 034c 0A000000 		.4byte	.LVL21
 3010 0350 0C       		.uleb128 .LVL22-.LVL21
 3011 0351 01       		.uleb128 0x1
 3012 0352 50       		.byte	0x50
 3013 0353 00       		.byte	0
 3014              	.LVUS5:
 3015 0354 00       		.uleb128 0
 3016 0355 00       		.uleb128 .LVU47
 3017 0356 00       		.uleb128 .LVU47
ARM GAS  C:\Users\DEVELO~1\AppData\Local\Temp\ccS7mMok.s 			page 54


 3018 0357 00       		.uleb128 .LVU48
 3019 0358 00       		.uleb128 .LVU48
 3020 0359 00       		.uleb128 .LVU58
 3021 035a 00       		.uleb128 .LVU58
 3022 035b 00       		.uleb128 .LVU62
 3023 035c 00       		.uleb128 .LVU62
 3024 035d 00       		.uleb128 .LVU63
 3025 035e 00       		.uleb128 .LVU63
 3026 035f 00       		.uleb128 0
 3027              	.LLST5:
 3028 0360 06       		.byte	0x6
 3029 0361 00000000 		.4byte	.LVL10
 3030 0365 04       		.byte	0x4
 3031 0366 00       		.uleb128 .LVL10-.LVL10
 3032 0367 0C       		.uleb128 .LVL11-.LVL10
 3033 0368 01       		.uleb128 0x1
 3034 0369 50       		.byte	0x50
 3035 036a 04       		.byte	0x4
 3036 036b 0C       		.uleb128 .LVL11-.LVL10
 3037 036c 0E       		.uleb128 .LVL12-.LVL10
 3038 036d 04       		.uleb128 0x4
 3039 036e A3       		.byte	0xa3
 3040 036f 01       		.uleb128 0x1
 3041 0370 50       		.byte	0x50
 3042 0371 9F       		.byte	0x9f
 3043 0372 04       		.byte	0x4
 3044 0373 0E       		.uleb128 .LVL12-.LVL10
 3045 0374 2A       		.uleb128 .LVL16-.LVL10
 3046 0375 01       		.uleb128 0x1
 3047 0376 50       		.byte	0x50
 3048 0377 04       		.byte	0x4
 3049 0378 2A       		.uleb128 .LVL16-.LVL10
 3050 0379 34       		.uleb128 .LVL18-.LVL10
 3051 037a 04       		.uleb128 0x4
 3052 037b A3       		.byte	0xa3
 3053 037c 01       		.uleb128 0x1
 3054 037d 50       		.byte	0x50
 3055 037e 9F       		.byte	0x9f
 3056 037f 04       		.byte	0x4
 3057 0380 34       		.uleb128 .LVL18-.LVL10
 3058 0381 36       		.uleb128 .LVL19-.LVL10
 3059 0382 01       		.uleb128 0x1
 3060 0383 50       		.byte	0x50
 3061 0384 04       		.byte	0x4
 3062 0385 36       		.uleb128 .LVL19-.LVL10
 3063 0386 38       		.uleb128 .LFE2-.LVL10
 3064 0387 04       		.uleb128 0x4
 3065 0388 A3       		.byte	0xa3
 3066 0389 01       		.uleb128 0x1
 3067 038a 50       		.byte	0x50
 3068 038b 9F       		.byte	0x9f
 3069 038c 00       		.byte	0
 3070              	.LVUS6:
 3071 038d 00       		.uleb128 0
 3072 038e 00       		.uleb128 .LVU57
 3073 038f 00       		.uleb128 .LVU57
 3074 0390 00       		.uleb128 .LVU62
ARM GAS  C:\Users\DEVELO~1\AppData\Local\Temp\ccS7mMok.s 			page 55


 3075 0391 00       		.uleb128 .LVU62
 3076 0392 00       		.uleb128 0
 3077              	.LLST6:
 3078 0393 06       		.byte	0x6
 3079 0394 00000000 		.4byte	.LVL10
 3080 0398 04       		.byte	0x4
 3081 0399 00       		.uleb128 .LVL10-.LVL10
 3082 039a 26       		.uleb128 .LVL15-.LVL10
 3083 039b 01       		.uleb128 0x1
 3084 039c 51       		.byte	0x51
 3085 039d 04       		.byte	0x4
 3086 039e 26       		.uleb128 .LVL15-.LVL10
 3087 039f 34       		.uleb128 .LVL18-.LVL10
 3088 03a0 04       		.uleb128 0x4
 3089 03a1 A3       		.byte	0xa3
 3090 03a2 01       		.uleb128 0x1
 3091 03a3 51       		.byte	0x51
 3092 03a4 9F       		.byte	0x9f
 3093 03a5 04       		.byte	0x4
 3094 03a6 34       		.uleb128 .LVL18-.LVL10
 3095 03a7 38       		.uleb128 .LFE2-.LVL10
 3096 03a8 01       		.uleb128 0x1
 3097 03a9 51       		.byte	0x51
 3098 03aa 00       		.byte	0
 3099              	.LVUS7:
 3100 03ab 00       		.uleb128 0
 3101 03ac 00       		.uleb128 .LVU56
 3102 03ad 00       		.uleb128 .LVU56
 3103 03ae 00       		.uleb128 .LVU62
 3104 03af 00       		.uleb128 .LVU62
 3105 03b0 00       		.uleb128 0
 3106              	.LLST7:
 3107 03b1 06       		.byte	0x6
 3108 03b2 00000000 		.4byte	.LVL10
 3109 03b6 04       		.byte	0x4
 3110 03b7 00       		.uleb128 .LVL10-.LVL10
 3111 03b8 20       		.uleb128 .LVL14-.LVL10
 3112 03b9 01       		.uleb128 0x1
 3113 03ba 52       		.byte	0x52
 3114 03bb 04       		.byte	0x4
 3115 03bc 20       		.uleb128 .LVL14-.LVL10
 3116 03bd 34       		.uleb128 .LVL18-.LVL10
 3117 03be 04       		.uleb128 0x4
 3118 03bf A3       		.byte	0xa3
 3119 03c0 01       		.uleb128 0x1
 3120 03c1 52       		.byte	0x52
 3121 03c2 9F       		.byte	0x9f
 3122 03c3 04       		.byte	0x4
 3123 03c4 34       		.uleb128 .LVL18-.LVL10
 3124 03c5 38       		.uleb128 .LFE2-.LVL10
 3125 03c6 01       		.uleb128 0x1
 3126 03c7 52       		.byte	0x52
 3127 03c8 00       		.byte	0
 3128              	.LVUS8:
 3129 03c9 01       		.uleb128 .LVU52
 3130 03ca 00       		.uleb128 .LVU56
 3131 03cb 00       		.uleb128 .LVU56
ARM GAS  C:\Users\DEVELO~1\AppData\Local\Temp\ccS7mMok.s 			page 56


 3132 03cc 00       		.uleb128 .LVU57
 3133 03cd 00       		.uleb128 .LVU57
 3134 03ce 00       		.uleb128 .LVU62
 3135              	.LLST8:
 3136 03cf 06       		.byte	0x6
 3137 03d0 16000000 		.4byte	.LVL13
 3138 03d4 04       		.byte	0x4
 3139 03d5 00       		.uleb128 .LVL13-.LVL13
 3140 03d6 0A       		.uleb128 .LVL14-.LVL13
 3141 03d7 06       		.uleb128 0x6
 3142 03d8 71       		.byte	0x71
 3143 03d9 00       		.sleb128 0
 3144 03da 72       		.byte	0x72
 3145 03db 00       		.sleb128 0
 3146 03dc 22       		.byte	0x22
 3147 03dd 9F       		.byte	0x9f
 3148 03de 04       		.byte	0x4
 3149 03df 0A       		.uleb128 .LVL14-.LVL13
 3150 03e0 10       		.uleb128 .LVL15-.LVL13
 3151 03e1 07       		.uleb128 0x7
 3152 03e2 71       		.byte	0x71
 3153 03e3 00       		.sleb128 0
 3154 03e4 A3       		.byte	0xa3
 3155 03e5 01       		.uleb128 0x1
 3156 03e6 52       		.byte	0x52
 3157 03e7 22       		.byte	0x22
 3158 03e8 9F       		.byte	0x9f
 3159 03e9 04       		.byte	0x4
 3160 03ea 10       		.uleb128 .LVL15-.LVL13
 3161 03eb 1E       		.uleb128 .LVL18-.LVL13
 3162 03ec 08       		.uleb128 0x8
 3163 03ed A3       		.byte	0xa3
 3164 03ee 01       		.uleb128 0x1
 3165 03ef 51       		.byte	0x51
 3166 03f0 A3       		.byte	0xa3
 3167 03f1 01       		.uleb128 0x1
 3168 03f2 52       		.byte	0x52
 3169 03f3 22       		.byte	0x22
 3170 03f4 9F       		.byte	0x9f
 3171 03f5 00       		.byte	0
 3172              	.LVUS9:
 3173 03f6 03       		.uleb128 .LVU54
 3174 03f7 00       		.uleb128 .LVU57
 3175 03f8 00       		.uleb128 .LVU57
 3176 03f9 00       		.uleb128 .LVU59
 3177              	.LLST9:
 3178 03fa 06       		.byte	0x6
 3179 03fb 16000000 		.4byte	.LVL13
 3180 03ff 04       		.byte	0x4
 3181 0400 00       		.uleb128 .LVL13-.LVL13
 3182 0401 10       		.uleb128 .LVL15-.LVL13
 3183 0402 01       		.uleb128 0x1
 3184 0403 51       		.byte	0x51
 3185 0404 04       		.byte	0x4
 3186 0405 10       		.uleb128 .LVL15-.LVL13
 3187 0406 1A       		.uleb128 .LVL17-.LVL13
 3188 0407 04       		.uleb128 0x4
ARM GAS  C:\Users\DEVELO~1\AppData\Local\Temp\ccS7mMok.s 			page 57


 3189 0408 A3       		.byte	0xa3
 3190 0409 01       		.uleb128 0x1
 3191 040a 51       		.byte	0x51
 3192 040b 9F       		.byte	0x9f
 3193 040c 00       		.byte	0
 3194              	.LVUS0:
 3195 040d 00       		.uleb128 0
 3196 040e 00       		.uleb128 .LVU31
 3197 040f 00       		.uleb128 .LVU31
 3198 0410 00       		.uleb128 .LVU36
 3199 0411 00       		.uleb128 .LVU36
 3200 0412 00       		.uleb128 .LVU38
 3201 0413 00       		.uleb128 .LVU38
 3202 0414 00       		.uleb128 0
 3203              	.LLST0:
 3204 0415 06       		.byte	0x6
 3205 0416 00000000 		.4byte	.LVL0
 3206 041a 04       		.byte	0x4
 3207 041b 00       		.uleb128 .LVL0-.LVL0
 3208 041c 40       		.uleb128 .LVL5-.LVL0
 3209 041d 01       		.uleb128 0x1
 3210 041e 50       		.byte	0x50
 3211 041f 04       		.byte	0x4
 3212 0420 40       		.uleb128 .LVL5-.LVL0
 3213 0421 5A       		.uleb128 .LVL7-.LVL0
 3214 0422 01       		.uleb128 0x1
 3215 0423 54       		.byte	0x54
 3216 0424 04       		.byte	0x4
 3217 0425 5A       		.uleb128 .LVL7-.LVL0
 3218 0426 62       		.uleb128 .LVL9-.LVL0
 3219 0427 01       		.uleb128 0x1
 3220 0428 50       		.byte	0x50
 3221 0429 04       		.byte	0x4
 3222 042a 62       		.uleb128 .LVL9-.LVL0
 3223 042b 64       		.uleb128 .LFE1-.LVL0
 3224 042c 04       		.uleb128 0x4
 3225 042d A3       		.byte	0xa3
 3226 042e 01       		.uleb128 0x1
 3227 042f 50       		.byte	0x50
 3228 0430 9F       		.byte	0x9f
 3229 0431 00       		.byte	0
 3230              	.LVUS1:
 3231 0432 00       		.uleb128 0
 3232 0433 00       		.uleb128 .LVU4
 3233 0434 00       		.uleb128 .LVU4
 3234 0435 00       		.uleb128 .LVU16
 3235 0436 00       		.uleb128 .LVU16
 3236 0437 03       		.uleb128 .LVU20
 3237 0438 00       		.uleb128 .LVU36
 3238 0439 00       		.uleb128 .LVU37
 3239 043a 00       		.uleb128 .LVU37
 3240 043b 00       		.uleb128 0
 3241              	.LLST1:
 3242 043c 06       		.byte	0x6
 3243 043d 00000000 		.4byte	.LVL0
 3244 0441 04       		.byte	0x4
 3245 0442 00       		.uleb128 .LVL0-.LVL0
ARM GAS  C:\Users\DEVELO~1\AppData\Local\Temp\ccS7mMok.s 			page 58


 3246 0443 0A       		.uleb128 .LVL1-.LVL0
 3247 0444 01       		.uleb128 0x1
 3248 0445 51       		.byte	0x51
 3249 0446 04       		.byte	0x4
 3250 0447 0A       		.uleb128 .LVL1-.LVL0
 3251 0448 24       		.uleb128 .LVL3-.LVL0
 3252 0449 01       		.uleb128 0x1
 3253 044a 53       		.byte	0x53
 3254 044b 04       		.byte	0x4
 3255 044c 24       		.uleb128 .LVL3-.LVL0
 3256 044d 2C       		.uleb128 .LVL4-.LVL0
 3257 044e 02       		.uleb128 0x2
 3258 044f 70       		.byte	0x70
 3259 0450 00       		.sleb128 0
 3260 0451 04       		.byte	0x4
 3261 0452 5A       		.uleb128 .LVL7-.LVL0
 3262 0453 60       		.uleb128 .LVL8-.LVL0
 3263 0454 01       		.uleb128 0x1
 3264 0455 53       		.byte	0x53
 3265 0456 04       		.byte	0x4
 3266 0457 60       		.uleb128 .LVL8-.LVL0
 3267 0458 64       		.uleb128 .LFE1-.LVL0
 3268 0459 01       		.uleb128 0x1
 3269 045a 51       		.byte	0x51
 3270 045b 00       		.byte	0
 3271              	.LVUS2:
 3272 045c 00       		.uleb128 0
 3273 045d 00       		.uleb128 .LVU6
 3274 045e 00       		.uleb128 .LVU6
 3275 045f 00       		.uleb128 .LVU37
 3276 0460 00       		.uleb128 .LVU37
 3277 0461 00       		.uleb128 0
 3278              	.LLST2:
 3279 0462 06       		.byte	0x6
 3280 0463 00000000 		.4byte	.LVL0
 3281 0467 04       		.byte	0x4
 3282 0468 00       		.uleb128 .LVL0-.LVL0
 3283 0469 10       		.uleb128 .LVL2-.LVL0
 3284 046a 01       		.uleb128 0x1
 3285 046b 52       		.byte	0x52
 3286 046c 04       		.byte	0x4
 3287 046d 10       		.uleb128 .LVL2-.LVL0
 3288 046e 60       		.uleb128 .LVL8-.LVL0
 3289 046f 04       		.uleb128 0x4
 3290 0470 A3       		.byte	0xa3
 3291 0471 01       		.uleb128 0x1
 3292 0472 52       		.byte	0x52
 3293 0473 9F       		.byte	0x9f
 3294 0474 04       		.byte	0x4
 3295 0475 60       		.uleb128 .LVL8-.LVL0
 3296 0476 64       		.uleb128 .LFE1-.LVL0
 3297 0477 01       		.uleb128 0x1
 3298 0478 52       		.byte	0x52
 3299 0479 00       		.byte	0
 3300              	.LVUS4:
 3301 047a 02       		.uleb128 .LVU19
 3302 047b 03       		.uleb128 .LVU20
ARM GAS  C:\Users\DEVELO~1\AppData\Local\Temp\ccS7mMok.s 			page 59


 3303              	.LLST4:
 3304 047c 08       		.byte	0x8
 3305 047d 2C000000 		.4byte	.LVL4
 3306 0481 00       		.uleb128 .LVL4-.LVL4
 3307 0482 02       		.uleb128 0x2
 3308 0483 30       		.byte	0x30
 3309 0484 9F       		.byte	0x9f
 3310 0485 00       		.byte	0
 3311              	.Ldebug_loc3:
 3312              		.section	.debug_aranges,"",%progbits
 3313 0000 54000000 		.4byte	0x54
 3314 0004 0200     		.2byte	0x2
 3315 0006 00000000 		.4byte	.Ldebug_info0
 3316 000a 04       		.byte	0x4
 3317 000b 00       		.byte	0
 3318 000c 0000     		.2byte	0
 3319 000e 0000     		.2byte	0
 3320 0010 00000000 		.4byte	.LFB1
 3321 0014 64000000 		.4byte	.LFE1-.LFB1
 3322 0018 00000000 		.4byte	.LFB2
 3323 001c 38000000 		.4byte	.LFE2-.LFB2
 3324 0020 00000000 		.4byte	.LFB3
 3325 0024 26000000 		.4byte	.LFE3-.LFB3
 3326 0028 00000000 		.4byte	.LFB4
 3327 002c 32000000 		.4byte	.LFE4-.LFB4
 3328 0030 00000000 		.4byte	.LFB5
 3329 0034 3C000000 		.4byte	.LFE5-.LFB5
 3330 0038 00000000 		.4byte	.LFB6
 3331 003c 26000000 		.4byte	.LFE6-.LFB6
 3332 0040 00000000 		.4byte	.LFB7
 3333 0044 26000000 		.4byte	.LFE7-.LFB7
 3334 0048 00000000 		.4byte	.LFB10
 3335 004c A4000000 		.4byte	.LFE10-.LFB10
 3336 0050 00000000 		.4byte	0
 3337 0054 00000000 		.4byte	0
 3338              		.section	.debug_rnglists,"",%progbits
 3339              	.Ldebug_ranges0:
 3340 0000 6A000000 		.4byte	.Ldebug_ranges3-.Ldebug_ranges2
 3341              	.Ldebug_ranges2:
 3342 0004 0500     		.2byte	0x5
 3343 0006 04       		.byte	0x4
 3344 0007 00       		.byte	0
 3345 0008 00000000 		.4byte	0
 3346              	.LLRL3:
 3347 000c 05       		.byte	0x5
 3348 000d 2C000000 		.4byte	.LBB18
 3349 0011 04       		.byte	0x4
 3350 0012 00       		.uleb128 .LBB18-.LBB18
 3351 0013 1A       		.uleb128 .LBE18-.LBB18
 3352 0014 04       		.byte	0x4
 3353 0015 1C       		.uleb128 .LBB19-.LBB18
 3354 0016 2C       		.uleb128 .LBE19-.LBB18
 3355 0017 00       		.byte	0
 3356              	.LLRL34:
 3357 0018 05       		.byte	0x5
 3358 0019 04000000 		.4byte	.LBB31
 3359 001d 04       		.byte	0x4
ARM GAS  C:\Users\DEVELO~1\AppData\Local\Temp\ccS7mMok.s 			page 60


 3360 001e 00       		.uleb128 .LBB31-.LBB31
 3361 001f 00       		.uleb128 .LBE31-.LBB31
 3362 0020 04       		.byte	0x4
 3363 0021 02       		.uleb128 .LBB34-.LBB31
 3364 0022 0C       		.uleb128 .LBE34-.LBB31
 3365 0023 00       		.byte	0
 3366              	.LLRL39:
 3367 0024 05       		.byte	0x5
 3368 0025 44000000 		.4byte	.LBB37
 3369 0029 04       		.byte	0x4
 3370 002a 00       		.uleb128 .LBB37-.LBB37
 3371 002b 10       		.uleb128 .LBE37-.LBB37
 3372 002c 04       		.byte	0x4
 3373 002d 14       		.uleb128 .LBB44-.LBB37
 3374 002e 1C       		.uleb128 .LBE44-.LBB37
 3375 002f 04       		.byte	0x4
 3376 0030 34       		.uleb128 .LBB45-.LBB37
 3377 0031 38       		.uleb128 .LBE45-.LBB37
 3378 0032 04       		.byte	0x4
 3379 0033 3C       		.uleb128 .LBB46-.LBB37
 3380 0034 46       		.uleb128 .LBE46-.LBB37
 3381 0035 04       		.byte	0x4
 3382 0036 4A       		.uleb128 .LBB47-.LBB37
 3383 0037 4E       		.uleb128 .LBE47-.LBB37
 3384 0038 04       		.byte	0x4
 3385 0039 50       		.uleb128 .LBB48-.LBB37
 3386 003a 60       		.uleb128 .LBE48-.LBB37
 3387 003b 00       		.byte	0
 3388              	.LLRL43:
 3389 003c 07       		.byte	0x7
 3390 003d 00000000 		.4byte	.LFB1
 3391 0041 64       		.uleb128 .LFE1-.LFB1
 3392 0042 07       		.byte	0x7
 3393 0043 00000000 		.4byte	.LFB2
 3394 0047 38       		.uleb128 .LFE2-.LFB2
 3395 0048 07       		.byte	0x7
 3396 0049 00000000 		.4byte	.LFB3
 3397 004d 26       		.uleb128 .LFE3-.LFB3
 3398 004e 07       		.byte	0x7
 3399 004f 00000000 		.4byte	.LFB4
 3400 0053 32       		.uleb128 .LFE4-.LFB4
 3401 0054 07       		.byte	0x7
 3402 0055 00000000 		.4byte	.LFB5
 3403 0059 3C       		.uleb128 .LFE5-.LFB5
 3404 005a 07       		.byte	0x7
 3405 005b 00000000 		.4byte	.LFB6
 3406 005f 26       		.uleb128 .LFE6-.LFB6
 3407 0060 07       		.byte	0x7
 3408 0061 00000000 		.4byte	.LFB7
 3409 0065 26       		.uleb128 .LFE7-.LFB7
 3410 0066 07       		.byte	0x7
 3411 0067 00000000 		.4byte	.LFB10
 3412 006b A401     		.uleb128 .LFE10-.LFB10
 3413 006d 00       		.byte	0
 3414              	.Ldebug_ranges3:
 3415              		.section	.debug_line,"",%progbits
 3416              	.Ldebug_line0:
ARM GAS  C:\Users\DEVELO~1\AppData\Local\Temp\ccS7mMok.s 			page 61


 3417 0000 5C050000 		.section	.debug_str,"MS",%progbits,1
 3417      03001D01 
 3417      00000201 
 3417      FB0E0D00 
 3417      01010101 
 3418              	.LASF49:
 3419 0000 75706461 		.ascii	"update_detent\000"
 3419      74655F64 
 3419      6574656E 
 3419      7400
 3420              	.LASF43:
 3421 000e 62726963 		.ascii	"brick_cal_pot_init\000"
 3421      6B5F6361 
 3421      6C5F706F 
 3421      745F696E 
 3421      697400
 3422              	.LASF35:
 3423 0021 64657465 		.ascii	"detent\000"
 3423      6E7400
 3424              	.LASF13:
 3425 0028 63686172 		.ascii	"char\000"
 3425      00
 3426              	.LASF3:
 3427 002d 5F5F7569 		.ascii	"__uint8_t\000"
 3427      6E74385F 
 3427      7400
 3428              	.LASF24:
 3429 0037 6368616E 		.ascii	"channel\000"
 3429      6E656C00 
 3430              	.LASF20:
 3431 003f 62726963 		.ascii	"brick_cal_pot\000"
 3431      6B5F6361 
 3431      6C5F706F 
 3431      7400
 3432              	.LASF18:
 3433 004d 64657465 		.ascii	"detenthi\000"
 3433      6E746869 
 3433      00
 3434              	.LASF27:
 3435 0056 76616C75 		.ascii	"value\000"
 3435      6500
 3436              	.LASF41:
 3437 005c 73746172 		.ascii	"start\000"
 3437      7400
 3438              	.LASF33:
 3439 0062 6D696E5F 		.ascii	"min_value\000"
 3439      76616C75 
 3439      6500
 3440              	.LASF19:
 3441 006c 656E6162 		.ascii	"enable\000"
 3441      6C6500
 3442              	.LASF36:
 3443 0073 68696768 		.ascii	"high\000"
 3443      00
 3444              	.LASF30:
 3445 0078 62726963 		.ascii	"brick_cal_pot_max_get\000"
 3445      6B5F6361 
ARM GAS  C:\Users\DEVELO~1\AppData\Local\Temp\ccS7mMok.s 			page 62


 3445      6C5F706F 
 3445      745F6D61 
 3445      785F6765 
 3446              	.LASF22:
 3447 008e 706F746D 		.ascii	"potmeter\000"
 3447      65746572 
 3447      00
 3448              	.LASF17:
 3449 0097 64657465 		.ascii	"detentlo\000"
 3449      6E746C6F 
 3449      00
 3450              	.LASF38:
 3451 00a0 62726963 		.ascii	"brick_cal_pot_detent_get\000"
 3451      6B5F6361 
 3451      6C5F706F 
 3451      745F6465 
 3451      74656E74 
 3452              	.LASF1:
 3453 00b9 756E7369 		.ascii	"unsigned char\000"
 3453      676E6564 
 3453      20636861 
 3453      7200
 3454              	.LASF51:
 3455 00c7 5F5F6275 		.ascii	"__builtin_memset\000"
 3455      696C7469 
 3455      6E5F6D65 
 3455      6D736574 
 3455      00
 3456              	.LASF5:
 3457 00d8 73686F72 		.ascii	"short unsigned int\000"
 3457      7420756E 
 3457      7369676E 
 3457      65642069 
 3457      6E7400
 3458              	.LASF16:
 3459 00eb 6D617869 		.ascii	"maximum\000"
 3459      6D756D00 
 3460              	.LASF34:
 3461 00f3 62726963 		.ascii	"brick_cal_pot_detent_set\000"
 3461      6B5F6361 
 3461      6C5F706F 
 3461      745F6465 
 3461      74656E74 
 3462              	.LASF25:
 3463 010c 72616E67 		.ascii	"range\000"
 3463      6500
 3464              	.LASF50:
 3465 0112 6D656D73 		.ascii	"memset\000"
 3465      657400
 3466              	.LASF4:
 3467 0119 5F5F7569 		.ascii	"__uint16_t\000"
 3467      6E743136 
 3467      5F7400
 3468              	.LASF7:
 3469 0124 6C6F6E67 		.ascii	"long unsigned int\000"
 3469      20756E73 
 3469      69676E65 
ARM GAS  C:\Users\DEVELO~1\AppData\Local\Temp\ccS7mMok.s 			page 63


 3469      6420696E 
 3469      7400
 3470              	.LASF21:
 3471 0136 62726963 		.ascii	"brick_cal_model\000"
 3471      6B5F6361 
 3471      6C5F6D6F 
 3471      64656C00 
 3472              	.LASF47:
 3473 0146 64726976 		.ascii	"drivers/HallEffect/brick_cal.c\000"
 3473      6572732F 
 3473      48616C6C 
 3473      45666665 
 3473      63742F62 
 3474              	.LASF10:
 3475 0165 756E7369 		.ascii	"unsigned int\000"
 3475      676E6564 
 3475      20696E74 
 3475      00
 3476              	.LASF9:
 3477 0172 6C6F6E67 		.ascii	"long long unsigned int\000"
 3477      206C6F6E 
 3477      6720756E 
 3477      7369676E 
 3477      65642069 
 3478              	.LASF11:
 3479 0189 75696E74 		.ascii	"uint8_t\000"
 3479      385F7400 
 3480              	.LASF40:
 3481 0191 62726963 		.ascii	"brick_cal_pot_enable_range\000"
 3481      6B5F6361 
 3481      6C5F706F 
 3481      745F656E 
 3481      61626C65 
 3482              	.LASF31:
 3483 01ac 6D61785F 		.ascii	"max_value\000"
 3483      76616C75 
 3483      6500
 3484              	.LASF32:
 3485 01b6 62726963 		.ascii	"brick_cal_pot_min_get\000"
 3485      6B5F6361 
 3485      6C5F706F 
 3485      745F6D69 
 3485      6E5F6765 
 3486              	.LASF28:
 3487 01cc 68616C66 		.ascii	"half_deadzone\000"
 3487      5F646561 
 3487      647A6F6E 
 3487      6500
 3488              	.LASF45:
 3489 01da 6368616E 		.ascii	"channel_valid\000"
 3489      6E656C5F 
 3489      76616C69 
 3489      6400
 3490              	.LASF8:
 3491 01e8 6C6F6E67 		.ascii	"long long int\000"
 3491      206C6F6E 
 3491      6720696E 
ARM GAS  C:\Users\DEVELO~1\AppData\Local\Temp\ccS7mMok.s 			page 64


 3491      7400
 3492              	.LASF39:
 3493 01f6 62726963 		.ascii	"brick_cal_pot_enable_get\000"
 3493      6B5F6361 
 3493      6C5F706F 
 3493      745F656E 
 3493      61626C65 
 3494              	.LASF44:
 3495 020f 636C616D 		.ascii	"clamp_to_maximum\000"
 3495      705F746F 
 3495      5F6D6178 
 3495      696D756D 
 3495      00
 3496              	.LASF29:
 3497 0220 62726963 		.ascii	"brick_cal_pot_next\000"
 3497      6B5F6361 
 3497      6C5F706F 
 3497      745F6E65 
 3497      787400
 3498              	.LASF12:
 3499 0233 75696E74 		.ascii	"uint16_t\000"
 3499      31365F74 
 3499      00
 3500              	.LASF2:
 3501 023c 73686F72 		.ascii	"short int\000"
 3501      7420696E 
 3501      7400
 3502              	.LASF26:
 3503 0246 63656E74 		.ascii	"center\000"
 3503      657200
 3504              	.LASF42:
 3505 024d 62726963 		.ascii	"brick_cal_state\000"
 3505      6B5F6361 
 3505      6C5F7374 
 3505      61746500 
 3506              	.LASF48:
 3507 025d 433A5C43 		.ascii	"C:\\ChibiStudio\\chibios2111\\demos\\STM32\\RT-STM3"
 3507      68696269 
 3507      53747564 
 3507      696F5C63 
 3507      68696269 
 3508 028b 32483734 		.ascii	"2H743ZI_REV_XY-NUCLEO144 - Copie\000"
 3508      335A495F 
 3508      5245565F 
 3508      58592D4E 
 3508      55434C45 
 3509              	.LASF46:
 3510 02ac 474E5520 		.ascii	"GNU C17 11.3.1 20220712 -mcpu=cortex-m7 -mthumb -mf"
 3510      43313720 
 3510      31312E33 
 3510      2E312032 
 3510      30323230 
 3511 02df 6C6F6174 		.ascii	"loat-abi=soft -march=armv7e-m -ggdb -O2 -fomit-fram"
 3511      2D616269 
 3511      3D736F66 
 3511      74202D6D 
 3511      61726368 
ARM GAS  C:\Users\DEVELO~1\AppData\Local\Temp\ccS7mMok.s 			page 65


 3512 0312 652D706F 		.ascii	"e-pointer -falign-functions=16 -ffunction-sections "
 3512      696E7465 
 3512      72202D66 
 3512      616C6967 
 3512      6E2D6675 
 3513 0345 2D666461 		.ascii	"-fdata-sections -fno-common\000"
 3513      74612D73 
 3513      65637469 
 3513      6F6E7320 
 3513      2D666E6F 
 3514              	.LASF6:
 3515 0361 6C6F6E67 		.ascii	"long int\000"
 3515      20696E74 
 3515      00
 3516              	.LASF23:
 3517 036a 6C6F6E67 		.ascii	"long double\000"
 3517      20646F75 
 3517      626C6500 
 3518              	.LASF0:
 3519 0376 7369676E 		.ascii	"signed char\000"
 3519      65642063 
 3519      68617200 
 3520              	.LASF14:
 3521 0382 7265736F 		.ascii	"resolution\000"
 3521      6C757469 
 3521      6F6E00
 3522              	.LASF37:
 3523 038d 5F426F6F 		.ascii	"_Bool\000"
 3523      6C00
 3524              	.LASF15:
 3525 0393 6C656E67 		.ascii	"length\000"
 3525      746800
 3526              		.ident	"GCC: (Arm GNU Toolchain 11.3.Rel1) 11.3.1 20220712"
ARM GAS  C:\Users\DEVELO~1\AppData\Local\Temp\ccS7mMok.s 			page 66


DEFINED SYMBOLS
                            *ABS*:00000000 brick_cal.c
C:\Users\DEVELO~1\AppData\Local\Temp\ccS7mMok.s:18     .text.brick_cal_pot_init:00000000 $t
C:\Users\DEVELO~1\AppData\Local\Temp\ccS7mMok.s:25     .text.brick_cal_pot_init:00000000 brick_cal_pot_init
C:\Users\DEVELO~1\AppData\Local\Temp\ccS7mMok.s:137    .text.brick_cal_pot_enable_range:00000000 $t
C:\Users\DEVELO~1\AppData\Local\Temp\ccS7mMok.s:144    .text.brick_cal_pot_enable_range:00000000 brick_cal_pot_enable_range
C:\Users\DEVELO~1\AppData\Local\Temp\ccS7mMok.s:224    .text.brick_cal_pot_enable_get:00000000 $t
C:\Users\DEVELO~1\AppData\Local\Temp\ccS7mMok.s:231    .text.brick_cal_pot_enable_get:00000000 brick_cal_pot_enable_get
C:\Users\DEVELO~1\AppData\Local\Temp\ccS7mMok.s:289    .text.brick_cal_pot_detent_get:00000000 $t
C:\Users\DEVELO~1\AppData\Local\Temp\ccS7mMok.s:296    .text.brick_cal_pot_detent_get:00000000 brick_cal_pot_detent_get
C:\Users\DEVELO~1\AppData\Local\Temp\ccS7mMok.s:371    .text.brick_cal_pot_detent_set:00000000 $t
C:\Users\DEVELO~1\AppData\Local\Temp\ccS7mMok.s:378    .text.brick_cal_pot_detent_set:00000000 brick_cal_pot_detent_set
C:\Users\DEVELO~1\AppData\Local\Temp\ccS7mMok.s:475    .text.brick_cal_pot_min_get:00000000 $t
C:\Users\DEVELO~1\AppData\Local\Temp\ccS7mMok.s:482    .text.brick_cal_pot_min_get:00000000 brick_cal_pot_min_get
C:\Users\DEVELO~1\AppData\Local\Temp\ccS7mMok.s:540    .text.brick_cal_pot_max_get:00000000 $t
C:\Users\DEVELO~1\AppData\Local\Temp\ccS7mMok.s:547    .text.brick_cal_pot_max_get:00000000 brick_cal_pot_max_get
C:\Users\DEVELO~1\AppData\Local\Temp\ccS7mMok.s:605    .text.brick_cal_pot_next:00000000 $t
C:\Users\DEVELO~1\AppData\Local\Temp\ccS7mMok.s:612    .text.brick_cal_pot_next:00000000 brick_cal_pot_next
C:\Users\DEVELO~1\AppData\Local\Temp\ccS7mMok.s:848    .text.brick_cal_pot_next:000000a0 $d
C:\Users\DEVELO~1\AppData\Local\Temp\ccS7mMok.s:859    .bss.brick_cal_state:00000000 brick_cal_state
C:\Users\DEVELO~1\AppData\Local\Temp\ccS7mMok.s:856    .bss.brick_cal_state:00000000 $d

UNDEFINED SYMBOLS
memset
