ARM GAS  C:\Users\DEVELO~1\AppData\Local\Temp\cctlkDZ1.s 			page 1


   1              		.cpu cortex-m7
   2              		.arch armv7e-m
   3              		.fpu softvfp
   4              		.eabi_attribute 20, 1
   5              		.eabi_attribute 21, 1
   6              		.eabi_attribute 23, 3
   7              		.eabi_attribute 24, 1
   8              		.eabi_attribute 25, 1
   9              		.eabi_attribute 26, 1
  10              		.eabi_attribute 30, 2
  11              		.eabi_attribute 34, 1
  12              		.eabi_attribute 18, 4
  13              		.file	"chcore.c"
  14              		.text
  15              	.Ltext0:
  16              		.cfi_sections	.debug_frame
  17              		.section	.text.SVC_Handler,"ax",%progbits
  18              		.align	1
  19              		.p2align 4,,15
  20              		.global	SVC_Handler
  21              		.syntax unified
  22              		.thumb
  23              		.thumb_func
  24              		.type	SVC_Handler, %function
  25              	SVC_Handler:
  26              	.LFB352:
  27              		.file 1 "./ChibiOS/os/common/ports/ARMv7-M/chcore.c"
  28              		.loc 1 78 24 view -0
  29              		.cfi_startproc
  30              		@ args = 0, pretend = 0, frame = 0
  31              		@ frame_needed = 0, uses_anonymous_args = 0
  32              		@ link register save eliminated.
  33              		.loc 1 80 3 view .LVU1
  34              	.LBB60:
  35              	.LBI60:
  36              		.file 2 "./ChibiOS/os/common/ext/ARM/CMSIS/Core/Include/cmsis_gcc.h"
  37              		.loc 2 247 31 view .LVU2
  38              	.LBB61:
  39              		.loc 2 249 3 view .LVU3
  40              		.loc 2 251 3 view .LVU4
  41              		.syntax unified
  42              	@ 251 "./ChibiOS/os/common/ext/ARM/CMSIS/Core/Include/cmsis_gcc.h" 1
  43 0000 EFF30983 		MRS r3, psp
  44              	@ 0 "" 2
  45              	.LVL0:
  46              		.loc 2 252 3 view .LVU5
  47              		.loc 2 252 3 is_stmt 0 view .LVU6
  48              		.thumb
  49              		.syntax unified
  50              	.LBE61:
  51              	.LBE60:
  52              		.loc 1 84 3 is_stmt 1 view .LVU7
  53              		.loc 1 92 3 view .LVU8
  54              	.LBB62:
  55              	.LBI62:
  56              		.loc 2 277 27 view .LVU9
  57              	.LBB63:
ARM GAS  C:\Users\DEVELO~1\AppData\Local\Temp\cctlkDZ1.s 			page 2


  58              		.loc 2 279 3 view .LVU10
  59              	.LBE63:
  60              	.LBE62:
  61              		.loc 1 84 7 is_stmt 0 view .LVU11
  62 0004 2033     		adds	r3, r3, #32
  63              	.LVL1:
  64              	.LBB65:
  65              	.LBB64:
  66              		.loc 2 279 3 view .LVU12
  67              		.syntax unified
  68              	@ 279 "./ChibiOS/os/common/ext/ARM/CMSIS/Core/Include/cmsis_gcc.h" 1
  69 0006 83F30988 		MSR psp, r3
  70              	@ 0 "" 2
  71              	.LVL2:
  72              		.loc 2 279 3 view .LVU13
  73              		.thumb
  74              		.syntax unified
  75              	.LBE64:
  76              	.LBE65:
  77              		.loc 1 95 3 is_stmt 1 view .LVU14
  78              	.LBB66:
  79              	.LBI66:
  80              		.file 3 "./ChibiOS/os/common/ports/ARMv7-M/chcore.h"
  81              		.loc 3 890 27 view .LVU15
  82              		.loc 3 892 3 view .LVU16
  83              	.LBB67:
  84              	.LBI67:
  85              		.loc 3 864 27 view .LVU17
  86              		.loc 3 867 3 view .LVU18
  87              	.LBB68:
  88              	.LBI68:
  89              		.loc 2 491 27 view .LVU19
  90              	.LBB69:
  91              		.loc 2 493 3 view .LVU20
  92 000a 0023     		movs	r3, #0
  93              	.LVL3:
  94              		.loc 2 493 3 is_stmt 0 view .LVU21
  95              		.syntax unified
  96              	@ 493 "./ChibiOS/os/common/ext/ARM/CMSIS/Core/Include/cmsis_gcc.h" 1
  97 000c 83F31188 		MSR basepri, r3
  98              	@ 0 "" 2
  99              	.LVL4:
 100              		.loc 2 493 3 view .LVU22
 101              		.thumb
 102              		.syntax unified
 103              	.LBE69:
 104              	.LBE68:
 105              	.LBE67:
 106              	.LBE66:
 107              		.loc 1 96 1 view .LVU23
 108 0010 7047     		bx	lr
 109              		.cfi_endproc
 110              	.LFE352:
 111              		.size	SVC_Handler, .-SVC_Handler
 112 0012 00BF     		.section	.text.port_init,"ax",%progbits
 113              		.align	1
 114              		.p2align 4,,15
ARM GAS  C:\Users\DEVELO~1\AppData\Local\Temp\cctlkDZ1.s 			page 3


 115              		.global	port_init
 116              		.syntax unified
 117              		.thumb
 118              		.thumb_func
 119              		.type	port_init, %function
 120              	port_init:
 121              	.LVL5:
 122              	.LFB353:
 123              		.loc 1 136 36 is_stmt 1 view -0
 124              		.cfi_startproc
 125              		@ args = 0, pretend = 0, frame = 0
 126              		@ frame_needed = 0, uses_anonymous_args = 0
 127              		.loc 1 138 3 view .LVU25
 128              		.loc 1 141 3 view .LVU26
 129              	.LBB70:
 130              	.LBI70:
 131              		.loc 3 910 27 view .LVU27
 132              		.loc 3 913 3 view .LVU28
 133              	.LBB71:
 134              	.LBI71:
 135              		.loc 2 491 27 view .LVU29
 136              	.LBB72:
 137              		.loc 2 493 3 view .LVU30
 138 0000 4FF0300C 		mov	ip, #48
 139              	.LBE72:
 140              	.LBE71:
 141              	.LBE70:
 142              		.loc 1 136 36 is_stmt 0 view .LVU31
 143 0004 00B5     		push	{lr}
 144              		.cfi_def_cfa_offset 4
 145              		.cfi_offset 14, -4
 146              	.LBB77:
 147              	.LBB74:
 148              	.LBB73:
 149              		.loc 2 493 3 view .LVU32
 150              		.syntax unified
 151              	@ 493 "./ChibiOS/os/common/ext/ARM/CMSIS/Core/Include/cmsis_gcc.h" 1
 152 0006 8CF31188 		MSR basepri, ip
 153              	@ 0 "" 2
 154              	.LVL6:
 155              		.loc 2 493 3 view .LVU33
 156              		.thumb
 157              		.syntax unified
 158              	.LBE73:
 159              	.LBE74:
 160              		.loc 3 914 3 is_stmt 1 view .LVU34
 161              	.LBB75:
 162              	.LBI75:
 163              		.loc 2 129 27 view .LVU35
 164              	.LBB76:
 165              		.loc 2 131 3 view .LVU36
 166              		.syntax unified
 167              	@ 131 "./ChibiOS/os/common/ext/ARM/CMSIS/Core/Include/cmsis_gcc.h" 1
 168 000a 62B6     		cpsie i
 169              	@ 0 "" 2
 170              		.thumb
 171              		.syntax unified
ARM GAS  C:\Users\DEVELO~1\AppData\Local\Temp\cctlkDZ1.s 			page 4


 172              	.LBE76:
 173              	.LBE75:
 174              	.LBE77:
 175              		.loc 1 155 3 view .LVU37
 176              	.LVL7:
 177              	.LBB78:
 178              	.LBI78:
 179              		.file 4 "./ChibiOS/os/common/ext/ARM/CMSIS/Core/Include/core_cm7.h"
 180              		.loc 4 1865 22 view .LVU38
 181              	.LBB79:
 182              		.loc 4 1867 3 view .LVU39
 183              		.loc 4 1868 3 view .LVU40
 184              		.loc 4 1870 3 view .LVU41
 185              		.loc 4 1870 14 is_stmt 0 view .LVU42
 186 000c 0E4B     		ldr	r3, .L5
 187              		.loc 4 1871 13 view .LVU43
 188 000e 4FF6FF0E 		movw	lr, #63743
 189              		.loc 4 1872 14 view .LVU44
 190 0012 0E49     		ldr	r1, .L5+4
 191              		.loc 4 1870 14 view .LVU45
 192 0014 D868     		ldr	r0, [r3, #12]
 193              	.LVL8:
 194              		.loc 4 1871 3 is_stmt 1 view .LVU46
 195              	.LBE79:
 196              	.LBE78:
 197              		.loc 1 160 12 is_stmt 0 view .LVU47
 198 0016 0E4A     		ldr	r2, .L5+8
 199              	.LBB82:
 200              	.LBB80:
 201              		.loc 4 1871 13 view .LVU48
 202 0018 00EA0E00 		and	r0, r0, lr
 203              	.LVL9:
 204              		.loc 4 1872 3 is_stmt 1 view .LVU49
 205              		.loc 4 1872 14 is_stmt 0 view .LVU50
 206 001c 0143     		orrs	r1, r1, r0
 207              	.LVL10:
 208              		.loc 4 1875 3 is_stmt 1 view .LVU51
 209              	.LBE80:
 210              	.LBE82:
 211              		.loc 1 160 12 is_stmt 0 view .LVU52
 212 001e 0D48     		ldr	r0, .L5+12
 213              	.LBB83:
 214              	.LBB81:
 215              		.loc 4 1875 14 view .LVU53
 216 0020 D960     		str	r1, [r3, #12]
 217              	.LVL11:
 218              		.loc 4 1875 14 view .LVU54
 219              	.LBE81:
 220              	.LBE83:
 221              		.loc 1 158 3 is_stmt 1 view .LVU55
 222              		.loc 1 158 20 is_stmt 0 view .LVU56
 223 0022 D3F8FC10 		ldr	r1, [r3, #252]
 224 0026 41F08071 		orr	r1, r1, #16777216
 225 002a C3F8FC10 		str	r1, [r3, #252]
 226              		.loc 1 160 3 is_stmt 1 view .LVU57
 227              		.loc 1 160 12 is_stmt 0 view .LVU58
 228 002e C2F8B00F 		str	r0, [r2, #4016]
ARM GAS  C:\Users\DEVELO~1\AppData\Local\Temp\cctlkDZ1.s 			page 5


 229              		.loc 1 162 3 is_stmt 1 view .LVU59
 230              	.LBB84:
 231              	.LBB85:
 232              		.loc 4 2032 47 is_stmt 0 view .LVU60
 233 0032 2020     		movs	r0, #32
 234              	.LBE85:
 235              	.LBE84:
 236              		.loc 1 162 13 view .LVU61
 237 0034 1168     		ldr	r1, [r2]
 238 0036 41F00101 		orr	r1, r1, #1
 239 003a 1160     		str	r1, [r2]
 240              		.loc 1 166 3 is_stmt 1 view .LVU62
 241              	.LVL12:
 242              	.LBB87:
 243              	.LBI84:
 244              		.loc 4 2024 22 view .LVU63
 245              	.LBB86:
 246              		.loc 4 2026 3 view .LVU64
 247              		.loc 4 2032 5 view .LVU65
 248              		.loc 4 2032 47 is_stmt 0 view .LVU66
 249 003c D877     		strb	r0, [r3, #31]
 250              	.LVL13:
 251              		.loc 4 2032 47 view .LVU67
 252              	.LBE86:
 253              	.LBE87:
 254              		.loc 1 168 3 is_stmt 1 view .LVU68
 255              	.LBB88:
 256              	.LBI88:
 257              		.loc 4 2024 22 view .LVU69
 258              	.LBB89:
 259              		.loc 4 2026 3 view .LVU70
 260              		.loc 4 2032 5 view .LVU71
 261              		.loc 4 2032 47 is_stmt 0 view .LVU72
 262 003e 83F822C0 		strb	ip, [r3, #34]
 263              	.LVL14:
 264              		.loc 4 2032 47 view .LVU73
 265              	.LBE89:
 266              	.LBE88:
 267              		.loc 1 208 1 view .LVU74
 268 0042 5DF804FB 		ldr	pc, [sp], #4
 269              	.L6:
 270 0046 00BF     		.align	2
 271              	.L5:
 272 0048 00ED00E0 		.word	-536810240
 273 004c 0003FA05 		.word	100270848
 274 0050 001000E0 		.word	-536866816
 275 0054 55CEACC5 		.word	-978530731
 276              		.cfi_endproc
 277              	.LFE353:
 278              		.size	port_init, .-port_init
 279              		.section	.text.__port_irq_epilogue,"ax",%progbits
 280              		.align	1
 281              		.p2align 4,,15
 282              		.global	__port_irq_epilogue
 283              		.syntax unified
 284              		.thumb
 285              		.thumb_func
ARM GAS  C:\Users\DEVELO~1\AppData\Local\Temp\cctlkDZ1.s 			page 6


 286              		.type	__port_irq_epilogue, %function
 287              	__port_irq_epilogue:
 288              	.LFB354:
 289              		.loc 1 224 32 is_stmt 1 view -0
 290              		.cfi_startproc
 291              		@ args = 0, pretend = 0, frame = 0
 292              		@ frame_needed = 0, uses_anonymous_args = 0
 293              		.loc 1 226 3 view .LVU76
 294              	.LBB90:
 295              	.LBI90:
 296              		.loc 3 879 27 view .LVU77
 297              		.loc 3 881 3 view .LVU78
 298              	.LBB91:
 299              	.LBI91:
 300              		.loc 3 840 27 view .LVU79
 301              		.loc 3 848 3 view .LVU80
 302              	.LVL15:
 303              	.LBB92:
 304              	.LBI92:
 305              		.loc 2 491 27 view .LVU81
 306              	.LBB93:
 307              		.loc 2 493 3 view .LVU82
 308 0000 3023     		movs	r3, #48
 309              		.syntax unified
 310              	@ 493 "./ChibiOS/os/common/ext/ARM/CMSIS/Core/Include/cmsis_gcc.h" 1
 311 0002 83F31188 		MSR basepri, r3
 312              	@ 0 "" 2
 313              	.LVL16:
 314              		.loc 2 493 3 is_stmt 0 view .LVU83
 315              		.thumb
 316              		.syntax unified
 317              	.LBE93:
 318              	.LBE92:
 319              	.LBE91:
 320              	.LBE90:
 321              		.loc 1 227 3 is_stmt 1 view .LVU84
 322              		.loc 1 227 11 is_stmt 0 view .LVU85
 323 0006 0D4B     		ldr	r3, .L16
 324 0008 5B68     		ldr	r3, [r3, #4]
 325              		.loc 1 227 6 view .LVU86
 326 000a 13F40063 		ands	r3, r3, #2048
 327 000e 02D1     		bne	.L15
 328              		.loc 1 270 3 is_stmt 1 view .LVU87
 329              	.LBB94:
 330              	.LBI94:
 331              		.loc 3 890 27 view .LVU88
 332              	.LBB95:
 333              		.loc 3 892 3 view .LVU89
 334              	.LBB96:
 335              	.LBI96:
 336              		.loc 3 864 27 view .LVU90
 337              		.loc 3 867 3 view .LVU91
 338              	.LVL17:
 339              	.LBB97:
 340              	.LBI97:
 341              		.loc 2 491 27 view .LVU92
 342              	.LBB98:
ARM GAS  C:\Users\DEVELO~1\AppData\Local\Temp\cctlkDZ1.s 			page 7


 343              		.loc 2 493 3 view .LVU93
 344              		.syntax unified
 345              	@ 493 "./ChibiOS/os/common/ext/ARM/CMSIS/Core/Include/cmsis_gcc.h" 1
 346 0010 83F31188 		MSR basepri, r3
 347              	@ 0 "" 2
 348              	.LVL18:
 349              		.loc 2 493 3 is_stmt 0 view .LVU94
 350              		.thumb
 351              		.syntax unified
 352 0014 7047     		bx	lr
 353              	.L15:
 354              	.LBE98:
 355              	.LBE97:
 356              	.LBE96:
 357              	.LBE95:
 358              	.LBE94:
 359              	.LBB99:
 360              		.loc 1 228 5 is_stmt 1 view .LVU95
 361              		.loc 1 229 5 view .LVU96
 362              		.loc 1 239 5 view .LVU97
 363              	.LBB100:
 364              	.LBI100:
 365              		.loc 2 247 31 view .LVU98
 366              	.LBB101:
 367              		.loc 2 249 3 view .LVU99
 368              		.loc 2 251 3 view .LVU100
 369              	.LBE101:
 370              	.LBE100:
 371              	.LBE99:
 372              		.loc 1 224 32 is_stmt 0 view .LVU101
 373 0016 10B5     		push	{r4, lr}
 374              		.cfi_def_cfa_offset 8
 375              		.cfi_offset 4, -8
 376              		.cfi_offset 14, -4
 377              	.LBB106:
 378              	.LBB103:
 379              	.LBB102:
 380              		.loc 2 251 3 view .LVU102
 381              		.syntax unified
 382              	@ 251 "./ChibiOS/os/common/ext/ARM/CMSIS/Core/Include/cmsis_gcc.h" 1
 383 0018 EFF30984 		MRS r4, psp
 384              	@ 0 "" 2
 385              	.LVL19:
 386              		.loc 2 252 3 is_stmt 1 view .LVU103
 387              		.loc 2 252 3 is_stmt 0 view .LVU104
 388              		.thumb
 389              		.syntax unified
 390              	.LBE102:
 391              	.LBE103:
 392              		.loc 1 240 5 is_stmt 1 view .LVU105
 393              		.loc 1 246 17 is_stmt 0 view .LVU106
 394 001c 4FF08073 		mov	r3, #16777216
 395              		.loc 1 240 9 view .LVU107
 396 0020 203C     		subs	r4, r4, #32
 397              	.LVL20:
 398              		.loc 1 243 5 is_stmt 1 view .LVU108
 399              		.loc 1 246 5 view .LVU109
ARM GAS  C:\Users\DEVELO~1\AppData\Local\Temp\cctlkDZ1.s 			page 8


 400              		.loc 1 246 17 is_stmt 0 view .LVU110
 401 0022 E361     		str	r3, [r4, #28]
 402              		.loc 1 252 5 is_stmt 1 view .LVU111
 403              	.LVL21:
 404              	.LBB104:
 405              	.LBI104:
 406              		.loc 2 277 27 view .LVU112
 407              	.LBB105:
 408              		.loc 2 279 3 view .LVU113
 409              		.syntax unified
 410              	@ 279 "./ChibiOS/os/common/ext/ARM/CMSIS/Core/Include/cmsis_gcc.h" 1
 411 0024 84F30988 		MSR psp, r4
 412              	@ 0 "" 2
 413              	.LVL22:
 414              		.loc 2 279 3 is_stmt 0 view .LVU114
 415              		.thumb
 416              		.syntax unified
 417              	.LBE105:
 418              	.LBE104:
 419              		.loc 1 256 5 is_stmt 1 view .LVU115
 420              		.loc 1 256 9 is_stmt 0 view .LVU116
 421 0028 FFF7FEFF 		bl	chSchIsPreemptionRequired
 422              	.LVL23:
 423              		.loc 1 256 8 view .LVU117
 424 002c 10B1     		cbz	r0, .L9
 425              		.loc 1 258 7 is_stmt 1 view .LVU118
 426              		.loc 1 258 17 is_stmt 0 view .LVU119
 427 002e 044B     		ldr	r3, .L16+4
 428 0030 A361     		str	r3, [r4, #24]
 429              	.LBE106:
 430              		.loc 1 271 1 view .LVU120
 431 0032 10BD     		pop	{r4, pc}
 432              	.LVL24:
 433              	.L9:
 434              	.LBB107:
 435              		.loc 1 263 7 is_stmt 1 view .LVU121
 436              		.loc 1 263 17 is_stmt 0 view .LVU122
 437 0034 034B     		ldr	r3, .L16+8
 438 0036 A361     		str	r3, [r4, #24]
 439              	.LBE107:
 440              		.loc 1 271 1 view .LVU123
 441 0038 10BD     		pop	{r4, pc}
 442              	.LVL25:
 443              	.L17:
 444              		.loc 1 271 1 view .LVU124
 445 003a 00BF     		.align	2
 446              	.L16:
 447 003c 00ED00E0 		.word	-536810240
 448 0040 00000000 		.word	__port_switch_from_isr
 449 0044 00000000 		.word	__port_exit_from_isr
 450              		.cfi_endproc
 451              	.LFE354:
 452              		.size	__port_irq_epilogue, .-__port_irq_epilogue
 453              		.text
 454              	.Letext0:
 455              		.file 5 "c:\\chibistudio\\tools\\gnu tools arm embedded\\11.3 2022.08\\arm-none-eabi\\include\\mac
 456              		.file 6 "c:\\chibistudio\\tools\\gnu tools arm embedded\\11.3 2022.08\\arm-none-eabi\\include\\sys
ARM GAS  C:\Users\DEVELO~1\AppData\Local\Temp\cctlkDZ1.s 			page 9


 457              		.file 7 "./ChibiOS/os/common/ports/ARM-common/include/chtypes.h"
 458              		.file 8 "./ChibiOS/os/rt/include/chearly.h"
 459              		.file 9 "./ChibiOS/os/rt/include/chobjects.h"
 460              		.file 10 "./ChibiOS/os/rt/include/chrfcu.h"
 461              		.file 11 "./ChibiOS/os/rt/include/chdebug.h"
 462              		.file 12 "./ChibiOS/os/rt/include/chtime.h"
 463              		.file 13 "./ChibiOS/os/rt/include/chtrace.h"
 464              		.file 14 "./ChibiOS/os/common/ext/ST/STM32H7xx/stm32h743xx.h"
 465              		.file 15 "./ChibiOS/os/rt/include/chlists.h"
 466              		.file 16 "./ChibiOS/os/rt/include/chsem.h"
 467              		.file 17 "./ChibiOS/os/rt/include/chmtx.h"
 468              		.file 18 "./ChibiOS/os/rt/include/chschd.h"