ARM GAS  C:\Users\DEVELO~1\AppData\Local\Temp\cc1HrRf4.s 			page 1


   1              		.cpu cortex-m7
   2              		.arch armv7e-m
   3              		.fpu softvfp
   4              		.eabi_attribute 20, 1
   5              		.eabi_attribute 21, 1
   6              		.eabi_attribute 23, 3
   7              		.eabi_attribute 24, 1
   8              		.eabi_attribute 25, 1
   9              		.eabi_attribute 26, 1
  10              		.eabi_attribute 30, 2
  11              		.eabi_attribute 34, 1
  12              		.eabi_attribute 18, 4
  13              		.file	"chcond.c"
  14              		.text
  15              	.Ltext0:
  16              		.cfi_sections	.debug_frame
  17              		.section	.text.chCondObjectInit,"ax",%progbits
  18              		.align	1
  19              		.p2align 4,,15
  20              		.global	chCondObjectInit
  21              		.syntax unified
  22              		.thumb
  23              		.thumb_func
  24              		.type	chCondObjectInit, %function
  25              	chCondObjectInit:
  26              	.LVL0:
  27              	.LFB346:
  28              		.file 1 "../../../os/rt/src/chcond.c"
  29              		.loc 1 75 49 view -0
  30              		.cfi_startproc
  31              		@ args = 0, pretend = 0, frame = 0
  32              		@ frame_needed = 0, uses_anonymous_args = 0
  33              		@ link register save eliminated.
  34              		.loc 1 77 3 view .LVU1
  35              		.loc 1 77 3 view .LVU2
  36              		.loc 1 77 3 view .LVU3
  37              		.loc 1 79 3 view .LVU4
  38              	.LBB83:
  39              	.LBI83:
  40              		.file 2 "../../../os/rt/include/chlists.h"
  41              		.loc 2 222 20 view .LVU5
  42              	.LBB84:
  43              		.loc 2 224 3 view .LVU6
  44              		.loc 2 225 12 is_stmt 0 view .LVU7
  45 0000 C0E90000 		strd	r0, r0, [r0]
  46              	.LVL1:
  47              		.loc 2 225 12 view .LVU8
  48              	.LBE84:
  49              	.LBE83:
  50              		.loc 1 80 1 view .LVU9
  51 0004 7047     		bx	lr
  52              		.cfi_endproc
  53              	.LFE346:
  54              		.size	chCondObjectInit, .-chCondObjectInit
  55 0006 00BF     		.section	.text.chCondSignal,"ax",%progbits
  56              		.align	1
  57              		.p2align 4,,15
ARM GAS  C:\Users\DEVELO~1\AppData\Local\Temp\cc1HrRf4.s 			page 2


  58              		.global	chCondSignal
  59              		.syntax unified
  60              		.thumb
  61              		.thumb_func
  62              		.type	chCondSignal, %function
  63              	chCondSignal:
  64              	.LVL2:
  65              	.LFB347:
  66              		.loc 1 89 45 is_stmt 1 view -0
  67              		.cfi_startproc
  68              		@ args = 0, pretend = 0, frame = 0
  69              		@ frame_needed = 0, uses_anonymous_args = 0
  70              		.loc 1 91 3 view .LVU11
  71              		.loc 1 91 3 view .LVU12
  72              		.loc 1 91 3 view .LVU13
  73              		.loc 1 93 3 view .LVU14
  74              	.LBB85:
  75              	.LBI85:
  76              		.file 3 "../../../os/rt/include/chsys.h"
  77              		.loc 3 407 20 view .LVU15
  78              		.loc 3 409 3 view .LVU16
  79              	.LBB86:
  80              	.LBI86:
  81              		.file 4 "../../../os/common/ports/ARMv7-M/chcore.h"
  82              		.loc 4 806 27 view .LVU17
  83              		.loc 4 814 3 view .LVU18
  84              	.LBB87:
  85              	.LBI87:
  86              		.file 5 "../../../os/common/ext/ARM/CMSIS/Core/Include/cmsis_gcc.h"
  87              		.loc 5 491 27 view .LVU19
  88              	.LBB88:
  89              		.loc 5 493 3 view .LVU20
  90              	.LBE88:
  91              	.LBE87:
  92              	.LBE86:
  93              	.LBE85:
  94              		.loc 1 89 45 is_stmt 0 view .LVU21
  95 0000 08B5     		push	{r3, lr}
  96              		.cfi_def_cfa_offset 8
  97              		.cfi_offset 3, -8
  98              		.cfi_offset 14, -4
  99              	.LBB95:
 100              	.LBB93:
 101              	.LBB91:
 102              	.LBB89:
 103              		.loc 5 493 3 view .LVU22
 104 0002 3022     		movs	r2, #48
 105              	.LBE89:
 106              	.LBE91:
 107              	.LBE93:
 108              	.LBE95:
 109              		.loc 1 89 45 view .LVU23
 110 0004 0346     		mov	r3, r0
 111              	.LBB96:
 112              	.LBB94:
 113              	.LBB92:
 114              	.LBB90:
ARM GAS  C:\Users\DEVELO~1\AppData\Local\Temp\cc1HrRf4.s 			page 3


 115              		.loc 5 493 3 view .LVU24
 116              		.syntax unified
 117              	@ 493 "../../../os/common/ext/ARM/CMSIS/Core/Include/cmsis_gcc.h" 1
 118 0006 82F31188 		MSR basepri, r2
 119              	@ 0 "" 2
 120              	.LVL3:
 121              		.loc 5 493 3 view .LVU25
 122              		.thumb
 123              		.syntax unified
 124              	.LBE90:
 125              	.LBE92:
 126              	.LBE94:
 127              		.loc 3 410 35 is_stmt 1 view .LVU26
 128              		.loc 3 411 21 view .LVU27
 129              	.LBE96:
 130              		.loc 1 94 3 view .LVU28
 131              	.LBB97:
 132              	.LBI97:
 133              		.loc 2 249 20 view .LVU29
 134              	.LBB98:
 135              		.loc 2 251 3 view .LVU30
 136              		.loc 2 251 19 is_stmt 0 view .LVU31
 137 000a 0068     		ldr	r0, [r0]
 138              	.LVL4:
 139              		.loc 2 251 19 view .LVU32
 140              	.LBE98:
 141              	.LBE97:
 142              		.loc 1 94 6 view .LVU33
 143 000c 8342     		cmp	r3, r0
 144 000e 05D0     		beq	.L4
 145              		.loc 1 95 5 is_stmt 1 view .LVU34
 146              	.LVL5:
 147              	.LBB99:
 148              	.LBI99:
 149              		.loc 2 280 27 view .LVU35
 150              	.LBB100:
 151              		.loc 2 281 3 view .LVU36
 152              		.loc 2 283 3 view .LVU37
 153              		.loc 2 283 21 is_stmt 0 view .LVU38
 154 0010 0268     		ldr	r2, [r0]
 155              	.LBE100:
 156              	.LBE99:
 157              		.loc 1 95 5 view .LVU39
 158 0012 0021     		movs	r1, #0
 159              	.LBB102:
 160              	.LBB101:
 161              		.loc 2 283 18 view .LVU40
 162 0014 1A60     		str	r2, [r3]
 163              		.loc 2 284 3 is_stmt 1 view .LVU41
 164              		.loc 2 284 18 is_stmt 0 view .LVU42
 165 0016 5360     		str	r3, [r2, #4]
 166              		.loc 2 286 3 is_stmt 1 view .LVU43
 167              	.LVL6:
 168              		.loc 2 286 3 is_stmt 0 view .LVU44
 169              	.LBE101:
 170              	.LBE102:
 171              		.loc 1 95 5 view .LVU45
ARM GAS  C:\Users\DEVELO~1\AppData\Local\Temp\cc1HrRf4.s 			page 4


 172 0018 FFF7FEFF 		bl	chSchWakeupS
 173              	.LVL7:
 174              	.L4:
 175              		.loc 1 97 3 is_stmt 1 view .LVU46
 176              	.LBB103:
 177              	.LBI103:
 178              		.loc 3 421 20 view .LVU47
 179              	.LBB104:
 180              		.loc 3 423 23 view .LVU48
 181              		.loc 3 424 34 view .LVU49
 182              		.loc 3 430 3 view .LVU50
 183              		.loc 3 430 3 view .LVU51
 184              		.loc 3 430 3 view .LVU52
 185              		.loc 3 434 3 view .LVU53
 186              	.LBB105:
 187              	.LBI105:
 188              		.loc 4 830 27 view .LVU54
 189              		.loc 4 833 3 view .LVU55
 190              	.LBB106:
 191              	.LBI106:
 192              		.loc 5 491 27 view .LVU56
 193              	.LBB107:
 194              		.loc 5 493 3 view .LVU57
 195 001c 0023     		movs	r3, #0
 196              		.syntax unified
 197              	@ 493 "../../../os/common/ext/ARM/CMSIS/Core/Include/cmsis_gcc.h" 1
 198 001e 83F31188 		MSR basepri, r3
 199              	@ 0 "" 2
 200              	.LVL8:
 201              		.loc 5 493 3 is_stmt 0 view .LVU58
 202              		.thumb
 203              		.syntax unified
 204              	.LBE107:
 205              	.LBE106:
 206              	.LBE105:
 207              	.LBE104:
 208              	.LBE103:
 209              		.loc 1 98 1 view .LVU59
 210 0022 08BD     		pop	{r3, pc}
 211              		.cfi_endproc
 212              	.LFE347:
 213              		.size	chCondSignal, .-chCondSignal
 214              		.section	.text.chCondSignalI,"ax",%progbits
 215              		.align	1
 216              		.p2align 4,,15
 217              		.global	chCondSignalI
 218              		.syntax unified
 219              		.thumb
 220              		.thumb_func
 221              		.type	chCondSignalI, %function
 222              	chCondSignalI:
 223              	.LVL9:
 224              	.LFB348:
 225              		.loc 1 111 46 is_stmt 1 view -0
 226              		.cfi_startproc
 227              		@ args = 0, pretend = 0, frame = 0
 228              		@ frame_needed = 0, uses_anonymous_args = 0
ARM GAS  C:\Users\DEVELO~1\AppData\Local\Temp\cc1HrRf4.s 			page 5


 229              		@ link register save eliminated.
 230              		.loc 1 113 21 view .LVU61
 231              		.loc 1 114 3 view .LVU62
 232              		.loc 1 114 3 view .LVU63
 233              		.loc 1 114 3 view .LVU64
 234              		.loc 1 116 3 view .LVU65
 235              		.loc 1 111 46 is_stmt 0 view .LVU66
 236 0000 0346     		mov	r3, r0
 237              	.LVL10:
 238              	.LBB108:
 239              	.LBI108:
 240              		.loc 2 249 20 is_stmt 1 view .LVU67
 241              	.LBB109:
 242              		.loc 2 251 3 view .LVU68
 243              		.loc 2 251 19 is_stmt 0 view .LVU69
 244 0002 0068     		ldr	r0, [r0]
 245              	.LVL11:
 246              		.loc 2 251 19 view .LVU70
 247              	.LBE109:
 248              	.LBE108:
 249              		.loc 1 116 6 view .LVU71
 250 0004 8342     		cmp	r3, r0
 251 0006 06D0     		beq	.L6
 252              	.LBB110:
 253              		.loc 1 117 5 is_stmt 1 view .LVU72
 254              	.LVL12:
 255              	.LBB111:
 256              	.LBI111:
 257              		.loc 2 280 27 view .LVU73
 258              	.LBB112:
 259              		.loc 2 281 3 view .LVU74
 260              		.loc 2 283 3 view .LVU75
 261              		.loc 2 283 21 is_stmt 0 view .LVU76
 262 0008 0268     		ldr	r2, [r0]
 263              	.LBE112:
 264              	.LBE111:
 265              		.loc 1 118 18 view .LVU77
 266 000a 0021     		movs	r1, #0
 267              	.LBB114:
 268              	.LBB113:
 269              		.loc 2 283 18 view .LVU78
 270 000c 1A60     		str	r2, [r3]
 271              		.loc 2 284 3 is_stmt 1 view .LVU79
 272              		.loc 2 284 18 is_stmt 0 view .LVU80
 273 000e 5360     		str	r3, [r2, #4]
 274              		.loc 2 286 3 is_stmt 1 view .LVU81
 275              	.LVL13:
 276              		.loc 2 286 3 is_stmt 0 view .LVU82
 277              	.LBE113:
 278              	.LBE114:
 279              		.loc 1 118 5 is_stmt 1 view .LVU83
 280              		.loc 1 118 18 is_stmt 0 view .LVU84
 281 0010 8162     		str	r1, [r0, #40]
 282              		.loc 1 119 5 is_stmt 1 view .LVU85
 283              		.loc 1 119 12 is_stmt 0 view .LVU86
 284 0012 FFF7FEBF 		b	chSchReadyI
 285              	.LVL14:
ARM GAS  C:\Users\DEVELO~1\AppData\Local\Temp\cc1HrRf4.s 			page 6


 286              	.L6:
 287              		.loc 1 119 12 view .LVU87
 288              	.LBE110:
 289              		.loc 1 121 1 view .LVU88
 290 0016 7047     		bx	lr
 291              		.cfi_endproc
 292              	.LFE348:
 293              		.size	chCondSignalI, .-chCondSignalI
 294              		.section	.text.chCondBroadcast,"ax",%progbits
 295              		.align	1
 296              		.p2align 4,,15
 297              		.global	chCondBroadcast
 298              		.syntax unified
 299              		.thumb
 300              		.thumb_func
 301              		.type	chCondBroadcast, %function
 302              	chCondBroadcast:
 303              	.LVL15:
 304              	.LFB349:
 305              		.loc 1 130 48 is_stmt 1 view -0
 306              		.cfi_startproc
 307              		@ args = 0, pretend = 0, frame = 0
 308              		@ frame_needed = 0, uses_anonymous_args = 0
 309              		.loc 1 132 3 view .LVU90
 310              	.LBB130:
 311              	.LBI130:
 312              		.loc 3 407 20 view .LVU91
 313              		.loc 3 409 3 view .LVU92
 314              	.LBB131:
 315              	.LBI131:
 316              		.loc 4 806 27 view .LVU93
 317              		.loc 4 814 3 view .LVU94
 318              	.LBB132:
 319              	.LBI132:
 320              		.loc 5 491 27 view .LVU95
 321              	.LBB133:
 322              		.loc 5 493 3 view .LVU96
 323              	.LBE133:
 324              	.LBE132:
 325              	.LBE131:
 326              	.LBE130:
 327              		.loc 1 130 48 is_stmt 0 view .LVU97
 328 0000 38B5     		push	{r3, r4, r5, lr}
 329              		.cfi_def_cfa_offset 16
 330              		.cfi_offset 3, -16
 331              		.cfi_offset 4, -12
 332              		.cfi_offset 5, -8
 333              		.cfi_offset 14, -4
 334              	.LBB137:
 335              	.LBB136:
 336              	.LBB135:
 337              	.LBB134:
 338              		.loc 5 493 3 view .LVU98
 339 0002 3023     		movs	r3, #48
 340              		.syntax unified
 341              	@ 493 "../../../os/common/ext/ARM/CMSIS/Core/Include/cmsis_gcc.h" 1
 342 0004 83F31188 		MSR basepri, r3
ARM GAS  C:\Users\DEVELO~1\AppData\Local\Temp\cc1HrRf4.s 			page 7


 343              	@ 0 "" 2
 344              	.LVL16:
 345              		.loc 5 493 3 view .LVU99
 346              		.thumb
 347              		.syntax unified
 348              	.LBE134:
 349              	.LBE135:
 350              	.LBE136:
 351              		.loc 3 410 35 is_stmt 1 view .LVU100
 352              		.loc 3 411 21 view .LVU101
 353              	.LBE137:
 354              		.loc 1 133 3 view .LVU102
 355              	.LBB138:
 356              	.LBI138:
 357              		.loc 1 149 6 view .LVU103
 358              	.LBB139:
 359              		.loc 1 151 21 view .LVU104
 360              		.loc 1 152 3 view .LVU105
 361              		.loc 1 152 3 view .LVU106
 362              		.loc 1 152 3 view .LVU107
 363              		.loc 1 157 3 view .LVU108
 364              		.loc 1 157 10 view .LVU109
 365              	.LBB140:
 366              	.LBI140:
 367              		.loc 2 249 20 view .LVU110
 368              	.LBB141:
 369              		.loc 2 251 3 view .LVU111
 370              		.loc 2 251 19 is_stmt 0 view .LVU112
 371 0008 0368     		ldr	r3, [r0]
 372              	.LVL17:
 373              		.loc 2 251 19 view .LVU113
 374              	.LBE141:
 375              	.LBE140:
 376              		.loc 1 157 10 view .LVU114
 377 000a 9842     		cmp	r0, r3
 378 000c 0CD0     		beq	.L9
 379 000e 0446     		mov	r4, r0
 380              		.loc 1 158 72 view .LVU115
 381 0010 6FF00105 		mvn	r5, #1
 382              	.LVL18:
 383              	.L10:
 384              		.loc 1 158 5 is_stmt 1 view .LVU116
 385              	.LBB144:
 386              	.LBI144:
 387              		.loc 2 280 27 view .LVU117
 388              	.LBB145:
 389              		.loc 2 281 3 view .LVU118
 390              		.loc 2 283 3 view .LVU119
 391              		.loc 2 283 21 is_stmt 0 view .LVU120
 392 0014 1A68     		ldr	r2, [r3]
 393              	.LBE145:
 394              	.LBE144:
 395              		.loc 1 158 5 view .LVU121
 396 0016 1846     		mov	r0, r3
 397              	.LBB147:
 398              	.LBB146:
 399              		.loc 2 283 18 view .LVU122
ARM GAS  C:\Users\DEVELO~1\AppData\Local\Temp\cc1HrRf4.s 			page 8


 400 0018 2260     		str	r2, [r4]
 401              		.loc 2 284 3 is_stmt 1 view .LVU123
 402              		.loc 2 284 18 is_stmt 0 view .LVU124
 403 001a 5460     		str	r4, [r2, #4]
 404              		.loc 2 286 3 is_stmt 1 view .LVU125
 405              	.LVL19:
 406              		.loc 2 286 3 is_stmt 0 view .LVU126
 407              	.LBE146:
 408              	.LBE147:
 409              		.loc 1 158 5 view .LVU127
 410 001c FFF7FEFF 		bl	chSchReadyI
 411              	.LVL20:
 412              	.LBB148:
 413              	.LBB142:
 414              		.loc 2 251 19 view .LVU128
 415 0020 2368     		ldr	r3, [r4]
 416              	.LBE142:
 417              	.LBE148:
 418              		.loc 1 158 72 view .LVU129
 419 0022 8562     		str	r5, [r0, #40]
 420              		.loc 1 157 10 is_stmt 1 view .LVU130
 421              	.LVL21:
 422              	.LBB149:
 423              		.loc 2 249 20 view .LVU131
 424              	.LBB143:
 425              		.loc 2 251 3 view .LVU132
 426              		.loc 2 251 3 is_stmt 0 view .LVU133
 427              	.LBE143:
 428              	.LBE149:
 429              		.loc 1 157 10 view .LVU134
 430 0024 A342     		cmp	r3, r4
 431 0026 F5D1     		bne	.L10
 432              	.LVL22:
 433              	.L9:
 434              		.loc 1 157 10 view .LVU135
 435              	.LBE139:
 436              	.LBE138:
 437              		.loc 1 134 3 is_stmt 1 view .LVU136
 438 0028 FFF7FEFF 		bl	chSchRescheduleS
 439              	.LVL23:
 440              		.loc 1 135 3 view .LVU137
 441              	.LBB150:
 442              	.LBI150:
 443              		.loc 3 421 20 view .LVU138
 444              	.LBB151:
 445              		.loc 3 423 23 view .LVU139
 446              		.loc 3 424 34 view .LVU140
 447              		.loc 3 430 3 view .LVU141
 448              		.loc 3 430 3 view .LVU142
 449              		.loc 3 430 3 view .LVU143
 450              		.loc 3 434 3 view .LVU144
 451              	.LBB152:
 452              	.LBI152:
 453              		.loc 4 830 27 view .LVU145
 454              		.loc 4 833 3 view .LVU146
 455              	.LBB153:
 456              	.LBI153:
ARM GAS  C:\Users\DEVELO~1\AppData\Local\Temp\cc1HrRf4.s 			page 9


 457              		.loc 5 491 27 view .LVU147
 458              	.LBB154:
 459              		.loc 5 493 3 view .LVU148
 460 002c 0023     		movs	r3, #0
 461              		.syntax unified
 462              	@ 493 "../../../os/common/ext/ARM/CMSIS/Core/Include/cmsis_gcc.h" 1
 463 002e 83F31188 		MSR basepri, r3
 464              	@ 0 "" 2
 465              	.LVL24:
 466              		.loc 5 493 3 is_stmt 0 view .LVU149
 467              		.thumb
 468              		.syntax unified
 469              	.LBE154:
 470              	.LBE153:
 471              	.LBE152:
 472              	.LBE151:
 473              	.LBE150:
 474              		.loc 1 136 1 view .LVU150
 475 0032 38BD     		pop	{r3, r4, r5, pc}
 476              		.cfi_endproc
 477              	.LFE349:
 478              		.size	chCondBroadcast, .-chCondBroadcast
 479              		.section	.text.chCondBroadcastI,"ax",%progbits
 480              		.align	1
 481              		.p2align 4,,15
 482              		.global	chCondBroadcastI
 483              		.syntax unified
 484              		.thumb
 485              		.thumb_func
 486              		.type	chCondBroadcastI, %function
 487              	chCondBroadcastI:
 488              	.LVL25:
 489              	.LFB350:
 490              		.loc 1 149 49 is_stmt 1 view -0
 491              		.cfi_startproc
 492              		@ args = 0, pretend = 0, frame = 0
 493              		@ frame_needed = 0, uses_anonymous_args = 0
 494              		.loc 1 151 21 view .LVU152
 495              		.loc 1 152 3 view .LVU153
 496              		.loc 1 152 3 view .LVU154
 497              		.loc 1 152 3 view .LVU155
 498              		.loc 1 157 3 view .LVU156
 499              		.loc 1 157 10 view .LVU157
 500              	.LBB155:
 501              	.LBI155:
 502              		.loc 2 249 20 view .LVU158
 503              	.LBB156:
 504              		.loc 2 251 3 view .LVU159
 505              	.LBE156:
 506              	.LBE155:
 507              		.loc 1 149 49 is_stmt 0 view .LVU160
 508 0000 38B5     		push	{r3, r4, r5, lr}
 509              		.cfi_def_cfa_offset 16
 510              		.cfi_offset 3, -16
 511              		.cfi_offset 4, -12
 512              		.cfi_offset 5, -8
 513              		.cfi_offset 14, -4
ARM GAS  C:\Users\DEVELO~1\AppData\Local\Temp\cc1HrRf4.s 			page 10


 514              	.LBB160:
 515              	.LBB157:
 516              		.loc 2 251 19 view .LVU161
 517 0002 0368     		ldr	r3, [r0]
 518              	.LVL26:
 519              		.loc 2 251 19 view .LVU162
 520              	.LBE157:
 521              	.LBE160:
 522              		.loc 1 157 10 view .LVU163
 523 0004 8342     		cmp	r3, r0
 524 0006 0CD0     		beq	.L13
 525 0008 0446     		mov	r4, r0
 526              		.loc 1 158 72 view .LVU164
 527 000a 6FF00105 		mvn	r5, #1
 528              	.LVL27:
 529              	.L15:
 530              		.loc 1 158 5 is_stmt 1 view .LVU165
 531              	.LBB161:
 532              	.LBI161:
 533              		.loc 2 280 27 view .LVU166
 534              	.LBB162:
 535              		.loc 2 281 3 view .LVU167
 536              		.loc 2 283 3 view .LVU168
 537              		.loc 2 283 21 is_stmt 0 view .LVU169
 538 000e 1A68     		ldr	r2, [r3]
 539              	.LBE162:
 540              	.LBE161:
 541              		.loc 1 158 5 view .LVU170
 542 0010 1846     		mov	r0, r3
 543              	.LBB164:
 544              	.LBB163:
 545              		.loc 2 283 18 view .LVU171
 546 0012 2260     		str	r2, [r4]
 547              		.loc 2 284 3 is_stmt 1 view .LVU172
 548              		.loc 2 284 18 is_stmt 0 view .LVU173
 549 0014 5460     		str	r4, [r2, #4]
 550              		.loc 2 286 3 is_stmt 1 view .LVU174
 551              	.LVL28:
 552              		.loc 2 286 3 is_stmt 0 view .LVU175
 553              	.LBE163:
 554              	.LBE164:
 555              		.loc 1 158 5 view .LVU176
 556 0016 FFF7FEFF 		bl	chSchReadyI
 557              	.LVL29:
 558              	.LBB165:
 559              	.LBB158:
 560              		.loc 2 251 19 view .LVU177
 561 001a 2368     		ldr	r3, [r4]
 562              	.LBE158:
 563              	.LBE165:
 564              		.loc 1 158 72 view .LVU178
 565 001c 8562     		str	r5, [r0, #40]
 566              		.loc 1 157 10 is_stmt 1 view .LVU179
 567              	.LVL30:
 568              	.LBB166:
 569              		.loc 2 249 20 view .LVU180
 570              	.LBB159:
ARM GAS  C:\Users\DEVELO~1\AppData\Local\Temp\cc1HrRf4.s 			page 11


 571              		.loc 2 251 3 view .LVU181
 572              		.loc 2 251 3 is_stmt 0 view .LVU182
 573              	.LBE159:
 574              	.LBE166:
 575              		.loc 1 157 10 view .LVU183
 576 001e A342     		cmp	r3, r4
 577 0020 F5D1     		bne	.L15
 578              	.LVL31:
 579              	.L13:
 580              		.loc 1 160 1 view .LVU184
 581 0022 38BD     		pop	{r3, r4, r5, pc}
 582              		.cfi_endproc
 583              	.LFE350:
 584              		.size	chCondBroadcastI, .-chCondBroadcastI
 585              		.section	.text.chCondWaitS,"ax",%progbits
 586              		.align	1
 587              		.p2align 4,,15
 588              		.global	chCondWaitS
 589              		.syntax unified
 590              		.thumb
 591              		.thumb_func
 592              		.type	chCondWaitS, %function
 593              	chCondWaitS:
 594              	.LVL32:
 595              	.LFB352:
 596              		.loc 1 205 45 is_stmt 1 view -0
 597              		.cfi_startproc
 598              		@ args = 0, pretend = 0, frame = 0
 599              		@ frame_needed = 0, uses_anonymous_args = 0
 600              		.loc 1 206 3 view .LVU186
 601              	.LBB173:
 602              	.LBI173:
 603              		.file 6 "../../../os/rt/include/chthreads.h"
 604              		.loc 6 341 25 view .LVU187
 605              	.LBB174:
 606              		.loc 6 343 3 view .LVU188
 607              		.loc 6 343 10 is_stmt 0 view .LVU189
 608 0000 0F4B     		ldr	r3, .L24
 609              	.LBE174:
 610              	.LBE173:
 611              		.loc 1 205 45 view .LVU190
 612 0002 70B5     		push	{r4, r5, r6, lr}
 613              		.cfi_def_cfa_offset 16
 614              		.cfi_offset 4, -16
 615              		.cfi_offset 5, -12
 616              		.cfi_offset 6, -8
 617              		.cfi_offset 14, -4
 618              	.LBB176:
 619              	.LBB175:
 620              		.loc 6 343 10 view .LVU191
 621 0004 DC68     		ldr	r4, [r3, #12]
 622              	.LVL33:
 623              		.loc 6 343 10 view .LVU192
 624              	.LBE175:
 625              	.LBE176:
 626              		.loc 1 207 3 is_stmt 1 view .LVU193
 627              	.LBB177:
ARM GAS  C:\Users\DEVELO~1\AppData\Local\Temp\cc1HrRf4.s 			page 12


 628              	.LBI177:
 629              		.file 7 "../../../os/rt/include/chmtx.h"
 630              		.loc 7 159 24 view .LVU194
 631              	.LBB178:
 632              		.loc 7 161 3 view .LVU195
 633              	.LBE178:
 634              	.LBE177:
 635              		.loc 1 205 45 is_stmt 0 view .LVU196
 636 0006 0546     		mov	r5, r0
 637              	.LBB180:
 638              	.LBB179:
 639              		.loc 7 161 25 view .LVU197
 640 0008 E66B     		ldr	r6, [r4, #60]
 641              	.LVL34:
 642              		.loc 7 161 25 view .LVU198
 643              	.LBE179:
 644              	.LBE180:
 645              		.loc 1 208 3 is_stmt 1 view .LVU199
 646              		.loc 1 210 21 view .LVU200
 647              		.loc 1 211 3 view .LVU201
 648              		.loc 1 211 3 view .LVU202
 649              		.loc 1 211 3 view .LVU203
 650              		.loc 1 212 3 view .LVU204
 651              		.loc 1 212 3 view .LVU205
 652              		.loc 1 212 3 view .LVU206
 653              		.loc 1 215 3 view .LVU207
 654 000a 3046     		mov	r0, r6
 655              	.LVL35:
 656              		.loc 1 215 3 is_stmt 0 view .LVU208
 657 000c FFF7FEFF 		bl	chMtxUnlockS
 658              	.LVL36:
 659              		.loc 1 219 3 is_stmt 1 view .LVU209
 660              	.LBB181:
 661              	.LBB182:
 662              		.file 8 "../../../os/rt/include/chschd.h"
 663              		.loc 8 177 15 is_stmt 0 view .LVU210
 664 0010 2B46     		mov	r3, r5
 665              	.LBE182:
 666              	.LBE181:
 667              		.loc 1 219 20 view .LVU211
 668 0012 A562     		str	r5, [r4, #40]
 669              		.loc 1 220 3 is_stmt 1 view .LVU212
 670              	.LVL37:
 671              	.LBB185:
 672              	.LBI181:
 673              		.loc 8 175 20 view .LVU213
 674              	.LBB183:
 675              		.loc 8 177 3 view .LVU214
 676              		.loc 8 177 3 is_stmt 0 view .LVU215
 677 0014 03E0     		b	.L20
 678              	.LVL38:
 679              	.L23:
 680              		.loc 8 180 23 view .LVU216
 681 0016 9968     		ldr	r1, [r3, #8]
 682 0018 A268     		ldr	r2, [r4, #8]
 683 001a 9142     		cmp	r1, r2
 684 001c 02D3     		bcc	.L19
ARM GAS  C:\Users\DEVELO~1\AppData\Local\Temp\cc1HrRf4.s 			page 13


 685              	.L20:
 686              		.loc 8 178 3 is_stmt 1 view .LVU217
 687              		.loc 8 179 5 view .LVU218
 688              		.loc 8 179 8 is_stmt 0 view .LVU219
 689 001e 1B68     		ldr	r3, [r3]
 690              	.LVL39:
 691              		.loc 8 180 23 is_stmt 1 view .LVU220
 692 0020 9D42     		cmp	r5, r3
 693 0022 F8D1     		bne	.L23
 694              	.L19:
 695              		.loc 8 182 3 view .LVU221
 696              		.loc 8 183 22 is_stmt 0 view .LVU222
 697 0024 5A68     		ldr	r2, [r3, #4]
 698              	.LBE183:
 699              	.LBE185:
 700              		.loc 1 221 3 view .LVU223
 701 0026 0720     		movs	r0, #7
 702              	.LBB186:
 703              	.LBB184:
 704              		.loc 8 182 18 view .LVU224
 705 0028 2360     		str	r3, [r4]
 706              		.loc 8 183 3 is_stmt 1 view .LVU225
 707              		.loc 8 183 18 is_stmt 0 view .LVU226
 708 002a 6260     		str	r2, [r4, #4]
 709              		.loc 8 184 3 is_stmt 1 view .LVU227
 710              		.loc 8 184 18 is_stmt 0 view .LVU228
 711 002c 1460     		str	r4, [r2]
 712              		.loc 8 185 3 is_stmt 1 view .LVU229
 713              		.loc 8 185 18 is_stmt 0 view .LVU230
 714 002e 5C60     		str	r4, [r3, #4]
 715              	.LVL40:
 716              		.loc 8 185 18 view .LVU231
 717              	.LBE184:
 718              	.LBE186:
 719              		.loc 1 221 3 is_stmt 1 view .LVU232
 720 0030 FFF7FEFF 		bl	chSchGoSleepS
 721              	.LVL41:
 722              		.loc 1 222 3 view .LVU233
 723              		.loc 1 222 7 is_stmt 0 view .LVU234
 724 0034 A46A     		ldr	r4, [r4, #40]
 725              	.LVL42:
 726              		.loc 1 223 3 is_stmt 1 view .LVU235
 727 0036 3046     		mov	r0, r6
 728 0038 FFF7FEFF 		bl	chMtxLockS
 729              	.LVL43:
 730              		.loc 1 225 3 view .LVU236
 731              		.loc 1 226 1 is_stmt 0 view .LVU237
 732 003c 2046     		mov	r0, r4
 733 003e 70BD     		pop	{r4, r5, r6, pc}
 734              	.LVL44:
 735              	.L25:
 736              		.loc 1 226 1 view .LVU238
 737              		.align	2
 738              	.L24:
 739 0040 00000000 		.word	ch0
 740              		.cfi_endproc
 741              	.LFE352:
ARM GAS  C:\Users\DEVELO~1\AppData\Local\Temp\cc1HrRf4.s 			page 14


 742              		.size	chCondWaitS, .-chCondWaitS
 743              		.section	.text.chCondWait,"ax",%progbits
 744              		.align	1
 745              		.p2align 4,,15
 746              		.global	chCondWait
 747              		.syntax unified
 748              		.thumb
 749              		.thumb_func
 750              		.type	chCondWait, %function
 751              	chCondWait:
 752              	.LVL45:
 753              	.LFB351:
 754              		.loc 1 179 44 is_stmt 1 view -0
 755              		.cfi_startproc
 756              		@ args = 0, pretend = 0, frame = 0
 757              		@ frame_needed = 0, uses_anonymous_args = 0
 758              		.loc 1 180 3 view .LVU240
 759              		.loc 1 182 3 view .LVU241
 760              	.LBB187:
 761              	.LBI187:
 762              		.loc 3 407 20 view .LVU242
 763              		.loc 3 409 3 view .LVU243
 764              	.LBB188:
 765              	.LBI188:
 766              		.loc 4 806 27 view .LVU244
 767              		.loc 4 814 3 view .LVU245
 768              	.LBB189:
 769              	.LBI189:
 770              		.loc 5 491 27 view .LVU246
 771              	.LBB190:
 772              		.loc 5 493 3 view .LVU247
 773              	.LBE190:
 774              	.LBE189:
 775              	.LBE188:
 776              	.LBE187:
 777              		.loc 1 179 44 is_stmt 0 view .LVU248
 778 0000 08B5     		push	{r3, lr}
 779              		.cfi_def_cfa_offset 8
 780              		.cfi_offset 3, -8
 781              		.cfi_offset 14, -4
 782              	.LBB194:
 783              	.LBB193:
 784              	.LBB192:
 785              	.LBB191:
 786              		.loc 5 493 3 view .LVU249
 787 0002 3023     		movs	r3, #48
 788              		.syntax unified
 789              	@ 493 "../../../os/common/ext/ARM/CMSIS/Core/Include/cmsis_gcc.h" 1
 790 0004 83F31188 		MSR basepri, r3
 791              	@ 0 "" 2
 792              	.LVL46:
 793              		.loc 5 493 3 view .LVU250
 794              		.thumb
 795              		.syntax unified
 796              	.LBE191:
 797              	.LBE192:
 798              	.LBE193:
ARM GAS  C:\Users\DEVELO~1\AppData\Local\Temp\cc1HrRf4.s 			page 15


 799              		.loc 3 410 35 is_stmt 1 view .LVU251
 800              		.loc 3 411 21 view .LVU252
 801              	.LBE194:
 802              		.loc 1 183 3 view .LVU253
 803              		.loc 1 183 9 is_stmt 0 view .LVU254
 804 0008 FFF7FEFF 		bl	chCondWaitS
 805              	.LVL47:
 806              		.loc 1 184 3 is_stmt 1 view .LVU255
 807              	.LBB195:
 808              	.LBI195:
 809              		.loc 3 421 20 view .LVU256
 810              	.LBB196:
 811              		.loc 3 423 23 view .LVU257
 812              		.loc 3 424 34 view .LVU258
 813              		.loc 3 430 3 view .LVU259
 814              		.loc 3 430 3 view .LVU260
 815              		.loc 3 430 3 view .LVU261
 816              		.loc 3 434 3 view .LVU262
 817              	.LBB197:
 818              	.LBI197:
 819              		.loc 4 830 27 view .LVU263
 820              		.loc 4 833 3 view .LVU264
 821              	.LBB198:
 822              	.LBI198:
 823              		.loc 5 491 27 view .LVU265
 824              	.LBB199:
 825              		.loc 5 493 3 view .LVU266
 826 000c 0023     		movs	r3, #0
 827              		.syntax unified
 828              	@ 493 "../../../os/common/ext/ARM/CMSIS/Core/Include/cmsis_gcc.h" 1
 829 000e 83F31188 		MSR basepri, r3
 830              	@ 0 "" 2
 831              	.LVL48:
 832              		.loc 5 493 3 is_stmt 0 view .LVU267
 833              		.thumb
 834              		.syntax unified
 835              	.LBE199:
 836              	.LBE198:
 837              	.LBE197:
 838              	.LBE196:
 839              	.LBE195:
 840              		.loc 1 185 3 is_stmt 1 view .LVU268
 841              		.loc 1 186 1 is_stmt 0 view .LVU269
 842 0012 08BD     		pop	{r3, pc}
 843              		.cfi_endproc
 844              	.LFE351:
 845              		.size	chCondWait, .-chCondWait
 846              		.section	.text.chCondWaitTimeoutS,"ax",%progbits
 847              		.align	1
 848              		.p2align 4,,15
 849              		.global	chCondWaitTimeoutS
 850              		.syntax unified
 851              		.thumb
 852              		.thumb_func
 853              		.type	chCondWaitTimeoutS, %function
 854              	chCondWaitTimeoutS:
 855              	.LVL49:
ARM GAS  C:\Users\DEVELO~1\AppData\Local\Temp\cc1HrRf4.s 			page 16


 856              	.LFB354:
 857              		.loc 1 295 75 is_stmt 1 view -0
 858              		.cfi_startproc
 859              		@ args = 0, pretend = 0, frame = 0
 860              		@ frame_needed = 0, uses_anonymous_args = 0
 861              		.loc 1 296 3 view .LVU271
 862              	.LBB206:
 863              	.LBI206:
 864              		.loc 6 341 25 view .LVU272
 865              	.LBB207:
 866              		.loc 6 343 3 view .LVU273
 867              	.LBE207:
 868              	.LBE206:
 869              		.loc 1 295 75 is_stmt 0 view .LVU274
 870 0000 F8B5     		push	{r3, r4, r5, r6, r7, lr}
 871              		.cfi_def_cfa_offset 24
 872              		.cfi_offset 3, -24
 873              		.cfi_offset 4, -20
 874              		.cfi_offset 5, -16
 875              		.cfi_offset 6, -12
 876              		.cfi_offset 7, -8
 877              		.cfi_offset 14, -4
 878              	.LBB210:
 879              	.LBB208:
 880              		.loc 6 343 10 view .LVU275
 881 0002 114B     		ldr	r3, .L38
 882              	.LBE208:
 883              	.LBE210:
 884              		.loc 1 295 75 view .LVU276
 885 0004 0546     		mov	r5, r0
 886 0006 0F46     		mov	r7, r1
 887              	.LBB211:
 888              	.LBB209:
 889              		.loc 6 343 10 view .LVU277
 890 0008 DC68     		ldr	r4, [r3, #12]
 891              	.LVL50:
 892              		.loc 6 343 10 view .LVU278
 893              	.LBE209:
 894              	.LBE211:
 895              		.loc 1 297 3 is_stmt 1 view .LVU279
 896              	.LBB212:
 897              	.LBI212:
 898              		.loc 7 159 24 view .LVU280
 899              	.LBB213:
 900              		.loc 7 161 3 view .LVU281
 901              		.loc 7 161 25 is_stmt 0 view .LVU282
 902 000a E66B     		ldr	r6, [r4, #60]
 903              	.LVL51:
 904              		.loc 7 161 25 view .LVU283
 905              	.LBE213:
 906              	.LBE212:
 907              		.loc 1 298 3 is_stmt 1 view .LVU284
 908              		.loc 1 300 21 view .LVU285
 909              		.loc 1 301 3 view .LVU286
 910              		.loc 1 301 3 view .LVU287
 911              		.loc 1 301 3 view .LVU288
 912              		.loc 1 302 3 view .LVU289
ARM GAS  C:\Users\DEVELO~1\AppData\Local\Temp\cc1HrRf4.s 			page 17


 913              		.loc 1 302 3 view .LVU290
 914              		.loc 1 302 3 view .LVU291
 915              		.loc 1 305 3 view .LVU292
 916 000c 3046     		mov	r0, r6
 917              	.LVL52:
 918              		.loc 1 305 3 is_stmt 0 view .LVU293
 919 000e FFF7FEFF 		bl	chMtxUnlockS
 920              	.LVL53:
 921              		.loc 1 309 3 is_stmt 1 view .LVU294
 922              	.LBB214:
 923              	.LBB215:
 924              		.loc 8 177 15 is_stmt 0 view .LVU295
 925 0012 2B46     		mov	r3, r5
 926              	.LBE215:
 927              	.LBE214:
 928              		.loc 1 309 20 view .LVU296
 929 0014 A562     		str	r5, [r4, #40]
 930              		.loc 1 310 3 is_stmt 1 view .LVU297
 931              	.LVL54:
 932              	.LBB219:
 933              	.LBI214:
 934              		.loc 8 175 20 view .LVU298
 935              	.LBB216:
 936              		.loc 8 177 3 view .LVU299
 937              		.loc 8 177 3 is_stmt 0 view .LVU300
 938 0016 03E0     		b	.L30
 939              	.LVL55:
 940              	.L37:
 941              		.loc 8 180 23 view .LVU301
 942 0018 A268     		ldr	r2, [r4, #8]
 943 001a 9968     		ldr	r1, [r3, #8]
 944 001c 9142     		cmp	r1, r2
 945 001e 02D3     		bcc	.L29
 946              	.L30:
 947              		.loc 8 178 3 is_stmt 1 view .LVU302
 948              		.loc 8 179 5 view .LVU303
 949              		.loc 8 179 8 is_stmt 0 view .LVU304
 950 0020 1B68     		ldr	r3, [r3]
 951              	.LVL56:
 952              		.loc 8 180 23 is_stmt 1 view .LVU305
 953 0022 9D42     		cmp	r5, r3
 954 0024 F8D1     		bne	.L37
 955              	.L29:
 956              		.loc 8 182 3 view .LVU306
 957              		.loc 8 183 22 is_stmt 0 view .LVU307
 958 0026 5A68     		ldr	r2, [r3, #4]
 959              	.LBE216:
 960              	.LBE219:
 961              		.loc 1 311 9 view .LVU308
 962 0028 3946     		mov	r1, r7
 963              	.LBB220:
 964              	.LBB217:
 965              		.loc 8 182 18 view .LVU309
 966 002a 2360     		str	r3, [r4]
 967              		.loc 8 183 3 is_stmt 1 view .LVU310
 968              	.LBE217:
 969              	.LBE220:
ARM GAS  C:\Users\DEVELO~1\AppData\Local\Temp\cc1HrRf4.s 			page 18


 970              		.loc 1 311 9 is_stmt 0 view .LVU311
 971 002c 0720     		movs	r0, #7
 972              	.LBB221:
 973              	.LBB218:
 974              		.loc 8 183 18 view .LVU312
 975 002e 6260     		str	r2, [r4, #4]
 976              		.loc 8 184 3 is_stmt 1 view .LVU313
 977              		.loc 8 184 18 is_stmt 0 view .LVU314
 978 0030 1460     		str	r4, [r2]
 979              		.loc 8 185 3 is_stmt 1 view .LVU315
 980              		.loc 8 185 18 is_stmt 0 view .LVU316
 981 0032 5C60     		str	r4, [r3, #4]
 982              	.LVL57:
 983              		.loc 8 185 18 view .LVU317
 984              	.LBE218:
 985              	.LBE221:
 986              		.loc 1 311 3 is_stmt 1 view .LVU318
 987              		.loc 1 311 9 is_stmt 0 view .LVU319
 988 0034 FFF7FEFF 		bl	chSchGoSleepTimeoutS
 989              	.LVL58:
 990              		.loc 1 312 6 view .LVU320
 991 0038 431C     		adds	r3, r0, #1
 992              		.loc 1 311 9 view .LVU321
 993 003a 0446     		mov	r4, r0
 994              	.LVL59:
 995              		.loc 1 312 3 is_stmt 1 view .LVU322
 996              		.loc 1 312 6 is_stmt 0 view .LVU323
 997 003c 02D0     		beq	.L28
 998              		.loc 1 313 5 is_stmt 1 view .LVU324
 999 003e 3046     		mov	r0, r6
 1000              	.LVL60:
 1001              		.loc 1 313 5 is_stmt 0 view .LVU325
 1002 0040 FFF7FEFF 		bl	chMtxLockS
 1003              	.LVL61:
 1004              		.loc 1 316 3 is_stmt 1 view .LVU326
 1005              	.L28:
 1006              		.loc 1 317 1 is_stmt 0 view .LVU327
 1007 0044 2046     		mov	r0, r4
 1008 0046 F8BD     		pop	{r3, r4, r5, r6, r7, pc}
 1009              	.LVL62:
 1010              	.L39:
 1011              		.loc 1 317 1 view .LVU328
 1012              		.align	2
 1013              	.L38:
 1014 0048 00000000 		.word	ch0
 1015              		.cfi_endproc
 1016              	.LFE354:
 1017              		.size	chCondWaitTimeoutS, .-chCondWaitTimeoutS
 1018              		.section	.text.chCondWaitTimeout,"ax",%progbits
 1019              		.align	1
 1020              		.p2align 4,,15
 1021              		.global	chCondWaitTimeout
 1022              		.syntax unified
 1023              		.thumb
 1024              		.thumb_func
 1025              		.type	chCondWaitTimeout, %function
 1026              	chCondWaitTimeout:
ARM GAS  C:\Users\DEVELO~1\AppData\Local\Temp\cc1HrRf4.s 			page 19


 1027              	.LVL63:
 1028              	.LFB353:
 1029              		.loc 1 257 74 is_stmt 1 view -0
 1030              		.cfi_startproc
 1031              		@ args = 0, pretend = 0, frame = 0
 1032              		@ frame_needed = 0, uses_anonymous_args = 0
 1033              		.loc 1 258 3 view .LVU330
 1034              		.loc 1 260 3 view .LVU331
 1035              	.LBB222:
 1036              	.LBI222:
 1037              		.loc 3 407 20 view .LVU332
 1038              		.loc 3 409 3 view .LVU333
 1039              	.LBB223:
 1040              	.LBI223:
 1041              		.loc 4 806 27 view .LVU334
 1042              		.loc 4 814 3 view .LVU335
 1043              	.LBB224:
 1044              	.LBI224:
 1045              		.loc 5 491 27 view .LVU336
 1046              	.LBB225:
 1047              		.loc 5 493 3 view .LVU337
 1048              	.LBE225:
 1049              	.LBE224:
 1050              	.LBE223:
 1051              	.LBE222:
 1052              		.loc 1 257 74 is_stmt 0 view .LVU338
 1053 0000 08B5     		push	{r3, lr}
 1054              		.cfi_def_cfa_offset 8
 1055              		.cfi_offset 3, -8
 1056              		.cfi_offset 14, -4
 1057              	.LBB229:
 1058              	.LBB228:
 1059              	.LBB227:
 1060              	.LBB226:
 1061              		.loc 5 493 3 view .LVU339
 1062 0002 3023     		movs	r3, #48
 1063              		.syntax unified
 1064              	@ 493 "../../../os/common/ext/ARM/CMSIS/Core/Include/cmsis_gcc.h" 1
 1065 0004 83F31188 		MSR basepri, r3
 1066              	@ 0 "" 2
 1067              	.LVL64:
 1068              		.loc 5 493 3 view .LVU340
 1069              		.thumb
 1070              		.syntax unified
 1071              	.LBE226:
 1072              	.LBE227:
 1073              	.LBE228:
 1074              		.loc 3 410 35 is_stmt 1 view .LVU341
 1075              		.loc 3 411 21 view .LVU342
 1076              	.LBE229:
 1077              		.loc 1 261 3 view .LVU343
 1078              		.loc 1 261 9 is_stmt 0 view .LVU344
 1079 0008 FFF7FEFF 		bl	chCondWaitTimeoutS
 1080              	.LVL65:
 1081              		.loc 1 262 3 is_stmt 1 view .LVU345
 1082              	.LBB230:
 1083              	.LBI230:
ARM GAS  C:\Users\DEVELO~1\AppData\Local\Temp\cc1HrRf4.s 			page 20


 1084              		.loc 3 421 20 view .LVU346
 1085              	.LBB231:
 1086              		.loc 3 423 23 view .LVU347
 1087              		.loc 3 424 34 view .LVU348
 1088              		.loc 3 430 3 view .LVU349
 1089              		.loc 3 430 3 view .LVU350
 1090              		.loc 3 430 3 view .LVU351
 1091              		.loc 3 434 3 view .LVU352
 1092              	.LBB232:
 1093              	.LBI232:
 1094              		.loc 4 830 27 view .LVU353
 1095              		.loc 4 833 3 view .LVU354
 1096              	.LBB233:
 1097              	.LBI233:
 1098              		.loc 5 491 27 view .LVU355
 1099              	.LBB234:
 1100              		.loc 5 493 3 view .LVU356
 1101 000c 0023     		movs	r3, #0
 1102              		.syntax unified
 1103              	@ 493 "../../../os/common/ext/ARM/CMSIS/Core/Include/cmsis_gcc.h" 1
 1104 000e 83F31188 		MSR basepri, r3
 1105              	@ 0 "" 2
 1106              	.LVL66:
 1107              		.loc 5 493 3 is_stmt 0 view .LVU357
 1108              		.thumb
 1109              		.syntax unified
 1110              	.LBE234:
 1111              	.LBE233:
 1112              	.LBE232:
 1113              	.LBE231:
 1114              	.LBE230:
 1115              		.loc 1 264 3 is_stmt 1 view .LVU358
 1116              		.loc 1 265 1 is_stmt 0 view .LVU359
 1117 0012 08BD     		pop	{r3, pc}
 1118              		.cfi_endproc
 1119              	.LFE353:
 1120              		.size	chCondWaitTimeout, .-chCondWaitTimeout
 1121              		.text
 1122              	.Letext0:
 1123              		.file 9 "c:\\chibistudio\\tools\\gnu tools arm embedded\\11.3 2022.08\\arm-none-eabi\\include\\mac
 1124              		.file 10 "c:\\chibistudio\\tools\\gnu tools arm embedded\\11.3 2022.08\\arm-none-eabi\\include\\sy
 1125              		.file 11 "../../../os/common/ports/ARM-common/chtypes.h"
 1126              		.file 12 "../../../os/rt/include/chearly.h"
 1127              		.file 13 "../../../os/rt/include/chobjects.h"
 1128              		.file 14 "../../../os/rt/include/chrfcu.h"
 1129              		.file 15 "../../../os/rt/include/chdebug.h"
 1130              		.file 16 "../../../os/rt/include/chtime.h"
 1131              		.file 17 "../../../os/rt/include/chtrace.h"
 1132              		.file 18 "../../../os/rt/include/chsem.h"
 1133              		.file 19 "../../../os/rt/include/chcond.h"