ARM GAS  C:\Users\DEVELO~1\AppData\Local\Temp\cceqLPme.s 			page 1


   1              		.cpu cortex-m7
   2              		.arch armv7e-m
   3              		.fpu softvfp
   4              		.eabi_attribute 20, 1
   5              		.eabi_attribute 21, 1
   6              		.eabi_attribute 23, 3
   7              		.eabi_attribute 24, 1
   8              		.eabi_attribute 25, 1
   9              		.eabi_attribute 26, 1
  10              		.eabi_attribute 30, 2
  11              		.eabi_attribute 34, 1
  12              		.eabi_attribute 18, 4
  13              		.file	"chdynamic.c"
  14              		.text
  15              	.Ltext0:
  16              		.cfi_sections	.debug_frame
  17              		.section	.text.chThdCreateFromHeap,"ax",%progbits
  18              		.align	1
  19              		.p2align 4,,15
  20              		.global	chThdCreateFromHeap
  21              		.syntax unified
  22              		.thumb
  23              		.thumb_func
  24              		.type	chThdCreateFromHeap, %function
  25              	chThdCreateFromHeap:
  26              	.LVL0:
  27              	.LFB346:
  28              		.file 1 "../../../os/rt/src/chdynamic.c"
  29              		.loc 1 84 54 view -0
  30              		.cfi_startproc
  31              		@ args = 8, pretend = 0, frame = 24
  32              		@ frame_needed = 0, uses_anonymous_args = 0
  33              		.loc 1 85 3 view .LVU1
  34              		.loc 1 86 3 view .LVU2
  35              		.loc 1 88 3 view .LVU3
  36              		.loc 1 84 54 is_stmt 0 view .LVU4
  37 0000 F0B5     		push	{r4, r5, r6, r7, lr}
  38              		.cfi_def_cfa_offset 20
  39              		.cfi_offset 4, -20
  40              		.cfi_offset 5, -16
  41              		.cfi_offset 6, -12
  42              		.cfi_offset 7, -8
  43              		.cfi_offset 14, -4
  44 0002 1746     		mov	r7, r2
  45 0004 87B0     		sub	sp, sp, #28
  46              		.cfi_def_cfa_offset 48
  47              		.loc 1 88 11 view .LVU5
  48 0006 0822     		movs	r2, #8
  49              	.LVL1:
  50              		.loc 1 84 54 view .LVU6
  51 0008 0D46     		mov	r5, r1
  52 000a 1E46     		mov	r6, r3
  53              		.loc 1 88 11 view .LVU7
  54 000c FFF7FEFF 		bl	chHeapAllocAligned
  55              	.LVL2:
  56              		.loc 1 89 3 is_stmt 1 view .LVU8
  57              		.loc 1 89 6 is_stmt 0 view .LVU9
ARM GAS  C:\Users\DEVELO~1\AppData\Local\Temp\cceqLPme.s 			page 2


  58 0010 0446     		mov	r4, r0
  59 0012 C0B1     		cbz	r0, .L1
  60              		.loc 1 92 3 is_stmt 1 view .LVU10
  61              	.LVL3:
  62              		.loc 1 94 3 view .LVU11
  63              		.loc 1 94 23 is_stmt 0 view .LVU12
  64 0014 0C9B     		ldr	r3, [sp, #48]
  65              		.loc 1 92 8 view .LVU13
  66 0016 0544     		add	r5, r5, r0
  67              	.LVL4:
  68              		.loc 1 94 23 view .LVU14
  69 0018 0493     		str	r3, [sp, #16]
  70 001a 0D9B     		ldr	r3, [sp, #52]
  71 001c CDE90070 		strd	r7, r0, [sp]
  72 0020 0593     		str	r3, [sp, #20]
  73              		.loc 1 100 3 is_stmt 1 view .LVU15
  74              	.LBB34:
  75              	.LBI34:
  76              		.file 2 "../../../os/rt/include/chsys.h"
  77              		.loc 2 407 20 view .LVU16
  78              		.loc 2 409 3 view .LVU17
  79              	.LBB35:
  80              	.LBI35:
  81              		.file 3 "../../../os/common/ports/ARMv7-M/chcore.h"
  82              		.loc 3 806 27 view .LVU18
  83              		.loc 3 814 3 view .LVU19
  84              	.LVL5:
  85              	.LBB36:
  86              	.LBI36:
  87              		.file 4 "../../../os/common/ext/ARM/CMSIS/Core/Include/cmsis_gcc.h"
  88              		.loc 4 491 27 view .LVU20
  89              	.LBB37:
  90              		.loc 4 493 3 view .LVU21
  91 0022 3023     		movs	r3, #48
  92              	.LBE37:
  93              	.LBE36:
  94              	.LBE35:
  95              	.LBE34:
  96              		.loc 1 94 23 is_stmt 0 view .LVU22
  97 0024 CDE90256 		strd	r5, r6, [sp, #8]
  98              	.LBB41:
  99              	.LBB40:
 100              	.LBB39:
 101              	.LBB38:
 102              		.loc 4 493 3 view .LVU23
 103              		.syntax unified
 104              	@ 493 "../../../os/common/ext/ARM/CMSIS/Core/Include/cmsis_gcc.h" 1
 105 0028 83F31188 		MSR basepri, r3
 106              	@ 0 "" 2
 107              	.LVL6:
 108              		.loc 4 493 3 view .LVU24
 109              		.thumb
 110              		.syntax unified
 111              	.LBE38:
 112              	.LBE39:
 113              	.LBE40:
 114              		.loc 2 410 35 is_stmt 1 view .LVU25
ARM GAS  C:\Users\DEVELO~1\AppData\Local\Temp\cceqLPme.s 			page 3


 115              		.loc 2 411 21 view .LVU26
 116              	.LBE41:
 117              		.loc 1 101 3 view .LVU27
 118              		.loc 1 101 8 is_stmt 0 view .LVU28
 119 002c 6846     		mov	r0, sp
 120              	.LVL7:
 121              		.loc 1 101 8 view .LVU29
 122 002e FFF7FEFF 		bl	chThdCreateSuspendedI
 123              	.LVL8:
 124              		.loc 1 102 13 view .LVU30
 125 0032 0123     		movs	r3, #1
 126              		.loc 1 103 3 view .LVU31
 127 0034 0021     		movs	r1, #0
 128              		.loc 1 101 8 view .LVU32
 129 0036 0446     		mov	r4, r0
 130              	.LVL9:
 131              		.loc 1 102 3 is_stmt 1 view .LVU33
 132              		.loc 1 102 13 is_stmt 0 view .LVU34
 133 0038 80F82530 		strb	r3, [r0, #37]
 134              		.loc 1 103 3 is_stmt 1 view .LVU35
 135 003c FFF7FEFF 		bl	chSchWakeupS
 136              	.LVL10:
 137              		.loc 1 104 3 view .LVU36
 138              	.LBB42:
 139              	.LBI42:
 140              		.loc 2 421 20 view .LVU37
 141              	.LBB43:
 142              		.loc 2 423 23 view .LVU38
 143              		.loc 2 424 34 view .LVU39
 144              		.loc 2 430 3 view .LVU40
 145              		.loc 2 430 3 view .LVU41
 146              		.loc 2 430 3 view .LVU42
 147              		.loc 2 434 3 view .LVU43
 148              	.LBB44:
 149              	.LBI44:
 150              		.loc 3 830 27 view .LVU44
 151              		.loc 3 833 3 view .LVU45
 152              	.LBB45:
 153              	.LBI45:
 154              		.loc 4 491 27 view .LVU46
 155              	.LBB46:
 156              		.loc 4 493 3 view .LVU47
 157 0040 0023     		movs	r3, #0
 158              		.syntax unified
 159              	@ 493 "../../../os/common/ext/ARM/CMSIS/Core/Include/cmsis_gcc.h" 1
 160 0042 83F31188 		MSR basepri, r3
 161              	@ 0 "" 2
 162              	.LVL11:
 163              		.loc 4 493 3 is_stmt 0 view .LVU48
 164              		.thumb
 165              		.syntax unified
 166              	.LBE46:
 167              	.LBE45:
 168              	.LBE44:
 169              	.LBE43:
 170              	.LBE42:
 171              		.loc 1 106 3 is_stmt 1 view .LVU49
ARM GAS  C:\Users\DEVELO~1\AppData\Local\Temp\cceqLPme.s 			page 4


 172              	.L1:
 173              		.loc 1 107 1 is_stmt 0 view .LVU50
 174 0046 2046     		mov	r0, r4
 175 0048 07B0     		add	sp, sp, #28
 176              		.cfi_def_cfa_offset 20
 177              		@ sp needed
 178 004a F0BD     		pop	{r4, r5, r6, r7, pc}
 179              		.loc 1 107 1 view .LVU51
 180              		.cfi_endproc
 181              	.LFE346:
 182              		.size	chThdCreateFromHeap, .-chThdCreateFromHeap
 183              		.section	.text.chThdCreateFromMemoryPool,"ax",%progbits
 184              		.align	1
 185              		.p2align 4,,15
 186              		.global	chThdCreateFromMemoryPool
 187              		.syntax unified
 188              		.thumb
 189              		.thumb_func
 190              		.type	chThdCreateFromMemoryPool, %function
 191              	chThdCreateFromMemoryPool:
 192              	.LVL12:
 193              	.LFB347:
 194              		.loc 1 138 74 is_stmt 1 view -0
 195              		.cfi_startproc
 196              		@ args = 4, pretend = 0, frame = 24
 197              		@ frame_needed = 0, uses_anonymous_args = 0
 198              		.loc 1 139 3 view .LVU53
 199              		.loc 1 140 3 view .LVU54
 200              		.loc 1 142 3 view .LVU55
 201              		.loc 1 142 3 view .LVU56
 202              		.loc 1 142 3 view .LVU57
 203              		.loc 1 144 3 view .LVU58
 204              		.loc 1 138 74 is_stmt 0 view .LVU59
 205 0000 2DE9F041 		push	{r4, r5, r6, r7, r8, lr}
 206              		.cfi_def_cfa_offset 24
 207              		.cfi_offset 4, -24
 208              		.cfi_offset 5, -20
 209              		.cfi_offset 6, -16
 210              		.cfi_offset 7, -12
 211              		.cfi_offset 8, -8
 212              		.cfi_offset 14, -4
 213 0004 86B0     		sub	sp, sp, #24
 214              		.cfi_def_cfa_offset 48
 215              		.loc 1 138 74 view .LVU60
 216 0006 0546     		mov	r5, r0
 217 0008 8846     		mov	r8, r1
 218 000a 1746     		mov	r7, r2
 219 000c 1E46     		mov	r6, r3
 220              		.loc 1 144 11 view .LVU61
 221 000e FFF7FEFF 		bl	chPoolAlloc
 222              	.LVL13:
 223              		.loc 1 145 3 is_stmt 1 view .LVU62
 224              		.loc 1 145 6 is_stmt 0 view .LVU63
 225 0012 0446     		mov	r4, r0
 226 0014 C8B1     		cbz	r0, .L8
 227              		.loc 1 148 3 is_stmt 1 view .LVU64
 228              		.loc 1 148 8 is_stmt 0 view .LVU65
ARM GAS  C:\Users\DEVELO~1\AppData\Local\Temp\cceqLPme.s 			page 5


 229 0016 6A68     		ldr	r2, [r5, #4]
 230              		.loc 1 150 23 view .LVU66
 231 0018 0C9B     		ldr	r3, [sp, #48]
 232              		.loc 1 148 8 view .LVU67
 233 001a 1444     		add	r4, r4, r2
 234              	.LVL14:
 235              		.loc 1 150 3 is_stmt 1 view .LVU68
 236              		.loc 1 156 3 view .LVU69
 237              	.LBB47:
 238              	.LBI47:
 239              		.loc 2 407 20 view .LVU70
 240              		.loc 2 409 3 view .LVU71
 241              	.LBB48:
 242              	.LBI48:
 243              		.loc 3 806 27 view .LVU72
 244              		.loc 3 814 3 view .LVU73
 245              	.LBB49:
 246              	.LBI49:
 247              		.loc 4 491 27 view .LVU74
 248              	.LBB50:
 249              		.loc 4 493 3 view .LVU75
 250              	.LBE50:
 251              	.LBE49:
 252              	.LBE48:
 253              	.LBE47:
 254              		.loc 1 150 23 is_stmt 0 view .LVU76
 255 001c 0593     		str	r3, [sp, #20]
 256              	.LBB57:
 257              	.LBB55:
 258              	.LBB53:
 259              	.LBB51:
 260              		.loc 4 493 3 view .LVU77
 261 001e 3023     		movs	r3, #48
 262              	.LBE51:
 263              	.LBE53:
 264              	.LBE55:
 265              	.LBE57:
 266              		.loc 1 150 23 view .LVU78
 267 0020 0294     		str	r4, [sp, #8]
 268 0022 CDE90080 		strd	r8, r0, [sp]
 269 0026 CDE90376 		strd	r7, r6, [sp, #12]
 270              	.LBB58:
 271              	.LBB56:
 272              	.LBB54:
 273              	.LBB52:
 274              		.loc 4 493 3 view .LVU79
 275              		.syntax unified
 276              	@ 493 "../../../os/common/ext/ARM/CMSIS/Core/Include/cmsis_gcc.h" 1
 277 002a 83F31188 		MSR basepri, r3
 278              	@ 0 "" 2
 279              	.LVL15:
 280              		.loc 4 493 3 view .LVU80
 281              		.thumb
 282              		.syntax unified
 283              	.LBE52:
 284              	.LBE54:
 285              	.LBE56:
ARM GAS  C:\Users\DEVELO~1\AppData\Local\Temp\cceqLPme.s 			page 6


 286              		.loc 2 410 35 is_stmt 1 view .LVU81
 287              		.loc 2 411 21 view .LVU82
 288              	.LBE58:
 289              		.loc 1 157 3 view .LVU83
 290              		.loc 1 157 8 is_stmt 0 view .LVU84
 291 002e 6846     		mov	r0, sp
 292              	.LVL16:
 293              		.loc 1 157 8 view .LVU85
 294 0030 FFF7FEFF 		bl	chThdCreateSuspendedI
 295              	.LVL17:
 296              		.loc 1 158 13 view .LVU86
 297 0034 0223     		movs	r3, #2
 298              		.loc 1 160 3 view .LVU87
 299 0036 0021     		movs	r1, #0
 300              		.loc 1 159 13 view .LVU88
 301 0038 4564     		str	r5, [r0, #68]
 302              		.loc 1 158 13 view .LVU89
 303 003a 80F82530 		strb	r3, [r0, #37]
 304              		.loc 1 157 8 view .LVU90
 305 003e 0446     		mov	r4, r0
 306              	.LVL18:
 307              		.loc 1 158 3 is_stmt 1 view .LVU91
 308              		.loc 1 159 3 view .LVU92
 309              		.loc 1 160 3 view .LVU93
 310 0040 FFF7FEFF 		bl	chSchWakeupS
 311              	.LVL19:
 312              		.loc 1 161 3 view .LVU94
 313              	.LBB59:
 314              	.LBI59:
 315              		.loc 2 421 20 view .LVU95
 316              	.LBB60:
 317              		.loc 2 423 23 view .LVU96
 318              		.loc 2 424 34 view .LVU97
 319              		.loc 2 430 3 view .LVU98
 320              		.loc 2 430 3 view .LVU99
 321              		.loc 2 430 3 view .LVU100
 322              		.loc 2 434 3 view .LVU101
 323              	.LBB61:
 324              	.LBI61:
 325              		.loc 3 830 27 view .LVU102
 326              		.loc 3 833 3 view .LVU103
 327              	.LBB62:
 328              	.LBI62:
 329              		.loc 4 491 27 view .LVU104
 330              	.LBB63:
 331              		.loc 4 493 3 view .LVU105
 332 0044 0023     		movs	r3, #0
 333              		.syntax unified
 334              	@ 493 "../../../os/common/ext/ARM/CMSIS/Core/Include/cmsis_gcc.h" 1
 335 0046 83F31188 		MSR basepri, r3
 336              	@ 0 "" 2
 337              	.LVL20:
 338              		.loc 4 493 3 is_stmt 0 view .LVU106
 339              		.thumb
 340              		.syntax unified
 341              	.LBE63:
 342              	.LBE62:
ARM GAS  C:\Users\DEVELO~1\AppData\Local\Temp\cceqLPme.s 			page 7


 343              	.LBE61:
 344              	.LBE60:
 345              	.LBE59:
 346              		.loc 1 163 3 is_stmt 1 view .LVU107
 347              	.L8:
 348              		.loc 1 164 1 is_stmt 0 view .LVU108
 349 004a 2046     		mov	r0, r4
 350 004c 06B0     		add	sp, sp, #24
 351              		.cfi_def_cfa_offset 24
 352              		@ sp needed
 353 004e BDE8F081 		pop	{r4, r5, r6, r7, r8, pc}
 354              		.loc 1 164 1 view .LVU109
 355              		.cfi_endproc
 356              	.LFE347:
 357              		.size	chThdCreateFromMemoryPool, .-chThdCreateFromMemoryPool
 358 0052 00BF     		.text
 359              	.Letext0:
 360              		.file 5 "c:\\chibistudio\\tools\\gnu tools arm embedded\\11.3 2022.08\\lib\\gcc\\arm-none-eabi\\11
 361              		.file 6 "c:\\chibistudio\\tools\\gnu tools arm embedded\\11.3 2022.08\\arm-none-eabi\\include\\mac
 362              		.file 7 "c:\\chibistudio\\tools\\gnu tools arm embedded\\11.3 2022.08\\arm-none-eabi\\include\\sys
 363              		.file 8 "../../../os/common/ports/ARM-common/chtypes.h"
 364              		.file 9 "../../../os/rt/include/chearly.h"
 365              		.file 10 "../../../os/rt/include/chobjects.h"
 366              		.file 11 "../../../os/rt/include/chrfcu.h"
 367              		.file 12 "../../../os/rt/include/chdebug.h"
 368              		.file 13 "../../../os/rt/include/chtime.h"
 369              		.file 14 "../../../os/rt/include/chlists.h"
 370              		.file 15 "../../../os/rt/include/chtrace.h"
 371              		.file 16 "../../../os/rt/include/chsem.h"
 372              		.file 17 "../../../os/rt/include/chmtx.h"
 373              		.file 18 "../../../os/rt/include/chthreads.h"
 374              		.file 19 "../../../os/oslib/include/chmemcore.h"
 375              		.file 20 "../../../os/oslib/include/chmemheaps.h"
 376              		.file 21 "../../../os/oslib/include/chmempools.h"
 377              		.file 22 "../../../os/rt/include/chschd.h"
 378              		.section	.debug_info,"",%progbits
 379              	.Ldebug_info0:
 380 0000 F10E0000 		.4byte	0xef1
 381 0004 0500     		.2byte	0x5
 382 0006 01       		.byte	0x1
 383 0007 04       		.byte	0x4
 384 0008 00000000 		.4byte	.Ldebug_abbrev0
 385 000c 29       		.uleb128 0x29
 386 000d D8020000 		.4byte	.LASF155
 387 0011 1D       		.byte	0x1d
 388 0012 E8050000 		.4byte	.LASF156
 389 0016 E4010000 		.4byte	.LASF157
 390 001a 27000000 		.4byte	.LLRL20
 391 001e 00000000 		.4byte	0
 392 0022 00000000 		.4byte	.Ldebug_line0
 393 0026 2A       		.uleb128 0x2a
 394 0027 04       		.byte	0x4
 395 0028 05       		.byte	0x5
 396 0029 696E7400 		.ascii	"int\000"
 397 002d 02       		.uleb128 0x2
 398 002e 15000000 		.4byte	.LASF4
 399 0032 05       		.byte	0x5
ARM GAS  C:\Users\DEVELO~1\AppData\Local\Temp\cceqLPme.s 			page 8


 400 0033 D1       		.byte	0xd1
 401 0034 17       		.byte	0x17
 402 0035 39000000 		.4byte	0x39
 403 0039 05       		.uleb128 0x5
 404 003a 04       		.byte	0x4
 405 003b 07       		.byte	0x7
 406 003c 8D020000 		.4byte	.LASF0
 407 0040 05       		.uleb128 0x5
 408 0041 08       		.byte	0x8
 409 0042 05       		.byte	0x5
 410 0043 D8000000 		.4byte	.LASF1
 411 0047 05       		.uleb128 0x5
 412 0048 08       		.byte	0x8
 413 0049 04       		.byte	0x4
 414 004a 0C060000 		.4byte	.LASF2
 415 004e 05       		.uleb128 0x5
 416 004f 01       		.byte	0x1
 417 0050 06       		.byte	0x6
 418 0051 E6000000 		.4byte	.LASF3
 419 0055 02       		.uleb128 0x2
 420 0056 2E000000 		.4byte	.LASF5
 421 005a 06       		.byte	0x6
 422 005b 2B       		.byte	0x2b
 423 005c 18       		.byte	0x18
 424 005d 61000000 		.4byte	0x61
 425 0061 05       		.uleb128 0x5
 426 0062 01       		.byte	0x1
 427 0063 08       		.byte	0x8
 428 0064 54050000 		.4byte	.LASF6
 429 0068 05       		.uleb128 0x5
 430 0069 02       		.byte	0x2
 431 006a 05       		.byte	0x5
 432 006b 75050000 		.4byte	.LASF7
 433 006f 02       		.uleb128 0x2
 434 0070 2B060000 		.4byte	.LASF8
 435 0074 06       		.byte	0x6
 436 0075 39       		.byte	0x39
 437 0076 19       		.byte	0x19
 438 0077 7B000000 		.4byte	0x7b
 439 007b 05       		.uleb128 0x5
 440 007c 02       		.byte	0x2
 441 007d 07       		.byte	0x7
 442 007e 9D030000 		.4byte	.LASF9
 443 0082 02       		.uleb128 0x2
 444 0083 F3030000 		.4byte	.LASF10
 445 0087 06       		.byte	0x6
 446 0088 4D       		.byte	0x4d
 447 0089 18       		.byte	0x18
 448 008a 8E000000 		.4byte	0x8e
 449 008e 05       		.uleb128 0x5
 450 008f 04       		.byte	0x4
 451 0090 05       		.byte	0x5
 452 0091 4D010000 		.4byte	.LASF11
 453 0095 02       		.uleb128 0x2
 454 0096 33020000 		.4byte	.LASF12
 455 009a 06       		.byte	0x6
 456 009b 4F       		.byte	0x4f
ARM GAS  C:\Users\DEVELO~1\AppData\Local\Temp\cceqLPme.s 			page 9


 457 009c 19       		.byte	0x19
 458 009d A1000000 		.4byte	0xa1
 459 00a1 05       		.uleb128 0x5
 460 00a2 04       		.byte	0x4
 461 00a3 07       		.byte	0x7
 462 00a4 F2000000 		.4byte	.LASF13
 463 00a8 02       		.uleb128 0x2
 464 00a9 01050000 		.4byte	.LASF14
 465 00ad 06       		.byte	0x6
 466 00ae 69       		.byte	0x69
 467 00af 19       		.byte	0x19
 468 00b0 B4000000 		.4byte	0xb4
 469 00b4 05       		.uleb128 0x5
 470 00b5 08       		.byte	0x8
 471 00b6 07       		.byte	0x7
 472 00b7 12010000 		.4byte	.LASF15
 473 00bb 02       		.uleb128 0x2
 474 00bc 2A070000 		.4byte	.LASF16
 475 00c0 07       		.byte	0x7
 476 00c1 18       		.byte	0x18
 477 00c2 13       		.byte	0x13
 478 00c3 55000000 		.4byte	0x55
 479 00c7 02       		.uleb128 0x2
 480 00c8 A4010000 		.4byte	.LASF17
 481 00cc 07       		.byte	0x7
 482 00cd 24       		.byte	0x24
 483 00ce 14       		.byte	0x14
 484 00cf 6F000000 		.4byte	0x6f
 485 00d3 02       		.uleb128 0x2
 486 00d4 4C050000 		.4byte	.LASF18
 487 00d8 07       		.byte	0x7
 488 00d9 2C       		.byte	0x2c
 489 00da 13       		.byte	0x13
 490 00db 82000000 		.4byte	0x82
 491 00df 02       		.uleb128 0x2
 492 00e0 C8050000 		.4byte	.LASF19
 493 00e4 07       		.byte	0x7
 494 00e5 30       		.byte	0x30
 495 00e6 14       		.byte	0x14
 496 00e7 95000000 		.4byte	0x95
 497 00eb 02       		.uleb128 0x2
 498 00ec 91040000 		.4byte	.LASF20
 499 00f0 07       		.byte	0x7
 500 00f1 3C       		.byte	0x3c
 501 00f2 14       		.byte	0x14
 502 00f3 A8000000 		.4byte	0xa8
 503 00f7 1D       		.uleb128 0x1d
 504 00f8 EB000000 		.4byte	0xeb
 505 00fc 02       		.uleb128 0x2
 506 00fd D8050000 		.4byte	.LASF21
 507 0101 08       		.byte	0x8
 508 0102 48       		.byte	0x48
 509 0103 1D       		.byte	0x1d
 510 0104 EB000000 		.4byte	0xeb
 511 0108 02       		.uleb128 0x2
 512 0109 13040000 		.4byte	.LASF22
 513 010d 09       		.byte	0x9
ARM GAS  C:\Users\DEVELO~1\AppData\Local\Temp\cceqLPme.s 			page 10


 514 010e 50       		.byte	0x50
 515 010f 19       		.byte	0x19
 516 0110 FC000000 		.4byte	0xfc
 517 0114 02       		.uleb128 0x2
 518 0115 C9030000 		.4byte	.LASF23
 519 0119 09       		.byte	0x9
 520 011a 53       		.byte	0x53
 521 011b 19       		.byte	0x19
 522 011c BB000000 		.4byte	0xbb
 523 0120 02       		.uleb128 0x2
 524 0121 6A010000 		.4byte	.LASF24
 525 0125 09       		.byte	0x9
 526 0126 54       		.byte	0x54
 527 0127 19       		.byte	0x19
 528 0128 BB000000 		.4byte	0xbb
 529 012c 02       		.uleb128 0x2
 530 012d 1C050000 		.4byte	.LASF25
 531 0131 09       		.byte	0x9
 532 0132 55       		.byte	0x55
 533 0133 19       		.byte	0x19
 534 0134 BB000000 		.4byte	0xbb
 535 0138 02       		.uleb128 0x2
 536 0139 2E050000 		.4byte	.LASF26
 537 013d 09       		.byte	0x9
 538 013e 57       		.byte	0x57
 539 013f 19       		.byte	0x19
 540 0140 DF000000 		.4byte	0xdf
 541 0144 02       		.uleb128 0x2
 542 0145 BA030000 		.4byte	.LASF27
 543 0149 09       		.byte	0x9
 544 014a 58       		.byte	0x58
 545 014b 19       		.byte	0x19
 546 014c D3000000 		.4byte	0xd3
 547 0150 02       		.uleb128 0x2
 548 0151 E7030000 		.4byte	.LASF28
 549 0155 09       		.byte	0x9
 550 0156 5A       		.byte	0x5a
 551 0157 19       		.byte	0x19
 552 0158 DF000000 		.4byte	0xdf
 553 015c 02       		.uleb128 0x2
 554 015d 7E020000 		.4byte	.LASF29
 555 0161 09       		.byte	0x9
 556 0162 5C       		.byte	0x5c
 557 0163 19       		.byte	0x19
 558 0164 D3000000 		.4byte	0xd3
 559 0168 02       		.uleb128 0x2
 560 0169 12050000 		.4byte	.LASF30
 561 016d 09       		.byte	0x9
 562 016e 80       		.byte	0x80
 563 016f 12       		.byte	0x12
 564 0170 39000000 		.4byte	0x39
 565 0174 02       		.uleb128 0x2
 566 0175 36060000 		.4byte	.LASF31
 567 0179 09       		.byte	0x9
 568 017a 85       		.byte	0x85
 569 017b 1A       		.byte	0x1a
 570 017c 80010000 		.4byte	0x180
ARM GAS  C:\Users\DEVELO~1\AppData\Local\Temp\cceqLPme.s 			page 11


 571 0180 06       		.uleb128 0x6
 572 0181 B0030000 		.4byte	.LASF46
 573 0185 48       		.byte	0x48
 574 0186 0A       		.byte	0xa
 575 0187 9C       		.byte	0x9c
 576 0188 08       		.byte	0x8
 577 0189 5D020000 		.4byte	0x25d
 578 018d 08       		.uleb128 0x8
 579 018e 68647200 		.ascii	"hdr\000"
 580 0192 0A       		.byte	0xa
 581 0193 AD       		.byte	0xad
 582 0194 05       		.byte	0x5
 583 0195 21070000 		.4byte	0x721
 584 0199 00       		.byte	0
 585 019a 08       		.uleb128 0x8
 586 019b 63747800 		.ascii	"ctx\000"
 587 019f 0A       		.byte	0xa
 588 01a0 B1       		.byte	0xb1
 589 01a1 21       		.byte	0x21
 590 01a2 8C060000 		.4byte	0x68c
 591 01a6 0C       		.byte	0xc
 592 01a7 01       		.uleb128 0x1
 593 01a8 C6020000 		.4byte	.LASF32
 594 01ac 0A       		.byte	0xa
 595 01ad B6       		.byte	0xb6
 596 01ae 21       		.byte	0x21
 597 01af A3030000 		.4byte	0x3a3
 598 01b3 10       		.byte	0x10
 599 01b4 01       		.uleb128 0x1
 600 01b5 73010000 		.4byte	.LASF33
 601 01b9 0A       		.byte	0xa
 602 01ba BB       		.byte	0xbb
 603 01bb 22       		.byte	0x22
 604 01bc 23080000 		.4byte	0x823
 605 01c0 18       		.byte	0x18
 606 01c1 01       		.uleb128 0x1
 607 01c2 93030000 		.4byte	.LASF34
 608 01c6 0A       		.byte	0xa
 609 01c7 C0       		.byte	0xc0
 610 01c8 22       		.byte	0x22
 611 01c9 3D030000 		.4byte	0x33d
 612 01cd 1C       		.byte	0x1c
 613 01ce 01       		.uleb128 0x1
 614 01cf 18060000 		.4byte	.LASF35
 615 01d3 0A       		.byte	0xa
 616 01d4 C9       		.byte	0xc9
 617 01d5 22       		.byte	0x22
 618 01d6 28080000 		.4byte	0x828
 619 01da 20       		.byte	0x20
 620 01db 01       		.uleb128 0x1
 621 01dc 47010000 		.4byte	.LASF36
 622 01e0 0A       		.byte	0xa
 623 01e1 CE       		.byte	0xce
 624 01e2 21       		.byte	0x21
 625 01e3 20010000 		.4byte	0x120
 626 01e7 24       		.byte	0x24
 627 01e8 01       		.uleb128 0x1
ARM GAS  C:\Users\DEVELO~1\AppData\Local\Temp\cceqLPme.s 			page 12


 628 01e9 3E070000 		.4byte	.LASF37
 629 01ed 0A       		.byte	0xa
 630 01ee D2       		.byte	0xd2
 631 01ef 21       		.byte	0x21
 632 01f0 14010000 		.4byte	0x114
 633 01f4 25       		.byte	0x25
 634 01f5 01       		.uleb128 0x1
 635 01f6 24050000 		.4byte	.LASF38
 636 01fa 0A       		.byte	0xa
 637 01fb D7       		.byte	0xd7
 638 01fc 21       		.byte	0x21
 639 01fd 2C010000 		.4byte	0x12c
 640 0201 26       		.byte	0x26
 641 0202 09       		.uleb128 0x9
 642 0203 7500     		.ascii	"u\000"
 643 0205 0A       		.byte	0xa
 644 0206 2801     		.2byte	0x128
 645 0208 21       		.byte	0x21
 646 0209 4E070000 		.4byte	0x74e
 647 020d 28       		.byte	0x28
 648 020e 04       		.uleb128 0x4
 649 020f 43020000 		.4byte	.LASF39
 650 0213 2D01     		.2byte	0x12d
 651 0215 21       		.byte	0x21
 652 0216 77030000 		.4byte	0x377
 653 021a 2C       		.byte	0x2c
 654 021b 04       		.uleb128 0x4
 655 021c 84020000 		.4byte	.LASF40
 656 0220 3301     		.2byte	0x133
 657 0222 21       		.byte	0x21
 658 0223 A3030000 		.4byte	0x3a3
 659 0227 30       		.byte	0x30
 660 0228 04       		.uleb128 0x4
 661 0229 C0030000 		.4byte	.LASF41
 662 022d 3901     		.2byte	0x139
 663 022f 21       		.byte	0x21
 664 0230 50010000 		.4byte	0x150
 665 0234 38       		.byte	0x38
 666 0235 04       		.uleb128 0x4
 667 0236 84070000 		.4byte	.LASF42
 668 023a 4001     		.2byte	0x140
 669 023c 22       		.byte	0x22
 670 023d 1E080000 		.4byte	0x81e
 671 0241 3C       		.byte	0x3c
 672 0242 04       		.uleb128 0x4
 673 0243 30040000 		.4byte	.LASF43
 674 0247 4401     		.2byte	0x144
 675 0249 21       		.byte	0x21
 676 024a 38010000 		.4byte	0x138
 677 024e 40       		.byte	0x40
 678 024f 04       		.uleb128 0x4
 679 0250 FD060000 		.4byte	.LASF44
 680 0254 4B01     		.2byte	0x14b
 681 0256 22       		.byte	0x22
 682 0257 91040000 		.4byte	0x491
 683 025b 44       		.byte	0x44
 684 025c 00       		.byte	0
ARM GAS  C:\Users\DEVELO~1\AppData\Local\Temp\cceqLPme.s 			page 13


 685 025d 02       		.uleb128 0x2
 686 025e 91060000 		.4byte	.LASF45
 687 0262 09       		.byte	0x9
 688 0263 8A       		.byte	0x8a
 689 0264 1F       		.byte	0x1f
 690 0265 69020000 		.4byte	0x269
 691 0269 2B       		.uleb128 0x2b
 692 026a 82060000 		.4byte	.LASF47
 693 026e 9008     		.2byte	0x890
 694 0270 0A       		.byte	0xa
 695 0271 8A01     		.2byte	0x18a
 696 0273 08       		.byte	0x8
 697 0274 EF020000 		.4byte	0x2ef
 698 0278 04       		.uleb128 0x4
 699 0279 24070000 		.4byte	.LASF48
 700 027d 8E01     		.2byte	0x18e
 701 027f 21       		.byte	0x21
 702 0280 56080000 		.4byte	0x856
 703 0284 00       		.byte	0
 704 0285 04       		.uleb128 0x4
 705 0286 4F000000 		.4byte	.LASF49
 706 028a 9201     		.2byte	0x192
 707 028c 21       		.byte	0x21
 708 028d E2060000 		.4byte	0x6e2
 709 0291 10       		.byte	0x10
 710 0292 04       		.uleb128 0x4
 711 0293 9F060000 		.4byte	.LASF50
 712 0297 9901     		.2byte	0x199
 713 0299 21       		.byte	0x21
 714 029a 09070000 		.4byte	0x709
 715 029e 28       		.byte	0x28
 716 029f 04       		.uleb128 0x4
 717 02a0 76020000 		.4byte	.LASF51
 718 02a4 9E01     		.2byte	0x19e
 719 02a6 21       		.byte	0x21
 720 02a7 68010000 		.4byte	0x168
 721 02ab 30       		.byte	0x30
 722 02ac 04       		.uleb128 0x4
 723 02ad 29000000 		.4byte	.LASF52
 724 02b1 A401     		.2byte	0x1a4
 725 02b3 21       		.byte	0x21
 726 02b4 16030000 		.4byte	0x316
 727 02b8 34       		.byte	0x34
 728 02b9 04       		.uleb128 0x4
 729 02ba 24060000 		.4byte	.LASF53
 730 02be A901     		.2byte	0x1a9
 731 02c0 22       		.byte	0x22
 732 02c1 C1080000 		.4byte	0x8c1
 733 02c5 38       		.byte	0x38
 734 02c6 04       		.uleb128 0x4
 735 02c7 A6000000 		.4byte	.LASF54
 736 02cb AD01     		.2byte	0x1ad
 737 02cd 21       		.byte	0x21
 738 02ce 74010000 		.4byte	0x174
 739 02d2 3C       		.byte	0x3c
 740 02d3 09       		.uleb128 0x9
 741 02d4 64626700 		.ascii	"dbg\000"
ARM GAS  C:\Users\DEVELO~1\AppData\Local\Temp\cceqLPme.s 			page 14


 742 02d8 0A       		.byte	0xa
 743 02d9 B101     		.2byte	0x1b1
 744 02db 21       		.byte	0x21
 745 02dc 53030000 		.4byte	0x353
 746 02e0 84       		.byte	0x84
 747 02e1 04       		.uleb128 0x4
 748 02e2 4D070000 		.4byte	.LASF55
 749 02e6 B601     		.2byte	0x1b6
 750 02e8 21       		.byte	0x21
 751 02e9 EC050000 		.4byte	0x5ec
 752 02ed 88       		.byte	0x88
 753 02ee 00       		.byte	0
 754 02ef 02       		.uleb128 0x2
 755 02f0 39040000 		.4byte	.LASF56
 756 02f4 0B       		.byte	0xb
 757 02f5 3F       		.byte	0x3f
 758 02f6 12       		.byte	0x12
 759 02f7 DF000000 		.4byte	0xdf
 760 02fb 06       		.uleb128 0x6
 761 02fc 79010000 		.4byte	.LASF57
 762 0300 04       		.byte	0x4
 763 0301 0B       		.byte	0xb
 764 0302 44       		.byte	0x44
 765 0303 10       		.byte	0x10
 766 0304 16030000 		.4byte	0x316
 767 0308 01       		.uleb128 0x1
 768 0309 3E020000 		.4byte	.LASF58
 769 030d 0B       		.byte	0xb
 770 030e 48       		.byte	0x48
 771 030f 21       		.byte	0x21
 772 0310 EF020000 		.4byte	0x2ef
 773 0314 00       		.byte	0
 774 0315 00       		.byte	0
 775 0316 02       		.uleb128 0x2
 776 0317 6E050000 		.4byte	.LASF59
 777 031b 0B       		.byte	0xb
 778 031c 49       		.byte	0x49
 779 031d 03       		.byte	0x3
 780 031e FB020000 		.4byte	0x2fb
 781 0322 06       		.uleb128 0x6
 782 0323 36050000 		.4byte	.LASF60
 783 0327 04       		.byte	0x4
 784 0328 0C       		.byte	0xc
 785 0329 3E       		.byte	0x3e
 786 032a 10       		.byte	0x10
 787 032b 3D030000 		.4byte	0x33d
 788 032f 01       		.uleb128 0x1
 789 0330 71060000 		.4byte	.LASF61
 790 0334 0C       		.byte	0xc
 791 0335 46       		.byte	0x46
 792 0336 24       		.byte	0x24
 793 0337 42030000 		.4byte	0x342
 794 033b 00       		.byte	0
 795 033c 00       		.byte	0
 796 033d 03       		.uleb128 0x3
 797 033e 4E030000 		.4byte	0x34e
 798 0342 1D       		.uleb128 0x1d
ARM GAS  C:\Users\DEVELO~1\AppData\Local\Temp\cceqLPme.s 			page 15


 799 0343 3D030000 		.4byte	0x33d
 800 0347 05       		.uleb128 0x5
 801 0348 01       		.byte	0x1
 802 0349 08       		.byte	0x8
 803 034a 1F060000 		.4byte	.LASF62
 804 034e 0F       		.uleb128 0xf
 805 034f 47030000 		.4byte	0x347
 806 0353 02       		.uleb128 0x2
 807 0354 B1020000 		.4byte	.LASF63
 808 0358 0C       		.byte	0xc
 809 0359 51       		.byte	0x51
 810 035a 03       		.byte	0x3
 811 035b 22030000 		.4byte	0x322
 812 035f 02       		.uleb128 0x2
 813 0360 45060000 		.4byte	.LASF64
 814 0364 0D       		.byte	0xd
 815 0365 6D       		.byte	0x6d
 816 0366 12       		.byte	0x12
 817 0367 DF000000 		.4byte	0xdf
 818 036b 02       		.uleb128 0x2
 819 036c C5000000 		.4byte	.LASF65
 820 0370 0D       		.byte	0xd
 821 0371 79       		.byte	0x79
 822 0372 12       		.byte	0x12
 823 0373 DF000000 		.4byte	0xdf
 824 0377 02       		.uleb128 0x2
 825 0378 7D040000 		.4byte	.LASF66
 826 037c 0E       		.byte	0xe
 827 037d 32       		.byte	0x32
 828 037e 18       		.byte	0x18
 829 037f 83030000 		.4byte	0x383
 830 0383 06       		.uleb128 0x6
 831 0384 D1030000 		.4byte	.LASF67
 832 0388 04       		.byte	0x4
 833 0389 0E       		.byte	0xe
 834 038a 38       		.byte	0x38
 835 038b 08       		.byte	0x8
 836 038c 9E030000 		.4byte	0x39e
 837 0390 01       		.uleb128 0x1
 838 0391 D3000000 		.4byte	.LASF68
 839 0395 0E       		.byte	0xe
 840 0396 39       		.byte	0x39
 841 0397 1A       		.byte	0x1a
 842 0398 9E030000 		.4byte	0x39e
 843 039c 00       		.byte	0
 844 039d 00       		.byte	0
 845 039e 03       		.uleb128 0x3
 846 039f 77030000 		.4byte	0x377
 847 03a3 02       		.uleb128 0x2
 848 03a4 CD020000 		.4byte	.LASF69
 849 03a8 0E       		.byte	0xe
 850 03a9 3F       		.byte	0x3f
 851 03aa 19       		.byte	0x19
 852 03ab AF030000 		.4byte	0x3af
 853 03af 06       		.uleb128 0x6
 854 03b0 9B010000 		.4byte	.LASF70
 855 03b4 08       		.byte	0x8
ARM GAS  C:\Users\DEVELO~1\AppData\Local\Temp\cceqLPme.s 			page 16


 856 03b5 0E       		.byte	0xe
 857 03b6 45       		.byte	0x45
 858 03b7 08       		.byte	0x8
 859 03b8 D7030000 		.4byte	0x3d7
 860 03bc 01       		.uleb128 0x1
 861 03bd D3000000 		.4byte	.LASF68
 862 03c1 0E       		.byte	0xe
 863 03c2 46       		.byte	0x46
 864 03c3 1A       		.byte	0x1a
 865 03c4 D7030000 		.4byte	0x3d7
 866 03c8 00       		.byte	0
 867 03c9 01       		.uleb128 0x1
 868 03ca 38000000 		.4byte	.LASF71
 869 03ce 0E       		.byte	0xe
 870 03cf 47       		.byte	0x47
 871 03d0 1A       		.byte	0x1a
 872 03d1 D7030000 		.4byte	0x3d7
 873 03d5 04       		.byte	0x4
 874 03d6 00       		.byte	0
 875 03d7 03       		.uleb128 0x3
 876 03d8 A3030000 		.4byte	0x3a3
 877 03dc 02       		.uleb128 0x2
 878 03dd 5D060000 		.4byte	.LASF72
 879 03e1 0E       		.byte	0xe
 880 03e2 4E       		.byte	0x4e
 881 03e3 22       		.byte	0x22
 882 03e4 E8030000 		.4byte	0x3e8
 883 03e8 06       		.uleb128 0x6
 884 03e9 AC060000 		.4byte	.LASF73
 885 03ed 0C       		.byte	0xc
 886 03ee 0E       		.byte	0xe
 887 03ef 55       		.byte	0x55
 888 03f0 08       		.byte	0x8
 889 03f1 1D040000 		.4byte	0x41d
 890 03f5 01       		.uleb128 0x1
 891 03f6 D3000000 		.4byte	.LASF68
 892 03fa 0E       		.byte	0xe
 893 03fb 56       		.byte	0x56
 894 03fc 1A       		.byte	0x1a
 895 03fd 1D040000 		.4byte	0x41d
 896 0401 00       		.byte	0
 897 0402 01       		.uleb128 0x1
 898 0403 38000000 		.4byte	.LASF71
 899 0407 0E       		.byte	0xe
 900 0408 57       		.byte	0x57
 901 0409 1A       		.byte	0x1a
 902 040a 1D040000 		.4byte	0x41d
 903 040e 04       		.byte	0x4
 904 040f 01       		.uleb128 0x1
 905 0410 EF040000 		.4byte	.LASF74
 906 0414 0E       		.byte	0xe
 907 0415 58       		.byte	0x58
 908 0416 19       		.byte	0x19
 909 0417 38010000 		.4byte	0x138
 910 041b 08       		.byte	0x8
 911 041c 00       		.byte	0
 912 041d 03       		.uleb128 0x3
ARM GAS  C:\Users\DEVELO~1\AppData\Local\Temp\cceqLPme.s 			page 17


 913 041e DC030000 		.4byte	0x3dc
 914 0422 02       		.uleb128 0x2
 915 0423 D1060000 		.4byte	.LASF75
 916 0427 0E       		.byte	0xe
 917 0428 5F       		.byte	0x5f
 918 0429 1E       		.byte	0x1e
 919 042a 2E040000 		.4byte	0x42e
 920 042e 06       		.uleb128 0x6
 921 042f 04010000 		.4byte	.LASF76
 922 0433 0C       		.byte	0xc
 923 0434 0E       		.byte	0xe
 924 0435 64       		.byte	0x64
 925 0436 08       		.byte	0x8
 926 0437 63040000 		.4byte	0x463
 927 043b 01       		.uleb128 0x1
 928 043c D3000000 		.4byte	.LASF68
 929 0440 0E       		.byte	0xe
 930 0441 65       		.byte	0x65
 931 0442 1A       		.byte	0x1a
 932 0443 63040000 		.4byte	0x463
 933 0447 00       		.byte	0
 934 0448 01       		.uleb128 0x1
 935 0449 38000000 		.4byte	.LASF71
 936 044d 0E       		.byte	0xe
 937 044e 66       		.byte	0x66
 938 044f 1A       		.byte	0x1a
 939 0450 63040000 		.4byte	0x463
 940 0454 04       		.byte	0x4
 941 0455 01       		.uleb128 0x1
 942 0456 B9000000 		.4byte	.LASF77
 943 045a 0E       		.byte	0xe
 944 045b 67       		.byte	0x67
 945 045c 19       		.byte	0x19
 946 045d 6B030000 		.4byte	0x36b
 947 0461 08       		.byte	0x8
 948 0462 00       		.byte	0
 949 0463 03       		.uleb128 0x3
 950 0464 22040000 		.4byte	0x422
 951 0468 0A       		.uleb128 0xa
 952 0469 08       		.byte	0x8
 953 046a 0F       		.byte	0xf
 954 046b 83       		.byte	0x83
 955 046c 05       		.byte	0x5
 956 046d 8C040000 		.4byte	0x48c
 957 0471 08       		.uleb128 0x8
 958 0472 6E747000 		.ascii	"ntp\000"
 959 0476 0F       		.byte	0xf
 960 0477 87       		.byte	0x87
 961 0478 1E       		.byte	0x1e
 962 0479 8C040000 		.4byte	0x48c
 963 047d 00       		.byte	0
 964 047e 01       		.uleb128 0x1
 965 047f 88050000 		.4byte	.LASF78
 966 0483 0F       		.byte	0xf
 967 0484 8B       		.byte	0x8b
 968 0485 1E       		.byte	0x1e
 969 0486 91040000 		.4byte	0x491
ARM GAS  C:\Users\DEVELO~1\AppData\Local\Temp\cceqLPme.s 			page 18


 970 048a 04       		.byte	0x4
 971 048b 00       		.byte	0
 972 048c 03       		.uleb128 0x3
 973 048d 74010000 		.4byte	0x174
 974 0491 2C       		.uleb128 0x2c
 975 0492 04       		.byte	0x4
 976 0493 0A       		.uleb128 0xa
 977 0494 08       		.byte	0x8
 978 0495 0F       		.byte	0xf
 979 0496 90       		.byte	0x90
 980 0497 05       		.byte	0x5
 981 0498 B6040000 		.4byte	0x4b6
 982 049c 08       		.uleb128 0x8
 983 049d 747000   		.ascii	"tp\000"
 984 04a0 0F       		.byte	0xf
 985 04a1 94       		.byte	0x94
 986 04a2 1E       		.byte	0x1e
 987 04a3 8C040000 		.4byte	0x48c
 988 04a7 00       		.byte	0
 989 04a8 08       		.uleb128 0x8
 990 04a9 6D736700 		.ascii	"msg\000"
 991 04ad 0F       		.byte	0xf
 992 04ae 98       		.byte	0x98
 993 04af 1D       		.byte	0x1d
 994 04b0 44010000 		.4byte	0x144
 995 04b4 04       		.byte	0x4
 996 04b5 00       		.byte	0
 997 04b6 0A       		.uleb128 0xa
 998 04b7 04       		.byte	0x4
 999 04b8 0F       		.byte	0xf
 1000 04b9 9D       		.byte	0x9d
 1001 04ba 05       		.byte	0x5
 1002 04bb CD040000 		.4byte	0x4cd
 1003 04bf 01       		.uleb128 0x1
 1004 04c0 93030000 		.4byte	.LASF34
 1005 04c4 0F       		.byte	0xf
 1006 04c5 A1       		.byte	0xa1
 1007 04c6 1E       		.byte	0x1e
 1008 04c7 3D030000 		.4byte	0x33d
 1009 04cb 00       		.byte	0
 1010 04cc 00       		.byte	0
 1011 04cd 0A       		.uleb128 0xa
 1012 04ce 04       		.byte	0x4
 1013 04cf 0F       		.byte	0xf
 1014 04d0 A6       		.byte	0xa6
 1015 04d1 05       		.byte	0x5
 1016 04d2 E4040000 		.4byte	0x4e4
 1017 04d6 01       		.uleb128 0x1
 1018 04d7 A9050000 		.4byte	.LASF79
 1019 04db 0F       		.byte	0xf
 1020 04dc AA       		.byte	0xaa
 1021 04dd 1E       		.byte	0x1e
 1022 04de 3D030000 		.4byte	0x33d
 1023 04e2 00       		.byte	0
 1024 04e3 00       		.byte	0
 1025 04e4 0A       		.uleb128 0xa
 1026 04e5 08       		.byte	0x8
ARM GAS  C:\Users\DEVELO~1\AppData\Local\Temp\cceqLPme.s 			page 19


 1027 04e6 0F       		.byte	0xf
 1028 04e7 AF       		.byte	0xaf
 1029 04e8 05       		.byte	0x5
 1030 04e9 08050000 		.4byte	0x508
 1031 04ed 08       		.uleb128 0x8
 1032 04ee 75703100 		.ascii	"up1\000"
 1033 04f2 0F       		.byte	0xf
 1034 04f3 B3       		.byte	0xb3
 1035 04f4 1E       		.byte	0x1e
 1036 04f5 91040000 		.4byte	0x491
 1037 04f9 00       		.byte	0
 1038 04fa 08       		.uleb128 0x8
 1039 04fb 75703200 		.ascii	"up2\000"
 1040 04ff 0F       		.byte	0xf
 1041 0500 B7       		.byte	0xb7
 1042 0501 1E       		.byte	0x1e
 1043 0502 91040000 		.4byte	0x491
 1044 0506 04       		.byte	0x4
 1045 0507 00       		.byte	0
 1046 0508 16       		.uleb128 0x16
 1047 0509 08       		.byte	0x8
 1048 050a 0F       		.byte	0xf
 1049 050b 7F       		.byte	0x7f
 1050 050c 46050000 		.4byte	0x546
 1051 0510 17       		.uleb128 0x17
 1052 0511 737700   		.ascii	"sw\000"
 1053 0514 8C       		.byte	0x8c
 1054 0515 68040000 		.4byte	0x468
 1055 0519 17       		.uleb128 0x17
 1056 051a 72647900 		.ascii	"rdy\000"
 1057 051e 99       		.byte	0x99
 1058 051f 93040000 		.4byte	0x493
 1059 0523 17       		.uleb128 0x17
 1060 0524 69737200 		.ascii	"isr\000"
 1061 0528 A2       		.byte	0xa2
 1062 0529 B6040000 		.4byte	0x4b6
 1063 052d 0C       		.uleb128 0xc
 1064 052e 98000000 		.4byte	.LASF80
 1065 0532 0F       		.byte	0xf
 1066 0533 AB       		.byte	0xab
 1067 0534 07       		.byte	0x7
 1068 0535 CD040000 		.4byte	0x4cd
 1069 0539 0C       		.uleb128 0xc
 1070 053a 29050000 		.4byte	.LASF81
 1071 053e 0F       		.byte	0xf
 1072 053f B8       		.byte	0xb8
 1073 0540 07       		.byte	0x7
 1074 0541 E4040000 		.4byte	0x4e4
 1075 0545 00       		.byte	0
 1076 0546 0A       		.uleb128 0xa
 1077 0547 10       		.byte	0x10
 1078 0548 0F       		.byte	0xf
 1079 0549 6C       		.byte	0x6c
 1080 054a 09       		.byte	0x9
 1081 054b 8C050000 		.4byte	0x58c
 1082 054f 18       		.uleb128 0x18
 1083 0550 5F000000 		.4byte	.LASF82
ARM GAS  C:\Users\DEVELO~1\AppData\Local\Temp\cceqLPme.s 			page 20


 1084 0554 70       		.byte	0x70
 1085 0555 DF000000 		.4byte	0xdf
 1086 0559 03       		.byte	0x3
 1087 055a 00       		.byte	0
 1088 055b 18       		.uleb128 0x18
 1089 055c 47010000 		.4byte	.LASF36
 1090 0560 74       		.byte	0x74
 1091 0561 DF000000 		.4byte	0xdf
 1092 0565 05       		.byte	0x5
 1093 0566 03       		.byte	0x3
 1094 0567 18       		.uleb128 0x18
 1095 0568 1E040000 		.4byte	.LASF83
 1096 056c 7A       		.byte	0x7a
 1097 056d DF000000 		.4byte	0xdf
 1098 0571 18       		.byte	0x18
 1099 0572 08       		.byte	0x8
 1100 0573 01       		.uleb128 0x1
 1101 0574 EA040000 		.4byte	.LASF84
 1102 0578 0F       		.byte	0xf
 1103 0579 7E       		.byte	0x7e
 1104 057a 19       		.byte	0x19
 1105 057b 5F030000 		.4byte	0x35f
 1106 057f 04       		.byte	0x4
 1107 0580 08       		.uleb128 0x8
 1108 0581 7500     		.ascii	"u\000"
 1109 0583 0F       		.byte	0xf
 1110 0584 B9       		.byte	0xb9
 1111 0585 05       		.byte	0x5
 1112 0586 08050000 		.4byte	0x508
 1113 058a 08       		.byte	0x8
 1114 058b 00       		.byte	0
 1115 058c 02       		.uleb128 0x2
 1116 058d 78000000 		.4byte	.LASF85
 1117 0591 0F       		.byte	0xf
 1118 0592 BA       		.byte	0xba
 1119 0593 03       		.byte	0x3
 1120 0594 46050000 		.4byte	0x546
 1121 0598 2D       		.uleb128 0x2d
 1122 0599 0808     		.2byte	0x808
 1123 059b 0F       		.byte	0xf
 1124 059c C0       		.byte	0xc0
 1125 059d 09       		.byte	0x9
 1126 059e D7050000 		.4byte	0x5d7
 1127 05a2 01       		.uleb128 0x1
 1128 05a3 87040000 		.4byte	.LASF86
 1129 05a7 0F       		.byte	0xf
 1130 05a8 C4       		.byte	0xc4
 1131 05a9 19       		.byte	0x19
 1132 05aa C7000000 		.4byte	0xc7
 1133 05ae 00       		.byte	0
 1134 05af 01       		.uleb128 0x1
 1135 05b0 98030000 		.4byte	.LASF87
 1136 05b4 0F       		.byte	0xf
 1137 05b5 C8       		.byte	0xc8
 1138 05b6 19       		.byte	0x19
 1139 05b7 C7000000 		.4byte	0xc7
 1140 05bb 02       		.byte	0x2
ARM GAS  C:\Users\DEVELO~1\AppData\Local\Temp\cceqLPme.s 			page 21


 1141 05bc 08       		.uleb128 0x8
 1142 05bd 70747200 		.ascii	"ptr\000"
 1143 05c1 0F       		.byte	0xf
 1144 05c2 CC       		.byte	0xcc
 1145 05c3 1A       		.byte	0x1a
 1146 05c4 D7050000 		.4byte	0x5d7
 1147 05c8 04       		.byte	0x4
 1148 05c9 01       		.uleb128 0x1
 1149 05ca CF010000 		.4byte	.LASF88
 1150 05ce 0F       		.byte	0xf
 1151 05cf D0       		.byte	0xd0
 1152 05d0 19       		.byte	0x19
 1153 05d1 DC050000 		.4byte	0x5dc
 1154 05d5 08       		.byte	0x8
 1155 05d6 00       		.byte	0
 1156 05d7 03       		.uleb128 0x3
 1157 05d8 8C050000 		.4byte	0x58c
 1158 05dc 19       		.uleb128 0x19
 1159 05dd 8C050000 		.4byte	0x58c
 1160 05e1 EC050000 		.4byte	0x5ec
 1161 05e5 1A       		.uleb128 0x1a
 1162 05e6 39000000 		.4byte	0x39
 1163 05ea 7F       		.byte	0x7f
 1164 05eb 00       		.byte	0
 1165 05ec 02       		.uleb128 0x2
 1166 05ed B4010000 		.4byte	.LASF89
 1167 05f1 0F       		.byte	0xf
 1168 05f2 D1       		.byte	0xd1
 1169 05f3 03       		.byte	0x3
 1170 05f4 98050000 		.4byte	0x598
 1171 05f8 05       		.uleb128 0x5
 1172 05f9 04       		.byte	0x4
 1173 05fa 04       		.byte	0x4
 1174 05fb 0C050000 		.4byte	.LASF90
 1175 05ff 05       		.uleb128 0x5
 1176 0600 08       		.byte	0x8
 1177 0601 04       		.byte	0x4
 1178 0602 AD010000 		.4byte	.LASF91
 1179 0606 10       		.uleb128 0x10
 1180 0607 3D000000 		.4byte	.LASF92
 1181 060b 24       		.byte	0x24
 1182 060c 03       		.byte	0x3
 1183 060d E001     		.2byte	0x1e0
 1184 060f 08       		.byte	0x8
 1185 0610 8C060000 		.4byte	0x68c
 1186 0614 09       		.uleb128 0x9
 1187 0615 723400   		.ascii	"r4\000"
 1188 0618 03       		.byte	0x3
 1189 0619 F901     		.2byte	0x1f9
 1190 061b 11       		.byte	0x11
 1191 061c DF000000 		.4byte	0xdf
 1192 0620 00       		.byte	0
 1193 0621 09       		.uleb128 0x9
 1194 0622 723500   		.ascii	"r5\000"
 1195 0625 03       		.byte	0x3
 1196 0626 FA01     		.2byte	0x1fa
 1197 0628 11       		.byte	0x11
ARM GAS  C:\Users\DEVELO~1\AppData\Local\Temp\cceqLPme.s 			page 22


 1198 0629 DF000000 		.4byte	0xdf
 1199 062d 04       		.byte	0x4
 1200 062e 09       		.uleb128 0x9
 1201 062f 723600   		.ascii	"r6\000"
 1202 0632 03       		.byte	0x3
 1203 0633 FB01     		.2byte	0x1fb
 1204 0635 11       		.byte	0x11
 1205 0636 DF000000 		.4byte	0xdf
 1206 063a 08       		.byte	0x8
 1207 063b 09       		.uleb128 0x9
 1208 063c 723700   		.ascii	"r7\000"
 1209 063f 03       		.byte	0x3
 1210 0640 FC01     		.2byte	0x1fc
 1211 0642 11       		.byte	0x11
 1212 0643 DF000000 		.4byte	0xdf
 1213 0647 0C       		.byte	0xc
 1214 0648 09       		.uleb128 0x9
 1215 0649 723800   		.ascii	"r8\000"
 1216 064c 03       		.byte	0x3
 1217 064d FD01     		.2byte	0x1fd
 1218 064f 11       		.byte	0x11
 1219 0650 DF000000 		.4byte	0xdf
 1220 0654 10       		.byte	0x10
 1221 0655 09       		.uleb128 0x9
 1222 0656 723900   		.ascii	"r9\000"
 1223 0659 03       		.byte	0x3
 1224 065a FE01     		.2byte	0x1fe
 1225 065c 11       		.byte	0x11
 1226 065d DF000000 		.4byte	0xdf
 1227 0661 14       		.byte	0x14
 1228 0662 09       		.uleb128 0x9
 1229 0663 72313000 		.ascii	"r10\000"
 1230 0667 03       		.byte	0x3
 1231 0668 FF01     		.2byte	0x1ff
 1232 066a 11       		.byte	0x11
 1233 066b DF000000 		.4byte	0xdf
 1234 066f 18       		.byte	0x18
 1235 0670 09       		.uleb128 0x9
 1236 0671 72313100 		.ascii	"r11\000"
 1237 0675 03       		.byte	0x3
 1238 0676 0002     		.2byte	0x200
 1239 0678 11       		.byte	0x11
 1240 0679 DF000000 		.4byte	0xdf
 1241 067d 1C       		.byte	0x1c
 1242 067e 09       		.uleb128 0x9
 1243 067f 6C7200   		.ascii	"lr\000"
 1244 0682 03       		.byte	0x3
 1245 0683 0102     		.2byte	0x201
 1246 0685 11       		.byte	0x11
 1247 0686 DF000000 		.4byte	0xdf
 1248 068a 20       		.byte	0x20
 1249 068b 00       		.byte	0
 1250 068c 10       		.uleb128 0x10
 1251 068d 69020000 		.4byte	.LASF93
 1252 0691 04       		.byte	0x4
 1253 0692 03       		.byte	0x3
 1254 0693 0A02     		.2byte	0x20a
ARM GAS  C:\Users\DEVELO~1\AppData\Local\Temp\cceqLPme.s 			page 23


 1255 0695 08       		.byte	0x8
 1256 0696 A8060000 		.4byte	0x6a8
 1257 069a 09       		.uleb128 0x9
 1258 069b 737000   		.ascii	"sp\000"
 1259 069e 03       		.byte	0x3
 1260 069f 0B02     		.2byte	0x20b
 1261 06a1 1A       		.byte	0x1a
 1262 06a2 A8060000 		.4byte	0x6a8
 1263 06a6 00       		.byte	0
 1264 06a7 00       		.byte	0
 1265 06a8 03       		.uleb128 0x3
 1266 06a9 06060000 		.4byte	0x606
 1267 06ad 06       		.uleb128 0x6
 1268 06ae 58040000 		.4byte	.LASF94
 1269 06b2 18       		.byte	0x18
 1270 06b3 0A       		.byte	0xa
 1271 06b4 64       		.byte	0x64
 1272 06b5 10       		.byte	0x10
 1273 06b6 E2060000 		.4byte	0x6e2
 1274 06ba 01       		.uleb128 0x1
 1275 06bb 3F060000 		.4byte	.LASF95
 1276 06bf 0A       		.byte	0xa
 1277 06c0 68       		.byte	0x68
 1278 06c1 21       		.byte	0x21
 1279 06c2 22040000 		.4byte	0x422
 1280 06c6 00       		.byte	0
 1281 06c7 01       		.uleb128 0x1
 1282 06c8 7F050000 		.4byte	.LASF96
 1283 06cc 0A       		.byte	0xa
 1284 06cd 73       		.byte	0x73
 1285 06ce 21       		.byte	0x21
 1286 06cf 5F030000 		.4byte	0x35f
 1287 06d3 0C       		.byte	0xc
 1288 06d4 01       		.uleb128 0x1
 1289 06d5 26040000 		.4byte	.LASF97
 1290 06d9 0A       		.byte	0xa
 1291 06da 79       		.byte	0x79
 1292 06db 21       		.byte	0x21
 1293 06dc F7000000 		.4byte	0xf7
 1294 06e0 10       		.byte	0x10
 1295 06e1 00       		.byte	0
 1296 06e2 02       		.uleb128 0x2
 1297 06e3 FD030000 		.4byte	.LASF98
 1298 06e7 0A       		.byte	0xa
 1299 06e8 7B       		.byte	0x7b
 1300 06e9 03       		.byte	0x3
 1301 06ea AD060000 		.4byte	0x6ad
 1302 06ee 06       		.uleb128 0x6
 1303 06ef C3010000 		.4byte	.LASF99
 1304 06f3 08       		.byte	0x8
 1305 06f4 0A       		.byte	0xa
 1306 06f5 80       		.byte	0x80
 1307 06f6 10       		.byte	0x10
 1308 06f7 09070000 		.4byte	0x709
 1309 06fb 01       		.uleb128 0x1
 1310 06fc 8D030000 		.4byte	.LASF100
 1311 0700 0A       		.byte	0xa
ARM GAS  C:\Users\DEVELO~1\AppData\Local\Temp\cceqLPme.s 			page 24


 1312 0701 84       		.byte	0x84
 1313 0702 21       		.byte	0x21
 1314 0703 A3030000 		.4byte	0x3a3
 1315 0707 00       		.byte	0
 1316 0708 00       		.byte	0
 1317 0709 02       		.uleb128 0x2
 1318 070a BD050000 		.4byte	.LASF101
 1319 070e 0A       		.byte	0xa
 1320 070f 85       		.byte	0x85
 1321 0710 03       		.byte	0x3
 1322 0711 EE060000 		.4byte	0x6ee
 1323 0715 02       		.uleb128 0x2
 1324 0716 45040000 		.4byte	.LASF102
 1325 071a 0A       		.byte	0xa
 1326 071b 8A       		.byte	0x8a
 1327 071c 14       		.byte	0x14
 1328 071d 8C040000 		.4byte	0x48c
 1329 0721 16       		.uleb128 0x16
 1330 0722 0C       		.byte	0xc
 1331 0723 0A       		.byte	0xa
 1332 0724 A0       		.byte	0xa0
 1333 0725 4E070000 		.4byte	0x74e
 1334 0729 0C       		.uleb128 0xc
 1335 072a 66070000 		.4byte	.LASF103
 1336 072e 0A       		.byte	0xa
 1337 072f A4       		.byte	0xa4
 1338 0730 21       		.byte	0x21
 1339 0731 77030000 		.4byte	0x377
 1340 0735 0C       		.uleb128 0xc
 1341 0736 8D030000 		.4byte	.LASF100
 1342 073a 0A       		.byte	0xa
 1343 073b A8       		.byte	0xa8
 1344 073c 21       		.byte	0x21
 1345 073d A3030000 		.4byte	0x3a3
 1346 0741 0C       		.uleb128 0xc
 1347 0742 7B060000 		.4byte	.LASF104
 1348 0746 0A       		.byte	0xa
 1349 0747 AC       		.byte	0xac
 1350 0748 21       		.byte	0x21
 1351 0749 DC030000 		.4byte	0x3dc
 1352 074d 00       		.byte	0
 1353 074e 16       		.uleb128 0x16
 1354 074f 04       		.byte	0x4
 1355 0750 0A       		.byte	0xa
 1356 0751 EB       		.byte	0xeb
 1357 0752 B7070000 		.4byte	0x7b7
 1358 0756 0C       		.uleb128 0xc
 1359 0757 1C000000 		.4byte	.LASF105
 1360 075b 0A       		.byte	0xa
 1361 075c F2       		.byte	0xf2
 1362 075d 21       		.byte	0x21
 1363 075e 44010000 		.4byte	0x144
 1364 0762 0C       		.uleb128 0xc
 1365 0763 9D000000 		.4byte	.LASF106
 1366 0767 0A       		.byte	0xa
 1367 0768 F9       		.byte	0xf9
 1368 0769 21       		.byte	0x21
ARM GAS  C:\Users\DEVELO~1\AppData\Local\Temp\cceqLPme.s 			page 25


 1369 076a 44010000 		.4byte	0x144
 1370 076e 0D       		.uleb128 0xd
 1371 076f 88050000 		.4byte	.LASF78
 1372 0773 0001     		.2byte	0x100
 1373 0775 22       		.byte	0x22
 1374 0776 91040000 		.4byte	0x491
 1375 077a 0D       		.uleb128 0xd
 1376 077b C0020000 		.4byte	.LASF107
 1377 077f 0701     		.2byte	0x107
 1378 0781 22       		.byte	0x22
 1379 0782 B7070000 		.4byte	0x7b7
 1380 0786 0D       		.uleb128 0xd
 1381 0787 B1000000 		.4byte	.LASF108
 1382 078b 0C01     		.2byte	0x10c
 1383 078d 21       		.byte	0x21
 1384 078e 44010000 		.4byte	0x144
 1385 0792 0D       		.uleb128 0xd
 1386 0793 AA020000 		.4byte	.LASF109
 1387 0797 1501     		.2byte	0x115
 1388 0799 22       		.byte	0x22
 1389 079a E4070000 		.4byte	0x7e4
 1390 079e 0D       		.uleb128 0xd
 1391 079f D1050000 		.4byte	.LASF110
 1392 07a3 1E01     		.2byte	0x11e
 1393 07a5 22       		.byte	0x22
 1394 07a6 1E080000 		.4byte	0x81e
 1395 07aa 0D       		.uleb128 0xd
 1396 07ab 8F050000 		.4byte	.LASF111
 1397 07af 2601     		.2byte	0x126
 1398 07b1 21       		.byte	0x21
 1399 07b2 50010000 		.4byte	0x150
 1400 07b6 00       		.byte	0
 1401 07b7 03       		.uleb128 0x3
 1402 07b8 15070000 		.4byte	0x715
 1403 07bc 06       		.uleb128 0x6
 1404 07bd B0050000 		.4byte	.LASF112
 1405 07c1 0C       		.byte	0xc
 1406 07c2 10       		.byte	0x10
 1407 07c3 34       		.byte	0x34
 1408 07c4 10       		.byte	0x10
 1409 07c5 E4070000 		.4byte	0x7e4
 1410 07c9 01       		.uleb128 0x1
 1411 07ca 8D030000 		.4byte	.LASF100
 1412 07ce 10       		.byte	0x10
 1413 07cf 35       		.byte	0x35
 1414 07d0 19       		.byte	0x19
 1415 07d1 A3030000 		.4byte	0x3a3
 1416 07d5 00       		.byte	0
 1417 07d6 08       		.uleb128 0x8
 1418 07d7 636E7400 		.ascii	"cnt\000"
 1419 07db 10       		.byte	0x10
 1420 07dc 37       		.byte	0x37
 1421 07dd 19       		.byte	0x19
 1422 07de 5C010000 		.4byte	0x15c
 1423 07e2 08       		.byte	0x8
 1424 07e3 00       		.byte	0
 1425 07e4 03       		.uleb128 0x3
ARM GAS  C:\Users\DEVELO~1\AppData\Local\Temp\cceqLPme.s 			page 26


 1426 07e5 BC070000 		.4byte	0x7bc
 1427 07e9 06       		.uleb128 0x6
 1428 07ea 44070000 		.4byte	.LASF113
 1429 07ee 10       		.byte	0x10
 1430 07ef 11       		.byte	0x11
 1431 07f0 39       		.byte	0x39
 1432 07f1 08       		.byte	0x8
 1433 07f2 1E080000 		.4byte	0x81e
 1434 07f6 01       		.uleb128 0x1
 1435 07f7 8D030000 		.4byte	.LASF100
 1436 07fb 11       		.byte	0x11
 1437 07fc 3A       		.byte	0x3a
 1438 07fd 19       		.byte	0x19
 1439 07fe A3030000 		.4byte	0x3a3
 1440 0802 00       		.byte	0
 1441 0803 01       		.uleb128 0x1
 1442 0804 73010000 		.4byte	.LASF33
 1443 0808 11       		.byte	0x11
 1444 0809 3C       		.byte	0x3c
 1445 080a 1A       		.byte	0x1a
 1446 080b 8C040000 		.4byte	0x48c
 1447 080f 08       		.byte	0x8
 1448 0810 01       		.uleb128 0x1
 1449 0811 D3000000 		.4byte	.LASF68
 1450 0815 11       		.byte	0x11
 1451 0816 3E       		.byte	0x3e
 1452 0817 1A       		.byte	0x1a
 1453 0818 57090000 		.4byte	0x957
 1454 081c 0C       		.byte	0xc
 1455 081d 00       		.byte	0
 1456 081e 03       		.uleb128 0x3
 1457 081f E9070000 		.4byte	0x7e9
 1458 0823 03       		.uleb128 0x3
 1459 0824 5D020000 		.4byte	0x25d
 1460 0828 03       		.uleb128 0x3
 1461 0829 08010000 		.4byte	0x108
 1462 082d 10       		.uleb128 0x10
 1463 082e D9030000 		.4byte	.LASF114
 1464 0832 10       		.byte	0x10
 1465 0833 0A       		.byte	0xa
 1466 0834 5C01     		.2byte	0x15c
 1467 0836 10       		.byte	0x10
 1468 0837 56080000 		.4byte	0x856
 1469 083b 04       		.uleb128 0x4
 1470 083c 7B060000 		.4byte	.LASF104
 1471 0840 6101     		.2byte	0x161
 1472 0842 21       		.byte	0x21
 1473 0843 DC030000 		.4byte	0x3dc
 1474 0847 00       		.byte	0
 1475 0848 04       		.uleb128 0x4
 1476 0849 F9040000 		.4byte	.LASF115
 1477 084d 6501     		.2byte	0x165
 1478 084f 22       		.byte	0x22
 1479 0850 8C040000 		.4byte	0x48c
 1480 0854 0C       		.byte	0xc
 1481 0855 00       		.byte	0
 1482 0856 1E       		.uleb128 0x1e
ARM GAS  C:\Users\DEVELO~1\AppData\Local\Temp\cceqLPme.s 			page 27


 1483 0857 08000000 		.4byte	.LASF116
 1484 085b 6601     		.2byte	0x166
 1485 085d 2D080000 		.4byte	0x82d
 1486 0861 10       		.uleb128 0x10
 1487 0862 B4040000 		.4byte	.LASF117
 1488 0866 14       		.byte	0x14
 1489 0867 0A       		.byte	0xa
 1490 0868 6B01     		.2byte	0x16b
 1491 086a 10       		.byte	0x10
 1492 086b B1080000 		.4byte	0x8b1
 1493 086f 04       		.uleb128 0x4
 1494 0870 93030000 		.4byte	.LASF34
 1495 0874 6F01     		.2byte	0x16f
 1496 0876 22       		.byte	0x22
 1497 0877 3D030000 		.4byte	0x33d
 1498 087b 00       		.byte	0
 1499 087c 04       		.uleb128 0x4
 1500 087d 4B020000 		.4byte	.LASF118
 1501 0881 7501     		.2byte	0x175
 1502 0883 22       		.byte	0x22
 1503 0884 28080000 		.4byte	0x828
 1504 0888 04       		.byte	0x4
 1505 0889 04       		.uleb128 0x4
 1506 088a E1060000 		.4byte	.LASF119
 1507 088e 7901     		.2byte	0x179
 1508 0890 22       		.byte	0x22
 1509 0891 28080000 		.4byte	0x828
 1510 0895 08       		.byte	0x8
 1511 0896 04       		.uleb128 0x4
 1512 0897 9A020000 		.4byte	.LASF120
 1513 089b 7F01     		.2byte	0x17f
 1514 089d 22       		.byte	0x22
 1515 089e 28080000 		.4byte	0x828
 1516 08a2 0C       		.byte	0xc
 1517 08a3 04       		.uleb128 0x4
 1518 08a4 75070000 		.4byte	.LASF121
 1519 08a8 8301     		.2byte	0x183
 1520 08aa 22       		.byte	0x22
 1521 08ab 28080000 		.4byte	0x828
 1522 08af 10       		.byte	0x10
 1523 08b0 00       		.byte	0
 1524 08b1 1E       		.uleb128 0x1e
 1525 08b2 03070000 		.4byte	.LASF122
 1526 08b6 8501     		.2byte	0x185
 1527 08b8 61080000 		.4byte	0x861
 1528 08bc 0F       		.uleb128 0xf
 1529 08bd B1080000 		.4byte	0x8b1
 1530 08c1 03       		.uleb128 0x3
 1531 08c2 BC080000 		.4byte	0x8bc
 1532 08c6 02       		.uleb128 0x2
 1533 08c7 00000000 		.4byte	.LASF123
 1534 08cb 12       		.byte	0x12
 1535 08cc 34       		.byte	0x34
 1536 08cd 10       		.byte	0x10
 1537 08ce D2080000 		.4byte	0x8d2
 1538 08d2 03       		.uleb128 0x3
 1539 08d3 D7080000 		.4byte	0x8d7
ARM GAS  C:\Users\DEVELO~1\AppData\Local\Temp\cceqLPme.s 			page 28


 1540 08d7 2E       		.uleb128 0x2e
 1541 08d8 E2080000 		.4byte	0x8e2
 1542 08dc 07       		.uleb128 0x7
 1543 08dd 91040000 		.4byte	0x491
 1544 08e1 00       		.byte	0
 1545 08e2 0A       		.uleb128 0xa
 1546 08e3 18       		.byte	0x18
 1547 08e4 12       		.byte	0x12
 1548 08e5 39       		.byte	0x39
 1549 08e6 09       		.byte	0x9
 1550 08e7 3A090000 		.4byte	0x93a
 1551 08eb 01       		.uleb128 0x1
 1552 08ec 93030000 		.4byte	.LASF34
 1553 08f0 12       		.byte	0x12
 1554 08f1 3D       		.byte	0x3d
 1555 08f2 16       		.byte	0x16
 1556 08f3 3D030000 		.4byte	0x33d
 1557 08f7 00       		.byte	0
 1558 08f8 01       		.uleb128 0x1
 1559 08f9 CA040000 		.4byte	.LASF124
 1560 08fd 12       		.byte	0x12
 1561 08fe 41       		.byte	0x41
 1562 08ff 16       		.byte	0x16
 1563 0900 28080000 		.4byte	0x828
 1564 0904 04       		.byte	0x4
 1565 0905 01       		.uleb128 0x1
 1566 0906 93000000 		.4byte	.LASF125
 1567 090a 12       		.byte	0x12
 1568 090b 45       		.byte	0x45
 1569 090c 16       		.byte	0x16
 1570 090d 28080000 		.4byte	0x828
 1571 0911 08       		.byte	0x8
 1572 0912 01       		.uleb128 0x1
 1573 0913 EF040000 		.4byte	.LASF74
 1574 0917 12       		.byte	0x12
 1575 0918 49       		.byte	0x49
 1576 0919 15       		.byte	0x15
 1577 091a 38010000 		.4byte	0x138
 1578 091e 0C       		.byte	0xc
 1579 091f 01       		.uleb128 0x1
 1580 0920 23000000 		.4byte	.LASF126
 1581 0924 12       		.byte	0x12
 1582 0925 4D       		.byte	0x4d
 1583 0926 15       		.byte	0x15
 1584 0927 C6080000 		.4byte	0x8c6
 1585 092b 10       		.byte	0x10
 1586 092c 08       		.uleb128 0x8
 1587 092d 61726700 		.ascii	"arg\000"
 1588 0931 12       		.byte	0x12
 1589 0932 51       		.byte	0x51
 1590 0933 16       		.byte	0x16
 1591 0934 91040000 		.4byte	0x491
 1592 0938 14       		.byte	0x14
 1593 0939 00       		.byte	0
 1594 093a 02       		.uleb128 0x2
 1595 093b 64000000 		.4byte	.LASF127
 1596 093f 12       		.byte	0x12
ARM GAS  C:\Users\DEVELO~1\AppData\Local\Temp\cceqLPme.s 			page 29


 1597 0940 58       		.byte	0x58
 1598 0941 03       		.byte	0x3
 1599 0942 E2080000 		.4byte	0x8e2
 1600 0946 0F       		.uleb128 0xf
 1601 0947 3A090000 		.4byte	0x93a
 1602 094b 02       		.uleb128 0x2
 1603 094c 5B020000 		.4byte	.LASF128
 1604 0950 11       		.byte	0x11
 1605 0951 34       		.byte	0x34
 1606 0952 19       		.byte	0x19
 1607 0953 E9070000 		.4byte	0x7e9
 1608 0957 03       		.uleb128 0x3
 1609 0958 4B090000 		.4byte	0x94b
 1610 095c 05       		.uleb128 0x5
 1611 095d 01       		.byte	0x1
 1612 095e 02       		.byte	0x2
 1613 095f 46050000 		.4byte	.LASF129
 1614 0963 02       		.uleb128 0x2
 1615 0964 86000000 		.4byte	.LASF130
 1616 0968 13       		.byte	0x13
 1617 0969 47       		.byte	0x47
 1618 096a 11       		.byte	0x11
 1619 096b 6F090000 		.4byte	0x96f
 1620 096f 03       		.uleb128 0x3
 1621 0970 74090000 		.4byte	0x974
 1622 0974 1F       		.uleb128 0x1f
 1623 0975 91040000 		.4byte	0x491
 1624 0979 88090000 		.4byte	0x988
 1625 097d 07       		.uleb128 0x7
 1626 097e 2D000000 		.4byte	0x2d
 1627 0982 07       		.uleb128 0x7
 1628 0983 39000000 		.4byte	0x39
 1629 0987 00       		.byte	0
 1630 0988 02       		.uleb128 0x2
 1631 0989 DC040000 		.4byte	.LASF131
 1632 098d 13       		.byte	0x13
 1633 098e 4C       		.byte	0x4c
 1634 098f 11       		.byte	0x11
 1635 0990 94090000 		.4byte	0x994
 1636 0994 03       		.uleb128 0x3
 1637 0995 99090000 		.4byte	0x999
 1638 0999 1F       		.uleb128 0x1f
 1639 099a 91040000 		.4byte	0x491
 1640 099e B2090000 		.4byte	0x9b2
 1641 09a2 07       		.uleb128 0x7
 1642 09a3 2D000000 		.4byte	0x2d
 1643 09a7 07       		.uleb128 0x7
 1644 09a8 39000000 		.4byte	0x39
 1645 09ac 07       		.uleb128 0x7
 1646 09ad 2D000000 		.4byte	0x2d
 1647 09b1 00       		.byte	0
 1648 09b2 02       		.uleb128 0x2
 1649 09b3 81010000 		.4byte	.LASF132
 1650 09b7 14       		.byte	0x14
 1651 09b8 48       		.byte	0x48
 1652 09b9 1C       		.byte	0x1c
 1653 09ba BE090000 		.4byte	0x9be
ARM GAS  C:\Users\DEVELO~1\AppData\Local\Temp\cceqLPme.s 			page 30


 1654 09be 06       		.uleb128 0x6
 1655 09bf 93070000 		.4byte	.LASF133
 1656 09c3 1C       		.byte	0x1c
 1657 09c4 14       		.byte	0x14
 1658 09c5 60       		.byte	0x60
 1659 09c6 08       		.byte	0x8
 1660 09c7 F3090000 		.4byte	0x9f3
 1661 09cb 01       		.uleb128 0x1
 1662 09cc 56000000 		.4byte	.LASF134
 1663 09d0 14       		.byte	0x14
 1664 09d1 61       		.byte	0x61
 1665 09d2 19       		.byte	0x19
 1666 09d3 88090000 		.4byte	0x988
 1667 09d7 00       		.byte	0
 1668 09d8 01       		.uleb128 0x1
 1669 09d9 8C070000 		.4byte	.LASF135
 1670 09dd 14       		.byte	0x14
 1671 09de 63       		.byte	0x63
 1672 09df 19       		.byte	0x19
 1673 09e0 F3090000 		.4byte	0x9f3
 1674 09e4 04       		.byte	0x4
 1675 09e5 08       		.uleb128 0x8
 1676 09e6 6D747800 		.ascii	"mtx\000"
 1677 09ea 14       		.byte	0x14
 1678 09eb 65       		.byte	0x65
 1679 09ec 19       		.byte	0x19
 1680 09ed 4B090000 		.4byte	0x94b
 1681 09f1 0C       		.byte	0xc
 1682 09f2 00       		.byte	0
 1683 09f3 02       		.uleb128 0x2
 1684 09f4 4F060000 		.4byte	.LASF136
 1685 09f8 14       		.byte	0x14
 1686 09f9 4D       		.byte	0x4d
 1687 09fa 1B       		.byte	0x1b
 1688 09fb FF090000 		.4byte	0x9ff
 1689 09ff 2F       		.uleb128 0x2f
 1690 0a00 62050000 		.4byte	.LASF158
 1691 0a04 08       		.byte	0x8
 1692 0a05 14       		.byte	0x14
 1693 0a06 52       		.byte	0x52
 1694 0a07 07       		.byte	0x7
 1695 0a08 250A0000 		.4byte	0xa25
 1696 0a0c 0C       		.uleb128 0xc
 1697 0a0d A7060000 		.4byte	.LASF137
 1698 0a11 14       		.byte	0x14
 1699 0a12 56       		.byte	0x56
 1700 0a13 05       		.byte	0x5
 1701 0a14 250A0000 		.4byte	0xa25
 1702 0a18 0C       		.uleb128 0xc
 1703 0a19 F4040000 		.4byte	.LASF138
 1704 0a1d 14       		.byte	0x14
 1705 0a1e 5A       		.byte	0x5a
 1706 0a1f 05       		.byte	0x5
 1707 0a20 4E0A0000 		.4byte	0xa4e
 1708 0a24 00       		.byte	0
 1709 0a25 0A       		.uleb128 0xa
 1710 0a26 08       		.byte	0x8
ARM GAS  C:\Users\DEVELO~1\AppData\Local\Temp\cceqLPme.s 			page 31


 1711 0a27 14       		.byte	0x14
 1712 0a28 53       		.byte	0x53
 1713 0a29 03       		.byte	0x3
 1714 0a2a 490A0000 		.4byte	0xa49
 1715 0a2e 01       		.uleb128 0x1
 1716 0a2f D3000000 		.4byte	.LASF68
 1717 0a33 14       		.byte	0x14
 1718 0a34 54       		.byte	0x54
 1719 0a35 1A       		.byte	0x1a
 1720 0a36 490A0000 		.4byte	0xa49
 1721 0a3a 00       		.byte	0
 1722 0a3b 01       		.uleb128 0x1
 1723 0a3c 49000000 		.4byte	.LASF139
 1724 0a40 14       		.byte	0x14
 1725 0a41 55       		.byte	0x55
 1726 0a42 19       		.byte	0x19
 1727 0a43 2D000000 		.4byte	0x2d
 1728 0a47 04       		.byte	0x4
 1729 0a48 00       		.byte	0
 1730 0a49 03       		.uleb128 0x3
 1731 0a4a F3090000 		.4byte	0x9f3
 1732 0a4e 0A       		.uleb128 0xa
 1733 0a4f 08       		.byte	0x8
 1734 0a50 14       		.byte	0x14
 1735 0a51 57       		.byte	0x57
 1736 0a52 03       		.byte	0x3
 1737 0a53 720A0000 		.4byte	0xa72
 1738 0a57 01       		.uleb128 0x1
 1739 0a58 07060000 		.4byte	.LASF140
 1740 0a5c 14       		.byte	0x14
 1741 0a5d 58       		.byte	0x58
 1742 0a5e 1A       		.byte	0x1a
 1743 0a5f 720A0000 		.4byte	0xa72
 1744 0a63 00       		.byte	0
 1745 0a64 01       		.uleb128 0x1
 1746 0a65 98030000 		.4byte	.LASF87
 1747 0a69 14       		.byte	0x14
 1748 0a6a 59       		.byte	0x59
 1749 0a6b 19       		.byte	0x19
 1750 0a6c 2D000000 		.4byte	0x2d
 1751 0a70 04       		.byte	0x4
 1752 0a71 00       		.byte	0
 1753 0a72 03       		.uleb128 0x3
 1754 0a73 B2090000 		.4byte	0x9b2
 1755 0a77 06       		.uleb128 0x6
 1756 0a78 18070000 		.4byte	.LASF141
 1757 0a7c 04       		.byte	0x4
 1758 0a7d 15       		.byte	0x15
 1759 0a7e 38       		.byte	0x38
 1760 0a7f 08       		.byte	0x8
 1761 0a80 920A0000 		.4byte	0xa92
 1762 0a84 01       		.uleb128 0x1
 1763 0a85 D3000000 		.4byte	.LASF68
 1764 0a89 15       		.byte	0x15
 1765 0a8a 39       		.byte	0x39
 1766 0a8b 1A       		.byte	0x1a
 1767 0a8c 920A0000 		.4byte	0xa92
ARM GAS  C:\Users\DEVELO~1\AppData\Local\Temp\cceqLPme.s 			page 32


 1768 0a90 00       		.byte	0
 1769 0a91 00       		.byte	0
 1770 0a92 03       		.uleb128 0x3
 1771 0a93 770A0000 		.4byte	0xa77
 1772 0a97 0A       		.uleb128 0xa
 1773 0a98 10       		.byte	0x10
 1774 0a99 15       		.byte	0x15
 1775 0a9a 40       		.byte	0x40
 1776 0a9b 09       		.byte	0x9
 1777 0a9c D50A0000 		.4byte	0xad5
 1778 0aa0 01       		.uleb128 0x1
 1779 0aa1 D3000000 		.4byte	.LASF68
 1780 0aa5 15       		.byte	0x15
 1781 0aa6 41       		.byte	0x41
 1782 0aa7 1A       		.byte	0x1a
 1783 0aa8 920A0000 		.4byte	0xa92
 1784 0aac 00       		.byte	0
 1785 0aad 01       		.uleb128 0x1
 1786 0aae D0040000 		.4byte	.LASF142
 1787 0ab2 15       		.byte	0x15
 1788 0ab3 42       		.byte	0x42
 1789 0ab4 19       		.byte	0x19
 1790 0ab5 2D000000 		.4byte	0x2d
 1791 0ab9 04       		.byte	0x4
 1792 0aba 01       		.uleb128 0x1
 1793 0abb 63020000 		.4byte	.LASF143
 1794 0abf 15       		.byte	0x15
 1795 0ac0 44       		.byte	0x44
 1796 0ac1 19       		.byte	0x19
 1797 0ac2 39000000 		.4byte	0x39
 1798 0ac6 08       		.byte	0x8
 1799 0ac7 01       		.uleb128 0x1
 1800 0ac8 56000000 		.4byte	.LASF134
 1801 0acc 15       		.byte	0x15
 1802 0acd 45       		.byte	0x45
 1803 0ace 19       		.byte	0x19
 1804 0acf 63090000 		.4byte	0x963
 1805 0ad3 0C       		.byte	0xc
 1806 0ad4 00       		.byte	0
 1807 0ad5 02       		.uleb128 0x2
 1808 0ad6 D6010000 		.4byte	.LASF144
 1809 0ada 15       		.byte	0x15
 1810 0adb 47       		.byte	0x47
 1811 0adc 03       		.byte	0x3
 1812 0add 970A0000 		.4byte	0xa97
 1813 0ae1 20       		.uleb128 0x20
 1814 0ae2 32070000 		.4byte	.LASF145
 1815 0ae6 15       		.byte	0x15
 1816 0ae7 9A       		.byte	0x9a
 1817 0ae8 91040000 		.4byte	0x491
 1818 0aec F60A0000 		.4byte	0xaf6
 1819 0af0 07       		.uleb128 0x7
 1820 0af1 F60A0000 		.4byte	0xaf6
 1821 0af5 00       		.byte	0
 1822 0af6 03       		.uleb128 0x3
 1823 0af7 D50A0000 		.4byte	0xad5
 1824 0afb 30       		.uleb128 0x30
ARM GAS  C:\Users\DEVELO~1\AppData\Local\Temp\cceqLPme.s 			page 33


 1825 0afc F0060000 		.4byte	.LASF159
 1826 0b00 16       		.byte	0x16
 1827 0b01 9A       		.byte	0x9a
 1828 0b02 08       		.byte	0x8
 1829 0b03 120B0000 		.4byte	0xb12
 1830 0b07 07       		.uleb128 0x7
 1831 0b08 8C040000 		.4byte	0x48c
 1832 0b0c 07       		.uleb128 0x7
 1833 0b0d 44010000 		.4byte	0x144
 1834 0b11 00       		.byte	0
 1835 0b12 31       		.uleb128 0x31
 1836 0b13 29010000 		.4byte	.LASF146
 1837 0b17 12       		.byte	0x12
 1838 0b18 2801     		.2byte	0x128
 1839 0b1a 0D       		.byte	0xd
 1840 0b1b 8C040000 		.4byte	0x48c
 1841 0b1f 290B0000 		.4byte	0xb29
 1842 0b23 07       		.uleb128 0x7
 1843 0b24 290B0000 		.4byte	0xb29
 1844 0b28 00       		.byte	0
 1845 0b29 03       		.uleb128 0x3
 1846 0b2a 46090000 		.4byte	0x946
 1847 0b2e 20       		.uleb128 0x20
 1848 0b2f BE060000 		.4byte	.LASF147
 1849 0b33 14       		.byte	0x14
 1850 0b34 7F       		.byte	0x7f
 1851 0b35 91040000 		.4byte	0x491
 1852 0b39 4D0B0000 		.4byte	0xb4d
 1853 0b3d 07       		.uleb128 0x7
 1854 0b3e 720A0000 		.4byte	0xa72
 1855 0b42 07       		.uleb128 0x7
 1856 0b43 2D000000 		.4byte	0x2d
 1857 0b47 07       		.uleb128 0x7
 1858 0b48 39000000 		.4byte	0x39
 1859 0b4c 00       		.byte	0
 1860 0b4d 21       		.uleb128 0x21
 1861 0b4e 9A040000 		.4byte	.LASF148
 1862 0b52 89       		.byte	0x89
 1863 0b53 8C040000 		.4byte	0x48c
 1864 0b57 00000000 		.4byte	.LFB347
 1865 0b5b 52000000 		.4byte	.LFE347-.LFB347
 1866 0b5f 01       		.uleb128 0x1
 1867 0b60 9C       		.byte	0x9c
 1868 0b61 DD0C0000 		.4byte	0xcdd
 1869 0b65 22       		.uleb128 0x22
 1870 0b66 6D7000   		.ascii	"mp\000"
 1871 0b69 89       		.byte	0x89
 1872 0b6a 34       		.byte	0x34
 1873 0b6b F60A0000 		.4byte	0xaf6
 1874 0b6f 10000000 		.4byte	.LLST10
 1875 0b73 0C000000 		.4byte	.LVUS10
 1876 0b77 0E       		.uleb128 0xe
 1877 0b78 93030000 		.4byte	.LASF34
 1878 0b7c 89       		.byte	0x89
 1879 0b7d 44       		.byte	0x44
 1880 0b7e 3D030000 		.4byte	0x33d
 1881 0b82 24000000 		.4byte	.LLST11
ARM GAS  C:\Users\DEVELO~1\AppData\Local\Temp\cceqLPme.s 			page 34


 1882 0b86 20000000 		.4byte	.LVUS11
 1883 0b8a 0E       		.uleb128 0xe
 1884 0b8b EF040000 		.4byte	.LASF74
 1885 0b8f 8A       		.byte	0x8a
 1886 0b90 2D       		.byte	0x2d
 1887 0b91 38010000 		.4byte	0x138
 1888 0b95 38000000 		.4byte	.LLST12
 1889 0b99 34000000 		.4byte	.LVUS12
 1890 0b9d 22       		.uleb128 0x22
 1891 0b9e 706600   		.ascii	"pf\000"
 1892 0ba1 8A       		.byte	0x8a
 1893 0ba2 3B       		.byte	0x3b
 1894 0ba3 C6080000 		.4byte	0x8c6
 1895 0ba7 4C000000 		.4byte	.LLST13
 1896 0bab 48000000 		.4byte	.LVUS13
 1897 0baf 1B       		.uleb128 0x1b
 1898 0bb0 61726700 		.ascii	"arg\000"
 1899 0bb4 8A       		.byte	0x8a
 1900 0bb5 45       		.byte	0x45
 1901 0bb6 91040000 		.4byte	0x491
 1902 0bba 02       		.uleb128 0x2
 1903 0bbb 91       		.byte	0x91
 1904 0bbc 00       		.sleb128 0
 1905 0bbd 23       		.uleb128 0x23
 1906 0bbe 747000   		.ascii	"tp\000"
 1907 0bc1 8B       		.byte	0x8b
 1908 0bc2 8C040000 		.4byte	0x48c
 1909 0bc6 60000000 		.4byte	.LLST14
 1910 0bca 5C000000 		.4byte	.LVUS14
 1911 0bce 11       		.uleb128 0x11
 1912 0bcf CA040000 		.4byte	.LASF124
 1913 0bd3 8C       		.byte	0x8c
 1914 0bd4 09       		.byte	0x9
 1915 0bd5 91040000 		.4byte	0x491
 1916 0bd9 74000000 		.4byte	.LLST15
 1917 0bdd 70000000 		.4byte	.LVUS15
 1918 0be1 11       		.uleb128 0x11
 1919 0be2 93000000 		.4byte	.LASF125
 1920 0be6 8C       		.byte	0x8c
 1921 0be7 11       		.byte	0x11
 1922 0be8 91040000 		.4byte	0x491
 1923 0bec 87000000 		.4byte	.LLST16
 1924 0bf0 85000000 		.4byte	.LVUS16
 1925 0bf4 24       		.uleb128 0x24
 1926 0bf5 96050000 		.4byte	.LASF151
 1927 0bf9 ED0C0000 		.4byte	0xced
 1928 0bfd 25       		.uleb128 0x25
 1929 0bfe 746400   		.ascii	"td\000"
 1930 0c01 96       		.byte	0x96
 1931 0c02 3A090000 		.4byte	0x93a
 1932 0c06 02       		.uleb128 0x2
 1933 0c07 91       		.byte	0x91
 1934 0c08 50       		.sleb128 -48
 1935 0c09 26       		.uleb128 0x26
 1936 0c0a C10E0000 		.4byte	0xec1
 1937 0c0e 1C000000 		.4byte	.LBI47
 1938 0c12 02       		.byte	.LVU70
ARM GAS  C:\Users\DEVELO~1\AppData\Local\Temp\cceqLPme.s 			page 35


 1939 0c13 18000000 		.4byte	.LLRL17
 1940 0c17 9C       		.byte	0x9c
 1941 0c18 4E0C0000 		.4byte	0xc4e
 1942 0c1c 12       		.uleb128 0x12
 1943 0c1d D30E0000 		.4byte	0xed3
 1944 0c21 1C000000 		.4byte	.LBI48
 1945 0c25 04       		.byte	.LVU72
 1946 0c26 18000000 		.4byte	.LLRL17
 1947 0c2a 02       		.byte	0x2
 1948 0c2b 9901     		.2byte	0x199
 1949 0c2d 12       		.uleb128 0x12
 1950 0c2e DC0E0000 		.4byte	0xedc
 1951 0c32 1C000000 		.4byte	.LBI49
 1952 0c36 06       		.byte	.LVU74
 1953 0c37 18000000 		.4byte	.LLRL17
 1954 0c3b 03       		.byte	0x3
 1955 0c3c 2E03     		.2byte	0x32e
 1956 0c3e 13       		.uleb128 0x13
 1957 0c3f E60E0000 		.4byte	0xee6
 1958 0c43 92000000 		.4byte	.LLST18
 1959 0c47 90000000 		.4byte	.LVUS18
 1960 0c4b 00       		.byte	0
 1961 0c4c 00       		.byte	0
 1962 0c4d 00       		.byte	0
 1963 0c4e 27       		.uleb128 0x27
 1964 0c4f 940E0000 		.4byte	0xe94
 1965 0c53 44000000 		.4byte	.LBI59
 1966 0c57 01       		.byte	.LVU95
 1967 0c58 44000000 		.4byte	.LBB59
 1968 0c5c 06000000 		.4byte	.LBE59-.LBB59
 1969 0c60 A1       		.byte	0xa1
 1970 0c61 9F0C0000 		.4byte	0xc9f
 1971 0c65 14       		.uleb128 0x14
 1972 0c66 CA0E0000 		.4byte	0xeca
 1973 0c6a 44000000 		.4byte	.LBI61
 1974 0c6e 08       		.byte	.LVU102
 1975 0c6f 44000000 		.4byte	.LBB61
 1976 0c73 06000000 		.4byte	.LBE61-.LBB61
 1977 0c77 02       		.byte	0x2
 1978 0c78 B201     		.2byte	0x1b2
 1979 0c7a 14       		.uleb128 0x14
 1980 0c7b DC0E0000 		.4byte	0xedc
 1981 0c7f 44000000 		.4byte	.LBI62
 1982 0c83 0A       		.byte	.LVU104
 1983 0c84 44000000 		.4byte	.LBB62
 1984 0c88 06000000 		.4byte	.LBE62-.LBB62
 1985 0c8c 03       		.byte	0x3
 1986 0c8d 4103     		.2byte	0x341
 1987 0c8f 13       		.uleb128 0x13
 1988 0c90 E60E0000 		.4byte	0xee6
 1989 0c94 9F000000 		.4byte	.LLST19
 1990 0c98 9D000000 		.4byte	.LVUS19
 1991 0c9c 00       		.byte	0
 1992 0c9d 00       		.byte	0
 1993 0c9e 00       		.byte	0
 1994 0c9f 15       		.uleb128 0x15
 1995 0ca0 12000000 		.4byte	.LVL13
ARM GAS  C:\Users\DEVELO~1\AppData\Local\Temp\cceqLPme.s 			page 36


 1996 0ca4 E10A0000 		.4byte	0xae1
 1997 0ca8 B30C0000 		.4byte	0xcb3
 1998 0cac 0B       		.uleb128 0xb
 1999 0cad 01       		.uleb128 0x1
 2000 0cae 50       		.byte	0x50
 2001 0caf 02       		.uleb128 0x2
 2002 0cb0 75       		.byte	0x75
 2003 0cb1 00       		.sleb128 0
 2004 0cb2 00       		.byte	0
 2005 0cb3 15       		.uleb128 0x15
 2006 0cb4 34000000 		.4byte	.LVL17
 2007 0cb8 120B0000 		.4byte	0xb12
 2008 0cbc C70C0000 		.4byte	0xcc7
 2009 0cc0 0B       		.uleb128 0xb
 2010 0cc1 01       		.uleb128 0x1
 2011 0cc2 50       		.byte	0x50
 2012 0cc3 02       		.uleb128 0x2
 2013 0cc4 7D       		.byte	0x7d
 2014 0cc5 00       		.sleb128 0
 2015 0cc6 00       		.byte	0
 2016 0cc7 28       		.uleb128 0x28
 2017 0cc8 44000000 		.4byte	.LVL19
 2018 0ccc FB0A0000 		.4byte	0xafb
 2019 0cd0 0B       		.uleb128 0xb
 2020 0cd1 01       		.uleb128 0x1
 2021 0cd2 50       		.byte	0x50
 2022 0cd3 02       		.uleb128 0x2
 2023 0cd4 74       		.byte	0x74
 2024 0cd5 00       		.sleb128 0
 2025 0cd6 0B       		.uleb128 0xb
 2026 0cd7 01       		.uleb128 0x1
 2027 0cd8 51       		.byte	0x51
 2028 0cd9 01       		.uleb128 0x1
 2029 0cda 30       		.byte	0x30
 2030 0cdb 00       		.byte	0
 2031 0cdc 00       		.byte	0
 2032 0cdd 19       		.uleb128 0x19
 2033 0cde 4E030000 		.4byte	0x34e
 2034 0ce2 ED0C0000 		.4byte	0xced
 2035 0ce6 1A       		.uleb128 0x1a
 2036 0ce7 39000000 		.4byte	0x39
 2037 0ceb 19       		.byte	0x19
 2038 0cec 00       		.byte	0
 2039 0ced 0F       		.uleb128 0xf
 2040 0cee DD0C0000 		.4byte	0xcdd
 2041 0cf2 21       		.uleb128 0x21
 2042 0cf3 56010000 		.4byte	.LASF149
 2043 0cf7 52       		.byte	0x52
 2044 0cf8 8C040000 		.4byte	0x48c
 2045 0cfc 00000000 		.4byte	.LFB346
 2046 0d00 4C000000 		.4byte	.LFE346-.LFB346
 2047 0d04 01       		.uleb128 0x1
 2048 0d05 9C       		.byte	0x9c
 2049 0d06 940E0000 		.4byte	0xe94
 2050 0d0a 0E       		.uleb128 0xe
 2051 0d0b BF000000 		.4byte	.LASF150
 2052 0d0f 52       		.byte	0x52
ARM GAS  C:\Users\DEVELO~1\AppData\Local\Temp\cceqLPme.s 			page 37


 2053 0d10 2E       		.byte	0x2e
 2054 0d11 720A0000 		.4byte	0xa72
 2055 0d15 AD000000 		.4byte	.LLST0
 2056 0d19 A9000000 		.4byte	.LVUS0
 2057 0d1d 0E       		.uleb128 0xe
 2058 0d1e 98030000 		.4byte	.LASF87
 2059 0d22 52       		.byte	0x52
 2060 0d23 3C       		.byte	0x3c
 2061 0d24 2D000000 		.4byte	0x2d
 2062 0d28 C6000000 		.4byte	.LLST1
 2063 0d2c C0000000 		.4byte	.LVUS1
 2064 0d30 0E       		.uleb128 0xe
 2065 0d31 93030000 		.4byte	.LASF34
 2066 0d35 53       		.byte	0x53
 2067 0d36 2B       		.byte	0x2b
 2068 0d37 3D030000 		.4byte	0x33d
 2069 0d3b E2000000 		.4byte	.LLST2
 2070 0d3f DE000000 		.4byte	.LVUS2
 2071 0d43 0E       		.uleb128 0xe
 2072 0d44 EF040000 		.4byte	.LASF74
 2073 0d48 53       		.byte	0x53
 2074 0d49 39       		.byte	0x39
 2075 0d4a 38010000 		.4byte	0x138
 2076 0d4e F6000000 		.4byte	.LLST3
 2077 0d52 F2000000 		.4byte	.LVUS3
 2078 0d56 1B       		.uleb128 0x1b
 2079 0d57 706600   		.ascii	"pf\000"
 2080 0d5a 54       		.byte	0x54
 2081 0d5b 27       		.byte	0x27
 2082 0d5c C6080000 		.4byte	0x8c6
 2083 0d60 02       		.uleb128 0x2
 2084 0d61 91       		.byte	0x91
 2085 0d62 00       		.sleb128 0
 2086 0d63 1B       		.uleb128 0x1b
 2087 0d64 61726700 		.ascii	"arg\000"
 2088 0d68 54       		.byte	0x54
 2089 0d69 31       		.byte	0x31
 2090 0d6a 91040000 		.4byte	0x491
 2091 0d6e 02       		.uleb128 0x2
 2092 0d6f 91       		.byte	0x91
 2093 0d70 04       		.sleb128 4
 2094 0d71 23       		.uleb128 0x23
 2095 0d72 747000   		.ascii	"tp\000"
 2096 0d75 55       		.byte	0x55
 2097 0d76 8C040000 		.4byte	0x48c
 2098 0d7a 0A010000 		.4byte	.LLST4
 2099 0d7e 06010000 		.4byte	.LVUS4
 2100 0d82 11       		.uleb128 0x11
 2101 0d83 CA040000 		.4byte	.LASF124
 2102 0d87 56       		.byte	0x56
 2103 0d88 09       		.byte	0x9
 2104 0d89 91040000 		.4byte	0x491
 2105 0d8d 1E010000 		.4byte	.LLST5
 2106 0d91 1A010000 		.4byte	.LVUS5
 2107 0d95 11       		.uleb128 0x11
 2108 0d96 93000000 		.4byte	.LASF125
 2109 0d9a 56       		.byte	0x56
ARM GAS  C:\Users\DEVELO~1\AppData\Local\Temp\cceqLPme.s 			page 38


 2110 0d9b 11       		.byte	0x11
 2111 0d9c 91040000 		.4byte	0x491
 2112 0da0 32010000 		.4byte	.LLST6
 2113 0da4 2E010000 		.4byte	.LVUS6
 2114 0da8 25       		.uleb128 0x25
 2115 0da9 746400   		.ascii	"td\000"
 2116 0dac 5E       		.byte	0x5e
 2117 0dad 3A090000 		.4byte	0x93a
 2118 0db1 02       		.uleb128 0x2
 2119 0db2 91       		.byte	0x91
 2120 0db3 50       		.sleb128 -48
 2121 0db4 26       		.uleb128 0x26
 2122 0db5 C10E0000 		.4byte	0xec1
 2123 0db9 22000000 		.4byte	.LBI34
 2124 0dbd 01       		.byte	.LVU16
 2125 0dbe 0C000000 		.4byte	.LLRL7
 2126 0dc2 64       		.byte	0x64
 2127 0dc3 F90D0000 		.4byte	0xdf9
 2128 0dc7 12       		.uleb128 0x12
 2129 0dc8 D30E0000 		.4byte	0xed3
 2130 0dcc 22000000 		.4byte	.LBI35
 2131 0dd0 03       		.byte	.LVU18
 2132 0dd1 0C000000 		.4byte	.LLRL7
 2133 0dd5 02       		.byte	0x2
 2134 0dd6 9901     		.2byte	0x199
 2135 0dd8 12       		.uleb128 0x12
 2136 0dd9 DC0E0000 		.4byte	0xedc
 2137 0ddd 22000000 		.4byte	.LBI36
 2138 0de1 05       		.byte	.LVU20
 2139 0de2 0C000000 		.4byte	.LLRL7
 2140 0de6 03       		.byte	0x3
 2141 0de7 2E03     		.2byte	0x32e
 2142 0de9 13       		.uleb128 0x13
 2143 0dea E60E0000 		.4byte	0xee6
 2144 0dee 49010000 		.4byte	.LLST8
 2145 0df2 47010000 		.4byte	.LVUS8
 2146 0df6 00       		.byte	0
 2147 0df7 00       		.byte	0
 2148 0df8 00       		.byte	0
 2149 0df9 27       		.uleb128 0x27
 2150 0dfa 940E0000 		.4byte	0xe94
 2151 0dfe 40000000 		.4byte	.LBI42
 2152 0e02 01       		.byte	.LVU37
 2153 0e03 40000000 		.4byte	.LBB42
 2154 0e07 06000000 		.4byte	.LBE42-.LBB42
 2155 0e0b 68       		.byte	0x68
 2156 0e0c 4A0E0000 		.4byte	0xe4a
 2157 0e10 14       		.uleb128 0x14
 2158 0e11 CA0E0000 		.4byte	0xeca
 2159 0e15 40000000 		.4byte	.LBI44
 2160 0e19 08       		.byte	.LVU44
 2161 0e1a 40000000 		.4byte	.LBB44
 2162 0e1e 06000000 		.4byte	.LBE44-.LBB44
 2163 0e22 02       		.byte	0x2
 2164 0e23 B201     		.2byte	0x1b2
 2165 0e25 14       		.uleb128 0x14
 2166 0e26 DC0E0000 		.4byte	0xedc
ARM GAS  C:\Users\DEVELO~1\AppData\Local\Temp\cceqLPme.s 			page 39


 2167 0e2a 40000000 		.4byte	.LBI45
 2168 0e2e 0A       		.byte	.LVU46
 2169 0e2f 40000000 		.4byte	.LBB45
 2170 0e33 06000000 		.4byte	.LBE45-.LBB45
 2171 0e37 03       		.byte	0x3
 2172 0e38 4103     		.2byte	0x341
 2173 0e3a 13       		.uleb128 0x13
 2174 0e3b E60E0000 		.4byte	0xee6
 2175 0e3f 56010000 		.4byte	.LLST9
 2176 0e43 54010000 		.4byte	.LVUS9
 2177 0e47 00       		.byte	0
 2178 0e48 00       		.byte	0
 2179 0e49 00       		.byte	0
 2180 0e4a 15       		.uleb128 0x15
 2181 0e4b 10000000 		.4byte	.LVL2
 2182 0e4f 2E0B0000 		.4byte	0xb2e
 2183 0e53 6A0E0000 		.4byte	0xe6a
 2184 0e57 0B       		.uleb128 0xb
 2185 0e58 01       		.uleb128 0x1
 2186 0e59 50       		.byte	0x50
 2187 0e5a 03       		.uleb128 0x3
 2188 0e5b A3       		.byte	0xa3
 2189 0e5c 01       		.uleb128 0x1
 2190 0e5d 50       		.byte	0x50
 2191 0e5e 0B       		.uleb128 0xb
 2192 0e5f 01       		.uleb128 0x1
 2193 0e60 51       		.byte	0x51
 2194 0e61 02       		.uleb128 0x2
 2195 0e62 75       		.byte	0x75
 2196 0e63 00       		.sleb128 0
 2197 0e64 0B       		.uleb128 0xb
 2198 0e65 01       		.uleb128 0x1
 2199 0e66 52       		.byte	0x52
 2200 0e67 01       		.uleb128 0x1
 2201 0e68 38       		.byte	0x38
 2202 0e69 00       		.byte	0
 2203 0e6a 15       		.uleb128 0x15
 2204 0e6b 32000000 		.4byte	.LVL8
 2205 0e6f 120B0000 		.4byte	0xb12
 2206 0e73 7E0E0000 		.4byte	0xe7e
 2207 0e77 0B       		.uleb128 0xb
 2208 0e78 01       		.uleb128 0x1
 2209 0e79 50       		.byte	0x50
 2210 0e7a 02       		.uleb128 0x2
 2211 0e7b 7D       		.byte	0x7d
 2212 0e7c 00       		.sleb128 0
 2213 0e7d 00       		.byte	0
 2214 0e7e 28       		.uleb128 0x28
 2215 0e7f 40000000 		.4byte	.LVL10
 2216 0e83 FB0A0000 		.4byte	0xafb
 2217 0e87 0B       		.uleb128 0xb
 2218 0e88 01       		.uleb128 0x1
 2219 0e89 50       		.byte	0x50
 2220 0e8a 02       		.uleb128 0x2
 2221 0e8b 74       		.byte	0x74
 2222 0e8c 00       		.sleb128 0
 2223 0e8d 0B       		.uleb128 0xb
ARM GAS  C:\Users\DEVELO~1\AppData\Local\Temp\cceqLPme.s 			page 40


 2224 0e8e 01       		.uleb128 0x1
 2225 0e8f 51       		.byte	0x51
 2226 0e90 01       		.uleb128 0x1
 2227 0e91 30       		.byte	0x30
 2228 0e92 00       		.byte	0
 2229 0e93 00       		.byte	0
 2230 0e94 32       		.uleb128 0x32
 2231 0e95 5A070000 		.4byte	.LASF160
 2232 0e99 02       		.byte	0x2
 2233 0e9a A501     		.2byte	0x1a5
 2234 0e9c 14       		.byte	0x14
 2235 0e9d 03       		.byte	0x3
 2236 0e9e AC0E0000 		.4byte	0xeac
 2237 0ea2 24       		.uleb128 0x24
 2238 0ea3 96050000 		.4byte	.LASF151
 2239 0ea7 BC0E0000 		.4byte	0xebc
 2240 0eab 00       		.byte	0
 2241 0eac 19       		.uleb128 0x19
 2242 0ead 4E030000 		.4byte	0x34e
 2243 0eb1 BC0E0000 		.4byte	0xebc
 2244 0eb5 1A       		.uleb128 0x1a
 2245 0eb6 39000000 		.4byte	0x39
 2246 0eba 0B       		.byte	0xb
 2247 0ebb 00       		.byte	0
 2248 0ebc 0F       		.uleb128 0xf
 2249 0ebd AC0E0000 		.4byte	0xeac
 2250 0ec1 1C       		.uleb128 0x1c
 2251 0ec2 9F050000 		.4byte	.LASF152
 2252 0ec6 02       		.byte	0x2
 2253 0ec7 9701     		.2byte	0x197
 2254 0ec9 14       		.byte	0x14
 2255 0eca 1C       		.uleb128 0x1c
 2256 0ecb 8F010000 		.4byte	.LASF153
 2257 0ecf 03       		.byte	0x3
 2258 0ed0 3E03     		.2byte	0x33e
 2259 0ed2 1B       		.byte	0x1b
 2260 0ed3 1C       		.uleb128 0x1c
 2261 0ed4 6B070000 		.4byte	.LASF154
 2262 0ed8 03       		.byte	0x3
 2263 0ed9 2603     		.2byte	0x326
 2264 0edb 1B       		.byte	0x1b
 2265 0edc 33       		.uleb128 0x33
 2266 0edd 6F040000 		.4byte	.LASF161
 2267 0ee1 04       		.byte	0x4
 2268 0ee2 EB01     		.2byte	0x1eb
 2269 0ee4 1B       		.byte	0x1b
 2270 0ee5 03       		.byte	0x3
 2271 0ee6 34       		.uleb128 0x34
 2272 0ee7 3F010000 		.4byte	.LASF162
 2273 0eeb 04       		.byte	0x4
 2274 0eec EB01     		.2byte	0x1eb
 2275 0eee 32       		.byte	0x32
 2276 0eef DF000000 		.4byte	0xdf
 2277 0ef3 00       		.byte	0
 2278 0ef4 00       		.byte	0
 2279              		.section	.debug_abbrev,"",%progbits
 2280              	.Ldebug_abbrev0:
ARM GAS  C:\Users\DEVELO~1\AppData\Local\Temp\cceqLPme.s 			page 41


 2281 0000 01       		.uleb128 0x1
 2282 0001 0D       		.uleb128 0xd
 2283 0002 00       		.byte	0
 2284 0003 03       		.uleb128 0x3
 2285 0004 0E       		.uleb128 0xe
 2286 0005 3A       		.uleb128 0x3a
 2287 0006 0B       		.uleb128 0xb
 2288 0007 3B       		.uleb128 0x3b
 2289 0008 0B       		.uleb128 0xb
 2290 0009 39       		.uleb128 0x39
 2291 000a 0B       		.uleb128 0xb
 2292 000b 49       		.uleb128 0x49
 2293 000c 13       		.uleb128 0x13
 2294 000d 38       		.uleb128 0x38
 2295 000e 0B       		.uleb128 0xb
 2296 000f 00       		.byte	0
 2297 0010 00       		.byte	0
 2298 0011 02       		.uleb128 0x2
 2299 0012 16       		.uleb128 0x16
 2300 0013 00       		.byte	0
 2301 0014 03       		.uleb128 0x3
 2302 0015 0E       		.uleb128 0xe
 2303 0016 3A       		.uleb128 0x3a
 2304 0017 0B       		.uleb128 0xb
 2305 0018 3B       		.uleb128 0x3b
 2306 0019 0B       		.uleb128 0xb
 2307 001a 39       		.uleb128 0x39
 2308 001b 0B       		.uleb128 0xb
 2309 001c 49       		.uleb128 0x49
 2310 001d 13       		.uleb128 0x13
 2311 001e 00       		.byte	0
 2312 001f 00       		.byte	0
 2313 0020 03       		.uleb128 0x3
 2314 0021 0F       		.uleb128 0xf
 2315 0022 00       		.byte	0
 2316 0023 0B       		.uleb128 0xb
 2317 0024 21       		.uleb128 0x21
 2318 0025 04       		.sleb128 4
 2319 0026 49       		.uleb128 0x49
 2320 0027 13       		.uleb128 0x13
 2321 0028 00       		.byte	0
 2322 0029 00       		.byte	0
 2323 002a 04       		.uleb128 0x4
 2324 002b 0D       		.uleb128 0xd
 2325 002c 00       		.byte	0
 2326 002d 03       		.uleb128 0x3
 2327 002e 0E       		.uleb128 0xe
 2328 002f 3A       		.uleb128 0x3a
 2329 0030 21       		.uleb128 0x21
 2330 0031 0A       		.sleb128 10
 2331 0032 3B       		.uleb128 0x3b
 2332 0033 05       		.uleb128 0x5
 2333 0034 39       		.uleb128 0x39
 2334 0035 0B       		.uleb128 0xb
 2335 0036 49       		.uleb128 0x49
 2336 0037 13       		.uleb128 0x13
 2337 0038 38       		.uleb128 0x38
ARM GAS  C:\Users\DEVELO~1\AppData\Local\Temp\cceqLPme.s 			page 42


 2338 0039 0B       		.uleb128 0xb
 2339 003a 00       		.byte	0
 2340 003b 00       		.byte	0
 2341 003c 05       		.uleb128 0x5
 2342 003d 24       		.uleb128 0x24
 2343 003e 00       		.byte	0
 2344 003f 0B       		.uleb128 0xb
 2345 0040 0B       		.uleb128 0xb
 2346 0041 3E       		.uleb128 0x3e
 2347 0042 0B       		.uleb128 0xb
 2348 0043 03       		.uleb128 0x3
 2349 0044 0E       		.uleb128 0xe
 2350 0045 00       		.byte	0
 2351 0046 00       		.byte	0
 2352 0047 06       		.uleb128 0x6
 2353 0048 13       		.uleb128 0x13
 2354 0049 01       		.byte	0x1
 2355 004a 03       		.uleb128 0x3
 2356 004b 0E       		.uleb128 0xe
 2357 004c 0B       		.uleb128 0xb
 2358 004d 0B       		.uleb128 0xb
 2359 004e 3A       		.uleb128 0x3a
 2360 004f 0B       		.uleb128 0xb
 2361 0050 3B       		.uleb128 0x3b
 2362 0051 0B       		.uleb128 0xb
 2363 0052 39       		.uleb128 0x39
 2364 0053 0B       		.uleb128 0xb
 2365 0054 01       		.uleb128 0x1
 2366 0055 13       		.uleb128 0x13
 2367 0056 00       		.byte	0
 2368 0057 00       		.byte	0
 2369 0058 07       		.uleb128 0x7
 2370 0059 05       		.uleb128 0x5
 2371 005a 00       		.byte	0
 2372 005b 49       		.uleb128 0x49
 2373 005c 13       		.uleb128 0x13
 2374 005d 00       		.byte	0
 2375 005e 00       		.byte	0
 2376 005f 08       		.uleb128 0x8
 2377 0060 0D       		.uleb128 0xd
 2378 0061 00       		.byte	0
 2379 0062 03       		.uleb128 0x3
 2380 0063 08       		.uleb128 0x8
 2381 0064 3A       		.uleb128 0x3a
 2382 0065 0B       		.uleb128 0xb
 2383 0066 3B       		.uleb128 0x3b
 2384 0067 0B       		.uleb128 0xb
 2385 0068 39       		.uleb128 0x39
 2386 0069 0B       		.uleb128 0xb
 2387 006a 49       		.uleb128 0x49
 2388 006b 13       		.uleb128 0x13
 2389 006c 38       		.uleb128 0x38
 2390 006d 0B       		.uleb128 0xb
 2391 006e 00       		.byte	0
 2392 006f 00       		.byte	0
 2393 0070 09       		.uleb128 0x9
 2394 0071 0D       		.uleb128 0xd
ARM GAS  C:\Users\DEVELO~1\AppData\Local\Temp\cceqLPme.s 			page 43


 2395 0072 00       		.byte	0
 2396 0073 03       		.uleb128 0x3
 2397 0074 08       		.uleb128 0x8
 2398 0075 3A       		.uleb128 0x3a
 2399 0076 0B       		.uleb128 0xb
 2400 0077 3B       		.uleb128 0x3b
 2401 0078 05       		.uleb128 0x5
 2402 0079 39       		.uleb128 0x39
 2403 007a 0B       		.uleb128 0xb
 2404 007b 49       		.uleb128 0x49
 2405 007c 13       		.uleb128 0x13
 2406 007d 38       		.uleb128 0x38
 2407 007e 0B       		.uleb128 0xb
 2408 007f 00       		.byte	0
 2409 0080 00       		.byte	0
 2410 0081 0A       		.uleb128 0xa
 2411 0082 13       		.uleb128 0x13
 2412 0083 01       		.byte	0x1
 2413 0084 0B       		.uleb128 0xb
 2414 0085 0B       		.uleb128 0xb
 2415 0086 3A       		.uleb128 0x3a
 2416 0087 0B       		.uleb128 0xb
 2417 0088 3B       		.uleb128 0x3b
 2418 0089 0B       		.uleb128 0xb
 2419 008a 39       		.uleb128 0x39
 2420 008b 0B       		.uleb128 0xb
 2421 008c 01       		.uleb128 0x1
 2422 008d 13       		.uleb128 0x13
 2423 008e 00       		.byte	0
 2424 008f 00       		.byte	0
 2425 0090 0B       		.uleb128 0xb
 2426 0091 49       		.uleb128 0x49
 2427 0092 00       		.byte	0
 2428 0093 02       		.uleb128 0x2
 2429 0094 18       		.uleb128 0x18
 2430 0095 7E       		.uleb128 0x7e
 2431 0096 18       		.uleb128 0x18
 2432 0097 00       		.byte	0
 2433 0098 00       		.byte	0
 2434 0099 0C       		.uleb128 0xc
 2435 009a 0D       		.uleb128 0xd
 2436 009b 00       		.byte	0
 2437 009c 03       		.uleb128 0x3
 2438 009d 0E       		.uleb128 0xe
 2439 009e 3A       		.uleb128 0x3a
 2440 009f 0B       		.uleb128 0xb
 2441 00a0 3B       		.uleb128 0x3b
 2442 00a1 0B       		.uleb128 0xb
 2443 00a2 39       		.uleb128 0x39
 2444 00a3 0B       		.uleb128 0xb
 2445 00a4 49       		.uleb128 0x49
 2446 00a5 13       		.uleb128 0x13
 2447 00a6 00       		.byte	0
 2448 00a7 00       		.byte	0
 2449 00a8 0D       		.uleb128 0xd
 2450 00a9 0D       		.uleb128 0xd
 2451 00aa 00       		.byte	0
ARM GAS  C:\Users\DEVELO~1\AppData\Local\Temp\cceqLPme.s 			page 44


 2452 00ab 03       		.uleb128 0x3
 2453 00ac 0E       		.uleb128 0xe
 2454 00ad 3A       		.uleb128 0x3a
 2455 00ae 21       		.uleb128 0x21
 2456 00af 0A       		.sleb128 10
 2457 00b0 3B       		.uleb128 0x3b
 2458 00b1 05       		.uleb128 0x5
 2459 00b2 39       		.uleb128 0x39
 2460 00b3 0B       		.uleb128 0xb
 2461 00b4 49       		.uleb128 0x49
 2462 00b5 13       		.uleb128 0x13
 2463 00b6 00       		.byte	0
 2464 00b7 00       		.byte	0
 2465 00b8 0E       		.uleb128 0xe
 2466 00b9 05       		.uleb128 0x5
 2467 00ba 00       		.byte	0
 2468 00bb 03       		.uleb128 0x3
 2469 00bc 0E       		.uleb128 0xe
 2470 00bd 3A       		.uleb128 0x3a
 2471 00be 21       		.uleb128 0x21
 2472 00bf 01       		.sleb128 1
 2473 00c0 3B       		.uleb128 0x3b
 2474 00c1 0B       		.uleb128 0xb
 2475 00c2 39       		.uleb128 0x39
 2476 00c3 0B       		.uleb128 0xb
 2477 00c4 49       		.uleb128 0x49
 2478 00c5 13       		.uleb128 0x13
 2479 00c6 02       		.uleb128 0x2
 2480 00c7 17       		.uleb128 0x17
 2481 00c8 B742     		.uleb128 0x2137
 2482 00ca 17       		.uleb128 0x17
 2483 00cb 00       		.byte	0
 2484 00cc 00       		.byte	0
 2485 00cd 0F       		.uleb128 0xf
 2486 00ce 26       		.uleb128 0x26
 2487 00cf 00       		.byte	0
 2488 00d0 49       		.uleb128 0x49
 2489 00d1 13       		.uleb128 0x13
 2490 00d2 00       		.byte	0
 2491 00d3 00       		.byte	0
 2492 00d4 10       		.uleb128 0x10
 2493 00d5 13       		.uleb128 0x13
 2494 00d6 01       		.byte	0x1
 2495 00d7 03       		.uleb128 0x3
 2496 00d8 0E       		.uleb128 0xe
 2497 00d9 0B       		.uleb128 0xb
 2498 00da 0B       		.uleb128 0xb
 2499 00db 3A       		.uleb128 0x3a
 2500 00dc 0B       		.uleb128 0xb
 2501 00dd 3B       		.uleb128 0x3b
 2502 00de 05       		.uleb128 0x5
 2503 00df 39       		.uleb128 0x39
 2504 00e0 0B       		.uleb128 0xb
 2505 00e1 01       		.uleb128 0x1
 2506 00e2 13       		.uleb128 0x13
 2507 00e3 00       		.byte	0
 2508 00e4 00       		.byte	0
ARM GAS  C:\Users\DEVELO~1\AppData\Local\Temp\cceqLPme.s 			page 45


 2509 00e5 11       		.uleb128 0x11
 2510 00e6 34       		.uleb128 0x34
 2511 00e7 00       		.byte	0
 2512 00e8 03       		.uleb128 0x3
 2513 00e9 0E       		.uleb128 0xe
 2514 00ea 3A       		.uleb128 0x3a
 2515 00eb 21       		.uleb128 0x21
 2516 00ec 01       		.sleb128 1
 2517 00ed 3B       		.uleb128 0x3b
 2518 00ee 0B       		.uleb128 0xb
 2519 00ef 39       		.uleb128 0x39
 2520 00f0 0B       		.uleb128 0xb
 2521 00f1 49       		.uleb128 0x49
 2522 00f2 13       		.uleb128 0x13
 2523 00f3 02       		.uleb128 0x2
 2524 00f4 17       		.uleb128 0x17
 2525 00f5 B742     		.uleb128 0x2137
 2526 00f7 17       		.uleb128 0x17
 2527 00f8 00       		.byte	0
 2528 00f9 00       		.byte	0
 2529 00fa 12       		.uleb128 0x12
 2530 00fb 1D       		.uleb128 0x1d
 2531 00fc 01       		.byte	0x1
 2532 00fd 31       		.uleb128 0x31
 2533 00fe 13       		.uleb128 0x13
 2534 00ff 52       		.uleb128 0x52
 2535 0100 01       		.uleb128 0x1
 2536 0101 B842     		.uleb128 0x2138
 2537 0103 0B       		.uleb128 0xb
 2538 0104 55       		.uleb128 0x55
 2539 0105 17       		.uleb128 0x17
 2540 0106 58       		.uleb128 0x58
 2541 0107 0B       		.uleb128 0xb
 2542 0108 59       		.uleb128 0x59
 2543 0109 05       		.uleb128 0x5
 2544 010a 57       		.uleb128 0x57
 2545 010b 21       		.uleb128 0x21
 2546 010c 03       		.sleb128 3
 2547 010d 00       		.byte	0
 2548 010e 00       		.byte	0
 2549 010f 13       		.uleb128 0x13
 2550 0110 05       		.uleb128 0x5
 2551 0111 00       		.byte	0
 2552 0112 31       		.uleb128 0x31
 2553 0113 13       		.uleb128 0x13
 2554 0114 02       		.uleb128 0x2
 2555 0115 17       		.uleb128 0x17
 2556 0116 B742     		.uleb128 0x2137
 2557 0118 17       		.uleb128 0x17
 2558 0119 00       		.byte	0
 2559 011a 00       		.byte	0
 2560 011b 14       		.uleb128 0x14
 2561 011c 1D       		.uleb128 0x1d
 2562 011d 01       		.byte	0x1
 2563 011e 31       		.uleb128 0x31
 2564 011f 13       		.uleb128 0x13
 2565 0120 52       		.uleb128 0x52
ARM GAS  C:\Users\DEVELO~1\AppData\Local\Temp\cceqLPme.s 			page 46


 2566 0121 01       		.uleb128 0x1
 2567 0122 B842     		.uleb128 0x2138
 2568 0124 0B       		.uleb128 0xb
 2569 0125 11       		.uleb128 0x11
 2570 0126 01       		.uleb128 0x1
 2571 0127 12       		.uleb128 0x12
 2572 0128 06       		.uleb128 0x6
 2573 0129 58       		.uleb128 0x58
 2574 012a 0B       		.uleb128 0xb
 2575 012b 59       		.uleb128 0x59
 2576 012c 05       		.uleb128 0x5
 2577 012d 57       		.uleb128 0x57
 2578 012e 21       		.uleb128 0x21
 2579 012f 03       		.sleb128 3
 2580 0130 00       		.byte	0
 2581 0131 00       		.byte	0
 2582 0132 15       		.uleb128 0x15
 2583 0133 48       		.uleb128 0x48
 2584 0134 01       		.byte	0x1
 2585 0135 7D       		.uleb128 0x7d
 2586 0136 01       		.uleb128 0x1
 2587 0137 7F       		.uleb128 0x7f
 2588 0138 13       		.uleb128 0x13
 2589 0139 01       		.uleb128 0x1
 2590 013a 13       		.uleb128 0x13
 2591 013b 00       		.byte	0
 2592 013c 00       		.byte	0
 2593 013d 16       		.uleb128 0x16
 2594 013e 17       		.uleb128 0x17
 2595 013f 01       		.byte	0x1
 2596 0140 0B       		.uleb128 0xb
 2597 0141 0B       		.uleb128 0xb
 2598 0142 3A       		.uleb128 0x3a
 2599 0143 0B       		.uleb128 0xb
 2600 0144 3B       		.uleb128 0x3b
 2601 0145 0B       		.uleb128 0xb
 2602 0146 39       		.uleb128 0x39
 2603 0147 21       		.uleb128 0x21
 2604 0148 03       		.sleb128 3
 2605 0149 01       		.uleb128 0x1
 2606 014a 13       		.uleb128 0x13
 2607 014b 00       		.byte	0
 2608 014c 00       		.byte	0
 2609 014d 17       		.uleb128 0x17
 2610 014e 0D       		.uleb128 0xd
 2611 014f 00       		.byte	0
 2612 0150 03       		.uleb128 0x3
 2613 0151 08       		.uleb128 0x8
 2614 0152 3A       		.uleb128 0x3a
 2615 0153 21       		.uleb128 0x21
 2616 0154 0F       		.sleb128 15
 2617 0155 3B       		.uleb128 0x3b
 2618 0156 0B       		.uleb128 0xb
 2619 0157 39       		.uleb128 0x39
 2620 0158 21       		.uleb128 0x21
 2621 0159 07       		.sleb128 7
 2622 015a 49       		.uleb128 0x49
ARM GAS  C:\Users\DEVELO~1\AppData\Local\Temp\cceqLPme.s 			page 47


 2623 015b 13       		.uleb128 0x13
 2624 015c 00       		.byte	0
 2625 015d 00       		.byte	0
 2626 015e 18       		.uleb128 0x18
 2627 015f 0D       		.uleb128 0xd
 2628 0160 00       		.byte	0
 2629 0161 03       		.uleb128 0x3
 2630 0162 0E       		.uleb128 0xe
 2631 0163 3A       		.uleb128 0x3a
 2632 0164 21       		.uleb128 0x21
 2633 0165 0F       		.sleb128 15
 2634 0166 3B       		.uleb128 0x3b
 2635 0167 0B       		.uleb128 0xb
 2636 0168 39       		.uleb128 0x39
 2637 0169 21       		.uleb128 0x21
 2638 016a 19       		.sleb128 25
 2639 016b 49       		.uleb128 0x49
 2640 016c 13       		.uleb128 0x13
 2641 016d 0D       		.uleb128 0xd
 2642 016e 0B       		.uleb128 0xb
 2643 016f 6B       		.uleb128 0x6b
 2644 0170 0B       		.uleb128 0xb
 2645 0171 00       		.byte	0
 2646 0172 00       		.byte	0
 2647 0173 19       		.uleb128 0x19
 2648 0174 01       		.uleb128 0x1
 2649 0175 01       		.byte	0x1
 2650 0176 49       		.uleb128 0x49
 2651 0177 13       		.uleb128 0x13
 2652 0178 01       		.uleb128 0x1
 2653 0179 13       		.uleb128 0x13
 2654 017a 00       		.byte	0
 2655 017b 00       		.byte	0
 2656 017c 1A       		.uleb128 0x1a
 2657 017d 21       		.uleb128 0x21
 2658 017e 00       		.byte	0
 2659 017f 49       		.uleb128 0x49
 2660 0180 13       		.uleb128 0x13
 2661 0181 2F       		.uleb128 0x2f
 2662 0182 0B       		.uleb128 0xb
 2663 0183 00       		.byte	0
 2664 0184 00       		.byte	0
 2665 0185 1B       		.uleb128 0x1b
 2666 0186 05       		.uleb128 0x5
 2667 0187 00       		.byte	0
 2668 0188 03       		.uleb128 0x3
 2669 0189 08       		.uleb128 0x8
 2670 018a 3A       		.uleb128 0x3a
 2671 018b 21       		.uleb128 0x21
 2672 018c 01       		.sleb128 1
 2673 018d 3B       		.uleb128 0x3b
 2674 018e 0B       		.uleb128 0xb
 2675 018f 39       		.uleb128 0x39
 2676 0190 0B       		.uleb128 0xb
 2677 0191 49       		.uleb128 0x49
 2678 0192 13       		.uleb128 0x13
 2679 0193 02       		.uleb128 0x2
ARM GAS  C:\Users\DEVELO~1\AppData\Local\Temp\cceqLPme.s 			page 48


 2680 0194 18       		.uleb128 0x18
 2681 0195 00       		.byte	0
 2682 0196 00       		.byte	0
 2683 0197 1C       		.uleb128 0x1c
 2684 0198 2E       		.uleb128 0x2e
 2685 0199 00       		.byte	0
 2686 019a 03       		.uleb128 0x3
 2687 019b 0E       		.uleb128 0xe
 2688 019c 3A       		.uleb128 0x3a
 2689 019d 0B       		.uleb128 0xb
 2690 019e 3B       		.uleb128 0x3b
 2691 019f 05       		.uleb128 0x5
 2692 01a0 39       		.uleb128 0x39
 2693 01a1 0B       		.uleb128 0xb
 2694 01a2 27       		.uleb128 0x27
 2695 01a3 19       		.uleb128 0x19
 2696 01a4 20       		.uleb128 0x20
 2697 01a5 21       		.uleb128 0x21
 2698 01a6 03       		.sleb128 3
 2699 01a7 00       		.byte	0
 2700 01a8 00       		.byte	0
 2701 01a9 1D       		.uleb128 0x1d
 2702 01aa 35       		.uleb128 0x35
 2703 01ab 00       		.byte	0
 2704 01ac 49       		.uleb128 0x49
 2705 01ad 13       		.uleb128 0x13
 2706 01ae 00       		.byte	0
 2707 01af 00       		.byte	0
 2708 01b0 1E       		.uleb128 0x1e
 2709 01b1 16       		.uleb128 0x16
 2710 01b2 00       		.byte	0
 2711 01b3 03       		.uleb128 0x3
 2712 01b4 0E       		.uleb128 0xe
 2713 01b5 3A       		.uleb128 0x3a
 2714 01b6 21       		.uleb128 0x21
 2715 01b7 0A       		.sleb128 10
 2716 01b8 3B       		.uleb128 0x3b
 2717 01b9 05       		.uleb128 0x5
 2718 01ba 39       		.uleb128 0x39
 2719 01bb 21       		.uleb128 0x21
 2720 01bc 03       		.sleb128 3
 2721 01bd 49       		.uleb128 0x49
 2722 01be 13       		.uleb128 0x13
 2723 01bf 00       		.byte	0
 2724 01c0 00       		.byte	0
 2725 01c1 1F       		.uleb128 0x1f
 2726 01c2 15       		.uleb128 0x15
 2727 01c3 01       		.byte	0x1
 2728 01c4 27       		.uleb128 0x27
 2729 01c5 19       		.uleb128 0x19
 2730 01c6 49       		.uleb128 0x49
 2731 01c7 13       		.uleb128 0x13
 2732 01c8 01       		.uleb128 0x1
 2733 01c9 13       		.uleb128 0x13
 2734 01ca 00       		.byte	0
 2735 01cb 00       		.byte	0
 2736 01cc 20       		.uleb128 0x20
ARM GAS  C:\Users\DEVELO~1\AppData\Local\Temp\cceqLPme.s 			page 49


 2737 01cd 2E       		.uleb128 0x2e
 2738 01ce 01       		.byte	0x1
 2739 01cf 3F       		.uleb128 0x3f
 2740 01d0 19       		.uleb128 0x19
 2741 01d1 03       		.uleb128 0x3
 2742 01d2 0E       		.uleb128 0xe
 2743 01d3 3A       		.uleb128 0x3a
 2744 01d4 0B       		.uleb128 0xb
 2745 01d5 3B       		.uleb128 0x3b
 2746 01d6 0B       		.uleb128 0xb
 2747 01d7 39       		.uleb128 0x39
 2748 01d8 21       		.uleb128 0x21
 2749 01d9 09       		.sleb128 9
 2750 01da 27       		.uleb128 0x27
 2751 01db 19       		.uleb128 0x19
 2752 01dc 49       		.uleb128 0x49
 2753 01dd 13       		.uleb128 0x13
 2754 01de 3C       		.uleb128 0x3c
 2755 01df 19       		.uleb128 0x19
 2756 01e0 01       		.uleb128 0x1
 2757 01e1 13       		.uleb128 0x13
 2758 01e2 00       		.byte	0
 2759 01e3 00       		.byte	0
 2760 01e4 21       		.uleb128 0x21
 2761 01e5 2E       		.uleb128 0x2e
 2762 01e6 01       		.byte	0x1
 2763 01e7 3F       		.uleb128 0x3f
 2764 01e8 19       		.uleb128 0x19
 2765 01e9 03       		.uleb128 0x3
 2766 01ea 0E       		.uleb128 0xe
 2767 01eb 3A       		.uleb128 0x3a
 2768 01ec 21       		.uleb128 0x21
 2769 01ed 01       		.sleb128 1
 2770 01ee 3B       		.uleb128 0x3b
 2771 01ef 0B       		.uleb128 0xb
 2772 01f0 39       		.uleb128 0x39
 2773 01f1 21       		.uleb128 0x21
 2774 01f2 0B       		.sleb128 11
 2775 01f3 27       		.uleb128 0x27
 2776 01f4 19       		.uleb128 0x19
 2777 01f5 49       		.uleb128 0x49
 2778 01f6 13       		.uleb128 0x13
 2779 01f7 11       		.uleb128 0x11
 2780 01f8 01       		.uleb128 0x1
 2781 01f9 12       		.uleb128 0x12
 2782 01fa 06       		.uleb128 0x6
 2783 01fb 40       		.uleb128 0x40
 2784 01fc 18       		.uleb128 0x18
 2785 01fd 7A       		.uleb128 0x7a
 2786 01fe 19       		.uleb128 0x19
 2787 01ff 01       		.uleb128 0x1
 2788 0200 13       		.uleb128 0x13
 2789 0201 00       		.byte	0
 2790 0202 00       		.byte	0
 2791 0203 22       		.uleb128 0x22
 2792 0204 05       		.uleb128 0x5
 2793 0205 00       		.byte	0
ARM GAS  C:\Users\DEVELO~1\AppData\Local\Temp\cceqLPme.s 			page 50


 2794 0206 03       		.uleb128 0x3
 2795 0207 08       		.uleb128 0x8
 2796 0208 3A       		.uleb128 0x3a
 2797 0209 21       		.uleb128 0x21
 2798 020a 01       		.sleb128 1
 2799 020b 3B       		.uleb128 0x3b
 2800 020c 0B       		.uleb128 0xb
 2801 020d 39       		.uleb128 0x39
 2802 020e 0B       		.uleb128 0xb
 2803 020f 49       		.uleb128 0x49
 2804 0210 13       		.uleb128 0x13
 2805 0211 02       		.uleb128 0x2
 2806 0212 17       		.uleb128 0x17
 2807 0213 B742     		.uleb128 0x2137
 2808 0215 17       		.uleb128 0x17
 2809 0216 00       		.byte	0
 2810 0217 00       		.byte	0
 2811 0218 23       		.uleb128 0x23
 2812 0219 34       		.uleb128 0x34
 2813 021a 00       		.byte	0
 2814 021b 03       		.uleb128 0x3
 2815 021c 08       		.uleb128 0x8
 2816 021d 3A       		.uleb128 0x3a
 2817 021e 21       		.uleb128 0x21
 2818 021f 01       		.sleb128 1
 2819 0220 3B       		.uleb128 0x3b
 2820 0221 0B       		.uleb128 0xb
 2821 0222 39       		.uleb128 0x39
 2822 0223 21       		.uleb128 0x21
 2823 0224 0D       		.sleb128 13
 2824 0225 49       		.uleb128 0x49
 2825 0226 13       		.uleb128 0x13
 2826 0227 02       		.uleb128 0x2
 2827 0228 17       		.uleb128 0x17
 2828 0229 B742     		.uleb128 0x2137
 2829 022b 17       		.uleb128 0x17
 2830 022c 00       		.byte	0
 2831 022d 00       		.byte	0
 2832 022e 24       		.uleb128 0x24
 2833 022f 34       		.uleb128 0x34
 2834 0230 00       		.byte	0
 2835 0231 03       		.uleb128 0x3
 2836 0232 0E       		.uleb128 0xe
 2837 0233 49       		.uleb128 0x49
 2838 0234 13       		.uleb128 0x13
 2839 0235 34       		.uleb128 0x34
 2840 0236 19       		.uleb128 0x19
 2841 0237 00       		.byte	0
 2842 0238 00       		.byte	0
 2843 0239 25       		.uleb128 0x25
 2844 023a 34       		.uleb128 0x34
 2845 023b 00       		.byte	0
 2846 023c 03       		.uleb128 0x3
 2847 023d 08       		.uleb128 0x8
 2848 023e 3A       		.uleb128 0x3a
 2849 023f 21       		.uleb128 0x21
 2850 0240 01       		.sleb128 1
ARM GAS  C:\Users\DEVELO~1\AppData\Local\Temp\cceqLPme.s 			page 51


 2851 0241 3B       		.uleb128 0x3b
 2852 0242 0B       		.uleb128 0xb
 2853 0243 39       		.uleb128 0x39
 2854 0244 21       		.uleb128 0x21
 2855 0245 17       		.sleb128 23
 2856 0246 49       		.uleb128 0x49
 2857 0247 13       		.uleb128 0x13
 2858 0248 02       		.uleb128 0x2
 2859 0249 18       		.uleb128 0x18
 2860 024a 00       		.byte	0
 2861 024b 00       		.byte	0
 2862 024c 26       		.uleb128 0x26
 2863 024d 1D       		.uleb128 0x1d
 2864 024e 01       		.byte	0x1
 2865 024f 31       		.uleb128 0x31
 2866 0250 13       		.uleb128 0x13
 2867 0251 52       		.uleb128 0x52
 2868 0252 01       		.uleb128 0x1
 2869 0253 B842     		.uleb128 0x2138
 2870 0255 0B       		.uleb128 0xb
 2871 0256 55       		.uleb128 0x55
 2872 0257 17       		.uleb128 0x17
 2873 0258 58       		.uleb128 0x58
 2874 0259 21       		.uleb128 0x21
 2875 025a 01       		.sleb128 1
 2876 025b 59       		.uleb128 0x59
 2877 025c 0B       		.uleb128 0xb
 2878 025d 57       		.uleb128 0x57
 2879 025e 21       		.uleb128 0x21
 2880 025f 03       		.sleb128 3
 2881 0260 01       		.uleb128 0x1
 2882 0261 13       		.uleb128 0x13
 2883 0262 00       		.byte	0
 2884 0263 00       		.byte	0
 2885 0264 27       		.uleb128 0x27
 2886 0265 1D       		.uleb128 0x1d
 2887 0266 01       		.byte	0x1
 2888 0267 31       		.uleb128 0x31
 2889 0268 13       		.uleb128 0x13
 2890 0269 52       		.uleb128 0x52
 2891 026a 01       		.uleb128 0x1
 2892 026b B842     		.uleb128 0x2138
 2893 026d 0B       		.uleb128 0xb
 2894 026e 11       		.uleb128 0x11
 2895 026f 01       		.uleb128 0x1
 2896 0270 12       		.uleb128 0x12
 2897 0271 06       		.uleb128 0x6
 2898 0272 58       		.uleb128 0x58
 2899 0273 21       		.uleb128 0x21
 2900 0274 01       		.sleb128 1
 2901 0275 59       		.uleb128 0x59
 2902 0276 0B       		.uleb128 0xb
 2903 0277 57       		.uleb128 0x57
 2904 0278 21       		.uleb128 0x21
 2905 0279 03       		.sleb128 3
 2906 027a 01       		.uleb128 0x1
 2907 027b 13       		.uleb128 0x13
ARM GAS  C:\Users\DEVELO~1\AppData\Local\Temp\cceqLPme.s 			page 52


 2908 027c 00       		.byte	0
 2909 027d 00       		.byte	0
 2910 027e 28       		.uleb128 0x28
 2911 027f 48       		.uleb128 0x48
 2912 0280 01       		.byte	0x1
 2913 0281 7D       		.uleb128 0x7d
 2914 0282 01       		.uleb128 0x1
 2915 0283 7F       		.uleb128 0x7f
 2916 0284 13       		.uleb128 0x13
 2917 0285 00       		.byte	0
 2918 0286 00       		.byte	0
 2919 0287 29       		.uleb128 0x29
 2920 0288 11       		.uleb128 0x11
 2921 0289 01       		.byte	0x1
 2922 028a 25       		.uleb128 0x25
 2923 028b 0E       		.uleb128 0xe
 2924 028c 13       		.uleb128 0x13
 2925 028d 0B       		.uleb128 0xb
 2926 028e 03       		.uleb128 0x3
 2927 028f 0E       		.uleb128 0xe
 2928 0290 1B       		.uleb128 0x1b
 2929 0291 0E       		.uleb128 0xe
 2930 0292 55       		.uleb128 0x55
 2931 0293 17       		.uleb128 0x17
 2932 0294 11       		.uleb128 0x11
 2933 0295 01       		.uleb128 0x1
 2934 0296 10       		.uleb128 0x10
 2935 0297 17       		.uleb128 0x17
 2936 0298 00       		.byte	0
 2937 0299 00       		.byte	0
 2938 029a 2A       		.uleb128 0x2a
 2939 029b 24       		.uleb128 0x24
 2940 029c 00       		.byte	0
 2941 029d 0B       		.uleb128 0xb
 2942 029e 0B       		.uleb128 0xb
 2943 029f 3E       		.uleb128 0x3e
 2944 02a0 0B       		.uleb128 0xb
 2945 02a1 03       		.uleb128 0x3
 2946 02a2 08       		.uleb128 0x8
 2947 02a3 00       		.byte	0
 2948 02a4 00       		.byte	0
 2949 02a5 2B       		.uleb128 0x2b
 2950 02a6 13       		.uleb128 0x13
 2951 02a7 01       		.byte	0x1
 2952 02a8 03       		.uleb128 0x3
 2953 02a9 0E       		.uleb128 0xe
 2954 02aa 0B       		.uleb128 0xb
 2955 02ab 05       		.uleb128 0x5
 2956 02ac 3A       		.uleb128 0x3a
 2957 02ad 0B       		.uleb128 0xb
 2958 02ae 3B       		.uleb128 0x3b
 2959 02af 05       		.uleb128 0x5
 2960 02b0 39       		.uleb128 0x39
 2961 02b1 0B       		.uleb128 0xb
 2962 02b2 01       		.uleb128 0x1
 2963 02b3 13       		.uleb128 0x13
 2964 02b4 00       		.byte	0
ARM GAS  C:\Users\DEVELO~1\AppData\Local\Temp\cceqLPme.s 			page 53


 2965 02b5 00       		.byte	0
 2966 02b6 2C       		.uleb128 0x2c
 2967 02b7 0F       		.uleb128 0xf
 2968 02b8 00       		.byte	0
 2969 02b9 0B       		.uleb128 0xb
 2970 02ba 0B       		.uleb128 0xb
 2971 02bb 00       		.byte	0
 2972 02bc 00       		.byte	0
 2973 02bd 2D       		.uleb128 0x2d
 2974 02be 13       		.uleb128 0x13
 2975 02bf 01       		.byte	0x1
 2976 02c0 0B       		.uleb128 0xb
 2977 02c1 05       		.uleb128 0x5
 2978 02c2 3A       		.uleb128 0x3a
 2979 02c3 0B       		.uleb128 0xb
 2980 02c4 3B       		.uleb128 0x3b
 2981 02c5 0B       		.uleb128 0xb
 2982 02c6 39       		.uleb128 0x39
 2983 02c7 0B       		.uleb128 0xb
 2984 02c8 01       		.uleb128 0x1
 2985 02c9 13       		.uleb128 0x13
 2986 02ca 00       		.byte	0
 2987 02cb 00       		.byte	0
 2988 02cc 2E       		.uleb128 0x2e
 2989 02cd 15       		.uleb128 0x15
 2990 02ce 01       		.byte	0x1
 2991 02cf 27       		.uleb128 0x27
 2992 02d0 19       		.uleb128 0x19
 2993 02d1 01       		.uleb128 0x1
 2994 02d2 13       		.uleb128 0x13
 2995 02d3 00       		.byte	0
 2996 02d4 00       		.byte	0
 2997 02d5 2F       		.uleb128 0x2f
 2998 02d6 17       		.uleb128 0x17
 2999 02d7 01       		.byte	0x1
 3000 02d8 03       		.uleb128 0x3
 3001 02d9 0E       		.uleb128 0xe
 3002 02da 0B       		.uleb128 0xb
 3003 02db 0B       		.uleb128 0xb
 3004 02dc 3A       		.uleb128 0x3a
 3005 02dd 0B       		.uleb128 0xb
 3006 02de 3B       		.uleb128 0x3b
 3007 02df 0B       		.uleb128 0xb
 3008 02e0 39       		.uleb128 0x39
 3009 02e1 0B       		.uleb128 0xb
 3010 02e2 01       		.uleb128 0x1
 3011 02e3 13       		.uleb128 0x13
 3012 02e4 00       		.byte	0
 3013 02e5 00       		.byte	0
 3014 02e6 30       		.uleb128 0x30
 3015 02e7 2E       		.uleb128 0x2e
 3016 02e8 01       		.byte	0x1
 3017 02e9 3F       		.uleb128 0x3f
 3018 02ea 19       		.uleb128 0x19
 3019 02eb 03       		.uleb128 0x3
 3020 02ec 0E       		.uleb128 0xe
 3021 02ed 3A       		.uleb128 0x3a
ARM GAS  C:\Users\DEVELO~1\AppData\Local\Temp\cceqLPme.s 			page 54


 3022 02ee 0B       		.uleb128 0xb
 3023 02ef 3B       		.uleb128 0x3b
 3024 02f0 0B       		.uleb128 0xb
 3025 02f1 39       		.uleb128 0x39
 3026 02f2 0B       		.uleb128 0xb
 3027 02f3 27       		.uleb128 0x27
 3028 02f4 19       		.uleb128 0x19
 3029 02f5 3C       		.uleb128 0x3c
 3030 02f6 19       		.uleb128 0x19
 3031 02f7 01       		.uleb128 0x1
 3032 02f8 13       		.uleb128 0x13
 3033 02f9 00       		.byte	0
 3034 02fa 00       		.byte	0
 3035 02fb 31       		.uleb128 0x31
 3036 02fc 2E       		.uleb128 0x2e
 3037 02fd 01       		.byte	0x1
 3038 02fe 3F       		.uleb128 0x3f
 3039 02ff 19       		.uleb128 0x19
 3040 0300 03       		.uleb128 0x3
 3041 0301 0E       		.uleb128 0xe
 3042 0302 3A       		.uleb128 0x3a
 3043 0303 0B       		.uleb128 0xb
 3044 0304 3B       		.uleb128 0x3b
 3045 0305 05       		.uleb128 0x5
 3046 0306 39       		.uleb128 0x39
 3047 0307 0B       		.uleb128 0xb
 3048 0308 27       		.uleb128 0x27
 3049 0309 19       		.uleb128 0x19
 3050 030a 49       		.uleb128 0x49
 3051 030b 13       		.uleb128 0x13
 3052 030c 3C       		.uleb128 0x3c
 3053 030d 19       		.uleb128 0x19
 3054 030e 01       		.uleb128 0x1
 3055 030f 13       		.uleb128 0x13
 3056 0310 00       		.byte	0
 3057 0311 00       		.byte	0
 3058 0312 32       		.uleb128 0x32
 3059 0313 2E       		.uleb128 0x2e
 3060 0314 01       		.byte	0x1
 3061 0315 03       		.uleb128 0x3
 3062 0316 0E       		.uleb128 0xe
 3063 0317 3A       		.uleb128 0x3a
 3064 0318 0B       		.uleb128 0xb
 3065 0319 3B       		.uleb128 0x3b
 3066 031a 05       		.uleb128 0x5
 3067 031b 39       		.uleb128 0x39
 3068 031c 0B       		.uleb128 0xb
 3069 031d 27       		.uleb128 0x27
 3070 031e 19       		.uleb128 0x19
 3071 031f 20       		.uleb128 0x20
 3072 0320 0B       		.uleb128 0xb
 3073 0321 01       		.uleb128 0x1
 3074 0322 13       		.uleb128 0x13
 3075 0323 00       		.byte	0
 3076 0324 00       		.byte	0
 3077 0325 33       		.uleb128 0x33
 3078 0326 2E       		.uleb128 0x2e
ARM GAS  C:\Users\DEVELO~1\AppData\Local\Temp\cceqLPme.s 			page 55


 3079 0327 01       		.byte	0x1
 3080 0328 03       		.uleb128 0x3
 3081 0329 0E       		.uleb128 0xe
 3082 032a 3A       		.uleb128 0x3a
 3083 032b 0B       		.uleb128 0xb
 3084 032c 3B       		.uleb128 0x3b
 3085 032d 05       		.uleb128 0x5
 3086 032e 39       		.uleb128 0x39
 3087 032f 0B       		.uleb128 0xb
 3088 0330 27       		.uleb128 0x27
 3089 0331 19       		.uleb128 0x19
 3090 0332 20       		.uleb128 0x20
 3091 0333 0B       		.uleb128 0xb
 3092 0334 00       		.byte	0
 3093 0335 00       		.byte	0
 3094 0336 34       		.uleb128 0x34
 3095 0337 05       		.uleb128 0x5
 3096 0338 00       		.byte	0
 3097 0339 03       		.uleb128 0x3
 3098 033a 0E       		.uleb128 0xe
 3099 033b 3A       		.uleb128 0x3a
 3100 033c 0B       		.uleb128 0xb
 3101 033d 3B       		.uleb128 0x3b
 3102 033e 05       		.uleb128 0x5
 3103 033f 39       		.uleb128 0x39
 3104 0340 0B       		.uleb128 0xb
 3105 0341 49       		.uleb128 0x49
 3106 0342 13       		.uleb128 0x13
 3107 0343 00       		.byte	0
 3108 0344 00       		.byte	0
 3109 0345 00       		.byte	0
 3110              		.section	.debug_loclists,"",%progbits
 3111 0000 5C010000 		.4byte	.Ldebug_loc3-.Ldebug_loc2
 3112              	.Ldebug_loc2:
 3113 0004 0500     		.2byte	0x5
 3114 0006 04       		.byte	0x4
 3115 0007 00       		.byte	0
 3116 0008 00000000 		.4byte	0
 3117              	.Ldebug_loc0:
 3118              	.LVUS10:
 3119 000c 00       		.uleb128 0
 3120 000d 00       		.uleb128 .LVU62
 3121 000e 00       		.uleb128 .LVU62
 3122 000f 00       		.uleb128 0
 3123              	.LLST10:
 3124 0010 06       		.byte	0x6
 3125 0011 00000000 		.4byte	.LVL12
 3126 0015 04       		.byte	0x4
 3127 0016 00       		.uleb128 .LVL12-.LVL12
 3128 0017 11       		.uleb128 .LVL13-1-.LVL12
 3129 0018 01       		.uleb128 0x1
 3130 0019 50       		.byte	0x50
 3131 001a 04       		.byte	0x4
 3132 001b 11       		.uleb128 .LVL13-1-.LVL12
 3133 001c 52       		.uleb128 .LFE347-.LVL12
 3134 001d 01       		.uleb128 0x1
 3135 001e 55       		.byte	0x55
ARM GAS  C:\Users\DEVELO~1\AppData\Local\Temp\cceqLPme.s 			page 56


 3136 001f 00       		.byte	0
 3137              	.LVUS11:
 3138 0020 00       		.uleb128 0
 3139 0021 00       		.uleb128 .LVU62
 3140 0022 00       		.uleb128 .LVU62
 3141 0023 00       		.uleb128 0
 3142              	.LLST11:
 3143 0024 06       		.byte	0x6
 3144 0025 00000000 		.4byte	.LVL12
 3145 0029 04       		.byte	0x4
 3146 002a 00       		.uleb128 .LVL12-.LVL12
 3147 002b 11       		.uleb128 .LVL13-1-.LVL12
 3148 002c 01       		.uleb128 0x1
 3149 002d 51       		.byte	0x51
 3150 002e 04       		.byte	0x4
 3151 002f 11       		.uleb128 .LVL13-1-.LVL12
 3152 0030 52       		.uleb128 .LFE347-.LVL12
 3153 0031 01       		.uleb128 0x1
 3154 0032 58       		.byte	0x58
 3155 0033 00       		.byte	0
 3156              	.LVUS12:
 3157 0034 00       		.uleb128 0
 3158 0035 00       		.uleb128 .LVU62
 3159 0036 00       		.uleb128 .LVU62
 3160 0037 00       		.uleb128 0
 3161              	.LLST12:
 3162 0038 06       		.byte	0x6
 3163 0039 00000000 		.4byte	.LVL12
 3164 003d 04       		.byte	0x4
 3165 003e 00       		.uleb128 .LVL12-.LVL12
 3166 003f 11       		.uleb128 .LVL13-1-.LVL12
 3167 0040 01       		.uleb128 0x1
 3168 0041 52       		.byte	0x52
 3169 0042 04       		.byte	0x4
 3170 0043 11       		.uleb128 .LVL13-1-.LVL12
 3171 0044 52       		.uleb128 .LFE347-.LVL12
 3172 0045 01       		.uleb128 0x1
 3173 0046 57       		.byte	0x57
 3174 0047 00       		.byte	0
 3175              	.LVUS13:
 3176 0048 00       		.uleb128 0
 3177 0049 00       		.uleb128 .LVU62
 3178 004a 00       		.uleb128 .LVU62
 3179 004b 00       		.uleb128 0
 3180              	.LLST13:
 3181 004c 06       		.byte	0x6
 3182 004d 00000000 		.4byte	.LVL12
 3183 0051 04       		.byte	0x4
 3184 0052 00       		.uleb128 .LVL12-.LVL12
 3185 0053 11       		.uleb128 .LVL13-1-.LVL12
 3186 0054 01       		.uleb128 0x1
 3187 0055 53       		.byte	0x53
 3188 0056 04       		.byte	0x4
 3189 0057 11       		.uleb128 .LVL13-1-.LVL12
 3190 0058 52       		.uleb128 .LFE347-.LVL12
 3191 0059 01       		.uleb128 0x1
 3192 005a 56       		.byte	0x56
ARM GAS  C:\Users\DEVELO~1\AppData\Local\Temp\cceqLPme.s 			page 57


 3193 005b 00       		.byte	0
 3194              	.LVUS14:
 3195 005c 00       		.uleb128 .LVU91
 3196 005d 00       		.uleb128 .LVU94
 3197 005e 00       		.uleb128 .LVU94
 3198 005f 02       		.uleb128 .LVU108
 3199              	.LLST14:
 3200 0060 06       		.byte	0x6
 3201 0061 40000000 		.4byte	.LVL18
 3202 0065 04       		.byte	0x4
 3203 0066 00       		.uleb128 .LVL18-.LVL18
 3204 0067 03       		.uleb128 .LVL19-1-.LVL18
 3205 0068 01       		.uleb128 0x1
 3206 0069 50       		.byte	0x50
 3207 006a 04       		.byte	0x4
 3208 006b 03       		.uleb128 .LVL19-1-.LVL18
 3209 006c 0A       		.uleb128 .LVL20-.LVL18
 3210 006d 01       		.uleb128 0x1
 3211 006e 54       		.byte	0x54
 3212 006f 00       		.byte	0
 3213              	.LVUS15:
 3214 0070 00       		.uleb128 .LVU62
 3215 0071 00       		.uleb128 .LVU85
 3216 0072 00       		.uleb128 .LVU85
 3217 0073 00       		.uleb128 .LVU86
 3218              	.LLST15:
 3219 0074 06       		.byte	0x6
 3220 0075 12000000 		.4byte	.LVL13
 3221 0079 04       		.byte	0x4
 3222 007a 00       		.uleb128 .LVL13-.LVL13
 3223 007b 1E       		.uleb128 .LVL16-.LVL13
 3224 007c 01       		.uleb128 0x1
 3225 007d 50       		.byte	0x50
 3226 007e 04       		.byte	0x4
 3227 007f 1E       		.uleb128 .LVL16-.LVL13
 3228 0080 21       		.uleb128 .LVL17-1-.LVL13
 3229 0081 02       		.uleb128 0x2
 3230 0082 91       		.byte	0x91
 3231 0083 54       		.sleb128 -44
 3232 0084 00       		.byte	0
 3233              	.LVUS16:
 3234 0085 00       		.uleb128 .LVU68
 3235 0086 00       		.uleb128 .LVU91
 3236              	.LLST16:
 3237 0087 08       		.byte	0x8
 3238 0088 1C000000 		.4byte	.LVL14
 3239 008c 24       		.uleb128 .LVL18-.LVL14
 3240 008d 01       		.uleb128 0x1
 3241 008e 54       		.byte	0x54
 3242 008f 00       		.byte	0
 3243              	.LVUS18:
 3244 0090 06       		.uleb128 .LVU74
 3245 0091 00       		.uleb128 .LVU80
 3246              	.LLST18:
 3247 0092 08       		.byte	0x8
 3248 0093 1C000000 		.4byte	.LVL14
 3249 0097 12       		.uleb128 .LVL15-.LVL14
ARM GAS  C:\Users\DEVELO~1\AppData\Local\Temp\cceqLPme.s 			page 58


 3250 0098 03       		.uleb128 0x3
 3251 0099 08       		.byte	0x8
 3252 009a 30       		.byte	0x30
 3253 009b 9F       		.byte	0x9f
 3254 009c 00       		.byte	0
 3255              	.LVUS19:
 3256 009d 0A       		.uleb128 .LVU104
 3257 009e 00       		.uleb128 .LVU106
 3258              	.LLST19:
 3259 009f 08       		.byte	0x8
 3260 00a0 44000000 		.4byte	.LVL19
 3261 00a4 06       		.uleb128 .LVL20-.LVL19
 3262 00a5 02       		.uleb128 0x2
 3263 00a6 30       		.byte	0x30
 3264 00a7 9F       		.byte	0x9f
 3265 00a8 00       		.byte	0
 3266              	.LVUS0:
 3267 00a9 00       		.uleb128 0
 3268 00aa 00       		.uleb128 .LVU8
 3269 00ab 00       		.uleb128 .LVU8
 3270 00ac 00       		.uleb128 0
 3271              	.LLST0:
 3272 00ad 06       		.byte	0x6
 3273 00ae 00000000 		.4byte	.LVL0
 3274 00b2 04       		.byte	0x4
 3275 00b3 00       		.uleb128 .LVL0-.LVL0
 3276 00b4 0F       		.uleb128 .LVL2-1-.LVL0
 3277 00b5 01       		.uleb128 0x1
 3278 00b6 50       		.byte	0x50
 3279 00b7 04       		.byte	0x4
 3280 00b8 0F       		.uleb128 .LVL2-1-.LVL0
 3281 00b9 4C       		.uleb128 .LFE346-.LVL0
 3282 00ba 04       		.uleb128 0x4
 3283 00bb A3       		.byte	0xa3
 3284 00bc 01       		.uleb128 0x1
 3285 00bd 50       		.byte	0x50
 3286 00be 9F       		.byte	0x9f
 3287 00bf 00       		.byte	0
 3288              	.LVUS1:
 3289 00c0 00       		.uleb128 0
 3290 00c1 00       		.uleb128 .LVU8
 3291 00c2 00       		.uleb128 .LVU8
 3292 00c3 00       		.uleb128 .LVU14
 3293 00c4 00       		.uleb128 .LVU14
 3294 00c5 00       		.uleb128 0
 3295              	.LLST1:
 3296 00c6 06       		.byte	0x6
 3297 00c7 00000000 		.4byte	.LVL0
 3298 00cb 04       		.byte	0x4
 3299 00cc 00       		.uleb128 .LVL0-.LVL0
 3300 00cd 0F       		.uleb128 .LVL2-1-.LVL0
 3301 00ce 01       		.uleb128 0x1
 3302 00cf 51       		.byte	0x51
 3303 00d0 04       		.byte	0x4
 3304 00d1 0F       		.uleb128 .LVL2-1-.LVL0
 3305 00d2 18       		.uleb128 .LVL4-.LVL0
 3306 00d3 01       		.uleb128 0x1
ARM GAS  C:\Users\DEVELO~1\AppData\Local\Temp\cceqLPme.s 			page 59


 3307 00d4 55       		.byte	0x55
 3308 00d5 04       		.byte	0x4
 3309 00d6 18       		.uleb128 .LVL4-.LVL0
 3310 00d7 4C       		.uleb128 .LFE346-.LVL0
 3311 00d8 04       		.uleb128 0x4
 3312 00d9 A3       		.byte	0xa3
 3313 00da 01       		.uleb128 0x1
 3314 00db 51       		.byte	0x51
 3315 00dc 9F       		.byte	0x9f
 3316 00dd 00       		.byte	0
 3317              	.LVUS2:
 3318 00de 00       		.uleb128 0
 3319 00df 00       		.uleb128 .LVU6
 3320 00e0 00       		.uleb128 .LVU6
 3321 00e1 00       		.uleb128 0
 3322              	.LLST2:
 3323 00e2 06       		.byte	0x6
 3324 00e3 00000000 		.4byte	.LVL0
 3325 00e7 04       		.byte	0x4
 3326 00e8 00       		.uleb128 .LVL0-.LVL0
 3327 00e9 08       		.uleb128 .LVL1-.LVL0
 3328 00ea 01       		.uleb128 0x1
 3329 00eb 52       		.byte	0x52
 3330 00ec 04       		.byte	0x4
 3331 00ed 08       		.uleb128 .LVL1-.LVL0
 3332 00ee 4C       		.uleb128 .LFE346-.LVL0
 3333 00ef 01       		.uleb128 0x1
 3334 00f0 57       		.byte	0x57
 3335 00f1 00       		.byte	0
 3336              	.LVUS3:
 3337 00f2 00       		.uleb128 0
 3338 00f3 00       		.uleb128 .LVU8
 3339 00f4 00       		.uleb128 .LVU8
 3340 00f5 00       		.uleb128 0
 3341              	.LLST3:
 3342 00f6 06       		.byte	0x6
 3343 00f7 00000000 		.4byte	.LVL0
 3344 00fb 04       		.byte	0x4
 3345 00fc 00       		.uleb128 .LVL0-.LVL0
 3346 00fd 0F       		.uleb128 .LVL2-1-.LVL0
 3347 00fe 01       		.uleb128 0x1
 3348 00ff 53       		.byte	0x53
 3349 0100 04       		.byte	0x4
 3350 0101 0F       		.uleb128 .LVL2-1-.LVL0
 3351 0102 4C       		.uleb128 .LFE346-.LVL0
 3352 0103 01       		.uleb128 0x1
 3353 0104 56       		.byte	0x56
 3354 0105 00       		.byte	0
 3355              	.LVUS4:
 3356 0106 00       		.uleb128 .LVU33
 3357 0107 00       		.uleb128 .LVU36
 3358 0108 00       		.uleb128 .LVU36
 3359 0109 02       		.uleb128 .LVU50
 3360              	.LLST4:
 3361 010a 06       		.byte	0x6
 3362 010b 38000000 		.4byte	.LVL9
 3363 010f 04       		.byte	0x4
ARM GAS  C:\Users\DEVELO~1\AppData\Local\Temp\cceqLPme.s 			page 60


 3364 0110 00       		.uleb128 .LVL9-.LVL9
 3365 0111 07       		.uleb128 .LVL10-1-.LVL9
 3366 0112 01       		.uleb128 0x1
 3367 0113 50       		.byte	0x50
 3368 0114 04       		.byte	0x4
 3369 0115 07       		.uleb128 .LVL10-1-.LVL9
 3370 0116 0E       		.uleb128 .LVL11-.LVL9
 3371 0117 01       		.uleb128 0x1
 3372 0118 54       		.byte	0x54
 3373 0119 00       		.byte	0
 3374              	.LVUS5:
 3375 011a 00       		.uleb128 .LVU8
 3376 011b 00       		.uleb128 .LVU29
 3377 011c 00       		.uleb128 .LVU29
 3378 011d 00       		.uleb128 .LVU33
 3379              	.LLST5:
 3380 011e 06       		.byte	0x6
 3381 011f 10000000 		.4byte	.LVL2
 3382 0123 04       		.byte	0x4
 3383 0124 00       		.uleb128 .LVL2-.LVL2
 3384 0125 1E       		.uleb128 .LVL7-.LVL2
 3385 0126 01       		.uleb128 0x1
 3386 0127 50       		.byte	0x50
 3387 0128 04       		.byte	0x4
 3388 0129 1E       		.uleb128 .LVL7-.LVL2
 3389 012a 28       		.uleb128 .LVL9-.LVL2
 3390 012b 01       		.uleb128 0x1
 3391 012c 54       		.byte	0x54
 3392 012d 00       		.byte	0
 3393              	.LVUS6:
 3394 012e 01       		.uleb128 .LVU11
 3395 012f 00       		.uleb128 .LVU14
 3396 0130 00       		.uleb128 .LVU14
 3397 0131 02       		.uleb128 .LVU50
 3398              	.LLST6:
 3399 0132 06       		.byte	0x6
 3400 0133 14000000 		.4byte	.LVL3
 3401 0137 04       		.byte	0x4
 3402 0138 00       		.uleb128 .LVL3-.LVL3
 3403 0139 04       		.uleb128 .LVL4-.LVL3
 3404 013a 06       		.uleb128 0x6
 3405 013b 70       		.byte	0x70
 3406 013c 00       		.sleb128 0
 3407 013d 75       		.byte	0x75
 3408 013e 00       		.sleb128 0
 3409 013f 22       		.byte	0x22
 3410 0140 9F       		.byte	0x9f
 3411 0141 04       		.byte	0x4
 3412 0142 04       		.uleb128 .LVL4-.LVL3
 3413 0143 32       		.uleb128 .LVL11-.LVL3
 3414 0144 01       		.uleb128 0x1
 3415 0145 55       		.byte	0x55
 3416 0146 00       		.byte	0
 3417              	.LVUS8:
 3418 0147 05       		.uleb128 .LVU20
 3419 0148 00       		.uleb128 .LVU24
 3420              	.LLST8:
ARM GAS  C:\Users\DEVELO~1\AppData\Local\Temp\cceqLPme.s 			page 61


 3421 0149 08       		.byte	0x8
 3422 014a 22000000 		.4byte	.LVL5
 3423 014e 0A       		.uleb128 .LVL6-.LVL5
 3424 014f 03       		.uleb128 0x3
 3425 0150 08       		.byte	0x8
 3426 0151 30       		.byte	0x30
 3427 0152 9F       		.byte	0x9f
 3428 0153 00       		.byte	0
 3429              	.LVUS9:
 3430 0154 0A       		.uleb128 .LVU46
 3431 0155 00       		.uleb128 .LVU48
 3432              	.LLST9:
 3433 0156 08       		.byte	0x8
 3434 0157 40000000 		.4byte	.LVL10
 3435 015b 06       		.uleb128 .LVL11-.LVL10
 3436 015c 02       		.uleb128 0x2
 3437 015d 30       		.byte	0x30
 3438 015e 9F       		.byte	0x9f
 3439 015f 00       		.byte	0
 3440              	.Ldebug_loc3:
 3441              		.section	.debug_aranges,"",%progbits
 3442 0000 24000000 		.4byte	0x24
 3443 0004 0200     		.2byte	0x2
 3444 0006 00000000 		.4byte	.Ldebug_info0
 3445 000a 04       		.byte	0x4
 3446 000b 00       		.byte	0
 3447 000c 0000     		.2byte	0
 3448 000e 0000     		.2byte	0
 3449 0010 00000000 		.4byte	.LFB346
 3450 0014 4C000000 		.4byte	.LFE346-.LFB346
 3451 0018 00000000 		.4byte	.LFB347
 3452 001c 52000000 		.4byte	.LFE347-.LFB347
 3453 0020 00000000 		.4byte	0
 3454 0024 00000000 		.4byte	0
 3455              		.section	.debug_rnglists,"",%progbits
 3456              	.Ldebug_ranges0:
 3457 0000 30000000 		.4byte	.Ldebug_ranges3-.Ldebug_ranges2
 3458              	.Ldebug_ranges2:
 3459 0004 0500     		.2byte	0x5
 3460 0006 04       		.byte	0x4
 3461 0007 00       		.byte	0
 3462 0008 00000000 		.4byte	0
 3463              	.LLRL7:
 3464 000c 05       		.byte	0x5
 3465 000d 22000000 		.4byte	.LBB34
 3466 0011 04       		.byte	0x4
 3467 0012 00       		.uleb128 .LBB34-.LBB34
 3468 0013 02       		.uleb128 .LBE34-.LBB34
 3469 0014 04       		.byte	0x4
 3470 0015 06       		.uleb128 .LBB41-.LBB34
 3471 0016 0A       		.uleb128 .LBE41-.LBB34
 3472 0017 00       		.byte	0
 3473              	.LLRL17:
 3474 0018 05       		.byte	0x5
 3475 0019 1C000000 		.4byte	.LBB47
 3476 001d 04       		.byte	0x4
 3477 001e 00       		.uleb128 .LBB47-.LBB47
ARM GAS  C:\Users\DEVELO~1\AppData\Local\Temp\cceqLPme.s 			page 62


 3478 001f 00       		.uleb128 .LBE47-.LBB47
 3479 0020 04       		.byte	0x4
 3480 0021 02       		.uleb128 .LBB57-.LBB47
 3481 0022 04       		.uleb128 .LBE57-.LBB47
 3482 0023 04       		.byte	0x4
 3483 0024 0E       		.uleb128 .LBB58-.LBB47
 3484 0025 12       		.uleb128 .LBE58-.LBB47
 3485 0026 00       		.byte	0
 3486              	.LLRL20:
 3487 0027 07       		.byte	0x7
 3488 0028 00000000 		.4byte	.LFB346
 3489 002c 4C       		.uleb128 .LFE346-.LFB346
 3490 002d 07       		.byte	0x7
 3491 002e 00000000 		.4byte	.LFB347
 3492 0032 52       		.uleb128 .LFE347-.LFB347
 3493 0033 00       		.byte	0
 3494              	.Ldebug_ranges3:
 3495              		.section	.debug_line,"",%progbits
 3496              	.Ldebug_line0:
 3497 0000 BE040000 		.section	.debug_str,"MS",%progbits,1
 3497      0300FC02 
 3497      00000201 
 3497      FB0E0D00 
 3497      01010101 
 3498              	.LASF123:
 3499 0000 7466756E 		.ascii	"tfunc_t\000"
 3499      635F7400 
 3500              	.LASF116:
 3501 0008 72656164 		.ascii	"ready_list_t\000"
 3501      795F6C69 
 3501      73745F74 
 3501      00
 3502              	.LASF4:
 3503 0015 73697A65 		.ascii	"size_t\000"
 3503      5F7400
 3504              	.LASF105:
 3505 001c 7264796D 		.ascii	"rdymsg\000"
 3505      736700
 3506              	.LASF126:
 3507 0023 66756E63 		.ascii	"funcp\000"
 3507      7000
 3508              	.LASF52:
 3509 0029 72666375 		.ascii	"rfcu\000"
 3509      00
 3510              	.LASF5:
 3511 002e 5F5F7569 		.ascii	"__uint8_t\000"
 3511      6E74385F 
 3511      7400
 3512              	.LASF71:
 3513 0038 70726576 		.ascii	"prev\000"
 3513      00
 3514              	.LASF92:
 3515 003d 706F7274 		.ascii	"port_intctx\000"
 3515      5F696E74 
 3515      63747800 
 3516              	.LASF139:
 3517 0049 70616765 		.ascii	"pages\000"
ARM GAS  C:\Users\DEVELO~1\AppData\Local\Temp\cceqLPme.s 			page 63


 3517      7300
 3518              	.LASF49:
 3519 004f 76746C69 		.ascii	"vtlist\000"
 3519      737400
 3520              	.LASF134:
 3521 0056 70726F76 		.ascii	"provider\000"
 3521      69646572 
 3521      00
 3522              	.LASF82:
 3523 005f 74797065 		.ascii	"type\000"
 3523      00
 3524              	.LASF127:
 3525 0064 74687265 		.ascii	"thread_descriptor_t\000"
 3525      61645F64 
 3525      65736372 
 3525      6970746F 
 3525      725F7400 
 3526              	.LASF85:
 3527 0078 74726163 		.ascii	"trace_event_t\000"
 3527      655F6576 
 3527      656E745F 
 3527      7400
 3528              	.LASF130:
 3529 0086 6D656D67 		.ascii	"memgetfunc_t\000"
 3529      65746675 
 3529      6E635F74 
 3529      00
 3530              	.LASF125:
 3531 0093 77656E64 		.ascii	"wend\000"
 3531      00
 3532              	.LASF80:
 3533 0098 68616C74 		.ascii	"halt\000"
 3533      00
 3534              	.LASF106:
 3535 009d 65786974 		.ascii	"exitcode\000"
 3535      636F6465 
 3535      00
 3536              	.LASF54:
 3537 00a6 6D61696E 		.ascii	"mainthread\000"
 3537      74687265 
 3537      616400
 3538              	.LASF108:
 3539 00b1 73656E74 		.ascii	"sentmsg\000"
 3539      6D736700 
 3540              	.LASF77:
 3541 00b9 64656C74 		.ascii	"delta\000"
 3541      6100
 3542              	.LASF150:
 3543 00bf 68656170 		.ascii	"heapp\000"
 3543      7000
 3544              	.LASF65:
 3545 00c5 73797369 		.ascii	"sysinterval_t\000"
 3545      6E746572 
 3545      76616C5F 
 3545      7400
 3546              	.LASF68:
 3547 00d3 6E657874 		.ascii	"next\000"
ARM GAS  C:\Users\DEVELO~1\AppData\Local\Temp\cceqLPme.s 			page 64


 3547      00
 3548              	.LASF1:
 3549 00d8 6C6F6E67 		.ascii	"long long int\000"
 3549      206C6F6E 
 3549      6720696E 
 3549      7400
 3550              	.LASF3:
 3551 00e6 7369676E 		.ascii	"signed char\000"
 3551      65642063 
 3551      68617200 
 3552              	.LASF13:
 3553 00f2 6C6F6E67 		.ascii	"long unsigned int\000"
 3553      20756E73 
 3553      69676E65 
 3553      6420696E 
 3553      7400
 3554              	.LASF76:
 3555 0104 63685F64 		.ascii	"ch_delta_list\000"
 3555      656C7461 
 3555      5F6C6973 
 3555      7400
 3556              	.LASF15:
 3557 0112 6C6F6E67 		.ascii	"long long unsigned int\000"
 3557      206C6F6E 
 3557      6720756E 
 3557      7369676E 
 3557      65642069 
 3558              	.LASF146:
 3559 0129 63685468 		.ascii	"chThdCreateSuspendedI\000"
 3559      64437265 
 3559      61746553 
 3559      75737065 
 3559      6E646564 
 3560              	.LASF162:
 3561 013f 62617365 		.ascii	"basePri\000"
 3561      50726900 
 3562              	.LASF36:
 3563 0147 73746174 		.ascii	"state\000"
 3563      6500
 3564              	.LASF11:
 3565 014d 6C6F6E67 		.ascii	"long int\000"
 3565      20696E74 
 3565      00
 3566              	.LASF149:
 3567 0156 63685468 		.ascii	"chThdCreateFromHeap\000"
 3567      64437265 
 3567      61746546 
 3567      726F6D48 
 3567      65617000 
 3568              	.LASF24:
 3569 016a 74737461 		.ascii	"tstate_t\000"
 3569      74655F74 
 3569      00
 3570              	.LASF33:
 3571 0173 6F776E65 		.ascii	"owner\000"
 3571      7200
 3572              	.LASF57:
ARM GAS  C:\Users\DEVELO~1\AppData\Local\Temp\cceqLPme.s 			page 65


 3573 0179 63685F72 		.ascii	"ch_rfcu\000"
 3573      66637500 
 3574              	.LASF132:
 3575 0181 6D656D6F 		.ascii	"memory_heap_t\000"
 3575      72795F68 
 3575      6561705F 
 3575      7400
 3576              	.LASF153:
 3577 018f 706F7274 		.ascii	"port_unlock\000"
 3577      5F756E6C 
 3577      6F636B00 
 3578              	.LASF70:
 3579 019b 63685F71 		.ascii	"ch_queue\000"
 3579      75657565 
 3579      00
 3580              	.LASF17:
 3581 01a4 75696E74 		.ascii	"uint16_t\000"
 3581      31365F74 
 3581      00
 3582              	.LASF91:
 3583 01ad 646F7562 		.ascii	"double\000"
 3583      6C6500
 3584              	.LASF89:
 3585 01b4 74726163 		.ascii	"trace_buffer_t\000"
 3585      655F6275 
 3585      66666572 
 3585      5F7400
 3586              	.LASF99:
 3587 01c3 63685F72 		.ascii	"ch_registry\000"
 3587      65676973 
 3587      74727900 
 3588              	.LASF88:
 3589 01cf 62756666 		.ascii	"buffer\000"
 3589      657200
 3590              	.LASF144:
 3591 01d6 6D656D6F 		.ascii	"memory_pool_t\000"
 3591      72795F70 
 3591      6F6F6C5F 
 3591      7400
 3592              	.LASF157:
 3593 01e4 433A5C43 		.ascii	"C:\\ChibiStudio\\chibios2111\\demos\\STM32\\RT-STM3"
 3593      68696269 
 3593      53747564 
 3593      696F5C63 
 3593      68696269 
 3594 0212 32483734 		.ascii	"2H743ZI_REV_XY-NUCLEO144 - Copie\000"
 3594      335A495F 
 3594      5245565F 
 3594      58592D4E 
 3594      55434C45 
 3595              	.LASF12:
 3596 0233 5F5F7569 		.ascii	"__uint32_t\000"
 3596      6E743332 
 3596      5F7400
 3597              	.LASF58:
 3598 023e 6D61736B 		.ascii	"mask\000"
 3598      00
ARM GAS  C:\Users\DEVELO~1\AppData\Local\Temp\cceqLPme.s 			page 66


 3599              	.LASF39:
 3600 0243 77616974 		.ascii	"waiting\000"
 3600      696E6700 
 3601              	.LASF118:
 3602 024b 6D61696E 		.ascii	"mainthread_base\000"
 3602      74687265 
 3602      61645F62 
 3602      61736500 
 3603              	.LASF128:
 3604 025b 6D757465 		.ascii	"mutex_t\000"
 3604      785F7400 
 3605              	.LASF143:
 3606 0263 616C6967 		.ascii	"align\000"
 3606      6E00
 3607              	.LASF93:
 3608 0269 706F7274 		.ascii	"port_context\000"
 3608      5F636F6E 
 3608      74657874 
 3608      00
 3609              	.LASF51:
 3610 0276 636F7265 		.ascii	"core_id\000"
 3610      5F696400 
 3611              	.LASF29:
 3612 027e 636E745F 		.ascii	"cnt_t\000"
 3612      7400
 3613              	.LASF40:
 3614 0284 6D736771 		.ascii	"msgqueue\000"
 3614      75657565 
 3614      00
 3615              	.LASF0:
 3616 028d 756E7369 		.ascii	"unsigned int\000"
 3616      676E6564 
 3616      20696E74 
 3616      00
 3617              	.LASF120:
 3618 029a 69646C65 		.ascii	"idlethread_base\000"
 3618      74687265 
 3618      61645F62 
 3618      61736500 
 3619              	.LASF109:
 3620 02aa 77747365 		.ascii	"wtsemp\000"
 3620      6D7000
 3621              	.LASF63:
 3622 02b1 73797374 		.ascii	"system_debug_t\000"
 3622      656D5F64 
 3622      65627567 
 3622      5F7400
 3623              	.LASF107:
 3624 02c0 77747472 		.ascii	"wttrp\000"
 3624      7000
 3625              	.LASF32:
 3626 02c6 72717565 		.ascii	"rqueue\000"
 3626      756500
 3627              	.LASF69:
 3628 02cd 63685F71 		.ascii	"ch_queue_t\000"
 3628      75657565 
 3628      5F7400
ARM GAS  C:\Users\DEVELO~1\AppData\Local\Temp\cceqLPme.s 			page 67


 3629              	.LASF155:
 3630 02d8 474E5520 		.ascii	"GNU C17 11.3.1 20220712 -mcpu=cortex-m7 -mthumb -mf"
 3630      43313720 
 3630      31312E33 
 3630      2E312032 
 3630      30323230 
 3631 030b 6C6F6174 		.ascii	"loat-abi=soft -march=armv7e-m -ggdb -O2 -fomit-fram"
 3631      2D616269 
 3631      3D736F66 
 3631      74202D6D 
 3631      61726368 
 3632 033e 652D706F 		.ascii	"e-pointer -falign-functions=16 -ffunction-sections "
 3632      696E7465 
 3632      72202D66 
 3632      616C6967 
 3632      6E2D6675 
 3633 0371 2D666461 		.ascii	"-fdata-sections -fno-common\000"
 3633      74612D73 
 3633      65637469 
 3633      6F6E7320 
 3633      2D666E6F 
 3634              	.LASF100:
 3635 038d 71756575 		.ascii	"queue\000"
 3635      6500
 3636              	.LASF34:
 3637 0393 6E616D65 		.ascii	"name\000"
 3637      00
 3638              	.LASF87:
 3639 0398 73697A65 		.ascii	"size\000"
 3639      00
 3640              	.LASF9:
 3641 039d 73686F72 		.ascii	"short unsigned int\000"
 3641      7420756E 
 3641      7369676E 
 3641      65642069 
 3641      6E7400
 3642              	.LASF46:
 3643 03b0 63685F74 		.ascii	"ch_thread\000"
 3643      68726561 
 3643      6400
 3644              	.LASF27:
 3645 03ba 6D73675F 		.ascii	"msg_t\000"
 3645      7400
 3646              	.LASF41:
 3647 03c0 6570656E 		.ascii	"epending\000"
 3647      64696E67 
 3647      00
 3648              	.LASF23:
 3649 03c9 746D6F64 		.ascii	"tmode_t\000"
 3649      655F7400 
 3650              	.LASF67:
 3651 03d1 63685F6C 		.ascii	"ch_list\000"
 3651      69737400 
 3652              	.LASF114:
 3653 03d9 63685F72 		.ascii	"ch_ready_list\000"
 3653      65616479 
 3653      5F6C6973 
ARM GAS  C:\Users\DEVELO~1\AppData\Local\Temp\cceqLPme.s 			page 68


 3653      7400
 3654              	.LASF28:
 3655 03e7 6576656E 		.ascii	"eventmask_t\000"
 3655      746D6173 
 3655      6B5F7400 
 3656              	.LASF10:
 3657 03f3 5F5F696E 		.ascii	"__int32_t\000"
 3657      7433325F 
 3657      7400
 3658              	.LASF98:
 3659 03fd 76697274 		.ascii	"virtual_timers_list_t\000"
 3659      75616C5F 
 3659      74696D65 
 3659      72735F6C 
 3659      6973745F 
 3660              	.LASF22:
 3661 0413 73746B61 		.ascii	"stkalign_t\000"
 3661      6C69676E 
 3661      5F7400
 3662              	.LASF83:
 3663 041e 72747374 		.ascii	"rtstamp\000"
 3663      616D7000 
 3664              	.LASF97:
 3665 0426 6C617374 		.ascii	"laststamp\000"
 3665      7374616D 
 3665      7000
 3666              	.LASF43:
 3667 0430 7265616C 		.ascii	"realprio\000"
 3667      7072696F 
 3667      00
 3668              	.LASF56:
 3669 0439 72666375 		.ascii	"rfcu_mask_t\000"
 3669      5F6D6173 
 3669      6B5F7400 
 3670              	.LASF102:
 3671 0445 74687265 		.ascii	"thread_reference_t\000"
 3671      61645F72 
 3671      65666572 
 3671      656E6365 
 3671      5F7400
 3672              	.LASF94:
 3673 0458 63685F76 		.ascii	"ch_virtual_timers_list\000"
 3673      69727475 
 3673      616C5F74 
 3673      696D6572 
 3673      735F6C69 
 3674              	.LASF161:
 3675 046f 5F5F7365 		.ascii	"__set_BASEPRI\000"
 3675      745F4241 
 3675      53455052 
 3675      4900
 3676              	.LASF66:
 3677 047d 63685F6C 		.ascii	"ch_list_t\000"
 3677      6973745F 
 3677      7400
 3678              	.LASF86:
 3679 0487 73757370 		.ascii	"suspended\000"
ARM GAS  C:\Users\DEVELO~1\AppData\Local\Temp\cceqLPme.s 			page 69


 3679      656E6465 
 3679      6400
 3680              	.LASF20:
 3681 0491 75696E74 		.ascii	"uint64_t\000"
 3681      36345F74 
 3681      00
 3682              	.LASF148:
 3683 049a 63685468 		.ascii	"chThdCreateFromMemoryPool\000"
 3683      64437265 
 3683      61746546 
 3683      726F6D4D 
 3683      656D6F72 
 3684              	.LASF117:
 3685 04b4 63685F6F 		.ascii	"ch_os_instance_config\000"
 3685      735F696E 
 3685      7374616E 
 3685      63655F63 
 3685      6F6E6669 
 3686              	.LASF124:
 3687 04ca 77626173 		.ascii	"wbase\000"
 3687      6500
 3688              	.LASF142:
 3689 04d0 6F626A65 		.ascii	"object_size\000"
 3689      63745F73 
 3689      697A6500 
 3690              	.LASF131:
 3691 04dc 6D656D67 		.ascii	"memgetfunc2_t\000"
 3691      65746675 
 3691      6E63325F 
 3691      7400
 3692              	.LASF84:
 3693 04ea 74696D65 		.ascii	"time\000"
 3693      00
 3694              	.LASF74:
 3695 04ef 7072696F 		.ascii	"prio\000"
 3695      00
 3696              	.LASF138:
 3697 04f4 75736564 		.ascii	"used\000"
 3697      00
 3698              	.LASF115:
 3699 04f9 63757272 		.ascii	"current\000"
 3699      656E7400 
 3700              	.LASF14:
 3701 0501 5F5F7569 		.ascii	"__uint64_t\000"
 3701      6E743634 
 3701      5F7400
 3702              	.LASF90:
 3703 050c 666C6F61 		.ascii	"float\000"
 3703      7400
 3704              	.LASF30:
 3705 0512 636F7265 		.ascii	"core_id_t\000"
 3705      5F69645F 
 3705      7400
 3706              	.LASF25:
 3707 051c 74726566 		.ascii	"trefs_t\000"
 3707      735F7400 
 3708              	.LASF38:
ARM GAS  C:\Users\DEVELO~1\AppData\Local\Temp\cceqLPme.s 			page 70


 3709 0524 72656673 		.ascii	"refs\000"
 3709      00
 3710              	.LASF81:
 3711 0529 75736572 		.ascii	"user\000"
 3711      00
 3712              	.LASF26:
 3713 052e 74707269 		.ascii	"tprio_t\000"
 3713      6F5F7400 
 3714              	.LASF60:
 3715 0536 63685F73 		.ascii	"ch_system_debug\000"
 3715      79737465 
 3715      6D5F6465 
 3715      62756700 
 3716              	.LASF129:
 3717 0546 5F426F6F 		.ascii	"_Bool\000"
 3717      6C00
 3718              	.LASF18:
 3719 054c 696E7433 		.ascii	"int32_t\000"
 3719      325F7400 
 3720              	.LASF6:
 3721 0554 756E7369 		.ascii	"unsigned char\000"
 3721      676E6564 
 3721      20636861 
 3721      7200
 3722              	.LASF158:
 3723 0562 68656170 		.ascii	"heap_header\000"
 3723      5F686561 
 3723      64657200 
 3724              	.LASF59:
 3725 056e 72666375 		.ascii	"rfcu_t\000"
 3725      5F7400
 3726              	.LASF7:
 3727 0575 73686F72 		.ascii	"short int\000"
 3727      7420696E 
 3727      7400
 3728              	.LASF96:
 3729 057f 6C617374 		.ascii	"lasttime\000"
 3729      74696D65 
 3729      00
 3730              	.LASF78:
 3731 0588 77746F62 		.ascii	"wtobjp\000"
 3731      6A7000
 3732              	.LASF111:
 3733 058f 65776D61 		.ascii	"ewmask\000"
 3733      736B00
 3734              	.LASF151:
 3735 0596 5F5F6675 		.ascii	"__func__\000"
 3735      6E635F5F 
 3735      00
 3736              	.LASF152:
 3737 059f 63685379 		.ascii	"chSysLock\000"
 3737      734C6F63 
 3737      6B00
 3738              	.LASF79:
 3739 05a9 72656173 		.ascii	"reason\000"
 3739      6F6E00
 3740              	.LASF112:
ARM GAS  C:\Users\DEVELO~1\AppData\Local\Temp\cceqLPme.s 			page 71


 3741 05b0 63685F73 		.ascii	"ch_semaphore\000"
 3741      656D6170 
 3741      686F7265 
 3741      00
 3742              	.LASF101:
 3743 05bd 72656769 		.ascii	"registry_t\000"
 3743      73747279 
 3743      5F7400
 3744              	.LASF19:
 3745 05c8 75696E74 		.ascii	"uint32_t\000"
 3745      33325F74 
 3745      00
 3746              	.LASF110:
 3747 05d1 77746D74 		.ascii	"wtmtxp\000"
 3747      787000
 3748              	.LASF21:
 3749 05d8 706F7274 		.ascii	"port_stkalign_t\000"
 3749      5F73746B 
 3749      616C6967 
 3749      6E5F7400 
 3750              	.LASF156:
 3751 05e8 2E2E2F2E 		.ascii	"../../../os/rt/src/chdynamic.c\000"
 3751      2E2F2E2E 
 3751      2F6F732F 
 3751      72742F73 
 3751      72632F63 
 3752              	.LASF140:
 3753 0607 68656170 		.ascii	"heap\000"
 3753      00
 3754              	.LASF2:
 3755 060c 6C6F6E67 		.ascii	"long double\000"
 3755      20646F75 
 3755      626C6500 
 3756              	.LASF35:
 3757 0618 77616261 		.ascii	"wabase\000"
 3757      736500
 3758              	.LASF62:
 3759 061f 63686172 		.ascii	"char\000"
 3759      00
 3760              	.LASF53:
 3761 0624 636F6E66 		.ascii	"config\000"
 3761      696700
 3762              	.LASF8:
 3763 062b 5F5F7569 		.ascii	"__uint16_t\000"
 3763      6E743136 
 3763      5F7400
 3764              	.LASF31:
 3765 0636 74687265 		.ascii	"thread_t\000"
 3765      61645F74 
 3765      00
 3766              	.LASF95:
 3767 063f 646C6973 		.ascii	"dlist\000"
 3767      7400
 3768              	.LASF64:
 3769 0645 73797374 		.ascii	"systime_t\000"
 3769      696D655F 
 3769      7400
ARM GAS  C:\Users\DEVELO~1\AppData\Local\Temp\cceqLPme.s 			page 72


 3770              	.LASF136:
 3771 064f 68656170 		.ascii	"heap_header_t\000"
 3771      5F686561 
 3771      6465725F 
 3771      7400
 3772              	.LASF72:
 3773 065d 63685F70 		.ascii	"ch_priority_queue_t\000"
 3773      72696F72 
 3773      6974795F 
 3773      71756575 
 3773      655F7400 
 3774              	.LASF61:
 3775 0671 70616E69 		.ascii	"panic_msg\000"
 3775      635F6D73 
 3775      6700
 3776              	.LASF104:
 3777 067b 70717565 		.ascii	"pqueue\000"
 3777      756500
 3778              	.LASF47:
 3779 0682 63685F6F 		.ascii	"ch_os_instance\000"
 3779      735F696E 
 3779      7374616E 
 3779      636500
 3780              	.LASF45:
 3781 0691 6F735F69 		.ascii	"os_instance_t\000"
 3781      6E737461 
 3781      6E63655F 
 3781      7400
 3782              	.LASF50:
 3783 069f 7265676C 		.ascii	"reglist\000"
 3783      69737400 
 3784              	.LASF137:
 3785 06a7 66726565 		.ascii	"free\000"
 3785      00
 3786              	.LASF73:
 3787 06ac 63685F70 		.ascii	"ch_priority_queue\000"
 3787      72696F72 
 3787      6974795F 
 3787      71756575 
 3787      6500
 3788              	.LASF147:
 3789 06be 63684865 		.ascii	"chHeapAllocAligned\000"
 3789      6170416C 
 3789      6C6F6341 
 3789      6C69676E 
 3789      656400
 3790              	.LASF75:
 3791 06d1 63685F64 		.ascii	"ch_delta_list_t\000"
 3791      656C7461 
 3791      5F6C6973 
 3791      745F7400 
 3792              	.LASF119:
 3793 06e1 6D61696E 		.ascii	"mainthread_end\000"
 3793      74687265 
 3793      61645F65 
 3793      6E6400
 3794              	.LASF159:
ARM GAS  C:\Users\DEVELO~1\AppData\Local\Temp\cceqLPme.s 			page 73


 3795 06f0 63685363 		.ascii	"chSchWakeupS\000"
 3795      6857616B 
 3795      65757053 
 3795      00
 3796              	.LASF44:
 3797 06fd 6D706F6F 		.ascii	"mpool\000"
 3797      6C00
 3798              	.LASF122:
 3799 0703 6F735F69 		.ascii	"os_instance_config_t\000"
 3799      6E737461 
 3799      6E63655F 
 3799      636F6E66 
 3799      69675F74 
 3800              	.LASF141:
 3801 0718 706F6F6C 		.ascii	"pool_header\000"
 3801      5F686561 
 3801      64657200 
 3802              	.LASF48:
 3803 0724 726C6973 		.ascii	"rlist\000"
 3803      7400
 3804              	.LASF16:
 3805 072a 75696E74 		.ascii	"uint8_t\000"
 3805      385F7400 
 3806              	.LASF145:
 3807 0732 6368506F 		.ascii	"chPoolAlloc\000"
 3807      6F6C416C 
 3807      6C6F6300 
 3808              	.LASF37:
 3809 073e 666C6167 		.ascii	"flags\000"
 3809      7300
 3810              	.LASF113:
 3811 0744 63685F6D 		.ascii	"ch_mutex\000"
 3811      75746578 
 3811      00
 3812              	.LASF55:
 3813 074d 74726163 		.ascii	"trace_buffer\000"
 3813      655F6275 
 3813      66666572 
 3813      00
 3814              	.LASF160:
 3815 075a 63685379 		.ascii	"chSysUnlock\000"
 3815      73556E6C 
 3815      6F636B00 
 3816              	.LASF103:
 3817 0766 6C697374 		.ascii	"list\000"
 3817      00
 3818              	.LASF154:
 3819 076b 706F7274 		.ascii	"port_lock\000"
 3819      5F6C6F63 
 3819      6B00
 3820              	.LASF121:
 3821 0775 69646C65 		.ascii	"idlethread_end\000"
 3821      74687265 
 3821      61645F65 
 3821      6E6400
 3822              	.LASF42:
 3823 0784 6D74786C 		.ascii	"mtxlist\000"
ARM GAS  C:\Users\DEVELO~1\AppData\Local\Temp\cceqLPme.s 			page 74


 3823      69737400 
 3824              	.LASF135:
 3825 078c 68656164 		.ascii	"header\000"
 3825      657200
 3826              	.LASF133:
 3827 0793 6D656D6F 		.ascii	"memory_heap\000"
 3827      72795F68 
 3827      65617000 
 3828              		.ident	"GCC: (Arm GNU Toolchain 11.3.Rel1) 11.3.1 20220712"
ARM GAS  C:\Users\DEVELO~1\AppData\Local\Temp\cceqLPme.s 			page 75


DEFINED SYMBOLS
                            *ABS*:00000000 chdynamic.c
C:\Users\DEVELO~1\AppData\Local\Temp\cceqLPme.s:18     .text.chThdCreateFromHeap:00000000 $t
C:\Users\DEVELO~1\AppData\Local\Temp\cceqLPme.s:25     .text.chThdCreateFromHeap:00000000 chThdCreateFromHeap
C:\Users\DEVELO~1\AppData\Local\Temp\cceqLPme.s:184    .text.chThdCreateFromMemoryPool:00000000 $t
C:\Users\DEVELO~1\AppData\Local\Temp\cceqLPme.s:191    .text.chThdCreateFromMemoryPool:00000000 chThdCreateFromMemoryPool

UNDEFINED SYMBOLS
chHeapAllocAligned
chThdCreateSuspendedI
chSchWakeupS
chPoolAlloc
