ARM GAS  C:\Users\DEVELO~1\AppData\Local\Temp\ccPoYcgE.s 			page 1


   1              		.cpu cortex-m7
   2              		.arch armv7e-m
   3              		.fpu softvfp
   4              		.eabi_attribute 20, 1
   5              		.eabi_attribute 21, 1
   6              		.eabi_attribute 23, 3
   7              		.eabi_attribute 24, 1
   8              		.eabi_attribute 25, 1
   9              		.eabi_attribute 26, 1
  10              		.eabi_attribute 30, 2
  11              		.eabi_attribute 34, 1
  12              		.eabi_attribute 18, 4
  13              		.file	"chdynamic.c"
  14              		.text
  15              	.Ltext0:
  16              		.cfi_sections	.debug_frame
  17              		.section	.text.thd_heapfree,"ax",%progbits
  18              		.align	1
  19              		.p2align 4,,15
  20              		.syntax unified
  21              		.thumb
  22              		.thumb_func
  23              		.type	thd_heapfree, %function
  24              	thd_heapfree:
  25              	.LVL0:
  26              	.LFB352:
  27              		.file 1 "./ChibiOS/os/rt/src/chdynamic.c"
  28              		.loc 1 54 40 view -0
  29              		.cfi_startproc
  30              		@ args = 0, pretend = 0, frame = 0
  31              		@ frame_needed = 0, uses_anonymous_args = 0
  32              		@ link register save eliminated.
  33              		.loc 1 56 3 view .LVU1
  34 0000 4069     		ldr	r0, [r0, #20]
  35              	.LVL1:
  36              		.loc 1 56 3 is_stmt 0 view .LVU2
  37 0002 FFF7FEBF 		b	chHeapFree
  38              	.LVL2:
  39              		.cfi_endproc
  40              	.LFE352:
  41              		.size	thd_heapfree, .-thd_heapfree
  42 0006 00BF     		.section	.text.thd_poolfree,"ax",%progbits
  43              		.align	1
  44              		.p2align 4,,15
  45              		.syntax unified
  46              		.thumb
  47              		.thumb_func
  48              		.type	thd_poolfree, %function
  49              	thd_poolfree:
  50              	.LVL3:
  51              	.LFB353:
  52              		.loc 1 61 40 is_stmt 1 view -0
  53              		.cfi_startproc
  54              		@ args = 0, pretend = 0, frame = 0
  55              		@ frame_needed = 0, uses_anonymous_args = 0
  56              		@ link register save eliminated.
  57              		.loc 1 63 3 view .LVU4
ARM GAS  C:\Users\DEVELO~1\AppData\Local\Temp\ccPoYcgE.s 			page 2


  58 0000 4169     		ldr	r1, [r0, #20]
  59 0002 006B     		ldr	r0, [r0, #48]
  60              	.LVL4:
  61              		.loc 1 63 3 is_stmt 0 view .LVU5
  62 0004 FFF7FEBF 		b	chPoolFree
  63              	.LVL5:
  64              		.cfi_endproc
  65              	.LFE353:
  66              		.size	thd_poolfree, .-thd_poolfree
  67              		.section	.text.chThdCreateFromHeap,"ax",%progbits
  68              		.align	1
  69              		.p2align 4,,15
  70              		.global	chThdCreateFromHeap
  71              		.syntax unified
  72              		.thumb
  73              		.thumb_func
  74              		.type	chThdCreateFromHeap, %function
  75              	chThdCreateFromHeap:
  76              	.LVL6:
  77              	.LFB354:
  78              		.loc 1 98 54 is_stmt 1 view -0
  79              		.cfi_startproc
  80              		@ args = 8, pretend = 0, frame = 32
  81              		@ frame_needed = 0, uses_anonymous_args = 0
  82              		.loc 1 99 3 view .LVU7
  83              		.loc 1 100 3 view .LVU8
  84              		.loc 1 102 3 view .LVU9
  85              		.loc 1 98 54 is_stmt 0 view .LVU10
  86 0000 2DE9F041 		push	{r4, r5, r6, r7, r8, lr}
  87              		.cfi_def_cfa_offset 24
  88              		.cfi_offset 4, -24
  89              		.cfi_offset 5, -20
  90              		.cfi_offset 6, -16
  91              		.cfi_offset 7, -12
  92              		.cfi_offset 8, -8
  93              		.cfi_offset 14, -4
  94 0004 9046     		mov	r8, r2
  95 0006 88B0     		sub	sp, sp, #32
  96              		.cfi_def_cfa_offset 56
  97              		.loc 1 102 11 view .LVU11
  98 0008 2022     		movs	r2, #32
  99              	.LVL7:
 100              		.loc 1 98 54 view .LVU12
 101 000a 0D46     		mov	r5, r1
 102 000c 1F46     		mov	r7, r3
 103              		.loc 1 102 11 view .LVU13
 104 000e FFF7FEFF 		bl	chHeapAllocAligned
 105              	.LVL8:
 106              		.loc 1 103 3 is_stmt 1 view .LVU14
 107              		.loc 1 103 6 is_stmt 0 view .LVU15
 108 0012 0446     		mov	r4, r0
 109 0014 C8B1     		cbz	r0, .L4
 110              		.loc 1 106 3 is_stmt 1 view .LVU16
 111              	.LVL9:
 112              		.loc 1 108 3 view .LVU17
 113              		.loc 1 108 23 is_stmt 0 view .LVU18
 114 0016 0E9B     		ldr	r3, [sp, #56]
ARM GAS  C:\Users\DEVELO~1\AppData\Local\Temp\ccPoYcgE.s 			page 3


 115              		.loc 1 106 8 view .LVU19
 116 0018 0544     		add	r5, r5, r0
 117              	.LVL10:
 118              		.loc 1 108 23 view .LVU20
 119 001a 0026     		movs	r6, #0
 120 001c 0593     		str	r3, [sp, #20]
 121 001e 0F9B     		ldr	r3, [sp, #60]
 122 0020 CDE90180 		strd	r8, r0, [sp, #4]
 123 0024 CDE90636 		strd	r3, r6, [sp, #24]
 124              		.loc 1 115 3 is_stmt 1 view .LVU21
 125              	.LBB38:
 126              	.LBI38:
 127              		.file 2 "./ChibiOS/os/rt/include/chsys.h"
 128              		.loc 2 372 20 view .LVU22
 129              		.loc 2 374 3 view .LVU23
 130              	.LBB39:
 131              	.LBI39:
 132              		.file 3 "./ChibiOS/os/common/ports/ARMv7-M/chcore.h"
 133              		.loc 3 840 27 view .LVU24
 134              		.loc 3 848 3 view .LVU25
 135              	.LVL11:
 136              	.LBB40:
 137              	.LBI40:
 138              		.file 4 "./ChibiOS/os/common/ext/ARM/CMSIS/Core/Include/cmsis_gcc.h"
 139              		.loc 4 491 27 view .LVU26
 140              	.LBB41:
 141              		.loc 4 493 3 view .LVU27
 142              	.LBE41:
 143              	.LBE40:
 144              	.LBE39:
 145              	.LBE38:
 146              		.loc 1 108 23 is_stmt 0 view .LVU28
 147 0028 CDE90357 		strd	r5, r7, [sp, #12]
 148              	.LBB45:
 149              	.LBB44:
 150              	.LBB43:
 151              	.LBB42:
 152              		.loc 4 493 3 view .LVU29
 153 002c 3023     		movs	r3, #48
 154              		.syntax unified
 155              	@ 493 "./ChibiOS/os/common/ext/ARM/CMSIS/Core/Include/cmsis_gcc.h" 1
 156 002e 83F31188 		MSR basepri, r3
 157              	@ 0 "" 2
 158              	.LVL12:
 159              		.loc 4 493 3 view .LVU30
 160              		.thumb
 161              		.syntax unified
 162              	.LBE42:
 163              	.LBE43:
 164              	.LBE44:
 165              		.loc 2 375 35 is_stmt 1 view .LVU31
 166              		.loc 2 376 21 view .LVU32
 167              	.LBE45:
 168              		.loc 1 116 3 view .LVU33
 169              		.loc 1 116 8 is_stmt 0 view .LVU34
 170 0032 01A8     		add	r0, sp, #4
 171              	.LVL13:
ARM GAS  C:\Users\DEVELO~1\AppData\Local\Temp\ccPoYcgE.s 			page 4


 172              		.loc 1 116 8 view .LVU35
 173 0034 FFF7FEFF 		bl	chThdCreateSuspendedI
 174              	.LVL14:
 175              	.LBB46:
 176              	.LBB47:
 177              		.file 5 "./ChibiOS/os/rt/include/chthreads.h"
 178              		.loc 5 502 15 view .LVU36
 179 0038 064B     		ldr	r3, .L10
 180              	.LBE47:
 181              	.LBE46:
 182              		.loc 1 118 3 view .LVU37
 183 003a 3146     		mov	r1, r6
 184              		.loc 1 116 8 view .LVU38
 185 003c 0446     		mov	r4, r0
 186              	.LVL15:
 187              		.loc 1 117 3 is_stmt 1 view .LVU39
 188              	.LBB49:
 189              	.LBI46:
 190              		.loc 5 498 20 view .LVU40
 191              	.LBB48:
 192              		.loc 5 502 3 view .LVU41
 193              		.loc 5 503 15 is_stmt 0 view .LVU42
 194 003e C0E90B36 		strd	r3, r6, [r0, #44]
 195              	.LVL16:
 196              		.loc 5 503 15 view .LVU43
 197              	.LBE48:
 198              	.LBE49:
 199              		.loc 1 118 3 is_stmt 1 view .LVU44
 200 0042 FFF7FEFF 		bl	chSchWakeupS
 201              	.LVL17:
 202              		.loc 1 119 3 view .LVU45
 203              	.LBB50:
 204              	.LBI50:
 205              		.loc 2 386 20 view .LVU46
 206              	.LBB51:
 207              		.loc 2 388 23 view .LVU47
 208              		.loc 2 389 34 view .LVU48
 209              		.loc 2 395 3 view .LVU49
 210              		.loc 2 395 3 view .LVU50
 211              		.loc 2 395 3 view .LVU51
 212              		.loc 2 399 3 view .LVU52
 213              	.LBB52:
 214              	.LBI52:
 215              		.loc 3 864 27 view .LVU53
 216              		.loc 3 867 3 view .LVU54
 217              	.LBB53:
 218              	.LBI53:
 219              		.loc 4 491 27 view .LVU55
 220              	.LBB54:
 221              		.loc 4 493 3 view .LVU56
 222              		.syntax unified
 223              	@ 493 "./ChibiOS/os/common/ext/ARM/CMSIS/Core/Include/cmsis_gcc.h" 1
 224 0046 86F31188 		MSR basepri, r6
 225              	@ 0 "" 2
 226              	.LVL18:
 227              		.loc 4 493 3 is_stmt 0 view .LVU57
 228              		.thumb
ARM GAS  C:\Users\DEVELO~1\AppData\Local\Temp\ccPoYcgE.s 			page 5


 229              		.syntax unified
 230              	.LBE54:
 231              	.LBE53:
 232              	.LBE52:
 233              	.LBE51:
 234              	.LBE50:
 235              		.loc 1 121 3 is_stmt 1 view .LVU58
 236              	.L4:
 237              		.loc 1 122 1 is_stmt 0 view .LVU59
 238 004a 2046     		mov	r0, r4
 239 004c 08B0     		add	sp, sp, #32
 240              		.cfi_def_cfa_offset 24
 241              		@ sp needed
 242 004e BDE8F081 		pop	{r4, r5, r6, r7, r8, pc}
 243              	.LVL19:
 244              	.L11:
 245              		.loc 1 122 1 view .LVU60
 246 0052 00BF     		.align	2
 247              	.L10:
 248 0054 00000000 		.word	thd_heapfree
 249              		.cfi_endproc
 250              	.LFE354:
 251              		.size	chThdCreateFromHeap, .-chThdCreateFromHeap
 252              		.section	.text.chThdCreateFromMemoryPool,"ax",%progbits
 253              		.align	1
 254              		.p2align 4,,15
 255              		.global	chThdCreateFromMemoryPool
 256              		.syntax unified
 257              		.thumb
 258              		.thumb_func
 259              		.type	chThdCreateFromMemoryPool, %function
 260              	chThdCreateFromMemoryPool:
 261              	.LVL20:
 262              	.LFB355:
 263              		.loc 1 153 74 is_stmt 1 view -0
 264              		.cfi_startproc
 265              		@ args = 4, pretend = 0, frame = 32
 266              		@ frame_needed = 0, uses_anonymous_args = 0
 267              		.loc 1 154 3 view .LVU62
 268              		.loc 1 155 3 view .LVU63
 269              		.loc 1 157 3 view .LVU64
 270              		.loc 1 157 3 view .LVU65
 271              		.loc 1 157 3 view .LVU66
 272              		.loc 1 159 3 view .LVU67
 273              		.loc 1 153 74 is_stmt 0 view .LVU68
 274 0000 2DE9F041 		push	{r4, r5, r6, r7, r8, lr}
 275              		.cfi_def_cfa_offset 24
 276              		.cfi_offset 4, -24
 277              		.cfi_offset 5, -20
 278              		.cfi_offset 6, -16
 279              		.cfi_offset 7, -12
 280              		.cfi_offset 8, -8
 281              		.cfi_offset 14, -4
 282 0004 88B0     		sub	sp, sp, #32
 283              		.cfi_def_cfa_offset 56
 284              		.loc 1 153 74 view .LVU69
 285 0006 0546     		mov	r5, r0
ARM GAS  C:\Users\DEVELO~1\AppData\Local\Temp\ccPoYcgE.s 			page 6


 286 0008 8846     		mov	r8, r1
 287 000a 1746     		mov	r7, r2
 288 000c 1E46     		mov	r6, r3
 289              		.loc 1 159 11 view .LVU70
 290 000e FFF7FEFF 		bl	chPoolAlloc
 291              	.LVL21:
 292              		.loc 1 160 3 is_stmt 1 view .LVU71
 293              		.loc 1 160 6 is_stmt 0 view .LVU72
 294 0012 0446     		mov	r4, r0
 295 0014 D8B1     		cbz	r0, .L12
 296              		.loc 1 163 3 is_stmt 1 view .LVU73
 297              		.loc 1 163 8 is_stmt 0 view .LVU74
 298 0016 6A68     		ldr	r2, [r5, #4]
 299              		.loc 1 165 23 view .LVU75
 300 0018 0E9B     		ldr	r3, [sp, #56]
 301              		.loc 1 163 8 view .LVU76
 302 001a 1444     		add	r4, r4, r2
 303              	.LVL22:
 304              		.loc 1 165 3 is_stmt 1 view .LVU77
 305              		.loc 1 172 3 view .LVU78
 306              	.LBB55:
 307              	.LBI55:
 308              		.loc 2 372 20 view .LVU79
 309              		.loc 2 374 3 view .LVU80
 310              	.LBB56:
 311              	.LBI56:
 312              		.loc 3 840 27 view .LVU81
 313              		.loc 3 848 3 view .LVU82
 314              	.LBB57:
 315              	.LBI57:
 316              		.loc 4 491 27 view .LVU83
 317              	.LBB58:
 318              		.loc 4 493 3 view .LVU84
 319              	.LBE58:
 320              	.LBE57:
 321              	.LBE56:
 322              	.LBE55:
 323              		.loc 1 165 23 is_stmt 0 view .LVU85
 324 001c CDF80480 		str	r8, [sp, #4]
 325 0020 4FF00008 		mov	r8, #0
 326              	.LVL23:
 327              		.loc 1 165 23 view .LVU86
 328 0024 0290     		str	r0, [sp, #8]
 329 0026 0394     		str	r4, [sp, #12]
 330 0028 CDE90638 		strd	r3, r8, [sp, #24]
 331 002c CDE90476 		strd	r7, r6, [sp, #16]
 332              	.LBB62:
 333              	.LBB61:
 334              	.LBB60:
 335              	.LBB59:
 336              		.loc 4 493 3 view .LVU87
 337 0030 3023     		movs	r3, #48
 338              		.syntax unified
 339              	@ 493 "./ChibiOS/os/common/ext/ARM/CMSIS/Core/Include/cmsis_gcc.h" 1
 340 0032 83F31188 		MSR basepri, r3
 341              	@ 0 "" 2
 342              	.LVL24:
ARM GAS  C:\Users\DEVELO~1\AppData\Local\Temp\ccPoYcgE.s 			page 7


 343              		.loc 4 493 3 view .LVU88
 344              		.thumb
 345              		.syntax unified
 346              	.LBE59:
 347              	.LBE60:
 348              	.LBE61:
 349              		.loc 2 375 35 is_stmt 1 view .LVU89
 350              		.loc 2 376 21 view .LVU90
 351              	.LBE62:
 352              		.loc 1 173 3 view .LVU91
 353              		.loc 1 173 8 is_stmt 0 view .LVU92
 354 0036 01A8     		add	r0, sp, #4
 355              	.LVL25:
 356              		.loc 1 173 8 view .LVU93
 357 0038 FFF7FEFF 		bl	chThdCreateSuspendedI
 358              	.LVL26:
 359              	.LBB63:
 360              	.LBB64:
 361              		.loc 5 502 15 view .LVU94
 362 003c 064B     		ldr	r3, .L18
 363              	.LBE64:
 364              	.LBE63:
 365              		.loc 1 175 3 view .LVU95
 366 003e 4146     		mov	r1, r8
 367              	.LBB67:
 368              	.LBB65:
 369              		.loc 5 503 15 view .LVU96
 370 0040 0563     		str	r5, [r0, #48]
 371              		.loc 5 502 15 view .LVU97
 372 0042 C362     		str	r3, [r0, #44]
 373              	.LBE65:
 374              	.LBE67:
 375              		.loc 1 173 8 view .LVU98
 376 0044 0446     		mov	r4, r0
 377              	.LVL27:
 378              		.loc 1 174 3 is_stmt 1 view .LVU99
 379              	.LBB68:
 380              	.LBI63:
 381              		.loc 5 498 20 view .LVU100
 382              	.LBB66:
 383              		.loc 5 502 3 view .LVU101
 384              		.loc 5 503 3 view .LVU102
 385              		.loc 5 503 3 is_stmt 0 view .LVU103
 386              	.LBE66:
 387              	.LBE68:
 388              		.loc 1 175 3 is_stmt 1 view .LVU104
 389 0046 FFF7FEFF 		bl	chSchWakeupS
 390              	.LVL28:
 391              		.loc 1 176 3 view .LVU105
 392              	.LBB69:
 393              	.LBI69:
 394              		.loc 2 386 20 view .LVU106
 395              	.LBB70:
 396              		.loc 2 388 23 view .LVU107
 397              		.loc 2 389 34 view .LVU108
 398              		.loc 2 395 3 view .LVU109
 399              		.loc 2 395 3 view .LVU110
ARM GAS  C:\Users\DEVELO~1\AppData\Local\Temp\ccPoYcgE.s 			page 8


 400              		.loc 2 395 3 view .LVU111
 401              		.loc 2 399 3 view .LVU112
 402              	.LBB71:
 403              	.LBI71:
 404              		.loc 3 864 27 view .LVU113
 405              		.loc 3 867 3 view .LVU114
 406              	.LBB72:
 407              	.LBI72:
 408              		.loc 4 491 27 view .LVU115
 409              	.LBB73:
 410              		.loc 4 493 3 view .LVU116
 411              		.syntax unified
 412              	@ 493 "./ChibiOS/os/common/ext/ARM/CMSIS/Core/Include/cmsis_gcc.h" 1
 413 004a 88F31188 		MSR basepri, r8
 414              	@ 0 "" 2
 415              	.LVL29:
 416              		.loc 4 493 3 is_stmt 0 view .LVU117
 417              		.thumb
 418              		.syntax unified
 419              	.LBE73:
 420              	.LBE72:
 421              	.LBE71:
 422              	.LBE70:
 423              	.LBE69:
 424              		.loc 1 178 3 is_stmt 1 view .LVU118
 425              	.L12:
 426              		.loc 1 179 1 is_stmt 0 view .LVU119
 427 004e 2046     		mov	r0, r4
 428 0050 08B0     		add	sp, sp, #32
 429              		.cfi_def_cfa_offset 24
 430              		@ sp needed
 431 0052 BDE8F081 		pop	{r4, r5, r6, r7, r8, pc}
 432              	.LVL30:
 433              	.L19:
 434              		.loc 1 179 1 view .LVU120
 435 0056 00BF     		.align	2
 436              	.L18:
 437 0058 00000000 		.word	thd_poolfree
 438              		.cfi_endproc
 439              	.LFE355:
 440              		.size	chThdCreateFromMemoryPool, .-chThdCreateFromMemoryPool
 441              		.text
 442              	.Letext0:
 443              		.file 6 "c:\\chibistudio\\tools\\gnu tools arm embedded\\11.3 2022.08\\lib\\gcc\\arm-none-eabi\\11
 444              		.file 7 "c:\\chibistudio\\tools\\gnu tools arm embedded\\11.3 2022.08\\arm-none-eabi\\include\\mac
 445              		.file 8 "c:\\chibistudio\\tools\\gnu tools arm embedded\\11.3 2022.08\\arm-none-eabi\\include\\sys
 446              		.file 9 "./ChibiOS/os/common/ports/ARM-common/include/chtypes.h"
 447              		.file 10 "./ChibiOS/os/rt/include/chearly.h"
 448              		.file 11 "./ChibiOS/os/rt/include/chobjects.h"
 449              		.file 12 "./ChibiOS/os/rt/include/chrfcu.h"
 450              		.file 13 "./ChibiOS/os/rt/include/chdebug.h"
 451              		.file 14 "./ChibiOS/os/rt/include/chtime.h"
 452              		.file 15 "./ChibiOS/os/rt/include/chtrace.h"
 453              		.file 16 "./ChibiOS/os/rt/include/chlists.h"
 454              		.file 17 "./ChibiOS/os/rt/include/chsem.h"
 455              		.file 18 "./ChibiOS/os/rt/include/chmtx.h"
 456              		.file 19 "./ChibiOS/os/oslib/include/chmemchecks.h"
ARM GAS  C:\Users\DEVELO~1\AppData\Local\Temp\ccPoYcgE.s 			page 9


 457              		.file 20 "./ChibiOS/os/oslib/include/chmemcore.h"
 458              		.file 21 "./ChibiOS/os/oslib/include/chmemheaps.h"
 459              		.file 22 "./ChibiOS/os/oslib/include/chmempools.h"
 460              		.file 23 "./ChibiOS/os/rt/include/chschd.h"
 461              		.section	.debug_info,"",%progbits
 462              	.Ldebug_info0:
 463 0000 B3100000 		.4byte	0x10b3
 464 0004 0500     		.2byte	0x5
 465 0006 01       		.byte	0x1
 466 0007 04       		.byte	0x4
 467 0008 00000000 		.4byte	.Ldebug_abbrev0
 468 000c 2F       		.uleb128 0x2f
 469 000d 06030000 		.4byte	.LASF169
 470 0011 1D       		.byte	0x1d
 471 0012 AB070000 		.4byte	.LASF170
 472 0016 23020000 		.4byte	.LASF171
 473 001a 3F000000 		.4byte	.LLRL31
 474 001e 00000000 		.4byte	0
 475 0022 00000000 		.4byte	.Ldebug_line0
 476 0026 30       		.uleb128 0x30
 477 0027 04       		.byte	0x4
 478 0028 05       		.byte	0x5
 479 0029 696E7400 		.ascii	"int\000"
 480 002d 02       		.uleb128 0x2
 481 002e 23000000 		.4byte	.LASF4
 482 0032 06       		.byte	0x6
 483 0033 D1       		.byte	0xd1
 484 0034 17       		.byte	0x17
 485 0035 39000000 		.4byte	0x39
 486 0039 07       		.uleb128 0x7
 487 003a 04       		.byte	0x4
 488 003b 07       		.byte	0x7
 489 003c CB020000 		.4byte	.LASF0
 490 0040 07       		.uleb128 0x7
 491 0041 08       		.byte	0x8
 492 0042 05       		.byte	0x5
 493 0043 23010000 		.4byte	.LASF1
 494 0047 07       		.uleb128 0x7
 495 0048 08       		.byte	0x8
 496 0049 04       		.byte	0x4
 497 004a 77060000 		.4byte	.LASF2
 498 004e 07       		.uleb128 0x7
 499 004f 01       		.byte	0x1
 500 0050 06       		.byte	0x6
 501 0051 31010000 		.4byte	.LASF3
 502 0055 02       		.uleb128 0x2
 503 0056 47000000 		.4byte	.LASF5
 504 005a 07       		.byte	0x7
 505 005b 2B       		.byte	0x2b
 506 005c 18       		.byte	0x18
 507 005d 61000000 		.4byte	0x61
 508 0061 07       		.uleb128 0x7
 509 0062 01       		.byte	0x1
 510 0063 08       		.byte	0x8
 511 0064 E0050000 		.4byte	.LASF6
 512 0068 07       		.uleb128 0x7
 513 0069 02       		.byte	0x2
ARM GAS  C:\Users\DEVELO~1\AppData\Local\Temp\ccPoYcgE.s 			page 10


 514 006a 05       		.byte	0x5
 515 006b 3F040000 		.4byte	.LASF7
 516 006f 02       		.uleb128 0x2
 517 0070 96060000 		.4byte	.LASF8
 518 0074 07       		.byte	0x7
 519 0075 39       		.byte	0x39
 520 0076 19       		.byte	0x19
 521 0077 7B000000 		.4byte	0x7b
 522 007b 07       		.uleb128 0x7
 523 007c 02       		.byte	0x2
 524 007d 07       		.byte	0x7
 525 007e DC030000 		.4byte	.LASF9
 526 0082 02       		.uleb128 0x2
 527 0083 49040000 		.4byte	.LASF10
 528 0087 07       		.byte	0x7
 529 0088 4D       		.byte	0x4d
 530 0089 18       		.byte	0x18
 531 008a 8E000000 		.4byte	0x8e
 532 008e 07       		.uleb128 0x7
 533 008f 04       		.byte	0x4
 534 0090 05       		.byte	0x5
 535 0091 91000000 		.4byte	.LASF11
 536 0095 02       		.uleb128 0x2
 537 0096 72020000 		.4byte	.LASF12
 538 009a 07       		.byte	0x7
 539 009b 4F       		.byte	0x4f
 540 009c 19       		.byte	0x19
 541 009d A1000000 		.4byte	0xa1
 542 00a1 07       		.uleb128 0x7
 543 00a2 04       		.byte	0x4
 544 00a3 07       		.byte	0x7
 545 00a4 3D010000 		.4byte	.LASF13
 546 00a8 02       		.uleb128 0x2
 547 00a9 84050000 		.4byte	.LASF14
 548 00ad 07       		.byte	0x7
 549 00ae 69       		.byte	0x69
 550 00af 19       		.byte	0x19
 551 00b0 B4000000 		.4byte	0xb4
 552 00b4 07       		.uleb128 0x7
 553 00b5 08       		.byte	0x8
 554 00b6 07       		.byte	0x7
 555 00b7 5D010000 		.4byte	.LASF15
 556 00bb 02       		.uleb128 0x2
 557 00bc 86070000 		.4byte	.LASF16
 558 00c0 08       		.byte	0x8
 559 00c1 18       		.byte	0x18
 560 00c2 13       		.byte	0x13
 561 00c3 55000000 		.4byte	0x55
 562 00c7 02       		.uleb128 0x2
 563 00c8 EA010000 		.4byte	.LASF17
 564 00cc 08       		.byte	0x8
 565 00cd 24       		.byte	0x24
 566 00ce 14       		.byte	0x14
 567 00cf 6F000000 		.4byte	0x6f
 568 00d3 02       		.uleb128 0x2
 569 00d4 D8050000 		.4byte	.LASF18
 570 00d8 08       		.byte	0x8
ARM GAS  C:\Users\DEVELO~1\AppData\Local\Temp\ccPoYcgE.s 			page 11


 571 00d9 2C       		.byte	0x2c
 572 00da 13       		.byte	0x13
 573 00db 82000000 		.4byte	0x82
 574 00df 02       		.uleb128 0x2
 575 00e0 5C060000 		.4byte	.LASF19
 576 00e4 08       		.byte	0x8
 577 00e5 30       		.byte	0x30
 578 00e6 14       		.byte	0x14
 579 00e7 95000000 		.4byte	0x95
 580 00eb 02       		.uleb128 0x2
 581 00ec F9040000 		.4byte	.LASF20
 582 00f0 08       		.byte	0x8
 583 00f1 3C       		.byte	0x3c
 584 00f2 14       		.byte	0x14
 585 00f3 A8000000 		.4byte	0xa8
 586 00f7 1F       		.uleb128 0x1f
 587 00f8 EB000000 		.4byte	0xeb
 588 00fc 02       		.uleb128 0x2
 589 00fd C7000000 		.4byte	.LASF21
 590 0101 09       		.byte	0x9
 591 0102 48       		.byte	0x48
 592 0103 1D       		.byte	0x1d
 593 0104 EB000000 		.4byte	0xeb
 594 0108 02       		.uleb128 0x2
 595 0109 98010000 		.4byte	.LASF22
 596 010d 0A       		.byte	0xa
 597 010e 50       		.byte	0x50
 598 010f 19       		.byte	0x19
 599 0110 FC000000 		.4byte	0xfc
 600 0114 02       		.uleb128 0x2
 601 0115 15040000 		.4byte	.LASF23
 602 0119 0A       		.byte	0xa
 603 011a 53       		.byte	0x53
 604 011b 19       		.byte	0x19
 605 011c BB000000 		.4byte	0xbb
 606 0120 02       		.uleb128 0x2
 607 0121 B6010000 		.4byte	.LASF24
 608 0125 0A       		.byte	0xa
 609 0126 54       		.byte	0x54
 610 0127 19       		.byte	0x19
 611 0128 BB000000 		.4byte	0xbb
 612 012c 02       		.uleb128 0x2
 613 012d A8050000 		.4byte	.LASF25
 614 0131 0A       		.byte	0xa
 615 0132 55       		.byte	0x55
 616 0133 19       		.byte	0x19
 617 0134 BB000000 		.4byte	0xbb
 618 0138 02       		.uleb128 0x2
 619 0139 BA050000 		.4byte	.LASF26
 620 013d 0A       		.byte	0xa
 621 013e 57       		.byte	0x57
 622 013f 19       		.byte	0x19
 623 0140 DF000000 		.4byte	0xdf
 624 0144 02       		.uleb128 0x2
 625 0145 F9030000 		.4byte	.LASF27
 626 0149 0A       		.byte	0xa
 627 014a 58       		.byte	0x58
ARM GAS  C:\Users\DEVELO~1\AppData\Local\Temp\ccPoYcgE.s 			page 12


 628 014b 19       		.byte	0x19
 629 014c D3000000 		.4byte	0xd3
 630 0150 02       		.uleb128 0x2
 631 0151 33040000 		.4byte	.LASF28
 632 0155 0A       		.byte	0xa
 633 0156 5A       		.byte	0x5a
 634 0157 19       		.byte	0x19
 635 0158 DF000000 		.4byte	0xdf
 636 015c 02       		.uleb128 0x2
 637 015d BC020000 		.4byte	.LASF29
 638 0161 0A       		.byte	0xa
 639 0162 5C       		.byte	0x5c
 640 0163 19       		.byte	0x19
 641 0164 D3000000 		.4byte	0xd3
 642 0168 02       		.uleb128 0x2
 643 0169 9E050000 		.4byte	.LASF30
 644 016d 0A       		.byte	0xa
 645 016e 80       		.byte	0x80
 646 016f 12       		.byte	0x12
 647 0170 39000000 		.4byte	0x39
 648 0174 02       		.uleb128 0x2
 649 0175 A1060000 		.4byte	.LASF31
 650 0179 0A       		.byte	0xa
 651 017a 85       		.byte	0x85
 652 017b 1A       		.byte	0x1a
 653 017c 80010000 		.4byte	0x180
 654 0180 06       		.uleb128 0x6
 655 0181 EF030000 		.4byte	.LASF48
 656 0185 50       		.byte	0x50
 657 0186 0B       		.byte	0xb
 658 0187 A9       		.byte	0xa9
 659 0188 08       		.byte	0x8
 660 0189 77020000 		.4byte	0x277
 661 018d 08       		.uleb128 0x8
 662 018e 68647200 		.ascii	"hdr\000"
 663 0192 0B       		.byte	0xb
 664 0193 BA       		.byte	0xba
 665 0194 05       		.byte	0x5
 666 0195 68070000 		.4byte	0x768
 667 0199 00       		.byte	0
 668 019a 08       		.uleb128 0x8
 669 019b 63747800 		.ascii	"ctx\000"
 670 019f 0B       		.byte	0xb
 671 01a0 BE       		.byte	0xbe
 672 01a1 21       		.byte	0x21
 673 01a2 B9050000 		.4byte	0x5b9
 674 01a6 0C       		.byte	0xc
 675 01a7 01       		.uleb128 0x1
 676 01a8 6C060000 		.4byte	.LASF32
 677 01ac 0B       		.byte	0xb
 678 01ad C2       		.byte	0xc2
 679 01ae 22       		.byte	0x22
 680 01af 6C080000 		.4byte	0x86c
 681 01b3 10       		.byte	0x10
 682 01b4 01       		.uleb128 0x1
 683 01b5 83060000 		.4byte	.LASF33
 684 01b9 0B       		.byte	0xb
ARM GAS  C:\Users\DEVELO~1\AppData\Local\Temp\ccPoYcgE.s 			page 13


 685 01ba C8       		.byte	0xc8
 686 01bb 22       		.byte	0x22
 687 01bc 71080000 		.4byte	0x871
 688 01c0 14       		.byte	0x14
 689 01c1 01       		.uleb128 0x1
 690 01c2 7A070000 		.4byte	.LASF34
 691 01c6 0B       		.byte	0xb
 692 01c7 CD       		.byte	0xcd
 693 01c8 21       		.byte	0x21
 694 01c9 71080000 		.4byte	0x871
 695 01cd 18       		.byte	0x18
 696 01ce 01       		.uleb128 0x1
 697 01cf 92010000 		.4byte	.LASF35
 698 01d3 0B       		.byte	0xb
 699 01d4 D1       		.byte	0xd1
 700 01d5 21       		.byte	0x21
 701 01d6 20010000 		.4byte	0x120
 702 01da 1C       		.byte	0x1c
 703 01db 01       		.uleb128 0x1
 704 01dc A5070000 		.4byte	.LASF36
 705 01e0 0B       		.byte	0xb
 706 01e1 D5       		.byte	0xd5
 707 01e2 21       		.byte	0x21
 708 01e3 14010000 		.4byte	0x114
 709 01e7 1D       		.byte	0x1d
 710 01e8 01       		.uleb128 0x1
 711 01e9 B0050000 		.4byte	.LASF37
 712 01ed 0B       		.byte	0xb
 713 01ee DA       		.byte	0xda
 714 01ef 21       		.byte	0x21
 715 01f0 2C010000 		.4byte	0x12c
 716 01f4 1E       		.byte	0x1e
 717 01f5 01       		.uleb128 0x1
 718 01f6 D2030000 		.4byte	.LASF38
 719 01fa 0B       		.byte	0xb
 720 01fb DE       		.byte	0xde
 721 01fc 22       		.byte	0x22
 722 01fd 64030000 		.4byte	0x364
 723 0201 20       		.byte	0x20
 724 0202 01       		.uleb128 0x1
 725 0203 F4020000 		.4byte	.LASF39
 726 0207 0B       		.byte	0xb
 727 0208 E2       		.byte	0xe2
 728 0209 21       		.byte	0x21
 729 020a 06060000 		.4byte	0x606
 730 020e 24       		.byte	0x24
 731 020f 01       		.uleb128 0x1
 732 0210 BF000000 		.4byte	.LASF40
 733 0214 0B       		.byte	0xb
 734 0215 E8       		.byte	0xe8
 735 0216 21       		.byte	0x21
 736 0217 4C070000 		.4byte	0x74c
 737 021b 2C       		.byte	0x2c
 738 021c 01       		.uleb128 0x1
 739 021d 11010000 		.4byte	.LASF41
 740 0221 0B       		.byte	0xb
 741 0222 EE       		.byte	0xee
ARM GAS  C:\Users\DEVELO~1\AppData\Local\Temp\ccPoYcgE.s 			page 14


 742 0223 22       		.byte	0x22
 743 0224 CC030000 		.4byte	0x3cc
 744 0228 30       		.byte	0x30
 745 0229 09       		.uleb128 0x9
 746 022a 7500     		.ascii	"u\000"
 747 022c 0B       		.byte	0xb
 748 022d 3F01     		.2byte	0x13f
 749 022f 21       		.byte	0x21
 750 0230 95070000 		.4byte	0x795
 751 0234 34       		.byte	0x34
 752 0235 04       		.uleb128 0x4
 753 0236 82020000 		.4byte	.LASF42
 754 023a 4401     		.2byte	0x144
 755 023c 21       		.byte	0x21
 756 023d DA050000 		.4byte	0x5da
 757 0241 38       		.byte	0x38
 758 0242 04       		.uleb128 0x4
 759 0243 C2020000 		.4byte	.LASF43
 760 0247 4A01     		.2byte	0x14a
 761 0249 21       		.byte	0x21
 762 024a 06060000 		.4byte	0x606
 763 024e 3C       		.byte	0x3c
 764 024f 04       		.uleb128 0x4
 765 0250 FF030000 		.4byte	.LASF44
 766 0254 5001     		.2byte	0x150
 767 0256 21       		.byte	0x21
 768 0257 50010000 		.4byte	0x150
 769 025b 44       		.byte	0x44
 770 025c 04       		.uleb128 0x4
 771 025d FC070000 		.4byte	.LASF45
 772 0261 5701     		.2byte	0x157
 773 0263 22       		.byte	0x22
 774 0264 67080000 		.4byte	0x867
 775 0268 48       		.byte	0x48
 776 0269 04       		.uleb128 0x4
 777 026a 80040000 		.4byte	.LASF46
 778 026e 5B01     		.2byte	0x15b
 779 0270 21       		.byte	0x21
 780 0271 38010000 		.4byte	0x138
 781 0275 4C       		.byte	0x4c
 782 0276 00       		.byte	0
 783 0277 02       		.uleb128 0x2
 784 0278 FC060000 		.4byte	.LASF47
 785 027c 0A       		.byte	0xa
 786 027d 8A       		.byte	0x8a
 787 027e 1F       		.byte	0x1f
 788 027f 83020000 		.4byte	0x283
 789 0283 31       		.uleb128 0x31
 790 0284 ED060000 		.4byte	.LASF49
 791 0288 F008     		.2byte	0x8f0
 792 028a 0B       		.byte	0xb
 793 028b 9701     		.2byte	0x197
 794 028d 08       		.byte	0x8
 795 028e 16030000 		.4byte	0x316
 796 0292 04       		.uleb128 0x4
 797 0293 80070000 		.4byte	.LASF50
 798 0297 9B01     		.2byte	0x19b
ARM GAS  C:\Users\DEVELO~1\AppData\Local\Temp\ccPoYcgE.s 			page 15


 799 0299 21       		.byte	0x21
 800 029a 9F080000 		.4byte	0x89f
 801 029e 00       		.byte	0
 802 029f 04       		.uleb128 0x4
 803 02a0 68000000 		.4byte	.LASF51
 804 02a4 9F01     		.2byte	0x19f
 805 02a6 21       		.byte	0x21
 806 02a7 0D070000 		.4byte	0x70d
 807 02ab 10       		.byte	0x10
 808 02ac 04       		.uleb128 0x4
 809 02ad 0A070000 		.4byte	.LASF52
 810 02b1 A601     		.2byte	0x1a6
 811 02b3 21       		.byte	0x21
 812 02b4 34070000 		.4byte	0x734
 813 02b8 30       		.byte	0x30
 814 02b9 04       		.uleb128 0x4
 815 02ba B4020000 		.4byte	.LASF53
 816 02be AB01     		.2byte	0x1ab
 817 02c0 21       		.byte	0x21
 818 02c1 68010000 		.4byte	0x168
 819 02c5 38       		.byte	0x38
 820 02c6 04       		.uleb128 0x4
 821 02c7 37000000 		.4byte	.LASF54
 822 02cb B101     		.2byte	0x1b1
 823 02cd 21       		.byte	0x21
 824 02ce 3D030000 		.4byte	0x33d
 825 02d2 3C       		.byte	0x3c
 826 02d3 04       		.uleb128 0x4
 827 02d4 8F060000 		.4byte	.LASF55
 828 02d8 B601     		.2byte	0x1b6
 829 02da 22       		.byte	0x22
 830 02db 0A090000 		.4byte	0x90a
 831 02df 40       		.byte	0x40
 832 02e0 04       		.uleb128 0x4
 833 02e1 0B080000 		.4byte	.LASF56
 834 02e5 BA01     		.2byte	0x1ba
 835 02e7 21       		.byte	0x21
 836 02e8 74010000 		.4byte	0x174
 837 02ec 44       		.byte	0x44
 838 02ed 04       		.uleb128 0x4
 839 02ee DF000000 		.4byte	.LASF57
 840 02f2 BF01     		.2byte	0x1bf
 841 02f4 21       		.byte	0x21
 842 02f5 74010000 		.4byte	0x174
 843 02f9 94       		.byte	0x94
 844 02fa 09       		.uleb128 0x9
 845 02fb 64626700 		.ascii	"dbg\000"
 846 02ff 0B       		.byte	0xb
 847 0300 C401     		.2byte	0x1c4
 848 0302 21       		.byte	0x21
 849 0303 7A030000 		.4byte	0x37a
 850 0307 E4       		.byte	0xe4
 851 0308 04       		.uleb128 0x4
 852 0309 D4070000 		.4byte	.LASF58
 853 030d C901     		.2byte	0x1c9
 854 030f 21       		.byte	0x21
 855 0310 27050000 		.4byte	0x527
ARM GAS  C:\Users\DEVELO~1\AppData\Local\Temp\ccPoYcgE.s 			page 16


 856 0314 E8       		.byte	0xe8
 857 0315 00       		.byte	0
 858 0316 02       		.uleb128 0x2
 859 0317 89040000 		.4byte	.LASF59
 860 031b 0C       		.byte	0xc
 861 031c 3F       		.byte	0x3f
 862 031d 12       		.byte	0x12
 863 031e DF000000 		.4byte	0xdf
 864 0322 06       		.uleb128 0x6
 865 0323 BF010000 		.4byte	.LASF60
 866 0327 04       		.byte	0x4
 867 0328 0C       		.byte	0xc
 868 0329 44       		.byte	0x44
 869 032a 10       		.byte	0x10
 870 032b 3D030000 		.4byte	0x33d
 871 032f 01       		.uleb128 0x1
 872 0330 7D020000 		.4byte	.LASF61
 873 0334 0C       		.byte	0xc
 874 0335 48       		.byte	0x48
 875 0336 21       		.byte	0x21
 876 0337 16030000 		.4byte	0x316
 877 033b 00       		.byte	0
 878 033c 00       		.byte	0
 879 033d 02       		.uleb128 0x2
 880 033e FA050000 		.4byte	.LASF62
 881 0342 0C       		.byte	0xc
 882 0343 49       		.byte	0x49
 883 0344 03       		.byte	0x3
 884 0345 22030000 		.4byte	0x322
 885 0349 06       		.uleb128 0x6
 886 034a C2050000 		.4byte	.LASF63
 887 034e 04       		.byte	0x4
 888 034f 0D       		.byte	0xd
 889 0350 3E       		.byte	0x3e
 890 0351 10       		.byte	0x10
 891 0352 64030000 		.4byte	0x364
 892 0356 01       		.uleb128 0x1
 893 0357 DC060000 		.4byte	.LASF64
 894 035b 0D       		.byte	0xd
 895 035c 46       		.byte	0x46
 896 035d 24       		.byte	0x24
 897 035e 69030000 		.4byte	0x369
 898 0362 00       		.byte	0
 899 0363 00       		.byte	0
 900 0364 03       		.uleb128 0x3
 901 0365 75030000 		.4byte	0x375
 902 0369 1F       		.uleb128 0x1f
 903 036a 64030000 		.4byte	0x364
 904 036e 07       		.uleb128 0x7
 905 036f 01       		.byte	0x1
 906 0370 08       		.byte	0x8
 907 0371 8A060000 		.4byte	.LASF65
 908 0375 11       		.uleb128 0x11
 909 0376 6E030000 		.4byte	0x36e
 910 037a 02       		.uleb128 0x2
 911 037b DF020000 		.4byte	.LASF66
 912 037f 0D       		.byte	0xd
ARM GAS  C:\Users\DEVELO~1\AppData\Local\Temp\ccPoYcgE.s 			page 17


 913 0380 51       		.byte	0x51
 914 0381 03       		.byte	0x3
 915 0382 49030000 		.4byte	0x349
 916 0386 02       		.uleb128 0x2
 917 0387 B0060000 		.4byte	.LASF67
 918 038b 0E       		.byte	0xe
 919 038c 6D       		.byte	0x6d
 920 038d 12       		.byte	0x12
 921 038e DF000000 		.4byte	0xdf
 922 0392 02       		.uleb128 0x2
 923 0393 FE000000 		.4byte	.LASF68
 924 0397 0E       		.byte	0xe
 925 0398 79       		.byte	0x79
 926 0399 12       		.byte	0x12
 927 039a DF000000 		.4byte	0xdf
 928 039e 03       		.uleb128 0x3
 929 039f BB000000 		.4byte	0xbb
 930 03a3 0A       		.uleb128 0xa
 931 03a4 08       		.byte	0x8
 932 03a5 0F       		.byte	0xf
 933 03a6 83       		.byte	0x83
 934 03a7 05       		.byte	0x5
 935 03a8 C7030000 		.4byte	0x3c7
 936 03ac 08       		.uleb128 0x8
 937 03ad 6E747000 		.ascii	"ntp\000"
 938 03b1 0F       		.byte	0xf
 939 03b2 87       		.byte	0x87
 940 03b3 1E       		.byte	0x1e
 941 03b4 C7030000 		.4byte	0x3c7
 942 03b8 00       		.byte	0
 943 03b9 01       		.uleb128 0x1
 944 03ba 0F060000 		.4byte	.LASF69
 945 03be 0F       		.byte	0xf
 946 03bf 8B       		.byte	0x8b
 947 03c0 1E       		.byte	0x1e
 948 03c1 CC030000 		.4byte	0x3cc
 949 03c5 04       		.byte	0x4
 950 03c6 00       		.byte	0
 951 03c7 03       		.uleb128 0x3
 952 03c8 74010000 		.4byte	0x174
 953 03cc 32       		.uleb128 0x32
 954 03cd 04       		.byte	0x4
 955 03ce 0A       		.uleb128 0xa
 956 03cf 08       		.byte	0x8
 957 03d0 0F       		.byte	0xf
 958 03d1 90       		.byte	0x90
 959 03d2 05       		.byte	0x5
 960 03d3 F1030000 		.4byte	0x3f1
 961 03d7 08       		.uleb128 0x8
 962 03d8 747000   		.ascii	"tp\000"
 963 03db 0F       		.byte	0xf
 964 03dc 94       		.byte	0x94
 965 03dd 1E       		.byte	0x1e
 966 03de C7030000 		.4byte	0x3c7
 967 03e2 00       		.byte	0
 968 03e3 08       		.uleb128 0x8
 969 03e4 6D736700 		.ascii	"msg\000"
ARM GAS  C:\Users\DEVELO~1\AppData\Local\Temp\ccPoYcgE.s 			page 18


 970 03e8 0F       		.byte	0xf
 971 03e9 98       		.byte	0x98
 972 03ea 1D       		.byte	0x1d
 973 03eb 44010000 		.4byte	0x144
 974 03ef 04       		.byte	0x4
 975 03f0 00       		.byte	0
 976 03f1 0A       		.uleb128 0xa
 977 03f2 04       		.byte	0x4
 978 03f3 0F       		.byte	0xf
 979 03f4 9D       		.byte	0x9d
 980 03f5 05       		.byte	0x5
 981 03f6 08040000 		.4byte	0x408
 982 03fa 01       		.uleb128 0x1
 983 03fb D2030000 		.4byte	.LASF38
 984 03ff 0F       		.byte	0xf
 985 0400 A1       		.byte	0xa1
 986 0401 1E       		.byte	0x1e
 987 0402 64030000 		.4byte	0x364
 988 0406 00       		.byte	0
 989 0407 00       		.byte	0
 990 0408 0A       		.uleb128 0xa
 991 0409 04       		.byte	0x4
 992 040a 0F       		.byte	0xf
 993 040b A6       		.byte	0xa6
 994 040c 05       		.byte	0x5
 995 040d 1F040000 		.4byte	0x41f
 996 0411 01       		.uleb128 0x1
 997 0412 3D060000 		.4byte	.LASF70
 998 0416 0F       		.byte	0xf
 999 0417 AA       		.byte	0xaa
 1000 0418 1E       		.byte	0x1e
 1001 0419 64030000 		.4byte	0x364
 1002 041d 00       		.byte	0
 1003 041e 00       		.byte	0
 1004 041f 0A       		.uleb128 0xa
 1005 0420 08       		.byte	0x8
 1006 0421 0F       		.byte	0xf
 1007 0422 AF       		.byte	0xaf
 1008 0423 05       		.byte	0x5
 1009 0424 43040000 		.4byte	0x443
 1010 0428 08       		.uleb128 0x8
 1011 0429 75703100 		.ascii	"up1\000"
 1012 042d 0F       		.byte	0xf
 1013 042e B3       		.byte	0xb3
 1014 042f 1E       		.byte	0x1e
 1015 0430 CC030000 		.4byte	0x3cc
 1016 0434 00       		.byte	0
 1017 0435 08       		.uleb128 0x8
 1018 0436 75703200 		.ascii	"up2\000"
 1019 043a 0F       		.byte	0xf
 1020 043b B7       		.byte	0xb7
 1021 043c 1E       		.byte	0x1e
 1022 043d CC030000 		.4byte	0x3cc
 1023 0441 04       		.byte	0x4
 1024 0442 00       		.byte	0
 1025 0443 20       		.uleb128 0x20
 1026 0444 08       		.byte	0x8
ARM GAS  C:\Users\DEVELO~1\AppData\Local\Temp\ccPoYcgE.s 			page 19


 1027 0445 0F       		.byte	0xf
 1028 0446 7F       		.byte	0x7f
 1029 0447 81040000 		.4byte	0x481
 1030 044b 18       		.uleb128 0x18
 1031 044c 737700   		.ascii	"sw\000"
 1032 044f 8C       		.byte	0x8c
 1033 0450 A3030000 		.4byte	0x3a3
 1034 0454 18       		.uleb128 0x18
 1035 0455 72647900 		.ascii	"rdy\000"
 1036 0459 99       		.byte	0x99
 1037 045a CE030000 		.4byte	0x3ce
 1038 045e 18       		.uleb128 0x18
 1039 045f 69737200 		.ascii	"isr\000"
 1040 0463 A2       		.byte	0xa2
 1041 0464 F1030000 		.4byte	0x3f1
 1042 0468 0E       		.uleb128 0xe
 1043 0469 BA000000 		.4byte	.LASF71
 1044 046d 0F       		.byte	0xf
 1045 046e AB       		.byte	0xab
 1046 046f 07       		.byte	0x7
 1047 0470 08040000 		.4byte	0x408
 1048 0474 0E       		.uleb128 0xe
 1049 0475 B5050000 		.4byte	.LASF72
 1050 0479 0F       		.byte	0xf
 1051 047a B8       		.byte	0xb8
 1052 047b 07       		.byte	0x7
 1053 047c 1F040000 		.4byte	0x41f
 1054 0480 00       		.byte	0
 1055 0481 0A       		.uleb128 0xa
 1056 0482 10       		.byte	0x10
 1057 0483 0F       		.byte	0xf
 1058 0484 6C       		.byte	0x6c
 1059 0485 09       		.byte	0x9
 1060 0486 C7040000 		.4byte	0x4c7
 1061 048a 19       		.uleb128 0x19
 1062 048b 78000000 		.4byte	.LASF73
 1063 048f 70       		.byte	0x70
 1064 0490 DF000000 		.4byte	0xdf
 1065 0494 03       		.byte	0x3
 1066 0495 00       		.byte	0
 1067 0496 19       		.uleb128 0x19
 1068 0497 92010000 		.4byte	.LASF35
 1069 049b 74       		.byte	0x74
 1070 049c DF000000 		.4byte	0xdf
 1071 04a0 05       		.byte	0x5
 1072 04a1 03       		.byte	0x3
 1073 04a2 19       		.uleb128 0x19
 1074 04a3 69040000 		.4byte	.LASF74
 1075 04a7 7A       		.byte	0x7a
 1076 04a8 DF000000 		.4byte	0xdf
 1077 04ac 18       		.byte	0x18
 1078 04ad 08       		.byte	0x8
 1079 04ae 01       		.uleb128 0x1
 1080 04af 64050000 		.4byte	.LASF75
 1081 04b3 0F       		.byte	0xf
 1082 04b4 7E       		.byte	0x7e
 1083 04b5 19       		.byte	0x19
ARM GAS  C:\Users\DEVELO~1\AppData\Local\Temp\ccPoYcgE.s 			page 20


 1084 04b6 86030000 		.4byte	0x386
 1085 04ba 04       		.byte	0x4
 1086 04bb 08       		.uleb128 0x8
 1087 04bc 7500     		.ascii	"u\000"
 1088 04be 0F       		.byte	0xf
 1089 04bf B9       		.byte	0xb9
 1090 04c0 05       		.byte	0x5
 1091 04c1 43040000 		.4byte	0x443
 1092 04c5 08       		.byte	0x8
 1093 04c6 00       		.byte	0
 1094 04c7 02       		.uleb128 0x2
 1095 04c8 9A000000 		.4byte	.LASF76
 1096 04cc 0F       		.byte	0xf
 1097 04cd BA       		.byte	0xba
 1098 04ce 03       		.byte	0x3
 1099 04cf 81040000 		.4byte	0x481
 1100 04d3 33       		.uleb128 0x33
 1101 04d4 0808     		.2byte	0x808
 1102 04d6 0F       		.byte	0xf
 1103 04d7 C0       		.byte	0xc0
 1104 04d8 09       		.byte	0x9
 1105 04d9 12050000 		.4byte	0x512
 1106 04dd 01       		.uleb128 0x1
 1107 04de E3040000 		.4byte	.LASF77
 1108 04e2 0F       		.byte	0xf
 1109 04e3 C4       		.byte	0xc4
 1110 04e4 19       		.byte	0x19
 1111 04e5 C7000000 		.4byte	0xc7
 1112 04e9 00       		.byte	0
 1113 04ea 01       		.uleb128 0x1
 1114 04eb D7030000 		.4byte	.LASF78
 1115 04ef 0F       		.byte	0xf
 1116 04f0 C8       		.byte	0xc8
 1117 04f1 19       		.byte	0x19
 1118 04f2 C7000000 		.4byte	0xc7
 1119 04f6 02       		.byte	0x2
 1120 04f7 08       		.uleb128 0x8
 1121 04f8 70747200 		.ascii	"ptr\000"
 1122 04fc 0F       		.byte	0xf
 1123 04fd CC       		.byte	0xcc
 1124 04fe 1A       		.byte	0x1a
 1125 04ff 12050000 		.4byte	0x512
 1126 0503 04       		.byte	0x4
 1127 0504 01       		.uleb128 0x1
 1128 0505 0E020000 		.4byte	.LASF79
 1129 0509 0F       		.byte	0xf
 1130 050a D0       		.byte	0xd0
 1131 050b 19       		.byte	0x19
 1132 050c 17050000 		.4byte	0x517
 1133 0510 08       		.byte	0x8
 1134 0511 00       		.byte	0
 1135 0512 03       		.uleb128 0x3
 1136 0513 C7040000 		.4byte	0x4c7
 1137 0517 1A       		.uleb128 0x1a
 1138 0518 C7040000 		.4byte	0x4c7
 1139 051c 27050000 		.4byte	0x527
 1140 0520 1B       		.uleb128 0x1b
ARM GAS  C:\Users\DEVELO~1\AppData\Local\Temp\ccPoYcgE.s 			page 21


 1141 0521 39000000 		.4byte	0x39
 1142 0525 7F       		.byte	0x7f
 1143 0526 00       		.byte	0
 1144 0527 02       		.uleb128 0x2
 1145 0528 F3010000 		.4byte	.LASF80
 1146 052c 0F       		.byte	0xf
 1147 052d D1       		.byte	0xd1
 1148 052e 03       		.byte	0x3
 1149 052f D3040000 		.4byte	0x4d3
 1150 0533 12       		.uleb128 0x12
 1151 0534 56000000 		.4byte	.LASF81
 1152 0538 24       		.byte	0x24
 1153 0539 03       		.byte	0x3
 1154 053a 3F02     		.2byte	0x23f
 1155 053c 08       		.byte	0x8
 1156 053d B9050000 		.4byte	0x5b9
 1157 0541 09       		.uleb128 0x9
 1158 0542 723400   		.ascii	"r4\000"
 1159 0545 03       		.byte	0x3
 1160 0546 5202     		.2byte	0x252
 1161 0548 11       		.byte	0x11
 1162 0549 DF000000 		.4byte	0xdf
 1163 054d 00       		.byte	0
 1164 054e 09       		.uleb128 0x9
 1165 054f 723500   		.ascii	"r5\000"
 1166 0552 03       		.byte	0x3
 1167 0553 5302     		.2byte	0x253
 1168 0555 11       		.byte	0x11
 1169 0556 DF000000 		.4byte	0xdf
 1170 055a 04       		.byte	0x4
 1171 055b 09       		.uleb128 0x9
 1172 055c 723600   		.ascii	"r6\000"
 1173 055f 03       		.byte	0x3
 1174 0560 5402     		.2byte	0x254
 1175 0562 11       		.byte	0x11
 1176 0563 DF000000 		.4byte	0xdf
 1177 0567 08       		.byte	0x8
 1178 0568 09       		.uleb128 0x9
 1179 0569 723700   		.ascii	"r7\000"
 1180 056c 03       		.byte	0x3
 1181 056d 5502     		.2byte	0x255
 1182 056f 11       		.byte	0x11
 1183 0570 DF000000 		.4byte	0xdf
 1184 0574 0C       		.byte	0xc
 1185 0575 09       		.uleb128 0x9
 1186 0576 723800   		.ascii	"r8\000"
 1187 0579 03       		.byte	0x3
 1188 057a 5602     		.2byte	0x256
 1189 057c 11       		.byte	0x11
 1190 057d DF000000 		.4byte	0xdf
 1191 0581 10       		.byte	0x10
 1192 0582 09       		.uleb128 0x9
 1193 0583 723900   		.ascii	"r9\000"
 1194 0586 03       		.byte	0x3
 1195 0587 5702     		.2byte	0x257
 1196 0589 11       		.byte	0x11
 1197 058a DF000000 		.4byte	0xdf
ARM GAS  C:\Users\DEVELO~1\AppData\Local\Temp\ccPoYcgE.s 			page 22


 1198 058e 14       		.byte	0x14
 1199 058f 09       		.uleb128 0x9
 1200 0590 72313000 		.ascii	"r10\000"
 1201 0594 03       		.byte	0x3
 1202 0595 5802     		.2byte	0x258
 1203 0597 11       		.byte	0x11
 1204 0598 DF000000 		.4byte	0xdf
 1205 059c 18       		.byte	0x18
 1206 059d 09       		.uleb128 0x9
 1207 059e 72313100 		.ascii	"r11\000"
 1208 05a2 03       		.byte	0x3
 1209 05a3 5902     		.2byte	0x259
 1210 05a5 11       		.byte	0x11
 1211 05a6 DF000000 		.4byte	0xdf
 1212 05aa 1C       		.byte	0x1c
 1213 05ab 09       		.uleb128 0x9
 1214 05ac 6C7200   		.ascii	"lr\000"
 1215 05af 03       		.byte	0x3
 1216 05b0 5A02     		.2byte	0x25a
 1217 05b2 11       		.byte	0x11
 1218 05b3 DF000000 		.4byte	0xdf
 1219 05b7 20       		.byte	0x20
 1220 05b8 00       		.byte	0
 1221 05b9 12       		.uleb128 0x12
 1222 05ba A7020000 		.4byte	.LASF82
 1223 05be 04       		.byte	0x4
 1224 05bf 03       		.byte	0x3
 1225 05c0 6302     		.2byte	0x263
 1226 05c2 08       		.byte	0x8
 1227 05c3 D5050000 		.4byte	0x5d5
 1228 05c7 09       		.uleb128 0x9
 1229 05c8 737000   		.ascii	"sp\000"
 1230 05cb 03       		.byte	0x3
 1231 05cc 6402     		.2byte	0x264
 1232 05ce 1A       		.byte	0x1a
 1233 05cf D5050000 		.4byte	0x5d5
 1234 05d3 00       		.byte	0
 1235 05d4 00       		.byte	0
 1236 05d5 03       		.uleb128 0x3
 1237 05d6 33050000 		.4byte	0x533
 1238 05da 02       		.uleb128 0x2
 1239 05db D9040000 		.4byte	.LASF83
 1240 05df 10       		.byte	0x10
 1241 05e0 32       		.byte	0x32
 1242 05e1 18       		.byte	0x18
 1243 05e2 E6050000 		.4byte	0x5e6
 1244 05e6 06       		.uleb128 0x6
 1245 05e7 1D040000 		.4byte	.LASF84
 1246 05eb 04       		.byte	0x4
 1247 05ec 10       		.byte	0x10
 1248 05ed 38       		.byte	0x38
 1249 05ee 08       		.byte	0x8
 1250 05ef 01060000 		.4byte	0x601
 1251 05f3 01       		.uleb128 0x1
 1252 05f4 0C010000 		.4byte	.LASF85
 1253 05f8 10       		.byte	0x10
 1254 05f9 39       		.byte	0x39
ARM GAS  C:\Users\DEVELO~1\AppData\Local\Temp\ccPoYcgE.s 			page 23


 1255 05fa 1A       		.byte	0x1a
 1256 05fb 01060000 		.4byte	0x601
 1257 05ff 00       		.byte	0
 1258 0600 00       		.byte	0
 1259 0601 03       		.uleb128 0x3
 1260 0602 DA050000 		.4byte	0x5da
 1261 0606 02       		.uleb128 0x2
 1262 0607 FB020000 		.4byte	.LASF86
 1263 060b 10       		.byte	0x10
 1264 060c 3F       		.byte	0x3f
 1265 060d 19       		.byte	0x19
 1266 060e 12060000 		.4byte	0x612
 1267 0612 06       		.uleb128 0x6
 1268 0613 E1010000 		.4byte	.LASF87
 1269 0617 08       		.byte	0x8
 1270 0618 10       		.byte	0x10
 1271 0619 45       		.byte	0x45
 1272 061a 08       		.byte	0x8
 1273 061b 3A060000 		.4byte	0x63a
 1274 061f 01       		.uleb128 0x1
 1275 0620 0C010000 		.4byte	.LASF85
 1276 0624 10       		.byte	0x10
 1277 0625 46       		.byte	0x46
 1278 0626 1A       		.byte	0x1a
 1279 0627 3A060000 		.4byte	0x63a
 1280 062b 00       		.byte	0
 1281 062c 01       		.uleb128 0x1
 1282 062d 51000000 		.4byte	.LASF88
 1283 0631 10       		.byte	0x10
 1284 0632 47       		.byte	0x47
 1285 0633 1A       		.byte	0x1a
 1286 0634 3A060000 		.4byte	0x63a
 1287 0638 04       		.byte	0x4
 1288 0639 00       		.byte	0
 1289 063a 03       		.uleb128 0x3
 1290 063b 06060000 		.4byte	0x606
 1291 063f 02       		.uleb128 0x2
 1292 0640 C8060000 		.4byte	.LASF89
 1293 0644 10       		.byte	0x10
 1294 0645 4E       		.byte	0x4e
 1295 0646 22       		.byte	0x22
 1296 0647 4B060000 		.4byte	0x64b
 1297 064b 06       		.uleb128 0x6
 1298 064c 17070000 		.4byte	.LASF90
 1299 0650 0C       		.byte	0xc
 1300 0651 10       		.byte	0x10
 1301 0652 55       		.byte	0x55
 1302 0653 08       		.byte	0x8
 1303 0654 80060000 		.4byte	0x680
 1304 0658 01       		.uleb128 0x1
 1305 0659 0C010000 		.4byte	.LASF85
 1306 065d 10       		.byte	0x10
 1307 065e 56       		.byte	0x56
 1308 065f 1A       		.byte	0x1a
 1309 0660 80060000 		.4byte	0x680
 1310 0664 00       		.byte	0
 1311 0665 01       		.uleb128 0x1
ARM GAS  C:\Users\DEVELO~1\AppData\Local\Temp\ccPoYcgE.s 			page 24


 1312 0666 51000000 		.4byte	.LASF88
 1313 066a 10       		.byte	0x10
 1314 066b 57       		.byte	0x57
 1315 066c 1A       		.byte	0x1a
 1316 066d 80060000 		.4byte	0x680
 1317 0671 04       		.byte	0x4
 1318 0672 01       		.uleb128 0x1
 1319 0673 69050000 		.4byte	.LASF91
 1320 0677 10       		.byte	0x10
 1321 0678 58       		.byte	0x58
 1322 0679 19       		.byte	0x19
 1323 067a 38010000 		.4byte	0x138
 1324 067e 08       		.byte	0x8
 1325 067f 00       		.byte	0
 1326 0680 03       		.uleb128 0x3
 1327 0681 3F060000 		.4byte	0x63f
 1328 0685 02       		.uleb128 0x2
 1329 0686 3C070000 		.4byte	.LASF92
 1330 068a 10       		.byte	0x10
 1331 068b 5F       		.byte	0x5f
 1332 068c 1E       		.byte	0x1e
 1333 068d 91060000 		.4byte	0x691
 1334 0691 06       		.uleb128 0x6
 1335 0692 4F010000 		.4byte	.LASF93
 1336 0696 0C       		.byte	0xc
 1337 0697 10       		.byte	0x10
 1338 0698 64       		.byte	0x64
 1339 0699 08       		.byte	0x8
 1340 069a C6060000 		.4byte	0x6c6
 1341 069e 01       		.uleb128 0x1
 1342 069f 0C010000 		.4byte	.LASF85
 1343 06a3 10       		.byte	0x10
 1344 06a4 65       		.byte	0x65
 1345 06a5 1A       		.byte	0x1a
 1346 06a6 C6060000 		.4byte	0x6c6
 1347 06aa 00       		.byte	0
 1348 06ab 01       		.uleb128 0x1
 1349 06ac 51000000 		.4byte	.LASF88
 1350 06b0 10       		.byte	0x10
 1351 06b1 66       		.byte	0x66
 1352 06b2 1A       		.byte	0x1a
 1353 06b3 C6060000 		.4byte	0x6c6
 1354 06b7 04       		.byte	0x4
 1355 06b8 01       		.uleb128 0x1
 1356 06b9 F2000000 		.4byte	.LASF94
 1357 06bd 10       		.byte	0x10
 1358 06be 67       		.byte	0x67
 1359 06bf 19       		.byte	0x19
 1360 06c0 92030000 		.4byte	0x392
 1361 06c4 08       		.byte	0x8
 1362 06c5 00       		.byte	0
 1363 06c6 03       		.uleb128 0x3
 1364 06c7 85060000 		.4byte	0x685
 1365 06cb 06       		.uleb128 0x6
 1366 06cc B4040000 		.4byte	.LASF95
 1367 06d0 20       		.byte	0x20
 1368 06d1 0B       		.byte	0xb
ARM GAS  C:\Users\DEVELO~1\AppData\Local\Temp\ccPoYcgE.s 			page 25


 1369 06d2 64       		.byte	0x64
 1370 06d3 10       		.byte	0x10
 1371 06d4 0D070000 		.4byte	0x70d
 1372 06d8 01       		.uleb128 0x1
 1373 06d9 AA060000 		.4byte	.LASF96
 1374 06dd 0B       		.byte	0xb
 1375 06de 68       		.byte	0x68
 1376 06df 21       		.byte	0x21
 1377 06e0 85060000 		.4byte	0x685
 1378 06e4 00       		.byte	0
 1379 06e5 01       		.uleb128 0x1
 1380 06e6 06060000 		.4byte	.LASF97
 1381 06ea 0B       		.byte	0xb
 1382 06eb 73       		.byte	0x73
 1383 06ec 21       		.byte	0x21
 1384 06ed 86030000 		.4byte	0x386
 1385 06f1 0C       		.byte	0xc
 1386 06f2 01       		.uleb128 0x1
 1387 06f3 94050000 		.4byte	.LASF98
 1388 06f7 0B       		.byte	0xb
 1389 06f8 7B       		.byte	0x7b
 1390 06f9 21       		.byte	0x21
 1391 06fa 92030000 		.4byte	0x392
 1392 06fe 10       		.byte	0x10
 1393 06ff 01       		.uleb128 0x1
 1394 0700 71040000 		.4byte	.LASF99
 1395 0704 0B       		.byte	0xb
 1396 0705 81       		.byte	0x81
 1397 0706 21       		.byte	0x21
 1398 0707 F7000000 		.4byte	0xf7
 1399 070b 18       		.byte	0x18
 1400 070c 00       		.byte	0
 1401 070d 02       		.uleb128 0x2
 1402 070e 53040000 		.4byte	.LASF100
 1403 0712 0B       		.byte	0xb
 1404 0713 83       		.byte	0x83
 1405 0714 03       		.byte	0x3
 1406 0715 CB060000 		.4byte	0x6cb
 1407 0719 06       		.uleb128 0x6
 1408 071a 02020000 		.4byte	.LASF101
 1409 071e 08       		.byte	0x8
 1410 071f 0B       		.byte	0xb
 1411 0720 88       		.byte	0x88
 1412 0721 10       		.byte	0x10
 1413 0722 34070000 		.4byte	0x734
 1414 0726 01       		.uleb128 0x1
 1415 0727 CC030000 		.4byte	.LASF102
 1416 072b 0B       		.byte	0xb
 1417 072c 8C       		.byte	0x8c
 1418 072d 21       		.byte	0x21
 1419 072e 06060000 		.4byte	0x606
 1420 0732 00       		.byte	0
 1421 0733 00       		.byte	0
 1422 0734 02       		.uleb128 0x2
 1423 0735 51060000 		.4byte	.LASF103
 1424 0739 0B       		.byte	0xb
 1425 073a 8D       		.byte	0x8d
ARM GAS  C:\Users\DEVELO~1\AppData\Local\Temp\ccPoYcgE.s 			page 26


 1426 073b 03       		.byte	0x3
 1427 073c 19070000 		.4byte	0x719
 1428 0740 02       		.uleb128 0x2
 1429 0741 95040000 		.4byte	.LASF104
 1430 0745 0B       		.byte	0xb
 1431 0746 92       		.byte	0x92
 1432 0747 14       		.byte	0x14
 1433 0748 C7030000 		.4byte	0x3c7
 1434 074c 02       		.uleb128 0x2
 1435 074d BB030000 		.4byte	.LASF105
 1436 0751 0B       		.byte	0xb
 1437 0752 A1       		.byte	0xa1
 1438 0753 10       		.byte	0x10
 1439 0754 58070000 		.4byte	0x758
 1440 0758 03       		.uleb128 0x3
 1441 0759 5D070000 		.4byte	0x75d
 1442 075d 21       		.uleb128 0x21
 1443 075e 68070000 		.4byte	0x768
 1444 0762 05       		.uleb128 0x5
 1445 0763 C7030000 		.4byte	0x3c7
 1446 0767 00       		.byte	0
 1447 0768 20       		.uleb128 0x20
 1448 0769 0C       		.byte	0xc
 1449 076a 0B       		.byte	0xb
 1450 076b AD       		.byte	0xad
 1451 076c 95070000 		.4byte	0x795
 1452 0770 0E       		.uleb128 0xe
 1453 0771 ED070000 		.4byte	.LASF106
 1454 0775 0B       		.byte	0xb
 1455 0776 B1       		.byte	0xb1
 1456 0777 21       		.byte	0x21
 1457 0778 DA050000 		.4byte	0x5da
 1458 077c 0E       		.uleb128 0xe
 1459 077d CC030000 		.4byte	.LASF102
 1460 0781 0B       		.byte	0xb
 1461 0782 B5       		.byte	0xb5
 1462 0783 21       		.byte	0x21
 1463 0784 06060000 		.4byte	0x606
 1464 0788 0E       		.uleb128 0xe
 1465 0789 E6060000 		.4byte	.LASF107
 1466 078d 0B       		.byte	0xb
 1467 078e B9       		.byte	0xb9
 1468 078f 21       		.byte	0x21
 1469 0790 3F060000 		.4byte	0x63f
 1470 0794 00       		.byte	0
 1471 0795 34       		.uleb128 0x34
 1472 0796 04       		.byte	0x4
 1473 0797 0B       		.byte	0xb
 1474 0798 0201     		.2byte	0x102
 1475 079a 03       		.byte	0x3
 1476 079b 00080000 		.4byte	0x800
 1477 079f 0C       		.uleb128 0xc
 1478 07a0 2A000000 		.4byte	.LASF108
 1479 07a4 0901     		.2byte	0x109
 1480 07a6 21       		.byte	0x21
 1481 07a7 44010000 		.4byte	0x144
 1482 07ab 0C       		.uleb128 0xc
ARM GAS  C:\Users\DEVELO~1\AppData\Local\Temp\ccPoYcgE.s 			page 27


 1483 07ac D6000000 		.4byte	.LASF109
 1484 07b0 1001     		.2byte	0x110
 1485 07b2 21       		.byte	0x21
 1486 07b3 44010000 		.4byte	0x144
 1487 07b7 0C       		.uleb128 0xc
 1488 07b8 0F060000 		.4byte	.LASF69
 1489 07bc 1701     		.2byte	0x117
 1490 07be 22       		.byte	0x22
 1491 07bf CC030000 		.4byte	0x3cc
 1492 07c3 0C       		.uleb128 0xc
 1493 07c4 EE020000 		.4byte	.LASF110
 1494 07c8 1E01     		.2byte	0x11e
 1495 07ca 22       		.byte	0x22
 1496 07cb 00080000 		.4byte	0x800
 1497 07cf 0C       		.uleb128 0xc
 1498 07d0 EA000000 		.4byte	.LASF111
 1499 07d4 2301     		.2byte	0x123
 1500 07d6 21       		.byte	0x21
 1501 07d7 44010000 		.4byte	0x144
 1502 07db 0C       		.uleb128 0xc
 1503 07dc D8020000 		.4byte	.LASF112
 1504 07e0 2C01     		.2byte	0x12c
 1505 07e2 22       		.byte	0x22
 1506 07e3 2D080000 		.4byte	0x82d
 1507 07e7 0C       		.uleb128 0xc
 1508 07e8 65060000 		.4byte	.LASF113
 1509 07ec 3501     		.2byte	0x135
 1510 07ee 22       		.byte	0x22
 1511 07ef 67080000 		.4byte	0x867
 1512 07f3 0C       		.uleb128 0xc
 1513 07f4 16060000 		.4byte	.LASF114
 1514 07f8 3D01     		.2byte	0x13d
 1515 07fa 21       		.byte	0x21
 1516 07fb 50010000 		.4byte	0x150
 1517 07ff 00       		.byte	0
 1518 0800 03       		.uleb128 0x3
 1519 0801 40070000 		.4byte	0x740
 1520 0805 06       		.uleb128 0x6
 1521 0806 44060000 		.4byte	.LASF115
 1522 080a 0C       		.byte	0xc
 1523 080b 11       		.byte	0x11
 1524 080c 34       		.byte	0x34
 1525 080d 10       		.byte	0x10
 1526 080e 2D080000 		.4byte	0x82d
 1527 0812 01       		.uleb128 0x1
 1528 0813 CC030000 		.4byte	.LASF102
 1529 0817 11       		.byte	0x11
 1530 0818 35       		.byte	0x35
 1531 0819 19       		.byte	0x19
 1532 081a 06060000 		.4byte	0x606
 1533 081e 00       		.byte	0
 1534 081f 08       		.uleb128 0x8
 1535 0820 636E7400 		.ascii	"cnt\000"
 1536 0824 11       		.byte	0x11
 1537 0825 37       		.byte	0x37
 1538 0826 19       		.byte	0x19
 1539 0827 5C010000 		.4byte	0x15c
ARM GAS  C:\Users\DEVELO~1\AppData\Local\Temp\ccPoYcgE.s 			page 28


 1540 082b 08       		.byte	0x8
 1541 082c 00       		.byte	0
 1542 082d 03       		.uleb128 0x3
 1543 082e 05080000 		.4byte	0x805
 1544 0832 06       		.uleb128 0x6
 1545 0833 CB070000 		.4byte	.LASF116
 1546 0837 10       		.byte	0x10
 1547 0838 12       		.byte	0x12
 1548 0839 39       		.byte	0x39
 1549 083a 08       		.byte	0x8
 1550 083b 67080000 		.4byte	0x867
 1551 083f 01       		.uleb128 0x1
 1552 0840 CC030000 		.4byte	.LASF102
 1553 0844 12       		.byte	0x12
 1554 0845 3A       		.byte	0x3a
 1555 0846 19       		.byte	0x19
 1556 0847 06060000 		.4byte	0x606
 1557 084b 00       		.byte	0
 1558 084c 01       		.uleb128 0x1
 1559 084d 6C060000 		.4byte	.LASF32
 1560 0851 12       		.byte	0x12
 1561 0852 3C       		.byte	0x3c
 1562 0853 1A       		.byte	0x1a
 1563 0854 C7030000 		.4byte	0x3c7
 1564 0858 08       		.byte	0x8
 1565 0859 01       		.uleb128 0x1
 1566 085a 0C010000 		.4byte	.LASF85
 1567 085e 12       		.byte	0x12
 1568 085f 3E       		.byte	0x3e
 1569 0860 1A       		.byte	0x1a
 1570 0861 AD090000 		.4byte	0x9ad
 1571 0865 0C       		.byte	0xc
 1572 0866 00       		.byte	0
 1573 0867 03       		.uleb128 0x3
 1574 0868 32080000 		.4byte	0x832
 1575 086c 03       		.uleb128 0x3
 1576 086d 77020000 		.4byte	0x277
 1577 0871 03       		.uleb128 0x3
 1578 0872 08010000 		.4byte	0x108
 1579 0876 12       		.uleb128 0x12
 1580 0877 25040000 		.4byte	.LASF117
 1581 087b 10       		.byte	0x10
 1582 087c 0B       		.byte	0xb
 1583 087d 6C01     		.2byte	0x16c
 1584 087f 10       		.byte	0x10
 1585 0880 9F080000 		.4byte	0x89f
 1586 0884 04       		.uleb128 0x4
 1587 0885 E6060000 		.4byte	.LASF107
 1588 0889 7101     		.2byte	0x171
 1589 088b 21       		.byte	0x21
 1590 088c 3F060000 		.4byte	0x63f
 1591 0890 00       		.byte	0
 1592 0891 04       		.uleb128 0x4
 1593 0892 7C050000 		.4byte	.LASF118
 1594 0896 7501     		.2byte	0x175
 1595 0898 22       		.byte	0x22
 1596 0899 C7030000 		.4byte	0x3c7
ARM GAS  C:\Users\DEVELO~1\AppData\Local\Temp\ccPoYcgE.s 			page 29


 1597 089d 0C       		.byte	0xc
 1598 089e 00       		.byte	0
 1599 089f 22       		.uleb128 0x22
 1600 08a0 16000000 		.4byte	.LASF119
 1601 08a4 7601     		.2byte	0x176
 1602 08a6 76080000 		.4byte	0x876
 1603 08aa 12       		.uleb128 0x12
 1604 08ab 1C050000 		.4byte	.LASF120
 1605 08af 14       		.byte	0x14
 1606 08b0 0B       		.byte	0xb
 1607 08b1 7B01     		.2byte	0x17b
 1608 08b3 10       		.byte	0x10
 1609 08b4 FA080000 		.4byte	0x8fa
 1610 08b8 04       		.uleb128 0x4
 1611 08b9 D2030000 		.4byte	.LASF38
 1612 08bd 7F01     		.2byte	0x17f
 1613 08bf 22       		.byte	0x22
 1614 08c0 64030000 		.4byte	0x364
 1615 08c4 00       		.byte	0
 1616 08c5 04       		.uleb128 0x4
 1617 08c6 ED040000 		.4byte	.LASF121
 1618 08ca 8301     		.2byte	0x183
 1619 08cc 22       		.byte	0x22
 1620 08cd 71080000 		.4byte	0x871
 1621 08d1 04       		.byte	0x4
 1622 08d2 04       		.uleb128 0x4
 1623 08d3 18010000 		.4byte	.LASF122
 1624 08d7 8701     		.2byte	0x187
 1625 08d9 22       		.byte	0x22
 1626 08da 71080000 		.4byte	0x871
 1627 08de 08       		.byte	0x8
 1628 08df 04       		.uleb128 0x4
 1629 08e0 8A020000 		.4byte	.LASF123
 1630 08e4 8C01     		.2byte	0x18c
 1631 08e6 22       		.byte	0x22
 1632 08e7 71080000 		.4byte	0x871
 1633 08eb 0C       		.byte	0xc
 1634 08ec 04       		.uleb128 0x4
 1635 08ed 6E050000 		.4byte	.LASF124
 1636 08f1 9001     		.2byte	0x190
 1637 08f3 22       		.byte	0x22
 1638 08f4 71080000 		.4byte	0x871
 1639 08f8 10       		.byte	0x10
 1640 08f9 00       		.byte	0
 1641 08fa 22       		.uleb128 0x22
 1642 08fb 59070000 		.4byte	.LASF125
 1643 08ff 9201     		.2byte	0x192
 1644 0901 AA080000 		.4byte	0x8aa
 1645 0905 11       		.uleb128 0x11
 1646 0906 FA080000 		.4byte	0x8fa
 1647 090a 03       		.uleb128 0x3
 1648 090b 05090000 		.4byte	0x905
 1649 090f 02       		.uleb128 0x2
 1650 0910 0E000000 		.4byte	.LASF126
 1651 0914 05       		.byte	0x5
 1652 0915 34       		.byte	0x34
 1653 0916 10       		.byte	0x10
ARM GAS  C:\Users\DEVELO~1\AppData\Local\Temp\ccPoYcgE.s 			page 30


 1654 0917 1B090000 		.4byte	0x91b
 1655 091b 03       		.uleb128 0x3
 1656 091c 20090000 		.4byte	0x920
 1657 0920 21       		.uleb128 0x21
 1658 0921 2B090000 		.4byte	0x92b
 1659 0925 05       		.uleb128 0x5
 1660 0926 CC030000 		.4byte	0x3cc
 1661 092a 00       		.byte	0
 1662 092b 0A       		.uleb128 0xa
 1663 092c 1C       		.byte	0x1c
 1664 092d 05       		.byte	0x5
 1665 092e 39       		.byte	0x39
 1666 092f 09       		.byte	0x9
 1667 0930 90090000 		.4byte	0x990
 1668 0934 01       		.uleb128 0x1
 1669 0935 D2030000 		.4byte	.LASF38
 1670 0939 05       		.byte	0x5
 1671 093a 3D       		.byte	0x3d
 1672 093b 22       		.byte	0x22
 1673 093c 64030000 		.4byte	0x364
 1674 0940 00       		.byte	0
 1675 0941 01       		.uleb128 0x1
 1676 0942 32050000 		.4byte	.LASF127
 1677 0946 05       		.byte	0x5
 1678 0947 41       		.byte	0x41
 1679 0948 22       		.byte	0x22
 1680 0949 71080000 		.4byte	0x871
 1681 094d 04       		.byte	0x4
 1682 094e 01       		.uleb128 0x1
 1683 094f B5000000 		.4byte	.LASF128
 1684 0953 05       		.byte	0x5
 1685 0954 45       		.byte	0x45
 1686 0955 22       		.byte	0x22
 1687 0956 71080000 		.4byte	0x871
 1688 095a 08       		.byte	0x8
 1689 095b 01       		.uleb128 0x1
 1690 095c 69050000 		.4byte	.LASF91
 1691 0960 05       		.byte	0x5
 1692 0961 49       		.byte	0x49
 1693 0962 21       		.byte	0x21
 1694 0963 38010000 		.4byte	0x138
 1695 0967 0C       		.byte	0xc
 1696 0968 01       		.uleb128 0x1
 1697 0969 31000000 		.4byte	.LASF129
 1698 096d 05       		.byte	0x5
 1699 096e 4D       		.byte	0x4d
 1700 096f 21       		.byte	0x21
 1701 0970 0F090000 		.4byte	0x90f
 1702 0974 10       		.byte	0x10
 1703 0975 08       		.uleb128 0x8
 1704 0976 61726700 		.ascii	"arg\000"
 1705 097a 05       		.byte	0x5
 1706 097b 51       		.byte	0x51
 1707 097c 22       		.byte	0x22
 1708 097d CC030000 		.4byte	0x3cc
 1709 0981 14       		.byte	0x14
 1710 0982 01       		.uleb128 0x1
ARM GAS  C:\Users\DEVELO~1\AppData\Local\Temp\ccPoYcgE.s 			page 31


 1711 0983 6C060000 		.4byte	.LASF32
 1712 0987 05       		.byte	0x5
 1713 0988 55       		.byte	0x55
 1714 0989 22       		.byte	0x22
 1715 098a 6C080000 		.4byte	0x86c
 1716 098e 18       		.byte	0x18
 1717 098f 00       		.byte	0
 1718 0990 02       		.uleb128 0x2
 1719 0991 7D000000 		.4byte	.LASF130
 1720 0995 05       		.byte	0x5
 1721 0996 56       		.byte	0x56
 1722 0997 03       		.byte	0x3
 1723 0998 2B090000 		.4byte	0x92b
 1724 099c 11       		.uleb128 0x11
 1725 099d 90090000 		.4byte	0x990
 1726 09a1 02       		.uleb128 0x2
 1727 09a2 99020000 		.4byte	.LASF131
 1728 09a6 12       		.byte	0x12
 1729 09a7 34       		.byte	0x34
 1730 09a8 19       		.byte	0x19
 1731 09a9 32080000 		.4byte	0x832
 1732 09ad 03       		.uleb128 0x3
 1733 09ae A1090000 		.4byte	0x9a1
 1734 09b2 0A       		.uleb128 0xa
 1735 09b3 08       		.byte	0x8
 1736 09b4 13       		.byte	0x13
 1737 09b5 32       		.byte	0x32
 1738 09b6 09       		.byte	0x9
 1739 09b7 D6090000 		.4byte	0x9d6
 1740 09bb 01       		.uleb128 0x1
 1741 09bc 7B040000 		.4byte	.LASF132
 1742 09c0 13       		.byte	0x13
 1743 09c1 37       		.byte	0x37
 1744 09c2 22       		.byte	0x22
 1745 09c3 9E030000 		.4byte	0x39e
 1746 09c7 00       		.byte	0
 1747 09c8 01       		.uleb128 0x1
 1748 09c9 D7030000 		.4byte	.LASF78
 1749 09cd 13       		.byte	0x13
 1750 09ce 3D       		.byte	0x3d
 1751 09cf 21       		.byte	0x21
 1752 09d0 2D000000 		.4byte	0x2d
 1753 09d4 04       		.byte	0x4
 1754 09d5 00       		.byte	0
 1755 09d6 02       		.uleb128 0x2
 1756 09d7 00000000 		.4byte	.LASF133
 1757 09db 13       		.byte	0x13
 1758 09dc 3E       		.byte	0x3e
 1759 09dd 03       		.byte	0x3
 1760 09de B2090000 		.4byte	0x9b2
 1761 09e2 07       		.uleb128 0x7
 1762 09e3 01       		.byte	0x1
 1763 09e4 02       		.byte	0x2
 1764 09e5 D2050000 		.4byte	.LASF134
 1765 09e9 02       		.uleb128 0x2
 1766 09ea A8000000 		.4byte	.LASF135
 1767 09ee 14       		.byte	0x14
ARM GAS  C:\Users\DEVELO~1\AppData\Local\Temp\ccPoYcgE.s 			page 32


 1768 09ef 47       		.byte	0x47
 1769 09f0 11       		.byte	0x11
 1770 09f1 F5090000 		.4byte	0x9f5
 1771 09f5 03       		.uleb128 0x3
 1772 09f6 FA090000 		.4byte	0x9fa
 1773 09fa 23       		.uleb128 0x23
 1774 09fb CC030000 		.4byte	0x3cc
 1775 09ff 0E0A0000 		.4byte	0xa0e
 1776 0a03 05       		.uleb128 0x5
 1777 0a04 2D000000 		.4byte	0x2d
 1778 0a08 05       		.uleb128 0x5
 1779 0a09 39000000 		.4byte	0x39
 1780 0a0d 00       		.byte	0
 1781 0a0e 02       		.uleb128 0x2
 1782 0a0f 56050000 		.4byte	.LASF136
 1783 0a13 14       		.byte	0x14
 1784 0a14 4C       		.byte	0x4c
 1785 0a15 11       		.byte	0x11
 1786 0a16 1A0A0000 		.4byte	0xa1a
 1787 0a1a 03       		.uleb128 0x3
 1788 0a1b 1F0A0000 		.4byte	0xa1f
 1789 0a1f 23       		.uleb128 0x23
 1790 0a20 CC030000 		.4byte	0x3cc
 1791 0a24 380A0000 		.4byte	0xa38
 1792 0a28 05       		.uleb128 0x5
 1793 0a29 2D000000 		.4byte	0x2d
 1794 0a2d 05       		.uleb128 0x5
 1795 0a2e 39000000 		.4byte	0x39
 1796 0a32 05       		.uleb128 0x5
 1797 0a33 2D000000 		.4byte	0x2d
 1798 0a37 00       		.byte	0
 1799 0a38 02       		.uleb128 0x2
 1800 0a39 C7010000 		.4byte	.LASF137
 1801 0a3d 15       		.byte	0x15
 1802 0a3e 48       		.byte	0x48
 1803 0a3f 1C       		.byte	0x1c
 1804 0a40 440A0000 		.4byte	0xa44
 1805 0a44 06       		.uleb128 0x6
 1806 0a45 A8040000 		.4byte	.LASF138
 1807 0a49 24       		.byte	0x24
 1808 0a4a 15       		.byte	0x15
 1809 0a4b 72       		.byte	0x72
 1810 0a4c 08       		.byte	0x8
 1811 0a4d 860A0000 		.4byte	0xa86
 1812 0a51 01       		.uleb128 0x1
 1813 0a52 6F000000 		.4byte	.LASF139
 1814 0a56 15       		.byte	0x15
 1815 0a57 76       		.byte	0x76
 1816 0a58 19       		.byte	0x19
 1817 0a59 0E0A0000 		.4byte	0xa0e
 1818 0a5d 00       		.byte	0
 1819 0a5e 01       		.uleb128 0x1
 1820 0a5f 01060000 		.4byte	.LASF140
 1821 0a63 15       		.byte	0x15
 1822 0a64 7A       		.byte	0x7a
 1823 0a65 19       		.byte	0x19
 1824 0a66 D6090000 		.4byte	0x9d6
ARM GAS  C:\Users\DEVELO~1\AppData\Local\Temp\ccPoYcgE.s 			page 33


 1825 0a6a 04       		.byte	0x4
 1826 0a6b 01       		.uleb128 0x1
 1827 0a6c 04080000 		.4byte	.LASF141
 1828 0a70 15       		.byte	0x15
 1829 0a71 7E       		.byte	0x7e
 1830 0a72 19       		.byte	0x19
 1831 0a73 860A0000 		.4byte	0xa86
 1832 0a77 0C       		.byte	0xc
 1833 0a78 08       		.uleb128 0x8
 1834 0a79 6D747800 		.ascii	"mtx\000"
 1835 0a7d 15       		.byte	0x15
 1836 0a7e 83       		.byte	0x83
 1837 0a7f 19       		.byte	0x19
 1838 0a80 A1090000 		.4byte	0x9a1
 1839 0a84 14       		.byte	0x14
 1840 0a85 00       		.byte	0
 1841 0a86 02       		.uleb128 0x2
 1842 0a87 BA060000 		.4byte	.LASF142
 1843 0a8b 15       		.byte	0x15
 1844 0a8c 4D       		.byte	0x4d
 1845 0a8d 1B       		.byte	0x1b
 1846 0a8e 920A0000 		.4byte	0xa92
 1847 0a92 35       		.uleb128 0x35
 1848 0a93 EE050000 		.4byte	.LASF172
 1849 0a97 08       		.byte	0x8
 1850 0a98 15       		.byte	0x15
 1851 0a99 52       		.byte	0x52
 1852 0a9a 07       		.byte	0x7
 1853 0a9b B80A0000 		.4byte	0xab8
 1854 0a9f 0E       		.uleb128 0xe
 1855 0aa0 12070000 		.4byte	.LASF143
 1856 0aa4 15       		.byte	0x15
 1857 0aa5 5F       		.byte	0x5f
 1858 0aa6 05       		.byte	0x5
 1859 0aa7 B80A0000 		.4byte	0xab8
 1860 0aab 0E       		.uleb128 0xe
 1861 0aac 8F050000 		.4byte	.LASF144
 1862 0ab0 15       		.byte	0x15
 1863 0ab1 6C       		.byte	0x6c
 1864 0ab2 05       		.byte	0x5
 1865 0ab3 E10A0000 		.4byte	0xae1
 1866 0ab7 00       		.byte	0
 1867 0ab8 0A       		.uleb128 0xa
 1868 0ab9 08       		.byte	0x8
 1869 0aba 15       		.byte	0x15
 1870 0abb 56       		.byte	0x56
 1871 0abc 03       		.byte	0x3
 1872 0abd DC0A0000 		.4byte	0xadc
 1873 0ac1 01       		.uleb128 0x1
 1874 0ac2 0C010000 		.4byte	.LASF85
 1875 0ac6 15       		.byte	0x15
 1876 0ac7 5A       		.byte	0x5a
 1877 0ac8 1A       		.byte	0x1a
 1878 0ac9 DC0A0000 		.4byte	0xadc
 1879 0acd 00       		.byte	0
 1880 0ace 01       		.uleb128 0x1
 1881 0acf 62000000 		.4byte	.LASF145
ARM GAS  C:\Users\DEVELO~1\AppData\Local\Temp\ccPoYcgE.s 			page 34


 1882 0ad3 15       		.byte	0x15
 1883 0ad4 5E       		.byte	0x5e
 1884 0ad5 19       		.byte	0x19
 1885 0ad6 2D000000 		.4byte	0x2d
 1886 0ada 04       		.byte	0x4
 1887 0adb 00       		.byte	0
 1888 0adc 03       		.uleb128 0x3
 1889 0add 860A0000 		.4byte	0xa86
 1890 0ae1 0A       		.uleb128 0xa
 1891 0ae2 08       		.byte	0x8
 1892 0ae3 15       		.byte	0x15
 1893 0ae4 63       		.byte	0x63
 1894 0ae5 03       		.byte	0x3
 1895 0ae6 050B0000 		.4byte	0xb05
 1896 0aea 01       		.uleb128 0x1
 1897 0aeb 72060000 		.4byte	.LASF146
 1898 0aef 15       		.byte	0x15
 1899 0af0 67       		.byte	0x67
 1900 0af1 1A       		.byte	0x1a
 1901 0af2 050B0000 		.4byte	0xb05
 1902 0af6 00       		.byte	0
 1903 0af7 01       		.uleb128 0x1
 1904 0af8 D7030000 		.4byte	.LASF78
 1905 0afc 15       		.byte	0x15
 1906 0afd 6B       		.byte	0x6b
 1907 0afe 19       		.byte	0x19
 1908 0aff 2D000000 		.4byte	0x2d
 1909 0b03 04       		.byte	0x4
 1910 0b04 00       		.byte	0
 1911 0b05 03       		.uleb128 0x3
 1912 0b06 380A0000 		.4byte	0xa38
 1913 0b0a 06       		.uleb128 0x6
 1914 0b0b 6E070000 		.4byte	.LASF147
 1915 0b0f 04       		.byte	0x4
 1916 0b10 16       		.byte	0x16
 1917 0b11 38       		.byte	0x38
 1918 0b12 08       		.byte	0x8
 1919 0b13 250B0000 		.4byte	0xb25
 1920 0b17 01       		.uleb128 0x1
 1921 0b18 0C010000 		.4byte	.LASF85
 1922 0b1c 16       		.byte	0x16
 1923 0b1d 39       		.byte	0x39
 1924 0b1e 1A       		.byte	0x1a
 1925 0b1f 250B0000 		.4byte	0xb25
 1926 0b23 00       		.byte	0
 1927 0b24 00       		.byte	0
 1928 0b25 03       		.uleb128 0x3
 1929 0b26 0A0B0000 		.4byte	0xb0a
 1930 0b2a 0A       		.uleb128 0xa
 1931 0b2b 10       		.byte	0x10
 1932 0b2c 16       		.byte	0x16
 1933 0b2d 40       		.byte	0x40
 1934 0b2e 09       		.byte	0x9
 1935 0b2f 680B0000 		.4byte	0xb68
 1936 0b33 01       		.uleb128 0x1
 1937 0b34 0C010000 		.4byte	.LASF85
 1938 0b38 16       		.byte	0x16
ARM GAS  C:\Users\DEVELO~1\AppData\Local\Temp\ccPoYcgE.s 			page 35


 1939 0b39 41       		.byte	0x41
 1940 0b3a 1A       		.byte	0x1a
 1941 0b3b 250B0000 		.4byte	0xb25
 1942 0b3f 00       		.byte	0
 1943 0b40 01       		.uleb128 0x1
 1944 0b41 38050000 		.4byte	.LASF148
 1945 0b45 16       		.byte	0x16
 1946 0b46 42       		.byte	0x42
 1947 0b47 19       		.byte	0x19
 1948 0b48 2D000000 		.4byte	0x2d
 1949 0b4c 04       		.byte	0x4
 1950 0b4d 01       		.uleb128 0x1
 1951 0b4e A1020000 		.4byte	.LASF149
 1952 0b52 16       		.byte	0x16
 1953 0b53 44       		.byte	0x44
 1954 0b54 19       		.byte	0x19
 1955 0b55 39000000 		.4byte	0x39
 1956 0b59 08       		.byte	0x8
 1957 0b5a 01       		.uleb128 0x1
 1958 0b5b 6F000000 		.4byte	.LASF139
 1959 0b5f 16       		.byte	0x16
 1960 0b60 45       		.byte	0x45
 1961 0b61 19       		.byte	0x19
 1962 0b62 E9090000 		.4byte	0x9e9
 1963 0b66 0C       		.byte	0xc
 1964 0b67 00       		.byte	0
 1965 0b68 02       		.uleb128 0x2
 1966 0b69 15020000 		.4byte	.LASF150
 1967 0b6d 16       		.byte	0x16
 1968 0b6e 47       		.byte	0x47
 1969 0b6f 03       		.byte	0x3
 1970 0b70 2A0B0000 		.4byte	0xb2a
 1971 0b74 1C       		.uleb128 0x1c
 1972 0b75 9A070000 		.4byte	.LASF151
 1973 0b79 16       		.byte	0x16
 1974 0b7a 9D       		.byte	0x9d
 1975 0b7b 8A0B0000 		.4byte	0xb8a
 1976 0b7f 05       		.uleb128 0x5
 1977 0b80 8A0B0000 		.4byte	0xb8a
 1978 0b84 05       		.uleb128 0x5
 1979 0b85 CC030000 		.4byte	0x3cc
 1980 0b89 00       		.byte	0
 1981 0b8a 03       		.uleb128 0x3
 1982 0b8b 680B0000 		.4byte	0xb68
 1983 0b8f 24       		.uleb128 0x24
 1984 0b90 8E070000 		.4byte	.LASF154
 1985 0b94 16       		.byte	0x16
 1986 0b95 9B       		.byte	0x9b
 1987 0b96 CC030000 		.4byte	0x3cc
 1988 0b9a A40B0000 		.4byte	0xba4
 1989 0b9e 05       		.uleb128 0x5
 1990 0b9f 8A0B0000 		.4byte	0xb8a
 1991 0ba3 00       		.byte	0
 1992 0ba4 1C       		.uleb128 0x1c
 1993 0ba5 3C000000 		.4byte	.LASF152
 1994 0ba9 15       		.byte	0x15
 1995 0baa A2       		.byte	0xa2
ARM GAS  C:\Users\DEVELO~1\AppData\Local\Temp\ccPoYcgE.s 			page 36


 1996 0bab B50B0000 		.4byte	0xbb5
 1997 0baf 05       		.uleb128 0x5
 1998 0bb0 CC030000 		.4byte	0x3cc
 1999 0bb4 00       		.byte	0
 2000 0bb5 1C       		.uleb128 0x1c
 2001 0bb6 4C070000 		.4byte	.LASF153
 2002 0bba 17       		.byte	0x17
 2003 0bbb 93       		.byte	0x93
 2004 0bbc CB0B0000 		.4byte	0xbcb
 2005 0bc0 05       		.uleb128 0x5
 2006 0bc1 C7030000 		.4byte	0x3c7
 2007 0bc5 05       		.uleb128 0x5
 2008 0bc6 44010000 		.4byte	0x144
 2009 0bca 00       		.byte	0
 2010 0bcb 36       		.uleb128 0x36
 2011 0bcc 74010000 		.4byte	.LASF155
 2012 0bd0 05       		.byte	0x5
 2013 0bd1 C001     		.2byte	0x1c0
 2014 0bd3 0D       		.byte	0xd
 2015 0bd4 C7030000 		.4byte	0x3c7
 2016 0bd8 E20B0000 		.4byte	0xbe2
 2017 0bdc 05       		.uleb128 0x5
 2018 0bdd E20B0000 		.4byte	0xbe2
 2019 0be1 00       		.byte	0
 2020 0be2 03       		.uleb128 0x3
 2021 0be3 9C090000 		.4byte	0x99c
 2022 0be7 24       		.uleb128 0x24
 2023 0be8 29070000 		.4byte	.LASF156
 2024 0bec 15       		.byte	0x15
 2025 0bed A1       		.byte	0xa1
 2026 0bee CC030000 		.4byte	0x3cc
 2027 0bf2 060C0000 		.4byte	0xc06
 2028 0bf6 05       		.uleb128 0x5
 2029 0bf7 050B0000 		.4byte	0xb05
 2030 0bfb 05       		.uleb128 0x5
 2031 0bfc 2D000000 		.4byte	0x2d
 2032 0c00 05       		.uleb128 0x5
 2033 0c01 39000000 		.4byte	0x39
 2034 0c05 00       		.byte	0
 2035 0c06 25       		.uleb128 0x25
 2036 0c07 02050000 		.4byte	.LASF157
 2037 0c0b 98       		.byte	0x98
 2038 0c0c C7030000 		.4byte	0x3c7
 2039 0c10 00000000 		.4byte	.LFB355
 2040 0c14 5C000000 		.4byte	.LFE355-.LFB355
 2041 0c18 01       		.uleb128 0x1
 2042 0c19 9C       		.byte	0x9c
 2043 0c1a CF0D0000 		.4byte	0xdcf
 2044 0c1e 0F       		.uleb128 0xf
 2045 0c1f 6D7000   		.ascii	"mp\000"
 2046 0c22 98       		.byte	0x98
 2047 0c23 34       		.byte	0x34
 2048 0c24 8A0B0000 		.4byte	0xb8a
 2049 0c28 12000000 		.4byte	.LLST17
 2050 0c2c 0C000000 		.4byte	.LVUS17
 2051 0c30 10       		.uleb128 0x10
 2052 0c31 D2030000 		.4byte	.LASF38
ARM GAS  C:\Users\DEVELO~1\AppData\Local\Temp\ccPoYcgE.s 			page 37


 2053 0c35 98       		.byte	0x98
 2054 0c36 44       		.byte	0x44
 2055 0c37 64030000 		.4byte	0x364
 2056 0c3b 34000000 		.4byte	.LLST18
 2057 0c3f 2A000000 		.4byte	.LVUS18
 2058 0c43 10       		.uleb128 0x10
 2059 0c44 69050000 		.4byte	.LASF91
 2060 0c48 99       		.byte	0x99
 2061 0c49 2D       		.byte	0x2d
 2062 0c4a 38010000 		.4byte	0x138
 2063 0c4e 5E000000 		.4byte	.LLST19
 2064 0c52 58000000 		.4byte	.LVUS19
 2065 0c56 0F       		.uleb128 0xf
 2066 0c57 706600   		.ascii	"pf\000"
 2067 0c5a 99       		.byte	0x99
 2068 0c5b 3B       		.byte	0x3b
 2069 0c5c 0F090000 		.4byte	0x90f
 2070 0c60 7C000000 		.4byte	.LLST20
 2071 0c64 76000000 		.4byte	.LVUS20
 2072 0c68 0F       		.uleb128 0xf
 2073 0c69 61726700 		.ascii	"arg\000"
 2074 0c6d 99       		.byte	0x99
 2075 0c6e 45       		.byte	0x45
 2076 0c6f CC030000 		.4byte	0x3cc
 2077 0c73 98000000 		.4byte	.LLST21
 2078 0c77 94000000 		.4byte	.LVUS21
 2079 0c7b 26       		.uleb128 0x26
 2080 0c7c 747000   		.ascii	"tp\000"
 2081 0c7f 9A       		.byte	0x9a
 2082 0c80 C7030000 		.4byte	0x3c7
 2083 0c84 AE000000 		.4byte	.LLST22
 2084 0c88 AA000000 		.4byte	.LVUS22
 2085 0c8c 13       		.uleb128 0x13
 2086 0c8d 32050000 		.4byte	.LASF127
 2087 0c91 9B       		.byte	0x9b
 2088 0c92 09       		.byte	0x9
 2089 0c93 CC030000 		.4byte	0x3cc
 2090 0c97 C2000000 		.4byte	.LLST23
 2091 0c9b BE000000 		.4byte	.LVUS23
 2092 0c9f 13       		.uleb128 0x13
 2093 0ca0 B5000000 		.4byte	.LASF128
 2094 0ca4 9B       		.byte	0x9b
 2095 0ca5 11       		.byte	0x11
 2096 0ca6 CC030000 		.4byte	0x3cc
 2097 0caa D5000000 		.4byte	.LLST24
 2098 0cae D3000000 		.4byte	.LVUS24
 2099 0cb2 27       		.uleb128 0x27
 2100 0cb3 1D060000 		.4byte	.LASF164
 2101 0cb7 DF0D0000 		.4byte	0xddf
 2102 0cbb 28       		.uleb128 0x28
 2103 0cbc 746400   		.ascii	"td\000"
 2104 0cbf A5       		.byte	0xa5
 2105 0cc0 90090000 		.4byte	0x990
 2106 0cc4 02       		.uleb128 0x2
 2107 0cc5 91       		.byte	0x91
 2108 0cc6 4C       		.sleb128 -52
 2109 0cc7 14       		.uleb128 0x14
ARM GAS  C:\Users\DEVELO~1\AppData\Local\Temp\ccPoYcgE.s 			page 38


 2110 0cc8 83100000 		.4byte	0x1083
 2111 0ccc 1C000000 		.4byte	.LBI55
 2112 0cd0 02       		.byte	.LVU79
 2113 0cd1 24000000 		.4byte	.LLRL25
 2114 0cd5 AC       		.byte	0xac
 2115 0cd6 0C0D0000 		.4byte	0xd0c
 2116 0cda 15       		.uleb128 0x15
 2117 0cdb 95100000 		.4byte	0x1095
 2118 0cdf 1C000000 		.4byte	.LBI56
 2119 0ce3 04       		.byte	.LVU81
 2120 0ce4 24000000 		.4byte	.LLRL25
 2121 0ce8 02       		.byte	0x2
 2122 0ce9 7601     		.2byte	0x176
 2123 0ceb 15       		.uleb128 0x15
 2124 0cec 9E100000 		.4byte	0x109e
 2125 0cf0 1C000000 		.4byte	.LBI57
 2126 0cf4 06       		.byte	.LVU83
 2127 0cf5 24000000 		.4byte	.LLRL25
 2128 0cf9 03       		.byte	0x3
 2129 0cfa 5003     		.2byte	0x350
 2130 0cfc 0D       		.uleb128 0xd
 2131 0cfd A8100000 		.4byte	0x10a8
 2132 0d01 E0000000 		.4byte	.LLST26
 2133 0d05 DE000000 		.4byte	.LVUS26
 2134 0d09 00       		.byte	0
 2135 0d0a 00       		.byte	0
 2136 0d0b 00       		.byte	0
 2137 0d0c 14       		.uleb128 0x14
 2138 0d0d 25100000 		.4byte	0x1025
 2139 0d11 46000000 		.4byte	.LBI63
 2140 0d15 01       		.byte	.LVU100
 2141 0d16 30000000 		.4byte	.LLRL27
 2142 0d1a AE       		.byte	0xae
 2143 0d1b 3F0D0000 		.4byte	0xd3f
 2144 0d1f 0D       		.uleb128 0xd
 2145 0d20 4A100000 		.4byte	0x104a
 2146 0d24 ED000000 		.4byte	.LLST28
 2147 0d28 EB000000 		.4byte	.LVUS28
 2148 0d2c 29       		.uleb128 0x29
 2149 0d2d 3D100000 		.4byte	0x103d
 2150 0d31 0D       		.uleb128 0xd
 2151 0d32 31100000 		.4byte	0x1031
 2152 0d36 F8000000 		.4byte	.LLST29
 2153 0d3a F6000000 		.4byte	.LVUS29
 2154 0d3e 00       		.byte	0
 2155 0d3f 2A       		.uleb128 0x2a
 2156 0d40 58100000 		.4byte	0x1058
 2157 0d44 4A000000 		.4byte	.LBI69
 2158 0d48 01       		.byte	.LVU106
 2159 0d49 4A000000 		.4byte	.LBB69
 2160 0d4d 04000000 		.4byte	.LBE69-.LBB69
 2161 0d51 B0       		.byte	0xb0
 2162 0d52 900D0000 		.4byte	0xd90
 2163 0d56 16       		.uleb128 0x16
 2164 0d57 8C100000 		.4byte	0x108c
 2165 0d5b 4A000000 		.4byte	.LBI71
 2166 0d5f 08       		.byte	.LVU113
ARM GAS  C:\Users\DEVELO~1\AppData\Local\Temp\ccPoYcgE.s 			page 39


 2167 0d60 4A000000 		.4byte	.LBB71
 2168 0d64 04000000 		.4byte	.LBE71-.LBB71
 2169 0d68 02       		.byte	0x2
 2170 0d69 8F01     		.2byte	0x18f
 2171 0d6b 16       		.uleb128 0x16
 2172 0d6c 9E100000 		.4byte	0x109e
 2173 0d70 4A000000 		.4byte	.LBI72
 2174 0d74 0A       		.byte	.LVU115
 2175 0d75 4A000000 		.4byte	.LBB72
 2176 0d79 04000000 		.4byte	.LBE72-.LBB72
 2177 0d7d 03       		.byte	0x3
 2178 0d7e 6303     		.2byte	0x363
 2179 0d80 0D       		.uleb128 0xd
 2180 0d81 A8100000 		.4byte	0x10a8
 2181 0d85 03010000 		.4byte	.LLST30
 2182 0d89 01010000 		.4byte	.LVUS30
 2183 0d8d 00       		.byte	0
 2184 0d8e 00       		.byte	0
 2185 0d8f 00       		.byte	0
 2186 0d90 17       		.uleb128 0x17
 2187 0d91 12000000 		.4byte	.LVL21
 2188 0d95 8F0B0000 		.4byte	0xb8f
 2189 0d99 A40D0000 		.4byte	0xda4
 2190 0d9d 0B       		.uleb128 0xb
 2191 0d9e 01       		.uleb128 0x1
 2192 0d9f 50       		.byte	0x50
 2193 0da0 02       		.uleb128 0x2
 2194 0da1 75       		.byte	0x75
 2195 0da2 00       		.sleb128 0
 2196 0da3 00       		.byte	0
 2197 0da4 17       		.uleb128 0x17
 2198 0da5 3C000000 		.4byte	.LVL26
 2199 0da9 CB0B0000 		.4byte	0xbcb
 2200 0dad B80D0000 		.4byte	0xdb8
 2201 0db1 0B       		.uleb128 0xb
 2202 0db2 01       		.uleb128 0x1
 2203 0db3 50       		.byte	0x50
 2204 0db4 02       		.uleb128 0x2
 2205 0db5 91       		.byte	0x91
 2206 0db6 4C       		.sleb128 -52
 2207 0db7 00       		.byte	0
 2208 0db8 2B       		.uleb128 0x2b
 2209 0db9 4A000000 		.4byte	.LVL28
 2210 0dbd B50B0000 		.4byte	0xbb5
 2211 0dc1 0B       		.uleb128 0xb
 2212 0dc2 01       		.uleb128 0x1
 2213 0dc3 50       		.byte	0x50
 2214 0dc4 02       		.uleb128 0x2
 2215 0dc5 74       		.byte	0x74
 2216 0dc6 00       		.sleb128 0
 2217 0dc7 0B       		.uleb128 0xb
 2218 0dc8 01       		.uleb128 0x1
 2219 0dc9 51       		.byte	0x51
 2220 0dca 02       		.uleb128 0x2
 2221 0dcb 78       		.byte	0x78
 2222 0dcc 00       		.sleb128 0
 2223 0dcd 00       		.byte	0
ARM GAS  C:\Users\DEVELO~1\AppData\Local\Temp\ccPoYcgE.s 			page 40


 2224 0dce 00       		.byte	0
 2225 0dcf 1A       		.uleb128 0x1a
 2226 0dd0 75030000 		.4byte	0x375
 2227 0dd4 DF0D0000 		.4byte	0xddf
 2228 0dd8 1B       		.uleb128 0x1b
 2229 0dd9 39000000 		.4byte	0x39
 2230 0ddd 19       		.byte	0x19
 2231 0dde 00       		.byte	0
 2232 0ddf 11       		.uleb128 0x11
 2233 0de0 CF0D0000 		.4byte	0xdcf
 2234 0de4 25       		.uleb128 0x25
 2235 0de5 A2010000 		.4byte	.LASF158
 2236 0de9 60       		.byte	0x60
 2237 0dea C7030000 		.4byte	0x3c7
 2238 0dee 00000000 		.4byte	.LFB354
 2239 0df2 58000000 		.4byte	.LFE354-.LFB354
 2240 0df6 01       		.uleb128 0x1
 2241 0df7 9C       		.byte	0x9c
 2242 0df8 C50F0000 		.4byte	0xfc5
 2243 0dfc 10       		.uleb128 0x10
 2244 0dfd F8000000 		.4byte	.LASF159
 2245 0e01 60       		.byte	0x60
 2246 0e02 2E       		.byte	0x2e
 2247 0e03 050B0000 		.4byte	0xb05
 2248 0e07 11010000 		.4byte	.LLST2
 2249 0e0b 0D010000 		.4byte	.LVUS2
 2250 0e0f 10       		.uleb128 0x10
 2251 0e10 D7030000 		.4byte	.LASF78
 2252 0e14 60       		.byte	0x60
 2253 0e15 3C       		.byte	0x3c
 2254 0e16 2D000000 		.4byte	0x2d
 2255 0e1a 2A010000 		.4byte	.LLST3
 2256 0e1e 24010000 		.4byte	.LVUS3
 2257 0e22 10       		.uleb128 0x10
 2258 0e23 D2030000 		.4byte	.LASF38
 2259 0e27 61       		.byte	0x61
 2260 0e28 2B       		.byte	0x2b
 2261 0e29 64030000 		.4byte	0x364
 2262 0e2d 48010000 		.4byte	.LLST4
 2263 0e31 42010000 		.4byte	.LVUS4
 2264 0e35 10       		.uleb128 0x10
 2265 0e36 69050000 		.4byte	.LASF91
 2266 0e3a 61       		.byte	0x61
 2267 0e3b 39       		.byte	0x39
 2268 0e3c 38010000 		.4byte	0x138
 2269 0e40 66010000 		.4byte	.LLST5
 2270 0e44 60010000 		.4byte	.LVUS5
 2271 0e48 0F       		.uleb128 0xf
 2272 0e49 706600   		.ascii	"pf\000"
 2273 0e4c 62       		.byte	0x62
 2274 0e4d 27       		.byte	0x27
 2275 0e4e 0F090000 		.4byte	0x90f
 2276 0e52 82010000 		.4byte	.LLST6
 2277 0e56 7E010000 		.4byte	.LVUS6
 2278 0e5a 0F       		.uleb128 0xf
 2279 0e5b 61726700 		.ascii	"arg\000"
 2280 0e5f 62       		.byte	0x62
ARM GAS  C:\Users\DEVELO~1\AppData\Local\Temp\ccPoYcgE.s 			page 41


 2281 0e60 31       		.byte	0x31
 2282 0e61 CC030000 		.4byte	0x3cc
 2283 0e65 98010000 		.4byte	.LLST7
 2284 0e69 94010000 		.4byte	.LVUS7
 2285 0e6d 26       		.uleb128 0x26
 2286 0e6e 747000   		.ascii	"tp\000"
 2287 0e71 63       		.byte	0x63
 2288 0e72 C7030000 		.4byte	0x3c7
 2289 0e76 AE010000 		.4byte	.LLST8
 2290 0e7a AA010000 		.4byte	.LVUS8
 2291 0e7e 13       		.uleb128 0x13
 2292 0e7f 32050000 		.4byte	.LASF127
 2293 0e83 64       		.byte	0x64
 2294 0e84 09       		.byte	0x9
 2295 0e85 CC030000 		.4byte	0x3cc
 2296 0e89 C2010000 		.4byte	.LLST9
 2297 0e8d BE010000 		.4byte	.LVUS9
 2298 0e91 13       		.uleb128 0x13
 2299 0e92 B5000000 		.4byte	.LASF128
 2300 0e96 64       		.byte	0x64
 2301 0e97 11       		.byte	0x11
 2302 0e98 CC030000 		.4byte	0x3cc
 2303 0e9c D6010000 		.4byte	.LLST10
 2304 0ea0 D2010000 		.4byte	.LVUS10
 2305 0ea4 28       		.uleb128 0x28
 2306 0ea5 746400   		.ascii	"td\000"
 2307 0ea8 6C       		.byte	0x6c
 2308 0ea9 90090000 		.4byte	0x990
 2309 0ead 02       		.uleb128 0x2
 2310 0eae 91       		.byte	0x91
 2311 0eaf 4C       		.sleb128 -52
 2312 0eb0 14       		.uleb128 0x14
 2313 0eb1 83100000 		.4byte	0x1083
 2314 0eb5 28000000 		.4byte	.LBI38
 2315 0eb9 01       		.byte	.LVU22
 2316 0eba 0C000000 		.4byte	.LLRL11
 2317 0ebe 73       		.byte	0x73
 2318 0ebf F50E0000 		.4byte	0xef5
 2319 0ec3 15       		.uleb128 0x15
 2320 0ec4 95100000 		.4byte	0x1095
 2321 0ec8 28000000 		.4byte	.LBI39
 2322 0ecc 03       		.byte	.LVU24
 2323 0ecd 0C000000 		.4byte	.LLRL11
 2324 0ed1 02       		.byte	0x2
 2325 0ed2 7601     		.2byte	0x176
 2326 0ed4 15       		.uleb128 0x15
 2327 0ed5 9E100000 		.4byte	0x109e
 2328 0ed9 28000000 		.4byte	.LBI40
 2329 0edd 05       		.byte	.LVU26
 2330 0ede 0C000000 		.4byte	.LLRL11
 2331 0ee2 03       		.byte	0x3
 2332 0ee3 5003     		.2byte	0x350
 2333 0ee5 0D       		.uleb128 0xd
 2334 0ee6 A8100000 		.4byte	0x10a8
 2335 0eea ED010000 		.4byte	.LLST12
 2336 0eee EB010000 		.4byte	.LVUS12
 2337 0ef2 00       		.byte	0
ARM GAS  C:\Users\DEVELO~1\AppData\Local\Temp\ccPoYcgE.s 			page 42


 2338 0ef3 00       		.byte	0
 2339 0ef4 00       		.byte	0
 2340 0ef5 14       		.uleb128 0x14
 2341 0ef6 25100000 		.4byte	0x1025
 2342 0efa 3E000000 		.4byte	.LBI46
 2343 0efe 01       		.byte	.LVU40
 2344 0eff 18000000 		.4byte	.LLRL13
 2345 0f03 75       		.byte	0x75
 2346 0f04 280F0000 		.4byte	0xf28
 2347 0f08 0D       		.uleb128 0xd
 2348 0f09 4A100000 		.4byte	0x104a
 2349 0f0d FA010000 		.4byte	.LLST14
 2350 0f11 F8010000 		.4byte	.LVUS14
 2351 0f15 29       		.uleb128 0x29
 2352 0f16 3D100000 		.4byte	0x103d
 2353 0f1a 0D       		.uleb128 0xd
 2354 0f1b 31100000 		.4byte	0x1031
 2355 0f1f 06020000 		.4byte	.LLST15
 2356 0f23 04020000 		.4byte	.LVUS15
 2357 0f27 00       		.byte	0
 2358 0f28 2A       		.uleb128 0x2a
 2359 0f29 58100000 		.4byte	0x1058
 2360 0f2d 46000000 		.4byte	.LBI50
 2361 0f31 01       		.byte	.LVU46
 2362 0f32 46000000 		.4byte	.LBB50
 2363 0f36 04000000 		.4byte	.LBE50-.LBB50
 2364 0f3a 77       		.byte	0x77
 2365 0f3b 790F0000 		.4byte	0xf79
 2366 0f3f 16       		.uleb128 0x16
 2367 0f40 8C100000 		.4byte	0x108c
 2368 0f44 46000000 		.4byte	.LBI52
 2369 0f48 08       		.byte	.LVU53
 2370 0f49 46000000 		.4byte	.LBB52
 2371 0f4d 04000000 		.4byte	.LBE52-.LBB52
 2372 0f51 02       		.byte	0x2
 2373 0f52 8F01     		.2byte	0x18f
 2374 0f54 16       		.uleb128 0x16
 2375 0f55 9E100000 		.4byte	0x109e
 2376 0f59 46000000 		.4byte	.LBI53
 2377 0f5d 0A       		.byte	.LVU55
 2378 0f5e 46000000 		.4byte	.LBB53
 2379 0f62 04000000 		.4byte	.LBE53-.LBB53
 2380 0f66 03       		.byte	0x3
 2381 0f67 6303     		.2byte	0x363
 2382 0f69 0D       		.uleb128 0xd
 2383 0f6a A8100000 		.4byte	0x10a8
 2384 0f6e 11020000 		.4byte	.LLST16
 2385 0f72 0F020000 		.4byte	.LVUS16
 2386 0f76 00       		.byte	0
 2387 0f77 00       		.byte	0
 2388 0f78 00       		.byte	0
 2389 0f79 17       		.uleb128 0x17
 2390 0f7a 12000000 		.4byte	.LVL8
 2391 0f7e E70B0000 		.4byte	0xbe7
 2392 0f82 9A0F0000 		.4byte	0xf9a
 2393 0f86 0B       		.uleb128 0xb
 2394 0f87 01       		.uleb128 0x1
ARM GAS  C:\Users\DEVELO~1\AppData\Local\Temp\ccPoYcgE.s 			page 43


 2395 0f88 50       		.byte	0x50
 2396 0f89 03       		.uleb128 0x3
 2397 0f8a A3       		.byte	0xa3
 2398 0f8b 01       		.uleb128 0x1
 2399 0f8c 50       		.byte	0x50
 2400 0f8d 0B       		.uleb128 0xb
 2401 0f8e 01       		.uleb128 0x1
 2402 0f8f 51       		.byte	0x51
 2403 0f90 02       		.uleb128 0x2
 2404 0f91 75       		.byte	0x75
 2405 0f92 00       		.sleb128 0
 2406 0f93 0B       		.uleb128 0xb
 2407 0f94 01       		.uleb128 0x1
 2408 0f95 52       		.byte	0x52
 2409 0f96 02       		.uleb128 0x2
 2410 0f97 08       		.byte	0x8
 2411 0f98 20       		.byte	0x20
 2412 0f99 00       		.byte	0
 2413 0f9a 17       		.uleb128 0x17
 2414 0f9b 38000000 		.4byte	.LVL14
 2415 0f9f CB0B0000 		.4byte	0xbcb
 2416 0fa3 AE0F0000 		.4byte	0xfae
 2417 0fa7 0B       		.uleb128 0xb
 2418 0fa8 01       		.uleb128 0x1
 2419 0fa9 50       		.byte	0x50
 2420 0faa 02       		.uleb128 0x2
 2421 0fab 91       		.byte	0x91
 2422 0fac 4C       		.sleb128 -52
 2423 0fad 00       		.byte	0
 2424 0fae 2B       		.uleb128 0x2b
 2425 0faf 46000000 		.4byte	.LVL17
 2426 0fb3 B50B0000 		.4byte	0xbb5
 2427 0fb7 0B       		.uleb128 0xb
 2428 0fb8 01       		.uleb128 0x1
 2429 0fb9 50       		.byte	0x50
 2430 0fba 02       		.uleb128 0x2
 2431 0fbb 74       		.byte	0x74
 2432 0fbc 00       		.sleb128 0
 2433 0fbd 0B       		.uleb128 0xb
 2434 0fbe 01       		.uleb128 0x1
 2435 0fbf 51       		.byte	0x51
 2436 0fc0 02       		.uleb128 0x2
 2437 0fc1 76       		.byte	0x76
 2438 0fc2 00       		.sleb128 0
 2439 0fc3 00       		.byte	0
 2440 0fc4 00       		.byte	0
 2441 0fc5 2C       		.uleb128 0x2c
 2442 0fc6 08040000 		.4byte	.LASF160
 2443 0fca 3D       		.byte	0x3d
 2444 0fcb 00000000 		.4byte	.LFB353
 2445 0fcf 08000000 		.4byte	.LFE353-.LFB353
 2446 0fd3 01       		.uleb128 0x1
 2447 0fd4 9C       		.byte	0x9c
 2448 0fd5 F50F0000 		.4byte	0xff5
 2449 0fd9 0F       		.uleb128 0xf
 2450 0fda 747000   		.ascii	"tp\000"
 2451 0fdd 3D       		.byte	0x3d
ARM GAS  C:\Users\DEVELO~1\AppData\Local\Temp\ccPoYcgE.s 			page 44


 2452 0fde 24       		.byte	0x24
 2453 0fdf C7030000 		.4byte	0x3c7
 2454 0fe3 1F020000 		.4byte	.LLST1
 2455 0fe7 1B020000 		.4byte	.LVUS1
 2456 0feb 2D       		.uleb128 0x2d
 2457 0fec 08000000 		.4byte	.LVL5
 2458 0ff0 740B0000 		.4byte	0xb74
 2459 0ff4 00       		.byte	0
 2460 0ff5 2C       		.uleb128 0x2c
 2461 0ff6 26060000 		.4byte	.LASF161
 2462 0ffa 36       		.byte	0x36
 2463 0ffb 00000000 		.4byte	.LFB352
 2464 0fff 06000000 		.4byte	.LFE352-.LFB352
 2465 1003 01       		.uleb128 0x1
 2466 1004 9C       		.byte	0x9c
 2467 1005 25100000 		.4byte	0x1025
 2468 1009 0F       		.uleb128 0xf
 2469 100a 747000   		.ascii	"tp\000"
 2470 100d 36       		.byte	0x36
 2471 100e 24       		.byte	0x24
 2472 100f C7030000 		.4byte	0x3c7
 2473 1013 36020000 		.4byte	.LLST0
 2474 1017 32020000 		.4byte	.LVUS0
 2475 101b 2D       		.uleb128 0x2d
 2476 101c 06000000 		.4byte	.LVL2
 2477 1020 A40B0000 		.4byte	0xba4
 2478 1024 00       		.byte	0
 2479 1025 2E       		.uleb128 0x2e
 2480 1026 44050000 		.4byte	.LASF162
 2481 102a 05       		.byte	0x5
 2482 102b F201     		.2byte	0x1f2
 2483 102d 58100000 		.4byte	0x1058
 2484 1031 37       		.uleb128 0x37
 2485 1032 747000   		.ascii	"tp\000"
 2486 1035 05       		.byte	0x5
 2487 1036 F201     		.2byte	0x1f2
 2488 1038 30       		.byte	0x30
 2489 1039 C7030000 		.4byte	0x3c7
 2490 103d 1D       		.uleb128 0x1d
 2491 103e BF000000 		.4byte	.LASF40
 2492 1042 05       		.byte	0x5
 2493 1043 F301     		.2byte	0x1f3
 2494 1045 37       		.byte	0x37
 2495 1046 4C070000 		.4byte	0x74c
 2496 104a 1D       		.uleb128 0x1d
 2497 104b 11010000 		.4byte	.LASF41
 2498 104f 05       		.byte	0x5
 2499 1050 F401     		.2byte	0x1f4
 2500 1052 2C       		.byte	0x2c
 2501 1053 CC030000 		.4byte	0x3cc
 2502 1057 00       		.byte	0
 2503 1058 2E       		.uleb128 0x2e
 2504 1059 E1070000 		.4byte	.LASF163
 2505 105d 02       		.byte	0x2
 2506 105e 8201     		.2byte	0x182
 2507 1060 6E100000 		.4byte	0x106e
 2508 1064 27       		.uleb128 0x27
ARM GAS  C:\Users\DEVELO~1\AppData\Local\Temp\ccPoYcgE.s 			page 45


 2509 1065 1D060000 		.4byte	.LASF164
 2510 1069 7E100000 		.4byte	0x107e
 2511 106d 00       		.byte	0
 2512 106e 1A       		.uleb128 0x1a
 2513 106f 75030000 		.4byte	0x375
 2514 1073 7E100000 		.4byte	0x107e
 2515 1077 1B       		.uleb128 0x1b
 2516 1078 39000000 		.4byte	0x39
 2517 107c 0B       		.byte	0xb
 2518 107d 00       		.byte	0
 2519 107e 11       		.uleb128 0x11
 2520 107f 6E100000 		.4byte	0x106e
 2521 1083 1E       		.uleb128 0x1e
 2522 1084 33060000 		.4byte	.LASF165
 2523 1088 02       		.byte	0x2
 2524 1089 7401     		.2byte	0x174
 2525 108b 14       		.byte	0x14
 2526 108c 1E       		.uleb128 0x1e
 2527 108d D5010000 		.4byte	.LASF166
 2528 1091 03       		.byte	0x3
 2529 1092 6003     		.2byte	0x360
 2530 1094 1B       		.byte	0x1b
 2531 1095 1E       		.uleb128 0x1e
 2532 1096 F2070000 		.4byte	.LASF167
 2533 109a 03       		.byte	0x3
 2534 109b 4803     		.2byte	0x348
 2535 109d 1B       		.byte	0x1b
 2536 109e 38       		.uleb128 0x38
 2537 109f CB040000 		.4byte	.LASF173
 2538 10a3 04       		.byte	0x4
 2539 10a4 EB01     		.2byte	0x1eb
 2540 10a6 1B       		.byte	0x1b
 2541 10a7 03       		.byte	0x3
 2542 10a8 1D       		.uleb128 0x1d
 2543 10a9 8A010000 		.4byte	.LASF168
 2544 10ad 04       		.byte	0x4
 2545 10ae EB01     		.2byte	0x1eb
 2546 10b0 32       		.byte	0x32
 2547 10b1 DF000000 		.4byte	0xdf
 2548 10b5 00       		.byte	0
 2549 10b6 00       		.byte	0
 2550              		.section	.debug_abbrev,"",%progbits
 2551              	.Ldebug_abbrev0:
 2552 0000 01       		.uleb128 0x1
 2553 0001 0D       		.uleb128 0xd
 2554 0002 00       		.byte	0
 2555 0003 03       		.uleb128 0x3
 2556 0004 0E       		.uleb128 0xe
 2557 0005 3A       		.uleb128 0x3a
 2558 0006 0B       		.uleb128 0xb
 2559 0007 3B       		.uleb128 0x3b
 2560 0008 0B       		.uleb128 0xb
 2561 0009 39       		.uleb128 0x39
 2562 000a 0B       		.uleb128 0xb
 2563 000b 49       		.uleb128 0x49
 2564 000c 13       		.uleb128 0x13
 2565 000d 38       		.uleb128 0x38
ARM GAS  C:\Users\DEVELO~1\AppData\Local\Temp\ccPoYcgE.s 			page 46


 2566 000e 0B       		.uleb128 0xb
 2567 000f 00       		.byte	0
 2568 0010 00       		.byte	0
 2569 0011 02       		.uleb128 0x2
 2570 0012 16       		.uleb128 0x16
 2571 0013 00       		.byte	0
 2572 0014 03       		.uleb128 0x3
 2573 0015 0E       		.uleb128 0xe
 2574 0016 3A       		.uleb128 0x3a
 2575 0017 0B       		.uleb128 0xb
 2576 0018 3B       		.uleb128 0x3b
 2577 0019 0B       		.uleb128 0xb
 2578 001a 39       		.uleb128 0x39
 2579 001b 0B       		.uleb128 0xb
 2580 001c 49       		.uleb128 0x49
 2581 001d 13       		.uleb128 0x13
 2582 001e 00       		.byte	0
 2583 001f 00       		.byte	0
 2584 0020 03       		.uleb128 0x3
 2585 0021 0F       		.uleb128 0xf
 2586 0022 00       		.byte	0
 2587 0023 0B       		.uleb128 0xb
 2588 0024 21       		.uleb128 0x21
 2589 0025 04       		.sleb128 4
 2590 0026 49       		.uleb128 0x49
 2591 0027 13       		.uleb128 0x13
 2592 0028 00       		.byte	0
 2593 0029 00       		.byte	0
 2594 002a 04       		.uleb128 0x4
 2595 002b 0D       		.uleb128 0xd
 2596 002c 00       		.byte	0
 2597 002d 03       		.uleb128 0x3
 2598 002e 0E       		.uleb128 0xe
 2599 002f 3A       		.uleb128 0x3a
 2600 0030 21       		.uleb128 0x21
 2601 0031 0B       		.sleb128 11
 2602 0032 3B       		.uleb128 0x3b
 2603 0033 05       		.uleb128 0x5
 2604 0034 39       		.uleb128 0x39
 2605 0035 0B       		.uleb128 0xb
 2606 0036 49       		.uleb128 0x49
 2607 0037 13       		.uleb128 0x13
 2608 0038 38       		.uleb128 0x38
 2609 0039 0B       		.uleb128 0xb
 2610 003a 00       		.byte	0
 2611 003b 00       		.byte	0
 2612 003c 05       		.uleb128 0x5
 2613 003d 05       		.uleb128 0x5
 2614 003e 00       		.byte	0
 2615 003f 49       		.uleb128 0x49
 2616 0040 13       		.uleb128 0x13
 2617 0041 00       		.byte	0
 2618 0042 00       		.byte	0
 2619 0043 06       		.uleb128 0x6
 2620 0044 13       		.uleb128 0x13
 2621 0045 01       		.byte	0x1
 2622 0046 03       		.uleb128 0x3
ARM GAS  C:\Users\DEVELO~1\AppData\Local\Temp\ccPoYcgE.s 			page 47


 2623 0047 0E       		.uleb128 0xe
 2624 0048 0B       		.uleb128 0xb
 2625 0049 0B       		.uleb128 0xb
 2626 004a 3A       		.uleb128 0x3a
 2627 004b 0B       		.uleb128 0xb
 2628 004c 3B       		.uleb128 0x3b
 2629 004d 0B       		.uleb128 0xb
 2630 004e 39       		.uleb128 0x39
 2631 004f 0B       		.uleb128 0xb
 2632 0050 01       		.uleb128 0x1
 2633 0051 13       		.uleb128 0x13
 2634 0052 00       		.byte	0
 2635 0053 00       		.byte	0
 2636 0054 07       		.uleb128 0x7
 2637 0055 24       		.uleb128 0x24
 2638 0056 00       		.byte	0
 2639 0057 0B       		.uleb128 0xb
 2640 0058 0B       		.uleb128 0xb
 2641 0059 3E       		.uleb128 0x3e
 2642 005a 0B       		.uleb128 0xb
 2643 005b 03       		.uleb128 0x3
 2644 005c 0E       		.uleb128 0xe
 2645 005d 00       		.byte	0
 2646 005e 00       		.byte	0
 2647 005f 08       		.uleb128 0x8
 2648 0060 0D       		.uleb128 0xd
 2649 0061 00       		.byte	0
 2650 0062 03       		.uleb128 0x3
 2651 0063 08       		.uleb128 0x8
 2652 0064 3A       		.uleb128 0x3a
 2653 0065 0B       		.uleb128 0xb
 2654 0066 3B       		.uleb128 0x3b
 2655 0067 0B       		.uleb128 0xb
 2656 0068 39       		.uleb128 0x39
 2657 0069 0B       		.uleb128 0xb
 2658 006a 49       		.uleb128 0x49
 2659 006b 13       		.uleb128 0x13
 2660 006c 38       		.uleb128 0x38
 2661 006d 0B       		.uleb128 0xb
 2662 006e 00       		.byte	0
 2663 006f 00       		.byte	0
 2664 0070 09       		.uleb128 0x9
 2665 0071 0D       		.uleb128 0xd
 2666 0072 00       		.byte	0
 2667 0073 03       		.uleb128 0x3
 2668 0074 08       		.uleb128 0x8
 2669 0075 3A       		.uleb128 0x3a
 2670 0076 0B       		.uleb128 0xb
 2671 0077 3B       		.uleb128 0x3b
 2672 0078 05       		.uleb128 0x5
 2673 0079 39       		.uleb128 0x39
 2674 007a 0B       		.uleb128 0xb
 2675 007b 49       		.uleb128 0x49
 2676 007c 13       		.uleb128 0x13
 2677 007d 38       		.uleb128 0x38
 2678 007e 0B       		.uleb128 0xb
 2679 007f 00       		.byte	0
ARM GAS  C:\Users\DEVELO~1\AppData\Local\Temp\ccPoYcgE.s 			page 48


 2680 0080 00       		.byte	0
 2681 0081 0A       		.uleb128 0xa
 2682 0082 13       		.uleb128 0x13
 2683 0083 01       		.byte	0x1
 2684 0084 0B       		.uleb128 0xb
 2685 0085 0B       		.uleb128 0xb
 2686 0086 3A       		.uleb128 0x3a
 2687 0087 0B       		.uleb128 0xb
 2688 0088 3B       		.uleb128 0x3b
 2689 0089 0B       		.uleb128 0xb
 2690 008a 39       		.uleb128 0x39
 2691 008b 0B       		.uleb128 0xb
 2692 008c 01       		.uleb128 0x1
 2693 008d 13       		.uleb128 0x13
 2694 008e 00       		.byte	0
 2695 008f 00       		.byte	0
 2696 0090 0B       		.uleb128 0xb
 2697 0091 49       		.uleb128 0x49
 2698 0092 00       		.byte	0
 2699 0093 02       		.uleb128 0x2
 2700 0094 18       		.uleb128 0x18
 2701 0095 7E       		.uleb128 0x7e
 2702 0096 18       		.uleb128 0x18
 2703 0097 00       		.byte	0
 2704 0098 00       		.byte	0
 2705 0099 0C       		.uleb128 0xc
 2706 009a 0D       		.uleb128 0xd
 2707 009b 00       		.byte	0
 2708 009c 03       		.uleb128 0x3
 2709 009d 0E       		.uleb128 0xe
 2710 009e 3A       		.uleb128 0x3a
 2711 009f 21       		.uleb128 0x21
 2712 00a0 0B       		.sleb128 11
 2713 00a1 3B       		.uleb128 0x3b
 2714 00a2 05       		.uleb128 0x5
 2715 00a3 39       		.uleb128 0x39
 2716 00a4 0B       		.uleb128 0xb
 2717 00a5 49       		.uleb128 0x49
 2718 00a6 13       		.uleb128 0x13
 2719 00a7 00       		.byte	0
 2720 00a8 00       		.byte	0
 2721 00a9 0D       		.uleb128 0xd
 2722 00aa 05       		.uleb128 0x5
 2723 00ab 00       		.byte	0
 2724 00ac 31       		.uleb128 0x31
 2725 00ad 13       		.uleb128 0x13
 2726 00ae 02       		.uleb128 0x2
 2727 00af 17       		.uleb128 0x17
 2728 00b0 B742     		.uleb128 0x2137
 2729 00b2 17       		.uleb128 0x17
 2730 00b3 00       		.byte	0
 2731 00b4 00       		.byte	0
 2732 00b5 0E       		.uleb128 0xe
 2733 00b6 0D       		.uleb128 0xd
 2734 00b7 00       		.byte	0
 2735 00b8 03       		.uleb128 0x3
 2736 00b9 0E       		.uleb128 0xe
ARM GAS  C:\Users\DEVELO~1\AppData\Local\Temp\ccPoYcgE.s 			page 49


 2737 00ba 3A       		.uleb128 0x3a
 2738 00bb 0B       		.uleb128 0xb
 2739 00bc 3B       		.uleb128 0x3b
 2740 00bd 0B       		.uleb128 0xb
 2741 00be 39       		.uleb128 0x39
 2742 00bf 0B       		.uleb128 0xb
 2743 00c0 49       		.uleb128 0x49
 2744 00c1 13       		.uleb128 0x13
 2745 00c2 00       		.byte	0
 2746 00c3 00       		.byte	0
 2747 00c4 0F       		.uleb128 0xf
 2748 00c5 05       		.uleb128 0x5
 2749 00c6 00       		.byte	0
 2750 00c7 03       		.uleb128 0x3
 2751 00c8 08       		.uleb128 0x8
 2752 00c9 3A       		.uleb128 0x3a
 2753 00ca 21       		.uleb128 0x21
 2754 00cb 01       		.sleb128 1
 2755 00cc 3B       		.uleb128 0x3b
 2756 00cd 0B       		.uleb128 0xb
 2757 00ce 39       		.uleb128 0x39
 2758 00cf 0B       		.uleb128 0xb
 2759 00d0 49       		.uleb128 0x49
 2760 00d1 13       		.uleb128 0x13
 2761 00d2 02       		.uleb128 0x2
 2762 00d3 17       		.uleb128 0x17
 2763 00d4 B742     		.uleb128 0x2137
 2764 00d6 17       		.uleb128 0x17
 2765 00d7 00       		.byte	0
 2766 00d8 00       		.byte	0
 2767 00d9 10       		.uleb128 0x10
 2768 00da 05       		.uleb128 0x5
 2769 00db 00       		.byte	0
 2770 00dc 03       		.uleb128 0x3
 2771 00dd 0E       		.uleb128 0xe
 2772 00de 3A       		.uleb128 0x3a
 2773 00df 21       		.uleb128 0x21
 2774 00e0 01       		.sleb128 1
 2775 00e1 3B       		.uleb128 0x3b
 2776 00e2 0B       		.uleb128 0xb
 2777 00e3 39       		.uleb128 0x39
 2778 00e4 0B       		.uleb128 0xb
 2779 00e5 49       		.uleb128 0x49
 2780 00e6 13       		.uleb128 0x13
 2781 00e7 02       		.uleb128 0x2
 2782 00e8 17       		.uleb128 0x17
 2783 00e9 B742     		.uleb128 0x2137
 2784 00eb 17       		.uleb128 0x17
 2785 00ec 00       		.byte	0
 2786 00ed 00       		.byte	0
 2787 00ee 11       		.uleb128 0x11
 2788 00ef 26       		.uleb128 0x26
 2789 00f0 00       		.byte	0
 2790 00f1 49       		.uleb128 0x49
 2791 00f2 13       		.uleb128 0x13
 2792 00f3 00       		.byte	0
 2793 00f4 00       		.byte	0
ARM GAS  C:\Users\DEVELO~1\AppData\Local\Temp\ccPoYcgE.s 			page 50


 2794 00f5 12       		.uleb128 0x12
 2795 00f6 13       		.uleb128 0x13
 2796 00f7 01       		.byte	0x1
 2797 00f8 03       		.uleb128 0x3
 2798 00f9 0E       		.uleb128 0xe
 2799 00fa 0B       		.uleb128 0xb
 2800 00fb 0B       		.uleb128 0xb
 2801 00fc 3A       		.uleb128 0x3a
 2802 00fd 0B       		.uleb128 0xb
 2803 00fe 3B       		.uleb128 0x3b
 2804 00ff 05       		.uleb128 0x5
 2805 0100 39       		.uleb128 0x39
 2806 0101 0B       		.uleb128 0xb
 2807 0102 01       		.uleb128 0x1
 2808 0103 13       		.uleb128 0x13
 2809 0104 00       		.byte	0
 2810 0105 00       		.byte	0
 2811 0106 13       		.uleb128 0x13
 2812 0107 34       		.uleb128 0x34
 2813 0108 00       		.byte	0
 2814 0109 03       		.uleb128 0x3
 2815 010a 0E       		.uleb128 0xe
 2816 010b 3A       		.uleb128 0x3a
 2817 010c 21       		.uleb128 0x21
 2818 010d 01       		.sleb128 1
 2819 010e 3B       		.uleb128 0x3b
 2820 010f 0B       		.uleb128 0xb
 2821 0110 39       		.uleb128 0x39
 2822 0111 0B       		.uleb128 0xb
 2823 0112 49       		.uleb128 0x49
 2824 0113 13       		.uleb128 0x13
 2825 0114 02       		.uleb128 0x2
 2826 0115 17       		.uleb128 0x17
 2827 0116 B742     		.uleb128 0x2137
 2828 0118 17       		.uleb128 0x17
 2829 0119 00       		.byte	0
 2830 011a 00       		.byte	0
 2831 011b 14       		.uleb128 0x14
 2832 011c 1D       		.uleb128 0x1d
 2833 011d 01       		.byte	0x1
 2834 011e 31       		.uleb128 0x31
 2835 011f 13       		.uleb128 0x13
 2836 0120 52       		.uleb128 0x52
 2837 0121 01       		.uleb128 0x1
 2838 0122 B842     		.uleb128 0x2138
 2839 0124 0B       		.uleb128 0xb
 2840 0125 55       		.uleb128 0x55
 2841 0126 17       		.uleb128 0x17
 2842 0127 58       		.uleb128 0x58
 2843 0128 21       		.uleb128 0x21
 2844 0129 01       		.sleb128 1
 2845 012a 59       		.uleb128 0x59
 2846 012b 0B       		.uleb128 0xb
 2847 012c 57       		.uleb128 0x57
 2848 012d 21       		.uleb128 0x21
 2849 012e 03       		.sleb128 3
 2850 012f 01       		.uleb128 0x1
ARM GAS  C:\Users\DEVELO~1\AppData\Local\Temp\ccPoYcgE.s 			page 51


 2851 0130 13       		.uleb128 0x13
 2852 0131 00       		.byte	0
 2853 0132 00       		.byte	0
 2854 0133 15       		.uleb128 0x15
 2855 0134 1D       		.uleb128 0x1d
 2856 0135 01       		.byte	0x1
 2857 0136 31       		.uleb128 0x31
 2858 0137 13       		.uleb128 0x13
 2859 0138 52       		.uleb128 0x52
 2860 0139 01       		.uleb128 0x1
 2861 013a B842     		.uleb128 0x2138
 2862 013c 0B       		.uleb128 0xb
 2863 013d 55       		.uleb128 0x55
 2864 013e 17       		.uleb128 0x17
 2865 013f 58       		.uleb128 0x58
 2866 0140 0B       		.uleb128 0xb
 2867 0141 59       		.uleb128 0x59
 2868 0142 05       		.uleb128 0x5
 2869 0143 57       		.uleb128 0x57
 2870 0144 21       		.uleb128 0x21
 2871 0145 03       		.sleb128 3
 2872 0146 00       		.byte	0
 2873 0147 00       		.byte	0
 2874 0148 16       		.uleb128 0x16
 2875 0149 1D       		.uleb128 0x1d
 2876 014a 01       		.byte	0x1
 2877 014b 31       		.uleb128 0x31
 2878 014c 13       		.uleb128 0x13
 2879 014d 52       		.uleb128 0x52
 2880 014e 01       		.uleb128 0x1
 2881 014f B842     		.uleb128 0x2138
 2882 0151 0B       		.uleb128 0xb
 2883 0152 11       		.uleb128 0x11
 2884 0153 01       		.uleb128 0x1
 2885 0154 12       		.uleb128 0x12
 2886 0155 06       		.uleb128 0x6
 2887 0156 58       		.uleb128 0x58
 2888 0157 0B       		.uleb128 0xb
 2889 0158 59       		.uleb128 0x59
 2890 0159 05       		.uleb128 0x5
 2891 015a 57       		.uleb128 0x57
 2892 015b 21       		.uleb128 0x21
 2893 015c 03       		.sleb128 3
 2894 015d 00       		.byte	0
 2895 015e 00       		.byte	0
 2896 015f 17       		.uleb128 0x17
 2897 0160 48       		.uleb128 0x48
 2898 0161 01       		.byte	0x1
 2899 0162 7D       		.uleb128 0x7d
 2900 0163 01       		.uleb128 0x1
 2901 0164 7F       		.uleb128 0x7f
 2902 0165 13       		.uleb128 0x13
 2903 0166 01       		.uleb128 0x1
 2904 0167 13       		.uleb128 0x13
 2905 0168 00       		.byte	0
 2906 0169 00       		.byte	0
 2907 016a 18       		.uleb128 0x18
ARM GAS  C:\Users\DEVELO~1\AppData\Local\Temp\ccPoYcgE.s 			page 52


 2908 016b 0D       		.uleb128 0xd
 2909 016c 00       		.byte	0
 2910 016d 03       		.uleb128 0x3
 2911 016e 08       		.uleb128 0x8
 2912 016f 3A       		.uleb128 0x3a
 2913 0170 21       		.uleb128 0x21
 2914 0171 0F       		.sleb128 15
 2915 0172 3B       		.uleb128 0x3b
 2916 0173 0B       		.uleb128 0xb
 2917 0174 39       		.uleb128 0x39
 2918 0175 21       		.uleb128 0x21
 2919 0176 07       		.sleb128 7
 2920 0177 49       		.uleb128 0x49
 2921 0178 13       		.uleb128 0x13
 2922 0179 00       		.byte	0
 2923 017a 00       		.byte	0
 2924 017b 19       		.uleb128 0x19
 2925 017c 0D       		.uleb128 0xd
 2926 017d 00       		.byte	0
 2927 017e 03       		.uleb128 0x3
 2928 017f 0E       		.uleb128 0xe
 2929 0180 3A       		.uleb128 0x3a
 2930 0181 21       		.uleb128 0x21
 2931 0182 0F       		.sleb128 15
 2932 0183 3B       		.uleb128 0x3b
 2933 0184 0B       		.uleb128 0xb
 2934 0185 39       		.uleb128 0x39
 2935 0186 21       		.uleb128 0x21
 2936 0187 19       		.sleb128 25
 2937 0188 49       		.uleb128 0x49
 2938 0189 13       		.uleb128 0x13
 2939 018a 0D       		.uleb128 0xd
 2940 018b 0B       		.uleb128 0xb
 2941 018c 6B       		.uleb128 0x6b
 2942 018d 0B       		.uleb128 0xb
 2943 018e 00       		.byte	0
 2944 018f 00       		.byte	0
 2945 0190 1A       		.uleb128 0x1a
 2946 0191 01       		.uleb128 0x1
 2947 0192 01       		.byte	0x1
 2948 0193 49       		.uleb128 0x49
 2949 0194 13       		.uleb128 0x13
 2950 0195 01       		.uleb128 0x1
 2951 0196 13       		.uleb128 0x13
 2952 0197 00       		.byte	0
 2953 0198 00       		.byte	0
 2954 0199 1B       		.uleb128 0x1b
 2955 019a 21       		.uleb128 0x21
 2956 019b 00       		.byte	0
 2957 019c 49       		.uleb128 0x49
 2958 019d 13       		.uleb128 0x13
 2959 019e 2F       		.uleb128 0x2f
 2960 019f 0B       		.uleb128 0xb
 2961 01a0 00       		.byte	0
 2962 01a1 00       		.byte	0
 2963 01a2 1C       		.uleb128 0x1c
 2964 01a3 2E       		.uleb128 0x2e
ARM GAS  C:\Users\DEVELO~1\AppData\Local\Temp\ccPoYcgE.s 			page 53


 2965 01a4 01       		.byte	0x1
 2966 01a5 3F       		.uleb128 0x3f
 2967 01a6 19       		.uleb128 0x19
 2968 01a7 03       		.uleb128 0x3
 2969 01a8 0E       		.uleb128 0xe
 2970 01a9 3A       		.uleb128 0x3a
 2971 01aa 0B       		.uleb128 0xb
 2972 01ab 3B       		.uleb128 0x3b
 2973 01ac 0B       		.uleb128 0xb
 2974 01ad 39       		.uleb128 0x39
 2975 01ae 21       		.uleb128 0x21
 2976 01af 08       		.sleb128 8
 2977 01b0 27       		.uleb128 0x27
 2978 01b1 19       		.uleb128 0x19
 2979 01b2 3C       		.uleb128 0x3c
 2980 01b3 19       		.uleb128 0x19
 2981 01b4 01       		.uleb128 0x1
 2982 01b5 13       		.uleb128 0x13
 2983 01b6 00       		.byte	0
 2984 01b7 00       		.byte	0
 2985 01b8 1D       		.uleb128 0x1d
 2986 01b9 05       		.uleb128 0x5
 2987 01ba 00       		.byte	0
 2988 01bb 03       		.uleb128 0x3
 2989 01bc 0E       		.uleb128 0xe
 2990 01bd 3A       		.uleb128 0x3a
 2991 01be 0B       		.uleb128 0xb
 2992 01bf 3B       		.uleb128 0x3b
 2993 01c0 05       		.uleb128 0x5
 2994 01c1 39       		.uleb128 0x39
 2995 01c2 0B       		.uleb128 0xb
 2996 01c3 49       		.uleb128 0x49
 2997 01c4 13       		.uleb128 0x13
 2998 01c5 00       		.byte	0
 2999 01c6 00       		.byte	0
 3000 01c7 1E       		.uleb128 0x1e
 3001 01c8 2E       		.uleb128 0x2e
 3002 01c9 00       		.byte	0
 3003 01ca 03       		.uleb128 0x3
 3004 01cb 0E       		.uleb128 0xe
 3005 01cc 3A       		.uleb128 0x3a
 3006 01cd 0B       		.uleb128 0xb
 3007 01ce 3B       		.uleb128 0x3b
 3008 01cf 05       		.uleb128 0x5
 3009 01d0 39       		.uleb128 0x39
 3010 01d1 0B       		.uleb128 0xb
 3011 01d2 27       		.uleb128 0x27
 3012 01d3 19       		.uleb128 0x19
 3013 01d4 20       		.uleb128 0x20
 3014 01d5 21       		.uleb128 0x21
 3015 01d6 03       		.sleb128 3
 3016 01d7 00       		.byte	0
 3017 01d8 00       		.byte	0
 3018 01d9 1F       		.uleb128 0x1f
 3019 01da 35       		.uleb128 0x35
 3020 01db 00       		.byte	0
 3021 01dc 49       		.uleb128 0x49
ARM GAS  C:\Users\DEVELO~1\AppData\Local\Temp\ccPoYcgE.s 			page 54


 3022 01dd 13       		.uleb128 0x13
 3023 01de 00       		.byte	0
 3024 01df 00       		.byte	0
 3025 01e0 20       		.uleb128 0x20
 3026 01e1 17       		.uleb128 0x17
 3027 01e2 01       		.byte	0x1
 3028 01e3 0B       		.uleb128 0xb
 3029 01e4 0B       		.uleb128 0xb
 3030 01e5 3A       		.uleb128 0x3a
 3031 01e6 0B       		.uleb128 0xb
 3032 01e7 3B       		.uleb128 0x3b
 3033 01e8 0B       		.uleb128 0xb
 3034 01e9 39       		.uleb128 0x39
 3035 01ea 21       		.uleb128 0x21
 3036 01eb 03       		.sleb128 3
 3037 01ec 01       		.uleb128 0x1
 3038 01ed 13       		.uleb128 0x13
 3039 01ee 00       		.byte	0
 3040 01ef 00       		.byte	0
 3041 01f0 21       		.uleb128 0x21
 3042 01f1 15       		.uleb128 0x15
 3043 01f2 01       		.byte	0x1
 3044 01f3 27       		.uleb128 0x27
 3045 01f4 19       		.uleb128 0x19
 3046 01f5 01       		.uleb128 0x1
 3047 01f6 13       		.uleb128 0x13
 3048 01f7 00       		.byte	0
 3049 01f8 00       		.byte	0
 3050 01f9 22       		.uleb128 0x22
 3051 01fa 16       		.uleb128 0x16
 3052 01fb 00       		.byte	0
 3053 01fc 03       		.uleb128 0x3
 3054 01fd 0E       		.uleb128 0xe
 3055 01fe 3A       		.uleb128 0x3a
 3056 01ff 21       		.uleb128 0x21
 3057 0200 0B       		.sleb128 11
 3058 0201 3B       		.uleb128 0x3b
 3059 0202 05       		.uleb128 0x5
 3060 0203 39       		.uleb128 0x39
 3061 0204 21       		.uleb128 0x21
 3062 0205 03       		.sleb128 3
 3063 0206 49       		.uleb128 0x49
 3064 0207 13       		.uleb128 0x13
 3065 0208 00       		.byte	0
 3066 0209 00       		.byte	0
 3067 020a 23       		.uleb128 0x23
 3068 020b 15       		.uleb128 0x15
 3069 020c 01       		.byte	0x1
 3070 020d 27       		.uleb128 0x27
 3071 020e 19       		.uleb128 0x19
 3072 020f 49       		.uleb128 0x49
 3073 0210 13       		.uleb128 0x13
 3074 0211 01       		.uleb128 0x1
 3075 0212 13       		.uleb128 0x13
 3076 0213 00       		.byte	0
 3077 0214 00       		.byte	0
 3078 0215 24       		.uleb128 0x24
ARM GAS  C:\Users\DEVELO~1\AppData\Local\Temp\ccPoYcgE.s 			page 55


 3079 0216 2E       		.uleb128 0x2e
 3080 0217 01       		.byte	0x1
 3081 0218 3F       		.uleb128 0x3f
 3082 0219 19       		.uleb128 0x19
 3083 021a 03       		.uleb128 0x3
 3084 021b 0E       		.uleb128 0xe
 3085 021c 3A       		.uleb128 0x3a
 3086 021d 0B       		.uleb128 0xb
 3087 021e 3B       		.uleb128 0x3b
 3088 021f 0B       		.uleb128 0xb
 3089 0220 39       		.uleb128 0x39
 3090 0221 21       		.uleb128 0x21
 3091 0222 09       		.sleb128 9
 3092 0223 27       		.uleb128 0x27
 3093 0224 19       		.uleb128 0x19
 3094 0225 49       		.uleb128 0x49
 3095 0226 13       		.uleb128 0x13
 3096 0227 3C       		.uleb128 0x3c
 3097 0228 19       		.uleb128 0x19
 3098 0229 01       		.uleb128 0x1
 3099 022a 13       		.uleb128 0x13
 3100 022b 00       		.byte	0
 3101 022c 00       		.byte	0
 3102 022d 25       		.uleb128 0x25
 3103 022e 2E       		.uleb128 0x2e
 3104 022f 01       		.byte	0x1
 3105 0230 3F       		.uleb128 0x3f
 3106 0231 19       		.uleb128 0x19
 3107 0232 03       		.uleb128 0x3
 3108 0233 0E       		.uleb128 0xe
 3109 0234 3A       		.uleb128 0x3a
 3110 0235 21       		.uleb128 0x21
 3111 0236 01       		.sleb128 1
 3112 0237 3B       		.uleb128 0x3b
 3113 0238 0B       		.uleb128 0xb
 3114 0239 39       		.uleb128 0x39
 3115 023a 21       		.uleb128 0x21
 3116 023b 0B       		.sleb128 11
 3117 023c 27       		.uleb128 0x27
 3118 023d 19       		.uleb128 0x19
 3119 023e 49       		.uleb128 0x49
 3120 023f 13       		.uleb128 0x13
 3121 0240 11       		.uleb128 0x11
 3122 0241 01       		.uleb128 0x1
 3123 0242 12       		.uleb128 0x12
 3124 0243 06       		.uleb128 0x6
 3125 0244 40       		.uleb128 0x40
 3126 0245 18       		.uleb128 0x18
 3127 0246 7A       		.uleb128 0x7a
 3128 0247 19       		.uleb128 0x19
 3129 0248 01       		.uleb128 0x1
 3130 0249 13       		.uleb128 0x13
 3131 024a 00       		.byte	0
 3132 024b 00       		.byte	0
 3133 024c 26       		.uleb128 0x26
 3134 024d 34       		.uleb128 0x34
 3135 024e 00       		.byte	0
ARM GAS  C:\Users\DEVELO~1\AppData\Local\Temp\ccPoYcgE.s 			page 56


 3136 024f 03       		.uleb128 0x3
 3137 0250 08       		.uleb128 0x8
 3138 0251 3A       		.uleb128 0x3a
 3139 0252 21       		.uleb128 0x21
 3140 0253 01       		.sleb128 1
 3141 0254 3B       		.uleb128 0x3b
 3142 0255 0B       		.uleb128 0xb
 3143 0256 39       		.uleb128 0x39
 3144 0257 21       		.uleb128 0x21
 3145 0258 0D       		.sleb128 13
 3146 0259 49       		.uleb128 0x49
 3147 025a 13       		.uleb128 0x13
 3148 025b 02       		.uleb128 0x2
 3149 025c 17       		.uleb128 0x17
 3150 025d B742     		.uleb128 0x2137
 3151 025f 17       		.uleb128 0x17
 3152 0260 00       		.byte	0
 3153 0261 00       		.byte	0
 3154 0262 27       		.uleb128 0x27
 3155 0263 34       		.uleb128 0x34
 3156 0264 00       		.byte	0
 3157 0265 03       		.uleb128 0x3
 3158 0266 0E       		.uleb128 0xe
 3159 0267 49       		.uleb128 0x49
 3160 0268 13       		.uleb128 0x13
 3161 0269 34       		.uleb128 0x34
 3162 026a 19       		.uleb128 0x19
 3163 026b 00       		.byte	0
 3164 026c 00       		.byte	0
 3165 026d 28       		.uleb128 0x28
 3166 026e 34       		.uleb128 0x34
 3167 026f 00       		.byte	0
 3168 0270 03       		.uleb128 0x3
 3169 0271 08       		.uleb128 0x8
 3170 0272 3A       		.uleb128 0x3a
 3171 0273 21       		.uleb128 0x21
 3172 0274 01       		.sleb128 1
 3173 0275 3B       		.uleb128 0x3b
 3174 0276 0B       		.uleb128 0xb
 3175 0277 39       		.uleb128 0x39
 3176 0278 21       		.uleb128 0x21
 3177 0279 17       		.sleb128 23
 3178 027a 49       		.uleb128 0x49
 3179 027b 13       		.uleb128 0x13
 3180 027c 02       		.uleb128 0x2
 3181 027d 18       		.uleb128 0x18
 3182 027e 00       		.byte	0
 3183 027f 00       		.byte	0
 3184 0280 29       		.uleb128 0x29
 3185 0281 05       		.uleb128 0x5
 3186 0282 00       		.byte	0
 3187 0283 31       		.uleb128 0x31
 3188 0284 13       		.uleb128 0x13
 3189 0285 00       		.byte	0
 3190 0286 00       		.byte	0
 3191 0287 2A       		.uleb128 0x2a
 3192 0288 1D       		.uleb128 0x1d
ARM GAS  C:\Users\DEVELO~1\AppData\Local\Temp\ccPoYcgE.s 			page 57


 3193 0289 01       		.byte	0x1
 3194 028a 31       		.uleb128 0x31
 3195 028b 13       		.uleb128 0x13
 3196 028c 52       		.uleb128 0x52
 3197 028d 01       		.uleb128 0x1
 3198 028e B842     		.uleb128 0x2138
 3199 0290 0B       		.uleb128 0xb
 3200 0291 11       		.uleb128 0x11
 3201 0292 01       		.uleb128 0x1
 3202 0293 12       		.uleb128 0x12
 3203 0294 06       		.uleb128 0x6
 3204 0295 58       		.uleb128 0x58
 3205 0296 21       		.uleb128 0x21
 3206 0297 01       		.sleb128 1
 3207 0298 59       		.uleb128 0x59
 3208 0299 0B       		.uleb128 0xb
 3209 029a 57       		.uleb128 0x57
 3210 029b 21       		.uleb128 0x21
 3211 029c 03       		.sleb128 3
 3212 029d 01       		.uleb128 0x1
 3213 029e 13       		.uleb128 0x13
 3214 029f 00       		.byte	0
 3215 02a0 00       		.byte	0
 3216 02a1 2B       		.uleb128 0x2b
 3217 02a2 48       		.uleb128 0x48
 3218 02a3 01       		.byte	0x1
 3219 02a4 7D       		.uleb128 0x7d
 3220 02a5 01       		.uleb128 0x1
 3221 02a6 7F       		.uleb128 0x7f
 3222 02a7 13       		.uleb128 0x13
 3223 02a8 00       		.byte	0
 3224 02a9 00       		.byte	0
 3225 02aa 2C       		.uleb128 0x2c
 3226 02ab 2E       		.uleb128 0x2e
 3227 02ac 01       		.byte	0x1
 3228 02ad 03       		.uleb128 0x3
 3229 02ae 0E       		.uleb128 0xe
 3230 02af 3A       		.uleb128 0x3a
 3231 02b0 21       		.uleb128 0x21
 3232 02b1 01       		.sleb128 1
 3233 02b2 3B       		.uleb128 0x3b
 3234 02b3 0B       		.uleb128 0xb
 3235 02b4 39       		.uleb128 0x39
 3236 02b5 21       		.uleb128 0x21
 3237 02b6 0D       		.sleb128 13
 3238 02b7 27       		.uleb128 0x27
 3239 02b8 19       		.uleb128 0x19
 3240 02b9 11       		.uleb128 0x11
 3241 02ba 01       		.uleb128 0x1
 3242 02bb 12       		.uleb128 0x12
 3243 02bc 06       		.uleb128 0x6
 3244 02bd 40       		.uleb128 0x40
 3245 02be 18       		.uleb128 0x18
 3246 02bf 7A       		.uleb128 0x7a
 3247 02c0 19       		.uleb128 0x19
 3248 02c1 01       		.uleb128 0x1
 3249 02c2 13       		.uleb128 0x13
ARM GAS  C:\Users\DEVELO~1\AppData\Local\Temp\ccPoYcgE.s 			page 58


 3250 02c3 00       		.byte	0
 3251 02c4 00       		.byte	0
 3252 02c5 2D       		.uleb128 0x2d
 3253 02c6 48       		.uleb128 0x48
 3254 02c7 00       		.byte	0
 3255 02c8 7D       		.uleb128 0x7d
 3256 02c9 01       		.uleb128 0x1
 3257 02ca 8201     		.uleb128 0x82
 3258 02cc 19       		.uleb128 0x19
 3259 02cd 7F       		.uleb128 0x7f
 3260 02ce 13       		.uleb128 0x13
 3261 02cf 00       		.byte	0
 3262 02d0 00       		.byte	0
 3263 02d1 2E       		.uleb128 0x2e
 3264 02d2 2E       		.uleb128 0x2e
 3265 02d3 01       		.byte	0x1
 3266 02d4 03       		.uleb128 0x3
 3267 02d5 0E       		.uleb128 0xe
 3268 02d6 3A       		.uleb128 0x3a
 3269 02d7 0B       		.uleb128 0xb
 3270 02d8 3B       		.uleb128 0x3b
 3271 02d9 05       		.uleb128 0x5
 3272 02da 39       		.uleb128 0x39
 3273 02db 21       		.uleb128 0x21
 3274 02dc 14       		.sleb128 20
 3275 02dd 27       		.uleb128 0x27
 3276 02de 19       		.uleb128 0x19
 3277 02df 20       		.uleb128 0x20
 3278 02e0 21       		.uleb128 0x21
 3279 02e1 03       		.sleb128 3
 3280 02e2 01       		.uleb128 0x1
 3281 02e3 13       		.uleb128 0x13
 3282 02e4 00       		.byte	0
 3283 02e5 00       		.byte	0
 3284 02e6 2F       		.uleb128 0x2f
 3285 02e7 11       		.uleb128 0x11
 3286 02e8 01       		.byte	0x1
 3287 02e9 25       		.uleb128 0x25
 3288 02ea 0E       		.uleb128 0xe
 3289 02eb 13       		.uleb128 0x13
 3290 02ec 0B       		.uleb128 0xb
 3291 02ed 03       		.uleb128 0x3
 3292 02ee 0E       		.uleb128 0xe
 3293 02ef 1B       		.uleb128 0x1b
 3294 02f0 0E       		.uleb128 0xe
 3295 02f1 55       		.uleb128 0x55
 3296 02f2 17       		.uleb128 0x17
 3297 02f3 11       		.uleb128 0x11
 3298 02f4 01       		.uleb128 0x1
 3299 02f5 10       		.uleb128 0x10
 3300 02f6 17       		.uleb128 0x17
 3301 02f7 00       		.byte	0
 3302 02f8 00       		.byte	0
 3303 02f9 30       		.uleb128 0x30
 3304 02fa 24       		.uleb128 0x24
 3305 02fb 00       		.byte	0
 3306 02fc 0B       		.uleb128 0xb
ARM GAS  C:\Users\DEVELO~1\AppData\Local\Temp\ccPoYcgE.s 			page 59


 3307 02fd 0B       		.uleb128 0xb
 3308 02fe 3E       		.uleb128 0x3e
 3309 02ff 0B       		.uleb128 0xb
 3310 0300 03       		.uleb128 0x3
 3311 0301 08       		.uleb128 0x8
 3312 0302 00       		.byte	0
 3313 0303 00       		.byte	0
 3314 0304 31       		.uleb128 0x31
 3315 0305 13       		.uleb128 0x13
 3316 0306 01       		.byte	0x1
 3317 0307 03       		.uleb128 0x3
 3318 0308 0E       		.uleb128 0xe
 3319 0309 0B       		.uleb128 0xb
 3320 030a 05       		.uleb128 0x5
 3321 030b 3A       		.uleb128 0x3a
 3322 030c 0B       		.uleb128 0xb
 3323 030d 3B       		.uleb128 0x3b
 3324 030e 05       		.uleb128 0x5
 3325 030f 39       		.uleb128 0x39
 3326 0310 0B       		.uleb128 0xb
 3327 0311 01       		.uleb128 0x1
 3328 0312 13       		.uleb128 0x13
 3329 0313 00       		.byte	0
 3330 0314 00       		.byte	0
 3331 0315 32       		.uleb128 0x32
 3332 0316 0F       		.uleb128 0xf
 3333 0317 00       		.byte	0
 3334 0318 0B       		.uleb128 0xb
 3335 0319 0B       		.uleb128 0xb
 3336 031a 00       		.byte	0
 3337 031b 00       		.byte	0
 3338 031c 33       		.uleb128 0x33
 3339 031d 13       		.uleb128 0x13
 3340 031e 01       		.byte	0x1
 3341 031f 0B       		.uleb128 0xb
 3342 0320 05       		.uleb128 0x5
 3343 0321 3A       		.uleb128 0x3a
 3344 0322 0B       		.uleb128 0xb
 3345 0323 3B       		.uleb128 0x3b
 3346 0324 0B       		.uleb128 0xb
 3347 0325 39       		.uleb128 0x39
 3348 0326 0B       		.uleb128 0xb
 3349 0327 01       		.uleb128 0x1
 3350 0328 13       		.uleb128 0x13
 3351 0329 00       		.byte	0
 3352 032a 00       		.byte	0
 3353 032b 34       		.uleb128 0x34
 3354 032c 17       		.uleb128 0x17
 3355 032d 01       		.byte	0x1
 3356 032e 0B       		.uleb128 0xb
 3357 032f 0B       		.uleb128 0xb
 3358 0330 3A       		.uleb128 0x3a
 3359 0331 0B       		.uleb128 0xb
 3360 0332 3B       		.uleb128 0x3b
 3361 0333 05       		.uleb128 0x5
 3362 0334 39       		.uleb128 0x39
 3363 0335 0B       		.uleb128 0xb
ARM GAS  C:\Users\DEVELO~1\AppData\Local\Temp\ccPoYcgE.s 			page 60


 3364 0336 01       		.uleb128 0x1
 3365 0337 13       		.uleb128 0x13
 3366 0338 00       		.byte	0
 3367 0339 00       		.byte	0
 3368 033a 35       		.uleb128 0x35
 3369 033b 17       		.uleb128 0x17
 3370 033c 01       		.byte	0x1
 3371 033d 03       		.uleb128 0x3
 3372 033e 0E       		.uleb128 0xe
 3373 033f 0B       		.uleb128 0xb
 3374 0340 0B       		.uleb128 0xb
 3375 0341 3A       		.uleb128 0x3a
 3376 0342 0B       		.uleb128 0xb
 3377 0343 3B       		.uleb128 0x3b
 3378 0344 0B       		.uleb128 0xb
 3379 0345 39       		.uleb128 0x39
 3380 0346 0B       		.uleb128 0xb
 3381 0347 01       		.uleb128 0x1
 3382 0348 13       		.uleb128 0x13
 3383 0349 00       		.byte	0
 3384 034a 00       		.byte	0
 3385 034b 36       		.uleb128 0x36
 3386 034c 2E       		.uleb128 0x2e
 3387 034d 01       		.byte	0x1
 3388 034e 3F       		.uleb128 0x3f
 3389 034f 19       		.uleb128 0x19
 3390 0350 03       		.uleb128 0x3
 3391 0351 0E       		.uleb128 0xe
 3392 0352 3A       		.uleb128 0x3a
 3393 0353 0B       		.uleb128 0xb
 3394 0354 3B       		.uleb128 0x3b
 3395 0355 05       		.uleb128 0x5
 3396 0356 39       		.uleb128 0x39
 3397 0357 0B       		.uleb128 0xb
 3398 0358 27       		.uleb128 0x27
 3399 0359 19       		.uleb128 0x19
 3400 035a 49       		.uleb128 0x49
 3401 035b 13       		.uleb128 0x13
 3402 035c 3C       		.uleb128 0x3c
 3403 035d 19       		.uleb128 0x19
 3404 035e 01       		.uleb128 0x1
 3405 035f 13       		.uleb128 0x13
 3406 0360 00       		.byte	0
 3407 0361 00       		.byte	0
 3408 0362 37       		.uleb128 0x37
 3409 0363 05       		.uleb128 0x5
 3410 0364 00       		.byte	0
 3411 0365 03       		.uleb128 0x3
 3412 0366 08       		.uleb128 0x8
 3413 0367 3A       		.uleb128 0x3a
 3414 0368 0B       		.uleb128 0xb
 3415 0369 3B       		.uleb128 0x3b
 3416 036a 05       		.uleb128 0x5
 3417 036b 39       		.uleb128 0x39
 3418 036c 0B       		.uleb128 0xb
 3419 036d 49       		.uleb128 0x49
 3420 036e 13       		.uleb128 0x13
ARM GAS  C:\Users\DEVELO~1\AppData\Local\Temp\ccPoYcgE.s 			page 61


 3421 036f 00       		.byte	0
 3422 0370 00       		.byte	0
 3423 0371 38       		.uleb128 0x38
 3424 0372 2E       		.uleb128 0x2e
 3425 0373 01       		.byte	0x1
 3426 0374 03       		.uleb128 0x3
 3427 0375 0E       		.uleb128 0xe
 3428 0376 3A       		.uleb128 0x3a
 3429 0377 0B       		.uleb128 0xb
 3430 0378 3B       		.uleb128 0x3b
 3431 0379 05       		.uleb128 0x5
 3432 037a 39       		.uleb128 0x39
 3433 037b 0B       		.uleb128 0xb
 3434 037c 27       		.uleb128 0x27
 3435 037d 19       		.uleb128 0x19
 3436 037e 20       		.uleb128 0x20
 3437 037f 0B       		.uleb128 0xb
 3438 0380 00       		.byte	0
 3439 0381 00       		.byte	0
 3440 0382 00       		.byte	0
 3441              		.section	.debug_loclists,"",%progbits
 3442 0000 45020000 		.4byte	.Ldebug_loc3-.Ldebug_loc2
 3443              	.Ldebug_loc2:
 3444 0004 0500     		.2byte	0x5
 3445 0006 04       		.byte	0x4
 3446 0007 00       		.byte	0
 3447 0008 00000000 		.4byte	0
 3448              	.Ldebug_loc0:
 3449              	.LVUS17:
 3450 000c 00       		.uleb128 0
 3451 000d 00       		.uleb128 .LVU71
 3452 000e 00       		.uleb128 .LVU71
 3453 000f 00       		.uleb128 .LVU120
 3454 0010 00       		.uleb128 .LVU120
 3455 0011 00       		.uleb128 0
 3456              	.LLST17:
 3457 0012 06       		.byte	0x6
 3458 0013 00000000 		.4byte	.LVL20
 3459 0017 04       		.byte	0x4
 3460 0018 00       		.uleb128 .LVL20-.LVL20
 3461 0019 11       		.uleb128 .LVL21-1-.LVL20
 3462 001a 01       		.uleb128 0x1
 3463 001b 50       		.byte	0x50
 3464 001c 04       		.byte	0x4
 3465 001d 11       		.uleb128 .LVL21-1-.LVL20
 3466 001e 56       		.uleb128 .LVL30-.LVL20
 3467 001f 01       		.uleb128 0x1
 3468 0020 55       		.byte	0x55
 3469 0021 04       		.byte	0x4
 3470 0022 56       		.uleb128 .LVL30-.LVL20
 3471 0023 5C       		.uleb128 .LFE355-.LVL20
 3472 0024 04       		.uleb128 0x4
 3473 0025 A3       		.byte	0xa3
 3474 0026 01       		.uleb128 0x1
 3475 0027 50       		.byte	0x50
 3476 0028 9F       		.byte	0x9f
 3477 0029 00       		.byte	0
ARM GAS  C:\Users\DEVELO~1\AppData\Local\Temp\ccPoYcgE.s 			page 62


 3478              	.LVUS18:
 3479 002a 00       		.uleb128 0
 3480 002b 00       		.uleb128 .LVU71
 3481 002c 00       		.uleb128 .LVU71
 3482 002d 00       		.uleb128 .LVU86
 3483 002e 00       		.uleb128 .LVU86
 3484 002f 00       		.uleb128 .LVU93
 3485 0030 00       		.uleb128 .LVU93
 3486 0031 00       		.uleb128 .LVU94
 3487 0032 00       		.uleb128 .LVU94
 3488 0033 00       		.uleb128 0
 3489              	.LLST18:
 3490 0034 06       		.byte	0x6
 3491 0035 00000000 		.4byte	.LVL20
 3492 0039 04       		.byte	0x4
 3493 003a 00       		.uleb128 .LVL20-.LVL20
 3494 003b 11       		.uleb128 .LVL21-1-.LVL20
 3495 003c 01       		.uleb128 0x1
 3496 003d 51       		.byte	0x51
 3497 003e 04       		.byte	0x4
 3498 003f 11       		.uleb128 .LVL21-1-.LVL20
 3499 0040 24       		.uleb128 .LVL23-.LVL20
 3500 0041 01       		.uleb128 0x1
 3501 0042 58       		.byte	0x58
 3502 0043 04       		.byte	0x4
 3503 0044 24       		.uleb128 .LVL23-.LVL20
 3504 0045 38       		.uleb128 .LVL25-.LVL20
 3505 0046 02       		.uleb128 0x2
 3506 0047 91       		.byte	0x91
 3507 0048 4C       		.sleb128 -52
 3508 0049 04       		.byte	0x4
 3509 004a 38       		.uleb128 .LVL25-.LVL20
 3510 004b 3B       		.uleb128 .LVL26-1-.LVL20
 3511 004c 02       		.uleb128 0x2
 3512 004d 70       		.byte	0x70
 3513 004e 00       		.sleb128 0
 3514 004f 04       		.byte	0x4
 3515 0050 3B       		.uleb128 .LVL26-1-.LVL20
 3516 0051 5C       		.uleb128 .LFE355-.LVL20
 3517 0052 04       		.uleb128 0x4
 3518 0053 A3       		.byte	0xa3
 3519 0054 01       		.uleb128 0x1
 3520 0055 51       		.byte	0x51
 3521 0056 9F       		.byte	0x9f
 3522 0057 00       		.byte	0
 3523              	.LVUS19:
 3524 0058 00       		.uleb128 0
 3525 0059 00       		.uleb128 .LVU71
 3526 005a 00       		.uleb128 .LVU71
 3527 005b 00       		.uleb128 .LVU120
 3528 005c 00       		.uleb128 .LVU120
 3529 005d 00       		.uleb128 0
 3530              	.LLST19:
 3531 005e 06       		.byte	0x6
 3532 005f 00000000 		.4byte	.LVL20
 3533 0063 04       		.byte	0x4
 3534 0064 00       		.uleb128 .LVL20-.LVL20
ARM GAS  C:\Users\DEVELO~1\AppData\Local\Temp\ccPoYcgE.s 			page 63


 3535 0065 11       		.uleb128 .LVL21-1-.LVL20
 3536 0066 01       		.uleb128 0x1
 3537 0067 52       		.byte	0x52
 3538 0068 04       		.byte	0x4
 3539 0069 11       		.uleb128 .LVL21-1-.LVL20
 3540 006a 56       		.uleb128 .LVL30-.LVL20
 3541 006b 01       		.uleb128 0x1
 3542 006c 57       		.byte	0x57
 3543 006d 04       		.byte	0x4
 3544 006e 56       		.uleb128 .LVL30-.LVL20
 3545 006f 5C       		.uleb128 .LFE355-.LVL20
 3546 0070 04       		.uleb128 0x4
 3547 0071 A3       		.byte	0xa3
 3548 0072 01       		.uleb128 0x1
 3549 0073 52       		.byte	0x52
 3550 0074 9F       		.byte	0x9f
 3551 0075 00       		.byte	0
 3552              	.LVUS20:
 3553 0076 00       		.uleb128 0
 3554 0077 00       		.uleb128 .LVU71
 3555 0078 00       		.uleb128 .LVU71
 3556 0079 00       		.uleb128 .LVU120
 3557 007a 00       		.uleb128 .LVU120
 3558 007b 00       		.uleb128 0
 3559              	.LLST20:
 3560 007c 06       		.byte	0x6
 3561 007d 00000000 		.4byte	.LVL20
 3562 0081 04       		.byte	0x4
 3563 0082 00       		.uleb128 .LVL20-.LVL20
 3564 0083 11       		.uleb128 .LVL21-1-.LVL20
 3565 0084 01       		.uleb128 0x1
 3566 0085 53       		.byte	0x53
 3567 0086 04       		.byte	0x4
 3568 0087 11       		.uleb128 .LVL21-1-.LVL20
 3569 0088 56       		.uleb128 .LVL30-.LVL20
 3570 0089 01       		.uleb128 0x1
 3571 008a 56       		.byte	0x56
 3572 008b 04       		.byte	0x4
 3573 008c 56       		.uleb128 .LVL30-.LVL20
 3574 008d 5C       		.uleb128 .LFE355-.LVL20
 3575 008e 04       		.uleb128 0x4
 3576 008f A3       		.byte	0xa3
 3577 0090 01       		.uleb128 0x1
 3578 0091 53       		.byte	0x53
 3579 0092 9F       		.byte	0x9f
 3580 0093 00       		.byte	0
 3581              	.LVUS21:
 3582 0094 00       		.uleb128 0
 3583 0095 00       		.uleb128 .LVU120
 3584 0096 00       		.uleb128 .LVU120
 3585 0097 00       		.uleb128 0
 3586              	.LLST21:
 3587 0098 06       		.byte	0x6
 3588 0099 00000000 		.4byte	.LVL20
 3589 009d 04       		.byte	0x4
 3590 009e 00       		.uleb128 .LVL20-.LVL20
 3591 009f 56       		.uleb128 .LVL30-.LVL20
ARM GAS  C:\Users\DEVELO~1\AppData\Local\Temp\ccPoYcgE.s 			page 64


 3592 00a0 02       		.uleb128 0x2
 3593 00a1 91       		.byte	0x91
 3594 00a2 00       		.sleb128 0
 3595 00a3 04       		.byte	0x4
 3596 00a4 56       		.uleb128 .LVL30-.LVL20
 3597 00a5 5C       		.uleb128 .LFE355-.LVL20
 3598 00a6 02       		.uleb128 0x2
 3599 00a7 7D       		.byte	0x7d
 3600 00a8 00       		.sleb128 0
 3601 00a9 00       		.byte	0
 3602              	.LVUS22:
 3603 00aa 00       		.uleb128 .LVU99
 3604 00ab 00       		.uleb128 .LVU105
 3605 00ac 00       		.uleb128 .LVU105
 3606 00ad 02       		.uleb128 .LVU119
 3607              	.LLST22:
 3608 00ae 06       		.byte	0x6
 3609 00af 46000000 		.4byte	.LVL27
 3610 00b3 04       		.byte	0x4
 3611 00b4 00       		.uleb128 .LVL27-.LVL27
 3612 00b5 03       		.uleb128 .LVL28-1-.LVL27
 3613 00b6 01       		.uleb128 0x1
 3614 00b7 50       		.byte	0x50
 3615 00b8 04       		.byte	0x4
 3616 00b9 03       		.uleb128 .LVL28-1-.LVL27
 3617 00ba 08       		.uleb128 .LVL29-.LVL27
 3618 00bb 01       		.uleb128 0x1
 3619 00bc 54       		.byte	0x54
 3620 00bd 00       		.byte	0
 3621              	.LVUS23:
 3622 00be 00       		.uleb128 .LVU71
 3623 00bf 00       		.uleb128 .LVU93
 3624 00c0 00       		.uleb128 .LVU93
 3625 00c1 00       		.uleb128 .LVU94
 3626              	.LLST23:
 3627 00c2 06       		.byte	0x6
 3628 00c3 12000000 		.4byte	.LVL21
 3629 00c7 04       		.byte	0x4
 3630 00c8 00       		.uleb128 .LVL21-.LVL21
 3631 00c9 26       		.uleb128 .LVL25-.LVL21
 3632 00ca 01       		.uleb128 0x1
 3633 00cb 50       		.byte	0x50
 3634 00cc 04       		.byte	0x4
 3635 00cd 26       		.uleb128 .LVL25-.LVL21
 3636 00ce 29       		.uleb128 .LVL26-1-.LVL21
 3637 00cf 02       		.uleb128 0x2
 3638 00d0 91       		.byte	0x91
 3639 00d1 50       		.sleb128 -48
 3640 00d2 00       		.byte	0
 3641              	.LVUS24:
 3642 00d3 00       		.uleb128 .LVU77
 3643 00d4 00       		.uleb128 .LVU99
 3644              	.LLST24:
 3645 00d5 08       		.byte	0x8
 3646 00d6 1C000000 		.4byte	.LVL22
 3647 00da 2A       		.uleb128 .LVL27-.LVL22
 3648 00db 01       		.uleb128 0x1
ARM GAS  C:\Users\DEVELO~1\AppData\Local\Temp\ccPoYcgE.s 			page 65


 3649 00dc 54       		.byte	0x54
 3650 00dd 00       		.byte	0
 3651              	.LVUS26:
 3652 00de 06       		.uleb128 .LVU83
 3653 00df 00       		.uleb128 .LVU88
 3654              	.LLST26:
 3655 00e0 08       		.byte	0x8
 3656 00e1 1C000000 		.4byte	.LVL22
 3657 00e5 1A       		.uleb128 .LVL24-.LVL22
 3658 00e6 03       		.uleb128 0x3
 3659 00e7 08       		.byte	0x8
 3660 00e8 30       		.byte	0x30
 3661 00e9 9F       		.byte	0x9f
 3662 00ea 00       		.byte	0
 3663              	.LVUS28:
 3664 00eb 01       		.uleb128 .LVU100
 3665 00ec 04       		.uleb128 .LVU103
 3666              	.LLST28:
 3667 00ed 08       		.byte	0x8
 3668 00ee 46000000 		.4byte	.LVL27
 3669 00f2 00       		.uleb128 .LVL27-.LVL27
 3670 00f3 01       		.uleb128 0x1
 3671 00f4 55       		.byte	0x55
 3672 00f5 00       		.byte	0
 3673              	.LVUS29:
 3674 00f6 01       		.uleb128 .LVU100
 3675 00f7 04       		.uleb128 .LVU103
 3676              	.LLST29:
 3677 00f8 08       		.byte	0x8
 3678 00f9 46000000 		.4byte	.LVL27
 3679 00fd 00       		.uleb128 .LVL27-.LVL27
 3680 00fe 01       		.uleb128 0x1
 3681 00ff 50       		.byte	0x50
 3682 0100 00       		.byte	0
 3683              	.LVUS30:
 3684 0101 0A       		.uleb128 .LVU115
 3685 0102 00       		.uleb128 .LVU117
 3686              	.LLST30:
 3687 0103 08       		.byte	0x8
 3688 0104 4A000000 		.4byte	.LVL28
 3689 0108 04       		.uleb128 .LVL29-.LVL28
 3690 0109 02       		.uleb128 0x2
 3691 010a 30       		.byte	0x30
 3692 010b 9F       		.byte	0x9f
 3693 010c 00       		.byte	0
 3694              	.LVUS2:
 3695 010d 00       		.uleb128 0
 3696 010e 00       		.uleb128 .LVU14
 3697 010f 00       		.uleb128 .LVU14
 3698 0110 00       		.uleb128 0
 3699              	.LLST2:
 3700 0111 06       		.byte	0x6
 3701 0112 00000000 		.4byte	.LVL6
 3702 0116 04       		.byte	0x4
 3703 0117 00       		.uleb128 .LVL6-.LVL6
 3704 0118 11       		.uleb128 .LVL8-1-.LVL6
 3705 0119 01       		.uleb128 0x1
ARM GAS  C:\Users\DEVELO~1\AppData\Local\Temp\ccPoYcgE.s 			page 66


 3706 011a 50       		.byte	0x50
 3707 011b 04       		.byte	0x4
 3708 011c 11       		.uleb128 .LVL8-1-.LVL6
 3709 011d 58       		.uleb128 .LFE354-.LVL6
 3710 011e 04       		.uleb128 0x4
 3711 011f A3       		.byte	0xa3
 3712 0120 01       		.uleb128 0x1
 3713 0121 50       		.byte	0x50
 3714 0122 9F       		.byte	0x9f
 3715 0123 00       		.byte	0
 3716              	.LVUS3:
 3717 0124 00       		.uleb128 0
 3718 0125 00       		.uleb128 .LVU14
 3719 0126 00       		.uleb128 .LVU14
 3720 0127 00       		.uleb128 .LVU20
 3721 0128 00       		.uleb128 .LVU20
 3722 0129 00       		.uleb128 0
 3723              	.LLST3:
 3724 012a 06       		.byte	0x6
 3725 012b 00000000 		.4byte	.LVL6
 3726 012f 04       		.byte	0x4
 3727 0130 00       		.uleb128 .LVL6-.LVL6
 3728 0131 11       		.uleb128 .LVL8-1-.LVL6
 3729 0132 01       		.uleb128 0x1
 3730 0133 51       		.byte	0x51
 3731 0134 04       		.byte	0x4
 3732 0135 11       		.uleb128 .LVL8-1-.LVL6
 3733 0136 1A       		.uleb128 .LVL10-.LVL6
 3734 0137 01       		.uleb128 0x1
 3735 0138 55       		.byte	0x55
 3736 0139 04       		.byte	0x4
 3737 013a 1A       		.uleb128 .LVL10-.LVL6
 3738 013b 58       		.uleb128 .LFE354-.LVL6
 3739 013c 04       		.uleb128 0x4
 3740 013d A3       		.byte	0xa3
 3741 013e 01       		.uleb128 0x1
 3742 013f 51       		.byte	0x51
 3743 0140 9F       		.byte	0x9f
 3744 0141 00       		.byte	0
 3745              	.LVUS4:
 3746 0142 00       		.uleb128 0
 3747 0143 00       		.uleb128 .LVU12
 3748 0144 00       		.uleb128 .LVU12
 3749 0145 00       		.uleb128 .LVU60
 3750 0146 00       		.uleb128 .LVU60
 3751 0147 00       		.uleb128 0
 3752              	.LLST4:
 3753 0148 06       		.byte	0x6
 3754 0149 00000000 		.4byte	.LVL6
 3755 014d 04       		.byte	0x4
 3756 014e 00       		.uleb128 .LVL6-.LVL6
 3757 014f 0A       		.uleb128 .LVL7-.LVL6
 3758 0150 01       		.uleb128 0x1
 3759 0151 52       		.byte	0x52
 3760 0152 04       		.byte	0x4
 3761 0153 0A       		.uleb128 .LVL7-.LVL6
 3762 0154 52       		.uleb128 .LVL19-.LVL6
ARM GAS  C:\Users\DEVELO~1\AppData\Local\Temp\ccPoYcgE.s 			page 67


 3763 0155 01       		.uleb128 0x1
 3764 0156 58       		.byte	0x58
 3765 0157 04       		.byte	0x4
 3766 0158 52       		.uleb128 .LVL19-.LVL6
 3767 0159 58       		.uleb128 .LFE354-.LVL6
 3768 015a 04       		.uleb128 0x4
 3769 015b A3       		.byte	0xa3
 3770 015c 01       		.uleb128 0x1
 3771 015d 52       		.byte	0x52
 3772 015e 9F       		.byte	0x9f
 3773 015f 00       		.byte	0
 3774              	.LVUS5:
 3775 0160 00       		.uleb128 0
 3776 0161 00       		.uleb128 .LVU14
 3777 0162 00       		.uleb128 .LVU14
 3778 0163 00       		.uleb128 .LVU60
 3779 0164 00       		.uleb128 .LVU60
 3780 0165 00       		.uleb128 0
 3781              	.LLST5:
 3782 0166 06       		.byte	0x6
 3783 0167 00000000 		.4byte	.LVL6
 3784 016b 04       		.byte	0x4
 3785 016c 00       		.uleb128 .LVL6-.LVL6
 3786 016d 11       		.uleb128 .LVL8-1-.LVL6
 3787 016e 01       		.uleb128 0x1
 3788 016f 53       		.byte	0x53
 3789 0170 04       		.byte	0x4
 3790 0171 11       		.uleb128 .LVL8-1-.LVL6
 3791 0172 52       		.uleb128 .LVL19-.LVL6
 3792 0173 01       		.uleb128 0x1
 3793 0174 57       		.byte	0x57
 3794 0175 04       		.byte	0x4
 3795 0176 52       		.uleb128 .LVL19-.LVL6
 3796 0177 58       		.uleb128 .LFE354-.LVL6
 3797 0178 04       		.uleb128 0x4
 3798 0179 A3       		.byte	0xa3
 3799 017a 01       		.uleb128 0x1
 3800 017b 53       		.byte	0x53
 3801 017c 9F       		.byte	0x9f
 3802 017d 00       		.byte	0
 3803              	.LVUS6:
 3804 017e 00       		.uleb128 0
 3805 017f 00       		.uleb128 .LVU60
 3806 0180 00       		.uleb128 .LVU60
 3807 0181 00       		.uleb128 0
 3808              	.LLST6:
 3809 0182 06       		.byte	0x6
 3810 0183 00000000 		.4byte	.LVL6
 3811 0187 04       		.byte	0x4
 3812 0188 00       		.uleb128 .LVL6-.LVL6
 3813 0189 52       		.uleb128 .LVL19-.LVL6
 3814 018a 02       		.uleb128 0x2
 3815 018b 91       		.byte	0x91
 3816 018c 00       		.sleb128 0
 3817 018d 04       		.byte	0x4
 3818 018e 52       		.uleb128 .LVL19-.LVL6
 3819 018f 58       		.uleb128 .LFE354-.LVL6
ARM GAS  C:\Users\DEVELO~1\AppData\Local\Temp\ccPoYcgE.s 			page 68


 3820 0190 02       		.uleb128 0x2
 3821 0191 7D       		.byte	0x7d
 3822 0192 00       		.sleb128 0
 3823 0193 00       		.byte	0
 3824              	.LVUS7:
 3825 0194 00       		.uleb128 0
 3826 0195 00       		.uleb128 .LVU60
 3827 0196 00       		.uleb128 .LVU60
 3828 0197 00       		.uleb128 0
 3829              	.LLST7:
 3830 0198 06       		.byte	0x6
 3831 0199 00000000 		.4byte	.LVL6
 3832 019d 04       		.byte	0x4
 3833 019e 00       		.uleb128 .LVL6-.LVL6
 3834 019f 52       		.uleb128 .LVL19-.LVL6
 3835 01a0 02       		.uleb128 0x2
 3836 01a1 91       		.byte	0x91
 3837 01a2 04       		.sleb128 4
 3838 01a3 04       		.byte	0x4
 3839 01a4 52       		.uleb128 .LVL19-.LVL6
 3840 01a5 58       		.uleb128 .LFE354-.LVL6
 3841 01a6 02       		.uleb128 0x2
 3842 01a7 7D       		.byte	0x7d
 3843 01a8 04       		.sleb128 4
 3844 01a9 00       		.byte	0
 3845              	.LVUS8:
 3846 01aa 00       		.uleb128 .LVU39
 3847 01ab 00       		.uleb128 .LVU45
 3848 01ac 00       		.uleb128 .LVU45
 3849 01ad 02       		.uleb128 .LVU59
 3850              	.LLST8:
 3851 01ae 06       		.byte	0x6
 3852 01af 3E000000 		.4byte	.LVL15
 3853 01b3 04       		.byte	0x4
 3854 01b4 00       		.uleb128 .LVL15-.LVL15
 3855 01b5 07       		.uleb128 .LVL17-1-.LVL15
 3856 01b6 01       		.uleb128 0x1
 3857 01b7 50       		.byte	0x50
 3858 01b8 04       		.byte	0x4
 3859 01b9 07       		.uleb128 .LVL17-1-.LVL15
 3860 01ba 0C       		.uleb128 .LVL18-.LVL15
 3861 01bb 01       		.uleb128 0x1
 3862 01bc 54       		.byte	0x54
 3863 01bd 00       		.byte	0
 3864              	.LVUS9:
 3865 01be 00       		.uleb128 .LVU14
 3866 01bf 00       		.uleb128 .LVU35
 3867 01c0 00       		.uleb128 .LVU35
 3868 01c1 00       		.uleb128 .LVU39
 3869              	.LLST9:
 3870 01c2 06       		.byte	0x6
 3871 01c3 12000000 		.4byte	.LVL8
 3872 01c7 04       		.byte	0x4
 3873 01c8 00       		.uleb128 .LVL8-.LVL8
 3874 01c9 22       		.uleb128 .LVL13-.LVL8
 3875 01ca 01       		.uleb128 0x1
 3876 01cb 50       		.byte	0x50
ARM GAS  C:\Users\DEVELO~1\AppData\Local\Temp\ccPoYcgE.s 			page 69


 3877 01cc 04       		.byte	0x4
 3878 01cd 22       		.uleb128 .LVL13-.LVL8
 3879 01ce 2C       		.uleb128 .LVL15-.LVL8
 3880 01cf 01       		.uleb128 0x1
 3881 01d0 54       		.byte	0x54
 3882 01d1 00       		.byte	0
 3883              	.LVUS10:
 3884 01d2 01       		.uleb128 .LVU17
 3885 01d3 00       		.uleb128 .LVU20
 3886 01d4 00       		.uleb128 .LVU20
 3887 01d5 02       		.uleb128 .LVU59
 3888              	.LLST10:
 3889 01d6 06       		.byte	0x6
 3890 01d7 16000000 		.4byte	.LVL9
 3891 01db 04       		.byte	0x4
 3892 01dc 00       		.uleb128 .LVL9-.LVL9
 3893 01dd 04       		.uleb128 .LVL10-.LVL9
 3894 01de 06       		.uleb128 0x6
 3895 01df 70       		.byte	0x70
 3896 01e0 00       		.sleb128 0
 3897 01e1 75       		.byte	0x75
 3898 01e2 00       		.sleb128 0
 3899 01e3 22       		.byte	0x22
 3900 01e4 9F       		.byte	0x9f
 3901 01e5 04       		.byte	0x4
 3902 01e6 04       		.uleb128 .LVL10-.LVL9
 3903 01e7 34       		.uleb128 .LVL18-.LVL9
 3904 01e8 01       		.uleb128 0x1
 3905 01e9 55       		.byte	0x55
 3906 01ea 00       		.byte	0
 3907              	.LVUS12:
 3908 01eb 05       		.uleb128 .LVU26
 3909 01ec 00       		.uleb128 .LVU30
 3910              	.LLST12:
 3911 01ed 08       		.byte	0x8
 3912 01ee 28000000 		.4byte	.LVL11
 3913 01f2 0A       		.uleb128 .LVL12-.LVL11
 3914 01f3 03       		.uleb128 0x3
 3915 01f4 08       		.byte	0x8
 3916 01f5 30       		.byte	0x30
 3917 01f6 9F       		.byte	0x9f
 3918 01f7 00       		.byte	0
 3919              	.LVUS14:
 3920 01f8 01       		.uleb128 .LVU40
 3921 01f9 00       		.uleb128 .LVU43
 3922              	.LLST14:
 3923 01fa 08       		.byte	0x8
 3924 01fb 3E000000 		.4byte	.LVL15
 3925 01ff 04       		.uleb128 .LVL16-.LVL15
 3926 0200 02       		.uleb128 0x2
 3927 0201 30       		.byte	0x30
 3928 0202 9F       		.byte	0x9f
 3929 0203 00       		.byte	0
 3930              	.LVUS15:
 3931 0204 01       		.uleb128 .LVU40
 3932 0205 00       		.uleb128 .LVU43
 3933              	.LLST15:
ARM GAS  C:\Users\DEVELO~1\AppData\Local\Temp\ccPoYcgE.s 			page 70


 3934 0206 08       		.byte	0x8
 3935 0207 3E000000 		.4byte	.LVL15
 3936 020b 04       		.uleb128 .LVL16-.LVL15
 3937 020c 01       		.uleb128 0x1
 3938 020d 50       		.byte	0x50
 3939 020e 00       		.byte	0
 3940              	.LVUS16:
 3941 020f 0A       		.uleb128 .LVU55
 3942 0210 00       		.uleb128 .LVU57
 3943              	.LLST16:
 3944 0211 08       		.byte	0x8
 3945 0212 46000000 		.4byte	.LVL17
 3946 0216 04       		.uleb128 .LVL18-.LVL17
 3947 0217 02       		.uleb128 0x2
 3948 0218 30       		.byte	0x30
 3949 0219 9F       		.byte	0x9f
 3950 021a 00       		.byte	0
 3951              	.LVUS1:
 3952 021b 00       		.uleb128 0
 3953 021c 00       		.uleb128 .LVU5
 3954 021d 00       		.uleb128 .LVU5
 3955 021e 00       		.uleb128 0
 3956              	.LLST1:
 3957 021f 06       		.byte	0x6
 3958 0220 00000000 		.4byte	.LVL3
 3959 0224 04       		.byte	0x4
 3960 0225 00       		.uleb128 .LVL3-.LVL3
 3961 0226 04       		.uleb128 .LVL4-.LVL3
 3962 0227 01       		.uleb128 0x1
 3963 0228 50       		.byte	0x50
 3964 0229 04       		.byte	0x4
 3965 022a 04       		.uleb128 .LVL4-.LVL3
 3966 022b 08       		.uleb128 .LFE353-.LVL3
 3967 022c 04       		.uleb128 0x4
 3968 022d A3       		.byte	0xa3
 3969 022e 01       		.uleb128 0x1
 3970 022f 50       		.byte	0x50
 3971 0230 9F       		.byte	0x9f
 3972 0231 00       		.byte	0
 3973              	.LVUS0:
 3974 0232 00       		.uleb128 0
 3975 0233 00       		.uleb128 .LVU2
 3976 0234 00       		.uleb128 .LVU2
 3977 0235 00       		.uleb128 0
 3978              	.LLST0:
 3979 0236 06       		.byte	0x6
 3980 0237 00000000 		.4byte	.LVL0
 3981 023b 04       		.byte	0x4
 3982 023c 00       		.uleb128 .LVL0-.LVL0
 3983 023d 02       		.uleb128 .LVL1-.LVL0
 3984 023e 01       		.uleb128 0x1
 3985 023f 50       		.byte	0x50
 3986 0240 04       		.byte	0x4
 3987 0241 02       		.uleb128 .LVL1-.LVL0
 3988 0242 06       		.uleb128 .LFE352-.LVL0
 3989 0243 04       		.uleb128 0x4
 3990 0244 A3       		.byte	0xa3
ARM GAS  C:\Users\DEVELO~1\AppData\Local\Temp\ccPoYcgE.s 			page 71


 3991 0245 01       		.uleb128 0x1
 3992 0246 50       		.byte	0x50
 3993 0247 9F       		.byte	0x9f
 3994 0248 00       		.byte	0
 3995              	.Ldebug_loc3:
 3996              		.section	.debug_aranges,"",%progbits
 3997 0000 34000000 		.4byte	0x34
 3998 0004 0200     		.2byte	0x2
 3999 0006 00000000 		.4byte	.Ldebug_info0
 4000 000a 04       		.byte	0x4
 4001 000b 00       		.byte	0
 4002 000c 0000     		.2byte	0
 4003 000e 0000     		.2byte	0
 4004 0010 00000000 		.4byte	.LFB352
 4005 0014 06000000 		.4byte	.LFE352-.LFB352
 4006 0018 00000000 		.4byte	.LFB353
 4007 001c 08000000 		.4byte	.LFE353-.LFB353
 4008 0020 00000000 		.4byte	.LFB354
 4009 0024 58000000 		.4byte	.LFE354-.LFB354
 4010 0028 00000000 		.4byte	.LFB355
 4011 002c 5C000000 		.4byte	.LFE355-.LFB355
 4012 0030 00000000 		.4byte	0
 4013 0034 00000000 		.4byte	0
 4014              		.section	.debug_rnglists,"",%progbits
 4015              	.Ldebug_ranges0:
 4016 0000 54000000 		.4byte	.Ldebug_ranges3-.Ldebug_ranges2
 4017              	.Ldebug_ranges2:
 4018 0004 0500     		.2byte	0x5
 4019 0006 04       		.byte	0x4
 4020 0007 00       		.byte	0
 4021 0008 00000000 		.4byte	0
 4022              	.LLRL11:
 4023 000c 05       		.byte	0x5
 4024 000d 28000000 		.4byte	.LBB38
 4025 0011 04       		.byte	0x4
 4026 0012 00       		.uleb128 .LBB38-.LBB38
 4027 0013 00       		.uleb128 .LBE38-.LBB38
 4028 0014 04       		.byte	0x4
 4029 0015 04       		.uleb128 .LBB45-.LBB38
 4030 0016 0A       		.uleb128 .LBE45-.LBB38
 4031 0017 00       		.byte	0
 4032              	.LLRL13:
 4033 0018 05       		.byte	0x5
 4034 0019 38000000 		.4byte	.LBB46
 4035 001d 04       		.byte	0x4
 4036 001e 00       		.uleb128 .LBB46-.LBB46
 4037 001f 02       		.uleb128 .LBE46-.LBB46
 4038 0020 04       		.byte	0x4
 4039 0021 06       		.uleb128 .LBB49-.LBB46
 4040 0022 0A       		.uleb128 .LBE49-.LBB46
 4041 0023 00       		.byte	0
 4042              	.LLRL25:
 4043 0024 05       		.byte	0x5
 4044 0025 1C000000 		.4byte	.LBB55
 4045 0029 04       		.byte	0x4
 4046 002a 00       		.uleb128 .LBB55-.LBB55
 4047 002b 00       		.uleb128 .LBE55-.LBB55
ARM GAS  C:\Users\DEVELO~1\AppData\Local\Temp\ccPoYcgE.s 			page 72


 4048 002c 04       		.byte	0x4
 4049 002d 14       		.uleb128 .LBB62-.LBB55
 4050 002e 1A       		.uleb128 .LBE62-.LBB55
 4051 002f 00       		.byte	0
 4052              	.LLRL27:
 4053 0030 05       		.byte	0x5
 4054 0031 3C000000 		.4byte	.LBB63
 4055 0035 04       		.byte	0x4
 4056 0036 00       		.uleb128 .LBB63-.LBB63
 4057 0037 02       		.uleb128 .LBE63-.LBB63
 4058 0038 04       		.byte	0x4
 4059 0039 04       		.uleb128 .LBB67-.LBB63
 4060 003a 08       		.uleb128 .LBE67-.LBB63
 4061 003b 04       		.byte	0x4
 4062 003c 0A       		.uleb128 .LBB68-.LBB63
 4063 003d 0A       		.uleb128 .LBE68-.LBB63
 4064 003e 00       		.byte	0
 4065              	.LLRL31:
 4066 003f 07       		.byte	0x7
 4067 0040 00000000 		.4byte	.LFB352
 4068 0044 06       		.uleb128 .LFE352-.LFB352
 4069 0045 07       		.byte	0x7
 4070 0046 00000000 		.4byte	.LFB353
 4071 004a 08       		.uleb128 .LFE353-.LFB353
 4072 004b 07       		.byte	0x7
 4073 004c 00000000 		.4byte	.LFB354
 4074 0050 58       		.uleb128 .LFE354-.LFB354
 4075 0051 07       		.byte	0x7
 4076 0052 00000000 		.4byte	.LFB355
 4077 0056 5C       		.uleb128 .LFE355-.LFB355
 4078 0057 00       		.byte	0
 4079              	.Ldebug_ranges3:
 4080              		.section	.debug_line,"",%progbits
 4081              	.Ldebug_line0:
 4082 0000 40050000 		.section	.debug_str,"MS",%progbits,1
 4082      03001B03 
 4082      00000201 
 4082      FB0E0D00 
 4082      01010101 
 4083              	.LASF133:
 4084 0000 6D656D6F 		.ascii	"memory_area_t\000"
 4084      72795F61 
 4084      7265615F 
 4084      7400
 4085              	.LASF126:
 4086 000e 7466756E 		.ascii	"tfunc_t\000"
 4086      635F7400 
 4087              	.LASF119:
 4088 0016 72656164 		.ascii	"ready_list_t\000"
 4088      795F6C69 
 4088      73745F74 
 4088      00
 4089              	.LASF4:
 4090 0023 73697A65 		.ascii	"size_t\000"
 4090      5F7400
 4091              	.LASF108:
 4092 002a 7264796D 		.ascii	"rdymsg\000"
ARM GAS  C:\Users\DEVELO~1\AppData\Local\Temp\ccPoYcgE.s 			page 73


 4092      736700
 4093              	.LASF129:
 4094 0031 66756E63 		.ascii	"funcp\000"
 4094      7000
 4095              	.LASF54:
 4096 0037 72666375 		.ascii	"rfcu\000"
 4096      00
 4097              	.LASF152:
 4098 003c 63684865 		.ascii	"chHeapFree\000"
 4098      61704672 
 4098      656500
 4099              	.LASF5:
 4100 0047 5F5F7569 		.ascii	"__uint8_t\000"
 4100      6E74385F 
 4100      7400
 4101              	.LASF88:
 4102 0051 70726576 		.ascii	"prev\000"
 4102      00
 4103              	.LASF81:
 4104 0056 706F7274 		.ascii	"port_intctx\000"
 4104      5F696E74 
 4104      63747800 
 4105              	.LASF145:
 4106 0062 70616765 		.ascii	"pages\000"
 4106      7300
 4107              	.LASF51:
 4108 0068 76746C69 		.ascii	"vtlist\000"
 4108      737400
 4109              	.LASF139:
 4110 006f 70726F76 		.ascii	"provider\000"
 4110      69646572 
 4110      00
 4111              	.LASF73:
 4112 0078 74797065 		.ascii	"type\000"
 4112      00
 4113              	.LASF130:
 4114 007d 74687265 		.ascii	"thread_descriptor_t\000"
 4114      61645F64 
 4114      65736372 
 4114      6970746F 
 4114      725F7400 
 4115              	.LASF11:
 4116 0091 6C6F6E67 		.ascii	"long int\000"
 4116      20696E74 
 4116      00
 4117              	.LASF76:
 4118 009a 74726163 		.ascii	"trace_event_t\000"
 4118      655F6576 
 4118      656E745F 
 4118      7400
 4119              	.LASF135:
 4120 00a8 6D656D67 		.ascii	"memgetfunc_t\000"
 4120      65746675 
 4120      6E635F74 
 4120      00
 4121              	.LASF128:
 4122 00b5 77656E64 		.ascii	"wend\000"
ARM GAS  C:\Users\DEVELO~1\AppData\Local\Temp\ccPoYcgE.s 			page 74


 4122      00
 4123              	.LASF71:
 4124 00ba 68616C74 		.ascii	"halt\000"
 4124      00
 4125              	.LASF40:
 4126 00bf 64697370 		.ascii	"dispose\000"
 4126      6F736500 
 4127              	.LASF21:
 4128 00c7 706F7274 		.ascii	"port_stkline_t\000"
 4128      5F73746B 
 4128      6C696E65 
 4128      5F7400
 4129              	.LASF109:
 4130 00d6 65786974 		.ascii	"exitcode\000"
 4130      636F6465 
 4130      00
 4131              	.LASF57:
 4132 00df 6D61696E 		.ascii	"mainthread\000"
 4132      74687265 
 4132      616400
 4133              	.LASF111:
 4134 00ea 73656E74 		.ascii	"sentmsg\000"
 4134      6D736700 
 4135              	.LASF94:
 4136 00f2 64656C74 		.ascii	"delta\000"
 4136      6100
 4137              	.LASF159:
 4138 00f8 68656170 		.ascii	"heapp\000"
 4138      7000
 4139              	.LASF68:
 4140 00fe 73797369 		.ascii	"sysinterval_t\000"
 4140      6E746572 
 4140      76616C5F 
 4140      7400
 4141              	.LASF85:
 4142 010c 6E657874 		.ascii	"next\000"
 4142      00
 4143              	.LASF41:
 4144 0111 6F626A65 		.ascii	"object\000"
 4144      637400
 4145              	.LASF122:
 4146 0118 63737461 		.ascii	"cstack_end\000"
 4146      636B5F65 
 4146      6E6400
 4147              	.LASF1:
 4148 0123 6C6F6E67 		.ascii	"long long int\000"
 4148      206C6F6E 
 4148      6720696E 
 4148      7400
 4149              	.LASF3:
 4150 0131 7369676E 		.ascii	"signed char\000"
 4150      65642063 
 4150      68617200 
 4151              	.LASF13:
 4152 013d 6C6F6E67 		.ascii	"long unsigned int\000"
 4152      20756E73 
 4152      69676E65 
ARM GAS  C:\Users\DEVELO~1\AppData\Local\Temp\ccPoYcgE.s 			page 75


 4152      6420696E 
 4152      7400
 4153              	.LASF93:
 4154 014f 63685F64 		.ascii	"ch_delta_list\000"
 4154      656C7461 
 4154      5F6C6973 
 4154      7400
 4155              	.LASF15:
 4156 015d 6C6F6E67 		.ascii	"long long unsigned int\000"
 4156      206C6F6E 
 4156      6720756E 
 4156      7369676E 
 4156      65642069 
 4157              	.LASF155:
 4158 0174 63685468 		.ascii	"chThdCreateSuspendedI\000"
 4158      64437265 
 4158      61746553 
 4158      75737065 
 4158      6E646564 
 4159              	.LASF168:
 4160 018a 62617365 		.ascii	"basePri\000"
 4160      50726900 
 4161              	.LASF35:
 4162 0192 73746174 		.ascii	"state\000"
 4162      6500
 4163              	.LASF22:
 4164 0198 73746B6C 		.ascii	"stkline_t\000"
 4164      696E655F 
 4164      7400
 4165              	.LASF158:
 4166 01a2 63685468 		.ascii	"chThdCreateFromHeap\000"
 4166      64437265 
 4166      61746546 
 4166      726F6D48 
 4166      65617000 
 4167              	.LASF24:
 4168 01b6 74737461 		.ascii	"tstate_t\000"
 4168      74655F74 
 4168      00
 4169              	.LASF60:
 4170 01bf 63685F72 		.ascii	"ch_rfcu\000"
 4170      66637500 
 4171              	.LASF137:
 4172 01c7 6D656D6F 		.ascii	"memory_heap_t\000"
 4172      72795F68 
 4172      6561705F 
 4172      7400
 4173              	.LASF166:
 4174 01d5 706F7274 		.ascii	"port_unlock\000"
 4174      5F756E6C 
 4174      6F636B00 
 4175              	.LASF87:
 4176 01e1 63685F71 		.ascii	"ch_queue\000"
 4176      75657565 
 4176      00
 4177              	.LASF17:
 4178 01ea 75696E74 		.ascii	"uint16_t\000"
ARM GAS  C:\Users\DEVELO~1\AppData\Local\Temp\ccPoYcgE.s 			page 76


 4178      31365F74 
 4178      00
 4179              	.LASF80:
 4180 01f3 74726163 		.ascii	"trace_buffer_t\000"
 4180      655F6275 
 4180      66666572 
 4180      5F7400
 4181              	.LASF101:
 4182 0202 63685F72 		.ascii	"ch_registry\000"
 4182      65676973 
 4182      74727900 
 4183              	.LASF79:
 4184 020e 62756666 		.ascii	"buffer\000"
 4184      657200
 4185              	.LASF150:
 4186 0215 6D656D6F 		.ascii	"memory_pool_t\000"
 4186      72795F70 
 4186      6F6F6C5F 
 4186      7400
 4187              	.LASF171:
 4188 0223 433A5C43 		.ascii	"C:\\ChibiStudio\\chibios2111\\demos\\STM32\\RT-STM3"
 4188      68696269 
 4188      53747564 
 4188      696F5C63 
 4188      68696269 
 4189 0251 32483734 		.ascii	"2H743ZI_REV_XY-NUCLEO144 - Copie\000"
 4189      335A495F 
 4189      5245565F 
 4189      58592D4E 
 4189      55434C45 
 4190              	.LASF12:
 4191 0272 5F5F7569 		.ascii	"__uint32_t\000"
 4191      6E743332 
 4191      5F7400
 4192              	.LASF61:
 4193 027d 6D61736B 		.ascii	"mask\000"
 4193      00
 4194              	.LASF42:
 4195 0282 77616974 		.ascii	"waiting\000"
 4195      696E6700 
 4196              	.LASF123:
 4197 028a 69646C65 		.ascii	"idlestack_base\000"
 4197      73746163 
 4197      6B5F6261 
 4197      736500
 4198              	.LASF131:
 4199 0299 6D757465 		.ascii	"mutex_t\000"
 4199      785F7400 
 4200              	.LASF149:
 4201 02a1 616C6967 		.ascii	"align\000"
 4201      6E00
 4202              	.LASF82:
 4203 02a7 706F7274 		.ascii	"port_context\000"
 4203      5F636F6E 
 4203      74657874 
 4203      00
 4204              	.LASF53:
ARM GAS  C:\Users\DEVELO~1\AppData\Local\Temp\ccPoYcgE.s 			page 77


 4205 02b4 636F7265 		.ascii	"core_id\000"
 4205      5F696400 
 4206              	.LASF29:
 4207 02bc 636E745F 		.ascii	"cnt_t\000"
 4207      7400
 4208              	.LASF43:
 4209 02c2 6D736771 		.ascii	"msgqueue\000"
 4209      75657565 
 4209      00
 4210              	.LASF0:
 4211 02cb 756E7369 		.ascii	"unsigned int\000"
 4211      676E6564 
 4211      20696E74 
 4211      00
 4212              	.LASF112:
 4213 02d8 77747365 		.ascii	"wtsemp\000"
 4213      6D7000
 4214              	.LASF66:
 4215 02df 73797374 		.ascii	"system_debug_t\000"
 4215      656D5F64 
 4215      65627567 
 4215      5F7400
 4216              	.LASF110:
 4217 02ee 77747472 		.ascii	"wttrp\000"
 4217      7000
 4218              	.LASF39:
 4219 02f4 72717565 		.ascii	"rqueue\000"
 4219      756500
 4220              	.LASF86:
 4221 02fb 63685F71 		.ascii	"ch_queue_t\000"
 4221      75657565 
 4221      5F7400
 4222              	.LASF169:
 4223 0306 474E5520 		.ascii	"GNU C17 11.3.1 20220712 -mcpu=cortex-m7 -mthumb -mf"
 4223      43313720 
 4223      31312E33 
 4223      2E312032 
 4223      30323230 
 4224 0339 6C6F6174 		.ascii	"loat-abi=soft -march=armv7e-m -ggdb -O2 -fomit-fram"
 4224      2D616269 
 4224      3D736F66 
 4224      74202D6D 
 4224      61726368 
 4225 036c 652D706F 		.ascii	"e-pointer -falign-functions=16 -ffunction-sections "
 4225      696E7465 
 4225      72202D66 
 4225      616C6967 
 4225      6E2D6675 
 4226 039f 2D666461 		.ascii	"-fdata-sections -fno-common\000"
 4226      74612D73 
 4226      65637469 
 4226      6F6E7320 
 4226      2D666E6F 
 4227              	.LASF105:
 4228 03bb 74687265 		.ascii	"thread_dispose_t\000"
 4228      61645F64 
 4228      6973706F 
ARM GAS  C:\Users\DEVELO~1\AppData\Local\Temp\ccPoYcgE.s 			page 78


 4228      73655F74 
 4228      00
 4229              	.LASF102:
 4230 03cc 71756575 		.ascii	"queue\000"
 4230      6500
 4231              	.LASF38:
 4232 03d2 6E616D65 		.ascii	"name\000"
 4232      00
 4233              	.LASF78:
 4234 03d7 73697A65 		.ascii	"size\000"
 4234      00
 4235              	.LASF9:
 4236 03dc 73686F72 		.ascii	"short unsigned int\000"
 4236      7420756E 
 4236      7369676E 
 4236      65642069 
 4236      6E7400
 4237              	.LASF48:
 4238 03ef 63685F74 		.ascii	"ch_thread\000"
 4238      68726561 
 4238      6400
 4239              	.LASF27:
 4240 03f9 6D73675F 		.ascii	"msg_t\000"
 4240      7400
 4241              	.LASF44:
 4242 03ff 6570656E 		.ascii	"epending\000"
 4242      64696E67 
 4242      00
 4243              	.LASF160:
 4244 0408 7468645F 		.ascii	"thd_poolfree\000"
 4244      706F6F6C 
 4244      66726565 
 4244      00
 4245              	.LASF23:
 4246 0415 746D6F64 		.ascii	"tmode_t\000"
 4246      655F7400 
 4247              	.LASF84:
 4248 041d 63685F6C 		.ascii	"ch_list\000"
 4248      69737400 
 4249              	.LASF117:
 4250 0425 63685F72 		.ascii	"ch_ready_list\000"
 4250      65616479 
 4250      5F6C6973 
 4250      7400
 4251              	.LASF28:
 4252 0433 6576656E 		.ascii	"eventmask_t\000"
 4252      746D6173 
 4252      6B5F7400 
 4253              	.LASF7:
 4254 043f 73686F72 		.ascii	"short int\000"
 4254      7420696E 
 4254      7400
 4255              	.LASF10:
 4256 0449 5F5F696E 		.ascii	"__int32_t\000"
 4256      7433325F 
 4256      7400
 4257              	.LASF100:
ARM GAS  C:\Users\DEVELO~1\AppData\Local\Temp\ccPoYcgE.s 			page 79


 4258 0453 76697274 		.ascii	"virtual_timers_list_t\000"
 4258      75616C5F 
 4258      74696D65 
 4258      72735F6C 
 4258      6973745F 
 4259              	.LASF74:
 4260 0469 72747374 		.ascii	"rtstamp\000"
 4260      616D7000 
 4261              	.LASF99:
 4262 0471 6C617374 		.ascii	"laststamp\000"
 4262      7374616D 
 4262      7000
 4263              	.LASF132:
 4264 047b 62617365 		.ascii	"base\000"
 4264      00
 4265              	.LASF46:
 4266 0480 7265616C 		.ascii	"realprio\000"
 4266      7072696F 
 4266      00
 4267              	.LASF59:
 4268 0489 72666375 		.ascii	"rfcu_mask_t\000"
 4268      5F6D6173 
 4268      6B5F7400 
 4269              	.LASF104:
 4270 0495 74687265 		.ascii	"thread_reference_t\000"
 4270      61645F72 
 4270      65666572 
 4270      656E6365 
 4270      5F7400
 4271              	.LASF138:
 4272 04a8 6D656D6F 		.ascii	"memory_heap\000"
 4272      72795F68 
 4272      65617000 
 4273              	.LASF95:
 4274 04b4 63685F76 		.ascii	"ch_virtual_timers_list\000"
 4274      69727475 
 4274      616C5F74 
 4274      696D6572 
 4274      735F6C69 
 4275              	.LASF173:
 4276 04cb 5F5F7365 		.ascii	"__set_BASEPRI\000"
 4276      745F4241 
 4276      53455052 
 4276      4900
 4277              	.LASF83:
 4278 04d9 63685F6C 		.ascii	"ch_list_t\000"
 4278      6973745F 
 4278      7400
 4279              	.LASF77:
 4280 04e3 73757370 		.ascii	"suspended\000"
 4280      656E6465 
 4280      6400
 4281              	.LASF121:
 4282 04ed 63737461 		.ascii	"cstack_base\000"
 4282      636B5F62 
 4282      61736500 
 4283              	.LASF20:
ARM GAS  C:\Users\DEVELO~1\AppData\Local\Temp\ccPoYcgE.s 			page 80


 4284 04f9 75696E74 		.ascii	"uint64_t\000"
 4284      36345F74 
 4284      00
 4285              	.LASF157:
 4286 0502 63685468 		.ascii	"chThdCreateFromMemoryPool\000"
 4286      64437265 
 4286      61746546 
 4286      726F6D4D 
 4286      656D6F72 
 4287              	.LASF120:
 4288 051c 63685F6F 		.ascii	"ch_os_instance_config\000"
 4288      735F696E 
 4288      7374616E 
 4288      63655F63 
 4288      6F6E6669 
 4289              	.LASF127:
 4290 0532 77626173 		.ascii	"wbase\000"
 4290      6500
 4291              	.LASF148:
 4292 0538 6F626A65 		.ascii	"object_size\000"
 4292      63745F73 
 4292      697A6500 
 4293              	.LASF162:
 4294 0544 63685468 		.ascii	"chThdSetCallbackX\000"
 4294      64536574 
 4294      43616C6C 
 4294      6261636B 
 4294      5800
 4295              	.LASF136:
 4296 0556 6D656D67 		.ascii	"memgetfunc2_t\000"
 4296      65746675 
 4296      6E63325F 
 4296      7400
 4297              	.LASF75:
 4298 0564 74696D65 		.ascii	"time\000"
 4298      00
 4299              	.LASF91:
 4300 0569 7072696F 		.ascii	"prio\000"
 4300      00
 4301              	.LASF124:
 4302 056e 69646C65 		.ascii	"idlestack_end\000"
 4302      73746163 
 4302      6B5F656E 
 4302      6400
 4303              	.LASF118:
 4304 057c 63757272 		.ascii	"current\000"
 4304      656E7400 
 4305              	.LASF14:
 4306 0584 5F5F7569 		.ascii	"__uint64_t\000"
 4306      6E743634 
 4306      5F7400
 4307              	.LASF144:
 4308 058f 75736564 		.ascii	"used\000"
 4308      00
 4309              	.LASF98:
 4310 0594 6C617374 		.ascii	"lastdelta\000"
 4310      64656C74 
ARM GAS  C:\Users\DEVELO~1\AppData\Local\Temp\ccPoYcgE.s 			page 81


 4310      6100
 4311              	.LASF30:
 4312 059e 636F7265 		.ascii	"core_id_t\000"
 4312      5F69645F 
 4312      7400
 4313              	.LASF25:
 4314 05a8 74726566 		.ascii	"trefs_t\000"
 4314      735F7400 
 4315              	.LASF37:
 4316 05b0 72656673 		.ascii	"refs\000"
 4316      00
 4317              	.LASF72:
 4318 05b5 75736572 		.ascii	"user\000"
 4318      00
 4319              	.LASF26:
 4320 05ba 74707269 		.ascii	"tprio_t\000"
 4320      6F5F7400 
 4321              	.LASF63:
 4322 05c2 63685F73 		.ascii	"ch_system_debug\000"
 4322      79737465 
 4322      6D5F6465 
 4322      62756700 
 4323              	.LASF134:
 4324 05d2 5F426F6F 		.ascii	"_Bool\000"
 4324      6C00
 4325              	.LASF18:
 4326 05d8 696E7433 		.ascii	"int32_t\000"
 4326      325F7400 
 4327              	.LASF6:
 4328 05e0 756E7369 		.ascii	"unsigned char\000"
 4328      676E6564 
 4328      20636861 
 4328      7200
 4329              	.LASF172:
 4330 05ee 68656170 		.ascii	"heap_header\000"
 4330      5F686561 
 4330      64657200 
 4331              	.LASF62:
 4332 05fa 72666375 		.ascii	"rfcu_t\000"
 4332      5F7400
 4333              	.LASF140:
 4334 0601 61726561 		.ascii	"area\000"
 4334      00
 4335              	.LASF97:
 4336 0606 6C617374 		.ascii	"lasttime\000"
 4336      74696D65 
 4336      00
 4337              	.LASF69:
 4338 060f 77746F62 		.ascii	"wtobjp\000"
 4338      6A7000
 4339              	.LASF114:
 4340 0616 65776D61 		.ascii	"ewmask\000"
 4340      736B00
 4341              	.LASF164:
 4342 061d 5F5F6675 		.ascii	"__func__\000"
 4342      6E635F5F 
 4342      00
ARM GAS  C:\Users\DEVELO~1\AppData\Local\Temp\ccPoYcgE.s 			page 82


 4343              	.LASF161:
 4344 0626 7468645F 		.ascii	"thd_heapfree\000"
 4344      68656170 
 4344      66726565 
 4344      00
 4345              	.LASF165:
 4346 0633 63685379 		.ascii	"chSysLock\000"
 4346      734C6F63 
 4346      6B00
 4347              	.LASF70:
 4348 063d 72656173 		.ascii	"reason\000"
 4348      6F6E00
 4349              	.LASF115:
 4350 0644 63685F73 		.ascii	"ch_semaphore\000"
 4350      656D6170 
 4350      686F7265 
 4350      00
 4351              	.LASF103:
 4352 0651 72656769 		.ascii	"registry_t\000"
 4352      73747279 
 4352      5F7400
 4353              	.LASF19:
 4354 065c 75696E74 		.ascii	"uint32_t\000"
 4354      33325F74 
 4354      00
 4355              	.LASF113:
 4356 0665 77746D74 		.ascii	"wtmtxp\000"
 4356      787000
 4357              	.LASF32:
 4358 066c 6F776E65 		.ascii	"owner\000"
 4358      7200
 4359              	.LASF146:
 4360 0672 68656170 		.ascii	"heap\000"
 4360      00
 4361              	.LASF2:
 4362 0677 6C6F6E67 		.ascii	"long double\000"
 4362      20646F75 
 4362      626C6500 
 4363              	.LASF33:
 4364 0683 77616261 		.ascii	"wabase\000"
 4364      736500
 4365              	.LASF65:
 4366 068a 63686172 		.ascii	"char\000"
 4366      00
 4367              	.LASF55:
 4368 068f 636F6E66 		.ascii	"config\000"
 4368      696700
 4369              	.LASF8:
 4370 0696 5F5F7569 		.ascii	"__uint16_t\000"
 4370      6E743136 
 4370      5F7400
 4371              	.LASF31:
 4372 06a1 74687265 		.ascii	"thread_t\000"
 4372      61645F74 
 4372      00
 4373              	.LASF96:
 4374 06aa 646C6973 		.ascii	"dlist\000"
ARM GAS  C:\Users\DEVELO~1\AppData\Local\Temp\ccPoYcgE.s 			page 83


 4374      7400
 4375              	.LASF67:
 4376 06b0 73797374 		.ascii	"systime_t\000"
 4376      696D655F 
 4376      7400
 4377              	.LASF142:
 4378 06ba 68656170 		.ascii	"heap_header_t\000"
 4378      5F686561 
 4378      6465725F 
 4378      7400
 4379              	.LASF89:
 4380 06c8 63685F70 		.ascii	"ch_priority_queue_t\000"
 4380      72696F72 
 4380      6974795F 
 4380      71756575 
 4380      655F7400 
 4381              	.LASF64:
 4382 06dc 70616E69 		.ascii	"panic_msg\000"
 4382      635F6D73 
 4382      6700
 4383              	.LASF107:
 4384 06e6 70717565 		.ascii	"pqueue\000"
 4384      756500
 4385              	.LASF49:
 4386 06ed 63685F6F 		.ascii	"ch_os_instance\000"
 4386      735F696E 
 4386      7374616E 
 4386      636500
 4387              	.LASF47:
 4388 06fc 6F735F69 		.ascii	"os_instance_t\000"
 4388      6E737461 
 4388      6E63655F 
 4388      7400
 4389              	.LASF52:
 4390 070a 7265676C 		.ascii	"reglist\000"
 4390      69737400 
 4391              	.LASF143:
 4392 0712 66726565 		.ascii	"free\000"
 4392      00
 4393              	.LASF90:
 4394 0717 63685F70 		.ascii	"ch_priority_queue\000"
 4394      72696F72 
 4394      6974795F 
 4394      71756575 
 4394      6500
 4395              	.LASF156:
 4396 0729 63684865 		.ascii	"chHeapAllocAligned\000"
 4396      6170416C 
 4396      6C6F6341 
 4396      6C69676E 
 4396      656400
 4397              	.LASF92:
 4398 073c 63685F64 		.ascii	"ch_delta_list_t\000"
 4398      656C7461 
 4398      5F6C6973 
 4398      745F7400 
 4399              	.LASF153:
ARM GAS  C:\Users\DEVELO~1\AppData\Local\Temp\ccPoYcgE.s 			page 84


 4400 074c 63685363 		.ascii	"chSchWakeupS\000"
 4400      6857616B 
 4400      65757053 
 4400      00
 4401              	.LASF125:
 4402 0759 6F735F69 		.ascii	"os_instance_config_t\000"
 4402      6E737461 
 4402      6E63655F 
 4402      636F6E66 
 4402      69675F74 
 4403              	.LASF147:
 4404 076e 706F6F6C 		.ascii	"pool_header\000"
 4404      5F686561 
 4404      64657200 
 4405              	.LASF34:
 4406 077a 7761656E 		.ascii	"waend\000"
 4406      6400
 4407              	.LASF50:
 4408 0780 726C6973 		.ascii	"rlist\000"
 4408      7400
 4409              	.LASF16:
 4410 0786 75696E74 		.ascii	"uint8_t\000"
 4410      385F7400 
 4411              	.LASF154:
 4412 078e 6368506F 		.ascii	"chPoolAlloc\000"
 4412      6F6C416C 
 4412      6C6F6300 
 4413              	.LASF151:
 4414 079a 6368506F 		.ascii	"chPoolFree\000"
 4414      6F6C4672 
 4414      656500
 4415              	.LASF36:
 4416 07a5 666C6167 		.ascii	"flags\000"
 4416      7300
 4417              	.LASF170:
 4418 07ab 2E2F4368 		.ascii	"./ChibiOS/os/rt/src/chdynamic.c\000"
 4418      6962694F 
 4418      532F6F73 
 4418      2F72742F 
 4418      7372632F 
 4419              	.LASF116:
 4420 07cb 63685F6D 		.ascii	"ch_mutex\000"
 4420      75746578 
 4420      00
 4421              	.LASF58:
 4422 07d4 74726163 		.ascii	"trace_buffer\000"
 4422      655F6275 
 4422      66666572 
 4422      00
 4423              	.LASF163:
 4424 07e1 63685379 		.ascii	"chSysUnlock\000"
 4424      73556E6C 
 4424      6F636B00 
 4425              	.LASF106:
 4426 07ed 6C697374 		.ascii	"list\000"
 4426      00
 4427              	.LASF167:
ARM GAS  C:\Users\DEVELO~1\AppData\Local\Temp\ccPoYcgE.s 			page 85


 4428 07f2 706F7274 		.ascii	"port_lock\000"
 4428      5F6C6F63 
 4428      6B00
 4429              	.LASF45:
 4430 07fc 6D74786C 		.ascii	"mtxlist\000"
 4430      69737400 
 4431              	.LASF141:
 4432 0804 68656164 		.ascii	"header\000"
 4432      657200
 4433              	.LASF56:
 4434 080b 69646C65 		.ascii	"idlethread\000"
 4434      74687265 
 4434      616400
 4435              		.ident	"GCC: (Arm GNU Toolchain 11.3.Rel1) 11.3.1 20220712"
ARM GAS  C:\Users\DEVELO~1\AppData\Local\Temp\ccPoYcgE.s 			page 86


DEFINED SYMBOLS
                            *ABS*:00000000 chdynamic.c
C:\Users\DEVELO~1\AppData\Local\Temp\ccPoYcgE.s:18     .text.thd_heapfree:00000000 $t
C:\Users\DEVELO~1\AppData\Local\Temp\ccPoYcgE.s:24     .text.thd_heapfree:00000000 thd_heapfree
C:\Users\DEVELO~1\AppData\Local\Temp\ccPoYcgE.s:43     .text.thd_poolfree:00000000 $t
C:\Users\DEVELO~1\AppData\Local\Temp\ccPoYcgE.s:49     .text.thd_poolfree:00000000 thd_poolfree
C:\Users\DEVELO~1\AppData\Local\Temp\ccPoYcgE.s:68     .text.chThdCreateFromHeap:00000000 $t
C:\Users\DEVELO~1\AppData\Local\Temp\ccPoYcgE.s:75     .text.chThdCreateFromHeap:00000000 chThdCreateFromHeap
C:\Users\DEVELO~1\AppData\Local\Temp\ccPoYcgE.s:248    .text.chThdCreateFromHeap:00000054 $d
C:\Users\DEVELO~1\AppData\Local\Temp\ccPoYcgE.s:253    .text.chThdCreateFromMemoryPool:00000000 $t
C:\Users\DEVELO~1\AppData\Local\Temp\ccPoYcgE.s:260    .text.chThdCreateFromMemoryPool:00000000 chThdCreateFromMemoryPool
C:\Users\DEVELO~1\AppData\Local\Temp\ccPoYcgE.s:437    .text.chThdCreateFromMemoryPool:00000058 $d

UNDEFINED SYMBOLS
chHeapFree
chPoolFree
chHeapAllocAligned
chThdCreateSuspendedI
chSchWakeupS
chPoolAlloc
