ARM GAS  C:\Users\DEVELO~1\AppData\Local\Temp\ccrRmbj9.s 			page 1


   1              		.cpu cortex-m7
   2              		.arch armv7e-m
   3              		.fpu softvfp
   4              		.eabi_attribute 20, 1
   5              		.eabi_attribute 21, 1
   6              		.eabi_attribute 23, 3
   7              		.eabi_attribute 24, 1
   8              		.eabi_attribute 25, 1
   9              		.eabi_attribute 26, 1
  10              		.eabi_attribute 30, 2
  11              		.eabi_attribute 34, 1
  12              		.eabi_attribute 18, 4
  13              		.file	"chevents.c"
  14              		.text
  15              	.Ltext0:
  16              		.cfi_sections	.debug_frame
  17              		.section	.text.chEvtRegisterMaskWithFlagsI,"ax",%progbits
  18              		.align	1
  19              		.p2align 4,,15
  20              		.global	chEvtRegisterMaskWithFlagsI
  21              		.syntax unified
  22              		.thumb
  23              		.thumb_func
  24              		.type	chEvtRegisterMaskWithFlagsI, %function
  25              	chEvtRegisterMaskWithFlagsI:
  26              	.LVL0:
  27              	.LFB346:
  28              		.file 1 "../../../os/rt/src/chevents.c"
  29              		.loc 1 106 55 view -0
  30              		.cfi_startproc
  31              		@ args = 0, pretend = 0, frame = 0
  32              		@ frame_needed = 0, uses_anonymous_args = 0
  33              		@ link register save eliminated.
  34              		.loc 1 107 3 view .LVU1
  35              	.LBB200:
  36              	.LBI200:
  37              		.file 2 "../../../os/rt/include/chthreads.h"
  38              		.loc 2 341 25 view .LVU2
  39              	.LBB201:
  40              		.loc 2 343 3 view .LVU3
  41              	.LBE201:
  42              	.LBE200:
  43              		.loc 1 112 17 is_stmt 0 view .LVU4
  44 0000 D0F800C0 		ldr	ip, [r0]
  45              		.loc 1 106 55 view .LVU5
  46 0004 10B4     		push	{r4}
  47              		.cfi_def_cfa_offset 4
  48              		.cfi_offset 4, -4
  49              	.LBB203:
  50              	.LBB202:
  51              		.loc 2 343 10 view .LVU6
  52 0006 064C     		ldr	r4, .L4
  53 0008 E468     		ldr	r4, [r4, #12]
  54              	.LVL1:
  55              		.loc 2 343 10 view .LVU7
  56              	.LBE202:
  57              	.LBE203:
ARM GAS  C:\Users\DEVELO~1\AppData\Local\Temp\ccrRmbj9.s 			page 2


  58              		.loc 1 109 21 is_stmt 1 view .LVU8
  59              		.loc 1 110 3 view .LVU9
  60              		.loc 1 110 3 view .LVU10
  61              		.loc 1 110 3 view .LVU11
  62              		.loc 1 112 3 view .LVU12
  63              		.loc 1 112 17 is_stmt 0 view .LVU13
  64 000a C1F800C0 		str	ip, [r1]
  65              		.loc 1 113 3 is_stmt 1 view .LVU14
  66              		.loc 1 113 17 is_stmt 0 view .LVU15
  67 000e 0160     		str	r1, [r0]
  68              		.loc 1 114 3 is_stmt 1 view .LVU16
  69              		.loc 1 116 17 is_stmt 0 view .LVU17
  70 0010 0020     		movs	r0, #0
  71              	.LVL2:
  72              		.loc 1 115 17 view .LVU18
  73 0012 C1E90142 		strd	r4, r2, [r1, #4]
  74              		.loc 1 116 3 is_stmt 1 view .LVU19
  75              		.loc 1 116 17 is_stmt 0 view .LVU20
  76 0016 C1E90303 		strd	r0, r3, [r1, #12]
  77              		.loc 1 117 3 is_stmt 1 view .LVU21
  78              		.loc 1 118 1 is_stmt 0 view .LVU22
  79 001a 10BC     		pop	{r4}
  80              		.cfi_restore 4
  81              		.cfi_def_cfa_offset 0
  82              	.LVL3:
  83              		.loc 1 118 1 view .LVU23
  84 001c 7047     		bx	lr
  85              	.L5:
  86 001e 00BF     		.align	2
  87              	.L4:
  88 0020 00000000 		.word	ch0
  89              		.cfi_endproc
  90              	.LFE346:
  91              		.size	chEvtRegisterMaskWithFlagsI, .-chEvtRegisterMaskWithFlagsI
  92              		.section	.text.chEvtRegisterMaskWithFlags,"ax",%progbits
  93              		.align	1
  94              		.p2align 4,,15
  95              		.global	chEvtRegisterMaskWithFlags
  96              		.syntax unified
  97              		.thumb
  98              		.thumb_func
  99              		.type	chEvtRegisterMaskWithFlags, %function
 100              	chEvtRegisterMaskWithFlags:
 101              	.LVL4:
 102              	.LFB347:
 103              		.loc 1 138 54 is_stmt 1 view -0
 104              		.cfi_startproc
 105              		@ args = 0, pretend = 0, frame = 0
 106              		@ frame_needed = 0, uses_anonymous_args = 0
 107              		@ link register save eliminated.
 108              		.loc 1 140 3 view .LVU25
 109              	.LBB204:
 110              	.LBI204:
 111              		.file 3 "../../../os/rt/include/chsys.h"
 112              		.loc 3 407 20 view .LVU26
 113              		.loc 3 409 3 view .LVU27
 114              	.LBB205:
ARM GAS  C:\Users\DEVELO~1\AppData\Local\Temp\ccrRmbj9.s 			page 3


 115              	.LBI205:
 116              		.file 4 "../../../os/common/ports/ARMv7-M/chcore.h"
 117              		.loc 4 806 27 view .LVU28
 118              		.loc 4 814 3 view .LVU29
 119              	.LBB206:
 120              	.LBI206:
 121              		.file 5 "../../../os/common/ext/ARM/CMSIS/Core/Include/cmsis_gcc.h"
 122              		.loc 5 491 27 view .LVU30
 123              	.LBB207:
 124              		.loc 5 493 3 view .LVU31
 125              	.LBE207:
 126              	.LBE206:
 127              	.LBE205:
 128              	.LBE204:
 129              		.loc 1 138 54 is_stmt 0 view .LVU32
 130 0000 10B4     		push	{r4}
 131              		.cfi_def_cfa_offset 4
 132              		.cfi_offset 4, -4
 133              	.LBB211:
 134              	.LBB210:
 135              	.LBB209:
 136              	.LBB208:
 137              		.loc 5 493 3 view .LVU33
 138 0002 3024     		movs	r4, #48
 139              		.syntax unified
 140              	@ 493 "../../../os/common/ext/ARM/CMSIS/Core/Include/cmsis_gcc.h" 1
 141 0004 84F31188 		MSR basepri, r4
 142              	@ 0 "" 2
 143              	.LVL5:
 144              		.loc 5 493 3 view .LVU34
 145              		.thumb
 146              		.syntax unified
 147              	.LBE208:
 148              	.LBE209:
 149              	.LBE210:
 150              		.loc 3 410 35 is_stmt 1 view .LVU35
 151              		.loc 3 411 21 view .LVU36
 152              	.LBE211:
 153              		.loc 1 141 3 view .LVU37
 154              	.LBB212:
 155              	.LBI212:
 156              		.loc 1 103 6 view .LVU38
 157              	.LBB213:
 158              		.loc 1 107 3 view .LVU39
 159              	.LBB214:
 160              	.LBI214:
 161              		.loc 2 341 25 view .LVU40
 162              	.LBB215:
 163              		.loc 2 343 3 view .LVU41
 164              		.loc 2 343 10 is_stmt 0 view .LVU42
 165 0008 074C     		ldr	r4, .L8
 166              	.LBE215:
 167              	.LBE214:
 168              		.loc 1 112 17 view .LVU43
 169 000a D0F800C0 		ldr	ip, [r0]
 170              	.LBB217:
 171              	.LBB216:
ARM GAS  C:\Users\DEVELO~1\AppData\Local\Temp\ccrRmbj9.s 			page 4


 172              		.loc 2 343 10 view .LVU44
 173 000e E468     		ldr	r4, [r4, #12]
 174              	.LVL6:
 175              		.loc 2 343 10 view .LVU45
 176              	.LBE216:
 177              	.LBE217:
 178              		.loc 1 109 21 is_stmt 1 view .LVU46
 179              		.loc 1 110 3 view .LVU47
 180              		.loc 1 110 3 view .LVU48
 181              		.loc 1 110 3 view .LVU49
 182              		.loc 1 112 3 view .LVU50
 183              		.loc 1 112 17 is_stmt 0 view .LVU51
 184 0010 C1F800C0 		str	ip, [r1]
 185              		.loc 1 113 3 is_stmt 1 view .LVU52
 186              		.loc 1 113 17 is_stmt 0 view .LVU53
 187 0014 0160     		str	r1, [r0]
 188              		.loc 1 114 3 is_stmt 1 view .LVU54
 189              		.loc 1 116 17 is_stmt 0 view .LVU55
 190 0016 0020     		movs	r0, #0
 191              	.LVL7:
 192              		.loc 1 115 17 view .LVU56
 193 0018 C1E90142 		strd	r4, r2, [r1, #4]
 194              		.loc 1 116 3 is_stmt 1 view .LVU57
 195              		.loc 1 116 17 is_stmt 0 view .LVU58
 196 001c C1E90303 		strd	r0, r3, [r1, #12]
 197              		.loc 1 117 3 is_stmt 1 view .LVU59
 198              	.LVL8:
 199              		.loc 1 117 3 is_stmt 0 view .LVU60
 200              	.LBE213:
 201              	.LBE212:
 202              		.loc 1 142 3 is_stmt 1 view .LVU61
 203              	.LBB218:
 204              	.LBI218:
 205              		.loc 3 421 20 view .LVU62
 206              	.LBB219:
 207              		.loc 3 423 23 view .LVU63
 208              		.loc 3 424 34 view .LVU64
 209              		.loc 3 430 3 view .LVU65
 210              		.loc 3 430 3 view .LVU66
 211              		.loc 3 430 3 view .LVU67
 212              		.loc 3 434 3 view .LVU68
 213              	.LBB220:
 214              	.LBI220:
 215              		.loc 4 830 27 view .LVU69
 216              		.loc 4 833 3 view .LVU70
 217              	.LBB221:
 218              	.LBI221:
 219              		.loc 5 491 27 view .LVU71
 220              	.LBB222:
 221              		.loc 5 493 3 view .LVU72
 222              		.syntax unified
 223              	@ 493 "../../../os/common/ext/ARM/CMSIS/Core/Include/cmsis_gcc.h" 1
 224 0020 80F31188 		MSR basepri, r0
 225              	@ 0 "" 2
 226              	.LVL9:
 227              		.loc 5 493 3 is_stmt 0 view .LVU73
 228              		.thumb
ARM GAS  C:\Users\DEVELO~1\AppData\Local\Temp\ccrRmbj9.s 			page 5


 229              		.syntax unified
 230              	.LBE222:
 231              	.LBE221:
 232              	.LBE220:
 233              	.LBE219:
 234              	.LBE218:
 235              		.loc 1 143 1 view .LVU74
 236 0024 10BC     		pop	{r4}
 237              		.cfi_restore 4
 238              		.cfi_def_cfa_offset 0
 239              	.LVL10:
 240              		.loc 1 143 1 view .LVU75
 241 0026 7047     		bx	lr
 242              	.L9:
 243              		.align	2
 244              	.L8:
 245 0028 00000000 		.word	ch0
 246              		.cfi_endproc
 247              	.LFE347:
 248              		.size	chEvtRegisterMaskWithFlags, .-chEvtRegisterMaskWithFlags
 249              		.section	.text.chEvtUnregister,"ax",%progbits
 250              		.align	1
 251              		.p2align 4,,15
 252              		.global	chEvtUnregister
 253              		.syntax unified
 254              		.thumb
 255              		.thumb_func
 256              		.type	chEvtUnregister, %function
 257              	chEvtUnregister:
 258              	.LVL11:
 259              	.LFB348:
 260              		.loc 1 158 66 is_stmt 1 view -0
 261              		.cfi_startproc
 262              		@ args = 0, pretend = 0, frame = 0
 263              		@ frame_needed = 0, uses_anonymous_args = 0
 264              		@ link register save eliminated.
 265              		.loc 1 159 3 view .LVU77
 266              		.loc 1 161 3 view .LVU78
 267              		.loc 1 161 3 view .LVU79
 268              		.loc 1 161 3 view .LVU80
 269              		.loc 1 164 3 view .LVU81
 270              	.LBB223:
 271              	.LBB224:
 272              	.LBB225:
 273              	.LBB226:
 274              	.LBB227:
 275              		.loc 5 493 3 is_stmt 0 view .LVU82
 276 0000 3023     		movs	r3, #48
 277              	.LVL12:
 278              		.loc 5 493 3 view .LVU83
 279              	.LBE227:
 280              	.LBE226:
 281              	.LBE225:
 282              	.LBE224:
 283              	.LBE223:
 284              		.loc 1 166 3 is_stmt 1 view .LVU84
 285              	.LBB233:
ARM GAS  C:\Users\DEVELO~1\AppData\Local\Temp\ccrRmbj9.s 			page 6


 286              	.LBI223:
 287              		.loc 3 407 20 view .LVU85
 288              	.LBB231:
 289              		.loc 3 409 3 view .LVU86
 290              	.LBB230:
 291              	.LBI225:
 292              		.loc 4 806 27 view .LVU87
 293              		.loc 4 814 3 view .LVU88
 294              	.LBB229:
 295              	.LBI226:
 296              		.loc 5 491 27 view .LVU89
 297              	.LBB228:
 298              		.loc 5 493 3 view .LVU90
 299              		.syntax unified
 300              	@ 493 "../../../os/common/ext/ARM/CMSIS/Core/Include/cmsis_gcc.h" 1
 301 0002 83F31188 		MSR basepri, r3
 302              	@ 0 "" 2
 303              	.LVL13:
 304              		.loc 5 493 3 is_stmt 0 view .LVU91
 305              		.thumb
 306              		.syntax unified
 307              	.LBE228:
 308              	.LBE229:
 309              	.LBE230:
 310              		.loc 3 410 35 is_stmt 1 view .LVU92
 311              		.loc 3 411 21 view .LVU93
 312              	.LBE231:
 313              	.LBE233:
 314              		.loc 1 164 5 is_stmt 0 view .LVU94
 315 0006 0346     		mov	r3, r0
 316              	.LBB234:
 317              	.LBB232:
 318              		.loc 3 412 1 view .LVU95
 319 0008 01E0     		b	.L11
 320              	.LVL14:
 321              	.L13:
 322              		.loc 3 412 1 view .LVU96
 323              	.LBE232:
 324              	.LBE234:
 325              		.loc 1 170 8 view .LVU97
 326 000a 8B42     		cmp	r3, r1
 327 000c 07D0     		beq	.L15
 328              	.LVL15:
 329              	.L11:
 330              		.loc 1 170 5 is_stmt 1 view .LVU98
 331              		.loc 1 168 18 view .LVU99
 332 000e 1A46     		mov	r2, r3
 333              		.loc 1 168 11 is_stmt 0 view .LVU100
 334 0010 1B68     		ldr	r3, [r3]
 335              	.LVL16:
 336              		.loc 1 168 18 view .LVU101
 337 0012 9842     		cmp	r0, r3
 338 0014 F9D1     		bne	.L13
 339              		.loc 1 176 3 is_stmt 1 view .LVU102
 340              	.LBB235:
 341              	.LBI235:
 342              		.loc 3 421 20 view .LVU103
ARM GAS  C:\Users\DEVELO~1\AppData\Local\Temp\ccrRmbj9.s 			page 7


 343              	.LBB236:
 344              		.loc 3 423 23 view .LVU104
 345              		.loc 3 424 34 view .LVU105
 346              		.loc 3 430 3 view .LVU106
 347              		.loc 3 430 3 view .LVU107
 348              		.loc 3 430 3 view .LVU108
 349              		.loc 3 434 3 view .LVU109
 350              	.LBB237:
 351              	.LBI237:
 352              		.loc 4 830 27 view .LVU110
 353              		.loc 4 833 3 view .LVU111
 354              	.LVL17:
 355              	.LBB238:
 356              	.LBI238:
 357              		.loc 5 491 27 view .LVU112
 358              	.LBB239:
 359              		.loc 5 493 3 view .LVU113
 360 0016 0023     		movs	r3, #0
 361              		.syntax unified
 362              	@ 493 "../../../os/common/ext/ARM/CMSIS/Core/Include/cmsis_gcc.h" 1
 363 0018 83F31188 		MSR basepri, r3
 364              	@ 0 "" 2
 365              	.LVL18:
 366              		.loc 5 493 3 is_stmt 0 view .LVU114
 367              		.thumb
 368              		.syntax unified
 369              	.LBE239:
 370              	.LBE238:
 371              	.LBE237:
 372              	.LBE236:
 373              	.LBE235:
 374              		.loc 1 177 1 view .LVU115
 375 001c 7047     		bx	lr
 376              	.L15:
 377              		.loc 1 171 7 is_stmt 1 view .LVU116
 378              		.loc 1 171 20 is_stmt 0 view .LVU117
 379 001e 1B68     		ldr	r3, [r3]
 380              		.loc 1 171 15 view .LVU118
 381 0020 1360     		str	r3, [r2]
 382              		.loc 1 172 7 is_stmt 1 view .LVU119
 383              		.loc 1 176 3 view .LVU120
 384              	.LBB244:
 385              		.loc 3 421 20 view .LVU121
 386              	.LBB243:
 387              		.loc 3 423 23 view .LVU122
 388              		.loc 3 424 34 view .LVU123
 389              		.loc 3 430 3 view .LVU124
 390              		.loc 3 430 3 view .LVU125
 391              		.loc 3 430 3 view .LVU126
 392              		.loc 3 434 3 view .LVU127
 393              	.LBB242:
 394              		.loc 4 830 27 view .LVU128
 395              		.loc 4 833 3 view .LVU129
 396              	.LVL19:
 397              	.LBB241:
 398              		.loc 5 491 27 view .LVU130
 399              	.LBB240:
ARM GAS  C:\Users\DEVELO~1\AppData\Local\Temp\ccrRmbj9.s 			page 8


 400              		.loc 5 493 3 view .LVU131
 401 0022 0023     		movs	r3, #0
 402              		.syntax unified
 403              	@ 493 "../../../os/common/ext/ARM/CMSIS/Core/Include/cmsis_gcc.h" 1
 404 0024 83F31188 		MSR basepri, r3
 405              	@ 0 "" 2
 406              	.LVL20:
 407              		.loc 5 493 3 is_stmt 0 view .LVU132
 408              		.thumb
 409              		.syntax unified
 410              	.LBE240:
 411              	.LBE241:
 412              	.LBE242:
 413              	.LBE243:
 414              	.LBE244:
 415              		.loc 1 177 1 view .LVU133
 416 0028 7047     		bx	lr
 417              		.cfi_endproc
 418              	.LFE348:
 419              		.size	chEvtUnregister, .-chEvtUnregister
 420              		.section	.text.chEvtGetAndClearEventsI,"ax",%progbits
 421              		.align	1
 422              		.p2align 4,,15
 423              		.global	chEvtGetAndClearEventsI
 424              		.syntax unified
 425              		.thumb
 426              		.thumb_func
 427              		.type	chEvtGetAndClearEventsI, %function
 428              	chEvtGetAndClearEventsI:
 429              	.LVL21:
 430              	.LFB349:
 431              		.loc 1 187 57 is_stmt 1 view -0
 432              		.cfi_startproc
 433              		@ args = 0, pretend = 0, frame = 0
 434              		@ frame_needed = 0, uses_anonymous_args = 0
 435              		@ link register save eliminated.
 436              		.loc 1 188 3 view .LVU135
 437              	.LBB245:
 438              	.LBI245:
 439              		.loc 2 341 25 view .LVU136
 440              	.LBB246:
 441              		.loc 2 343 3 view .LVU137
 442              		.loc 2 343 10 is_stmt 0 view .LVU138
 443 0000 034B     		ldr	r3, .L17
 444 0002 DB68     		ldr	r3, [r3, #12]
 445              	.LVL22:
 446              		.loc 2 343 10 view .LVU139
 447              	.LBE246:
 448              	.LBE245:
 449              		.loc 1 189 3 is_stmt 1 view .LVU140
 450              		.loc 1 191 21 view .LVU141
 451              		.loc 1 193 3 view .LVU142
 452              		.loc 1 193 13 is_stmt 0 view .LVU143
 453 0004 9A6B     		ldr	r2, [r3, #56]
 454              	.LVL23:
 455              		.loc 1 194 3 is_stmt 1 view .LVU144
 456              		.loc 1 194 20 is_stmt 0 view .LVU145
ARM GAS  C:\Users\DEVELO~1\AppData\Local\Temp\ccrRmbj9.s 			page 9


 457 0006 22EA0001 		bic	r1, r2, r0
 458              		.loc 1 197 1 view .LVU146
 459 000a 1040     		ands	r0, r0, r2
 460              	.LVL24:
 461              		.loc 1 194 20 view .LVU147
 462 000c 9963     		str	r1, [r3, #56]
 463              		.loc 1 196 3 is_stmt 1 view .LVU148
 464              		.loc 1 197 1 is_stmt 0 view .LVU149
 465 000e 7047     		bx	lr
 466              	.L18:
 467              		.align	2
 468              	.L17:
 469 0010 00000000 		.word	ch0
 470              		.cfi_endproc
 471              	.LFE349:
 472              		.size	chEvtGetAndClearEventsI, .-chEvtGetAndClearEventsI
 473              		.section	.text.chEvtGetAndClearEvents,"ax",%progbits
 474              		.align	1
 475              		.p2align 4,,15
 476              		.global	chEvtGetAndClearEvents
 477              		.syntax unified
 478              		.thumb
 479              		.thumb_func
 480              		.type	chEvtGetAndClearEvents, %function
 481              	chEvtGetAndClearEvents:
 482              	.LVL25:
 483              	.LFB350:
 484              		.loc 1 207 56 is_stmt 1 view -0
 485              		.cfi_startproc
 486              		@ args = 0, pretend = 0, frame = 0
 487              		@ frame_needed = 0, uses_anonymous_args = 0
 488              		@ link register save eliminated.
 489              		.loc 1 208 3 view .LVU151
 490              		.loc 1 210 3 view .LVU152
 491              	.LBB247:
 492              	.LBI247:
 493              		.loc 3 407 20 view .LVU153
 494              		.loc 3 409 3 view .LVU154
 495              	.LBB248:
 496              	.LBI248:
 497              		.loc 4 806 27 view .LVU155
 498              		.loc 4 814 3 view .LVU156
 499              	.LBB249:
 500              	.LBI249:
 501              		.loc 5 491 27 view .LVU157
 502              	.LBB250:
 503              		.loc 5 493 3 view .LVU158
 504              	.LBE250:
 505              	.LBE249:
 506              	.LBE248:
 507              	.LBE247:
 508              		.loc 1 207 56 is_stmt 0 view .LVU159
 509 0000 10B4     		push	{r4}
 510              		.cfi_def_cfa_offset 4
 511              		.cfi_offset 4, -4
 512              	.LBB254:
 513              	.LBB253:
ARM GAS  C:\Users\DEVELO~1\AppData\Local\Temp\ccrRmbj9.s 			page 10


 514              	.LBB252:
 515              	.LBB251:
 516              		.loc 5 493 3 view .LVU160
 517 0002 3023     		movs	r3, #48
 518              		.syntax unified
 519              	@ 493 "../../../os/common/ext/ARM/CMSIS/Core/Include/cmsis_gcc.h" 1
 520 0004 83F31188 		MSR basepri, r3
 521              	@ 0 "" 2
 522              	.LVL26:
 523              		.loc 5 493 3 view .LVU161
 524              		.thumb
 525              		.syntax unified
 526              	.LBE251:
 527              	.LBE252:
 528              	.LBE253:
 529              		.loc 3 410 35 is_stmt 1 view .LVU162
 530              		.loc 3 411 21 view .LVU163
 531              	.LBE254:
 532              		.loc 1 211 3 view .LVU164
 533              	.LBB255:
 534              	.LBI255:
 535              		.loc 1 187 13 view .LVU165
 536              	.LBB256:
 537              		.loc 1 188 3 view .LVU166
 538              	.LBB257:
 539              	.LBI257:
 540              		.loc 2 341 25 view .LVU167
 541              	.LBB258:
 542              		.loc 2 343 3 view .LVU168
 543              		.loc 2 343 10 is_stmt 0 view .LVU169
 544 0008 054B     		ldr	r3, .L21
 545              	.LBE258:
 546              	.LBE257:
 547              	.LBE256:
 548              	.LBE255:
 549              	.LBB262:
 550              	.LBB263:
 551              	.LBB264:
 552              	.LBB265:
 553              	.LBB266:
 554              		.loc 5 493 3 view .LVU170
 555 000a 0021     		movs	r1, #0
 556              	.LBE266:
 557              	.LBE265:
 558              	.LBE264:
 559              	.LBE263:
 560              	.LBE262:
 561              	.LBB271:
 562              	.LBB261:
 563              	.LBB260:
 564              	.LBB259:
 565              		.loc 2 343 10 view .LVU171
 566 000c DA68     		ldr	r2, [r3, #12]
 567              	.LVL27:
 568              		.loc 2 343 10 view .LVU172
 569              	.LBE259:
 570              	.LBE260:
ARM GAS  C:\Users\DEVELO~1\AppData\Local\Temp\ccrRmbj9.s 			page 11


 571              		.loc 1 189 3 is_stmt 1 view .LVU173
 572              		.loc 1 191 21 view .LVU174
 573              		.loc 1 193 3 view .LVU175
 574              		.loc 1 193 13 is_stmt 0 view .LVU176
 575 000e 936B     		ldr	r3, [r2, #56]
 576              	.LVL28:
 577              		.loc 1 194 3 is_stmt 1 view .LVU177
 578              		.loc 1 194 20 is_stmt 0 view .LVU178
 579 0010 23EA0004 		bic	r4, r3, r0
 580 0014 9463     		str	r4, [r2, #56]
 581              		.loc 1 196 3 is_stmt 1 view .LVU179
 582              	.LVL29:
 583              		.loc 1 196 3 is_stmt 0 view .LVU180
 584              	.LBE261:
 585              	.LBE271:
 586              		.loc 1 212 3 is_stmt 1 view .LVU181
 587              	.LBB272:
 588              	.LBI262:
 589              		.loc 3 421 20 view .LVU182
 590              	.LBB270:
 591              		.loc 3 423 23 view .LVU183
 592              		.loc 3 424 34 view .LVU184
 593              		.loc 3 430 3 view .LVU185
 594              		.loc 3 430 3 view .LVU186
 595              		.loc 3 430 3 view .LVU187
 596              		.loc 3 434 3 view .LVU188
 597              	.LBB269:
 598              	.LBI264:
 599              		.loc 4 830 27 view .LVU189
 600              		.loc 4 833 3 view .LVU190
 601              	.LBB268:
 602              	.LBI265:
 603              		.loc 5 491 27 view .LVU191
 604              	.LBB267:
 605              		.loc 5 493 3 view .LVU192
 606              		.syntax unified
 607              	@ 493 "../../../os/common/ext/ARM/CMSIS/Core/Include/cmsis_gcc.h" 1
 608 0016 81F31188 		MSR basepri, r1
 609              	@ 0 "" 2
 610              	.LVL30:
 611              		.loc 5 493 3 is_stmt 0 view .LVU193
 612              		.thumb
 613              		.syntax unified
 614              	.LBE267:
 615              	.LBE268:
 616              	.LBE269:
 617              	.LBE270:
 618              	.LBE272:
 619              		.loc 1 214 3 is_stmt 1 view .LVU194
 620              		.loc 1 215 1 is_stmt 0 view .LVU195
 621 001a 1840     		ands	r0, r0, r3
 622              	.LVL31:
 623              		.loc 1 215 1 view .LVU196
 624 001c 10BC     		pop	{r4}
 625              		.cfi_restore 4
 626              		.cfi_def_cfa_offset 0
 627 001e 7047     		bx	lr
ARM GAS  C:\Users\DEVELO~1\AppData\Local\Temp\ccrRmbj9.s 			page 12


 628              	.L22:
 629              		.align	2
 630              	.L21:
 631 0020 00000000 		.word	ch0
 632              		.cfi_endproc
 633              	.LFE350:
 634              		.size	chEvtGetAndClearEvents, .-chEvtGetAndClearEvents
 635              		.section	.text.chEvtAddEvents,"ax",%progbits
 636              		.align	1
 637              		.p2align 4,,15
 638              		.global	chEvtAddEvents
 639              		.syntax unified
 640              		.thumb
 641              		.thumb_func
 642              		.type	chEvtAddEvents, %function
 643              	chEvtAddEvents:
 644              	.LVL32:
 645              	.LFB351:
 646              		.loc 1 226 48 is_stmt 1 view -0
 647              		.cfi_startproc
 648              		@ args = 0, pretend = 0, frame = 0
 649              		@ frame_needed = 0, uses_anonymous_args = 0
 650              		@ link register save eliminated.
 651              		.loc 1 227 3 view .LVU198
 652              		.loc 1 229 3 view .LVU199
 653              	.LBB273:
 654              	.LBI273:
 655              		.loc 3 407 20 view .LVU200
 656              		.loc 3 409 3 view .LVU201
 657              	.LBB274:
 658              	.LBI274:
 659              		.loc 4 806 27 view .LVU202
 660              		.loc 4 814 3 view .LVU203
 661              	.LBB275:
 662              	.LBI275:
 663              		.loc 5 491 27 view .LVU204
 664              	.LBB276:
 665              		.loc 5 493 3 view .LVU205
 666 0000 3023     		movs	r3, #48
 667              		.syntax unified
 668              	@ 493 "../../../os/common/ext/ARM/CMSIS/Core/Include/cmsis_gcc.h" 1
 669 0002 83F31188 		MSR basepri, r3
 670              	@ 0 "" 2
 671              	.LVL33:
 672              		.loc 5 493 3 is_stmt 0 view .LVU206
 673              		.thumb
 674              		.syntax unified
 675              	.LBE276:
 676              	.LBE275:
 677              	.LBE274:
 678              		.loc 3 410 35 is_stmt 1 view .LVU207
 679              		.loc 3 411 21 view .LVU208
 680              	.LBE273:
 681              		.loc 1 230 3 view .LVU209
 682              	.LBB277:
 683              	.LBI277:
 684              		.file 6 "../../../os/rt/include/chevents.h"
ARM GAS  C:\Users\DEVELO~1\AppData\Local\Temp\ccrRmbj9.s 			page 13


 685              		.loc 6 273 27 view .LVU210
 686              	.LBB278:
 687              		.loc 6 275 3 view .LVU211
 688              		.loc 6 275 10 is_stmt 0 view .LVU212
 689 0006 044B     		ldr	r3, .L24
 690              	.LBE278:
 691              	.LBE277:
 692              	.LBB280:
 693              	.LBB281:
 694              	.LBB282:
 695              	.LBB283:
 696              	.LBB284:
 697              		.loc 5 493 3 view .LVU213
 698 0008 0022     		movs	r2, #0
 699              	.LBE284:
 700              	.LBE283:
 701              	.LBE282:
 702              	.LBE281:
 703              	.LBE280:
 704              	.LBB289:
 705              	.LBB279:
 706              		.loc 6 275 10 view .LVU214
 707 000a DB68     		ldr	r3, [r3, #12]
 708              		.loc 6 275 43 view .LVU215
 709 000c 996B     		ldr	r1, [r3, #56]
 710 000e 0843     		orrs	r0, r0, r1
 711              	.LVL34:
 712              		.loc 6 275 43 view .LVU216
 713 0010 9863     		str	r0, [r3, #56]
 714              	.LVL35:
 715              		.loc 6 275 43 view .LVU217
 716              	.LBE279:
 717              	.LBE289:
 718              		.loc 1 231 3 is_stmt 1 view .LVU218
 719              	.LBB290:
 720              	.LBI280:
 721              		.loc 3 421 20 view .LVU219
 722              	.LBB288:
 723              		.loc 3 423 23 view .LVU220
 724              		.loc 3 424 34 view .LVU221
 725              		.loc 3 430 3 view .LVU222
 726              		.loc 3 430 3 view .LVU223
 727              		.loc 3 430 3 view .LVU224
 728              		.loc 3 434 3 view .LVU225
 729              	.LBB287:
 730              	.LBI282:
 731              		.loc 4 830 27 view .LVU226
 732              		.loc 4 833 3 view .LVU227
 733              	.LBB286:
 734              	.LBI283:
 735              		.loc 5 491 27 view .LVU228
 736              	.LBB285:
 737              		.loc 5 493 3 view .LVU229
 738              		.syntax unified
 739              	@ 493 "../../../os/common/ext/ARM/CMSIS/Core/Include/cmsis_gcc.h" 1
 740 0012 82F31188 		MSR basepri, r2
 741              	@ 0 "" 2
ARM GAS  C:\Users\DEVELO~1\AppData\Local\Temp\ccrRmbj9.s 			page 14


 742              	.LVL36:
 743              		.loc 5 493 3 is_stmt 0 view .LVU230
 744              		.thumb
 745              		.syntax unified
 746              	.LBE285:
 747              	.LBE286:
 748              	.LBE287:
 749              	.LBE288:
 750              	.LBE290:
 751              		.loc 1 233 3 is_stmt 1 view .LVU231
 752              		.loc 1 234 1 is_stmt 0 view .LVU232
 753 0016 7047     		bx	lr
 754              	.L25:
 755              		.align	2
 756              	.L24:
 757 0018 00000000 		.word	ch0
 758              		.cfi_endproc
 759              	.LFE351:
 760              		.size	chEvtAddEvents, .-chEvtAddEvents
 761              		.section	.text.chEvtGetAndClearFlagsI,"ax",%progbits
 762              		.align	1
 763              		.p2align 4,,15
 764              		.global	chEvtGetAndClearFlagsI
 765              		.syntax unified
 766              		.thumb
 767              		.thumb_func
 768              		.type	chEvtGetAndClearFlagsI, %function
 769              	chEvtGetAndClearFlagsI:
 770              	.LVL37:
 771              	.LFB352:
 772              		.loc 1 247 60 is_stmt 1 view -0
 773              		.cfi_startproc
 774              		@ args = 0, pretend = 0, frame = 0
 775              		@ frame_needed = 0, uses_anonymous_args = 0
 776              		@ link register save eliminated.
 777              		.loc 1 248 3 view .LVU234
 778              		.loc 1 250 21 view .LVU235
 779              		.loc 1 251 3 view .LVU236
 780              		.loc 1 251 3 view .LVU237
 781              		.loc 1 251 3 view .LVU238
 782              		.loc 1 253 3 view .LVU239
 783              		.loc 1 256 16 is_stmt 0 view .LVU240
 784 0000 D0E90323 		ldrd	r2, r3, [r0, #12]
 785              		.loc 1 254 14 view .LVU241
 786 0004 0021     		movs	r1, #0
 787 0006 C160     		str	r1, [r0, #12]
 788              		.loc 1 256 3 is_stmt 1 view .LVU242
 789              		.loc 1 257 1 is_stmt 0 view .LVU243
 790 0008 02EA0300 		and	r0, r2, r3
 791              	.LVL38:
 792              		.loc 1 257 1 view .LVU244
 793 000c 7047     		bx	lr
 794              		.cfi_endproc
 795              	.LFE352:
 796              		.size	chEvtGetAndClearFlagsI, .-chEvtGetAndClearFlagsI
 797 000e 00BF     		.section	.text.chEvtGetAndClearFlags,"ax",%progbits
 798              		.align	1
ARM GAS  C:\Users\DEVELO~1\AppData\Local\Temp\ccrRmbj9.s 			page 15


 799              		.p2align 4,,15
 800              		.global	chEvtGetAndClearFlags
 801              		.syntax unified
 802              		.thumb
 803              		.thumb_func
 804              		.type	chEvtGetAndClearFlags, %function
 805              	chEvtGetAndClearFlags:
 806              	.LVL39:
 807              	.LFB353:
 808              		.loc 1 270 59 is_stmt 1 view -0
 809              		.cfi_startproc
 810              		@ args = 0, pretend = 0, frame = 0
 811              		@ frame_needed = 0, uses_anonymous_args = 0
 812              		@ link register save eliminated.
 813              		.loc 1 271 3 view .LVU246
 814              		.loc 1 273 3 view .LVU247
 815              		.loc 1 273 3 view .LVU248
 816              		.loc 1 273 3 view .LVU249
 817              		.loc 1 275 3 view .LVU250
 818              	.LBB291:
 819              	.LBI291:
 820              		.loc 3 407 20 view .LVU251
 821              		.loc 3 409 3 view .LVU252
 822              	.LBB292:
 823              	.LBI292:
 824              		.loc 4 806 27 view .LVU253
 825              		.loc 4 814 3 view .LVU254
 826              	.LBB293:
 827              	.LBI293:
 828              		.loc 5 491 27 view .LVU255
 829              	.LBB294:
 830              		.loc 5 493 3 view .LVU256
 831 0000 3023     		movs	r3, #48
 832              		.syntax unified
 833              	@ 493 "../../../os/common/ext/ARM/CMSIS/Core/Include/cmsis_gcc.h" 1
 834 0002 83F31188 		MSR basepri, r3
 835              	@ 0 "" 2
 836              	.LVL40:
 837              		.loc 5 493 3 is_stmt 0 view .LVU257
 838              		.thumb
 839              		.syntax unified
 840              	.LBE294:
 841              	.LBE293:
 842              	.LBE292:
 843              		.loc 3 410 35 is_stmt 1 view .LVU258
 844              		.loc 3 411 21 view .LVU259
 845              	.LBE291:
 846              		.loc 1 276 3 view .LVU260
 847              		.loc 1 277 14 is_stmt 0 view .LVU261
 848 0006 0023     		movs	r3, #0
 849              		.loc 1 276 9 view .LVU262
 850 0008 C268     		ldr	r2, [r0, #12]
 851              	.LVL41:
 852              		.loc 1 277 3 is_stmt 1 view .LVU263
 853              		.loc 1 277 14 is_stmt 0 view .LVU264
 854 000a C360     		str	r3, [r0, #12]
 855              		.loc 1 278 3 is_stmt 1 view .LVU265
ARM GAS  C:\Users\DEVELO~1\AppData\Local\Temp\ccrRmbj9.s 			page 16


 856              	.LBB295:
 857              	.LBI295:
 858              		.loc 3 421 20 view .LVU266
 859              	.LBB296:
 860              		.loc 3 423 23 view .LVU267
 861              		.loc 3 424 34 view .LVU268
 862              		.loc 3 430 3 view .LVU269
 863              		.loc 3 430 3 view .LVU270
 864              		.loc 3 430 3 view .LVU271
 865              		.loc 3 434 3 view .LVU272
 866              	.LBB297:
 867              	.LBI297:
 868              		.loc 4 830 27 view .LVU273
 869              		.loc 4 833 3 view .LVU274
 870              	.LVL42:
 871              	.LBB298:
 872              	.LBI298:
 873              		.loc 5 491 27 view .LVU275
 874              	.LBB299:
 875              		.loc 5 493 3 view .LVU276
 876              		.syntax unified
 877              	@ 493 "../../../os/common/ext/ARM/CMSIS/Core/Include/cmsis_gcc.h" 1
 878 000c 83F31188 		MSR basepri, r3
 879              	@ 0 "" 2
 880              	.LVL43:
 881              		.loc 5 493 3 is_stmt 0 view .LVU277
 882              		.thumb
 883              		.syntax unified
 884              	.LBE299:
 885              	.LBE298:
 886              	.LBE297:
 887              	.LBE296:
 888              	.LBE295:
 889              		.loc 1 280 3 is_stmt 1 view .LVU278
 890              		.loc 1 280 16 is_stmt 0 view .LVU279
 891 0010 0069     		ldr	r0, [r0, #16]
 892              	.LVL44:
 893              		.loc 1 281 1 view .LVU280
 894 0012 1040     		ands	r0, r0, r2
 895 0014 7047     		bx	lr
 896              		.cfi_endproc
 897              	.LFE353:
 898              		.size	chEvtGetAndClearFlags, .-chEvtGetAndClearFlags
 899 0016 00BF     		.section	.text.chEvtSignalI,"ax",%progbits
 900              		.align	1
 901              		.p2align 4,,15
 902              		.global	chEvtSignalI
 903              		.syntax unified
 904              		.thumb
 905              		.thumb_func
 906              		.type	chEvtSignalI, %function
 907              	chEvtSignalI:
 908              	.LVL45:
 909              	.LFB354:
 910              		.loc 1 295 53 is_stmt 1 view -0
 911              		.cfi_startproc
 912              		@ args = 0, pretend = 0, frame = 0
ARM GAS  C:\Users\DEVELO~1\AppData\Local\Temp\ccrRmbj9.s 			page 17


 913              		@ frame_needed = 0, uses_anonymous_args = 0
 914              		@ link register save eliminated.
 915              		.loc 1 297 21 view .LVU282
 916              		.loc 1 298 3 view .LVU283
 917              		.loc 1 298 3 view .LVU284
 918              		.loc 1 298 3 view .LVU285
 919              		.loc 1 300 3 view .LVU286
 920              		.loc 1 300 16 is_stmt 0 view .LVU287
 921 0000 826B     		ldr	r2, [r0, #56]
 922              		.loc 1 302 11 view .LVU288
 923 0002 90F82430 		ldrb	r3, [r0, #36]	@ zero_extendqisi2
 924              		.loc 1 300 16 view .LVU289
 925 0006 1143     		orrs	r1, r1, r2
 926              	.LVL46:
 927              		.loc 1 302 6 view .LVU290
 928 0008 0A2B     		cmp	r3, #10
 929              		.loc 1 300 16 view .LVU291
 930 000a 8163     		str	r1, [r0, #56]
 931              		.loc 1 302 3 is_stmt 1 view .LVU292
 932              		.loc 1 302 6 is_stmt 0 view .LVU293
 933 000c 09D0     		beq	.L32
 934              		.loc 1 303 59 view .LVU294
 935 000e 0B2B     		cmp	r3, #11
 936 0010 00D0     		beq	.L33
 937              	.L28:
 938              		.loc 1 309 1 view .LVU295
 939 0012 7047     		bx	lr
 940              	.L33:
 941              		.loc 1 305 30 view .LVU296
 942 0014 836A     		ldr	r3, [r0, #40]
 943              		.loc 1 304 41 view .LVU297
 944 0016 8B43     		bics	r3, r3, r1
 945 0018 FBD1     		bne	.L28
 946              	.L30:
 947              		.loc 1 306 5 is_stmt 1 view .LVU298
 948              		.loc 1 306 18 is_stmt 0 view .LVU299
 949 001a 0023     		movs	r3, #0
 950 001c 8362     		str	r3, [r0, #40]
 951              		.loc 1 307 5 is_stmt 1 view .LVU300
 952              		.loc 1 307 12 is_stmt 0 view .LVU301
 953 001e FFF7FEBF 		b	chSchReadyI
 954              	.LVL47:
 955              	.L32:
 956              		.loc 1 303 23 discriminator 1 view .LVU302
 957 0022 836A     		ldr	r3, [r0, #40]
 958              		.loc 1 302 40 discriminator 1 view .LVU303
 959 0024 1942     		tst	r1, r3
 960 0026 F8D1     		bne	.L30
 961 0028 7047     		bx	lr
 962              		.cfi_endproc
 963              	.LFE354:
 964              		.size	chEvtSignalI, .-chEvtSignalI
 965 002a 00BF     		.section	.text.chEvtSignal,"ax",%progbits
 966              		.align	1
 967              		.p2align 4,,15
 968              		.global	chEvtSignal
 969              		.syntax unified
ARM GAS  C:\Users\DEVELO~1\AppData\Local\Temp\ccrRmbj9.s 			page 18


 970              		.thumb
 971              		.thumb_func
 972              		.type	chEvtSignal, %function
 973              	chEvtSignal:
 974              	.LVL48:
 975              	.LFB355:
 976              		.loc 1 319 52 is_stmt 1 view -0
 977              		.cfi_startproc
 978              		@ args = 0, pretend = 0, frame = 0
 979              		@ frame_needed = 0, uses_anonymous_args = 0
 980              		.loc 1 321 3 view .LVU305
 981              		.loc 1 321 3 view .LVU306
 982              		.loc 1 321 3 view .LVU307
 983              		.loc 1 323 3 view .LVU308
 984              	.LBB311:
 985              	.LBI311:
 986              		.loc 3 407 20 view .LVU309
 987              		.loc 3 409 3 view .LVU310
 988              	.LBB312:
 989              	.LBI312:
 990              		.loc 4 806 27 view .LVU311
 991              		.loc 4 814 3 view .LVU312
 992              	.LBB313:
 993              	.LBI313:
 994              		.loc 5 491 27 view .LVU313
 995              	.LBB314:
 996              		.loc 5 493 3 view .LVU314
 997              	.LBE314:
 998              	.LBE313:
 999              	.LBE312:
 1000              	.LBE311:
 1001              		.loc 1 319 52 is_stmt 0 view .LVU315
 1002 0000 08B5     		push	{r3, lr}
 1003              		.cfi_def_cfa_offset 8
 1004              		.cfi_offset 3, -8
 1005              		.cfi_offset 14, -4
 1006              	.LBB318:
 1007              	.LBB317:
 1008              	.LBB316:
 1009              	.LBB315:
 1010              		.loc 5 493 3 view .LVU316
 1011 0002 3023     		movs	r3, #48
 1012              		.syntax unified
 1013              	@ 493 "../../../os/common/ext/ARM/CMSIS/Core/Include/cmsis_gcc.h" 1
 1014 0004 83F31188 		MSR basepri, r3
 1015              	@ 0 "" 2
 1016              	.LVL49:
 1017              		.loc 5 493 3 view .LVU317
 1018              		.thumb
 1019              		.syntax unified
 1020              	.LBE315:
 1021              	.LBE316:
 1022              	.LBE317:
 1023              		.loc 3 410 35 is_stmt 1 view .LVU318
 1024              		.loc 3 411 21 view .LVU319
 1025              	.LBE318:
 1026              		.loc 1 324 3 view .LVU320
ARM GAS  C:\Users\DEVELO~1\AppData\Local\Temp\ccrRmbj9.s 			page 19


 1027              	.LBB319:
 1028              	.LBI319:
 1029              		.loc 1 295 6 view .LVU321
 1030              	.LBB320:
 1031              		.loc 1 297 21 view .LVU322
 1032              		.loc 1 298 3 view .LVU323
 1033              		.loc 1 298 3 view .LVU324
 1034              		.loc 1 298 3 view .LVU325
 1035              		.loc 1 300 3 view .LVU326
 1036              		.loc 1 300 16 is_stmt 0 view .LVU327
 1037 0008 826B     		ldr	r2, [r0, #56]
 1038              		.loc 1 302 11 view .LVU328
 1039 000a 90F82430 		ldrb	r3, [r0, #36]	@ zero_extendqisi2
 1040              		.loc 1 300 16 view .LVU329
 1041 000e 1143     		orrs	r1, r1, r2
 1042              	.LVL50:
 1043              		.loc 1 302 6 view .LVU330
 1044 0010 0A2B     		cmp	r3, #10
 1045              		.loc 1 300 16 view .LVU331
 1046 0012 8163     		str	r1, [r0, #56]
 1047              		.loc 1 302 3 is_stmt 1 view .LVU332
 1048              		.loc 1 302 6 is_stmt 0 view .LVU333
 1049 0014 14D0     		beq	.L40
 1050              		.loc 1 303 59 view .LVU334
 1051 0016 0B2B     		cmp	r3, #11
 1052 0018 05D0     		beq	.L41
 1053              	.L37:
 1054              	.LVL51:
 1055              		.loc 1 303 59 view .LVU335
 1056              	.LBE320:
 1057              	.LBE319:
 1058              		.loc 1 325 3 is_stmt 1 view .LVU336
 1059 001a FFF7FEFF 		bl	chSchRescheduleS
 1060              	.LVL52:
 1061              		.loc 1 326 3 view .LVU337
 1062              	.LBB323:
 1063              	.LBI323:
 1064              		.loc 3 421 20 view .LVU338
 1065              	.LBB324:
 1066              		.loc 3 423 23 view .LVU339
 1067              		.loc 3 424 34 view .LVU340
 1068              		.loc 3 430 3 view .LVU341
 1069              		.loc 3 430 3 view .LVU342
 1070              		.loc 3 430 3 view .LVU343
 1071              		.loc 3 434 3 view .LVU344
 1072              	.LBB325:
 1073              	.LBI325:
 1074              		.loc 4 830 27 view .LVU345
 1075              		.loc 4 833 3 view .LVU346
 1076              	.LBB326:
 1077              	.LBI326:
 1078              		.loc 5 491 27 view .LVU347
 1079              	.LBB327:
 1080              		.loc 5 493 3 view .LVU348
 1081 001e 0023     		movs	r3, #0
 1082              		.syntax unified
 1083              	@ 493 "../../../os/common/ext/ARM/CMSIS/Core/Include/cmsis_gcc.h" 1
ARM GAS  C:\Users\DEVELO~1\AppData\Local\Temp\ccrRmbj9.s 			page 20


 1084 0020 83F31188 		MSR basepri, r3
 1085              	@ 0 "" 2
 1086              	.LVL53:
 1087              		.loc 5 493 3 is_stmt 0 view .LVU349
 1088              		.thumb
 1089              		.syntax unified
 1090              	.LBE327:
 1091              	.LBE326:
 1092              	.LBE325:
 1093              	.LBE324:
 1094              	.LBE323:
 1095              		.loc 1 327 1 view .LVU350
 1096 0024 08BD     		pop	{r3, pc}
 1097              	.LVL54:
 1098              	.L41:
 1099              	.LBB332:
 1100              	.LBB321:
 1101              		.loc 1 305 30 view .LVU351
 1102 0026 836A     		ldr	r3, [r0, #40]
 1103              		.loc 1 304 41 view .LVU352
 1104 0028 8B43     		bics	r3, r3, r1
 1105 002a F6D1     		bne	.L37
 1106              		.loc 1 306 5 is_stmt 1 view .LVU353
 1107              		.loc 1 306 18 is_stmt 0 view .LVU354
 1108 002c 0023     		movs	r3, #0
 1109 002e 8362     		str	r3, [r0, #40]
 1110              		.loc 1 307 5 is_stmt 1 view .LVU355
 1111              		.loc 1 307 12 is_stmt 0 view .LVU356
 1112 0030 FFF7FEFF 		bl	chSchReadyI
 1113              	.LVL55:
 1114              	.L42:
 1115              		.loc 1 307 12 view .LVU357
 1116              	.LBE321:
 1117              	.LBE332:
 1118              		.loc 1 325 3 is_stmt 1 view .LVU358
 1119 0034 FFF7FEFF 		bl	chSchRescheduleS
 1120              	.LVL56:
 1121              		.loc 1 326 3 view .LVU359
 1122              	.LBB333:
 1123              		.loc 3 421 20 view .LVU360
 1124              	.LBB331:
 1125              		.loc 3 423 23 view .LVU361
 1126              		.loc 3 424 34 view .LVU362
 1127              		.loc 3 430 3 view .LVU363
 1128              		.loc 3 430 3 view .LVU364
 1129              		.loc 3 430 3 view .LVU365
 1130              		.loc 3 434 3 view .LVU366
 1131              	.LBB330:
 1132              		.loc 4 830 27 view .LVU367
 1133              		.loc 4 833 3 view .LVU368
 1134              	.LBB329:
 1135              		.loc 5 491 27 view .LVU369
 1136              	.LBB328:
 1137              		.loc 5 493 3 view .LVU370
 1138 0038 0023     		movs	r3, #0
 1139              		.syntax unified
 1140              	@ 493 "../../../os/common/ext/ARM/CMSIS/Core/Include/cmsis_gcc.h" 1
ARM GAS  C:\Users\DEVELO~1\AppData\Local\Temp\ccrRmbj9.s 			page 21


 1141 003a 83F31188 		MSR basepri, r3
 1142              	@ 0 "" 2
 1143              	.LVL57:
 1144              		.loc 5 493 3 is_stmt 0 view .LVU371
 1145              		.thumb
 1146              		.syntax unified
 1147              	.LBE328:
 1148              	.LBE329:
 1149              	.LBE330:
 1150              	.LBE331:
 1151              	.LBE333:
 1152              		.loc 1 327 1 view .LVU372
 1153 003e 08BD     		pop	{r3, pc}
 1154              	.LVL58:
 1155              	.L40:
 1156              	.LBB334:
 1157              	.LBB322:
 1158              		.loc 1 303 23 view .LVU373
 1159 0040 836A     		ldr	r3, [r0, #40]
 1160              		.loc 1 302 40 view .LVU374
 1161 0042 1942     		tst	r1, r3
 1162 0044 E9D0     		beq	.L37
 1163              		.loc 1 306 5 is_stmt 1 view .LVU375
 1164              		.loc 1 306 18 is_stmt 0 view .LVU376
 1165 0046 0023     		movs	r3, #0
 1166 0048 8362     		str	r3, [r0, #40]
 1167              		.loc 1 307 5 is_stmt 1 view .LVU377
 1168              		.loc 1 307 12 is_stmt 0 view .LVU378
 1169 004a FFF7FEFF 		bl	chSchReadyI
 1170              	.LVL59:
 1171              		.loc 1 307 12 view .LVU379
 1172 004e F1E7     		b	.L42
 1173              	.LBE322:
 1174              	.LBE334:
 1175              		.cfi_endproc
 1176              	.LFE355:
 1177              		.size	chEvtSignal, .-chEvtSignal
 1178              		.section	.text.chEvtBroadcastFlagsI,"ax",%progbits
 1179              		.align	1
 1180              		.p2align 4,,15
 1181              		.global	chEvtBroadcastFlagsI
 1182              		.syntax unified
 1183              		.thumb
 1184              		.thumb_func
 1185              		.type	chEvtBroadcastFlagsI, %function
 1186              	chEvtBroadcastFlagsI:
 1187              	.LVL60:
 1188              	.LFB356:
 1189              		.loc 1 346 68 is_stmt 1 view -0
 1190              		.cfi_startproc
 1191              		@ args = 0, pretend = 0, frame = 0
 1192              		@ frame_needed = 0, uses_anonymous_args = 0
 1193              		.loc 1 347 3 view .LVU381
 1194              		.loc 1 349 21 view .LVU382
 1195              		.loc 1 350 3 view .LVU383
 1196              		.loc 1 350 3 view .LVU384
 1197              		.loc 1 350 3 view .LVU385
ARM GAS  C:\Users\DEVELO~1\AppData\Local\Temp\ccrRmbj9.s 			page 22


 1198              		.loc 1 352 3 view .LVU386
 1199              		.loc 1 346 68 is_stmt 0 view .LVU387
 1200 0000 F8B5     		push	{r3, r4, r5, r6, r7, lr}
 1201              		.cfi_def_cfa_offset 24
 1202              		.cfi_offset 3, -24
 1203              		.cfi_offset 4, -20
 1204              		.cfi_offset 5, -16
 1205              		.cfi_offset 6, -12
 1206              		.cfi_offset 7, -8
 1207              		.cfi_offset 14, -4
 1208              		.loc 1 352 7 view .LVU388
 1209 0002 0468     		ldr	r4, [r0]
 1210              	.LVL61:
 1211              		.loc 1 354 3 is_stmt 1 view .LVU389
 1212              		.loc 1 354 14 view .LVU390
 1213 0004 A042     		cmp	r0, r4
 1214 0006 21D0     		beq	.L43
 1215 0008 0746     		mov	r7, r0
 1216 000a 0D46     		mov	r5, r1
 1217              	.LBB337:
 1218              	.LBB338:
 1219              		.loc 1 306 18 is_stmt 0 view .LVU391
 1220 000c 0026     		movs	r6, #0
 1221 000e 04E0     		b	.L50
 1222              	.LVL62:
 1223              	.L47:
 1224              		.loc 1 303 59 view .LVU392
 1225 0010 0B2A     		cmp	r2, #11
 1226 0012 1CD0     		beq	.L56
 1227              	.L46:
 1228              		.loc 1 303 59 view .LVU393
 1229              	.LBE338:
 1230              	.LBE337:
 1231              		.loc 1 363 5 is_stmt 1 view .LVU394
 1232              		.loc 1 363 9 is_stmt 0 view .LVU395
 1233 0014 2468     		ldr	r4, [r4]
 1234              	.LVL63:
 1235              		.loc 1 354 14 is_stmt 1 view .LVU396
 1236 0016 A742     		cmp	r7, r4
 1237 0018 18D0     		beq	.L43
 1238              	.L50:
 1239              		.loc 1 356 5 view .LVU397
 1240              		.loc 1 361 7 view .LVU398
 1241              		.loc 1 356 16 is_stmt 0 view .LVU399
 1242 001a E368     		ldr	r3, [r4, #12]
 1243 001c 2B43     		orrs	r3, r3, r5
 1244 001e E360     		str	r3, [r4, #12]
 1245              		.loc 1 359 5 is_stmt 1 view .LVU400
 1246              		.loc 1 359 8 is_stmt 0 view .LVU401
 1247 0020 15B1     		cbz	r5, .L45
 1248              		.loc 1 360 17 discriminator 1 view .LVU402
 1249 0022 2369     		ldr	r3, [r4, #16]
 1250              		.loc 1 359 36 discriminator 1 view .LVU403
 1251 0024 1D42     		tst	r5, r3
 1252 0026 F5D0     		beq	.L46
 1253              	.L45:
 1254              	.LBB341:
ARM GAS  C:\Users\DEVELO~1\AppData\Local\Temp\ccrRmbj9.s 			page 23


 1255              	.LBB339:
 1256              		.loc 1 300 16 view .LVU404
 1257 0028 D4E90103 		ldrd	r0, r3, [r4, #4]
 1258 002c 816B     		ldr	r1, [r0, #56]
 1259              		.loc 1 302 11 view .LVU405
 1260 002e 90F82420 		ldrb	r2, [r0, #36]	@ zero_extendqisi2
 1261              		.loc 1 300 16 view .LVU406
 1262 0032 0B43     		orrs	r3, r3, r1
 1263              		.loc 1 302 6 view .LVU407
 1264 0034 0A2A     		cmp	r2, #10
 1265              		.loc 1 300 16 view .LVU408
 1266 0036 8363     		str	r3, [r0, #56]
 1267              		.loc 1 302 3 is_stmt 1 view .LVU409
 1268              		.loc 1 302 6 is_stmt 0 view .LVU410
 1269 0038 EAD1     		bne	.L47
 1270              		.loc 1 303 23 view .LVU411
 1271 003a 826A     		ldr	r2, [r0, #40]
 1272              		.loc 1 302 40 view .LVU412
 1273 003c 1342     		tst	r3, r2
 1274 003e E9D0     		beq	.L46
 1275              	.L48:
 1276              		.loc 1 306 5 is_stmt 1 view .LVU413
 1277              		.loc 1 306 18 is_stmt 0 view .LVU414
 1278 0040 8662     		str	r6, [r0, #40]
 1279              		.loc 1 307 5 is_stmt 1 view .LVU415
 1280              		.loc 1 307 12 is_stmt 0 view .LVU416
 1281 0042 FFF7FEFF 		bl	chSchReadyI
 1282              	.LVL64:
 1283              	.LBE339:
 1284              	.LBE341:
 1285              		.loc 1 363 5 is_stmt 1 view .LVU417
 1286              		.loc 1 363 9 is_stmt 0 view .LVU418
 1287 0046 2468     		ldr	r4, [r4]
 1288              	.LVL65:
 1289              		.loc 1 354 14 is_stmt 1 view .LVU419
 1290 0048 A742     		cmp	r7, r4
 1291 004a E6D1     		bne	.L50
 1292              	.LVL66:
 1293              	.L43:
 1294              		.loc 1 365 1 is_stmt 0 view .LVU420
 1295 004c F8BD     		pop	{r3, r4, r5, r6, r7, pc}
 1296              	.LVL67:
 1297              	.L56:
 1298              	.LBB342:
 1299              	.LBB340:
 1300              		.loc 1 305 30 view .LVU421
 1301 004e 826A     		ldr	r2, [r0, #40]
 1302              		.loc 1 304 41 view .LVU422
 1303 0050 9A43     		bics	r2, r2, r3
 1304 0052 DFD1     		bne	.L46
 1305 0054 F4E7     		b	.L48
 1306              	.LBE340:
 1307              	.LBE342:
 1308              		.cfi_endproc
 1309              	.LFE356:
 1310              		.size	chEvtBroadcastFlagsI, .-chEvtBroadcastFlagsI
 1311 0056 00BF     		.section	.text.chEvtBroadcastFlags,"ax",%progbits
ARM GAS  C:\Users\DEVELO~1\AppData\Local\Temp\ccrRmbj9.s 			page 24


 1312              		.align	1
 1313              		.p2align 4,,15
 1314              		.global	chEvtBroadcastFlags
 1315              		.syntax unified
 1316              		.thumb
 1317              		.thumb_func
 1318              		.type	chEvtBroadcastFlags, %function
 1319              	chEvtBroadcastFlags:
 1320              	.LVL68:
 1321              	.LFB357:
 1322              		.loc 1 380 67 is_stmt 1 view -0
 1323              		.cfi_startproc
 1324              		@ args = 0, pretend = 0, frame = 0
 1325              		@ frame_needed = 0, uses_anonymous_args = 0
 1326              		.loc 1 382 3 view .LVU424
 1327              	.LBB343:
 1328              	.LBI343:
 1329              		.loc 3 407 20 view .LVU425
 1330              		.loc 3 409 3 view .LVU426
 1331              	.LBB344:
 1332              	.LBI344:
 1333              		.loc 4 806 27 view .LVU427
 1334              		.loc 4 814 3 view .LVU428
 1335              	.LBB345:
 1336              	.LBI345:
 1337              		.loc 5 491 27 view .LVU429
 1338              	.LBB346:
 1339              		.loc 5 493 3 view .LVU430
 1340              	.LBE346:
 1341              	.LBE345:
 1342              	.LBE344:
 1343              	.LBE343:
 1344              		.loc 1 380 67 is_stmt 0 view .LVU431
 1345 0000 08B5     		push	{r3, lr}
 1346              		.cfi_def_cfa_offset 8
 1347              		.cfi_offset 3, -8
 1348              		.cfi_offset 14, -4
 1349              	.LBB350:
 1350              	.LBB349:
 1351              	.LBB348:
 1352              	.LBB347:
 1353              		.loc 5 493 3 view .LVU432
 1354 0002 3023     		movs	r3, #48
 1355              		.syntax unified
 1356              	@ 493 "../../../os/common/ext/ARM/CMSIS/Core/Include/cmsis_gcc.h" 1
 1357 0004 83F31188 		MSR basepri, r3
 1358              	@ 0 "" 2
 1359              	.LVL69:
 1360              		.loc 5 493 3 view .LVU433
 1361              		.thumb
 1362              		.syntax unified
 1363              	.LBE347:
 1364              	.LBE348:
 1365              	.LBE349:
 1366              		.loc 3 410 35 is_stmt 1 view .LVU434
 1367              		.loc 3 411 21 view .LVU435
 1368              	.LBE350:
ARM GAS  C:\Users\DEVELO~1\AppData\Local\Temp\ccrRmbj9.s 			page 25


 1369              		.loc 1 383 3 view .LVU436
 1370 0008 FFF7FEFF 		bl	chEvtBroadcastFlagsI
 1371              	.LVL70:
 1372              		.loc 1 384 3 view .LVU437
 1373 000c FFF7FEFF 		bl	chSchRescheduleS
 1374              	.LVL71:
 1375              		.loc 1 385 3 view .LVU438
 1376              	.LBB351:
 1377              	.LBI351:
 1378              		.loc 3 421 20 view .LVU439
 1379              	.LBB352:
 1380              		.loc 3 423 23 view .LVU440
 1381              		.loc 3 424 34 view .LVU441
 1382              		.loc 3 430 3 view .LVU442
 1383              		.loc 3 430 3 view .LVU443
 1384              		.loc 3 430 3 view .LVU444
 1385              		.loc 3 434 3 view .LVU445
 1386              	.LBB353:
 1387              	.LBI353:
 1388              		.loc 4 830 27 view .LVU446
 1389              		.loc 4 833 3 view .LVU447
 1390              	.LBB354:
 1391              	.LBI354:
 1392              		.loc 5 491 27 view .LVU448
 1393              	.LBB355:
 1394              		.loc 5 493 3 view .LVU449
 1395 0010 0023     		movs	r3, #0
 1396              		.syntax unified
 1397              	@ 493 "../../../os/common/ext/ARM/CMSIS/Core/Include/cmsis_gcc.h" 1
 1398 0012 83F31188 		MSR basepri, r3
 1399              	@ 0 "" 2
 1400              	.LVL72:
 1401              		.loc 5 493 3 is_stmt 0 view .LVU450
 1402              		.thumb
 1403              		.syntax unified
 1404              	.LBE355:
 1405              	.LBE354:
 1406              	.LBE353:
 1407              	.LBE352:
 1408              	.LBE351:
 1409              		.loc 1 386 1 view .LVU451
 1410 0016 08BD     		pop	{r3, pc}
 1411              		.cfi_endproc
 1412              	.LFE357:
 1413              		.size	chEvtBroadcastFlags, .-chEvtBroadcastFlags
 1414              		.section	.text.chEvtDispatch,"ax",%progbits
 1415              		.align	1
 1416              		.p2align 4,,15
 1417              		.global	chEvtDispatch
 1418              		.syntax unified
 1419              		.thumb
 1420              		.thumb_func
 1421              		.type	chEvtDispatch, %function
 1422              	chEvtDispatch:
 1423              	.LVL73:
 1424              	.LFB358:
 1425              		.loc 1 397 69 is_stmt 1 view -0
ARM GAS  C:\Users\DEVELO~1\AppData\Local\Temp\ccrRmbj9.s 			page 26


 1426              		.cfi_startproc
 1427              		@ args = 0, pretend = 0, frame = 0
 1428              		@ frame_needed = 0, uses_anonymous_args = 0
 1429              		.loc 1 398 3 view .LVU453
 1430              		.loc 1 400 3 view .LVU454
 1431              		.loc 1 400 3 view .LVU455
 1432              		.loc 1 400 3 view .LVU456
 1433              		.loc 1 402 3 view .LVU457
 1434              		.loc 1 403 3 view .LVU458
 1435              		.loc 1 403 17 view .LVU459
 1436 0000 B1B1     		cbz	r1, .L71
 1437              		.loc 1 397 69 is_stmt 0 view .LVU460
 1438 0002 F8B5     		push	{r3, r4, r5, r6, r7, lr}
 1439              		.cfi_def_cfa_offset 24
 1440              		.cfi_offset 3, -24
 1441              		.cfi_offset 4, -20
 1442              		.cfi_offset 5, -16
 1443              		.cfi_offset 6, -12
 1444              		.cfi_offset 7, -8
 1445              		.cfi_offset 14, -4
 1446 0004 0746     		mov	r7, r0
 1447 0006 0D46     		mov	r5, r1
 1448              		.loc 1 402 7 view .LVU461
 1449 0008 0024     		movs	r4, #0
 1450              		.loc 1 406 18 view .LVU462
 1451 000a 0126     		movs	r6, #1
 1452              	.LVL74:
 1453              	.L62:
 1454              		.loc 1 404 5 is_stmt 1 view .LVU463
 1455              		.loc 1 405 7 view .LVU464
 1456              		.loc 1 405 7 view .LVU465
 1457              		.loc 1 405 7 view .LVU466
 1458              		.loc 1 406 7 view .LVU467
 1459              		.loc 1 409 5 view .LVU468
 1460              		.loc 1 404 36 is_stmt 0 view .LVU469
 1461 000c 25FA04F3 		lsr	r3, r5, r4
 1462              		.loc 1 406 18 view .LVU470
 1463 0010 06FA04F2 		lsl	r2, r6, r4
 1464              		.loc 1 407 7 view .LVU471
 1465 0014 2046     		mov	r0, r4
 1466              		.loc 1 404 8 view .LVU472
 1467 0016 DB07     		lsls	r3, r3, #31
 1468 0018 08D5     		bpl	.L61
 1469              		.loc 1 406 14 discriminator 5 view .LVU473
 1470 001a 25EA0205 		bic	r5, r5, r2
 1471              	.LVL75:
 1472              		.loc 1 407 7 is_stmt 1 discriminator 5 view .LVU474
 1473 001e 57F82430 		ldr	r3, [r7, r4, lsl #2]
 1474 0022 9847     		blx	r3
 1475              	.LVL76:
 1476              		.loc 1 409 5 discriminator 5 view .LVU475
 1477              		.loc 1 409 8 is_stmt 0 discriminator 5 view .LVU476
 1478 0024 0134     		adds	r4, r4, #1
 1479              	.LVL77:
 1480              		.loc 1 403 17 is_stmt 1 discriminator 5 view .LVU477
 1481 0026 002D     		cmp	r5, #0
 1482 0028 F0D1     		bne	.L62
ARM GAS  C:\Users\DEVELO~1\AppData\Local\Temp\ccrRmbj9.s 			page 27


 1483              		.loc 1 411 1 is_stmt 0 view .LVU478
 1484 002a F8BD     		pop	{r3, r4, r5, r6, r7, pc}
 1485              	.LVL78:
 1486              	.L61:
 1487              		.loc 1 409 8 view .LVU479
 1488 002c 0134     		adds	r4, r4, #1
 1489              	.LVL79:
 1490              		.loc 1 403 17 is_stmt 1 view .LVU480
 1491              		.loc 1 403 17 is_stmt 0 view .LVU481
 1492 002e EDE7     		b	.L62
 1493              	.LVL80:
 1494              	.L71:
 1495              		.cfi_def_cfa_offset 0
 1496              		.cfi_restore 3
 1497              		.cfi_restore 4
 1498              		.cfi_restore 5
 1499              		.cfi_restore 6
 1500              		.cfi_restore 7
 1501              		.cfi_restore 14
 1502              		.loc 1 403 17 view .LVU482
 1503 0030 7047     		bx	lr
 1504              		.cfi_endproc
 1505              	.LFE358:
 1506              		.size	chEvtDispatch, .-chEvtDispatch
 1507 0032 00BF     		.section	.text.chEvtWaitOne,"ax",%progbits
 1508              		.align	1
 1509              		.p2align 4,,15
 1510              		.global	chEvtWaitOne
 1511              		.syntax unified
 1512              		.thumb
 1513              		.thumb_func
 1514              		.type	chEvtWaitOne, %function
 1515              	chEvtWaitOne:
 1516              	.LVL81:
 1517              	.LFB359:
 1518              		.loc 1 432 46 is_stmt 1 view -0
 1519              		.cfi_startproc
 1520              		@ args = 0, pretend = 0, frame = 0
 1521              		@ frame_needed = 0, uses_anonymous_args = 0
 1522              		.loc 1 433 3 view .LVU484
 1523              	.LBB356:
 1524              	.LBI356:
 1525              		.loc 2 341 25 view .LVU485
 1526              	.LBB357:
 1527              		.loc 2 343 3 view .LVU486
 1528              		.loc 2 343 10 is_stmt 0 view .LVU487
 1529 0000 0D4A     		ldr	r2, .L78
 1530              	.LBE357:
 1531              	.LBE356:
 1532              		.loc 1 432 46 view .LVU488
 1533 0002 38B5     		push	{r3, r4, r5, lr}
 1534              		.cfi_def_cfa_offset 16
 1535              		.cfi_offset 3, -16
 1536              		.cfi_offset 4, -12
 1537              		.cfi_offset 5, -8
 1538              		.cfi_offset 14, -4
 1539              	.LBB359:
ARM GAS  C:\Users\DEVELO~1\AppData\Local\Temp\ccrRmbj9.s 			page 28


 1540              	.LBB360:
 1541              	.LBB361:
 1542              	.LBB362:
 1543              		.loc 5 493 3 view .LVU489
 1544 0004 3023     		movs	r3, #48
 1545              	.LBE362:
 1546              	.LBE361:
 1547              	.LBE360:
 1548              	.LBE359:
 1549              	.LBB366:
 1550              	.LBB358:
 1551              		.loc 2 343 10 view .LVU490
 1552 0006 D568     		ldr	r5, [r2, #12]
 1553              	.LVL82:
 1554              		.loc 2 343 10 view .LVU491
 1555              	.LBE358:
 1556              	.LBE366:
 1557              		.loc 1 434 3 is_stmt 1 view .LVU492
 1558              		.loc 1 436 3 view .LVU493
 1559              	.LBB367:
 1560              	.LBI359:
 1561              		.loc 3 407 20 view .LVU494
 1562              		.loc 3 409 3 view .LVU495
 1563              	.LBB365:
 1564              	.LBI360:
 1565              		.loc 4 806 27 view .LVU496
 1566              		.loc 4 814 3 view .LVU497
 1567              	.LBB364:
 1568              	.LBI361:
 1569              		.loc 5 491 27 view .LVU498
 1570              	.LBB363:
 1571              		.loc 5 493 3 view .LVU499
 1572              		.syntax unified
 1573              	@ 493 "../../../os/common/ext/ARM/CMSIS/Core/Include/cmsis_gcc.h" 1
 1574 0008 83F31188 		MSR basepri, r3
 1575              	@ 0 "" 2
 1576              	.LVL83:
 1577              		.loc 5 493 3 is_stmt 0 view .LVU500
 1578              		.thumb
 1579              		.syntax unified
 1580              	.LBE363:
 1581              	.LBE364:
 1582              	.LBE365:
 1583              		.loc 3 410 35 is_stmt 1 view .LVU501
 1584              		.loc 3 411 21 view .LVU502
 1585              	.LBE367:
 1586              		.loc 1 437 3 view .LVU503
 1587              		.loc 1 437 13 is_stmt 0 view .LVU504
 1588 000c AB6B     		ldr	r3, [r5, #56]
 1589              	.LVL84:
 1590              		.loc 1 438 3 is_stmt 1 view .LVU505
 1591              		.loc 1 438 6 is_stmt 0 view .LVU506
 1592 000e 13EA0002 		ands	r2, r3, r0
 1593 0012 08D0     		beq	.L77
 1594              	.LVL85:
 1595              	.L75:
 1596              		.loc 1 443 3 is_stmt 1 view .LVU507
ARM GAS  C:\Users\DEVELO~1\AppData\Local\Temp\ccrRmbj9.s 			page 29


 1597              		.loc 1 443 5 is_stmt 0 view .LVU508
 1598 0014 5042     		rsbs	r0, r2, #0
 1599              	.LBB368:
 1600              	.LBB369:
 1601              	.LBB370:
 1602              	.LBB371:
 1603              	.LBB372:
 1604              		.loc 5 493 3 view .LVU509
 1605 0016 0021     		movs	r1, #0
 1606              	.LBE372:
 1607              	.LBE371:
 1608              	.LBE370:
 1609              	.LBE369:
 1610              	.LBE368:
 1611              		.loc 1 443 5 view .LVU510
 1612 0018 1040     		ands	r0, r0, r2
 1613              	.LVL86:
 1614              		.loc 1 444 3 is_stmt 1 view .LVU511
 1615              		.loc 1 444 20 is_stmt 0 view .LVU512
 1616 001a 23EA0003 		bic	r3, r3, r0
 1617 001e AB63     		str	r3, [r5, #56]
 1618              		.loc 1 445 3 is_stmt 1 view .LVU513
 1619              	.LBB377:
 1620              	.LBI368:
 1621              		.loc 3 421 20 view .LVU514
 1622              	.LBB376:
 1623              		.loc 3 423 23 view .LVU515
 1624              		.loc 3 424 34 view .LVU516
 1625              		.loc 3 430 3 view .LVU517
 1626              		.loc 3 430 3 view .LVU518
 1627              		.loc 3 430 3 view .LVU519
 1628              		.loc 3 434 3 view .LVU520
 1629              	.LBB375:
 1630              	.LBI370:
 1631              		.loc 4 830 27 view .LVU521
 1632              		.loc 4 833 3 view .LVU522
 1633              	.LVL87:
 1634              	.LBB374:
 1635              	.LBI371:
 1636              		.loc 5 491 27 view .LVU523
 1637              	.LBB373:
 1638              		.loc 5 493 3 view .LVU524
 1639              		.syntax unified
 1640              	@ 493 "../../../os/common/ext/ARM/CMSIS/Core/Include/cmsis_gcc.h" 1
 1641 0020 81F31188 		MSR basepri, r1
 1642              	@ 0 "" 2
 1643              	.LVL88:
 1644              		.loc 5 493 3 is_stmt 0 view .LVU525
 1645              		.thumb
 1646              		.syntax unified
 1647              	.LBE373:
 1648              	.LBE374:
 1649              	.LBE375:
 1650              	.LBE376:
 1651              	.LBE377:
 1652              		.loc 1 447 3 is_stmt 1 view .LVU526
 1653              		.loc 1 448 1 is_stmt 0 view .LVU527
ARM GAS  C:\Users\DEVELO~1\AppData\Local\Temp\ccrRmbj9.s 			page 30


 1654 0024 38BD     		pop	{r3, r4, r5, pc}
 1655              	.LVL89:
 1656              	.L77:
 1657              		.loc 1 448 1 view .LVU528
 1658 0026 0446     		mov	r4, r0
 1659              		.loc 1 439 5 is_stmt 1 view .LVU529
 1660              		.loc 1 440 5 is_stmt 0 view .LVU530
 1661 0028 0A20     		movs	r0, #10
 1662              	.LVL90:
 1663              		.loc 1 439 22 view .LVU531
 1664 002a AC62     		str	r4, [r5, #40]
 1665              		.loc 1 440 5 is_stmt 1 view .LVU532
 1666 002c FFF7FEFF 		bl	chSchGoSleepS
 1667              	.LVL91:
 1668              		.loc 1 441 5 view .LVU533
 1669              		.loc 1 441 15 is_stmt 0 view .LVU534
 1670 0030 AB6B     		ldr	r3, [r5, #56]
 1671              		.loc 1 441 7 view .LVU535
 1672 0032 03EA0402 		and	r2, r3, r4
 1673              	.LVL92:
 1674              		.loc 1 441 7 view .LVU536
 1675 0036 EDE7     		b	.L75
 1676              	.L79:
 1677              		.align	2
 1678              	.L78:
 1679 0038 00000000 		.word	ch0
 1680              		.cfi_endproc
 1681              	.LFE359:
 1682              		.size	chEvtWaitOne, .-chEvtWaitOne
 1683              		.section	.text.chEvtWaitAny,"ax",%progbits
 1684              		.align	1
 1685              		.p2align 4,,15
 1686              		.global	chEvtWaitAny
 1687              		.syntax unified
 1688              		.thumb
 1689              		.thumb_func
 1690              		.type	chEvtWaitAny, %function
 1691              	chEvtWaitAny:
 1692              	.LVL93:
 1693              	.LFB360:
 1694              		.loc 1 462 46 is_stmt 1 view -0
 1695              		.cfi_startproc
 1696              		@ args = 0, pretend = 0, frame = 0
 1697              		@ frame_needed = 0, uses_anonymous_args = 0
 1698              		.loc 1 463 3 view .LVU538
 1699              	.LBB378:
 1700              	.LBI378:
 1701              		.loc 2 341 25 view .LVU539
 1702              	.LBB379:
 1703              		.loc 2 343 3 view .LVU540
 1704              		.loc 2 343 10 is_stmt 0 view .LVU541
 1705 0000 0C4A     		ldr	r2, .L84
 1706              	.LBE379:
 1707              	.LBE378:
 1708              		.loc 1 462 46 view .LVU542
 1709 0002 38B5     		push	{r3, r4, r5, lr}
 1710              		.cfi_def_cfa_offset 16
ARM GAS  C:\Users\DEVELO~1\AppData\Local\Temp\ccrRmbj9.s 			page 31


 1711              		.cfi_offset 3, -16
 1712              		.cfi_offset 4, -12
 1713              		.cfi_offset 5, -8
 1714              		.cfi_offset 14, -4
 1715              	.LBB381:
 1716              	.LBB382:
 1717              	.LBB383:
 1718              	.LBB384:
 1719              		.loc 5 493 3 view .LVU543
 1720 0004 3023     		movs	r3, #48
 1721              	.LBE384:
 1722              	.LBE383:
 1723              	.LBE382:
 1724              	.LBE381:
 1725              		.loc 1 462 46 view .LVU544
 1726 0006 0446     		mov	r4, r0
 1727              	.LBB388:
 1728              	.LBB380:
 1729              		.loc 2 343 10 view .LVU545
 1730 0008 D568     		ldr	r5, [r2, #12]
 1731              	.LVL94:
 1732              		.loc 2 343 10 view .LVU546
 1733              	.LBE380:
 1734              	.LBE388:
 1735              		.loc 1 464 3 is_stmt 1 view .LVU547
 1736              		.loc 1 466 3 view .LVU548
 1737              	.LBB389:
 1738              	.LBI381:
 1739              		.loc 3 407 20 view .LVU549
 1740              		.loc 3 409 3 view .LVU550
 1741              	.LBB387:
 1742              	.LBI382:
 1743              		.loc 4 806 27 view .LVU551
 1744              		.loc 4 814 3 view .LVU552
 1745              	.LBB386:
 1746              	.LBI383:
 1747              		.loc 5 491 27 view .LVU553
 1748              	.LBB385:
 1749              		.loc 5 493 3 view .LVU554
 1750              		.syntax unified
 1751              	@ 493 "../../../os/common/ext/ARM/CMSIS/Core/Include/cmsis_gcc.h" 1
 1752 000a 83F31188 		MSR basepri, r3
 1753              	@ 0 "" 2
 1754              	.LVL95:
 1755              		.loc 5 493 3 is_stmt 0 view .LVU555
 1756              		.thumb
 1757              		.syntax unified
 1758              	.LBE385:
 1759              	.LBE386:
 1760              	.LBE387:
 1761              		.loc 3 410 35 is_stmt 1 view .LVU556
 1762              		.loc 3 411 21 view .LVU557
 1763              	.LBE389:
 1764              		.loc 1 467 3 view .LVU558
 1765              		.loc 1 467 13 is_stmt 0 view .LVU559
 1766 000e AB6B     		ldr	r3, [r5, #56]
 1767              	.LVL96:
ARM GAS  C:\Users\DEVELO~1\AppData\Local\Temp\ccrRmbj9.s 			page 32


 1768              		.loc 1 468 3 is_stmt 1 view .LVU560
 1769              		.loc 1 468 6 is_stmt 0 view .LVU561
 1770 0010 1840     		ands	r0, r3, r0
 1771              	.LVL97:
 1772              		.loc 1 468 6 view .LVU562
 1773 0012 06D0     		beq	.L83
 1774              	.LVL98:
 1775              	.L81:
 1776              		.loc 1 473 3 is_stmt 1 view .LVU563
 1777              		.loc 1 473 20 is_stmt 0 view .LVU564
 1778 0014 23EA0003 		bic	r3, r3, r0
 1779              	.LBB390:
 1780              	.LBB391:
 1781              	.LBB392:
 1782              	.LBB393:
 1783              	.LBB394:
 1784              		.loc 5 493 3 view .LVU565
 1785 0018 0022     		movs	r2, #0
 1786              	.LBE394:
 1787              	.LBE393:
 1788              	.LBE392:
 1789              	.LBE391:
 1790              	.LBE390:
 1791              		.loc 1 473 20 view .LVU566
 1792 001a AB63     		str	r3, [r5, #56]
 1793              		.loc 1 474 3 is_stmt 1 view .LVU567
 1794              	.LBB399:
 1795              	.LBI390:
 1796              		.loc 3 421 20 view .LVU568
 1797              	.LBB398:
 1798              		.loc 3 423 23 view .LVU569
 1799              		.loc 3 424 34 view .LVU570
 1800              		.loc 3 430 3 view .LVU571
 1801              		.loc 3 430 3 view .LVU572
 1802              		.loc 3 430 3 view .LVU573
 1803              		.loc 3 434 3 view .LVU574
 1804              	.LBB397:
 1805              	.LBI392:
 1806              		.loc 4 830 27 view .LVU575
 1807              		.loc 4 833 3 view .LVU576
 1808              	.LVL99:
 1809              	.LBB396:
 1810              	.LBI393:
 1811              		.loc 5 491 27 view .LVU577
 1812              	.LBB395:
 1813              		.loc 5 493 3 view .LVU578
 1814              		.syntax unified
 1815              	@ 493 "../../../os/common/ext/ARM/CMSIS/Core/Include/cmsis_gcc.h" 1
 1816 001c 82F31188 		MSR basepri, r2
 1817              	@ 0 "" 2
 1818              	.LVL100:
 1819              		.loc 5 493 3 is_stmt 0 view .LVU579
 1820              		.thumb
 1821              		.syntax unified
 1822              	.LBE395:
 1823              	.LBE396:
 1824              	.LBE397:
ARM GAS  C:\Users\DEVELO~1\AppData\Local\Temp\ccrRmbj9.s 			page 33


 1825              	.LBE398:
 1826              	.LBE399:
 1827              		.loc 1 476 3 is_stmt 1 view .LVU580
 1828              		.loc 1 477 1 is_stmt 0 view .LVU581
 1829 0020 38BD     		pop	{r3, r4, r5, pc}
 1830              	.LVL101:
 1831              	.L83:
 1832              		.loc 1 469 5 is_stmt 1 view .LVU582
 1833              		.loc 1 470 5 is_stmt 0 view .LVU583
 1834 0022 0A20     		movs	r0, #10
 1835              	.LVL102:
 1836              		.loc 1 469 22 view .LVU584
 1837 0024 AC62     		str	r4, [r5, #40]
 1838              		.loc 1 470 5 is_stmt 1 view .LVU585
 1839 0026 FFF7FEFF 		bl	chSchGoSleepS
 1840              	.LVL103:
 1841              		.loc 1 471 5 view .LVU586
 1842              		.loc 1 471 15 is_stmt 0 view .LVU587
 1843 002a AB6B     		ldr	r3, [r5, #56]
 1844              		.loc 1 471 7 view .LVU588
 1845 002c 03EA0400 		and	r0, r3, r4
 1846              	.LVL104:
 1847              		.loc 1 471 7 view .LVU589
 1848 0030 F0E7     		b	.L81
 1849              	.L85:
 1850 0032 00BF     		.align	2
 1851              	.L84:
 1852 0034 00000000 		.word	ch0
 1853              		.cfi_endproc
 1854              	.LFE360:
 1855              		.size	chEvtWaitAny, .-chEvtWaitAny
 1856              		.section	.text.chEvtWaitAll,"ax",%progbits
 1857              		.align	1
 1858              		.p2align 4,,15
 1859              		.global	chEvtWaitAll
 1860              		.syntax unified
 1861              		.thumb
 1862              		.thumb_func
 1863              		.type	chEvtWaitAll, %function
 1864              	chEvtWaitAll:
 1865              	.LVL105:
 1866              	.LFB361:
 1867              		.loc 1 490 46 is_stmt 1 view -0
 1868              		.cfi_startproc
 1869              		@ args = 0, pretend = 0, frame = 0
 1870              		@ frame_needed = 0, uses_anonymous_args = 0
 1871              		.loc 1 491 3 view .LVU591
 1872              	.LBB400:
 1873              	.LBI400:
 1874              		.loc 2 341 25 view .LVU592
 1875              	.LBB401:
 1876              		.loc 2 343 3 view .LVU593
 1877              		.loc 2 343 10 is_stmt 0 view .LVU594
 1878 0000 0B4A     		ldr	r2, .L89
 1879              	.LBE401:
 1880              	.LBE400:
 1881              		.loc 1 490 46 view .LVU595
ARM GAS  C:\Users\DEVELO~1\AppData\Local\Temp\ccrRmbj9.s 			page 34


 1882 0002 38B5     		push	{r3, r4, r5, lr}
 1883              		.cfi_def_cfa_offset 16
 1884              		.cfi_offset 3, -16
 1885              		.cfi_offset 4, -12
 1886              		.cfi_offset 5, -8
 1887              		.cfi_offset 14, -4
 1888              	.LBB403:
 1889              	.LBB404:
 1890              	.LBB405:
 1891              	.LBB406:
 1892              		.loc 5 493 3 view .LVU596
 1893 0004 3023     		movs	r3, #48
 1894              	.LBE406:
 1895              	.LBE405:
 1896              	.LBE404:
 1897              	.LBE403:
 1898              		.loc 1 490 46 view .LVU597
 1899 0006 0446     		mov	r4, r0
 1900              	.LBB410:
 1901              	.LBB402:
 1902              		.loc 2 343 10 view .LVU598
 1903 0008 D568     		ldr	r5, [r2, #12]
 1904              	.LVL106:
 1905              		.loc 2 343 10 view .LVU599
 1906              	.LBE402:
 1907              	.LBE410:
 1908              		.loc 1 493 3 is_stmt 1 view .LVU600
 1909              	.LBB411:
 1910              	.LBI403:
 1911              		.loc 3 407 20 view .LVU601
 1912              		.loc 3 409 3 view .LVU602
 1913              	.LBB409:
 1914              	.LBI404:
 1915              		.loc 4 806 27 view .LVU603
 1916              		.loc 4 814 3 view .LVU604
 1917              	.LBB408:
 1918              	.LBI405:
 1919              		.loc 5 491 27 view .LVU605
 1920              	.LBB407:
 1921              		.loc 5 493 3 view .LVU606
 1922              		.syntax unified
 1923              	@ 493 "../../../os/common/ext/ARM/CMSIS/Core/Include/cmsis_gcc.h" 1
 1924 000a 83F31188 		MSR basepri, r3
 1925              	@ 0 "" 2
 1926              	.LVL107:
 1927              		.loc 5 493 3 is_stmt 0 view .LVU607
 1928              		.thumb
 1929              		.syntax unified
 1930              	.LBE407:
 1931              	.LBE408:
 1932              	.LBE409:
 1933              		.loc 3 410 35 is_stmt 1 view .LVU608
 1934              		.loc 3 411 21 view .LVU609
 1935              	.LBE411:
 1936              		.loc 1 494 3 view .LVU610
 1937              		.loc 1 494 14 is_stmt 0 view .LVU611
 1938 000e AB6B     		ldr	r3, [r5, #56]
ARM GAS  C:\Users\DEVELO~1\AppData\Local\Temp\ccrRmbj9.s 			page 35


 1939              		.loc 1 494 6 view .LVU612
 1940 0010 30EA0302 		bics	r2, r0, r3
 1941 0014 04D0     		beq	.L87
 1942              		.loc 1 495 5 is_stmt 1 view .LVU613
 1943              		.loc 1 496 5 is_stmt 0 view .LVU614
 1944 0016 0B20     		movs	r0, #11
 1945              	.LVL108:
 1946              		.loc 1 495 22 view .LVU615
 1947 0018 AC62     		str	r4, [r5, #40]
 1948              		.loc 1 496 5 is_stmt 1 view .LVU616
 1949 001a FFF7FEFF 		bl	chSchGoSleepS
 1950              	.LVL109:
 1951              		.loc 1 498 20 is_stmt 0 view .LVU617
 1952 001e AB6B     		ldr	r3, [r5, #56]
 1953              	.L87:
 1954              		.loc 1 498 3 is_stmt 1 view .LVU618
 1955              		.loc 1 498 20 is_stmt 0 view .LVU619
 1956 0020 23EA0403 		bic	r3, r3, r4
 1957              	.LBB412:
 1958              	.LBB413:
 1959              	.LBB414:
 1960              	.LBB415:
 1961              	.LBB416:
 1962              		.loc 5 493 3 view .LVU620
 1963 0024 0022     		movs	r2, #0
 1964              	.LBE416:
 1965              	.LBE415:
 1966              	.LBE414:
 1967              	.LBE413:
 1968              	.LBE412:
 1969              		.loc 1 498 20 view .LVU621
 1970 0026 AB63     		str	r3, [r5, #56]
 1971              		.loc 1 499 3 is_stmt 1 view .LVU622
 1972              	.LBB421:
 1973              	.LBI412:
 1974              		.loc 3 421 20 view .LVU623
 1975              	.LBB420:
 1976              		.loc 3 423 23 view .LVU624
 1977              		.loc 3 424 34 view .LVU625
 1978              		.loc 3 430 3 view .LVU626
 1979              		.loc 3 430 3 view .LVU627
 1980              		.loc 3 430 3 view .LVU628
 1981              		.loc 3 434 3 view .LVU629
 1982              	.LBB419:
 1983              	.LBI414:
 1984              		.loc 4 830 27 view .LVU630
 1985              		.loc 4 833 3 view .LVU631
 1986              	.LVL110:
 1987              	.LBB418:
 1988              	.LBI415:
 1989              		.loc 5 491 27 view .LVU632
 1990              	.LBB417:
 1991              		.loc 5 493 3 view .LVU633
 1992              		.syntax unified
 1993              	@ 493 "../../../os/common/ext/ARM/CMSIS/Core/Include/cmsis_gcc.h" 1
 1994 0028 82F31188 		MSR basepri, r2
 1995              	@ 0 "" 2
ARM GAS  C:\Users\DEVELO~1\AppData\Local\Temp\ccrRmbj9.s 			page 36


 1996              	.LVL111:
 1997              		.loc 5 493 3 is_stmt 0 view .LVU634
 1998              		.thumb
 1999              		.syntax unified
 2000              	.LBE417:
 2001              	.LBE418:
 2002              	.LBE419:
 2003              	.LBE420:
 2004              	.LBE421:
 2005              		.loc 1 501 3 is_stmt 1 view .LVU635
 2006              		.loc 1 502 1 is_stmt 0 view .LVU636
 2007 002c 2046     		mov	r0, r4
 2008 002e 38BD     		pop	{r3, r4, r5, pc}
 2009              	.LVL112:
 2010              	.L90:
 2011              		.loc 1 502 1 view .LVU637
 2012              		.align	2
 2013              	.L89:
 2014 0030 00000000 		.word	ch0
 2015              		.cfi_endproc
 2016              	.LFE361:
 2017              		.size	chEvtWaitAll, .-chEvtWaitAll
 2018              		.section	.text.chEvtWaitOneTimeout,"ax",%progbits
 2019              		.align	1
 2020              		.p2align 4,,15
 2021              		.global	chEvtWaitOneTimeout
 2022              		.syntax unified
 2023              		.thumb
 2024              		.thumb_func
 2025              		.type	chEvtWaitOneTimeout, %function
 2026              	chEvtWaitOneTimeout:
 2027              	.LVL113:
 2028              	.LFB362:
 2029              		.loc 1 528 76 is_stmt 1 view -0
 2030              		.cfi_startproc
 2031              		@ args = 0, pretend = 0, frame = 0
 2032              		@ frame_needed = 0, uses_anonymous_args = 0
 2033              		.loc 1 529 3 view .LVU639
 2034              	.LBB422:
 2035              	.LBI422:
 2036              		.loc 2 341 25 view .LVU640
 2037              	.LBB423:
 2038              		.loc 2 343 3 view .LVU641
 2039              	.LBE423:
 2040              	.LBE422:
 2041              		.loc 1 528 76 is_stmt 0 view .LVU642
 2042 0000 70B5     		push	{r4, r5, r6, lr}
 2043              		.cfi_def_cfa_offset 16
 2044              		.cfi_offset 4, -16
 2045              		.cfi_offset 5, -12
 2046              		.cfi_offset 6, -8
 2047              		.cfi_offset 14, -4
 2048              	.LBB426:
 2049              	.LBB424:
 2050              		.loc 2 343 10 view .LVU643
 2051 0002 114D     		ldr	r5, .L98
 2052              	.LBE424:
ARM GAS  C:\Users\DEVELO~1\AppData\Local\Temp\ccrRmbj9.s 			page 37


 2053              	.LBE426:
 2054              	.LBB427:
 2055              	.LBB428:
 2056              	.LBB429:
 2057              	.LBB430:
 2058              		.loc 5 493 3 view .LVU644
 2059 0004 3023     		movs	r3, #48
 2060              	.LBE430:
 2061              	.LBE429:
 2062              	.LBE428:
 2063              	.LBE427:
 2064              	.LBB434:
 2065              	.LBB425:
 2066              		.loc 2 343 10 view .LVU645
 2067 0006 EE68     		ldr	r6, [r5, #12]
 2068              	.LVL114:
 2069              		.loc 2 343 10 view .LVU646
 2070              	.LBE425:
 2071              	.LBE434:
 2072              		.loc 1 530 3 is_stmt 1 view .LVU647
 2073              		.loc 1 532 3 view .LVU648
 2074              	.LBB435:
 2075              	.LBI427:
 2076              		.loc 3 407 20 view .LVU649
 2077              		.loc 3 409 3 view .LVU650
 2078              	.LBB433:
 2079              	.LBI428:
 2080              		.loc 4 806 27 view .LVU651
 2081              		.loc 4 814 3 view .LVU652
 2082              	.LBB432:
 2083              	.LBI429:
 2084              		.loc 5 491 27 view .LVU653
 2085              	.LBB431:
 2086              		.loc 5 493 3 view .LVU654
 2087              		.syntax unified
 2088              	@ 493 "../../../os/common/ext/ARM/CMSIS/Core/Include/cmsis_gcc.h" 1
 2089 0008 83F31188 		MSR basepri, r3
 2090              	@ 0 "" 2
 2091              	.LVL115:
 2092              		.loc 5 493 3 is_stmt 0 view .LVU655
 2093              		.thumb
 2094              		.syntax unified
 2095              	.LBE431:
 2096              	.LBE432:
 2097              	.LBE433:
 2098              		.loc 3 410 35 is_stmt 1 view .LVU656
 2099              		.loc 3 411 21 view .LVU657
 2100              	.LBE435:
 2101              		.loc 1 533 3 view .LVU658
 2102              		.loc 1 533 13 is_stmt 0 view .LVU659
 2103 000c B36B     		ldr	r3, [r6, #56]
 2104              	.LVL116:
 2105              		.loc 1 534 3 is_stmt 1 view .LVU660
 2106              		.loc 1 534 6 is_stmt 0 view .LVU661
 2107 000e 13EA0005 		ands	r5, r3, r0
 2108 0012 0ED1     		bne	.L92
 2109              		.loc 1 535 5 is_stmt 1 view .LVU662
ARM GAS  C:\Users\DEVELO~1\AppData\Local\Temp\ccrRmbj9.s 			page 38


 2110              		.loc 1 535 8 is_stmt 0 view .LVU663
 2111 0014 19B9     		cbnz	r1, .L93
 2112              	.LVL117:
 2113              	.L97:
 2114              		.loc 1 541 7 is_stmt 1 view .LVU664
 2115              	.LBB436:
 2116              	.LBI436:
 2117              		.loc 3 421 20 view .LVU665
 2118              	.LBB437:
 2119              		.loc 3 423 23 view .LVU666
 2120              		.loc 3 424 34 view .LVU667
 2121              		.loc 3 430 3 view .LVU668
 2122              		.loc 3 430 3 view .LVU669
 2123              		.loc 3 430 3 view .LVU670
 2124              		.loc 3 434 3 view .LVU671
 2125              	.LBB438:
 2126              	.LBI438:
 2127              		.loc 4 830 27 view .LVU672
 2128              		.loc 4 833 3 view .LVU673
 2129              	.LBB439:
 2130              	.LBI439:
 2131              		.loc 5 491 27 view .LVU674
 2132              	.LBB440:
 2133              		.loc 5 493 3 view .LVU675
 2134              		.syntax unified
 2135              	@ 493 "../../../os/common/ext/ARM/CMSIS/Core/Include/cmsis_gcc.h" 1
 2136 0016 85F31188 		MSR basepri, r5
 2137              	@ 0 "" 2
 2138              	.LVL118:
 2139              		.loc 5 493 3 is_stmt 0 view .LVU676
 2140              		.thumb
 2141              		.syntax unified
 2142              	.LBE440:
 2143              	.LBE439:
 2144              	.LBE438:
 2145              	.LBE437:
 2146              	.LBE436:
 2147              		.loc 1 542 7 is_stmt 1 view .LVU677
 2148              		.loc 1 551 1 is_stmt 0 view .LVU678
 2149 001a 2846     		mov	r0, r5
 2150 001c 70BD     		pop	{r4, r5, r6, pc}
 2151              	.LVL119:
 2152              	.L93:
 2153              		.loc 1 539 5 is_stmt 1 view .LVU679
 2154 001e 0446     		mov	r4, r0
 2155              		.loc 1 540 9 is_stmt 0 view .LVU680
 2156 0020 0A20     		movs	r0, #10
 2157              	.LVL120:
 2158              		.loc 1 539 22 view .LVU681
 2159 0022 B462     		str	r4, [r6, #40]
 2160              		.loc 1 540 5 is_stmt 1 view .LVU682
 2161              		.loc 1 540 9 is_stmt 0 view .LVU683
 2162 0024 FFF7FEFF 		bl	chSchGoSleepTimeoutS
 2163              	.LVL121:
 2164              		.loc 1 540 8 view .LVU684
 2165 0028 0028     		cmp	r0, #0
 2166 002a F4DB     		blt	.L97
ARM GAS  C:\Users\DEVELO~1\AppData\Local\Temp\ccrRmbj9.s 			page 39


 2167              		.loc 1 544 5 is_stmt 1 view .LVU685
 2168              		.loc 1 544 15 is_stmt 0 view .LVU686
 2169 002c B36B     		ldr	r3, [r6, #56]
 2170              		.loc 1 544 7 view .LVU687
 2171 002e 03EA0405 		and	r5, r3, r4
 2172              	.LVL122:
 2173              	.L92:
 2174              		.loc 1 546 3 is_stmt 1 view .LVU688
 2175              		.loc 1 546 5 is_stmt 0 view .LVU689
 2176 0032 6942     		rsbs	r1, r5, #0
 2177              	.LBB441:
 2178              	.LBB442:
 2179              	.LBB443:
 2180              	.LBB444:
 2181              	.LBB445:
 2182              		.loc 5 493 3 view .LVU690
 2183 0034 0022     		movs	r2, #0
 2184              	.LBE445:
 2185              	.LBE444:
 2186              	.LBE443:
 2187              	.LBE442:
 2188              	.LBE441:
 2189              		.loc 1 546 5 view .LVU691
 2190 0036 0D40     		ands	r5, r5, r1
 2191              	.LVL123:
 2192              		.loc 1 547 3 is_stmt 1 view .LVU692
 2193              		.loc 1 547 20 is_stmt 0 view .LVU693
 2194 0038 23EA0503 		bic	r3, r3, r5
 2195 003c B363     		str	r3, [r6, #56]
 2196              		.loc 1 548 3 is_stmt 1 view .LVU694
 2197              	.LBB450:
 2198              	.LBI441:
 2199              		.loc 3 421 20 view .LVU695
 2200              	.LBB449:
 2201              		.loc 3 423 23 view .LVU696
 2202              		.loc 3 424 34 view .LVU697
 2203              		.loc 3 430 3 view .LVU698
 2204              		.loc 3 430 3 view .LVU699
 2205              		.loc 3 430 3 view .LVU700
 2206              		.loc 3 434 3 view .LVU701
 2207              	.LBB448:
 2208              	.LBI443:
 2209              		.loc 4 830 27 view .LVU702
 2210              		.loc 4 833 3 view .LVU703
 2211              	.LVL124:
 2212              	.LBB447:
 2213              	.LBI444:
 2214              		.loc 5 491 27 view .LVU704
 2215              	.LBB446:
 2216              		.loc 5 493 3 view .LVU705
 2217              		.syntax unified
 2218              	@ 493 "../../../os/common/ext/ARM/CMSIS/Core/Include/cmsis_gcc.h" 1
 2219 003e 82F31188 		MSR basepri, r2
 2220              	@ 0 "" 2
 2221              	.LVL125:
 2222              		.loc 5 493 3 is_stmt 0 view .LVU706
 2223              		.thumb
ARM GAS  C:\Users\DEVELO~1\AppData\Local\Temp\ccrRmbj9.s 			page 40


 2224              		.syntax unified
 2225              	.LBE446:
 2226              	.LBE447:
 2227              	.LBE448:
 2228              	.LBE449:
 2229              	.LBE450:
 2230              		.loc 1 550 3 is_stmt 1 view .LVU707
 2231              		.loc 1 551 1 is_stmt 0 view .LVU708
 2232 0042 2846     		mov	r0, r5
 2233 0044 70BD     		pop	{r4, r5, r6, pc}
 2234              	.LVL126:
 2235              	.L99:
 2236              		.loc 1 551 1 view .LVU709
 2237 0046 00BF     		.align	2
 2238              	.L98:
 2239 0048 00000000 		.word	ch0
 2240              		.cfi_endproc
 2241              	.LFE362:
 2242              		.size	chEvtWaitOneTimeout, .-chEvtWaitOneTimeout
 2243              		.section	.text.chEvtWaitAnyTimeout,"ax",%progbits
 2244              		.align	1
 2245              		.p2align 4,,15
 2246              		.global	chEvtWaitAnyTimeout
 2247              		.syntax unified
 2248              		.thumb
 2249              		.thumb_func
 2250              		.type	chEvtWaitAnyTimeout, %function
 2251              	chEvtWaitAnyTimeout:
 2252              	.LVL127:
 2253              	.LFB363:
 2254              		.loc 1 571 76 is_stmt 1 view -0
 2255              		.cfi_startproc
 2256              		@ args = 0, pretend = 0, frame = 0
 2257              		@ frame_needed = 0, uses_anonymous_args = 0
 2258              		.loc 1 572 3 view .LVU711
 2259              	.LBB451:
 2260              	.LBI451:
 2261              		.loc 2 341 25 view .LVU712
 2262              	.LBB452:
 2263              		.loc 2 343 3 view .LVU713
 2264              	.LBE452:
 2265              	.LBE451:
 2266              		.loc 1 571 76 is_stmt 0 view .LVU714
 2267 0000 70B5     		push	{r4, r5, r6, lr}
 2268              		.cfi_def_cfa_offset 16
 2269              		.cfi_offset 4, -16
 2270              		.cfi_offset 5, -12
 2271              		.cfi_offset 6, -8
 2272              		.cfi_offset 14, -4
 2273              	.LBB455:
 2274              	.LBB453:
 2275              		.loc 2 343 10 view .LVU715
 2276 0002 104D     		ldr	r5, .L107
 2277              	.LBE453:
 2278              	.LBE455:
 2279              	.LBB456:
 2280              	.LBB457:
ARM GAS  C:\Users\DEVELO~1\AppData\Local\Temp\ccrRmbj9.s 			page 41


 2281              	.LBB458:
 2282              	.LBB459:
 2283              		.loc 5 493 3 view .LVU716
 2284 0004 3023     		movs	r3, #48
 2285              	.LBE459:
 2286              	.LBE458:
 2287              	.LBE457:
 2288              	.LBE456:
 2289              	.LBB463:
 2290              	.LBB454:
 2291              		.loc 2 343 10 view .LVU717
 2292 0006 EE68     		ldr	r6, [r5, #12]
 2293              	.LVL128:
 2294              		.loc 2 343 10 view .LVU718
 2295              	.LBE454:
 2296              	.LBE463:
 2297              		.loc 1 573 3 is_stmt 1 view .LVU719
 2298              		.loc 1 575 3 view .LVU720
 2299              	.LBB464:
 2300              	.LBI456:
 2301              		.loc 3 407 20 view .LVU721
 2302              		.loc 3 409 3 view .LVU722
 2303              	.LBB462:
 2304              	.LBI457:
 2305              		.loc 4 806 27 view .LVU723
 2306              		.loc 4 814 3 view .LVU724
 2307              	.LBB461:
 2308              	.LBI458:
 2309              		.loc 5 491 27 view .LVU725
 2310              	.LBB460:
 2311              		.loc 5 493 3 view .LVU726
 2312              		.syntax unified
 2313              	@ 493 "../../../os/common/ext/ARM/CMSIS/Core/Include/cmsis_gcc.h" 1
 2314 0008 83F31188 		MSR basepri, r3
 2315              	@ 0 "" 2
 2316              	.LVL129:
 2317              		.loc 5 493 3 is_stmt 0 view .LVU727
 2318              		.thumb
 2319              		.syntax unified
 2320              	.LBE460:
 2321              	.LBE461:
 2322              	.LBE462:
 2323              		.loc 3 410 35 is_stmt 1 view .LVU728
 2324              		.loc 3 411 21 view .LVU729
 2325              	.LBE464:
 2326              		.loc 1 576 3 view .LVU730
 2327              		.loc 1 576 13 is_stmt 0 view .LVU731
 2328 000c B36B     		ldr	r3, [r6, #56]
 2329              	.LVL130:
 2330              		.loc 1 577 3 is_stmt 1 view .LVU732
 2331              		.loc 1 577 6 is_stmt 0 view .LVU733
 2332 000e 13EA0005 		ands	r5, r3, r0
 2333 0012 0ED1     		bne	.L101
 2334              		.loc 1 578 5 is_stmt 1 view .LVU734
 2335              		.loc 1 578 8 is_stmt 0 view .LVU735
 2336 0014 19B9     		cbnz	r1, .L102
 2337              	.LVL131:
ARM GAS  C:\Users\DEVELO~1\AppData\Local\Temp\ccrRmbj9.s 			page 42


 2338              	.L106:
 2339              		.loc 1 584 7 is_stmt 1 view .LVU736
 2340              	.LBB465:
 2341              	.LBI465:
 2342              		.loc 3 421 20 view .LVU737
 2343              	.LBB466:
 2344              		.loc 3 423 23 view .LVU738
 2345              		.loc 3 424 34 view .LVU739
 2346              		.loc 3 430 3 view .LVU740
 2347              		.loc 3 430 3 view .LVU741
 2348              		.loc 3 430 3 view .LVU742
 2349              		.loc 3 434 3 view .LVU743
 2350              	.LBB467:
 2351              	.LBI467:
 2352              		.loc 4 830 27 view .LVU744
 2353              		.loc 4 833 3 view .LVU745
 2354              	.LBB468:
 2355              	.LBI468:
 2356              		.loc 5 491 27 view .LVU746
 2357              	.LBB469:
 2358              		.loc 5 493 3 view .LVU747
 2359              		.syntax unified
 2360              	@ 493 "../../../os/common/ext/ARM/CMSIS/Core/Include/cmsis_gcc.h" 1
 2361 0016 85F31188 		MSR basepri, r5
 2362              	@ 0 "" 2
 2363              	.LVL132:
 2364              		.loc 5 493 3 is_stmt 0 view .LVU748
 2365              		.thumb
 2366              		.syntax unified
 2367              	.LBE469:
 2368              	.LBE468:
 2369              	.LBE467:
 2370              	.LBE466:
 2371              	.LBE465:
 2372              		.loc 1 585 7 is_stmt 1 view .LVU749
 2373              		.loc 1 593 1 is_stmt 0 view .LVU750
 2374 001a 2846     		mov	r0, r5
 2375 001c 70BD     		pop	{r4, r5, r6, pc}
 2376              	.LVL133:
 2377              	.L102:
 2378              		.loc 1 582 5 is_stmt 1 view .LVU751
 2379 001e 0446     		mov	r4, r0
 2380              		.loc 1 583 9 is_stmt 0 view .LVU752
 2381 0020 0A20     		movs	r0, #10
 2382              	.LVL134:
 2383              		.loc 1 582 22 view .LVU753
 2384 0022 B462     		str	r4, [r6, #40]
 2385              		.loc 1 583 5 is_stmt 1 view .LVU754
 2386              		.loc 1 583 9 is_stmt 0 view .LVU755
 2387 0024 FFF7FEFF 		bl	chSchGoSleepTimeoutS
 2388              	.LVL135:
 2389              		.loc 1 583 8 view .LVU756
 2390 0028 0028     		cmp	r0, #0
 2391 002a F4DB     		blt	.L106
 2392              		.loc 1 587 5 is_stmt 1 view .LVU757
 2393              		.loc 1 587 15 is_stmt 0 view .LVU758
 2394 002c B36B     		ldr	r3, [r6, #56]
ARM GAS  C:\Users\DEVELO~1\AppData\Local\Temp\ccrRmbj9.s 			page 43


 2395              		.loc 1 587 7 view .LVU759
 2396 002e 03EA0405 		and	r5, r3, r4
 2397              	.LVL136:
 2398              	.L101:
 2399              		.loc 1 589 3 is_stmt 1 view .LVU760
 2400              		.loc 1 589 20 is_stmt 0 view .LVU761
 2401 0032 23EA0503 		bic	r3, r3, r5
 2402              	.LBB470:
 2403              	.LBB471:
 2404              	.LBB472:
 2405              	.LBB473:
 2406              	.LBB474:
 2407              		.loc 5 493 3 view .LVU762
 2408 0036 0022     		movs	r2, #0
 2409              	.LBE474:
 2410              	.LBE473:
 2411              	.LBE472:
 2412              	.LBE471:
 2413              	.LBE470:
 2414              		.loc 1 589 20 view .LVU763
 2415 0038 B363     		str	r3, [r6, #56]
 2416              		.loc 1 590 3 is_stmt 1 view .LVU764
 2417              	.LBB479:
 2418              	.LBI470:
 2419              		.loc 3 421 20 view .LVU765
 2420              	.LBB478:
 2421              		.loc 3 423 23 view .LVU766
 2422              		.loc 3 424 34 view .LVU767
 2423              		.loc 3 430 3 view .LVU768
 2424              		.loc 3 430 3 view .LVU769
 2425              		.loc 3 430 3 view .LVU770
 2426              		.loc 3 434 3 view .LVU771
 2427              	.LBB477:
 2428              	.LBI472:
 2429              		.loc 4 830 27 view .LVU772
 2430              		.loc 4 833 3 view .LVU773
 2431              	.LVL137:
 2432              	.LBB476:
 2433              	.LBI473:
 2434              		.loc 5 491 27 view .LVU774
 2435              	.LBB475:
 2436              		.loc 5 493 3 view .LVU775
 2437              		.syntax unified
 2438              	@ 493 "../../../os/common/ext/ARM/CMSIS/Core/Include/cmsis_gcc.h" 1
 2439 003a 82F31188 		MSR basepri, r2
 2440              	@ 0 "" 2
 2441              	.LVL138:
 2442              		.loc 5 493 3 is_stmt 0 view .LVU776
 2443              		.thumb
 2444              		.syntax unified
 2445              	.LBE475:
 2446              	.LBE476:
 2447              	.LBE477:
 2448              	.LBE478:
 2449              	.LBE479:
 2450              		.loc 1 592 3 is_stmt 1 view .LVU777
 2451              		.loc 1 593 1 is_stmt 0 view .LVU778
ARM GAS  C:\Users\DEVELO~1\AppData\Local\Temp\ccrRmbj9.s 			page 44


 2452 003e 2846     		mov	r0, r5
 2453 0040 70BD     		pop	{r4, r5, r6, pc}
 2454              	.LVL139:
 2455              	.L108:
 2456              		.loc 1 593 1 view .LVU779
 2457 0042 00BF     		.align	2
 2458              	.L107:
 2459 0044 00000000 		.word	ch0
 2460              		.cfi_endproc
 2461              	.LFE363:
 2462              		.size	chEvtWaitAnyTimeout, .-chEvtWaitAnyTimeout
 2463              		.section	.text.chEvtWaitAllTimeout,"ax",%progbits
 2464              		.align	1
 2465              		.p2align 4,,15
 2466              		.global	chEvtWaitAllTimeout
 2467              		.syntax unified
 2468              		.thumb
 2469              		.thumb_func
 2470              		.type	chEvtWaitAllTimeout, %function
 2471              	chEvtWaitAllTimeout:
 2472              	.LVL140:
 2473              	.LFB364:
 2474              		.loc 1 612 76 is_stmt 1 view -0
 2475              		.cfi_startproc
 2476              		@ args = 0, pretend = 0, frame = 0
 2477              		@ frame_needed = 0, uses_anonymous_args = 0
 2478              		.loc 1 613 3 view .LVU781
 2479              	.LBB480:
 2480              	.LBI480:
 2481              		.loc 2 341 25 view .LVU782
 2482              	.LBB481:
 2483              		.loc 2 343 3 view .LVU783
 2484              	.LBE481:
 2485              	.LBE480:
 2486              		.loc 1 612 76 is_stmt 0 view .LVU784
 2487 0000 38B5     		push	{r3, r4, r5, lr}
 2488              		.cfi_def_cfa_offset 16
 2489              		.cfi_offset 3, -16
 2490              		.cfi_offset 4, -12
 2491              		.cfi_offset 5, -8
 2492              		.cfi_offset 14, -4
 2493              	.LBB484:
 2494              	.LBB482:
 2495              		.loc 2 343 10 view .LVU785
 2496 0002 114D     		ldr	r5, .L115
 2497              	.LBE482:
 2498              	.LBE484:
 2499              	.LBB485:
 2500              	.LBB486:
 2501              	.LBB487:
 2502              	.LBB488:
 2503              		.loc 5 493 3 view .LVU786
 2504 0004 3022     		movs	r2, #48
 2505              	.LBE488:
 2506              	.LBE487:
 2507              	.LBE486:
 2508              	.LBE485:
ARM GAS  C:\Users\DEVELO~1\AppData\Local\Temp\ccrRmbj9.s 			page 45


 2509              		.loc 1 612 76 view .LVU787
 2510 0006 0446     		mov	r4, r0
 2511              	.LBB492:
 2512              	.LBB483:
 2513              		.loc 2 343 10 view .LVU788
 2514 0008 ED68     		ldr	r5, [r5, #12]
 2515              	.LVL141:
 2516              		.loc 2 343 10 view .LVU789
 2517              	.LBE483:
 2518              	.LBE492:
 2519              		.loc 1 615 3 is_stmt 1 view .LVU790
 2520              	.LBB493:
 2521              	.LBI485:
 2522              		.loc 3 407 20 view .LVU791
 2523              		.loc 3 409 3 view .LVU792
 2524              	.LBB491:
 2525              	.LBI486:
 2526              		.loc 4 806 27 view .LVU793
 2527              		.loc 4 814 3 view .LVU794
 2528              	.LBB490:
 2529              	.LBI487:
 2530              		.loc 5 491 27 view .LVU795
 2531              	.LBB489:
 2532              		.loc 5 493 3 view .LVU796
 2533              		.syntax unified
 2534              	@ 493 "../../../os/common/ext/ARM/CMSIS/Core/Include/cmsis_gcc.h" 1
 2535 000a 82F31188 		MSR basepri, r2
 2536              	@ 0 "" 2
 2537              	.LVL142:
 2538              		.loc 5 493 3 is_stmt 0 view .LVU797
 2539              		.thumb
 2540              		.syntax unified
 2541              	.LBE489:
 2542              	.LBE490:
 2543              	.LBE491:
 2544              		.loc 3 410 35 is_stmt 1 view .LVU798
 2545              		.loc 3 411 21 view .LVU799
 2546              	.LBE493:
 2547              		.loc 1 616 3 view .LVU800
 2548              		.loc 1 616 14 is_stmt 0 view .LVU801
 2549 000e AA6B     		ldr	r2, [r5, #56]
 2550              		.loc 1 616 6 view .LVU802
 2551 0010 34EA0200 		bics	r0, r4, r2
 2552              	.LVL143:
 2553              		.loc 1 616 6 view .LVU803
 2554 0014 0BD0     		beq	.L110
 2555              		.loc 1 617 5 is_stmt 1 view .LVU804
 2556              		.loc 1 617 8 is_stmt 0 view .LVU805
 2557 0016 19B9     		cbnz	r1, .L111
 2558              		.loc 1 618 7 is_stmt 1 view .LVU806
 2559              	.LBB494:
 2560              	.LBI494:
 2561              		.loc 3 421 20 view .LVU807
 2562              	.LBB495:
 2563              		.loc 3 423 23 view .LVU808
 2564              		.loc 3 424 34 view .LVU809
 2565              		.loc 3 430 3 view .LVU810
ARM GAS  C:\Users\DEVELO~1\AppData\Local\Temp\ccrRmbj9.s 			page 46


 2566              		.loc 3 430 3 view .LVU811
 2567              		.loc 3 430 3 view .LVU812
 2568              		.loc 3 434 3 view .LVU813
 2569              	.LBB496:
 2570              	.LBI496:
 2571              		.loc 4 830 27 view .LVU814
 2572              		.loc 4 833 3 view .LVU815
 2573              	.LVL144:
 2574              	.LBB497:
 2575              	.LBI497:
 2576              		.loc 5 491 27 view .LVU816
 2577              	.LBB498:
 2578              		.loc 5 493 3 view .LVU817
 2579              		.syntax unified
 2580              	@ 493 "../../../os/common/ext/ARM/CMSIS/Core/Include/cmsis_gcc.h" 1
 2581 0018 81F31188 		MSR basepri, r1
 2582              	@ 0 "" 2
 2583              	.LVL145:
 2584              		.loc 5 493 3 is_stmt 0 view .LVU818
 2585              		.thumb
 2586              		.syntax unified
 2587              	.LBE498:
 2588              	.LBE497:
 2589              	.LBE496:
 2590              	.LBE495:
 2591              	.LBE494:
 2592              		.loc 1 619 7 is_stmt 1 view .LVU819
 2593              		.loc 1 619 14 is_stmt 0 view .LVU820
 2594 001c 0846     		mov	r0, r1
 2595              		.loc 1 631 1 view .LVU821
 2596 001e 38BD     		pop	{r3, r4, r5, pc}
 2597              	.LVL146:
 2598              	.L111:
 2599              		.loc 1 621 5 is_stmt 1 view .LVU822
 2600              		.loc 1 622 9 is_stmt 0 view .LVU823
 2601 0020 0B20     		movs	r0, #11
 2602              		.loc 1 621 22 view .LVU824
 2603 0022 AC62     		str	r4, [r5, #40]
 2604              		.loc 1 622 5 is_stmt 1 view .LVU825
 2605              		.loc 1 622 9 is_stmt 0 view .LVU826
 2606 0024 FFF7FEFF 		bl	chSchGoSleepTimeoutS
 2607              	.LVL147:
 2608              		.loc 1 622 8 view .LVU827
 2609 0028 0028     		cmp	r0, #0
 2610 002a 08DB     		blt	.L113
 2611              		.loc 1 627 20 view .LVU828
 2612 002c AA6B     		ldr	r2, [r5, #56]
 2613              	.L110:
 2614              		.loc 1 627 3 is_stmt 1 view .LVU829
 2615              		.loc 1 627 20 is_stmt 0 view .LVU830
 2616 002e 22EA0402 		bic	r2, r2, r4
 2617              	.LBB499:
 2618              	.LBB500:
 2619              	.LBB501:
 2620              	.LBB502:
 2621              	.LBB503:
 2622              		.loc 5 493 3 view .LVU831
ARM GAS  C:\Users\DEVELO~1\AppData\Local\Temp\ccrRmbj9.s 			page 47


 2623 0032 0023     		movs	r3, #0
 2624              	.LBE503:
 2625              	.LBE502:
 2626              	.LBE501:
 2627              	.LBE500:
 2628              	.LBE499:
 2629              		.loc 1 627 20 view .LVU832
 2630 0034 AA63     		str	r2, [r5, #56]
 2631              		.loc 1 628 3 is_stmt 1 view .LVU833
 2632              	.LBB508:
 2633              	.LBI499:
 2634              		.loc 3 421 20 view .LVU834
 2635              	.LBB507:
 2636              		.loc 3 423 23 view .LVU835
 2637              		.loc 3 424 34 view .LVU836
 2638              		.loc 3 430 3 view .LVU837
 2639              		.loc 3 430 3 view .LVU838
 2640              		.loc 3 430 3 view .LVU839
 2641              		.loc 3 434 3 view .LVU840
 2642              	.LBB506:
 2643              	.LBI501:
 2644              		.loc 4 830 27 view .LVU841
 2645              		.loc 4 833 3 view .LVU842
 2646              	.LVL148:
 2647              	.LBB505:
 2648              	.LBI502:
 2649              		.loc 5 491 27 view .LVU843
 2650              	.LBB504:
 2651              		.loc 5 493 3 view .LVU844
 2652              		.syntax unified
 2653              	@ 493 "../../../os/common/ext/ARM/CMSIS/Core/Include/cmsis_gcc.h" 1
 2654 0036 83F31188 		MSR basepri, r3
 2655              	@ 0 "" 2
 2656              	.LVL149:
 2657              		.loc 5 493 3 is_stmt 0 view .LVU845
 2658              		.thumb
 2659              		.syntax unified
 2660              	.LBE504:
 2661              	.LBE505:
 2662              	.LBE506:
 2663              	.LBE507:
 2664              	.LBE508:
 2665              		.loc 1 630 3 is_stmt 1 view .LVU846
 2666              		.loc 1 630 10 is_stmt 0 view .LVU847
 2667 003a 2046     		mov	r0, r4
 2668              		.loc 1 631 1 view .LVU848
 2669 003c 38BD     		pop	{r3, r4, r5, pc}
 2670              	.LVL150:
 2671              	.L113:
 2672              		.loc 1 623 7 is_stmt 1 view .LVU849
 2673              	.LBB509:
 2674              	.LBI509:
 2675              		.loc 3 421 20 view .LVU850
 2676              	.LBB510:
 2677              		.loc 3 423 23 view .LVU851
 2678              		.loc 3 424 34 view .LVU852
 2679              		.loc 3 430 3 view .LVU853
ARM GAS  C:\Users\DEVELO~1\AppData\Local\Temp\ccrRmbj9.s 			page 48


 2680              		.loc 3 430 3 view .LVU854
 2681              		.loc 3 430 3 view .LVU855
 2682              		.loc 3 434 3 view .LVU856
 2683              	.LBB511:
 2684              	.LBI511:
 2685              		.loc 4 830 27 view .LVU857
 2686              		.loc 4 833 3 view .LVU858
 2687              	.LBB512:
 2688              	.LBI512:
 2689              		.loc 5 491 27 view .LVU859
 2690              	.LBB513:
 2691              		.loc 5 493 3 view .LVU860
 2692 003e 0020     		movs	r0, #0
 2693              		.syntax unified
 2694              	@ 493 "../../../os/common/ext/ARM/CMSIS/Core/Include/cmsis_gcc.h" 1
 2695 0040 80F31188 		MSR basepri, r0
 2696              	@ 0 "" 2
 2697              	.LVL151:
 2698              		.loc 5 493 3 is_stmt 0 view .LVU861
 2699              		.thumb
 2700              		.syntax unified
 2701              	.LBE513:
 2702              	.LBE512:
 2703              	.LBE511:
 2704              	.LBE510:
 2705              	.LBE509:
 2706              		.loc 1 624 7 is_stmt 1 view .LVU862
 2707              		.loc 1 631 1 is_stmt 0 view .LVU863
 2708 0044 38BD     		pop	{r3, r4, r5, pc}
 2709              	.LVL152:
 2710              	.L116:
 2711              		.loc 1 631 1 view .LVU864
 2712 0046 00BF     		.align	2
 2713              	.L115:
 2714 0048 00000000 		.word	ch0
 2715              		.cfi_endproc
 2716              	.LFE364:
 2717              		.size	chEvtWaitAllTimeout, .-chEvtWaitAllTimeout
 2718              		.text
 2719              	.Letext0:
 2720              		.file 7 "c:\\chibistudio\\tools\\gnu tools arm embedded\\11.3 2022.08\\arm-none-eabi\\include\\mac
 2721              		.file 8 "c:\\chibistudio\\tools\\gnu tools arm embedded\\11.3 2022.08\\arm-none-eabi\\include\\sys
 2722              		.file 9 "../../../os/common/ports/ARM-common/chtypes.h"
 2723              		.file 10 "../../../os/rt/include/chearly.h"
 2724              		.file 11 "../../../os/rt/include/chobjects.h"
 2725              		.file 12 "../../../os/rt/include/chrfcu.h"
 2726              		.file 13 "../../../os/rt/include/chdebug.h"
 2727              		.file 14 "../../../os/rt/include/chtime.h"
 2728              		.file 15 "../../../os/rt/include/chlists.h"
 2729              		.file 16 "../../../os/rt/include/chtrace.h"
 2730              		.file 17 "../../../os/rt/include/chsem.h"
 2731              		.file 18 "../../../os/rt/include/chmtx.h"
 2732              		.file 19 "../../../os/rt/include/chschd.h"