ARM GAS  C:\Users\DEVELO~1\AppData\Local\Temp\ccwdFl9J.s 			page 1


   1              		.cpu cortex-m7
   2              		.arch armv7e-m
   3              		.fpu softvfp
   4              		.eabi_attribute 20, 1
   5              		.eabi_attribute 21, 1
   6              		.eabi_attribute 23, 3
   7              		.eabi_attribute 24, 1
   8              		.eabi_attribute 25, 1
   9              		.eabi_attribute 26, 1
  10              		.eabi_attribute 30, 2
  11              		.eabi_attribute 34, 1
  12              		.eabi_attribute 18, 4
  13              		.file	"chfactory.c"
  14              		.text
  15              	.Ltext0:
  16              		.cfi_sections	.debug_frame
  17              		.section	.text.chCoreAllocAlignedI,"ax",%progbits
  18              		.align	1
  19              		.p2align 4,,15
  20              		.syntax unified
  21              		.thumb
  22              		.thumb_func
  23              		.type	chCoreAllocAlignedI, %function
  24              	chCoreAllocAlignedI:
  25              	.LVL0:
  26              	.LFB280:
  27              		.file 1 "../../../os/oslib/include/chmemcore.h"
  28              		.loc 1 150 70 view -0
  29              		.cfi_startproc
  30              		@ args = 0, pretend = 0, frame = 0
  31              		@ frame_needed = 0, uses_anonymous_args = 0
  32              		@ link register save eliminated.
  33              		.loc 1 152 3 view .LVU1
  34              		.loc 1 152 10 is_stmt 0 view .LVU2
  35 0000 0022     		movs	r2, #0
  36 0002 FFF7FEBF 		b	chCoreAllocFromTopI
  37              	.LVL1:
  38              		.loc 1 152 10 view .LVU3
  39              		.cfi_endproc
  40              	.LFE280:
  41              		.size	chCoreAllocAlignedI, .-chCoreAllocAlignedI
  42 0006 00BF     		.section	.text.dyn_create_object_heap,"ax",%progbits
  43              		.align	1
  44              		.p2align 4,,15
  45              		.syntax unified
  46              		.thumb
  47              		.thumb_func
  48              		.type	dyn_create_object_heap, %function
  49              	dyn_create_object_heap:
  50              	.LVL2:
  51              	.LFB350:
  52              		.file 2 "../../../os/oslib/src/chfactory.c"
  53              		.loc 2 139 62 is_stmt 1 view -0
  54              		.cfi_startproc
  55              		@ args = 0, pretend = 0, frame = 0
  56              		@ frame_needed = 0, uses_anonymous_args = 0
  57              		.loc 2 140 3 view .LVU5
ARM GAS  C:\Users\DEVELO~1\AppData\Local\Temp\ccwdFl9J.s 			page 2


  58              		.loc 2 142 3 view .LVU6
  59              		.loc 2 142 3 view .LVU7
  60              		.loc 2 142 3 view .LVU8
  61              		.loc 2 145 3 view .LVU9
  62              		.loc 2 139 62 is_stmt 0 view .LVU10
  63 0000 2DE9F041 		push	{r4, r5, r6, r7, r8, lr}
  64              		.cfi_def_cfa_offset 24
  65              		.cfi_offset 4, -24
  66              		.cfi_offset 5, -20
  67              		.cfi_offset 6, -16
  68              		.cfi_offset 7, -12
  69              		.cfi_offset 8, -8
  70              		.cfi_offset 14, -4
  71              	.LBB32:
  72              	.LBB33:
  73              		.loc 2 104 18 view .LVU11
  74 0004 0C68     		ldr	r4, [r1]
  75              	.LBE33:
  76              	.LBE32:
  77              		.loc 2 139 62 view .LVU12
  78 0006 0E46     		mov	r6, r1
  79 0008 0546     		mov	r5, r0
  80              	.LVL3:
  81              	.LBB37:
  82              	.LBI32:
  83              		.loc 2 103 23 is_stmt 1 view .LVU13
  84              	.LBB34:
  85              		.loc 2 104 3 view .LVU14
  86              		.loc 2 106 3 view .LVU15
  87              		.loc 2 106 12 view .LVU16
  88              	.LBE34:
  89              	.LBE37:
  90              		.loc 2 139 62 is_stmt 0 view .LVU17
  91 000a 1746     		mov	r7, r2
  92              	.LBB38:
  93              	.LBB35:
  94              		.loc 2 106 12 view .LVU18
  95 000c A142     		cmp	r1, r4
  96              	.LBE35:
  97              	.LBE38:
  98              		.loc 2 139 62 view .LVU19
  99 000e 9846     		mov	r8, r3
 100              	.LBB39:
 101              	.LBB36:
 102              		.loc 2 106 12 view .LVU20
 103 0010 03D1     		bne	.L7
 104 0012 0EE0     		b	.L4
 105              	.LVL4:
 106              	.L5:
 107              		.loc 2 110 7 view .LVU21
 108 0014 2468     		ldr	r4, [r4]
 109              	.LVL5:
 110              		.loc 2 106 12 is_stmt 1 view .LVU22
 111 0016 A642     		cmp	r6, r4
 112 0018 0BD0     		beq	.L4
 113              	.L7:
 114              		.loc 2 107 5 view .LVU23
ARM GAS  C:\Users\DEVELO~1\AppData\Local\Temp\ccwdFl9J.s 			page 3


 115              		.loc 2 107 9 is_stmt 0 view .LVU24
 116 001a 04F10800 		add	r0, r4, #8
 117 001e 0822     		movs	r2, #8
 118 0020 2946     		mov	r1, r5
 119 0022 FFF7FEFF 		bl	strncmp
 120              	.LVL6:
 121              		.loc 2 110 5 is_stmt 1 view .LVU25
 122              		.loc 2 107 8 is_stmt 0 view .LVU26
 123 0026 0028     		cmp	r0, #0
 124 0028 F4D1     		bne	.L5
 125              		.loc 2 108 7 is_stmt 1 view .LVU27
 126              	.LVL7:
 127              		.loc 2 108 7 is_stmt 0 view .LVU28
 128              	.LBE36:
 129              	.LBE39:
 130              		.loc 2 146 3 is_stmt 1 view .LVU29
 131              		.loc 2 146 6 is_stmt 0 view .LVU30
 132 002a 14B1     		cbz	r4, .L4
 133              	.LVL8:
 134              	.L8:
 135              		.loc 2 147 12 view .LVU31
 136 002c 0020     		movs	r0, #0
 137              		.loc 2 165 1 view .LVU32
 138 002e BDE8F081 		pop	{r4, r5, r6, r7, r8, pc}
 139              	.LVL9:
 140              	.L4:
 141              	.LBB40:
 142              	.LBI40:
 143              		.loc 2 136 23 is_stmt 1 view .LVU33
 144              	.LBB41:
 145              		.loc 2 151 3 view .LVU34
 146              		.loc 2 151 26 is_stmt 0 view .LVU35
 147 0032 4246     		mov	r2, r8
 148 0034 3946     		mov	r1, r7
 149 0036 0020     		movs	r0, #0
 150 0038 FFF7FEFF 		bl	chHeapAllocAligned
 151              	.LVL10:
 152              		.loc 2 152 3 is_stmt 1 view .LVU36
 153              		.loc 2 152 6 is_stmt 0 view .LVU37
 154 003c 0028     		cmp	r0, #0
 155 003e F5D0     		beq	.L8
 156              		.loc 2 157 3 is_stmt 1 view .LVU38
 157              		.loc 2 157 22 is_stmt 0 view .LVU39
 158 0040 00F10801 		add	r1, r0, #8
 159              	.LVL11:
 160              	.LBB42:
 161              	.LBI42:
 162              		.loc 2 86 13 is_stmt 1 view .LVU40
 163              	.LBB43:
 164              		.loc 2 87 3 view .LVU41
 165              		.loc 2 88 3 view .LVU42
 166              		.loc 2 90 3 view .LVU43
 167              		.loc 2 90 3 is_stmt 0 view .LVU44
 168              	.LBE43:
 169              	.LBE42:
 170              		.loc 2 157 22 view .LVU45
 171 0044 2B46     		mov	r3, r5
ARM GAS  C:\Users\DEVELO~1\AppData\Local\Temp\ccwdFl9J.s 			page 4


 172              	.LVL12:
 173              	.L9:
 174              	.LBB45:
 175              	.LBB44:
 176              		.loc 2 91 3 is_stmt 1 view .LVU46
 177              		.loc 2 92 5 view .LVU47
 178              		.loc 2 92 7 is_stmt 0 view .LVU48
 179 0046 13F8012B 		ldrb	r2, [r3], #1	@ zero_extendqisi2
 180              	.LVL13:
 181              		.loc 2 93 5 is_stmt 1 view .LVU49
 182              		.loc 2 95 33 is_stmt 0 view .LVU50
 183 004a C3F10804 		rsb	r4, r3, #8
 184              		.loc 2 93 11 view .LVU51
 185 004e 01F8012B 		strb	r2, [r1], #1
 186              	.LVL14:
 187              		.loc 2 94 5 is_stmt 1 view .LVU52
 188              		.loc 2 95 27 view .LVU53
 189 0052 E542     		cmn	r5, r4
 190 0054 01D0     		beq	.L11
 191 0056 002A     		cmp	r2, #0
 192 0058 F5D1     		bne	.L9
 193              	.L11:
 194              	.LVL15:
 195              		.loc 2 95 27 is_stmt 0 view .LVU54
 196              	.LBE44:
 197              	.LBE45:
 198              		.loc 2 158 3 is_stmt 1 view .LVU55
 199              		.loc 2 159 13 is_stmt 0 view .LVU56
 200 005a 3268     		ldr	r2, [r6]
 201              		.loc 2 158 13 view .LVU57
 202 005c 0123     		movs	r3, #1
 203 005e C0E90023 		strd	r2, r3, [r0]
 204              		.loc 2 159 3 is_stmt 1 view .LVU58
 205              		.loc 2 162 3 view .LVU59
 206              		.loc 2 162 13 is_stmt 0 view .LVU60
 207 0062 3060     		str	r0, [r6]
 208              		.loc 2 164 3 is_stmt 1 view .LVU61
 209              	.LVL16:
 210              		.loc 2 164 3 is_stmt 0 view .LVU62
 211              	.LBE41:
 212              	.LBE40:
 213              		.loc 2 165 1 view .LVU63
 214 0064 BDE8F081 		pop	{r4, r5, r6, r7, r8, pc}
 215              		.loc 2 165 1 view .LVU64
 216              		.cfi_endproc
 217              	.LFE350:
 218              		.size	dyn_create_object_heap, .-dyn_create_object_heap
 219              		.section	.text.__factory_init,"ax",%progbits
 220              		.align	1
 221              		.p2align 4,,15
 222              		.global	__factory_init
 223              		.syntax unified
 224              		.thumb
 225              		.thumb_func
 226              		.type	__factory_init, %function
 227              	__factory_init:
 228              	.LFB355:
ARM GAS  C:\Users\DEVELO~1\AppData\Local\Temp\ccwdFl9J.s 			page 5


 229              		.loc 2 251 27 is_stmt 1 view -0
 230              		.cfi_startproc
 231              		@ args = 0, pretend = 0, frame = 0
 232              		@ frame_needed = 0, uses_anonymous_args = 0
 233              		.loc 2 254 3 view .LVU66
 234              		.loc 2 251 27 is_stmt 0 view .LVU67
 235 0000 38B5     		push	{r3, r4, r5, lr}
 236              		.cfi_def_cfa_offset 16
 237              		.cfi_offset 3, -16
 238              		.cfi_offset 4, -12
 239              		.cfi_offset 5, -8
 240              		.cfi_offset 14, -4
 241              		.loc 2 254 3 view .LVU68
 242 0002 124C     		ldr	r4, .L26
 243              	.LBB46:
 244              	.LBB47:
 245              		.file 3 "../../../os/oslib/include/chmempools.h"
 246              		.loc 3 193 3 view .LVU69
 247 0004 124D     		ldr	r5, .L26+4
 248              	.LBE47:
 249              	.LBE46:
 250              		.loc 2 254 3 view .LVU70
 251 0006 2046     		mov	r0, r4
 252 0008 FFF7FEFF 		bl	chMtxObjectInit
 253              	.LVL17:
 254              		.loc 2 260 3 is_stmt 1 view .LVU71
 255              	.LBB50:
 256              	.LBI50:
 257              		.loc 2 98 20 view .LVU72
 258              	.LBB51:
 259              		.loc 2 100 3 view .LVU73
 260              		.loc 2 100 13 is_stmt 0 view .LVU74
 261 000c 04F11001 		add	r1, r4, #16
 262              	.LBE51:
 263              	.LBE50:
 264              	.LBB53:
 265              	.LBB48:
 266              		.loc 3 193 3 view .LVU75
 267 0010 2B46     		mov	r3, r5
 268 0012 0422     		movs	r2, #4
 269              	.LBE48:
 270              	.LBE53:
 271              	.LBB54:
 272              	.LBB52:
 273              		.loc 2 100 13 view .LVU76
 274 0014 2161     		str	r1, [r4, #16]
 275              	.LVL18:
 276              		.loc 2 100 13 view .LVU77
 277              	.LBE52:
 278              	.LBE54:
 279              		.loc 2 261 3 is_stmt 1 view .LVU78
 280              	.LBB55:
 281              	.LBI46:
 282              		.loc 3 189 20 view .LVU79
 283              	.LBB49:
 284              		.loc 3 193 3 view .LVU80
 285 0016 1421     		movs	r1, #20
ARM GAS  C:\Users\DEVELO~1\AppData\Local\Temp\ccwdFl9J.s 			page 6


 286 0018 6018     		adds	r0, r4, r1
 287 001a FFF7FEFF 		bl	chPoolObjectInitAligned
 288              	.LVL19:
 289              		.loc 3 193 3 is_stmt 0 view .LVU81
 290              	.LBE49:
 291              	.LBE55:
 292              		.loc 2 266 3 is_stmt 1 view .LVU82
 293              	.LBB56:
 294              	.LBI56:
 295              		.loc 2 98 20 view .LVU83
 296              	.LBB57:
 297              		.loc 2 100 3 view .LVU84
 298              		.loc 2 100 13 is_stmt 0 view .LVU85
 299 001e 04F12400 		add	r0, r4, #36
 300              	.LBE57:
 301              	.LBE56:
 302              	.LBB58:
 303              	.LBB59:
 304 0022 04F12801 		add	r1, r4, #40
 305              	.LBE59:
 306              	.LBE58:
 307              	.LBB61:
 308              	.LBB62:
 309              		.loc 3 193 3 view .LVU86
 310 0026 2B46     		mov	r3, r5
 311 0028 0422     		movs	r2, #4
 312              	.LBE62:
 313              	.LBE61:
 314              	.LBB64:
 315              	.LBB60:
 316              		.loc 2 100 13 view .LVU87
 317 002a C4E90901 		strd	r0, r1, [r4, #36]
 318              	.LBE60:
 319              	.LBE64:
 320              		.loc 2 270 3 is_stmt 1 view .LVU88
 321              	.LVL20:
 322              	.LBB65:
 323              	.LBI61:
 324              		.loc 3 189 20 view .LVU89
 325              	.LBB63:
 326              		.loc 3 193 3 view .LVU90
 327 002e 1C21     		movs	r1, #28
 328 0030 04F12C00 		add	r0, r4, #44
 329 0034 FFF7FEFF 		bl	chPoolObjectInitAligned
 330              	.LVL21:
 331              		.loc 3 193 3 is_stmt 0 view .LVU91
 332              	.LBE63:
 333              	.LBE65:
 334              		.loc 2 275 3 is_stmt 1 view .LVU92
 335              	.LBB66:
 336              	.LBI66:
 337              		.loc 2 98 20 view .LVU93
 338              	.LBB67:
 339              		.loc 2 100 3 view .LVU94
 340              		.loc 2 100 13 is_stmt 0 view .LVU95
 341 0038 04F13C01 		add	r1, r4, #60
 342              	.LBE67:
ARM GAS  C:\Users\DEVELO~1\AppData\Local\Temp\ccwdFl9J.s 			page 7


 343              	.LBE66:
 344              	.LBB68:
 345              	.LBB69:
 346 003c 04F14002 		add	r2, r4, #64
 347              	.LBE69:
 348              	.LBE68:
 349              	.LBB71:
 350              	.LBB72:
 351 0040 04F14403 		add	r3, r4, #68
 352              	.LBE72:
 353              	.LBE71:
 354              	.LBB74:
 355              	.LBB70:
 356 0044 C4E90F12 		strd	r1, r2, [r4, #60]
 357              	.LBE70:
 358              	.LBE74:
 359              		.loc 2 281 3 is_stmt 1 view .LVU96
 360              	.LVL22:
 361              	.LBB75:
 362              	.LBI71:
 363              		.loc 2 98 20 view .LVU97
 364              	.LBB73:
 365              		.loc 2 100 3 view .LVU98
 366              		.loc 2 100 13 is_stmt 0 view .LVU99
 367 0048 6364     		str	r3, [r4, #68]
 368              	.LVL23:
 369              		.loc 2 100 13 view .LVU100
 370              	.LBE73:
 371              	.LBE75:
 372              		.loc 2 283 1 view .LVU101
 373 004a 38BD     		pop	{r3, r4, r5, pc}
 374              	.L27:
 375              		.align	2
 376              	.L26:
 377 004c 00000000 		.word	.LANCHOR0
 378 0050 00000000 		.word	chCoreAllocAlignedI
 379              		.cfi_endproc
 380              	.LFE355:
 381              		.size	__factory_init, .-__factory_init
 382              		.section	.text.chFactoryRegisterObject,"ax",%progbits
 383              		.align	1
 384              		.p2align 4,,15
 385              		.global	chFactoryRegisterObject
 386              		.syntax unified
 387              		.thumb
 388              		.thumb_func
 389              		.type	chFactoryRegisterObject, %function
 390              	chFactoryRegisterObject:
 391              	.LVL24:
 392              	.LFB356:
 393              		.loc 2 301 58 is_stmt 1 view -0
 394              		.cfi_startproc
 395              		@ args = 0, pretend = 0, frame = 0
 396              		@ frame_needed = 0, uses_anonymous_args = 0
 397              		.loc 2 302 3 view .LVU103
 398              		.loc 2 304 3 view .LVU104
 399              		.loc 2 301 58 is_stmt 0 view .LVU105
ARM GAS  C:\Users\DEVELO~1\AppData\Local\Temp\ccwdFl9J.s 			page 8


 400 0000 2DE9F041 		push	{r4, r5, r6, r7, r8, lr}
 401              		.cfi_def_cfa_offset 24
 402              		.cfi_offset 4, -24
 403              		.cfi_offset 5, -20
 404              		.cfi_offset 6, -16
 405              		.cfi_offset 7, -12
 406              		.cfi_offset 8, -8
 407              		.cfi_offset 14, -4
 408              		.loc 2 304 3 view .LVU106
 409 0004 1F4F     		ldr	r7, .L50
 410              		.loc 2 301 58 view .LVU107
 411 0006 0546     		mov	r5, r0
 412 0008 8846     		mov	r8, r1
 413              	.LBB84:
 414              	.LBB85:
 415              	.LBB86:
 416              	.LBB87:
 417              		.loc 2 104 18 view .LVU108
 418 000a 3E46     		mov	r6, r7
 419              	.LBE87:
 420              	.LBE86:
 421              	.LBE85:
 422              	.LBE84:
 423              		.loc 2 304 3 view .LVU109
 424 000c 3846     		mov	r0, r7
 425              	.LVL25:
 426              		.loc 2 304 3 view .LVU110
 427 000e FFF7FEFF 		bl	chMtxLock
 428              	.LVL26:
 429              		.loc 2 306 3 is_stmt 1 view .LVU111
 430              	.LBB101:
 431              	.LBI84:
 432              		.loc 2 182 23 view .LVU112
 433              	.LBB98:
 434              		.loc 2 185 3 view .LVU113
 435              		.loc 2 187 3 view .LVU114
 436              		.loc 2 187 3 view .LVU115
 437              		.loc 2 187 3 view .LVU116
 438              		.loc 2 190 3 view .LVU117
 439              	.LBB89:
 440              	.LBI86:
 441              		.loc 2 103 23 view .LVU118
 442              	.LBB88:
 443              		.loc 2 104 3 view .LVU119
 444              		.loc 2 104 18 is_stmt 0 view .LVU120
 445 0012 56F8104F 		ldr	r4, [r6, #16]!
 446              	.LVL27:
 447              		.loc 2 106 3 is_stmt 1 view .LVU121
 448              		.loc 2 106 12 view .LVU122
 449 0016 B442     		cmp	r4, r6
 450 0018 03D1     		bne	.L31
 451 001a 12E0     		b	.L29
 452              	.L49:
 453              		.loc 2 110 7 is_stmt 0 view .LVU123
 454 001c 2468     		ldr	r4, [r4]
 455              	.LVL28:
 456              		.loc 2 106 12 is_stmt 1 view .LVU124
ARM GAS  C:\Users\DEVELO~1\AppData\Local\Temp\ccwdFl9J.s 			page 9


 457 001e B442     		cmp	r4, r6
 458 0020 0FD0     		beq	.L29
 459              	.L31:
 460              		.loc 2 107 5 view .LVU125
 461              		.loc 2 107 9 is_stmt 0 view .LVU126
 462 0022 04F10800 		add	r0, r4, #8
 463 0026 0822     		movs	r2, #8
 464 0028 2946     		mov	r1, r5
 465 002a FFF7FEFF 		bl	strncmp
 466              	.LVL29:
 467              		.loc 2 110 5 is_stmt 1 view .LVU127
 468              		.loc 2 107 8 is_stmt 0 view .LVU128
 469 002e 0028     		cmp	r0, #0
 470 0030 F4D1     		bne	.L49
 471              	.LVL30:
 472              		.loc 2 107 8 view .LVU129
 473              	.LBE88:
 474              	.LBE89:
 475              		.loc 2 191 3 is_stmt 1 view .LVU130
 476              		.loc 2 191 6 is_stmt 0 view .LVU131
 477 0032 34B1     		cbz	r4, .L29
 478              	.LVL31:
 479              	.L33:
 480              		.loc 2 192 12 view .LVU132
 481 0034 0026     		movs	r6, #0
 482              	.LVL32:
 483              		.loc 2 192 12 view .LVU133
 484              	.LBE98:
 485              	.LBE101:
 486              		.loc 2 314 3 is_stmt 1 view .LVU134
 487 0036 1348     		ldr	r0, .L50
 488 0038 FFF7FEFF 		bl	chMtxUnlock
 489              	.LVL33:
 490              		.loc 2 316 3 view .LVU135
 491              		.loc 2 317 1 is_stmt 0 view .LVU136
 492 003c 3046     		mov	r0, r6
 493 003e BDE8F081 		pop	{r4, r5, r6, r7, r8, pc}
 494              	.LVL34:
 495              	.L29:
 496              	.LBB102:
 497              	.LBB99:
 498              	.LBB90:
 499              	.LBI90:
 500              		.loc 2 182 23 is_stmt 1 view .LVU137
 501              	.LBB91:
 502              		.loc 2 196 3 view .LVU138
 503              		.loc 2 196 26 is_stmt 0 view .LVU139
 504 0042 1148     		ldr	r0, .L50+4
 505 0044 FFF7FEFF 		bl	chPoolAlloc
 506              	.LVL35:
 507              		.loc 2 197 3 is_stmt 1 view .LVU140
 508              		.loc 2 197 6 is_stmt 0 view .LVU141
 509 0048 0646     		mov	r6, r0
 510 004a 0028     		cmp	r0, #0
 511 004c F2D0     		beq	.L33
 512              		.loc 2 202 3 is_stmt 1 view .LVU142
 513              		.loc 2 202 22 is_stmt 0 view .LVU143
ARM GAS  C:\Users\DEVELO~1\AppData\Local\Temp\ccwdFl9J.s 			page 10


 514 004e 00F10801 		add	r1, r0, #8
 515              	.LVL36:
 516              	.LBB92:
 517              	.LBI92:
 518              		.loc 2 86 13 is_stmt 1 view .LVU144
 519              	.LBB93:
 520              		.loc 2 87 3 view .LVU145
 521              		.loc 2 88 3 view .LVU146
 522              		.loc 2 90 3 view .LVU147
 523              		.loc 2 90 3 is_stmt 0 view .LVU148
 524              	.LBE93:
 525              	.LBE92:
 526              		.loc 2 202 22 view .LVU149
 527 0052 2B46     		mov	r3, r5
 528              	.LVL37:
 529              	.L34:
 530              	.LBB95:
 531              	.LBB94:
 532              		.loc 2 91 3 is_stmt 1 view .LVU150
 533              		.loc 2 92 5 view .LVU151
 534              		.loc 2 92 7 is_stmt 0 view .LVU152
 535 0054 13F8012B 		ldrb	r2, [r3], #1	@ zero_extendqisi2
 536              	.LVL38:
 537              		.loc 2 93 5 is_stmt 1 view .LVU153
 538              		.loc 2 95 33 is_stmt 0 view .LVU154
 539 0058 C3F10804 		rsb	r4, r3, #8
 540              		.loc 2 93 11 view .LVU155
 541 005c 01F8012B 		strb	r2, [r1], #1
 542              	.LVL39:
 543              		.loc 2 94 5 is_stmt 1 view .LVU156
 544              		.loc 2 95 27 view .LVU157
 545 0060 E542     		cmn	r5, r4
 546 0062 01D0     		beq	.L36
 547 0064 002A     		cmp	r2, #0
 548 0066 F5D1     		bne	.L34
 549              	.L36:
 550              	.LVL40:
 551              		.loc 2 95 27 is_stmt 0 view .LVU158
 552              	.LBE94:
 553              	.LBE95:
 554              		.loc 2 203 3 is_stmt 1 view .LVU159
 555              		.loc 2 204 13 is_stmt 0 view .LVU160
 556 0068 3A69     		ldr	r2, [r7, #16]
 557              		.loc 2 203 13 view .LVU161
 558 006a 0123     		movs	r3, #1
 559              	.LBE91:
 560              	.LBE90:
 561              	.LBE99:
 562              	.LBE102:
 563              		.loc 2 314 3 view .LVU162
 564 006c 0548     		ldr	r0, .L50
 565              	.LVL41:
 566              	.LBB103:
 567              	.LBB100:
 568              	.LBB97:
 569              	.LBB96:
 570              		.loc 2 203 13 view .LVU163
ARM GAS  C:\Users\DEVELO~1\AppData\Local\Temp\ccwdFl9J.s 			page 11


 571 006e C6E90023 		strd	r2, r3, [r6]
 572              		.loc 2 204 3 is_stmt 1 view .LVU164
 573              		.loc 2 207 3 view .LVU165
 574              		.loc 2 207 13 is_stmt 0 view .LVU166
 575 0072 3E61     		str	r6, [r7, #16]
 576              		.loc 2 209 3 is_stmt 1 view .LVU167
 577              	.LVL42:
 578              		.loc 2 209 3 is_stmt 0 view .LVU168
 579              	.LBE96:
 580              	.LBE97:
 581              	.LBE100:
 582              	.LBE103:
 583              		.loc 2 309 3 is_stmt 1 view .LVU169
 584              		.loc 2 311 5 view .LVU170
 585              		.loc 2 311 15 is_stmt 0 view .LVU171
 586 0074 C6F81080 		str	r8, [r6, #16]
 587              	.LVL43:
 588              		.loc 2 314 3 is_stmt 1 view .LVU172
 589 0078 FFF7FEFF 		bl	chMtxUnlock
 590              	.LVL44:
 591              		.loc 2 316 3 view .LVU173
 592              		.loc 2 317 1 is_stmt 0 view .LVU174
 593 007c 3046     		mov	r0, r6
 594 007e BDE8F081 		pop	{r4, r5, r6, r7, r8, pc}
 595              	.LVL45:
 596              	.L51:
 597              		.loc 2 317 1 view .LVU175
 598 0082 00BF     		.align	2
 599              	.L50:
 600 0084 00000000 		.word	.LANCHOR0
 601 0088 14000000 		.word	.LANCHOR0+20
 602              		.cfi_endproc
 603              	.LFE356:
 604              		.size	chFactoryRegisterObject, .-chFactoryRegisterObject
 605              		.section	.text.chFactoryFindObject,"ax",%progbits
 606              		.align	1
 607              		.p2align 4,,15
 608              		.global	chFactoryFindObject
 609              		.syntax unified
 610              		.thumb
 611              		.thumb_func
 612              		.type	chFactoryFindObject, %function
 613              	chFactoryFindObject:
 614              	.LVL46:
 615              	.LFB357:
 616              		.loc 2 332 60 is_stmt 1 view -0
 617              		.cfi_startproc
 618              		@ args = 0, pretend = 0, frame = 0
 619              		@ frame_needed = 0, uses_anonymous_args = 0
 620              		.loc 2 333 3 view .LVU177
 621              		.loc 2 335 3 view .LVU178
 622 0000 124B     		ldr	r3, .L60
 623              		.loc 2 332 60 is_stmt 0 view .LVU179
 624 0002 70B5     		push	{r4, r5, r6, lr}
 625              		.cfi_def_cfa_offset 16
 626              		.cfi_offset 4, -16
 627              		.cfi_offset 5, -12
ARM GAS  C:\Users\DEVELO~1\AppData\Local\Temp\ccwdFl9J.s 			page 12


 628              		.cfi_offset 6, -8
 629              		.cfi_offset 14, -4
 630              	.LBB108:
 631              	.LBB109:
 632              	.LBB110:
 633              	.LBB111:
 634              		.loc 2 104 18 view .LVU180
 635 0004 1D46     		mov	r5, r3
 636              	.LBE111:
 637              	.LBE110:
 638              	.LBE109:
 639              	.LBE108:
 640              		.loc 2 332 60 view .LVU181
 641 0006 0646     		mov	r6, r0
 642              		.loc 2 335 3 view .LVU182
 643 0008 1846     		mov	r0, r3
 644              	.LVL47:
 645              		.loc 2 335 3 view .LVU183
 646 000a FFF7FEFF 		bl	chMtxLock
 647              	.LVL48:
 648              		.loc 2 337 3 is_stmt 1 view .LVU184
 649              	.LBB118:
 650              	.LBI108:
 651              		.loc 2 227 23 view .LVU185
 652              	.LBB116:
 653              		.loc 2 228 3 view .LVU186
 654              		.loc 2 230 3 view .LVU187
 655              		.loc 2 230 3 view .LVU188
 656              		.loc 2 230 3 view .LVU189
 657              		.loc 2 233 3 view .LVU190
 658              	.LBB114:
 659              	.LBI110:
 660              		.loc 2 103 23 view .LVU191
 661              	.LBB112:
 662              		.loc 2 104 3 view .LVU192
 663              		.loc 2 104 18 is_stmt 0 view .LVU193
 664 000e 55F8104F 		ldr	r4, [r5, #16]!
 665              	.LVL49:
 666              		.loc 2 106 3 is_stmt 1 view .LVU194
 667              		.loc 2 106 12 view .LVU195
 668 0012 AC42     		cmp	r4, r5
 669 0014 03D1     		bne	.L56
 670 0016 13E0     		b	.L57
 671              	.L54:
 672              		.loc 2 110 7 is_stmt 0 view .LVU196
 673 0018 2468     		ldr	r4, [r4]
 674              	.LVL50:
 675              		.loc 2 106 12 is_stmt 1 view .LVU197
 676 001a AC42     		cmp	r4, r5
 677 001c 10D0     		beq	.L57
 678              	.L56:
 679              		.loc 2 107 5 view .LVU198
 680              		.loc 2 107 9 is_stmt 0 view .LVU199
 681 001e 04F10800 		add	r0, r4, #8
 682 0022 0822     		movs	r2, #8
 683 0024 3146     		mov	r1, r6
 684 0026 FFF7FEFF 		bl	strncmp
ARM GAS  C:\Users\DEVELO~1\AppData\Local\Temp\ccwdFl9J.s 			page 13


 685              	.LVL51:
 686              		.loc 2 110 5 is_stmt 1 view .LVU200
 687              		.loc 2 107 8 is_stmt 0 view .LVU201
 688 002a 0028     		cmp	r0, #0
 689 002c F4D1     		bne	.L54
 690              		.loc 2 108 7 is_stmt 1 view .LVU202
 691              	.LVL52:
 692              		.loc 2 108 7 is_stmt 0 view .LVU203
 693              	.LBE112:
 694              	.LBE114:
 695              		.loc 2 234 3 is_stmt 1 view .LVU204
 696              		.loc 2 234 6 is_stmt 0 view .LVU205
 697 002e 14B1     		cbz	r4, .L53
 698              		.loc 2 236 5 is_stmt 1 view .LVU206
 699              		.loc 2 236 14 is_stmt 0 view .LVU207
 700 0030 6368     		ldr	r3, [r4, #4]
 701 0032 0133     		adds	r3, r3, #1
 702 0034 6360     		str	r3, [r4, #4]
 703              	.L53:
 704              	.LVL53:
 705              		.loc 2 239 3 is_stmt 1 view .LVU208
 706              		.loc 2 239 3 is_stmt 0 view .LVU209
 707              	.LBE116:
 708              	.LBE118:
 709              		.loc 2 339 3 is_stmt 1 view .LVU210
 710 0036 0548     		ldr	r0, .L60
 711 0038 FFF7FEFF 		bl	chMtxUnlock
 712              	.LVL54:
 713              		.loc 2 341 3 view .LVU211
 714              		.loc 2 342 1 is_stmt 0 view .LVU212
 715 003c 2046     		mov	r0, r4
 716 003e 70BD     		pop	{r4, r5, r6, pc}
 717              	.LVL55:
 718              	.L57:
 719              	.LBB119:
 720              	.LBB117:
 721              	.LBB115:
 722              	.LBB113:
 723              		.loc 2 113 10 view .LVU213
 724 0040 0024     		movs	r4, #0
 725              	.LVL56:
 726              		.loc 2 113 10 view .LVU214
 727              	.LBE113:
 728              	.LBE115:
 729              		.loc 2 239 3 is_stmt 1 view .LVU215
 730              		.loc 2 239 3 is_stmt 0 view .LVU216
 731              	.LBE117:
 732              	.LBE119:
 733              		.loc 2 339 3 is_stmt 1 view .LVU217
 734 0042 0248     		ldr	r0, .L60
 735 0044 FFF7FEFF 		bl	chMtxUnlock
 736              	.LVL57:
 737              		.loc 2 341 3 view .LVU218
 738              		.loc 2 342 1 is_stmt 0 view .LVU219
 739 0048 2046     		mov	r0, r4
 740 004a 70BD     		pop	{r4, r5, r6, pc}
 741              	.LVL58:
ARM GAS  C:\Users\DEVELO~1\AppData\Local\Temp\ccwdFl9J.s 			page 14


 742              	.L61:
 743              		.loc 2 342 1 view .LVU220
 744              		.align	2
 745              	.L60:
 746 004c 00000000 		.word	.LANCHOR0
 747              		.cfi_endproc
 748              	.LFE357:
 749              		.size	chFactoryFindObject, .-chFactoryFindObject
 750              		.section	.text.chFactoryFindObjectByPointer,"ax",%progbits
 751              		.align	1
 752              		.p2align 4,,15
 753              		.global	chFactoryFindObjectByPointer
 754              		.syntax unified
 755              		.thumb
 756              		.thumb_func
 757              		.type	chFactoryFindObjectByPointer, %function
 758              	chFactoryFindObjectByPointer:
 759              	.LVL59:
 760              	.LFB358:
 761              		.loc 2 357 63 is_stmt 1 view -0
 762              		.cfi_startproc
 763              		@ args = 0, pretend = 0, frame = 0
 764              		@ frame_needed = 0, uses_anonymous_args = 0
 765              		.loc 2 358 3 view .LVU222
 766              		.loc 2 357 63 is_stmt 0 view .LVU223
 767 0000 70B5     		push	{r4, r5, r6, lr}
 768              		.cfi_def_cfa_offset 16
 769              		.cfi_offset 4, -16
 770              		.cfi_offset 5, -12
 771              		.cfi_offset 6, -8
 772              		.cfi_offset 14, -4
 773              		.loc 2 358 24 view .LVU224
 774 0002 0F4D     		ldr	r5, .L69
 775              		.loc 2 357 63 view .LVU225
 776 0004 0646     		mov	r6, r0
 777              		.loc 2 360 3 view .LVU226
 778 0006 2846     		mov	r0, r5
 779              	.LVL60:
 780              		.loc 2 358 24 view .LVU227
 781 0008 2C69     		ldr	r4, [r5, #16]
 782              	.LVL61:
 783              		.loc 2 360 3 is_stmt 1 view .LVU228
 784 000a FFF7FEFF 		bl	chMtxLock
 785              	.LVL62:
 786              		.loc 2 362 3 view .LVU229
 787              		.loc 2 362 22 view .LVU230
 788 000e 05F11002 		add	r2, r5, #16
 789 0012 9442     		cmp	r4, r2
 790 0014 03D1     		bne	.L66
 791 0016 0DE0     		b	.L63
 792              	.L64:
 793              		.loc 2 370 9 is_stmt 0 view .LVU231
 794 0018 2468     		ldr	r4, [r4]
 795              	.LVL63:
 796              		.loc 2 362 22 is_stmt 1 view .LVU232
 797 001a 9442     		cmp	r4, r2
 798 001c 0AD0     		beq	.L63
ARM GAS  C:\Users\DEVELO~1\AppData\Local\Temp\ccwdFl9J.s 			page 15


 799              	.L66:
 800              		.loc 2 363 5 view .LVU233
 801              		.loc 2 370 5 view .LVU234
 802              		.loc 2 363 8 is_stmt 0 view .LVU235
 803 001e 2369     		ldr	r3, [r4, #16]
 804 0020 B342     		cmp	r3, r6
 805 0022 F9D1     		bne	.L64
 806              		.loc 2 364 7 is_stmt 1 view .LVU236
 807              		.loc 2 364 24 is_stmt 0 view .LVU237
 808 0024 6368     		ldr	r3, [r4, #4]
 809              		.loc 2 366 7 view .LVU238
 810 0026 0648     		ldr	r0, .L69
 811              		.loc 2 364 24 view .LVU239
 812 0028 0133     		adds	r3, r3, #1
 813 002a 6360     		str	r3, [r4, #4]
 814              		.loc 2 366 7 is_stmt 1 view .LVU240
 815 002c FFF7FEFF 		bl	chMtxUnlock
 816              	.LVL64:
 817              		.loc 2 368 7 view .LVU241
 818              		.loc 2 376 1 is_stmt 0 view .LVU242
 819 0030 2046     		mov	r0, r4
 820 0032 70BD     		pop	{r4, r5, r6, pc}
 821              	.LVL65:
 822              	.L63:
 823              		.loc 2 373 3 is_stmt 1 view .LVU243
 824              		.loc 2 375 10 is_stmt 0 view .LVU244
 825 0034 0024     		movs	r4, #0
 826              	.LVL66:
 827              		.loc 2 373 3 view .LVU245
 828 0036 0248     		ldr	r0, .L69
 829 0038 FFF7FEFF 		bl	chMtxUnlock
 830              	.LVL67:
 831              		.loc 2 375 3 is_stmt 1 view .LVU246
 832              		.loc 2 376 1 is_stmt 0 view .LVU247
 833 003c 2046     		mov	r0, r4
 834 003e 70BD     		pop	{r4, r5, r6, pc}
 835              	.LVL68:
 836              	.L70:
 837              		.loc 2 376 1 view .LVU248
 838              		.align	2
 839              	.L69:
 840 0040 00000000 		.word	.LANCHOR0
 841              		.cfi_endproc
 842              	.LFE358:
 843              		.size	chFactoryFindObjectByPointer, .-chFactoryFindObjectByPointer
 844              		.section	.text.chFactoryReleaseObject,"ax",%progbits
 845              		.align	1
 846              		.p2align 4,,15
 847              		.global	chFactoryReleaseObject
 848              		.syntax unified
 849              		.thumb
 850              		.thumb_func
 851              		.type	chFactoryReleaseObject, %function
 852              	chFactoryReleaseObject:
 853              	.LVL69:
 854              	.LFB359:
 855              		.loc 2 390 55 is_stmt 1 view -0
ARM GAS  C:\Users\DEVELO~1\AppData\Local\Temp\ccwdFl9J.s 			page 16


 856              		.cfi_startproc
 857              		@ args = 0, pretend = 0, frame = 0
 858              		@ frame_needed = 0, uses_anonymous_args = 0
 859              		.loc 2 392 3 view .LVU250
 860              		.loc 2 390 55 is_stmt 0 view .LVU251
 861 0000 10B5     		push	{r4, lr}
 862              		.cfi_def_cfa_offset 8
 863              		.cfi_offset 4, -8
 864              		.cfi_offset 14, -4
 865              		.loc 2 390 55 view .LVU252
 866 0002 0446     		mov	r4, r0
 867              		.loc 2 392 3 view .LVU253
 868 0004 0D48     		ldr	r0, .L80
 869              	.LVL70:
 870              		.loc 2 392 3 view .LVU254
 871 0006 FFF7FEFF 		bl	chMtxLock
 872              	.LVL71:
 873              		.loc 2 394 3 is_stmt 1 view .LVU255
 874              	.LBB128:
 875              	.LBI128:
 876              		.loc 2 212 13 view .LVU256
 877              	.LBB129:
 878              		.loc 2 216 3 view .LVU257
 879              		.loc 2 216 3 view .LVU258
 880              		.loc 2 216 3 view .LVU259
 881              		.loc 2 217 3 view .LVU260
 882              		.loc 2 217 3 view .LVU261
 883              		.loc 2 217 3 view .LVU262
 884              		.loc 2 219 3 view .LVU263
 885              		.loc 2 219 12 is_stmt 0 view .LVU264
 886 000a 6368     		ldr	r3, [r4, #4]
 887 000c 013B     		subs	r3, r3, #1
 888 000e 6360     		str	r3, [r4, #4]
 889              		.loc 2 220 3 is_stmt 1 view .LVU265
 890              		.loc 2 220 6 is_stmt 0 view .LVU266
 891 0010 63B9     		cbnz	r3, .L73
 892              	.LBB130:
 893              	.LBB131:
 894              	.LBB132:
 895              	.LBB133:
 896              		.loc 2 118 18 view .LVU267
 897 0012 0B4B     		ldr	r3, .L80+4
 898 0014 1946     		mov	r1, r3
 899 0016 01E0     		b	.L74
 900              	.LVL72:
 901              	.L76:
 902              		.loc 2 122 8 view .LVU268
 903 0018 8C42     		cmp	r4, r1
 904 001a 0CD0     		beq	.L79
 905              	.LVL73:
 906              	.L74:
 907              		.loc 2 122 5 is_stmt 1 view .LVU269
 908              		.loc 2 121 21 view .LVU270
 909 001c 0A46     		mov	r2, r1
 910              		.loc 2 121 14 is_stmt 0 view .LVU271
 911 001e 0968     		ldr	r1, [r1]
 912              	.LVL74:
ARM GAS  C:\Users\DEVELO~1\AppData\Local\Temp\ccwdFl9J.s 			page 17


 913              		.loc 2 121 21 view .LVU272
 914 0020 9942     		cmp	r1, r3
 915 0022 F9D1     		bne	.L76
 916              		.loc 2 132 10 view .LVU273
 917 0024 0021     		movs	r1, #0
 918              	.L75:
 919              	.LVL75:
 920              		.loc 2 132 10 view .LVU274
 921              	.LBE133:
 922              	.LBE132:
 923              		.loc 2 222 5 is_stmt 1 view .LVU275
 924 0026 0748     		ldr	r0, .L80+8
 925 0028 FFF7FEFF 		bl	chPoolFree
 926              	.LVL76:
 927              	.L73:
 928              		.loc 2 222 5 is_stmt 0 view .LVU276
 929              	.LBE131:
 930              	.LBE130:
 931              	.LBE129:
 932              	.LBE128:
 933              		.loc 2 398 3 is_stmt 1 view .LVU277
 934 002c 0348     		ldr	r0, .L80
 935              		.loc 2 399 1 is_stmt 0 view .LVU278
 936 002e BDE81040 		pop	{r4, lr}
 937              		.cfi_remember_state
 938              		.cfi_restore 14
 939              		.cfi_restore 4
 940              		.cfi_def_cfa_offset 0
 941              	.LVL77:
 942              		.loc 2 398 3 view .LVU279
 943 0032 FFF7FEBF 		b	chMtxUnlock
 944              	.LVL78:
 945              	.L79:
 946              		.cfi_restore_state
 947              	.LBB139:
 948              	.LBB138:
 949              	.LBB137:
 950              	.LBB136:
 951              	.LBB135:
 952              	.LBB134:
 953              		.loc 2 124 7 is_stmt 1 view .LVU280
 954              		.loc 2 124 27 is_stmt 0 view .LVU281
 955 0036 0B68     		ldr	r3, [r1]
 956              		.loc 2 124 18 view .LVU282
 957 0038 1360     		str	r3, [r2]
 958              		.loc 2 125 7 is_stmt 1 view .LVU283
 959              		.loc 2 125 14 is_stmt 0 view .LVU284
 960 003a F4E7     		b	.L75
 961              	.L81:
 962              		.align	2
 963              	.L80:
 964 003c 00000000 		.word	.LANCHOR0
 965 0040 10000000 		.word	.LANCHOR0+16
 966 0044 14000000 		.word	.LANCHOR0+20
 967              	.LBE134:
 968              	.LBE135:
 969              	.LBE136:
ARM GAS  C:\Users\DEVELO~1\AppData\Local\Temp\ccwdFl9J.s 			page 18


 970              	.LBE137:
 971              	.LBE138:
 972              	.LBE139:
 973              		.cfi_endproc
 974              	.LFE359:
 975              		.size	chFactoryReleaseObject, .-chFactoryReleaseObject
 976              		.section	.text.chFactoryCreateBuffer,"ax",%progbits
 977              		.align	1
 978              		.p2align 4,,15
 979              		.global	chFactoryCreateBuffer
 980              		.syntax unified
 981              		.thumb
 982              		.thumb_func
 983              		.type	chFactoryCreateBuffer, %function
 984              	chFactoryCreateBuffer:
 985              	.LVL79:
 986              	.LFB360:
 987              		.loc 2 418 68 is_stmt 1 view -0
 988              		.cfi_startproc
 989              		@ args = 0, pretend = 0, frame = 0
 990              		@ frame_needed = 0, uses_anonymous_args = 0
 991              		.loc 2 419 3 view .LVU286
 992              		.loc 2 421 3 view .LVU287
 993              		.loc 2 418 68 is_stmt 0 view .LVU288
 994 0000 38B5     		push	{r3, r4, r5, lr}
 995              		.cfi_def_cfa_offset 16
 996              		.cfi_offset 3, -16
 997              		.cfi_offset 4, -12
 998              		.cfi_offset 5, -8
 999              		.cfi_offset 14, -4
 1000              		.loc 2 418 68 view .LVU289
 1001 0002 0446     		mov	r4, r0
 1002 0004 0D46     		mov	r5, r1
 1003              		.loc 2 421 3 view .LVU290
 1004 0006 0B48     		ldr	r0, .L88
 1005              	.LVL80:
 1006              		.loc 2 421 3 view .LVU291
 1007 0008 FFF7FEFF 		bl	chMtxLock
 1008              	.LVL81:
 1009              		.loc 2 423 3 is_stmt 1 view .LVU292
 1010              		.loc 2 423 25 is_stmt 0 view .LVU293
 1011 000c 2046     		mov	r0, r4
 1012 000e 0823     		movs	r3, #8
 1013 0010 05F11002 		add	r2, r5, #16
 1014 0014 0849     		ldr	r1, .L88+4
 1015 0016 FFF7FEFF 		bl	dyn_create_object_heap
 1016              	.LVL82:
 1017              		.loc 2 427 3 is_stmt 1 view .LVU294
 1018              		.loc 2 427 6 is_stmt 0 view .LVU295
 1019 001a 0446     		mov	r4, r0
 1020              	.LVL83:
 1021              		.loc 2 427 6 view .LVU296
 1022 001c 20B1     		cbz	r0, .L83
 1023              		.loc 2 429 5 is_stmt 1 view .LVU297
 1024 001e 2A46     		mov	r2, r5
 1025 0020 0021     		movs	r1, #0
 1026 0022 1030     		adds	r0, r0, #16
ARM GAS  C:\Users\DEVELO~1\AppData\Local\Temp\ccwdFl9J.s 			page 19


 1027              	.LVL84:
 1028              		.loc 2 429 5 is_stmt 0 view .LVU298
 1029 0024 FFF7FEFF 		bl	memset
 1030              	.LVL85:
 1031              	.L83:
 1032              		.loc 2 432 3 is_stmt 1 view .LVU299
 1033 0028 0248     		ldr	r0, .L88
 1034 002a FFF7FEFF 		bl	chMtxUnlock
 1035              	.LVL86:
 1036              		.loc 2 434 3 view .LVU300
 1037              		.loc 2 435 1 is_stmt 0 view .LVU301
 1038 002e 2046     		mov	r0, r4
 1039 0030 38BD     		pop	{r3, r4, r5, pc}
 1040              	.LVL87:
 1041              	.L89:
 1042              		.loc 2 435 1 view .LVU302
 1043 0032 00BF     		.align	2
 1044              	.L88:
 1045 0034 00000000 		.word	.LANCHOR0
 1046 0038 24000000 		.word	.LANCHOR0+36
 1047              		.cfi_endproc
 1048              	.LFE360:
 1049              		.size	chFactoryCreateBuffer, .-chFactoryCreateBuffer
 1050              		.section	.text.chFactoryFindBuffer,"ax",%progbits
 1051              		.align	1
 1052              		.p2align 4,,15
 1053              		.global	chFactoryFindBuffer
 1054              		.syntax unified
 1055              		.thumb
 1056              		.thumb_func
 1057              		.type	chFactoryFindBuffer, %function
 1058              	chFactoryFindBuffer:
 1059              	.LVL88:
 1060              	.LFB361:
 1061              		.loc 2 450 53 is_stmt 1 view -0
 1062              		.cfi_startproc
 1063              		@ args = 0, pretend = 0, frame = 0
 1064              		@ frame_needed = 0, uses_anonymous_args = 0
 1065              		.loc 2 451 3 view .LVU304
 1066              		.loc 2 453 3 view .LVU305
 1067 0000 124B     		ldr	r3, .L98
 1068              		.loc 2 450 53 is_stmt 0 view .LVU306
 1069 0002 70B5     		push	{r4, r5, r6, lr}
 1070              		.cfi_def_cfa_offset 16
 1071              		.cfi_offset 4, -16
 1072              		.cfi_offset 5, -12
 1073              		.cfi_offset 6, -8
 1074              		.cfi_offset 14, -4
 1075              	.LBB144:
 1076              	.LBB145:
 1077              	.LBB146:
 1078              	.LBB147:
 1079              		.loc 2 104 18 view .LVU307
 1080 0004 1D46     		mov	r5, r3
 1081              	.LBE147:
 1082              	.LBE146:
 1083              	.LBE145:
ARM GAS  C:\Users\DEVELO~1\AppData\Local\Temp\ccwdFl9J.s 			page 20


 1084              	.LBE144:
 1085              		.loc 2 450 53 view .LVU308
 1086 0006 0646     		mov	r6, r0
 1087              		.loc 2 453 3 view .LVU309
 1088 0008 1846     		mov	r0, r3
 1089              	.LVL89:
 1090              		.loc 2 453 3 view .LVU310
 1091 000a FFF7FEFF 		bl	chMtxLock
 1092              	.LVL90:
 1093              		.loc 2 455 3 is_stmt 1 view .LVU311
 1094              	.LBB154:
 1095              	.LBI144:
 1096              		.loc 2 227 23 view .LVU312
 1097              	.LBB152:
 1098              		.loc 2 228 3 view .LVU313
 1099              		.loc 2 230 3 view .LVU314
 1100              		.loc 2 230 3 view .LVU315
 1101              		.loc 2 230 3 view .LVU316
 1102              		.loc 2 233 3 view .LVU317
 1103              	.LBB150:
 1104              	.LBI146:
 1105              		.loc 2 103 23 view .LVU318
 1106              	.LBB148:
 1107              		.loc 2 104 3 view .LVU319
 1108              		.loc 2 104 18 is_stmt 0 view .LVU320
 1109 000e 55F8244F 		ldr	r4, [r5, #36]!
 1110              	.LVL91:
 1111              		.loc 2 106 3 is_stmt 1 view .LVU321
 1112              		.loc 2 106 12 view .LVU322
 1113 0012 AC42     		cmp	r4, r5
 1114 0014 03D1     		bne	.L94
 1115 0016 13E0     		b	.L95
 1116              	.L92:
 1117              		.loc 2 110 7 is_stmt 0 view .LVU323
 1118 0018 2468     		ldr	r4, [r4]
 1119              	.LVL92:
 1120              		.loc 2 106 12 is_stmt 1 view .LVU324
 1121 001a AC42     		cmp	r4, r5
 1122 001c 10D0     		beq	.L95
 1123              	.L94:
 1124              		.loc 2 107 5 view .LVU325
 1125              		.loc 2 107 9 is_stmt 0 view .LVU326
 1126 001e 04F10800 		add	r0, r4, #8
 1127 0022 0822     		movs	r2, #8
 1128 0024 3146     		mov	r1, r6
 1129 0026 FFF7FEFF 		bl	strncmp
 1130              	.LVL93:
 1131              		.loc 2 110 5 is_stmt 1 view .LVU327
 1132              		.loc 2 107 8 is_stmt 0 view .LVU328
 1133 002a 0028     		cmp	r0, #0
 1134 002c F4D1     		bne	.L92
 1135              		.loc 2 108 7 is_stmt 1 view .LVU329
 1136              	.LVL94:
 1137              		.loc 2 108 7 is_stmt 0 view .LVU330
 1138              	.LBE148:
 1139              	.LBE150:
 1140              		.loc 2 234 3 is_stmt 1 view .LVU331
ARM GAS  C:\Users\DEVELO~1\AppData\Local\Temp\ccwdFl9J.s 			page 21


 1141              		.loc 2 234 6 is_stmt 0 view .LVU332
 1142 002e 14B1     		cbz	r4, .L91
 1143              		.loc 2 236 5 is_stmt 1 view .LVU333
 1144              		.loc 2 236 14 is_stmt 0 view .LVU334
 1145 0030 6368     		ldr	r3, [r4, #4]
 1146 0032 0133     		adds	r3, r3, #1
 1147 0034 6360     		str	r3, [r4, #4]
 1148              	.L91:
 1149              	.LVL95:
 1150              		.loc 2 239 3 is_stmt 1 view .LVU335
 1151              		.loc 2 239 3 is_stmt 0 view .LVU336
 1152              	.LBE152:
 1153              	.LBE154:
 1154              		.loc 2 457 3 is_stmt 1 view .LVU337
 1155 0036 0548     		ldr	r0, .L98
 1156 0038 FFF7FEFF 		bl	chMtxUnlock
 1157              	.LVL96:
 1158              		.loc 2 459 3 view .LVU338
 1159              		.loc 2 460 1 is_stmt 0 view .LVU339
 1160 003c 2046     		mov	r0, r4
 1161 003e 70BD     		pop	{r4, r5, r6, pc}
 1162              	.LVL97:
 1163              	.L95:
 1164              	.LBB155:
 1165              	.LBB153:
 1166              	.LBB151:
 1167              	.LBB149:
 1168              		.loc 2 113 10 view .LVU340
 1169 0040 0024     		movs	r4, #0
 1170              	.LVL98:
 1171              		.loc 2 113 10 view .LVU341
 1172              	.LBE149:
 1173              	.LBE151:
 1174              		.loc 2 239 3 is_stmt 1 view .LVU342
 1175              		.loc 2 239 3 is_stmt 0 view .LVU343
 1176              	.LBE153:
 1177              	.LBE155:
 1178              		.loc 2 457 3 is_stmt 1 view .LVU344
 1179 0042 0248     		ldr	r0, .L98
 1180 0044 FFF7FEFF 		bl	chMtxUnlock
 1181              	.LVL99:
 1182              		.loc 2 459 3 view .LVU345
 1183              		.loc 2 460 1 is_stmt 0 view .LVU346
 1184 0048 2046     		mov	r0, r4
 1185 004a 70BD     		pop	{r4, r5, r6, pc}
 1186              	.LVL100:
 1187              	.L99:
 1188              		.loc 2 460 1 view .LVU347
 1189              		.align	2
 1190              	.L98:
 1191 004c 00000000 		.word	.LANCHOR0
 1192              		.cfi_endproc
 1193              	.LFE361:
 1194              		.size	chFactoryFindBuffer, .-chFactoryFindBuffer
 1195              		.section	.text.chFactoryReleaseBuffer,"ax",%progbits
 1196              		.align	1
 1197              		.p2align 4,,15
ARM GAS  C:\Users\DEVELO~1\AppData\Local\Temp\ccwdFl9J.s 			page 22


 1198              		.global	chFactoryReleaseBuffer
 1199              		.syntax unified
 1200              		.thumb
 1201              		.thumb_func
 1202              		.type	chFactoryReleaseBuffer, %function
 1203              	chFactoryReleaseBuffer:
 1204              	.LVL101:
 1205              	.LFB362:
 1206              		.loc 2 472 48 is_stmt 1 view -0
 1207              		.cfi_startproc
 1208              		@ args = 0, pretend = 0, frame = 0
 1209              		@ frame_needed = 0, uses_anonymous_args = 0
 1210              		.loc 2 474 3 view .LVU349
 1211              		.loc 2 472 48 is_stmt 0 view .LVU350
 1212 0000 10B5     		push	{r4, lr}
 1213              		.cfi_def_cfa_offset 8
 1214              		.cfi_offset 4, -8
 1215              		.cfi_offset 14, -4
 1216              		.loc 2 472 48 view .LVU351
 1217 0002 0446     		mov	r4, r0
 1218              		.loc 2 474 3 view .LVU352
 1219 0004 0D48     		ldr	r0, .L109
 1220              	.LVL102:
 1221              		.loc 2 474 3 view .LVU353
 1222 0006 FFF7FEFF 		bl	chMtxLock
 1223              	.LVL103:
 1224              		.loc 2 476 3 is_stmt 1 view .LVU354
 1225              	.LBB164:
 1226              	.LBI164:
 1227              		.loc 2 167 13 view .LVU355
 1228              	.LBB165:
 1229              		.loc 2 170 3 view .LVU356
 1230              		.loc 2 170 3 view .LVU357
 1231              		.loc 2 170 3 view .LVU358
 1232              		.loc 2 171 3 view .LVU359
 1233              		.loc 2 171 3 view .LVU360
 1234              		.loc 2 171 3 view .LVU361
 1235              		.loc 2 173 3 view .LVU362
 1236              		.loc 2 173 12 is_stmt 0 view .LVU363
 1237 000a 6368     		ldr	r3, [r4, #4]
 1238 000c 013B     		subs	r3, r3, #1
 1239 000e 6360     		str	r3, [r4, #4]
 1240              		.loc 2 174 3 is_stmt 1 view .LVU364
 1241              		.loc 2 174 6 is_stmt 0 view .LVU365
 1242 0010 5BB9     		cbnz	r3, .L102
 1243              	.LBB166:
 1244              	.LBB167:
 1245              	.LBB168:
 1246              	.LBB169:
 1247              		.loc 2 118 18 view .LVU366
 1248 0012 0B4B     		ldr	r3, .L109+4
 1249 0014 1846     		mov	r0, r3
 1250 0016 01E0     		b	.L103
 1251              	.LVL104:
 1252              	.L105:
 1253              		.loc 2 122 8 view .LVU367
 1254 0018 8442     		cmp	r4, r0
ARM GAS  C:\Users\DEVELO~1\AppData\Local\Temp\ccwdFl9J.s 			page 23


 1255 001a 0BD0     		beq	.L108
 1256              	.LVL105:
 1257              	.L103:
 1258              		.loc 2 122 5 is_stmt 1 view .LVU368
 1259              		.loc 2 121 21 view .LVU369
 1260 001c 0246     		mov	r2, r0
 1261              		.loc 2 121 14 is_stmt 0 view .LVU370
 1262 001e 0068     		ldr	r0, [r0]
 1263              	.LVL106:
 1264              		.loc 2 121 21 view .LVU371
 1265 0020 9842     		cmp	r0, r3
 1266 0022 F9D1     		bne	.L105
 1267              		.loc 2 132 10 view .LVU372
 1268 0024 0020     		movs	r0, #0
 1269              	.L104:
 1270              	.LVL107:
 1271              		.loc 2 132 10 view .LVU373
 1272              	.LBE169:
 1273              	.LBE168:
 1274              		.loc 2 176 5 is_stmt 1 view .LVU374
 1275 0026 FFF7FEFF 		bl	chHeapFree
 1276              	.LVL108:
 1277              	.L102:
 1278              		.loc 2 176 5 is_stmt 0 view .LVU375
 1279              	.LBE167:
 1280              	.LBE166:
 1281              	.LBE165:
 1282              	.LBE164:
 1283              		.loc 2 478 3 is_stmt 1 view .LVU376
 1284 002a 0448     		ldr	r0, .L109
 1285              		.loc 2 479 1 is_stmt 0 view .LVU377
 1286 002c BDE81040 		pop	{r4, lr}
 1287              		.cfi_remember_state
 1288              		.cfi_restore 14
 1289              		.cfi_restore 4
 1290              		.cfi_def_cfa_offset 0
 1291              	.LVL109:
 1292              		.loc 2 478 3 view .LVU378
 1293 0030 FFF7FEBF 		b	chMtxUnlock
 1294              	.LVL110:
 1295              	.L108:
 1296              		.cfi_restore_state
 1297              	.LBB175:
 1298              	.LBB174:
 1299              	.LBB173:
 1300              	.LBB172:
 1301              	.LBB171:
 1302              	.LBB170:
 1303              		.loc 2 124 7 is_stmt 1 view .LVU379
 1304              		.loc 2 124 27 is_stmt 0 view .LVU380
 1305 0034 0368     		ldr	r3, [r0]
 1306              		.loc 2 124 18 view .LVU381
 1307 0036 1360     		str	r3, [r2]
 1308              		.loc 2 125 7 is_stmt 1 view .LVU382
 1309              		.loc 2 125 14 is_stmt 0 view .LVU383
 1310 0038 F5E7     		b	.L104
 1311              	.L110:
ARM GAS  C:\Users\DEVELO~1\AppData\Local\Temp\ccwdFl9J.s 			page 24


 1312 003a 00BF     		.align	2
 1313              	.L109:
 1314 003c 00000000 		.word	.LANCHOR0
 1315 0040 24000000 		.word	.LANCHOR0+36
 1316              	.LBE170:
 1317              	.LBE171:
 1318              	.LBE172:
 1319              	.LBE173:
 1320              	.LBE174:
 1321              	.LBE175:
 1322              		.cfi_endproc
 1323              	.LFE362:
 1324              		.size	chFactoryReleaseBuffer, .-chFactoryReleaseBuffer
 1325              		.section	.text.chFactoryCreateSemaphore,"ax",%progbits
 1326              		.align	1
 1327              		.p2align 4,,15
 1328              		.global	chFactoryCreateSemaphore
 1329              		.syntax unified
 1330              		.thumb
 1331              		.thumb_func
 1332              		.type	chFactoryCreateSemaphore, %function
 1333              	chFactoryCreateSemaphore:
 1334              	.LVL111:
 1335              	.LFB363:
 1336              		.loc 2 498 70 is_stmt 1 view -0
 1337              		.cfi_startproc
 1338              		@ args = 0, pretend = 0, frame = 0
 1339              		@ frame_needed = 0, uses_anonymous_args = 0
 1340              		.loc 2 499 3 view .LVU385
 1341              		.loc 2 501 3 view .LVU386
 1342              		.loc 2 498 70 is_stmt 0 view .LVU387
 1343 0000 2DE9F041 		push	{r4, r5, r6, r7, r8, lr}
 1344              		.cfi_def_cfa_offset 24
 1345              		.cfi_offset 4, -24
 1346              		.cfi_offset 5, -20
 1347              		.cfi_offset 6, -16
 1348              		.cfi_offset 7, -12
 1349              		.cfi_offset 8, -8
 1350              		.cfi_offset 14, -4
 1351              		.loc 2 501 3 view .LVU388
 1352 0004 204F     		ldr	r7, .L133
 1353              		.loc 2 498 70 view .LVU389
 1354 0006 0546     		mov	r5, r0
 1355 0008 8846     		mov	r8, r1
 1356              	.LBB184:
 1357              	.LBB185:
 1358              	.LBB186:
 1359              	.LBB187:
 1360              		.loc 2 104 18 view .LVU390
 1361 000a 3E46     		mov	r6, r7
 1362              	.LBE187:
 1363              	.LBE186:
 1364              	.LBE185:
 1365              	.LBE184:
 1366              		.loc 2 501 3 view .LVU391
 1367 000c 3846     		mov	r0, r7
 1368              	.LVL112:
ARM GAS  C:\Users\DEVELO~1\AppData\Local\Temp\ccwdFl9J.s 			page 25


 1369              		.loc 2 501 3 view .LVU392
 1370 000e FFF7FEFF 		bl	chMtxLock
 1371              	.LVL113:
 1372              		.loc 2 503 3 is_stmt 1 view .LVU393
 1373              	.LBB201:
 1374              	.LBI184:
 1375              		.loc 2 182 23 view .LVU394
 1376              	.LBB198:
 1377              		.loc 2 185 3 view .LVU395
 1378              		.loc 2 187 3 view .LVU396
 1379              		.loc 2 187 3 view .LVU397
 1380              		.loc 2 187 3 view .LVU398
 1381              		.loc 2 190 3 view .LVU399
 1382              	.LBB189:
 1383              	.LBI186:
 1384              		.loc 2 103 23 view .LVU400
 1385              	.LBB188:
 1386              		.loc 2 104 3 view .LVU401
 1387              		.loc 2 104 18 is_stmt 0 view .LVU402
 1388 0012 56F8284F 		ldr	r4, [r6, #40]!
 1389              	.LVL114:
 1390              		.loc 2 106 3 is_stmt 1 view .LVU403
 1391              		.loc 2 106 12 view .LVU404
 1392 0016 B442     		cmp	r4, r6
 1393 0018 03D1     		bne	.L114
 1394 001a 12E0     		b	.L112
 1395              	.L132:
 1396              		.loc 2 110 7 is_stmt 0 view .LVU405
 1397 001c 2468     		ldr	r4, [r4]
 1398              	.LVL115:
 1399              		.loc 2 106 12 is_stmt 1 view .LVU406
 1400 001e B442     		cmp	r4, r6
 1401 0020 0FD0     		beq	.L112
 1402              	.L114:
 1403              		.loc 2 107 5 view .LVU407
 1404              		.loc 2 107 9 is_stmt 0 view .LVU408
 1405 0022 04F10800 		add	r0, r4, #8
 1406 0026 0822     		movs	r2, #8
 1407 0028 2946     		mov	r1, r5
 1408 002a FFF7FEFF 		bl	strncmp
 1409              	.LVL116:
 1410              		.loc 2 110 5 is_stmt 1 view .LVU409
 1411              		.loc 2 107 8 is_stmt 0 view .LVU410
 1412 002e 0028     		cmp	r0, #0
 1413 0030 F4D1     		bne	.L132
 1414              	.LVL117:
 1415              		.loc 2 107 8 view .LVU411
 1416              	.LBE188:
 1417              	.LBE189:
 1418              		.loc 2 191 3 is_stmt 1 view .LVU412
 1419              		.loc 2 191 6 is_stmt 0 view .LVU413
 1420 0032 34B1     		cbz	r4, .L112
 1421              	.LVL118:
 1422              	.L116:
 1423              		.loc 2 192 12 view .LVU414
 1424 0034 0026     		movs	r6, #0
 1425              	.LVL119:
ARM GAS  C:\Users\DEVELO~1\AppData\Local\Temp\ccwdFl9J.s 			page 26


 1426              		.loc 2 192 12 view .LVU415
 1427              	.LBE198:
 1428              	.LBE201:
 1429              		.loc 2 511 3 is_stmt 1 view .LVU416
 1430 0036 1448     		ldr	r0, .L133
 1431 0038 FFF7FEFF 		bl	chMtxUnlock
 1432              	.LVL120:
 1433              		.loc 2 513 3 view .LVU417
 1434              		.loc 2 514 1 is_stmt 0 view .LVU418
 1435 003c 3046     		mov	r0, r6
 1436 003e BDE8F081 		pop	{r4, r5, r6, r7, r8, pc}
 1437              	.LVL121:
 1438              	.L112:
 1439              	.LBB202:
 1440              	.LBB199:
 1441              	.LBB190:
 1442              	.LBI190:
 1443              		.loc 2 182 23 is_stmt 1 view .LVU419
 1444              	.LBB191:
 1445              		.loc 2 196 3 view .LVU420
 1446              		.loc 2 196 26 is_stmt 0 view .LVU421
 1447 0042 1248     		ldr	r0, .L133+4
 1448 0044 FFF7FEFF 		bl	chPoolAlloc
 1449              	.LVL122:
 1450              		.loc 2 197 3 is_stmt 1 view .LVU422
 1451              		.loc 2 197 6 is_stmt 0 view .LVU423
 1452 0048 0646     		mov	r6, r0
 1453 004a 0028     		cmp	r0, #0
 1454 004c F2D0     		beq	.L116
 1455              		.loc 2 202 3 is_stmt 1 view .LVU424
 1456              		.loc 2 202 22 is_stmt 0 view .LVU425
 1457 004e 00F10801 		add	r1, r0, #8
 1458              	.LVL123:
 1459              	.LBB192:
 1460              	.LBI192:
 1461              		.loc 2 86 13 is_stmt 1 view .LVU426
 1462              	.LBB193:
 1463              		.loc 2 87 3 view .LVU427
 1464              		.loc 2 88 3 view .LVU428
 1465              		.loc 2 90 3 view .LVU429
 1466              		.loc 2 90 3 is_stmt 0 view .LVU430
 1467              	.LBE193:
 1468              	.LBE192:
 1469              		.loc 2 202 22 view .LVU431
 1470 0052 2B46     		mov	r3, r5
 1471              	.LVL124:
 1472              	.L117:
 1473              	.LBB195:
 1474              	.LBB194:
 1475              		.loc 2 91 3 is_stmt 1 view .LVU432
 1476              		.loc 2 92 5 view .LVU433
 1477              		.loc 2 92 7 is_stmt 0 view .LVU434
 1478 0054 13F8012B 		ldrb	r2, [r3], #1	@ zero_extendqisi2
 1479              	.LVL125:
 1480              		.loc 2 93 5 is_stmt 1 view .LVU435
 1481              		.loc 2 95 33 is_stmt 0 view .LVU436
 1482 0058 C3F10804 		rsb	r4, r3, #8
ARM GAS  C:\Users\DEVELO~1\AppData\Local\Temp\ccwdFl9J.s 			page 27


 1483              		.loc 2 93 11 view .LVU437
 1484 005c 01F8012B 		strb	r2, [r1], #1
 1485              	.LVL126:
 1486              		.loc 2 94 5 is_stmt 1 view .LVU438
 1487              		.loc 2 95 27 view .LVU439
 1488 0060 E542     		cmn	r5, r4
 1489 0062 01D0     		beq	.L119
 1490 0064 002A     		cmp	r2, #0
 1491 0066 F5D1     		bne	.L117
 1492              	.L119:
 1493              	.LVL127:
 1494              		.loc 2 95 27 is_stmt 0 view .LVU440
 1495              	.LBE194:
 1496              	.LBE195:
 1497              		.loc 2 203 3 is_stmt 1 view .LVU441
 1498              		.loc 2 204 13 is_stmt 0 view .LVU442
 1499 0068 BB6A     		ldr	r3, [r7, #40]
 1500              		.loc 2 203 13 view .LVU443
 1501 006a 0122     		movs	r2, #1
 1502              	.LBE191:
 1503              	.LBE190:
 1504              	.LBE199:
 1505              	.LBE202:
 1506              		.loc 2 508 5 view .LVU444
 1507 006c 4146     		mov	r1, r8
 1508 006e 06F11000 		add	r0, r6, #16
 1509              	.LVL128:
 1510              	.LBB203:
 1511              	.LBB200:
 1512              	.LBB197:
 1513              	.LBB196:
 1514              		.loc 2 204 13 view .LVU445
 1515 0072 C6E90032 		strd	r3, r2, [r6]
 1516              		.loc 2 207 3 is_stmt 1 view .LVU446
 1517              		.loc 2 207 13 is_stmt 0 view .LVU447
 1518 0076 BE62     		str	r6, [r7, #40]
 1519              		.loc 2 209 3 is_stmt 1 view .LVU448
 1520              	.LVL129:
 1521              		.loc 2 209 3 is_stmt 0 view .LVU449
 1522              	.LBE196:
 1523              	.LBE197:
 1524              	.LBE200:
 1525              	.LBE203:
 1526              		.loc 2 506 3 is_stmt 1 view .LVU450
 1527              		.loc 2 508 5 view .LVU451
 1528 0078 FFF7FEFF 		bl	chSemObjectInit
 1529              	.LVL130:
 1530              		.loc 2 511 3 view .LVU452
 1531 007c 0248     		ldr	r0, .L133
 1532 007e FFF7FEFF 		bl	chMtxUnlock
 1533              	.LVL131:
 1534              		.loc 2 513 3 view .LVU453
 1535              		.loc 2 514 1 is_stmt 0 view .LVU454
 1536 0082 3046     		mov	r0, r6
 1537 0084 BDE8F081 		pop	{r4, r5, r6, r7, r8, pc}
 1538              	.LVL132:
 1539              	.L134:
ARM GAS  C:\Users\DEVELO~1\AppData\Local\Temp\ccwdFl9J.s 			page 28


 1540              		.loc 2 514 1 view .LVU455
 1541              		.align	2
 1542              	.L133:
 1543 0088 00000000 		.word	.LANCHOR0
 1544 008c 2C000000 		.word	.LANCHOR0+44
 1545              		.cfi_endproc
 1546              	.LFE363:
 1547              		.size	chFactoryCreateSemaphore, .-chFactoryCreateSemaphore
 1548              		.section	.text.chFactoryFindSemaphore,"ax",%progbits
 1549              		.align	1
 1550              		.p2align 4,,15
 1551              		.global	chFactoryFindSemaphore
 1552              		.syntax unified
 1553              		.thumb
 1554              		.thumb_func
 1555              		.type	chFactoryFindSemaphore, %function
 1556              	chFactoryFindSemaphore:
 1557              	.LVL133:
 1558              	.LFB364:
 1559              		.loc 2 529 59 is_stmt 1 view -0
 1560              		.cfi_startproc
 1561              		@ args = 0, pretend = 0, frame = 0
 1562              		@ frame_needed = 0, uses_anonymous_args = 0
 1563              		.loc 2 530 3 view .LVU457
 1564              		.loc 2 532 3 view .LVU458
 1565 0000 124B     		ldr	r3, .L143
 1566              		.loc 2 529 59 is_stmt 0 view .LVU459
 1567 0002 70B5     		push	{r4, r5, r6, lr}
 1568              		.cfi_def_cfa_offset 16
 1569              		.cfi_offset 4, -16
 1570              		.cfi_offset 5, -12
 1571              		.cfi_offset 6, -8
 1572              		.cfi_offset 14, -4
 1573              	.LBB208:
 1574              	.LBB209:
 1575              	.LBB210:
 1576              	.LBB211:
 1577              		.loc 2 104 18 view .LVU460
 1578 0004 1D46     		mov	r5, r3
 1579              	.LBE211:
 1580              	.LBE210:
 1581              	.LBE209:
 1582              	.LBE208:
 1583              		.loc 2 529 59 view .LVU461
 1584 0006 0646     		mov	r6, r0
 1585              		.loc 2 532 3 view .LVU462
 1586 0008 1846     		mov	r0, r3
 1587              	.LVL134:
 1588              		.loc 2 532 3 view .LVU463
 1589 000a FFF7FEFF 		bl	chMtxLock
 1590              	.LVL135:
 1591              		.loc 2 534 3 is_stmt 1 view .LVU464
 1592              	.LBB218:
 1593              	.LBI208:
 1594              		.loc 2 227 23 view .LVU465
 1595              	.LBB216:
 1596              		.loc 2 228 3 view .LVU466
ARM GAS  C:\Users\DEVELO~1\AppData\Local\Temp\ccwdFl9J.s 			page 29


 1597              		.loc 2 230 3 view .LVU467
 1598              		.loc 2 230 3 view .LVU468
 1599              		.loc 2 230 3 view .LVU469
 1600              		.loc 2 233 3 view .LVU470
 1601              	.LBB214:
 1602              	.LBI210:
 1603              		.loc 2 103 23 view .LVU471
 1604              	.LBB212:
 1605              		.loc 2 104 3 view .LVU472
 1606              		.loc 2 104 18 is_stmt 0 view .LVU473
 1607 000e 55F8284F 		ldr	r4, [r5, #40]!
 1608              	.LVL136:
 1609              		.loc 2 106 3 is_stmt 1 view .LVU474
 1610              		.loc 2 106 12 view .LVU475
 1611 0012 AC42     		cmp	r4, r5
 1612 0014 03D1     		bne	.L139
 1613 0016 13E0     		b	.L140
 1614              	.L137:
 1615              		.loc 2 110 7 is_stmt 0 view .LVU476
 1616 0018 2468     		ldr	r4, [r4]
 1617              	.LVL137:
 1618              		.loc 2 106 12 is_stmt 1 view .LVU477
 1619 001a AC42     		cmp	r4, r5
 1620 001c 10D0     		beq	.L140
 1621              	.L139:
 1622              		.loc 2 107 5 view .LVU478
 1623              		.loc 2 107 9 is_stmt 0 view .LVU479
 1624 001e 04F10800 		add	r0, r4, #8
 1625 0022 0822     		movs	r2, #8
 1626 0024 3146     		mov	r1, r6
 1627 0026 FFF7FEFF 		bl	strncmp
 1628              	.LVL138:
 1629              		.loc 2 110 5 is_stmt 1 view .LVU480
 1630              		.loc 2 107 8 is_stmt 0 view .LVU481
 1631 002a 0028     		cmp	r0, #0
 1632 002c F4D1     		bne	.L137
 1633              		.loc 2 108 7 is_stmt 1 view .LVU482
 1634              	.LVL139:
 1635              		.loc 2 108 7 is_stmt 0 view .LVU483
 1636              	.LBE212:
 1637              	.LBE214:
 1638              		.loc 2 234 3 is_stmt 1 view .LVU484
 1639              		.loc 2 234 6 is_stmt 0 view .LVU485
 1640 002e 14B1     		cbz	r4, .L136
 1641              		.loc 2 236 5 is_stmt 1 view .LVU486
 1642              		.loc 2 236 14 is_stmt 0 view .LVU487
 1643 0030 6368     		ldr	r3, [r4, #4]
 1644 0032 0133     		adds	r3, r3, #1
 1645 0034 6360     		str	r3, [r4, #4]
 1646              	.L136:
 1647              	.LVL140:
 1648              		.loc 2 239 3 is_stmt 1 view .LVU488
 1649              		.loc 2 239 3 is_stmt 0 view .LVU489
 1650              	.LBE216:
 1651              	.LBE218:
 1652              		.loc 2 536 3 is_stmt 1 view .LVU490
 1653 0036 0548     		ldr	r0, .L143
ARM GAS  C:\Users\DEVELO~1\AppData\Local\Temp\ccwdFl9J.s 			page 30


 1654 0038 FFF7FEFF 		bl	chMtxUnlock
 1655              	.LVL141:
 1656              		.loc 2 538 3 view .LVU491
 1657              		.loc 2 539 1 is_stmt 0 view .LVU492
 1658 003c 2046     		mov	r0, r4
 1659 003e 70BD     		pop	{r4, r5, r6, pc}
 1660              	.LVL142:
 1661              	.L140:
 1662              	.LBB219:
 1663              	.LBB217:
 1664              	.LBB215:
 1665              	.LBB213:
 1666              		.loc 2 113 10 view .LVU493
 1667 0040 0024     		movs	r4, #0
 1668              	.LVL143:
 1669              		.loc 2 113 10 view .LVU494
 1670              	.LBE213:
 1671              	.LBE215:
 1672              		.loc 2 239 3 is_stmt 1 view .LVU495
 1673              		.loc 2 239 3 is_stmt 0 view .LVU496
 1674              	.LBE217:
 1675              	.LBE219:
 1676              		.loc 2 536 3 is_stmt 1 view .LVU497
 1677 0042 0248     		ldr	r0, .L143
 1678 0044 FFF7FEFF 		bl	chMtxUnlock
 1679              	.LVL144:
 1680              		.loc 2 538 3 view .LVU498
 1681              		.loc 2 539 1 is_stmt 0 view .LVU499
 1682 0048 2046     		mov	r0, r4
 1683 004a 70BD     		pop	{r4, r5, r6, pc}
 1684              	.LVL145:
 1685              	.L144:
 1686              		.loc 2 539 1 view .LVU500
 1687              		.align	2
 1688              	.L143:
 1689 004c 00000000 		.word	.LANCHOR0
 1690              		.cfi_endproc
 1691              	.LFE364:
 1692              		.size	chFactoryFindSemaphore, .-chFactoryFindSemaphore
 1693              		.section	.text.chFactoryReleaseSemaphore,"ax",%progbits
 1694              		.align	1
 1695              		.p2align 4,,15
 1696              		.global	chFactoryReleaseSemaphore
 1697              		.syntax unified
 1698              		.thumb
 1699              		.thumb_func
 1700              		.type	chFactoryReleaseSemaphore, %function
 1701              	chFactoryReleaseSemaphore:
 1702              	.LVL146:
 1703              	.LFB365:
 1704              		.loc 2 551 54 is_stmt 1 view -0
 1705              		.cfi_startproc
 1706              		@ args = 0, pretend = 0, frame = 0
 1707              		@ frame_needed = 0, uses_anonymous_args = 0
 1708              		.loc 2 553 3 view .LVU502
 1709              		.loc 2 551 54 is_stmt 0 view .LVU503
 1710 0000 10B5     		push	{r4, lr}
ARM GAS  C:\Users\DEVELO~1\AppData\Local\Temp\ccwdFl9J.s 			page 31


 1711              		.cfi_def_cfa_offset 8
 1712              		.cfi_offset 4, -8
 1713              		.cfi_offset 14, -4
 1714              		.loc 2 551 54 view .LVU504
 1715 0002 0446     		mov	r4, r0
 1716              		.loc 2 553 3 view .LVU505
 1717 0004 0D48     		ldr	r0, .L154
 1718              	.LVL147:
 1719              		.loc 2 553 3 view .LVU506
 1720 0006 FFF7FEFF 		bl	chMtxLock
 1721              	.LVL148:
 1722              		.loc 2 555 3 is_stmt 1 view .LVU507
 1723              	.LBB228:
 1724              	.LBI228:
 1725              		.loc 2 212 13 view .LVU508
 1726              	.LBB229:
 1727              		.loc 2 216 3 view .LVU509
 1728              		.loc 2 216 3 view .LVU510
 1729              		.loc 2 216 3 view .LVU511
 1730              		.loc 2 217 3 view .LVU512
 1731              		.loc 2 217 3 view .LVU513
 1732              		.loc 2 217 3 view .LVU514
 1733              		.loc 2 219 3 view .LVU515
 1734              		.loc 2 219 12 is_stmt 0 view .LVU516
 1735 000a 6368     		ldr	r3, [r4, #4]
 1736 000c 013B     		subs	r3, r3, #1
 1737 000e 6360     		str	r3, [r4, #4]
 1738              		.loc 2 220 3 is_stmt 1 view .LVU517
 1739              		.loc 2 220 6 is_stmt 0 view .LVU518
 1740 0010 63B9     		cbnz	r3, .L147
 1741              	.LBB230:
 1742              	.LBB231:
 1743              	.LBB232:
 1744              	.LBB233:
 1745              		.loc 2 118 18 view .LVU519
 1746 0012 0B4B     		ldr	r3, .L154+4
 1747 0014 1946     		mov	r1, r3
 1748 0016 01E0     		b	.L148
 1749              	.LVL149:
 1750              	.L150:
 1751              		.loc 2 122 8 view .LVU520
 1752 0018 8C42     		cmp	r4, r1
 1753 001a 0CD0     		beq	.L153
 1754              	.LVL150:
 1755              	.L148:
 1756              		.loc 2 122 5 is_stmt 1 view .LVU521
 1757              		.loc 2 121 21 view .LVU522
 1758 001c 0A46     		mov	r2, r1
 1759              		.loc 2 121 14 is_stmt 0 view .LVU523
 1760 001e 0968     		ldr	r1, [r1]
 1761              	.LVL151:
 1762              		.loc 2 121 21 view .LVU524
 1763 0020 9942     		cmp	r1, r3
 1764 0022 F9D1     		bne	.L150
 1765              		.loc 2 132 10 view .LVU525
 1766 0024 0021     		movs	r1, #0
 1767              	.L149:
ARM GAS  C:\Users\DEVELO~1\AppData\Local\Temp\ccwdFl9J.s 			page 32


 1768              	.LVL152:
 1769              		.loc 2 132 10 view .LVU526
 1770              	.LBE233:
 1771              	.LBE232:
 1772              		.loc 2 222 5 is_stmt 1 view .LVU527
 1773 0026 0748     		ldr	r0, .L154+8
 1774 0028 FFF7FEFF 		bl	chPoolFree
 1775              	.LVL153:
 1776              	.L147:
 1777              		.loc 2 222 5 is_stmt 0 view .LVU528
 1778              	.LBE231:
 1779              	.LBE230:
 1780              	.LBE229:
 1781              	.LBE228:
 1782              		.loc 2 559 3 is_stmt 1 view .LVU529
 1783 002c 0348     		ldr	r0, .L154
 1784              		.loc 2 560 1 is_stmt 0 view .LVU530
 1785 002e BDE81040 		pop	{r4, lr}
 1786              		.cfi_remember_state
 1787              		.cfi_restore 14
 1788              		.cfi_restore 4
 1789              		.cfi_def_cfa_offset 0
 1790              	.LVL154:
 1791              		.loc 2 559 3 view .LVU531
 1792 0032 FFF7FEBF 		b	chMtxUnlock
 1793              	.LVL155:
 1794              	.L153:
 1795              		.cfi_restore_state
 1796              	.LBB239:
 1797              	.LBB238:
 1798              	.LBB237:
 1799              	.LBB236:
 1800              	.LBB235:
 1801              	.LBB234:
 1802              		.loc 2 124 7 is_stmt 1 view .LVU532
 1803              		.loc 2 124 27 is_stmt 0 view .LVU533
 1804 0036 0B68     		ldr	r3, [r1]
 1805              		.loc 2 124 18 view .LVU534
 1806 0038 1360     		str	r3, [r2]
 1807              		.loc 2 125 7 is_stmt 1 view .LVU535
 1808              		.loc 2 125 14 is_stmt 0 view .LVU536
 1809 003a F4E7     		b	.L149
 1810              	.L155:
 1811              		.align	2
 1812              	.L154:
 1813 003c 00000000 		.word	.LANCHOR0
 1814 0040 28000000 		.word	.LANCHOR0+40
 1815 0044 2C000000 		.word	.LANCHOR0+44
 1816              	.LBE234:
 1817              	.LBE235:
 1818              	.LBE236:
 1819              	.LBE237:
 1820              	.LBE238:
 1821              	.LBE239:
 1822              		.cfi_endproc
 1823              	.LFE365:
 1824              		.size	chFactoryReleaseSemaphore, .-chFactoryReleaseSemaphore
ARM GAS  C:\Users\DEVELO~1\AppData\Local\Temp\ccwdFl9J.s 			page 33


 1825              		.section	.text.chFactoryCreateMailbox,"ax",%progbits
 1826              		.align	1
 1827              		.p2align 4,,15
 1828              		.global	chFactoryCreateMailbox
 1829              		.syntax unified
 1830              		.thumb
 1831              		.thumb_func
 1832              		.type	chFactoryCreateMailbox, %function
 1833              	chFactoryCreateMailbox:
 1834              	.LVL156:
 1835              	.LFB366:
 1836              		.loc 2 579 67 is_stmt 1 view -0
 1837              		.cfi_startproc
 1838              		@ args = 0, pretend = 0, frame = 0
 1839              		@ frame_needed = 0, uses_anonymous_args = 0
 1840              		.loc 2 580 3 view .LVU538
 1841              		.loc 2 582 3 view .LVU539
 1842              		.loc 2 579 67 is_stmt 0 view .LVU540
 1843 0000 38B5     		push	{r3, r4, r5, lr}
 1844              		.cfi_def_cfa_offset 16
 1845              		.cfi_offset 3, -16
 1846              		.cfi_offset 4, -12
 1847              		.cfi_offset 5, -8
 1848              		.cfi_offset 14, -4
 1849              		.loc 2 579 67 view .LVU541
 1850 0002 0D46     		mov	r5, r1
 1851 0004 0446     		mov	r4, r0
 1852              		.loc 2 582 3 view .LVU542
 1853 0006 0C48     		ldr	r0, .L162
 1854              	.LVL157:
 1855              		.loc 2 582 3 view .LVU543
 1856 0008 FFF7FEFF 		bl	chMtxLock
 1857              	.LVL158:
 1858              		.loc 2 584 3 is_stmt 1 view .LVU544
 1859              		.loc 2 586 72 is_stmt 0 view .LVU545
 1860 000c 05F10E02 		add	r2, r5, #14
 1861              		.loc 2 584 26 view .LVU546
 1862 0010 2046     		mov	r0, r4
 1863 0012 0823     		movs	r3, #8
 1864 0014 0949     		ldr	r1, .L162+4
 1865 0016 9200     		lsls	r2, r2, #2
 1866 0018 FFF7FEFF 		bl	dyn_create_object_heap
 1867              	.LVL159:
 1868              		.loc 2 589 3 is_stmt 1 view .LVU547
 1869              		.loc 2 589 6 is_stmt 0 view .LVU548
 1870 001c 0446     		mov	r4, r0
 1871              	.LVL160:
 1872              		.loc 2 589 6 view .LVU549
 1873 001e 28B1     		cbz	r0, .L157
 1874              		.loc 2 591 5 is_stmt 1 view .LVU550
 1875 0020 00F13801 		add	r1, r0, #56
 1876 0024 2A46     		mov	r2, r5
 1877 0026 1030     		adds	r0, r0, #16
 1878              	.LVL161:
 1879              		.loc 2 591 5 is_stmt 0 view .LVU551
 1880 0028 FFF7FEFF 		bl	chMBObjectInit
 1881              	.LVL162:
ARM GAS  C:\Users\DEVELO~1\AppData\Local\Temp\ccwdFl9J.s 			page 34


 1882              	.L157:
 1883              		.loc 2 594 3 is_stmt 1 view .LVU552
 1884 002c 0248     		ldr	r0, .L162
 1885 002e FFF7FEFF 		bl	chMtxUnlock
 1886              	.LVL163:
 1887              		.loc 2 596 3 view .LVU553
 1888              		.loc 2 597 1 is_stmt 0 view .LVU554
 1889 0032 2046     		mov	r0, r4
 1890 0034 38BD     		pop	{r3, r4, r5, pc}
 1891              	.LVL164:
 1892              	.L163:
 1893              		.loc 2 597 1 view .LVU555
 1894 0036 00BF     		.align	2
 1895              	.L162:
 1896 0038 00000000 		.word	.LANCHOR0
 1897 003c 3C000000 		.word	.LANCHOR0+60
 1898              		.cfi_endproc
 1899              	.LFE366:
 1900              		.size	chFactoryCreateMailbox, .-chFactoryCreateMailbox
 1901              		.section	.text.chFactoryFindMailbox,"ax",%progbits
 1902              		.align	1
 1903              		.p2align 4,,15
 1904              		.global	chFactoryFindMailbox
 1905              		.syntax unified
 1906              		.thumb
 1907              		.thumb_func
 1908              		.type	chFactoryFindMailbox, %function
 1909              	chFactoryFindMailbox:
 1910              	.LVL165:
 1911              	.LFB367:
 1912              		.loc 2 612 55 is_stmt 1 view -0
 1913              		.cfi_startproc
 1914              		@ args = 0, pretend = 0, frame = 0
 1915              		@ frame_needed = 0, uses_anonymous_args = 0
 1916              		.loc 2 613 3 view .LVU557
 1917              		.loc 2 615 3 view .LVU558
 1918 0000 124B     		ldr	r3, .L172
 1919              		.loc 2 612 55 is_stmt 0 view .LVU559
 1920 0002 70B5     		push	{r4, r5, r6, lr}
 1921              		.cfi_def_cfa_offset 16
 1922              		.cfi_offset 4, -16
 1923              		.cfi_offset 5, -12
 1924              		.cfi_offset 6, -8
 1925              		.cfi_offset 14, -4
 1926              	.LBB244:
 1927              	.LBB245:
 1928              	.LBB246:
 1929              	.LBB247:
 1930              		.loc 2 104 18 view .LVU560
 1931 0004 1D46     		mov	r5, r3
 1932              	.LBE247:
 1933              	.LBE246:
 1934              	.LBE245:
 1935              	.LBE244:
 1936              		.loc 2 612 55 view .LVU561
 1937 0006 0646     		mov	r6, r0
 1938              		.loc 2 615 3 view .LVU562
ARM GAS  C:\Users\DEVELO~1\AppData\Local\Temp\ccwdFl9J.s 			page 35


 1939 0008 1846     		mov	r0, r3
 1940              	.LVL166:
 1941              		.loc 2 615 3 view .LVU563
 1942 000a FFF7FEFF 		bl	chMtxLock
 1943              	.LVL167:
 1944              		.loc 2 617 3 is_stmt 1 view .LVU564
 1945              	.LBB254:
 1946              	.LBI244:
 1947              		.loc 2 227 23 view .LVU565
 1948              	.LBB252:
 1949              		.loc 2 228 3 view .LVU566
 1950              		.loc 2 230 3 view .LVU567
 1951              		.loc 2 230 3 view .LVU568
 1952              		.loc 2 230 3 view .LVU569
 1953              		.loc 2 233 3 view .LVU570
 1954              	.LBB250:
 1955              	.LBI246:
 1956              		.loc 2 103 23 view .LVU571
 1957              	.LBB248:
 1958              		.loc 2 104 3 view .LVU572
 1959              		.loc 2 104 18 is_stmt 0 view .LVU573
 1960 000e 55F83C4F 		ldr	r4, [r5, #60]!
 1961              	.LVL168:
 1962              		.loc 2 106 3 is_stmt 1 view .LVU574
 1963              		.loc 2 106 12 view .LVU575
 1964 0012 AC42     		cmp	r4, r5
 1965 0014 03D1     		bne	.L168
 1966 0016 13E0     		b	.L169
 1967              	.L166:
 1968              		.loc 2 110 7 is_stmt 0 view .LVU576
 1969 0018 2468     		ldr	r4, [r4]
 1970              	.LVL169:
 1971              		.loc 2 106 12 is_stmt 1 view .LVU577
 1972 001a AC42     		cmp	r4, r5
 1973 001c 10D0     		beq	.L169
 1974              	.L168:
 1975              		.loc 2 107 5 view .LVU578
 1976              		.loc 2 107 9 is_stmt 0 view .LVU579
 1977 001e 04F10800 		add	r0, r4, #8
 1978 0022 0822     		movs	r2, #8
 1979 0024 3146     		mov	r1, r6
 1980 0026 FFF7FEFF 		bl	strncmp
 1981              	.LVL170:
 1982              		.loc 2 110 5 is_stmt 1 view .LVU580
 1983              		.loc 2 107 8 is_stmt 0 view .LVU581
 1984 002a 0028     		cmp	r0, #0
 1985 002c F4D1     		bne	.L166
 1986              		.loc 2 108 7 is_stmt 1 view .LVU582
 1987              	.LVL171:
 1988              		.loc 2 108 7 is_stmt 0 view .LVU583
 1989              	.LBE248:
 1990              	.LBE250:
 1991              		.loc 2 234 3 is_stmt 1 view .LVU584
 1992              		.loc 2 234 6 is_stmt 0 view .LVU585
 1993 002e 14B1     		cbz	r4, .L165
 1994              		.loc 2 236 5 is_stmt 1 view .LVU586
 1995              		.loc 2 236 14 is_stmt 0 view .LVU587
ARM GAS  C:\Users\DEVELO~1\AppData\Local\Temp\ccwdFl9J.s 			page 36


 1996 0030 6368     		ldr	r3, [r4, #4]
 1997 0032 0133     		adds	r3, r3, #1
 1998 0034 6360     		str	r3, [r4, #4]
 1999              	.L165:
 2000              	.LVL172:
 2001              		.loc 2 239 3 is_stmt 1 view .LVU588
 2002              		.loc 2 239 3 is_stmt 0 view .LVU589
 2003              	.LBE252:
 2004              	.LBE254:
 2005              		.loc 2 619 3 is_stmt 1 view .LVU590
 2006 0036 0548     		ldr	r0, .L172
 2007 0038 FFF7FEFF 		bl	chMtxUnlock
 2008              	.LVL173:
 2009              		.loc 2 621 3 view .LVU591
 2010              		.loc 2 622 1 is_stmt 0 view .LVU592
 2011 003c 2046     		mov	r0, r4
 2012 003e 70BD     		pop	{r4, r5, r6, pc}
 2013              	.LVL174:
 2014              	.L169:
 2015              	.LBB255:
 2016              	.LBB253:
 2017              	.LBB251:
 2018              	.LBB249:
 2019              		.loc 2 113 10 view .LVU593
 2020 0040 0024     		movs	r4, #0
 2021              	.LVL175:
 2022              		.loc 2 113 10 view .LVU594
 2023              	.LBE249:
 2024              	.LBE251:
 2025              		.loc 2 239 3 is_stmt 1 view .LVU595
 2026              		.loc 2 239 3 is_stmt 0 view .LVU596
 2027              	.LBE253:
 2028              	.LBE255:
 2029              		.loc 2 619 3 is_stmt 1 view .LVU597
 2030 0042 0248     		ldr	r0, .L172
 2031 0044 FFF7FEFF 		bl	chMtxUnlock
 2032              	.LVL176:
 2033              		.loc 2 621 3 view .LVU598
 2034              		.loc 2 622 1 is_stmt 0 view .LVU599
 2035 0048 2046     		mov	r0, r4
 2036 004a 70BD     		pop	{r4, r5, r6, pc}
 2037              	.LVL177:
 2038              	.L173:
 2039              		.loc 2 622 1 view .LVU600
 2040              		.align	2
 2041              	.L172:
 2042 004c 00000000 		.word	.LANCHOR0
 2043              		.cfi_endproc
 2044              	.LFE367:
 2045              		.size	chFactoryFindMailbox, .-chFactoryFindMailbox
 2046              		.section	.text.chFactoryReleaseMailbox,"ax",%progbits
 2047              		.align	1
 2048              		.p2align 4,,15
 2049              		.global	chFactoryReleaseMailbox
 2050              		.syntax unified
 2051              		.thumb
 2052              		.thumb_func
ARM GAS  C:\Users\DEVELO~1\AppData\Local\Temp\ccwdFl9J.s 			page 37


 2053              		.type	chFactoryReleaseMailbox, %function
 2054              	chFactoryReleaseMailbox:
 2055              	.LVL178:
 2056              	.LFB368:
 2057              		.loc 2 634 50 is_stmt 1 view -0
 2058              		.cfi_startproc
 2059              		@ args = 0, pretend = 0, frame = 0
 2060              		@ frame_needed = 0, uses_anonymous_args = 0
 2061              		.loc 2 636 3 view .LVU602
 2062              		.loc 2 634 50 is_stmt 0 view .LVU603
 2063 0000 10B5     		push	{r4, lr}
 2064              		.cfi_def_cfa_offset 8
 2065              		.cfi_offset 4, -8
 2066              		.cfi_offset 14, -4
 2067              		.loc 2 634 50 view .LVU604
 2068 0002 0446     		mov	r4, r0
 2069              		.loc 2 636 3 view .LVU605
 2070 0004 0D48     		ldr	r0, .L183
 2071              	.LVL179:
 2072              		.loc 2 636 3 view .LVU606
 2073 0006 FFF7FEFF 		bl	chMtxLock
 2074              	.LVL180:
 2075              		.loc 2 638 3 is_stmt 1 view .LVU607
 2076              	.LBB264:
 2077              	.LBI264:
 2078              		.loc 2 167 13 view .LVU608
 2079              	.LBB265:
 2080              		.loc 2 170 3 view .LVU609
 2081              		.loc 2 170 3 view .LVU610
 2082              		.loc 2 170 3 view .LVU611
 2083              		.loc 2 171 3 view .LVU612
 2084              		.loc 2 171 3 view .LVU613
 2085              		.loc 2 171 3 view .LVU614
 2086              		.loc 2 173 3 view .LVU615
 2087              		.loc 2 173 12 is_stmt 0 view .LVU616
 2088 000a 6368     		ldr	r3, [r4, #4]
 2089 000c 013B     		subs	r3, r3, #1
 2090 000e 6360     		str	r3, [r4, #4]
 2091              		.loc 2 174 3 is_stmt 1 view .LVU617
 2092              		.loc 2 174 6 is_stmt 0 view .LVU618
 2093 0010 5BB9     		cbnz	r3, .L176
 2094              	.LBB266:
 2095              	.LBB267:
 2096              	.LBB268:
 2097              	.LBB269:
 2098              		.loc 2 118 18 view .LVU619
 2099 0012 0B4B     		ldr	r3, .L183+4
 2100 0014 1846     		mov	r0, r3
 2101 0016 01E0     		b	.L177
 2102              	.LVL181:
 2103              	.L179:
 2104              		.loc 2 122 8 view .LVU620
 2105 0018 8442     		cmp	r4, r0
 2106 001a 0BD0     		beq	.L182
 2107              	.LVL182:
 2108              	.L177:
 2109              		.loc 2 122 5 is_stmt 1 view .LVU621
ARM GAS  C:\Users\DEVELO~1\AppData\Local\Temp\ccwdFl9J.s 			page 38


 2110              		.loc 2 121 21 view .LVU622
 2111 001c 0246     		mov	r2, r0
 2112              		.loc 2 121 14 is_stmt 0 view .LVU623
 2113 001e 0068     		ldr	r0, [r0]
 2114              	.LVL183:
 2115              		.loc 2 121 21 view .LVU624
 2116 0020 9842     		cmp	r0, r3
 2117 0022 F9D1     		bne	.L179
 2118              		.loc 2 132 10 view .LVU625
 2119 0024 0020     		movs	r0, #0
 2120              	.L178:
 2121              	.LVL184:
 2122              		.loc 2 132 10 view .LVU626
 2123              	.LBE269:
 2124              	.LBE268:
 2125              		.loc 2 176 5 is_stmt 1 view .LVU627
 2126 0026 FFF7FEFF 		bl	chHeapFree
 2127              	.LVL185:
 2128              	.L176:
 2129              		.loc 2 176 5 is_stmt 0 view .LVU628
 2130              	.LBE267:
 2131              	.LBE266:
 2132              	.LBE265:
 2133              	.LBE264:
 2134              		.loc 2 640 3 is_stmt 1 view .LVU629
 2135 002a 0448     		ldr	r0, .L183
 2136              		.loc 2 641 1 is_stmt 0 view .LVU630
 2137 002c BDE81040 		pop	{r4, lr}
 2138              		.cfi_remember_state
 2139              		.cfi_restore 14
 2140              		.cfi_restore 4
 2141              		.cfi_def_cfa_offset 0
 2142              	.LVL186:
 2143              		.loc 2 640 3 view .LVU631
 2144 0030 FFF7FEBF 		b	chMtxUnlock
 2145              	.LVL187:
 2146              	.L182:
 2147              		.cfi_restore_state
 2148              	.LBB275:
 2149              	.LBB274:
 2150              	.LBB273:
 2151              	.LBB272:
 2152              	.LBB271:
 2153              	.LBB270:
 2154              		.loc 2 124 7 is_stmt 1 view .LVU632
 2155              		.loc 2 124 27 is_stmt 0 view .LVU633
 2156 0034 0368     		ldr	r3, [r0]
 2157              		.loc 2 124 18 view .LVU634
 2158 0036 1360     		str	r3, [r2]
 2159              		.loc 2 125 7 is_stmt 1 view .LVU635
 2160              		.loc 2 125 14 is_stmt 0 view .LVU636
 2161 0038 F5E7     		b	.L178
 2162              	.L184:
 2163 003a 00BF     		.align	2
 2164              	.L183:
 2165 003c 00000000 		.word	.LANCHOR0
 2166 0040 3C000000 		.word	.LANCHOR0+60
ARM GAS  C:\Users\DEVELO~1\AppData\Local\Temp\ccwdFl9J.s 			page 39


 2167              	.LBE270:
 2168              	.LBE271:
 2169              	.LBE272:
 2170              	.LBE273:
 2171              	.LBE274:
 2172              	.LBE275:
 2173              		.cfi_endproc
 2174              	.LFE368:
 2175              		.size	chFactoryReleaseMailbox, .-chFactoryReleaseMailbox
 2176              		.section	.text.chFactoryCreateObjectsFIFO,"ax",%progbits
 2177              		.align	1
 2178              		.p2align 4,,15
 2179              		.global	chFactoryCreateObjectsFIFO
 2180              		.syntax unified
 2181              		.thumb
 2182              		.thumb_func
 2183              		.type	chFactoryCreateObjectsFIFO, %function
 2184              	chFactoryCreateObjectsFIFO:
 2185              	.LVL188:
 2186              	.LFB369:
 2187              		.loc 2 667 67 is_stmt 1 view -0
 2188              		.cfi_startproc
 2189              		@ args = 0, pretend = 0, frame = 0
 2190              		@ frame_needed = 0, uses_anonymous_args = 0
 2191              		.loc 2 668 3 view .LVU638
 2192              		.loc 2 669 3 view .LVU639
 2193              		.loc 2 671 3 view .LVU640
 2194              		.loc 2 667 67 is_stmt 0 view .LVU641
 2195 0000 2DE9F041 		push	{r4, r5, r6, r7, r8, lr}
 2196              		.cfi_def_cfa_offset 24
 2197              		.cfi_offset 4, -24
 2198              		.cfi_offset 5, -20
 2199              		.cfi_offset 6, -16
 2200              		.cfi_offset 7, -12
 2201              		.cfi_offset 8, -8
 2202              		.cfi_offset 14, -4
 2203              		.loc 2 667 67 view .LVU642
 2204 0004 1F46     		mov	r7, r3
 2205 0006 0546     		mov	r5, r0
 2206 0008 1646     		mov	r6, r2
 2207 000a 0C46     		mov	r4, r1
 2208              		.loc 2 671 3 view .LVU643
 2209 000c 1648     		ldr	r0, .L191
 2210              	.LVL189:
 2211              		.loc 2 671 3 view .LVU644
 2212 000e FFF7FEFF 		bl	chMtxLock
 2213              	.LVL190:
 2214              		.loc 2 674 3 is_stmt 1 view .LVU645
 2215              		.loc 2 674 13 is_stmt 0 view .LVU646
 2216 0012 013C     		subs	r4, r4, #1
 2217              	.LVL191:
 2218              		.loc 2 680 32 view .LVU647
 2219 0014 2846     		mov	r0, r5
 2220              		.loc 2 675 13 view .LVU648
 2221 0016 07EB8605 		add	r5, r7, r6, lsl #2
 2222              	.LVL192:
 2223              		.loc 2 674 13 view .LVU649
ARM GAS  C:\Users\DEVELO~1\AppData\Local\Temp\ccwdFl9J.s 			page 40


 2224 001a 7B42     		rsbs	r3, r7, #0
 2225 001c 3C44     		add	r4, r4, r7
 2226              	.LVL193:
 2227              		.loc 2 675 13 view .LVU650
 2228 001e 5335     		adds	r5, r5, #83
 2229              		.loc 2 680 32 view .LVU651
 2230 0020 1249     		ldr	r1, .L191+4
 2231              		.loc 2 674 11 view .LVU652
 2232 0022 1C40     		ands	r4, r4, r3
 2233              	.LVL194:
 2234              		.loc 2 675 3 is_stmt 1 view .LVU653
 2235              		.loc 2 675 11 is_stmt 0 view .LVU654
 2236 0024 1D40     		ands	r5, r5, r3
 2237              	.LVL195:
 2238              		.loc 2 677 3 is_stmt 1 view .LVU655
 2239              		.loc 2 680 3 view .LVU656
 2240              		.loc 2 680 32 is_stmt 0 view .LVU657
 2241 0026 3B46     		mov	r3, r7
 2242 0028 06FB0452 		mla	r2, r6, r4, r5
 2243 002c FFF7FEFF 		bl	dyn_create_object_heap
 2244              	.LVL196:
 2245              		.loc 2 684 3 is_stmt 1 view .LVU658
 2246              		.loc 2 684 6 is_stmt 0 view .LVU659
 2247 0030 8046     		mov	r8, r0
 2248 0032 98B1     		cbz	r0, .L186
 2249              	.LBB279:
 2250              		.loc 2 685 5 is_stmt 1 view .LVU660
 2251              	.LVL197:
 2252              		.loc 2 686 5 view .LVU661
 2253              	.LBB280:
 2254              	.LBB281:
 2255              		.file 4 "../../../os/oslib/include/chobjfifos.h"
 2256              		.loc 4 134 3 is_stmt 0 view .LVU662
 2257 0034 2146     		mov	r1, r4
 2258 0036 00F11004 		add	r4, r0, #16
 2259              	.LVL198:
 2260              		.loc 4 134 3 view .LVU663
 2261              	.LBE281:
 2262              	.LBE280:
 2263              		.loc 2 686 14 view .LVU664
 2264 003a 0544     		add	r5, r5, r0
 2265              	.LVL199:
 2266              		.loc 2 689 5 is_stmt 1 view .LVU665
 2267              	.LBB283:
 2268              	.LBI280:
 2269              		.loc 4 128 20 view .LVU666
 2270              	.LBB282:
 2271              		.loc 4 132 3 view .LVU667
 2272              		.loc 4 132 3 view .LVU668
 2273              		.loc 4 132 3 view .LVU669
 2274              		.loc 4 134 3 view .LVU670
 2275 003c 3A46     		mov	r2, r7
 2276 003e 2046     		mov	r0, r4
 2277              	.LVL200:
 2278              		.loc 4 134 3 is_stmt 0 view .LVU671
 2279 0040 FFF7FEFF 		bl	chGuardedPoolObjectInitAligned
 2280              	.LVL201:
ARM GAS  C:\Users\DEVELO~1\AppData\Local\Temp\ccwdFl9J.s 			page 41


 2281              		.loc 4 135 3 is_stmt 1 view .LVU672
 2282 0044 3246     		mov	r2, r6
 2283 0046 2946     		mov	r1, r5
 2284 0048 2046     		mov	r0, r4
 2285 004a FFF7FEFF 		bl	chGuardedPoolLoadArray
 2286              	.LVL202:
 2287              		.loc 4 136 3 view .LVU673
 2288 004e 3246     		mov	r2, r6
 2289 0050 08F15401 		add	r1, r8, #84
 2290              	.LVL203:
 2291              		.loc 4 136 3 is_stmt 0 view .LVU674
 2292 0054 08F12C00 		add	r0, r8, #44
 2293 0058 FFF7FEFF 		bl	chMBObjectInit
 2294              	.LVL204:
 2295              	.L186:
 2296              		.loc 4 136 3 view .LVU675
 2297              	.LBE282:
 2298              	.LBE283:
 2299              	.LBE279:
 2300              		.loc 2 693 3 is_stmt 1 view .LVU676
 2301 005c 0248     		ldr	r0, .L191
 2302 005e FFF7FEFF 		bl	chMtxUnlock
 2303              	.LVL205:
 2304              		.loc 2 695 3 view .LVU677
 2305              		.loc 2 696 1 is_stmt 0 view .LVU678
 2306 0062 4046     		mov	r0, r8
 2307 0064 BDE8F081 		pop	{r4, r5, r6, r7, r8, pc}
 2308              	.LVL206:
 2309              	.L192:
 2310              		.loc 2 696 1 view .LVU679
 2311              		.align	2
 2312              	.L191:
 2313 0068 00000000 		.word	.LANCHOR0
 2314 006c 40000000 		.word	.LANCHOR0+64
 2315              		.cfi_endproc
 2316              	.LFE369:
 2317              		.size	chFactoryCreateObjectsFIFO, .-chFactoryCreateObjectsFIFO
 2318              		.section	.text.chFactoryFindObjectsFIFO,"ax",%progbits
 2319              		.align	1
 2320              		.p2align 4,,15
 2321              		.global	chFactoryFindObjectsFIFO
 2322              		.syntax unified
 2323              		.thumb
 2324              		.thumb_func
 2325              		.type	chFactoryFindObjectsFIFO, %function
 2326              	chFactoryFindObjectsFIFO:
 2327              	.LVL207:
 2328              	.LFB370:
 2329              		.loc 2 712 64 is_stmt 1 view -0
 2330              		.cfi_startproc
 2331              		@ args = 0, pretend = 0, frame = 0
 2332              		@ frame_needed = 0, uses_anonymous_args = 0
 2333              		.loc 2 713 3 view .LVU681
 2334              		.loc 2 715 3 view .LVU682
 2335 0000 124B     		ldr	r3, .L201
 2336              		.loc 2 712 64 is_stmt 0 view .LVU683
 2337 0002 70B5     		push	{r4, r5, r6, lr}
ARM GAS  C:\Users\DEVELO~1\AppData\Local\Temp\ccwdFl9J.s 			page 42


 2338              		.cfi_def_cfa_offset 16
 2339              		.cfi_offset 4, -16
 2340              		.cfi_offset 5, -12
 2341              		.cfi_offset 6, -8
 2342              		.cfi_offset 14, -4
 2343              	.LBB288:
 2344              	.LBB289:
 2345              	.LBB290:
 2346              	.LBB291:
 2347              		.loc 2 104 18 view .LVU684
 2348 0004 1D46     		mov	r5, r3
 2349              	.LBE291:
 2350              	.LBE290:
 2351              	.LBE289:
 2352              	.LBE288:
 2353              		.loc 2 712 64 view .LVU685
 2354 0006 0646     		mov	r6, r0
 2355              		.loc 2 715 3 view .LVU686
 2356 0008 1846     		mov	r0, r3
 2357              	.LVL208:
 2358              		.loc 2 715 3 view .LVU687
 2359 000a FFF7FEFF 		bl	chMtxLock
 2360              	.LVL209:
 2361              		.loc 2 717 3 is_stmt 1 view .LVU688
 2362              	.LBB298:
 2363              	.LBI288:
 2364              		.loc 2 227 23 view .LVU689
 2365              	.LBB296:
 2366              		.loc 2 228 3 view .LVU690
 2367              		.loc 2 230 3 view .LVU691
 2368              		.loc 2 230 3 view .LVU692
 2369              		.loc 2 230 3 view .LVU693
 2370              		.loc 2 233 3 view .LVU694
 2371              	.LBB294:
 2372              	.LBI290:
 2373              		.loc 2 103 23 view .LVU695
 2374              	.LBB292:
 2375              		.loc 2 104 3 view .LVU696
 2376              		.loc 2 104 18 is_stmt 0 view .LVU697
 2377 000e 55F8404F 		ldr	r4, [r5, #64]!
 2378              	.LVL210:
 2379              		.loc 2 106 3 is_stmt 1 view .LVU698
 2380              		.loc 2 106 12 view .LVU699
 2381 0012 AC42     		cmp	r4, r5
 2382 0014 03D1     		bne	.L197
 2383 0016 13E0     		b	.L198
 2384              	.L195:
 2385              		.loc 2 110 7 is_stmt 0 view .LVU700
 2386 0018 2468     		ldr	r4, [r4]
 2387              	.LVL211:
 2388              		.loc 2 106 12 is_stmt 1 view .LVU701
 2389 001a AC42     		cmp	r4, r5
 2390 001c 10D0     		beq	.L198
 2391              	.L197:
 2392              		.loc 2 107 5 view .LVU702
 2393              		.loc 2 107 9 is_stmt 0 view .LVU703
 2394 001e 04F10800 		add	r0, r4, #8
ARM GAS  C:\Users\DEVELO~1\AppData\Local\Temp\ccwdFl9J.s 			page 43


 2395 0022 0822     		movs	r2, #8
 2396 0024 3146     		mov	r1, r6
 2397 0026 FFF7FEFF 		bl	strncmp
 2398              	.LVL212:
 2399              		.loc 2 110 5 is_stmt 1 view .LVU704
 2400              		.loc 2 107 8 is_stmt 0 view .LVU705
 2401 002a 0028     		cmp	r0, #0
 2402 002c F4D1     		bne	.L195
 2403              		.loc 2 108 7 is_stmt 1 view .LVU706
 2404              	.LVL213:
 2405              		.loc 2 108 7 is_stmt 0 view .LVU707
 2406              	.LBE292:
 2407              	.LBE294:
 2408              		.loc 2 234 3 is_stmt 1 view .LVU708
 2409              		.loc 2 234 6 is_stmt 0 view .LVU709
 2410 002e 14B1     		cbz	r4, .L194
 2411              		.loc 2 236 5 is_stmt 1 view .LVU710
 2412              		.loc 2 236 14 is_stmt 0 view .LVU711
 2413 0030 6368     		ldr	r3, [r4, #4]
 2414 0032 0133     		adds	r3, r3, #1
 2415 0034 6360     		str	r3, [r4, #4]
 2416              	.L194:
 2417              	.LVL214:
 2418              		.loc 2 239 3 is_stmt 1 view .LVU712
 2419              		.loc 2 239 3 is_stmt 0 view .LVU713
 2420              	.LBE296:
 2421              	.LBE298:
 2422              		.loc 2 719 3 is_stmt 1 view .LVU714
 2423 0036 0548     		ldr	r0, .L201
 2424 0038 FFF7FEFF 		bl	chMtxUnlock
 2425              	.LVL215:
 2426              		.loc 2 721 3 view .LVU715
 2427              		.loc 2 722 1 is_stmt 0 view .LVU716
 2428 003c 2046     		mov	r0, r4
 2429 003e 70BD     		pop	{r4, r5, r6, pc}
 2430              	.LVL216:
 2431              	.L198:
 2432              	.LBB299:
 2433              	.LBB297:
 2434              	.LBB295:
 2435              	.LBB293:
 2436              		.loc 2 113 10 view .LVU717
 2437 0040 0024     		movs	r4, #0
 2438              	.LVL217:
 2439              		.loc 2 113 10 view .LVU718
 2440              	.LBE293:
 2441              	.LBE295:
 2442              		.loc 2 239 3 is_stmt 1 view .LVU719
 2443              		.loc 2 239 3 is_stmt 0 view .LVU720
 2444              	.LBE297:
 2445              	.LBE299:
 2446              		.loc 2 719 3 is_stmt 1 view .LVU721
 2447 0042 0248     		ldr	r0, .L201
 2448 0044 FFF7FEFF 		bl	chMtxUnlock
 2449              	.LVL218:
 2450              		.loc 2 721 3 view .LVU722
 2451              		.loc 2 722 1 is_stmt 0 view .LVU723
ARM GAS  C:\Users\DEVELO~1\AppData\Local\Temp\ccwdFl9J.s 			page 44


 2452 0048 2046     		mov	r0, r4
 2453 004a 70BD     		pop	{r4, r5, r6, pc}
 2454              	.LVL219:
 2455              	.L202:
 2456              		.loc 2 722 1 view .LVU724
 2457              		.align	2
 2458              	.L201:
 2459 004c 00000000 		.word	.LANCHOR0
 2460              		.cfi_endproc
 2461              	.LFE370:
 2462              		.size	chFactoryFindObjectsFIFO, .-chFactoryFindObjectsFIFO
 2463              		.section	.text.chFactoryReleaseObjectsFIFO,"ax",%progbits
 2464              		.align	1
 2465              		.p2align 4,,15
 2466              		.global	chFactoryReleaseObjectsFIFO
 2467              		.syntax unified
 2468              		.thumb
 2469              		.thumb_func
 2470              		.type	chFactoryReleaseObjectsFIFO, %function
 2471              	chFactoryReleaseObjectsFIFO:
 2472              	.LVL220:
 2473              	.LFB371:
 2474              		.loc 2 734 60 is_stmt 1 view -0
 2475              		.cfi_startproc
 2476              		@ args = 0, pretend = 0, frame = 0
 2477              		@ frame_needed = 0, uses_anonymous_args = 0
 2478              		.loc 2 736 3 view .LVU726
 2479              		.loc 2 734 60 is_stmt 0 view .LVU727
 2480 0000 10B5     		push	{r4, lr}
 2481              		.cfi_def_cfa_offset 8
 2482              		.cfi_offset 4, -8
 2483              		.cfi_offset 14, -4
 2484              		.loc 2 734 60 view .LVU728
 2485 0002 0446     		mov	r4, r0
 2486              		.loc 2 736 3 view .LVU729
 2487 0004 0D48     		ldr	r0, .L212
 2488              	.LVL221:
 2489              		.loc 2 736 3 view .LVU730
 2490 0006 FFF7FEFF 		bl	chMtxLock
 2491              	.LVL222:
 2492              		.loc 2 738 3 is_stmt 1 view .LVU731
 2493              	.LBB308:
 2494              	.LBI308:
 2495              		.loc 2 167 13 view .LVU732
 2496              	.LBB309:
 2497              		.loc 2 170 3 view .LVU733
 2498              		.loc 2 170 3 view .LVU734
 2499              		.loc 2 170 3 view .LVU735
 2500              		.loc 2 171 3 view .LVU736
 2501              		.loc 2 171 3 view .LVU737
 2502              		.loc 2 171 3 view .LVU738
 2503              		.loc 2 173 3 view .LVU739
 2504              		.loc 2 173 12 is_stmt 0 view .LVU740
 2505 000a 6368     		ldr	r3, [r4, #4]
 2506 000c 013B     		subs	r3, r3, #1
 2507 000e 6360     		str	r3, [r4, #4]
 2508              		.loc 2 174 3 is_stmt 1 view .LVU741
ARM GAS  C:\Users\DEVELO~1\AppData\Local\Temp\ccwdFl9J.s 			page 45


 2509              		.loc 2 174 6 is_stmt 0 view .LVU742
 2510 0010 5BB9     		cbnz	r3, .L205
 2511              	.LBB310:
 2512              	.LBB311:
 2513              	.LBB312:
 2514              	.LBB313:
 2515              		.loc 2 118 18 view .LVU743
 2516 0012 0B4B     		ldr	r3, .L212+4
 2517 0014 1846     		mov	r0, r3
 2518 0016 01E0     		b	.L206
 2519              	.LVL223:
 2520              	.L208:
 2521              		.loc 2 122 8 view .LVU744
 2522 0018 8442     		cmp	r4, r0
 2523 001a 0BD0     		beq	.L211
 2524              	.LVL224:
 2525              	.L206:
 2526              		.loc 2 122 5 is_stmt 1 view .LVU745
 2527              		.loc 2 121 21 view .LVU746
 2528 001c 0246     		mov	r2, r0
 2529              		.loc 2 121 14 is_stmt 0 view .LVU747
 2530 001e 0068     		ldr	r0, [r0]
 2531              	.LVL225:
 2532              		.loc 2 121 21 view .LVU748
 2533 0020 9842     		cmp	r0, r3
 2534 0022 F9D1     		bne	.L208
 2535              		.loc 2 132 10 view .LVU749
 2536 0024 0020     		movs	r0, #0
 2537              	.L207:
 2538              	.LVL226:
 2539              		.loc 2 132 10 view .LVU750
 2540              	.LBE313:
 2541              	.LBE312:
 2542              		.loc 2 176 5 is_stmt 1 view .LVU751
 2543 0026 FFF7FEFF 		bl	chHeapFree
 2544              	.LVL227:
 2545              	.L205:
 2546              		.loc 2 176 5 is_stmt 0 view .LVU752
 2547              	.LBE311:
 2548              	.LBE310:
 2549              	.LBE309:
 2550              	.LBE308:
 2551              		.loc 2 740 3 is_stmt 1 view .LVU753
 2552 002a 0448     		ldr	r0, .L212
 2553              		.loc 2 741 1 is_stmt 0 view .LVU754
 2554 002c BDE81040 		pop	{r4, lr}
 2555              		.cfi_remember_state
 2556              		.cfi_restore 14
 2557              		.cfi_restore 4
 2558              		.cfi_def_cfa_offset 0
 2559              	.LVL228:
 2560              		.loc 2 740 3 view .LVU755
 2561 0030 FFF7FEBF 		b	chMtxUnlock
 2562              	.LVL229:
 2563              	.L211:
 2564              		.cfi_restore_state
 2565              	.LBB319:
ARM GAS  C:\Users\DEVELO~1\AppData\Local\Temp\ccwdFl9J.s 			page 46


 2566              	.LBB318:
 2567              	.LBB317:
 2568              	.LBB316:
 2569              	.LBB315:
 2570              	.LBB314:
 2571              		.loc 2 124 7 is_stmt 1 view .LVU756
 2572              		.loc 2 124 27 is_stmt 0 view .LVU757
 2573 0034 0368     		ldr	r3, [r0]
 2574              		.loc 2 124 18 view .LVU758
 2575 0036 1360     		str	r3, [r2]
 2576              		.loc 2 125 7 is_stmt 1 view .LVU759
 2577              		.loc 2 125 14 is_stmt 0 view .LVU760
 2578 0038 F5E7     		b	.L207
 2579              	.L213:
 2580 003a 00BF     		.align	2
 2581              	.L212:
 2582 003c 00000000 		.word	.LANCHOR0
 2583 0040 40000000 		.word	.LANCHOR0+64
 2584              	.LBE314:
 2585              	.LBE315:
 2586              	.LBE316:
 2587              	.LBE317:
 2588              	.LBE318:
 2589              	.LBE319:
 2590              		.cfi_endproc
 2591              	.LFE371:
 2592              		.size	chFactoryReleaseObjectsFIFO, .-chFactoryReleaseObjectsFIFO
 2593              		.section	.text.chFactoryCreatePipe,"ax",%progbits
 2594              		.align	1
 2595              		.p2align 4,,15
 2596              		.global	chFactoryCreatePipe
 2597              		.syntax unified
 2598              		.thumb
 2599              		.thumb_func
 2600              		.type	chFactoryCreatePipe, %function
 2601              	chFactoryCreatePipe:
 2602              	.LVL230:
 2603              	.LFB372:
 2604              		.loc 2 762 64 is_stmt 1 view -0
 2605              		.cfi_startproc
 2606              		@ args = 0, pretend = 0, frame = 0
 2607              		@ frame_needed = 0, uses_anonymous_args = 0
 2608              		.loc 2 763 3 view .LVU762
 2609              		.loc 2 765 3 view .LVU763
 2610              		.loc 2 762 64 is_stmt 0 view .LVU764
 2611 0000 38B5     		push	{r3, r4, r5, lr}
 2612              		.cfi_def_cfa_offset 16
 2613              		.cfi_offset 3, -16
 2614              		.cfi_offset 4, -12
 2615              		.cfi_offset 5, -8
 2616              		.cfi_offset 14, -4
 2617              		.loc 2 762 64 view .LVU765
 2618 0002 0446     		mov	r4, r0
 2619 0004 0D46     		mov	r5, r1
 2620              		.loc 2 765 3 view .LVU766
 2621 0006 0B48     		ldr	r0, .L220
 2622              	.LVL231:
ARM GAS  C:\Users\DEVELO~1\AppData\Local\Temp\ccwdFl9J.s 			page 47


 2623              		.loc 2 765 3 view .LVU767
 2624 0008 FFF7FEFF 		bl	chMtxLock
 2625              	.LVL232:
 2626              		.loc 2 767 3 is_stmt 1 view .LVU768
 2627              		.loc 2 767 23 is_stmt 0 view .LVU769
 2628 000c 2046     		mov	r0, r4
 2629 000e 0823     		movs	r3, #8
 2630 0010 05F16002 		add	r2, r5, #96
 2631 0014 0849     		ldr	r1, .L220+4
 2632 0016 FFF7FEFF 		bl	dyn_create_object_heap
 2633              	.LVL233:
 2634              		.loc 2 771 3 is_stmt 1 view .LVU770
 2635              		.loc 2 771 6 is_stmt 0 view .LVU771
 2636 001a 0446     		mov	r4, r0
 2637              	.LVL234:
 2638              		.loc 2 771 6 view .LVU772
 2639 001c 28B1     		cbz	r0, .L215
 2640              		.loc 2 773 5 is_stmt 1 view .LVU773
 2641 001e 00F16001 		add	r1, r0, #96
 2642 0022 2A46     		mov	r2, r5
 2643 0024 1030     		adds	r0, r0, #16
 2644              	.LVL235:
 2645              		.loc 2 773 5 is_stmt 0 view .LVU774
 2646 0026 FFF7FEFF 		bl	chPipeObjectInit
 2647              	.LVL236:
 2648              	.L215:
 2649              		.loc 2 776 3 is_stmt 1 view .LVU775
 2650 002a 0248     		ldr	r0, .L220
 2651 002c FFF7FEFF 		bl	chMtxUnlock
 2652              	.LVL237:
 2653              		.loc 2 778 3 view .LVU776
 2654              		.loc 2 779 1 is_stmt 0 view .LVU777
 2655 0030 2046     		mov	r0, r4
 2656 0032 38BD     		pop	{r3, r4, r5, pc}
 2657              	.LVL238:
 2658              	.L221:
 2659              		.loc 2 779 1 view .LVU778
 2660              		.align	2
 2661              	.L220:
 2662 0034 00000000 		.word	.LANCHOR0
 2663 0038 44000000 		.word	.LANCHOR0+68
 2664              		.cfi_endproc
 2665              	.LFE372:
 2666              		.size	chFactoryCreatePipe, .-chFactoryCreatePipe
 2667              		.section	.text.chFactoryFindPipe,"ax",%progbits
 2668              		.align	1
 2669              		.p2align 4,,15
 2670              		.global	chFactoryFindPipe
 2671              		.syntax unified
 2672              		.thumb
 2673              		.thumb_func
 2674              		.type	chFactoryFindPipe, %function
 2675              	chFactoryFindPipe:
 2676              	.LVL239:
 2677              	.LFB373:
 2678              		.loc 2 795 49 is_stmt 1 view -0
 2679              		.cfi_startproc
ARM GAS  C:\Users\DEVELO~1\AppData\Local\Temp\ccwdFl9J.s 			page 48


 2680              		@ args = 0, pretend = 0, frame = 0
 2681              		@ frame_needed = 0, uses_anonymous_args = 0
 2682              		.loc 2 796 3 view .LVU780
 2683              		.loc 2 798 3 view .LVU781
 2684 0000 124B     		ldr	r3, .L230
 2685              		.loc 2 795 49 is_stmt 0 view .LVU782
 2686 0002 70B5     		push	{r4, r5, r6, lr}
 2687              		.cfi_def_cfa_offset 16
 2688              		.cfi_offset 4, -16
 2689              		.cfi_offset 5, -12
 2690              		.cfi_offset 6, -8
 2691              		.cfi_offset 14, -4
 2692              	.LBB324:
 2693              	.LBB325:
 2694              	.LBB326:
 2695              	.LBB327:
 2696              		.loc 2 104 18 view .LVU783
 2697 0004 1D46     		mov	r5, r3
 2698              	.LBE327:
 2699              	.LBE326:
 2700              	.LBE325:
 2701              	.LBE324:
 2702              		.loc 2 795 49 view .LVU784
 2703 0006 0646     		mov	r6, r0
 2704              		.loc 2 798 3 view .LVU785
 2705 0008 1846     		mov	r0, r3
 2706              	.LVL240:
 2707              		.loc 2 798 3 view .LVU786
 2708 000a FFF7FEFF 		bl	chMtxLock
 2709              	.LVL241:
 2710              		.loc 2 800 3 is_stmt 1 view .LVU787
 2711              	.LBB334:
 2712              	.LBI324:
 2713              		.loc 2 227 23 view .LVU788
 2714              	.LBB332:
 2715              		.loc 2 228 3 view .LVU789
 2716              		.loc 2 230 3 view .LVU790
 2717              		.loc 2 230 3 view .LVU791
 2718              		.loc 2 230 3 view .LVU792
 2719              		.loc 2 233 3 view .LVU793
 2720              	.LBB330:
 2721              	.LBI326:
 2722              		.loc 2 103 23 view .LVU794
 2723              	.LBB328:
 2724              		.loc 2 104 3 view .LVU795
 2725              		.loc 2 104 18 is_stmt 0 view .LVU796
 2726 000e 55F8444F 		ldr	r4, [r5, #68]!
 2727              	.LVL242:
 2728              		.loc 2 106 3 is_stmt 1 view .LVU797
 2729              		.loc 2 106 12 view .LVU798
 2730 0012 AC42     		cmp	r4, r5
 2731 0014 03D1     		bne	.L226
 2732 0016 13E0     		b	.L227
 2733              	.L224:
 2734              		.loc 2 110 7 is_stmt 0 view .LVU799
 2735 0018 2468     		ldr	r4, [r4]
 2736              	.LVL243:
ARM GAS  C:\Users\DEVELO~1\AppData\Local\Temp\ccwdFl9J.s 			page 49


 2737              		.loc 2 106 12 is_stmt 1 view .LVU800
 2738 001a AC42     		cmp	r4, r5
 2739 001c 10D0     		beq	.L227
 2740              	.L226:
 2741              		.loc 2 107 5 view .LVU801
 2742              		.loc 2 107 9 is_stmt 0 view .LVU802
 2743 001e 04F10800 		add	r0, r4, #8
 2744 0022 0822     		movs	r2, #8
 2745 0024 3146     		mov	r1, r6
 2746 0026 FFF7FEFF 		bl	strncmp
 2747              	.LVL244:
 2748              		.loc 2 110 5 is_stmt 1 view .LVU803
 2749              		.loc 2 107 8 is_stmt 0 view .LVU804
 2750 002a 0028     		cmp	r0, #0
 2751 002c F4D1     		bne	.L224
 2752              		.loc 2 108 7 is_stmt 1 view .LVU805
 2753              	.LVL245:
 2754              		.loc 2 108 7 is_stmt 0 view .LVU806
 2755              	.LBE328:
 2756              	.LBE330:
 2757              		.loc 2 234 3 is_stmt 1 view .LVU807
 2758              		.loc 2 234 6 is_stmt 0 view .LVU808
 2759 002e 14B1     		cbz	r4, .L223
 2760              		.loc 2 236 5 is_stmt 1 view .LVU809
 2761              		.loc 2 236 14 is_stmt 0 view .LVU810
 2762 0030 6368     		ldr	r3, [r4, #4]
 2763 0032 0133     		adds	r3, r3, #1
 2764 0034 6360     		str	r3, [r4, #4]
 2765              	.L223:
 2766              	.LVL246:
 2767              		.loc 2 239 3 is_stmt 1 view .LVU811
 2768              		.loc 2 239 3 is_stmt 0 view .LVU812
 2769              	.LBE332:
 2770              	.LBE334:
 2771              		.loc 2 802 3 is_stmt 1 view .LVU813
 2772 0036 0548     		ldr	r0, .L230
 2773 0038 FFF7FEFF 		bl	chMtxUnlock
 2774              	.LVL247:
 2775              		.loc 2 804 3 view .LVU814
 2776              		.loc 2 805 1 is_stmt 0 view .LVU815
 2777 003c 2046     		mov	r0, r4
 2778 003e 70BD     		pop	{r4, r5, r6, pc}
 2779              	.LVL248:
 2780              	.L227:
 2781              	.LBB335:
 2782              	.LBB333:
 2783              	.LBB331:
 2784              	.LBB329:
 2785              		.loc 2 113 10 view .LVU816
 2786 0040 0024     		movs	r4, #0
 2787              	.LVL249:
 2788              		.loc 2 113 10 view .LVU817
 2789              	.LBE329:
 2790              	.LBE331:
 2791              		.loc 2 239 3 is_stmt 1 view .LVU818
 2792              		.loc 2 239 3 is_stmt 0 view .LVU819
 2793              	.LBE333:
ARM GAS  C:\Users\DEVELO~1\AppData\Local\Temp\ccwdFl9J.s 			page 50


 2794              	.LBE335:
 2795              		.loc 2 802 3 is_stmt 1 view .LVU820
 2796 0042 0248     		ldr	r0, .L230
 2797 0044 FFF7FEFF 		bl	chMtxUnlock
 2798              	.LVL250:
 2799              		.loc 2 804 3 view .LVU821
 2800              		.loc 2 805 1 is_stmt 0 view .LVU822
 2801 0048 2046     		mov	r0, r4
 2802 004a 70BD     		pop	{r4, r5, r6, pc}
 2803              	.LVL251:
 2804              	.L231:
 2805              		.loc 2 805 1 view .LVU823
 2806              		.align	2
 2807              	.L230:
 2808 004c 00000000 		.word	.LANCHOR0
 2809              		.cfi_endproc
 2810              	.LFE373:
 2811              		.size	chFactoryFindPipe, .-chFactoryFindPipe
 2812              		.section	.text.chFactoryReleasePipe,"ax",%progbits
 2813              		.align	1
 2814              		.p2align 4,,15
 2815              		.global	chFactoryReleasePipe
 2816              		.syntax unified
 2817              		.thumb
 2818              		.thumb_func
 2819              		.type	chFactoryReleasePipe, %function
 2820              	chFactoryReleasePipe:
 2821              	.LVL252:
 2822              	.LFB374:
 2823              		.loc 2 817 44 is_stmt 1 view -0
 2824              		.cfi_startproc
 2825              		@ args = 0, pretend = 0, frame = 0
 2826              		@ frame_needed = 0, uses_anonymous_args = 0
 2827              		.loc 2 819 3 view .LVU825
 2828              		.loc 2 817 44 is_stmt 0 view .LVU826
 2829 0000 10B5     		push	{r4, lr}
 2830              		.cfi_def_cfa_offset 8
 2831              		.cfi_offset 4, -8
 2832              		.cfi_offset 14, -4
 2833              		.loc 2 817 44 view .LVU827
 2834 0002 0446     		mov	r4, r0
 2835              		.loc 2 819 3 view .LVU828
 2836 0004 0D48     		ldr	r0, .L241
 2837              	.LVL253:
 2838              		.loc 2 819 3 view .LVU829
 2839 0006 FFF7FEFF 		bl	chMtxLock
 2840              	.LVL254:
 2841              		.loc 2 821 3 is_stmt 1 view .LVU830
 2842              	.LBB344:
 2843              	.LBI344:
 2844              		.loc 2 167 13 view .LVU831
 2845              	.LBB345:
 2846              		.loc 2 170 3 view .LVU832
 2847              		.loc 2 170 3 view .LVU833
 2848              		.loc 2 170 3 view .LVU834
 2849              		.loc 2 171 3 view .LVU835
 2850              		.loc 2 171 3 view .LVU836
ARM GAS  C:\Users\DEVELO~1\AppData\Local\Temp\ccwdFl9J.s 			page 51


 2851              		.loc 2 171 3 view .LVU837
 2852              		.loc 2 173 3 view .LVU838
 2853              		.loc 2 173 12 is_stmt 0 view .LVU839
 2854 000a 6368     		ldr	r3, [r4, #4]
 2855 000c 013B     		subs	r3, r3, #1
 2856 000e 6360     		str	r3, [r4, #4]
 2857              		.loc 2 174 3 is_stmt 1 view .LVU840
 2858              		.loc 2 174 6 is_stmt 0 view .LVU841
 2859 0010 5BB9     		cbnz	r3, .L234
 2860              	.LBB346:
 2861              	.LBB347:
 2862              	.LBB348:
 2863              	.LBB349:
 2864              		.loc 2 118 18 view .LVU842
 2865 0012 0B4B     		ldr	r3, .L241+4
 2866 0014 1846     		mov	r0, r3
 2867 0016 01E0     		b	.L235
 2868              	.LVL255:
 2869              	.L237:
 2870              		.loc 2 122 8 view .LVU843
 2871 0018 8442     		cmp	r4, r0
 2872 001a 0BD0     		beq	.L240
 2873              	.LVL256:
 2874              	.L235:
 2875              		.loc 2 122 5 is_stmt 1 view .LVU844
 2876              		.loc 2 121 21 view .LVU845
 2877 001c 0246     		mov	r2, r0
 2878              		.loc 2 121 14 is_stmt 0 view .LVU846
 2879 001e 0068     		ldr	r0, [r0]
 2880              	.LVL257:
 2881              		.loc 2 121 21 view .LVU847
 2882 0020 9842     		cmp	r0, r3
 2883 0022 F9D1     		bne	.L237
 2884              		.loc 2 132 10 view .LVU848
 2885 0024 0020     		movs	r0, #0
 2886              	.L236:
 2887              	.LVL258:
 2888              		.loc 2 132 10 view .LVU849
 2889              	.LBE349:
 2890              	.LBE348:
 2891              		.loc 2 176 5 is_stmt 1 view .LVU850
 2892 0026 FFF7FEFF 		bl	chHeapFree
 2893              	.LVL259:
 2894              	.L234:
 2895              		.loc 2 176 5 is_stmt 0 view .LVU851
 2896              	.LBE347:
 2897              	.LBE346:
 2898              	.LBE345:
 2899              	.LBE344:
 2900              		.loc 2 823 3 is_stmt 1 view .LVU852
 2901 002a 0448     		ldr	r0, .L241
 2902              		.loc 2 824 1 is_stmt 0 view .LVU853
 2903 002c BDE81040 		pop	{r4, lr}
 2904              		.cfi_remember_state
 2905              		.cfi_restore 14
 2906              		.cfi_restore 4
 2907              		.cfi_def_cfa_offset 0
ARM GAS  C:\Users\DEVELO~1\AppData\Local\Temp\ccwdFl9J.s 			page 52


 2908              	.LVL260:
 2909              		.loc 2 823 3 view .LVU854
 2910 0030 FFF7FEBF 		b	chMtxUnlock
 2911              	.LVL261:
 2912              	.L240:
 2913              		.cfi_restore_state
 2914              	.LBB355:
 2915              	.LBB354:
 2916              	.LBB353:
 2917              	.LBB352:
 2918              	.LBB351:
 2919              	.LBB350:
 2920              		.loc 2 124 7 is_stmt 1 view .LVU855
 2921              		.loc 2 124 27 is_stmt 0 view .LVU856
 2922 0034 0368     		ldr	r3, [r0]
 2923              		.loc 2 124 18 view .LVU857
 2924 0036 1360     		str	r3, [r2]
 2925              		.loc 2 125 7 is_stmt 1 view .LVU858
 2926              		.loc 2 125 14 is_stmt 0 view .LVU859
 2927 0038 F5E7     		b	.L236
 2928              	.L242:
 2929 003a 00BF     		.align	2
 2930              	.L241:
 2931 003c 00000000 		.word	.LANCHOR0
 2932 0040 44000000 		.word	.LANCHOR0+68
 2933              	.LBE350:
 2934              	.LBE351:
 2935              	.LBE352:
 2936              	.LBE353:
 2937              	.LBE354:
 2938              	.LBE355:
 2939              		.cfi_endproc
 2940              	.LFE374:
 2941              		.size	chFactoryReleasePipe, .-chFactoryReleasePipe
 2942              		.global	ch_factory
 2943              		.section	.bss.ch_factory,"aw",%nobits
 2944              		.align	2
 2945              		.set	.LANCHOR0,. + 0
 2946              		.type	ch_factory, %object
 2947              		.size	ch_factory, 72
 2948              	ch_factory:
 2949 0000 00000000 		.space	72
 2949      00000000 
 2949      00000000 
 2949      00000000 
 2949      00000000 
 2950              		.text
 2951              	.Letext0:
 2952              		.file 5 "c:\\chibistudio\\tools\\gnu tools arm embedded\\11.3 2022.08\\lib\\gcc\\arm-none-eabi\\11
 2953              		.file 6 "c:\\chibistudio\\tools\\gnu tools arm embedded\\11.3 2022.08\\arm-none-eabi\\include\\mac
 2954              		.file 7 "c:\\chibistudio\\tools\\gnu tools arm embedded\\11.3 2022.08\\arm-none-eabi\\include\\sys
 2955              		.file 8 "../../../os/common/ports/ARM-common/chtypes.h"
 2956              		.file 9 "../../../os/rt/include/chearly.h"
 2957              		.file 10 "../../../os/rt/include/chobjects.h"
 2958              		.file 11 "../../../os/rt/include/chrfcu.h"
 2959              		.file 12 "../../../os/rt/include/chdebug.h"
 2960              		.file 13 "../../../os/rt/include/chtime.h"
ARM GAS  C:\Users\DEVELO~1\AppData\Local\Temp\ccwdFl9J.s 			page 53


 2961              		.file 14 "../../../os/rt/include/chlists.h"
 2962              		.file 15 "../../../os/rt/include/chtrace.h"
 2963              		.file 16 "../../../os/common/ports/ARMv7-M/chcore.h"
 2964              		.file 17 "../../../os/rt/include/chsem.h"
 2965              		.file 18 "../../../os/rt/include/chmtx.h"
 2966              		.file 19 "../../../os/oslib/include/chmboxes.h"
 2967              		.file 20 "../../../os/oslib/include/chmemheaps.h"
 2968              		.file 21 "../../../os/oslib/include/chpipes.h"
 2969              		.file 22 "../../../os/oslib/include/chfactory.h"
 2970              		.file 23 "c:\\chibistudio\\tools\\gnu tools arm embedded\\11.3 2022.08\\arm-none-eabi\\include\\st
 2971              		.file 24 "<built-in>"