ARM GAS  C:\Users\DEVELO~1\AppData\Local\Temp\ccgFRn8O.s 			page 1


   1              		.cpu cortex-m7
   2              		.arch armv7e-m
   3              		.fpu softvfp
   4              		.eabi_attribute 20, 1
   5              		.eabi_attribute 21, 1
   6              		.eabi_attribute 23, 3
   7              		.eabi_attribute 24, 1
   8              		.eabi_attribute 25, 1
   9              		.eabi_attribute 26, 1
  10              		.eabi_attribute 30, 2
  11              		.eabi_attribute 34, 1
  12              		.eabi_attribute 18, 4
  13              		.file	"chinstances.c"
  14              		.text
  15              	.Ltext0:
  16              		.cfi_sections	.debug_frame
  17              		.section	.text.__idle_thread,"ax",%progbits
  18              		.align	1
  19              		.p2align 4,,15
  20              		.syntax unified
  21              		.thumb
  22              		.thumb_func
  23              		.type	__idle_thread, %function
  24              	__idle_thread:
  25              	.LFB352:
  26              		.file 1 "./ChibiOS/os/rt/src/chinstances.c"
  27              		.loc 1 62 36 view -0
  28              		.cfi_startproc
  29              		@ Volatile: function does not return.
  30              		@ args = 0, pretend = 0, frame = 0
  31              		@ frame_needed = 0, uses_anonymous_args = 0
  32              		@ link register save eliminated.
  33              	.LVL0:
  34              	.L2:
  35              		.loc 1 64 3 discriminator 1 view .LVU1
  36              		.loc 1 66 3 discriminator 1 view .LVU2
  37              		.loc 1 69 5 discriminator 1 view .LVU3
  38 0000 FEE7     		b	.L2
  39              		.cfi_endproc
  40              	.LFE352:
  41              		.size	__idle_thread, .-__idle_thread
  42 0002 00BF     		.section	.rodata.chInstanceObjectInit.str1.4,"aMS",%progbits,1
  43              		.align	2
  44              	.LC0:
  45 0000 6D61696E 		.ascii	"main\000"
  45      00
  46 0005 000000   		.align	2
  47              	.LC1:
  48 0008 69646C65 		.ascii	"idle\000"
  48      00
  49              		.section	.text.chInstanceObjectInit,"ax",%progbits
  50              		.align	1
  51              		.p2align 4,,15
  52              		.global	chInstanceObjectInit
  53              		.syntax unified
  54              		.thumb
  55              		.thumb_func
ARM GAS  C:\Users\DEVELO~1\AppData\Local\Temp\ccgFRn8O.s 			page 2


  56              		.type	chInstanceObjectInit, %function
  57              	chInstanceObjectInit:
  58              	.LVL1:
  59              	.LFB353:
  60              		.loc 1 90 61 view -0
  61              		.cfi_startproc
  62              		@ args = 0, pretend = 0, frame = 32
  63              		@ frame_needed = 0, uses_anonymous_args = 0
  64              		.loc 1 91 3 view .LVU5
  65              		.loc 1 97 3 view .LVU6
  66              		.loc 1 99 3 view .LVU7
  67              		.loc 1 99 3 view .LVU8
  68              		.loc 1 99 3 view .LVU9
  69              		.loc 1 100 3 view .LVU10
  70              		.loc 1 90 61 is_stmt 0 view .LVU11
  71 0000 F0B5     		push	{r4, r5, r6, r7, lr}
  72              		.cfi_def_cfa_offset 20
  73              		.cfi_offset 4, -20
  74              		.cfi_offset 5, -16
  75              		.cfi_offset 6, -12
  76              		.cfi_offset 7, -8
  77              		.cfi_offset 14, -4
  78              		.loc 1 100 32 view .LVU12
  79 0002 2A4B     		ldr	r3, .L6
  80              		.loc 1 103 16 view .LVU13
  81 0004 0025     		movs	r5, #0
  82              		.loc 1 90 61 view .LVU14
  83 0006 0446     		mov	r4, r0
  84 0008 89B0     		sub	sp, sp, #36
  85              		.cfi_def_cfa_offset 56
  86              		.loc 1 103 16 view .LVU15
  87 000a 8563     		str	r5, [r0, #56]
  88              		.loc 1 90 61 view .LVU16
  89 000c 0E46     		mov	r6, r1
  90              		.loc 1 106 15 view .LVU17
  91 000e 0164     		str	r1, [r0, #64]
  92              	.LBB49:
  93              	.LBB50:
  94              		.file 2 "./ChibiOS/os/rt/include/chregistry.h"
  95              		.loc 2 154 3 view .LVU18
  96 0010 00F13007 		add	r7, r0, #48
  97              	.LBE50:
  98              	.LBE49:
  99              		.loc 1 100 32 view .LVU19
 100 0014 5860     		str	r0, [r3, #4]
 101              		.loc 1 103 3 is_stmt 1 view .LVU20
 102              		.loc 1 106 3 view .LVU21
 103              		.loc 1 109 3 view .LVU22
 104 0016 FFF7FEFF 		bl	port_init
 105              	.LVL2:
 106              		.loc 1 112 3 view .LVU23
 107              	.LBB57:
 108              	.LBI57:
 109              		.file 3 "./ChibiOS/os/rt/include/chlists.h"
 110              		.loc 3 396 20 view .LVU24
 111              	.LBB58:
 112              		.loc 3 398 3 view .LVU25
ARM GAS  C:\Users\DEVELO~1\AppData\Local\Temp\ccgFRn8O.s 			page 3


 113              	.LBE58:
 114              	.LBE57:
 115              		.loc 1 125 3 is_stmt 0 view .LVU26
 116 001a 04F11003 		add	r3, r4, #16
 117              	.LBB61:
 118              	.LBB59:
 119              		.loc 3 400 13 view .LVU27
 120 001e A560     		str	r5, [r4, #8]
 121              	.LBE59:
 122              	.LBE61:
 123              	.LBB62:
 124              	.LBB63:
 125              		.file 4 "./ChibiOS/os/rt/include/chrfcu.h"
 126              		.loc 4 106 15 view .LVU28
 127 0020 E563     		str	r5, [r4, #60]
 128              	.LBE63:
 129              	.LBE62:
 130              	.LBB65:
 131              	.LBB66:
 132              		.file 5 "./ChibiOS/os/rt/include/chvt.h"
 133              		.loc 5 543 18 view .LVU29
 134 0022 E561     		str	r5, [r4, #28]
 135              	.LBB67:
 136              	.LBB68:
 137              		.loc 3 505 15 view .LVU30
 138 0024 C4E90433 		strd	r3, r3, [r4, #16]
 139              		.loc 3 506 15 view .LVU31
 140 0028 4FF0FF33 		mov	r3, #-1
 141 002c A361     		str	r3, [r4, #24]
 142              	.LBE68:
 143              	.LBE67:
 144              		.loc 5 544 19 view .LVU32
 145 002e 0223     		movs	r3, #2
 146              	.LBE66:
 147              	.LBE65:
 148              	.LBB77:
 149              	.LBB55:
 150              	.LBB51:
 151              	.LBB52:
 152              		.loc 3 285 12 view .LVU33
 153 0030 C4E90C77 		strd	r7, r7, [r4, #48]
 154              	.LBE52:
 155              	.LBE51:
 156              	.LBE55:
 157              	.LBE77:
 158              	.LBB78:
 159              	.LBB74:
 160              		.loc 5 544 19 view .LVU34
 161 0034 2362     		str	r3, [r4, #32]
 162              	.LBE74:
 163              	.LBE78:
 164              	.LBB79:
 165              	.LBB60:
 166              		.loc 3 399 13 view .LVU35
 167 0036 C4E90044 		strd	r4, r4, [r4]
 168              		.loc 3 400 3 is_stmt 1 view .LVU36
 169              	.LVL3:
ARM GAS  C:\Users\DEVELO~1\AppData\Local\Temp\ccgFRn8O.s 			page 4


 170              		.loc 3 400 3 is_stmt 0 view .LVU37
 171              	.LBE60:
 172              	.LBE79:
 173              		.loc 1 116 3 is_stmt 1 view .LVU38
 174              	.LBB80:
 175              	.LBI49:
 176              		.loc 2 152 20 view .LVU39
 177              	.LBB56:
 178              		.loc 2 154 3 view .LVU40
 179              	.LBB54:
 180              	.LBI51:
 181              		.loc 3 282 20 view .LVU41
 182              	.LBB53:
 183              		.loc 3 284 3 view .LVU42
 184              		.loc 3 284 3 is_stmt 0 view .LVU43
 185              	.LBE53:
 186              	.LBE54:
 187              	.LBE56:
 188              	.LBE80:
 189              		.loc 1 121 3 is_stmt 1 view .LVU44
 190              	.LBB81:
 191              	.LBI62:
 192              		.loc 4 104 20 view .LVU45
 193              	.LBB64:
 194              		.loc 4 106 3 view .LVU46
 195              		.loc 4 106 3 is_stmt 0 view .LVU47
 196              	.LBE64:
 197              	.LBE81:
 198              		.loc 1 125 3 is_stmt 1 view .LVU48
 199              	.LBB82:
 200              	.LBI65:
 201              		.loc 5 537 20 view .LVU49
 202              	.LBB75:
 203              		.loc 5 539 3 view .LVU50
 204              	.LBB70:
 205              	.LBI67:
 206              		.loc 3 502 20 view .LVU51
 207              	.LBB69:
 208              		.loc 3 504 3 view .LVU52
 209              		.loc 3 506 3 view .LVU53
 210              	.LBE69:
 211              	.LBE70:
 212              		.loc 5 543 3 view .LVU54
 213              		.loc 5 544 3 view .LVU55
 214              		.loc 5 547 3 view .LVU56
 215              	.LBB71:
 216              	.LBI71:
 217              		.loc 5 135 25 view .LVU57
 218              		.loc 5 140 3 view .LVU58
 219              	.LBB72:
 220              	.LBI72:
 221              		.file 6 "./ChibiOS/os/hal/osal/rt-nil/chcore_timer.h"
 222              		.loc 6 111 25 view .LVU59
 223              	.LBB73:
 224              		.loc 6 113 3 view .LVU60
 225              		.loc 6 113 10 is_stmt 0 view .LVU61
 226 003a FFF7FEFF 		bl	stGetCounter
ARM GAS  C:\Users\DEVELO~1\AppData\Local\Temp\ccgFRn8O.s 			page 5


 227              	.LVL4:
 228 003e 0146     		mov	r1, r0
 229              	.LBE73:
 230              	.LBE72:
 231              	.LBE71:
 232              		.loc 5 547 21 view .LVU62
 233 0040 2B46     		mov	r3, r5
 234              	.LBE75:
 235              	.LBE82:
 236              		.loc 1 132 3 view .LVU63
 237 0042 04F1E800 		add	r0, r4, #232
 238              	.LBB83:
 239              	.LBB76:
 240              		.loc 5 547 21 view .LVU64
 241 0046 0A46     		mov	r2, r1
 242              		.loc 5 547 19 view .LVU65
 243 0048 C4E90A23 		strd	r2, [r4, #40]
 244              	.LBE76:
 245              	.LBE83:
 246              		.loc 1 128 3 is_stmt 1 view .LVU66
 247              	.LVL5:
 248              	.LBB84:
 249              	.LBI84:
 250              		.file 7 "./ChibiOS/os/rt/include/chdebug.h"
 251              		.loc 7 192 20 view .LVU67
 252              	.LBB85:
 253              		.loc 7 194 3 view .LVU68
 254              		.loc 7 194 18 is_stmt 0 view .LVU69
 255 004c C4F8E450 		str	r5, [r4, #228]
 256              	.LVL6:
 257              		.loc 7 194 18 view .LVU70
 258              	.LBE85:
 259              	.LBE84:
 260              		.loc 1 132 3 is_stmt 1 view .LVU71
 261 0050 FFF7FEFF 		bl	__trace_object_init
 262              	.LVL7:
 263              	.LBB86:
 264              		.loc 1 144 5 view .LVU72
 265              		.loc 1 144 11 is_stmt 0 view .LVU73
 266 0054 7368     		ldr	r3, [r6, #4]
 267              		.loc 1 149 26 view .LVU74
 268 0056 01A9     		add	r1, sp, #4
 269 0058 04F19400 		add	r0, r4, #148
 270              		.loc 1 144 11 view .LVU75
 271 005c 0293     		str	r3, [sp, #8]
 272 005e B368     		ldr	r3, [r6, #8]
 273 0060 0794     		str	r4, [sp, #28]
 274              		.loc 1 149 5 is_stmt 1 view .LVU76
 275              		.loc 1 144 11 is_stmt 0 view .LVU77
 276 0062 0393     		str	r3, [sp, #12]
 277 0064 124B     		ldr	r3, .L6+4
 278 0066 0193     		str	r3, [sp, #4]
 279 0068 8023     		movs	r3, #128
 280 006a CDE90555 		strd	r5, r5, [sp, #20]
 281 006e 0493     		str	r3, [sp, #16]
 282              		.loc 1 149 26 view .LVU78
 283 0070 FFF7FEFF 		bl	chThdObjectInit
ARM GAS  C:\Users\DEVELO~1\AppData\Local\Temp\ccgFRn8O.s 			page 6


 284              	.LVL8:
 285              	.LBE86:
 286              	.LBB87:
 287              	.LBB88:
 288              		.loc 3 325 21 view .LVU79
 289 0074 626B     		ldr	r2, [r4, #52]
 290              	.LBE88:
 291              	.LBE87:
 292              		.loc 1 161 3 view .LVU80
 293 0076 00F12403 		add	r3, r0, #36
 294              	.LBB91:
 295              		.loc 1 149 24 view .LVU81
 296 007a E060     		str	r0, [r4, #12]
 297              	.LBE91:
 298              		.loc 1 161 3 is_stmt 1 view .LVU82
 299              	.LVL9:
 300              	.LBB92:
 301              	.LBI87:
 302              		.loc 3 322 20 view .LVU83
 303              	.LBB89:
 304              		.loc 3 324 3 view .LVU84
 305              		.loc 3 325 3 view .LVU85
 306              		.loc 3 326 3 view .LVU86
 307              	.LBE89:
 308              	.LBE92:
 309              	.LBB93:
 310              		.loc 1 190 12 is_stmt 0 view .LVU87
 311 007c 01A9     		add	r1, sp, #4
 312              	.LBE93:
 313              	.LBB94:
 314              	.LBB90:
 315              		.loc 3 324 17 view .LVU88
 316 007e 4762     		str	r7, [r0, #36]
 317              		.loc 3 325 17 view .LVU89
 318 0080 8262     		str	r2, [r0, #40]
 319              		.loc 3 326 17 view .LVU90
 320 0082 1360     		str	r3, [r2]
 321              		.loc 3 327 3 is_stmt 1 view .LVU91
 322              		.loc 3 327 17 is_stmt 0 view .LVU92
 323 0084 6363     		str	r3, [r4, #52]
 324              	.LVL10:
 325              		.loc 3 327 17 view .LVU93
 326              	.LBE90:
 327              	.LBE94:
 328              		.loc 1 165 3 is_stmt 1 view .LVU94
 329              		.loc 1 165 29 is_stmt 0 view .LVU95
 330 0086 0123     		movs	r3, #1
 331 0088 0377     		strb	r3, [r0, #28]
 332              		.loc 1 173 3 is_stmt 1 view .LVU96
 333              		.loc 1 173 36 view .LVU97
 334              	.LBB95:
 335              		.loc 1 177 5 view .LVU98
 336              		.loc 1 190 12 is_stmt 0 view .LVU99
 337 008a 04F14400 		add	r0, r4, #68
 338              		.loc 1 177 11 view .LVU100
 339 008e 0493     		str	r3, [sp, #16]
 340 0090 084B     		ldr	r3, .L6+8
ARM GAS  C:\Users\DEVELO~1\AppData\Local\Temp\ccgFRn8O.s 			page 7


 341 0092 0794     		str	r4, [sp, #28]
 342              		.loc 1 190 5 is_stmt 1 view .LVU101
 343              		.loc 1 177 11 is_stmt 0 view .LVU102
 344 0094 0593     		str	r3, [sp, #20]
 345 0096 084C     		ldr	r4, .L6+12
 346              	.LVL11:
 347              		.loc 1 177 11 view .LVU103
 348 0098 0695     		str	r5, [sp, #24]
 349 009a D6E90323 		ldrd	r2, r3, [r6, #12]
 350 009e CDE90142 		strd	r4, r2, [sp, #4]
 351 00a2 0393     		str	r3, [sp, #12]
 352              		.loc 1 190 12 view .LVU104
 353 00a4 FFF7FEFF 		bl	chThdSpawnRunningI
 354              	.LVL12:
 355              		.loc 1 190 12 view .LVU105
 356              	.LBE95:
 357              		.loc 1 193 1 view .LVU106
 358 00a8 09B0     		add	sp, sp, #36
 359              		.cfi_def_cfa_offset 20
 360              		@ sp needed
 361 00aa F0BD     		pop	{r4, r5, r6, r7, pc}
 362              	.LVL13:
 363              	.L7:
 364              		.loc 1 193 1 view .LVU107
 365              		.align	2
 366              	.L6:
 367 00ac 00000000 		.word	ch_system
 368 00b0 00000000 		.word	.LC0
 369 00b4 00000000 		.word	__idle_thread
 370 00b8 08000000 		.word	.LC1
 371              		.cfi_endproc
 372              	.LFE353:
 373              		.size	chInstanceObjectInit, .-chInstanceObjectInit
 374              		.text
 375              	.Letext0:
 376              		.file 8 "c:\\chibistudio\\tools\\gnu tools arm embedded\\11.3 2022.08\\arm-none-eabi\\include\\mac
 377              		.file 9 "c:\\chibistudio\\tools\\gnu tools arm embedded\\11.3 2022.08\\arm-none-eabi\\include\\sys
 378              		.file 10 "./ChibiOS/os/common/ports/ARM-common/include/chtypes.h"
 379              		.file 11 "./ChibiOS/os/rt/include/chearly.h"
 380              		.file 12 "./ChibiOS/os/rt/include/chobjects.h"
 381              		.file 13 "./ChibiOS/os/rt/include/chtime.h"
 382              		.file 14 "./ChibiOS/os/rt/include/chtrace.h"
 383              		.file 15 "./ChibiOS/os/common/ports/ARMv7-M/chcore.h"
 384              		.file 16 "./ChibiOS/os/rt/include/chtm.h"
 385              		.file 17 "./ChibiOS/os/rt/include/chsem.h"
 386              		.file 18 "./ChibiOS/os/rt/include/chmtx.h"
 387              		.file 19 "./ChibiOS/os/rt/include/chthreads.h"
 388              		.file 20 "./ChibiOS/os/rt/include/chsys.h"