ARM GAS  C:\Users\DEVELO~1\AppData\Local\Temp\ccpGChTz.s 			page 1


   1              		.cpu cortex-m7
   2              		.arch armv7e-m
   3              		.fpu softvfp
   4              		.eabi_attribute 20, 1
   5              		.eabi_attribute 21, 1
   6              		.eabi_attribute 23, 3
   7              		.eabi_attribute 24, 1
   8              		.eabi_attribute 25, 1
   9              		.eabi_attribute 26, 1
  10              		.eabi_attribute 30, 2
  11              		.eabi_attribute 34, 1
  12              		.eabi_attribute 18, 4
  13              		.file	"chinstances.c"
  14              		.text
  15              	.Ltext0:
  16              		.cfi_sections	.debug_frame
  17              		.section	.text.__idle_thread,"ax",%progbits
  18              		.align	1
  19              		.p2align 4,,15
  20              		.syntax unified
  21              		.thumb
  22              		.thumb_func
  23              		.type	__idle_thread, %function
  24              	__idle_thread:
  25              	.LFB346:
  26              		.file 1 "../../../os/rt/src/chinstances.c"
  27              		.loc 1 62 36 view -0
  28              		.cfi_startproc
  29              		@ Volatile: function does not return.
  30              		@ args = 0, pretend = 0, frame = 0
  31              		@ frame_needed = 0, uses_anonymous_args = 0
  32              		@ link register save eliminated.
  33              	.LVL0:
  34              	.L2:
  35              		.loc 1 64 3 discriminator 1 view .LVU1
  36              		.loc 1 66 3 discriminator 1 view .LVU2
  37              		.loc 1 69 5 discriminator 1 view .LVU3
  38 0000 FEE7     		b	.L2
  39              		.cfi_endproc
  40              	.LFE346:
  41              		.size	__idle_thread, .-__idle_thread
  42 0002 00BF     		.section	.rodata.chInstanceObjectInit.str1.4,"aMS",%progbits,1
  43              		.align	2
  44              	.LC0:
  45 0000 69646C65 		.ascii	"idle\000"
  45      00
  46              		.section	.text.chInstanceObjectInit,"ax",%progbits
  47              		.align	1
  48              		.p2align 4,,15
  49              		.global	chInstanceObjectInit
  50              		.syntax unified
  51              		.thumb
  52              		.thumb_func
  53              		.type	chInstanceObjectInit, %function
  54              	chInstanceObjectInit:
  55              	.LVL1:
  56              	.LFB347:
ARM GAS  C:\Users\DEVELO~1\AppData\Local\Temp\ccpGChTz.s 			page 2


  57              		.loc 1 90 61 view -0
  58              		.cfi_startproc
  59              		@ args = 0, pretend = 0, frame = 24
  60              		@ frame_needed = 0, uses_anonymous_args = 0
  61              		.loc 1 91 3 view .LVU5
  62              		.loc 1 97 3 view .LVU6
  63              		.loc 1 99 3 view .LVU7
  64              		.loc 1 99 3 view .LVU8
  65              		.loc 1 99 3 view .LVU9
  66              		.loc 1 100 3 view .LVU10
  67              		.loc 1 90 61 is_stmt 0 view .LVU11
  68 0000 70B5     		push	{r4, r5, r6, lr}
  69              		.cfi_def_cfa_offset 16
  70              		.cfi_offset 4, -16
  71              		.cfi_offset 5, -12
  72              		.cfi_offset 6, -8
  73              		.cfi_offset 14, -4
  74              		.loc 1 100 32 view .LVU12
  75 0002 214B     		ldr	r3, .L6
  76              		.loc 1 103 16 view .LVU13
  77 0004 0025     		movs	r5, #0
  78              		.loc 1 90 61 view .LVU14
  79 0006 0446     		mov	r4, r0
  80 0008 86B0     		sub	sp, sp, #24
  81              		.cfi_def_cfa_offset 40
  82              		.loc 1 106 15 view .LVU15
  83 000a 8163     		str	r1, [r0, #56]
  84              		.loc 1 90 61 view .LVU16
  85 000c 0E46     		mov	r6, r1
  86              		.loc 1 103 16 view .LVU17
  87 000e 0563     		str	r5, [r0, #48]
  88              		.loc 1 100 32 view .LVU18
  89 0010 5860     		str	r0, [r3, #4]
  90              		.loc 1 103 3 is_stmt 1 view .LVU19
  91              		.loc 1 106 3 view .LVU20
  92              		.loc 1 109 3 view .LVU21
  93 0012 FFF7FEFF 		bl	port_init
  94              	.LVL2:
  95              		.loc 1 112 3 view .LVU22
  96              	.LBB32:
  97              	.LBI32:
  98              		.file 2 "../../../os/rt/include/chlists.h"
  99              		.loc 2 336 20 view .LVU23
 100              	.LBB33:
 101              		.loc 2 338 3 view .LVU24
 102              	.LBE33:
 103              	.LBE32:
 104              	.LBB36:
 105              	.LBB37:
 106              		.file 3 "../../../os/rt/include/chvt.h"
 107              		.loc 3 511 3 is_stmt 0 view .LVU25
 108 0016 04F11003 		add	r3, r4, #16
 109              	.LBE37:
 110              	.LBE36:
 111              	.LBB51:
 112              	.LBB52:
 113              		.file 4 "../../../os/rt/include/chregistry.h"
ARM GAS  C:\Users\DEVELO~1\AppData\Local\Temp\ccpGChTz.s 			page 3


 114              		.loc 4 153 3 view .LVU26
 115 001a 04F12802 		add	r2, r4, #40
 116              	.LBE52:
 117              	.LBE51:
 118              	.LBB59:
 119              	.LBB34:
 120              		.loc 2 340 13 view .LVU27
 121 001e A560     		str	r5, [r4, #8]
 122              	.LBE34:
 123              	.LBE59:
 124              	.LBB60:
 125              	.LBB61:
 126              		.file 5 "../../../os/rt/include/chrfcu.h"
 127              		.loc 5 106 15 view .LVU28
 128 0020 6563     		str	r5, [r4, #52]
 129              	.LBE61:
 130              	.LBE60:
 131              	.LBB63:
 132              	.LBB47:
 133              	.LBB38:
 134              	.LBB39:
 135              		.loc 2 429 15 view .LVU29
 136 0022 C4E90433 		strd	r3, r3, [r4, #16]
 137              		.loc 2 430 15 view .LVU30
 138 0026 4FF0FF33 		mov	r3, #-1
 139              	.LBE39:
 140              	.LBE38:
 141              	.LBE47:
 142              	.LBE63:
 143              	.LBB64:
 144              	.LBB57:
 145              	.LBB53:
 146              	.LBB54:
 147              		.loc 2 225 12 view .LVU31
 148 002a C4E90A22 		strd	r2, r2, [r4, #40]
 149              	.LBE54:
 150              	.LBE53:
 151              	.LBE57:
 152              	.LBE64:
 153              	.LBB65:
 154              	.LBB48:
 155              	.LBB42:
 156              	.LBB40:
 157              		.loc 2 430 15 view .LVU32
 158 002e C4E90635 		strd	r3, r5, [r4, #24]
 159              	.LBE40:
 160              	.LBE42:
 161              	.LBE48:
 162              	.LBE65:
 163              	.LBB66:
 164              	.LBB35:
 165              		.loc 2 339 13 view .LVU33
 166 0032 C4E90044 		strd	r4, r4, [r4]
 167              		.loc 2 340 3 is_stmt 1 view .LVU34
 168              	.LVL3:
 169              		.loc 2 340 3 is_stmt 0 view .LVU35
 170              	.LBE35:
ARM GAS  C:\Users\DEVELO~1\AppData\Local\Temp\ccpGChTz.s 			page 4


 171              	.LBE66:
 172              		.loc 1 116 3 is_stmt 1 view .LVU36
 173              	.LBB67:
 174              	.LBI51:
 175              		.loc 4 151 20 view .LVU37
 176              	.LBB58:
 177              		.loc 4 153 3 view .LVU38
 178              	.LBB56:
 179              	.LBI53:
 180              		.loc 2 222 20 view .LVU39
 181              	.LBB55:
 182              		.loc 2 224 3 view .LVU40
 183              		.loc 2 224 3 is_stmt 0 view .LVU41
 184              	.LBE55:
 185              	.LBE56:
 186              	.LBE58:
 187              	.LBE67:
 188              		.loc 1 121 3 is_stmt 1 view .LVU42
 189              	.LBB68:
 190              	.LBI60:
 191              		.loc 5 104 20 view .LVU43
 192              	.LBB62:
 193              		.loc 5 106 3 view .LVU44
 194              		.loc 5 106 3 is_stmt 0 view .LVU45
 195              	.LBE62:
 196              	.LBE68:
 197              		.loc 1 125 3 is_stmt 1 view .LVU46
 198              	.LBB69:
 199              	.LBI36:
 200              		.loc 3 509 20 view .LVU47
 201              	.LBB49:
 202              		.loc 3 511 3 view .LVU48
 203              	.LBB43:
 204              	.LBI38:
 205              		.loc 2 426 20 view .LVU49
 206              	.LBB41:
 207              		.loc 2 428 3 view .LVU50
 208              		.loc 2 430 3 view .LVU51
 209              	.LBE41:
 210              	.LBE43:
 211              		.loc 3 515 3 view .LVU52
 212              		.loc 3 518 3 view .LVU53
 213              	.LBB44:
 214              	.LBI44:
 215              		.loc 3 122 25 view .LVU54
 216              		.loc 3 127 3 view .LVU55
 217              	.LBB45:
 218              	.LBI45:
 219              		.file 6 "../../../os/hal/osal/rt-nil/chcore_timer.h"
 220              		.loc 6 111 25 view .LVU56
 221              	.LBB46:
 222              		.loc 6 113 3 view .LVU57
 223              		.loc 6 113 10 is_stmt 0 view .LVU58
 224 0036 FFF7FEFF 		bl	stGetCounter
 225              	.LVL4:
 226              		.loc 6 113 10 view .LVU59
 227              	.LBE46:
ARM GAS  C:\Users\DEVELO~1\AppData\Local\Temp\ccpGChTz.s 			page 5


 228              	.LBE45:
 229              	.LBE44:
 230              		.loc 3 518 21 view .LVU60
 231 003a 2B46     		mov	r3, r5
 232 003c 0246     		mov	r2, r0
 233              	.LBE49:
 234              	.LBE69:
 235              		.loc 1 132 3 view .LVU61
 236 003e 04F18800 		add	r0, r4, #136
 237              	.LBB70:
 238              	.LBB50:
 239              		.loc 3 518 19 view .LVU62
 240 0042 C4E90823 		strd	r2, [r4, #32]
 241              	.LVL5:
 242              		.loc 3 518 19 view .LVU63
 243              	.LBE50:
 244              	.LBE70:
 245              		.loc 1 128 3 is_stmt 1 view .LVU64
 246              	.LBB71:
 247              	.LBI71:
 248              		.file 7 "../../../os/rt/include/chdebug.h"
 249              		.loc 7 192 20 view .LVU65
 250              	.LBB72:
 251              		.loc 7 194 3 view .LVU66
 252              		.loc 7 194 18 is_stmt 0 view .LVU67
 253 0046 C4F88450 		str	r5, [r4, #132]
 254              	.LVL6:
 255              		.loc 7 194 18 view .LVU68
 256              	.LBE72:
 257              	.LBE71:
 258              		.loc 1 132 3 is_stmt 1 view .LVU69
 259 004a FFF7FEFF 		bl	__trace_object_init
 260              	.LVL7:
 261              		.loc 1 143 3 view .LVU70
 262              		.loc 1 143 24 is_stmt 0 view .LVU71
 263 004e 04F13C01 		add	r1, r4, #60
 264 0052 8023     		movs	r3, #128
 265 0054 0D4A     		ldr	r2, .L6+4
 266 0056 2046     		mov	r0, r4
 267 0058 FFF7FEFF 		bl	__thd_object_init
 268              	.LVL8:
 269              		.loc 1 160 29 view .LVU72
 270 005c 0122     		movs	r2, #1
 271              		.loc 1 143 24 view .LVU73
 272 005e 0346     		mov	r3, r0
 273              		.loc 1 156 30 view .LVU74
 274 0060 7168     		ldr	r1, [r6, #4]
 275              	.LBB73:
 276              		.loc 1 167 25 view .LVU75
 277 0062 0392     		str	r2, [sp, #12]
 278              		.loc 1 184 12 view .LVU76
 279 0064 6846     		mov	r0, sp
 280              	.LBE73:
 281              		.loc 1 143 22 view .LVU77
 282 0066 E360     		str	r3, [r4, #12]
 283              		.loc 1 156 3 is_stmt 1 view .LVU78
 284              		.loc 1 160 29 is_stmt 0 view .LVU79
ARM GAS  C:\Users\DEVELO~1\AppData\Local\Temp\ccpGChTz.s 			page 6


 285 0068 83F82420 		strb	r2, [r3, #36]
 286              	.LBB74:
 287              		.loc 1 167 25 view .LVU80
 288 006c 084A     		ldr	r2, .L6+8
 289              	.LBE74:
 290              		.loc 1 156 30 view .LVU81
 291 006e 1962     		str	r1, [r3, #32]
 292              		.loc 1 160 3 is_stmt 1 view .LVU82
 293              		.loc 1 163 3 view .LVU83
 294              		.loc 1 163 36 view .LVU84
 295              	.LBB75:
 296              		.loc 1 167 5 view .LVU85
 297              		.loc 1 184 5 view .LVU86
 298              		.loc 1 167 25 is_stmt 0 view .LVU87
 299 0070 0092     		str	r2, [sp]
 300 0072 084B     		ldr	r3, .L6+12
 301 0074 0595     		str	r5, [sp, #20]
 302 0076 0493     		str	r3, [sp, #16]
 303 0078 D6E90312 		ldrd	r1, r2, [r6, #12]
 304 007c CDE90112 		strd	r1, r2, [sp, #4]
 305              		.loc 1 184 12 view .LVU88
 306 0080 FFF7FEFF 		bl	chThdCreateI
 307              	.LVL9:
 308              	.LBE75:
 309              		.loc 1 187 1 view .LVU89
 310 0084 06B0     		add	sp, sp, #24
 311              		.cfi_def_cfa_offset 16
 312              		@ sp needed
 313 0086 70BD     		pop	{r4, r5, r6, pc}
 314              	.LVL10:
 315              	.L7:
 316              		.loc 1 187 1 view .LVU90
 317              		.align	2
 318              	.L6:
 319 0088 00000000 		.word	ch_system
 320 008c 00000000 		.word	ch_debug
 321 0090 00000000 		.word	.LC0
 322 0094 00000000 		.word	__idle_thread
 323              		.cfi_endproc
 324              	.LFE347:
 325              		.size	chInstanceObjectInit, .-chInstanceObjectInit
 326              		.text
 327              	.Letext0:
 328              		.file 8 "c:\\chibistudio\\tools\\gnu tools arm embedded\\11.3 2022.08\\arm-none-eabi\\include\\mac
 329              		.file 9 "c:\\chibistudio\\tools\\gnu tools arm embedded\\11.3 2022.08\\arm-none-eabi\\include\\sys
 330              		.file 10 "../../../os/common/ports/ARM-common/chtypes.h"
 331              		.file 11 "../../../os/rt/include/chearly.h"
 332              		.file 12 "../../../os/rt/include/chobjects.h"
 333              		.file 13 "../../../os/rt/include/chtime.h"
 334              		.file 14 "../../../os/rt/include/chtrace.h"
 335              		.file 15 "../../../os/common/ports/ARMv7-M/chcore.h"
 336              		.file 16 "../../../os/rt/include/chtm.h"
 337              		.file 17 "../../../os/rt/include/chsem.h"
 338              		.file 18 "../../../os/rt/include/chmtx.h"
 339              		.file 19 "../../../os/rt/include/chthreads.h"
 340              		.file 20 "../../../os/rt/include/chsys.h"
 341              		.section	.debug_info,"",%progbits
ARM GAS  C:\Users\DEVELO~1\AppData\Local\Temp\ccpGChTz.s 			page 7


 342              	.Ldebug_info0:
 343 0000 920F0000 		.4byte	0xf92
 344 0004 0500     		.2byte	0x5
 345 0006 01       		.byte	0x1
 346 0007 04       		.byte	0x4
 347 0008 00000000 		.4byte	.Ldebug_abbrev0
 348 000c 23       		.uleb128 0x23
 349 000d 8C030000 		.4byte	.LASF194
 350 0011 1D       		.byte	0x1d
 351 0012 8C070000 		.4byte	.LASF195
 352 0016 27020000 		.4byte	.LASF196
 353 001a 75000000 		.4byte	.LLRL16
 354 001e 00000000 		.4byte	0
 355 0022 00000000 		.4byte	.Ldebug_line0
 356 0026 24       		.uleb128 0x24
 357 0027 04       		.byte	0x4
 358 0028 05       		.byte	0x5
 359 0029 696E7400 		.ascii	"int\000"
 360 002d 05       		.uleb128 0x5
 361 002e 04       		.byte	0x4
 362 002f 07       		.byte	0x7
 363 0030 0B030000 		.4byte	.LASF0
 364 0034 05       		.uleb128 0x5
 365 0035 08       		.byte	0x8
 366 0036 05       		.byte	0x5
 367 0037 23010000 		.4byte	.LASF1
 368 003b 05       		.uleb128 0x5
 369 003c 08       		.byte	0x8
 370 003d 04       		.byte	0x4
 371 003e 80070000 		.4byte	.LASF2
 372 0042 05       		.uleb128 0x5
 373 0043 01       		.byte	0x1
 374 0044 06       		.byte	0x6
 375 0045 31010000 		.4byte	.LASF3
 376 0049 02       		.uleb128 0x2
 377 004a 5F000000 		.4byte	.LASF6
 378 004e 08       		.byte	0x8
 379 004f 2B       		.byte	0x2b
 380 0050 18       		.byte	0x18
 381 0051 55000000 		.4byte	0x55
 382 0055 05       		.uleb128 0x5
 383 0056 01       		.byte	0x1
 384 0057 08       		.byte	0x8
 385 0058 94060000 		.4byte	.LASF4
 386 005c 05       		.uleb128 0x5
 387 005d 02       		.byte	0x2
 388 005e 05       		.byte	0x5
 389 005f D1060000 		.4byte	.LASF5
 390 0063 02       		.uleb128 0x2
 391 0064 EB070000 		.4byte	.LASF7
 392 0068 08       		.byte	0x8
 393 0069 39       		.byte	0x39
 394 006a 19       		.byte	0x19
 395 006b 6F000000 		.4byte	0x6f
 396 006f 05       		.uleb128 0x5
 397 0070 02       		.byte	0x2
 398 0071 07       		.byte	0x7
ARM GAS  C:\Users\DEVELO~1\AppData\Local\Temp\ccpGChTz.s 			page 8


 399 0072 73080000 		.4byte	.LASF8
 400 0076 02       		.uleb128 0x2
 401 0077 E4040000 		.4byte	.LASF9
 402 007b 08       		.byte	0x8
 403 007c 4D       		.byte	0x4d
 404 007d 18       		.byte	0x18
 405 007e 82000000 		.4byte	0x82
 406 0082 05       		.uleb128 0x5
 407 0083 04       		.byte	0x4
 408 0084 05       		.byte	0x5
 409 0085 9A000000 		.4byte	.LASF10
 410 0089 02       		.uleb128 0x2
 411 008a 94020000 		.4byte	.LASF11
 412 008e 08       		.byte	0x8
 413 008f 4F       		.byte	0x4f
 414 0090 19       		.byte	0x19
 415 0091 95000000 		.4byte	0x95
 416 0095 05       		.uleb128 0x5
 417 0096 04       		.byte	0x4
 418 0097 07       		.byte	0x7
 419 0098 6A030000 		.4byte	.LASF12
 420 009c 02       		.uleb128 0x2
 421 009d 30060000 		.4byte	.LASF13
 422 00a1 08       		.byte	0x8
 423 00a2 69       		.byte	0x69
 424 00a3 19       		.byte	0x19
 425 00a4 A8000000 		.4byte	0xa8
 426 00a8 05       		.uleb128 0x5
 427 00a9 08       		.byte	0x8
 428 00aa 07       		.byte	0x7
 429 00ab EE040000 		.4byte	.LASF14
 430 00af 02       		.uleb128 0x2
 431 00b0 48090000 		.4byte	.LASF15
 432 00b4 09       		.byte	0x9
 433 00b5 18       		.byte	0x18
 434 00b6 13       		.byte	0x13
 435 00b7 49000000 		.4byte	0x49
 436 00bb 02       		.uleb128 0x2
 437 00bc C6010000 		.4byte	.LASF16
 438 00c0 09       		.byte	0x9
 439 00c1 24       		.byte	0x24
 440 00c2 14       		.byte	0x14
 441 00c3 63000000 		.4byte	0x63
 442 00c7 02       		.uleb128 0x2
 443 00c8 8C060000 		.4byte	.LASF17
 444 00cc 09       		.byte	0x9
 445 00cd 2C       		.byte	0x2c
 446 00ce 13       		.byte	0x13
 447 00cf 76000000 		.4byte	0x76
 448 00d3 02       		.uleb128 0x2
 449 00d4 47070000 		.4byte	.LASF18
 450 00d8 09       		.byte	0x9
 451 00d9 30       		.byte	0x30
 452 00da 14       		.byte	0x14
 453 00db 89000000 		.4byte	0x89
 454 00df 02       		.uleb128 0x2
 455 00e0 B5050000 		.4byte	.LASF19
ARM GAS  C:\Users\DEVELO~1\AppData\Local\Temp\ccpGChTz.s 			page 9


 456 00e4 09       		.byte	0x9
 457 00e5 3C       		.byte	0x3c
 458 00e6 14       		.byte	0x14
 459 00e7 9C000000 		.4byte	0x9c
 460 00eb 1C       		.uleb128 0x1c
 461 00ec DF000000 		.4byte	0xdf
 462 00f0 02       		.uleb128 0x2
 463 00f1 A8050000 		.4byte	.LASF20
 464 00f5 0A       		.byte	0xa
 465 00f6 36       		.byte	0x36
 466 00f7 1D       		.byte	0x1d
 467 00f8 D3000000 		.4byte	0xd3
 468 00fc 02       		.uleb128 0x2
 469 00fd 57070000 		.4byte	.LASF21
 470 0101 0A       		.byte	0xa
 471 0102 48       		.byte	0x48
 472 0103 1D       		.byte	0x1d
 473 0104 DF000000 		.4byte	0xdf
 474 0108 02       		.uleb128 0x2
 475 0109 55050000 		.4byte	.LASF22
 476 010d 0B       		.byte	0xb
 477 010e 4D       		.byte	0x4d
 478 010f 19       		.byte	0x19
 479 0110 F0000000 		.4byte	0xf0
 480 0114 02       		.uleb128 0x2
 481 0115 1B050000 		.4byte	.LASF23
 482 0119 0B       		.byte	0xb
 483 011a 50       		.byte	0x50
 484 011b 19       		.byte	0x19
 485 011c FC000000 		.4byte	0xfc
 486 0120 02       		.uleb128 0x2
 487 0121 B1040000 		.4byte	.LASF24
 488 0125 0B       		.byte	0xb
 489 0126 53       		.byte	0x53
 490 0127 19       		.byte	0x19
 491 0128 AF000000 		.4byte	0xaf
 492 012c 02       		.uleb128 0x2
 493 012d 86010000 		.4byte	.LASF25
 494 0131 0B       		.byte	0xb
 495 0132 54       		.byte	0x54
 496 0133 19       		.byte	0x19
 497 0134 AF000000 		.4byte	0xaf
 498 0138 02       		.uleb128 0x2
 499 0139 4B060000 		.4byte	.LASF26
 500 013d 0B       		.byte	0xb
 501 013e 55       		.byte	0x55
 502 013f 19       		.byte	0x19
 503 0140 AF000000 		.4byte	0xaf
 504 0144 02       		.uleb128 0x2
 505 0145 5D060000 		.4byte	.LASF27
 506 0149 0B       		.byte	0xb
 507 014a 57       		.byte	0x57
 508 014b 19       		.byte	0x19
 509 014c D3000000 		.4byte	0xd3
 510 0150 02       		.uleb128 0x2
 511 0151 7E040000 		.4byte	.LASF28
 512 0155 0B       		.byte	0xb
ARM GAS  C:\Users\DEVELO~1\AppData\Local\Temp\ccpGChTz.s 			page 10


 513 0156 58       		.byte	0x58
 514 0157 19       		.byte	0x19
 515 0158 C7000000 		.4byte	0xc7
 516 015c 02       		.uleb128 0x2
 517 015d CF040000 		.4byte	.LASF29
 518 0161 0B       		.byte	0xb
 519 0162 5A       		.byte	0x5a
 520 0163 19       		.byte	0x19
 521 0164 D3000000 		.4byte	0xd3
 522 0168 02       		.uleb128 0x2
 523 0169 FC020000 		.4byte	.LASF30
 524 016d 0B       		.byte	0xb
 525 016e 5C       		.byte	0x5c
 526 016f 19       		.byte	0x19
 527 0170 C7000000 		.4byte	0xc7
 528 0174 02       		.uleb128 0x2
 529 0175 41060000 		.4byte	.LASF31
 530 0179 0B       		.byte	0xb
 531 017a 80       		.byte	0x80
 532 017b 12       		.byte	0x12
 533 017c 2D000000 		.4byte	0x2d
 534 0180 02       		.uleb128 0x2
 535 0181 F6070000 		.4byte	.LASF32
 536 0185 0B       		.byte	0xb
 537 0186 85       		.byte	0x85
 538 0187 1A       		.byte	0x1a
 539 0188 8C010000 		.4byte	0x18c
 540 018c 07       		.uleb128 0x7
 541 018d 74040000 		.4byte	.LASF47
 542 0191 48       		.byte	0x48
 543 0192 0C       		.byte	0xc
 544 0193 9C       		.byte	0x9c
 545 0194 08       		.byte	0x8
 546 0195 69020000 		.4byte	0x269
 547 0199 08       		.uleb128 0x8
 548 019a 68647200 		.ascii	"hdr\000"
 549 019e 0C       		.byte	0xc
 550 019f AD       		.byte	0xad
 551 01a0 05       		.byte	0x5
 552 01a1 8F070000 		.4byte	0x78f
 553 01a5 00       		.byte	0
 554 01a6 08       		.uleb128 0x8
 555 01a7 63747800 		.ascii	"ctx\000"
 556 01ab 0C       		.byte	0xc
 557 01ac B1       		.byte	0xb1
 558 01ad 21       		.byte	0x21
 559 01ae A4060000 		.4byte	0x6a4
 560 01b2 0C       		.byte	0xc
 561 01b3 01       		.uleb128 0x1
 562 01b4 7C030000 		.4byte	.LASF33
 563 01b8 0C       		.byte	0xc
 564 01b9 B6       		.byte	0xb6
 565 01ba 21       		.byte	0x21
 566 01bb BB030000 		.4byte	0x3bb
 567 01bf 10       		.byte	0x10
 568 01c0 01       		.uleb128 0x1
 569 01c1 6C070000 		.4byte	.LASF34
ARM GAS  C:\Users\DEVELO~1\AppData\Local\Temp\ccpGChTz.s 			page 11


 570 01c5 0C       		.byte	0xc
 571 01c6 BB       		.byte	0xbb
 572 01c7 22       		.byte	0x22
 573 01c8 91080000 		.4byte	0x891
 574 01cc 18       		.byte	0x18
 575 01cd 01       		.uleb128 0x1
 576 01ce 41040000 		.4byte	.LASF35
 577 01d2 0C       		.byte	0xc
 578 01d3 C0       		.byte	0xc0
 579 01d4 22       		.byte	0x22
 580 01d5 49030000 		.4byte	0x349
 581 01d9 1C       		.byte	0x1c
 582 01da 01       		.uleb128 0x1
 583 01db CF010000 		.4byte	.LASF36
 584 01df 0C       		.byte	0xc
 585 01e0 C9       		.byte	0xc9
 586 01e1 22       		.byte	0x22
 587 01e2 96080000 		.4byte	0x896
 588 01e6 20       		.byte	0x20
 589 01e7 01       		.uleb128 0x1
 590 01e8 6F010000 		.4byte	.LASF37
 591 01ec 0C       		.byte	0xc
 592 01ed CE       		.byte	0xce
 593 01ee 21       		.byte	0x21
 594 01ef 2C010000 		.4byte	0x12c
 595 01f3 24       		.byte	0x24
 596 01f4 01       		.uleb128 0x1
 597 01f5 50090000 		.4byte	.LASF38
 598 01f9 0C       		.byte	0xc
 599 01fa D2       		.byte	0xd2
 600 01fb 21       		.byte	0x21
 601 01fc 20010000 		.4byte	0x120
 602 0200 25       		.byte	0x25
 603 0201 01       		.uleb128 0x1
 604 0202 53060000 		.4byte	.LASF39
 605 0206 0C       		.byte	0xc
 606 0207 D7       		.byte	0xd7
 607 0208 21       		.byte	0x21
 608 0209 38010000 		.4byte	0x138
 609 020d 26       		.byte	0x26
 610 020e 06       		.uleb128 0x6
 611 020f 7500     		.ascii	"u\000"
 612 0211 0C       		.byte	0xc
 613 0212 2801     		.2byte	0x128
 614 0214 21       		.byte	0x21
 615 0215 BC070000 		.4byte	0x7bc
 616 0219 28       		.byte	0x28
 617 021a 03       		.uleb128 0x3
 618 021b B6020000 		.4byte	.LASF40
 619 021f 2D01     		.2byte	0x12d
 620 0221 21       		.byte	0x21
 621 0222 8F030000 		.4byte	0x38f
 622 0226 2C       		.byte	0x2c
 623 0227 03       		.uleb128 0x3
 624 0228 02030000 		.4byte	.LASF41
 625 022c 3301     		.2byte	0x133
 626 022e 21       		.byte	0x21
ARM GAS  C:\Users\DEVELO~1\AppData\Local\Temp\ccpGChTz.s 			page 12


 627 022f BB030000 		.4byte	0x3bb
 628 0233 30       		.byte	0x30
 629 0234 03       		.uleb128 0x3
 630 0235 84040000 		.4byte	.LASF42
 631 0239 3901     		.2byte	0x139
 632 023b 21       		.byte	0x21
 633 023c 5C010000 		.4byte	0x15c
 634 0240 38       		.byte	0x38
 635 0241 03       		.uleb128 0x3
 636 0242 C2090000 		.4byte	.LASF43
 637 0246 4001     		.2byte	0x140
 638 0248 22       		.byte	0x22
 639 0249 8C080000 		.4byte	0x88c
 640 024d 3C       		.byte	0x3c
 641 024e 03       		.uleb128 0x3
 642 024f 38050000 		.4byte	.LASF44
 643 0253 4401     		.2byte	0x144
 644 0255 21       		.byte	0x21
 645 0256 44010000 		.4byte	0x144
 646 025a 40       		.byte	0x40
 647 025b 03       		.uleb128 0x3
 648 025c F4080000 		.4byte	.LASF45
 649 0260 4B01     		.2byte	0x14b
 650 0262 22       		.byte	0x22
 651 0263 A9040000 		.4byte	0x4a9
 652 0267 44       		.byte	0x44
 653 0268 00       		.byte	0
 654 0269 02       		.uleb128 0x2
 655 026a 53080000 		.4byte	.LASF46
 656 026e 0B       		.byte	0xb
 657 026f 8A       		.byte	0x8a
 658 0270 1F       		.byte	0x1f
 659 0271 75020000 		.4byte	0x275
 660 0275 25       		.uleb128 0x25
 661 0276 D8020000 		.4byte	.LASF48
 662 027a 9008     		.2byte	0x890
 663 027c 0C       		.byte	0xc
 664 027d 8A01     		.2byte	0x18a
 665 027f 08       		.byte	0x8
 666 0280 FB020000 		.4byte	0x2fb
 667 0284 03       		.uleb128 0x3
 668 0285 38090000 		.4byte	.LASF49
 669 0289 8E01     		.2byte	0x18e
 670 028b 21       		.byte	0x21
 671 028c C4080000 		.4byte	0x8c4
 672 0290 00       		.byte	0
 673 0291 03       		.uleb128 0x3
 674 0292 7A000000 		.4byte	.LASF50
 675 0296 9201     		.2byte	0x192
 676 0298 21       		.byte	0x21
 677 0299 50070000 		.4byte	0x750
 678 029d 10       		.byte	0x10
 679 029e 03       		.uleb128 0x3
 680 029f 6B080000 		.4byte	.LASF51
 681 02a3 9901     		.2byte	0x199
 682 02a5 21       		.byte	0x21
 683 02a6 77070000 		.4byte	0x777
ARM GAS  C:\Users\DEVELO~1\AppData\Local\Temp\ccpGChTz.s 			page 13


 684 02aa 28       		.byte	0x28
 685 02ab 03       		.uleb128 0x3
 686 02ac F4020000 		.4byte	.LASF52
 687 02b0 9E01     		.2byte	0x19e
 688 02b2 21       		.byte	0x21
 689 02b3 74010000 		.4byte	0x174
 690 02b7 30       		.byte	0x30
 691 02b8 03       		.uleb128 0x3
 692 02b9 5A000000 		.4byte	.LASF53
 693 02bd A401     		.2byte	0x1a4
 694 02bf 21       		.byte	0x21
 695 02c0 22030000 		.4byte	0x322
 696 02c4 34       		.byte	0x34
 697 02c5 03       		.uleb128 0x3
 698 02c6 4C030000 		.4byte	.LASF54
 699 02ca A901     		.2byte	0x1a9
 700 02cc 22       		.byte	0x22
 701 02cd 2F090000 		.4byte	0x92f
 702 02d1 38       		.byte	0x38
 703 02d2 03       		.uleb128 0x3
 704 02d3 FA000000 		.4byte	.LASF55
 705 02d7 AD01     		.2byte	0x1ad
 706 02d9 21       		.byte	0x21
 707 02da 80010000 		.4byte	0x180
 708 02de 3C       		.byte	0x3c
 709 02df 06       		.uleb128 0x6
 710 02e0 64626700 		.ascii	"dbg\000"
 711 02e4 0C       		.byte	0xc
 712 02e5 B101     		.2byte	0x1b1
 713 02e7 21       		.byte	0x21
 714 02e8 5F030000 		.4byte	0x35f
 715 02ec 84       		.byte	0x84
 716 02ed 03       		.uleb128 0x3
 717 02ee 7A090000 		.4byte	.LASF56
 718 02f2 B601     		.2byte	0x1b6
 719 02f4 21       		.byte	0x21
 720 02f5 04060000 		.4byte	0x604
 721 02f9 88       		.byte	0x88
 722 02fa 00       		.byte	0
 723 02fb 02       		.uleb128 0x2
 724 02fc 49050000 		.4byte	.LASF57
 725 0300 05       		.byte	0x5
 726 0301 3F       		.byte	0x3f
 727 0302 12       		.byte	0x12
 728 0303 D3000000 		.4byte	0xd3
 729 0307 07       		.uleb128 0x7
 730 0308 9C010000 		.4byte	.LASF58
 731 030c 04       		.byte	0x4
 732 030d 05       		.byte	0x5
 733 030e 44       		.byte	0x44
 734 030f 10       		.byte	0x10
 735 0310 22030000 		.4byte	0x322
 736 0314 01       		.uleb128 0x1
 737 0315 9F020000 		.4byte	.LASF59
 738 0319 05       		.byte	0x5
 739 031a 48       		.byte	0x48
 740 031b 21       		.byte	0x21
ARM GAS  C:\Users\DEVELO~1\AppData\Local\Temp\ccpGChTz.s 			page 14


 741 031c FB020000 		.4byte	0x2fb
 742 0320 00       		.byte	0
 743 0321 00       		.byte	0
 744 0322 02       		.uleb128 0x2
 745 0323 B8060000 		.4byte	.LASF60
 746 0327 05       		.byte	0x5
 747 0328 49       		.byte	0x49
 748 0329 03       		.byte	0x3
 749 032a 07030000 		.4byte	0x307
 750 032e 07       		.uleb128 0x7
 751 032f 76060000 		.4byte	.LASF61
 752 0333 04       		.byte	0x4
 753 0334 07       		.byte	0x7
 754 0335 3E       		.byte	0x3e
 755 0336 10       		.byte	0x10
 756 0337 49030000 		.4byte	0x349
 757 033b 01       		.uleb128 0x1
 758 033c 2A080000 		.4byte	.LASF62
 759 0340 07       		.byte	0x7
 760 0341 46       		.byte	0x46
 761 0342 24       		.byte	0x24
 762 0343 4E030000 		.4byte	0x34e
 763 0347 00       		.byte	0
 764 0348 00       		.byte	0
 765 0349 04       		.uleb128 0x4
 766 034a 5A030000 		.4byte	0x35a
 767 034e 1C       		.uleb128 0x1c
 768 034f 49030000 		.4byte	0x349
 769 0353 05       		.uleb128 0x5
 770 0354 01       		.byte	0x1
 771 0355 08       		.byte	0x8
 772 0356 AD070000 		.4byte	.LASF63
 773 035a 0F       		.uleb128 0xf
 774 035b 53030000 		.4byte	0x353
 775 035f 02       		.uleb128 0x2
 776 0360 5B030000 		.4byte	.LASF64
 777 0364 07       		.byte	0x7
 778 0365 51       		.byte	0x51
 779 0366 03       		.byte	0x3
 780 0367 2E030000 		.4byte	0x32e
 781 036b 02       		.uleb128 0x2
 782 036c 05080000 		.4byte	.LASF65
 783 0370 0D       		.byte	0xd
 784 0371 6D       		.byte	0x6d
 785 0372 12       		.byte	0x12
 786 0373 D3000000 		.4byte	0xd3
 787 0377 02       		.uleb128 0x2
 788 0378 A4010000 		.4byte	.LASF66
 789 037c 0D       		.byte	0xd
 790 037d 79       		.byte	0x79
 791 037e 12       		.byte	0x12
 792 037f D3000000 		.4byte	0xd3
 793 0383 02       		.uleb128 0x2
 794 0384 18020000 		.4byte	.LASF67
 795 0388 0D       		.byte	0xd
 796 0389 81       		.byte	0x81
 797 038a 12       		.byte	0x12
ARM GAS  C:\Users\DEVELO~1\AppData\Local\Temp\ccpGChTz.s 			page 15


 798 038b DF000000 		.4byte	0xdf
 799 038f 02       		.uleb128 0x2
 800 0390 3E090000 		.4byte	.LASF68
 801 0394 02       		.byte	0x2
 802 0395 32       		.byte	0x32
 803 0396 18       		.byte	0x18
 804 0397 9B030000 		.4byte	0x39b
 805 039b 07       		.uleb128 0x7
 806 039c B9040000 		.4byte	.LASF69
 807 03a0 04       		.byte	0x4
 808 03a1 02       		.byte	0x2
 809 03a2 38       		.byte	0x38
 810 03a3 08       		.byte	0x8
 811 03a4 B6030000 		.4byte	0x3b6
 812 03a8 01       		.uleb128 0x1
 813 03a9 13010000 		.4byte	.LASF70
 814 03ad 02       		.byte	0x2
 815 03ae 39       		.byte	0x39
 816 03af 1A       		.byte	0x1a
 817 03b0 B6030000 		.4byte	0x3b6
 818 03b4 00       		.byte	0
 819 03b5 00       		.byte	0
 820 03b6 04       		.uleb128 0x4
 821 03b7 8F030000 		.4byte	0x38f
 822 03bb 02       		.uleb128 0x2
 823 03bc A4020000 		.4byte	.LASF71
 824 03c0 02       		.byte	0x2
 825 03c1 3F       		.byte	0x3f
 826 03c2 19       		.byte	0x19
 827 03c3 C7030000 		.4byte	0x3c7
 828 03c7 07       		.uleb128 0x7
 829 03c8 B2010000 		.4byte	.LASF72
 830 03cc 08       		.byte	0x8
 831 03cd 02       		.byte	0x2
 832 03ce 45       		.byte	0x45
 833 03cf 08       		.byte	0x8
 834 03d0 EF030000 		.4byte	0x3ef
 835 03d4 01       		.uleb128 0x1
 836 03d5 13010000 		.4byte	.LASF70
 837 03d9 02       		.byte	0x2
 838 03da 46       		.byte	0x46
 839 03db 1A       		.byte	0x1a
 840 03dc EF030000 		.4byte	0x3ef
 841 03e0 00       		.byte	0
 842 03e1 01       		.uleb128 0x1
 843 03e2 69000000 		.4byte	.LASF73
 844 03e6 02       		.byte	0x2
 845 03e7 47       		.byte	0x47
 846 03e8 1A       		.byte	0x1a
 847 03e9 EF030000 		.4byte	0x3ef
 848 03ed 04       		.byte	0x4
 849 03ee 00       		.byte	0
 850 03ef 04       		.uleb128 0x4
 851 03f0 BB030000 		.4byte	0x3bb
 852 03f4 02       		.uleb128 0x2
 853 03f5 16080000 		.4byte	.LASF74
 854 03f9 02       		.byte	0x2
ARM GAS  C:\Users\DEVELO~1\AppData\Local\Temp\ccpGChTz.s 			page 16


 855 03fa 4E       		.byte	0x4e
 856 03fb 22       		.byte	0x22
 857 03fc 00040000 		.4byte	0x400
 858 0400 07       		.uleb128 0x7
 859 0401 94080000 		.4byte	.LASF75
 860 0405 0C       		.byte	0xc
 861 0406 02       		.byte	0x2
 862 0407 55       		.byte	0x55
 863 0408 08       		.byte	0x8
 864 0409 35040000 		.4byte	0x435
 865 040d 01       		.uleb128 0x1
 866 040e 13010000 		.4byte	.LASF70
 867 0412 02       		.byte	0x2
 868 0413 56       		.byte	0x56
 869 0414 1A       		.byte	0x1a
 870 0415 35040000 		.4byte	0x435
 871 0419 00       		.byte	0
 872 041a 01       		.uleb128 0x1
 873 041b 69000000 		.4byte	.LASF73
 874 041f 02       		.byte	0x2
 875 0420 57       		.byte	0x57
 876 0421 1A       		.byte	0x1a
 877 0422 35040000 		.4byte	0x435
 878 0426 04       		.byte	0x4
 879 0427 01       		.uleb128 0x1
 880 0428 13060000 		.4byte	.LASF76
 881 042c 02       		.byte	0x2
 882 042d 58       		.byte	0x58
 883 042e 19       		.byte	0x19
 884 042f 44010000 		.4byte	0x144
 885 0433 08       		.byte	0x8
 886 0434 00       		.byte	0
 887 0435 04       		.uleb128 0x4
 888 0436 F4030000 		.4byte	0x3f4
 889 043a 02       		.uleb128 0x2
 890 043b BF080000 		.4byte	.LASF77
 891 043f 02       		.byte	0x2
 892 0440 5F       		.byte	0x5f
 893 0441 1E       		.byte	0x1e
 894 0442 46040000 		.4byte	0x446
 895 0446 07       		.uleb128 0x7
 896 0447 3D010000 		.4byte	.LASF78
 897 044b 0C       		.byte	0xc
 898 044c 02       		.byte	0x2
 899 044d 64       		.byte	0x64
 900 044e 08       		.byte	0x8
 901 044f 7B040000 		.4byte	0x47b
 902 0453 01       		.uleb128 0x1
 903 0454 13010000 		.4byte	.LASF70
 904 0458 02       		.byte	0x2
 905 0459 65       		.byte	0x65
 906 045a 1A       		.byte	0x1a
 907 045b 7B040000 		.4byte	0x47b
 908 045f 00       		.byte	0
 909 0460 01       		.uleb128 0x1
 910 0461 69000000 		.4byte	.LASF73
 911 0465 02       		.byte	0x2
ARM GAS  C:\Users\DEVELO~1\AppData\Local\Temp\ccpGChTz.s 			page 17


 912 0466 66       		.byte	0x66
 913 0467 1A       		.byte	0x1a
 914 0468 7B040000 		.4byte	0x47b
 915 046c 04       		.byte	0x4
 916 046d 01       		.uleb128 0x1
 917 046e 0D010000 		.4byte	.LASF79
 918 0472 02       		.byte	0x2
 919 0473 67       		.byte	0x67
 920 0474 19       		.byte	0x19
 921 0475 77030000 		.4byte	0x377
 922 0479 08       		.byte	0x8
 923 047a 00       		.byte	0
 924 047b 04       		.uleb128 0x4
 925 047c 3A040000 		.4byte	0x43a
 926 0480 09       		.uleb128 0x9
 927 0481 08       		.byte	0x8
 928 0482 0E       		.byte	0xe
 929 0483 83       		.byte	0x83
 930 0484 05       		.byte	0x5
 931 0485 A4040000 		.4byte	0x4a4
 932 0489 08       		.uleb128 0x8
 933 048a 6E747000 		.ascii	"ntp\000"
 934 048e 0E       		.byte	0xe
 935 048f 87       		.byte	0x87
 936 0490 1E       		.byte	0x1e
 937 0491 A4040000 		.4byte	0x4a4
 938 0495 00       		.byte	0
 939 0496 01       		.uleb128 0x1
 940 0497 F3060000 		.4byte	.LASF80
 941 049b 0E       		.byte	0xe
 942 049c 8B       		.byte	0x8b
 943 049d 1E       		.byte	0x1e
 944 049e A9040000 		.4byte	0x4a9
 945 04a2 04       		.byte	0x4
 946 04a3 00       		.byte	0
 947 04a4 04       		.uleb128 0x4
 948 04a5 80010000 		.4byte	0x180
 949 04a9 26       		.uleb128 0x26
 950 04aa 04       		.byte	0x4
 951 04ab 09       		.uleb128 0x9
 952 04ac 08       		.byte	0x8
 953 04ad 0E       		.byte	0xe
 954 04ae 90       		.byte	0x90
 955 04af 05       		.byte	0x5
 956 04b0 CE040000 		.4byte	0x4ce
 957 04b4 08       		.uleb128 0x8
 958 04b5 747000   		.ascii	"tp\000"
 959 04b8 0E       		.byte	0xe
 960 04b9 94       		.byte	0x94
 961 04ba 1E       		.byte	0x1e
 962 04bb A4040000 		.4byte	0x4a4
 963 04bf 00       		.byte	0
 964 04c0 08       		.uleb128 0x8
 965 04c1 6D736700 		.ascii	"msg\000"
 966 04c5 0E       		.byte	0xe
 967 04c6 98       		.byte	0x98
 968 04c7 1D       		.byte	0x1d
ARM GAS  C:\Users\DEVELO~1\AppData\Local\Temp\ccpGChTz.s 			page 18


 969 04c8 50010000 		.4byte	0x150
 970 04cc 04       		.byte	0x4
 971 04cd 00       		.byte	0
 972 04ce 09       		.uleb128 0x9
 973 04cf 04       		.byte	0x4
 974 04d0 0E       		.byte	0xe
 975 04d1 9D       		.byte	0x9d
 976 04d2 05       		.byte	0x5
 977 04d3 E5040000 		.4byte	0x4e5
 978 04d7 01       		.uleb128 0x1
 979 04d8 41040000 		.4byte	.LASF35
 980 04dc 0E       		.byte	0xe
 981 04dd A1       		.byte	0xa1
 982 04de 1E       		.byte	0x1e
 983 04df 49030000 		.4byte	0x349
 984 04e3 00       		.byte	0
 985 04e4 00       		.byte	0
 986 04e5 09       		.uleb128 0x9
 987 04e6 04       		.byte	0x4
 988 04e7 0E       		.byte	0xe
 989 04e8 A6       		.byte	0xa6
 990 04e9 05       		.byte	0x5
 991 04ea FC040000 		.4byte	0x4fc
 992 04ee 01       		.uleb128 0x1
 993 04ef 21070000 		.4byte	.LASF81
 994 04f3 0E       		.byte	0xe
 995 04f4 AA       		.byte	0xaa
 996 04f5 1E       		.byte	0x1e
 997 04f6 49030000 		.4byte	0x349
 998 04fa 00       		.byte	0
 999 04fb 00       		.byte	0
 1000 04fc 09       		.uleb128 0x9
 1001 04fd 08       		.byte	0x8
 1002 04fe 0E       		.byte	0xe
 1003 04ff AF       		.byte	0xaf
 1004 0500 05       		.byte	0x5
 1005 0501 20050000 		.4byte	0x520
 1006 0505 08       		.uleb128 0x8
 1007 0506 75703100 		.ascii	"up1\000"
 1008 050a 0E       		.byte	0xe
 1009 050b B3       		.byte	0xb3
 1010 050c 1E       		.byte	0x1e
 1011 050d A9040000 		.4byte	0x4a9
 1012 0511 00       		.byte	0
 1013 0512 08       		.uleb128 0x8
 1014 0513 75703200 		.ascii	"up2\000"
 1015 0517 0E       		.byte	0xe
 1016 0518 B7       		.byte	0xb7
 1017 0519 1E       		.byte	0x1e
 1018 051a A9040000 		.4byte	0x4a9
 1019 051e 04       		.byte	0x4
 1020 051f 00       		.byte	0
 1021 0520 16       		.uleb128 0x16
 1022 0521 08       		.byte	0x8
 1023 0522 0E       		.byte	0xe
 1024 0523 7F       		.byte	0x7f
 1025 0524 5E050000 		.4byte	0x55e
ARM GAS  C:\Users\DEVELO~1\AppData\Local\Temp\ccpGChTz.s 			page 19


 1026 0528 17       		.uleb128 0x17
 1027 0529 737700   		.ascii	"sw\000"
 1028 052c 8C       		.byte	0x8c
 1029 052d 80040000 		.4byte	0x480
 1030 0531 17       		.uleb128 0x17
 1031 0532 72647900 		.ascii	"rdy\000"
 1032 0536 99       		.byte	0x99
 1033 0537 AB040000 		.4byte	0x4ab
 1034 053b 17       		.uleb128 0x17
 1035 053c 69737200 		.ascii	"isr\000"
 1036 0540 A2       		.byte	0xa2
 1037 0541 CE040000 		.4byte	0x4ce
 1038 0545 0B       		.uleb128 0xb
 1039 0546 DD000000 		.4byte	.LASF82
 1040 054a 0E       		.byte	0xe
 1041 054b AB       		.byte	0xab
 1042 054c 07       		.byte	0x7
 1043 054d E5040000 		.4byte	0x4e5
 1044 0551 0B       		.uleb128 0xb
 1045 0552 58060000 		.4byte	.LASF83
 1046 0556 0E       		.byte	0xe
 1047 0557 B8       		.byte	0xb8
 1048 0558 07       		.byte	0x7
 1049 0559 FC040000 		.4byte	0x4fc
 1050 055d 00       		.byte	0
 1051 055e 09       		.uleb128 0x9
 1052 055f 10       		.byte	0x10
 1053 0560 0E       		.byte	0xe
 1054 0561 6C       		.byte	0x6c
 1055 0562 09       		.byte	0x9
 1056 0563 A4050000 		.4byte	0x5a4
 1057 0567 18       		.uleb128 0x18
 1058 0568 81000000 		.4byte	.LASF84
 1059 056c 70       		.byte	0x70
 1060 056d D3000000 		.4byte	0xd3
 1061 0571 03       		.byte	0x3
 1062 0572 00       		.byte	0
 1063 0573 18       		.uleb128 0x18
 1064 0574 6F010000 		.4byte	.LASF37
 1065 0578 74       		.byte	0x74
 1066 0579 D3000000 		.4byte	0xd3
 1067 057d 05       		.byte	0x5
 1068 057e 03       		.byte	0x3
 1069 057f 18       		.uleb128 0x18
 1070 0580 26050000 		.4byte	.LASF85
 1071 0584 7A       		.byte	0x7a
 1072 0585 D3000000 		.4byte	0xd3
 1073 0589 18       		.byte	0x18
 1074 058a 08       		.byte	0x8
 1075 058b 01       		.uleb128 0x1
 1076 058c 0E060000 		.4byte	.LASF86
 1077 0590 0E       		.byte	0xe
 1078 0591 7E       		.byte	0x7e
 1079 0592 19       		.byte	0x19
 1080 0593 6B030000 		.4byte	0x36b
 1081 0597 04       		.byte	0x4
 1082 0598 08       		.uleb128 0x8
ARM GAS  C:\Users\DEVELO~1\AppData\Local\Temp\ccpGChTz.s 			page 20


 1083 0599 7500     		.ascii	"u\000"
 1084 059b 0E       		.byte	0xe
 1085 059c B9       		.byte	0xb9
 1086 059d 05       		.byte	0x5
 1087 059e 20050000 		.4byte	0x520
 1088 05a2 08       		.byte	0x8
 1089 05a3 00       		.byte	0
 1090 05a4 02       		.uleb128 0x2
 1091 05a5 A3000000 		.4byte	.LASF87
 1092 05a9 0E       		.byte	0xe
 1093 05aa BA       		.byte	0xba
 1094 05ab 03       		.byte	0x3
 1095 05ac 5E050000 		.4byte	0x55e
 1096 05b0 27       		.uleb128 0x27
 1097 05b1 0808     		.2byte	0x808
 1098 05b3 0E       		.byte	0xe
 1099 05b4 C0       		.byte	0xc0
 1100 05b5 09       		.byte	0x9
 1101 05b6 EF050000 		.4byte	0x5ef
 1102 05ba 01       		.uleb128 0x1
 1103 05bb C6000000 		.4byte	.LASF88
 1104 05bf 0E       		.byte	0xe
 1105 05c0 C4       		.byte	0xc4
 1106 05c1 19       		.byte	0x19
 1107 05c2 BB000000 		.4byte	0xbb
 1108 05c6 00       		.byte	0
 1109 05c7 01       		.uleb128 0x1
 1110 05c8 5C040000 		.4byte	.LASF89
 1111 05cc 0E       		.byte	0xe
 1112 05cd C8       		.byte	0xc8
 1113 05ce 19       		.byte	0x19
 1114 05cf BB000000 		.4byte	0xbb
 1115 05d3 02       		.byte	0x2
 1116 05d4 08       		.uleb128 0x8
 1117 05d5 70747200 		.ascii	"ptr\000"
 1118 05d9 0E       		.byte	0xe
 1119 05da CC       		.byte	0xcc
 1120 05db 1A       		.byte	0x1a
 1121 05dc EF050000 		.4byte	0x5ef
 1122 05e0 04       		.byte	0x4
 1123 05e1 01       		.uleb128 0x1
 1124 05e2 0F080000 		.4byte	.LASF90
 1125 05e6 0E       		.byte	0xe
 1126 05e7 D0       		.byte	0xd0
 1127 05e8 19       		.byte	0x19
 1128 05e9 F4050000 		.4byte	0x5f4
 1129 05ed 08       		.byte	0x8
 1130 05ee 00       		.byte	0
 1131 05ef 04       		.uleb128 0x4
 1132 05f0 A4050000 		.4byte	0x5a4
 1133 05f4 10       		.uleb128 0x10
 1134 05f5 A4050000 		.4byte	0x5a4
 1135 05f9 04060000 		.4byte	0x604
 1136 05fd 11       		.uleb128 0x11
 1137 05fe 2D000000 		.4byte	0x2d
 1138 0602 7F       		.byte	0x7f
 1139 0603 00       		.byte	0
ARM GAS  C:\Users\DEVELO~1\AppData\Local\Temp\ccpGChTz.s 			page 21


 1140 0604 02       		.uleb128 0x2
 1141 0605 E4060000 		.4byte	.LASF91
 1142 0609 0E       		.byte	0xe
 1143 060a D1       		.byte	0xd1
 1144 060b 03       		.byte	0x3
 1145 060c B0050000 		.4byte	0x5b0
 1146 0610 05       		.uleb128 0x5
 1147 0611 04       		.byte	0x4
 1148 0612 04       		.byte	0x4
 1149 0613 3B060000 		.4byte	.LASF92
 1150 0617 05       		.uleb128 0x5
 1151 0618 08       		.byte	0x8
 1152 0619 04       		.byte	0x4
 1153 061a D6010000 		.4byte	.LASF93
 1154 061e 12       		.uleb128 0x12
 1155 061f 6E000000 		.4byte	.LASF94
 1156 0623 24       		.byte	0x24
 1157 0624 0F       		.byte	0xf
 1158 0625 E001     		.2byte	0x1e0
 1159 0627 08       		.byte	0x8
 1160 0628 A4060000 		.4byte	0x6a4
 1161 062c 06       		.uleb128 0x6
 1162 062d 723400   		.ascii	"r4\000"
 1163 0630 0F       		.byte	0xf
 1164 0631 F901     		.2byte	0x1f9
 1165 0633 11       		.byte	0x11
 1166 0634 D3000000 		.4byte	0xd3
 1167 0638 00       		.byte	0
 1168 0639 06       		.uleb128 0x6
 1169 063a 723500   		.ascii	"r5\000"
 1170 063d 0F       		.byte	0xf
 1171 063e FA01     		.2byte	0x1fa
 1172 0640 11       		.byte	0x11
 1173 0641 D3000000 		.4byte	0xd3
 1174 0645 04       		.byte	0x4
 1175 0646 06       		.uleb128 0x6
 1176 0647 723600   		.ascii	"r6\000"
 1177 064a 0F       		.byte	0xf
 1178 064b FB01     		.2byte	0x1fb
 1179 064d 11       		.byte	0x11
 1180 064e D3000000 		.4byte	0xd3
 1181 0652 08       		.byte	0x8
 1182 0653 06       		.uleb128 0x6
 1183 0654 723700   		.ascii	"r7\000"
 1184 0657 0F       		.byte	0xf
 1185 0658 FC01     		.2byte	0x1fc
 1186 065a 11       		.byte	0x11
 1187 065b D3000000 		.4byte	0xd3
 1188 065f 0C       		.byte	0xc
 1189 0660 06       		.uleb128 0x6
 1190 0661 723800   		.ascii	"r8\000"
 1191 0664 0F       		.byte	0xf
 1192 0665 FD01     		.2byte	0x1fd
 1193 0667 11       		.byte	0x11
 1194 0668 D3000000 		.4byte	0xd3
 1195 066c 10       		.byte	0x10
 1196 066d 06       		.uleb128 0x6
ARM GAS  C:\Users\DEVELO~1\AppData\Local\Temp\ccpGChTz.s 			page 22


 1197 066e 723900   		.ascii	"r9\000"
 1198 0671 0F       		.byte	0xf
 1199 0672 FE01     		.2byte	0x1fe
 1200 0674 11       		.byte	0x11
 1201 0675 D3000000 		.4byte	0xd3
 1202 0679 14       		.byte	0x14
 1203 067a 06       		.uleb128 0x6
 1204 067b 72313000 		.ascii	"r10\000"
 1205 067f 0F       		.byte	0xf
 1206 0680 FF01     		.2byte	0x1ff
 1207 0682 11       		.byte	0x11
 1208 0683 D3000000 		.4byte	0xd3
 1209 0687 18       		.byte	0x18
 1210 0688 06       		.uleb128 0x6
 1211 0689 72313100 		.ascii	"r11\000"
 1212 068d 0F       		.byte	0xf
 1213 068e 0002     		.2byte	0x200
 1214 0690 11       		.byte	0x11
 1215 0691 D3000000 		.4byte	0xd3
 1216 0695 1C       		.byte	0x1c
 1217 0696 06       		.uleb128 0x6
 1218 0697 6C7200   		.ascii	"lr\000"
 1219 069a 0F       		.byte	0xf
 1220 069b 0102     		.2byte	0x201
 1221 069d 11       		.byte	0x11
 1222 069e D3000000 		.4byte	0xd3
 1223 06a2 20       		.byte	0x20
 1224 06a3 00       		.byte	0
 1225 06a4 12       		.uleb128 0x12
 1226 06a5 E7020000 		.4byte	.LASF95
 1227 06a9 04       		.byte	0x4
 1228 06aa 0F       		.byte	0xf
 1229 06ab 0A02     		.2byte	0x20a
 1230 06ad 08       		.byte	0x8
 1231 06ae C0060000 		.4byte	0x6c0
 1232 06b2 06       		.uleb128 0x6
 1233 06b3 737000   		.ascii	"sp\000"
 1234 06b6 0F       		.byte	0xf
 1235 06b7 0B02     		.2byte	0x20b
 1236 06b9 1A       		.byte	0x1a
 1237 06ba C0060000 		.4byte	0x6c0
 1238 06be 00       		.byte	0
 1239 06bf 00       		.byte	0
 1240 06c0 04       		.uleb128 0x4
 1241 06c1 1E060000 		.4byte	0x61e
 1242 06c5 09       		.uleb128 0x9
 1243 06c6 04       		.byte	0x4
 1244 06c7 10       		.byte	0x10
 1245 06c8 3F       		.byte	0x3f
 1246 06c9 09       		.byte	0x9
 1247 06ca DC060000 		.4byte	0x6dc
 1248 06ce 01       		.uleb128 0x1
 1249 06cf AF020000 		.4byte	.LASF96
 1250 06d3 10       		.byte	0x10
 1251 06d4 43       		.byte	0x43
 1252 06d5 19       		.byte	0x19
 1253 06d6 08010000 		.4byte	0x108
ARM GAS  C:\Users\DEVELO~1\AppData\Local\Temp\ccpGChTz.s 			page 23


 1254 06da 00       		.byte	0
 1255 06db 00       		.byte	0
 1256 06dc 02       		.uleb128 0x2
 1257 06dd ED050000 		.4byte	.LASF97
 1258 06e1 10       		.byte	0x10
 1259 06e2 44       		.byte	0x44
 1260 06e3 03       		.byte	0x3
 1261 06e4 C5060000 		.4byte	0x6c5
 1262 06e8 28       		.uleb128 0x28
 1263 06e9 07       		.byte	0x7
 1264 06ea 01       		.byte	0x1
 1265 06eb 55000000 		.4byte	0x55
 1266 06ef 0C       		.byte	0xc
 1267 06f0 32       		.byte	0x32
 1268 06f1 0E       		.byte	0xe
 1269 06f2 0F070000 		.4byte	0x70f
 1270 06f6 13       		.uleb128 0x13
 1271 06f7 C9070000 		.4byte	.LASF98
 1272 06fb 00       		.byte	0
 1273 06fc 13       		.uleb128 0x13
 1274 06fd FA080000 		.4byte	.LASF99
 1275 0701 01       		.byte	0x1
 1276 0702 13       		.uleb128 0x13
 1277 0703 E2000000 		.4byte	.LASF100
 1278 0707 02       		.byte	0x2
 1279 0708 13       		.uleb128 0x13
 1280 0709 86080000 		.4byte	.LASF101
 1281 070d 03       		.byte	0x3
 1282 070e 00       		.byte	0
 1283 070f 02       		.uleb128 0x2
 1284 0710 9A090000 		.4byte	.LASF102
 1285 0714 0C       		.byte	0xc
 1286 0715 37       		.byte	0x37
 1287 0716 03       		.byte	0x3
 1288 0717 E8060000 		.4byte	0x6e8
 1289 071b 07       		.uleb128 0x7
 1290 071c 70050000 		.4byte	.LASF103
 1291 0720 18       		.byte	0x18
 1292 0721 0C       		.byte	0xc
 1293 0722 64       		.byte	0x64
 1294 0723 10       		.byte	0x10
 1295 0724 50070000 		.4byte	0x750
 1296 0728 01       		.uleb128 0x1
 1297 0729 FF070000 		.4byte	.LASF104
 1298 072d 0C       		.byte	0xc
 1299 072e 68       		.byte	0x68
 1300 072f 21       		.byte	0x21
 1301 0730 3A040000 		.4byte	0x43a
 1302 0734 00       		.byte	0
 1303 0735 01       		.uleb128 0x1
 1304 0736 DB060000 		.4byte	.LASF105
 1305 073a 0C       		.byte	0xc
 1306 073b 73       		.byte	0x73
 1307 073c 21       		.byte	0x21
 1308 073d 6B030000 		.4byte	0x36b
 1309 0741 0C       		.byte	0xc
 1310 0742 01       		.uleb128 0x1
ARM GAS  C:\Users\DEVELO~1\AppData\Local\Temp\ccpGChTz.s 			page 24


 1311 0743 2E050000 		.4byte	.LASF106
 1312 0747 0C       		.byte	0xc
 1313 0748 79       		.byte	0x79
 1314 0749 21       		.byte	0x21
 1315 074a EB000000 		.4byte	0xeb
 1316 074e 10       		.byte	0x10
 1317 074f 00       		.byte	0
 1318 0750 02       		.uleb128 0x2
 1319 0751 05050000 		.4byte	.LASF107
 1320 0755 0C       		.byte	0xc
 1321 0756 7B       		.byte	0x7b
 1322 0757 03       		.byte	0x3
 1323 0758 1B070000 		.4byte	0x71b
 1324 075c 07       		.uleb128 0x7
 1325 075d F3010000 		.4byte	.LASF108
 1326 0761 08       		.byte	0x8
 1327 0762 0C       		.byte	0xc
 1328 0763 80       		.byte	0x80
 1329 0764 10       		.byte	0x10
 1330 0765 77070000 		.4byte	0x777
 1331 0769 01       		.uleb128 0x1
 1332 076a 46040000 		.4byte	.LASF109
 1333 076e 0C       		.byte	0xc
 1334 076f 84       		.byte	0x84
 1335 0770 21       		.byte	0x21
 1336 0771 BB030000 		.4byte	0x3bb
 1337 0775 00       		.byte	0
 1338 0776 00       		.byte	0
 1339 0777 02       		.uleb128 0x2
 1340 0778 CF080000 		.4byte	.LASF110
 1341 077c 0C       		.byte	0xc
 1342 077d 85       		.byte	0x85
 1343 077e 03       		.byte	0x3
 1344 077f 5C070000 		.4byte	0x75c
 1345 0783 02       		.uleb128 0x2
 1346 0784 5D050000 		.4byte	.LASF111
 1347 0788 0C       		.byte	0xc
 1348 0789 8A       		.byte	0x8a
 1349 078a 14       		.byte	0x14
 1350 078b A4040000 		.4byte	0x4a4
 1351 078f 16       		.uleb128 0x16
 1352 0790 0C       		.byte	0xc
 1353 0791 0C       		.byte	0xc
 1354 0792 A0       		.byte	0xa0
 1355 0793 BC070000 		.4byte	0x7bc
 1356 0797 0B       		.uleb128 0xb
 1357 0798 95090000 		.4byte	.LASF112
 1358 079c 0C       		.byte	0xc
 1359 079d A4       		.byte	0xa4
 1360 079e 21       		.byte	0x21
 1361 079f 8F030000 		.4byte	0x38f
 1362 07a3 0B       		.uleb128 0xb
 1363 07a4 46040000 		.4byte	.LASF109
 1364 07a8 0C       		.byte	0xc
 1365 07a9 A8       		.byte	0xa8
 1366 07aa 21       		.byte	0x21
 1367 07ab BB030000 		.4byte	0x3bb
ARM GAS  C:\Users\DEVELO~1\AppData\Local\Temp\ccpGChTz.s 			page 25


 1368 07af 0B       		.uleb128 0xb
 1369 07b0 34080000 		.4byte	.LASF113
 1370 07b4 0C       		.byte	0xc
 1371 07b5 AC       		.byte	0xac
 1372 07b6 21       		.byte	0x21
 1373 07b7 F4030000 		.4byte	0x3f4
 1374 07bb 00       		.byte	0
 1375 07bc 16       		.uleb128 0x16
 1376 07bd 04       		.byte	0x4
 1377 07be 0C       		.byte	0xc
 1378 07bf EB       		.byte	0xeb
 1379 07c0 25080000 		.4byte	0x825
 1380 07c4 0B       		.uleb128 0xb
 1381 07c5 4D000000 		.4byte	.LASF114
 1382 07c9 0C       		.byte	0xc
 1383 07ca F2       		.byte	0xf2
 1384 07cb 21       		.byte	0x21
 1385 07cc 50010000 		.4byte	0x150
 1386 07d0 0B       		.uleb128 0xb
 1387 07d1 F1000000 		.4byte	.LASF115
 1388 07d5 0C       		.byte	0xc
 1389 07d6 F9       		.byte	0xf9
 1390 07d7 21       		.byte	0x21
 1391 07d8 50010000 		.4byte	0x150
 1392 07dc 0C       		.uleb128 0xc
 1393 07dd F3060000 		.4byte	.LASF80
 1394 07e1 0001     		.2byte	0x100
 1395 07e3 22       		.byte	0x22
 1396 07e4 A9040000 		.4byte	0x4a9
 1397 07e8 0C       		.uleb128 0xc
 1398 07e9 38000000 		.4byte	.LASF116
 1399 07ed 0701     		.2byte	0x107
 1400 07ef 22       		.byte	0x22
 1401 07f0 25080000 		.4byte	0x825
 1402 07f4 0C       		.uleb128 0xc
 1403 07f5 05010000 		.4byte	.LASF117
 1404 07f9 0C01     		.2byte	0x10c
 1405 07fb 21       		.byte	0x21
 1406 07fc 50010000 		.4byte	0x150
 1407 0800 0C       		.uleb128 0xc
 1408 0801 45030000 		.4byte	.LASF118
 1409 0805 1501     		.2byte	0x115
 1410 0807 22       		.byte	0x22
 1411 0808 52080000 		.4byte	0x852
 1412 080c 0C       		.uleb128 0xc
 1413 080d 50070000 		.4byte	.LASF119
 1414 0811 1E01     		.2byte	0x11e
 1415 0813 22       		.byte	0x22
 1416 0814 8C080000 		.4byte	0x88c
 1417 0818 0C       		.uleb128 0xc
 1418 0819 FA060000 		.4byte	.LASF120
 1419 081d 2601     		.2byte	0x126
 1420 081f 21       		.byte	0x21
 1421 0820 5C010000 		.4byte	0x15c
 1422 0824 00       		.byte	0
 1423 0825 04       		.uleb128 0x4
 1424 0826 83070000 		.4byte	0x783
ARM GAS  C:\Users\DEVELO~1\AppData\Local\Temp\ccpGChTz.s 			page 26


 1425 082a 07       		.uleb128 0x7
 1426 082b 28070000 		.4byte	.LASF121
 1427 082f 0C       		.byte	0xc
 1428 0830 11       		.byte	0x11
 1429 0831 34       		.byte	0x34
 1430 0832 10       		.byte	0x10
 1431 0833 52080000 		.4byte	0x852
 1432 0837 01       		.uleb128 0x1
 1433 0838 46040000 		.4byte	.LASF109
 1434 083c 11       		.byte	0x11
 1435 083d 35       		.byte	0x35
 1436 083e 19       		.byte	0x19
 1437 083f BB030000 		.4byte	0x3bb
 1438 0843 00       		.byte	0
 1439 0844 08       		.uleb128 0x8
 1440 0845 636E7400 		.ascii	"cnt\000"
 1441 0849 11       		.byte	0x11
 1442 084a 37       		.byte	0x37
 1443 084b 19       		.byte	0x19
 1444 084c 68010000 		.4byte	0x168
 1445 0850 08       		.byte	0x8
 1446 0851 00       		.byte	0
 1447 0852 04       		.uleb128 0x4
 1448 0853 2A080000 		.4byte	0x82a
 1449 0857 07       		.uleb128 0x7
 1450 0858 56090000 		.4byte	.LASF122
 1451 085c 10       		.byte	0x10
 1452 085d 12       		.byte	0x12
 1453 085e 39       		.byte	0x39
 1454 085f 08       		.byte	0x8
 1455 0860 8C080000 		.4byte	0x88c
 1456 0864 01       		.uleb128 0x1
 1457 0865 46040000 		.4byte	.LASF109
 1458 0869 12       		.byte	0x12
 1459 086a 3A       		.byte	0x3a
 1460 086b 19       		.byte	0x19
 1461 086c BB030000 		.4byte	0x3bb
 1462 0870 00       		.byte	0
 1463 0871 01       		.uleb128 0x1
 1464 0872 6C070000 		.4byte	.LASF34
 1465 0876 12       		.byte	0x12
 1466 0877 3C       		.byte	0x3c
 1467 0878 1A       		.byte	0x1a
 1468 0879 A4040000 		.4byte	0x4a4
 1469 087d 08       		.byte	0x8
 1470 087e 01       		.uleb128 0x1
 1471 087f 13010000 		.4byte	.LASF70
 1472 0883 12       		.byte	0x12
 1473 0884 3E       		.byte	0x3e
 1474 0885 1A       		.byte	0x1a
 1475 0886 180C0000 		.4byte	0xc18
 1476 088a 0C       		.byte	0xc
 1477 088b 00       		.byte	0
 1478 088c 04       		.uleb128 0x4
 1479 088d 57080000 		.4byte	0x857
 1480 0891 04       		.uleb128 0x4
 1481 0892 69020000 		.4byte	0x269
ARM GAS  C:\Users\DEVELO~1\AppData\Local\Temp\ccpGChTz.s 			page 27


 1482 0896 04       		.uleb128 0x4
 1483 0897 14010000 		.4byte	0x114
 1484 089b 12       		.uleb128 0x12
 1485 089c C1040000 		.4byte	.LASF123
 1486 08a0 10       		.byte	0x10
 1487 08a1 0C       		.byte	0xc
 1488 08a2 5C01     		.2byte	0x15c
 1489 08a4 10       		.byte	0x10
 1490 08a5 C4080000 		.4byte	0x8c4
 1491 08a9 03       		.uleb128 0x3
 1492 08aa 34080000 		.4byte	.LASF113
 1493 08ae 6101     		.2byte	0x161
 1494 08b0 21       		.byte	0x21
 1495 08b1 F4030000 		.4byte	0x3f4
 1496 08b5 00       		.byte	0
 1497 08b6 03       		.uleb128 0x3
 1498 08b7 18060000 		.4byte	.LASF124
 1499 08bb 6501     		.2byte	0x165
 1500 08bd 22       		.byte	0x22
 1501 08be A4040000 		.4byte	0x4a4
 1502 08c2 0C       		.byte	0xc
 1503 08c3 00       		.byte	0
 1504 08c4 19       		.uleb128 0x19
 1505 08c5 2B000000 		.4byte	.LASF125
 1506 08c9 6601     		.2byte	0x166
 1507 08cb 9B080000 		.4byte	0x89b
 1508 08cf 12       		.uleb128 0x12
 1509 08d0 D1050000 		.4byte	.LASF126
 1510 08d4 14       		.byte	0x14
 1511 08d5 0C       		.byte	0xc
 1512 08d6 6B01     		.2byte	0x16b
 1513 08d8 10       		.byte	0x10
 1514 08d9 1F090000 		.4byte	0x91f
 1515 08dd 03       		.uleb128 0x3
 1516 08de 41040000 		.4byte	.LASF35
 1517 08e2 6F01     		.2byte	0x16f
 1518 08e4 22       		.byte	0x22
 1519 08e5 49030000 		.4byte	0x349
 1520 08e9 00       		.byte	0
 1521 08ea 03       		.uleb128 0x3
 1522 08eb 3B080000 		.4byte	.LASF127
 1523 08ef 7501     		.2byte	0x175
 1524 08f1 22       		.byte	0x22
 1525 08f2 96080000 		.4byte	0x896
 1526 08f6 04       		.byte	0x4
 1527 08f7 03       		.uleb128 0x3
 1528 08f8 DA080000 		.4byte	.LASF128
 1529 08fc 7901     		.2byte	0x179
 1530 08fe 22       		.byte	0x22
 1531 08ff 96080000 		.4byte	0x896
 1532 0903 08       		.byte	0x8
 1533 0904 03       		.uleb128 0x3
 1534 0905 2B030000 		.4byte	.LASF129
 1535 0909 7F01     		.2byte	0x17f
 1536 090b 22       		.byte	0x22
 1537 090c 96080000 		.4byte	0x896
 1538 0910 0C       		.byte	0xc
ARM GAS  C:\Users\DEVELO~1\AppData\Local\Temp\ccpGChTz.s 			page 28


 1539 0911 03       		.uleb128 0x3
 1540 0912 B3090000 		.4byte	.LASF130
 1541 0916 8301     		.2byte	0x183
 1542 0918 22       		.byte	0x22
 1543 0919 96080000 		.4byte	0x896
 1544 091d 10       		.byte	0x10
 1545 091e 00       		.byte	0
 1546 091f 19       		.uleb128 0x19
 1547 0920 B1000000 		.4byte	.LASF131
 1548 0924 8501     		.2byte	0x185
 1549 0926 CF080000 		.4byte	0x8cf
 1550 092a 0F       		.uleb128 0xf
 1551 092b 1F090000 		.4byte	0x91f
 1552 092f 04       		.uleb128 0x4
 1553 0930 2A090000 		.4byte	0x92a
 1554 0934 12       		.uleb128 0x12
 1555 0935 01070000 		.4byte	.LASF132
 1556 0939 0C       		.byte	0xc
 1557 093a 0C       		.byte	0xc
 1558 093b C901     		.2byte	0x1c9
 1559 093d 10       		.byte	0x10
 1560 093e 6B090000 		.4byte	0x96b
 1561 0942 03       		.uleb128 0x3
 1562 0943 6F010000 		.4byte	.LASF37
 1563 0947 CD01     		.2byte	0x1cd
 1564 0949 21       		.byte	0x21
 1565 094a 0F070000 		.4byte	0x70f
 1566 094e 00       		.byte	0
 1567 094f 03       		.uleb128 0x3
 1568 0950 3B030000 		.4byte	.LASF133
 1569 0954 D101     		.2byte	0x1d1
 1570 0956 22       		.byte	0x22
 1571 0957 6B090000 		.4byte	0x96b
 1572 095b 04       		.byte	0x4
 1573 095c 06       		.uleb128 0x6
 1574 095d 746D6300 		.ascii	"tmc\000"
 1575 0961 0C       		.byte	0xc
 1576 0962 D601     		.2byte	0x1d6
 1577 0964 21       		.byte	0x21
 1578 0965 DC060000 		.4byte	0x6dc
 1579 0969 08       		.byte	0x8
 1580 096a 00       		.byte	0
 1581 096b 10       		.uleb128 0x10
 1582 096c 91080000 		.4byte	0x891
 1583 0970 7B090000 		.4byte	0x97b
 1584 0974 11       		.uleb128 0x11
 1585 0975 2D000000 		.4byte	0x2d
 1586 0979 00       		.byte	0
 1587 097a 00       		.byte	0
 1588 097b 19       		.uleb128 0x19
 1589 097c 8D040000 		.4byte	.LASF134
 1590 0980 ED01     		.2byte	0x1ed
 1591 0982 34090000 		.4byte	0x934
 1592 0986 29       		.uleb128 0x29
 1593 0987 01070000 		.4byte	.LASF132
 1594 098b 14       		.byte	0x14
 1595 098c 3E01     		.2byte	0x13e
ARM GAS  C:\Users\DEVELO~1\AppData\Local\Temp\ccpGChTz.s 			page 29


 1596 098e 14       		.byte	0x14
 1597 098f 7B090000 		.4byte	0x97b
 1598 0993 02       		.uleb128 0x2
 1599 0994 23000000 		.4byte	.LASF135
 1600 0998 13       		.byte	0x13
 1601 0999 34       		.byte	0x34
 1602 099a 10       		.byte	0x10
 1603 099b 9F090000 		.4byte	0x99f
 1604 099f 04       		.uleb128 0x4
 1605 09a0 A4090000 		.4byte	0x9a4
 1606 09a4 2A       		.uleb128 0x2a
 1607 09a5 AF090000 		.4byte	0x9af
 1608 09a9 0A       		.uleb128 0xa
 1609 09aa A9040000 		.4byte	0x4a9
 1610 09ae 00       		.byte	0
 1611 09af 09       		.uleb128 0x9
 1612 09b0 18       		.byte	0x18
 1613 09b1 13       		.byte	0x13
 1614 09b2 39       		.byte	0x39
 1615 09b3 09       		.byte	0x9
 1616 09b4 070A0000 		.4byte	0xa07
 1617 09b8 01       		.uleb128 0x1
 1618 09b9 41040000 		.4byte	.LASF35
 1619 09bd 13       		.byte	0x13
 1620 09be 3D       		.byte	0x3d
 1621 09bf 16       		.byte	0x16
 1622 09c0 49030000 		.4byte	0x349
 1623 09c4 00       		.byte	0
 1624 09c5 01       		.uleb128 0x1
 1625 09c6 E7050000 		.4byte	.LASF136
 1626 09ca 13       		.byte	0x13
 1627 09cb 41       		.byte	0x41
 1628 09cc 16       		.byte	0x16
 1629 09cd 96080000 		.4byte	0x896
 1630 09d1 04       		.byte	0x4
 1631 09d2 01       		.uleb128 0x1
 1632 09d3 67070000 		.4byte	.LASF137
 1633 09d7 13       		.byte	0x13
 1634 09d8 45       		.byte	0x45
 1635 09d9 16       		.byte	0x16
 1636 09da 96080000 		.4byte	0x896
 1637 09de 08       		.byte	0x8
 1638 09df 01       		.uleb128 0x1
 1639 09e0 13060000 		.4byte	.LASF76
 1640 09e4 13       		.byte	0x13
 1641 09e5 49       		.byte	0x49
 1642 09e6 15       		.byte	0x15
 1643 09e7 44010000 		.4byte	0x144
 1644 09eb 0C       		.byte	0xc
 1645 09ec 01       		.uleb128 0x1
 1646 09ed 54000000 		.4byte	.LASF138
 1647 09f1 13       		.byte	0x13
 1648 09f2 4D       		.byte	0x4d
 1649 09f3 15       		.byte	0x15
 1650 09f4 93090000 		.4byte	0x993
 1651 09f8 10       		.byte	0x10
 1652 09f9 08       		.uleb128 0x8
ARM GAS  C:\Users\DEVELO~1\AppData\Local\Temp\ccpGChTz.s 			page 30


 1653 09fa 61726700 		.ascii	"arg\000"
 1654 09fe 13       		.byte	0x13
 1655 09ff 51       		.byte	0x51
 1656 0a00 16       		.byte	0x16
 1657 0a01 A9040000 		.4byte	0x4a9
 1658 0a05 14       		.byte	0x14
 1659 0a06 00       		.byte	0
 1660 0a07 02       		.uleb128 0x2
 1661 0a08 86000000 		.4byte	.LASF139
 1662 0a0c 13       		.byte	0x13
 1663 0a0d 58       		.byte	0x58
 1664 0a0e 03       		.byte	0x3
 1665 0a0f AF090000 		.4byte	0x9af
 1666 0a13 0F       		.uleb128 0xf
 1667 0a14 070A0000 		.4byte	0xa07
 1668 0a18 09       		.uleb128 0x9
 1669 0a19 2C       		.byte	0x2c
 1670 0a1a 04       		.byte	0x4
 1671 0a1b 34       		.byte	0x34
 1672 0a1c 09       		.byte	0x9
 1673 0a1d CF0B0000 		.4byte	0xbcf
 1674 0a21 01       		.uleb128 0x1
 1675 0a22 BB010000 		.4byte	.LASF140
 1676 0a26 04       		.byte	0x4
 1677 0a27 35       		.byte	0x35
 1678 0a28 0D       		.byte	0xd
 1679 0a29 CF0B0000 		.4byte	0xbcf
 1680 0a2d 00       		.byte	0
 1681 0a2e 01       		.uleb128 0x1
 1682 0a2f CB020000 		.4byte	.LASF141
 1683 0a33 04       		.byte	0x4
 1684 0a34 36       		.byte	0x36
 1685 0a35 0D       		.byte	0xd
 1686 0a36 AF000000 		.4byte	0xaf
 1687 0a3a 04       		.byte	0x4
 1688 0a3b 01       		.uleb128 0x1
 1689 0a3c 5C040000 		.4byte	.LASF89
 1690 0a40 04       		.byte	0x4
 1691 0a41 37       		.byte	0x37
 1692 0a42 0D       		.byte	0xd
 1693 0a43 AF000000 		.4byte	0xaf
 1694 0a47 05       		.byte	0x5
 1695 0a48 01       		.uleb128 0x1
 1696 0a49 41050000 		.4byte	.LASF142
 1697 0a4d 04       		.byte	0x4
 1698 0a4e 38       		.byte	0x38
 1699 0a4f 0D       		.byte	0xd
 1700 0a50 BB000000 		.4byte	0xbb
 1701 0a54 06       		.byte	0x6
 1702 0a55 01       		.uleb128 0x1
 1703 0a56 4B080000 		.4byte	.LASF143
 1704 0a5a 04       		.byte	0x4
 1705 0a5b 39       		.byte	0x39
 1706 0a5c 0D       		.byte	0xd
 1707 0a5d AF000000 		.4byte	0xaf
 1708 0a61 08       		.byte	0x8
 1709 0a62 01       		.uleb128 0x1
ARM GAS  C:\Users\DEVELO~1\AppData\Local\Temp\ccpGChTz.s 			page 31


 1710 0a63 3E070000 		.4byte	.LASF144
 1711 0a67 04       		.byte	0x4
 1712 0a68 3A       		.byte	0x3a
 1713 0a69 0D       		.byte	0xd
 1714 0a6a AF000000 		.4byte	0xaf
 1715 0a6e 09       		.byte	0x9
 1716 0a6f 01       		.uleb128 0x1
 1717 0a70 18010000 		.4byte	.LASF145
 1718 0a74 04       		.byte	0x4
 1719 0a75 3B       		.byte	0x3b
 1720 0a76 0D       		.byte	0xd
 1721 0a77 AF000000 		.4byte	0xaf
 1722 0a7b 0A       		.byte	0xa
 1723 0a7c 01       		.uleb128 0x1
 1724 0a7d A2060000 		.4byte	.LASF146
 1725 0a81 04       		.byte	0x4
 1726 0a82 3C       		.byte	0x3c
 1727 0a83 0D       		.byte	0xd
 1728 0a84 AF000000 		.4byte	0xaf
 1729 0a88 0B       		.byte	0xb
 1730 0a89 01       		.uleb128 0x1
 1731 0a8a 53030000 		.4byte	.LASF147
 1732 0a8e 04       		.byte	0x4
 1733 0a8f 3D       		.byte	0x3d
 1734 0a90 0D       		.byte	0xd
 1735 0a91 AF000000 		.4byte	0xaf
 1736 0a95 0C       		.byte	0xc
 1737 0a96 01       		.uleb128 0x1
 1738 0a97 8C050000 		.4byte	.LASF148
 1739 0a9b 04       		.byte	0x4
 1740 0a9c 3E       		.byte	0x3e
 1741 0a9d 0D       		.byte	0xd
 1742 0a9e AF000000 		.4byte	0xaf
 1743 0aa2 0D       		.byte	0xd
 1744 0aa3 01       		.uleb128 0x1
 1745 0aa4 61080000 		.4byte	.LASF149
 1746 0aa8 04       		.byte	0x4
 1747 0aa9 3F       		.byte	0x3f
 1748 0aaa 0D       		.byte	0xd
 1749 0aab AF000000 		.4byte	0xaf
 1750 0aaf 0E       		.byte	0xe
 1751 0ab0 01       		.uleb128 0x1
 1752 0ab1 DB040000 		.4byte	.LASF150
 1753 0ab5 04       		.byte	0x4
 1754 0ab6 40       		.byte	0x40
 1755 0ab7 0D       		.byte	0xd
 1756 0ab8 AF000000 		.4byte	0xaf
 1757 0abc 0F       		.byte	0xf
 1758 0abd 01       		.uleb128 0x1
 1759 0abe AB060000 		.4byte	.LASF151
 1760 0ac2 04       		.byte	0x4
 1761 0ac3 41       		.byte	0x41
 1762 0ac4 0D       		.byte	0xd
 1763 0ac5 AF000000 		.4byte	0xaf
 1764 0ac9 10       		.byte	0x10
 1765 0aca 01       		.uleb128 0x1
 1766 0acb 70090000 		.4byte	.LASF152
ARM GAS  C:\Users\DEVELO~1\AppData\Local\Temp\ccpGChTz.s 			page 32


 1767 0acf 04       		.byte	0x4
 1768 0ad0 42       		.byte	0x42
 1769 0ad1 0D       		.byte	0xd
 1770 0ad2 AF000000 		.4byte	0xaf
 1771 0ad6 11       		.byte	0x11
 1772 0ad7 01       		.uleb128 0x1
 1773 0ad8 A9090000 		.4byte	.LASF153
 1774 0adc 04       		.byte	0x4
 1775 0add 43       		.byte	0x43
 1776 0ade 0D       		.byte	0xd
 1777 0adf AF000000 		.4byte	0xaf
 1778 0ae3 12       		.byte	0x12
 1779 0ae4 01       		.uleb128 0x1
 1780 0ae5 61040000 		.4byte	.LASF154
 1781 0ae9 04       		.byte	0x4
 1782 0aea 44       		.byte	0x44
 1783 0aeb 0D       		.byte	0xd
 1784 0aec AF000000 		.4byte	0xaf
 1785 0af0 13       		.byte	0x13
 1786 0af1 01       		.uleb128 0x1
 1787 0af2 E7010000 		.4byte	.LASF155
 1788 0af6 04       		.byte	0x4
 1789 0af7 45       		.byte	0x45
 1790 0af8 0D       		.byte	0xd
 1791 0af9 AF000000 		.4byte	0xaf
 1792 0afd 14       		.byte	0x14
 1793 0afe 01       		.uleb128 0x1
 1794 0aff 35070000 		.4byte	.LASF156
 1795 0b03 04       		.byte	0x4
 1796 0b04 46       		.byte	0x46
 1797 0b05 0D       		.byte	0xd
 1798 0b06 AF000000 		.4byte	0xaf
 1799 0b0a 15       		.byte	0x15
 1800 0b0b 01       		.uleb128 0x1
 1801 0b0c BE020000 		.4byte	.LASF157
 1802 0b10 04       		.byte	0x4
 1803 0b11 47       		.byte	0x47
 1804 0b12 0D       		.byte	0xd
 1805 0b13 DF0B0000 		.4byte	0xbdf
 1806 0b17 16       		.byte	0x16
 1807 0b18 01       		.uleb128 0x1
 1808 0b19 E9080000 		.4byte	.LASF158
 1809 0b1d 04       		.byte	0x4
 1810 0b1e 48       		.byte	0x48
 1811 0b1f 0D       		.byte	0xd
 1812 0b20 AF000000 		.4byte	0xaf
 1813 0b24 1A       		.byte	0x1a
 1814 0b25 01       		.uleb128 0x1
 1815 0b26 8F010000 		.4byte	.LASF159
 1816 0b2a 04       		.byte	0x4
 1817 0b2b 49       		.byte	0x49
 1818 0b2c 0D       		.byte	0xd
 1819 0b2d AF000000 		.4byte	0xaf
 1820 0b31 1B       		.byte	0x1b
 1821 0b32 01       		.uleb128 0x1
 1822 0b33 1D090000 		.4byte	.LASF160
 1823 0b37 04       		.byte	0x4
ARM GAS  C:\Users\DEVELO~1\AppData\Local\Temp\ccpGChTz.s 			page 33


 1824 0b38 4A       		.byte	0x4a
 1825 0b39 0D       		.byte	0xd
 1826 0b3a AF000000 		.4byte	0xaf
 1827 0b3e 1C       		.byte	0x1c
 1828 0b3f 01       		.uleb128 0x1
 1829 0b40 2A090000 		.4byte	.LASF161
 1830 0b44 04       		.byte	0x4
 1831 0b45 4B       		.byte	0x4b
 1832 0b46 0D       		.byte	0xd
 1833 0b47 AF000000 		.4byte	0xaf
 1834 0b4b 1D       		.byte	0x1d
 1835 0b4c 01       		.uleb128 0x1
 1836 0b4d 96050000 		.4byte	.LASF162
 1837 0b51 04       		.byte	0x4
 1838 0b52 4C       		.byte	0x4c
 1839 0b53 0D       		.byte	0xd
 1840 0b54 AF000000 		.4byte	0xaf
 1841 0b58 1E       		.byte	0x1e
 1842 0b59 01       		.uleb128 0x1
 1843 0b5a 20060000 		.4byte	.LASF163
 1844 0b5e 04       		.byte	0x4
 1845 0b5f 4E       		.byte	0x4e
 1846 0b60 0D       		.byte	0xd
 1847 0b61 AF000000 		.4byte	0xaf
 1848 0b65 1F       		.byte	0x1f
 1849 0b66 01       		.uleb128 0x1
 1850 0b67 D0000000 		.4byte	.LASF164
 1851 0b6b 04       		.byte	0x4
 1852 0b6c 4F       		.byte	0x4f
 1853 0b6d 0D       		.byte	0xd
 1854 0b6e AF000000 		.4byte	0xaf
 1855 0b72 20       		.byte	0x20
 1856 0b73 01       		.uleb128 0x1
 1857 0b74 65060000 		.4byte	.LASF165
 1858 0b78 04       		.byte	0x4
 1859 0b79 50       		.byte	0x50
 1860 0b7a 0D       		.byte	0xd
 1861 0b7b DF0B0000 		.4byte	0xbdf
 1862 0b7f 21       		.byte	0x21
 1863 0b80 01       		.uleb128 0x1
 1864 0b81 B2070000 		.4byte	.LASF166
 1865 0b85 04       		.byte	0x4
 1866 0b86 51       		.byte	0x51
 1867 0b87 0D       		.byte	0xd
 1868 0b88 AF000000 		.4byte	0xaf
 1869 0b8c 25       		.byte	0x25
 1870 0b8d 01       		.uleb128 0x1
 1871 0b8e 3E000000 		.4byte	.LASF167
 1872 0b92 04       		.byte	0x4
 1873 0b93 53       		.byte	0x53
 1874 0b94 0D       		.byte	0xd
 1875 0b95 AF000000 		.4byte	0xaf
 1876 0b99 26       		.byte	0x26
 1877 0b9a 01       		.uleb128 0x1
 1878 0b9b 4C040000 		.4byte	.LASF168
 1879 0b9f 04       		.byte	0x4
 1880 0ba0 54       		.byte	0x54
ARM GAS  C:\Users\DEVELO~1\AppData\Local\Temp\ccpGChTz.s 			page 34


 1881 0ba1 0D       		.byte	0xd
 1882 0ba2 AF000000 		.4byte	0xaf
 1883 0ba6 27       		.byte	0x27
 1884 0ba7 01       		.uleb128 0x1
 1885 0ba8 76020000 		.4byte	.LASF169
 1886 0bac 04       		.byte	0x4
 1887 0bad 55       		.byte	0x55
 1888 0bae 0D       		.byte	0xd
 1889 0baf AF000000 		.4byte	0xaf
 1890 0bb3 28       		.byte	0x28
 1891 0bb4 01       		.uleb128 0x1
 1892 0bb5 75010000 		.4byte	.LASF170
 1893 0bb9 04       		.byte	0x4
 1894 0bba 56       		.byte	0x56
 1895 0bbb 0D       		.byte	0xd
 1896 0bbc AF000000 		.4byte	0xaf
 1897 0bc0 29       		.byte	0x29
 1898 0bc1 01       		.uleb128 0x1
 1899 0bc2 00000000 		.4byte	.LASF171
 1900 0bc6 04       		.byte	0x4
 1901 0bc7 57       		.byte	0x57
 1902 0bc8 0D       		.byte	0xd
 1903 0bc9 AF000000 		.4byte	0xaf
 1904 0bcd 2A       		.byte	0x2a
 1905 0bce 00       		.byte	0
 1906 0bcf 10       		.uleb128 0x10
 1907 0bd0 53030000 		.4byte	0x353
 1908 0bd4 DF0B0000 		.4byte	0xbdf
 1909 0bd8 11       		.uleb128 0x11
 1910 0bd9 2D000000 		.4byte	0x2d
 1911 0bdd 03       		.byte	0x3
 1912 0bde 00       		.byte	0
 1913 0bdf 10       		.uleb128 0x10
 1914 0be0 AF000000 		.4byte	0xaf
 1915 0be4 EF0B0000 		.4byte	0xbef
 1916 0be8 11       		.uleb128 0x11
 1917 0be9 2D000000 		.4byte	0x2d
 1918 0bed 03       		.byte	0x3
 1919 0bee 00       		.byte	0
 1920 0bef 02       		.uleb128 0x2
 1921 0bf0 DD010000 		.4byte	.LASF172
 1922 0bf4 04       		.byte	0x4
 1923 0bf5 58       		.byte	0x58
 1924 0bf6 03       		.byte	0x3
 1925 0bf7 180A0000 		.4byte	0xa18
 1926 0bfb 0F       		.uleb128 0xf
 1927 0bfc EF0B0000 		.4byte	0xbef
 1928 0c00 2B       		.uleb128 0x2b
 1929 0c01 83030000 		.4byte	.LASF173
 1930 0c05 04       		.byte	0x4
 1931 0c06 7F       		.byte	0x7f
 1932 0c07 1D       		.byte	0x1d
 1933 0c08 FB0B0000 		.4byte	0xbfb
 1934 0c0c 02       		.uleb128 0x2
 1935 0c0d D0020000 		.4byte	.LASF174
 1936 0c11 12       		.byte	0x12
 1937 0c12 34       		.byte	0x34
ARM GAS  C:\Users\DEVELO~1\AppData\Local\Temp\ccpGChTz.s 			page 35


 1938 0c13 19       		.byte	0x19
 1939 0c14 57080000 		.4byte	0x857
 1940 0c18 04       		.uleb128 0x4
 1941 0c19 0C0C0000 		.4byte	0xc0c
 1942 0c1d 05       		.uleb128 0x5
 1943 0c1e 01       		.byte	0x1
 1944 0c1f 02       		.byte	0x2
 1945 0c20 86060000 		.4byte	.LASF175
 1946 0c24 2C       		.uleb128 0x2c
 1947 0c25 0B070000 		.4byte	.LASF197
 1948 0c29 06       		.byte	0x6
 1949 0c2a 3A       		.byte	0x3a
 1950 0c2b 0D       		.byte	0xd
 1951 0c2c 6B030000 		.4byte	0x36b
 1952 0c30 1D       		.uleb128 0x1d
 1953 0c31 87020000 		.4byte	.LASF176
 1954 0c35 2A01     		.2byte	0x12a
 1955 0c37 0D       		.byte	0xd
 1956 0c38 A4040000 		.4byte	0x4a4
 1957 0c3c 460C0000 		.4byte	0xc46
 1958 0c40 0A       		.uleb128 0xa
 1959 0c41 460C0000 		.4byte	0xc46
 1960 0c45 00       		.byte	0
 1961 0c46 04       		.uleb128 0x4
 1962 0c47 130A0000 		.4byte	0xa13
 1963 0c4b 1D       		.uleb128 0x1d
 1964 0c4c BF060000 		.4byte	.LASF177
 1965 0c50 2101     		.2byte	0x121
 1966 0c52 0E       		.byte	0xe
 1967 0c53 A4040000 		.4byte	0x4a4
 1968 0c57 700C0000 		.4byte	0xc70
 1969 0c5b 0A       		.uleb128 0xa
 1970 0c5c 91080000 		.4byte	0x891
 1971 0c60 0A       		.uleb128 0xa
 1972 0c61 A4040000 		.4byte	0x4a4
 1973 0c65 0A       		.uleb128 0xa
 1974 0c66 49030000 		.4byte	0x349
 1975 0c6a 0A       		.uleb128 0xa
 1976 0c6b 44010000 		.4byte	0x144
 1977 0c6f 00       		.byte	0
 1978 0c70 2D       		.uleb128 0x2d
 1979 0c71 04020000 		.4byte	.LASF178
 1980 0c75 0E       		.byte	0xe
 1981 0c76 FB       		.byte	0xfb
 1982 0c77 08       		.byte	0x8
 1983 0c78 820C0000 		.4byte	0xc82
 1984 0c7c 0A       		.uleb128 0xa
 1985 0c7d 820C0000 		.4byte	0xc82
 1986 0c81 00       		.byte	0
 1987 0c82 04       		.uleb128 0x4
 1988 0c83 04060000 		.4byte	0x604
 1989 0c87 2E       		.uleb128 0x2e
 1990 0c88 6A040000 		.4byte	.LASF179
 1991 0c8c 0F       		.byte	0xf
 1992 0c8d E202     		.2byte	0x2e2
 1993 0c8f 08       		.byte	0x8
 1994 0c90 9A0C0000 		.4byte	0xc9a
ARM GAS  C:\Users\DEVELO~1\AppData\Local\Temp\ccpGChTz.s 			page 36


 1995 0c94 0A       		.uleb128 0xa
 1996 0c95 91080000 		.4byte	0x891
 1997 0c99 00       		.byte	0
 1998 0c9a 2F       		.uleb128 0x2f
 1999 0c9b 0E000000 		.4byte	.LASF198
 2000 0c9f 01       		.byte	0x1
 2001 0ca0 59       		.byte	0x59
 2002 0ca1 06       		.byte	0x6
 2003 0ca2 00000000 		.4byte	.LFB347
 2004 0ca6 98000000 		.4byte	.LFE347-.LFB347
 2005 0caa 01       		.uleb128 0x1
 2006 0cab 9C       		.byte	0x9c
 2007 0cac 780E0000 		.4byte	0xe78
 2008 0cb0 1E       		.uleb128 0x1e
 2009 0cb1 6F697000 		.ascii	"oip\000"
 2010 0cb5 59       		.byte	0x59
 2011 0cb6 2A       		.byte	0x2a
 2012 0cb7 91080000 		.4byte	0x891
 2013 0cbb 12000000 		.4byte	.LLST1
 2014 0cbf 0C000000 		.4byte	.LVUS1
 2015 0cc3 30       		.uleb128 0x30
 2016 0cc4 87050000 		.4byte	.LASF180
 2017 0cc8 01       		.byte	0x1
 2018 0cc9 5A       		.byte	0x5a
 2019 0cca 37       		.byte	0x37
 2020 0ccb 2F090000 		.4byte	0x92f
 2021 0ccf 33000000 		.4byte	.LLST2
 2022 0cd3 2D000000 		.4byte	.LVUS2
 2023 0cd7 31       		.uleb128 0x31
 2024 0cd8 F4020000 		.4byte	.LASF52
 2025 0cdc 01       		.byte	0x1
 2026 0cdd 5B       		.byte	0x5b
 2027 0cde 0D       		.byte	0xd
 2028 0cdf 74010000 		.4byte	0x174
 2029 0ce3 00       		.byte	0
 2030 0ce4 32       		.uleb128 0x32
 2031 0ce5 18070000 		.4byte	.LASF199
 2032 0ce9 880E0000 		.4byte	0xe88
 2033 0ced 33       		.uleb128 0x33
 2034 0cee 66000000 		.4byte	.LLRL15
 2035 0cf2 160D0000 		.4byte	0xd16
 2036 0cf6 34       		.uleb128 0x34
 2037 0cf7 FE050000 		.4byte	.LASF181
 2038 0cfb 01       		.byte	0x1
 2039 0cfc A7       		.byte	0xa7
 2040 0cfd 19       		.byte	0x19
 2041 0cfe 070A0000 		.4byte	0xa07
 2042 0d02 02       		.uleb128 0x2
 2043 0d03 91       		.byte	0x91
 2044 0d04 58       		.sleb128 -40
 2045 0d05 1F       		.uleb128 0x1f
 2046 0d06 84000000 		.4byte	.LVL9
 2047 0d0a 300C0000 		.4byte	0xc30
 2048 0d0e 0D       		.uleb128 0xd
 2049 0d0f 01       		.uleb128 0x1
 2050 0d10 50       		.byte	0x50
 2051 0d11 02       		.uleb128 0x2
ARM GAS  C:\Users\DEVELO~1\AppData\Local\Temp\ccpGChTz.s 			page 37


 2052 0d12 7D       		.byte	0x7d
 2053 0d13 00       		.sleb128 0
 2054 0d14 00       		.byte	0
 2055 0d15 00       		.byte	0
 2056 0d16 14       		.uleb128 0x14
 2057 0d17 2A0F0000 		.4byte	0xf2a
 2058 0d1b 16000000 		.4byte	.LBI32
 2059 0d1f 01       		.byte	.LVU23
 2060 0d20 0C000000 		.4byte	.LLRL3
 2061 0d24 70       		.byte	0x70
 2062 0d25 370D0000 		.4byte	0xd37
 2063 0d29 0E       		.uleb128 0xe
 2064 0d2a 360F0000 		.4byte	0xf36
 2065 0d2e 50000000 		.4byte	.LLST4
 2066 0d32 4E000000 		.4byte	.LVUS4
 2067 0d36 00       		.byte	0
 2068 0d37 14       		.uleb128 0x14
 2069 0d38 D10E0000 		.4byte	0xed1
 2070 0d3c 36000000 		.4byte	.LBI36
 2071 0d40 0D       		.byte	.LVU47
 2072 0d41 1B000000 		.4byte	.LLRL5
 2073 0d45 7D       		.byte	0x7d
 2074 0d46 AA0D0000 		.4byte	0xdaa
 2075 0d4a 0E       		.uleb128 0xe
 2076 0d4b DD0E0000 		.4byte	0xedd
 2077 0d4f 5D000000 		.4byte	.LLST6
 2078 0d53 59000000 		.4byte	.LVUS6
 2079 0d57 35       		.uleb128 0x35
 2080 0d58 100F0000 		.4byte	0xf10
 2081 0d5c 36000000 		.4byte	.LBI38
 2082 0d60 0F       		.byte	.LVU49
 2083 0d61 30000000 		.4byte	.LLRL7
 2084 0d65 03       		.byte	0x3
 2085 0d66 FF01     		.2byte	0x1ff
 2086 0d68 03       		.byte	0x3
 2087 0d69 730D0000 		.4byte	0xd73
 2088 0d6d 36       		.uleb128 0x36
 2089 0d6e 1C0F0000 		.4byte	0xf1c
 2090 0d72 00       		.byte	0
 2091 0d73 37       		.uleb128 0x37
 2092 0d74 F00E0000 		.4byte	0xef0
 2093 0d78 36000000 		.4byte	.LBI44
 2094 0d7c 14       		.byte	.LVU54
 2095 0d7d 36000000 		.4byte	.LBB44
 2096 0d81 04000000 		.4byte	.LBE44-.LBB44
 2097 0d85 03       		.byte	0x3
 2098 0d86 0602     		.2byte	0x206
 2099 0d88 25       		.byte	0x25
 2100 0d89 38       		.uleb128 0x38
 2101 0d8a FB0E0000 		.4byte	0xefb
 2102 0d8e 36000000 		.4byte	.LBI45
 2103 0d92 16       		.byte	.LVU56
 2104 0d93 36000000 		.4byte	.LBB45
 2105 0d97 04000000 		.4byte	.LBE45-.LBB45
 2106 0d9b 03       		.byte	0x3
 2107 0d9c 7F       		.byte	0x7f
 2108 0d9d 0A       		.byte	0xa
ARM GAS  C:\Users\DEVELO~1\AppData\Local\Temp\ccpGChTz.s 			page 38


 2109 0d9e 39       		.uleb128 0x39
 2110 0d9f 3A000000 		.4byte	.LVL4
 2111 0da3 240C0000 		.4byte	0xc24
 2112 0da7 00       		.byte	0
 2113 0da8 00       		.byte	0
 2114 0da9 00       		.byte	0
 2115 0daa 14       		.uleb128 0x14
 2116 0dab B50E0000 		.4byte	0xeb5
 2117 0daf 36000000 		.4byte	.LBI51
 2118 0db3 03       		.byte	.LVU37
 2119 0db4 3F000000 		.4byte	.LLRL8
 2120 0db8 74       		.byte	0x74
 2121 0db9 EA0D0000 		.4byte	0xdea
 2122 0dbd 0E       		.uleb128 0xe
 2123 0dbe C00E0000 		.4byte	0xec0
 2124 0dc2 72000000 		.4byte	.LLST9
 2125 0dc6 70000000 		.4byte	.LVUS9
 2126 0dca 3A       		.uleb128 0x3a
 2127 0dcb 440F0000 		.4byte	0xf44
 2128 0dcf 36000000 		.4byte	.LBI53
 2129 0dd3 05       		.byte	.LVU39
 2130 0dd4 4E000000 		.4byte	.LLRL10
 2131 0dd8 04       		.byte	0x4
 2132 0dd9 99       		.byte	0x99
 2133 0dda 03       		.byte	0x3
 2134 0ddb 0E       		.uleb128 0xe
 2135 0ddc 4F0F0000 		.4byte	0xf4f
 2136 0de0 7D000000 		.4byte	.LLST11
 2137 0de4 7B000000 		.4byte	.LVUS11
 2138 0de8 00       		.byte	0
 2139 0de9 00       		.byte	0
 2140 0dea 14       		.uleb128 0x14
 2141 0deb 780F0000 		.4byte	0xf78
 2142 0def 36000000 		.4byte	.LBI60
 2143 0df3 09       		.byte	.LVU43
 2144 0df4 5A000000 		.4byte	.LLRL12
 2145 0df8 79       		.byte	0x79
 2146 0df9 0B0E0000 		.4byte	0xe0b
 2147 0dfd 0E       		.uleb128 0xe
 2148 0dfe 830F0000 		.4byte	0xf83
 2149 0e02 88000000 		.4byte	.LLST13
 2150 0e06 86000000 		.4byte	.LVUS13
 2151 0e0a 00       		.byte	0
 2152 0e0b 3B       		.uleb128 0x3b
 2153 0e0c 5B0F0000 		.4byte	0xf5b
 2154 0e10 46000000 		.4byte	.LBI71
 2155 0e14 02       		.byte	.LVU65
 2156 0e15 46000000 		.4byte	.LBB71
 2157 0e19 04000000 		.4byte	.LBE71-.LBB71
 2158 0e1d 01       		.byte	0x1
 2159 0e1e 80       		.byte	0x80
 2160 0e1f 03       		.byte	0x3
 2161 0e20 320E0000 		.4byte	0xe32
 2162 0e24 0E       		.uleb128 0xe
 2163 0e25 660F0000 		.4byte	0xf66
 2164 0e29 95000000 		.4byte	.LLST14
 2165 0e2d 93000000 		.4byte	.LVUS14
ARM GAS  C:\Users\DEVELO~1\AppData\Local\Temp\ccpGChTz.s 			page 39


 2166 0e31 00       		.byte	0
 2167 0e32 20       		.uleb128 0x20
 2168 0e33 16000000 		.4byte	.LVL2
 2169 0e37 870C0000 		.4byte	0xc87
 2170 0e3b 460E0000 		.4byte	0xe46
 2171 0e3f 0D       		.uleb128 0xd
 2172 0e40 01       		.uleb128 0x1
 2173 0e41 50       		.byte	0x50
 2174 0e42 02       		.uleb128 0x2
 2175 0e43 74       		.byte	0x74
 2176 0e44 00       		.sleb128 0
 2177 0e45 00       		.byte	0
 2178 0e46 20       		.uleb128 0x20
 2179 0e47 4E000000 		.4byte	.LVL7
 2180 0e4b 700C0000 		.4byte	0xc70
 2181 0e4f 5B0E0000 		.4byte	0xe5b
 2182 0e53 0D       		.uleb128 0xd
 2183 0e54 01       		.uleb128 0x1
 2184 0e55 50       		.byte	0x50
 2185 0e56 03       		.uleb128 0x3
 2186 0e57 74       		.byte	0x74
 2187 0e58 8801     		.sleb128 136
 2188 0e5a 00       		.byte	0
 2189 0e5b 1F       		.uleb128 0x1f
 2190 0e5c 5C000000 		.4byte	.LVL8
 2191 0e60 4B0C0000 		.4byte	0xc4b
 2192 0e64 0D       		.uleb128 0xd
 2193 0e65 01       		.uleb128 0x1
 2194 0e66 50       		.byte	0x50
 2195 0e67 02       		.uleb128 0x2
 2196 0e68 74       		.byte	0x74
 2197 0e69 00       		.sleb128 0
 2198 0e6a 0D       		.uleb128 0xd
 2199 0e6b 01       		.uleb128 0x1
 2200 0e6c 51       		.byte	0x51
 2201 0e6d 02       		.uleb128 0x2
 2202 0e6e 74       		.byte	0x74
 2203 0e6f 3C       		.sleb128 60
 2204 0e70 0D       		.uleb128 0xd
 2205 0e71 01       		.uleb128 0x1
 2206 0e72 53       		.byte	0x53
 2207 0e73 02       		.uleb128 0x2
 2208 0e74 08       		.byte	0x8
 2209 0e75 80       		.byte	0x80
 2210 0e76 00       		.byte	0
 2211 0e77 00       		.byte	0
 2212 0e78 10       		.uleb128 0x10
 2213 0e79 5A030000 		.4byte	0x35a
 2214 0e7d 880E0000 		.4byte	0xe88
 2215 0e81 11       		.uleb128 0x11
 2216 0e82 2D000000 		.4byte	0x2d
 2217 0e86 14       		.byte	0x14
 2218 0e87 00       		.byte	0
 2219 0e88 0F       		.uleb128 0xf
 2220 0e89 780E0000 		.4byte	0xe78
 2221 0e8d 3C       		.uleb128 0x3c
 2222 0e8e D7070000 		.4byte	.LASF200
ARM GAS  C:\Users\DEVELO~1\AppData\Local\Temp\ccpGChTz.s 			page 40


 2223 0e92 01       		.byte	0x1
 2224 0e93 3E       		.byte	0x3e
 2225 0e94 0D       		.byte	0xd
 2226 0e95 00000000 		.4byte	.LFB346
 2227 0e99 02000000 		.4byte	.LFE346-.LFB346
 2228 0e9d 01       		.uleb128 0x1
 2229 0e9e 9C       		.byte	0x9c
 2230 0e9f B50E0000 		.4byte	0xeb5
 2231 0ea3 1E       		.uleb128 0x1e
 2232 0ea4 7000     		.ascii	"p\000"
 2233 0ea6 3E       		.byte	0x3e
 2234 0ea7 21       		.byte	0x21
 2235 0ea8 A9040000 		.4byte	0x4a9
 2236 0eac A3000000 		.4byte	.LLST0
 2237 0eb0 A1000000 		.4byte	.LVUS0
 2238 0eb4 00       		.byte	0
 2239 0eb5 15       		.uleb128 0x15
 2240 0eb6 5D010000 		.4byte	.LASF182
 2241 0eba 04       		.byte	0x4
 2242 0ebb 97       		.byte	0x97
 2243 0ebc CC0E0000 		.4byte	0xecc
 2244 0ec0 1A       		.uleb128 0x1a
 2245 0ec1 727000   		.ascii	"rp\000"
 2246 0ec4 04       		.byte	0x4
 2247 0ec5 97       		.byte	0x97
 2248 0ec6 32       		.byte	0x32
 2249 0ec7 CC0E0000 		.4byte	0xecc
 2250 0ecb 00       		.byte	0
 2251 0ecc 04       		.uleb128 0x4
 2252 0ecd 77070000 		.4byte	0x777
 2253 0ed1 1B       		.uleb128 0x1b
 2254 0ed2 5F090000 		.4byte	.LASF183
 2255 0ed6 03       		.byte	0x3
 2256 0ed7 FD01     		.2byte	0x1fd
 2257 0ed9 EB0E0000 		.4byte	0xeeb
 2258 0edd 21       		.uleb128 0x21
 2259 0ede FF010000 		.4byte	.LASF184
 2260 0ee2 03       		.byte	0x3
 2261 0ee3 FD01     		.2byte	0x1fd
 2262 0ee5 3C       		.byte	0x3c
 2263 0ee6 EB0E0000 		.4byte	0xeeb
 2264 0eea 00       		.byte	0
 2265 0eeb 04       		.uleb128 0x4
 2266 0eec 50070000 		.4byte	0x750
 2267 0ef0 22       		.uleb128 0x22
 2268 0ef1 BE050000 		.4byte	.LASF185
 2269 0ef5 03       		.byte	0x3
 2270 0ef6 7A       		.byte	0x7a
 2271 0ef7 6B030000 		.4byte	0x36b
 2272 0efb 22       		.uleb128 0x22
 2273 0efc A6080000 		.4byte	.LASF186
 2274 0f00 06       		.byte	0x6
 2275 0f01 6F       		.byte	0x6f
 2276 0f02 6B030000 		.4byte	0x36b
 2277 0f06 3D       		.uleb128 0x3d
 2278 0f07 99040000 		.4byte	.LASF201
 2279 0f0b 0F       		.byte	0xf
ARM GAS  C:\Users\DEVELO~1\AppData\Local\Temp\ccpGChTz.s 			page 41


 2280 0f0c 8A03     		.2byte	0x38a
 2281 0f0e 1B       		.byte	0x1b
 2282 0f0f 03       		.byte	0x3
 2283 0f10 1B       		.uleb128 0x1b
 2284 0f11 87090000 		.4byte	.LASF187
 2285 0f15 02       		.byte	0x2
 2286 0f16 AA01     		.2byte	0x1aa
 2287 0f18 2A0F0000 		.4byte	0xf2a
 2288 0f1c 21       		.uleb128 0x21
 2289 0f1d BA080000 		.4byte	.LASF188
 2290 0f21 02       		.byte	0x2
 2291 0f22 AA01     		.2byte	0x1aa
 2292 0f24 33       		.byte	0x33
 2293 0f25 7B040000 		.4byte	0x47b
 2294 0f29 00       		.byte	0
 2295 0f2a 1B       		.uleb128 0x1b
 2296 0f2b 0E090000 		.4byte	.LASF189
 2297 0f2f 02       		.byte	0x2
 2298 0f30 5001     		.2byte	0x150
 2299 0f32 440F0000 		.4byte	0xf44
 2300 0f36 3E       		.uleb128 0x3e
 2301 0f37 70717000 		.ascii	"pqp\000"
 2302 0f3b 02       		.byte	0x2
 2303 0f3c 5001     		.2byte	0x150
 2304 0f3e 38       		.byte	0x38
 2305 0f3f 35040000 		.4byte	0x435
 2306 0f43 00       		.byte	0
 2307 0f44 15       		.uleb128 0x15
 2308 0f45 72070000 		.4byte	.LASF190
 2309 0f49 02       		.byte	0x2
 2310 0f4a DE       		.byte	0xde
 2311 0f4b 5B0F0000 		.4byte	0xf5b
 2312 0f4f 1A       		.uleb128 0x1a
 2313 0f50 717000   		.ascii	"qp\000"
 2314 0f53 02       		.byte	0x2
 2315 0f54 DE       		.byte	0xde
 2316 0f55 2E       		.byte	0x2e
 2317 0f56 EF030000 		.4byte	0x3ef
 2318 0f5a 00       		.byte	0
 2319 0f5b 15       		.uleb128 0x15
 2320 0f5c 4B010000 		.4byte	.LASF191
 2321 0f60 07       		.byte	0x7
 2322 0f61 C0       		.byte	0xc0
 2323 0f62 730F0000 		.4byte	0xf73
 2324 0f66 1A       		.uleb128 0x1a
 2325 0f67 73647000 		.ascii	"sdp\000"
 2326 0f6b 07       		.byte	0x7
 2327 0f6c C0       		.byte	0xc0
 2328 0f6d 36       		.byte	0x36
 2329 0f6e 730F0000 		.4byte	0xf73
 2330 0f72 00       		.byte	0
 2331 0f73 04       		.uleb128 0x4
 2332 0f74 5F030000 		.4byte	0x35f
 2333 0f78 15       		.uleb128 0x15
 2334 0f79 18030000 		.4byte	.LASF192
 2335 0f7d 05       		.byte	0x5
 2336 0f7e 68       		.byte	0x68
ARM GAS  C:\Users\DEVELO~1\AppData\Local\Temp\ccpGChTz.s 			page 42


 2337 0f7f 900F0000 		.4byte	0xf90
 2338 0f83 3F       		.uleb128 0x3f
 2339 0f84 E5070000 		.4byte	.LASF193
 2340 0f88 05       		.byte	0x5
 2341 0f89 68       		.byte	0x68
 2342 0f8a 2F       		.byte	0x2f
 2343 0f8b 900F0000 		.4byte	0xf90
 2344 0f8f 00       		.byte	0
 2345 0f90 04       		.uleb128 0x4
 2346 0f91 22030000 		.4byte	0x322
 2347 0f95 00       		.byte	0
 2348              		.section	.debug_abbrev,"",%progbits
 2349              	.Ldebug_abbrev0:
 2350 0000 01       		.uleb128 0x1
 2351 0001 0D       		.uleb128 0xd
 2352 0002 00       		.byte	0
 2353 0003 03       		.uleb128 0x3
 2354 0004 0E       		.uleb128 0xe
 2355 0005 3A       		.uleb128 0x3a
 2356 0006 0B       		.uleb128 0xb
 2357 0007 3B       		.uleb128 0x3b
 2358 0008 0B       		.uleb128 0xb
 2359 0009 39       		.uleb128 0x39
 2360 000a 0B       		.uleb128 0xb
 2361 000b 49       		.uleb128 0x49
 2362 000c 13       		.uleb128 0x13
 2363 000d 38       		.uleb128 0x38
 2364 000e 0B       		.uleb128 0xb
 2365 000f 00       		.byte	0
 2366 0010 00       		.byte	0
 2367 0011 02       		.uleb128 0x2
 2368 0012 16       		.uleb128 0x16
 2369 0013 00       		.byte	0
 2370 0014 03       		.uleb128 0x3
 2371 0015 0E       		.uleb128 0xe
 2372 0016 3A       		.uleb128 0x3a
 2373 0017 0B       		.uleb128 0xb
 2374 0018 3B       		.uleb128 0x3b
 2375 0019 0B       		.uleb128 0xb
 2376 001a 39       		.uleb128 0x39
 2377 001b 0B       		.uleb128 0xb
 2378 001c 49       		.uleb128 0x49
 2379 001d 13       		.uleb128 0x13
 2380 001e 00       		.byte	0
 2381 001f 00       		.byte	0
 2382 0020 03       		.uleb128 0x3
 2383 0021 0D       		.uleb128 0xd
 2384 0022 00       		.byte	0
 2385 0023 03       		.uleb128 0x3
 2386 0024 0E       		.uleb128 0xe
 2387 0025 3A       		.uleb128 0x3a
 2388 0026 21       		.uleb128 0x21
 2389 0027 0C       		.sleb128 12
 2390 0028 3B       		.uleb128 0x3b
 2391 0029 05       		.uleb128 0x5
 2392 002a 39       		.uleb128 0x39
 2393 002b 0B       		.uleb128 0xb
ARM GAS  C:\Users\DEVELO~1\AppData\Local\Temp\ccpGChTz.s 			page 43


 2394 002c 49       		.uleb128 0x49
 2395 002d 13       		.uleb128 0x13
 2396 002e 38       		.uleb128 0x38
 2397 002f 0B       		.uleb128 0xb
 2398 0030 00       		.byte	0
 2399 0031 00       		.byte	0
 2400 0032 04       		.uleb128 0x4
 2401 0033 0F       		.uleb128 0xf
 2402 0034 00       		.byte	0
 2403 0035 0B       		.uleb128 0xb
 2404 0036 21       		.uleb128 0x21
 2405 0037 04       		.sleb128 4
 2406 0038 49       		.uleb128 0x49
 2407 0039 13       		.uleb128 0x13
 2408 003a 00       		.byte	0
 2409 003b 00       		.byte	0
 2410 003c 05       		.uleb128 0x5
 2411 003d 24       		.uleb128 0x24
 2412 003e 00       		.byte	0
 2413 003f 0B       		.uleb128 0xb
 2414 0040 0B       		.uleb128 0xb
 2415 0041 3E       		.uleb128 0x3e
 2416 0042 0B       		.uleb128 0xb
 2417 0043 03       		.uleb128 0x3
 2418 0044 0E       		.uleb128 0xe
 2419 0045 00       		.byte	0
 2420 0046 00       		.byte	0
 2421 0047 06       		.uleb128 0x6
 2422 0048 0D       		.uleb128 0xd
 2423 0049 00       		.byte	0
 2424 004a 03       		.uleb128 0x3
 2425 004b 08       		.uleb128 0x8
 2426 004c 3A       		.uleb128 0x3a
 2427 004d 0B       		.uleb128 0xb
 2428 004e 3B       		.uleb128 0x3b
 2429 004f 05       		.uleb128 0x5
 2430 0050 39       		.uleb128 0x39
 2431 0051 0B       		.uleb128 0xb
 2432 0052 49       		.uleb128 0x49
 2433 0053 13       		.uleb128 0x13
 2434 0054 38       		.uleb128 0x38
 2435 0055 0B       		.uleb128 0xb
 2436 0056 00       		.byte	0
 2437 0057 00       		.byte	0
 2438 0058 07       		.uleb128 0x7
 2439 0059 13       		.uleb128 0x13
 2440 005a 01       		.byte	0x1
 2441 005b 03       		.uleb128 0x3
 2442 005c 0E       		.uleb128 0xe
 2443 005d 0B       		.uleb128 0xb
 2444 005e 0B       		.uleb128 0xb
 2445 005f 3A       		.uleb128 0x3a
 2446 0060 0B       		.uleb128 0xb
 2447 0061 3B       		.uleb128 0x3b
 2448 0062 0B       		.uleb128 0xb
 2449 0063 39       		.uleb128 0x39
 2450 0064 0B       		.uleb128 0xb
ARM GAS  C:\Users\DEVELO~1\AppData\Local\Temp\ccpGChTz.s 			page 44


 2451 0065 01       		.uleb128 0x1
 2452 0066 13       		.uleb128 0x13
 2453 0067 00       		.byte	0
 2454 0068 00       		.byte	0
 2455 0069 08       		.uleb128 0x8
 2456 006a 0D       		.uleb128 0xd
 2457 006b 00       		.byte	0
 2458 006c 03       		.uleb128 0x3
 2459 006d 08       		.uleb128 0x8
 2460 006e 3A       		.uleb128 0x3a
 2461 006f 0B       		.uleb128 0xb
 2462 0070 3B       		.uleb128 0x3b
 2463 0071 0B       		.uleb128 0xb
 2464 0072 39       		.uleb128 0x39
 2465 0073 0B       		.uleb128 0xb
 2466 0074 49       		.uleb128 0x49
 2467 0075 13       		.uleb128 0x13
 2468 0076 38       		.uleb128 0x38
 2469 0077 0B       		.uleb128 0xb
 2470 0078 00       		.byte	0
 2471 0079 00       		.byte	0
 2472 007a 09       		.uleb128 0x9
 2473 007b 13       		.uleb128 0x13
 2474 007c 01       		.byte	0x1
 2475 007d 0B       		.uleb128 0xb
 2476 007e 0B       		.uleb128 0xb
 2477 007f 3A       		.uleb128 0x3a
 2478 0080 0B       		.uleb128 0xb
 2479 0081 3B       		.uleb128 0x3b
 2480 0082 0B       		.uleb128 0xb
 2481 0083 39       		.uleb128 0x39
 2482 0084 0B       		.uleb128 0xb
 2483 0085 01       		.uleb128 0x1
 2484 0086 13       		.uleb128 0x13
 2485 0087 00       		.byte	0
 2486 0088 00       		.byte	0
 2487 0089 0A       		.uleb128 0xa
 2488 008a 05       		.uleb128 0x5
 2489 008b 00       		.byte	0
 2490 008c 49       		.uleb128 0x49
 2491 008d 13       		.uleb128 0x13
 2492 008e 00       		.byte	0
 2493 008f 00       		.byte	0
 2494 0090 0B       		.uleb128 0xb
 2495 0091 0D       		.uleb128 0xd
 2496 0092 00       		.byte	0
 2497 0093 03       		.uleb128 0x3
 2498 0094 0E       		.uleb128 0xe
 2499 0095 3A       		.uleb128 0x3a
 2500 0096 0B       		.uleb128 0xb
 2501 0097 3B       		.uleb128 0x3b
 2502 0098 0B       		.uleb128 0xb
 2503 0099 39       		.uleb128 0x39
 2504 009a 0B       		.uleb128 0xb
 2505 009b 49       		.uleb128 0x49
 2506 009c 13       		.uleb128 0x13
 2507 009d 00       		.byte	0
ARM GAS  C:\Users\DEVELO~1\AppData\Local\Temp\ccpGChTz.s 			page 45


 2508 009e 00       		.byte	0
 2509 009f 0C       		.uleb128 0xc
 2510 00a0 0D       		.uleb128 0xd
 2511 00a1 00       		.byte	0
 2512 00a2 03       		.uleb128 0x3
 2513 00a3 0E       		.uleb128 0xe
 2514 00a4 3A       		.uleb128 0x3a
 2515 00a5 21       		.uleb128 0x21
 2516 00a6 0C       		.sleb128 12
 2517 00a7 3B       		.uleb128 0x3b
 2518 00a8 05       		.uleb128 0x5
 2519 00a9 39       		.uleb128 0x39
 2520 00aa 0B       		.uleb128 0xb
 2521 00ab 49       		.uleb128 0x49
 2522 00ac 13       		.uleb128 0x13
 2523 00ad 00       		.byte	0
 2524 00ae 00       		.byte	0
 2525 00af 0D       		.uleb128 0xd
 2526 00b0 49       		.uleb128 0x49
 2527 00b1 00       		.byte	0
 2528 00b2 02       		.uleb128 0x2
 2529 00b3 18       		.uleb128 0x18
 2530 00b4 7E       		.uleb128 0x7e
 2531 00b5 18       		.uleb128 0x18
 2532 00b6 00       		.byte	0
 2533 00b7 00       		.byte	0
 2534 00b8 0E       		.uleb128 0xe
 2535 00b9 05       		.uleb128 0x5
 2536 00ba 00       		.byte	0
 2537 00bb 31       		.uleb128 0x31
 2538 00bc 13       		.uleb128 0x13
 2539 00bd 02       		.uleb128 0x2
 2540 00be 17       		.uleb128 0x17
 2541 00bf B742     		.uleb128 0x2137
 2542 00c1 17       		.uleb128 0x17
 2543 00c2 00       		.byte	0
 2544 00c3 00       		.byte	0
 2545 00c4 0F       		.uleb128 0xf
 2546 00c5 26       		.uleb128 0x26
 2547 00c6 00       		.byte	0
 2548 00c7 49       		.uleb128 0x49
 2549 00c8 13       		.uleb128 0x13
 2550 00c9 00       		.byte	0
 2551 00ca 00       		.byte	0
 2552 00cb 10       		.uleb128 0x10
 2553 00cc 01       		.uleb128 0x1
 2554 00cd 01       		.byte	0x1
 2555 00ce 49       		.uleb128 0x49
 2556 00cf 13       		.uleb128 0x13
 2557 00d0 01       		.uleb128 0x1
 2558 00d1 13       		.uleb128 0x13
 2559 00d2 00       		.byte	0
 2560 00d3 00       		.byte	0
 2561 00d4 11       		.uleb128 0x11
 2562 00d5 21       		.uleb128 0x21
 2563 00d6 00       		.byte	0
 2564 00d7 49       		.uleb128 0x49
ARM GAS  C:\Users\DEVELO~1\AppData\Local\Temp\ccpGChTz.s 			page 46


 2565 00d8 13       		.uleb128 0x13
 2566 00d9 2F       		.uleb128 0x2f
 2567 00da 0B       		.uleb128 0xb
 2568 00db 00       		.byte	0
 2569 00dc 00       		.byte	0
 2570 00dd 12       		.uleb128 0x12
 2571 00de 13       		.uleb128 0x13
 2572 00df 01       		.byte	0x1
 2573 00e0 03       		.uleb128 0x3
 2574 00e1 0E       		.uleb128 0xe
 2575 00e2 0B       		.uleb128 0xb
 2576 00e3 0B       		.uleb128 0xb
 2577 00e4 3A       		.uleb128 0x3a
 2578 00e5 0B       		.uleb128 0xb
 2579 00e6 3B       		.uleb128 0x3b
 2580 00e7 05       		.uleb128 0x5
 2581 00e8 39       		.uleb128 0x39
 2582 00e9 0B       		.uleb128 0xb
 2583 00ea 01       		.uleb128 0x1
 2584 00eb 13       		.uleb128 0x13
 2585 00ec 00       		.byte	0
 2586 00ed 00       		.byte	0
 2587 00ee 13       		.uleb128 0x13
 2588 00ef 28       		.uleb128 0x28
 2589 00f0 00       		.byte	0
 2590 00f1 03       		.uleb128 0x3
 2591 00f2 0E       		.uleb128 0xe
 2592 00f3 1C       		.uleb128 0x1c
 2593 00f4 0B       		.uleb128 0xb
 2594 00f5 00       		.byte	0
 2595 00f6 00       		.byte	0
 2596 00f7 14       		.uleb128 0x14
 2597 00f8 1D       		.uleb128 0x1d
 2598 00f9 01       		.byte	0x1
 2599 00fa 31       		.uleb128 0x31
 2600 00fb 13       		.uleb128 0x13
 2601 00fc 52       		.uleb128 0x52
 2602 00fd 01       		.uleb128 0x1
 2603 00fe B842     		.uleb128 0x2138
 2604 0100 0B       		.uleb128 0xb
 2605 0101 55       		.uleb128 0x55
 2606 0102 17       		.uleb128 0x17
 2607 0103 58       		.uleb128 0x58
 2608 0104 21       		.uleb128 0x21
 2609 0105 01       		.sleb128 1
 2610 0106 59       		.uleb128 0x59
 2611 0107 0B       		.uleb128 0xb
 2612 0108 57       		.uleb128 0x57
 2613 0109 21       		.uleb128 0x21
 2614 010a 03       		.sleb128 3
 2615 010b 01       		.uleb128 0x1
 2616 010c 13       		.uleb128 0x13
 2617 010d 00       		.byte	0
 2618 010e 00       		.byte	0
 2619 010f 15       		.uleb128 0x15
 2620 0110 2E       		.uleb128 0x2e
 2621 0111 01       		.byte	0x1
ARM GAS  C:\Users\DEVELO~1\AppData\Local\Temp\ccpGChTz.s 			page 47


 2622 0112 03       		.uleb128 0x3
 2623 0113 0E       		.uleb128 0xe
 2624 0114 3A       		.uleb128 0x3a
 2625 0115 0B       		.uleb128 0xb
 2626 0116 3B       		.uleb128 0x3b
 2627 0117 0B       		.uleb128 0xb
 2628 0118 39       		.uleb128 0x39
 2629 0119 21       		.uleb128 0x21
 2630 011a 14       		.sleb128 20
 2631 011b 27       		.uleb128 0x27
 2632 011c 19       		.uleb128 0x19
 2633 011d 20       		.uleb128 0x20
 2634 011e 21       		.uleb128 0x21
 2635 011f 03       		.sleb128 3
 2636 0120 01       		.uleb128 0x1
 2637 0121 13       		.uleb128 0x13
 2638 0122 00       		.byte	0
 2639 0123 00       		.byte	0
 2640 0124 16       		.uleb128 0x16
 2641 0125 17       		.uleb128 0x17
 2642 0126 01       		.byte	0x1
 2643 0127 0B       		.uleb128 0xb
 2644 0128 0B       		.uleb128 0xb
 2645 0129 3A       		.uleb128 0x3a
 2646 012a 0B       		.uleb128 0xb
 2647 012b 3B       		.uleb128 0x3b
 2648 012c 0B       		.uleb128 0xb
 2649 012d 39       		.uleb128 0x39
 2650 012e 21       		.uleb128 0x21
 2651 012f 03       		.sleb128 3
 2652 0130 01       		.uleb128 0x1
 2653 0131 13       		.uleb128 0x13
 2654 0132 00       		.byte	0
 2655 0133 00       		.byte	0
 2656 0134 17       		.uleb128 0x17
 2657 0135 0D       		.uleb128 0xd
 2658 0136 00       		.byte	0
 2659 0137 03       		.uleb128 0x3
 2660 0138 08       		.uleb128 0x8
 2661 0139 3A       		.uleb128 0x3a
 2662 013a 21       		.uleb128 0x21
 2663 013b 0E       		.sleb128 14
 2664 013c 3B       		.uleb128 0x3b
 2665 013d 0B       		.uleb128 0xb
 2666 013e 39       		.uleb128 0x39
 2667 013f 21       		.uleb128 0x21
 2668 0140 07       		.sleb128 7
 2669 0141 49       		.uleb128 0x49
 2670 0142 13       		.uleb128 0x13
 2671 0143 00       		.byte	0
 2672 0144 00       		.byte	0
 2673 0145 18       		.uleb128 0x18
 2674 0146 0D       		.uleb128 0xd
 2675 0147 00       		.byte	0
 2676 0148 03       		.uleb128 0x3
 2677 0149 0E       		.uleb128 0xe
 2678 014a 3A       		.uleb128 0x3a
ARM GAS  C:\Users\DEVELO~1\AppData\Local\Temp\ccpGChTz.s 			page 48


 2679 014b 21       		.uleb128 0x21
 2680 014c 0E       		.sleb128 14
 2681 014d 3B       		.uleb128 0x3b
 2682 014e 0B       		.uleb128 0xb
 2683 014f 39       		.uleb128 0x39
 2684 0150 21       		.uleb128 0x21
 2685 0151 19       		.sleb128 25
 2686 0152 49       		.uleb128 0x49
 2687 0153 13       		.uleb128 0x13
 2688 0154 0D       		.uleb128 0xd
 2689 0155 0B       		.uleb128 0xb
 2690 0156 6B       		.uleb128 0x6b
 2691 0157 0B       		.uleb128 0xb
 2692 0158 00       		.byte	0
 2693 0159 00       		.byte	0
 2694 015a 19       		.uleb128 0x19
 2695 015b 16       		.uleb128 0x16
 2696 015c 00       		.byte	0
 2697 015d 03       		.uleb128 0x3
 2698 015e 0E       		.uleb128 0xe
 2699 015f 3A       		.uleb128 0x3a
 2700 0160 21       		.uleb128 0x21
 2701 0161 0C       		.sleb128 12
 2702 0162 3B       		.uleb128 0x3b
 2703 0163 05       		.uleb128 0x5
 2704 0164 39       		.uleb128 0x39
 2705 0165 21       		.uleb128 0x21
 2706 0166 03       		.sleb128 3
 2707 0167 49       		.uleb128 0x49
 2708 0168 13       		.uleb128 0x13
 2709 0169 00       		.byte	0
 2710 016a 00       		.byte	0
 2711 016b 1A       		.uleb128 0x1a
 2712 016c 05       		.uleb128 0x5
 2713 016d 00       		.byte	0
 2714 016e 03       		.uleb128 0x3
 2715 016f 08       		.uleb128 0x8
 2716 0170 3A       		.uleb128 0x3a
 2717 0171 0B       		.uleb128 0xb
 2718 0172 3B       		.uleb128 0x3b
 2719 0173 0B       		.uleb128 0xb
 2720 0174 39       		.uleb128 0x39
 2721 0175 0B       		.uleb128 0xb
 2722 0176 49       		.uleb128 0x49
 2723 0177 13       		.uleb128 0x13
 2724 0178 00       		.byte	0
 2725 0179 00       		.byte	0
 2726 017a 1B       		.uleb128 0x1b
 2727 017b 2E       		.uleb128 0x2e
 2728 017c 01       		.byte	0x1
 2729 017d 03       		.uleb128 0x3
 2730 017e 0E       		.uleb128 0xe
 2731 017f 3A       		.uleb128 0x3a
 2732 0180 0B       		.uleb128 0xb
 2733 0181 3B       		.uleb128 0x3b
 2734 0182 05       		.uleb128 0x5
 2735 0183 39       		.uleb128 0x39
ARM GAS  C:\Users\DEVELO~1\AppData\Local\Temp\ccpGChTz.s 			page 49


 2736 0184 21       		.uleb128 0x21
 2737 0185 14       		.sleb128 20
 2738 0186 27       		.uleb128 0x27
 2739 0187 19       		.uleb128 0x19
 2740 0188 20       		.uleb128 0x20
 2741 0189 21       		.uleb128 0x21
 2742 018a 03       		.sleb128 3
 2743 018b 01       		.uleb128 0x1
 2744 018c 13       		.uleb128 0x13
 2745 018d 00       		.byte	0
 2746 018e 00       		.byte	0
 2747 018f 1C       		.uleb128 0x1c
 2748 0190 35       		.uleb128 0x35
 2749 0191 00       		.byte	0
 2750 0192 49       		.uleb128 0x49
 2751 0193 13       		.uleb128 0x13
 2752 0194 00       		.byte	0
 2753 0195 00       		.byte	0
 2754 0196 1D       		.uleb128 0x1d
 2755 0197 2E       		.uleb128 0x2e
 2756 0198 01       		.byte	0x1
 2757 0199 3F       		.uleb128 0x3f
 2758 019a 19       		.uleb128 0x19
 2759 019b 03       		.uleb128 0x3
 2760 019c 0E       		.uleb128 0xe
 2761 019d 3A       		.uleb128 0x3a
 2762 019e 21       		.uleb128 0x21
 2763 019f 13       		.sleb128 19
 2764 01a0 3B       		.uleb128 0x3b
 2765 01a1 05       		.uleb128 0x5
 2766 01a2 39       		.uleb128 0x39
 2767 01a3 0B       		.uleb128 0xb
 2768 01a4 27       		.uleb128 0x27
 2769 01a5 19       		.uleb128 0x19
 2770 01a6 49       		.uleb128 0x49
 2771 01a7 13       		.uleb128 0x13
 2772 01a8 3C       		.uleb128 0x3c
 2773 01a9 19       		.uleb128 0x19
 2774 01aa 01       		.uleb128 0x1
 2775 01ab 13       		.uleb128 0x13
 2776 01ac 00       		.byte	0
 2777 01ad 00       		.byte	0
 2778 01ae 1E       		.uleb128 0x1e
 2779 01af 05       		.uleb128 0x5
 2780 01b0 00       		.byte	0
 2781 01b1 03       		.uleb128 0x3
 2782 01b2 08       		.uleb128 0x8
 2783 01b3 3A       		.uleb128 0x3a
 2784 01b4 21       		.uleb128 0x21
 2785 01b5 01       		.sleb128 1
 2786 01b6 3B       		.uleb128 0x3b
 2787 01b7 0B       		.uleb128 0xb
 2788 01b8 39       		.uleb128 0x39
 2789 01b9 0B       		.uleb128 0xb
 2790 01ba 49       		.uleb128 0x49
 2791 01bb 13       		.uleb128 0x13
 2792 01bc 02       		.uleb128 0x2
ARM GAS  C:\Users\DEVELO~1\AppData\Local\Temp\ccpGChTz.s 			page 50


 2793 01bd 17       		.uleb128 0x17
 2794 01be B742     		.uleb128 0x2137
 2795 01c0 17       		.uleb128 0x17
 2796 01c1 00       		.byte	0
 2797 01c2 00       		.byte	0
 2798 01c3 1F       		.uleb128 0x1f
 2799 01c4 48       		.uleb128 0x48
 2800 01c5 01       		.byte	0x1
 2801 01c6 7D       		.uleb128 0x7d
 2802 01c7 01       		.uleb128 0x1
 2803 01c8 7F       		.uleb128 0x7f
 2804 01c9 13       		.uleb128 0x13
 2805 01ca 00       		.byte	0
 2806 01cb 00       		.byte	0
 2807 01cc 20       		.uleb128 0x20
 2808 01cd 48       		.uleb128 0x48
 2809 01ce 01       		.byte	0x1
 2810 01cf 7D       		.uleb128 0x7d
 2811 01d0 01       		.uleb128 0x1
 2812 01d1 7F       		.uleb128 0x7f
 2813 01d2 13       		.uleb128 0x13
 2814 01d3 01       		.uleb128 0x1
 2815 01d4 13       		.uleb128 0x13
 2816 01d5 00       		.byte	0
 2817 01d6 00       		.byte	0
 2818 01d7 21       		.uleb128 0x21
 2819 01d8 05       		.uleb128 0x5
 2820 01d9 00       		.byte	0
 2821 01da 03       		.uleb128 0x3
 2822 01db 0E       		.uleb128 0xe
 2823 01dc 3A       		.uleb128 0x3a
 2824 01dd 0B       		.uleb128 0xb
 2825 01de 3B       		.uleb128 0x3b
 2826 01df 05       		.uleb128 0x5
 2827 01e0 39       		.uleb128 0x39
 2828 01e1 0B       		.uleb128 0xb
 2829 01e2 49       		.uleb128 0x49
 2830 01e3 13       		.uleb128 0x13
 2831 01e4 00       		.byte	0
 2832 01e5 00       		.byte	0
 2833 01e6 22       		.uleb128 0x22
 2834 01e7 2E       		.uleb128 0x2e
 2835 01e8 00       		.byte	0
 2836 01e9 03       		.uleb128 0x3
 2837 01ea 0E       		.uleb128 0xe
 2838 01eb 3A       		.uleb128 0x3a
 2839 01ec 0B       		.uleb128 0xb
 2840 01ed 3B       		.uleb128 0x3b
 2841 01ee 0B       		.uleb128 0xb
 2842 01ef 39       		.uleb128 0x39
 2843 01f0 21       		.uleb128 0x21
 2844 01f1 19       		.sleb128 25
 2845 01f2 27       		.uleb128 0x27
 2846 01f3 19       		.uleb128 0x19
 2847 01f4 49       		.uleb128 0x49
 2848 01f5 13       		.uleb128 0x13
 2849 01f6 20       		.uleb128 0x20
ARM GAS  C:\Users\DEVELO~1\AppData\Local\Temp\ccpGChTz.s 			page 51


 2850 01f7 21       		.uleb128 0x21
 2851 01f8 03       		.sleb128 3
 2852 01f9 00       		.byte	0
 2853 01fa 00       		.byte	0
 2854 01fb 23       		.uleb128 0x23
 2855 01fc 11       		.uleb128 0x11
 2856 01fd 01       		.byte	0x1
 2857 01fe 25       		.uleb128 0x25
 2858 01ff 0E       		.uleb128 0xe
 2859 0200 13       		.uleb128 0x13
 2860 0201 0B       		.uleb128 0xb
 2861 0202 03       		.uleb128 0x3
 2862 0203 0E       		.uleb128 0xe
 2863 0204 1B       		.uleb128 0x1b
 2864 0205 0E       		.uleb128 0xe
 2865 0206 55       		.uleb128 0x55
 2866 0207 17       		.uleb128 0x17
 2867 0208 11       		.uleb128 0x11
 2868 0209 01       		.uleb128 0x1
 2869 020a 10       		.uleb128 0x10
 2870 020b 17       		.uleb128 0x17
 2871 020c 00       		.byte	0
 2872 020d 00       		.byte	0
 2873 020e 24       		.uleb128 0x24
 2874 020f 24       		.uleb128 0x24
 2875 0210 00       		.byte	0
 2876 0211 0B       		.uleb128 0xb
 2877 0212 0B       		.uleb128 0xb
 2878 0213 3E       		.uleb128 0x3e
 2879 0214 0B       		.uleb128 0xb
 2880 0215 03       		.uleb128 0x3
 2881 0216 08       		.uleb128 0x8
 2882 0217 00       		.byte	0
 2883 0218 00       		.byte	0
 2884 0219 25       		.uleb128 0x25
 2885 021a 13       		.uleb128 0x13
 2886 021b 01       		.byte	0x1
 2887 021c 03       		.uleb128 0x3
 2888 021d 0E       		.uleb128 0xe
 2889 021e 0B       		.uleb128 0xb
 2890 021f 05       		.uleb128 0x5
 2891 0220 3A       		.uleb128 0x3a
 2892 0221 0B       		.uleb128 0xb
 2893 0222 3B       		.uleb128 0x3b
 2894 0223 05       		.uleb128 0x5
 2895 0224 39       		.uleb128 0x39
 2896 0225 0B       		.uleb128 0xb
 2897 0226 01       		.uleb128 0x1
 2898 0227 13       		.uleb128 0x13
 2899 0228 00       		.byte	0
 2900 0229 00       		.byte	0
 2901 022a 26       		.uleb128 0x26
 2902 022b 0F       		.uleb128 0xf
 2903 022c 00       		.byte	0
 2904 022d 0B       		.uleb128 0xb
 2905 022e 0B       		.uleb128 0xb
 2906 022f 00       		.byte	0
ARM GAS  C:\Users\DEVELO~1\AppData\Local\Temp\ccpGChTz.s 			page 52


 2907 0230 00       		.byte	0
 2908 0231 27       		.uleb128 0x27
 2909 0232 13       		.uleb128 0x13
 2910 0233 01       		.byte	0x1
 2911 0234 0B       		.uleb128 0xb
 2912 0235 05       		.uleb128 0x5
 2913 0236 3A       		.uleb128 0x3a
 2914 0237 0B       		.uleb128 0xb
 2915 0238 3B       		.uleb128 0x3b
 2916 0239 0B       		.uleb128 0xb
 2917 023a 39       		.uleb128 0x39
 2918 023b 0B       		.uleb128 0xb
 2919 023c 01       		.uleb128 0x1
 2920 023d 13       		.uleb128 0x13
 2921 023e 00       		.byte	0
 2922 023f 00       		.byte	0
 2923 0240 28       		.uleb128 0x28
 2924 0241 04       		.uleb128 0x4
 2925 0242 01       		.byte	0x1
 2926 0243 3E       		.uleb128 0x3e
 2927 0244 0B       		.uleb128 0xb
 2928 0245 0B       		.uleb128 0xb
 2929 0246 0B       		.uleb128 0xb
 2930 0247 49       		.uleb128 0x49
 2931 0248 13       		.uleb128 0x13
 2932 0249 3A       		.uleb128 0x3a
 2933 024a 0B       		.uleb128 0xb
 2934 024b 3B       		.uleb128 0x3b
 2935 024c 0B       		.uleb128 0xb
 2936 024d 39       		.uleb128 0x39
 2937 024e 0B       		.uleb128 0xb
 2938 024f 01       		.uleb128 0x1
 2939 0250 13       		.uleb128 0x13
 2940 0251 00       		.byte	0
 2941 0252 00       		.byte	0
 2942 0253 29       		.uleb128 0x29
 2943 0254 34       		.uleb128 0x34
 2944 0255 00       		.byte	0
 2945 0256 03       		.uleb128 0x3
 2946 0257 0E       		.uleb128 0xe
 2947 0258 3A       		.uleb128 0x3a
 2948 0259 0B       		.uleb128 0xb
 2949 025a 3B       		.uleb128 0x3b
 2950 025b 05       		.uleb128 0x5
 2951 025c 39       		.uleb128 0x39
 2952 025d 0B       		.uleb128 0xb
 2953 025e 49       		.uleb128 0x49
 2954 025f 13       		.uleb128 0x13
 2955 0260 3F       		.uleb128 0x3f
 2956 0261 19       		.uleb128 0x19
 2957 0262 3C       		.uleb128 0x3c
 2958 0263 19       		.uleb128 0x19
 2959 0264 00       		.byte	0
 2960 0265 00       		.byte	0
 2961 0266 2A       		.uleb128 0x2a
 2962 0267 15       		.uleb128 0x15
 2963 0268 01       		.byte	0x1
ARM GAS  C:\Users\DEVELO~1\AppData\Local\Temp\ccpGChTz.s 			page 53


 2964 0269 27       		.uleb128 0x27
 2965 026a 19       		.uleb128 0x19
 2966 026b 01       		.uleb128 0x1
 2967 026c 13       		.uleb128 0x13
 2968 026d 00       		.byte	0
 2969 026e 00       		.byte	0
 2970 026f 2B       		.uleb128 0x2b
 2971 0270 34       		.uleb128 0x34
 2972 0271 00       		.byte	0
 2973 0272 03       		.uleb128 0x3
 2974 0273 0E       		.uleb128 0xe
 2975 0274 3A       		.uleb128 0x3a
 2976 0275 0B       		.uleb128 0xb
 2977 0276 3B       		.uleb128 0x3b
 2978 0277 0B       		.uleb128 0xb
 2979 0278 39       		.uleb128 0x39
 2980 0279 0B       		.uleb128 0xb
 2981 027a 49       		.uleb128 0x49
 2982 027b 13       		.uleb128 0x13
 2983 027c 3F       		.uleb128 0x3f
 2984 027d 19       		.uleb128 0x19
 2985 027e 3C       		.uleb128 0x3c
 2986 027f 19       		.uleb128 0x19
 2987 0280 00       		.byte	0
 2988 0281 00       		.byte	0
 2989 0282 2C       		.uleb128 0x2c
 2990 0283 2E       		.uleb128 0x2e
 2991 0284 00       		.byte	0
 2992 0285 3F       		.uleb128 0x3f
 2993 0286 19       		.uleb128 0x19
 2994 0287 03       		.uleb128 0x3
 2995 0288 0E       		.uleb128 0xe
 2996 0289 3A       		.uleb128 0x3a
 2997 028a 0B       		.uleb128 0xb
 2998 028b 3B       		.uleb128 0x3b
 2999 028c 0B       		.uleb128 0xb
 3000 028d 39       		.uleb128 0x39
 3001 028e 0B       		.uleb128 0xb
 3002 028f 27       		.uleb128 0x27
 3003 0290 19       		.uleb128 0x19
 3004 0291 49       		.uleb128 0x49
 3005 0292 13       		.uleb128 0x13
 3006 0293 3C       		.uleb128 0x3c
 3007 0294 19       		.uleb128 0x19
 3008 0295 00       		.byte	0
 3009 0296 00       		.byte	0
 3010 0297 2D       		.uleb128 0x2d
 3011 0298 2E       		.uleb128 0x2e
 3012 0299 01       		.byte	0x1
 3013 029a 3F       		.uleb128 0x3f
 3014 029b 19       		.uleb128 0x19
 3015 029c 03       		.uleb128 0x3
 3016 029d 0E       		.uleb128 0xe
 3017 029e 3A       		.uleb128 0x3a
 3018 029f 0B       		.uleb128 0xb
 3019 02a0 3B       		.uleb128 0x3b
 3020 02a1 0B       		.uleb128 0xb
ARM GAS  C:\Users\DEVELO~1\AppData\Local\Temp\ccpGChTz.s 			page 54


 3021 02a2 39       		.uleb128 0x39
 3022 02a3 0B       		.uleb128 0xb
 3023 02a4 27       		.uleb128 0x27
 3024 02a5 19       		.uleb128 0x19
 3025 02a6 3C       		.uleb128 0x3c
 3026 02a7 19       		.uleb128 0x19
 3027 02a8 01       		.uleb128 0x1
 3028 02a9 13       		.uleb128 0x13
 3029 02aa 00       		.byte	0
 3030 02ab 00       		.byte	0
 3031 02ac 2E       		.uleb128 0x2e
 3032 02ad 2E       		.uleb128 0x2e
 3033 02ae 01       		.byte	0x1
 3034 02af 3F       		.uleb128 0x3f
 3035 02b0 19       		.uleb128 0x19
 3036 02b1 03       		.uleb128 0x3
 3037 02b2 0E       		.uleb128 0xe
 3038 02b3 3A       		.uleb128 0x3a
 3039 02b4 0B       		.uleb128 0xb
 3040 02b5 3B       		.uleb128 0x3b
 3041 02b6 05       		.uleb128 0x5
 3042 02b7 39       		.uleb128 0x39
 3043 02b8 0B       		.uleb128 0xb
 3044 02b9 27       		.uleb128 0x27
 3045 02ba 19       		.uleb128 0x19
 3046 02bb 3C       		.uleb128 0x3c
 3047 02bc 19       		.uleb128 0x19
 3048 02bd 01       		.uleb128 0x1
 3049 02be 13       		.uleb128 0x13
 3050 02bf 00       		.byte	0
 3051 02c0 00       		.byte	0
 3052 02c1 2F       		.uleb128 0x2f
 3053 02c2 2E       		.uleb128 0x2e
 3054 02c3 01       		.byte	0x1
 3055 02c4 3F       		.uleb128 0x3f
 3056 02c5 19       		.uleb128 0x19
 3057 02c6 03       		.uleb128 0x3
 3058 02c7 0E       		.uleb128 0xe
 3059 02c8 3A       		.uleb128 0x3a
 3060 02c9 0B       		.uleb128 0xb
 3061 02ca 3B       		.uleb128 0x3b
 3062 02cb 0B       		.uleb128 0xb
 3063 02cc 39       		.uleb128 0x39
 3064 02cd 0B       		.uleb128 0xb
 3065 02ce 27       		.uleb128 0x27
 3066 02cf 19       		.uleb128 0x19
 3067 02d0 11       		.uleb128 0x11
 3068 02d1 01       		.uleb128 0x1
 3069 02d2 12       		.uleb128 0x12
 3070 02d3 06       		.uleb128 0x6
 3071 02d4 40       		.uleb128 0x40
 3072 02d5 18       		.uleb128 0x18
 3073 02d6 7A       		.uleb128 0x7a
 3074 02d7 19       		.uleb128 0x19
 3075 02d8 01       		.uleb128 0x1
 3076 02d9 13       		.uleb128 0x13
 3077 02da 00       		.byte	0
ARM GAS  C:\Users\DEVELO~1\AppData\Local\Temp\ccpGChTz.s 			page 55


 3078 02db 00       		.byte	0
 3079 02dc 30       		.uleb128 0x30
 3080 02dd 05       		.uleb128 0x5
 3081 02de 00       		.byte	0
 3082 02df 03       		.uleb128 0x3
 3083 02e0 0E       		.uleb128 0xe
 3084 02e1 3A       		.uleb128 0x3a
 3085 02e2 0B       		.uleb128 0xb
 3086 02e3 3B       		.uleb128 0x3b
 3087 02e4 0B       		.uleb128 0xb
 3088 02e5 39       		.uleb128 0x39
 3089 02e6 0B       		.uleb128 0xb
 3090 02e7 49       		.uleb128 0x49
 3091 02e8 13       		.uleb128 0x13
 3092 02e9 02       		.uleb128 0x2
 3093 02ea 17       		.uleb128 0x17
 3094 02eb B742     		.uleb128 0x2137
 3095 02ed 17       		.uleb128 0x17
 3096 02ee 00       		.byte	0
 3097 02ef 00       		.byte	0
 3098 02f0 31       		.uleb128 0x31
 3099 02f1 34       		.uleb128 0x34
 3100 02f2 00       		.byte	0
 3101 02f3 03       		.uleb128 0x3
 3102 02f4 0E       		.uleb128 0xe
 3103 02f5 3A       		.uleb128 0x3a
 3104 02f6 0B       		.uleb128 0xb
 3105 02f7 3B       		.uleb128 0x3b
 3106 02f8 0B       		.uleb128 0xb
 3107 02f9 39       		.uleb128 0x39
 3108 02fa 0B       		.uleb128 0xb
 3109 02fb 49       		.uleb128 0x49
 3110 02fc 13       		.uleb128 0x13
 3111 02fd 1C       		.uleb128 0x1c
 3112 02fe 0B       		.uleb128 0xb
 3113 02ff 00       		.byte	0
 3114 0300 00       		.byte	0
 3115 0301 32       		.uleb128 0x32
 3116 0302 34       		.uleb128 0x34
 3117 0303 00       		.byte	0
 3118 0304 03       		.uleb128 0x3
 3119 0305 0E       		.uleb128 0xe
 3120 0306 49       		.uleb128 0x49
 3121 0307 13       		.uleb128 0x13
 3122 0308 34       		.uleb128 0x34
 3123 0309 19       		.uleb128 0x19
 3124 030a 00       		.byte	0
 3125 030b 00       		.byte	0
 3126 030c 33       		.uleb128 0x33
 3127 030d 0B       		.uleb128 0xb
 3128 030e 01       		.byte	0x1
 3129 030f 55       		.uleb128 0x55
 3130 0310 17       		.uleb128 0x17
 3131 0311 01       		.uleb128 0x1
 3132 0312 13       		.uleb128 0x13
 3133 0313 00       		.byte	0
 3134 0314 00       		.byte	0
ARM GAS  C:\Users\DEVELO~1\AppData\Local\Temp\ccpGChTz.s 			page 56


 3135 0315 34       		.uleb128 0x34
 3136 0316 34       		.uleb128 0x34
 3137 0317 00       		.byte	0
 3138 0318 03       		.uleb128 0x3
 3139 0319 0E       		.uleb128 0xe
 3140 031a 3A       		.uleb128 0x3a
 3141 031b 0B       		.uleb128 0xb
 3142 031c 3B       		.uleb128 0x3b
 3143 031d 0B       		.uleb128 0xb
 3144 031e 39       		.uleb128 0x39
 3145 031f 0B       		.uleb128 0xb
 3146 0320 49       		.uleb128 0x49
 3147 0321 13       		.uleb128 0x13
 3148 0322 02       		.uleb128 0x2
 3149 0323 18       		.uleb128 0x18
 3150 0324 00       		.byte	0
 3151 0325 00       		.byte	0
 3152 0326 35       		.uleb128 0x35
 3153 0327 1D       		.uleb128 0x1d
 3154 0328 01       		.byte	0x1
 3155 0329 31       		.uleb128 0x31
 3156 032a 13       		.uleb128 0x13
 3157 032b 52       		.uleb128 0x52
 3158 032c 01       		.uleb128 0x1
 3159 032d B842     		.uleb128 0x2138
 3160 032f 0B       		.uleb128 0xb
 3161 0330 55       		.uleb128 0x55
 3162 0331 17       		.uleb128 0x17
 3163 0332 58       		.uleb128 0x58
 3164 0333 0B       		.uleb128 0xb
 3165 0334 59       		.uleb128 0x59
 3166 0335 05       		.uleb128 0x5
 3167 0336 57       		.uleb128 0x57
 3168 0337 0B       		.uleb128 0xb
 3169 0338 01       		.uleb128 0x1
 3170 0339 13       		.uleb128 0x13
 3171 033a 00       		.byte	0
 3172 033b 00       		.byte	0
 3173 033c 36       		.uleb128 0x36
 3174 033d 05       		.uleb128 0x5
 3175 033e 00       		.byte	0
 3176 033f 31       		.uleb128 0x31
 3177 0340 13       		.uleb128 0x13
 3178 0341 00       		.byte	0
 3179 0342 00       		.byte	0
 3180 0343 37       		.uleb128 0x37
 3181 0344 1D       		.uleb128 0x1d
 3182 0345 01       		.byte	0x1
 3183 0346 31       		.uleb128 0x31
 3184 0347 13       		.uleb128 0x13
 3185 0348 52       		.uleb128 0x52
 3186 0349 01       		.uleb128 0x1
 3187 034a B842     		.uleb128 0x2138
 3188 034c 0B       		.uleb128 0xb
 3189 034d 11       		.uleb128 0x11
 3190 034e 01       		.uleb128 0x1
 3191 034f 12       		.uleb128 0x12
ARM GAS  C:\Users\DEVELO~1\AppData\Local\Temp\ccpGChTz.s 			page 57


 3192 0350 06       		.uleb128 0x6
 3193 0351 58       		.uleb128 0x58
 3194 0352 0B       		.uleb128 0xb
 3195 0353 59       		.uleb128 0x59
 3196 0354 05       		.uleb128 0x5
 3197 0355 57       		.uleb128 0x57
 3198 0356 0B       		.uleb128 0xb
 3199 0357 00       		.byte	0
 3200 0358 00       		.byte	0
 3201 0359 38       		.uleb128 0x38
 3202 035a 1D       		.uleb128 0x1d
 3203 035b 01       		.byte	0x1
 3204 035c 31       		.uleb128 0x31
 3205 035d 13       		.uleb128 0x13
 3206 035e 52       		.uleb128 0x52
 3207 035f 01       		.uleb128 0x1
 3208 0360 B842     		.uleb128 0x2138
 3209 0362 0B       		.uleb128 0xb
 3210 0363 11       		.uleb128 0x11
 3211 0364 01       		.uleb128 0x1
 3212 0365 12       		.uleb128 0x12
 3213 0366 06       		.uleb128 0x6
 3214 0367 58       		.uleb128 0x58
 3215 0368 0B       		.uleb128 0xb
 3216 0369 59       		.uleb128 0x59
 3217 036a 0B       		.uleb128 0xb
 3218 036b 57       		.uleb128 0x57
 3219 036c 0B       		.uleb128 0xb
 3220 036d 00       		.byte	0
 3221 036e 00       		.byte	0
 3222 036f 39       		.uleb128 0x39
 3223 0370 48       		.uleb128 0x48
 3224 0371 00       		.byte	0
 3225 0372 7D       		.uleb128 0x7d
 3226 0373 01       		.uleb128 0x1
 3227 0374 7F       		.uleb128 0x7f
 3228 0375 13       		.uleb128 0x13
 3229 0376 00       		.byte	0
 3230 0377 00       		.byte	0
 3231 0378 3A       		.uleb128 0x3a
 3232 0379 1D       		.uleb128 0x1d
 3233 037a 01       		.byte	0x1
 3234 037b 31       		.uleb128 0x31
 3235 037c 13       		.uleb128 0x13
 3236 037d 52       		.uleb128 0x52
 3237 037e 01       		.uleb128 0x1
 3238 037f B842     		.uleb128 0x2138
 3239 0381 0B       		.uleb128 0xb
 3240 0382 55       		.uleb128 0x55
 3241 0383 17       		.uleb128 0x17
 3242 0384 58       		.uleb128 0x58
 3243 0385 0B       		.uleb128 0xb
 3244 0386 59       		.uleb128 0x59
 3245 0387 0B       		.uleb128 0xb
 3246 0388 57       		.uleb128 0x57
 3247 0389 0B       		.uleb128 0xb
 3248 038a 00       		.byte	0
ARM GAS  C:\Users\DEVELO~1\AppData\Local\Temp\ccpGChTz.s 			page 58


 3249 038b 00       		.byte	0
 3250 038c 3B       		.uleb128 0x3b
 3251 038d 1D       		.uleb128 0x1d
 3252 038e 01       		.byte	0x1
 3253 038f 31       		.uleb128 0x31
 3254 0390 13       		.uleb128 0x13
 3255 0391 52       		.uleb128 0x52
 3256 0392 01       		.uleb128 0x1
 3257 0393 B842     		.uleb128 0x2138
 3258 0395 0B       		.uleb128 0xb
 3259 0396 11       		.uleb128 0x11
 3260 0397 01       		.uleb128 0x1
 3261 0398 12       		.uleb128 0x12
 3262 0399 06       		.uleb128 0x6
 3263 039a 58       		.uleb128 0x58
 3264 039b 0B       		.uleb128 0xb
 3265 039c 59       		.uleb128 0x59
 3266 039d 0B       		.uleb128 0xb
 3267 039e 57       		.uleb128 0x57
 3268 039f 0B       		.uleb128 0xb
 3269 03a0 01       		.uleb128 0x1
 3270 03a1 13       		.uleb128 0x13
 3271 03a2 00       		.byte	0
 3272 03a3 00       		.byte	0
 3273 03a4 3C       		.uleb128 0x3c
 3274 03a5 2E       		.uleb128 0x2e
 3275 03a6 01       		.byte	0x1
 3276 03a7 03       		.uleb128 0x3
 3277 03a8 0E       		.uleb128 0xe
 3278 03a9 3A       		.uleb128 0x3a
 3279 03aa 0B       		.uleb128 0xb
 3280 03ab 3B       		.uleb128 0x3b
 3281 03ac 0B       		.uleb128 0xb
 3282 03ad 39       		.uleb128 0x39
 3283 03ae 0B       		.uleb128 0xb
 3284 03af 27       		.uleb128 0x27
 3285 03b0 19       		.uleb128 0x19
 3286 03b1 11       		.uleb128 0x11
 3287 03b2 01       		.uleb128 0x1
 3288 03b3 12       		.uleb128 0x12
 3289 03b4 06       		.uleb128 0x6
 3290 03b5 40       		.uleb128 0x40
 3291 03b6 18       		.uleb128 0x18
 3292 03b7 7A       		.uleb128 0x7a
 3293 03b8 19       		.uleb128 0x19
 3294 03b9 01       		.uleb128 0x1
 3295 03ba 13       		.uleb128 0x13
 3296 03bb 00       		.byte	0
 3297 03bc 00       		.byte	0
 3298 03bd 3D       		.uleb128 0x3d
 3299 03be 2E       		.uleb128 0x2e
 3300 03bf 00       		.byte	0
 3301 03c0 03       		.uleb128 0x3
 3302 03c1 0E       		.uleb128 0xe
 3303 03c2 3A       		.uleb128 0x3a
 3304 03c3 0B       		.uleb128 0xb
 3305 03c4 3B       		.uleb128 0x3b
ARM GAS  C:\Users\DEVELO~1\AppData\Local\Temp\ccpGChTz.s 			page 59


 3306 03c5 05       		.uleb128 0x5
 3307 03c6 39       		.uleb128 0x39
 3308 03c7 0B       		.uleb128 0xb
 3309 03c8 27       		.uleb128 0x27
 3310 03c9 19       		.uleb128 0x19
 3311 03ca 20       		.uleb128 0x20
 3312 03cb 0B       		.uleb128 0xb
 3313 03cc 00       		.byte	0
 3314 03cd 00       		.byte	0
 3315 03ce 3E       		.uleb128 0x3e
 3316 03cf 05       		.uleb128 0x5
 3317 03d0 00       		.byte	0
 3318 03d1 03       		.uleb128 0x3
 3319 03d2 08       		.uleb128 0x8
 3320 03d3 3A       		.uleb128 0x3a
 3321 03d4 0B       		.uleb128 0xb
 3322 03d5 3B       		.uleb128 0x3b
 3323 03d6 05       		.uleb128 0x5
 3324 03d7 39       		.uleb128 0x39
 3325 03d8 0B       		.uleb128 0xb
 3326 03d9 49       		.uleb128 0x49
 3327 03da 13       		.uleb128 0x13
 3328 03db 00       		.byte	0
 3329 03dc 00       		.byte	0
 3330 03dd 3F       		.uleb128 0x3f
 3331 03de 05       		.uleb128 0x5
 3332 03df 00       		.byte	0
 3333 03e0 03       		.uleb128 0x3
 3334 03e1 0E       		.uleb128 0xe
 3335 03e2 3A       		.uleb128 0x3a
 3336 03e3 0B       		.uleb128 0xb
 3337 03e4 3B       		.uleb128 0x3b
 3338 03e5 0B       		.uleb128 0xb
 3339 03e6 39       		.uleb128 0x39
 3340 03e7 0B       		.uleb128 0xb
 3341 03e8 49       		.uleb128 0x49
 3342 03e9 13       		.uleb128 0x13
 3343 03ea 00       		.byte	0
 3344 03eb 00       		.byte	0
 3345 03ec 00       		.byte	0
 3346              		.section	.debug_loclists,"",%progbits
 3347 0000 A8000000 		.4byte	.Ldebug_loc3-.Ldebug_loc2
 3348              	.Ldebug_loc2:
 3349 0004 0500     		.2byte	0x5
 3350 0006 04       		.byte	0x4
 3351 0007 00       		.byte	0
 3352 0008 00000000 		.4byte	0
 3353              	.Ldebug_loc0:
 3354              	.LVUS1:
 3355 000c 00       		.uleb128 0
 3356 000d 00       		.uleb128 .LVU22
 3357 000e 00       		.uleb128 .LVU22
 3358 000f 00       		.uleb128 .LVU90
 3359 0010 00       		.uleb128 .LVU90
 3360 0011 00       		.uleb128 0
 3361              	.LLST1:
 3362 0012 06       		.byte	0x6
ARM GAS  C:\Users\DEVELO~1\AppData\Local\Temp\ccpGChTz.s 			page 60


 3363 0013 00000000 		.4byte	.LVL1
 3364 0017 04       		.byte	0x4
 3365 0018 00       		.uleb128 .LVL1-.LVL1
 3366 0019 15       		.uleb128 .LVL2-1-.LVL1
 3367 001a 01       		.uleb128 0x1
 3368 001b 50       		.byte	0x50
 3369 001c 04       		.byte	0x4
 3370 001d 15       		.uleb128 .LVL2-1-.LVL1
 3371 001e 8801     		.uleb128 .LVL10-.LVL1
 3372 0020 01       		.uleb128 0x1
 3373 0021 54       		.byte	0x54
 3374 0022 04       		.byte	0x4
 3375 0023 8801     		.uleb128 .LVL10-.LVL1
 3376 0025 9801     		.uleb128 .LFE347-.LVL1
 3377 0027 04       		.uleb128 0x4
 3378 0028 A3       		.byte	0xa3
 3379 0029 01       		.uleb128 0x1
 3380 002a 50       		.byte	0x50
 3381 002b 9F       		.byte	0x9f
 3382 002c 00       		.byte	0
 3383              	.LVUS2:
 3384 002d 00       		.uleb128 0
 3385 002e 00       		.uleb128 .LVU22
 3386 002f 00       		.uleb128 .LVU22
 3387 0030 00       		.uleb128 .LVU90
 3388 0031 00       		.uleb128 .LVU90
 3389 0032 00       		.uleb128 0
 3390              	.LLST2:
 3391 0033 06       		.byte	0x6
 3392 0034 00000000 		.4byte	.LVL1
 3393 0038 04       		.byte	0x4
 3394 0039 00       		.uleb128 .LVL1-.LVL1
 3395 003a 15       		.uleb128 .LVL2-1-.LVL1
 3396 003b 01       		.uleb128 0x1
 3397 003c 51       		.byte	0x51
 3398 003d 04       		.byte	0x4
 3399 003e 15       		.uleb128 .LVL2-1-.LVL1
 3400 003f 8801     		.uleb128 .LVL10-.LVL1
 3401 0041 01       		.uleb128 0x1
 3402 0042 56       		.byte	0x56
 3403 0043 04       		.byte	0x4
 3404 0044 8801     		.uleb128 .LVL10-.LVL1
 3405 0046 9801     		.uleb128 .LFE347-.LVL1
 3406 0048 04       		.uleb128 0x4
 3407 0049 A3       		.byte	0xa3
 3408 004a 01       		.uleb128 0x1
 3409 004b 51       		.byte	0x51
 3410 004c 9F       		.byte	0x9f
 3411 004d 00       		.byte	0
 3412              	.LVUS4:
 3413 004e 01       		.uleb128 .LVU23
 3414 004f 01       		.uleb128 .LVU35
 3415              	.LLST4:
 3416 0050 08       		.byte	0x8
 3417 0051 16000000 		.4byte	.LVL2
 3418 0055 20       		.uleb128 .LVL3-.LVL2
 3419 0056 01       		.uleb128 0x1
ARM GAS  C:\Users\DEVELO~1\AppData\Local\Temp\ccpGChTz.s 			page 61


 3420 0057 54       		.byte	0x54
 3421 0058 00       		.byte	0
 3422              	.LVUS6:
 3423 0059 0D       		.uleb128 .LVU47
 3424 005a 00       		.uleb128 .LVU59
 3425 005b 00       		.uleb128 .LVU59
 3426 005c 00       		.uleb128 .LVU63
 3427              	.LLST6:
 3428 005d 06       		.byte	0x6
 3429 005e 36000000 		.4byte	.LVL3
 3430 0062 04       		.byte	0x4
 3431 0063 00       		.uleb128 .LVL3-.LVL3
 3432 0064 03       		.uleb128 .LVL4-1-.LVL3
 3433 0065 02       		.uleb128 0x2
 3434 0066 74       		.byte	0x74
 3435 0067 14       		.sleb128 20
 3436 0068 04       		.byte	0x4
 3437 0069 03       		.uleb128 .LVL4-1-.LVL3
 3438 006a 10       		.uleb128 .LVL5-.LVL3
 3439 006b 03       		.uleb128 0x3
 3440 006c 74       		.byte	0x74
 3441 006d 10       		.sleb128 16
 3442 006e 9F       		.byte	0x9f
 3443 006f 00       		.byte	0
 3444              	.LVUS9:
 3445 0070 03       		.uleb128 .LVU37
 3446 0071 07       		.uleb128 .LVU41
 3447              	.LLST9:
 3448 0072 08       		.byte	0x8
 3449 0073 36000000 		.4byte	.LVL3
 3450 0077 00       		.uleb128 .LVL3-.LVL3
 3451 0078 01       		.uleb128 0x1
 3452 0079 52       		.byte	0x52
 3453 007a 00       		.byte	0
 3454              	.LVUS11:
 3455 007b 05       		.uleb128 .LVU39
 3456 007c 07       		.uleb128 .LVU41
 3457              	.LLST11:
 3458 007d 08       		.byte	0x8
 3459 007e 36000000 		.4byte	.LVL3
 3460 0082 00       		.uleb128 .LVL3-.LVL3
 3461 0083 01       		.uleb128 0x1
 3462 0084 52       		.byte	0x52
 3463 0085 00       		.byte	0
 3464              	.LVUS13:
 3465 0086 09       		.uleb128 .LVU43
 3466 0087 0B       		.uleb128 .LVU45
 3467              	.LLST13:
 3468 0088 08       		.byte	0x8
 3469 0089 36000000 		.4byte	.LVL3
 3470 008d 00       		.uleb128 .LVL3-.LVL3
 3471 008e 03       		.uleb128 0x3
 3472 008f 74       		.byte	0x74
 3473 0090 34       		.sleb128 52
 3474 0091 9F       		.byte	0x9f
 3475 0092 00       		.byte	0
 3476              	.LVUS14:
ARM GAS  C:\Users\DEVELO~1\AppData\Local\Temp\ccpGChTz.s 			page 62


 3477 0093 02       		.uleb128 .LVU65
 3478 0094 00       		.uleb128 .LVU68
 3479              	.LLST14:
 3480 0095 08       		.byte	0x8
 3481 0096 46000000 		.4byte	.LVL5
 3482 009a 04       		.uleb128 .LVL6-.LVL5
 3483 009b 04       		.uleb128 0x4
 3484 009c 74       		.byte	0x74
 3485 009d 8401     		.sleb128 132
 3486 009f 9F       		.byte	0x9f
 3487 00a0 00       		.byte	0
 3488              	.LVUS0:
 3489 00a1 01       		.uleb128 .LVU1
 3490 00a2 00       		.uleb128 0
 3491              	.LLST0:
 3492 00a3 08       		.byte	0x8
 3493 00a4 00000000 		.4byte	.LVL0
 3494 00a8 02       		.uleb128 .LFE346-.LVL0
 3495 00a9 01       		.uleb128 0x1
 3496 00aa 50       		.byte	0x50
 3497 00ab 00       		.byte	0
 3498              	.Ldebug_loc3:
 3499              		.section	.debug_aranges,"",%progbits
 3500 0000 24000000 		.4byte	0x24
 3501 0004 0200     		.2byte	0x2
 3502 0006 00000000 		.4byte	.Ldebug_info0
 3503 000a 04       		.byte	0x4
 3504 000b 00       		.byte	0
 3505 000c 0000     		.2byte	0
 3506 000e 0000     		.2byte	0
 3507 0010 00000000 		.4byte	.LFB346
 3508 0014 02000000 		.4byte	.LFE346-.LFB346
 3509 0018 00000000 		.4byte	.LFB347
 3510 001c 98000000 		.4byte	.LFE347-.LFB347
 3511 0020 00000000 		.4byte	0
 3512 0024 00000000 		.4byte	0
 3513              		.section	.debug_rnglists,"",%progbits
 3514              	.Ldebug_ranges0:
 3515 0000 7F000000 		.4byte	.Ldebug_ranges3-.Ldebug_ranges2
 3516              	.Ldebug_ranges2:
 3517 0004 0500     		.2byte	0x5
 3518 0006 04       		.byte	0x4
 3519 0007 00       		.byte	0
 3520 0008 00000000 		.4byte	0
 3521              	.LLRL3:
 3522 000c 05       		.byte	0x5
 3523 000d 16000000 		.4byte	.LBB32
 3524 0011 04       		.byte	0x4
 3525 0012 00       		.uleb128 .LBB32-.LBB32
 3526 0013 00       		.uleb128 .LBE32-.LBB32
 3527 0014 04       		.byte	0x4
 3528 0015 08       		.uleb128 .LBB59-.LBB32
 3529 0016 0A       		.uleb128 .LBE59-.LBB32
 3530 0017 04       		.byte	0x4
 3531 0018 1C       		.uleb128 .LBB66-.LBB32
 3532 0019 20       		.uleb128 .LBE66-.LBB32
 3533 001a 00       		.byte	0
ARM GAS  C:\Users\DEVELO~1\AppData\Local\Temp\ccpGChTz.s 			page 63


 3534              	.LLRL5:
 3535 001b 05       		.byte	0x5
 3536 001c 16000000 		.4byte	.LBB36
 3537 0020 04       		.byte	0x4
 3538 0021 00       		.uleb128 .LBB36-.LBB36
 3539 0022 04       		.uleb128 .LBE36-.LBB36
 3540 0023 04       		.byte	0x4
 3541 0024 0C       		.uleb128 .LBB63-.LBB36
 3542 0025 14       		.uleb128 .LBE63-.LBB36
 3543 0026 04       		.byte	0x4
 3544 0027 18       		.uleb128 .LBB65-.LBB36
 3545 0028 1C       		.uleb128 .LBE65-.LBB36
 3546 0029 04       		.byte	0x4
 3547 002a 20       		.uleb128 .LBB69-.LBB36
 3548 002b 28       		.uleb128 .LBE69-.LBB36
 3549 002c 04       		.byte	0x4
 3550 002d 2C       		.uleb128 .LBB70-.LBB36
 3551 002e 30       		.uleb128 .LBE70-.LBB36
 3552 002f 00       		.byte	0
 3553              	.LLRL7:
 3554 0030 05       		.byte	0x5
 3555 0031 22000000 		.4byte	.LBB38
 3556 0035 04       		.byte	0x4
 3557 0036 00       		.uleb128 .LBB38-.LBB38
 3558 0037 08       		.uleb128 .LBE38-.LBB38
 3559 0038 04       		.byte	0x4
 3560 0039 0C       		.uleb128 .LBB42-.LBB38
 3561 003a 10       		.uleb128 .LBE42-.LBB38
 3562 003b 04       		.byte	0x4
 3563 003c 14       		.uleb128 .LBB43-.LBB38
 3564 003d 14       		.uleb128 .LBE43-.LBB38
 3565 003e 00       		.byte	0
 3566              	.LLRL8:
 3567 003f 05       		.byte	0x5
 3568 0040 1A000000 		.4byte	.LBB51
 3569 0044 04       		.byte	0x4
 3570 0045 00       		.uleb128 .LBB51-.LBB51
 3571 0046 04       		.uleb128 .LBE51-.LBB51
 3572 0047 04       		.byte	0x4
 3573 0048 10       		.uleb128 .LBB64-.LBB51
 3574 0049 14       		.uleb128 .LBE64-.LBB51
 3575 004a 04       		.byte	0x4
 3576 004b 1C       		.uleb128 .LBB67-.LBB51
 3577 004c 1C       		.uleb128 .LBE67-.LBB51
 3578 004d 00       		.byte	0
 3579              	.LLRL10:
 3580 004e 05       		.byte	0x5
 3581 004f 2A000000 		.4byte	.LBB53
 3582 0053 04       		.byte	0x4
 3583 0054 00       		.uleb128 .LBB53-.LBB53
 3584 0055 04       		.uleb128 .LBE53-.LBB53
 3585 0056 04       		.byte	0x4
 3586 0057 0C       		.uleb128 .LBB56-.LBB53
 3587 0058 0C       		.uleb128 .LBE56-.LBB53
 3588 0059 00       		.byte	0
 3589              	.LLRL12:
 3590 005a 05       		.byte	0x5
ARM GAS  C:\Users\DEVELO~1\AppData\Local\Temp\ccpGChTz.s 			page 64


 3591 005b 20000000 		.4byte	.LBB60
 3592 005f 04       		.byte	0x4
 3593 0060 00       		.uleb128 .LBB60-.LBB60
 3594 0061 02       		.uleb128 .LBE60-.LBB60
 3595 0062 04       		.byte	0x4
 3596 0063 16       		.uleb128 .LBB68-.LBB60
 3597 0064 16       		.uleb128 .LBE68-.LBB60
 3598 0065 00       		.byte	0
 3599              	.LLRL15:
 3600 0066 05       		.byte	0x5
 3601 0067 62000000 		.4byte	.LBB73
 3602 006b 04       		.byte	0x4
 3603 006c 00       		.uleb128 .LBB73-.LBB73
 3604 006d 04       		.uleb128 .LBE73-.LBB73
 3605 006e 04       		.byte	0x4
 3606 006f 0A       		.uleb128 .LBB74-.LBB73
 3607 0070 0C       		.uleb128 .LBE74-.LBB73
 3608 0071 04       		.byte	0x4
 3609 0072 0E       		.uleb128 .LBB75-.LBB73
 3610 0073 22       		.uleb128 .LBE75-.LBB73
 3611 0074 00       		.byte	0
 3612              	.LLRL16:
 3613 0075 07       		.byte	0x7
 3614 0076 00000000 		.4byte	.LFB346
 3615 007a 02       		.uleb128 .LFE346-.LFB346
 3616 007b 07       		.byte	0x7
 3617 007c 00000000 		.4byte	.LFB347
 3618 0080 9801     		.uleb128 .LFE347-.LFB347
 3619 0082 00       		.byte	0
 3620              	.Ldebug_ranges3:
 3621              		.section	.debug_line,"",%progbits
 3622              	.Ldebug_line0:
 3623 0000 06040000 		.section	.debug_str,"MS",%progbits,1
 3623      03005402 
 3623      00000201 
 3623      FB0E0D00 
 3623      01010101 
 3624              	.LASF171:
 3625 0000 6F66665F 		.ascii	"off_inst_rfcu\000"
 3625      696E7374 
 3625      5F726663 
 3625      7500
 3626              	.LASF198:
 3627 000e 6368496E 		.ascii	"chInstanceObjectInit\000"
 3627      7374616E 
 3627      63654F62 
 3627      6A656374 
 3627      496E6974 
 3628              	.LASF135:
 3629 0023 7466756E 		.ascii	"tfunc_t\000"
 3629      635F7400 
 3630              	.LASF125:
 3631 002b 72656164 		.ascii	"ready_list_t\000"
 3631      795F6C69 
 3631      73745F74 
 3631      00
 3632              	.LASF116:
ARM GAS  C:\Users\DEVELO~1\AppData\Local\Temp\ccpGChTz.s 			page 65


 3633 0038 77747472 		.ascii	"wttrp\000"
 3633      7000
 3634              	.LASF167:
 3635 003e 6F66665F 		.ascii	"off_inst_rlist\000"
 3635      696E7374 
 3635      5F726C69 
 3635      737400
 3636              	.LASF114:
 3637 004d 7264796D 		.ascii	"rdymsg\000"
 3637      736700
 3638              	.LASF138:
 3639 0054 66756E63 		.ascii	"funcp\000"
 3639      7000
 3640              	.LASF53:
 3641 005a 72666375 		.ascii	"rfcu\000"
 3641      00
 3642              	.LASF6:
 3643 005f 5F5F7569 		.ascii	"__uint8_t\000"
 3643      6E74385F 
 3643      7400
 3644              	.LASF73:
 3645 0069 70726576 		.ascii	"prev\000"
 3645      00
 3646              	.LASF94:
 3647 006e 706F7274 		.ascii	"port_intctx\000"
 3647      5F696E74 
 3647      63747800 
 3648              	.LASF50:
 3649 007a 76746C69 		.ascii	"vtlist\000"
 3649      737400
 3650              	.LASF84:
 3651 0081 74797065 		.ascii	"type\000"
 3651      00
 3652              	.LASF139:
 3653 0086 74687265 		.ascii	"thread_descriptor_t\000"
 3653      61645F64 
 3653      65736372 
 3653      6970746F 
 3653      725F7400 
 3654              	.LASF10:
 3655 009a 6C6F6E67 		.ascii	"long int\000"
 3655      20696E74 
 3655      00
 3656              	.LASF87:
 3657 00a3 74726163 		.ascii	"trace_event_t\000"
 3657      655F6576 
 3657      656E745F 
 3657      7400
 3658              	.LASF131:
 3659 00b1 6F735F69 		.ascii	"os_instance_config_t\000"
 3659      6E737461 
 3659      6E63655F 
 3659      636F6E66 
 3659      69675F74 
 3660              	.LASF88:
 3661 00c6 73757370 		.ascii	"suspended\000"
 3661      656E6465 
ARM GAS  C:\Users\DEVELO~1\AppData\Local\Temp\ccpGChTz.s 			page 66


 3661      6400
 3662              	.LASF164:
 3663 00d0 6F66665F 		.ascii	"off_sys_rfcu\000"
 3663      7379735F 
 3663      72666375 
 3663      00
 3664              	.LASF82:
 3665 00dd 68616C74 		.ascii	"halt\000"
 3665      00
 3666              	.LASF100:
 3667 00e2 63685F73 		.ascii	"ch_sys_running\000"
 3667      79735F72 
 3667      756E6E69 
 3667      6E6700
 3668              	.LASF115:
 3669 00f1 65786974 		.ascii	"exitcode\000"
 3669      636F6465 
 3669      00
 3670              	.LASF55:
 3671 00fa 6D61696E 		.ascii	"mainthread\000"
 3671      74687265 
 3671      616400
 3672              	.LASF117:
 3673 0105 73656E74 		.ascii	"sentmsg\000"
 3673      6D736700 
 3674              	.LASF79:
 3675 010d 64656C74 		.ascii	"delta\000"
 3675      6100
 3676              	.LASF70:
 3677 0113 6E657874 		.ascii	"next\000"
 3677      00
 3678              	.LASF145:
 3679 0118 74687265 		.ascii	"threadsize\000"
 3679      61647369 
 3679      7A6500
 3680              	.LASF1:
 3681 0123 6C6F6E67 		.ascii	"long long int\000"
 3681      206C6F6E 
 3681      6720696E 
 3681      7400
 3682              	.LASF3:
 3683 0131 7369676E 		.ascii	"signed char\000"
 3683      65642063 
 3683      68617200 
 3684              	.LASF78:
 3685 013d 63685F64 		.ascii	"ch_delta_list\000"
 3685      656C7461 
 3685      5F6C6973 
 3685      7400
 3686              	.LASF191:
 3687 014b 5F5F6462 		.ascii	"__dbg_object_init\000"
 3687      675F6F62 
 3687      6A656374 
 3687      5F696E69 
 3687      7400
 3688              	.LASF182:
 3689 015d 5F5F7265 		.ascii	"__reg_object_init\000"
ARM GAS  C:\Users\DEVELO~1\AppData\Local\Temp\ccpGChTz.s 			page 67


 3689      675F6F62 
 3689      6A656374 
 3689      5F696E69 
 3689      7400
 3690              	.LASF37:
 3691 016f 73746174 		.ascii	"state\000"
 3691      6500
 3692              	.LASF170:
 3693 0175 6F66665F 		.ascii	"off_inst_core_id\000"
 3693      696E7374 
 3693      5F636F72 
 3693      655F6964 
 3693      00
 3694              	.LASF25:
 3695 0186 74737461 		.ascii	"tstate_t\000"
 3695      74655F74 
 3695      00
 3696              	.LASF159:
 3697 018f 696E7465 		.ascii	"intervalsize\000"
 3697      7276616C 
 3697      73697A65 
 3697      00
 3698              	.LASF58:
 3699 019c 63685F72 		.ascii	"ch_rfcu\000"
 3699      66637500 
 3700              	.LASF66:
 3701 01a4 73797369 		.ascii	"sysinterval_t\000"
 3701      6E746572 
 3701      76616C5F 
 3701      7400
 3702              	.LASF72:
 3703 01b2 63685F71 		.ascii	"ch_queue\000"
 3703      75657565 
 3703      00
 3704              	.LASF140:
 3705 01bb 6964656E 		.ascii	"identifier\000"
 3705      74696669 
 3705      657200
 3706              	.LASF16:
 3707 01c6 75696E74 		.ascii	"uint16_t\000"
 3707      31365F74 
 3707      00
 3708              	.LASF36:
 3709 01cf 77616261 		.ascii	"wabase\000"
 3709      736500
 3710              	.LASF93:
 3711 01d6 646F7562 		.ascii	"double\000"
 3711      6C6500
 3712              	.LASF172:
 3713 01dd 63686465 		.ascii	"chdebug_t\000"
 3713      6275675F 
 3713      7400
 3714              	.LASF155:
 3715 01e7 6F66665F 		.ascii	"off_preempt\000"
 3715      70726565 
 3715      6D707400 
 3716              	.LASF108:
ARM GAS  C:\Users\DEVELO~1\AppData\Local\Temp\ccpGChTz.s 			page 68


 3717 01f3 63685F72 		.ascii	"ch_registry\000"
 3717      65676973 
 3717      74727900 
 3718              	.LASF184:
 3719 01ff 76746C70 		.ascii	"vtlp\000"
 3719      00
 3720              	.LASF178:
 3721 0204 5F5F7472 		.ascii	"__trace_object_init\000"
 3721      6163655F 
 3721      6F626A65 
 3721      63745F69 
 3721      6E697400 
 3722              	.LASF67:
 3723 0218 73797374 		.ascii	"systimestamp_t\000"
 3723      696D6573 
 3723      74616D70 
 3723      5F7400
 3724              	.LASF196:
 3725 0227 433A5C43 		.ascii	"C:\\ChibiStudio\\chibios2111\\demos\\STM32\\RT-STM3"
 3725      68696269 
 3725      53747564 
 3725      696F5C63 
 3725      68696269 
 3726 0255 32483734 		.ascii	"2H743ZI_REV_XY-NUCLEO144 - Copie\000"
 3726      335A495F 
 3726      5245565F 
 3726      58592D4E 
 3726      55434C45 
 3727              	.LASF169:
 3728 0276 6F66665F 		.ascii	"off_inst_reglist\000"
 3728      696E7374 
 3728      5F726567 
 3728      6C697374 
 3728      00
 3729              	.LASF176:
 3730 0287 63685468 		.ascii	"chThdCreateI\000"
 3730      64437265 
 3730      61746549 
 3730      00
 3731              	.LASF11:
 3732 0294 5F5F7569 		.ascii	"__uint32_t\000"
 3732      6E743332 
 3732      5F7400
 3733              	.LASF59:
 3734 029f 6D61736B 		.ascii	"mask\000"
 3734      00
 3735              	.LASF71:
 3736 02a4 63685F71 		.ascii	"ch_queue_t\000"
 3736      75657565 
 3736      5F7400
 3737              	.LASF96:
 3738 02af 6F666673 		.ascii	"offset\000"
 3738      657400
 3739              	.LASF40:
 3740 02b6 77616974 		.ascii	"waiting\000"
 3740      696E6700 
 3741              	.LASF157:
ARM GAS  C:\Users\DEVELO~1\AppData\Local\Temp\ccpGChTz.s 			page 69


 3742 02be 6F66665F 		.ascii	"off_reserved\000"
 3742      72657365 
 3742      72766564 
 3742      00
 3743              	.LASF141:
 3744 02cb 7A65726F 		.ascii	"zero\000"
 3744      00
 3745              	.LASF174:
 3746 02d0 6D757465 		.ascii	"mutex_t\000"
 3746      785F7400 
 3747              	.LASF48:
 3748 02d8 63685F6F 		.ascii	"ch_os_instance\000"
 3748      735F696E 
 3748      7374616E 
 3748      636500
 3749              	.LASF95:
 3750 02e7 706F7274 		.ascii	"port_context\000"
 3750      5F636F6E 
 3750      74657874 
 3750      00
 3751              	.LASF52:
 3752 02f4 636F7265 		.ascii	"core_id\000"
 3752      5F696400 
 3753              	.LASF30:
 3754 02fc 636E745F 		.ascii	"cnt_t\000"
 3754      7400
 3755              	.LASF41:
 3756 0302 6D736771 		.ascii	"msgqueue\000"
 3756      75657565 
 3756      00
 3757              	.LASF0:
 3758 030b 756E7369 		.ascii	"unsigned int\000"
 3758      676E6564 
 3758      20696E74 
 3758      00
 3759              	.LASF192:
 3760 0318 5F5F7266 		.ascii	"__rfcu_object_init\000"
 3760      63755F6F 
 3760      626A6563 
 3760      745F696E 
 3760      697400
 3761              	.LASF129:
 3762 032b 69646C65 		.ascii	"idlethread_base\000"
 3762      74687265 
 3762      61645F62 
 3762      61736500 
 3763              	.LASF133:
 3764 033b 696E7374 		.ascii	"instances\000"
 3764      616E6365 
 3764      7300
 3765              	.LASF118:
 3766 0345 77747365 		.ascii	"wtsemp\000"
 3766      6D7000
 3767              	.LASF54:
 3768 034c 636F6E66 		.ascii	"config\000"
 3768      696700
 3769              	.LASF147:
ARM GAS  C:\Users\DEVELO~1\AppData\Local\Temp\ccpGChTz.s 			page 70


 3770 0353 6F66665F 		.ascii	"off_ctx\000"
 3770      63747800 
 3771              	.LASF64:
 3772 035b 73797374 		.ascii	"system_debug_t\000"
 3772      656D5F64 
 3772      65627567 
 3772      5F7400
 3773              	.LASF12:
 3774 036a 6C6F6E67 		.ascii	"long unsigned int\000"
 3774      20756E73 
 3774      69676E65 
 3774      6420696E 
 3774      7400
 3775              	.LASF33:
 3776 037c 72717565 		.ascii	"rqueue\000"
 3776      756500
 3777              	.LASF173:
 3778 0383 63685F64 		.ascii	"ch_debug\000"
 3778      65627567 
 3778      00
 3779              	.LASF194:
 3780 038c 474E5520 		.ascii	"GNU C17 11.3.1 20220712 -mcpu=cortex-m7 -mthumb -mf"
 3780      43313720 
 3780      31312E33 
 3780      2E312032 
 3780      30323230 
 3781 03bf 6C6F6174 		.ascii	"loat-abi=soft -march=armv7e-m -ggdb -O2 -fomit-fram"
 3781      2D616269 
 3781      3D736F66 
 3781      74202D6D 
 3781      61726368 
 3782 03f2 652D706F 		.ascii	"e-pointer -falign-functions=16 -ffunction-sections "
 3782      696E7465 
 3782      72202D66 
 3782      616C6967 
 3782      6E2D6675 
 3783 0425 2D666461 		.ascii	"-fdata-sections -fno-common\000"
 3783      74612D73 
 3783      65637469 
 3783      6F6E7320 
 3783      2D666E6F 
 3784              	.LASF35:
 3785 0441 6E616D65 		.ascii	"name\000"
 3785      00
 3786              	.LASF109:
 3787 0446 71756575 		.ascii	"queue\000"
 3787      6500
 3788              	.LASF168:
 3789 044c 6F66665F 		.ascii	"off_inst_vtlist\000"
 3789      696E7374 
 3789      5F76746C 
 3789      69737400 
 3790              	.LASF89:
 3791 045c 73697A65 		.ascii	"size\000"
 3791      00
 3792              	.LASF154:
 3793 0461 6F66665F 		.ascii	"off_refs\000"
ARM GAS  C:\Users\DEVELO~1\AppData\Local\Temp\ccpGChTz.s 			page 71


 3793      72656673 
 3793      00
 3794              	.LASF179:
 3795 046a 706F7274 		.ascii	"port_init\000"
 3795      5F696E69 
 3795      7400
 3796              	.LASF47:
 3797 0474 63685F74 		.ascii	"ch_thread\000"
 3797      68726561 
 3797      6400
 3798              	.LASF28:
 3799 047e 6D73675F 		.ascii	"msg_t\000"
 3799      7400
 3800              	.LASF42:
 3801 0484 6570656E 		.ascii	"epending\000"
 3801      64696E67 
 3801      00
 3802              	.LASF134:
 3803 048d 63685F73 		.ascii	"ch_system_t\000"
 3803      79737465 
 3803      6D5F7400 
 3804              	.LASF201:
 3805 0499 706F7274 		.ascii	"port_wait_for_interrupt\000"
 3805      5F776169 
 3805      745F666F 
 3805      725F696E 
 3805      74657272 
 3806              	.LASF24:
 3807 04b1 746D6F64 		.ascii	"tmode_t\000"
 3807      655F7400 
 3808              	.LASF69:
 3809 04b9 63685F6C 		.ascii	"ch_list\000"
 3809      69737400 
 3810              	.LASF123:
 3811 04c1 63685F72 		.ascii	"ch_ready_list\000"
 3811      65616479 
 3811      5F6C6973 
 3811      7400
 3812              	.LASF29:
 3813 04cf 6576656E 		.ascii	"eventmask_t\000"
 3813      746D6173 
 3813      6B5F7400 
 3814              	.LASF150:
 3815 04db 6F66665F 		.ascii	"off_name\000"
 3815      6E616D65 
 3815      00
 3816              	.LASF9:
 3817 04e4 5F5F696E 		.ascii	"__int32_t\000"
 3817      7433325F 
 3817      7400
 3818              	.LASF14:
 3819 04ee 6C6F6E67 		.ascii	"long long unsigned int\000"
 3819      206C6F6E 
 3819      6720756E 
 3819      7369676E 
 3819      65642069 
 3820              	.LASF107:
ARM GAS  C:\Users\DEVELO~1\AppData\Local\Temp\ccpGChTz.s 			page 72


 3821 0505 76697274 		.ascii	"virtual_timers_list_t\000"
 3821      75616C5F 
 3821      74696D65 
 3821      72735F6C 
 3821      6973745F 
 3822              	.LASF23:
 3823 051b 73746B61 		.ascii	"stkalign_t\000"
 3823      6C69676E 
 3823      5F7400
 3824              	.LASF85:
 3825 0526 72747374 		.ascii	"rtstamp\000"
 3825      616D7000 
 3826              	.LASF106:
 3827 052e 6C617374 		.ascii	"laststamp\000"
 3827      7374616D 
 3827      7000
 3828              	.LASF44:
 3829 0538 7265616C 		.ascii	"realprio\000"
 3829      7072696F 
 3829      00
 3830              	.LASF142:
 3831 0541 76657273 		.ascii	"version\000"
 3831      696F6E00 
 3832              	.LASF57:
 3833 0549 72666375 		.ascii	"rfcu_mask_t\000"
 3833      5F6D6173 
 3833      6B5F7400 
 3834              	.LASF22:
 3835 0555 7274636E 		.ascii	"rtcnt_t\000"
 3835      745F7400 
 3836              	.LASF111:
 3837 055d 74687265 		.ascii	"thread_reference_t\000"
 3837      61645F72 
 3837      65666572 
 3837      656E6365 
 3837      5F7400
 3838              	.LASF103:
 3839 0570 63685F76 		.ascii	"ch_virtual_timers_list\000"
 3839      69727475 
 3839      616C5F74 
 3839      696D6572 
 3839      735F6C69 
 3840              	.LASF180:
 3841 0587 6F696370 		.ascii	"oicp\000"
 3841      00
 3842              	.LASF148:
 3843 058c 6F66665F 		.ascii	"off_newer\000"
 3843      6E657765 
 3843      7200
 3844              	.LASF162:
 3845 0596 6F66665F 		.ascii	"off_sys_instances\000"
 3845      7379735F 
 3845      696E7374 
 3845      616E6365 
 3845      7300
 3846              	.LASF20:
 3847 05a8 706F7274 		.ascii	"port_rtcnt_t\000"
ARM GAS  C:\Users\DEVELO~1\AppData\Local\Temp\ccpGChTz.s 			page 73


 3847      5F727463 
 3847      6E745F74 
 3847      00
 3848              	.LASF19:
 3849 05b5 75696E74 		.ascii	"uint64_t\000"
 3849      36345F74 
 3849      00
 3850              	.LASF185:
 3851 05be 63685654 		.ascii	"chVTGetSystemTimeX\000"
 3851      47657453 
 3851      79737465 
 3851      6D54696D 
 3851      655800
 3852              	.LASF126:
 3853 05d1 63685F6F 		.ascii	"ch_os_instance_config\000"
 3853      735F696E 
 3853      7374616E 
 3853      63655F63 
 3853      6F6E6669 
 3854              	.LASF136:
 3855 05e7 77626173 		.ascii	"wbase\000"
 3855      6500
 3856              	.LASF97:
 3857 05ed 746D5F63 		.ascii	"tm_calibration_t\000"
 3857      616C6962 
 3857      72617469 
 3857      6F6E5F74 
 3857      00
 3858              	.LASF181:
 3859 05fe 69646C65 		.ascii	"idle_descriptor\000"
 3859      5F646573 
 3859      63726970 
 3859      746F7200 
 3860              	.LASF86:
 3861 060e 74696D65 		.ascii	"time\000"
 3861      00
 3862              	.LASF76:
 3863 0613 7072696F 		.ascii	"prio\000"
 3863      00
 3864              	.LASF124:
 3865 0618 63757272 		.ascii	"current\000"
 3865      656E7400 
 3866              	.LASF163:
 3867 0620 6F66665F 		.ascii	"off_sys_reglist\000"
 3867      7379735F 
 3867      7265676C 
 3867      69737400 
 3868              	.LASF13:
 3869 0630 5F5F7569 		.ascii	"__uint64_t\000"
 3869      6E743634 
 3869      5F7400
 3870              	.LASF92:
 3871 063b 666C6F61 		.ascii	"float\000"
 3871      7400
 3872              	.LASF31:
 3873 0641 636F7265 		.ascii	"core_id_t\000"
 3873      5F69645F 
ARM GAS  C:\Users\DEVELO~1\AppData\Local\Temp\ccpGChTz.s 			page 74


 3873      7400
 3874              	.LASF26:
 3875 064b 74726566 		.ascii	"trefs_t\000"
 3875      735F7400 
 3876              	.LASF39:
 3877 0653 72656673 		.ascii	"refs\000"
 3877      00
 3878              	.LASF83:
 3879 0658 75736572 		.ascii	"user\000"
 3879      00
 3880              	.LASF27:
 3881 065d 74707269 		.ascii	"tprio_t\000"
 3881      6F5F7400 
 3882              	.LASF165:
 3883 0665 6F66665F 		.ascii	"off_sys_reserved\000"
 3883      7379735F 
 3883      72657365 
 3883      72766564 
 3883      00
 3884              	.LASF61:
 3885 0676 63685F73 		.ascii	"ch_system_debug\000"
 3885      79737465 
 3885      6D5F6465 
 3885      62756700 
 3886              	.LASF175:
 3887 0686 5F426F6F 		.ascii	"_Bool\000"
 3887      6C00
 3888              	.LASF17:
 3889 068c 696E7433 		.ascii	"int32_t\000"
 3889      325F7400 
 3890              	.LASF4:
 3891 0694 756E7369 		.ascii	"unsigned char\000"
 3891      676E6564 
 3891      20636861 
 3891      7200
 3892              	.LASF146:
 3893 06a2 6F66665F 		.ascii	"off_prio\000"
 3893      7072696F 
 3893      00
 3894              	.LASF151:
 3895 06ab 6F66665F 		.ascii	"off_stklimit\000"
 3895      73746B6C 
 3895      696D6974 
 3895      00
 3896              	.LASF60:
 3897 06b8 72666375 		.ascii	"rfcu_t\000"
 3897      5F7400
 3898              	.LASF177:
 3899 06bf 5F5F7468 		.ascii	"__thd_object_init\000"
 3899      645F6F62 
 3899      6A656374 
 3899      5F696E69 
 3899      7400
 3900              	.LASF5:
 3901 06d1 73686F72 		.ascii	"short int\000"
 3901      7420696E 
 3901      7400
ARM GAS  C:\Users\DEVELO~1\AppData\Local\Temp\ccpGChTz.s 			page 75


 3902              	.LASF105:
 3903 06db 6C617374 		.ascii	"lasttime\000"
 3903      74696D65 
 3903      00
 3904              	.LASF91:
 3905 06e4 74726163 		.ascii	"trace_buffer_t\000"
 3905      655F6275 
 3905      66666572 
 3905      5F7400
 3906              	.LASF80:
 3907 06f3 77746F62 		.ascii	"wtobjp\000"
 3907      6A7000
 3908              	.LASF120:
 3909 06fa 65776D61 		.ascii	"ewmask\000"
 3909      736B00
 3910              	.LASF132:
 3911 0701 63685F73 		.ascii	"ch_system\000"
 3911      79737465 
 3911      6D00
 3912              	.LASF197:
 3913 070b 73744765 		.ascii	"stGetCounter\000"
 3913      74436F75 
 3913      6E746572 
 3913      00
 3914              	.LASF199:
 3915 0718 5F5F6675 		.ascii	"__func__\000"
 3915      6E635F5F 
 3915      00
 3916              	.LASF81:
 3917 0721 72656173 		.ascii	"reason\000"
 3917      6F6E00
 3918              	.LASF121:
 3919 0728 63685F73 		.ascii	"ch_semaphore\000"
 3919      656D6170 
 3919      686F7265 
 3919      00
 3920              	.LASF156:
 3921 0735 6F66665F 		.ascii	"off_time\000"
 3921      74696D65 
 3921      00
 3922              	.LASF144:
 3923 073e 74696D65 		.ascii	"timesize\000"
 3923      73697A65 
 3923      00
 3924              	.LASF18:
 3925 0747 75696E74 		.ascii	"uint32_t\000"
 3925      33325F74 
 3925      00
 3926              	.LASF119:
 3927 0750 77746D74 		.ascii	"wtmtxp\000"
 3927      787000
 3928              	.LASF21:
 3929 0757 706F7274 		.ascii	"port_stkalign_t\000"
 3929      5F73746B 
 3929      616C6967 
 3929      6E5F7400 
 3930              	.LASF137:
ARM GAS  C:\Users\DEVELO~1\AppData\Local\Temp\ccpGChTz.s 			page 76


 3931 0767 77656E64 		.ascii	"wend\000"
 3931      00
 3932              	.LASF34:
 3933 076c 6F776E65 		.ascii	"owner\000"
 3933      7200
 3934              	.LASF190:
 3935 0772 63685F71 		.ascii	"ch_queue_init\000"
 3935      75657565 
 3935      5F696E69 
 3935      7400
 3936              	.LASF2:
 3937 0780 6C6F6E67 		.ascii	"long double\000"
 3937      20646F75 
 3937      626C6500 
 3938              	.LASF195:
 3939 078c 2E2E2F2E 		.ascii	"../../../os/rt/src/chinstances.c\000"
 3939      2E2F2E2E 
 3939      2F6F732F 
 3939      72742F73 
 3939      72632F63 
 3940              	.LASF63:
 3941 07ad 63686172 		.ascii	"char\000"
 3941      00
 3942              	.LASF166:
 3943 07b2 6F66665F 		.ascii	"off_inst_rlist_current\000"
 3943      696E7374 
 3943      5F726C69 
 3943      73745F63 
 3943      75727265 
 3944              	.LASF98:
 3945 07c9 63685F73 		.ascii	"ch_sys_uninit\000"
 3945      79735F75 
 3945      6E696E69 
 3945      7400
 3946              	.LASF200:
 3947 07d7 5F5F6964 		.ascii	"__idle_thread\000"
 3947      6C655F74 
 3947      68726561 
 3947      6400
 3948              	.LASF193:
 3949 07e5 72666375 		.ascii	"rfcup\000"
 3949      7000
 3950              	.LASF7:
 3951 07eb 5F5F7569 		.ascii	"__uint16_t\000"
 3951      6E743136 
 3951      5F7400
 3952              	.LASF32:
 3953 07f6 74687265 		.ascii	"thread_t\000"
 3953      61645F74 
 3953      00
 3954              	.LASF104:
 3955 07ff 646C6973 		.ascii	"dlist\000"
 3955      7400
 3956              	.LASF65:
 3957 0805 73797374 		.ascii	"systime_t\000"
 3957      696D655F 
 3957      7400
ARM GAS  C:\Users\DEVELO~1\AppData\Local\Temp\ccpGChTz.s 			page 77


 3958              	.LASF90:
 3959 080f 62756666 		.ascii	"buffer\000"
 3959      657200
 3960              	.LASF74:
 3961 0816 63685F70 		.ascii	"ch_priority_queue_t\000"
 3961      72696F72 
 3961      6974795F 
 3961      71756575 
 3961      655F7400 
 3962              	.LASF62:
 3963 082a 70616E69 		.ascii	"panic_msg\000"
 3963      635F6D73 
 3963      6700
 3964              	.LASF113:
 3965 0834 70717565 		.ascii	"pqueue\000"
 3965      756500
 3966              	.LASF127:
 3967 083b 6D61696E 		.ascii	"mainthread_base\000"
 3967      74687265 
 3967      61645F62 
 3967      61736500 
 3968              	.LASF143:
 3969 084b 70747273 		.ascii	"ptrsize\000"
 3969      697A6500 
 3970              	.LASF46:
 3971 0853 6F735F69 		.ascii	"os_instance_t\000"
 3971      6E737461 
 3971      6E63655F 
 3971      7400
 3972              	.LASF149:
 3973 0861 6F66665F 		.ascii	"off_older\000"
 3973      6F6C6465 
 3973      7200
 3974              	.LASF51:
 3975 086b 7265676C 		.ascii	"reglist\000"
 3975      69737400 
 3976              	.LASF8:
 3977 0873 73686F72 		.ascii	"short unsigned int\000"
 3977      7420756E 
 3977      7369676E 
 3977      65642069 
 3977      6E7400
 3978              	.LASF101:
 3979 0886 63685F73 		.ascii	"ch_sys_halted\000"
 3979      79735F68 
 3979      616C7465 
 3979      6400
 3980              	.LASF75:
 3981 0894 63685F70 		.ascii	"ch_priority_queue\000"
 3981      72696F72 
 3981      6974795F 
 3981      71756575 
 3981      6500
 3982              	.LASF186:
 3983 08a6 706F7274 		.ascii	"port_timer_get_time\000"
 3983      5F74696D 
 3983      65725F67 
ARM GAS  C:\Users\DEVELO~1\AppData\Local\Temp\ccpGChTz.s 			page 78


 3983      65745F74 
 3983      696D6500 
 3984              	.LASF188:
 3985 08ba 646C6870 		.ascii	"dlhp\000"
 3985      00
 3986              	.LASF77:
 3987 08bf 63685F64 		.ascii	"ch_delta_list_t\000"
 3987      656C7461 
 3987      5F6C6973 
 3987      745F7400 
 3988              	.LASF110:
 3989 08cf 72656769 		.ascii	"registry_t\000"
 3989      73747279 
 3989      5F7400
 3990              	.LASF128:
 3991 08da 6D61696E 		.ascii	"mainthread_end\000"
 3991      74687265 
 3991      61645F65 
 3991      6E6400
 3992              	.LASF158:
 3993 08e9 696E7463 		.ascii	"intctxsize\000"
 3993      74787369 
 3993      7A6500
 3994              	.LASF45:
 3995 08f4 6D706F6F 		.ascii	"mpool\000"
 3995      6C00
 3996              	.LASF99:
 3997 08fa 63685F73 		.ascii	"ch_sys_initializing\000"
 3997      79735F69 
 3997      6E697469 
 3997      616C697A 
 3997      696E6700 
 3998              	.LASF189:
 3999 090e 63685F70 		.ascii	"ch_pqueue_init\000"
 3999      71756575 
 3999      655F696E 
 3999      697400
 4000              	.LASF160:
 4001 091d 696E7374 		.ascii	"instancesnum\000"
 4001      616E6365 
 4001      736E756D 
 4001      00
 4002              	.LASF161:
 4003 092a 6F66665F 		.ascii	"off_sys_state\000"
 4003      7379735F 
 4003      73746174 
 4003      6500
 4004              	.LASF49:
 4005 0938 726C6973 		.ascii	"rlist\000"
 4005      7400
 4006              	.LASF68:
 4007 093e 63685F6C 		.ascii	"ch_list_t\000"
 4007      6973745F 
 4007      7400
 4008              	.LASF15:
 4009 0948 75696E74 		.ascii	"uint8_t\000"
 4009      385F7400 
ARM GAS  C:\Users\DEVELO~1\AppData\Local\Temp\ccpGChTz.s 			page 79


 4010              	.LASF38:
 4011 0950 666C6167 		.ascii	"flags\000"
 4011      7300
 4012              	.LASF122:
 4013 0956 63685F6D 		.ascii	"ch_mutex\000"
 4013      75746578 
 4013      00
 4014              	.LASF183:
 4015 095f 5F5F7674 		.ascii	"__vt_object_init\000"
 4015      5F6F626A 
 4015      6563745F 
 4015      696E6974 
 4015      00
 4016              	.LASF152:
 4017 0970 6F66665F 		.ascii	"off_state\000"
 4017      73746174 
 4017      6500
 4018              	.LASF56:
 4019 097a 74726163 		.ascii	"trace_buffer\000"
 4019      655F6275 
 4019      66666572 
 4019      00
 4020              	.LASF187:
 4021 0987 63685F64 		.ascii	"ch_dlist_init\000"
 4021      6C697374 
 4021      5F696E69 
 4021      7400
 4022              	.LASF112:
 4023 0995 6C697374 		.ascii	"list\000"
 4023      00
 4024              	.LASF102:
 4025 099a 73797374 		.ascii	"system_state_t\000"
 4025      656D5F73 
 4025      74617465 
 4025      5F7400
 4026              	.LASF153:
 4027 09a9 6F66665F 		.ascii	"off_flags\000"
 4027      666C6167 
 4027      7300
 4028              	.LASF130:
 4029 09b3 69646C65 		.ascii	"idlethread_end\000"
 4029      74687265 
 4029      61645F65 
 4029      6E6400
 4030              	.LASF43:
 4031 09c2 6D74786C 		.ascii	"mtxlist\000"
 4031      69737400 
 4032              		.ident	"GCC: (Arm GNU Toolchain 11.3.Rel1) 11.3.1 20220712"
ARM GAS  C:\Users\DEVELO~1\AppData\Local\Temp\ccpGChTz.s 			page 80


DEFINED SYMBOLS
                            *ABS*:00000000 chinstances.c
C:\Users\DEVELO~1\AppData\Local\Temp\ccpGChTz.s:18     .text.__idle_thread:00000000 $t
C:\Users\DEVELO~1\AppData\Local\Temp\ccpGChTz.s:24     .text.__idle_thread:00000000 __idle_thread
C:\Users\DEVELO~1\AppData\Local\Temp\ccpGChTz.s:43     .rodata.chInstanceObjectInit.str1.4:00000000 $d
C:\Users\DEVELO~1\AppData\Local\Temp\ccpGChTz.s:47     .text.chInstanceObjectInit:00000000 $t
C:\Users\DEVELO~1\AppData\Local\Temp\ccpGChTz.s:54     .text.chInstanceObjectInit:00000000 chInstanceObjectInit
C:\Users\DEVELO~1\AppData\Local\Temp\ccpGChTz.s:319    .text.chInstanceObjectInit:00000088 $d

UNDEFINED SYMBOLS
port_init
stGetCounter
__trace_object_init
__thd_object_init
chThdCreateI
ch_system
ch_debug
