ARM GAS  C:\Users\DEVELO~1\AppData\Local\Temp\ccgFRn8O.s 			page 1


   1              		.cpu cortex-m7
   2              		.arch armv7e-m
   3              		.fpu softvfp
   4              		.eabi_attribute 20, 1
   5              		.eabi_attribute 21, 1
   6              		.eabi_attribute 23, 3
   7              		.eabi_attribute 24, 1
   8              		.eabi_attribute 25, 1
   9              		.eabi_attribute 26, 1
  10              		.eabi_attribute 30, 2
  11              		.eabi_attribute 34, 1
  12              		.eabi_attribute 18, 4
  13              		.file	"chinstances.c"
  14              		.text
  15              	.Ltext0:
  16              		.cfi_sections	.debug_frame
  17              		.section	.text.__idle_thread,"ax",%progbits
  18              		.align	1
  19              		.p2align 4,,15
  20              		.syntax unified
  21              		.thumb
  22              		.thumb_func
  23              		.type	__idle_thread, %function
  24              	__idle_thread:
  25              	.LFB352:
  26              		.file 1 "./ChibiOS/os/rt/src/chinstances.c"
  27              		.loc 1 62 36 view -0
  28              		.cfi_startproc
  29              		@ Volatile: function does not return.
  30              		@ args = 0, pretend = 0, frame = 0
  31              		@ frame_needed = 0, uses_anonymous_args = 0
  32              		@ link register save eliminated.
  33              	.LVL0:
  34              	.L2:
  35              		.loc 1 64 3 discriminator 1 view .LVU1
  36              		.loc 1 66 3 discriminator 1 view .LVU2
  37              		.loc 1 69 5 discriminator 1 view .LVU3
  38 0000 FEE7     		b	.L2
  39              		.cfi_endproc
  40              	.LFE352:
  41              		.size	__idle_thread, .-__idle_thread
  42 0002 00BF     		.section	.rodata.chInstanceObjectInit.str1.4,"aMS",%progbits,1
  43              		.align	2
  44              	.LC0:
  45 0000 6D61696E 		.ascii	"main\000"
  45      00
  46 0005 000000   		.align	2
  47              	.LC1:
  48 0008 69646C65 		.ascii	"idle\000"
  48      00
  49              		.section	.text.chInstanceObjectInit,"ax",%progbits
  50              		.align	1
  51              		.p2align 4,,15
  52              		.global	chInstanceObjectInit
  53              		.syntax unified
  54              		.thumb
  55              		.thumb_func
ARM GAS  C:\Users\DEVELO~1\AppData\Local\Temp\ccgFRn8O.s 			page 2


  56              		.type	chInstanceObjectInit, %function
  57              	chInstanceObjectInit:
  58              	.LVL1:
  59              	.LFB353:
  60              		.loc 1 90 61 view -0
  61              		.cfi_startproc
  62              		@ args = 0, pretend = 0, frame = 32
  63              		@ frame_needed = 0, uses_anonymous_args = 0
  64              		.loc 1 91 3 view .LVU5
  65              		.loc 1 97 3 view .LVU6
  66              		.loc 1 99 3 view .LVU7
  67              		.loc 1 99 3 view .LVU8
  68              		.loc 1 99 3 view .LVU9
  69              		.loc 1 100 3 view .LVU10
  70              		.loc 1 90 61 is_stmt 0 view .LVU11
  71 0000 F0B5     		push	{r4, r5, r6, r7, lr}
  72              		.cfi_def_cfa_offset 20
  73              		.cfi_offset 4, -20
  74              		.cfi_offset 5, -16
  75              		.cfi_offset 6, -12
  76              		.cfi_offset 7, -8
  77              		.cfi_offset 14, -4
  78              		.loc 1 100 32 view .LVU12
  79 0002 2A4B     		ldr	r3, .L6
  80              		.loc 1 103 16 view .LVU13
  81 0004 0025     		movs	r5, #0
  82              		.loc 1 90 61 view .LVU14
  83 0006 0446     		mov	r4, r0
  84 0008 89B0     		sub	sp, sp, #36
  85              		.cfi_def_cfa_offset 56
  86              		.loc 1 103 16 view .LVU15
  87 000a 8563     		str	r5, [r0, #56]
  88              		.loc 1 90 61 view .LVU16
  89 000c 0E46     		mov	r6, r1
  90              		.loc 1 106 15 view .LVU17
  91 000e 0164     		str	r1, [r0, #64]
  92              	.LBB49:
  93              	.LBB50:
  94              		.file 2 "./ChibiOS/os/rt/include/chregistry.h"
  95              		.loc 2 154 3 view .LVU18
  96 0010 00F13007 		add	r7, r0, #48
  97              	.LBE50:
  98              	.LBE49:
  99              		.loc 1 100 32 view .LVU19
 100 0014 5860     		str	r0, [r3, #4]
 101              		.loc 1 103 3 is_stmt 1 view .LVU20
 102              		.loc 1 106 3 view .LVU21
 103              		.loc 1 109 3 view .LVU22
 104 0016 FFF7FEFF 		bl	port_init
 105              	.LVL2:
 106              		.loc 1 112 3 view .LVU23
 107              	.LBB57:
 108              	.LBI57:
 109              		.file 3 "./ChibiOS/os/rt/include/chlists.h"
 110              		.loc 3 396 20 view .LVU24
 111              	.LBB58:
 112              		.loc 3 398 3 view .LVU25
ARM GAS  C:\Users\DEVELO~1\AppData\Local\Temp\ccgFRn8O.s 			page 3


 113              	.LBE58:
 114              	.LBE57:
 115              		.loc 1 125 3 is_stmt 0 view .LVU26
 116 001a 04F11003 		add	r3, r4, #16
 117              	.LBB61:
 118              	.LBB59:
 119              		.loc 3 400 13 view .LVU27
 120 001e A560     		str	r5, [r4, #8]
 121              	.LBE59:
 122              	.LBE61:
 123              	.LBB62:
 124              	.LBB63:
 125              		.file 4 "./ChibiOS/os/rt/include/chrfcu.h"
 126              		.loc 4 106 15 view .LVU28
 127 0020 E563     		str	r5, [r4, #60]
 128              	.LBE63:
 129              	.LBE62:
 130              	.LBB65:
 131              	.LBB66:
 132              		.file 5 "./ChibiOS/os/rt/include/chvt.h"
 133              		.loc 5 543 18 view .LVU29
 134 0022 E561     		str	r5, [r4, #28]
 135              	.LBB67:
 136              	.LBB68:
 137              		.loc 3 505 15 view .LVU30
 138 0024 C4E90433 		strd	r3, r3, [r4, #16]
 139              		.loc 3 506 15 view .LVU31
 140 0028 4FF0FF33 		mov	r3, #-1
 141 002c A361     		str	r3, [r4, #24]
 142              	.LBE68:
 143              	.LBE67:
 144              		.loc 5 544 19 view .LVU32
 145 002e 0223     		movs	r3, #2
 146              	.LBE66:
 147              	.LBE65:
 148              	.LBB77:
 149              	.LBB55:
 150              	.LBB51:
 151              	.LBB52:
 152              		.loc 3 285 12 view .LVU33
 153 0030 C4E90C77 		strd	r7, r7, [r4, #48]
 154              	.LBE52:
 155              	.LBE51:
 156              	.LBE55:
 157              	.LBE77:
 158              	.LBB78:
 159              	.LBB74:
 160              		.loc 5 544 19 view .LVU34
 161 0034 2362     		str	r3, [r4, #32]
 162              	.LBE74:
 163              	.LBE78:
 164              	.LBB79:
 165              	.LBB60:
 166              		.loc 3 399 13 view .LVU35
 167 0036 C4E90044 		strd	r4, r4, [r4]
 168              		.loc 3 400 3 is_stmt 1 view .LVU36
 169              	.LVL3:
ARM GAS  C:\Users\DEVELO~1\AppData\Local\Temp\ccgFRn8O.s 			page 4


 170              		.loc 3 400 3 is_stmt 0 view .LVU37
 171              	.LBE60:
 172              	.LBE79:
 173              		.loc 1 116 3 is_stmt 1 view .LVU38
 174              	.LBB80:
 175              	.LBI49:
 176              		.loc 2 152 20 view .LVU39
 177              	.LBB56:
 178              		.loc 2 154 3 view .LVU40
 179              	.LBB54:
 180              	.LBI51:
 181              		.loc 3 282 20 view .LVU41
 182              	.LBB53:
 183              		.loc 3 284 3 view .LVU42
 184              		.loc 3 284 3 is_stmt 0 view .LVU43
 185              	.LBE53:
 186              	.LBE54:
 187              	.LBE56:
 188              	.LBE80:
 189              		.loc 1 121 3 is_stmt 1 view .LVU44
 190              	.LBB81:
 191              	.LBI62:
 192              		.loc 4 104 20 view .LVU45
 193              	.LBB64:
 194              		.loc 4 106 3 view .LVU46
 195              		.loc 4 106 3 is_stmt 0 view .LVU47
 196              	.LBE64:
 197              	.LBE81:
 198              		.loc 1 125 3 is_stmt 1 view .LVU48
 199              	.LBB82:
 200              	.LBI65:
 201              		.loc 5 537 20 view .LVU49
 202              	.LBB75:
 203              		.loc 5 539 3 view .LVU50
 204              	.LBB70:
 205              	.LBI67:
 206              		.loc 3 502 20 view .LVU51
 207              	.LBB69:
 208              		.loc 3 504 3 view .LVU52
 209              		.loc 3 506 3 view .LVU53
 210              	.LBE69:
 211              	.LBE70:
 212              		.loc 5 543 3 view .LVU54
 213              		.loc 5 544 3 view .LVU55
 214              		.loc 5 547 3 view .LVU56
 215              	.LBB71:
 216              	.LBI71:
 217              		.loc 5 135 25 view .LVU57
 218              		.loc 5 140 3 view .LVU58
 219              	.LBB72:
 220              	.LBI72:
 221              		.file 6 "./ChibiOS/os/hal/osal/rt-nil/chcore_timer.h"
 222              		.loc 6 111 25 view .LVU59
 223              	.LBB73:
 224              		.loc 6 113 3 view .LVU60
 225              		.loc 6 113 10 is_stmt 0 view .LVU61
 226 003a FFF7FEFF 		bl	stGetCounter
ARM GAS  C:\Users\DEVELO~1\AppData\Local\Temp\ccgFRn8O.s 			page 5


 227              	.LVL4:
 228 003e 0146     		mov	r1, r0
 229              	.LBE73:
 230              	.LBE72:
 231              	.LBE71:
 232              		.loc 5 547 21 view .LVU62
 233 0040 2B46     		mov	r3, r5
 234              	.LBE75:
 235              	.LBE82:
 236              		.loc 1 132 3 view .LVU63
 237 0042 04F1E800 		add	r0, r4, #232
 238              	.LBB83:
 239              	.LBB76:
 240              		.loc 5 547 21 view .LVU64
 241 0046 0A46     		mov	r2, r1
 242              		.loc 5 547 19 view .LVU65
 243 0048 C4E90A23 		strd	r2, [r4, #40]
 244              	.LBE76:
 245              	.LBE83:
 246              		.loc 1 128 3 is_stmt 1 view .LVU66
 247              	.LVL5:
 248              	.LBB84:
 249              	.LBI84:
 250              		.file 7 "./ChibiOS/os/rt/include/chdebug.h"
 251              		.loc 7 192 20 view .LVU67
 252              	.LBB85:
 253              		.loc 7 194 3 view .LVU68
 254              		.loc 7 194 18 is_stmt 0 view .LVU69
 255 004c C4F8E450 		str	r5, [r4, #228]
 256              	.LVL6:
 257              		.loc 7 194 18 view .LVU70
 258              	.LBE85:
 259              	.LBE84:
 260              		.loc 1 132 3 is_stmt 1 view .LVU71
 261 0050 FFF7FEFF 		bl	__trace_object_init
 262              	.LVL7:
 263              	.LBB86:
 264              		.loc 1 144 5 view .LVU72
 265              		.loc 1 144 11 is_stmt 0 view .LVU73
 266 0054 7368     		ldr	r3, [r6, #4]
 267              		.loc 1 149 26 view .LVU74
 268 0056 01A9     		add	r1, sp, #4
 269 0058 04F19400 		add	r0, r4, #148
 270              		.loc 1 144 11 view .LVU75
 271 005c 0293     		str	r3, [sp, #8]
 272 005e B368     		ldr	r3, [r6, #8]
 273 0060 0794     		str	r4, [sp, #28]
 274              		.loc 1 149 5 is_stmt 1 view .LVU76
 275              		.loc 1 144 11 is_stmt 0 view .LVU77
 276 0062 0393     		str	r3, [sp, #12]
 277 0064 124B     		ldr	r3, .L6+4
 278 0066 0193     		str	r3, [sp, #4]
 279 0068 8023     		movs	r3, #128
 280 006a CDE90555 		strd	r5, r5, [sp, #20]
 281 006e 0493     		str	r3, [sp, #16]
 282              		.loc 1 149 26 view .LVU78
 283 0070 FFF7FEFF 		bl	chThdObjectInit
ARM GAS  C:\Users\DEVELO~1\AppData\Local\Temp\ccgFRn8O.s 			page 6


 284              	.LVL8:
 285              	.LBE86:
 286              	.LBB87:
 287              	.LBB88:
 288              		.loc 3 325 21 view .LVU79
 289 0074 626B     		ldr	r2, [r4, #52]
 290              	.LBE88:
 291              	.LBE87:
 292              		.loc 1 161 3 view .LVU80
 293 0076 00F12403 		add	r3, r0, #36
 294              	.LBB91:
 295              		.loc 1 149 24 view .LVU81
 296 007a E060     		str	r0, [r4, #12]
 297              	.LBE91:
 298              		.loc 1 161 3 is_stmt 1 view .LVU82
 299              	.LVL9:
 300              	.LBB92:
 301              	.LBI87:
 302              		.loc 3 322 20 view .LVU83
 303              	.LBB89:
 304              		.loc 3 324 3 view .LVU84
 305              		.loc 3 325 3 view .LVU85
 306              		.loc 3 326 3 view .LVU86
 307              	.LBE89:
 308              	.LBE92:
 309              	.LBB93:
 310              		.loc 1 190 12 is_stmt 0 view .LVU87
 311 007c 01A9     		add	r1, sp, #4
 312              	.LBE93:
 313              	.LBB94:
 314              	.LBB90:
 315              		.loc 3 324 17 view .LVU88
 316 007e 4762     		str	r7, [r0, #36]
 317              		.loc 3 325 17 view .LVU89
 318 0080 8262     		str	r2, [r0, #40]
 319              		.loc 3 326 17 view .LVU90
 320 0082 1360     		str	r3, [r2]
 321              		.loc 3 327 3 is_stmt 1 view .LVU91
 322              		.loc 3 327 17 is_stmt 0 view .LVU92
 323 0084 6363     		str	r3, [r4, #52]
 324              	.LVL10:
 325              		.loc 3 327 17 view .LVU93
 326              	.LBE90:
 327              	.LBE94:
 328              		.loc 1 165 3 is_stmt 1 view .LVU94
 329              		.loc 1 165 29 is_stmt 0 view .LVU95
 330 0086 0123     		movs	r3, #1
 331 0088 0377     		strb	r3, [r0, #28]
 332              		.loc 1 173 3 is_stmt 1 view .LVU96
 333              		.loc 1 173 36 view .LVU97
 334              	.LBB95:
 335              		.loc 1 177 5 view .LVU98
 336              		.loc 1 190 12 is_stmt 0 view .LVU99
 337 008a 04F14400 		add	r0, r4, #68
 338              		.loc 1 177 11 view .LVU100
 339 008e 0493     		str	r3, [sp, #16]
 340 0090 084B     		ldr	r3, .L6+8
ARM GAS  C:\Users\DEVELO~1\AppData\Local\Temp\ccgFRn8O.s 			page 7


 341 0092 0794     		str	r4, [sp, #28]
 342              		.loc 1 190 5 is_stmt 1 view .LVU101
 343              		.loc 1 177 11 is_stmt 0 view .LVU102
 344 0094 0593     		str	r3, [sp, #20]
 345 0096 084C     		ldr	r4, .L6+12
 346              	.LVL11:
 347              		.loc 1 177 11 view .LVU103
 348 0098 0695     		str	r5, [sp, #24]
 349 009a D6E90323 		ldrd	r2, r3, [r6, #12]
 350 009e CDE90142 		strd	r4, r2, [sp, #4]
 351 00a2 0393     		str	r3, [sp, #12]
 352              		.loc 1 190 12 view .LVU104
 353 00a4 FFF7FEFF 		bl	chThdSpawnRunningI
 354              	.LVL12:
 355              		.loc 1 190 12 view .LVU105
 356              	.LBE95:
 357              		.loc 1 193 1 view .LVU106
 358 00a8 09B0     		add	sp, sp, #36
 359              		.cfi_def_cfa_offset 20
 360              		@ sp needed
 361 00aa F0BD     		pop	{r4, r5, r6, r7, pc}
 362              	.LVL13:
 363              	.L7:
 364              		.loc 1 193 1 view .LVU107
 365              		.align	2
 366              	.L6:
 367 00ac 00000000 		.word	ch_system
 368 00b0 00000000 		.word	.LC0
 369 00b4 00000000 		.word	__idle_thread
 370 00b8 08000000 		.word	.LC1
 371              		.cfi_endproc
 372              	.LFE353:
 373              		.size	chInstanceObjectInit, .-chInstanceObjectInit
 374              		.text
 375              	.Letext0:
 376              		.file 8 "c:\\chibistudio\\tools\\gnu tools arm embedded\\11.3 2022.08\\arm-none-eabi\\include\\mac
 377              		.file 9 "c:\\chibistudio\\tools\\gnu tools arm embedded\\11.3 2022.08\\arm-none-eabi\\include\\sys
 378              		.file 10 "./ChibiOS/os/common/ports/ARM-common/include/chtypes.h"
 379              		.file 11 "./ChibiOS/os/rt/include/chearly.h"
 380              		.file 12 "./ChibiOS/os/rt/include/chobjects.h"
 381              		.file 13 "./ChibiOS/os/rt/include/chtime.h"
 382              		.file 14 "./ChibiOS/os/rt/include/chtrace.h"
 383              		.file 15 "./ChibiOS/os/common/ports/ARMv7-M/chcore.h"
 384              		.file 16 "./ChibiOS/os/rt/include/chtm.h"
 385              		.file 17 "./ChibiOS/os/rt/include/chsem.h"
 386              		.file 18 "./ChibiOS/os/rt/include/chmtx.h"
 387              		.file 19 "./ChibiOS/os/rt/include/chthreads.h"
 388              		.file 20 "./ChibiOS/os/rt/include/chsys.h"
 389              		.section	.debug_info,"",%progbits
 390              	.Ldebug_info0:
 391 0000 470E0000 		.4byte	0xe47
 392 0004 0500     		.2byte	0x5
 393 0006 01       		.byte	0x1
 394 0007 04       		.byte	0x4
 395 0008 00000000 		.4byte	.Ldebug_abbrev0
 396 000c 27       		.uleb128 0x27
 397 000d 2A030000 		.4byte	.LASF165
ARM GAS  C:\Users\DEVELO~1\AppData\Local\Temp\ccgFRn8O.s 			page 8


 398 0011 1D       		.byte	0x1d
 399 0012 84020000 		.4byte	.LASF166
 400 0016 F9010000 		.4byte	.LASF167
 401 001a 87000000 		.4byte	.LLRL19
 402 001e 00000000 		.4byte	0
 403 0022 00000000 		.4byte	.Ldebug_line0
 404 0026 28       		.uleb128 0x28
 405 0027 04       		.byte	0x4
 406 0028 05       		.byte	0x5
 407 0029 696E7400 		.ascii	"int\000"
 408 002d 06       		.uleb128 0x6
 409 002e 04       		.byte	0x4
 410 002f 07       		.byte	0x7
 411 0030 BF020000 		.4byte	.LASF0
 412 0034 06       		.uleb128 0x6
 413 0035 08       		.byte	0x8
 414 0036 05       		.byte	0x5
 415 0037 12010000 		.4byte	.LASF1
 416 003b 06       		.uleb128 0x6
 417 003c 08       		.byte	0x8
 418 003d 04       		.byte	0x4
 419 003e A2060000 		.4byte	.LASF2
 420 0042 06       		.uleb128 0x6
 421 0043 01       		.byte	0x1
 422 0044 06       		.byte	0x6
 423 0045 20010000 		.4byte	.LASF3
 424 0049 01       		.uleb128 0x1
 425 004a 42000000 		.4byte	.LASF6
 426 004e 08       		.byte	0x8
 427 004f 2B       		.byte	0x2b
 428 0050 18       		.byte	0x18
 429 0051 55000000 		.4byte	0x55
 430 0055 06       		.uleb128 0x6
 431 0056 01       		.byte	0x1
 432 0057 08       		.byte	0x8
 433 0058 E9050000 		.4byte	.LASF4
 434 005c 06       		.uleb128 0x6
 435 005d 02       		.byte	0x2
 436 005e 05       		.byte	0x5
 437 005f 0E060000 		.4byte	.LASF5
 438 0063 01       		.uleb128 0x1
 439 0064 EA060000 		.4byte	.LASF7
 440 0068 08       		.byte	0x8
 441 0069 39       		.byte	0x39
 442 006a 19       		.byte	0x19
 443 006b 6F000000 		.4byte	0x6f
 444 006f 06       		.uleb128 0x6
 445 0070 02       		.byte	0x2
 446 0071 07       		.byte	0x7
 447 0072 08040000 		.4byte	.LASF8
 448 0076 01       		.uleb128 0x1
 449 0077 8C040000 		.4byte	.LASF9
 450 007b 08       		.byte	0x8
 451 007c 4D       		.byte	0x4d
 452 007d 18       		.byte	0x18
 453 007e 82000000 		.4byte	0x82
 454 0082 06       		.uleb128 0x6
ARM GAS  C:\Users\DEVELO~1\AppData\Local\Temp\ccgFRn8O.s 			page 9


 455 0083 04       		.byte	0x4
 456 0084 05       		.byte	0x5
 457 0085 7D000000 		.4byte	.LASF10
 458 0089 01       		.uleb128 0x1
 459 008a 48020000 		.4byte	.LASF11
 460 008e 08       		.byte	0x8
 461 008f 4F       		.byte	0x4f
 462 0090 19       		.byte	0x19
 463 0091 95000000 		.4byte	0x95
 464 0095 06       		.uleb128 0x6
 465 0096 04       		.byte	0x4
 466 0097 07       		.byte	0x7
 467 0098 06030000 		.4byte	.LASF12
 468 009c 01       		.uleb128 0x1
 469 009d 92050000 		.4byte	.LASF13
 470 00a1 08       		.byte	0x8
 471 00a2 69       		.byte	0x69
 472 00a3 19       		.byte	0x19
 473 00a4 A8000000 		.4byte	0xa8
 474 00a8 06       		.uleb128 0x6
 475 00a9 08       		.byte	0x8
 476 00aa 07       		.byte	0x7
 477 00ab 9F010000 		.4byte	.LASF14
 478 00af 01       		.uleb128 0x1
 479 00b0 01080000 		.4byte	.LASF15
 480 00b4 09       		.byte	0x9
 481 00b5 18       		.byte	0x18
 482 00b6 13       		.byte	0x13
 483 00b7 49000000 		.4byte	0x49
 484 00bb 01       		.uleb128 0x1
 485 00bc 96010000 		.4byte	.LASF16
 486 00c0 09       		.byte	0x9
 487 00c1 24       		.byte	0x24
 488 00c2 14       		.byte	0x14
 489 00c3 63000000 		.4byte	0x63
 490 00c7 01       		.uleb128 0x1
 491 00c8 E1050000 		.4byte	.LASF17
 492 00cc 09       		.byte	0x9
 493 00cd 2C       		.byte	0x2c
 494 00ce 13       		.byte	0x13
 495 00cf 76000000 		.4byte	0x76
 496 00d3 01       		.uleb128 0x1
 497 00d4 7E060000 		.4byte	.LASF18
 498 00d8 09       		.byte	0x9
 499 00d9 30       		.byte	0x30
 500 00da 14       		.byte	0x14
 501 00db 89000000 		.4byte	0x89
 502 00df 01       		.uleb128 0x1
 503 00e0 3C050000 		.4byte	.LASF19
 504 00e4 09       		.byte	0x9
 505 00e5 3C       		.byte	0x3c
 506 00e6 14       		.byte	0x14
 507 00e7 9C000000 		.4byte	0x9c
 508 00eb 15       		.uleb128 0x15
 509 00ec DF000000 		.4byte	0xdf
 510 00f0 01       		.uleb128 0x1
 511 00f1 2F050000 		.4byte	.LASF20
ARM GAS  C:\Users\DEVELO~1\AppData\Local\Temp\ccgFRn8O.s 			page 10


 512 00f5 0A       		.byte	0xa
 513 00f6 36       		.byte	0x36
 514 00f7 1D       		.byte	0x1d
 515 00f8 D3000000 		.4byte	0xd3
 516 00fc 01       		.uleb128 0x1
 517 00fd CA000000 		.4byte	.LASF21
 518 0101 0A       		.byte	0xa
 519 0102 48       		.byte	0x48
 520 0103 1D       		.byte	0x1d
 521 0104 DF000000 		.4byte	0xdf
 522 0108 01       		.uleb128 0x1
 523 0109 E2040000 		.4byte	.LASF22
 524 010d 0B       		.byte	0xb
 525 010e 4D       		.byte	0x4d
 526 010f 19       		.byte	0x19
 527 0110 F0000000 		.4byte	0xf0
 528 0114 01       		.uleb128 0x1
 529 0115 64010000 		.4byte	.LASF23
 530 0119 0B       		.byte	0xb
 531 011a 50       		.byte	0x50
 532 011b 19       		.byte	0x19
 533 011c FC000000 		.4byte	0xfc
 534 0120 01       		.uleb128 0x1
 535 0121 62040000 		.4byte	.LASF24
 536 0125 0B       		.byte	0xb
 537 0126 53       		.byte	0x53
 538 0127 19       		.byte	0x19
 539 0128 AF000000 		.4byte	0xaf
 540 012c 01       		.uleb128 0x1
 541 012d 6E010000 		.4byte	.LASF25
 542 0131 0B       		.byte	0xb
 543 0132 54       		.byte	0x54
 544 0133 19       		.byte	0x19
 545 0134 AF000000 		.4byte	0xaf
 546 0138 01       		.uleb128 0x1
 547 0139 B1050000 		.4byte	.LASF26
 548 013d 0B       		.byte	0xb
 549 013e 55       		.byte	0x55
 550 013f 19       		.byte	0x19
 551 0140 AF000000 		.4byte	0xaf
 552 0144 01       		.uleb128 0x1
 553 0145 C3050000 		.4byte	.LASF27
 554 0149 0B       		.byte	0xb
 555 014a 57       		.byte	0x57
 556 014b 19       		.byte	0x19
 557 014c D3000000 		.4byte	0xd3
 558 0150 01       		.uleb128 0x1
 559 0151 2F040000 		.4byte	.LASF28
 560 0155 0B       		.byte	0xb
 561 0156 58       		.byte	0x58
 562 0157 19       		.byte	0x19
 563 0158 C7000000 		.4byte	0xc7
 564 015c 01       		.uleb128 0x1
 565 015d 80040000 		.4byte	.LASF29
 566 0161 0B       		.byte	0xb
 567 0162 5A       		.byte	0x5a
 568 0163 19       		.byte	0x19
ARM GAS  C:\Users\DEVELO~1\AppData\Local\Temp\ccgFRn8O.s 			page 11


 569 0164 D3000000 		.4byte	0xd3
 570 0168 01       		.uleb128 0x1
 571 0169 A6020000 		.4byte	.LASF30
 572 016d 0B       		.byte	0xb
 573 016e 5C       		.byte	0x5c
 574 016f 19       		.byte	0x19
 575 0170 C7000000 		.4byte	0xc7
 576 0174 01       		.uleb128 0x1
 577 0175 A7050000 		.4byte	.LASF31
 578 0179 0B       		.byte	0xb
 579 017a 80       		.byte	0x80
 580 017b 12       		.byte	0x12
 581 017c 2D000000 		.4byte	0x2d
 582 0180 01       		.uleb128 0x1
 583 0181 F5060000 		.4byte	.LASF32
 584 0185 0B       		.byte	0xb
 585 0186 85       		.byte	0x85
 586 0187 1A       		.byte	0x1a
 587 0188 8C010000 		.4byte	0x18c
 588 018c 07       		.uleb128 0x7
 589 018d 25040000 		.4byte	.LASF49
 590 0191 50       		.byte	0x50
 591 0192 0C       		.byte	0xc
 592 0193 A9       		.byte	0xa9
 593 0194 08       		.byte	0x8
 594 0195 83020000 		.4byte	0x283
 595 0199 08       		.uleb128 0x8
 596 019a 68647200 		.ascii	"hdr\000"
 597 019e 0C       		.byte	0xc
 598 019f BA       		.byte	0xba
 599 01a0 05       		.byte	0x5
 600 01a1 D6070000 		.4byte	0x7d6
 601 01a5 00       		.byte	0
 602 01a6 08       		.uleb128 0x8
 603 01a7 63747800 		.ascii	"ctx\000"
 604 01ab 0C       		.byte	0xc
 605 01ac BE       		.byte	0xbe
 606 01ad 21       		.byte	0x21
 607 01ae CC050000 		.4byte	0x5cc
 608 01b2 0C       		.byte	0xc
 609 01b3 02       		.uleb128 0x2
 610 01b4 8E060000 		.4byte	.LASF33
 611 01b8 0C       		.byte	0xc
 612 01b9 C2       		.byte	0xc2
 613 01ba 22       		.byte	0x22
 614 01bb DA080000 		.4byte	0x8da
 615 01bf 10       		.byte	0x10
 616 01c0 02       		.uleb128 0x2
 617 01c1 AE060000 		.4byte	.LASF34
 618 01c5 0C       		.byte	0xc
 619 01c6 C8       		.byte	0xc8
 620 01c7 22       		.byte	0x22
 621 01c8 DF080000 		.4byte	0x8df
 622 01cc 14       		.byte	0x14
 623 01cd 02       		.uleb128 0x2
 624 01ce C7040000 		.4byte	.LASF35
 625 01d2 0C       		.byte	0xc
ARM GAS  C:\Users\DEVELO~1\AppData\Local\Temp\ccgFRn8O.s 			page 12


 626 01d3 CD       		.byte	0xcd
 627 01d4 21       		.byte	0x21
 628 01d5 DF080000 		.4byte	0x8df
 629 01d9 18       		.byte	0x18
 630 01da 02       		.uleb128 0x2
 631 01db 5E010000 		.4byte	.LASF36
 632 01df 0C       		.byte	0xc
 633 01e0 D1       		.byte	0xd1
 634 01e1 21       		.byte	0x21
 635 01e2 2C010000 		.4byte	0x12c
 636 01e6 1C       		.byte	0x1c
 637 01e7 02       		.uleb128 0x2
 638 01e8 09080000 		.4byte	.LASF37
 639 01ec 0C       		.byte	0xc
 640 01ed D5       		.byte	0xd5
 641 01ee 21       		.byte	0x21
 642 01ef 20010000 		.4byte	0x120
 643 01f3 1D       		.byte	0x1d
 644 01f4 02       		.uleb128 0x2
 645 01f5 B9050000 		.4byte	.LASF38
 646 01f9 0C       		.byte	0xc
 647 01fa DA       		.byte	0xda
 648 01fb 21       		.byte	0x21
 649 01fc 38010000 		.4byte	0x138
 650 0200 1E       		.byte	0x1e
 651 0201 02       		.uleb128 0x2
 652 0202 DF030000 		.4byte	.LASF39
 653 0206 0C       		.byte	0xc
 654 0207 DE       		.byte	0xde
 655 0208 22       		.byte	0x22
 656 0209 70030000 		.4byte	0x370
 657 020d 20       		.byte	0x20
 658 020e 02       		.uleb128 0x2
 659 020f 18030000 		.4byte	.LASF40
 660 0213 0C       		.byte	0xc
 661 0214 E2       		.byte	0xe2
 662 0215 21       		.byte	0x21
 663 0216 19060000 		.4byte	0x619
 664 021a 24       		.byte	0x24
 665 021b 02       		.uleb128 0x2
 666 021c B3000000 		.4byte	.LASF41
 667 0220 0C       		.byte	0xc
 668 0221 E8       		.byte	0xe8
 669 0222 21       		.byte	0x21
 670 0223 BA070000 		.4byte	0x7ba
 671 0227 2C       		.byte	0x2c
 672 0228 02       		.uleb128 0x2
 673 0229 00010000 		.4byte	.LASF42
 674 022d 0C       		.byte	0xc
 675 022e EE       		.byte	0xee
 676 022f 22       		.byte	0x22
 677 0230 DF030000 		.4byte	0x3df
 678 0234 30       		.byte	0x30
 679 0235 05       		.uleb128 0x5
 680 0236 7500     		.ascii	"u\000"
 681 0238 0C       		.byte	0xc
 682 0239 3F01     		.2byte	0x13f
ARM GAS  C:\Users\DEVELO~1\AppData\Local\Temp\ccgFRn8O.s 			page 13


 683 023b 21       		.byte	0x21
 684 023c 03080000 		.4byte	0x803
 685 0240 34       		.byte	0x34
 686 0241 03       		.uleb128 0x3
 687 0242 58020000 		.4byte	.LASF43
 688 0246 4401     		.2byte	0x144
 689 0248 21       		.byte	0x21
 690 0249 ED050000 		.4byte	0x5ed
 691 024d 38       		.byte	0x38
 692 024e 03       		.uleb128 0x3
 693 024f AC040000 		.4byte	.LASF44
 694 0253 4A01     		.2byte	0x14a
 695 0255 21       		.byte	0x21
 696 0256 19060000 		.4byte	0x619
 697 025a 3C       		.byte	0x3c
 698 025b 03       		.uleb128 0x3
 699 025c 35040000 		.4byte	.LASF45
 700 0260 5001     		.2byte	0x150
 701 0262 21       		.byte	0x21
 702 0263 5C010000 		.4byte	0x15c
 703 0267 44       		.byte	0x44
 704 0268 03       		.uleb128 0x3
 705 0269 5A080000 		.4byte	.LASF46
 706 026d 5701     		.2byte	0x157
 707 026f 22       		.byte	0x22
 708 0270 D5080000 		.4byte	0x8d5
 709 0274 48       		.byte	0x48
 710 0275 03       		.uleb128 0x3
 711 0276 CD040000 		.4byte	.LASF47
 712 027a 5B01     		.2byte	0x15b
 713 027c 21       		.byte	0x21
 714 027d 44010000 		.4byte	0x144
 715 0281 4C       		.byte	0x4c
 716 0282 00       		.byte	0
 717 0283 01       		.uleb128 0x1
 718 0284 50070000 		.4byte	.LASF48
 719 0288 0B       		.byte	0xb
 720 0289 8A       		.byte	0x8a
 721 028a 1F       		.byte	0x1f
 722 028b 8F020000 		.4byte	0x28f
 723 028f 29       		.uleb128 0x29
 724 0290 3A070000 		.4byte	.LASF50
 725 0294 F008     		.2byte	0x8f0
 726 0296 0C       		.byte	0xc
 727 0297 9701     		.2byte	0x197
 728 0299 08       		.byte	0x8
 729 029a 22030000 		.4byte	0x322
 730 029e 03       		.uleb128 0x3
 731 029f F1070000 		.4byte	.LASF51
 732 02a3 9B01     		.2byte	0x19b
 733 02a5 21       		.byte	0x21
 734 02a6 0D090000 		.4byte	0x90d
 735 02aa 00       		.byte	0
 736 02ab 03       		.uleb128 0x3
 737 02ac 5D000000 		.4byte	.LASF52
 738 02b0 9F01     		.2byte	0x19f
 739 02b2 21       		.byte	0x21
ARM GAS  C:\Users\DEVELO~1\AppData\Local\Temp\ccgFRn8O.s 			page 14


 740 02b3 7B070000 		.4byte	0x77b
 741 02b7 10       		.byte	0x10
 742 02b8 03       		.uleb128 0x3
 743 02b9 5E070000 		.4byte	.LASF53
 744 02bd A601     		.2byte	0x1a6
 745 02bf 21       		.byte	0x21
 746 02c0 A2070000 		.4byte	0x7a2
 747 02c4 30       		.byte	0x30
 748 02c5 03       		.uleb128 0x3
 749 02c6 FB030000 		.4byte	.LASF54
 750 02ca AB01     		.2byte	0x1ab
 751 02cc 21       		.byte	0x21
 752 02cd 74010000 		.4byte	0x174
 753 02d1 38       		.byte	0x38
 754 02d2 03       		.uleb128 0x3
 755 02d3 3D000000 		.4byte	.LASF55
 756 02d7 B101     		.2byte	0x1b1
 757 02d9 21       		.byte	0x21
 758 02da 49030000 		.4byte	0x349
 759 02de 3C       		.byte	0x3c
 760 02df 03       		.uleb128 0x3
 761 02e0 F0020000 		.4byte	.LASF56
 762 02e4 B601     		.2byte	0x1b6
 763 02e6 22       		.byte	0x22
 764 02e7 78090000 		.4byte	0x978
 765 02eb 40       		.byte	0x40
 766 02ec 03       		.uleb128 0x3
 767 02ed 62080000 		.4byte	.LASF57
 768 02f1 BA01     		.2byte	0x1ba
 769 02f3 21       		.byte	0x21
 770 02f4 80010000 		.4byte	0x180
 771 02f8 44       		.byte	0x44
 772 02f9 03       		.uleb128 0x3
 773 02fa E2000000 		.4byte	.LASF58
 774 02fe BF01     		.2byte	0x1bf
 775 0300 21       		.byte	0x21
 776 0301 80010000 		.4byte	0x180
 777 0305 94       		.byte	0x94
 778 0306 05       		.uleb128 0x5
 779 0307 64626700 		.ascii	"dbg\000"
 780 030b 0C       		.byte	0xc
 781 030c C401     		.2byte	0x1c4
 782 030e 21       		.byte	0x21
 783 030f 86030000 		.4byte	0x386
 784 0313 E4       		.byte	0xe4
 785 0314 03       		.uleb128 0x3
 786 0315 2B080000 		.4byte	.LASF59
 787 0319 C901     		.2byte	0x1c9
 788 031b 21       		.byte	0x21
 789 031c 3A050000 		.4byte	0x53a
 790 0320 E8       		.byte	0xe8
 791 0321 00       		.byte	0
 792 0322 01       		.uleb128 0x1
 793 0323 D6040000 		.4byte	.LASF60
 794 0327 04       		.byte	0x4
 795 0328 3F       		.byte	0x3f
 796 0329 12       		.byte	0x12
ARM GAS  C:\Users\DEVELO~1\AppData\Local\Temp\ccgFRn8O.s 			page 15


 797 032a D3000000 		.4byte	0xd3
 798 032e 07       		.uleb128 0x7
 799 032f 77010000 		.4byte	.LASF61
 800 0333 04       		.byte	0x4
 801 0334 04       		.byte	0x4
 802 0335 44       		.byte	0x44
 803 0336 10       		.byte	0x10
 804 0337 49030000 		.4byte	0x349
 805 033b 02       		.uleb128 0x2
 806 033c 53020000 		.4byte	.LASF62
 807 0340 04       		.byte	0x4
 808 0341 48       		.byte	0x48
 809 0342 21       		.byte	0x21
 810 0343 22030000 		.4byte	0x322
 811 0347 00       		.byte	0
 812 0348 00       		.byte	0
 813 0349 01       		.uleb128 0x1
 814 034a F7050000 		.4byte	.LASF63
 815 034e 04       		.byte	0x4
 816 034f 49       		.byte	0x49
 817 0350 03       		.byte	0x3
 818 0351 2E030000 		.4byte	0x32e
 819 0355 07       		.uleb128 0x7
 820 0356 CB050000 		.4byte	.LASF64
 821 035a 04       		.byte	0x4
 822 035b 07       		.byte	0x7
 823 035c 3E       		.byte	0x3e
 824 035d 10       		.byte	0x10
 825 035e 70030000 		.4byte	0x370
 826 0362 02       		.uleb128 0x2
 827 0363 29070000 		.4byte	.LASF65
 828 0367 07       		.byte	0x7
 829 0368 46       		.byte	0x46
 830 0369 24       		.byte	0x24
 831 036a 75030000 		.4byte	0x375
 832 036e 00       		.byte	0
 833 036f 00       		.byte	0
 834 0370 04       		.uleb128 0x4
 835 0371 81030000 		.4byte	0x381
 836 0375 15       		.uleb128 0x15
 837 0376 70030000 		.4byte	0x370
 838 037a 06       		.uleb128 0x6
 839 037b 01       		.byte	0x1
 840 037c 08       		.byte	0x8
 841 037d B5060000 		.4byte	.LASF66
 842 0381 12       		.uleb128 0x12
 843 0382 7A030000 		.4byte	0x37a
 844 0386 01       		.uleb128 0x1
 845 0387 F7020000 		.4byte	.LASF67
 846 038b 07       		.byte	0x7
 847 038c 51       		.byte	0x51
 848 038d 03       		.byte	0x3
 849 038e 55030000 		.4byte	0x355
 850 0392 01       		.uleb128 0x1
 851 0393 04070000 		.4byte	.LASF68
 852 0397 0D       		.byte	0xd
 853 0398 6D       		.byte	0x6d
ARM GAS  C:\Users\DEVELO~1\AppData\Local\Temp\ccgFRn8O.s 			page 16


 854 0399 12       		.byte	0x12
 855 039a D3000000 		.4byte	0xd3
 856 039e 01       		.uleb128 0x1
 857 039f 7F010000 		.4byte	.LASF69
 858 03a3 0D       		.byte	0xd
 859 03a4 79       		.byte	0x79
 860 03a5 12       		.byte	0x12
 861 03a6 D3000000 		.4byte	0xd3
 862 03aa 01       		.uleb128 0x1
 863 03ab EA010000 		.4byte	.LASF70
 864 03af 0D       		.byte	0xd
 865 03b0 81       		.byte	0x81
 866 03b1 12       		.byte	0x12
 867 03b2 DF000000 		.4byte	0xdf
 868 03b6 09       		.uleb128 0x9
 869 03b7 08       		.byte	0x8
 870 03b8 0E       		.byte	0xe
 871 03b9 83       		.byte	0x83
 872 03ba 05       		.byte	0x5
 873 03bb DA030000 		.4byte	0x3da
 874 03bf 08       		.uleb128 0x8
 875 03c0 6E747000 		.ascii	"ntp\000"
 876 03c4 0E       		.byte	0xe
 877 03c5 87       		.byte	0x87
 878 03c6 1E       		.byte	0x1e
 879 03c7 DA030000 		.4byte	0x3da
 880 03cb 00       		.byte	0
 881 03cc 02       		.uleb128 0x2
 882 03cd 21060000 		.4byte	.LASF71
 883 03d1 0E       		.byte	0xe
 884 03d2 8B       		.byte	0x8b
 885 03d3 1E       		.byte	0x1e
 886 03d4 DF030000 		.4byte	0x3df
 887 03d8 04       		.byte	0x4
 888 03d9 00       		.byte	0
 889 03da 04       		.uleb128 0x4
 890 03db 80010000 		.4byte	0x180
 891 03df 2A       		.uleb128 0x2a
 892 03e0 04       		.byte	0x4
 893 03e1 09       		.uleb128 0x9
 894 03e2 08       		.byte	0x8
 895 03e3 0E       		.byte	0xe
 896 03e4 90       		.byte	0x90
 897 03e5 05       		.byte	0x5
 898 03e6 04040000 		.4byte	0x404
 899 03ea 08       		.uleb128 0x8
 900 03eb 747000   		.ascii	"tp\000"
 901 03ee 0E       		.byte	0xe
 902 03ef 94       		.byte	0x94
 903 03f0 1E       		.byte	0x1e
 904 03f1 DA030000 		.4byte	0x3da
 905 03f5 00       		.byte	0
 906 03f6 08       		.uleb128 0x8
 907 03f7 6D736700 		.ascii	"msg\000"
 908 03fb 0E       		.byte	0xe
 909 03fc 98       		.byte	0x98
 910 03fd 1D       		.byte	0x1d
ARM GAS  C:\Users\DEVELO~1\AppData\Local\Temp\ccgFRn8O.s 			page 17


 911 03fe 50010000 		.4byte	0x150
 912 0402 04       		.byte	0x4
 913 0403 00       		.byte	0
 914 0404 09       		.uleb128 0x9
 915 0405 04       		.byte	0x4
 916 0406 0E       		.byte	0xe
 917 0407 9D       		.byte	0x9d
 918 0408 05       		.byte	0x5
 919 0409 1B040000 		.4byte	0x41b
 920 040d 02       		.uleb128 0x2
 921 040e DF030000 		.4byte	.LASF39
 922 0412 0E       		.byte	0xe
 923 0413 A1       		.byte	0xa1
 924 0414 1E       		.byte	0x1e
 925 0415 70030000 		.4byte	0x370
 926 0419 00       		.byte	0
 927 041a 00       		.byte	0
 928 041b 09       		.uleb128 0x9
 929 041c 04       		.byte	0x4
 930 041d 0E       		.byte	0xe
 931 041e A6       		.byte	0xa6
 932 041f 05       		.byte	0x5
 933 0420 32040000 		.4byte	0x432
 934 0424 02       		.uleb128 0x2
 935 0425 4F060000 		.4byte	.LASF72
 936 0429 0E       		.byte	0xe
 937 042a AA       		.byte	0xaa
 938 042b 1E       		.byte	0x1e
 939 042c 70030000 		.4byte	0x370
 940 0430 00       		.byte	0
 941 0431 00       		.byte	0
 942 0432 09       		.uleb128 0x9
 943 0433 08       		.byte	0x8
 944 0434 0E       		.byte	0xe
 945 0435 AF       		.byte	0xaf
 946 0436 05       		.byte	0x5
 947 0437 56040000 		.4byte	0x456
 948 043b 08       		.uleb128 0x8
 949 043c 75703100 		.ascii	"up1\000"
 950 0440 0E       		.byte	0xe
 951 0441 B3       		.byte	0xb3
 952 0442 1E       		.byte	0x1e
 953 0443 DF030000 		.4byte	0x3df
 954 0447 00       		.byte	0
 955 0448 08       		.uleb128 0x8
 956 0449 75703200 		.ascii	"up2\000"
 957 044d 0E       		.byte	0xe
 958 044e B7       		.byte	0xb7
 959 044f 1E       		.byte	0x1e
 960 0450 DF030000 		.4byte	0x3df
 961 0454 04       		.byte	0x4
 962 0455 00       		.byte	0
 963 0456 1D       		.uleb128 0x1d
 964 0457 08       		.byte	0x8
 965 0458 0E       		.byte	0xe
 966 0459 7F       		.byte	0x7f
 967 045a 94040000 		.4byte	0x494
ARM GAS  C:\Users\DEVELO~1\AppData\Local\Temp\ccgFRn8O.s 			page 18


 968 045e 16       		.uleb128 0x16
 969 045f 737700   		.ascii	"sw\000"
 970 0462 8C       		.byte	0x8c
 971 0463 B6030000 		.4byte	0x3b6
 972 0467 16       		.uleb128 0x16
 973 0468 72647900 		.ascii	"rdy\000"
 974 046c 99       		.byte	0x99
 975 046d E1030000 		.4byte	0x3e1
 976 0471 16       		.uleb128 0x16
 977 0472 69737200 		.ascii	"isr\000"
 978 0476 A2       		.byte	0xa2
 979 0477 04040000 		.4byte	0x404
 980 047b 0E       		.uleb128 0xe
 981 047c AE000000 		.4byte	.LASF73
 982 0480 0E       		.byte	0xe
 983 0481 AB       		.byte	0xab
 984 0482 07       		.byte	0x7
 985 0483 1B040000 		.4byte	0x41b
 986 0487 0E       		.uleb128 0xe
 987 0488 BE050000 		.4byte	.LASF74
 988 048c 0E       		.byte	0xe
 989 048d B8       		.byte	0xb8
 990 048e 07       		.byte	0x7
 991 048f 32040000 		.4byte	0x432
 992 0493 00       		.byte	0
 993 0494 09       		.uleb128 0x9
 994 0495 10       		.byte	0x10
 995 0496 0E       		.byte	0xe
 996 0497 6C       		.byte	0x6c
 997 0498 09       		.byte	0x9
 998 0499 DA040000 		.4byte	0x4da
 999 049d 17       		.uleb128 0x17
 1000 049e 64000000 		.4byte	.LASF75
 1001 04a2 70       		.byte	0x70
 1002 04a3 D3000000 		.4byte	0xd3
 1003 04a7 03       		.byte	0x3
 1004 04a8 00       		.byte	0
 1005 04a9 17       		.uleb128 0x17
 1006 04aa 5E010000 		.4byte	.LASF36
 1007 04ae 74       		.byte	0x74
 1008 04af D3000000 		.4byte	0xd3
 1009 04b3 05       		.byte	0x5
 1010 04b4 03       		.byte	0x3
 1011 04b5 17       		.uleb128 0x17
 1012 04b6 B5040000 		.4byte	.LASF76
 1013 04ba 7A       		.byte	0x7a
 1014 04bb D3000000 		.4byte	0xd3
 1015 04bf 18       		.byte	0x18
 1016 04c0 08       		.byte	0x8
 1017 04c1 02       		.uleb128 0x2
 1018 04c2 72050000 		.4byte	.LASF77
 1019 04c6 0E       		.byte	0xe
 1020 04c7 7E       		.byte	0x7e
 1021 04c8 19       		.byte	0x19
 1022 04c9 92030000 		.4byte	0x392
 1023 04cd 04       		.byte	0x4
 1024 04ce 08       		.uleb128 0x8
ARM GAS  C:\Users\DEVELO~1\AppData\Local\Temp\ccgFRn8O.s 			page 19


 1025 04cf 7500     		.ascii	"u\000"
 1026 04d1 0E       		.byte	0xe
 1027 04d2 B9       		.byte	0xb9
 1028 04d3 05       		.byte	0x5
 1029 04d4 56040000 		.4byte	0x456
 1030 04d8 08       		.byte	0x8
 1031 04d9 00       		.byte	0
 1032 04da 01       		.uleb128 0x1
 1033 04db 86000000 		.4byte	.LASF78
 1034 04df 0E       		.byte	0xe
 1035 04e0 BA       		.byte	0xba
 1036 04e1 03       		.byte	0x3
 1037 04e2 94040000 		.4byte	0x494
 1038 04e6 2B       		.uleb128 0x2b
 1039 04e7 0808     		.2byte	0x808
 1040 04e9 0E       		.byte	0xe
 1041 04ea C0       		.byte	0xc0
 1042 04eb 09       		.byte	0x9
 1043 04ec 25050000 		.4byte	0x525
 1044 04f0 02       		.uleb128 0x2
 1045 04f1 19050000 		.4byte	.LASF79
 1046 04f5 0E       		.byte	0xe
 1047 04f6 C4       		.byte	0xc4
 1048 04f7 19       		.byte	0x19
 1049 04f8 BB000000 		.4byte	0xbb
 1050 04fc 00       		.byte	0
 1051 04fd 02       		.uleb128 0x2
 1052 04fe 03040000 		.4byte	.LASF80
 1053 0502 0E       		.byte	0xe
 1054 0503 C8       		.byte	0xc8
 1055 0504 19       		.byte	0x19
 1056 0505 BB000000 		.4byte	0xbb
 1057 0509 02       		.byte	0x2
 1058 050a 08       		.uleb128 0x8
 1059 050b 70747200 		.ascii	"ptr\000"
 1060 050f 0E       		.byte	0xe
 1061 0510 CC       		.byte	0xcc
 1062 0511 1A       		.byte	0x1a
 1063 0512 25050000 		.4byte	0x525
 1064 0516 04       		.byte	0x4
 1065 0517 02       		.uleb128 0x2
 1066 0518 0E070000 		.4byte	.LASF81
 1067 051c 0E       		.byte	0xe
 1068 051d D0       		.byte	0xd0
 1069 051e 19       		.byte	0x19
 1070 051f 2A050000 		.4byte	0x52a
 1071 0523 08       		.byte	0x8
 1072 0524 00       		.byte	0
 1073 0525 04       		.uleb128 0x4
 1074 0526 DA040000 		.4byte	0x4da
 1075 052a 18       		.uleb128 0x18
 1076 052b DA040000 		.4byte	0x4da
 1077 052f 3A050000 		.4byte	0x53a
 1078 0533 19       		.uleb128 0x19
 1079 0534 2D000000 		.4byte	0x2d
 1080 0538 7F       		.byte	0x7f
 1081 0539 00       		.byte	0
ARM GAS  C:\Users\DEVELO~1\AppData\Local\Temp\ccgFRn8O.s 			page 20


 1082 053a 01       		.uleb128 0x1
 1083 053b B6010000 		.4byte	.LASF82
 1084 053f 0E       		.byte	0xe
 1085 0540 D1       		.byte	0xd1
 1086 0541 03       		.byte	0x3
 1087 0542 E6040000 		.4byte	0x4e6
 1088 0546 0F       		.uleb128 0xf
 1089 0547 51000000 		.4byte	.LASF83
 1090 054b 24       		.byte	0x24
 1091 054c 0F       		.byte	0xf
 1092 054d 3F02     		.2byte	0x23f
 1093 054f 08       		.byte	0x8
 1094 0550 CC050000 		.4byte	0x5cc
 1095 0554 05       		.uleb128 0x5
 1096 0555 723400   		.ascii	"r4\000"
 1097 0558 0F       		.byte	0xf
 1098 0559 5202     		.2byte	0x252
 1099 055b 11       		.byte	0x11
 1100 055c D3000000 		.4byte	0xd3
 1101 0560 00       		.byte	0
 1102 0561 05       		.uleb128 0x5
 1103 0562 723500   		.ascii	"r5\000"
 1104 0565 0F       		.byte	0xf
 1105 0566 5302     		.2byte	0x253
 1106 0568 11       		.byte	0x11
 1107 0569 D3000000 		.4byte	0xd3
 1108 056d 04       		.byte	0x4
 1109 056e 05       		.uleb128 0x5
 1110 056f 723600   		.ascii	"r6\000"
 1111 0572 0F       		.byte	0xf
 1112 0573 5402     		.2byte	0x254
 1113 0575 11       		.byte	0x11
 1114 0576 D3000000 		.4byte	0xd3
 1115 057a 08       		.byte	0x8
 1116 057b 05       		.uleb128 0x5
 1117 057c 723700   		.ascii	"r7\000"
 1118 057f 0F       		.byte	0xf
 1119 0580 5502     		.2byte	0x255
 1120 0582 11       		.byte	0x11
 1121 0583 D3000000 		.4byte	0xd3
 1122 0587 0C       		.byte	0xc
 1123 0588 05       		.uleb128 0x5
 1124 0589 723800   		.ascii	"r8\000"
 1125 058c 0F       		.byte	0xf
 1126 058d 5602     		.2byte	0x256
 1127 058f 11       		.byte	0x11
 1128 0590 D3000000 		.4byte	0xd3
 1129 0594 10       		.byte	0x10
 1130 0595 05       		.uleb128 0x5
 1131 0596 723900   		.ascii	"r9\000"
 1132 0599 0F       		.byte	0xf
 1133 059a 5702     		.2byte	0x257
 1134 059c 11       		.byte	0x11
 1135 059d D3000000 		.4byte	0xd3
 1136 05a1 14       		.byte	0x14
 1137 05a2 05       		.uleb128 0x5
 1138 05a3 72313000 		.ascii	"r10\000"
ARM GAS  C:\Users\DEVELO~1\AppData\Local\Temp\ccgFRn8O.s 			page 21


 1139 05a7 0F       		.byte	0xf
 1140 05a8 5802     		.2byte	0x258
 1141 05aa 11       		.byte	0x11
 1142 05ab D3000000 		.4byte	0xd3
 1143 05af 18       		.byte	0x18
 1144 05b0 05       		.uleb128 0x5
 1145 05b1 72313100 		.ascii	"r11\000"
 1146 05b5 0F       		.byte	0xf
 1147 05b6 5902     		.2byte	0x259
 1148 05b8 11       		.byte	0x11
 1149 05b9 D3000000 		.4byte	0xd3
 1150 05bd 1C       		.byte	0x1c
 1151 05be 05       		.uleb128 0x5
 1152 05bf 6C7200   		.ascii	"lr\000"
 1153 05c2 0F       		.byte	0xf
 1154 05c3 5A02     		.2byte	0x25a
 1155 05c5 11       		.byte	0x11
 1156 05c6 D3000000 		.4byte	0xd3
 1157 05ca 20       		.byte	0x20
 1158 05cb 00       		.byte	0
 1159 05cc 0F       		.uleb128 0xf
 1160 05cd 77020000 		.4byte	.LASF84
 1161 05d1 04       		.byte	0x4
 1162 05d2 0F       		.byte	0xf
 1163 05d3 6302     		.2byte	0x263
 1164 05d5 08       		.byte	0x8
 1165 05d6 E8050000 		.4byte	0x5e8
 1166 05da 05       		.uleb128 0x5
 1167 05db 737000   		.ascii	"sp\000"
 1168 05de 0F       		.byte	0xf
 1169 05df 6402     		.2byte	0x264
 1170 05e1 1A       		.byte	0x1a
 1171 05e2 E8050000 		.4byte	0x5e8
 1172 05e6 00       		.byte	0
 1173 05e7 00       		.byte	0
 1174 05e8 04       		.uleb128 0x4
 1175 05e9 46050000 		.4byte	0x546
 1176 05ed 01       		.uleb128 0x1
 1177 05ee F7070000 		.4byte	.LASF85
 1178 05f2 03       		.byte	0x3
 1179 05f3 32       		.byte	0x32
 1180 05f4 18       		.byte	0x18
 1181 05f5 F9050000 		.4byte	0x5f9
 1182 05f9 07       		.uleb128 0x7
 1183 05fa 6A040000 		.4byte	.LASF86
 1184 05fe 04       		.byte	0x4
 1185 05ff 03       		.byte	0x3
 1186 0600 38       		.byte	0x38
 1187 0601 08       		.byte	0x8
 1188 0602 14060000 		.4byte	0x614
 1189 0606 02       		.uleb128 0x2
 1190 0607 FB000000 		.4byte	.LASF87
 1191 060b 03       		.byte	0x3
 1192 060c 39       		.byte	0x39
 1193 060d 1A       		.byte	0x1a
 1194 060e 14060000 		.4byte	0x614
 1195 0612 00       		.byte	0
ARM GAS  C:\Users\DEVELO~1\AppData\Local\Temp\ccgFRn8O.s 			page 22


 1196 0613 00       		.byte	0
 1197 0614 04       		.uleb128 0x4
 1198 0615 ED050000 		.4byte	0x5ed
 1199 0619 01       		.uleb128 0x1
 1200 061a 1F030000 		.4byte	.LASF88
 1201 061e 03       		.byte	0x3
 1202 061f 3F       		.byte	0x3f
 1203 0620 19       		.byte	0x19
 1204 0621 25060000 		.4byte	0x625
 1205 0625 07       		.uleb128 0x7
 1206 0626 8D010000 		.4byte	.LASF89
 1207 062a 08       		.byte	0x8
 1208 062b 03       		.byte	0x3
 1209 062c 45       		.byte	0x45
 1210 062d 08       		.byte	0x8
 1211 062e 4D060000 		.4byte	0x64d
 1212 0632 02       		.uleb128 0x2
 1213 0633 FB000000 		.4byte	.LASF87
 1214 0637 03       		.byte	0x3
 1215 0638 46       		.byte	0x46
 1216 0639 1A       		.byte	0x1a
 1217 063a 4D060000 		.4byte	0x64d
 1218 063e 00       		.byte	0
 1219 063f 02       		.uleb128 0x2
 1220 0640 4C000000 		.4byte	.LASF90
 1221 0644 03       		.byte	0x3
 1222 0645 47       		.byte	0x47
 1223 0646 1A       		.byte	0x1a
 1224 0647 4D060000 		.4byte	0x64d
 1225 064b 04       		.byte	0x4
 1226 064c 00       		.byte	0
 1227 064d 04       		.uleb128 0x4
 1228 064e 19060000 		.4byte	0x619
 1229 0652 01       		.uleb128 0x1
 1230 0653 15070000 		.4byte	.LASF91
 1231 0657 03       		.byte	0x3
 1232 0658 4E       		.byte	0x4e
 1233 0659 22       		.byte	0x22
 1234 065a 5E060000 		.4byte	0x65e
 1235 065e 07       		.uleb128 0x7
 1236 065f 74070000 		.4byte	.LASF92
 1237 0663 0C       		.byte	0xc
 1238 0664 03       		.byte	0x3
 1239 0665 55       		.byte	0x55
 1240 0666 08       		.byte	0x8
 1241 0667 93060000 		.4byte	0x693
 1242 066b 02       		.uleb128 0x2
 1243 066c FB000000 		.4byte	.LASF87
 1244 0670 03       		.byte	0x3
 1245 0671 56       		.byte	0x56
 1246 0672 1A       		.byte	0x1a
 1247 0673 93060000 		.4byte	0x693
 1248 0677 00       		.byte	0
 1249 0678 02       		.uleb128 0x2
 1250 0679 4C000000 		.4byte	.LASF90
 1251 067d 03       		.byte	0x3
 1252 067e 57       		.byte	0x57
ARM GAS  C:\Users\DEVELO~1\AppData\Local\Temp\ccgFRn8O.s 			page 23


 1253 067f 1A       		.byte	0x1a
 1254 0680 93060000 		.4byte	0x693
 1255 0684 04       		.byte	0x4
 1256 0685 02       		.uleb128 0x2
 1257 0686 77050000 		.4byte	.LASF93
 1258 068a 03       		.byte	0x3
 1259 068b 58       		.byte	0x58
 1260 068c 19       		.byte	0x19
 1261 068d 44010000 		.4byte	0x144
 1262 0691 08       		.byte	0x8
 1263 0692 00       		.byte	0
 1264 0693 04       		.uleb128 0x4
 1265 0694 52060000 		.4byte	0x652
 1266 0698 01       		.uleb128 0x1
 1267 0699 9F070000 		.4byte	.LASF94
 1268 069d 03       		.byte	0x3
 1269 069e 5F       		.byte	0x5f
 1270 069f 1E       		.byte	0x1e
 1271 06a0 A4060000 		.4byte	0x6a4
 1272 06a4 07       		.uleb128 0x7
 1273 06a5 2C010000 		.4byte	.LASF95
 1274 06a9 0C       		.byte	0xc
 1275 06aa 03       		.byte	0x3
 1276 06ab 64       		.byte	0x64
 1277 06ac 08       		.byte	0x8
 1278 06ad D9060000 		.4byte	0x6d9
 1279 06b1 02       		.uleb128 0x2
 1280 06b2 FB000000 		.4byte	.LASF87
 1281 06b6 03       		.byte	0x3
 1282 06b7 65       		.byte	0x65
 1283 06b8 1A       		.byte	0x1a
 1284 06b9 D9060000 		.4byte	0x6d9
 1285 06bd 00       		.byte	0
 1286 06be 02       		.uleb128 0x2
 1287 06bf 4C000000 		.4byte	.LASF90
 1288 06c3 03       		.byte	0x3
 1289 06c4 66       		.byte	0x66
 1290 06c5 1A       		.byte	0x1a
 1291 06c6 D9060000 		.4byte	0x6d9
 1292 06ca 04       		.byte	0x4
 1293 06cb 02       		.uleb128 0x2
 1294 06cc F5000000 		.4byte	.LASF96
 1295 06d0 03       		.byte	0x3
 1296 06d1 67       		.byte	0x67
 1297 06d2 19       		.byte	0x19
 1298 06d3 9E030000 		.4byte	0x39e
 1299 06d7 08       		.byte	0x8
 1300 06d8 00       		.byte	0
 1301 06d9 04       		.uleb128 0x4
 1302 06da 98060000 		.4byte	0x698
 1303 06de 09       		.uleb128 0x9
 1304 06df 04       		.byte	0x4
 1305 06e0 10       		.byte	0x10
 1306 06e1 3F       		.byte	0x3f
 1307 06e2 09       		.byte	0x9
 1308 06e3 F5060000 		.4byte	0x6f5
 1309 06e7 02       		.uleb128 0x2
ARM GAS  C:\Users\DEVELO~1\AppData\Local\Temp\ccgFRn8O.s 			page 24


 1310 06e8 49070000 		.4byte	.LASF97
 1311 06ec 10       		.byte	0x10
 1312 06ed 43       		.byte	0x43
 1313 06ee 19       		.byte	0x19
 1314 06ef 08010000 		.4byte	0x108
 1315 06f3 00       		.byte	0
 1316 06f4 00       		.byte	0
 1317 06f5 01       		.uleb128 0x1
 1318 06f6 61050000 		.4byte	.LASF98
 1319 06fa 10       		.byte	0x10
 1320 06fb 44       		.byte	0x44
 1321 06fc 03       		.byte	0x3
 1322 06fd DE060000 		.4byte	0x6de
 1323 0701 2C       		.uleb128 0x2c
 1324 0702 07       		.byte	0x7
 1325 0703 01       		.byte	0x1
 1326 0704 55000000 		.4byte	0x55
 1327 0708 0C       		.byte	0xc
 1328 0709 32       		.byte	0x32
 1329 070a 0E       		.byte	0xe
 1330 070b 28070000 		.4byte	0x728
 1331 070f 13       		.uleb128 0x13
 1332 0710 C8060000 		.4byte	.LASF99
 1333 0714 00       		.byte	0
 1334 0715 13       		.uleb128 0x13
 1335 0716 AF070000 		.4byte	.LASF100
 1336 071a 01       		.byte	0x1
 1337 071b 13       		.uleb128 0x13
 1338 071c BB000000 		.4byte	.LASF101
 1339 0720 02       		.byte	0x2
 1340 0721 13       		.uleb128 0x13
 1341 0722 66070000 		.4byte	.LASF102
 1342 0726 03       		.byte	0x3
 1343 0727 00       		.byte	0
 1344 0728 01       		.uleb128 0x1
 1345 0729 4B080000 		.4byte	.LASF103
 1346 072d 0C       		.byte	0xc
 1347 072e 37       		.byte	0x37
 1348 072f 03       		.byte	0x3
 1349 0730 01070000 		.4byte	0x701
 1350 0734 15       		.uleb128 0x15
 1351 0735 28070000 		.4byte	0x728
 1352 0739 07       		.uleb128 0x7
 1353 073a FD040000 		.4byte	.LASF104
 1354 073e 20       		.byte	0x20
 1355 073f 0C       		.byte	0xc
 1356 0740 64       		.byte	0x64
 1357 0741 10       		.byte	0x10
 1358 0742 7B070000 		.4byte	0x77b
 1359 0746 02       		.uleb128 0x2
 1360 0747 FE060000 		.4byte	.LASF105
 1361 074b 0C       		.byte	0xc
 1362 074c 68       		.byte	0x68
 1363 074d 21       		.byte	0x21
 1364 074e 98060000 		.4byte	0x698
 1365 0752 00       		.byte	0
 1366 0753 02       		.uleb128 0x2
ARM GAS  C:\Users\DEVELO~1\AppData\Local\Temp\ccgFRn8O.s 			page 25


 1367 0754 18060000 		.4byte	.LASF106
 1368 0758 0C       		.byte	0xc
 1369 0759 73       		.byte	0x73
 1370 075a 21       		.byte	0x21
 1371 075b 92030000 		.4byte	0x392
 1372 075f 0C       		.byte	0xc
 1373 0760 02       		.uleb128 0x2
 1374 0761 9D050000 		.4byte	.LASF107
 1375 0765 0C       		.byte	0xc
 1376 0766 7B       		.byte	0x7b
 1377 0767 21       		.byte	0x21
 1378 0768 9E030000 		.4byte	0x39e
 1379 076c 10       		.byte	0x10
 1380 076d 02       		.uleb128 0x2
 1381 076e BD040000 		.4byte	.LASF108
 1382 0772 0C       		.byte	0xc
 1383 0773 81       		.byte	0x81
 1384 0774 21       		.byte	0x21
 1385 0775 EB000000 		.4byte	0xeb
 1386 0779 18       		.byte	0x18
 1387 077a 00       		.byte	0
 1388 077b 01       		.uleb128 0x1
 1389 077c 96040000 		.4byte	.LASF109
 1390 0780 0C       		.byte	0xc
 1391 0781 83       		.byte	0x83
 1392 0782 03       		.byte	0x3
 1393 0783 39070000 		.4byte	0x739
 1394 0787 07       		.uleb128 0x7
 1395 0788 C5010000 		.4byte	.LASF110
 1396 078c 08       		.byte	0x8
 1397 078d 0C       		.byte	0xc
 1398 078e 88       		.byte	0x88
 1399 078f 10       		.byte	0x10
 1400 0790 A2070000 		.4byte	0x7a2
 1401 0794 02       		.uleb128 0x2
 1402 0795 F5030000 		.4byte	.LASF111
 1403 0799 0C       		.byte	0xc
 1404 079a 8C       		.byte	0x8c
 1405 079b 21       		.byte	0x21
 1406 079c 19060000 		.4byte	0x619
 1407 07a0 00       		.byte	0
 1408 07a1 00       		.byte	0
 1409 07a2 01       		.uleb128 0x1
 1410 07a3 73060000 		.4byte	.LASF112
 1411 07a7 0C       		.byte	0xc
 1412 07a8 8D       		.byte	0x8d
 1413 07a9 03       		.byte	0x3
 1414 07aa 87070000 		.4byte	0x787
 1415 07ae 01       		.uleb128 0x1
 1416 07af EA040000 		.4byte	.LASF113
 1417 07b3 0C       		.byte	0xc
 1418 07b4 92       		.byte	0x92
 1419 07b5 14       		.byte	0x14
 1420 07b6 DA030000 		.4byte	0x3da
 1421 07ba 01       		.uleb128 0x1
 1422 07bb E4030000 		.4byte	.LASF114
 1423 07bf 0C       		.byte	0xc
ARM GAS  C:\Users\DEVELO~1\AppData\Local\Temp\ccgFRn8O.s 			page 26


 1424 07c0 A1       		.byte	0xa1
 1425 07c1 10       		.byte	0x10
 1426 07c2 C6070000 		.4byte	0x7c6
 1427 07c6 04       		.uleb128 0x4
 1428 07c7 CB070000 		.4byte	0x7cb
 1429 07cb 1E       		.uleb128 0x1e
 1430 07cc D6070000 		.4byte	0x7d6
 1431 07d0 0A       		.uleb128 0xa
 1432 07d1 DA030000 		.4byte	0x3da
 1433 07d5 00       		.byte	0
 1434 07d6 1D       		.uleb128 0x1d
 1435 07d7 0C       		.byte	0xc
 1436 07d8 0C       		.byte	0xc
 1437 07d9 AD       		.byte	0xad
 1438 07da 03080000 		.4byte	0x803
 1439 07de 0E       		.uleb128 0xe
 1440 07df 46080000 		.4byte	.LASF115
 1441 07e3 0C       		.byte	0xc
 1442 07e4 B1       		.byte	0xb1
 1443 07e5 21       		.byte	0x21
 1444 07e6 ED050000 		.4byte	0x5ed
 1445 07ea 0E       		.uleb128 0xe
 1446 07eb F5030000 		.4byte	.LASF111
 1447 07ef 0C       		.byte	0xc
 1448 07f0 B5       		.byte	0xb5
 1449 07f1 21       		.byte	0x21
 1450 07f2 19060000 		.4byte	0x619
 1451 07f6 0E       		.uleb128 0xe
 1452 07f7 33070000 		.4byte	.LASF116
 1453 07fb 0C       		.byte	0xc
 1454 07fc B9       		.byte	0xb9
 1455 07fd 21       		.byte	0x21
 1456 07fe 52060000 		.4byte	0x652
 1457 0802 00       		.byte	0
 1458 0803 2D       		.uleb128 0x2d
 1459 0804 04       		.byte	0x4
 1460 0805 0C       		.byte	0xc
 1461 0806 0201     		.2byte	0x102
 1462 0808 03       		.byte	0x3
 1463 0809 6E080000 		.4byte	0x86e
 1464 080d 0B       		.uleb128 0xb
 1465 080e 30000000 		.4byte	.LASF117
 1466 0812 0901     		.2byte	0x109
 1467 0814 21       		.byte	0x21
 1468 0815 50010000 		.4byte	0x150
 1469 0819 0B       		.uleb128 0xb
 1470 081a D9000000 		.4byte	.LASF118
 1471 081e 1001     		.2byte	0x110
 1472 0820 21       		.byte	0x21
 1473 0821 50010000 		.4byte	0x150
 1474 0825 0B       		.uleb128 0xb
 1475 0826 21060000 		.4byte	.LASF71
 1476 082a 1701     		.2byte	0x117
 1477 082c 22       		.byte	0x22
 1478 082d DF030000 		.4byte	0x3df
 1479 0831 0B       		.uleb128 0xb
 1480 0832 2A000000 		.4byte	.LASF119
ARM GAS  C:\Users\DEVELO~1\AppData\Local\Temp\ccgFRn8O.s 			page 27


 1481 0836 1E01     		.2byte	0x11e
 1482 0838 22       		.byte	0x22
 1483 0839 6E080000 		.4byte	0x86e
 1484 083d 0B       		.uleb128 0xb
 1485 083e ED000000 		.4byte	.LASF120
 1486 0842 2301     		.2byte	0x123
 1487 0844 21       		.byte	0x21
 1488 0845 50010000 		.4byte	0x150
 1489 0849 0B       		.uleb128 0xb
 1490 084a E9020000 		.4byte	.LASF121
 1491 084e 2C01     		.2byte	0x12c
 1492 0850 22       		.byte	0x22
 1493 0851 9B080000 		.4byte	0x89b
 1494 0855 0B       		.uleb128 0xb
 1495 0856 87060000 		.4byte	.LASF122
 1496 085a 3501     		.2byte	0x135
 1497 085c 22       		.byte	0x22
 1498 085d D5080000 		.4byte	0x8d5
 1499 0861 0B       		.uleb128 0xb
 1500 0862 28060000 		.4byte	.LASF123
 1501 0866 3D01     		.2byte	0x13d
 1502 0868 21       		.byte	0x21
 1503 0869 5C010000 		.4byte	0x15c
 1504 086d 00       		.byte	0
 1505 086e 04       		.uleb128 0x4
 1506 086f AE070000 		.4byte	0x7ae
 1507 0873 07       		.uleb128 0x7
 1508 0874 56060000 		.4byte	.LASF124
 1509 0878 0C       		.byte	0xc
 1510 0879 11       		.byte	0x11
 1511 087a 34       		.byte	0x34
 1512 087b 10       		.byte	0x10
 1513 087c 9B080000 		.4byte	0x89b
 1514 0880 02       		.uleb128 0x2
 1515 0881 F5030000 		.4byte	.LASF111
 1516 0885 11       		.byte	0x11
 1517 0886 35       		.byte	0x35
 1518 0887 19       		.byte	0x19
 1519 0888 19060000 		.4byte	0x619
 1520 088c 00       		.byte	0
 1521 088d 08       		.uleb128 0x8
 1522 088e 636E7400 		.ascii	"cnt\000"
 1523 0892 11       		.byte	0x11
 1524 0893 37       		.byte	0x37
 1525 0894 19       		.byte	0x19
 1526 0895 68010000 		.4byte	0x168
 1527 0899 08       		.byte	0x8
 1528 089a 00       		.byte	0
 1529 089b 04       		.uleb128 0x4
 1530 089c 73080000 		.4byte	0x873
 1531 08a0 07       		.uleb128 0x7
 1532 08a1 22080000 		.4byte	.LASF125
 1533 08a5 10       		.byte	0x10
 1534 08a6 12       		.byte	0x12
 1535 08a7 39       		.byte	0x39
 1536 08a8 08       		.byte	0x8
 1537 08a9 D5080000 		.4byte	0x8d5
ARM GAS  C:\Users\DEVELO~1\AppData\Local\Temp\ccgFRn8O.s 			page 28


 1538 08ad 02       		.uleb128 0x2
 1539 08ae F5030000 		.4byte	.LASF111
 1540 08b2 12       		.byte	0x12
 1541 08b3 3A       		.byte	0x3a
 1542 08b4 19       		.byte	0x19
 1543 08b5 19060000 		.4byte	0x619
 1544 08b9 00       		.byte	0
 1545 08ba 02       		.uleb128 0x2
 1546 08bb 8E060000 		.4byte	.LASF33
 1547 08bf 12       		.byte	0x12
 1548 08c0 3C       		.byte	0x3c
 1549 08c1 1A       		.byte	0x1a
 1550 08c2 DA030000 		.4byte	0x3da
 1551 08c6 08       		.byte	0x8
 1552 08c7 02       		.uleb128 0x2
 1553 08c8 FB000000 		.4byte	.LASF87
 1554 08cc 12       		.byte	0x12
 1555 08cd 3E       		.byte	0x3e
 1556 08ce 1A       		.byte	0x1a
 1557 08cf 7A0A0000 		.4byte	0xa7a
 1558 08d3 0C       		.byte	0xc
 1559 08d4 00       		.byte	0
 1560 08d5 04       		.uleb128 0x4
 1561 08d6 A0080000 		.4byte	0x8a0
 1562 08da 04       		.uleb128 0x4
 1563 08db 83020000 		.4byte	0x283
 1564 08df 04       		.uleb128 0x4
 1565 08e0 14010000 		.4byte	0x114
 1566 08e4 0F       		.uleb128 0xf
 1567 08e5 72040000 		.4byte	.LASF126
 1568 08e9 10       		.byte	0x10
 1569 08ea 0C       		.byte	0xc
 1570 08eb 6C01     		.2byte	0x16c
 1571 08ed 10       		.byte	0x10
 1572 08ee 0D090000 		.4byte	0x90d
 1573 08f2 03       		.uleb128 0x3
 1574 08f3 33070000 		.4byte	.LASF116
 1575 08f7 7101     		.2byte	0x171
 1576 08f9 21       		.byte	0x21
 1577 08fa 52060000 		.4byte	0x652
 1578 08fe 00       		.byte	0
 1579 08ff 03       		.uleb128 0x3
 1580 0900 8A050000 		.4byte	.LASF127
 1581 0904 7501     		.2byte	0x175
 1582 0906 22       		.byte	0x22
 1583 0907 DA030000 		.4byte	0x3da
 1584 090b 0C       		.byte	0xc
 1585 090c 00       		.byte	0
 1586 090d 1A       		.uleb128 0x1a
 1587 090e 1D000000 		.4byte	.LASF128
 1588 0912 7601     		.2byte	0x176
 1589 0914 E4080000 		.4byte	0x8e4
 1590 0918 0F       		.uleb128 0xf
 1591 0919 45050000 		.4byte	.LASF129
 1592 091d 14       		.byte	0x14
 1593 091e 0C       		.byte	0xc
 1594 091f 7B01     		.2byte	0x17b
ARM GAS  C:\Users\DEVELO~1\AppData\Local\Temp\ccgFRn8O.s 			page 29


 1595 0921 10       		.byte	0x10
 1596 0922 68090000 		.4byte	0x968
 1597 0926 03       		.uleb128 0x3
 1598 0927 DF030000 		.4byte	.LASF39
 1599 092b 7F01     		.2byte	0x17f
 1600 092d 22       		.byte	0x22
 1601 092e 70030000 		.4byte	0x370
 1602 0932 00       		.byte	0
 1603 0933 03       		.uleb128 0x3
 1604 0934 23050000 		.4byte	.LASF130
 1605 0938 8301     		.2byte	0x183
 1606 093a 22       		.byte	0x22
 1607 093b DF080000 		.4byte	0x8df
 1608 093f 04       		.byte	0x4
 1609 0940 03       		.uleb128 0x3
 1610 0941 07010000 		.4byte	.LASF131
 1611 0945 8701     		.2byte	0x187
 1612 0947 22       		.byte	0x22
 1613 0948 DF080000 		.4byte	0x8df
 1614 094c 08       		.byte	0x8
 1615 094d 03       		.uleb128 0x3
 1616 094e 60020000 		.4byte	.LASF132
 1617 0952 8C01     		.2byte	0x18c
 1618 0954 22       		.byte	0x22
 1619 0955 DF080000 		.4byte	0x8df
 1620 0959 0C       		.byte	0xc
 1621 095a 03       		.uleb128 0x3
 1622 095b 7C050000 		.4byte	.LASF133
 1623 095f 9001     		.2byte	0x190
 1624 0961 22       		.byte	0x22
 1625 0962 DF080000 		.4byte	0x8df
 1626 0966 10       		.byte	0x10
 1627 0967 00       		.byte	0
 1628 0968 1A       		.uleb128 0x1a
 1629 0969 94000000 		.4byte	.LASF134
 1630 096d 9201     		.2byte	0x192
 1631 096f 18090000 		.4byte	0x918
 1632 0973 12       		.uleb128 0x12
 1633 0974 68090000 		.4byte	0x968
 1634 0978 04       		.uleb128 0x4
 1635 0979 73090000 		.4byte	0x973
 1636 097d 0F       		.uleb128 0xf
 1637 097e 2F060000 		.4byte	.LASF135
 1638 0982 0C       		.byte	0xc
 1639 0983 0C       		.byte	0xc
 1640 0984 DC01     		.2byte	0x1dc
 1641 0986 10       		.byte	0x10
 1642 0987 B4090000 		.4byte	0x9b4
 1643 098b 03       		.uleb128 0x3
 1644 098c 5E010000 		.4byte	.LASF36
 1645 0990 E001     		.2byte	0x1e0
 1646 0992 21       		.byte	0x21
 1647 0993 34070000 		.4byte	0x734
 1648 0997 00       		.byte	0
 1649 0998 03       		.uleb128 0x3
 1650 0999 DF020000 		.4byte	.LASF136
 1651 099d E401     		.2byte	0x1e4
ARM GAS  C:\Users\DEVELO~1\AppData\Local\Temp\ccgFRn8O.s 			page 30


 1652 099f 22       		.byte	0x22
 1653 09a0 B4090000 		.4byte	0x9b4
 1654 09a4 04       		.byte	0x4
 1655 09a5 05       		.uleb128 0x5
 1656 09a6 746D6300 		.ascii	"tmc\000"
 1657 09aa 0C       		.byte	0xc
 1658 09ab E901     		.2byte	0x1e9
 1659 09ad 21       		.byte	0x21
 1660 09ae F5060000 		.4byte	0x6f5
 1661 09b2 08       		.byte	0x8
 1662 09b3 00       		.byte	0
 1663 09b4 18       		.uleb128 0x18
 1664 09b5 DA080000 		.4byte	0x8da
 1665 09b9 C4090000 		.4byte	0x9c4
 1666 09bd 19       		.uleb128 0x19
 1667 09be 2D000000 		.4byte	0x2d
 1668 09c2 00       		.byte	0
 1669 09c3 00       		.byte	0
 1670 09c4 1A       		.uleb128 0x1a
 1671 09c5 3E040000 		.4byte	.LASF137
 1672 09c9 0002     		.2byte	0x200
 1673 09cb 7D090000 		.4byte	0x97d
 1674 09cf 2E       		.uleb128 0x2e
 1675 09d0 2F060000 		.4byte	.LASF135
 1676 09d4 14       		.byte	0x14
 1677 09d5 1C01     		.2byte	0x11c
 1678 09d7 14       		.byte	0x14
 1679 09d8 C4090000 		.4byte	0x9c4
 1680 09dc 01       		.uleb128 0x1
 1681 09dd 15000000 		.4byte	.LASF138
 1682 09e1 13       		.byte	0x13
 1683 09e2 34       		.byte	0x34
 1684 09e3 10       		.byte	0x10
 1685 09e4 E8090000 		.4byte	0x9e8
 1686 09e8 04       		.uleb128 0x4
 1687 09e9 ED090000 		.4byte	0x9ed
 1688 09ed 1E       		.uleb128 0x1e
 1689 09ee F8090000 		.4byte	0x9f8
 1690 09f2 0A       		.uleb128 0xa
 1691 09f3 DF030000 		.4byte	0x3df
 1692 09f7 00       		.byte	0
 1693 09f8 09       		.uleb128 0x9
 1694 09f9 1C       		.byte	0x1c
 1695 09fa 13       		.byte	0x13
 1696 09fb 39       		.byte	0x39
 1697 09fc 09       		.byte	0x9
 1698 09fd 5D0A0000 		.4byte	0xa5d
 1699 0a01 02       		.uleb128 0x2
 1700 0a02 DF030000 		.4byte	.LASF39
 1701 0a06 13       		.byte	0x13
 1702 0a07 3D       		.byte	0x3d
 1703 0a08 22       		.byte	0x22
 1704 0a09 70030000 		.4byte	0x370
 1705 0a0d 00       		.byte	0
 1706 0a0e 02       		.uleb128 0x2
 1707 0a0f 5B050000 		.4byte	.LASF139
 1708 0a13 13       		.byte	0x13
ARM GAS  C:\Users\DEVELO~1\AppData\Local\Temp\ccgFRn8O.s 			page 31


 1709 0a14 41       		.byte	0x41
 1710 0a15 22       		.byte	0x22
 1711 0a16 DF080000 		.4byte	0x8df
 1712 0a1a 04       		.byte	0x4
 1713 0a1b 02       		.uleb128 0x2
 1714 0a1c A9000000 		.4byte	.LASF140
 1715 0a20 13       		.byte	0x13
 1716 0a21 45       		.byte	0x45
 1717 0a22 22       		.byte	0x22
 1718 0a23 DF080000 		.4byte	0x8df
 1719 0a27 08       		.byte	0x8
 1720 0a28 02       		.uleb128 0x2
 1721 0a29 77050000 		.4byte	.LASF93
 1722 0a2d 13       		.byte	0x13
 1723 0a2e 49       		.byte	0x49
 1724 0a2f 21       		.byte	0x21
 1725 0a30 44010000 		.4byte	0x144
 1726 0a34 0C       		.byte	0xc
 1727 0a35 02       		.uleb128 0x2
 1728 0a36 37000000 		.4byte	.LASF141
 1729 0a3a 13       		.byte	0x13
 1730 0a3b 4D       		.byte	0x4d
 1731 0a3c 21       		.byte	0x21
 1732 0a3d DC090000 		.4byte	0x9dc
 1733 0a41 10       		.byte	0x10
 1734 0a42 08       		.uleb128 0x8
 1735 0a43 61726700 		.ascii	"arg\000"
 1736 0a47 13       		.byte	0x13
 1737 0a48 51       		.byte	0x51
 1738 0a49 22       		.byte	0x22
 1739 0a4a DF030000 		.4byte	0x3df
 1740 0a4e 14       		.byte	0x14
 1741 0a4f 02       		.uleb128 0x2
 1742 0a50 8E060000 		.4byte	.LASF33
 1743 0a54 13       		.byte	0x13
 1744 0a55 55       		.byte	0x55
 1745 0a56 22       		.byte	0x22
 1746 0a57 DA080000 		.4byte	0x8da
 1747 0a5b 18       		.byte	0x18
 1748 0a5c 00       		.byte	0
 1749 0a5d 01       		.uleb128 0x1
 1750 0a5e 69000000 		.4byte	.LASF142
 1751 0a62 13       		.byte	0x13
 1752 0a63 56       		.byte	0x56
 1753 0a64 03       		.byte	0x3
 1754 0a65 F8090000 		.4byte	0x9f8
 1755 0a69 12       		.uleb128 0x12
 1756 0a6a 5D0A0000 		.4byte	0xa5d
 1757 0a6e 01       		.uleb128 0x1
 1758 0a6f 6F020000 		.4byte	.LASF143
 1759 0a73 12       		.byte	0x12
 1760 0a74 34       		.byte	0x34
 1761 0a75 19       		.byte	0x19
 1762 0a76 A0080000 		.4byte	0x8a0
 1763 0a7a 04       		.uleb128 0x4
 1764 0a7b 6E0A0000 		.4byte	0xa6e
 1765 0a7f 06       		.uleb128 0x6
ARM GAS  C:\Users\DEVELO~1\AppData\Local\Temp\ccgFRn8O.s 			page 32


 1766 0a80 01       		.byte	0x1
 1767 0a81 02       		.byte	0x2
 1768 0a82 DB050000 		.4byte	.LASF144
 1769 0a86 2F       		.uleb128 0x2f
 1770 0a87 39060000 		.4byte	.LASF168
 1771 0a8b 06       		.byte	0x6
 1772 0a8c 3A       		.byte	0x3a
 1773 0a8d 0D       		.byte	0xd
 1774 0a8e 92030000 		.4byte	0x392
 1775 0a92 1F       		.uleb128 0x1f
 1776 0a93 0F080000 		.4byte	.LASF145
 1777 0a97 BE01     		.2byte	0x1be
 1778 0a99 DA030000 		.4byte	0x3da
 1779 0a9d AC0A0000 		.4byte	0xaac
 1780 0aa1 0A       		.uleb128 0xa
 1781 0aa2 DA030000 		.4byte	0x3da
 1782 0aa6 0A       		.uleb128 0xa
 1783 0aa7 AC0A0000 		.4byte	0xaac
 1784 0aab 00       		.byte	0
 1785 0aac 04       		.uleb128 0x4
 1786 0aad 690A0000 		.4byte	0xa69
 1787 0ab1 1F       		.uleb128 0x1f
 1788 0ab2 63060000 		.4byte	.LASF146
 1789 0ab6 B801     		.2byte	0x1b8
 1790 0ab8 DA030000 		.4byte	0x3da
 1791 0abc CB0A0000 		.4byte	0xacb
 1792 0ac0 0A       		.uleb128 0xa
 1793 0ac1 DA030000 		.4byte	0x3da
 1794 0ac5 0A       		.uleb128 0xa
 1795 0ac6 AC0A0000 		.4byte	0xaac
 1796 0aca 00       		.byte	0
 1797 0acb 30       		.uleb128 0x30
 1798 0acc D6010000 		.4byte	.LASF147
 1799 0ad0 0E       		.byte	0xe
 1800 0ad1 FB       		.byte	0xfb
 1801 0ad2 08       		.byte	0x8
 1802 0ad3 DD0A0000 		.4byte	0xadd
 1803 0ad7 0A       		.uleb128 0xa
 1804 0ad8 DD0A0000 		.4byte	0xadd
 1805 0adc 00       		.byte	0
 1806 0add 04       		.uleb128 0x4
 1807 0ade 3A050000 		.4byte	0x53a
 1808 0ae2 31       		.uleb128 0x31
 1809 0ae3 1B040000 		.4byte	.LASF148
 1810 0ae7 0F       		.byte	0xf
 1811 0ae8 0203     		.2byte	0x302
 1812 0aea 08       		.byte	0x8
 1813 0aeb F50A0000 		.4byte	0xaf5
 1814 0aef 0A       		.uleb128 0xa
 1815 0af0 DA080000 		.4byte	0x8da
 1816 0af4 00       		.byte	0
 1817 0af5 32       		.uleb128 0x32
 1818 0af6 00000000 		.4byte	.LASF169
 1819 0afa 01       		.byte	0x1
 1820 0afb 59       		.byte	0x59
 1821 0afc 06       		.byte	0x6
 1822 0afd 00000000 		.4byte	.LFB353
ARM GAS  C:\Users\DEVELO~1\AppData\Local\Temp\ccgFRn8O.s 			page 33


 1823 0b01 BC000000 		.4byte	.LFE353-.LFB353
 1824 0b05 01       		.uleb128 0x1
 1825 0b06 9C       		.byte	0x9c
 1826 0b07 0B0D0000 		.4byte	0xd0b
 1827 0b0b 20       		.uleb128 0x20
 1828 0b0c 6F697000 		.ascii	"oip\000"
 1829 0b10 59       		.byte	0x59
 1830 0b11 2A       		.byte	0x2a
 1831 0b12 DA080000 		.4byte	0x8da
 1832 0b16 16000000 		.4byte	.LLST1
 1833 0b1a 0C000000 		.4byte	.LVUS1
 1834 0b1e 33       		.uleb128 0x33
 1835 0b1f 14050000 		.4byte	.LASF149
 1836 0b23 01       		.byte	0x1
 1837 0b24 5A       		.byte	0x5a
 1838 0b25 37       		.byte	0x37
 1839 0b26 78090000 		.4byte	0x978
 1840 0b2a 48000000 		.4byte	.LLST2
 1841 0b2e 42000000 		.4byte	.LVUS2
 1842 0b32 34       		.uleb128 0x34
 1843 0b33 FB030000 		.4byte	.LASF54
 1844 0b37 01       		.byte	0x1
 1845 0b38 5B       		.byte	0x5b
 1846 0b39 0D       		.byte	0xd
 1847 0b3a 74010000 		.4byte	0x174
 1848 0b3e 00       		.byte	0
 1849 0b3f 35       		.uleb128 0x35
 1850 0b40 46060000 		.4byte	.LASF170
 1851 0b44 1B0D0000 		.4byte	0xd1b
 1852 0b48 21       		.uleb128 0x21
 1853 0b49 60000000 		.4byte	.LLRL14
 1854 0b4d 760B0000 		.4byte	0xb76
 1855 0b51 22       		.uleb128 0x22
 1856 0b52 BA060000 		.4byte	.LASF150
 1857 0b56 90       		.byte	0x90
 1858 0b57 690A0000 		.4byte	0xa69
 1859 0b5b 02       		.uleb128 0x2
 1860 0b5c 91       		.byte	0x91
 1861 0b5d 4C       		.sleb128 -52
 1862 0b5e 1B       		.uleb128 0x1b
 1863 0b5f 74000000 		.4byte	.LVL8
 1864 0b63 B10A0000 		.4byte	0xab1
 1865 0b67 0D       		.uleb128 0xd
 1866 0b68 01       		.uleb128 0x1
 1867 0b69 50       		.byte	0x50
 1868 0b6a 03       		.uleb128 0x3
 1869 0b6b 74       		.byte	0x74
 1870 0b6c 9401     		.sleb128 148
 1871 0b6e 0D       		.uleb128 0xd
 1872 0b6f 01       		.uleb128 0x1
 1873 0b70 51       		.byte	0x51
 1874 0b71 02       		.uleb128 0x2
 1875 0b72 91       		.byte	0x91
 1876 0b73 4C       		.sleb128 -52
 1877 0b74 00       		.byte	0
 1878 0b75 00       		.byte	0
 1879 0b76 21       		.uleb128 0x21
ARM GAS  C:\Users\DEVELO~1\AppData\Local\Temp\ccgFRn8O.s 			page 34


 1880 0b77 7B000000 		.4byte	.LLRL18
 1881 0b7b A30B0000 		.4byte	0xba3
 1882 0b7f 22       		.uleb128 0x22
 1883 0b80 D2070000 		.4byte	.LASF151
 1884 0b84 B1       		.byte	0xb1
 1885 0b85 690A0000 		.4byte	0xa69
 1886 0b89 02       		.uleb128 0x2
 1887 0b8a 91       		.byte	0x91
 1888 0b8b 4C       		.sleb128 -52
 1889 0b8c 1B       		.uleb128 0x1b
 1890 0b8d A8000000 		.4byte	.LVL12
 1891 0b91 920A0000 		.4byte	0xa92
 1892 0b95 0D       		.uleb128 0xd
 1893 0b96 01       		.uleb128 0x1
 1894 0b97 50       		.byte	0x50
 1895 0b98 02       		.uleb128 0x2
 1896 0b99 77       		.byte	0x77
 1897 0b9a 14       		.sleb128 20
 1898 0b9b 0D       		.uleb128 0xd
 1899 0b9c 01       		.uleb128 0x1
 1900 0b9d 51       		.byte	0x51
 1901 0b9e 02       		.uleb128 0x2
 1902 0b9f 91       		.byte	0x91
 1903 0ba0 4C       		.sleb128 -52
 1904 0ba1 00       		.byte	0
 1905 0ba2 00       		.byte	0
 1906 0ba3 10       		.uleb128 0x10
 1907 0ba4 480D0000 		.4byte	0xd48
 1908 0ba8 3A000000 		.4byte	.LBI49
 1909 0bac 03       		.byte	.LVU39
 1910 0bad 0C000000 		.4byte	.LLRL3
 1911 0bb1 74       		.byte	0x74
 1912 0bb2 E30B0000 		.4byte	0xbe3
 1913 0bb6 0C       		.uleb128 0xc
 1914 0bb7 530D0000 		.4byte	0xd53
 1915 0bbb 65000000 		.4byte	.LLST4
 1916 0bbf 63000000 		.4byte	.LVUS4
 1917 0bc3 36       		.uleb128 0x36
 1918 0bc4 E30D0000 		.4byte	0xde3
 1919 0bc8 3A000000 		.4byte	.LBI51
 1920 0bcc 05       		.byte	.LVU41
 1921 0bcd 1B000000 		.4byte	.LLRL5
 1922 0bd1 02       		.byte	0x2
 1923 0bd2 9A       		.byte	0x9a
 1924 0bd3 03       		.byte	0x3
 1925 0bd4 0C       		.uleb128 0xc
 1926 0bd5 EF0D0000 		.4byte	0xdef
 1927 0bd9 70000000 		.4byte	.LLST6
 1928 0bdd 6E000000 		.4byte	.LVUS6
 1929 0be1 00       		.byte	0
 1930 0be2 00       		.byte	0
 1931 0be3 10       		.uleb128 0x10
 1932 0be4 A80D0000 		.4byte	0xda8
 1933 0be8 1A000000 		.4byte	.LBI57
 1934 0bec 01       		.byte	.LVU24
 1935 0bed 27000000 		.4byte	.LLRL7
 1936 0bf1 70       		.byte	0x70
ARM GAS  C:\Users\DEVELO~1\AppData\Local\Temp\ccgFRn8O.s 			page 35


 1937 0bf2 040C0000 		.4byte	0xc04
 1938 0bf6 0C       		.uleb128 0xc
 1939 0bf7 B40D0000 		.4byte	0xdb4
 1940 0bfb 7B000000 		.4byte	.LLST8
 1941 0bff 79000000 		.4byte	.LVUS8
 1942 0c03 00       		.byte	0
 1943 0c04 10       		.uleb128 0x10
 1944 0c05 2D0E0000 		.4byte	0xe2d
 1945 0c09 3A000000 		.4byte	.LBI62
 1946 0c0d 09       		.byte	.LVU45
 1947 0c0e 36000000 		.4byte	.LLRL9
 1948 0c12 79       		.byte	0x79
 1949 0c13 250C0000 		.4byte	0xc25
 1950 0c17 0C       		.uleb128 0xc
 1951 0c18 380E0000 		.4byte	0xe38
 1952 0c1c 86000000 		.4byte	.LLST10
 1953 0c20 84000000 		.4byte	.LVUS10
 1954 0c24 00       		.byte	0
 1955 0c25 10       		.uleb128 0x10
 1956 0c26 640D0000 		.4byte	0xd64
 1957 0c2a 3A000000 		.4byte	.LBI65
 1958 0c2e 0D       		.byte	.LVU49
 1959 0c2f 42000000 		.4byte	.LLRL11
 1960 0c33 7D       		.byte	0x7d
 1961 0c34 900C0000 		.4byte	0xc90
 1962 0c38 23       		.uleb128 0x23
 1963 0c39 700D0000 		.4byte	0xd70
 1964 0c3d 37       		.uleb128 0x37
 1965 0c3e 8E0D0000 		.4byte	0xd8e
 1966 0c42 3A000000 		.4byte	.LBI67
 1967 0c46 0F       		.byte	.LVU51
 1968 0c47 54000000 		.4byte	.LLRL12
 1969 0c4b 05       		.byte	0x5
 1970 0c4c 1B02     		.2byte	0x21b
 1971 0c4e 03       		.byte	0x3
 1972 0c4f 590C0000 		.4byte	0xc59
 1973 0c53 23       		.uleb128 0x23
 1974 0c54 9A0D0000 		.4byte	0xd9a
 1975 0c58 00       		.byte	0
 1976 0c59 38       		.uleb128 0x38
 1977 0c5a 830D0000 		.4byte	0xd83
 1978 0c5e 3A000000 		.4byte	.LBI71
 1979 0c62 15       		.byte	.LVU57
 1980 0c63 3A000000 		.4byte	.LBB71
 1981 0c67 06000000 		.4byte	.LBE71-.LBB71
 1982 0c6b 05       		.byte	0x5
 1983 0c6c 2302     		.2byte	0x223
 1984 0c6e 25       		.byte	0x25
 1985 0c6f 39       		.uleb128 0x39
 1986 0c70 FB0D0000 		.4byte	0xdfb
 1987 0c74 3A000000 		.4byte	.LBI72
 1988 0c78 17       		.byte	.LVU59
 1989 0c79 3A000000 		.4byte	.LBB72
 1990 0c7d 06000000 		.4byte	.LBE72-.LBB72
 1991 0c81 05       		.byte	0x5
 1992 0c82 8C       		.byte	0x8c
 1993 0c83 0A       		.byte	0xa
ARM GAS  C:\Users\DEVELO~1\AppData\Local\Temp\ccgFRn8O.s 			page 36


 1994 0c84 3A       		.uleb128 0x3a
 1995 0c85 3E000000 		.4byte	.LVL4
 1996 0c89 860A0000 		.4byte	0xa86
 1997 0c8d 00       		.byte	0
 1998 0c8e 00       		.byte	0
 1999 0c8f 00       		.byte	0
 2000 0c90 3B       		.uleb128 0x3b
 2001 0c91 100E0000 		.4byte	0xe10
 2002 0c95 4C000000 		.4byte	.LBI84
 2003 0c99 01       		.byte	.LVU67
 2004 0c9a 4C000000 		.4byte	.LBB84
 2005 0c9e 04000000 		.4byte	.LBE84-.LBB84
 2006 0ca2 01       		.byte	0x1
 2007 0ca3 80       		.byte	0x80
 2008 0ca4 03       		.byte	0x3
 2009 0ca5 B70C0000 		.4byte	0xcb7
 2010 0ca9 0C       		.uleb128 0xc
 2011 0caa 1B0E0000 		.4byte	0xe1b
 2012 0cae 93000000 		.4byte	.LLST13
 2013 0cb2 91000000 		.4byte	.LVUS13
 2014 0cb6 00       		.byte	0
 2015 0cb7 10       		.uleb128 0x10
 2016 0cb8 C10D0000 		.4byte	0xdc1
 2017 0cbc 7C000000 		.4byte	.LBI87
 2018 0cc0 01       		.byte	.LVU83
 2019 0cc1 6C000000 		.4byte	.LLRL15
 2020 0cc5 A1       		.byte	0xa1
 2021 0cc6 E50C0000 		.4byte	0xce5
 2022 0cca 0C       		.uleb128 0xc
 2023 0ccb D80D0000 		.4byte	0xdd8
 2024 0ccf A1000000 		.4byte	.LLST16
 2025 0cd3 9F000000 		.4byte	.LVUS16
 2026 0cd7 0C       		.uleb128 0xc
 2027 0cd8 CD0D0000 		.4byte	0xdcd
 2028 0cdc AC000000 		.4byte	.LLST17
 2029 0ce0 AA000000 		.4byte	.LVUS17
 2030 0ce4 00       		.byte	0
 2031 0ce5 3C       		.uleb128 0x3c
 2032 0ce6 1A000000 		.4byte	.LVL2
 2033 0cea E20A0000 		.4byte	0xae2
 2034 0cee F90C0000 		.4byte	0xcf9
 2035 0cf2 0D       		.uleb128 0xd
 2036 0cf3 01       		.uleb128 0x1
 2037 0cf4 50       		.byte	0x50
 2038 0cf5 02       		.uleb128 0x2
 2039 0cf6 74       		.byte	0x74
 2040 0cf7 00       		.sleb128 0
 2041 0cf8 00       		.byte	0
 2042 0cf9 1B       		.uleb128 0x1b
 2043 0cfa 54000000 		.4byte	.LVL7
 2044 0cfe CB0A0000 		.4byte	0xacb
 2045 0d02 0D       		.uleb128 0xd
 2046 0d03 01       		.uleb128 0x1
 2047 0d04 50       		.byte	0x50
 2048 0d05 03       		.uleb128 0x3
 2049 0d06 74       		.byte	0x74
 2050 0d07 E801     		.sleb128 232
ARM GAS  C:\Users\DEVELO~1\AppData\Local\Temp\ccgFRn8O.s 			page 37


 2051 0d09 00       		.byte	0
 2052 0d0a 00       		.byte	0
 2053 0d0b 18       		.uleb128 0x18
 2054 0d0c 81030000 		.4byte	0x381
 2055 0d10 1B0D0000 		.4byte	0xd1b
 2056 0d14 19       		.uleb128 0x19
 2057 0d15 2D000000 		.4byte	0x2d
 2058 0d19 14       		.byte	0x14
 2059 0d1a 00       		.byte	0
 2060 0d1b 12       		.uleb128 0x12
 2061 0d1c 0B0D0000 		.4byte	0xd0b
 2062 0d20 3D       		.uleb128 0x3d
 2063 0d21 D6060000 		.4byte	.LASF171
 2064 0d25 01       		.byte	0x1
 2065 0d26 3E       		.byte	0x3e
 2066 0d27 0D       		.byte	0xd
 2067 0d28 00000000 		.4byte	.LFB352
 2068 0d2c 02000000 		.4byte	.LFE352-.LFB352
 2069 0d30 01       		.uleb128 0x1
 2070 0d31 9C       		.byte	0x9c
 2071 0d32 480D0000 		.4byte	0xd48
 2072 0d36 20       		.uleb128 0x20
 2073 0d37 7000     		.ascii	"p\000"
 2074 0d39 3E       		.byte	0x3e
 2075 0d3a 21       		.byte	0x21
 2076 0d3b DF030000 		.4byte	0x3df
 2077 0d3f B7000000 		.4byte	.LLST0
 2078 0d43 B5000000 		.4byte	.LVUS0
 2079 0d47 00       		.byte	0
 2080 0d48 1C       		.uleb128 0x1c
 2081 0d49 4C010000 		.4byte	.LASF152
 2082 0d4d 02       		.byte	0x2
 2083 0d4e 98       		.byte	0x98
 2084 0d4f 5F0D0000 		.4byte	0xd5f
 2085 0d53 24       		.uleb128 0x24
 2086 0d54 727000   		.ascii	"rp\000"
 2087 0d57 02       		.byte	0x2
 2088 0d58 98       		.byte	0x98
 2089 0d59 32       		.byte	0x32
 2090 0d5a 5F0D0000 		.4byte	0xd5f
 2091 0d5e 00       		.byte	0
 2092 0d5f 04       		.uleb128 0x4
 2093 0d60 A2070000 		.4byte	0x7a2
 2094 0d64 11       		.uleb128 0x11
 2095 0d65 E0070000 		.4byte	.LASF153
 2096 0d69 05       		.byte	0x5
 2097 0d6a 1902     		.2byte	0x219
 2098 0d6c 7E0D0000 		.4byte	0xd7e
 2099 0d70 25       		.uleb128 0x25
 2100 0d71 D1010000 		.4byte	.LASF154
 2101 0d75 05       		.byte	0x5
 2102 0d76 1902     		.2byte	0x219
 2103 0d78 3C       		.byte	0x3c
 2104 0d79 7E0D0000 		.4byte	0xd7e
 2105 0d7d 00       		.byte	0
 2106 0d7e 04       		.uleb128 0x4
 2107 0d7f 7B070000 		.4byte	0x77b
ARM GAS  C:\Users\DEVELO~1\AppData\Local\Temp\ccgFRn8O.s 			page 38


 2108 0d83 26       		.uleb128 0x26
 2109 0d84 AC020000 		.4byte	.LASF160
 2110 0d88 05       		.byte	0x5
 2111 0d89 87       		.byte	0x87
 2112 0d8a 92030000 		.4byte	0x392
 2113 0d8e 11       		.uleb128 0x11
 2114 0d8f 38080000 		.4byte	.LASF155
 2115 0d93 03       		.byte	0x3
 2116 0d94 F601     		.2byte	0x1f6
 2117 0d96 A80D0000 		.4byte	0xda8
 2118 0d9a 25       		.uleb128 0x25
 2119 0d9b 9A070000 		.4byte	.LASF156
 2120 0d9f 03       		.byte	0x3
 2121 0da0 F601     		.2byte	0x1f6
 2122 0da2 33       		.byte	0x33
 2123 0da3 D9060000 		.4byte	0x6d9
 2124 0da7 00       		.byte	0
 2125 0da8 11       		.uleb128 0x11
 2126 0da9 C3070000 		.4byte	.LASF157
 2127 0dad 03       		.byte	0x3
 2128 0dae 8C01     		.2byte	0x18c
 2129 0db0 C10D0000 		.4byte	0xdc1
 2130 0db4 14       		.uleb128 0x14
 2131 0db5 70717000 		.ascii	"pqp\000"
 2132 0db9 8C01     		.2byte	0x18c
 2133 0dbb 38       		.byte	0x38
 2134 0dbc 93060000 		.4byte	0x693
 2135 0dc0 00       		.byte	0
 2136 0dc1 11       		.uleb128 0x11
 2137 0dc2 FE050000 		.4byte	.LASF158
 2138 0dc6 03       		.byte	0x3
 2139 0dc7 4201     		.2byte	0x142
 2140 0dc9 E30D0000 		.4byte	0xde3
 2141 0dcd 14       		.uleb128 0x14
 2142 0dce 717000   		.ascii	"qp\000"
 2143 0dd1 4201     		.2byte	0x142
 2144 0dd3 30       		.byte	0x30
 2145 0dd4 4D060000 		.4byte	0x64d
 2146 0dd8 14       		.uleb128 0x14
 2147 0dd9 7000     		.ascii	"p\000"
 2148 0ddb 4201     		.2byte	0x142
 2149 0ddd 40       		.byte	0x40
 2150 0dde 4D060000 		.4byte	0x64d
 2151 0de2 00       		.byte	0
 2152 0de3 11       		.uleb128 0x11
 2153 0de4 94060000 		.4byte	.LASF159
 2154 0de8 03       		.byte	0x3
 2155 0de9 1A01     		.2byte	0x11a
 2156 0deb FB0D0000 		.4byte	0xdfb
 2157 0def 14       		.uleb128 0x14
 2158 0df0 717000   		.ascii	"qp\000"
 2159 0df3 1A01     		.2byte	0x11a
 2160 0df5 2E       		.byte	0x2e
 2161 0df6 4D060000 		.4byte	0x64d
 2162 0dfa 00       		.byte	0
 2163 0dfb 26       		.uleb128 0x26
 2164 0dfc 86070000 		.4byte	.LASF161
ARM GAS  C:\Users\DEVELO~1\AppData\Local\Temp\ccgFRn8O.s 			page 39


 2165 0e00 06       		.byte	0x6
 2166 0e01 6F       		.byte	0x6f
 2167 0e02 92030000 		.4byte	0x392
 2168 0e06 3E       		.uleb128 0x3e
 2169 0e07 4A040000 		.4byte	.LASF172
 2170 0e0b 0F       		.byte	0xf
 2171 0e0c AC03     		.2byte	0x3ac
 2172 0e0e 1B       		.byte	0x1b
 2173 0e0f 03       		.byte	0x3
 2174 0e10 1C       		.uleb128 0x1c
 2175 0e11 3A010000 		.4byte	.LASF162
 2176 0e15 07       		.byte	0x7
 2177 0e16 C0       		.byte	0xc0
 2178 0e17 280E0000 		.4byte	0xe28
 2179 0e1b 24       		.uleb128 0x24
 2180 0e1c 73647000 		.ascii	"sdp\000"
 2181 0e20 07       		.byte	0x7
 2182 0e21 C0       		.byte	0xc0
 2183 0e22 36       		.byte	0x36
 2184 0e23 280E0000 		.4byte	0xe28
 2185 0e27 00       		.byte	0
 2186 0e28 04       		.uleb128 0x4
 2187 0e29 86030000 		.4byte	0x386
 2188 0e2d 1C       		.uleb128 0x1c
 2189 0e2e CC020000 		.4byte	.LASF163
 2190 0e32 04       		.byte	0x4
 2191 0e33 68       		.byte	0x68
 2192 0e34 450E0000 		.4byte	0xe45
 2193 0e38 3F       		.uleb128 0x3f
 2194 0e39 E4060000 		.4byte	.LASF164
 2195 0e3d 04       		.byte	0x4
 2196 0e3e 68       		.byte	0x68
 2197 0e3f 2F       		.byte	0x2f
 2198 0e40 450E0000 		.4byte	0xe45
 2199 0e44 00       		.byte	0
 2200 0e45 04       		.uleb128 0x4
 2201 0e46 49030000 		.4byte	0x349
 2202 0e4a 00       		.byte	0
 2203              		.section	.debug_abbrev,"",%progbits
 2204              	.Ldebug_abbrev0:
 2205 0000 01       		.uleb128 0x1
 2206 0001 16       		.uleb128 0x16
 2207 0002 00       		.byte	0
 2208 0003 03       		.uleb128 0x3
 2209 0004 0E       		.uleb128 0xe
 2210 0005 3A       		.uleb128 0x3a
 2211 0006 0B       		.uleb128 0xb
 2212 0007 3B       		.uleb128 0x3b
 2213 0008 0B       		.uleb128 0xb
 2214 0009 39       		.uleb128 0x39
 2215 000a 0B       		.uleb128 0xb
 2216 000b 49       		.uleb128 0x49
 2217 000c 13       		.uleb128 0x13
 2218 000d 00       		.byte	0
 2219 000e 00       		.byte	0
 2220 000f 02       		.uleb128 0x2
 2221 0010 0D       		.uleb128 0xd
ARM GAS  C:\Users\DEVELO~1\AppData\Local\Temp\ccgFRn8O.s 			page 40


 2222 0011 00       		.byte	0
 2223 0012 03       		.uleb128 0x3
 2224 0013 0E       		.uleb128 0xe
 2225 0014 3A       		.uleb128 0x3a
 2226 0015 0B       		.uleb128 0xb
 2227 0016 3B       		.uleb128 0x3b
 2228 0017 0B       		.uleb128 0xb
 2229 0018 39       		.uleb128 0x39
 2230 0019 0B       		.uleb128 0xb
 2231 001a 49       		.uleb128 0x49
 2232 001b 13       		.uleb128 0x13
 2233 001c 38       		.uleb128 0x38
 2234 001d 0B       		.uleb128 0xb
 2235 001e 00       		.byte	0
 2236 001f 00       		.byte	0
 2237 0020 03       		.uleb128 0x3
 2238 0021 0D       		.uleb128 0xd
 2239 0022 00       		.byte	0
 2240 0023 03       		.uleb128 0x3
 2241 0024 0E       		.uleb128 0xe
 2242 0025 3A       		.uleb128 0x3a
 2243 0026 21       		.uleb128 0x21
 2244 0027 0C       		.sleb128 12
 2245 0028 3B       		.uleb128 0x3b
 2246 0029 05       		.uleb128 0x5
 2247 002a 39       		.uleb128 0x39
 2248 002b 0B       		.uleb128 0xb
 2249 002c 49       		.uleb128 0x49
 2250 002d 13       		.uleb128 0x13
 2251 002e 38       		.uleb128 0x38
 2252 002f 0B       		.uleb128 0xb
 2253 0030 00       		.byte	0
 2254 0031 00       		.byte	0
 2255 0032 04       		.uleb128 0x4
 2256 0033 0F       		.uleb128 0xf
 2257 0034 00       		.byte	0
 2258 0035 0B       		.uleb128 0xb
 2259 0036 21       		.uleb128 0x21
 2260 0037 04       		.sleb128 4
 2261 0038 49       		.uleb128 0x49
 2262 0039 13       		.uleb128 0x13
 2263 003a 00       		.byte	0
 2264 003b 00       		.byte	0
 2265 003c 05       		.uleb128 0x5
 2266 003d 0D       		.uleb128 0xd
 2267 003e 00       		.byte	0
 2268 003f 03       		.uleb128 0x3
 2269 0040 08       		.uleb128 0x8
 2270 0041 3A       		.uleb128 0x3a
 2271 0042 0B       		.uleb128 0xb
 2272 0043 3B       		.uleb128 0x3b
 2273 0044 05       		.uleb128 0x5
 2274 0045 39       		.uleb128 0x39
 2275 0046 0B       		.uleb128 0xb
 2276 0047 49       		.uleb128 0x49
 2277 0048 13       		.uleb128 0x13
 2278 0049 38       		.uleb128 0x38
ARM GAS  C:\Users\DEVELO~1\AppData\Local\Temp\ccgFRn8O.s 			page 41


 2279 004a 0B       		.uleb128 0xb
 2280 004b 00       		.byte	0
 2281 004c 00       		.byte	0
 2282 004d 06       		.uleb128 0x6
 2283 004e 24       		.uleb128 0x24
 2284 004f 00       		.byte	0
 2285 0050 0B       		.uleb128 0xb
 2286 0051 0B       		.uleb128 0xb
 2287 0052 3E       		.uleb128 0x3e
 2288 0053 0B       		.uleb128 0xb
 2289 0054 03       		.uleb128 0x3
 2290 0055 0E       		.uleb128 0xe
 2291 0056 00       		.byte	0
 2292 0057 00       		.byte	0
 2293 0058 07       		.uleb128 0x7
 2294 0059 13       		.uleb128 0x13
 2295 005a 01       		.byte	0x1
 2296 005b 03       		.uleb128 0x3
 2297 005c 0E       		.uleb128 0xe
 2298 005d 0B       		.uleb128 0xb
 2299 005e 0B       		.uleb128 0xb
 2300 005f 3A       		.uleb128 0x3a
 2301 0060 0B       		.uleb128 0xb
 2302 0061 3B       		.uleb128 0x3b
 2303 0062 0B       		.uleb128 0xb
 2304 0063 39       		.uleb128 0x39
 2305 0064 0B       		.uleb128 0xb
 2306 0065 01       		.uleb128 0x1
 2307 0066 13       		.uleb128 0x13
 2308 0067 00       		.byte	0
 2309 0068 00       		.byte	0
 2310 0069 08       		.uleb128 0x8
 2311 006a 0D       		.uleb128 0xd
 2312 006b 00       		.byte	0
 2313 006c 03       		.uleb128 0x3
 2314 006d 08       		.uleb128 0x8
 2315 006e 3A       		.uleb128 0x3a
 2316 006f 0B       		.uleb128 0xb
 2317 0070 3B       		.uleb128 0x3b
 2318 0071 0B       		.uleb128 0xb
 2319 0072 39       		.uleb128 0x39
 2320 0073 0B       		.uleb128 0xb
 2321 0074 49       		.uleb128 0x49
 2322 0075 13       		.uleb128 0x13
 2323 0076 38       		.uleb128 0x38
 2324 0077 0B       		.uleb128 0xb
 2325 0078 00       		.byte	0
 2326 0079 00       		.byte	0
 2327 007a 09       		.uleb128 0x9
 2328 007b 13       		.uleb128 0x13
 2329 007c 01       		.byte	0x1
 2330 007d 0B       		.uleb128 0xb
 2331 007e 0B       		.uleb128 0xb
 2332 007f 3A       		.uleb128 0x3a
 2333 0080 0B       		.uleb128 0xb
 2334 0081 3B       		.uleb128 0x3b
 2335 0082 0B       		.uleb128 0xb
ARM GAS  C:\Users\DEVELO~1\AppData\Local\Temp\ccgFRn8O.s 			page 42


 2336 0083 39       		.uleb128 0x39
 2337 0084 0B       		.uleb128 0xb
 2338 0085 01       		.uleb128 0x1
 2339 0086 13       		.uleb128 0x13
 2340 0087 00       		.byte	0
 2341 0088 00       		.byte	0
 2342 0089 0A       		.uleb128 0xa
 2343 008a 05       		.uleb128 0x5
 2344 008b 00       		.byte	0
 2345 008c 49       		.uleb128 0x49
 2346 008d 13       		.uleb128 0x13
 2347 008e 00       		.byte	0
 2348 008f 00       		.byte	0
 2349 0090 0B       		.uleb128 0xb
 2350 0091 0D       		.uleb128 0xd
 2351 0092 00       		.byte	0
 2352 0093 03       		.uleb128 0x3
 2353 0094 0E       		.uleb128 0xe
 2354 0095 3A       		.uleb128 0x3a
 2355 0096 21       		.uleb128 0x21
 2356 0097 0C       		.sleb128 12
 2357 0098 3B       		.uleb128 0x3b
 2358 0099 05       		.uleb128 0x5
 2359 009a 39       		.uleb128 0x39
 2360 009b 0B       		.uleb128 0xb
 2361 009c 49       		.uleb128 0x49
 2362 009d 13       		.uleb128 0x13
 2363 009e 00       		.byte	0
 2364 009f 00       		.byte	0
 2365 00a0 0C       		.uleb128 0xc
 2366 00a1 05       		.uleb128 0x5
 2367 00a2 00       		.byte	0
 2368 00a3 31       		.uleb128 0x31
 2369 00a4 13       		.uleb128 0x13
 2370 00a5 02       		.uleb128 0x2
 2371 00a6 17       		.uleb128 0x17
 2372 00a7 B742     		.uleb128 0x2137
 2373 00a9 17       		.uleb128 0x17
 2374 00aa 00       		.byte	0
 2375 00ab 00       		.byte	0
 2376 00ac 0D       		.uleb128 0xd
 2377 00ad 49       		.uleb128 0x49
 2378 00ae 00       		.byte	0
 2379 00af 02       		.uleb128 0x2
 2380 00b0 18       		.uleb128 0x18
 2381 00b1 7E       		.uleb128 0x7e
 2382 00b2 18       		.uleb128 0x18
 2383 00b3 00       		.byte	0
 2384 00b4 00       		.byte	0
 2385 00b5 0E       		.uleb128 0xe
 2386 00b6 0D       		.uleb128 0xd
 2387 00b7 00       		.byte	0
 2388 00b8 03       		.uleb128 0x3
 2389 00b9 0E       		.uleb128 0xe
 2390 00ba 3A       		.uleb128 0x3a
 2391 00bb 0B       		.uleb128 0xb
 2392 00bc 3B       		.uleb128 0x3b
ARM GAS  C:\Users\DEVELO~1\AppData\Local\Temp\ccgFRn8O.s 			page 43


 2393 00bd 0B       		.uleb128 0xb
 2394 00be 39       		.uleb128 0x39
 2395 00bf 0B       		.uleb128 0xb
 2396 00c0 49       		.uleb128 0x49
 2397 00c1 13       		.uleb128 0x13
 2398 00c2 00       		.byte	0
 2399 00c3 00       		.byte	0
 2400 00c4 0F       		.uleb128 0xf
 2401 00c5 13       		.uleb128 0x13
 2402 00c6 01       		.byte	0x1
 2403 00c7 03       		.uleb128 0x3
 2404 00c8 0E       		.uleb128 0xe
 2405 00c9 0B       		.uleb128 0xb
 2406 00ca 0B       		.uleb128 0xb
 2407 00cb 3A       		.uleb128 0x3a
 2408 00cc 0B       		.uleb128 0xb
 2409 00cd 3B       		.uleb128 0x3b
 2410 00ce 05       		.uleb128 0x5
 2411 00cf 39       		.uleb128 0x39
 2412 00d0 0B       		.uleb128 0xb
 2413 00d1 01       		.uleb128 0x1
 2414 00d2 13       		.uleb128 0x13
 2415 00d3 00       		.byte	0
 2416 00d4 00       		.byte	0
 2417 00d5 10       		.uleb128 0x10
 2418 00d6 1D       		.uleb128 0x1d
 2419 00d7 01       		.byte	0x1
 2420 00d8 31       		.uleb128 0x31
 2421 00d9 13       		.uleb128 0x13
 2422 00da 52       		.uleb128 0x52
 2423 00db 01       		.uleb128 0x1
 2424 00dc B842     		.uleb128 0x2138
 2425 00de 0B       		.uleb128 0xb
 2426 00df 55       		.uleb128 0x55
 2427 00e0 17       		.uleb128 0x17
 2428 00e1 58       		.uleb128 0x58
 2429 00e2 21       		.uleb128 0x21
 2430 00e3 01       		.sleb128 1
 2431 00e4 59       		.uleb128 0x59
 2432 00e5 0B       		.uleb128 0xb
 2433 00e6 57       		.uleb128 0x57
 2434 00e7 21       		.uleb128 0x21
 2435 00e8 03       		.sleb128 3
 2436 00e9 01       		.uleb128 0x1
 2437 00ea 13       		.uleb128 0x13
 2438 00eb 00       		.byte	0
 2439 00ec 00       		.byte	0
 2440 00ed 11       		.uleb128 0x11
 2441 00ee 2E       		.uleb128 0x2e
 2442 00ef 01       		.byte	0x1
 2443 00f0 03       		.uleb128 0x3
 2444 00f1 0E       		.uleb128 0xe
 2445 00f2 3A       		.uleb128 0x3a
 2446 00f3 0B       		.uleb128 0xb
 2447 00f4 3B       		.uleb128 0x3b
 2448 00f5 05       		.uleb128 0x5
 2449 00f6 39       		.uleb128 0x39
ARM GAS  C:\Users\DEVELO~1\AppData\Local\Temp\ccgFRn8O.s 			page 44


 2450 00f7 21       		.uleb128 0x21
 2451 00f8 14       		.sleb128 20
 2452 00f9 27       		.uleb128 0x27
 2453 00fa 19       		.uleb128 0x19
 2454 00fb 20       		.uleb128 0x20
 2455 00fc 21       		.uleb128 0x21
 2456 00fd 03       		.sleb128 3
 2457 00fe 01       		.uleb128 0x1
 2458 00ff 13       		.uleb128 0x13
 2459 0100 00       		.byte	0
 2460 0101 00       		.byte	0
 2461 0102 12       		.uleb128 0x12
 2462 0103 26       		.uleb128 0x26
 2463 0104 00       		.byte	0
 2464 0105 49       		.uleb128 0x49
 2465 0106 13       		.uleb128 0x13
 2466 0107 00       		.byte	0
 2467 0108 00       		.byte	0
 2468 0109 13       		.uleb128 0x13
 2469 010a 28       		.uleb128 0x28
 2470 010b 00       		.byte	0
 2471 010c 03       		.uleb128 0x3
 2472 010d 0E       		.uleb128 0xe
 2473 010e 1C       		.uleb128 0x1c
 2474 010f 0B       		.uleb128 0xb
 2475 0110 00       		.byte	0
 2476 0111 00       		.byte	0
 2477 0112 14       		.uleb128 0x14
 2478 0113 05       		.uleb128 0x5
 2479 0114 00       		.byte	0
 2480 0115 03       		.uleb128 0x3
 2481 0116 08       		.uleb128 0x8
 2482 0117 3A       		.uleb128 0x3a
 2483 0118 21       		.uleb128 0x21
 2484 0119 03       		.sleb128 3
 2485 011a 3B       		.uleb128 0x3b
 2486 011b 05       		.uleb128 0x5
 2487 011c 39       		.uleb128 0x39
 2488 011d 0B       		.uleb128 0xb
 2489 011e 49       		.uleb128 0x49
 2490 011f 13       		.uleb128 0x13
 2491 0120 00       		.byte	0
 2492 0121 00       		.byte	0
 2493 0122 15       		.uleb128 0x15
 2494 0123 35       		.uleb128 0x35
 2495 0124 00       		.byte	0
 2496 0125 49       		.uleb128 0x49
 2497 0126 13       		.uleb128 0x13
 2498 0127 00       		.byte	0
 2499 0128 00       		.byte	0
 2500 0129 16       		.uleb128 0x16
 2501 012a 0D       		.uleb128 0xd
 2502 012b 00       		.byte	0
 2503 012c 03       		.uleb128 0x3
 2504 012d 08       		.uleb128 0x8
 2505 012e 3A       		.uleb128 0x3a
 2506 012f 21       		.uleb128 0x21
ARM GAS  C:\Users\DEVELO~1\AppData\Local\Temp\ccgFRn8O.s 			page 45


 2507 0130 0E       		.sleb128 14
 2508 0131 3B       		.uleb128 0x3b
 2509 0132 0B       		.uleb128 0xb
 2510 0133 39       		.uleb128 0x39
 2511 0134 21       		.uleb128 0x21
 2512 0135 07       		.sleb128 7
 2513 0136 49       		.uleb128 0x49
 2514 0137 13       		.uleb128 0x13
 2515 0138 00       		.byte	0
 2516 0139 00       		.byte	0
 2517 013a 17       		.uleb128 0x17
 2518 013b 0D       		.uleb128 0xd
 2519 013c 00       		.byte	0
 2520 013d 03       		.uleb128 0x3
 2521 013e 0E       		.uleb128 0xe
 2522 013f 3A       		.uleb128 0x3a
 2523 0140 21       		.uleb128 0x21
 2524 0141 0E       		.sleb128 14
 2525 0142 3B       		.uleb128 0x3b
 2526 0143 0B       		.uleb128 0xb
 2527 0144 39       		.uleb128 0x39
 2528 0145 21       		.uleb128 0x21
 2529 0146 19       		.sleb128 25
 2530 0147 49       		.uleb128 0x49
 2531 0148 13       		.uleb128 0x13
 2532 0149 0D       		.uleb128 0xd
 2533 014a 0B       		.uleb128 0xb
 2534 014b 6B       		.uleb128 0x6b
 2535 014c 0B       		.uleb128 0xb
 2536 014d 00       		.byte	0
 2537 014e 00       		.byte	0
 2538 014f 18       		.uleb128 0x18
 2539 0150 01       		.uleb128 0x1
 2540 0151 01       		.byte	0x1
 2541 0152 49       		.uleb128 0x49
 2542 0153 13       		.uleb128 0x13
 2543 0154 01       		.uleb128 0x1
 2544 0155 13       		.uleb128 0x13
 2545 0156 00       		.byte	0
 2546 0157 00       		.byte	0
 2547 0158 19       		.uleb128 0x19
 2548 0159 21       		.uleb128 0x21
 2549 015a 00       		.byte	0
 2550 015b 49       		.uleb128 0x49
 2551 015c 13       		.uleb128 0x13
 2552 015d 2F       		.uleb128 0x2f
 2553 015e 0B       		.uleb128 0xb
 2554 015f 00       		.byte	0
 2555 0160 00       		.byte	0
 2556 0161 1A       		.uleb128 0x1a
 2557 0162 16       		.uleb128 0x16
 2558 0163 00       		.byte	0
 2559 0164 03       		.uleb128 0x3
 2560 0165 0E       		.uleb128 0xe
 2561 0166 3A       		.uleb128 0x3a
 2562 0167 21       		.uleb128 0x21
 2563 0168 0C       		.sleb128 12
ARM GAS  C:\Users\DEVELO~1\AppData\Local\Temp\ccgFRn8O.s 			page 46


 2564 0169 3B       		.uleb128 0x3b
 2565 016a 05       		.uleb128 0x5
 2566 016b 39       		.uleb128 0x39
 2567 016c 21       		.uleb128 0x21
 2568 016d 03       		.sleb128 3
 2569 016e 49       		.uleb128 0x49
 2570 016f 13       		.uleb128 0x13
 2571 0170 00       		.byte	0
 2572 0171 00       		.byte	0
 2573 0172 1B       		.uleb128 0x1b
 2574 0173 48       		.uleb128 0x48
 2575 0174 01       		.byte	0x1
 2576 0175 7D       		.uleb128 0x7d
 2577 0176 01       		.uleb128 0x1
 2578 0177 7F       		.uleb128 0x7f
 2579 0178 13       		.uleb128 0x13
 2580 0179 00       		.byte	0
 2581 017a 00       		.byte	0
 2582 017b 1C       		.uleb128 0x1c
 2583 017c 2E       		.uleb128 0x2e
 2584 017d 01       		.byte	0x1
 2585 017e 03       		.uleb128 0x3
 2586 017f 0E       		.uleb128 0xe
 2587 0180 3A       		.uleb128 0x3a
 2588 0181 0B       		.uleb128 0xb
 2589 0182 3B       		.uleb128 0x3b
 2590 0183 0B       		.uleb128 0xb
 2591 0184 39       		.uleb128 0x39
 2592 0185 21       		.uleb128 0x21
 2593 0186 14       		.sleb128 20
 2594 0187 27       		.uleb128 0x27
 2595 0188 19       		.uleb128 0x19
 2596 0189 20       		.uleb128 0x20
 2597 018a 21       		.uleb128 0x21
 2598 018b 03       		.sleb128 3
 2599 018c 01       		.uleb128 0x1
 2600 018d 13       		.uleb128 0x13
 2601 018e 00       		.byte	0
 2602 018f 00       		.byte	0
 2603 0190 1D       		.uleb128 0x1d
 2604 0191 17       		.uleb128 0x17
 2605 0192 01       		.byte	0x1
 2606 0193 0B       		.uleb128 0xb
 2607 0194 0B       		.uleb128 0xb
 2608 0195 3A       		.uleb128 0x3a
 2609 0196 0B       		.uleb128 0xb
 2610 0197 3B       		.uleb128 0x3b
 2611 0198 0B       		.uleb128 0xb
 2612 0199 39       		.uleb128 0x39
 2613 019a 21       		.uleb128 0x21
 2614 019b 03       		.sleb128 3
 2615 019c 01       		.uleb128 0x1
 2616 019d 13       		.uleb128 0x13
 2617 019e 00       		.byte	0
 2618 019f 00       		.byte	0
 2619 01a0 1E       		.uleb128 0x1e
 2620 01a1 15       		.uleb128 0x15
ARM GAS  C:\Users\DEVELO~1\AppData\Local\Temp\ccgFRn8O.s 			page 47


 2621 01a2 01       		.byte	0x1
 2622 01a3 27       		.uleb128 0x27
 2623 01a4 19       		.uleb128 0x19
 2624 01a5 01       		.uleb128 0x1
 2625 01a6 13       		.uleb128 0x13
 2626 01a7 00       		.byte	0
 2627 01a8 00       		.byte	0
 2628 01a9 1F       		.uleb128 0x1f
 2629 01aa 2E       		.uleb128 0x2e
 2630 01ab 01       		.byte	0x1
 2631 01ac 3F       		.uleb128 0x3f
 2632 01ad 19       		.uleb128 0x19
 2633 01ae 03       		.uleb128 0x3
 2634 01af 0E       		.uleb128 0xe
 2635 01b0 3A       		.uleb128 0x3a
 2636 01b1 21       		.uleb128 0x21
 2637 01b2 13       		.sleb128 19
 2638 01b3 3B       		.uleb128 0x3b
 2639 01b4 05       		.uleb128 0x5
 2640 01b5 39       		.uleb128 0x39
 2641 01b6 21       		.uleb128 0x21
 2642 01b7 0D       		.sleb128 13
 2643 01b8 27       		.uleb128 0x27
 2644 01b9 19       		.uleb128 0x19
 2645 01ba 49       		.uleb128 0x49
 2646 01bb 13       		.uleb128 0x13
 2647 01bc 3C       		.uleb128 0x3c
 2648 01bd 19       		.uleb128 0x19
 2649 01be 01       		.uleb128 0x1
 2650 01bf 13       		.uleb128 0x13
 2651 01c0 00       		.byte	0
 2652 01c1 00       		.byte	0
 2653 01c2 20       		.uleb128 0x20
 2654 01c3 05       		.uleb128 0x5
 2655 01c4 00       		.byte	0
 2656 01c5 03       		.uleb128 0x3
 2657 01c6 08       		.uleb128 0x8
 2658 01c7 3A       		.uleb128 0x3a
 2659 01c8 21       		.uleb128 0x21
 2660 01c9 01       		.sleb128 1
 2661 01ca 3B       		.uleb128 0x3b
 2662 01cb 0B       		.uleb128 0xb
 2663 01cc 39       		.uleb128 0x39
 2664 01cd 0B       		.uleb128 0xb
 2665 01ce 49       		.uleb128 0x49
 2666 01cf 13       		.uleb128 0x13
 2667 01d0 02       		.uleb128 0x2
 2668 01d1 17       		.uleb128 0x17
 2669 01d2 B742     		.uleb128 0x2137
 2670 01d4 17       		.uleb128 0x17
 2671 01d5 00       		.byte	0
 2672 01d6 00       		.byte	0
 2673 01d7 21       		.uleb128 0x21
 2674 01d8 0B       		.uleb128 0xb
 2675 01d9 01       		.byte	0x1
 2676 01da 55       		.uleb128 0x55
 2677 01db 17       		.uleb128 0x17
ARM GAS  C:\Users\DEVELO~1\AppData\Local\Temp\ccgFRn8O.s 			page 48


 2678 01dc 01       		.uleb128 0x1
 2679 01dd 13       		.uleb128 0x13
 2680 01de 00       		.byte	0
 2681 01df 00       		.byte	0
 2682 01e0 22       		.uleb128 0x22
 2683 01e1 34       		.uleb128 0x34
 2684 01e2 00       		.byte	0
 2685 01e3 03       		.uleb128 0x3
 2686 01e4 0E       		.uleb128 0xe
 2687 01e5 3A       		.uleb128 0x3a
 2688 01e6 21       		.uleb128 0x21
 2689 01e7 01       		.sleb128 1
 2690 01e8 3B       		.uleb128 0x3b
 2691 01e9 0B       		.uleb128 0xb
 2692 01ea 39       		.uleb128 0x39
 2693 01eb 21       		.uleb128 0x21
 2694 01ec 0B       		.sleb128 11
 2695 01ed 49       		.uleb128 0x49
 2696 01ee 13       		.uleb128 0x13
 2697 01ef 02       		.uleb128 0x2
 2698 01f0 18       		.uleb128 0x18
 2699 01f1 00       		.byte	0
 2700 01f2 00       		.byte	0
 2701 01f3 23       		.uleb128 0x23
 2702 01f4 05       		.uleb128 0x5
 2703 01f5 00       		.byte	0
 2704 01f6 31       		.uleb128 0x31
 2705 01f7 13       		.uleb128 0x13
 2706 01f8 00       		.byte	0
 2707 01f9 00       		.byte	0
 2708 01fa 24       		.uleb128 0x24
 2709 01fb 05       		.uleb128 0x5
 2710 01fc 00       		.byte	0
 2711 01fd 03       		.uleb128 0x3
 2712 01fe 08       		.uleb128 0x8
 2713 01ff 3A       		.uleb128 0x3a
 2714 0200 0B       		.uleb128 0xb
 2715 0201 3B       		.uleb128 0x3b
 2716 0202 0B       		.uleb128 0xb
 2717 0203 39       		.uleb128 0x39
 2718 0204 0B       		.uleb128 0xb
 2719 0205 49       		.uleb128 0x49
 2720 0206 13       		.uleb128 0x13
 2721 0207 00       		.byte	0
 2722 0208 00       		.byte	0
 2723 0209 25       		.uleb128 0x25
 2724 020a 05       		.uleb128 0x5
 2725 020b 00       		.byte	0
 2726 020c 03       		.uleb128 0x3
 2727 020d 0E       		.uleb128 0xe
 2728 020e 3A       		.uleb128 0x3a
 2729 020f 0B       		.uleb128 0xb
 2730 0210 3B       		.uleb128 0x3b
 2731 0211 05       		.uleb128 0x5
 2732 0212 39       		.uleb128 0x39
 2733 0213 0B       		.uleb128 0xb
 2734 0214 49       		.uleb128 0x49
ARM GAS  C:\Users\DEVELO~1\AppData\Local\Temp\ccgFRn8O.s 			page 49


 2735 0215 13       		.uleb128 0x13
 2736 0216 00       		.byte	0
 2737 0217 00       		.byte	0
 2738 0218 26       		.uleb128 0x26
 2739 0219 2E       		.uleb128 0x2e
 2740 021a 00       		.byte	0
 2741 021b 03       		.uleb128 0x3
 2742 021c 0E       		.uleb128 0xe
 2743 021d 3A       		.uleb128 0x3a
 2744 021e 0B       		.uleb128 0xb
 2745 021f 3B       		.uleb128 0x3b
 2746 0220 0B       		.uleb128 0xb
 2747 0221 39       		.uleb128 0x39
 2748 0222 21       		.uleb128 0x21
 2749 0223 19       		.sleb128 25
 2750 0224 27       		.uleb128 0x27
 2751 0225 19       		.uleb128 0x19
 2752 0226 49       		.uleb128 0x49
 2753 0227 13       		.uleb128 0x13
 2754 0228 20       		.uleb128 0x20
 2755 0229 21       		.uleb128 0x21
 2756 022a 03       		.sleb128 3
 2757 022b 00       		.byte	0
 2758 022c 00       		.byte	0
 2759 022d 27       		.uleb128 0x27
 2760 022e 11       		.uleb128 0x11
 2761 022f 01       		.byte	0x1
 2762 0230 25       		.uleb128 0x25
 2763 0231 0E       		.uleb128 0xe
 2764 0232 13       		.uleb128 0x13
 2765 0233 0B       		.uleb128 0xb
 2766 0234 03       		.uleb128 0x3
 2767 0235 0E       		.uleb128 0xe
 2768 0236 1B       		.uleb128 0x1b
 2769 0237 0E       		.uleb128 0xe
 2770 0238 55       		.uleb128 0x55
 2771 0239 17       		.uleb128 0x17
 2772 023a 11       		.uleb128 0x11
 2773 023b 01       		.uleb128 0x1
 2774 023c 10       		.uleb128 0x10
 2775 023d 17       		.uleb128 0x17
 2776 023e 00       		.byte	0
 2777 023f 00       		.byte	0
 2778 0240 28       		.uleb128 0x28
 2779 0241 24       		.uleb128 0x24
 2780 0242 00       		.byte	0
 2781 0243 0B       		.uleb128 0xb
 2782 0244 0B       		.uleb128 0xb
 2783 0245 3E       		.uleb128 0x3e
 2784 0246 0B       		.uleb128 0xb
 2785 0247 03       		.uleb128 0x3
 2786 0248 08       		.uleb128 0x8
 2787 0249 00       		.byte	0
 2788 024a 00       		.byte	0
 2789 024b 29       		.uleb128 0x29
 2790 024c 13       		.uleb128 0x13
 2791 024d 01       		.byte	0x1
ARM GAS  C:\Users\DEVELO~1\AppData\Local\Temp\ccgFRn8O.s 			page 50


 2792 024e 03       		.uleb128 0x3
 2793 024f 0E       		.uleb128 0xe
 2794 0250 0B       		.uleb128 0xb
 2795 0251 05       		.uleb128 0x5
 2796 0252 3A       		.uleb128 0x3a
 2797 0253 0B       		.uleb128 0xb
 2798 0254 3B       		.uleb128 0x3b
 2799 0255 05       		.uleb128 0x5
 2800 0256 39       		.uleb128 0x39
 2801 0257 0B       		.uleb128 0xb
 2802 0258 01       		.uleb128 0x1
 2803 0259 13       		.uleb128 0x13
 2804 025a 00       		.byte	0
 2805 025b 00       		.byte	0
 2806 025c 2A       		.uleb128 0x2a
 2807 025d 0F       		.uleb128 0xf
 2808 025e 00       		.byte	0
 2809 025f 0B       		.uleb128 0xb
 2810 0260 0B       		.uleb128 0xb
 2811 0261 00       		.byte	0
 2812 0262 00       		.byte	0
 2813 0263 2B       		.uleb128 0x2b
 2814 0264 13       		.uleb128 0x13
 2815 0265 01       		.byte	0x1
 2816 0266 0B       		.uleb128 0xb
 2817 0267 05       		.uleb128 0x5
 2818 0268 3A       		.uleb128 0x3a
 2819 0269 0B       		.uleb128 0xb
 2820 026a 3B       		.uleb128 0x3b
 2821 026b 0B       		.uleb128 0xb
 2822 026c 39       		.uleb128 0x39
 2823 026d 0B       		.uleb128 0xb
 2824 026e 01       		.uleb128 0x1
 2825 026f 13       		.uleb128 0x13
 2826 0270 00       		.byte	0
 2827 0271 00       		.byte	0
 2828 0272 2C       		.uleb128 0x2c
 2829 0273 04       		.uleb128 0x4
 2830 0274 01       		.byte	0x1
 2831 0275 3E       		.uleb128 0x3e
 2832 0276 0B       		.uleb128 0xb
 2833 0277 0B       		.uleb128 0xb
 2834 0278 0B       		.uleb128 0xb
 2835 0279 49       		.uleb128 0x49
 2836 027a 13       		.uleb128 0x13
 2837 027b 3A       		.uleb128 0x3a
 2838 027c 0B       		.uleb128 0xb
 2839 027d 3B       		.uleb128 0x3b
 2840 027e 0B       		.uleb128 0xb
 2841 027f 39       		.uleb128 0x39
 2842 0280 0B       		.uleb128 0xb
 2843 0281 01       		.uleb128 0x1
 2844 0282 13       		.uleb128 0x13
 2845 0283 00       		.byte	0
 2846 0284 00       		.byte	0
 2847 0285 2D       		.uleb128 0x2d
 2848 0286 17       		.uleb128 0x17
ARM GAS  C:\Users\DEVELO~1\AppData\Local\Temp\ccgFRn8O.s 			page 51


 2849 0287 01       		.byte	0x1
 2850 0288 0B       		.uleb128 0xb
 2851 0289 0B       		.uleb128 0xb
 2852 028a 3A       		.uleb128 0x3a
 2853 028b 0B       		.uleb128 0xb
 2854 028c 3B       		.uleb128 0x3b
 2855 028d 05       		.uleb128 0x5
 2856 028e 39       		.uleb128 0x39
 2857 028f 0B       		.uleb128 0xb
 2858 0290 01       		.uleb128 0x1
 2859 0291 13       		.uleb128 0x13
 2860 0292 00       		.byte	0
 2861 0293 00       		.byte	0
 2862 0294 2E       		.uleb128 0x2e
 2863 0295 34       		.uleb128 0x34
 2864 0296 00       		.byte	0
 2865 0297 03       		.uleb128 0x3
 2866 0298 0E       		.uleb128 0xe
 2867 0299 3A       		.uleb128 0x3a
 2868 029a 0B       		.uleb128 0xb
 2869 029b 3B       		.uleb128 0x3b
 2870 029c 05       		.uleb128 0x5
 2871 029d 39       		.uleb128 0x39
 2872 029e 0B       		.uleb128 0xb
 2873 029f 49       		.uleb128 0x49
 2874 02a0 13       		.uleb128 0x13
 2875 02a1 3F       		.uleb128 0x3f
 2876 02a2 19       		.uleb128 0x19
 2877 02a3 3C       		.uleb128 0x3c
 2878 02a4 19       		.uleb128 0x19
 2879 02a5 00       		.byte	0
 2880 02a6 00       		.byte	0
 2881 02a7 2F       		.uleb128 0x2f
 2882 02a8 2E       		.uleb128 0x2e
 2883 02a9 00       		.byte	0
 2884 02aa 3F       		.uleb128 0x3f
 2885 02ab 19       		.uleb128 0x19
 2886 02ac 03       		.uleb128 0x3
 2887 02ad 0E       		.uleb128 0xe
 2888 02ae 3A       		.uleb128 0x3a
 2889 02af 0B       		.uleb128 0xb
 2890 02b0 3B       		.uleb128 0x3b
 2891 02b1 0B       		.uleb128 0xb
 2892 02b2 39       		.uleb128 0x39
 2893 02b3 0B       		.uleb128 0xb
 2894 02b4 27       		.uleb128 0x27
 2895 02b5 19       		.uleb128 0x19
 2896 02b6 49       		.uleb128 0x49
 2897 02b7 13       		.uleb128 0x13
 2898 02b8 3C       		.uleb128 0x3c
 2899 02b9 19       		.uleb128 0x19
 2900 02ba 00       		.byte	0
 2901 02bb 00       		.byte	0
 2902 02bc 30       		.uleb128 0x30
 2903 02bd 2E       		.uleb128 0x2e
 2904 02be 01       		.byte	0x1
 2905 02bf 3F       		.uleb128 0x3f
ARM GAS  C:\Users\DEVELO~1\AppData\Local\Temp\ccgFRn8O.s 			page 52


 2906 02c0 19       		.uleb128 0x19
 2907 02c1 03       		.uleb128 0x3
 2908 02c2 0E       		.uleb128 0xe
 2909 02c3 3A       		.uleb128 0x3a
 2910 02c4 0B       		.uleb128 0xb
 2911 02c5 3B       		.uleb128 0x3b
 2912 02c6 0B       		.uleb128 0xb
 2913 02c7 39       		.uleb128 0x39
 2914 02c8 0B       		.uleb128 0xb
 2915 02c9 27       		.uleb128 0x27
 2916 02ca 19       		.uleb128 0x19
 2917 02cb 3C       		.uleb128 0x3c
 2918 02cc 19       		.uleb128 0x19
 2919 02cd 01       		.uleb128 0x1
 2920 02ce 13       		.uleb128 0x13
 2921 02cf 00       		.byte	0
 2922 02d0 00       		.byte	0
 2923 02d1 31       		.uleb128 0x31
 2924 02d2 2E       		.uleb128 0x2e
 2925 02d3 01       		.byte	0x1
 2926 02d4 3F       		.uleb128 0x3f
 2927 02d5 19       		.uleb128 0x19
 2928 02d6 03       		.uleb128 0x3
 2929 02d7 0E       		.uleb128 0xe
 2930 02d8 3A       		.uleb128 0x3a
 2931 02d9 0B       		.uleb128 0xb
 2932 02da 3B       		.uleb128 0x3b
 2933 02db 05       		.uleb128 0x5
 2934 02dc 39       		.uleb128 0x39
 2935 02dd 0B       		.uleb128 0xb
 2936 02de 27       		.uleb128 0x27
 2937 02df 19       		.uleb128 0x19
 2938 02e0 3C       		.uleb128 0x3c
 2939 02e1 19       		.uleb128 0x19
 2940 02e2 01       		.uleb128 0x1
 2941 02e3 13       		.uleb128 0x13
 2942 02e4 00       		.byte	0
 2943 02e5 00       		.byte	0
 2944 02e6 32       		.uleb128 0x32
 2945 02e7 2E       		.uleb128 0x2e
 2946 02e8 01       		.byte	0x1
 2947 02e9 3F       		.uleb128 0x3f
 2948 02ea 19       		.uleb128 0x19
 2949 02eb 03       		.uleb128 0x3
 2950 02ec 0E       		.uleb128 0xe
 2951 02ed 3A       		.uleb128 0x3a
 2952 02ee 0B       		.uleb128 0xb
 2953 02ef 3B       		.uleb128 0x3b
 2954 02f0 0B       		.uleb128 0xb
 2955 02f1 39       		.uleb128 0x39
 2956 02f2 0B       		.uleb128 0xb
 2957 02f3 27       		.uleb128 0x27
 2958 02f4 19       		.uleb128 0x19
 2959 02f5 11       		.uleb128 0x11
 2960 02f6 01       		.uleb128 0x1
 2961 02f7 12       		.uleb128 0x12
 2962 02f8 06       		.uleb128 0x6
ARM GAS  C:\Users\DEVELO~1\AppData\Local\Temp\ccgFRn8O.s 			page 53


 2963 02f9 40       		.uleb128 0x40
 2964 02fa 18       		.uleb128 0x18
 2965 02fb 7A       		.uleb128 0x7a
 2966 02fc 19       		.uleb128 0x19
 2967 02fd 01       		.uleb128 0x1
 2968 02fe 13       		.uleb128 0x13
 2969 02ff 00       		.byte	0
 2970 0300 00       		.byte	0
 2971 0301 33       		.uleb128 0x33
 2972 0302 05       		.uleb128 0x5
 2973 0303 00       		.byte	0
 2974 0304 03       		.uleb128 0x3
 2975 0305 0E       		.uleb128 0xe
 2976 0306 3A       		.uleb128 0x3a
 2977 0307 0B       		.uleb128 0xb
 2978 0308 3B       		.uleb128 0x3b
 2979 0309 0B       		.uleb128 0xb
 2980 030a 39       		.uleb128 0x39
 2981 030b 0B       		.uleb128 0xb
 2982 030c 49       		.uleb128 0x49
 2983 030d 13       		.uleb128 0x13
 2984 030e 02       		.uleb128 0x2
 2985 030f 17       		.uleb128 0x17
 2986 0310 B742     		.uleb128 0x2137
 2987 0312 17       		.uleb128 0x17
 2988 0313 00       		.byte	0
 2989 0314 00       		.byte	0
 2990 0315 34       		.uleb128 0x34
 2991 0316 34       		.uleb128 0x34
 2992 0317 00       		.byte	0
 2993 0318 03       		.uleb128 0x3
 2994 0319 0E       		.uleb128 0xe
 2995 031a 3A       		.uleb128 0x3a
 2996 031b 0B       		.uleb128 0xb
 2997 031c 3B       		.uleb128 0x3b
 2998 031d 0B       		.uleb128 0xb
 2999 031e 39       		.uleb128 0x39
 3000 031f 0B       		.uleb128 0xb
 3001 0320 49       		.uleb128 0x49
 3002 0321 13       		.uleb128 0x13
 3003 0322 1C       		.uleb128 0x1c
 3004 0323 0B       		.uleb128 0xb
 3005 0324 00       		.byte	0
 3006 0325 00       		.byte	0
 3007 0326 35       		.uleb128 0x35
 3008 0327 34       		.uleb128 0x34
 3009 0328 00       		.byte	0
 3010 0329 03       		.uleb128 0x3
 3011 032a 0E       		.uleb128 0xe
 3012 032b 49       		.uleb128 0x49
 3013 032c 13       		.uleb128 0x13
 3014 032d 34       		.uleb128 0x34
 3015 032e 19       		.uleb128 0x19
 3016 032f 00       		.byte	0
 3017 0330 00       		.byte	0
 3018 0331 36       		.uleb128 0x36
 3019 0332 1D       		.uleb128 0x1d
ARM GAS  C:\Users\DEVELO~1\AppData\Local\Temp\ccgFRn8O.s 			page 54


 3020 0333 01       		.byte	0x1
 3021 0334 31       		.uleb128 0x31
 3022 0335 13       		.uleb128 0x13
 3023 0336 52       		.uleb128 0x52
 3024 0337 01       		.uleb128 0x1
 3025 0338 B842     		.uleb128 0x2138
 3026 033a 0B       		.uleb128 0xb
 3027 033b 55       		.uleb128 0x55
 3028 033c 17       		.uleb128 0x17
 3029 033d 58       		.uleb128 0x58
 3030 033e 0B       		.uleb128 0xb
 3031 033f 59       		.uleb128 0x59
 3032 0340 0B       		.uleb128 0xb
 3033 0341 57       		.uleb128 0x57
 3034 0342 0B       		.uleb128 0xb
 3035 0343 00       		.byte	0
 3036 0344 00       		.byte	0
 3037 0345 37       		.uleb128 0x37
 3038 0346 1D       		.uleb128 0x1d
 3039 0347 01       		.byte	0x1
 3040 0348 31       		.uleb128 0x31
 3041 0349 13       		.uleb128 0x13
 3042 034a 52       		.uleb128 0x52
 3043 034b 01       		.uleb128 0x1
 3044 034c B842     		.uleb128 0x2138
 3045 034e 0B       		.uleb128 0xb
 3046 034f 55       		.uleb128 0x55
 3047 0350 17       		.uleb128 0x17
 3048 0351 58       		.uleb128 0x58
 3049 0352 0B       		.uleb128 0xb
 3050 0353 59       		.uleb128 0x59
 3051 0354 05       		.uleb128 0x5
 3052 0355 57       		.uleb128 0x57
 3053 0356 0B       		.uleb128 0xb
 3054 0357 01       		.uleb128 0x1
 3055 0358 13       		.uleb128 0x13
 3056 0359 00       		.byte	0
 3057 035a 00       		.byte	0
 3058 035b 38       		.uleb128 0x38
 3059 035c 1D       		.uleb128 0x1d
 3060 035d 01       		.byte	0x1
 3061 035e 31       		.uleb128 0x31
 3062 035f 13       		.uleb128 0x13
 3063 0360 52       		.uleb128 0x52
 3064 0361 01       		.uleb128 0x1
 3065 0362 B842     		.uleb128 0x2138
 3066 0364 0B       		.uleb128 0xb
 3067 0365 11       		.uleb128 0x11
 3068 0366 01       		.uleb128 0x1
 3069 0367 12       		.uleb128 0x12
 3070 0368 06       		.uleb128 0x6
 3071 0369 58       		.uleb128 0x58
 3072 036a 0B       		.uleb128 0xb
 3073 036b 59       		.uleb128 0x59
 3074 036c 05       		.uleb128 0x5
 3075 036d 57       		.uleb128 0x57
 3076 036e 0B       		.uleb128 0xb
ARM GAS  C:\Users\DEVELO~1\AppData\Local\Temp\ccgFRn8O.s 			page 55


 3077 036f 00       		.byte	0
 3078 0370 00       		.byte	0
 3079 0371 39       		.uleb128 0x39
 3080 0372 1D       		.uleb128 0x1d
 3081 0373 01       		.byte	0x1
 3082 0374 31       		.uleb128 0x31
 3083 0375 13       		.uleb128 0x13
 3084 0376 52       		.uleb128 0x52
 3085 0377 01       		.uleb128 0x1
 3086 0378 B842     		.uleb128 0x2138
 3087 037a 0B       		.uleb128 0xb
 3088 037b 11       		.uleb128 0x11
 3089 037c 01       		.uleb128 0x1
 3090 037d 12       		.uleb128 0x12
 3091 037e 06       		.uleb128 0x6
 3092 037f 58       		.uleb128 0x58
 3093 0380 0B       		.uleb128 0xb
 3094 0381 59       		.uleb128 0x59
 3095 0382 0B       		.uleb128 0xb
 3096 0383 57       		.uleb128 0x57
 3097 0384 0B       		.uleb128 0xb
 3098 0385 00       		.byte	0
 3099 0386 00       		.byte	0
 3100 0387 3A       		.uleb128 0x3a
 3101 0388 48       		.uleb128 0x48
 3102 0389 00       		.byte	0
 3103 038a 7D       		.uleb128 0x7d
 3104 038b 01       		.uleb128 0x1
 3105 038c 7F       		.uleb128 0x7f
 3106 038d 13       		.uleb128 0x13
 3107 038e 00       		.byte	0
 3108 038f 00       		.byte	0
 3109 0390 3B       		.uleb128 0x3b
 3110 0391 1D       		.uleb128 0x1d
 3111 0392 01       		.byte	0x1
 3112 0393 31       		.uleb128 0x31
 3113 0394 13       		.uleb128 0x13
 3114 0395 52       		.uleb128 0x52
 3115 0396 01       		.uleb128 0x1
 3116 0397 B842     		.uleb128 0x2138
 3117 0399 0B       		.uleb128 0xb
 3118 039a 11       		.uleb128 0x11
 3119 039b 01       		.uleb128 0x1
 3120 039c 12       		.uleb128 0x12
 3121 039d 06       		.uleb128 0x6
 3122 039e 58       		.uleb128 0x58
 3123 039f 0B       		.uleb128 0xb
 3124 03a0 59       		.uleb128 0x59
 3125 03a1 0B       		.uleb128 0xb
 3126 03a2 57       		.uleb128 0x57
 3127 03a3 0B       		.uleb128 0xb
 3128 03a4 01       		.uleb128 0x1
 3129 03a5 13       		.uleb128 0x13
 3130 03a6 00       		.byte	0
 3131 03a7 00       		.byte	0
 3132 03a8 3C       		.uleb128 0x3c
 3133 03a9 48       		.uleb128 0x48
ARM GAS  C:\Users\DEVELO~1\AppData\Local\Temp\ccgFRn8O.s 			page 56


 3134 03aa 01       		.byte	0x1
 3135 03ab 7D       		.uleb128 0x7d
 3136 03ac 01       		.uleb128 0x1
 3137 03ad 7F       		.uleb128 0x7f
 3138 03ae 13       		.uleb128 0x13
 3139 03af 01       		.uleb128 0x1
 3140 03b0 13       		.uleb128 0x13
 3141 03b1 00       		.byte	0
 3142 03b2 00       		.byte	0
 3143 03b3 3D       		.uleb128 0x3d
 3144 03b4 2E       		.uleb128 0x2e
 3145 03b5 01       		.byte	0x1
 3146 03b6 03       		.uleb128 0x3
 3147 03b7 0E       		.uleb128 0xe
 3148 03b8 3A       		.uleb128 0x3a
 3149 03b9 0B       		.uleb128 0xb
 3150 03ba 3B       		.uleb128 0x3b
 3151 03bb 0B       		.uleb128 0xb
 3152 03bc 39       		.uleb128 0x39
 3153 03bd 0B       		.uleb128 0xb
 3154 03be 27       		.uleb128 0x27
 3155 03bf 19       		.uleb128 0x19
 3156 03c0 11       		.uleb128 0x11
 3157 03c1 01       		.uleb128 0x1
 3158 03c2 12       		.uleb128 0x12
 3159 03c3 06       		.uleb128 0x6
 3160 03c4 40       		.uleb128 0x40
 3161 03c5 18       		.uleb128 0x18
 3162 03c6 7A       		.uleb128 0x7a
 3163 03c7 19       		.uleb128 0x19
 3164 03c8 01       		.uleb128 0x1
 3165 03c9 13       		.uleb128 0x13
 3166 03ca 00       		.byte	0
 3167 03cb 00       		.byte	0
 3168 03cc 3E       		.uleb128 0x3e
 3169 03cd 2E       		.uleb128 0x2e
 3170 03ce 00       		.byte	0
 3171 03cf 03       		.uleb128 0x3
 3172 03d0 0E       		.uleb128 0xe
 3173 03d1 3A       		.uleb128 0x3a
 3174 03d2 0B       		.uleb128 0xb
 3175 03d3 3B       		.uleb128 0x3b
 3176 03d4 05       		.uleb128 0x5
 3177 03d5 39       		.uleb128 0x39
 3178 03d6 0B       		.uleb128 0xb
 3179 03d7 27       		.uleb128 0x27
 3180 03d8 19       		.uleb128 0x19
 3181 03d9 20       		.uleb128 0x20
 3182 03da 0B       		.uleb128 0xb
 3183 03db 00       		.byte	0
 3184 03dc 00       		.byte	0
 3185 03dd 3F       		.uleb128 0x3f
 3186 03de 05       		.uleb128 0x5
 3187 03df 00       		.byte	0
 3188 03e0 03       		.uleb128 0x3
 3189 03e1 0E       		.uleb128 0xe
 3190 03e2 3A       		.uleb128 0x3a
ARM GAS  C:\Users\DEVELO~1\AppData\Local\Temp\ccgFRn8O.s 			page 57


 3191 03e3 0B       		.uleb128 0xb
 3192 03e4 3B       		.uleb128 0x3b
 3193 03e5 0B       		.uleb128 0xb
 3194 03e6 39       		.uleb128 0x39
 3195 03e7 0B       		.uleb128 0xb
 3196 03e8 49       		.uleb128 0x49
 3197 03e9 13       		.uleb128 0x13
 3198 03ea 00       		.byte	0
 3199 03eb 00       		.byte	0
 3200 03ec 00       		.byte	0
 3201              		.section	.debug_loclists,"",%progbits
 3202 0000 BC000000 		.4byte	.Ldebug_loc3-.Ldebug_loc2
 3203              	.Ldebug_loc2:
 3204 0004 0500     		.2byte	0x5
 3205 0006 04       		.byte	0x4
 3206 0007 00       		.byte	0
 3207 0008 00000000 		.4byte	0
 3208              	.Ldebug_loc0:
 3209              	.LVUS1:
 3210 000c 00       		.uleb128 0
 3211 000d 00       		.uleb128 .LVU23
 3212 000e 00       		.uleb128 .LVU23
 3213 000f 00       		.uleb128 .LVU103
 3214 0010 00       		.uleb128 .LVU103
 3215 0011 00       		.uleb128 .LVU105
 3216 0012 00       		.uleb128 .LVU105
 3217 0013 00       		.uleb128 .LVU107
 3218 0014 00       		.uleb128 .LVU107
 3219 0015 00       		.uleb128 0
 3220              	.LLST1:
 3221 0016 06       		.byte	0x6
 3222 0017 00000000 		.4byte	.LVL1
 3223 001b 04       		.byte	0x4
 3224 001c 00       		.uleb128 .LVL1-.LVL1
 3225 001d 19       		.uleb128 .LVL2-1-.LVL1
 3226 001e 01       		.uleb128 0x1
 3227 001f 50       		.byte	0x50
 3228 0020 04       		.byte	0x4
 3229 0021 19       		.uleb128 .LVL2-1-.LVL1
 3230 0022 9801     		.uleb128 .LVL11-.LVL1
 3231 0024 01       		.uleb128 0x1
 3232 0025 54       		.byte	0x54
 3233 0026 04       		.byte	0x4
 3234 0027 9801     		.uleb128 .LVL11-.LVL1
 3235 0029 A701     		.uleb128 .LVL12-1-.LVL1
 3236 002b 02       		.uleb128 0x2
 3237 002c 91       		.byte	0x91
 3238 002d 64       		.sleb128 -28
 3239 002e 04       		.byte	0x4
 3240 002f A701     		.uleb128 .LVL12-1-.LVL1
 3241 0031 AC01     		.uleb128 .LVL13-.LVL1
 3242 0033 03       		.uleb128 0x3
 3243 0034 77       		.byte	0x77
 3244 0035 50       		.sleb128 -48
 3245 0036 9F       		.byte	0x9f
 3246 0037 04       		.byte	0x4
 3247 0038 AC01     		.uleb128 .LVL13-.LVL1
ARM GAS  C:\Users\DEVELO~1\AppData\Local\Temp\ccgFRn8O.s 			page 58


 3248 003a BC01     		.uleb128 .LFE353-.LVL1
 3249 003c 04       		.uleb128 0x4
 3250 003d A3       		.byte	0xa3
 3251 003e 01       		.uleb128 0x1
 3252 003f 50       		.byte	0x50
 3253 0040 9F       		.byte	0x9f
 3254 0041 00       		.byte	0
 3255              	.LVUS2:
 3256 0042 00       		.uleb128 0
 3257 0043 00       		.uleb128 .LVU23
 3258 0044 00       		.uleb128 .LVU23
 3259 0045 00       		.uleb128 .LVU107
 3260 0046 00       		.uleb128 .LVU107
 3261 0047 00       		.uleb128 0
 3262              	.LLST2:
 3263 0048 06       		.byte	0x6
 3264 0049 00000000 		.4byte	.LVL1
 3265 004d 04       		.byte	0x4
 3266 004e 00       		.uleb128 .LVL1-.LVL1
 3267 004f 19       		.uleb128 .LVL2-1-.LVL1
 3268 0050 01       		.uleb128 0x1
 3269 0051 51       		.byte	0x51
 3270 0052 04       		.byte	0x4
 3271 0053 19       		.uleb128 .LVL2-1-.LVL1
 3272 0054 AC01     		.uleb128 .LVL13-.LVL1
 3273 0056 01       		.uleb128 0x1
 3274 0057 56       		.byte	0x56
 3275 0058 04       		.byte	0x4
 3276 0059 AC01     		.uleb128 .LVL13-.LVL1
 3277 005b BC01     		.uleb128 .LFE353-.LVL1
 3278 005d 04       		.uleb128 0x4
 3279 005e A3       		.byte	0xa3
 3280 005f 01       		.uleb128 0x1
 3281 0060 51       		.byte	0x51
 3282 0061 9F       		.byte	0x9f
 3283 0062 00       		.byte	0
 3284              	.LVUS4:
 3285 0063 03       		.uleb128 .LVU39
 3286 0064 07       		.uleb128 .LVU43
 3287              	.LLST4:
 3288 0065 08       		.byte	0x8
 3289 0066 3A000000 		.4byte	.LVL3
 3290 006a 00       		.uleb128 .LVL3-.LVL3
 3291 006b 01       		.uleb128 0x1
 3292 006c 57       		.byte	0x57
 3293 006d 00       		.byte	0
 3294              	.LVUS6:
 3295 006e 05       		.uleb128 .LVU41
 3296 006f 07       		.uleb128 .LVU43
 3297              	.LLST6:
 3298 0070 08       		.byte	0x8
 3299 0071 3A000000 		.4byte	.LVL3
 3300 0075 00       		.uleb128 .LVL3-.LVL3
 3301 0076 01       		.uleb128 0x1
 3302 0077 57       		.byte	0x57
 3303 0078 00       		.byte	0
 3304              	.LVUS8:
ARM GAS  C:\Users\DEVELO~1\AppData\Local\Temp\ccgFRn8O.s 			page 59


 3305 0079 01       		.uleb128 .LVU24
 3306 007a 01       		.uleb128 .LVU37
 3307              	.LLST8:
 3308 007b 08       		.byte	0x8
 3309 007c 1A000000 		.4byte	.LVL2
 3310 0080 20       		.uleb128 .LVL3-.LVL2
 3311 0081 01       		.uleb128 0x1
 3312 0082 54       		.byte	0x54
 3313 0083 00       		.byte	0
 3314              	.LVUS10:
 3315 0084 09       		.uleb128 .LVU45
 3316 0085 0B       		.uleb128 .LVU47
 3317              	.LLST10:
 3318 0086 08       		.byte	0x8
 3319 0087 3A000000 		.4byte	.LVL3
 3320 008b 00       		.uleb128 .LVL3-.LVL3
 3321 008c 03       		.uleb128 0x3
 3322 008d 74       		.byte	0x74
 3323 008e 3C       		.sleb128 60
 3324 008f 9F       		.byte	0x9f
 3325 0090 00       		.byte	0
 3326              	.LVUS13:
 3327 0091 01       		.uleb128 .LVU67
 3328 0092 00       		.uleb128 .LVU70
 3329              	.LLST13:
 3330 0093 08       		.byte	0x8
 3331 0094 4C000000 		.4byte	.LVL5
 3332 0098 04       		.uleb128 .LVL6-.LVL5
 3333 0099 04       		.uleb128 0x4
 3334 009a 74       		.byte	0x74
 3335 009b E401     		.sleb128 228
 3336 009d 9F       		.byte	0x9f
 3337 009e 00       		.byte	0
 3338              	.LVUS16:
 3339 009f 01       		.uleb128 .LVU83
 3340 00a0 00       		.uleb128 .LVU93
 3341              	.LLST16:
 3342 00a1 08       		.byte	0x8
 3343 00a2 7C000000 		.4byte	.LVL9
 3344 00a6 0A       		.uleb128 .LVL10-.LVL9
 3345 00a7 01       		.uleb128 0x1
 3346 00a8 53       		.byte	0x53
 3347 00a9 00       		.byte	0
 3348              	.LVUS17:
 3349 00aa 01       		.uleb128 .LVU83
 3350 00ab 00       		.uleb128 .LVU93
 3351              	.LLST17:
 3352 00ac 08       		.byte	0x8
 3353 00ad 7C000000 		.4byte	.LVL9
 3354 00b1 0A       		.uleb128 .LVL10-.LVL9
 3355 00b2 01       		.uleb128 0x1
 3356 00b3 57       		.byte	0x57
 3357 00b4 00       		.byte	0
 3358              	.LVUS0:
 3359 00b5 01       		.uleb128 .LVU1
 3360 00b6 00       		.uleb128 0
 3361              	.LLST0:
ARM GAS  C:\Users\DEVELO~1\AppData\Local\Temp\ccgFRn8O.s 			page 60


 3362 00b7 08       		.byte	0x8
 3363 00b8 00000000 		.4byte	.LVL0
 3364 00bc 02       		.uleb128 .LFE352-.LVL0
 3365 00bd 01       		.uleb128 0x1
 3366 00be 50       		.byte	0x50
 3367 00bf 00       		.byte	0
 3368              	.Ldebug_loc3:
 3369              		.section	.debug_aranges,"",%progbits
 3370 0000 24000000 		.4byte	0x24
 3371 0004 0200     		.2byte	0x2
 3372 0006 00000000 		.4byte	.Ldebug_info0
 3373 000a 04       		.byte	0x4
 3374 000b 00       		.byte	0
 3375 000c 0000     		.2byte	0
 3376 000e 0000     		.2byte	0
 3377 0010 00000000 		.4byte	.LFB352
 3378 0014 02000000 		.4byte	.LFE352-.LFB352
 3379 0018 00000000 		.4byte	.LFB353
 3380 001c BC000000 		.4byte	.LFE353-.LFB353
 3381 0020 00000000 		.4byte	0
 3382 0024 00000000 		.4byte	0
 3383              		.section	.debug_rnglists,"",%progbits
 3384              	.Ldebug_ranges0:
 3385 0000 91000000 		.4byte	.Ldebug_ranges3-.Ldebug_ranges2
 3386              	.Ldebug_ranges2:
 3387 0004 0500     		.2byte	0x5
 3388 0006 04       		.byte	0x4
 3389 0007 00       		.byte	0
 3390 0008 00000000 		.4byte	0
 3391              	.LLRL3:
 3392 000c 05       		.byte	0x5
 3393 000d 10000000 		.4byte	.LBB49
 3394 0011 04       		.byte	0x4
 3395 0012 00       		.uleb128 .LBB49-.LBB49
 3396 0013 04       		.uleb128 .LBE49-.LBB49
 3397 0014 04       		.byte	0x4
 3398 0015 20       		.uleb128 .LBB77-.LBB49
 3399 0016 24       		.uleb128 .LBE77-.LBB49
 3400 0017 04       		.byte	0x4
 3401 0018 2A       		.uleb128 .LBB80-.LBB49
 3402 0019 2A       		.uleb128 .LBE80-.LBB49
 3403 001a 00       		.byte	0
 3404              	.LLRL5:
 3405 001b 05       		.byte	0x5
 3406 001c 30000000 		.4byte	.LBB51
 3407 0020 04       		.byte	0x4
 3408 0021 00       		.uleb128 .LBB51-.LBB51
 3409 0022 04       		.uleb128 .LBE51-.LBB51
 3410 0023 04       		.byte	0x4
 3411 0024 0A       		.uleb128 .LBB54-.LBB51
 3412 0025 0A       		.uleb128 .LBE54-.LBB51
 3413 0026 00       		.byte	0
 3414              	.LLRL7:
 3415 0027 05       		.byte	0x5
 3416 0028 1A000000 		.4byte	.LBB57
 3417 002c 04       		.byte	0x4
 3418 002d 00       		.uleb128 .LBB57-.LBB57
ARM GAS  C:\Users\DEVELO~1\AppData\Local\Temp\ccgFRn8O.s 			page 61


 3419 002e 00       		.uleb128 .LBE57-.LBB57
 3420 002f 04       		.byte	0x4
 3421 0030 04       		.uleb128 .LBB61-.LBB57
 3422 0031 06       		.uleb128 .LBE61-.LBB57
 3423 0032 04       		.byte	0x4
 3424 0033 1C       		.uleb128 .LBB79-.LBB57
 3425 0034 20       		.uleb128 .LBE79-.LBB57
 3426 0035 00       		.byte	0
 3427              	.LLRL9:
 3428 0036 05       		.byte	0x5
 3429 0037 20000000 		.4byte	.LBB62
 3430 003b 04       		.byte	0x4
 3431 003c 00       		.uleb128 .LBB62-.LBB62
 3432 003d 02       		.uleb128 .LBE62-.LBB62
 3433 003e 04       		.byte	0x4
 3434 003f 1A       		.uleb128 .LBB81-.LBB62
 3435 0040 1A       		.uleb128 .LBE81-.LBB62
 3436 0041 00       		.byte	0
 3437              	.LLRL11:
 3438 0042 05       		.byte	0x5
 3439 0043 22000000 		.4byte	.LBB65
 3440 0047 04       		.byte	0x4
 3441 0048 00       		.uleb128 .LBB65-.LBB65
 3442 0049 0E       		.uleb128 .LBE65-.LBB65
 3443 004a 04       		.byte	0x4
 3444 004b 12       		.uleb128 .LBB78-.LBB65
 3445 004c 14       		.uleb128 .LBE78-.LBB65
 3446 004d 04       		.byte	0x4
 3447 004e 18       		.uleb128 .LBB82-.LBB65
 3448 004f 20       		.uleb128 .LBE82-.LBB65
 3449 0050 04       		.byte	0x4
 3450 0051 24       		.uleb128 .LBB83-.LBB65
 3451 0052 2A       		.uleb128 .LBE83-.LBB65
 3452 0053 00       		.byte	0
 3453              	.LLRL12:
 3454 0054 05       		.byte	0x5
 3455 0055 24000000 		.4byte	.LBB67
 3456 0059 04       		.byte	0x4
 3457 005a 00       		.uleb128 .LBB67-.LBB67
 3458 005b 0A       		.uleb128 .LBE67-.LBB67
 3459 005c 04       		.byte	0x4
 3460 005d 16       		.uleb128 .LBB70-.LBB67
 3461 005e 16       		.uleb128 .LBE70-.LBB67
 3462 005f 00       		.byte	0
 3463              	.LLRL14:
 3464 0060 05       		.byte	0x5
 3465 0061 54000000 		.4byte	.LBB86
 3466 0065 04       		.byte	0x4
 3467 0066 00       		.uleb128 .LBB86-.LBB86
 3468 0067 20       		.uleb128 .LBE86-.LBB86
 3469 0068 04       		.byte	0x4
 3470 0069 26       		.uleb128 .LBB91-.LBB86
 3471 006a 28       		.uleb128 .LBE91-.LBB86
 3472 006b 00       		.byte	0
 3473              	.LLRL15:
 3474 006c 05       		.byte	0x5
 3475 006d 74000000 		.4byte	.LBB87
ARM GAS  C:\Users\DEVELO~1\AppData\Local\Temp\ccgFRn8O.s 			page 62


 3476 0071 04       		.byte	0x4
 3477 0072 00       		.uleb128 .LBB87-.LBB87
 3478 0073 02       		.uleb128 .LBE87-.LBB87
 3479 0074 04       		.byte	0x4
 3480 0075 08       		.uleb128 .LBB92-.LBB87
 3481 0076 08       		.uleb128 .LBE92-.LBB87
 3482 0077 04       		.byte	0x4
 3483 0078 0A       		.uleb128 .LBB94-.LBB87
 3484 0079 12       		.uleb128 .LBE94-.LBB87
 3485 007a 00       		.byte	0
 3486              	.LLRL18:
 3487 007b 05       		.byte	0x5
 3488 007c 7C000000 		.4byte	.LBB93
 3489 0080 04       		.byte	0x4
 3490 0081 00       		.uleb128 .LBB93-.LBB93
 3491 0082 02       		.uleb128 .LBE93-.LBB93
 3492 0083 04       		.byte	0x4
 3493 0084 0E       		.uleb128 .LBB95-.LBB93
 3494 0085 2C       		.uleb128 .LBE95-.LBB93
 3495 0086 00       		.byte	0
 3496              	.LLRL19:
 3497 0087 07       		.byte	0x7
 3498 0088 00000000 		.4byte	.LFB352
 3499 008c 02       		.uleb128 .LFE352-.LFB352
 3500 008d 07       		.byte	0x7
 3501 008e 00000000 		.4byte	.LFB353
 3502 0092 BC01     		.uleb128 .LFE353-.LFB353
 3503 0094 00       		.byte	0
 3504              	.Ldebug_ranges3:
 3505              		.section	.debug_line,"",%progbits
 3506              	.Ldebug_line0:
 3507 0000 71040000 		.section	.debug_str,"MS",%progbits,1
 3507      03006102 
 3507      00000201 
 3507      FB0E0D00 
 3507      01010101 
 3508              	.LASF169:
 3509 0000 6368496E 		.ascii	"chInstanceObjectInit\000"
 3509      7374616E 
 3509      63654F62 
 3509      6A656374 
 3509      496E6974 
 3510              	.LASF138:
 3511 0015 7466756E 		.ascii	"tfunc_t\000"
 3511      635F7400 
 3512              	.LASF128:
 3513 001d 72656164 		.ascii	"ready_list_t\000"
 3513      795F6C69 
 3513      73745F74 
 3513      00
 3514              	.LASF119:
 3515 002a 77747472 		.ascii	"wttrp\000"
 3515      7000
 3516              	.LASF117:
 3517 0030 7264796D 		.ascii	"rdymsg\000"
 3517      736700
 3518              	.LASF141:
ARM GAS  C:\Users\DEVELO~1\AppData\Local\Temp\ccgFRn8O.s 			page 63


 3519 0037 66756E63 		.ascii	"funcp\000"
 3519      7000
 3520              	.LASF55:
 3521 003d 72666375 		.ascii	"rfcu\000"
 3521      00
 3522              	.LASF6:
 3523 0042 5F5F7569 		.ascii	"__uint8_t\000"
 3523      6E74385F 
 3523      7400
 3524              	.LASF90:
 3525 004c 70726576 		.ascii	"prev\000"
 3525      00
 3526              	.LASF83:
 3527 0051 706F7274 		.ascii	"port_intctx\000"
 3527      5F696E74 
 3527      63747800 
 3528              	.LASF52:
 3529 005d 76746C69 		.ascii	"vtlist\000"
 3529      737400
 3530              	.LASF75:
 3531 0064 74797065 		.ascii	"type\000"
 3531      00
 3532              	.LASF142:
 3533 0069 74687265 		.ascii	"thread_descriptor_t\000"
 3533      61645F64 
 3533      65736372 
 3533      6970746F 
 3533      725F7400 
 3534              	.LASF10:
 3535 007d 6C6F6E67 		.ascii	"long int\000"
 3535      20696E74 
 3535      00
 3536              	.LASF78:
 3537 0086 74726163 		.ascii	"trace_event_t\000"
 3537      655F6576 
 3537      656E745F 
 3537      7400
 3538              	.LASF134:
 3539 0094 6F735F69 		.ascii	"os_instance_config_t\000"
 3539      6E737461 
 3539      6E63655F 
 3539      636F6E66 
 3539      69675F74 
 3540              	.LASF140:
 3541 00a9 77656E64 		.ascii	"wend\000"
 3541      00
 3542              	.LASF73:
 3543 00ae 68616C74 		.ascii	"halt\000"
 3543      00
 3544              	.LASF41:
 3545 00b3 64697370 		.ascii	"dispose\000"
 3545      6F736500 
 3546              	.LASF101:
 3547 00bb 63685F73 		.ascii	"ch_sys_running\000"
 3547      79735F72 
 3547      756E6E69 
 3547      6E6700
ARM GAS  C:\Users\DEVELO~1\AppData\Local\Temp\ccgFRn8O.s 			page 64


 3548              	.LASF21:
 3549 00ca 706F7274 		.ascii	"port_stkline_t\000"
 3549      5F73746B 
 3549      6C696E65 
 3549      5F7400
 3550              	.LASF118:
 3551 00d9 65786974 		.ascii	"exitcode\000"
 3551      636F6465 
 3551      00
 3552              	.LASF58:
 3553 00e2 6D61696E 		.ascii	"mainthread\000"
 3553      74687265 
 3553      616400
 3554              	.LASF120:
 3555 00ed 73656E74 		.ascii	"sentmsg\000"
 3555      6D736700 
 3556              	.LASF96:
 3557 00f5 64656C74 		.ascii	"delta\000"
 3557      6100
 3558              	.LASF87:
 3559 00fb 6E657874 		.ascii	"next\000"
 3559      00
 3560              	.LASF42:
 3561 0100 6F626A65 		.ascii	"object\000"
 3561      637400
 3562              	.LASF131:
 3563 0107 63737461 		.ascii	"cstack_end\000"
 3563      636B5F65 
 3563      6E6400
 3564              	.LASF1:
 3565 0112 6C6F6E67 		.ascii	"long long int\000"
 3565      206C6F6E 
 3565      6720696E 
 3565      7400
 3566              	.LASF3:
 3567 0120 7369676E 		.ascii	"signed char\000"
 3567      65642063 
 3567      68617200 
 3568              	.LASF95:
 3569 012c 63685F64 		.ascii	"ch_delta_list\000"
 3569      656C7461 
 3569      5F6C6973 
 3569      7400
 3570              	.LASF162:
 3571 013a 5F5F6462 		.ascii	"__dbg_object_init\000"
 3571      675F6F62 
 3571      6A656374 
 3571      5F696E69 
 3571      7400
 3572              	.LASF152:
 3573 014c 5F5F7265 		.ascii	"__reg_object_init\000"
 3573      675F6F62 
 3573      6A656374 
 3573      5F696E69 
 3573      7400
 3574              	.LASF36:
 3575 015e 73746174 		.ascii	"state\000"
ARM GAS  C:\Users\DEVELO~1\AppData\Local\Temp\ccgFRn8O.s 			page 65


 3575      6500
 3576              	.LASF23:
 3577 0164 73746B6C 		.ascii	"stkline_t\000"
 3577      696E655F 
 3577      7400
 3578              	.LASF25:
 3579 016e 74737461 		.ascii	"tstate_t\000"
 3579      74655F74 
 3579      00
 3580              	.LASF61:
 3581 0177 63685F72 		.ascii	"ch_rfcu\000"
 3581      66637500 
 3582              	.LASF69:
 3583 017f 73797369 		.ascii	"sysinterval_t\000"
 3583      6E746572 
 3583      76616C5F 
 3583      7400
 3584              	.LASF89:
 3585 018d 63685F71 		.ascii	"ch_queue\000"
 3585      75657565 
 3585      00
 3586              	.LASF16:
 3587 0196 75696E74 		.ascii	"uint16_t\000"
 3587      31365F74 
 3587      00
 3588              	.LASF14:
 3589 019f 6C6F6E67 		.ascii	"long long unsigned int\000"
 3589      206C6F6E 
 3589      6720756E 
 3589      7369676E 
 3589      65642069 
 3590              	.LASF82:
 3591 01b6 74726163 		.ascii	"trace_buffer_t\000"
 3591      655F6275 
 3591      66666572 
 3591      5F7400
 3592              	.LASF110:
 3593 01c5 63685F72 		.ascii	"ch_registry\000"
 3593      65676973 
 3593      74727900 
 3594              	.LASF154:
 3595 01d1 76746C70 		.ascii	"vtlp\000"
 3595      00
 3596              	.LASF147:
 3597 01d6 5F5F7472 		.ascii	"__trace_object_init\000"
 3597      6163655F 
 3597      6F626A65 
 3597      63745F69 
 3597      6E697400 
 3598              	.LASF70:
 3599 01ea 73797374 		.ascii	"systimestamp_t\000"
 3599      696D6573 
 3599      74616D70 
 3599      5F7400
 3600              	.LASF167:
 3601 01f9 433A5C43 		.ascii	"C:\\ChibiStudio\\chibios2111\\demos\\STM32\\RT-STM3"
 3601      68696269 
ARM GAS  C:\Users\DEVELO~1\AppData\Local\Temp\ccgFRn8O.s 			page 66


 3601      53747564 
 3601      696F5C63 
 3601      68696269 
 3602 0227 32483734 		.ascii	"2H743ZI_REV_XY-NUCLEO144 - Copie\000"
 3602      335A495F 
 3602      5245565F 
 3602      58592D4E 
 3602      55434C45 
 3603              	.LASF11:
 3604 0248 5F5F7569 		.ascii	"__uint32_t\000"
 3604      6E743332 
 3604      5F7400
 3605              	.LASF62:
 3606 0253 6D61736B 		.ascii	"mask\000"
 3606      00
 3607              	.LASF43:
 3608 0258 77616974 		.ascii	"waiting\000"
 3608      696E6700 
 3609              	.LASF132:
 3610 0260 69646C65 		.ascii	"idlestack_base\000"
 3610      73746163 
 3610      6B5F6261 
 3610      736500
 3611              	.LASF143:
 3612 026f 6D757465 		.ascii	"mutex_t\000"
 3612      785F7400 
 3613              	.LASF84:
 3614 0277 706F7274 		.ascii	"port_context\000"
 3614      5F636F6E 
 3614      74657874 
 3614      00
 3615              	.LASF166:
 3616 0284 2E2F4368 		.ascii	"./ChibiOS/os/rt/src/chinstances.c\000"
 3616      6962694F 
 3616      532F6F73 
 3616      2F72742F 
 3616      7372632F 
 3617              	.LASF30:
 3618 02a6 636E745F 		.ascii	"cnt_t\000"
 3618      7400
 3619              	.LASF160:
 3620 02ac 63685654 		.ascii	"chVTGetSystemTimeX\000"
 3620      47657453 
 3620      79737465 
 3620      6D54696D 
 3620      655800
 3621              	.LASF0:
 3622 02bf 756E7369 		.ascii	"unsigned int\000"
 3622      676E6564 
 3622      20696E74 
 3622      00
 3623              	.LASF163:
 3624 02cc 5F5F7266 		.ascii	"__rfcu_object_init\000"
 3624      63755F6F 
 3624      626A6563 
 3624      745F696E 
 3624      697400
ARM GAS  C:\Users\DEVELO~1\AppData\Local\Temp\ccgFRn8O.s 			page 67


 3625              	.LASF136:
 3626 02df 696E7374 		.ascii	"instances\000"
 3626      616E6365 
 3626      7300
 3627              	.LASF121:
 3628 02e9 77747365 		.ascii	"wtsemp\000"
 3628      6D7000
 3629              	.LASF56:
 3630 02f0 636F6E66 		.ascii	"config\000"
 3630      696700
 3631              	.LASF67:
 3632 02f7 73797374 		.ascii	"system_debug_t\000"
 3632      656D5F64 
 3632      65627567 
 3632      5F7400
 3633              	.LASF12:
 3634 0306 6C6F6E67 		.ascii	"long unsigned int\000"
 3634      20756E73 
 3634      69676E65 
 3634      6420696E 
 3634      7400
 3635              	.LASF40:
 3636 0318 72717565 		.ascii	"rqueue\000"
 3636      756500
 3637              	.LASF88:
 3638 031f 63685F71 		.ascii	"ch_queue_t\000"
 3638      75657565 
 3638      5F7400
 3639              	.LASF165:
 3640 032a 474E5520 		.ascii	"GNU C17 11.3.1 20220712 -mcpu=cortex-m7 -mthumb -mf"
 3640      43313720 
 3640      31312E33 
 3640      2E312032 
 3640      30323230 
 3641 035d 6C6F6174 		.ascii	"loat-abi=soft -march=armv7e-m -ggdb -O2 -fomit-fram"
 3641      2D616269 
 3641      3D736F66 
 3641      74202D6D 
 3641      61726368 
 3642 0390 652D706F 		.ascii	"e-pointer -falign-functions=16 -ffunction-sections "
 3642      696E7465 
 3642      72202D66 
 3642      616C6967 
 3642      6E2D6675 
 3643 03c3 2D666461 		.ascii	"-fdata-sections -fno-common\000"
 3643      74612D73 
 3643      65637469 
 3643      6F6E7320 
 3643      2D666E6F 
 3644              	.LASF39:
 3645 03df 6E616D65 		.ascii	"name\000"
 3645      00
 3646              	.LASF114:
 3647 03e4 74687265 		.ascii	"thread_dispose_t\000"
 3647      61645F64 
 3647      6973706F 
 3647      73655F74 
ARM GAS  C:\Users\DEVELO~1\AppData\Local\Temp\ccgFRn8O.s 			page 68


 3647      00
 3648              	.LASF111:
 3649 03f5 71756575 		.ascii	"queue\000"
 3649      6500
 3650              	.LASF54:
 3651 03fb 636F7265 		.ascii	"core_id\000"
 3651      5F696400 
 3652              	.LASF80:
 3653 0403 73697A65 		.ascii	"size\000"
 3653      00
 3654              	.LASF8:
 3655 0408 73686F72 		.ascii	"short unsigned int\000"
 3655      7420756E 
 3655      7369676E 
 3655      65642069 
 3655      6E7400
 3656              	.LASF148:
 3657 041b 706F7274 		.ascii	"port_init\000"
 3657      5F696E69 
 3657      7400
 3658              	.LASF49:
 3659 0425 63685F74 		.ascii	"ch_thread\000"
 3659      68726561 
 3659      6400
 3660              	.LASF28:
 3661 042f 6D73675F 		.ascii	"msg_t\000"
 3661      7400
 3662              	.LASF45:
 3663 0435 6570656E 		.ascii	"epending\000"
 3663      64696E67 
 3663      00
 3664              	.LASF137:
 3665 043e 63685F73 		.ascii	"ch_system_t\000"
 3665      79737465 
 3665      6D5F7400 
 3666              	.LASF172:
 3667 044a 706F7274 		.ascii	"port_wait_for_interrupt\000"
 3667      5F776169 
 3667      745F666F 
 3667      725F696E 
 3667      74657272 
 3668              	.LASF24:
 3669 0462 746D6F64 		.ascii	"tmode_t\000"
 3669      655F7400 
 3670              	.LASF86:
 3671 046a 63685F6C 		.ascii	"ch_list\000"
 3671      69737400 
 3672              	.LASF126:
 3673 0472 63685F72 		.ascii	"ch_ready_list\000"
 3673      65616479 
 3673      5F6C6973 
 3673      7400
 3674              	.LASF29:
 3675 0480 6576656E 		.ascii	"eventmask_t\000"
 3675      746D6173 
 3675      6B5F7400 
 3676              	.LASF9:
ARM GAS  C:\Users\DEVELO~1\AppData\Local\Temp\ccgFRn8O.s 			page 69


 3677 048c 5F5F696E 		.ascii	"__int32_t\000"
 3677      7433325F 
 3677      7400
 3678              	.LASF109:
 3679 0496 76697274 		.ascii	"virtual_timers_list_t\000"
 3679      75616C5F 
 3679      74696D65 
 3679      72735F6C 
 3679      6973745F 
 3680              	.LASF44:
 3681 04ac 6D736771 		.ascii	"msgqueue\000"
 3681      75657565 
 3681      00
 3682              	.LASF76:
 3683 04b5 72747374 		.ascii	"rtstamp\000"
 3683      616D7000 
 3684              	.LASF108:
 3685 04bd 6C617374 		.ascii	"laststamp\000"
 3685      7374616D 
 3685      7000
 3686              	.LASF35:
 3687 04c7 7761656E 		.ascii	"waend\000"
 3687      6400
 3688              	.LASF47:
 3689 04cd 7265616C 		.ascii	"realprio\000"
 3689      7072696F 
 3689      00
 3690              	.LASF60:
 3691 04d6 72666375 		.ascii	"rfcu_mask_t\000"
 3691      5F6D6173 
 3691      6B5F7400 
 3692              	.LASF22:
 3693 04e2 7274636E 		.ascii	"rtcnt_t\000"
 3693      745F7400 
 3694              	.LASF113:
 3695 04ea 74687265 		.ascii	"thread_reference_t\000"
 3695      61645F72 
 3695      65666572 
 3695      656E6365 
 3695      5F7400
 3696              	.LASF104:
 3697 04fd 63685F76 		.ascii	"ch_virtual_timers_list\000"
 3697      69727475 
 3697      616C5F74 
 3697      696D6572 
 3697      735F6C69 
 3698              	.LASF149:
 3699 0514 6F696370 		.ascii	"oicp\000"
 3699      00
 3700              	.LASF79:
 3701 0519 73757370 		.ascii	"suspended\000"
 3701      656E6465 
 3701      6400
 3702              	.LASF130:
 3703 0523 63737461 		.ascii	"cstack_base\000"
 3703      636B5F62 
 3703      61736500 
ARM GAS  C:\Users\DEVELO~1\AppData\Local\Temp\ccgFRn8O.s 			page 70


 3704              	.LASF20:
 3705 052f 706F7274 		.ascii	"port_rtcnt_t\000"
 3705      5F727463 
 3705      6E745F74 
 3705      00
 3706              	.LASF19:
 3707 053c 75696E74 		.ascii	"uint64_t\000"
 3707      36345F74 
 3707      00
 3708              	.LASF129:
 3709 0545 63685F6F 		.ascii	"ch_os_instance_config\000"
 3709      735F696E 
 3709      7374616E 
 3709      63655F63 
 3709      6F6E6669 
 3710              	.LASF139:
 3711 055b 77626173 		.ascii	"wbase\000"
 3711      6500
 3712              	.LASF98:
 3713 0561 746D5F63 		.ascii	"tm_calibration_t\000"
 3713      616C6962 
 3713      72617469 
 3713      6F6E5F74 
 3713      00
 3714              	.LASF77:
 3715 0572 74696D65 		.ascii	"time\000"
 3715      00
 3716              	.LASF93:
 3717 0577 7072696F 		.ascii	"prio\000"
 3717      00
 3718              	.LASF133:
 3719 057c 69646C65 		.ascii	"idlestack_end\000"
 3719      73746163 
 3719      6B5F656E 
 3719      6400
 3720              	.LASF127:
 3721 058a 63757272 		.ascii	"current\000"
 3721      656E7400 
 3722              	.LASF13:
 3723 0592 5F5F7569 		.ascii	"__uint64_t\000"
 3723      6E743634 
 3723      5F7400
 3724              	.LASF107:
 3725 059d 6C617374 		.ascii	"lastdelta\000"
 3725      64656C74 
 3725      6100
 3726              	.LASF31:
 3727 05a7 636F7265 		.ascii	"core_id_t\000"
 3727      5F69645F 
 3727      7400
 3728              	.LASF26:
 3729 05b1 74726566 		.ascii	"trefs_t\000"
 3729      735F7400 
 3730              	.LASF38:
 3731 05b9 72656673 		.ascii	"refs\000"
 3731      00
 3732              	.LASF74:
ARM GAS  C:\Users\DEVELO~1\AppData\Local\Temp\ccgFRn8O.s 			page 71


 3733 05be 75736572 		.ascii	"user\000"
 3733      00
 3734              	.LASF27:
 3735 05c3 74707269 		.ascii	"tprio_t\000"
 3735      6F5F7400 
 3736              	.LASF64:
 3737 05cb 63685F73 		.ascii	"ch_system_debug\000"
 3737      79737465 
 3737      6D5F6465 
 3737      62756700 
 3738              	.LASF144:
 3739 05db 5F426F6F 		.ascii	"_Bool\000"
 3739      6C00
 3740              	.LASF17:
 3741 05e1 696E7433 		.ascii	"int32_t\000"
 3741      325F7400 
 3742              	.LASF4:
 3743 05e9 756E7369 		.ascii	"unsigned char\000"
 3743      676E6564 
 3743      20636861 
 3743      7200
 3744              	.LASF63:
 3745 05f7 72666375 		.ascii	"rfcu_t\000"
 3745      5F7400
 3746              	.LASF158:
 3747 05fe 63685F71 		.ascii	"ch_queue_insert\000"
 3747      75657565 
 3747      5F696E73 
 3747      65727400 
 3748              	.LASF5:
 3749 060e 73686F72 		.ascii	"short int\000"
 3749      7420696E 
 3749      7400
 3750              	.LASF106:
 3751 0618 6C617374 		.ascii	"lasttime\000"
 3751      74696D65 
 3751      00
 3752              	.LASF71:
 3753 0621 77746F62 		.ascii	"wtobjp\000"
 3753      6A7000
 3754              	.LASF123:
 3755 0628 65776D61 		.ascii	"ewmask\000"
 3755      736B00
 3756              	.LASF135:
 3757 062f 63685F73 		.ascii	"ch_system\000"
 3757      79737465 
 3757      6D00
 3758              	.LASF168:
 3759 0639 73744765 		.ascii	"stGetCounter\000"
 3759      74436F75 
 3759      6E746572 
 3759      00
 3760              	.LASF170:
 3761 0646 5F5F6675 		.ascii	"__func__\000"
 3761      6E635F5F 
 3761      00
 3762              	.LASF72:
ARM GAS  C:\Users\DEVELO~1\AppData\Local\Temp\ccgFRn8O.s 			page 72


 3763 064f 72656173 		.ascii	"reason\000"
 3763      6F6E00
 3764              	.LASF124:
 3765 0656 63685F73 		.ascii	"ch_semaphore\000"
 3765      656D6170 
 3765      686F7265 
 3765      00
 3766              	.LASF146:
 3767 0663 63685468 		.ascii	"chThdObjectInit\000"
 3767      644F626A 
 3767      65637449 
 3767      6E697400 
 3768              	.LASF112:
 3769 0673 72656769 		.ascii	"registry_t\000"
 3769      73747279 
 3769      5F7400
 3770              	.LASF18:
 3771 067e 75696E74 		.ascii	"uint32_t\000"
 3771      33325F74 
 3771      00
 3772              	.LASF122:
 3773 0687 77746D74 		.ascii	"wtmtxp\000"
 3773      787000
 3774              	.LASF33:
 3775 068e 6F776E65 		.ascii	"owner\000"
 3775      7200
 3776              	.LASF159:
 3777 0694 63685F71 		.ascii	"ch_queue_init\000"
 3777      75657565 
 3777      5F696E69 
 3777      7400
 3778              	.LASF2:
 3779 06a2 6C6F6E67 		.ascii	"long double\000"
 3779      20646F75 
 3779      626C6500 
 3780              	.LASF34:
 3781 06ae 77616261 		.ascii	"wabase\000"
 3781      736500
 3782              	.LASF66:
 3783 06b5 63686172 		.ascii	"char\000"
 3783      00
 3784              	.LASF150:
 3785 06ba 6D61696E 		.ascii	"main_thd_desc\000"
 3785      5F746864 
 3785      5F646573 
 3785      6300
 3786              	.LASF99:
 3787 06c8 63685F73 		.ascii	"ch_sys_uninit\000"
 3787      79735F75 
 3787      6E696E69 
 3787      7400
 3788              	.LASF171:
 3789 06d6 5F5F6964 		.ascii	"__idle_thread\000"
 3789      6C655F74 
 3789      68726561 
 3789      6400
 3790              	.LASF164:
ARM GAS  C:\Users\DEVELO~1\AppData\Local\Temp\ccgFRn8O.s 			page 73


 3791 06e4 72666375 		.ascii	"rfcup\000"
 3791      7000
 3792              	.LASF7:
 3793 06ea 5F5F7569 		.ascii	"__uint16_t\000"
 3793      6E743136 
 3793      5F7400
 3794              	.LASF32:
 3795 06f5 74687265 		.ascii	"thread_t\000"
 3795      61645F74 
 3795      00
 3796              	.LASF105:
 3797 06fe 646C6973 		.ascii	"dlist\000"
 3797      7400
 3798              	.LASF68:
 3799 0704 73797374 		.ascii	"systime_t\000"
 3799      696D655F 
 3799      7400
 3800              	.LASF81:
 3801 070e 62756666 		.ascii	"buffer\000"
 3801      657200
 3802              	.LASF91:
 3803 0715 63685F70 		.ascii	"ch_priority_queue_t\000"
 3803      72696F72 
 3803      6974795F 
 3803      71756575 
 3803      655F7400 
 3804              	.LASF65:
 3805 0729 70616E69 		.ascii	"panic_msg\000"
 3805      635F6D73 
 3805      6700
 3806              	.LASF116:
 3807 0733 70717565 		.ascii	"pqueue\000"
 3807      756500
 3808              	.LASF50:
 3809 073a 63685F6F 		.ascii	"ch_os_instance\000"
 3809      735F696E 
 3809      7374616E 
 3809      636500
 3810              	.LASF97:
 3811 0749 6F666673 		.ascii	"offset\000"
 3811      657400
 3812              	.LASF48:
 3813 0750 6F735F69 		.ascii	"os_instance_t\000"
 3813      6E737461 
 3813      6E63655F 
 3813      7400
 3814              	.LASF53:
 3815 075e 7265676C 		.ascii	"reglist\000"
 3815      69737400 
 3816              	.LASF102:
 3817 0766 63685F73 		.ascii	"ch_sys_halted\000"
 3817      79735F68 
 3817      616C7465 
 3817      6400
 3818              	.LASF92:
 3819 0774 63685F70 		.ascii	"ch_priority_queue\000"
 3819      72696F72 
ARM GAS  C:\Users\DEVELO~1\AppData\Local\Temp\ccgFRn8O.s 			page 74


 3819      6974795F 
 3819      71756575 
 3819      6500
 3820              	.LASF161:
 3821 0786 706F7274 		.ascii	"port_timer_get_time\000"
 3821      5F74696D 
 3821      65725F67 
 3821      65745F74 
 3821      696D6500 
 3822              	.LASF156:
 3823 079a 646C6870 		.ascii	"dlhp\000"
 3823      00
 3824              	.LASF94:
 3825 079f 63685F64 		.ascii	"ch_delta_list_t\000"
 3825      656C7461 
 3825      5F6C6973 
 3825      745F7400 
 3826              	.LASF100:
 3827 07af 63685F73 		.ascii	"ch_sys_initializing\000"
 3827      79735F69 
 3827      6E697469 
 3827      616C697A 
 3827      696E6700 
 3828              	.LASF157:
 3829 07c3 63685F70 		.ascii	"ch_pqueue_init\000"
 3829      71756575 
 3829      655F696E 
 3829      697400
 3830              	.LASF151:
 3831 07d2 69646C65 		.ascii	"idle_thd_desc\000"
 3831      5F746864 
 3831      5F646573 
 3831      6300
 3832              	.LASF153:
 3833 07e0 5F5F7674 		.ascii	"__vt_object_init\000"
 3833      5F6F626A 
 3833      6563745F 
 3833      696E6974 
 3833      00
 3834              	.LASF51:
 3835 07f1 726C6973 		.ascii	"rlist\000"
 3835      7400
 3836              	.LASF85:
 3837 07f7 63685F6C 		.ascii	"ch_list_t\000"
 3837      6973745F 
 3837      7400
 3838              	.LASF15:
 3839 0801 75696E74 		.ascii	"uint8_t\000"
 3839      385F7400 
 3840              	.LASF37:
 3841 0809 666C6167 		.ascii	"flags\000"
 3841      7300
 3842              	.LASF145:
 3843 080f 63685468 		.ascii	"chThdSpawnRunningI\000"
 3843      64537061 
 3843      776E5275 
 3843      6E6E696E 
ARM GAS  C:\Users\DEVELO~1\AppData\Local\Temp\ccgFRn8O.s 			page 75


 3843      674900
 3844              	.LASF125:
 3845 0822 63685F6D 		.ascii	"ch_mutex\000"
 3845      75746578 
 3845      00
 3846              	.LASF59:
 3847 082b 74726163 		.ascii	"trace_buffer\000"
 3847      655F6275 
 3847      66666572 
 3847      00
 3848              	.LASF155:
 3849 0838 63685F64 		.ascii	"ch_dlist_init\000"
 3849      6C697374 
 3849      5F696E69 
 3849      7400
 3850              	.LASF115:
 3851 0846 6C697374 		.ascii	"list\000"
 3851      00
 3852              	.LASF103:
 3853 084b 73797374 		.ascii	"system_state_t\000"
 3853      656D5F73 
 3853      74617465 
 3853      5F7400
 3854              	.LASF46:
 3855 085a 6D74786C 		.ascii	"mtxlist\000"
 3855      69737400 
 3856              	.LASF57:
 3857 0862 69646C65 		.ascii	"idlethread\000"
 3857      74687265 
 3857      616400
 3858              		.ident	"GCC: (Arm GNU Toolchain 11.3.Rel1) 11.3.1 20220712"
ARM GAS  C:\Users\DEVELO~1\AppData\Local\Temp\ccgFRn8O.s 			page 76


DEFINED SYMBOLS
                            *ABS*:00000000 chinstances.c
C:\Users\DEVELO~1\AppData\Local\Temp\ccgFRn8O.s:18     .text.__idle_thread:00000000 $t
C:\Users\DEVELO~1\AppData\Local\Temp\ccgFRn8O.s:24     .text.__idle_thread:00000000 __idle_thread
C:\Users\DEVELO~1\AppData\Local\Temp\ccgFRn8O.s:43     .rodata.chInstanceObjectInit.str1.4:00000000 $d
C:\Users\DEVELO~1\AppData\Local\Temp\ccgFRn8O.s:50     .text.chInstanceObjectInit:00000000 $t
C:\Users\DEVELO~1\AppData\Local\Temp\ccgFRn8O.s:57     .text.chInstanceObjectInit:00000000 chInstanceObjectInit
C:\Users\DEVELO~1\AppData\Local\Temp\ccgFRn8O.s:367    .text.chInstanceObjectInit:000000ac $d

UNDEFINED SYMBOLS
port_init
stGetCounter
__trace_object_init
chThdObjectInit
chThdSpawnRunningI
ch_system
