ARM GAS  C:\Users\DEVELO~1\AppData\Local\Temp\ccVHpTqR.s 			page 1


   1              		.cpu cortex-m7
   2              		.arch armv7e-m
   3              		.fpu softvfp
   4              		.eabi_attribute 20, 1
   5              		.eabi_attribute 21, 1
   6              		.eabi_attribute 23, 3
   7              		.eabi_attribute 24, 1
   8              		.eabi_attribute 25, 1
   9              		.eabi_attribute 26, 1
  10              		.eabi_attribute 30, 2
  11              		.eabi_attribute 34, 1
  12              		.eabi_attribute 18, 4
  13              		.file	"chmemheaps.c"
  14              		.text
  15              	.Ltext0:
  16              		.cfi_sections	.debug_frame
  17              		.section	.text.__heap_init,"ax",%progbits
  18              		.align	1
  19              		.p2align 4,,15
  20              		.global	__heap_init
  21              		.syntax unified
  22              		.thumb
  23              		.thumb_func
  24              		.type	__heap_init, %function
  25              	__heap_init:
  26              	.LFB352:
  27              		.file 1 "./ChibiOS/os/oslib/src/chmemheaps.c"
  28              		.loc 1 111 24 view -0
  29              		.cfi_startproc
  30              		@ args = 0, pretend = 0, frame = 0
  31              		@ frame_needed = 0, uses_anonymous_args = 0
  32              		.loc 1 113 3 view .LVU1
  33              		.loc 1 111 24 is_stmt 0 view .LVU2
  34 0000 10B5     		push	{r4, lr}
  35              		.cfi_def_cfa_offset 8
  36              		.cfi_offset 4, -8
  37              		.cfi_offset 14, -4
  38              		.loc 1 113 25 view .LVU3
  39 0002 084C     		ldr	r4, .L4
  40 0004 084B     		ldr	r3, .L4+4
  41 0006 2046     		mov	r0, r4
  42 0008 40F8043B 		str	r3, [r0], #4
  43              		.loc 1 114 3 is_stmt 1 view .LVU4
  44 000c FFF7FEFF 		bl	chCoreGetStatusX
  45              	.LVL0:
  46              		.loc 1 115 3 view .LVU5
  47              		.loc 1 115 37 is_stmt 0 view .LVU6
  48 0010 0023     		movs	r3, #0
  49              		.loc 1 118 3 view .LVU7
  50 0012 04F11400 		add	r0, r4, #20
  51              		.loc 1 116 38 view .LVU8
  52 0016 C4E90333 		strd	r3, r3, [r4, #12]
  53              		.loc 1 118 3 is_stmt 1 view .LVU9
  54              		.loc 1 122 1 is_stmt 0 view .LVU10
  55 001a BDE81040 		pop	{r4, lr}
  56              		.cfi_restore 14
  57              		.cfi_restore 4
ARM GAS  C:\Users\DEVELO~1\AppData\Local\Temp\ccVHpTqR.s 			page 2


  58              		.cfi_def_cfa_offset 0
  59              		.loc 1 118 3 view .LVU11
  60 001e FFF7FEBF 		b	chMtxObjectInit
  61              	.LVL1:
  62              	.L5:
  63 0022 00BF     		.align	2
  64              	.L4:
  65 0024 00000000 		.word	.LANCHOR0
  66 0028 00000000 		.word	chCoreAllocFromTop
  67              		.cfi_endproc
  68              	.LFE352:
  69              		.size	__heap_init, .-__heap_init
  70              		.section	.text.chHeapObjectInit,"ax",%progbits
  71              		.align	1
  72              		.p2align 4,,15
  73              		.global	chHeapObjectInit
  74              		.syntax unified
  75              		.thumb
  76              		.thumb_func
  77              		.type	chHeapObjectInit, %function
  78              	chHeapObjectInit:
  79              	.LVL2:
  80              	.LFB353:
  81              		.loc 1 136 69 is_stmt 1 view -0
  82              		.cfi_startproc
  83              		@ args = 0, pretend = 0, frame = 0
  84              		@ frame_needed = 0, uses_anonymous_args = 0
  85              		.loc 1 137 3 view .LVU13
  86              		.loc 1 136 69 is_stmt 0 view .LVU14
  87 0000 F8B5     		push	{r3, r4, r5, r6, r7, lr}
  88              		.cfi_def_cfa_offset 24
  89              		.cfi_offset 3, -24
  90              		.cfi_offset 4, -20
  91              		.cfi_offset 5, -16
  92              		.cfi_offset 6, -12
  93              		.cfi_offset 7, -8
  94              		.cfi_offset 14, -4
  95              		.loc 1 137 40 view .LVU15
  96 0002 CE1D     		adds	r6, r1, #7
  97              		.loc 1 136 69 view .LVU16
  98 0004 0446     		mov	r4, r0
  99              		.loc 1 137 40 view .LVU17
 100 0006 26F00706 		bic	r6, r6, #7
 101              	.LVL3:
 102              		.loc 1 138 3 is_stmt 1 view .LVU18
 103              		.loc 1 139 3 view .LVU19
 104              		.loc 1 141 3 view .LVU20
 105              		.loc 1 141 3 view .LVU21
 106              		.loc 1 141 3 view .LVU22
 107              		.loc 1 146 3 view .LVU23
 108              		.loc 1 146 36 is_stmt 0 view .LVU24
 109 000a 711A     		subs	r1, r6, r1
 110              	.LVL4:
 111              		.loc 1 147 3 is_stmt 1 view .LVU25
 112              		.loc 1 147 6 is_stmt 0 view .LVU26
 113 000c 9142     		cmp	r1, r2
 114 000e 0AD3     		bcc	.L7
ARM GAS  C:\Users\DEVELO~1\AppData\Local\Temp\ccVHpTqR.s 			page 3


 115              	.LVL5:
 116              		.loc 1 156 3 is_stmt 1 view .LVU27
 117              		.loc 1 156 19 is_stmt 0 view .LVU28
 118 0010 0023     		movs	r3, #0
 119              		.loc 1 162 3 view .LVU29
 120 0012 1430     		adds	r0, r0, #20
 121              	.LVL6:
 122              		.loc 1 156 19 view .LVU30
 123 0014 2360     		str	r3, [r4]
 124              		.loc 1 157 3 is_stmt 1 view .LVU31
 125              		.loc 1 158 32 is_stmt 0 view .LVU32
 126 0016 C4E90333 		strd	r3, r3, [r4, #12]
 127              		.loc 1 159 3 is_stmt 1 view .LVU33
 128              		.loc 1 160 20 is_stmt 0 view .LVU34
 129 001a C4E90133 		strd	r3, r3, [r4, #4]
 130              		.loc 1 162 3 is_stmt 1 view .LVU35
 131              		.loc 1 185 1 is_stmt 0 view .LVU36
 132 001e BDE8F840 		pop	{r3, r4, r5, r6, r7, lr}
 133              		.cfi_remember_state
 134              		.cfi_restore 14
 135              		.cfi_restore 7
 136              		.cfi_restore 6
 137              		.cfi_restore 5
 138              		.cfi_restore 4
 139              		.cfi_restore 3
 140              		.cfi_def_cfa_offset 0
 141              	.LVL7:
 142              		.loc 1 162 3 view .LVU37
 143 0022 FFF7FEBF 		b	chMtxObjectInit
 144              	.LVL8:
 145              	.L7:
 146              		.cfi_restore_state
 147              		.loc 1 151 5 is_stmt 1 view .LVU38
 148              		.loc 1 156 19 is_stmt 0 view .LVU39
 149 0026 0027     		movs	r7, #0
 150              		.loc 1 151 13 view .LVU40
 151 0028 551A     		subs	r5, r2, r1
 152              	.LVL9:
 153              		.loc 1 156 3 is_stmt 1 view .LVU41
 154              		.loc 1 156 19 is_stmt 0 view .LVU42
 155 002a 0760     		str	r7, [r0]
 156              		.loc 1 157 3 is_stmt 1 view .LVU43
 157              		.loc 1 158 32 is_stmt 0 view .LVU44
 158 002c C0E90377 		strd	r7, r7, [r0, #12]
 159              		.loc 1 159 3 is_stmt 1 view .LVU45
 160              		.loc 1 160 20 is_stmt 0 view .LVU46
 161 0030 C0E90177 		strd	r7, r7, [r0, #4]
 162              		.loc 1 162 3 is_stmt 1 view .LVU47
 163 0034 1430     		adds	r0, r0, #20
 164              	.LVL10:
 165              		.loc 1 162 3 is_stmt 0 view .LVU48
 166 0036 FFF7FEFF 		bl	chMtxObjectInit
 167              	.LVL11:
 168              		.loc 1 168 3 is_stmt 1 view .LVU49
 169              		.loc 1 168 6 is_stmt 0 view .LVU50
 170 003a 082D     		cmp	r5, #8
 171 003c 0BD9     		bls	.L6
ARM GAS  C:\Users\DEVELO~1\AppData\Local\Temp\ccVHpTqR.s 			page 4


 172              		.loc 1 173 3 is_stmt 1 view .LVU51
 173              		.loc 1 173 11 is_stmt 0 view .LVU52
 174 003e A5F10802 		sub	r2, r5, #8
 175              	.LVL12:
 176              		.loc 1 174 3 is_stmt 1 view .LVU53
 177              		.loc 1 175 3 view .LVU54
 178              		.loc 1 175 6 is_stmt 0 view .LVU55
 179 0042 072A     		cmp	r2, #7
 180 0044 07D9     		bls	.L6
 181              		.loc 1 174 9 view .LVU56
 182 0046 D208     		lsrs	r2, r2, #3
 183              	.LVL13:
 184              		.loc 1 180 3 is_stmt 1 view .LVU57
 185              		.loc 1 180 20 is_stmt 0 view .LVU58
 186 0048 6660     		str	r6, [r4, #4]
 187              		.loc 1 181 3 is_stmt 1 view .LVU59
 188              		.loc 1 181 31 is_stmt 0 view .LVU60
 189 004a E660     		str	r6, [r4, #12]
 190              		.loc 1 182 3 is_stmt 1 view .LVU61
 191              		.loc 1 184 22 is_stmt 0 view .LVU62
 192 004c 531C     		adds	r3, r2, #1
 193              		.loc 1 182 19 view .LVU63
 194 004e 3760     		str	r7, [r6]
 195              		.loc 1 183 3 is_stmt 1 view .LVU64
 196              		.loc 1 183 20 is_stmt 0 view .LVU65
 197 0050 7260     		str	r2, [r6, #4]
 198              		.loc 1 184 3 is_stmt 1 view .LVU66
 199              		.loc 1 184 22 is_stmt 0 view .LVU67
 200 0052 DB00     		lsls	r3, r3, #3
 201              		.loc 1 184 20 view .LVU68
 202 0054 A360     		str	r3, [r4, #8]
 203              	.LVL14:
 204              	.L6:
 205              		.loc 1 185 1 view .LVU69
 206 0056 F8BD     		pop	{r3, r4, r5, r6, r7, pc}
 207              		.loc 1 185 1 view .LVU70
 208              		.cfi_endproc
 209              	.LFE353:
 210              		.size	chHeapObjectInit, .-chHeapObjectInit
 211              		.section	.text.chHeapObjectDispose,"ax",%progbits
 212              		.align	1
 213              		.p2align 4,,15
 214              		.global	chHeapObjectDispose
 215              		.syntax unified
 216              		.thumb
 217              		.thumb_func
 218              		.type	chHeapObjectDispose, %function
 219              	chHeapObjectDispose:
 220              	.LVL15:
 221              	.LFB354:
 222              		.loc 1 202 48 is_stmt 1 view -0
 223              		.cfi_startproc
 224              		@ args = 0, pretend = 0, frame = 0
 225              		@ frame_needed = 0, uses_anonymous_args = 0
 226              		@ link register save eliminated.
 227              		.loc 1 204 3 view .LVU72
 228              		.loc 1 204 3 view .LVU73
ARM GAS  C:\Users\DEVELO~1\AppData\Local\Temp\ccVHpTqR.s 			page 5


 229              		.loc 1 204 3 view .LVU74
 230              		.loc 1 209 1 is_stmt 0 view .LVU75
 231 0000 7047     		bx	lr
 232              		.cfi_endproc
 233              	.LFE354:
 234              		.size	chHeapObjectDispose, .-chHeapObjectDispose
 235 0002 00BF     		.section	.text.chHeapAllocAligned,"ax",%progbits
 236              		.align	1
 237              		.p2align 4,,15
 238              		.global	chHeapAllocAligned
 239              		.syntax unified
 240              		.thumb
 241              		.thumb_func
 242              		.type	chHeapAllocAligned, %function
 243              	chHeapAllocAligned:
 244              	.LVL16:
 245              	.LFB355:
 246              		.loc 1 228 77 is_stmt 1 view -0
 247              		.cfi_startproc
 248              		@ args = 0, pretend = 0, frame = 8
 249              		@ frame_needed = 0, uses_anonymous_args = 0
 250              		.loc 1 229 3 view .LVU77
 251              		.loc 1 230 3 view .LVU78
 252              		.loc 1 232 3 view .LVU79
 253              		.loc 1 232 3 view .LVU80
 254              		.loc 1 232 3 view .LVU81
 255              		.loc 1 235 3 view .LVU82
 256              		.loc 1 236 11 is_stmt 0 view .LVU83
 257 0000 0028     		cmp	r0, #0
 258 0002 434B     		ldr	r3, .L32
 259              		.loc 1 228 77 view .LVU84
 260 0004 2DE9F04F 		push	{r4, r5, r6, r7, r8, r9, r10, fp, lr}
 261              		.cfi_def_cfa_offset 36
 262              		.cfi_offset 4, -36
 263              		.cfi_offset 5, -32
 264              		.cfi_offset 6, -28
 265              		.cfi_offset 7, -24
 266              		.cfi_offset 8, -20
 267              		.cfi_offset 9, -16
 268              		.cfi_offset 10, -12
 269              		.cfi_offset 11, -8
 270              		.cfi_offset 14, -4
 271              		.loc 1 235 6 view .LVU85
 272 0008 8046     		mov	r8, r0
 273              		.loc 1 236 11 view .LVU86
 274 000a 14BF     		ite	ne
 275 000c 8046     		movne	r8, r0
 276 000e 9846     		moveq	r8, r3
 277              	.LVL17:
 278              		.loc 1 240 3 is_stmt 1 view .LVU87
 279 0010 082A     		cmp	r2, #8
 280              		.loc 1 228 77 is_stmt 0 view .LVU88
 281 0012 83B0     		sub	sp, sp, #12
 282              		.cfi_def_cfa_offset 48
 283              		.loc 1 245 11 view .LVU89
 284 0014 01F10709 		add	r9, r1, #7
 285              		.loc 1 248 3 view .LVU90
ARM GAS  C:\Users\DEVELO~1\AppData\Local\Temp\ccVHpTqR.s 			page 6


 286 0018 08F1140B 		add	fp, r8, #20
 287 001c 38BF     		it	cc
 288 001e 0822     		movcc	r2, #8
 289              	.LVL18:
 290              		.loc 1 228 77 view .LVU91
 291 0020 0191     		str	r1, [sp, #4]
 292              		.loc 1 245 9 view .LVU92
 293 0022 4FEAD909 		lsr	r9, r9, #3
 294              		.loc 1 248 3 view .LVU93
 295 0026 5846     		mov	r0, fp
 296 0028 9246     		mov	r10, r2
 297              	.LVL19:
 298              		.loc 1 245 3 is_stmt 1 view .LVU94
 299              		.loc 1 248 3 view .LVU95
 300 002a FFF7FEFF 		bl	chMtxLock
 301              	.LVL20:
 302              		.loc 1 251 3 view .LVU96
 303              		.loc 1 252 10 is_stmt 0 view .LVU97
 304 002e D8F80C20 		ldr	r2, [r8, #12]
 305              	.LVL21:
 306              		.loc 1 252 3 is_stmt 1 view .LVU98
 307              		.loc 1 252 26 view .LVU99
 308 0032 E2B1     		cbz	r2, .L13
 309 0034 08F10C01 		add	r1, r8, #12
 310              	.LVL22:
 311              		.loc 1 252 26 is_stmt 0 view .LVU100
 312 0038 0AF10707 		add	r7, r10, #7
 313              		.loc 1 258 28 view .LVU101
 314 003c CAF10006 		rsb	r6, r10, #0
 315              	.LVL23:
 316              	.L19:
 317              		.loc 1 255 5 is_stmt 1 view .LVU102
 318              		.loc 1 258 5 view .LVU103
 319              		.loc 1 252 26 view .LVU104
 320              		.loc 1 258 28 is_stmt 0 view .LVU105
 321 0040 D319     		adds	r3, r2, r7
 322              		.loc 1 260 16 view .LVU106
 323 0042 5568     		ldr	r5, [r2, #4]
 324              		.loc 1 258 28 view .LVU107
 325 0044 3340     		ands	r3, r3, r6
 326              		.loc 1 260 16 view .LVU108
 327 0046 05F1010C 		add	ip, r5, #1
 328              		.loc 1 260 47 view .LVU109
 329 004a 1C46     		mov	r4, r3
 330              		.loc 1 260 16 view .LVU110
 331 004c 02EBCC0C 		add	ip, r2, ip, lsl #3
 332              		.loc 1 258 63 view .LVU111
 333 0050 083B     		subs	r3, r3, #8
 334              	.LVL24:
 335              		.loc 1 260 5 is_stmt 1 view .LVU112
 336              		.loc 1 260 47 is_stmt 0 view .LVU113
 337 0052 ACEB040E 		sub	lr, ip, r4
 338              		.loc 1 260 8 view .LVU114
 339 0056 9C45     		cmp	ip, r3
 340              		.loc 1 260 47 view .LVU115
 341 0058 4FEAEE00 		asr	r0, lr, #3
 342              		.loc 1 260 8 view .LVU116
ARM GAS  C:\Users\DEVELO~1\AppData\Local\Temp\ccVHpTqR.s 			page 7


 343 005c 02D9     		bls	.L14
 344              		.loc 1 260 34 discriminator 1 view .LVU117
 345 005e B9EBEE0F 		cmp	r9, lr, asr #3
 346 0062 1AD9     		bls	.L29
 347              	.L14:
 348              		.loc 1 252 10 view .LVU118
 349 0064 1368     		ldr	r3, [r2]
 350              	.LVL25:
 351              		.loc 1 252 10 view .LVU119
 352 0066 1146     		mov	r1, r2
 353 0068 1A46     		mov	r2, r3
 354              	.LVL26:
 355              		.loc 1 252 26 view .LVU120
 356 006a 002B     		cmp	r3, #0
 357 006c E8D1     		bne	.L19
 358              	.LVL27:
 359              	.L13:
 360              		.loc 1 320 3 is_stmt 1 view .LVU121
 361 006e 5846     		mov	r0, fp
 362 0070 FFF7FEFF 		bl	chMtxUnlock
 363              	.LVL28:
 364              		.loc 1 324 3 view .LVU122
 365              		.loc 1 324 12 is_stmt 0 view .LVU123
 366 0074 D8F80040 		ldr	r4, [r8]
 367              		.loc 1 324 6 view .LVU124
 368 0078 5CB1     		cbz	r4, .L11
 369              		.loc 1 325 5 is_stmt 1 view .LVU125
 370              		.loc 1 325 11 is_stmt 0 view .LVU126
 371 007a 5146     		mov	r1, r10
 372 007c 4FEAC900 		lsl	r0, r9, #3
 373 0080 0822     		movs	r2, #8
 374 0082 A047     		blx	r4
 375              	.LVL29:
 376              		.loc 1 328 5 is_stmt 1 view .LVU127
 377              		.loc 1 328 8 is_stmt 0 view .LVU128
 378 0084 0446     		mov	r4, r0
 379 0086 20B1     		cbz	r0, .L11
 380              		.loc 1 329 7 is_stmt 1 view .LVU129
 381              	.LVL30:
 382              		.loc 1 330 7 view .LVU130
 383              		.loc 1 331 23 is_stmt 0 view .LVU131
 384 0088 019B     		ldr	r3, [sp, #4]
 385              		.loc 1 330 23 view .LVU132
 386 008a 40F8088C 		str	r8, [r0, #-8]
 387              		.loc 1 331 7 is_stmt 1 view .LVU133
 388              		.loc 1 331 23 is_stmt 0 view .LVU134
 389 008e 40F8043C 		str	r3, [r0, #-4]
 390              		.loc 1 334 7 is_stmt 1 view .LVU135
 391              	.LVL31:
 392              	.L11:
 393              		.loc 1 340 1 is_stmt 0 view .LVU136
 394 0092 2046     		mov	r0, r4
 395 0094 03B0     		add	sp, sp, #12
 396              		.cfi_remember_state
 397              		.cfi_def_cfa_offset 36
 398              		@ sp needed
 399 0096 BDE8F08F 		pop	{r4, r5, r6, r7, r8, r9, r10, fp, pc}
ARM GAS  C:\Users\DEVELO~1\AppData\Local\Temp\ccVHpTqR.s 			page 8


 400              	.LVL32:
 401              	.L29:
 402              		.cfi_restore_state
 403              		.loc 1 264 7 is_stmt 1 view .LVU137
 404              		.loc 1 264 10 is_stmt 0 view .LVU138
 405 009a 9A42     		cmp	r2, r3
 406 009c 1CD3     		bcc	.L30
 407              		.loc 1 288 9 is_stmt 1 view .LVU139
 408              		.loc 1 288 12 is_stmt 0 view .LVU140
 409 009e 4D45     		cmp	r5, r9
 410 00a0 30D0     		beq	.L31
 411              	.LBB2:
 412              		.loc 1 294 11 is_stmt 1 view .LVU141
 413              		.loc 1 296 11 view .LVU142
 414              		.loc 1 297 29 is_stmt 0 view .LVU143
 415 00a2 1368     		ldr	r3, [r2]
 416              	.LVL33:
 417              		.loc 1 296 28 view .LVU144
 418 00a4 09F10100 		add	r0, r9, #1
 419              	.LBE2:
 420              	.LBB3:
 421              		.loc 1 269 28 view .LVU145
 422 00a8 02F10804 		add	r4, r2, #8
 423              	.LVL34:
 424              		.loc 1 269 28 view .LVU146
 425              	.LBE3:
 426              	.LBB5:
 427              		.loc 1 297 27 view .LVU147
 428 00ac 42F83030 		str	r3, [r2, r0, lsl #3]
 429              		.loc 1 296 14 view .LVU148
 430 00b0 02EBC000 		add	r0, r2, r0, lsl #3
 431              	.LVL35:
 432              		.loc 1 297 11 is_stmt 1 view .LVU149
 433              		.loc 1 298 11 view .LVU150
 434              	.LBE5:
 435              	.LBB6:
 436              		.loc 1 269 28 is_stmt 0 view .LVU151
 437 00b4 1346     		mov	r3, r2
 438              	.LBE6:
 439              	.LBB7:
 440              		.loc 1 298 30 view .LVU152
 441 00b6 00F10802 		add	r2, r0, #8
 442              	.LVL36:
 443              		.loc 1 298 30 view .LVU153
 444 00ba ACEB0202 		sub	r2, ip, r2
 445 00be D210     		asrs	r2, r2, #3
 446              		.loc 1 298 28 view .LVU154
 447 00c0 4260     		str	r2, [r0, #4]
 448              		.loc 1 299 11 is_stmt 1 view .LVU155
 449              		.loc 1 299 27 is_stmt 0 view .LVU156
 450 00c2 0860     		str	r0, [r1]
 451              	.LVL37:
 452              	.L16:
 453              		.loc 1 299 27 view .LVU157
 454              	.LBE7:
 455              		.loc 1 304 7 is_stmt 1 view .LVU158
 456              		.loc 1 304 23 is_stmt 0 view .LVU159
ARM GAS  C:\Users\DEVELO~1\AppData\Local\Temp\ccVHpTqR.s 			page 9


 457 00c4 019A     		ldr	r2, [sp, #4]
 458              		.loc 1 308 7 view .LVU160
 459 00c6 5846     		mov	r0, fp
 460              		.loc 1 305 23 view .LVU161
 461 00c8 C3E90082 		strd	r8, r2, [r3]
 462              		.loc 1 308 7 is_stmt 1 view .LVU162
 463 00cc FFF7FEFF 		bl	chMtxUnlock
 464              	.LVL38:
 465              		.loc 1 311 7 view .LVU163
 466              		.loc 1 340 1 is_stmt 0 view .LVU164
 467 00d0 2046     		mov	r0, r4
 468 00d2 03B0     		add	sp, sp, #12
 469              		.cfi_remember_state
 470              		.cfi_def_cfa_offset 36
 471              		@ sp needed
 472 00d4 BDE8F08F 		pop	{r4, r5, r6, r7, r8, r9, r10, fp, pc}
 473              	.LVL39:
 474              	.L30:
 475              		.cfi_restore_state
 476              	.LBB8:
 477              		.loc 1 266 9 is_stmt 1 view .LVU165
 478              		.loc 1 268 9 view .LVU166
 479              		.loc 1 269 9 view .LVU167
 480              		.loc 1 269 28 is_stmt 0 view .LVU168
 481 00d8 02F10801 		add	r1, r2, #8
 482              		.loc 1 270 12 view .LVU169
 483 00dc 4845     		cmp	r0, r9
 484              		.loc 1 269 28 view .LVU170
 485 00de A3EB0101 		sub	r1, r3, r1
 486 00e2 4FEAE101 		asr	r1, r1, #3
 487              		.loc 1 269 26 view .LVU171
 488 00e6 5160     		str	r1, [r2, #4]
 489              		.loc 1 270 9 is_stmt 1 view .LVU172
 490              		.loc 1 270 12 is_stmt 0 view .LVU173
 491 00e8 ECD9     		bls	.L16
 492              	.LBB4:
 493              		.loc 1 272 11 is_stmt 1 view .LVU174
 494              		.loc 1 275 11 view .LVU175
 495              		.loc 1 276 47 is_stmt 0 view .LVU176
 496 00ea A0EB0901 		sub	r1, r0, r9
 497              		.loc 1 275 29 view .LVU177
 498 00ee 09F10109 		add	r9, r9, #1
 499              	.LVL40:
 500              		.loc 1 276 47 view .LVU178
 501 00f2 0139     		subs	r1, r1, #1
 502              		.loc 1 275 14 view .LVU179
 503 00f4 03EBC900 		add	r0, r3, r9, lsl #3
 504              	.LVL41:
 505              		.loc 1 276 11 is_stmt 1 view .LVU180
 506              		.loc 1 276 28 is_stmt 0 view .LVU181
 507 00f8 4160     		str	r1, [r0, #4]
 508              		.loc 1 279 11 is_stmt 1 view .LVU182
 509              		.loc 1 279 29 is_stmt 0 view .LVU183
 510 00fa 1168     		ldr	r1, [r2]
 511              		.loc 1 279 27 view .LVU184
 512 00fc 43F83910 		str	r1, [r3, r9, lsl #3]
 513              		.loc 1 280 11 is_stmt 1 view .LVU185
ARM GAS  C:\Users\DEVELO~1\AppData\Local\Temp\ccVHpTqR.s 			page 10


 514              		.loc 1 280 27 is_stmt 0 view .LVU186
 515 0100 1060     		str	r0, [r2]
 516 0102 DFE7     		b	.L16
 517              	.LVL42:
 518              	.L31:
 519              		.loc 1 280 27 view .LVU187
 520              	.LBE4:
 521              	.LBE8:
 522              		.loc 1 290 11 is_stmt 1 view .LVU188
 523              		.loc 1 290 29 is_stmt 0 view .LVU189
 524 0104 1446     		mov	r4, r2
 525 0106 1346     		mov	r3, r2
 526              	.LVL43:
 527              		.loc 1 290 29 view .LVU190
 528 0108 54F8082B 		ldr	r2, [r4], #8
 529              	.LVL44:
 530              		.loc 1 290 27 view .LVU191
 531 010c 0A60     		str	r2, [r1]
 532 010e D9E7     		b	.L16
 533              	.L33:
 534              		.align	2
 535              	.L32:
 536 0110 00000000 		.word	.LANCHOR0
 537              		.cfi_endproc
 538              	.LFE355:
 539              		.size	chHeapAllocAligned, .-chHeapAllocAligned
 540              		.section	.text.chHeapFree,"ax",%progbits
 541              		.align	1
 542              		.p2align 4,,15
 543              		.global	chHeapFree
 544              		.syntax unified
 545              		.thumb
 546              		.thumb_func
 547              		.type	chHeapFree, %function
 548              	chHeapFree:
 549              	.LVL45:
 550              	.LFB356:
 551              		.loc 1 349 26 is_stmt 1 view -0
 552              		.cfi_startproc
 553              		@ args = 0, pretend = 0, frame = 0
 554              		@ frame_needed = 0, uses_anonymous_args = 0
 555              		.loc 1 350 3 view .LVU193
 556              		.loc 1 351 3 view .LVU194
 557              		.loc 1 353 3 view .LVU195
 558              		.loc 1 353 3 view .LVU196
 559              		.loc 1 353 3 view .LVU197
 560              		.loc 1 356 3 view .LVU198
 561              		.loc 1 349 26 is_stmt 0 view .LVU199
 562 0000 F8B5     		push	{r3, r4, r5, r6, r7, lr}
 563              		.cfi_def_cfa_offset 24
 564              		.cfi_offset 3, -24
 565              		.cfi_offset 4, -20
 566              		.cfi_offset 5, -16
 567              		.cfi_offset 6, -12
 568              		.cfi_offset 7, -8
 569              		.cfi_offset 14, -4
 570              		.loc 1 358 9 view .LVU200
ARM GAS  C:\Users\DEVELO~1\AppData\Local\Temp\ccVHpTqR.s 			page 11


 571 0002 50E90273 		ldrd	r7, r3, [r0, #-8]
 572              		.loc 1 356 6 view .LVU201
 573 0006 A0F10804 		sub	r4, r0, #8
 574              	.LVL46:
 575              		.loc 1 358 3 is_stmt 1 view .LVU202
 576              		.loc 1 359 3 view .LVU203
 577              		.loc 1 349 26 is_stmt 0 view .LVU204
 578 000a 0646     		mov	r6, r0
 579              		.loc 1 366 22 view .LVU205
 580 000c 0733     		adds	r3, r3, #7
 581              		.loc 1 359 6 view .LVU206
 582 000e 07F10C05 		add	r5, r7, #12
 583              	.LVL47:
 584              		.loc 1 366 3 is_stmt 1 view .LVU207
 585              		.loc 1 370 3 is_stmt 0 view .LVU208
 586 0012 1437     		adds	r7, r7, #20
 587              	.LVL48:
 588              		.loc 1 367 56 view .LVU209
 589 0014 DB08     		lsrs	r3, r3, #3
 590              		.loc 1 366 20 view .LVU210
 591 0016 40F8043C 		str	r3, [r0, #-4]
 592              		.loc 1 370 3 is_stmt 1 view .LVU211
 593 001a 3846     		mov	r0, r7
 594              	.LVL49:
 595              		.loc 1 370 3 is_stmt 0 view .LVU212
 596 001c FFF7FEFF 		bl	chMtxLock
 597              	.LVL50:
 598              		.loc 1 372 3 is_stmt 1 view .LVU213
 599              		.loc 1 373 5 view .LVU214
 600              		.loc 1 373 5 view .LVU215
 601              		.loc 1 373 5 view .LVU216
 602              		.loc 1 375 5 view .LVU217
 603              		.loc 1 393 5 view .LVU218
 604              		.loc 1 372 9 view .LVU219
 605              		.loc 1 359 6 is_stmt 0 view .LVU220
 606 0020 2B46     		mov	r3, r5
 607              		.loc 1 375 33 view .LVU221
 608 0022 A342     		cmp	r3, r4
 609              		.loc 1 376 11 view .LVU222
 610 0024 1A68     		ldr	r2, [r3]
 611              		.loc 1 375 33 view .LVU223
 612 0026 05D3     		bcc	.L42
 613              	.LVL51:
 614              	.L47:
 615              		.loc 1 375 33 discriminator 7 view .LVU224
 616 0028 9D42     		cmp	r5, r3
 617 002a 03D0     		beq	.L42
 618              	.L38:
 619              	.LVL52:
 620              		.loc 1 393 8 view .LVU225
 621 002c 1346     		mov	r3, r2
 622              	.LVL53:
 623              		.loc 1 372 3 is_stmt 1 view .LVU226
 624              		.loc 1 373 5 view .LVU227
 625              		.loc 1 373 5 view .LVU228
 626              		.loc 1 373 5 view .LVU229
 627              		.loc 1 375 5 view .LVU230
ARM GAS  C:\Users\DEVELO~1\AppData\Local\Temp\ccVHpTqR.s 			page 12


 628              		.loc 1 393 5 view .LVU231
 629              		.loc 1 372 9 view .LVU232
 630              		.loc 1 375 33 is_stmt 0 view .LVU233
 631 002e A342     		cmp	r3, r4
 632              		.loc 1 376 11 view .LVU234
 633 0030 1A68     		ldr	r2, [r3]
 634              	.LVL54:
 635              		.loc 1 375 33 view .LVU235
 636 0032 F9D2     		bcs	.L47
 637              	.L42:
 638              		.loc 1 375 47 discriminator 3 view .LVU236
 639 0034 0AB1     		cbz	r2, .L37
 640              		.loc 1 376 36 view .LVU237
 641 0036 9442     		cmp	r4, r2
 642 0038 F8D2     		bcs	.L38
 643              	.L37:
 644              		.loc 1 378 7 is_stmt 1 view .LVU238
 645              		.loc 1 378 23 is_stmt 0 view .LVU239
 646 003a 46F8082C 		str	r2, [r6, #-8]
 647              	.LVL55:
 648              		.loc 1 379 7 is_stmt 1 view .LVU240
 649              		.loc 1 381 11 is_stmt 0 view .LVU241
 650 003e 56F8042C 		ldr	r2, [r6, #-4]
 651              		.loc 1 379 23 view .LVU242
 652 0042 1C60     		str	r4, [r3]
 653              		.loc 1 381 7 is_stmt 1 view .LVU243
 654              		.loc 1 381 11 is_stmt 0 view .LVU244
 655 0044 0132     		adds	r2, r2, #1
 656              		.loc 1 381 31 view .LVU245
 657 0046 56F8081C 		ldr	r1, [r6, #-8]
 658              		.loc 1 381 11 view .LVU246
 659 004a 04EBC200 		add	r0, r4, r2, lsl #3
 660              		.loc 1 381 10 view .LVU247
 661 004e 8142     		cmp	r1, r0
 662 0050 0AD0     		beq	.L48
 663              		.loc 1 386 7 is_stmt 1 view .LVU248
 664              		.loc 1 386 12 is_stmt 0 view .LVU249
 665 0052 5968     		ldr	r1, [r3, #4]
 666 0054 4A1C     		adds	r2, r1, #1
 667 0056 03EBC202 		add	r2, r3, r2, lsl #3
 668              		.loc 1 386 10 view .LVU250
 669 005a 9442     		cmp	r4, r2
 670 005c 11D0     		beq	.L49
 671              	.L40:
 672              		.loc 1 391 7 is_stmt 1 view .LVU251
 673              		.loc 1 397 3 view .LVU252
 674 005e 3846     		mov	r0, r7
 675              		.loc 1 400 1 is_stmt 0 view .LVU253
 676 0060 BDE8F840 		pop	{r3, r4, r5, r6, r7, lr}
 677              		.cfi_remember_state
 678              		.cfi_restore 14
 679              		.cfi_restore 7
 680              		.cfi_restore 6
 681              		.cfi_restore 5
 682              		.cfi_restore 4
 683              		.cfi_restore 3
 684              		.cfi_def_cfa_offset 0
ARM GAS  C:\Users\DEVELO~1\AppData\Local\Temp\ccVHpTqR.s 			page 13


 685              	.LVL56:
 686              		.loc 1 397 3 view .LVU254
 687 0064 FFF7FEBF 		b	chMtxUnlock
 688              	.LVL57:
 689              	.L48:
 690              		.cfi_restore_state
 691              		.loc 1 383 9 is_stmt 1 view .LVU255
 692              		.loc 1 383 26 is_stmt 0 view .LVU256
 693 0068 4868     		ldr	r0, [r1, #4]
 694 006a 1044     		add	r0, r0, r2
 695              		.loc 1 384 27 view .LVU257
 696 006c 0A68     		ldr	r2, [r1]
 697              		.loc 1 383 26 view .LVU258
 698 006e 46F8040C 		str	r0, [r6, #-4]
 699              		.loc 1 384 9 is_stmt 1 view .LVU259
 700              		.loc 1 386 12 is_stmt 0 view .LVU260
 701 0072 5968     		ldr	r1, [r3, #4]
 702              		.loc 1 384 25 view .LVU261
 703 0074 46F8082C 		str	r2, [r6, #-8]
 704              		.loc 1 386 7 is_stmt 1 view .LVU262
 705              		.loc 1 386 12 is_stmt 0 view .LVU263
 706 0078 4A1C     		adds	r2, r1, #1
 707 007a 03EBC202 		add	r2, r3, r2, lsl #3
 708              		.loc 1 386 10 view .LVU264
 709 007e 9442     		cmp	r4, r2
 710 0080 EDD1     		bne	.L40
 711              	.L49:
 712              		.loc 1 388 9 is_stmt 1 view .LVU265
 713              		.loc 1 389 27 is_stmt 0 view .LVU266
 714 0082 56E90202 		ldrd	r0, r2, [r6, #-8]
 715              		.loc 1 388 26 view .LVU267
 716 0086 0132     		adds	r2, r2, #1
 717              		.loc 1 389 25 view .LVU268
 718 0088 1860     		str	r0, [r3]
 719              		.loc 1 397 3 view .LVU269
 720 008a 3846     		mov	r0, r7
 721              		.loc 1 388 26 view .LVU270
 722 008c 0A44     		add	r2, r2, r1
 723 008e 5A60     		str	r2, [r3, #4]
 724              		.loc 1 389 9 is_stmt 1 view .LVU271
 725              		.loc 1 391 7 view .LVU272
 726              		.loc 1 397 3 view .LVU273
 727              		.loc 1 400 1 is_stmt 0 view .LVU274
 728 0090 BDE8F840 		pop	{r3, r4, r5, r6, r7, lr}
 729              		.cfi_restore 14
 730              		.cfi_restore 7
 731              		.cfi_restore 6
 732              		.cfi_restore 5
 733              		.cfi_restore 4
 734              		.cfi_restore 3
 735              		.cfi_def_cfa_offset 0
 736              	.LVL58:
 737              		.loc 1 397 3 view .LVU275
 738 0094 FFF7FEBF 		b	chMtxUnlock
 739              	.LVL59:
 740              		.loc 1 397 3 view .LVU276
 741              		.cfi_endproc
ARM GAS  C:\Users\DEVELO~1\AppData\Local\Temp\ccVHpTqR.s 			page 14


 742              	.LFE356:
 743              		.size	chHeapFree, .-chHeapFree
 744              		.section	.text.chHeapStatus,"ax",%progbits
 745              		.align	1
 746              		.p2align 4,,15
 747              		.global	chHeapStatus
 748              		.syntax unified
 749              		.thumb
 750              		.thumb_func
 751              		.type	chHeapStatus, %function
 752              	chHeapStatus:
 753              	.LVL60:
 754              	.LFB357:
 755              		.loc 1 417 77 is_stmt 1 view -0
 756              		.cfi_startproc
 757              		@ args = 0, pretend = 0, frame = 0
 758              		@ frame_needed = 0, uses_anonymous_args = 0
 759              		.loc 1 418 3 view .LVU278
 760              		.loc 1 419 3 view .LVU279
 761              		.loc 1 421 3 view .LVU280
 762              		.loc 1 422 11 is_stmt 0 view .LVU281
 763 0000 0028     		cmp	r0, #0
 764 0002 174B     		ldr	r3, .L65
 765              		.loc 1 417 77 view .LVU282
 766 0004 2DE9F041 		push	{r4, r5, r6, r7, r8, lr}
 767              		.cfi_def_cfa_offset 24
 768              		.cfi_offset 4, -24
 769              		.cfi_offset 5, -20
 770              		.cfi_offset 6, -16
 771              		.cfi_offset 7, -12
 772              		.cfi_offset 8, -8
 773              		.cfi_offset 14, -4
 774              		.loc 1 421 6 view .LVU283
 775 0008 0446     		mov	r4, r0
 776              		.loc 1 422 11 view .LVU284
 777 000a 14BF     		ite	ne
 778 000c 0446     		movne	r4, r0
 779 000e 1C46     		moveq	r4, r3
 780              	.LVL61:
 781              		.loc 1 425 3 is_stmt 1 view .LVU285
 782              		.loc 1 417 77 is_stmt 0 view .LVU286
 783 0010 0F46     		mov	r7, r1
 784 0012 1646     		mov	r6, r2
 785              		.loc 1 425 3 view .LVU287
 786 0014 04F11408 		add	r8, r4, #20
 787 0018 4046     		mov	r0, r8
 788 001a FFF7FEFF 		bl	chMtxLock
 789              	.LVL62:
 790              		.loc 1 426 3 is_stmt 1 view .LVU288
 791              		.loc 1 427 3 view .LVU289
 792              		.loc 1 428 3 view .LVU290
 793              		.loc 1 429 3 view .LVU291
 794              		.loc 1 430 3 view .LVU292
 795              		.loc 1 430 26 view .LVU293
 796              		.loc 1 430 10 is_stmt 0 view .LVU294
 797 001e E368     		ldr	r3, [r4, #12]
 798              		.loc 1 430 26 view .LVU295
ARM GAS  C:\Users\DEVELO~1\AppData\Local\Temp\ccVHpTqR.s 			page 15


 799 0020 D3B1     		cbz	r3, .L56
 800              		.loc 1 427 10 view .LVU296
 801 0022 4FF0000C 		mov	ip, #0
 802              		.loc 1 426 10 view .LVU297
 803 0026 E646     		mov	lr, ip
 804              		.loc 1 428 5 view .LVU298
 805 0028 6546     		mov	r5, ip
 806              	.LVL63:
 807              	.L53:
 808              	.LBB9:
 809              		.loc 1 431 5 is_stmt 1 view .LVU299
 810              		.loc 1 434 6 is_stmt 0 view .LVU300
 811 002a 0135     		adds	r5, r5, #1
 812              	.LVL64:
 813              		.loc 1 435 5 is_stmt 1 view .LVU301
 814              	.LBE9:
 815              		.loc 1 430 10 is_stmt 0 view .LVU302
 816 002c D3E90034 		ldrd	r3, r4, [r3]
 817 0030 A445     		cmp	ip, r4
 818              	.LBB10:
 819              		.loc 1 435 12 view .LVU303
 820 0032 A644     		add	lr, lr, r4
 821              	.LVL65:
 822              		.loc 1 436 5 is_stmt 1 view .LVU304
 823 0034 38BF     		it	cc
 824 0036 A446     		movcc	ip, r4
 825              	.LVL66:
 826              		.loc 1 436 5 is_stmt 0 view .LVU305
 827              	.LBE10:
 828              		.loc 1 430 26 is_stmt 1 view .LVU306
 829 0038 002B     		cmp	r3, #0
 830 003a F6D1     		bne	.L53
 831              	.LVL67:
 832              	.L52:
 833              		.loc 1 444 3 view .LVU307
 834              		.loc 1 444 6 is_stmt 0 view .LVU308
 835 003c 17B1     		cbz	r7, .L54
 836              		.loc 1 445 5 is_stmt 1 view .LVU309
 837              		.loc 1 445 22 is_stmt 0 view .LVU310
 838 003e 4FEACE03 		lsl	r3, lr, #3
 839              		.loc 1 445 13 view .LVU311
 840 0042 3B60     		str	r3, [r7]
 841              	.L54:
 842              		.loc 1 449 3 is_stmt 1 view .LVU312
 843              		.loc 1 449 6 is_stmt 0 view .LVU313
 844 0044 16B1     		cbz	r6, .L55
 845              		.loc 1 450 5 is_stmt 1 view .LVU314
 846              		.loc 1 450 24 is_stmt 0 view .LVU315
 847 0046 4FEACC03 		lsl	r3, ip, #3
 848              		.loc 1 450 15 view .LVU316
 849 004a 3360     		str	r3, [r6]
 850              	.L55:
 851              		.loc 1 452 3 is_stmt 1 view .LVU317
 852 004c 4046     		mov	r0, r8
 853 004e FFF7FEFF 		bl	chMtxUnlock
 854              	.LVL68:
 855              		.loc 1 454 3 view .LVU318
ARM GAS  C:\Users\DEVELO~1\AppData\Local\Temp\ccVHpTqR.s 			page 16


 856              		.loc 1 455 1 is_stmt 0 view .LVU319
 857 0052 2846     		mov	r0, r5
 858 0054 BDE8F081 		pop	{r4, r5, r6, r7, r8, pc}
 859              	.LVL69:
 860              	.L56:
 861              		.loc 1 427 10 view .LVU320
 862 0058 9C46     		mov	ip, r3
 863              		.loc 1 426 10 view .LVU321
 864 005a 9E46     		mov	lr, r3
 865              		.loc 1 428 5 view .LVU322
 866 005c 1D46     		mov	r5, r3
 867 005e EDE7     		b	.L52
 868              	.L66:
 869              		.align	2
 870              	.L65:
 871 0060 00000000 		.word	.LANCHOR0
 872              		.cfi_endproc
 873              	.LFE357:
 874              		.size	chHeapStatus, .-chHeapStatus
 875              		.section	.text.chHeapIntegrityCheck,"ax",%progbits
 876              		.align	1
 877              		.p2align 4,,15
 878              		.global	chHeapIntegrityCheck
 879              		.syntax unified
 880              		.thumb
 881              		.thumb_func
 882              		.type	chHeapIntegrityCheck, %function
 883              	chHeapIntegrityCheck:
 884              	.LVL70:
 885              	.LFB358:
 886              		.loc 1 469 49 is_stmt 1 view -0
 887              		.cfi_startproc
 888              		@ args = 0, pretend = 0, frame = 0
 889              		@ frame_needed = 0, uses_anonymous_args = 0
 890              		.loc 1 470 3 view .LVU324
 891              		.loc 1 471 3 view .LVU325
 892              		.loc 1 474 3 view .LVU326
 893              		.loc 1 475 11 is_stmt 0 view .LVU327
 894 0000 0028     		cmp	r0, #0
 895 0002 1C4B     		ldr	r3, .L87
 896              		.loc 1 469 49 view .LVU328
 897 0004 70B5     		push	{r4, r5, r6, lr}
 898              		.cfi_def_cfa_offset 16
 899              		.cfi_offset 4, -16
 900              		.cfi_offset 5, -12
 901              		.cfi_offset 6, -8
 902              		.cfi_offset 14, -4
 903              		.loc 1 474 6 view .LVU329
 904 0006 0446     		mov	r4, r0
 905              		.loc 1 475 11 view .LVU330
 906 0008 14BF     		ite	ne
 907 000a 0446     		movne	r4, r0
 908 000c 1C46     		moveq	r4, r3
 909              	.LVL71:
 910              		.loc 1 479 3 is_stmt 1 view .LVU331
 911              		.loc 1 479 12 is_stmt 0 view .LVU332
 912 000e 2068     		ldr	r0, [r4]
ARM GAS  C:\Users\DEVELO~1\AppData\Local\Temp\ccVHpTqR.s 			page 17


 913              		.loc 1 479 6 view .LVU333
 914 0010 10B1     		cbz	r0, .L71
 915              		.loc 1 480 5 is_stmt 1 view .LVU334
 916              		.loc 1 480 10 is_stmt 0 view .LVU335
 917 0012 FFF7FEFF 		bl	chMemIsAddressExecutableX
 918              	.LVL72:
 919              		.loc 1 480 8 view .LVU336
 920 0016 38B3     		cbz	r0, .L85
 921              	.L71:
 922              		.loc 1 486 3 is_stmt 1 view .LVU337
 923 0018 04F11406 		add	r6, r4, #20
 924 001c 3046     		mov	r0, r6
 925 001e FFF7FEFF 		bl	chMtxLock
 926              	.LVL73:
 927              		.loc 1 488 3 view .LVU338
 928              		.loc 1 489 3 view .LVU339
 929              		.loc 1 489 6 is_stmt 0 view .LVU340
 930 0022 04F10C03 		add	r3, r4, #12
 931              	.LVL74:
 932              		.loc 1 490 3 is_stmt 1 view .LVU341
 933              		.loc 1 488 10 is_stmt 0 view .LVU342
 934 0026 0021     		movs	r1, #0
 935              	.LVL75:
 936              	.L70:
 937              		.loc 1 493 5 is_stmt 1 view .LVU343
 938              		.loc 1 499 5 view .LVU344
 939              		.loc 1 505 5 view .LVU345
 940              		.loc 1 490 33 view .LVU346
 941              		.loc 1 490 14 is_stmt 0 view .LVU347
 942 0028 1B68     		ldr	r3, [r3]
 943              	.LVL76:
 944              	.LBB13:
 945              	.LBI13:
 946              		.file 2 "./ChibiOS/os/oslib/include/chmemchecks.h"
 947              		.loc 2 123 20 is_stmt 1 view .LVU348
 948              	.LBB14:
 949              		.loc 2 126 3 view .LVU349
 950              		.loc 2 126 3 is_stmt 0 view .LVU350
 951              	.LBE14:
 952              	.LBE13:
 953              		.loc 1 490 33 view .LVU351
 954 002a 03B3     		cbz	r3, .L86
 955              		.loc 1 493 8 view .LVU352
 956 002c 9942     		cmp	r1, r3
 957 002e 15D2     		bcs	.L77
 958              		.loc 1 499 8 view .LVU353
 959 0030 5A07     		lsls	r2, r3, #29
 960 0032 13D1     		bne	.L77
 961              		.loc 1 507 30 view .LVU354
 962 0034 5A68     		ldr	r2, [r3, #4]
 963              	.LBB16:
 964              	.LBB15:
 965              		.loc 2 126 13 view .LVU355
 966 0036 D4E90151 		ldrd	r5, r1, [r4, #4]
 967              	.LVL77:
 968              		.loc 2 127 3 is_stmt 1 view .LVU356
 969              		.loc 2 128 3 view .LVU357
ARM GAS  C:\Users\DEVELO~1\AppData\Local\Temp\ccVHpTqR.s 			page 18


 970              		.loc 2 129 3 view .LVU358
 971              		.loc 2 129 13 is_stmt 0 view .LVU359
 972 003a 03EBC202 		add	r2, r3, r2, lsl #3
 973              		.loc 2 127 13 view .LVU360
 974 003e 0139     		subs	r1, r1, #1
 975              	.LVL78:
 976              		.loc 2 129 13 view .LVU361
 977 0040 0732     		adds	r2, r2, #7
 978              	.LVL79:
 979              		.loc 2 131 3 is_stmt 1 view .LVU362
 980              		.loc 2 131 3 view .LVU363
 981              		.loc 2 131 3 view .LVU364
 982              		.loc 2 133 3 view .LVU365
 983              		.loc 2 127 13 is_stmt 0 view .LVU366
 984 0042 2944     		add	r1, r1, r5
 985              		.loc 2 133 53 view .LVU367
 986 0044 9142     		cmp	r1, r2
 987 0046 09D3     		bcc	.L77
 988 0048 9342     		cmp	r3, r2
 989 004a 1946     		mov	r1, r3
 990 004c 8CBF     		ite	hi
 991 004e 0022     		movhi	r2, #0
 992              	.LVL80:
 993              		.loc 2 133 53 view .LVU368
 994 0050 0122     		movls	r2, #1
 995 0052 AB42     		cmp	r3, r5
 996 0054 38BF     		it	cc
 997 0056 0022     		movcc	r2, #0
 998 0058 002A     		cmp	r2, #0
 999 005a E5D1     		bne	.L70
 1000              	.LVL81:
 1001              	.L77:
 1002              		.loc 2 133 53 view .LVU369
 1003              	.LBE15:
 1004              	.LBE16:
 1005              		.loc 1 494 14 view .LVU370
 1006 005c 0124     		movs	r4, #1
 1007              	.LVL82:
 1008              	.L73:
 1009              		.loc 1 516 3 is_stmt 1 view .LVU371
 1010 005e 3046     		mov	r0, r6
 1011 0060 FFF7FEFF 		bl	chMtxUnlock
 1012              	.LVL83:
 1013              		.loc 1 518 3 view .LVU372
 1014              		.loc 1 519 1 is_stmt 0 view .LVU373
 1015 0064 2046     		mov	r0, r4
 1016 0066 70BD     		pop	{r4, r5, r6, pc}
 1017              	.LVL84:
 1018              	.L85:
 1019              		.loc 1 481 14 view .LVU374
 1020 0068 0124     		movs	r4, #1
 1021              	.LVL85:
 1022              		.loc 1 519 1 view .LVU375
 1023 006a 2046     		mov	r0, r4
 1024 006c 70BD     		pop	{r4, r5, r6, pc}
 1025              	.LVL86:
 1026              	.L86:
ARM GAS  C:\Users\DEVELO~1\AppData\Local\Temp\ccVHpTqR.s 			page 19


 1027              		.loc 1 470 8 view .LVU376
 1028 006e 1C46     		mov	r4, r3
 1029              	.LVL87:
 1030              		.loc 1 470 8 view .LVU377
 1031 0070 F5E7     		b	.L73
 1032              	.L88:
 1033 0072 00BF     		.align	2
 1034              	.L87:
 1035 0074 00000000 		.word	.LANCHOR0
 1036              		.cfi_endproc
 1037              	.LFE358:
 1038              		.size	chHeapIntegrityCheck, .-chHeapIntegrityCheck
 1039              		.section	.bss.default_heap,"aw",%nobits
 1040              		.align	2
 1041              		.set	.LANCHOR0,. + 0
 1042              		.type	default_heap, %object
 1043              		.size	default_heap, 36
 1044              	default_heap:
 1045 0000 00000000 		.space	36
 1045      00000000 
 1045      00000000 
 1045      00000000 
 1045      00000000 
 1046              		.text
 1047              	.Letext0:
 1048              		.file 3 "c:\\chibistudio\\tools\\gnu tools arm embedded\\11.3 2022.08\\lib\\gcc\\arm-none-eabi\\11
 1049              		.file 4 "c:\\chibistudio\\tools\\gnu tools arm embedded\\11.3 2022.08\\arm-none-eabi\\include\\mac
 1050              		.file 5 "c:\\chibistudio\\tools\\gnu tools arm embedded\\11.3 2022.08\\arm-none-eabi\\include\\sys
 1051              		.file 6 "./ChibiOS/os/common/ports/ARM-common/include/chtypes.h"
 1052              		.file 7 "./ChibiOS/os/rt/include/chearly.h"
 1053              		.file 8 "./ChibiOS/os/rt/include/chobjects.h"
 1054              		.file 9 "./ChibiOS/os/rt/include/chrfcu.h"
 1055              		.file 10 "./ChibiOS/os/rt/include/chdebug.h"
 1056              		.file 11 "./ChibiOS/os/rt/include/chtime.h"
 1057              		.file 12 "./ChibiOS/os/rt/include/chtrace.h"
 1058              		.file 13 "./ChibiOS/os/common/ports/ARMv7-M/chcore.h"
 1059              		.file 14 "./ChibiOS/os/rt/include/chlists.h"
 1060              		.file 15 "./ChibiOS/os/rt/include/chsem.h"
 1061              		.file 16 "./ChibiOS/os/rt/include/chmtx.h"
 1062              		.file 17 "./ChibiOS/os/oslib/include/chmemcore.h"
 1063              		.file 18 "./ChibiOS/os/oslib/include/chmemheaps.h"