ARM GAS  C:\Users\DEVELO~1\AppData\Local\Temp\cc1go5hK.s 			page 1


   1              		.cpu cortex-m7
   2              		.arch armv7e-m
   3              		.fpu softvfp
   4              		.eabi_attribute 20, 1
   5              		.eabi_attribute 21, 1
   6              		.eabi_attribute 23, 3
   7              		.eabi_attribute 24, 1
   8              		.eabi_attribute 25, 1
   9              		.eabi_attribute 26, 1
  10              		.eabi_attribute 30, 2
  11              		.eabi_attribute 34, 1
  12              		.eabi_attribute 18, 4
  13              		.file	"chmemchecks.c"
  14              		.text
  15              	.Ltext0:
  16              		.cfi_sections	.debug_frame
  17              		.section	.text.chMemIsStringWithinX,"ax",%progbits
  18              		.align	1
  19              		.p2align 4,,15
  20              		.global	chMemIsStringWithinX
  21              		.syntax unified
  22              		.thumb
  23              		.thumb_func
  24              		.type	chMemIsStringWithinX, %function
  25              	chMemIsStringWithinX:
  26              	.LVL0:
  27              	.LFB352:
  28              		.file 1 "./ChibiOS/os/oslib/src/chmemchecks.c"
  29              		.loc 1 106 41 view -0
  30              		.cfi_startproc
  31              		@ args = 0, pretend = 0, frame = 0
  32              		@ frame_needed = 0, uses_anonymous_args = 0
  33              		@ link register save eliminated.
  34              		.loc 1 107 3 view .LVU1
  35              		.loc 1 107 15 is_stmt 0 view .LVU2
  36 0000 0368     		ldr	r3, [r0]
  37              	.LVL1:
  38              		.loc 1 108 3 is_stmt 1 view .LVU3
  39              		.loc 1 110 3 view .LVU4
  40              		.loc 1 110 6 is_stmt 0 view .LVU5
  41 0002 8B42     		cmp	r3, r1
  42 0004 11D8     		bhi	.L6
  43              		.loc 1 106 41 view .LVU6
  44 0006 10B4     		push	{r4}
  45              		.cfi_def_cfa_offset 4
  46              		.cfi_offset 4, -4
  47              		.loc 1 108 53 view .LVU7
  48 0008 4468     		ldr	r4, [r0, #4]
  49              	.LBB2:
  50              		.loc 1 113 7 view .LVU8
  51 000a 0020     		movs	r0, #0
  52              	.LVL2:
  53              		.loc 1 113 7 view .LVU9
  54              	.LBE2:
  55              		.loc 1 108 53 view .LVU10
  56 000c 04F1FF3C 		add	ip, r4, #-1
  57              		.loc 1 108 15 view .LVU11
ARM GAS  C:\Users\DEVELO~1\AppData\Local\Temp\cc1go5hK.s 			page 2


  58 0010 9C44     		add	ip, ip, r3
  59              	.LVL3:
  60              	.L3:
  61              	.LBB3:
  62              		.loc 1 115 7 is_stmt 1 view .LVU12
  63              		.loc 1 114 23 view .LVU13
  64 0012 6145     		cmp	r1, ip
  65 0014 0BD8     		bhi	.L7
  66              		.loc 1 114 23 is_stmt 0 view .LVU14
  67 0016 9042     		cmp	r0, r2
  68              		.loc 1 115 8 view .LVU15
  69 0018 00F10100 		add	r0, r0, #1
  70              	.LVL4:
  71              		.loc 1 116 7 is_stmt 1 view .LVU16
  72              		.loc 1 114 23 is_stmt 0 view .LVU17
  73 001c 07D2     		bcs	.L7
  74              		.loc 1 116 10 view .LVU18
  75 001e 11F8013B 		ldrb	r3, [r1], #1	@ zero_extendqisi2
  76              	.LVL5:
  77              		.loc 1 116 10 view .LVU19
  78 0022 002B     		cmp	r3, #0
  79 0024 F5D1     		bne	.L3
  80              	.LBE3:
  81              		.loc 1 123 1 view .LVU20
  82 0026 10BC     		pop	{r4}
  83              		.cfi_restore 4
  84              		.cfi_def_cfa_offset 0
  85 0028 7047     		bx	lr
  86              	.LVL6:
  87              	.L6:
  88              		.loc 1 122 10 view .LVU21
  89 002a 0020     		movs	r0, #0
  90              	.LVL7:
  91              		.loc 1 123 1 view .LVU22
  92 002c 7047     		bx	lr
  93              	.LVL8:
  94              	.L7:
  95              		.cfi_def_cfa_offset 4
  96              		.cfi_offset 4, -4
  97              		.loc 1 122 10 view .LVU23
  98 002e 0020     		movs	r0, #0
  99              	.LVL9:
 100              		.loc 1 123 1 view .LVU24
 101 0030 10BC     		pop	{r4}
 102              		.cfi_restore 4
 103              		.cfi_def_cfa_offset 0
 104 0032 7047     		bx	lr
 105              		.cfi_endproc
 106              	.LFE352:
 107              		.size	chMemIsStringWithinX, .-chMemIsStringWithinX
 108              		.section	.text.chMemIsPointersArrayWithinX,"ax",%progbits
 109              		.align	1
 110              		.p2align 4,,15
 111              		.global	chMemIsPointersArrayWithinX
 112              		.syntax unified
 113              		.thumb
 114              		.thumb_func
ARM GAS  C:\Users\DEVELO~1\AppData\Local\Temp\cc1go5hK.s 			page 3


 115              		.type	chMemIsPointersArrayWithinX, %function
 116              	chMemIsPointersArrayWithinX:
 117              	.LVL10:
 118              	.LFB353:
 119              		.loc 1 141 48 is_stmt 1 view -0
 120              		.cfi_startproc
 121              		@ args = 0, pretend = 0, frame = 0
 122              		@ frame_needed = 0, uses_anonymous_args = 0
 123              		@ link register save eliminated.
 124              		.loc 1 142 3 view .LVU26
 125              		.loc 1 142 16 is_stmt 0 view .LVU27
 126 0000 0368     		ldr	r3, [r0]
 127              	.LVL11:
 128              		.loc 1 143 3 is_stmt 1 view .LVU28
 129              		.loc 1 145 3 view .LVU29
 130              		.loc 1 145 6 is_stmt 0 view .LVU30
 131 0002 8B42     		cmp	r3, r1
 132 0004 11D8     		bhi	.L24
 133              		.loc 1 141 48 view .LVU31
 134 0006 10B4     		push	{r4}
 135              		.cfi_def_cfa_offset 4
 136              		.cfi_offset 4, -4
 137              		.loc 1 143 69 view .LVU32
 138 0008 4468     		ldr	r4, [r0, #4]
 139              	.LBB4:
 140              		.loc 1 148 7 view .LVU33
 141 000a 0020     		movs	r0, #0
 142              	.LVL12:
 143              		.loc 1 148 7 view .LVU34
 144              	.LBE4:
 145              		.loc 1 143 69 view .LVU35
 146 000c A4F1040C 		sub	ip, r4, #4
 147              		.loc 1 143 16 view .LVU36
 148 0010 9C44     		add	ip, ip, r3
 149              	.LVL13:
 150              	.L21:
 151              	.LBB5:
 152              		.loc 1 150 7 is_stmt 1 view .LVU37
 153              		.loc 1 149 24 view .LVU38
 154 0012 6145     		cmp	r1, ip
 155 0014 0BD8     		bhi	.L25
 156              		.loc 1 149 24 is_stmt 0 view .LVU39
 157 0016 9042     		cmp	r0, r2
 158              		.loc 1 150 9 view .LVU40
 159 0018 00F10400 		add	r0, r0, #4
 160              	.LVL14:
 161              		.loc 1 151 7 is_stmt 1 view .LVU41
 162              		.loc 1 149 24 is_stmt 0 view .LVU42
 163 001c 07D2     		bcs	.L25
 164              		.loc 1 151 10 view .LVU43
 165 001e 51F8043B 		ldr	r3, [r1], #4
 166              	.LVL15:
 167              		.loc 1 151 10 view .LVU44
 168 0022 002B     		cmp	r3, #0
 169 0024 F5D1     		bne	.L21
 170              	.LBE5:
 171              		.loc 1 158 1 view .LVU45
ARM GAS  C:\Users\DEVELO~1\AppData\Local\Temp\cc1go5hK.s 			page 4


 172 0026 10BC     		pop	{r4}
 173              		.cfi_restore 4
 174              		.cfi_def_cfa_offset 0
 175 0028 7047     		bx	lr
 176              	.LVL16:
 177              	.L24:
 178              		.loc 1 157 10 view .LVU46
 179 002a 0020     		movs	r0, #0
 180              	.LVL17:
 181              		.loc 1 158 1 view .LVU47
 182 002c 7047     		bx	lr
 183              	.LVL18:
 184              	.L25:
 185              		.cfi_def_cfa_offset 4
 186              		.cfi_offset 4, -4
 187              		.loc 1 157 10 view .LVU48
 188 002e 0020     		movs	r0, #0
 189              	.LVL19:
 190              		.loc 1 158 1 view .LVU49
 191 0030 10BC     		pop	{r4}
 192              		.cfi_restore 4
 193              		.cfi_def_cfa_offset 0
 194 0032 7047     		bx	lr
 195              		.cfi_endproc
 196              	.LFE353:
 197              		.size	chMemIsPointersArrayWithinX, .-chMemIsPointersArrayWithinX
 198              		.section	.text.chMemIsSpaceContainedX,"ax",%progbits
 199              		.align	1
 200              		.p2align 4,,15
 201              		.global	chMemIsSpaceContainedX
 202              		.syntax unified
 203              		.thumb
 204              		.thumb_func
 205              		.type	chMemIsSpaceContainedX, %function
 206              	chMemIsSpaceContainedX:
 207              	.LVL20:
 208              	.LFB354:
 209              		.loc 1 179 42 is_stmt 1 view -0
 210              		.cfi_startproc
 211              		@ args = 0, pretend = 0, frame = 0
 212              		@ frame_needed = 0, uses_anonymous_args = 0
 213              		.loc 1 180 3 view .LVU51
 214              		.loc 1 182 3 view .LVU52
 215              		.loc 1 182 3 view .LVU53
 216              		.loc 1 182 3 view .LVU54
 217              		.loc 1 185 3 view .LVU55
 218              		.loc 1 185 20 view .LVU56
 219              		.loc 1 185 13 is_stmt 0 view .LVU57
 220 0000 0368     		ldr	r3, [r0]
 221              		.loc 1 185 20 view .LVU58
 222 0002 B3F1FF3F 		cmp	r3, #-1
 223 0006 1ED0     		beq	.L42
 224 0008 8446     		mov	ip, r0
 225              		.loc 1 179 42 view .LVU59
 226 000a 10B5     		push	{r4, lr}
 227              		.cfi_def_cfa_offset 8
 228              		.cfi_offset 4, -8
ARM GAS  C:\Users\DEVELO~1\AppData\Local\Temp\cc1go5hK.s 			page 5


 229              		.cfi_offset 14, -4
 230 000c 02F1FF3E 		add	lr, r2, #-1
 231              	.LBB8:
 232              	.LBB9:
 233              		.file 2 "./ChibiOS/os/oslib/include/chmemchecks.h"
 234              		.loc 2 133 23 view .LVU60
 235 0010 11EB0E0E 		adds	lr, r1, lr
 236 0014 34BF     		ite	cc
 237 0016 0124     		movcc	r4, #1
 238 0018 0024     		movcs	r4, #0
 239 001a 03E0     		b	.L41
 240              	.LVL21:
 241              	.L40:
 242              		.loc 2 133 23 view .LVU61
 243              	.LBE9:
 244              	.LBE8:
 245              		.loc 1 185 13 view .LVU62
 246 001c 5CF8083F 		ldr	r3, [ip, #8]!
 247              	.LVL22:
 248              		.loc 1 185 20 view .LVU63
 249 0020 5A1C     		adds	r2, r3, #1
 250 0022 0FD0     		beq	.L44
 251              	.LVL23:
 252              	.L41:
 253              		.loc 1 186 5 is_stmt 1 view .LVU64
 254              	.LBB12:
 255              	.LBI8:
 256              		.loc 2 123 20 view .LVU65
 257              	.LBB10:
 258              		.loc 2 126 3 view .LVU66
 259              		.loc 2 127 3 view .LVU67
 260              		.loc 2 128 3 view .LVU68
 261              		.loc 2 129 3 view .LVU69
 262              		.loc 2 131 3 view .LVU70
 263              		.loc 2 131 3 view .LVU71
 264              		.loc 2 131 3 view .LVU72
 265              		.loc 2 133 3 view .LVU73
 266              		.loc 2 133 3 is_stmt 0 view .LVU74
 267              	.LBE10:
 268              	.LBE12:
 269              		.loc 1 189 5 is_stmt 1 view .LVU75
 270              		.loc 1 185 20 view .LVU76
 271              	.LBB13:
 272              	.LBB11:
 273              		.loc 2 127 13 is_stmt 0 view .LVU77
 274 0024 5A1E     		subs	r2, r3, #1
 275              		.loc 2 133 31 view .LVU78
 276 0026 8B42     		cmp	r3, r1
 277 0028 8CBF     		ite	hi
 278 002a 0020     		movhi	r0, #0
 279 002c 04F00100 		andls	r0, r4, #1
 280              		.loc 2 127 13 view .LVU79
 281 0030 DCF80430 		ldr	r3, [ip, #4]
 282 0034 D318     		adds	r3, r2, r3
 283              		.loc 2 133 53 view .LVU80
 284 0036 7345     		cmp	r3, lr
 285 0038 34BF     		ite	cc
ARM GAS  C:\Users\DEVELO~1\AppData\Local\Temp\cc1go5hK.s 			page 6


 286 003a 0020     		movcc	r0, #0
 287 003c 00F00100 		andcs	r0, r0, #1
 288 0040 0028     		cmp	r0, #0
 289 0042 EBD0     		beq	.L40
 290              	.LVL24:
 291              	.L44:
 292              		.loc 2 133 53 view .LVU81
 293              	.LBE11:
 294              	.LBE13:
 295              		.loc 1 193 1 view .LVU82
 296 0044 10BD     		pop	{r4, pc}
 297              	.LVL25:
 298              	.L42:
 299              		.cfi_def_cfa_offset 0
 300              		.cfi_restore 4
 301              		.cfi_restore 14
 302              		.loc 1 192 10 view .LVU83
 303 0046 0020     		movs	r0, #0
 304              	.LVL26:
 305              		.loc 1 193 1 view .LVU84
 306 0048 7047     		bx	lr
 307              		.cfi_endproc
 308              	.LFE354:
 309              		.size	chMemIsSpaceContainedX, .-chMemIsSpaceContainedX
 310 004a 00BF     		.section	.text.chMemIsSpaceWritableX,"ax",%progbits
 311              		.align	1
 312              		.p2align 4,,15
 313              		.global	chMemIsSpaceWritableX
 314              		.syntax unified
 315              		.thumb
 316              		.thumb_func
 317              		.type	chMemIsSpaceWritableX, %function
 318              	chMemIsSpaceWritableX:
 319              	.LVL27:
 320              	.LFB355:
 321              		.loc 1 218 44 is_stmt 1 view -0
 322              		.cfi_startproc
 323              		@ args = 0, pretend = 0, frame = 0
 324              		@ frame_needed = 0, uses_anonymous_args = 0
 325              		.loc 1 220 3 view .LVU86
 326              		.loc 1 220 3 view .LVU87
 327              		.loc 1 220 3 view .LVU88
 328              		.loc 1 222 3 view .LVU89
 329              		.loc 1 222 8 is_stmt 0 view .LVU90
 330 0000 013A     		subs	r2, r2, #1
 331              	.LVL28:
 332              		.loc 1 222 6 view .LVU91
 333 0002 0240     		ands	r2, r2, r0
 334              	.LVL29:
 335              		.loc 1 222 6 view .LVU92
 336 0004 01D0     		beq	.L66
 337              		.loc 1 223 12 view .LVU93
 338 0006 0020     		movs	r0, #0
 339              	.LVL30:
 340              		.loc 1 227 1 view .LVU94
 341 0008 7047     		bx	lr
 342              	.LVL31:
ARM GAS  C:\Users\DEVELO~1\AppData\Local\Temp\cc1go5hK.s 			page 7


 343              	.L66:
 344              		.loc 1 218 44 view .LVU95
 345 000a 10B5     		push	{r4, lr}
 346              		.cfi_def_cfa_offset 8
 347              		.cfi_offset 4, -8
 348              		.cfi_offset 14, -4
 349 000c 8646     		mov	lr, r0
 350              	.LVL32:
 351              	.LBB18:
 352              	.LBB19:
 353              		.loc 1 185 20 is_stmt 1 view .LVU96
 354              		.loc 1 185 13 is_stmt 0 view .LVU97
 355 000e 1248     		ldr	r0, .L68
 356              	.LVL33:
 357              		.loc 1 185 13 view .LVU98
 358 0010 0368     		ldr	r3, [r0]
 359              		.loc 1 185 20 view .LVU99
 360 0012 B3F1FF3F 		cmp	r3, #-1
 361 0016 1CD0     		beq	.L67
 362              		.loc 1 185 20 view .LVU100
 363 0018 0139     		subs	r1, r1, #1
 364              	.LVL34:
 365              		.loc 1 185 20 view .LVU101
 366 001a 8446     		mov	ip, r0
 367              	.LBB20:
 368              	.LBB21:
 369              		.loc 2 133 23 view .LVU102
 370 001c 1EEB0101 		adds	r1, lr, r1
 371              	.LVL35:
 372              		.loc 2 133 23 view .LVU103
 373 0020 34BF     		ite	cc
 374 0022 0124     		movcc	r4, #1
 375 0024 0024     		movcs	r4, #0
 376 0026 03E0     		b	.L56
 377              	.LVL36:
 378              	.L61:
 379              		.loc 2 133 23 view .LVU104
 380              	.LBE21:
 381              	.LBE20:
 382              		.loc 1 185 13 view .LVU105
 383 0028 5CF8083F 		ldr	r3, [ip, #8]!
 384              	.LVL37:
 385              		.loc 1 185 20 view .LVU106
 386 002c 5A1C     		adds	r2, r3, #1
 387 002e 0FD0     		beq	.L58
 388              	.LVL38:
 389              	.L56:
 390              		.loc 1 186 5 is_stmt 1 view .LVU107
 391              	.LBB24:
 392              	.LBI20:
 393              		.loc 2 123 20 view .LVU108
 394              	.LBB22:
 395              		.loc 2 126 3 view .LVU109
 396              		.loc 2 127 3 view .LVU110
 397              		.loc 2 128 3 view .LVU111
 398              		.loc 2 129 3 view .LVU112
 399              		.loc 2 131 3 view .LVU113
ARM GAS  C:\Users\DEVELO~1\AppData\Local\Temp\cc1go5hK.s 			page 8


 400              		.loc 2 131 3 view .LVU114
 401              		.loc 2 131 3 view .LVU115
 402              		.loc 2 133 3 view .LVU116
 403              		.loc 2 133 3 is_stmt 0 view .LVU117
 404              	.LBE22:
 405              	.LBE24:
 406              		.loc 1 189 5 is_stmt 1 view .LVU118
 407              		.loc 1 185 20 view .LVU119
 408              	.LBB25:
 409              	.LBB23:
 410              		.loc 2 127 13 is_stmt 0 view .LVU120
 411 0030 5A1E     		subs	r2, r3, #1
 412              		.loc 2 133 31 view .LVU121
 413 0032 9E45     		cmp	lr, r3
 414 0034 34BF     		ite	cc
 415 0036 0020     		movcc	r0, #0
 416 0038 04F00100 		andcs	r0, r4, #1
 417              		.loc 2 127 13 view .LVU122
 418 003c DCF80430 		ldr	r3, [ip, #4]
 419 0040 D318     		adds	r3, r2, r3
 420              		.loc 2 133 53 view .LVU123
 421 0042 8B42     		cmp	r3, r1
 422 0044 34BF     		ite	cc
 423 0046 0020     		movcc	r0, #0
 424 0048 00F00100 		andcs	r0, r0, #1
 425 004c 0028     		cmp	r0, #0
 426 004e EBD0     		beq	.L61
 427              	.LVL39:
 428              	.L58:
 429              		.loc 2 133 53 view .LVU124
 430              	.LBE23:
 431              	.LBE25:
 432              	.LBE19:
 433              	.LBE18:
 434              		.loc 1 227 1 view .LVU125
 435 0050 10BD     		pop	{r4, pc}
 436              	.LVL40:
 437              	.L67:
 438              		.loc 1 223 12 view .LVU126
 439 0052 1046     		mov	r0, r2
 440              		.loc 1 227 1 view .LVU127
 441 0054 10BD     		pop	{r4, pc}
 442              	.L69:
 443 0056 00BF     		.align	2
 444              	.L68:
 445 0058 00000000 		.word	__ch_mem_writable_areas
 446              		.cfi_endproc
 447              	.LFE355:
 448              		.size	chMemIsSpaceWritableX, .-chMemIsSpaceWritableX
 449              		.section	.text.chMemIsSpaceReadableX,"ax",%progbits
 450              		.align	1
 451              		.p2align 4,,15
 452              		.global	chMemIsSpaceReadableX
 453              		.syntax unified
 454              		.thumb
 455              		.thumb_func
 456              		.type	chMemIsSpaceReadableX, %function
ARM GAS  C:\Users\DEVELO~1\AppData\Local\Temp\cc1go5hK.s 			page 9


 457              	chMemIsSpaceReadableX:
 458              	.LVL41:
 459              	.LFB356:
 460              		.loc 1 250 44 is_stmt 1 view -0
 461              		.cfi_startproc
 462              		@ args = 0, pretend = 0, frame = 0
 463              		@ frame_needed = 0, uses_anonymous_args = 0
 464              		.loc 1 252 3 view .LVU129
 465              		.loc 1 252 3 view .LVU130
 466              		.loc 1 252 3 view .LVU131
 467              		.loc 1 254 3 view .LVU132
 468              		.loc 1 254 8 is_stmt 0 view .LVU133
 469 0000 013A     		subs	r2, r2, #1
 470              	.LVL42:
 471              		.loc 1 254 6 view .LVU134
 472 0002 0240     		ands	r2, r2, r0
 473              	.LVL43:
 474              		.loc 1 254 6 view .LVU135
 475 0004 01D0     		beq	.L87
 476              		.loc 1 255 12 view .LVU136
 477 0006 0020     		movs	r0, #0
 478              	.LVL44:
 479              		.loc 1 259 1 view .LVU137
 480 0008 7047     		bx	lr
 481              	.LVL45:
 482              	.L87:
 483              		.loc 1 250 44 view .LVU138
 484 000a 10B5     		push	{r4, lr}
 485              		.cfi_def_cfa_offset 8
 486              		.cfi_offset 4, -8
 487              		.cfi_offset 14, -4
 488 000c 8646     		mov	lr, r0
 489              	.LVL46:
 490              	.LBB30:
 491              	.LBB31:
 492              		.loc 1 185 20 is_stmt 1 view .LVU139
 493              		.loc 1 185 13 is_stmt 0 view .LVU140
 494 000e 1248     		ldr	r0, .L89
 495              	.LVL47:
 496              		.loc 1 185 13 view .LVU141
 497 0010 0368     		ldr	r3, [r0]
 498              		.loc 1 185 20 view .LVU142
 499 0012 B3F1FF3F 		cmp	r3, #-1
 500 0016 1CD0     		beq	.L88
 501              		.loc 1 185 20 view .LVU143
 502 0018 0139     		subs	r1, r1, #1
 503              	.LVL48:
 504              		.loc 1 185 20 view .LVU144
 505 001a 8446     		mov	ip, r0
 506              	.LBB32:
 507              	.LBB33:
 508              		.loc 2 133 23 view .LVU145
 509 001c 1EEB0101 		adds	r1, lr, r1
 510              	.LVL49:
 511              		.loc 2 133 23 view .LVU146
 512 0020 34BF     		ite	cc
 513 0022 0124     		movcc	r4, #1
ARM GAS  C:\Users\DEVELO~1\AppData\Local\Temp\cc1go5hK.s 			page 10


 514 0024 0024     		movcs	r4, #0
 515 0026 03E0     		b	.L77
 516              	.LVL50:
 517              	.L82:
 518              		.loc 2 133 23 view .LVU147
 519              	.LBE33:
 520              	.LBE32:
 521              		.loc 1 185 13 view .LVU148
 522 0028 5CF8083F 		ldr	r3, [ip, #8]!
 523              	.LVL51:
 524              		.loc 1 185 20 view .LVU149
 525 002c 5A1C     		adds	r2, r3, #1
 526 002e 0FD0     		beq	.L79
 527              	.LVL52:
 528              	.L77:
 529              		.loc 1 186 5 is_stmt 1 view .LVU150
 530              	.LBB36:
 531              	.LBI32:
 532              		.loc 2 123 20 view .LVU151
 533              	.LBB34:
 534              		.loc 2 126 3 view .LVU152
 535              		.loc 2 127 3 view .LVU153
 536              		.loc 2 128 3 view .LVU154
 537              		.loc 2 129 3 view .LVU155
 538              		.loc 2 131 3 view .LVU156
 539              		.loc 2 131 3 view .LVU157
 540              		.loc 2 131 3 view .LVU158
 541              		.loc 2 133 3 view .LVU159
 542              		.loc 2 133 3 is_stmt 0 view .LVU160
 543              	.LBE34:
 544              	.LBE36:
 545              		.loc 1 189 5 is_stmt 1 view .LVU161
 546              		.loc 1 185 20 view .LVU162
 547              	.LBB37:
 548              	.LBB35:
 549              		.loc 2 127 13 is_stmt 0 view .LVU163
 550 0030 5A1E     		subs	r2, r3, #1
 551              		.loc 2 133 31 view .LVU164
 552 0032 9E45     		cmp	lr, r3
 553 0034 34BF     		ite	cc
 554 0036 0020     		movcc	r0, #0
 555 0038 04F00100 		andcs	r0, r4, #1
 556              		.loc 2 127 13 view .LVU165
 557 003c DCF80430 		ldr	r3, [ip, #4]
 558 0040 D318     		adds	r3, r2, r3
 559              		.loc 2 133 53 view .LVU166
 560 0042 8B42     		cmp	r3, r1
 561 0044 34BF     		ite	cc
 562 0046 0020     		movcc	r0, #0
 563 0048 00F00100 		andcs	r0, r0, #1
 564 004c 0028     		cmp	r0, #0
 565 004e EBD0     		beq	.L82
 566              	.LVL53:
 567              	.L79:
 568              		.loc 2 133 53 view .LVU167
 569              	.LBE35:
 570              	.LBE37:
ARM GAS  C:\Users\DEVELO~1\AppData\Local\Temp\cc1go5hK.s 			page 11


 571              	.LBE31:
 572              	.LBE30:
 573              		.loc 1 259 1 view .LVU168
 574 0050 10BD     		pop	{r4, pc}
 575              	.LVL54:
 576              	.L88:
 577              		.loc 1 255 12 view .LVU169
 578 0052 1046     		mov	r0, r2
 579              		.loc 1 259 1 view .LVU170
 580 0054 10BD     		pop	{r4, pc}
 581              	.L90:
 582 0056 00BF     		.align	2
 583              	.L89:
 584 0058 00000000 		.word	__ch_mem_readable_areas
 585              		.cfi_endproc
 586              	.LFE356:
 587              		.size	chMemIsSpaceReadableX, .-chMemIsSpaceReadableX
 588              		.section	.text.chMemIsAddressExecutableX,"ax",%progbits
 589              		.align	1
 590              		.p2align 4,,15
 591              		.global	chMemIsAddressExecutableX
 592              		.syntax unified
 593              		.thumb
 594              		.thumb_func
 595              		.type	chMemIsAddressExecutableX, %function
 596              	chMemIsAddressExecutableX:
 597              	.LVL55:
 598              	.LFB357:
 599              		.loc 1 276 47 is_stmt 1 view -0
 600              		.cfi_startproc
 601              		@ args = 0, pretend = 0, frame = 0
 602              		@ frame_needed = 0, uses_anonymous_args = 0
 603              		@ link register save eliminated.
 604              		.loc 1 279 3 view .LVU172
 605              		.loc 1 284 3 view .LVU173
 606              	.LBB42:
 607              	.LBI42:
 608              		.loc 1 177 6 view .LVU174
 609              	.LBB43:
 610              		.loc 1 185 20 view .LVU175
 611              		.loc 1 185 13 is_stmt 0 view .LVU176
 612 0000 0C4B     		ldr	r3, .L99
 613              	.LBE43:
 614              	.LBE42:
 615              		.loc 1 276 47 view .LVU177
 616 0002 0146     		mov	r1, r0
 617              	.LBB50:
 618              	.LBB48:
 619              		.loc 1 185 13 view .LVU178
 620 0004 1A68     		ldr	r2, [r3]
 621              		.loc 1 185 20 view .LVU179
 622 0006 501C     		adds	r0, r2, #1
 623              	.LVL56:
 624              		.loc 1 185 20 view .LVU180
 625 0008 12D0     		beq	.L95
 626 000a 9C46     		mov	ip, r3
 627 000c 03E0     		b	.L94
ARM GAS  C:\Users\DEVELO~1\AppData\Local\Temp\cc1go5hK.s 			page 12


 628              	.LVL57:
 629              	.L93:
 630              		.loc 1 185 13 view .LVU181
 631 000e 5CF8082F 		ldr	r2, [ip, #8]!
 632              	.LVL58:
 633              		.loc 1 185 20 view .LVU182
 634 0012 531C     		adds	r3, r2, #1
 635 0014 0BD0     		beq	.L98
 636              	.LVL59:
 637              	.L94:
 638              		.loc 1 186 5 is_stmt 1 view .LVU183
 639              	.LBB44:
 640              	.LBI44:
 641              		.loc 2 123 20 view .LVU184
 642              	.LBB45:
 643              		.loc 2 126 3 view .LVU185
 644              		.loc 2 127 3 view .LVU186
 645              		.loc 2 128 3 view .LVU187
 646              		.loc 2 129 3 view .LVU188
 647              		.loc 2 131 3 view .LVU189
 648              		.loc 2 131 3 view .LVU190
 649              		.loc 2 131 3 view .LVU191
 650              		.loc 2 133 3 view .LVU192
 651              		.loc 2 133 3 is_stmt 0 view .LVU193
 652              	.LBE45:
 653              	.LBE44:
 654              		.loc 1 189 5 is_stmt 1 view .LVU194
 655              		.loc 1 185 20 view .LVU195
 656              	.LBB47:
 657              	.LBB46:
 658              		.loc 2 127 13 is_stmt 0 view .LVU196
 659 0016 DCF80400 		ldr	r0, [ip, #4]
 660 001a 531E     		subs	r3, r2, #1
 661 001c 0344     		add	r3, r3, r0
 662              		.loc 2 133 53 view .LVU197
 663 001e 9942     		cmp	r1, r3
 664 0020 98BF     		it	ls
 665 0022 8A42     		cmpls	r2, r1
 666 0024 94BF     		ite	ls
 667 0026 0120     		movls	r0, #1
 668 0028 0020     		movhi	r0, #0
 669 002a F0D8     		bhi	.L93
 670 002c 7047     		bx	lr
 671              	.LVL60:
 672              	.L98:
 673              		.loc 2 133 53 view .LVU198
 674              	.LBE46:
 675              	.LBE47:
 676              	.LBE48:
 677              	.LBE50:
 678              		.loc 1 285 1 view .LVU199
 679 002e 7047     		bx	lr
 680              	.LVL61:
 681              	.L95:
 682              	.LBB51:
 683              	.LBB49:
 684              		.loc 1 192 10 view .LVU200
ARM GAS  C:\Users\DEVELO~1\AppData\Local\Temp\cc1go5hK.s 			page 13


 685 0030 0020     		movs	r0, #0
 686 0032 7047     		bx	lr
 687              	.L100:
 688              		.align	2
 689              	.L99:
 690 0034 00000000 		.word	__ch_mem_executable_areas
 691              	.LBE49:
 692              	.LBE51:
 693              		.cfi_endproc
 694              	.LFE357:
 695              		.size	chMemIsAddressExecutableX, .-chMemIsAddressExecutableX
 696              		.weak	__ch_mem_executable_areas
 697              		.weak	__ch_mem_readable_areas
 698              		.weak	__ch_mem_writable_areas
 699              		.section	.rodata.__ch_mem_executable_areas,"a"
 700              		.align	2
 701              		.type	__ch_mem_executable_areas, %object
 702              		.size	__ch_mem_executable_areas, 16
 703              	__ch_mem_executable_areas:
 704 0000 00000000 		.word	0
 705 0004 00000000 		.word	0
 706 0008 FFFFFFFF 		.word	-1
 707 000c 00000000 		.word	0
 708              		.section	.rodata.__ch_mem_readable_areas,"a"
 709              		.align	2
 710              		.type	__ch_mem_readable_areas, %object
 711              		.size	__ch_mem_readable_areas, 16
 712              	__ch_mem_readable_areas:
 713 0000 00000000 		.word	0
 714 0004 00000000 		.word	0
 715 0008 FFFFFFFF 		.word	-1
 716 000c 00000000 		.word	0
 717              		.section	.rodata.__ch_mem_writable_areas,"a"
 718              		.align	2
 719              		.type	__ch_mem_writable_areas, %object
 720              		.size	__ch_mem_writable_areas, 16
 721              	__ch_mem_writable_areas:
 722 0000 00000000 		.word	0
 723 0004 00000000 		.word	0
 724 0008 FFFFFFFF 		.word	-1
 725 000c 00000000 		.word	0
 726              		.text
 727              	.Letext0:
 728              		.file 3 "c:\\chibistudio\\tools\\gnu tools arm embedded\\11.3 2022.08\\lib\\gcc\\arm-none-eabi\\11
 729              		.file 4 "c:\\chibistudio\\tools\\gnu tools arm embedded\\11.3 2022.08\\arm-none-eabi\\include\\mac
 730              		.file 5 "c:\\chibistudio\\tools\\gnu tools arm embedded\\11.3 2022.08\\arm-none-eabi\\include\\sys
 731              		.section	.debug_info,"",%progbits
 732              	.Ldebug_info0:
 733 0000 02070000 		.4byte	0x702
 734 0004 0500     		.2byte	0x5
 735 0006 01       		.byte	0x1
 736 0007 04       		.byte	0x4
 737 0008 00000000 		.4byte	.Ldebug_abbrev0
 738 000c 1B       		.uleb128 0x1b
 739 000d F3010000 		.4byte	.LASF33
 740 0011 1D       		.byte	0x1d
 741 0012 CE010000 		.4byte	.LASF34
ARM GAS  C:\Users\DEVELO~1\AppData\Local\Temp\cc1go5hK.s 			page 14


 742 0016 79010000 		.4byte	.LASF35
 743 001a 6C000000 		.4byte	.LLRL59
 744 001e 00000000 		.4byte	0
 745 0022 00000000 		.4byte	.Ldebug_line0
 746 0026 1C       		.uleb128 0x1c
 747 0027 04       		.byte	0x4
 748 0028 05       		.byte	0x5
 749 0029 696E7400 		.ascii	"int\000"
 750 002d 06       		.uleb128 0x6
 751 002e 12000000 		.4byte	.LASF4
 752 0032 03       		.byte	0x3
 753 0033 D1       		.byte	0xd1
 754 0034 17       		.byte	0x17
 755 0035 39000000 		.4byte	0x39
 756 0039 03       		.uleb128 0x3
 757 003a 04       		.byte	0x4
 758 003b 07       		.byte	0x7
 759 003c DC000000 		.4byte	.LASF0
 760 0040 03       		.uleb128 0x3
 761 0041 08       		.byte	0x8
 762 0042 05       		.byte	0x5
 763 0043 32010000 		.4byte	.LASF1
 764 0047 03       		.uleb128 0x3
 765 0048 08       		.byte	0x8
 766 0049 04       		.byte	0x4
 767 004a C7020000 		.4byte	.LASF2
 768 004e 03       		.uleb128 0x3
 769 004f 01       		.byte	0x1
 770 0050 06       		.byte	0x6
 771 0051 D3020000 		.4byte	.LASF3
 772 0055 06       		.uleb128 0x6
 773 0056 08000000 		.4byte	.LASF5
 774 005a 04       		.byte	0x4
 775 005b 2B       		.byte	0x2b
 776 005c 18       		.byte	0x18
 777 005d 61000000 		.4byte	0x61
 778 0061 03       		.uleb128 0x3
 779 0062 01       		.byte	0x1
 780 0063 08       		.byte	0x8
 781 0064 31000000 		.4byte	.LASF6
 782 0068 03       		.uleb128 0x3
 783 0069 02       		.byte	0x2
 784 006a 05       		.byte	0x5
 785 006b 6F010000 		.4byte	.LASF7
 786 006f 03       		.uleb128 0x3
 787 0070 02       		.byte	0x2
 788 0071 07       		.byte	0x7
 789 0072 69000000 		.4byte	.LASF8
 790 0076 03       		.uleb128 0x3
 791 0077 04       		.byte	0x4
 792 0078 05       		.byte	0x5
 793 0079 A8020000 		.4byte	.LASF9
 794 007d 03       		.uleb128 0x3
 795 007e 04       		.byte	0x4
 796 007f 07       		.byte	0x7
 797 0080 57000000 		.4byte	.LASF10
 798 0084 03       		.uleb128 0x3
ARM GAS  C:\Users\DEVELO~1\AppData\Local\Temp\cc1go5hK.s 			page 15


 799 0085 08       		.byte	0x8
 800 0086 07       		.byte	0x7
 801 0087 EA020000 		.4byte	.LASF11
 802 008b 06       		.uleb128 0x6
 803 008c 03010000 		.4byte	.LASF12
 804 0090 04       		.byte	0x4
 805 0091 E8       		.byte	0xe8
 806 0092 1A       		.byte	0x1a
 807 0093 39000000 		.4byte	0x39
 808 0097 06       		.uleb128 0x6
 809 0098 14010000 		.4byte	.LASF13
 810 009c 05       		.byte	0x5
 811 009d 18       		.byte	0x18
 812 009e 13       		.byte	0x13
 813 009f 55000000 		.4byte	0x55
 814 00a3 06       		.uleb128 0x6
 815 00a4 90000000 		.4byte	.LASF14
 816 00a8 05       		.byte	0x5
 817 00a9 52       		.byte	0x52
 818 00aa 15       		.byte	0x15
 819 00ab 8B000000 		.4byte	0x8b
 820 00af 09       		.uleb128 0x9
 821 00b0 BB000000 		.4byte	0xbb
 822 00b4 03       		.uleb128 0x3
 823 00b5 01       		.byte	0x1
 824 00b6 08       		.byte	0x8
 825 00b7 0F010000 		.4byte	.LASF15
 826 00bb 04       		.uleb128 0x4
 827 00bc B4000000 		.4byte	0xb4
 828 00c0 09       		.uleb128 0x9
 829 00c1 97000000 		.4byte	0x97
 830 00c5 1D       		.uleb128 0x1d
 831 00c6 04       		.byte	0x4
 832 00c7 1E       		.uleb128 0x1e
 833 00c8 08       		.byte	0x8
 834 00c9 02       		.byte	0x2
 835 00ca 32       		.byte	0x32
 836 00cb 09       		.byte	0x9
 837 00cc E9000000 		.4byte	0xe9
 838 00d0 16       		.uleb128 0x16
 839 00d1 C0000000 		.4byte	.LASF16
 840 00d5 37       		.byte	0x37
 841 00d6 22       		.byte	0x22
 842 00d7 C0000000 		.4byte	0xc0
 843 00db 00       		.byte	0
 844 00dc 16       		.uleb128 0x16
 845 00dd DF020000 		.4byte	.LASF17
 846 00e1 3D       		.byte	0x3d
 847 00e2 21       		.byte	0x21
 848 00e3 2D000000 		.4byte	0x2d
 849 00e7 04       		.byte	0x4
 850 00e8 00       		.byte	0
 851 00e9 06       		.uleb128 0x6
 852 00ea B2000000 		.4byte	.LASF18
 853 00ee 02       		.byte	0x2
 854 00ef 3E       		.byte	0x3e
 855 00f0 03       		.byte	0x3
ARM GAS  C:\Users\DEVELO~1\AppData\Local\Temp\cc1go5hK.s 			page 16


 856 00f1 C7000000 		.4byte	0xc7
 857 00f5 04       		.uleb128 0x4
 858 00f6 E9000000 		.4byte	0xe9
 859 00fa 0A       		.uleb128 0xa
 860 00fb F5000000 		.4byte	0xf5
 861 00ff 05010000 		.4byte	0x105
 862 0103 1F       		.uleb128 0x1f
 863 0104 00       		.byte	0
 864 0105 04       		.uleb128 0x4
 865 0106 FA000000 		.4byte	0xfa
 866 010a 11       		.uleb128 0x11
 867 010b 9A000000 		.4byte	.LASF19
 868 010f 49       		.byte	0x49
 869 0110 05010000 		.4byte	0x105
 870 0114 11       		.uleb128 0x11
 871 0115 3F000000 		.4byte	.LASF20
 872 0119 4A       		.byte	0x4a
 873 011a 05010000 		.4byte	0x105
 874 011e 11       		.uleb128 0x11
 875 011f 55010000 		.4byte	.LASF21
 876 0123 4B       		.byte	0x4b
 877 0124 05010000 		.4byte	0x105
 878 0128 03       		.uleb128 0x3
 879 0129 01       		.byte	0x1
 880 012a 02       		.byte	0x2
 881 012b E4020000 		.4byte	.LASF22
 882 012f 0A       		.uleb128 0xa
 883 0130 F5000000 		.4byte	0xf5
 884 0134 3F010000 		.4byte	0x13f
 885 0138 0B       		.uleb128 0xb
 886 0139 39000000 		.4byte	0x39
 887 013d 01       		.byte	0x1
 888 013e 00       		.byte	0
 889 013f 04       		.uleb128 0x4
 890 0140 2F010000 		.4byte	0x12f
 891 0144 12       		.uleb128 0x12
 892 0145 0A010000 		.4byte	0x10a
 893 0149 2D       		.byte	0x2d
 894 014a 3F010000 		.4byte	0x13f
 895 014e 05       		.uleb128 0x5
 896 014f 03       		.byte	0x3
 897 0150 00000000 		.4byte	__ch_mem_writable_areas
 898 0154 12       		.uleb128 0x12
 899 0155 14010000 		.4byte	0x114
 900 0159 38       		.byte	0x38
 901 015a 3F010000 		.4byte	0x13f
 902 015e 05       		.uleb128 0x5
 903 015f 03       		.byte	0x3
 904 0160 00000000 		.4byte	__ch_mem_readable_areas
 905 0164 12       		.uleb128 0x12
 906 0165 1E010000 		.4byte	0x11e
 907 0169 43       		.byte	0x43
 908 016a 3F010000 		.4byte	0x13f
 909 016e 05       		.uleb128 0x5
 910 016f 03       		.byte	0x3
 911 0170 00000000 		.4byte	__ch_mem_executable_areas
 912 0174 20       		.uleb128 0x20
ARM GAS  C:\Users\DEVELO~1\AppData\Local\Temp\cc1go5hK.s 			page 17


 913 0175 E9000000 		.4byte	.LASF23
 914 0179 01       		.byte	0x1
 915 017a 1401     		.2byte	0x114
 916 017c 06       		.byte	0x6
 917 017d 28010000 		.4byte	0x128
 918 0181 00000000 		.4byte	.LFB357
 919 0185 38000000 		.4byte	.LFE357-.LFB357
 920 0189 01       		.uleb128 0x1
 921 018a 9C       		.byte	0x9c
 922 018b 58020000 		.4byte	0x258
 923 018f 21       		.uleb128 0x21
 924 0190 7000     		.ascii	"p\000"
 925 0192 01       		.byte	0x1
 926 0193 1401     		.2byte	0x114
 927 0195 2C       		.byte	0x2c
 928 0196 58020000 		.4byte	0x258
 929 019a 10000000 		.4byte	.LLST47
 930 019e 0C000000 		.4byte	.LVUS47
 931 01a2 22       		.uleb128 0x22
 932 01a3 62040000 		.4byte	0x462
 933 01a7 00000000 		.4byte	.LBI42
 934 01ab 03       		.byte	.LVU174
 935 01ac 51000000 		.4byte	.LLRL48
 936 01b0 01       		.byte	0x1
 937 01b1 1C01     		.2byte	0x11c
 938 01b3 0A       		.byte	0xa
 939 01b4 23       		.uleb128 0x23
 940 01b5 89040000 		.4byte	0x489
 941 01b9 01       		.byte	0x1
 942 01ba 02       		.uleb128 0x2
 943 01bb 7F040000 		.4byte	0x47f
 944 01bf 24000000 		.4byte	.LLST49
 945 01c3 20000000 		.4byte	.LVUS49
 946 01c7 17       		.uleb128 0x17
 947 01c8 73040000 		.4byte	0x473
 948 01cc 06       		.uleb128 0x6
 949 01cd 03       		.byte	0x3
 950 01ce 00000000 		.4byte	__ch_mem_executable_areas
 951 01d2 9F       		.byte	0x9f
 952 01d3 05       		.uleb128 0x5
 953 01d4 51000000 		.4byte	.LLRL48
 954 01d8 01       		.uleb128 0x1
 955 01d9 95040000 		.4byte	0x495
 956 01dd 40000000 		.4byte	.LLST50
 957 01e1 34000000 		.4byte	.LVUS50
 958 01e5 0C       		.uleb128 0xc
 959 01e6 DB050000 		.4byte	0x5db
 960 01ea 16000000 		.4byte	.LBI44
 961 01ee 01       		.byte	.LVU184
 962 01ef 60000000 		.4byte	.LLRL51
 963 01f3 02       		.uleb128 0x2
 964 01f4 02060000 		.4byte	0x602
 965 01f8 74000000 		.4byte	.LLST52
 966 01fc 72000000 		.4byte	.LVUS52
 967 0200 02       		.uleb128 0x2
 968 0201 F8050000 		.4byte	0x5f8
 969 0205 80000000 		.4byte	.LLST53
ARM GAS  C:\Users\DEVELO~1\AppData\Local\Temp\cc1go5hK.s 			page 18


 970 0209 7E000000 		.4byte	.LVUS53
 971 020d 02       		.uleb128 0x2
 972 020e EC050000 		.4byte	0x5ec
 973 0212 8B000000 		.4byte	.LLST54
 974 0216 89000000 		.4byte	.LVUS54
 975 021a 05       		.uleb128 0x5
 976 021b 60000000 		.4byte	.LLRL51
 977 021f 01       		.uleb128 0x1
 978 0220 0E060000 		.4byte	0x60e
 979 0224 96000000 		.4byte	.LLST55
 980 0228 94000000 		.4byte	.LVUS55
 981 022c 01       		.uleb128 0x1
 982 022d 18060000 		.4byte	0x618
 983 0231 A1000000 		.4byte	.LLST56
 984 0235 9F000000 		.4byte	.LVUS56
 985 0239 01       		.uleb128 0x1
 986 023a 22060000 		.4byte	0x622
 987 023e B4000000 		.4byte	.LLST57
 988 0242 B2000000 		.4byte	.LVUS57
 989 0246 01       		.uleb128 0x1
 990 0247 2C060000 		.4byte	0x62c
 991 024b BF000000 		.4byte	.LLST58
 992 024f BD000000 		.4byte	.LVUS58
 993 0253 00       		.byte	0
 994 0254 00       		.byte	0
 995 0255 00       		.byte	0
 996 0256 00       		.byte	0
 997 0257 00       		.byte	0
 998 0258 09       		.uleb128 0x9
 999 0259 5D020000 		.4byte	0x25d
 1000 025d 24       		.uleb128 0x24
 1001 025e 0D       		.uleb128 0xd
 1002 025f 1C010000 		.4byte	.LASF24
 1003 0263 F8       		.byte	0xf8
 1004 0264 06       		.byte	0x6
 1005 0265 28010000 		.4byte	0x128
 1006 0269 00000000 		.4byte	.LFB356
 1007 026d 5C000000 		.4byte	.LFE356-.LFB356
 1008 0271 01       		.uleb128 0x1
 1009 0272 9C       		.byte	0x9c
 1010 0273 56030000 		.4byte	0x356
 1011 0277 07       		.uleb128 0x7
 1012 0278 7000     		.ascii	"p\000"
 1013 027a F8       		.byte	0xf8
 1014 027b 28       		.byte	0x28
 1015 027c 58020000 		.4byte	0x258
 1016 0280 D0000000 		.4byte	.LLST35
 1017 0284 C8000000 		.4byte	.LVUS35
 1018 0288 0E       		.uleb128 0xe
 1019 0289 DF020000 		.4byte	.LASF17
 1020 028d F9       		.byte	0xf9
 1021 028e 23       		.byte	0x23
 1022 028f 2D000000 		.4byte	0x2d
 1023 0293 F5000000 		.4byte	.LLST36
 1024 0297 ED000000 		.4byte	.LVUS36
 1025 029b 0E       		.uleb128 0xe
 1026 029c 19000000 		.4byte	.LASF25
ARM GAS  C:\Users\DEVELO~1\AppData\Local\Temp\cc1go5hK.s 			page 19


 1027 02a0 FA       		.byte	0xfa
 1028 02a1 25       		.byte	0x25
 1029 02a2 39000000 		.4byte	0x39
 1030 02a6 1A010000 		.4byte	.LLST37
 1031 02aa 14010000 		.4byte	.LVUS37
 1032 02ae 0F       		.uleb128 0xf
 1033 02af 28000000 		.4byte	.LASF27
 1034 02b3 66030000 		.4byte	0x366
 1035 02b7 25       		.uleb128 0x25
 1036 02b8 62040000 		.4byte	0x462
 1037 02bc 0E000000 		.4byte	.LBB30
 1038 02c0 42000000 		.4byte	.LBE30-.LBB30
 1039 02c4 01       		.byte	0x1
 1040 02c5 0201     		.2byte	0x102
 1041 02c7 0A       		.byte	0xa
 1042 02c8 08       		.uleb128 0x8
 1043 02c9 89040000 		.4byte	0x489
 1044 02cd 08       		.uleb128 0x8
 1045 02ce 7F040000 		.4byte	0x47f
 1046 02d2 08       		.uleb128 0x8
 1047 02d3 73040000 		.4byte	0x473
 1048 02d7 01       		.uleb128 0x1
 1049 02d8 95040000 		.4byte	0x495
 1050 02dc 3E010000 		.4byte	.LLST38
 1051 02e0 34010000 		.4byte	.LVUS38
 1052 02e4 0C       		.uleb128 0xc
 1053 02e5 DB050000 		.4byte	0x5db
 1054 02e9 30000000 		.4byte	.LBI32
 1055 02ed 01       		.byte	.LVU151
 1056 02ee 42000000 		.4byte	.LLRL39
 1057 02f2 02       		.uleb128 0x2
 1058 02f3 02060000 		.4byte	0x602
 1059 02f7 6D010000 		.4byte	.LLST40
 1060 02fb 6B010000 		.4byte	.LVUS40
 1061 02ff 02       		.uleb128 0x2
 1062 0300 F8050000 		.4byte	0x5f8
 1063 0304 7B010000 		.4byte	.LLST41
 1064 0308 79010000 		.4byte	.LVUS41
 1065 030c 02       		.uleb128 0x2
 1066 030d EC050000 		.4byte	0x5ec
 1067 0311 86010000 		.4byte	.LLST42
 1068 0315 84010000 		.4byte	.LVUS42
 1069 0319 05       		.uleb128 0x5
 1070 031a 42000000 		.4byte	.LLRL39
 1071 031e 01       		.uleb128 0x1
 1072 031f 0E060000 		.4byte	0x60e
 1073 0323 91010000 		.4byte	.LLST43
 1074 0327 8F010000 		.4byte	.LVUS43
 1075 032b 01       		.uleb128 0x1
 1076 032c 18060000 		.4byte	0x618
 1077 0330 9C010000 		.4byte	.LLST44
 1078 0334 9A010000 		.4byte	.LVUS44
 1079 0338 01       		.uleb128 0x1
 1080 0339 22060000 		.4byte	0x622
 1081 033d AF010000 		.4byte	.LLST45
 1082 0341 AD010000 		.4byte	.LVUS45
 1083 0345 01       		.uleb128 0x1
ARM GAS  C:\Users\DEVELO~1\AppData\Local\Temp\cc1go5hK.s 			page 20


 1084 0346 2C060000 		.4byte	0x62c
 1085 034a BA010000 		.4byte	.LLST46
 1086 034e B8010000 		.4byte	.LVUS46
 1087 0352 00       		.byte	0
 1088 0353 00       		.byte	0
 1089 0354 00       		.byte	0
 1090 0355 00       		.byte	0
 1091 0356 0A       		.uleb128 0xa
 1092 0357 BB000000 		.4byte	0xbb
 1093 035b 66030000 		.4byte	0x366
 1094 035f 0B       		.uleb128 0xb
 1095 0360 39000000 		.4byte	0x39
 1096 0364 15       		.byte	0x15
 1097 0365 00       		.byte	0
 1098 0366 04       		.uleb128 0x4
 1099 0367 56030000 		.4byte	0x356
 1100 036b 0D       		.uleb128 0xd
 1101 036c B1020000 		.4byte	.LASF26
 1102 0370 D8       		.byte	0xd8
 1103 0371 06       		.byte	0x6
 1104 0372 28010000 		.4byte	0x128
 1105 0376 00000000 		.4byte	.LFB355
 1106 037a 5C000000 		.4byte	.LFE355-.LFB355
 1107 037e 01       		.uleb128 0x1
 1108 037f 9C       		.byte	0x9c
 1109 0380 62040000 		.4byte	0x462
 1110 0384 07       		.uleb128 0x7
 1111 0385 7000     		.ascii	"p\000"
 1112 0387 D8       		.byte	0xd8
 1113 0388 22       		.byte	0x22
 1114 0389 C5000000 		.4byte	0xc5
 1115 038d D3010000 		.4byte	.LLST23
 1116 0391 CB010000 		.4byte	.LVUS23
 1117 0395 0E       		.uleb128 0xe
 1118 0396 DF020000 		.4byte	.LASF17
 1119 039a D9       		.byte	0xd9
 1120 039b 23       		.byte	0x23
 1121 039c 2D000000 		.4byte	0x2d
 1122 03a0 F8010000 		.4byte	.LLST24
 1123 03a4 F0010000 		.4byte	.LVUS24
 1124 03a8 0E       		.uleb128 0xe
 1125 03a9 19000000 		.4byte	.LASF25
 1126 03ad DA       		.byte	0xda
 1127 03ae 25       		.byte	0x25
 1128 03af 39000000 		.4byte	0x39
 1129 03b3 1D020000 		.4byte	.LLST25
 1130 03b7 17020000 		.4byte	.LVUS25
 1131 03bb 0F       		.uleb128 0xf
 1132 03bc 28000000 		.4byte	.LASF27
 1133 03c0 66030000 		.4byte	0x366
 1134 03c4 26       		.uleb128 0x26
 1135 03c5 62040000 		.4byte	0x462
 1136 03c9 0E000000 		.4byte	.LBB18
 1137 03cd 42000000 		.4byte	.LBE18-.LBB18
 1138 03d1 01       		.byte	0x1
 1139 03d2 E2       		.byte	0xe2
 1140 03d3 0A       		.byte	0xa
ARM GAS  C:\Users\DEVELO~1\AppData\Local\Temp\cc1go5hK.s 			page 21


 1141 03d4 08       		.uleb128 0x8
 1142 03d5 89040000 		.4byte	0x489
 1143 03d9 08       		.uleb128 0x8
 1144 03da 7F040000 		.4byte	0x47f
 1145 03de 08       		.uleb128 0x8
 1146 03df 73040000 		.4byte	0x473
 1147 03e3 01       		.uleb128 0x1
 1148 03e4 95040000 		.4byte	0x495
 1149 03e8 41020000 		.4byte	.LLST26
 1150 03ec 37020000 		.4byte	.LVUS26
 1151 03f0 0C       		.uleb128 0xc
 1152 03f1 DB050000 		.4byte	0x5db
 1153 03f5 30000000 		.4byte	.LBI20
 1154 03f9 01       		.byte	.LVU108
 1155 03fa 33000000 		.4byte	.LLRL27
 1156 03fe 02       		.uleb128 0x2
 1157 03ff 02060000 		.4byte	0x602
 1158 0403 70020000 		.4byte	.LLST28
 1159 0407 6E020000 		.4byte	.LVUS28
 1160 040b 02       		.uleb128 0x2
 1161 040c F8050000 		.4byte	0x5f8
 1162 0410 7E020000 		.4byte	.LLST29
 1163 0414 7C020000 		.4byte	.LVUS29
 1164 0418 02       		.uleb128 0x2
 1165 0419 EC050000 		.4byte	0x5ec
 1166 041d 89020000 		.4byte	.LLST30
 1167 0421 87020000 		.4byte	.LVUS30
 1168 0425 05       		.uleb128 0x5
 1169 0426 33000000 		.4byte	.LLRL27
 1170 042a 01       		.uleb128 0x1
 1171 042b 0E060000 		.4byte	0x60e
 1172 042f 94020000 		.4byte	.LLST31
 1173 0433 92020000 		.4byte	.LVUS31
 1174 0437 01       		.uleb128 0x1
 1175 0438 18060000 		.4byte	0x618
 1176 043c 9F020000 		.4byte	.LLST32
 1177 0440 9D020000 		.4byte	.LVUS32
 1178 0444 01       		.uleb128 0x1
 1179 0445 22060000 		.4byte	0x622
 1180 0449 B2020000 		.4byte	.LLST33
 1181 044d B0020000 		.4byte	.LVUS33
 1182 0451 01       		.uleb128 0x1
 1183 0452 2C060000 		.4byte	0x62c
 1184 0456 BD020000 		.4byte	.LLST34
 1185 045a BB020000 		.4byte	.LVUS34
 1186 045e 00       		.byte	0
 1187 045f 00       		.byte	0
 1188 0460 00       		.byte	0
 1189 0461 00       		.byte	0
 1190 0462 27       		.uleb128 0x27
 1191 0463 C5000000 		.4byte	.LASF36
 1192 0467 01       		.byte	0x1
 1193 0468 B1       		.byte	0xb1
 1194 0469 06       		.byte	0x6
 1195 046a 28010000 		.4byte	0x128
 1196 046e 01       		.byte	0x1
 1197 046f AB040000 		.4byte	0x4ab
ARM GAS  C:\Users\DEVELO~1\AppData\Local\Temp\cc1go5hK.s 			page 22


 1198 0473 13       		.uleb128 0x13
 1199 0474 C8010000 		.4byte	.LASF28
 1200 0478 01       		.byte	0x1
 1201 0479 B1       		.byte	0xb1
 1202 047a 31       		.byte	0x31
 1203 047b AB040000 		.4byte	0x4ab
 1204 047f 14       		.uleb128 0x14
 1205 0480 7000     		.ascii	"p\000"
 1206 0482 01       		.byte	0x1
 1207 0483 B2       		.byte	0xb2
 1208 0484 29       		.byte	0x29
 1209 0485 58020000 		.4byte	0x258
 1210 0489 13       		.uleb128 0x13
 1211 048a DF020000 		.4byte	.LASF17
 1212 048e 01       		.byte	0x1
 1213 048f B3       		.byte	0xb3
 1214 0490 24       		.byte	0x24
 1215 0491 2D000000 		.4byte	0x2d
 1216 0495 18       		.uleb128 0x18
 1217 0496 6D617000 		.ascii	"map\000"
 1218 049a 01       		.byte	0x1
 1219 049b B4       		.byte	0xb4
 1220 049c 18       		.byte	0x18
 1221 049d AB040000 		.4byte	0x4ab
 1222 04a1 0F       		.uleb128 0xf
 1223 04a2 28000000 		.4byte	.LASF27
 1224 04a6 C0040000 		.4byte	0x4c0
 1225 04aa 00       		.byte	0
 1226 04ab 09       		.uleb128 0x9
 1227 04ac F5000000 		.4byte	0xf5
 1228 04b0 0A       		.uleb128 0xa
 1229 04b1 BB000000 		.4byte	0xbb
 1230 04b5 C0040000 		.4byte	0x4c0
 1231 04b9 0B       		.uleb128 0xb
 1232 04ba 39000000 		.4byte	0x39
 1233 04be 16       		.byte	0x16
 1234 04bf 00       		.byte	0
 1235 04c0 04       		.uleb128 0x4
 1236 04c1 B0040000 		.4byte	0x4b0
 1237 04c5 0D       		.uleb128 0xd
 1238 04c6 01030000 		.4byte	.LASF29
 1239 04ca 8B       		.byte	0x8b
 1240 04cb 08       		.byte	0x8
 1241 04cc 2D000000 		.4byte	0x2d
 1242 04d0 00000000 		.4byte	.LFB353
 1243 04d4 34000000 		.4byte	.LFE353-.LFB353
 1244 04d8 01       		.uleb128 0x1
 1245 04d9 9C       		.byte	0x9c
 1246 04da 4E050000 		.4byte	0x54e
 1247 04de 07       		.uleb128 0x7
 1248 04df 6D617000 		.ascii	"map\000"
 1249 04e3 8B       		.byte	0x8b
 1250 04e4 39       		.byte	0x39
 1251 04e5 AB040000 		.4byte	0x4ab
 1252 04e9 D6020000 		.4byte	.LLST6
 1253 04ed CE020000 		.4byte	.LVUS6
 1254 04f1 07       		.uleb128 0x7
ARM GAS  C:\Users\DEVELO~1\AppData\Local\Temp\cc1go5hK.s 			page 23


 1255 04f2 707000   		.ascii	"pp\000"
 1256 04f5 8C       		.byte	0x8c
 1257 04f6 30       		.byte	0x30
 1258 04f7 4E050000 		.4byte	0x54e
 1259 04fb FC020000 		.4byte	.LLST7
 1260 04ff F6020000 		.4byte	.LVUS7
 1261 0503 19       		.uleb128 0x19
 1262 0504 6D617800 		.ascii	"max\000"
 1263 0508 8D       		.byte	0x8d
 1264 0509 2B       		.byte	0x2b
 1265 050a 2D000000 		.4byte	0x2d
 1266 050e 01       		.uleb128 0x1
 1267 050f 52       		.byte	0x52
 1268 0510 1A       		.uleb128 0x1a
 1269 0511 C0000000 		.4byte	.LASF16
 1270 0515 8E       		.byte	0x8e
 1271 0516 10       		.byte	0x10
 1272 0517 4E050000 		.4byte	0x54e
 1273 051b 1B030000 		.4byte	.LLST8
 1274 051f 13030000 		.4byte	.LVUS8
 1275 0523 10       		.uleb128 0x10
 1276 0524 656E6400 		.ascii	"end\000"
 1277 0528 8F       		.byte	0x8f
 1278 0529 10       		.byte	0x10
 1279 052a 4E050000 		.4byte	0x54e
 1280 052e 45030000 		.4byte	.LLST9
 1281 0532 39030000 		.4byte	.LVUS9
 1282 0536 05       		.uleb128 0x5
 1283 0537 18000000 		.4byte	.LLRL10
 1284 053b 10       		.uleb128 0x10
 1285 053c 6E00     		.ascii	"n\000"
 1286 053e 92       		.byte	0x92
 1287 053f 0C       		.byte	0xc
 1288 0540 2D000000 		.4byte	0x2d
 1289 0544 AD030000 		.4byte	.LLST11
 1290 0548 A9030000 		.4byte	.LVUS11
 1291 054c 00       		.byte	0
 1292 054d 00       		.byte	0
 1293 054e 09       		.uleb128 0x9
 1294 054f 58020000 		.4byte	0x258
 1295 0553 0D       		.uleb128 0xd
 1296 0554 40010000 		.4byte	.LASF30
 1297 0558 68       		.byte	0x68
 1298 0559 08       		.byte	0x8
 1299 055a 2D000000 		.4byte	0x2d
 1300 055e 00000000 		.4byte	.LFB352
 1301 0562 34000000 		.4byte	.LFE352-.LFB352
 1302 0566 01       		.uleb128 0x1
 1303 0567 9C       		.byte	0x9c
 1304 0568 DB050000 		.4byte	0x5db
 1305 056c 07       		.uleb128 0x7
 1306 056d 6D617000 		.ascii	"map\000"
 1307 0571 68       		.byte	0x68
 1308 0572 32       		.byte	0x32
 1309 0573 AB040000 		.4byte	0x4ab
 1310 0577 C5030000 		.4byte	.LLST0
 1311 057b BD030000 		.4byte	.LVUS0
ARM GAS  C:\Users\DEVELO~1\AppData\Local\Temp\cc1go5hK.s 			page 24


 1312 057f 07       		.uleb128 0x7
 1313 0580 7300     		.ascii	"s\000"
 1314 0582 69       		.byte	0x69
 1315 0583 29       		.byte	0x29
 1316 0584 AF000000 		.4byte	0xaf
 1317 0588 EB030000 		.4byte	.LLST1
 1318 058c E5030000 		.4byte	.LVUS1
 1319 0590 19       		.uleb128 0x19
 1320 0591 6D617800 		.ascii	"max\000"
 1321 0595 6A       		.byte	0x6a
 1322 0596 24       		.byte	0x24
 1323 0597 2D000000 		.4byte	0x2d
 1324 059b 01       		.uleb128 0x1
 1325 059c 52       		.byte	0x52
 1326 059d 1A       		.uleb128 0x1a
 1327 059e C0000000 		.4byte	.LASF16
 1328 05a2 6B       		.byte	0x6b
 1329 05a3 0F       		.byte	0xf
 1330 05a4 AF000000 		.4byte	0xaf
 1331 05a8 0A040000 		.4byte	.LLST2
 1332 05ac 02040000 		.4byte	.LVUS2
 1333 05b0 10       		.uleb128 0x10
 1334 05b1 656E6400 		.ascii	"end\000"
 1335 05b5 6C       		.byte	0x6c
 1336 05b6 0F       		.byte	0xf
 1337 05b7 AF000000 		.4byte	0xaf
 1338 05bb 34040000 		.4byte	.LLST3
 1339 05bf 28040000 		.4byte	.LVUS3
 1340 05c3 05       		.uleb128 0x5
 1341 05c4 0C000000 		.4byte	.LLRL4
 1342 05c8 10       		.uleb128 0x10
 1343 05c9 6E00     		.ascii	"n\000"
 1344 05cb 6F       		.byte	0x6f
 1345 05cc 0C       		.byte	0xc
 1346 05cd 2D000000 		.4byte	0x2d
 1347 05d1 9C040000 		.4byte	.LLST5
 1348 05d5 98040000 		.4byte	.LVUS5
 1349 05d9 00       		.byte	0
 1350 05da 00       		.byte	0
 1351 05db 28       		.uleb128 0x28
 1352 05dc 7C000000 		.4byte	.LASF37
 1353 05e0 02       		.byte	0x2
 1354 05e1 7B       		.byte	0x7b
 1355 05e2 14       		.byte	0x14
 1356 05e3 28010000 		.4byte	0x128
 1357 05e7 03       		.byte	0x3
 1358 05e8 42060000 		.4byte	0x642
 1359 05ec 14       		.uleb128 0x14
 1360 05ed 6D617000 		.ascii	"map\000"
 1361 05f1 02       		.byte	0x2
 1362 05f2 7B       		.byte	0x7b
 1363 05f3 3D       		.byte	0x3d
 1364 05f4 AB040000 		.4byte	0x4ab
 1365 05f8 14       		.uleb128 0x14
 1366 05f9 7000     		.ascii	"p\000"
 1367 05fb 02       		.byte	0x2
 1368 05fc 7C       		.byte	0x7c
ARM GAS  C:\Users\DEVELO~1\AppData\Local\Temp\cc1go5hK.s 			page 25


 1369 05fd 34       		.byte	0x34
 1370 05fe 58020000 		.4byte	0x258
 1371 0602 13       		.uleb128 0x13
 1372 0603 DF020000 		.4byte	.LASF17
 1373 0607 02       		.byte	0x2
 1374 0608 7D       		.byte	0x7d
 1375 0609 2F       		.byte	0x2f
 1376 060a 2D000000 		.4byte	0x2d
 1377 060e 15       		.uleb128 0x15
 1378 060f 1F000000 		.4byte	.LASF31
 1379 0613 7E       		.byte	0x7e
 1380 0614 A3000000 		.4byte	0xa3
 1381 0618 15       		.uleb128 0x15
 1382 0619 00000000 		.4byte	.LASF32
 1383 061d 7F       		.byte	0x7f
 1384 061e A3000000 		.4byte	0xa3
 1385 0622 15       		.uleb128 0x15
 1386 0623 C0000000 		.4byte	.LASF16
 1387 0627 80       		.byte	0x80
 1388 0628 A3000000 		.4byte	0xa3
 1389 062c 18       		.uleb128 0x18
 1390 062d 656E6400 		.ascii	"end\000"
 1391 0631 02       		.byte	0x2
 1392 0632 81       		.byte	0x81
 1393 0633 0D       		.byte	0xd
 1394 0634 A3000000 		.4byte	0xa3
 1395 0638 0F       		.uleb128 0xf
 1396 0639 28000000 		.4byte	.LASF27
 1397 063d 52060000 		.4byte	0x652
 1398 0641 00       		.byte	0
 1399 0642 0A       		.uleb128 0xa
 1400 0643 BB000000 		.4byte	0xbb
 1401 0647 52060000 		.4byte	0x652
 1402 064b 0B       		.uleb128 0xb
 1403 064c 39000000 		.4byte	0x39
 1404 0650 13       		.byte	0x13
 1405 0651 00       		.byte	0
 1406 0652 04       		.uleb128 0x4
 1407 0653 42060000 		.4byte	0x642
 1408 0657 29       		.uleb128 0x29
 1409 0658 62040000 		.4byte	0x462
 1410 065c 00000000 		.4byte	.LFB354
 1411 0660 4A000000 		.4byte	.LFE354-.LFB354
 1412 0664 01       		.uleb128 0x1
 1413 0665 9C       		.byte	0x9c
 1414 0666 02       		.uleb128 0x2
 1415 0667 73040000 		.4byte	0x473
 1416 066b B4040000 		.4byte	.LLST12
 1417 066f AC040000 		.4byte	.LVUS12
 1418 0673 17       		.uleb128 0x17
 1419 0674 7F040000 		.4byte	0x47f
 1420 0678 01       		.uleb128 0x1
 1421 0679 51       		.byte	0x51
 1422 067a 02       		.uleb128 0x2
 1423 067b 89040000 		.4byte	0x489
 1424 067f DA040000 		.4byte	.LLST13
 1425 0683 D4040000 		.4byte	.LVUS13
ARM GAS  C:\Users\DEVELO~1\AppData\Local\Temp\cc1go5hK.s 			page 26


 1426 0687 01       		.uleb128 0x1
 1427 0688 95040000 		.4byte	0x495
 1428 068c FE040000 		.4byte	.LLST14
 1429 0690 F2040000 		.4byte	.LVUS14
 1430 0694 0C       		.uleb128 0xc
 1431 0695 DB050000 		.4byte	0x5db
 1432 0699 24000000 		.4byte	.LBI8
 1433 069d 01       		.byte	.LVU65
 1434 069e 24000000 		.4byte	.LLRL15
 1435 06a2 02       		.uleb128 0x2
 1436 06a3 02060000 		.4byte	0x602
 1437 06a7 2B050000 		.4byte	.LLST16
 1438 06ab 29050000 		.4byte	.LVUS16
 1439 06af 02       		.uleb128 0x2
 1440 06b0 F8050000 		.4byte	0x5f8
 1441 06b4 39050000 		.4byte	.LLST17
 1442 06b8 37050000 		.4byte	.LVUS17
 1443 06bc 02       		.uleb128 0x2
 1444 06bd EC050000 		.4byte	0x5ec
 1445 06c1 44050000 		.4byte	.LLST18
 1446 06c5 42050000 		.4byte	.LVUS18
 1447 06c9 05       		.uleb128 0x5
 1448 06ca 24000000 		.4byte	.LLRL15
 1449 06ce 01       		.uleb128 0x1
 1450 06cf 0E060000 		.4byte	0x60e
 1451 06d3 4F050000 		.4byte	.LLST19
 1452 06d7 4D050000 		.4byte	.LVUS19
 1453 06db 01       		.uleb128 0x1
 1454 06dc 18060000 		.4byte	0x618
 1455 06e0 5A050000 		.4byte	.LLST20
 1456 06e4 58050000 		.4byte	.LVUS20
 1457 06e8 01       		.uleb128 0x1
 1458 06e9 22060000 		.4byte	0x622
 1459 06ed 6D050000 		.4byte	.LLST21
 1460 06f1 6B050000 		.4byte	.LVUS21
 1461 06f5 01       		.uleb128 0x1
 1462 06f6 2C060000 		.4byte	0x62c
 1463 06fa 78050000 		.4byte	.LLST22
 1464 06fe 76050000 		.4byte	.LVUS22
 1465 0702 00       		.byte	0
 1466 0703 00       		.byte	0
 1467 0704 00       		.byte	0
 1468 0705 00       		.byte	0
 1469              		.section	.debug_abbrev,"",%progbits
 1470              	.Ldebug_abbrev0:
 1471 0000 01       		.uleb128 0x1
 1472 0001 34       		.uleb128 0x34
 1473 0002 00       		.byte	0
 1474 0003 31       		.uleb128 0x31
 1475 0004 13       		.uleb128 0x13
 1476 0005 02       		.uleb128 0x2
 1477 0006 17       		.uleb128 0x17
 1478 0007 B742     		.uleb128 0x2137
 1479 0009 17       		.uleb128 0x17
 1480 000a 00       		.byte	0
 1481 000b 00       		.byte	0
 1482 000c 02       		.uleb128 0x2
ARM GAS  C:\Users\DEVELO~1\AppData\Local\Temp\cc1go5hK.s 			page 27


 1483 000d 05       		.uleb128 0x5
 1484 000e 00       		.byte	0
 1485 000f 31       		.uleb128 0x31
 1486 0010 13       		.uleb128 0x13
 1487 0011 02       		.uleb128 0x2
 1488 0012 17       		.uleb128 0x17
 1489 0013 B742     		.uleb128 0x2137
 1490 0015 17       		.uleb128 0x17
 1491 0016 00       		.byte	0
 1492 0017 00       		.byte	0
 1493 0018 03       		.uleb128 0x3
 1494 0019 24       		.uleb128 0x24
 1495 001a 00       		.byte	0
 1496 001b 0B       		.uleb128 0xb
 1497 001c 0B       		.uleb128 0xb
 1498 001d 3E       		.uleb128 0x3e
 1499 001e 0B       		.uleb128 0xb
 1500 001f 03       		.uleb128 0x3
 1501 0020 0E       		.uleb128 0xe
 1502 0021 00       		.byte	0
 1503 0022 00       		.byte	0
 1504 0023 04       		.uleb128 0x4
 1505 0024 26       		.uleb128 0x26
 1506 0025 00       		.byte	0
 1507 0026 49       		.uleb128 0x49
 1508 0027 13       		.uleb128 0x13
 1509 0028 00       		.byte	0
 1510 0029 00       		.byte	0
 1511 002a 05       		.uleb128 0x5
 1512 002b 0B       		.uleb128 0xb
 1513 002c 01       		.byte	0x1
 1514 002d 55       		.uleb128 0x55
 1515 002e 17       		.uleb128 0x17
 1516 002f 00       		.byte	0
 1517 0030 00       		.byte	0
 1518 0031 06       		.uleb128 0x6
 1519 0032 16       		.uleb128 0x16
 1520 0033 00       		.byte	0
 1521 0034 03       		.uleb128 0x3
 1522 0035 0E       		.uleb128 0xe
 1523 0036 3A       		.uleb128 0x3a
 1524 0037 0B       		.uleb128 0xb
 1525 0038 3B       		.uleb128 0x3b
 1526 0039 0B       		.uleb128 0xb
 1527 003a 39       		.uleb128 0x39
 1528 003b 0B       		.uleb128 0xb
 1529 003c 49       		.uleb128 0x49
 1530 003d 13       		.uleb128 0x13
 1531 003e 00       		.byte	0
 1532 003f 00       		.byte	0
 1533 0040 07       		.uleb128 0x7
 1534 0041 05       		.uleb128 0x5
 1535 0042 00       		.byte	0
 1536 0043 03       		.uleb128 0x3
 1537 0044 08       		.uleb128 0x8
 1538 0045 3A       		.uleb128 0x3a
 1539 0046 21       		.uleb128 0x21
ARM GAS  C:\Users\DEVELO~1\AppData\Local\Temp\cc1go5hK.s 			page 28


 1540 0047 01       		.sleb128 1
 1541 0048 3B       		.uleb128 0x3b
 1542 0049 0B       		.uleb128 0xb
 1543 004a 39       		.uleb128 0x39
 1544 004b 0B       		.uleb128 0xb
 1545 004c 49       		.uleb128 0x49
 1546 004d 13       		.uleb128 0x13
 1547 004e 02       		.uleb128 0x2
 1548 004f 17       		.uleb128 0x17
 1549 0050 B742     		.uleb128 0x2137
 1550 0052 17       		.uleb128 0x17
 1551 0053 00       		.byte	0
 1552 0054 00       		.byte	0
 1553 0055 08       		.uleb128 0x8
 1554 0056 05       		.uleb128 0x5
 1555 0057 00       		.byte	0
 1556 0058 31       		.uleb128 0x31
 1557 0059 13       		.uleb128 0x13
 1558 005a 00       		.byte	0
 1559 005b 00       		.byte	0
 1560 005c 09       		.uleb128 0x9
 1561 005d 0F       		.uleb128 0xf
 1562 005e 00       		.byte	0
 1563 005f 0B       		.uleb128 0xb
 1564 0060 21       		.uleb128 0x21
 1565 0061 04       		.sleb128 4
 1566 0062 49       		.uleb128 0x49
 1567 0063 13       		.uleb128 0x13
 1568 0064 00       		.byte	0
 1569 0065 00       		.byte	0
 1570 0066 0A       		.uleb128 0xa
 1571 0067 01       		.uleb128 0x1
 1572 0068 01       		.byte	0x1
 1573 0069 49       		.uleb128 0x49
 1574 006a 13       		.uleb128 0x13
 1575 006b 01       		.uleb128 0x1
 1576 006c 13       		.uleb128 0x13
 1577 006d 00       		.byte	0
 1578 006e 00       		.byte	0
 1579 006f 0B       		.uleb128 0xb
 1580 0070 21       		.uleb128 0x21
 1581 0071 00       		.byte	0
 1582 0072 49       		.uleb128 0x49
 1583 0073 13       		.uleb128 0x13
 1584 0074 2F       		.uleb128 0x2f
 1585 0075 0B       		.uleb128 0xb
 1586 0076 00       		.byte	0
 1587 0077 00       		.byte	0
 1588 0078 0C       		.uleb128 0xc
 1589 0079 1D       		.uleb128 0x1d
 1590 007a 01       		.byte	0x1
 1591 007b 31       		.uleb128 0x31
 1592 007c 13       		.uleb128 0x13
 1593 007d 52       		.uleb128 0x52
 1594 007e 01       		.uleb128 0x1
 1595 007f B842     		.uleb128 0x2138
 1596 0081 0B       		.uleb128 0xb
ARM GAS  C:\Users\DEVELO~1\AppData\Local\Temp\cc1go5hK.s 			page 29


 1597 0082 55       		.uleb128 0x55
 1598 0083 17       		.uleb128 0x17
 1599 0084 58       		.uleb128 0x58
 1600 0085 21       		.uleb128 0x21
 1601 0086 01       		.sleb128 1
 1602 0087 59       		.uleb128 0x59
 1603 0088 21       		.uleb128 0x21
 1604 0089 BA01     		.sleb128 186
 1605 008b 57       		.uleb128 0x57
 1606 008c 21       		.uleb128 0x21
 1607 008d 09       		.sleb128 9
 1608 008e 00       		.byte	0
 1609 008f 00       		.byte	0
 1610 0090 0D       		.uleb128 0xd
 1611 0091 2E       		.uleb128 0x2e
 1612 0092 01       		.byte	0x1
 1613 0093 3F       		.uleb128 0x3f
 1614 0094 19       		.uleb128 0x19
 1615 0095 03       		.uleb128 0x3
 1616 0096 0E       		.uleb128 0xe
 1617 0097 3A       		.uleb128 0x3a
 1618 0098 21       		.uleb128 0x21
 1619 0099 01       		.sleb128 1
 1620 009a 3B       		.uleb128 0x3b
 1621 009b 0B       		.uleb128 0xb
 1622 009c 39       		.uleb128 0x39
 1623 009d 0B       		.uleb128 0xb
 1624 009e 27       		.uleb128 0x27
 1625 009f 19       		.uleb128 0x19
 1626 00a0 49       		.uleb128 0x49
 1627 00a1 13       		.uleb128 0x13
 1628 00a2 11       		.uleb128 0x11
 1629 00a3 01       		.uleb128 0x1
 1630 00a4 12       		.uleb128 0x12
 1631 00a5 06       		.uleb128 0x6
 1632 00a6 40       		.uleb128 0x40
 1633 00a7 18       		.uleb128 0x18
 1634 00a8 7A       		.uleb128 0x7a
 1635 00a9 19       		.uleb128 0x19
 1636 00aa 01       		.uleb128 0x1
 1637 00ab 13       		.uleb128 0x13
 1638 00ac 00       		.byte	0
 1639 00ad 00       		.byte	0
 1640 00ae 0E       		.uleb128 0xe
 1641 00af 05       		.uleb128 0x5
 1642 00b0 00       		.byte	0
 1643 00b1 03       		.uleb128 0x3
 1644 00b2 0E       		.uleb128 0xe
 1645 00b3 3A       		.uleb128 0x3a
 1646 00b4 21       		.uleb128 0x21
 1647 00b5 01       		.sleb128 1
 1648 00b6 3B       		.uleb128 0x3b
 1649 00b7 0B       		.uleb128 0xb
 1650 00b8 39       		.uleb128 0x39
 1651 00b9 0B       		.uleb128 0xb
 1652 00ba 49       		.uleb128 0x49
 1653 00bb 13       		.uleb128 0x13
ARM GAS  C:\Users\DEVELO~1\AppData\Local\Temp\cc1go5hK.s 			page 30


 1654 00bc 02       		.uleb128 0x2
 1655 00bd 17       		.uleb128 0x17
 1656 00be B742     		.uleb128 0x2137
 1657 00c0 17       		.uleb128 0x17
 1658 00c1 00       		.byte	0
 1659 00c2 00       		.byte	0
 1660 00c3 0F       		.uleb128 0xf
 1661 00c4 34       		.uleb128 0x34
 1662 00c5 00       		.byte	0
 1663 00c6 03       		.uleb128 0x3
 1664 00c7 0E       		.uleb128 0xe
 1665 00c8 49       		.uleb128 0x49
 1666 00c9 13       		.uleb128 0x13
 1667 00ca 34       		.uleb128 0x34
 1668 00cb 19       		.uleb128 0x19
 1669 00cc 00       		.byte	0
 1670 00cd 00       		.byte	0
 1671 00ce 10       		.uleb128 0x10
 1672 00cf 34       		.uleb128 0x34
 1673 00d0 00       		.byte	0
 1674 00d1 03       		.uleb128 0x3
 1675 00d2 08       		.uleb128 0x8
 1676 00d3 3A       		.uleb128 0x3a
 1677 00d4 21       		.uleb128 0x21
 1678 00d5 01       		.sleb128 1
 1679 00d6 3B       		.uleb128 0x3b
 1680 00d7 0B       		.uleb128 0xb
 1681 00d8 39       		.uleb128 0x39
 1682 00d9 0B       		.uleb128 0xb
 1683 00da 49       		.uleb128 0x49
 1684 00db 13       		.uleb128 0x13
 1685 00dc 02       		.uleb128 0x2
 1686 00dd 17       		.uleb128 0x17
 1687 00de B742     		.uleb128 0x2137
 1688 00e0 17       		.uleb128 0x17
 1689 00e1 00       		.byte	0
 1690 00e2 00       		.byte	0
 1691 00e3 11       		.uleb128 0x11
 1692 00e4 34       		.uleb128 0x34
 1693 00e5 00       		.byte	0
 1694 00e6 03       		.uleb128 0x3
 1695 00e7 0E       		.uleb128 0xe
 1696 00e8 3A       		.uleb128 0x3a
 1697 00e9 21       		.uleb128 0x21
 1698 00ea 02       		.sleb128 2
 1699 00eb 3B       		.uleb128 0x3b
 1700 00ec 0B       		.uleb128 0xb
 1701 00ed 39       		.uleb128 0x39
 1702 00ee 21       		.uleb128 0x21
 1703 00ef 1C       		.sleb128 28
 1704 00f0 49       		.uleb128 0x49
 1705 00f1 13       		.uleb128 0x13
 1706 00f2 3F       		.uleb128 0x3f
 1707 00f3 19       		.uleb128 0x19
 1708 00f4 3C       		.uleb128 0x3c
 1709 00f5 19       		.uleb128 0x19
 1710 00f6 00       		.byte	0
ARM GAS  C:\Users\DEVELO~1\AppData\Local\Temp\cc1go5hK.s 			page 31


 1711 00f7 00       		.byte	0
 1712 00f8 12       		.uleb128 0x12
 1713 00f9 34       		.uleb128 0x34
 1714 00fa 00       		.byte	0
 1715 00fb 47       		.uleb128 0x47
 1716 00fc 13       		.uleb128 0x13
 1717 00fd 3A       		.uleb128 0x3a
 1718 00fe 21       		.uleb128 0x21
 1719 00ff 01       		.sleb128 1
 1720 0100 3B       		.uleb128 0x3b
 1721 0101 0B       		.uleb128 0xb
 1722 0102 39       		.uleb128 0x39
 1723 0103 21       		.uleb128 0x21
 1724 0104 1D       		.sleb128 29
 1725 0105 49       		.uleb128 0x49
 1726 0106 13       		.uleb128 0x13
 1727 0107 02       		.uleb128 0x2
 1728 0108 18       		.uleb128 0x18
 1729 0109 00       		.byte	0
 1730 010a 00       		.byte	0
 1731 010b 13       		.uleb128 0x13
 1732 010c 05       		.uleb128 0x5
 1733 010d 00       		.byte	0
 1734 010e 03       		.uleb128 0x3
 1735 010f 0E       		.uleb128 0xe
 1736 0110 3A       		.uleb128 0x3a
 1737 0111 0B       		.uleb128 0xb
 1738 0112 3B       		.uleb128 0x3b
 1739 0113 0B       		.uleb128 0xb
 1740 0114 39       		.uleb128 0x39
 1741 0115 0B       		.uleb128 0xb
 1742 0116 49       		.uleb128 0x49
 1743 0117 13       		.uleb128 0x13
 1744 0118 00       		.byte	0
 1745 0119 00       		.byte	0
 1746 011a 14       		.uleb128 0x14
 1747 011b 05       		.uleb128 0x5
 1748 011c 00       		.byte	0
 1749 011d 03       		.uleb128 0x3
 1750 011e 08       		.uleb128 0x8
 1751 011f 3A       		.uleb128 0x3a
 1752 0120 0B       		.uleb128 0xb
 1753 0121 3B       		.uleb128 0x3b
 1754 0122 0B       		.uleb128 0xb
 1755 0123 39       		.uleb128 0x39
 1756 0124 0B       		.uleb128 0xb
 1757 0125 49       		.uleb128 0x49
 1758 0126 13       		.uleb128 0x13
 1759 0127 00       		.byte	0
 1760 0128 00       		.byte	0
 1761 0129 15       		.uleb128 0x15
 1762 012a 34       		.uleb128 0x34
 1763 012b 00       		.byte	0
 1764 012c 03       		.uleb128 0x3
 1765 012d 0E       		.uleb128 0xe
 1766 012e 3A       		.uleb128 0x3a
 1767 012f 21       		.uleb128 0x21
ARM GAS  C:\Users\DEVELO~1\AppData\Local\Temp\cc1go5hK.s 			page 32


 1768 0130 02       		.sleb128 2
 1769 0131 3B       		.uleb128 0x3b
 1770 0132 0B       		.uleb128 0xb
 1771 0133 39       		.uleb128 0x39
 1772 0134 21       		.uleb128 0x21
 1773 0135 0D       		.sleb128 13
 1774 0136 49       		.uleb128 0x49
 1775 0137 13       		.uleb128 0x13
 1776 0138 00       		.byte	0
 1777 0139 00       		.byte	0
 1778 013a 16       		.uleb128 0x16
 1779 013b 0D       		.uleb128 0xd
 1780 013c 00       		.byte	0
 1781 013d 03       		.uleb128 0x3
 1782 013e 0E       		.uleb128 0xe
 1783 013f 3A       		.uleb128 0x3a
 1784 0140 21       		.uleb128 0x21
 1785 0141 02       		.sleb128 2
 1786 0142 3B       		.uleb128 0x3b
 1787 0143 0B       		.uleb128 0xb
 1788 0144 39       		.uleb128 0x39
 1789 0145 0B       		.uleb128 0xb
 1790 0146 49       		.uleb128 0x49
 1791 0147 13       		.uleb128 0x13
 1792 0148 38       		.uleb128 0x38
 1793 0149 0B       		.uleb128 0xb
 1794 014a 00       		.byte	0
 1795 014b 00       		.byte	0
 1796 014c 17       		.uleb128 0x17
 1797 014d 05       		.uleb128 0x5
 1798 014e 00       		.byte	0
 1799 014f 31       		.uleb128 0x31
 1800 0150 13       		.uleb128 0x13
 1801 0151 02       		.uleb128 0x2
 1802 0152 18       		.uleb128 0x18
 1803 0153 00       		.byte	0
 1804 0154 00       		.byte	0
 1805 0155 18       		.uleb128 0x18
 1806 0156 34       		.uleb128 0x34
 1807 0157 00       		.byte	0
 1808 0158 03       		.uleb128 0x3
 1809 0159 08       		.uleb128 0x8
 1810 015a 3A       		.uleb128 0x3a
 1811 015b 0B       		.uleb128 0xb
 1812 015c 3B       		.uleb128 0x3b
 1813 015d 0B       		.uleb128 0xb
 1814 015e 39       		.uleb128 0x39
 1815 015f 0B       		.uleb128 0xb
 1816 0160 49       		.uleb128 0x49
 1817 0161 13       		.uleb128 0x13
 1818 0162 00       		.byte	0
 1819 0163 00       		.byte	0
 1820 0164 19       		.uleb128 0x19
 1821 0165 05       		.uleb128 0x5
 1822 0166 00       		.byte	0
 1823 0167 03       		.uleb128 0x3
 1824 0168 08       		.uleb128 0x8
ARM GAS  C:\Users\DEVELO~1\AppData\Local\Temp\cc1go5hK.s 			page 33


 1825 0169 3A       		.uleb128 0x3a
 1826 016a 21       		.uleb128 0x21
 1827 016b 01       		.sleb128 1
 1828 016c 3B       		.uleb128 0x3b
 1829 016d 0B       		.uleb128 0xb
 1830 016e 39       		.uleb128 0x39
 1831 016f 0B       		.uleb128 0xb
 1832 0170 49       		.uleb128 0x49
 1833 0171 13       		.uleb128 0x13
 1834 0172 02       		.uleb128 0x2
 1835 0173 18       		.uleb128 0x18
 1836 0174 00       		.byte	0
 1837 0175 00       		.byte	0
 1838 0176 1A       		.uleb128 0x1a
 1839 0177 34       		.uleb128 0x34
 1840 0178 00       		.byte	0
 1841 0179 03       		.uleb128 0x3
 1842 017a 0E       		.uleb128 0xe
 1843 017b 3A       		.uleb128 0x3a
 1844 017c 21       		.uleb128 0x21
 1845 017d 01       		.sleb128 1
 1846 017e 3B       		.uleb128 0x3b
 1847 017f 0B       		.uleb128 0xb
 1848 0180 39       		.uleb128 0x39
 1849 0181 0B       		.uleb128 0xb
 1850 0182 49       		.uleb128 0x49
 1851 0183 13       		.uleb128 0x13
 1852 0184 02       		.uleb128 0x2
 1853 0185 17       		.uleb128 0x17
 1854 0186 B742     		.uleb128 0x2137
 1855 0188 17       		.uleb128 0x17
 1856 0189 00       		.byte	0
 1857 018a 00       		.byte	0
 1858 018b 1B       		.uleb128 0x1b
 1859 018c 11       		.uleb128 0x11
 1860 018d 01       		.byte	0x1
 1861 018e 25       		.uleb128 0x25
 1862 018f 0E       		.uleb128 0xe
 1863 0190 13       		.uleb128 0x13
 1864 0191 0B       		.uleb128 0xb
 1865 0192 03       		.uleb128 0x3
 1866 0193 0E       		.uleb128 0xe
 1867 0194 1B       		.uleb128 0x1b
 1868 0195 0E       		.uleb128 0xe
 1869 0196 55       		.uleb128 0x55
 1870 0197 17       		.uleb128 0x17
 1871 0198 11       		.uleb128 0x11
 1872 0199 01       		.uleb128 0x1
 1873 019a 10       		.uleb128 0x10
 1874 019b 17       		.uleb128 0x17
 1875 019c 00       		.byte	0
 1876 019d 00       		.byte	0
 1877 019e 1C       		.uleb128 0x1c
 1878 019f 24       		.uleb128 0x24
 1879 01a0 00       		.byte	0
 1880 01a1 0B       		.uleb128 0xb
 1881 01a2 0B       		.uleb128 0xb
ARM GAS  C:\Users\DEVELO~1\AppData\Local\Temp\cc1go5hK.s 			page 34


 1882 01a3 3E       		.uleb128 0x3e
 1883 01a4 0B       		.uleb128 0xb
 1884 01a5 03       		.uleb128 0x3
 1885 01a6 08       		.uleb128 0x8
 1886 01a7 00       		.byte	0
 1887 01a8 00       		.byte	0
 1888 01a9 1D       		.uleb128 0x1d
 1889 01aa 0F       		.uleb128 0xf
 1890 01ab 00       		.byte	0
 1891 01ac 0B       		.uleb128 0xb
 1892 01ad 0B       		.uleb128 0xb
 1893 01ae 00       		.byte	0
 1894 01af 00       		.byte	0
 1895 01b0 1E       		.uleb128 0x1e
 1896 01b1 13       		.uleb128 0x13
 1897 01b2 01       		.byte	0x1
 1898 01b3 0B       		.uleb128 0xb
 1899 01b4 0B       		.uleb128 0xb
 1900 01b5 3A       		.uleb128 0x3a
 1901 01b6 0B       		.uleb128 0xb
 1902 01b7 3B       		.uleb128 0x3b
 1903 01b8 0B       		.uleb128 0xb
 1904 01b9 39       		.uleb128 0x39
 1905 01ba 0B       		.uleb128 0xb
 1906 01bb 01       		.uleb128 0x1
 1907 01bc 13       		.uleb128 0x13
 1908 01bd 00       		.byte	0
 1909 01be 00       		.byte	0
 1910 01bf 1F       		.uleb128 0x1f
 1911 01c0 21       		.uleb128 0x21
 1912 01c1 00       		.byte	0
 1913 01c2 00       		.byte	0
 1914 01c3 00       		.byte	0
 1915 01c4 20       		.uleb128 0x20
 1916 01c5 2E       		.uleb128 0x2e
 1917 01c6 01       		.byte	0x1
 1918 01c7 3F       		.uleb128 0x3f
 1919 01c8 19       		.uleb128 0x19
 1920 01c9 03       		.uleb128 0x3
 1921 01ca 0E       		.uleb128 0xe
 1922 01cb 3A       		.uleb128 0x3a
 1923 01cc 0B       		.uleb128 0xb
 1924 01cd 3B       		.uleb128 0x3b
 1925 01ce 05       		.uleb128 0x5
 1926 01cf 39       		.uleb128 0x39
 1927 01d0 0B       		.uleb128 0xb
 1928 01d1 27       		.uleb128 0x27
 1929 01d2 19       		.uleb128 0x19
 1930 01d3 49       		.uleb128 0x49
 1931 01d4 13       		.uleb128 0x13
 1932 01d5 11       		.uleb128 0x11
 1933 01d6 01       		.uleb128 0x1
 1934 01d7 12       		.uleb128 0x12
 1935 01d8 06       		.uleb128 0x6
 1936 01d9 40       		.uleb128 0x40
 1937 01da 18       		.uleb128 0x18
 1938 01db 7A       		.uleb128 0x7a
ARM GAS  C:\Users\DEVELO~1\AppData\Local\Temp\cc1go5hK.s 			page 35


 1939 01dc 19       		.uleb128 0x19
 1940 01dd 01       		.uleb128 0x1
 1941 01de 13       		.uleb128 0x13
 1942 01df 00       		.byte	0
 1943 01e0 00       		.byte	0
 1944 01e1 21       		.uleb128 0x21
 1945 01e2 05       		.uleb128 0x5
 1946 01e3 00       		.byte	0
 1947 01e4 03       		.uleb128 0x3
 1948 01e5 08       		.uleb128 0x8
 1949 01e6 3A       		.uleb128 0x3a
 1950 01e7 0B       		.uleb128 0xb
 1951 01e8 3B       		.uleb128 0x3b
 1952 01e9 05       		.uleb128 0x5
 1953 01ea 39       		.uleb128 0x39
 1954 01eb 0B       		.uleb128 0xb
 1955 01ec 49       		.uleb128 0x49
 1956 01ed 13       		.uleb128 0x13
 1957 01ee 02       		.uleb128 0x2
 1958 01ef 17       		.uleb128 0x17
 1959 01f0 B742     		.uleb128 0x2137
 1960 01f2 17       		.uleb128 0x17
 1961 01f3 00       		.byte	0
 1962 01f4 00       		.byte	0
 1963 01f5 22       		.uleb128 0x22
 1964 01f6 1D       		.uleb128 0x1d
 1965 01f7 01       		.byte	0x1
 1966 01f8 31       		.uleb128 0x31
 1967 01f9 13       		.uleb128 0x13
 1968 01fa 52       		.uleb128 0x52
 1969 01fb 01       		.uleb128 0x1
 1970 01fc B842     		.uleb128 0x2138
 1971 01fe 0B       		.uleb128 0xb
 1972 01ff 55       		.uleb128 0x55
 1973 0200 17       		.uleb128 0x17
 1974 0201 58       		.uleb128 0x58
 1975 0202 0B       		.uleb128 0xb
 1976 0203 59       		.uleb128 0x59
 1977 0204 05       		.uleb128 0x5
 1978 0205 57       		.uleb128 0x57
 1979 0206 0B       		.uleb128 0xb
 1980 0207 00       		.byte	0
 1981 0208 00       		.byte	0
 1982 0209 23       		.uleb128 0x23
 1983 020a 05       		.uleb128 0x5
 1984 020b 00       		.byte	0
 1985 020c 31       		.uleb128 0x31
 1986 020d 13       		.uleb128 0x13
 1987 020e 1C       		.uleb128 0x1c
 1988 020f 0B       		.uleb128 0xb
 1989 0210 00       		.byte	0
 1990 0211 00       		.byte	0
 1991 0212 24       		.uleb128 0x24
 1992 0213 26       		.uleb128 0x26
 1993 0214 00       		.byte	0
 1994 0215 00       		.byte	0
 1995 0216 00       		.byte	0
ARM GAS  C:\Users\DEVELO~1\AppData\Local\Temp\cc1go5hK.s 			page 36


 1996 0217 25       		.uleb128 0x25
 1997 0218 1D       		.uleb128 0x1d
 1998 0219 01       		.byte	0x1
 1999 021a 31       		.uleb128 0x31
 2000 021b 13       		.uleb128 0x13
 2001 021c 11       		.uleb128 0x11
 2002 021d 01       		.uleb128 0x1
 2003 021e 12       		.uleb128 0x12
 2004 021f 06       		.uleb128 0x6
 2005 0220 58       		.uleb128 0x58
 2006 0221 0B       		.uleb128 0xb
 2007 0222 59       		.uleb128 0x59
 2008 0223 05       		.uleb128 0x5
 2009 0224 57       		.uleb128 0x57
 2010 0225 0B       		.uleb128 0xb
 2011 0226 00       		.byte	0
 2012 0227 00       		.byte	0
 2013 0228 26       		.uleb128 0x26
 2014 0229 1D       		.uleb128 0x1d
 2015 022a 01       		.byte	0x1
 2016 022b 31       		.uleb128 0x31
 2017 022c 13       		.uleb128 0x13
 2018 022d 11       		.uleb128 0x11
 2019 022e 01       		.uleb128 0x1
 2020 022f 12       		.uleb128 0x12
 2021 0230 06       		.uleb128 0x6
 2022 0231 58       		.uleb128 0x58
 2023 0232 0B       		.uleb128 0xb
 2024 0233 59       		.uleb128 0x59
 2025 0234 0B       		.uleb128 0xb
 2026 0235 57       		.uleb128 0x57
 2027 0236 0B       		.uleb128 0xb
 2028 0237 00       		.byte	0
 2029 0238 00       		.byte	0
 2030 0239 27       		.uleb128 0x27
 2031 023a 2E       		.uleb128 0x2e
 2032 023b 01       		.byte	0x1
 2033 023c 3F       		.uleb128 0x3f
 2034 023d 19       		.uleb128 0x19
 2035 023e 03       		.uleb128 0x3
 2036 023f 0E       		.uleb128 0xe
 2037 0240 3A       		.uleb128 0x3a
 2038 0241 0B       		.uleb128 0xb
 2039 0242 3B       		.uleb128 0x3b
 2040 0243 0B       		.uleb128 0xb
 2041 0244 39       		.uleb128 0x39
 2042 0245 0B       		.uleb128 0xb
 2043 0246 27       		.uleb128 0x27
 2044 0247 19       		.uleb128 0x19
 2045 0248 49       		.uleb128 0x49
 2046 0249 13       		.uleb128 0x13
 2047 024a 20       		.uleb128 0x20
 2048 024b 0B       		.uleb128 0xb
 2049 024c 01       		.uleb128 0x1
 2050 024d 13       		.uleb128 0x13
 2051 024e 00       		.byte	0
 2052 024f 00       		.byte	0
ARM GAS  C:\Users\DEVELO~1\AppData\Local\Temp\cc1go5hK.s 			page 37


 2053 0250 28       		.uleb128 0x28
 2054 0251 2E       		.uleb128 0x2e
 2055 0252 01       		.byte	0x1
 2056 0253 03       		.uleb128 0x3
 2057 0254 0E       		.uleb128 0xe
 2058 0255 3A       		.uleb128 0x3a
 2059 0256 0B       		.uleb128 0xb
 2060 0257 3B       		.uleb128 0x3b
 2061 0258 0B       		.uleb128 0xb
 2062 0259 39       		.uleb128 0x39
 2063 025a 0B       		.uleb128 0xb
 2064 025b 27       		.uleb128 0x27
 2065 025c 19       		.uleb128 0x19
 2066 025d 49       		.uleb128 0x49
 2067 025e 13       		.uleb128 0x13
 2068 025f 20       		.uleb128 0x20
 2069 0260 0B       		.uleb128 0xb
 2070 0261 01       		.uleb128 0x1
 2071 0262 13       		.uleb128 0x13
 2072 0263 00       		.byte	0
 2073 0264 00       		.byte	0
 2074 0265 29       		.uleb128 0x29
 2075 0266 2E       		.uleb128 0x2e
 2076 0267 01       		.byte	0x1
 2077 0268 31       		.uleb128 0x31
 2078 0269 13       		.uleb128 0x13
 2079 026a 11       		.uleb128 0x11
 2080 026b 01       		.uleb128 0x1
 2081 026c 12       		.uleb128 0x12
 2082 026d 06       		.uleb128 0x6
 2083 026e 40       		.uleb128 0x40
 2084 026f 18       		.uleb128 0x18
 2085 0270 7A       		.uleb128 0x7a
 2086 0271 19       		.uleb128 0x19
 2087 0272 00       		.byte	0
 2088 0273 00       		.byte	0
 2089 0274 00       		.byte	0
 2090              		.section	.debug_loclists,"",%progbits
 2091 0000 85050000 		.4byte	.Ldebug_loc3-.Ldebug_loc2
 2092              	.Ldebug_loc2:
 2093 0004 0500     		.2byte	0x5
 2094 0006 04       		.byte	0x4
 2095 0007 00       		.byte	0
 2096 0008 00000000 		.4byte	0
 2097              	.Ldebug_loc0:
 2098              	.LVUS47:
 2099 000c 00       		.uleb128 0
 2100 000d 00       		.uleb128 .LVU180
 2101 000e 00       		.uleb128 .LVU180
 2102 000f 00       		.uleb128 0
 2103              	.LLST47:
 2104 0010 06       		.byte	0x6
 2105 0011 00000000 		.4byte	.LVL55
 2106 0015 04       		.byte	0x4
 2107 0016 00       		.uleb128 .LVL55-.LVL55
 2108 0017 08       		.uleb128 .LVL56-.LVL55
 2109 0018 01       		.uleb128 0x1
ARM GAS  C:\Users\DEVELO~1\AppData\Local\Temp\cc1go5hK.s 			page 38


 2110 0019 50       		.byte	0x50
 2111 001a 04       		.byte	0x4
 2112 001b 08       		.uleb128 .LVL56-.LVL55
 2113 001c 38       		.uleb128 .LFE357-.LVL55
 2114 001d 01       		.uleb128 0x1
 2115 001e 51       		.byte	0x51
 2116 001f 00       		.byte	0
 2117              	.LVUS49:
 2118 0020 03       		.uleb128 .LVU174
 2119 0021 00       		.uleb128 .LVU180
 2120 0022 00       		.uleb128 .LVU180
 2121 0023 00       		.uleb128 0
 2122              	.LLST49:
 2123 0024 06       		.byte	0x6
 2124 0025 00000000 		.4byte	.LVL55
 2125 0029 04       		.byte	0x4
 2126 002a 00       		.uleb128 .LVL55-.LVL55
 2127 002b 08       		.uleb128 .LVL56-.LVL55
 2128 002c 01       		.uleb128 0x1
 2129 002d 50       		.byte	0x50
 2130 002e 04       		.byte	0x4
 2131 002f 08       		.uleb128 .LVL56-.LVL55
 2132 0030 38       		.uleb128 .LFE357-.LVL55
 2133 0031 01       		.uleb128 0x1
 2134 0032 51       		.byte	0x51
 2135 0033 00       		.byte	0
 2136              	.LVUS50:
 2137 0034 04       		.uleb128 .LVU175
 2138 0035 00       		.uleb128 .LVU181
 2139 0036 00       		.uleb128 .LVU181
 2140 0037 00       		.uleb128 .LVU182
 2141 0038 00       		.uleb128 .LVU182
 2142 0039 0C       		.uleb128 .LVU195
 2143 003a 0C       		.uleb128 .LVU195
 2144 003b 00       		.uleb128 .LVU198
 2145 003c 00       		.uleb128 .LVU198
 2146 003d 00       		.uleb128 .LVU200
 2147 003e 00       		.uleb128 .LVU200
 2148 003f 00       		.uleb128 0
 2149              	.LLST50:
 2150 0040 06       		.byte	0x6
 2151 0041 00000000 		.4byte	.LVL55
 2152 0045 04       		.byte	0x4
 2153 0046 00       		.uleb128 .LVL55-.LVL55
 2154 0047 0E       		.uleb128 .LVL57-.LVL55
 2155 0048 06       		.uleb128 0x6
 2156 0049 03       		.byte	0x3
 2157 004a 00000000 		.4byte	__ch_mem_executable_areas
 2158 004e 9F       		.byte	0x9f
 2159 004f 04       		.byte	0x4
 2160 0050 0E       		.uleb128 .LVL57-.LVL55
 2161 0051 12       		.uleb128 .LVL58-.LVL55
 2162 0052 03       		.uleb128 0x3
 2163 0053 7C       		.byte	0x7c
 2164 0054 08       		.sleb128 8
 2165 0055 9F       		.byte	0x9f
 2166 0056 04       		.byte	0x4
ARM GAS  C:\Users\DEVELO~1\AppData\Local\Temp\cc1go5hK.s 			page 39


 2167 0057 12       		.uleb128 .LVL58-.LVL55
 2168 0058 16       		.uleb128 .LVL59-.LVL55
 2169 0059 01       		.uleb128 0x1
 2170 005a 5C       		.byte	0x5c
 2171 005b 04       		.byte	0x4
 2172 005c 16       		.uleb128 .LVL59-.LVL55
 2173 005d 2E       		.uleb128 .LVL60-.LVL55
 2174 005e 03       		.uleb128 0x3
 2175 005f 7C       		.byte	0x7c
 2176 0060 08       		.sleb128 8
 2177 0061 9F       		.byte	0x9f
 2178 0062 04       		.byte	0x4
 2179 0063 2E       		.uleb128 .LVL60-.LVL55
 2180 0064 30       		.uleb128 .LVL61-.LVL55
 2181 0065 01       		.uleb128 0x1
 2182 0066 5C       		.byte	0x5c
 2183 0067 04       		.byte	0x4
 2184 0068 30       		.uleb128 .LVL61-.LVL55
 2185 0069 38       		.uleb128 .LFE357-.LVL55
 2186 006a 06       		.uleb128 0x6
 2187 006b 03       		.byte	0x3
 2188 006c 00000000 		.4byte	__ch_mem_executable_areas
 2189 0070 9F       		.byte	0x9f
 2190 0071 00       		.byte	0
 2191              	.LVUS52:
 2192 0072 01       		.uleb128 .LVU184
 2193 0073 0A       		.uleb128 .LVU193
 2194              	.LLST52:
 2195 0074 08       		.byte	0x8
 2196 0075 16000000 		.4byte	.LVL59
 2197 0079 00       		.uleb128 .LVL59-.LVL59
 2198 007a 02       		.uleb128 0x2
 2199 007b 31       		.byte	0x31
 2200 007c 9F       		.byte	0x9f
 2201 007d 00       		.byte	0
 2202              	.LVUS53:
 2203 007e 01       		.uleb128 .LVU184
 2204 007f 0A       		.uleb128 .LVU193
 2205              	.LLST53:
 2206 0080 08       		.byte	0x8
 2207 0081 16000000 		.4byte	.LVL59
 2208 0085 00       		.uleb128 .LVL59-.LVL59
 2209 0086 01       		.uleb128 0x1
 2210 0087 51       		.byte	0x51
 2211 0088 00       		.byte	0
 2212              	.LVUS54:
 2213 0089 01       		.uleb128 .LVU184
 2214 008a 0A       		.uleb128 .LVU193
 2215              	.LLST54:
 2216 008b 08       		.byte	0x8
 2217 008c 16000000 		.4byte	.LVL59
 2218 0090 00       		.uleb128 .LVL59-.LVL59
 2219 0091 01       		.uleb128 0x1
 2220 0092 5C       		.byte	0x5c
 2221 0093 00       		.byte	0
 2222              	.LVUS55:
 2223 0094 03       		.uleb128 .LVU186
ARM GAS  C:\Users\DEVELO~1\AppData\Local\Temp\cc1go5hK.s 			page 40


 2224 0095 0A       		.uleb128 .LVU193
 2225              	.LLST55:
 2226 0096 08       		.byte	0x8
 2227 0097 16000000 		.4byte	.LVL59
 2228 009b 00       		.uleb128 .LVL59-.LVL59
 2229 009c 01       		.uleb128 0x1
 2230 009d 52       		.byte	0x52
 2231 009e 00       		.byte	0
 2232              	.LVUS56:
 2233 009f 04       		.uleb128 .LVU187
 2234 00a0 0A       		.uleb128 .LVU193
 2235              	.LLST56:
 2236 00a1 08       		.byte	0x8
 2237 00a2 16000000 		.4byte	.LVL59
 2238 00a6 00       		.uleb128 .LVL59-.LVL59
 2239 00a7 09       		.uleb128 0x9
 2240 00a8 72       		.byte	0x72
 2241 00a9 00       		.sleb128 0
 2242 00aa 7C       		.byte	0x7c
 2243 00ab 04       		.sleb128 4
 2244 00ac 06       		.byte	0x6
 2245 00ad 22       		.byte	0x22
 2246 00ae 31       		.byte	0x31
 2247 00af 1C       		.byte	0x1c
 2248 00b0 9F       		.byte	0x9f
 2249 00b1 00       		.byte	0
 2250              	.LVUS57:
 2251 00b2 05       		.uleb128 .LVU188
 2252 00b3 0A       		.uleb128 .LVU193
 2253              	.LLST57:
 2254 00b4 08       		.byte	0x8
 2255 00b5 16000000 		.4byte	.LVL59
 2256 00b9 00       		.uleb128 .LVL59-.LVL59
 2257 00ba 01       		.uleb128 0x1
 2258 00bb 51       		.byte	0x51
 2259 00bc 00       		.byte	0
 2260              	.LVUS58:
 2261 00bd 06       		.uleb128 .LVU189
 2262 00be 0A       		.uleb128 .LVU193
 2263              	.LLST58:
 2264 00bf 08       		.byte	0x8
 2265 00c0 16000000 		.4byte	.LVL59
 2266 00c4 00       		.uleb128 .LVL59-.LVL59
 2267 00c5 01       		.uleb128 0x1
 2268 00c6 51       		.byte	0x51
 2269 00c7 00       		.byte	0
 2270              	.LVUS35:
 2271 00c8 00       		.uleb128 0
 2272 00c9 00       		.uleb128 .LVU137
 2273 00ca 00       		.uleb128 .LVU137
 2274 00cb 00       		.uleb128 .LVU138
 2275 00cc 00       		.uleb128 .LVU138
 2276 00cd 00       		.uleb128 .LVU141
 2277 00ce 00       		.uleb128 .LVU141
 2278 00cf 00       		.uleb128 0
 2279              	.LLST35:
 2280 00d0 06       		.byte	0x6
ARM GAS  C:\Users\DEVELO~1\AppData\Local\Temp\cc1go5hK.s 			page 41


 2281 00d1 00000000 		.4byte	.LVL41
 2282 00d5 04       		.byte	0x4
 2283 00d6 00       		.uleb128 .LVL41-.LVL41
 2284 00d7 08       		.uleb128 .LVL44-.LVL41
 2285 00d8 01       		.uleb128 0x1
 2286 00d9 50       		.byte	0x50
 2287 00da 04       		.byte	0x4
 2288 00db 08       		.uleb128 .LVL44-.LVL41
 2289 00dc 0A       		.uleb128 .LVL45-.LVL41
 2290 00dd 04       		.uleb128 0x4
 2291 00de A3       		.byte	0xa3
 2292 00df 01       		.uleb128 0x1
 2293 00e0 50       		.byte	0x50
 2294 00e1 9F       		.byte	0x9f
 2295 00e2 04       		.byte	0x4
 2296 00e3 0A       		.uleb128 .LVL45-.LVL41
 2297 00e4 10       		.uleb128 .LVL47-.LVL41
 2298 00e5 01       		.uleb128 0x1
 2299 00e6 50       		.byte	0x50
 2300 00e7 04       		.byte	0x4
 2301 00e8 10       		.uleb128 .LVL47-.LVL41
 2302 00e9 5C       		.uleb128 .LFE356-.LVL41
 2303 00ea 01       		.uleb128 0x1
 2304 00eb 5E       		.byte	0x5e
 2305 00ec 00       		.byte	0
 2306              	.LVUS36:
 2307 00ed 00       		.uleb128 0
 2308 00ee 00       		.uleb128 .LVU144
 2309 00ef 00       		.uleb128 .LVU144
 2310 00f0 00       		.uleb128 .LVU146
 2311 00f1 00       		.uleb128 .LVU146
 2312 00f2 00       		.uleb128 .LVU169
 2313 00f3 00       		.uleb128 .LVU169
 2314 00f4 00       		.uleb128 0
 2315              	.LLST36:
 2316 00f5 06       		.byte	0x6
 2317 00f6 00000000 		.4byte	.LVL41
 2318 00fa 04       		.byte	0x4
 2319 00fb 00       		.uleb128 .LVL41-.LVL41
 2320 00fc 1A       		.uleb128 .LVL48-.LVL41
 2321 00fd 01       		.uleb128 0x1
 2322 00fe 51       		.byte	0x51
 2323 00ff 04       		.byte	0x4
 2324 0100 1A       		.uleb128 .LVL48-.LVL41
 2325 0101 20       		.uleb128 .LVL49-.LVL41
 2326 0102 03       		.uleb128 0x3
 2327 0103 71       		.byte	0x71
 2328 0104 01       		.sleb128 1
 2329 0105 9F       		.byte	0x9f
 2330 0106 04       		.byte	0x4
 2331 0107 20       		.uleb128 .LVL49-.LVL41
 2332 0108 52       		.uleb128 .LVL54-.LVL41
 2333 0109 04       		.uleb128 0x4
 2334 010a A3       		.byte	0xa3
 2335 010b 01       		.uleb128 0x1
 2336 010c 51       		.byte	0x51
 2337 010d 9F       		.byte	0x9f
ARM GAS  C:\Users\DEVELO~1\AppData\Local\Temp\cc1go5hK.s 			page 42


 2338 010e 04       		.byte	0x4
 2339 010f 52       		.uleb128 .LVL54-.LVL41
 2340 0110 5C       		.uleb128 .LFE356-.LVL41
 2341 0111 01       		.uleb128 0x1
 2342 0112 51       		.byte	0x51
 2343 0113 00       		.byte	0
 2344              	.LVUS37:
 2345 0114 00       		.uleb128 0
 2346 0115 00       		.uleb128 .LVU134
 2347 0116 00       		.uleb128 .LVU134
 2348 0117 00       		.uleb128 .LVU135
 2349 0118 00       		.uleb128 .LVU135
 2350 0119 00       		.uleb128 0
 2351              	.LLST37:
 2352 011a 06       		.byte	0x6
 2353 011b 00000000 		.4byte	.LVL41
 2354 011f 04       		.byte	0x4
 2355 0120 00       		.uleb128 .LVL41-.LVL41
 2356 0121 02       		.uleb128 .LVL42-.LVL41
 2357 0122 01       		.uleb128 0x1
 2358 0123 52       		.byte	0x52
 2359 0124 04       		.byte	0x4
 2360 0125 02       		.uleb128 .LVL42-.LVL41
 2361 0126 04       		.uleb128 .LVL43-.LVL41
 2362 0127 03       		.uleb128 0x3
 2363 0128 72       		.byte	0x72
 2364 0129 01       		.sleb128 1
 2365 012a 9F       		.byte	0x9f
 2366 012b 04       		.byte	0x4
 2367 012c 04       		.uleb128 .LVL43-.LVL41
 2368 012d 5C       		.uleb128 .LFE356-.LVL41
 2369 012e 04       		.uleb128 0x4
 2370 012f A3       		.byte	0xa3
 2371 0130 01       		.uleb128 0x1
 2372 0131 52       		.byte	0x52
 2373 0132 9F       		.byte	0x9f
 2374 0133 00       		.byte	0
 2375              	.LVUS38:
 2376 0134 00       		.uleb128 .LVU139
 2377 0135 00       		.uleb128 .LVU147
 2378 0136 00       		.uleb128 .LVU147
 2379 0137 00       		.uleb128 .LVU149
 2380 0138 00       		.uleb128 .LVU149
 2381 0139 0C       		.uleb128 .LVU162
 2382 013a 0C       		.uleb128 .LVU162
 2383 013b 00       		.uleb128 .LVU167
 2384 013c 00       		.uleb128 .LVU169
 2385 013d 00       		.uleb128 0
 2386              	.LLST38:
 2387 013e 06       		.byte	0x6
 2388 013f 0E000000 		.4byte	.LVL46
 2389 0143 04       		.byte	0x4
 2390 0144 00       		.uleb128 .LVL46-.LVL46
 2391 0145 1A       		.uleb128 .LVL50-.LVL46
 2392 0146 06       		.uleb128 0x6
 2393 0147 03       		.byte	0x3
 2394 0148 00000000 		.4byte	__ch_mem_readable_areas
ARM GAS  C:\Users\DEVELO~1\AppData\Local\Temp\cc1go5hK.s 			page 43


 2395 014c 9F       		.byte	0x9f
 2396 014d 04       		.byte	0x4
 2397 014e 1A       		.uleb128 .LVL50-.LVL46
 2398 014f 1E       		.uleb128 .LVL51-.LVL46
 2399 0150 03       		.uleb128 0x3
 2400 0151 7C       		.byte	0x7c
 2401 0152 08       		.sleb128 8
 2402 0153 9F       		.byte	0x9f
 2403 0154 04       		.byte	0x4
 2404 0155 1E       		.uleb128 .LVL51-.LVL46
 2405 0156 22       		.uleb128 .LVL52-.LVL46
 2406 0157 01       		.uleb128 0x1
 2407 0158 5C       		.byte	0x5c
 2408 0159 04       		.byte	0x4
 2409 015a 22       		.uleb128 .LVL52-.LVL46
 2410 015b 42       		.uleb128 .LVL53-.LVL46
 2411 015c 03       		.uleb128 0x3
 2412 015d 7C       		.byte	0x7c
 2413 015e 08       		.sleb128 8
 2414 015f 9F       		.byte	0x9f
 2415 0160 04       		.byte	0x4
 2416 0161 44       		.uleb128 .LVL54-.LVL46
 2417 0162 4E       		.uleb128 .LFE356-.LVL46
 2418 0163 06       		.uleb128 0x6
 2419 0164 03       		.byte	0x3
 2420 0165 00000000 		.4byte	__ch_mem_readable_areas
 2421 0169 9F       		.byte	0x9f
 2422 016a 00       		.byte	0
 2423              	.LVUS40:
 2424 016b 01       		.uleb128 .LVU151
 2425 016c 0A       		.uleb128 .LVU160
 2426              	.LLST40:
 2427 016d 08       		.byte	0x8
 2428 016e 30000000 		.4byte	.LVL52
 2429 0172 00       		.uleb128 .LVL52-.LVL52
 2430 0173 04       		.uleb128 0x4
 2431 0174 A3       		.byte	0xa3
 2432 0175 01       		.uleb128 0x1
 2433 0176 51       		.byte	0x51
 2434 0177 9F       		.byte	0x9f
 2435 0178 00       		.byte	0
 2436              	.LVUS41:
 2437 0179 01       		.uleb128 .LVU151
 2438 017a 0A       		.uleb128 .LVU160
 2439              	.LLST41:
 2440 017b 08       		.byte	0x8
 2441 017c 30000000 		.4byte	.LVL52
 2442 0180 00       		.uleb128 .LVL52-.LVL52
 2443 0181 01       		.uleb128 0x1
 2444 0182 5E       		.byte	0x5e
 2445 0183 00       		.byte	0
 2446              	.LVUS42:
 2447 0184 01       		.uleb128 .LVU151
 2448 0185 0A       		.uleb128 .LVU160
 2449              	.LLST42:
 2450 0186 08       		.byte	0x8
 2451 0187 30000000 		.4byte	.LVL52
ARM GAS  C:\Users\DEVELO~1\AppData\Local\Temp\cc1go5hK.s 			page 44


 2452 018b 00       		.uleb128 .LVL52-.LVL52
 2453 018c 01       		.uleb128 0x1
 2454 018d 5C       		.byte	0x5c
 2455 018e 00       		.byte	0
 2456              	.LVUS43:
 2457 018f 03       		.uleb128 .LVU153
 2458 0190 0A       		.uleb128 .LVU160
 2459              	.LLST43:
 2460 0191 08       		.byte	0x8
 2461 0192 30000000 		.4byte	.LVL52
 2462 0196 00       		.uleb128 .LVL52-.LVL52
 2463 0197 01       		.uleb128 0x1
 2464 0198 53       		.byte	0x53
 2465 0199 00       		.byte	0
 2466              	.LVUS44:
 2467 019a 04       		.uleb128 .LVU154
 2468 019b 0A       		.uleb128 .LVU160
 2469              	.LLST44:
 2470 019c 08       		.byte	0x8
 2471 019d 30000000 		.4byte	.LVL52
 2472 01a1 00       		.uleb128 .LVL52-.LVL52
 2473 01a2 09       		.uleb128 0x9
 2474 01a3 73       		.byte	0x73
 2475 01a4 00       		.sleb128 0
 2476 01a5 7C       		.byte	0x7c
 2477 01a6 04       		.sleb128 4
 2478 01a7 06       		.byte	0x6
 2479 01a8 22       		.byte	0x22
 2480 01a9 31       		.byte	0x31
 2481 01aa 1C       		.byte	0x1c
 2482 01ab 9F       		.byte	0x9f
 2483 01ac 00       		.byte	0
 2484              	.LVUS45:
 2485 01ad 05       		.uleb128 .LVU155
 2486 01ae 0A       		.uleb128 .LVU160
 2487              	.LLST45:
 2488 01af 08       		.byte	0x8
 2489 01b0 30000000 		.4byte	.LVL52
 2490 01b4 00       		.uleb128 .LVL52-.LVL52
 2491 01b5 01       		.uleb128 0x1
 2492 01b6 5E       		.byte	0x5e
 2493 01b7 00       		.byte	0
 2494              	.LVUS46:
 2495 01b8 06       		.uleb128 .LVU156
 2496 01b9 0A       		.uleb128 .LVU160
 2497              	.LLST46:
 2498 01ba 08       		.byte	0x8
 2499 01bb 30000000 		.4byte	.LVL52
 2500 01bf 00       		.uleb128 .LVL52-.LVL52
 2501 01c0 09       		.uleb128 0x9
 2502 01c1 7E       		.byte	0x7e
 2503 01c2 00       		.sleb128 0
 2504 01c3 A3       		.byte	0xa3
 2505 01c4 01       		.uleb128 0x1
 2506 01c5 51       		.byte	0x51
 2507 01c6 22       		.byte	0x22
 2508 01c7 31       		.byte	0x31
ARM GAS  C:\Users\DEVELO~1\AppData\Local\Temp\cc1go5hK.s 			page 45


 2509 01c8 1C       		.byte	0x1c
 2510 01c9 9F       		.byte	0x9f
 2511 01ca 00       		.byte	0
 2512              	.LVUS23:
 2513 01cb 00       		.uleb128 0
 2514 01cc 00       		.uleb128 .LVU94
 2515 01cd 00       		.uleb128 .LVU94
 2516 01ce 00       		.uleb128 .LVU95
 2517 01cf 00       		.uleb128 .LVU95
 2518 01d0 00       		.uleb128 .LVU98
 2519 01d1 00       		.uleb128 .LVU98
 2520 01d2 00       		.uleb128 0
 2521              	.LLST23:
 2522 01d3 06       		.byte	0x6
 2523 01d4 00000000 		.4byte	.LVL27
 2524 01d8 04       		.byte	0x4
 2525 01d9 00       		.uleb128 .LVL27-.LVL27
 2526 01da 08       		.uleb128 .LVL30-.LVL27
 2527 01db 01       		.uleb128 0x1
 2528 01dc 50       		.byte	0x50
 2529 01dd 04       		.byte	0x4
 2530 01de 08       		.uleb128 .LVL30-.LVL27
 2531 01df 0A       		.uleb128 .LVL31-.LVL27
 2532 01e0 04       		.uleb128 0x4
 2533 01e1 A3       		.byte	0xa3
 2534 01e2 01       		.uleb128 0x1
 2535 01e3 50       		.byte	0x50
 2536 01e4 9F       		.byte	0x9f
 2537 01e5 04       		.byte	0x4
 2538 01e6 0A       		.uleb128 .LVL31-.LVL27
 2539 01e7 10       		.uleb128 .LVL33-.LVL27
 2540 01e8 01       		.uleb128 0x1
 2541 01e9 50       		.byte	0x50
 2542 01ea 04       		.byte	0x4
 2543 01eb 10       		.uleb128 .LVL33-.LVL27
 2544 01ec 5C       		.uleb128 .LFE355-.LVL27
 2545 01ed 01       		.uleb128 0x1
 2546 01ee 5E       		.byte	0x5e
 2547 01ef 00       		.byte	0
 2548              	.LVUS24:
 2549 01f0 00       		.uleb128 0
 2550 01f1 00       		.uleb128 .LVU101
 2551 01f2 00       		.uleb128 .LVU101
 2552 01f3 00       		.uleb128 .LVU103
 2553 01f4 00       		.uleb128 .LVU103
 2554 01f5 00       		.uleb128 .LVU126
 2555 01f6 00       		.uleb128 .LVU126
 2556 01f7 00       		.uleb128 0
 2557              	.LLST24:
 2558 01f8 06       		.byte	0x6
 2559 01f9 00000000 		.4byte	.LVL27
 2560 01fd 04       		.byte	0x4
 2561 01fe 00       		.uleb128 .LVL27-.LVL27
 2562 01ff 1A       		.uleb128 .LVL34-.LVL27
 2563 0200 01       		.uleb128 0x1
 2564 0201 51       		.byte	0x51
 2565 0202 04       		.byte	0x4
ARM GAS  C:\Users\DEVELO~1\AppData\Local\Temp\cc1go5hK.s 			page 46


 2566 0203 1A       		.uleb128 .LVL34-.LVL27
 2567 0204 20       		.uleb128 .LVL35-.LVL27
 2568 0205 03       		.uleb128 0x3
 2569 0206 71       		.byte	0x71
 2570 0207 01       		.sleb128 1
 2571 0208 9F       		.byte	0x9f
 2572 0209 04       		.byte	0x4
 2573 020a 20       		.uleb128 .LVL35-.LVL27
 2574 020b 52       		.uleb128 .LVL40-.LVL27
 2575 020c 04       		.uleb128 0x4
 2576 020d A3       		.byte	0xa3
 2577 020e 01       		.uleb128 0x1
 2578 020f 51       		.byte	0x51
 2579 0210 9F       		.byte	0x9f
 2580 0211 04       		.byte	0x4
 2581 0212 52       		.uleb128 .LVL40-.LVL27
 2582 0213 5C       		.uleb128 .LFE355-.LVL27
 2583 0214 01       		.uleb128 0x1
 2584 0215 51       		.byte	0x51
 2585 0216 00       		.byte	0
 2586              	.LVUS25:
 2587 0217 00       		.uleb128 0
 2588 0218 00       		.uleb128 .LVU91
 2589 0219 00       		.uleb128 .LVU91
 2590 021a 00       		.uleb128 .LVU92
 2591 021b 00       		.uleb128 .LVU92
 2592 021c 00       		.uleb128 0
 2593              	.LLST25:
 2594 021d 06       		.byte	0x6
 2595 021e 00000000 		.4byte	.LVL27
 2596 0222 04       		.byte	0x4
 2597 0223 00       		.uleb128 .LVL27-.LVL27
 2598 0224 02       		.uleb128 .LVL28-.LVL27
 2599 0225 01       		.uleb128 0x1
 2600 0226 52       		.byte	0x52
 2601 0227 04       		.byte	0x4
 2602 0228 02       		.uleb128 .LVL28-.LVL27
 2603 0229 04       		.uleb128 .LVL29-.LVL27
 2604 022a 03       		.uleb128 0x3
 2605 022b 72       		.byte	0x72
 2606 022c 01       		.sleb128 1
 2607 022d 9F       		.byte	0x9f
 2608 022e 04       		.byte	0x4
 2609 022f 04       		.uleb128 .LVL29-.LVL27
 2610 0230 5C       		.uleb128 .LFE355-.LVL27
 2611 0231 04       		.uleb128 0x4
 2612 0232 A3       		.byte	0xa3
 2613 0233 01       		.uleb128 0x1
 2614 0234 52       		.byte	0x52
 2615 0235 9F       		.byte	0x9f
 2616 0236 00       		.byte	0
 2617              	.LVUS26:
 2618 0237 00       		.uleb128 .LVU96
 2619 0238 00       		.uleb128 .LVU104
 2620 0239 00       		.uleb128 .LVU104
 2621 023a 00       		.uleb128 .LVU106
 2622 023b 00       		.uleb128 .LVU106
ARM GAS  C:\Users\DEVELO~1\AppData\Local\Temp\cc1go5hK.s 			page 47


 2623 023c 0C       		.uleb128 .LVU119
 2624 023d 0C       		.uleb128 .LVU119
 2625 023e 00       		.uleb128 .LVU124
 2626 023f 00       		.uleb128 .LVU126
 2627 0240 00       		.uleb128 0
 2628              	.LLST26:
 2629 0241 06       		.byte	0x6
 2630 0242 0E000000 		.4byte	.LVL32
 2631 0246 04       		.byte	0x4
 2632 0247 00       		.uleb128 .LVL32-.LVL32
 2633 0248 1A       		.uleb128 .LVL36-.LVL32
 2634 0249 06       		.uleb128 0x6
 2635 024a 03       		.byte	0x3
 2636 024b 00000000 		.4byte	__ch_mem_writable_areas
 2637 024f 9F       		.byte	0x9f
 2638 0250 04       		.byte	0x4
 2639 0251 1A       		.uleb128 .LVL36-.LVL32
 2640 0252 1E       		.uleb128 .LVL37-.LVL32
 2641 0253 03       		.uleb128 0x3
 2642 0254 7C       		.byte	0x7c
 2643 0255 08       		.sleb128 8
 2644 0256 9F       		.byte	0x9f
 2645 0257 04       		.byte	0x4
 2646 0258 1E       		.uleb128 .LVL37-.LVL32
 2647 0259 22       		.uleb128 .LVL38-.LVL32
 2648 025a 01       		.uleb128 0x1
 2649 025b 5C       		.byte	0x5c
 2650 025c 04       		.byte	0x4
 2651 025d 22       		.uleb128 .LVL38-.LVL32
 2652 025e 42       		.uleb128 .LVL39-.LVL32
 2653 025f 03       		.uleb128 0x3
 2654 0260 7C       		.byte	0x7c
 2655 0261 08       		.sleb128 8
 2656 0262 9F       		.byte	0x9f
 2657 0263 04       		.byte	0x4
 2658 0264 44       		.uleb128 .LVL40-.LVL32
 2659 0265 4E       		.uleb128 .LFE355-.LVL32
 2660 0266 06       		.uleb128 0x6
 2661 0267 03       		.byte	0x3
 2662 0268 00000000 		.4byte	__ch_mem_writable_areas
 2663 026c 9F       		.byte	0x9f
 2664 026d 00       		.byte	0
 2665              	.LVUS28:
 2666 026e 01       		.uleb128 .LVU108
 2667 026f 0A       		.uleb128 .LVU117
 2668              	.LLST28:
 2669 0270 08       		.byte	0x8
 2670 0271 30000000 		.4byte	.LVL38
 2671 0275 00       		.uleb128 .LVL38-.LVL38
 2672 0276 04       		.uleb128 0x4
 2673 0277 A3       		.byte	0xa3
 2674 0278 01       		.uleb128 0x1
 2675 0279 51       		.byte	0x51
 2676 027a 9F       		.byte	0x9f
 2677 027b 00       		.byte	0
 2678              	.LVUS29:
 2679 027c 01       		.uleb128 .LVU108
ARM GAS  C:\Users\DEVELO~1\AppData\Local\Temp\cc1go5hK.s 			page 48


 2680 027d 0A       		.uleb128 .LVU117
 2681              	.LLST29:
 2682 027e 08       		.byte	0x8
 2683 027f 30000000 		.4byte	.LVL38
 2684 0283 00       		.uleb128 .LVL38-.LVL38
 2685 0284 01       		.uleb128 0x1
 2686 0285 5E       		.byte	0x5e
 2687 0286 00       		.byte	0
 2688              	.LVUS30:
 2689 0287 01       		.uleb128 .LVU108
 2690 0288 0A       		.uleb128 .LVU117
 2691              	.LLST30:
 2692 0289 08       		.byte	0x8
 2693 028a 30000000 		.4byte	.LVL38
 2694 028e 00       		.uleb128 .LVL38-.LVL38
 2695 028f 01       		.uleb128 0x1
 2696 0290 5C       		.byte	0x5c
 2697 0291 00       		.byte	0
 2698              	.LVUS31:
 2699 0292 03       		.uleb128 .LVU110
 2700 0293 0A       		.uleb128 .LVU117
 2701              	.LLST31:
 2702 0294 08       		.byte	0x8
 2703 0295 30000000 		.4byte	.LVL38
 2704 0299 00       		.uleb128 .LVL38-.LVL38
 2705 029a 01       		.uleb128 0x1
 2706 029b 53       		.byte	0x53
 2707 029c 00       		.byte	0
 2708              	.LVUS32:
 2709 029d 04       		.uleb128 .LVU111
 2710 029e 0A       		.uleb128 .LVU117
 2711              	.LLST32:
 2712 029f 08       		.byte	0x8
 2713 02a0 30000000 		.4byte	.LVL38
 2714 02a4 00       		.uleb128 .LVL38-.LVL38
 2715 02a5 09       		.uleb128 0x9
 2716 02a6 73       		.byte	0x73
 2717 02a7 00       		.sleb128 0
 2718 02a8 7C       		.byte	0x7c
 2719 02a9 04       		.sleb128 4
 2720 02aa 06       		.byte	0x6
 2721 02ab 22       		.byte	0x22
 2722 02ac 31       		.byte	0x31
 2723 02ad 1C       		.byte	0x1c
 2724 02ae 9F       		.byte	0x9f
 2725 02af 00       		.byte	0
 2726              	.LVUS33:
 2727 02b0 05       		.uleb128 .LVU112
 2728 02b1 0A       		.uleb128 .LVU117
 2729              	.LLST33:
 2730 02b2 08       		.byte	0x8
 2731 02b3 30000000 		.4byte	.LVL38
 2732 02b7 00       		.uleb128 .LVL38-.LVL38
 2733 02b8 01       		.uleb128 0x1
 2734 02b9 5E       		.byte	0x5e
 2735 02ba 00       		.byte	0
 2736              	.LVUS34:
ARM GAS  C:\Users\DEVELO~1\AppData\Local\Temp\cc1go5hK.s 			page 49


 2737 02bb 06       		.uleb128 .LVU113
 2738 02bc 0A       		.uleb128 .LVU117
 2739              	.LLST34:
 2740 02bd 08       		.byte	0x8
 2741 02be 30000000 		.4byte	.LVL38
 2742 02c2 00       		.uleb128 .LVL38-.LVL38
 2743 02c3 09       		.uleb128 0x9
 2744 02c4 7E       		.byte	0x7e
 2745 02c5 00       		.sleb128 0
 2746 02c6 A3       		.byte	0xa3
 2747 02c7 01       		.uleb128 0x1
 2748 02c8 51       		.byte	0x51
 2749 02c9 22       		.byte	0x22
 2750 02ca 31       		.byte	0x31
 2751 02cb 1C       		.byte	0x1c
 2752 02cc 9F       		.byte	0x9f
 2753 02cd 00       		.byte	0
 2754              	.LVUS6:
 2755 02ce 00       		.uleb128 0
 2756 02cf 00       		.uleb128 .LVU34
 2757 02d0 00       		.uleb128 .LVU34
 2758 02d1 00       		.uleb128 .LVU46
 2759 02d2 00       		.uleb128 .LVU46
 2760 02d3 00       		.uleb128 .LVU47
 2761 02d4 00       		.uleb128 .LVU47
 2762 02d5 00       		.uleb128 0
 2763              	.LLST6:
 2764 02d6 06       		.byte	0x6
 2765 02d7 00000000 		.4byte	.LVL10
 2766 02db 04       		.byte	0x4
 2767 02dc 00       		.uleb128 .LVL10-.LVL10
 2768 02dd 0C       		.uleb128 .LVL12-.LVL10
 2769 02de 01       		.uleb128 0x1
 2770 02df 50       		.byte	0x50
 2771 02e0 04       		.byte	0x4
 2772 02e1 0C       		.uleb128 .LVL12-.LVL10
 2773 02e2 2A       		.uleb128 .LVL16-.LVL10
 2774 02e3 04       		.uleb128 0x4
 2775 02e4 A3       		.byte	0xa3
 2776 02e5 01       		.uleb128 0x1
 2777 02e6 50       		.byte	0x50
 2778 02e7 9F       		.byte	0x9f
 2779 02e8 04       		.byte	0x4
 2780 02e9 2A       		.uleb128 .LVL16-.LVL10
 2781 02ea 2C       		.uleb128 .LVL17-.LVL10
 2782 02eb 01       		.uleb128 0x1
 2783 02ec 50       		.byte	0x50
 2784 02ed 04       		.byte	0x4
 2785 02ee 2C       		.uleb128 .LVL17-.LVL10
 2786 02ef 34       		.uleb128 .LFE353-.LVL10
 2787 02f0 04       		.uleb128 0x4
 2788 02f1 A3       		.byte	0xa3
 2789 02f2 01       		.uleb128 0x1
 2790 02f3 50       		.byte	0x50
 2791 02f4 9F       		.byte	0x9f
 2792 02f5 00       		.byte	0
 2793              	.LVUS7:
ARM GAS  C:\Users\DEVELO~1\AppData\Local\Temp\cc1go5hK.s 			page 50


 2794 02f6 00       		.uleb128 0
 2795 02f7 01       		.uleb128 .LVU42
 2796 02f8 01       		.uleb128 .LVU42
 2797 02f9 00       		.uleb128 .LVU44
 2798 02fa 00       		.uleb128 .LVU44
 2799 02fb 00       		.uleb128 .LVU48
 2800              	.LLST7:
 2801 02fc 06       		.byte	0x6
 2802 02fd 00000000 		.4byte	.LVL10
 2803 0301 04       		.byte	0x4
 2804 0302 00       		.uleb128 .LVL10-.LVL10
 2805 0303 1C       		.uleb128 .LVL14-.LVL10
 2806 0304 01       		.uleb128 0x1
 2807 0305 51       		.byte	0x51
 2808 0306 04       		.byte	0x4
 2809 0307 1C       		.uleb128 .LVL14-.LVL10
 2810 0308 22       		.uleb128 .LVL15-.LVL10
 2811 0309 03       		.uleb128 0x3
 2812 030a 71       		.byte	0x71
 2813 030b 04       		.sleb128 4
 2814 030c 9F       		.byte	0x9f
 2815 030d 04       		.byte	0x4
 2816 030e 22       		.uleb128 .LVL15-.LVL10
 2817 030f 2E       		.uleb128 .LVL18-.LVL10
 2818 0310 01       		.uleb128 0x1
 2819 0311 51       		.byte	0x51
 2820 0312 00       		.byte	0
 2821              	.LVUS8:
 2822 0313 00       		.uleb128 .LVU28
 2823 0314 00       		.uleb128 .LVU37
 2824 0315 00       		.uleb128 .LVU37
 2825 0316 00       		.uleb128 .LVU46
 2826 0317 00       		.uleb128 .LVU46
 2827 0318 00       		.uleb128 .LVU48
 2828 0319 00       		.uleb128 .LVU48
 2829 031a 00       		.uleb128 0
 2830              	.LLST8:
 2831 031b 06       		.byte	0x6
 2832 031c 02000000 		.4byte	.LVL11
 2833 0320 04       		.byte	0x4
 2834 0321 00       		.uleb128 .LVL11-.LVL11
 2835 0322 10       		.uleb128 .LVL13-.LVL11
 2836 0323 01       		.uleb128 0x1
 2837 0324 53       		.byte	0x53
 2838 0325 04       		.byte	0x4
 2839 0326 10       		.uleb128 .LVL13-.LVL11
 2840 0327 28       		.uleb128 .LVL16-.LVL11
 2841 0328 03       		.uleb128 0x3
 2842 0329 A3       		.byte	0xa3
 2843 032a 01       		.uleb128 0x1
 2844 032b 50       		.byte	0x50
 2845 032c 04       		.byte	0x4
 2846 032d 28       		.uleb128 .LVL16-.LVL11
 2847 032e 2C       		.uleb128 .LVL18-.LVL11
 2848 032f 01       		.uleb128 0x1
 2849 0330 53       		.byte	0x53
 2850 0331 04       		.byte	0x4
ARM GAS  C:\Users\DEVELO~1\AppData\Local\Temp\cc1go5hK.s 			page 51


 2851 0332 2C       		.uleb128 .LVL18-.LVL11
 2852 0333 32       		.uleb128 .LFE353-.LVL11
 2853 0334 03       		.uleb128 0x3
 2854 0335 A3       		.byte	0xa3
 2855 0336 01       		.uleb128 0x1
 2856 0337 50       		.byte	0x50
 2857 0338 00       		.byte	0
 2858              	.LVUS9:
 2859 0339 01       		.uleb128 .LVU29
 2860 033a 00       		.uleb128 .LVU34
 2861 033b 00       		.uleb128 .LVU34
 2862 033c 00       		.uleb128 .LVU37
 2863 033d 00       		.uleb128 .LVU37
 2864 033e 00       		.uleb128 .LVU46
 2865 033f 00       		.uleb128 .LVU46
 2866 0340 00       		.uleb128 .LVU47
 2867 0341 00       		.uleb128 .LVU47
 2868 0342 00       		.uleb128 .LVU48
 2869 0343 00       		.uleb128 .LVU48
 2870 0344 00       		.uleb128 0
 2871              	.LLST9:
 2872 0345 06       		.byte	0x6
 2873 0346 02000000 		.4byte	.LVL11
 2874 034a 04       		.byte	0x4
 2875 034b 00       		.uleb128 .LVL11-.LVL11
 2876 034c 0A       		.uleb128 .LVL12-.LVL11
 2877 034d 09       		.uleb128 0x9
 2878 034e 73       		.byte	0x73
 2879 034f 00       		.sleb128 0
 2880 0350 70       		.byte	0x70
 2881 0351 04       		.sleb128 4
 2882 0352 06       		.byte	0x6
 2883 0353 22       		.byte	0x22
 2884 0354 34       		.byte	0x34
 2885 0355 1C       		.byte	0x1c
 2886 0356 9F       		.byte	0x9f
 2887 0357 04       		.byte	0x4
 2888 0358 0A       		.uleb128 .LVL12-.LVL11
 2889 0359 10       		.uleb128 .LVL13-.LVL11
 2890 035a 0C       		.uleb128 0xc
 2891 035b 73       		.byte	0x73
 2892 035c 00       		.sleb128 0
 2893 035d A3       		.byte	0xa3
 2894 035e 01       		.uleb128 0x1
 2895 035f 50       		.byte	0x50
 2896 0360 23       		.byte	0x23
 2897 0361 04       		.uleb128 0x4
 2898 0362 06       		.byte	0x6
 2899 0363 22       		.byte	0x22
 2900 0364 34       		.byte	0x34
 2901 0365 1C       		.byte	0x1c
 2902 0366 9F       		.byte	0x9f
 2903 0367 04       		.byte	0x4
 2904 0368 10       		.uleb128 .LVL13-.LVL11
 2905 0369 28       		.uleb128 .LVL16-.LVL11
 2906 036a 0E       		.uleb128 0xe
 2907 036b A3       		.byte	0xa3
ARM GAS  C:\Users\DEVELO~1\AppData\Local\Temp\cc1go5hK.s 			page 52


 2908 036c 01       		.uleb128 0x1
 2909 036d 50       		.byte	0x50
 2910 036e 06       		.byte	0x6
 2911 036f A3       		.byte	0xa3
 2912 0370 01       		.uleb128 0x1
 2913 0371 50       		.byte	0x50
 2914 0372 23       		.byte	0x23
 2915 0373 04       		.uleb128 0x4
 2916 0374 06       		.byte	0x6
 2917 0375 22       		.byte	0x22
 2918 0376 34       		.byte	0x34
 2919 0377 1C       		.byte	0x1c
 2920 0378 9F       		.byte	0x9f
 2921 0379 04       		.byte	0x4
 2922 037a 28       		.uleb128 .LVL16-.LVL11
 2923 037b 2A       		.uleb128 .LVL17-.LVL11
 2924 037c 09       		.uleb128 0x9
 2925 037d 73       		.byte	0x73
 2926 037e 00       		.sleb128 0
 2927 037f 70       		.byte	0x70
 2928 0380 04       		.sleb128 4
 2929 0381 06       		.byte	0x6
 2930 0382 22       		.byte	0x22
 2931 0383 34       		.byte	0x34
 2932 0384 1C       		.byte	0x1c
 2933 0385 9F       		.byte	0x9f
 2934 0386 04       		.byte	0x4
 2935 0387 2A       		.uleb128 .LVL17-.LVL11
 2936 0388 2C       		.uleb128 .LVL18-.LVL11
 2937 0389 0C       		.uleb128 0xc
 2938 038a 73       		.byte	0x73
 2939 038b 00       		.sleb128 0
 2940 038c A3       		.byte	0xa3
 2941 038d 01       		.uleb128 0x1
 2942 038e 50       		.byte	0x50
 2943 038f 23       		.byte	0x23
 2944 0390 04       		.uleb128 0x4
 2945 0391 06       		.byte	0x6
 2946 0392 22       		.byte	0x22
 2947 0393 34       		.byte	0x34
 2948 0394 1C       		.byte	0x1c
 2949 0395 9F       		.byte	0x9f
 2950 0396 04       		.byte	0x4
 2951 0397 2C       		.uleb128 .LVL18-.LVL11
 2952 0398 32       		.uleb128 .LFE353-.LVL11
 2953 0399 0E       		.uleb128 0xe
 2954 039a A3       		.byte	0xa3
 2955 039b 01       		.uleb128 0x1
 2956 039c 50       		.byte	0x50
 2957 039d 06       		.byte	0x6
 2958 039e A3       		.byte	0xa3
 2959 039f 01       		.uleb128 0x1
 2960 03a0 50       		.byte	0x50
 2961 03a1 23       		.byte	0x23
 2962 03a2 04       		.uleb128 0x4
 2963 03a3 06       		.byte	0x6
 2964 03a4 22       		.byte	0x22
ARM GAS  C:\Users\DEVELO~1\AppData\Local\Temp\cc1go5hK.s 			page 53


 2965 03a5 34       		.byte	0x34
 2966 03a6 1C       		.byte	0x1c
 2967 03a7 9F       		.byte	0x9f
 2968 03a8 00       		.byte	0
 2969              	.LVUS11:
 2970 03a9 01       		.uleb128 .LVU38
 2971 03aa 00       		.uleb128 .LVU46
 2972 03ab 00       		.uleb128 .LVU48
 2973 03ac 00       		.uleb128 .LVU49
 2974              	.LLST11:
 2975 03ad 06       		.byte	0x6
 2976 03ae 12000000 		.4byte	.LVL13
 2977 03b2 04       		.byte	0x4
 2978 03b3 00       		.uleb128 .LVL13-.LVL13
 2979 03b4 18       		.uleb128 .LVL16-.LVL13
 2980 03b5 01       		.uleb128 0x1
 2981 03b6 50       		.byte	0x50
 2982 03b7 04       		.byte	0x4
 2983 03b8 1C       		.uleb128 .LVL18-.LVL13
 2984 03b9 1E       		.uleb128 .LVL19-.LVL13
 2985 03ba 01       		.uleb128 0x1
 2986 03bb 50       		.byte	0x50
 2987 03bc 00       		.byte	0
 2988              	.LVUS0:
 2989 03bd 00       		.uleb128 0
 2990 03be 00       		.uleb128 .LVU9
 2991 03bf 00       		.uleb128 .LVU9
 2992 03c0 00       		.uleb128 .LVU21
 2993 03c1 00       		.uleb128 .LVU21
 2994 03c2 00       		.uleb128 .LVU22
 2995 03c3 00       		.uleb128 .LVU22
 2996 03c4 00       		.uleb128 0
 2997              	.LLST0:
 2998 03c5 06       		.byte	0x6
 2999 03c6 00000000 		.4byte	.LVL0
 3000 03ca 04       		.byte	0x4
 3001 03cb 00       		.uleb128 .LVL0-.LVL0
 3002 03cc 0C       		.uleb128 .LVL2-.LVL0
 3003 03cd 01       		.uleb128 0x1
 3004 03ce 50       		.byte	0x50
 3005 03cf 04       		.byte	0x4
 3006 03d0 0C       		.uleb128 .LVL2-.LVL0
 3007 03d1 2A       		.uleb128 .LVL6-.LVL0
 3008 03d2 04       		.uleb128 0x4
 3009 03d3 A3       		.byte	0xa3
 3010 03d4 01       		.uleb128 0x1
 3011 03d5 50       		.byte	0x50
 3012 03d6 9F       		.byte	0x9f
 3013 03d7 04       		.byte	0x4
 3014 03d8 2A       		.uleb128 .LVL6-.LVL0
 3015 03d9 2C       		.uleb128 .LVL7-.LVL0
 3016 03da 01       		.uleb128 0x1
 3017 03db 50       		.byte	0x50
 3018 03dc 04       		.byte	0x4
 3019 03dd 2C       		.uleb128 .LVL7-.LVL0
 3020 03de 34       		.uleb128 .LFE352-.LVL0
 3021 03df 04       		.uleb128 0x4
ARM GAS  C:\Users\DEVELO~1\AppData\Local\Temp\cc1go5hK.s 			page 54


 3022 03e0 A3       		.byte	0xa3
 3023 03e1 01       		.uleb128 0x1
 3024 03e2 50       		.byte	0x50
 3025 03e3 9F       		.byte	0x9f
 3026 03e4 00       		.byte	0
 3027              	.LVUS1:
 3028 03e5 00       		.uleb128 0
 3029 03e6 01       		.uleb128 .LVU17
 3030 03e7 01       		.uleb128 .LVU17
 3031 03e8 00       		.uleb128 .LVU19
 3032 03e9 00       		.uleb128 .LVU19
 3033 03ea 00       		.uleb128 .LVU23
 3034              	.LLST1:
 3035 03eb 06       		.byte	0x6
 3036 03ec 00000000 		.4byte	.LVL0
 3037 03f0 04       		.byte	0x4
 3038 03f1 00       		.uleb128 .LVL0-.LVL0
 3039 03f2 1C       		.uleb128 .LVL4-.LVL0
 3040 03f3 01       		.uleb128 0x1
 3041 03f4 51       		.byte	0x51
 3042 03f5 04       		.byte	0x4
 3043 03f6 1C       		.uleb128 .LVL4-.LVL0
 3044 03f7 22       		.uleb128 .LVL5-.LVL0
 3045 03f8 03       		.uleb128 0x3
 3046 03f9 71       		.byte	0x71
 3047 03fa 01       		.sleb128 1
 3048 03fb 9F       		.byte	0x9f
 3049 03fc 04       		.byte	0x4
 3050 03fd 22       		.uleb128 .LVL5-.LVL0
 3051 03fe 2E       		.uleb128 .LVL8-.LVL0
 3052 03ff 01       		.uleb128 0x1
 3053 0400 51       		.byte	0x51
 3054 0401 00       		.byte	0
 3055              	.LVUS2:
 3056 0402 00       		.uleb128 .LVU3
 3057 0403 00       		.uleb128 .LVU12
 3058 0404 00       		.uleb128 .LVU12
 3059 0405 00       		.uleb128 .LVU21
 3060 0406 00       		.uleb128 .LVU21
 3061 0407 00       		.uleb128 .LVU23
 3062 0408 00       		.uleb128 .LVU23
 3063 0409 00       		.uleb128 0
 3064              	.LLST2:
 3065 040a 06       		.byte	0x6
 3066 040b 02000000 		.4byte	.LVL1
 3067 040f 04       		.byte	0x4
 3068 0410 00       		.uleb128 .LVL1-.LVL1
 3069 0411 10       		.uleb128 .LVL3-.LVL1
 3070 0412 01       		.uleb128 0x1
 3071 0413 53       		.byte	0x53
 3072 0414 04       		.byte	0x4
 3073 0415 10       		.uleb128 .LVL3-.LVL1
 3074 0416 28       		.uleb128 .LVL6-.LVL1
 3075 0417 03       		.uleb128 0x3
 3076 0418 A3       		.byte	0xa3
 3077 0419 01       		.uleb128 0x1
 3078 041a 50       		.byte	0x50
ARM GAS  C:\Users\DEVELO~1\AppData\Local\Temp\cc1go5hK.s 			page 55


 3079 041b 04       		.byte	0x4
 3080 041c 28       		.uleb128 .LVL6-.LVL1
 3081 041d 2C       		.uleb128 .LVL8-.LVL1
 3082 041e 01       		.uleb128 0x1
 3083 041f 53       		.byte	0x53
 3084 0420 04       		.byte	0x4
 3085 0421 2C       		.uleb128 .LVL8-.LVL1
 3086 0422 32       		.uleb128 .LFE352-.LVL1
 3087 0423 03       		.uleb128 0x3
 3088 0424 A3       		.byte	0xa3
 3089 0425 01       		.uleb128 0x1
 3090 0426 50       		.byte	0x50
 3091 0427 00       		.byte	0
 3092              	.LVUS3:
 3093 0428 01       		.uleb128 .LVU4
 3094 0429 00       		.uleb128 .LVU9
 3095 042a 00       		.uleb128 .LVU9
 3096 042b 00       		.uleb128 .LVU12
 3097 042c 00       		.uleb128 .LVU12
 3098 042d 00       		.uleb128 .LVU21
 3099 042e 00       		.uleb128 .LVU21
 3100 042f 00       		.uleb128 .LVU22
 3101 0430 00       		.uleb128 .LVU22
 3102 0431 00       		.uleb128 .LVU23
 3103 0432 00       		.uleb128 .LVU23
 3104 0433 00       		.uleb128 0
 3105              	.LLST3:
 3106 0434 06       		.byte	0x6
 3107 0435 02000000 		.4byte	.LVL1
 3108 0439 04       		.byte	0x4
 3109 043a 00       		.uleb128 .LVL1-.LVL1
 3110 043b 0A       		.uleb128 .LVL2-.LVL1
 3111 043c 09       		.uleb128 0x9
 3112 043d 73       		.byte	0x73
 3113 043e 00       		.sleb128 0
 3114 043f 70       		.byte	0x70
 3115 0440 04       		.sleb128 4
 3116 0441 06       		.byte	0x6
 3117 0442 22       		.byte	0x22
 3118 0443 31       		.byte	0x31
 3119 0444 1C       		.byte	0x1c
 3120 0445 9F       		.byte	0x9f
 3121 0446 04       		.byte	0x4
 3122 0447 0A       		.uleb128 .LVL2-.LVL1
 3123 0448 10       		.uleb128 .LVL3-.LVL1
 3124 0449 0C       		.uleb128 0xc
 3125 044a 73       		.byte	0x73
 3126 044b 00       		.sleb128 0
 3127 044c A3       		.byte	0xa3
 3128 044d 01       		.uleb128 0x1
 3129 044e 50       		.byte	0x50
 3130 044f 23       		.byte	0x23
 3131 0450 04       		.uleb128 0x4
 3132 0451 06       		.byte	0x6
 3133 0452 22       		.byte	0x22
 3134 0453 31       		.byte	0x31
 3135 0454 1C       		.byte	0x1c
ARM GAS  C:\Users\DEVELO~1\AppData\Local\Temp\cc1go5hK.s 			page 56


 3136 0455 9F       		.byte	0x9f
 3137 0456 04       		.byte	0x4
 3138 0457 10       		.uleb128 .LVL3-.LVL1
 3139 0458 28       		.uleb128 .LVL6-.LVL1
 3140 0459 0E       		.uleb128 0xe
 3141 045a A3       		.byte	0xa3
 3142 045b 01       		.uleb128 0x1
 3143 045c 50       		.byte	0x50
 3144 045d 06       		.byte	0x6
 3145 045e A3       		.byte	0xa3
 3146 045f 01       		.uleb128 0x1
 3147 0460 50       		.byte	0x50
 3148 0461 23       		.byte	0x23
 3149 0462 04       		.uleb128 0x4
 3150 0463 06       		.byte	0x6
 3151 0464 22       		.byte	0x22
 3152 0465 31       		.byte	0x31
 3153 0466 1C       		.byte	0x1c
 3154 0467 9F       		.byte	0x9f
 3155 0468 04       		.byte	0x4
 3156 0469 28       		.uleb128 .LVL6-.LVL1
 3157 046a 2A       		.uleb128 .LVL7-.LVL1
 3158 046b 09       		.uleb128 0x9
 3159 046c 73       		.byte	0x73
 3160 046d 00       		.sleb128 0
 3161 046e 70       		.byte	0x70
 3162 046f 04       		.sleb128 4
 3163 0470 06       		.byte	0x6
 3164 0471 22       		.byte	0x22
 3165 0472 31       		.byte	0x31
 3166 0473 1C       		.byte	0x1c
 3167 0474 9F       		.byte	0x9f
 3168 0475 04       		.byte	0x4
 3169 0476 2A       		.uleb128 .LVL7-.LVL1
 3170 0477 2C       		.uleb128 .LVL8-.LVL1
 3171 0478 0C       		.uleb128 0xc
 3172 0479 73       		.byte	0x73
 3173 047a 00       		.sleb128 0
 3174 047b A3       		.byte	0xa3
 3175 047c 01       		.uleb128 0x1
 3176 047d 50       		.byte	0x50
 3177 047e 23       		.byte	0x23
 3178 047f 04       		.uleb128 0x4
 3179 0480 06       		.byte	0x6
 3180 0481 22       		.byte	0x22
 3181 0482 31       		.byte	0x31
 3182 0483 1C       		.byte	0x1c
 3183 0484 9F       		.byte	0x9f
 3184 0485 04       		.byte	0x4
 3185 0486 2C       		.uleb128 .LVL8-.LVL1
 3186 0487 32       		.uleb128 .LFE352-.LVL1
 3187 0488 0E       		.uleb128 0xe
 3188 0489 A3       		.byte	0xa3
 3189 048a 01       		.uleb128 0x1
 3190 048b 50       		.byte	0x50
 3191 048c 06       		.byte	0x6
 3192 048d A3       		.byte	0xa3
ARM GAS  C:\Users\DEVELO~1\AppData\Local\Temp\cc1go5hK.s 			page 57


 3193 048e 01       		.uleb128 0x1
 3194 048f 50       		.byte	0x50
 3195 0490 23       		.byte	0x23
 3196 0491 04       		.uleb128 0x4
 3197 0492 06       		.byte	0x6
 3198 0493 22       		.byte	0x22
 3199 0494 31       		.byte	0x31
 3200 0495 1C       		.byte	0x1c
 3201 0496 9F       		.byte	0x9f
 3202 0497 00       		.byte	0
 3203              	.LVUS5:
 3204 0498 01       		.uleb128 .LVU13
 3205 0499 00       		.uleb128 .LVU21
 3206 049a 00       		.uleb128 .LVU23
 3207 049b 00       		.uleb128 .LVU24
 3208              	.LLST5:
 3209 049c 06       		.byte	0x6
 3210 049d 12000000 		.4byte	.LVL3
 3211 04a1 04       		.byte	0x4
 3212 04a2 00       		.uleb128 .LVL3-.LVL3
 3213 04a3 18       		.uleb128 .LVL6-.LVL3
 3214 04a4 01       		.uleb128 0x1
 3215 04a5 50       		.byte	0x50
 3216 04a6 04       		.byte	0x4
 3217 04a7 1C       		.uleb128 .LVL8-.LVL3
 3218 04a8 1E       		.uleb128 .LVL9-.LVL3
 3219 04a9 01       		.uleb128 0x1
 3220 04aa 50       		.byte	0x50
 3221 04ab 00       		.byte	0
 3222              	.LVUS12:
 3223 04ac 00       		.uleb128 0
 3224 04ad 00       		.uleb128 .LVU61
 3225 04ae 00       		.uleb128 .LVU61
 3226 04af 00       		.uleb128 .LVU83
 3227 04b0 00       		.uleb128 .LVU83
 3228 04b1 00       		.uleb128 .LVU84
 3229 04b2 00       		.uleb128 .LVU84
 3230 04b3 00       		.uleb128 0
 3231              	.LLST12:
 3232 04b4 06       		.byte	0x6
 3233 04b5 00000000 		.4byte	.LVL20
 3234 04b9 04       		.byte	0x4
 3235 04ba 00       		.uleb128 .LVL20-.LVL20
 3236 04bb 1C       		.uleb128 .LVL21-.LVL20
 3237 04bc 01       		.uleb128 0x1
 3238 04bd 50       		.byte	0x50
 3239 04be 04       		.byte	0x4
 3240 04bf 1C       		.uleb128 .LVL21-.LVL20
 3241 04c0 46       		.uleb128 .LVL25-.LVL20
 3242 04c1 04       		.uleb128 0x4
 3243 04c2 A3       		.byte	0xa3
 3244 04c3 01       		.uleb128 0x1
 3245 04c4 50       		.byte	0x50
 3246 04c5 9F       		.byte	0x9f
 3247 04c6 04       		.byte	0x4
 3248 04c7 46       		.uleb128 .LVL25-.LVL20
 3249 04c8 48       		.uleb128 .LVL26-.LVL20
ARM GAS  C:\Users\DEVELO~1\AppData\Local\Temp\cc1go5hK.s 			page 58


 3250 04c9 01       		.uleb128 0x1
 3251 04ca 50       		.byte	0x50
 3252 04cb 04       		.byte	0x4
 3253 04cc 48       		.uleb128 .LVL26-.LVL20
 3254 04cd 4A       		.uleb128 .LFE354-.LVL20
 3255 04ce 04       		.uleb128 0x4
 3256 04cf A3       		.byte	0xa3
 3257 04d0 01       		.uleb128 0x1
 3258 04d1 50       		.byte	0x50
 3259 04d2 9F       		.byte	0x9f
 3260 04d3 00       		.byte	0
 3261              	.LVUS13:
 3262 04d4 00       		.uleb128 0
 3263 04d5 00       		.uleb128 .LVU61
 3264 04d6 00       		.uleb128 .LVU61
 3265 04d7 00       		.uleb128 .LVU83
 3266 04d8 00       		.uleb128 .LVU83
 3267 04d9 00       		.uleb128 0
 3268              	.LLST13:
 3269 04da 06       		.byte	0x6
 3270 04db 00000000 		.4byte	.LVL20
 3271 04df 04       		.byte	0x4
 3272 04e0 00       		.uleb128 .LVL20-.LVL20
 3273 04e1 1C       		.uleb128 .LVL21-.LVL20
 3274 04e2 01       		.uleb128 0x1
 3275 04e3 52       		.byte	0x52
 3276 04e4 04       		.byte	0x4
 3277 04e5 1C       		.uleb128 .LVL21-.LVL20
 3278 04e6 46       		.uleb128 .LVL25-.LVL20
 3279 04e7 04       		.uleb128 0x4
 3280 04e8 A3       		.byte	0xa3
 3281 04e9 01       		.uleb128 0x1
 3282 04ea 52       		.byte	0x52
 3283 04eb 9F       		.byte	0x9f
 3284 04ec 04       		.byte	0x4
 3285 04ed 46       		.uleb128 .LVL25-.LVL20
 3286 04ee 4A       		.uleb128 .LFE354-.LVL20
 3287 04ef 01       		.uleb128 0x1
 3288 04f0 52       		.byte	0x52
 3289 04f1 00       		.byte	0
 3290              	.LVUS14:
 3291 04f2 02       		.uleb128 .LVU52
 3292 04f3 00       		.uleb128 .LVU61
 3293 04f4 00       		.uleb128 .LVU61
 3294 04f5 00       		.uleb128 .LVU63
 3295 04f6 00       		.uleb128 .LVU63
 3296 04f7 0C       		.uleb128 .LVU76
 3297 04f8 0C       		.uleb128 .LVU76
 3298 04f9 00       		.uleb128 .LVU81
 3299 04fa 00       		.uleb128 .LVU83
 3300 04fb 00       		.uleb128 .LVU84
 3301 04fc 00       		.uleb128 .LVU84
 3302 04fd 00       		.uleb128 0
 3303              	.LLST14:
 3304 04fe 06       		.byte	0x6
 3305 04ff 00000000 		.4byte	.LVL20
 3306 0503 04       		.byte	0x4
ARM GAS  C:\Users\DEVELO~1\AppData\Local\Temp\cc1go5hK.s 			page 59


 3307 0504 00       		.uleb128 .LVL20-.LVL20
 3308 0505 1C       		.uleb128 .LVL21-.LVL20
 3309 0506 01       		.uleb128 0x1
 3310 0507 50       		.byte	0x50
 3311 0508 04       		.byte	0x4
 3312 0509 1C       		.uleb128 .LVL21-.LVL20
 3313 050a 20       		.uleb128 .LVL22-.LVL20
 3314 050b 03       		.uleb128 0x3
 3315 050c 7C       		.byte	0x7c
 3316 050d 08       		.sleb128 8
 3317 050e 9F       		.byte	0x9f
 3318 050f 04       		.byte	0x4
 3319 0510 20       		.uleb128 .LVL22-.LVL20
 3320 0511 24       		.uleb128 .LVL23-.LVL20
 3321 0512 01       		.uleb128 0x1
 3322 0513 5C       		.byte	0x5c
 3323 0514 04       		.byte	0x4
 3324 0515 24       		.uleb128 .LVL23-.LVL20
 3325 0516 44       		.uleb128 .LVL24-.LVL20
 3326 0517 03       		.uleb128 0x3
 3327 0518 7C       		.byte	0x7c
 3328 0519 08       		.sleb128 8
 3329 051a 9F       		.byte	0x9f
 3330 051b 04       		.byte	0x4
 3331 051c 46       		.uleb128 .LVL25-.LVL20
 3332 051d 48       		.uleb128 .LVL26-.LVL20
 3333 051e 01       		.uleb128 0x1
 3334 051f 50       		.byte	0x50
 3335 0520 04       		.byte	0x4
 3336 0521 48       		.uleb128 .LVL26-.LVL20
 3337 0522 4A       		.uleb128 .LFE354-.LVL20
 3338 0523 04       		.uleb128 0x4
 3339 0524 A3       		.byte	0xa3
 3340 0525 01       		.uleb128 0x1
 3341 0526 50       		.byte	0x50
 3342 0527 9F       		.byte	0x9f
 3343 0528 00       		.byte	0
 3344              	.LVUS16:
 3345 0529 01       		.uleb128 .LVU65
 3346 052a 0A       		.uleb128 .LVU74
 3347              	.LLST16:
 3348 052b 08       		.byte	0x8
 3349 052c 24000000 		.4byte	.LVL23
 3350 0530 00       		.uleb128 .LVL23-.LVL23
 3351 0531 04       		.uleb128 0x4
 3352 0532 A3       		.byte	0xa3
 3353 0533 01       		.uleb128 0x1
 3354 0534 52       		.byte	0x52
 3355 0535 9F       		.byte	0x9f
 3356 0536 00       		.byte	0
 3357              	.LVUS17:
 3358 0537 01       		.uleb128 .LVU65
 3359 0538 0A       		.uleb128 .LVU74
 3360              	.LLST17:
 3361 0539 08       		.byte	0x8
 3362 053a 24000000 		.4byte	.LVL23
 3363 053e 00       		.uleb128 .LVL23-.LVL23
ARM GAS  C:\Users\DEVELO~1\AppData\Local\Temp\cc1go5hK.s 			page 60


 3364 053f 01       		.uleb128 0x1
 3365 0540 51       		.byte	0x51
 3366 0541 00       		.byte	0
 3367              	.LVUS18:
 3368 0542 01       		.uleb128 .LVU65
 3369 0543 0A       		.uleb128 .LVU74
 3370              	.LLST18:
 3371 0544 08       		.byte	0x8
 3372 0545 24000000 		.4byte	.LVL23
 3373 0549 00       		.uleb128 .LVL23-.LVL23
 3374 054a 01       		.uleb128 0x1
 3375 054b 5C       		.byte	0x5c
 3376 054c 00       		.byte	0
 3377              	.LVUS19:
 3378 054d 03       		.uleb128 .LVU67
 3379 054e 0A       		.uleb128 .LVU74
 3380              	.LLST19:
 3381 054f 08       		.byte	0x8
 3382 0550 24000000 		.4byte	.LVL23
 3383 0554 00       		.uleb128 .LVL23-.LVL23
 3384 0555 01       		.uleb128 0x1
 3385 0556 53       		.byte	0x53
 3386 0557 00       		.byte	0
 3387              	.LVUS20:
 3388 0558 04       		.uleb128 .LVU68
 3389 0559 0A       		.uleb128 .LVU74
 3390              	.LLST20:
 3391 055a 08       		.byte	0x8
 3392 055b 24000000 		.4byte	.LVL23
 3393 055f 00       		.uleb128 .LVL23-.LVL23
 3394 0560 09       		.uleb128 0x9
 3395 0561 73       		.byte	0x73
 3396 0562 00       		.sleb128 0
 3397 0563 7C       		.byte	0x7c
 3398 0564 04       		.sleb128 4
 3399 0565 06       		.byte	0x6
 3400 0566 22       		.byte	0x22
 3401 0567 31       		.byte	0x31
 3402 0568 1C       		.byte	0x1c
 3403 0569 9F       		.byte	0x9f
 3404 056a 00       		.byte	0
 3405              	.LVUS21:
 3406 056b 05       		.uleb128 .LVU69
 3407 056c 0A       		.uleb128 .LVU74
 3408              	.LLST21:
 3409 056d 08       		.byte	0x8
 3410 056e 24000000 		.4byte	.LVL23
 3411 0572 00       		.uleb128 .LVL23-.LVL23
 3412 0573 01       		.uleb128 0x1
 3413 0574 51       		.byte	0x51
 3414 0575 00       		.byte	0
 3415              	.LVUS22:
 3416 0576 06       		.uleb128 .LVU70
 3417 0577 0A       		.uleb128 .LVU74
 3418              	.LLST22:
 3419 0578 08       		.byte	0x8
 3420 0579 24000000 		.4byte	.LVL23
ARM GAS  C:\Users\DEVELO~1\AppData\Local\Temp\cc1go5hK.s 			page 61


 3421 057d 00       		.uleb128 .LVL23-.LVL23
 3422 057e 09       		.uleb128 0x9
 3423 057f A3       		.byte	0xa3
 3424 0580 01       		.uleb128 0x1
 3425 0581 52       		.byte	0x52
 3426 0582 71       		.byte	0x71
 3427 0583 00       		.sleb128 0
 3428 0584 22       		.byte	0x22
 3429 0585 31       		.byte	0x31
 3430 0586 1C       		.byte	0x1c
 3431 0587 9F       		.byte	0x9f
 3432 0588 00       		.byte	0
 3433              	.Ldebug_loc3:
 3434              		.section	.debug_aranges,"",%progbits
 3435 0000 44000000 		.4byte	0x44
 3436 0004 0200     		.2byte	0x2
 3437 0006 00000000 		.4byte	.Ldebug_info0
 3438 000a 04       		.byte	0x4
 3439 000b 00       		.byte	0
 3440 000c 0000     		.2byte	0
 3441 000e 0000     		.2byte	0
 3442 0010 00000000 		.4byte	.LFB352
 3443 0014 34000000 		.4byte	.LFE352-.LFB352
 3444 0018 00000000 		.4byte	.LFB353
 3445 001c 34000000 		.4byte	.LFE353-.LFB353
 3446 0020 00000000 		.4byte	.LFB354
 3447 0024 4A000000 		.4byte	.LFE354-.LFB354
 3448 0028 00000000 		.4byte	.LFB355
 3449 002c 5C000000 		.4byte	.LFE355-.LFB355
 3450 0030 00000000 		.4byte	.LFB356
 3451 0034 5C000000 		.4byte	.LFE356-.LFB356
 3452 0038 00000000 		.4byte	.LFB357
 3453 003c 38000000 		.4byte	.LFE357-.LFB357
 3454 0040 00000000 		.4byte	0
 3455 0044 00000000 		.4byte	0
 3456              		.section	.debug_rnglists,"",%progbits
 3457              	.Ldebug_ranges0:
 3458 0000 8D000000 		.4byte	.Ldebug_ranges3-.Ldebug_ranges2
 3459              	.Ldebug_ranges2:
 3460 0004 0500     		.2byte	0x5
 3461 0006 04       		.byte	0x4
 3462 0007 00       		.byte	0
 3463 0008 00000000 		.4byte	0
 3464              	.LLRL4:
 3465 000c 05       		.byte	0x5
 3466 000d 0A000000 		.4byte	.LBB2
 3467 0011 04       		.byte	0x4
 3468 0012 00       		.uleb128 .LBB2-.LBB2
 3469 0013 02       		.uleb128 .LBE2-.LBB2
 3470 0014 04       		.byte	0x4
 3471 0015 08       		.uleb128 .LBB3-.LBB2
 3472 0016 1C       		.uleb128 .LBE3-.LBB2
 3473 0017 00       		.byte	0
 3474              	.LLRL10:
 3475 0018 05       		.byte	0x5
 3476 0019 0A000000 		.4byte	.LBB4
 3477 001d 04       		.byte	0x4
ARM GAS  C:\Users\DEVELO~1\AppData\Local\Temp\cc1go5hK.s 			page 62


 3478 001e 00       		.uleb128 .LBB4-.LBB4
 3479 001f 02       		.uleb128 .LBE4-.LBB4
 3480 0020 04       		.byte	0x4
 3481 0021 08       		.uleb128 .LBB5-.LBB4
 3482 0022 1C       		.uleb128 .LBE5-.LBB4
 3483 0023 00       		.byte	0
 3484              	.LLRL15:
 3485 0024 05       		.byte	0x5
 3486 0025 10000000 		.4byte	.LBB8
 3487 0029 04       		.byte	0x4
 3488 002a 00       		.uleb128 .LBB8-.LBB8
 3489 002b 0C       		.uleb128 .LBE8-.LBB8
 3490 002c 04       		.byte	0x4
 3491 002d 14       		.uleb128 .LBB12-.LBB8
 3492 002e 14       		.uleb128 .LBE12-.LBB8
 3493 002f 04       		.byte	0x4
 3494 0030 14       		.uleb128 .LBB13-.LBB8
 3495 0031 34       		.uleb128 .LBE13-.LBB8
 3496 0032 00       		.byte	0
 3497              	.LLRL27:
 3498 0033 05       		.byte	0x5
 3499 0034 1C000000 		.4byte	.LBB20
 3500 0038 04       		.byte	0x4
 3501 0039 00       		.uleb128 .LBB20-.LBB20
 3502 003a 0C       		.uleb128 .LBE20-.LBB20
 3503 003b 04       		.byte	0x4
 3504 003c 14       		.uleb128 .LBB24-.LBB20
 3505 003d 14       		.uleb128 .LBE24-.LBB20
 3506 003e 04       		.byte	0x4
 3507 003f 14       		.uleb128 .LBB25-.LBB20
 3508 0040 34       		.uleb128 .LBE25-.LBB20
 3509 0041 00       		.byte	0
 3510              	.LLRL39:
 3511 0042 05       		.byte	0x5
 3512 0043 1C000000 		.4byte	.LBB32
 3513 0047 04       		.byte	0x4
 3514 0048 00       		.uleb128 .LBB32-.LBB32
 3515 0049 0C       		.uleb128 .LBE32-.LBB32
 3516 004a 04       		.byte	0x4
 3517 004b 14       		.uleb128 .LBB36-.LBB32
 3518 004c 14       		.uleb128 .LBE36-.LBB32
 3519 004d 04       		.byte	0x4
 3520 004e 14       		.uleb128 .LBB37-.LBB32
 3521 004f 34       		.uleb128 .LBE37-.LBB32
 3522 0050 00       		.byte	0
 3523              	.LLRL48:
 3524 0051 05       		.byte	0x5
 3525 0052 00000000 		.4byte	.LBB42
 3526 0056 04       		.byte	0x4
 3527 0057 00       		.uleb128 .LBB42-.LBB42
 3528 0058 02       		.uleb128 .LBE42-.LBB42
 3529 0059 04       		.byte	0x4
 3530 005a 04       		.uleb128 .LBB50-.LBB42
 3531 005b 2E       		.uleb128 .LBE50-.LBB42
 3532 005c 04       		.byte	0x4
 3533 005d 30       		.uleb128 .LBB51-.LBB42
 3534 005e 38       		.uleb128 .LBE51-.LBB42
ARM GAS  C:\Users\DEVELO~1\AppData\Local\Temp\cc1go5hK.s 			page 63


 3535 005f 00       		.byte	0
 3536              	.LLRL51:
 3537 0060 05       		.byte	0x5
 3538 0061 16000000 		.4byte	.LBB44
 3539 0065 04       		.byte	0x4
 3540 0066 00       		.uleb128 .LBB44-.LBB44
 3541 0067 00       		.uleb128 .LBE44-.LBB44
 3542 0068 04       		.byte	0x4
 3543 0069 00       		.uleb128 .LBB47-.LBB44
 3544 006a 18       		.uleb128 .LBE47-.LBB44
 3545 006b 00       		.byte	0
 3546              	.LLRL59:
 3547 006c 07       		.byte	0x7
 3548 006d 00000000 		.4byte	.LFB352
 3549 0071 34       		.uleb128 .LFE352-.LFB352
 3550 0072 07       		.byte	0x7
 3551 0073 00000000 		.4byte	.LFB353
 3552 0077 34       		.uleb128 .LFE353-.LFB353
 3553 0078 07       		.byte	0x7
 3554 0079 00000000 		.4byte	.LFB354
 3555 007d 4A       		.uleb128 .LFE354-.LFB354
 3556 007e 07       		.byte	0x7
 3557 007f 00000000 		.4byte	.LFB355
 3558 0083 5C       		.uleb128 .LFE355-.LFB355
 3559 0084 07       		.byte	0x7
 3560 0085 00000000 		.4byte	.LFB356
 3561 0089 5C       		.uleb128 .LFE356-.LFB356
 3562 008a 07       		.byte	0x7
 3563 008b 00000000 		.4byte	.LFB357
 3564 008f 38       		.uleb128 .LFE357-.LFB357
 3565 0090 00       		.byte	0
 3566              	.Ldebug_ranges3:
 3567              		.section	.debug_line,"",%progbits
 3568              	.Ldebug_line0:
 3569 0000 6B040000 		.section	.debug_str,"MS",%progbits,1
 3569      03009C01 
 3569      00000201 
 3569      FB0E0D00 
 3569      01010101 
 3570              	.LASF32:
 3571 0000 6D656D5F 		.ascii	"mem_end\000"
 3571      656E6400 
 3572              	.LASF5:
 3573 0008 5F5F7569 		.ascii	"__uint8_t\000"
 3573      6E74385F 
 3573      7400
 3574              	.LASF4:
 3575 0012 73697A65 		.ascii	"size_t\000"
 3575      5F7400
 3576              	.LASF25:
 3577 0019 616C6967 		.ascii	"align\000"
 3577      6E00
 3578              	.LASF31:
 3579 001f 6D656D5F 		.ascii	"mem_base\000"
 3579      62617365 
 3579      00
 3580              	.LASF27:
ARM GAS  C:\Users\DEVELO~1\AppData\Local\Temp\cc1go5hK.s 			page 64


 3581 0028 5F5F6675 		.ascii	"__func__\000"
 3581      6E635F5F 
 3581      00
 3582              	.LASF6:
 3583 0031 756E7369 		.ascii	"unsigned char\000"
 3583      676E6564 
 3583      20636861 
 3583      7200
 3584              	.LASF20:
 3585 003f 5F5F6368 		.ascii	"__ch_mem_readable_areas\000"
 3585      5F6D656D 
 3585      5F726561 
 3585      6461626C 
 3585      655F6172 
 3586              	.LASF10:
 3587 0057 6C6F6E67 		.ascii	"long unsigned int\000"
 3587      20756E73 
 3587      69676E65 
 3587      6420696E 
 3587      7400
 3588              	.LASF8:
 3589 0069 73686F72 		.ascii	"short unsigned int\000"
 3589      7420756E 
 3589      7369676E 
 3589      65642069 
 3589      6E7400
 3590              	.LASF37:
 3591 007c 63684D65 		.ascii	"chMemIsSpaceWithinX\000"
 3591      6D497353 
 3591      70616365 
 3591      57697468 
 3591      696E5800 
 3592              	.LASF14:
 3593 0090 75696E74 		.ascii	"uintptr_t\000"
 3593      7074725F 
 3593      7400
 3594              	.LASF19:
 3595 009a 5F5F6368 		.ascii	"__ch_mem_writable_areas\000"
 3595      5F6D656D 
 3595      5F777269 
 3595      7461626C 
 3595      655F6172 
 3596              	.LASF18:
 3597 00b2 6D656D6F 		.ascii	"memory_area_t\000"
 3597      72795F61 
 3597      7265615F 
 3597      7400
 3598              	.LASF16:
 3599 00c0 62617365 		.ascii	"base\000"
 3599      00
 3600              	.LASF36:
 3601 00c5 63684D65 		.ascii	"chMemIsSpaceContainedX\000"
 3601      6D497353 
 3601      70616365 
 3601      436F6E74 
 3601      61696E65 
 3602              	.LASF0:
ARM GAS  C:\Users\DEVELO~1\AppData\Local\Temp\cc1go5hK.s 			page 65


 3603 00dc 756E7369 		.ascii	"unsigned int\000"
 3603      676E6564 
 3603      20696E74 
 3603      00
 3604              	.LASF23:
 3605 00e9 63684D65 		.ascii	"chMemIsAddressExecutableX\000"
 3605      6D497341 
 3605      64647265 
 3605      73734578 
 3605      65637574 
 3606              	.LASF12:
 3607 0103 5F5F7569 		.ascii	"__uintptr_t\000"
 3607      6E747074 
 3607      725F7400 
 3608              	.LASF15:
 3609 010f 63686172 		.ascii	"char\000"
 3609      00
 3610              	.LASF13:
 3611 0114 75696E74 		.ascii	"uint8_t\000"
 3611      385F7400 
 3612              	.LASF24:
 3613 011c 63684D65 		.ascii	"chMemIsSpaceReadableX\000"
 3613      6D497353 
 3613      70616365 
 3613      52656164 
 3613      61626C65 
 3614              	.LASF1:
 3615 0132 6C6F6E67 		.ascii	"long long int\000"
 3615      206C6F6E 
 3615      6720696E 
 3615      7400
 3616              	.LASF30:
 3617 0140 63684D65 		.ascii	"chMemIsStringWithinX\000"
 3617      6D497353 
 3617      7472696E 
 3617      67576974 
 3617      68696E58 
 3618              	.LASF21:
 3619 0155 5F5F6368 		.ascii	"__ch_mem_executable_areas\000"
 3619      5F6D656D 
 3619      5F657865 
 3619      63757461 
 3619      626C655F 
 3620              	.LASF7:
 3621 016f 73686F72 		.ascii	"short int\000"
 3621      7420696E 
 3621      7400
 3622              	.LASF35:
 3623 0179 433A5C43 		.ascii	"C:\\ChibiStudio\\chibios2111\\demos\\STM32\\RT-STM3"
 3623      68696269 
 3623      53747564 
 3623      696F5C63 
 3623      68696269 
 3624 01a7 32483734 		.ascii	"2H743ZI_REV_XY-NUCLEO144 - Copie\000"
 3624      335A495F 
 3624      5245565F 
 3624      58592D4E 
ARM GAS  C:\Users\DEVELO~1\AppData\Local\Temp\cc1go5hK.s 			page 66


 3624      55434C45 
 3625              	.LASF28:
 3626 01c8 61726561 		.ascii	"areas\000"
 3626      7300
 3627              	.LASF34:
 3628 01ce 2E2F4368 		.ascii	"./ChibiOS/os/oslib/src/chmemchecks.c\000"
 3628      6962694F 
 3628      532F6F73 
 3628      2F6F736C 
 3628      69622F73 
 3629              	.LASF33:
 3630 01f3 474E5520 		.ascii	"GNU C17 11.3.1 20220712 -mcpu=cortex-m7 -mthumb -mf"
 3630      43313720 
 3630      31312E33 
 3630      2E312032 
 3630      30323230 
 3631 0226 6C6F6174 		.ascii	"loat-abi=soft -march=armv7e-m -ggdb -O2 -fomit-fram"
 3631      2D616269 
 3631      3D736F66 
 3631      74202D6D 
 3631      61726368 
 3632 0259 652D706F 		.ascii	"e-pointer -falign-functions=16 -ffunction-sections "
 3632      696E7465 
 3632      72202D66 
 3632      616C6967 
 3632      6E2D6675 
 3633 028c 2D666461 		.ascii	"-fdata-sections -fno-common\000"
 3633      74612D73 
 3633      65637469 
 3633      6F6E7320 
 3633      2D666E6F 
 3634              	.LASF9:
 3635 02a8 6C6F6E67 		.ascii	"long int\000"
 3635      20696E74 
 3635      00
 3636              	.LASF26:
 3637 02b1 63684D65 		.ascii	"chMemIsSpaceWritableX\000"
 3637      6D497353 
 3637      70616365 
 3637      57726974 
 3637      61626C65 
 3638              	.LASF2:
 3639 02c7 6C6F6E67 		.ascii	"long double\000"
 3639      20646F75 
 3639      626C6500 
 3640              	.LASF3:
 3641 02d3 7369676E 		.ascii	"signed char\000"
 3641      65642063 
 3641      68617200 
 3642              	.LASF17:
 3643 02df 73697A65 		.ascii	"size\000"
 3643      00
 3644              	.LASF22:
 3645 02e4 5F426F6F 		.ascii	"_Bool\000"
 3645      6C00
 3646              	.LASF11:
 3647 02ea 6C6F6E67 		.ascii	"long long unsigned int\000"
ARM GAS  C:\Users\DEVELO~1\AppData\Local\Temp\cc1go5hK.s 			page 67


 3647      206C6F6E 
 3647      6720756E 
 3647      7369676E 
 3647      65642069 
 3648              	.LASF29:
 3649 0301 63684D65 		.ascii	"chMemIsPointersArrayWithinX\000"
 3649      6D497350 
 3649      6F696E74 
 3649      65727341 
 3649      72726179 
 3650              		.ident	"GCC: (Arm GNU Toolchain 11.3.Rel1) 11.3.1 20220712"
ARM GAS  C:\Users\DEVELO~1\AppData\Local\Temp\cc1go5hK.s 			page 68


DEFINED SYMBOLS
                            *ABS*:00000000 chmemchecks.c
C:\Users\DEVELO~1\AppData\Local\Temp\cc1go5hK.s:18     .text.chMemIsStringWithinX:00000000 $t
C:\Users\DEVELO~1\AppData\Local\Temp\cc1go5hK.s:25     .text.chMemIsStringWithinX:00000000 chMemIsStringWithinX
C:\Users\DEVELO~1\AppData\Local\Temp\cc1go5hK.s:109    .text.chMemIsPointersArrayWithinX:00000000 $t
C:\Users\DEVELO~1\AppData\Local\Temp\cc1go5hK.s:116    .text.chMemIsPointersArrayWithinX:00000000 chMemIsPointersArrayWithinX
C:\Users\DEVELO~1\AppData\Local\Temp\cc1go5hK.s:199    .text.chMemIsSpaceContainedX:00000000 $t
C:\Users\DEVELO~1\AppData\Local\Temp\cc1go5hK.s:206    .text.chMemIsSpaceContainedX:00000000 chMemIsSpaceContainedX
C:\Users\DEVELO~1\AppData\Local\Temp\cc1go5hK.s:311    .text.chMemIsSpaceWritableX:00000000 $t
C:\Users\DEVELO~1\AppData\Local\Temp\cc1go5hK.s:318    .text.chMemIsSpaceWritableX:00000000 chMemIsSpaceWritableX
C:\Users\DEVELO~1\AppData\Local\Temp\cc1go5hK.s:445    .text.chMemIsSpaceWritableX:00000058 $d
C:\Users\DEVELO~1\AppData\Local\Temp\cc1go5hK.s:721    .rodata.__ch_mem_writable_areas:00000000 __ch_mem_writable_areas
C:\Users\DEVELO~1\AppData\Local\Temp\cc1go5hK.s:450    .text.chMemIsSpaceReadableX:00000000 $t
C:\Users\DEVELO~1\AppData\Local\Temp\cc1go5hK.s:457    .text.chMemIsSpaceReadableX:00000000 chMemIsSpaceReadableX
C:\Users\DEVELO~1\AppData\Local\Temp\cc1go5hK.s:584    .text.chMemIsSpaceReadableX:00000058 $d
C:\Users\DEVELO~1\AppData\Local\Temp\cc1go5hK.s:712    .rodata.__ch_mem_readable_areas:00000000 __ch_mem_readable_areas
C:\Users\DEVELO~1\AppData\Local\Temp\cc1go5hK.s:589    .text.chMemIsAddressExecutableX:00000000 $t
C:\Users\DEVELO~1\AppData\Local\Temp\cc1go5hK.s:596    .text.chMemIsAddressExecutableX:00000000 chMemIsAddressExecutableX
C:\Users\DEVELO~1\AppData\Local\Temp\cc1go5hK.s:690    .text.chMemIsAddressExecutableX:00000034 $d
C:\Users\DEVELO~1\AppData\Local\Temp\cc1go5hK.s:703    .rodata.__ch_mem_executable_areas:00000000 __ch_mem_executable_areas
C:\Users\DEVELO~1\AppData\Local\Temp\cc1go5hK.s:700    .rodata.__ch_mem_executable_areas:00000000 $d
C:\Users\DEVELO~1\AppData\Local\Temp\cc1go5hK.s:709    .rodata.__ch_mem_readable_areas:00000000 $d
C:\Users\DEVELO~1\AppData\Local\Temp\cc1go5hK.s:718    .rodata.__ch_mem_writable_areas:00000000 $d

NO UNDEFINED SYMBOLS
