ARM GAS  C:\Users\DEVELO~1\AppData\Local\Temp\ccL0tHjw.s 			page 1


   1              		.cpu cortex-m7
   2              		.arch armv7e-m
   3              		.fpu softvfp
   4              		.eabi_attribute 20, 1
   5              		.eabi_attribute 21, 1
   6              		.eabi_attribute 23, 3
   7              		.eabi_attribute 24, 1
   8              		.eabi_attribute 25, 1
   9              		.eabi_attribute 26, 1
  10              		.eabi_attribute 30, 2
  11              		.eabi_attribute 34, 1
  12              		.eabi_attribute 18, 4
  13              		.file	"chmemcore.c"
  14              		.text
  15              	.Ltext0:
  16              		.cfi_sections	.debug_frame
  17              		.section	.text.__core_init,"ax",%progbits
  18              		.align	1
  19              		.p2align 4,,15
  20              		.global	__core_init
  21              		.syntax unified
  22              		.thumb
  23              		.thumb_func
  24              		.type	__core_init, %function
  25              	__core_init:
  26              	.LFB352:
  27              		.file 1 "./ChibiOS/os/oslib/src/chmemcore.c"
  28              		.loc 1 81 24 view -0
  29              		.cfi_startproc
  30              		@ args = 0, pretend = 0, frame = 0
  31              		@ frame_needed = 0, uses_anonymous_args = 0
  32              		@ link register save eliminated.
  33              		.loc 1 83 3 view .LVU1
  34              		.loc 1 84 3 view .LVU2
  35              		.loc 1 87 3 view .LVU3
  36              		.loc 1 87 22 is_stmt 0 view .LVU4
  37 0000 024B     		ldr	r3, .L3
  38 0002 0349     		ldr	r1, .L3+4
  39              		.loc 1 88 22 view .LVU5
  40 0004 034A     		ldr	r2, .L3+8
  41 0006 C3E90012 		strd	r1, r2, [r3]
  42              		.loc 1 96 1 view .LVU6
  43 000a 7047     		bx	lr
  44              	.L4:
  45              		.align	2
  46              	.L3:
  47 000c 00000000 		.word	.LANCHOR0
  48 0010 00000000 		.word	__heap_base__
  49 0014 00000000 		.word	__heap_end__
  50              		.cfi_endproc
  51              	.LFE352:
  52              		.size	__core_init, .-__core_init
  53              		.section	.text.chCoreAllocFromBaseI,"ax",%progbits
  54              		.align	1
  55              		.p2align 4,,15
  56              		.global	chCoreAllocFromBaseI
  57              		.syntax unified
ARM GAS  C:\Users\DEVELO~1\AppData\Local\Temp\ccL0tHjw.s 			page 2


  58              		.thumb
  59              		.thumb_func
  60              		.type	chCoreAllocFromBaseI, %function
  61              	chCoreAllocFromBaseI:
  62              	.LVL0:
  63              	.LFB353:
  64              		.loc 1 112 72 is_stmt 1 view -0
  65              		.cfi_startproc
  66              		@ args = 0, pretend = 0, frame = 0
  67              		@ frame_needed = 0, uses_anonymous_args = 0
  68              		@ link register save eliminated.
  69              		.loc 1 113 3 view .LVU8
  70              		.loc 1 115 21 view .LVU9
  71              		.loc 1 116 3 view .LVU10
  72              		.loc 1 116 3 view .LVU11
  73              		.loc 1 116 3 view .LVU12
  74              		.loc 1 118 3 view .LVU13
  75              		.loc 1 118 18 is_stmt 0 view .LVU14
  76 0000 0B4B     		ldr	r3, .L9
  77 0002 01F1FF3C 		add	ip, r1, #-1
  78 0006 4942     		rsbs	r1, r1, #0
  79              	.LVL1:
  80              		.loc 1 112 72 view .LVU15
  81 0008 10B4     		push	{r4}
  82              		.cfi_def_cfa_offset 4
  83              		.cfi_offset 4, -4
  84              		.loc 1 118 18 view .LVU16
  85 000a 1C68     		ldr	r4, [r3]
  86 000c 2244     		add	r2, r2, r4
  87              	.LVL2:
  88              		.loc 1 118 18 view .LVU17
  89 000e 6244     		add	r2, r2, ip
  90 0010 0A40     		ands	r2, r2, r1
  91              	.LVL3:
  92              		.loc 1 119 3 is_stmt 1 view .LVU18
  93              		.loc 1 122 6 is_stmt 0 view .LVU19
  94 0012 5968     		ldr	r1, [r3, #4]
  95              	.LVL4:
  96              		.loc 1 119 8 view .LVU20
  97 0014 1044     		add	r0, r0, r2
  98              	.LVL5:
  99              		.loc 1 122 3 is_stmt 1 view .LVU21
 100              		.loc 1 122 34 is_stmt 0 view .LVU22
 101 0016 8842     		cmp	r0, r1
 102 0018 05D8     		bhi	.L7
 103 001a A042     		cmp	r0, r4
 104 001c 03D3     		bcc	.L7
 105              		.loc 1 126 3 is_stmt 1 view .LVU23
 106              		.loc 1 126 22 is_stmt 0 view .LVU24
 107 001e 1860     		str	r0, [r3]
 108              		.loc 1 128 3 is_stmt 1 view .LVU25
 109              		.loc 1 129 1 is_stmt 0 view .LVU26
 110 0020 1046     		mov	r0, r2
 111              	.LVL6:
 112              		.loc 1 129 1 view .LVU27
 113 0022 10BC     		pop	{r4}
 114              		.cfi_remember_state
ARM GAS  C:\Users\DEVELO~1\AppData\Local\Temp\ccL0tHjw.s 			page 3


 115              		.cfi_restore 4
 116              		.cfi_def_cfa_offset 0
 117 0024 7047     		bx	lr
 118              	.LVL7:
 119              	.L7:
 120              		.cfi_restore_state
 121              		.loc 1 123 12 view .LVU28
 122 0026 0022     		movs	r2, #0
 123              	.LVL8:
 124              		.loc 1 129 1 view .LVU29
 125 0028 10BC     		pop	{r4}
 126              		.cfi_restore 4
 127              		.cfi_def_cfa_offset 0
 128              	.LVL9:
 129              		.loc 1 129 1 view .LVU30
 130 002a 1046     		mov	r0, r2
 131              	.LVL10:
 132              		.loc 1 129 1 view .LVU31
 133 002c 7047     		bx	lr
 134              	.L10:
 135 002e 00BF     		.align	2
 136              	.L9:
 137 0030 00000000 		.word	.LANCHOR0
 138              		.cfi_endproc
 139              	.LFE353:
 140              		.size	chCoreAllocFromBaseI, .-chCoreAllocFromBaseI
 141              		.section	.text.chCoreAllocFromTopI,"ax",%progbits
 142              		.align	1
 143              		.p2align 4,,15
 144              		.global	chCoreAllocFromTopI
 145              		.syntax unified
 146              		.thumb
 147              		.thumb_func
 148              		.type	chCoreAllocFromTopI, %function
 149              	chCoreAllocFromTopI:
 150              	.LVL11:
 151              	.LFB354:
 152              		.loc 1 145 71 is_stmt 1 view -0
 153              		.cfi_startproc
 154              		@ args = 0, pretend = 0, frame = 0
 155              		@ frame_needed = 0, uses_anonymous_args = 0
 156              		@ link register save eliminated.
 157              		.loc 1 146 3 view .LVU33
 158              		.loc 1 148 21 view .LVU34
 159              		.loc 1 149 3 view .LVU35
 160              		.loc 1 149 3 view .LVU36
 161              		.loc 1 149 3 view .LVU37
 162              		.loc 1 151 3 view .LVU38
 163              		.loc 1 151 18 is_stmt 0 view .LVU39
 164 0000 084B     		ldr	r3, .L15
 165 0002 4942     		rsbs	r1, r1, #0
 166              	.LVL12:
 167              		.loc 1 145 71 view .LVU40
 168 0004 10B4     		push	{r4}
 169              		.cfi_def_cfa_offset 4
 170              		.cfi_offset 4, -4
 171              		.loc 1 151 18 view .LVU41
ARM GAS  C:\Users\DEVELO~1\AppData\Local\Temp\ccL0tHjw.s 			page 4


 172 0006 5C68     		ldr	r4, [r3, #4]
 173 0008 201A     		subs	r0, r4, r0
 174              	.LVL13:
 175              		.loc 1 151 5 view .LVU42
 176 000a 0840     		ands	r0, r0, r1
 177              	.LVL14:
 178              		.loc 1 152 3 is_stmt 1 view .LVU43
 179              		.loc 1 155 6 is_stmt 0 view .LVU44
 180 000c 1968     		ldr	r1, [r3]
 181              	.LVL15:
 182              		.loc 1 152 8 view .LVU45
 183 000e 821A     		subs	r2, r0, r2
 184              	.LVL16:
 185              		.loc 1 155 3 is_stmt 1 view .LVU46
 186              		.loc 1 155 35 is_stmt 0 view .LVU47
 187 0010 8A42     		cmp	r2, r1
 188 0012 04D3     		bcc	.L13
 189 0014 A242     		cmp	r2, r4
 190 0016 02D8     		bhi	.L13
 191              		.loc 1 159 3 is_stmt 1 view .LVU48
 192              		.loc 1 162 1 is_stmt 0 view .LVU49
 193 0018 10BC     		pop	{r4}
 194              		.cfi_remember_state
 195              		.cfi_restore 4
 196              		.cfi_def_cfa_offset 0
 197              		.loc 1 159 21 view .LVU50
 198 001a 5A60     		str	r2, [r3, #4]
 199              		.loc 1 161 3 is_stmt 1 view .LVU51
 200              		.loc 1 162 1 is_stmt 0 view .LVU52
 201 001c 7047     		bx	lr
 202              	.L13:
 203              		.cfi_restore_state
 204              		.loc 1 156 12 view .LVU53
 205 001e 0020     		movs	r0, #0
 206              	.LVL17:
 207              		.loc 1 162 1 view .LVU54
 208 0020 10BC     		pop	{r4}
 209              		.cfi_restore 4
 210              		.cfi_def_cfa_offset 0
 211              	.LVL18:
 212              		.loc 1 162 1 view .LVU55
 213 0022 7047     		bx	lr
 214              	.L16:
 215              		.align	2
 216              	.L15:
 217 0024 00000000 		.word	.LANCHOR0
 218              		.cfi_endproc
 219              	.LFE354:
 220              		.size	chCoreAllocFromTopI, .-chCoreAllocFromTopI
 221              		.section	.text.chCoreAllocFromBase,"ax",%progbits
 222              		.align	1
 223              		.p2align 4,,15
 224              		.global	chCoreAllocFromBase
 225              		.syntax unified
 226              		.thumb
 227              		.thumb_func
 228              		.type	chCoreAllocFromBase, %function
ARM GAS  C:\Users\DEVELO~1\AppData\Local\Temp\ccL0tHjw.s 			page 5


 229              	chCoreAllocFromBase:
 230              	.LVL19:
 231              	.LFB355:
 232              		.loc 1 178 71 is_stmt 1 view -0
 233              		.cfi_startproc
 234              		@ args = 0, pretend = 0, frame = 0
 235              		@ frame_needed = 0, uses_anonymous_args = 0
 236              		@ link register save eliminated.
 237              		.loc 1 179 3 view .LVU57
 238              		.loc 1 181 3 view .LVU58
 239              	.LBB45:
 240              	.LBI45:
 241              		.file 2 "./ChibiOS/os/rt/include/chsys.h"
 242              		.loc 2 372 20 view .LVU59
 243              		.loc 2 374 3 view .LVU60
 244              	.LBB46:
 245              	.LBI46:
 246              		.file 3 "./ChibiOS/os/common/ports/ARMv7-M/chcore.h"
 247              		.loc 3 840 27 view .LVU61
 248              		.loc 3 848 3 view .LVU62
 249              	.LBB47:
 250              	.LBI47:
 251              		.file 4 "./ChibiOS/os/common/ext/ARM/CMSIS/Core/Include/cmsis_gcc.h"
 252              		.loc 4 491 27 view .LVU63
 253              	.LBB48:
 254              		.loc 4 493 3 view .LVU64
 255              	.LBE48:
 256              	.LBE47:
 257              	.LBE46:
 258              	.LBE45:
 259              		.loc 1 178 71 is_stmt 0 view .LVU65
 260 0000 30B4     		push	{r4, r5}
 261              		.cfi_def_cfa_offset 8
 262              		.cfi_offset 4, -8
 263              		.cfi_offset 5, -4
 264              		.loc 1 178 71 view .LVU66
 265 0002 0346     		mov	r3, r0
 266              	.LBB52:
 267              	.LBB51:
 268              	.LBB50:
 269              	.LBB49:
 270              		.loc 4 493 3 view .LVU67
 271 0004 3024     		movs	r4, #48
 272              		.syntax unified
 273              	@ 493 "./ChibiOS/os/common/ext/ARM/CMSIS/Core/Include/cmsis_gcc.h" 1
 274 0006 84F31188 		MSR basepri, r4
 275              	@ 0 "" 2
 276              	.LVL20:
 277              		.loc 4 493 3 view .LVU68
 278              		.thumb
 279              		.syntax unified
 280              	.LBE49:
 281              	.LBE50:
 282              	.LBE51:
 283              		.loc 2 375 35 is_stmt 1 view .LVU69
 284              		.loc 2 376 21 view .LVU70
 285              	.LBE52:
ARM GAS  C:\Users\DEVELO~1\AppData\Local\Temp\ccL0tHjw.s 			page 6


 286              		.loc 1 182 3 view .LVU71
 287              	.LBB53:
 288              	.LBI53:
 289              		.loc 1 112 7 view .LVU72
 290              	.LBB54:
 291              		.loc 1 113 3 view .LVU73
 292              		.loc 1 115 21 view .LVU74
 293              		.loc 1 116 3 view .LVU75
 294              		.loc 1 116 3 view .LVU76
 295              		.loc 1 116 3 view .LVU77
 296              		.loc 1 118 3 view .LVU78
 297              		.loc 1 118 18 is_stmt 0 view .LVU79
 298 000a 0D4C     		ldr	r4, .L21
 299 000c 481E     		subs	r0, r1, #1
 300              	.LVL21:
 301              		.loc 1 118 18 view .LVU80
 302 000e 4942     		rsbs	r1, r1, #0
 303              	.LVL22:
 304              		.loc 1 118 18 view .LVU81
 305 0010 2568     		ldr	r5, [r4]
 306 0012 2A44     		add	r2, r2, r5
 307              	.LVL23:
 308              		.loc 1 118 18 view .LVU82
 309 0014 0244     		add	r2, r2, r0
 310 0016 02EA0100 		and	r0, r2, r1
 311              	.LVL24:
 312              		.loc 1 119 3 is_stmt 1 view .LVU83
 313              		.loc 1 122 6 is_stmt 0 view .LVU84
 314 001a 6268     		ldr	r2, [r4, #4]
 315              		.loc 1 119 8 view .LVU85
 316 001c 0344     		add	r3, r3, r0
 317              	.LVL25:
 318              		.loc 1 122 3 is_stmt 1 view .LVU86
 319              		.loc 1 122 34 is_stmt 0 view .LVU87
 320 001e 9342     		cmp	r3, r2
 321 0020 07D8     		bhi	.L19
 322 0022 9D42     		cmp	r5, r3
 323 0024 05D8     		bhi	.L19
 324              		.loc 1 126 3 is_stmt 1 view .LVU88
 325              		.loc 1 126 22 is_stmt 0 view .LVU89
 326 0026 2360     		str	r3, [r4]
 327              		.loc 1 128 3 is_stmt 1 view .LVU90
 328              	.LVL26:
 329              		.loc 1 128 3 is_stmt 0 view .LVU91
 330              	.LBE54:
 331              	.LBE53:
 332              		.loc 1 183 3 is_stmt 1 view .LVU92
 333              	.LBB56:
 334              	.LBI56:
 335              		.loc 2 386 20 view .LVU93
 336              	.LBB57:
 337              		.loc 2 388 23 view .LVU94
 338              		.loc 2 389 34 view .LVU95
 339              		.loc 2 395 3 view .LVU96
 340              		.loc 2 395 3 view .LVU97
 341              		.loc 2 395 3 view .LVU98
 342              		.loc 2 399 3 view .LVU99
ARM GAS  C:\Users\DEVELO~1\AppData\Local\Temp\ccL0tHjw.s 			page 7


 343              	.LBB58:
 344              	.LBI58:
 345              		.loc 3 864 27 view .LVU100
 346              		.loc 3 867 3 view .LVU101
 347              	.LBB59:
 348              	.LBI59:
 349              		.loc 4 491 27 view .LVU102
 350              	.LBB60:
 351              		.loc 4 493 3 view .LVU103
 352 0028 0023     		movs	r3, #0
 353              		.syntax unified
 354              	@ 493 "./ChibiOS/os/common/ext/ARM/CMSIS/Core/Include/cmsis_gcc.h" 1
 355 002a 83F31188 		MSR basepri, r3
 356              	@ 0 "" 2
 357              	.LVL27:
 358              		.loc 4 493 3 is_stmt 0 view .LVU104
 359              		.thumb
 360              		.syntax unified
 361              	.LBE60:
 362              	.LBE59:
 363              	.LBE58:
 364              	.LBE57:
 365              	.LBE56:
 366              		.loc 1 185 3 is_stmt 1 view .LVU105
 367              		.loc 1 186 1 is_stmt 0 view .LVU106
 368 002e 30BC     		pop	{r4, r5}
 369              		.cfi_remember_state
 370              		.cfi_restore 5
 371              		.cfi_restore 4
 372              		.cfi_def_cfa_offset 0
 373 0030 7047     		bx	lr
 374              	.LVL28:
 375              	.L19:
 376              		.cfi_restore_state
 377              	.LBB65:
 378              	.LBB55:
 379              		.loc 1 123 12 view .LVU107
 380 0032 0020     		movs	r0, #0
 381              	.LVL29:
 382              		.loc 1 123 12 view .LVU108
 383              	.LBE55:
 384              	.LBE65:
 385              		.loc 1 183 3 is_stmt 1 view .LVU109
 386              	.LBB66:
 387              		.loc 2 386 20 view .LVU110
 388              	.LBB64:
 389              		.loc 2 388 23 view .LVU111
 390              		.loc 2 389 34 view .LVU112
 391              		.loc 2 395 3 view .LVU113
 392              		.loc 2 395 3 view .LVU114
 393              		.loc 2 395 3 view .LVU115
 394              		.loc 2 399 3 view .LVU116
 395              	.LBB63:
 396              		.loc 3 864 27 view .LVU117
 397              		.loc 3 867 3 view .LVU118
 398              	.LBB62:
 399              		.loc 4 491 27 view .LVU119
ARM GAS  C:\Users\DEVELO~1\AppData\Local\Temp\ccL0tHjw.s 			page 8


 400              	.LBB61:
 401              		.loc 4 493 3 view .LVU120
 402 0034 0023     		movs	r3, #0
 403              		.syntax unified
 404              	@ 493 "./ChibiOS/os/common/ext/ARM/CMSIS/Core/Include/cmsis_gcc.h" 1
 405 0036 83F31188 		MSR basepri, r3
 406              	@ 0 "" 2
 407              	.LVL30:
 408              		.loc 4 493 3 is_stmt 0 view .LVU121
 409              		.thumb
 410              		.syntax unified
 411              	.LBE61:
 412              	.LBE62:
 413              	.LBE63:
 414              	.LBE64:
 415              	.LBE66:
 416              		.loc 1 185 3 is_stmt 1 view .LVU122
 417              		.loc 1 186 1 is_stmt 0 view .LVU123
 418 003a 30BC     		pop	{r4, r5}
 419              		.cfi_restore 5
 420              		.cfi_restore 4
 421              		.cfi_def_cfa_offset 0
 422 003c 7047     		bx	lr
 423              	.L22:
 424 003e 00BF     		.align	2
 425              	.L21:
 426 0040 00000000 		.word	.LANCHOR0
 427              		.cfi_endproc
 428              	.LFE355:
 429              		.size	chCoreAllocFromBase, .-chCoreAllocFromBase
 430              		.section	.text.chCoreAllocFromTop,"ax",%progbits
 431              		.align	1
 432              		.p2align 4,,15
 433              		.global	chCoreAllocFromTop
 434              		.syntax unified
 435              		.thumb
 436              		.thumb_func
 437              		.type	chCoreAllocFromTop, %function
 438              	chCoreAllocFromTop:
 439              	.LVL31:
 440              	.LFB356:
 441              		.loc 1 202 70 is_stmt 1 view -0
 442              		.cfi_startproc
 443              		@ args = 0, pretend = 0, frame = 0
 444              		@ frame_needed = 0, uses_anonymous_args = 0
 445              		@ link register save eliminated.
 446              		.loc 1 203 3 view .LVU125
 447              		.loc 1 205 3 view .LVU126
 448              	.LBB78:
 449              	.LBI78:
 450              		.loc 2 372 20 view .LVU127
 451              		.loc 2 374 3 view .LVU128
 452              	.LBB79:
 453              	.LBI79:
 454              		.loc 3 840 27 view .LVU129
 455              		.loc 3 848 3 view .LVU130
 456              	.LBB80:
ARM GAS  C:\Users\DEVELO~1\AppData\Local\Temp\ccL0tHjw.s 			page 9


 457              	.LBI80:
 458              		.loc 4 491 27 view .LVU131
 459              	.LBB81:
 460              		.loc 4 493 3 view .LVU132
 461 0000 3023     		movs	r3, #48
 462              	.LBE81:
 463              	.LBE80:
 464              	.LBE79:
 465              	.LBE78:
 466              		.loc 1 202 70 is_stmt 0 view .LVU133
 467 0002 10B4     		push	{r4}
 468              		.cfi_def_cfa_offset 4
 469              		.cfi_offset 4, -4
 470              	.LBB85:
 471              	.LBB84:
 472              	.LBB83:
 473              	.LBB82:
 474              		.loc 4 493 3 view .LVU134
 475              		.syntax unified
 476              	@ 493 "./ChibiOS/os/common/ext/ARM/CMSIS/Core/Include/cmsis_gcc.h" 1
 477 0004 83F31188 		MSR basepri, r3
 478              	@ 0 "" 2
 479              	.LVL32:
 480              		.loc 4 493 3 view .LVU135
 481              		.thumb
 482              		.syntax unified
 483              	.LBE82:
 484              	.LBE83:
 485              	.LBE84:
 486              		.loc 2 375 35 is_stmt 1 view .LVU136
 487              		.loc 2 376 21 view .LVU137
 488              	.LBE85:
 489              		.loc 1 206 3 view .LVU138
 490              	.LBB86:
 491              	.LBI86:
 492              		.loc 1 145 7 view .LVU139
 493              	.LBB87:
 494              		.loc 1 146 3 view .LVU140
 495              		.loc 1 148 21 view .LVU141
 496              		.loc 1 149 3 view .LVU142
 497              		.loc 1 149 3 view .LVU143
 498              		.loc 1 149 3 view .LVU144
 499              		.loc 1 151 3 view .LVU145
 500              		.loc 1 151 18 is_stmt 0 view .LVU146
 501 0008 0B4B     		ldr	r3, .L27
 502 000a 4942     		rsbs	r1, r1, #0
 503              	.LVL33:
 504              		.loc 1 151 18 view .LVU147
 505 000c 5C68     		ldr	r4, [r3, #4]
 506 000e 201A     		subs	r0, r4, r0
 507              	.LVL34:
 508              		.loc 1 151 5 view .LVU148
 509 0010 0840     		ands	r0, r0, r1
 510              	.LVL35:
 511              		.loc 1 152 3 is_stmt 1 view .LVU149
 512              		.loc 1 155 6 is_stmt 0 view .LVU150
 513 0012 1968     		ldr	r1, [r3]
ARM GAS  C:\Users\DEVELO~1\AppData\Local\Temp\ccL0tHjw.s 			page 10


 514              	.LVL36:
 515              		.loc 1 152 8 view .LVU151
 516 0014 821A     		subs	r2, r0, r2
 517              	.LVL37:
 518              		.loc 1 155 3 is_stmt 1 view .LVU152
 519              		.loc 1 155 35 is_stmt 0 view .LVU153
 520 0016 8A42     		cmp	r2, r1
 521 0018 07D3     		bcc	.L25
 522 001a 9442     		cmp	r4, r2
 523 001c 05D3     		bcc	.L25
 524              		.loc 1 159 3 is_stmt 1 view .LVU154
 525              		.loc 1 159 21 is_stmt 0 view .LVU155
 526 001e 5A60     		str	r2, [r3, #4]
 527              		.loc 1 161 3 is_stmt 1 view .LVU156
 528              	.LVL38:
 529              		.loc 1 161 3 is_stmt 0 view .LVU157
 530              	.LBE87:
 531              	.LBE86:
 532              		.loc 1 207 3 is_stmt 1 view .LVU158
 533              	.LBB89:
 534              	.LBI89:
 535              		.loc 2 386 20 view .LVU159
 536              	.LBB90:
 537              		.loc 2 388 23 view .LVU160
 538              		.loc 2 389 34 view .LVU161
 539              		.loc 2 395 3 view .LVU162
 540              		.loc 2 395 3 view .LVU163
 541              		.loc 2 395 3 view .LVU164
 542              		.loc 2 399 3 view .LVU165
 543              	.LBB91:
 544              	.LBI91:
 545              		.loc 3 864 27 view .LVU166
 546              		.loc 3 867 3 view .LVU167
 547              	.LBB92:
 548              	.LBI92:
 549              		.loc 4 491 27 view .LVU168
 550              	.LBB93:
 551              		.loc 4 493 3 view .LVU169
 552 0020 0023     		movs	r3, #0
 553              		.syntax unified
 554              	@ 493 "./ChibiOS/os/common/ext/ARM/CMSIS/Core/Include/cmsis_gcc.h" 1
 555 0022 83F31188 		MSR basepri, r3
 556              	@ 0 "" 2
 557              	.LVL39:
 558              		.loc 4 493 3 is_stmt 0 view .LVU170
 559              		.thumb
 560              		.syntax unified
 561              	.LBE93:
 562              	.LBE92:
 563              	.LBE91:
 564              	.LBE90:
 565              	.LBE89:
 566              		.loc 1 209 3 is_stmt 1 view .LVU171
 567              		.loc 1 210 1 is_stmt 0 view .LVU172
 568 0026 10BC     		pop	{r4}
 569              		.cfi_remember_state
 570              		.cfi_restore 4
ARM GAS  C:\Users\DEVELO~1\AppData\Local\Temp\ccL0tHjw.s 			page 11


 571              		.cfi_def_cfa_offset 0
 572 0028 7047     		bx	lr
 573              	.LVL40:
 574              	.L25:
 575              		.cfi_restore_state
 576              	.LBB98:
 577              	.LBB88:
 578              		.loc 1 156 12 view .LVU173
 579 002a 0020     		movs	r0, #0
 580              	.LVL41:
 581              		.loc 1 156 12 view .LVU174
 582              	.LBE88:
 583              	.LBE98:
 584              		.loc 1 207 3 is_stmt 1 view .LVU175
 585              	.LBB99:
 586              		.loc 2 386 20 view .LVU176
 587              	.LBB97:
 588              		.loc 2 388 23 view .LVU177
 589              		.loc 2 389 34 view .LVU178
 590              		.loc 2 395 3 view .LVU179
 591              		.loc 2 395 3 view .LVU180
 592              		.loc 2 395 3 view .LVU181
 593              		.loc 2 399 3 view .LVU182
 594              	.LBB96:
 595              		.loc 3 864 27 view .LVU183
 596              		.loc 3 867 3 view .LVU184
 597              	.LBB95:
 598              		.loc 4 491 27 view .LVU185
 599              	.LBB94:
 600              		.loc 4 493 3 view .LVU186
 601 002c 0023     		movs	r3, #0
 602              		.syntax unified
 603              	@ 493 "./ChibiOS/os/common/ext/ARM/CMSIS/Core/Include/cmsis_gcc.h" 1
 604 002e 83F31188 		MSR basepri, r3
 605              	@ 0 "" 2
 606              	.LVL42:
 607              		.loc 4 493 3 is_stmt 0 view .LVU187
 608              		.thumb
 609              		.syntax unified
 610              	.LBE94:
 611              	.LBE95:
 612              	.LBE96:
 613              	.LBE97:
 614              	.LBE99:
 615              		.loc 1 209 3 is_stmt 1 view .LVU188
 616              		.loc 1 210 1 is_stmt 0 view .LVU189
 617 0032 10BC     		pop	{r4}
 618              		.cfi_restore 4
 619              		.cfi_def_cfa_offset 0
 620 0034 7047     		bx	lr
 621              	.L28:
 622 0036 00BF     		.align	2
 623              	.L27:
 624 0038 00000000 		.word	.LANCHOR0
 625              		.cfi_endproc
 626              	.LFE356:
 627              		.size	chCoreAllocFromTop, .-chCoreAllocFromTop
ARM GAS  C:\Users\DEVELO~1\AppData\Local\Temp\ccL0tHjw.s 			page 12


 628              		.section	.text.chCoreGetStatusX,"ax",%progbits
 629              		.align	1
 630              		.p2align 4,,15
 631              		.global	chCoreGetStatusX
 632              		.syntax unified
 633              		.thumb
 634              		.thumb_func
 635              		.type	chCoreGetStatusX, %function
 636              	chCoreGetStatusX:
 637              	.LVL43:
 638              	.LFB357:
 639              		.loc 1 219 43 is_stmt 1 view -0
 640              		.cfi_startproc
 641              		@ args = 0, pretend = 0, frame = 0
 642              		@ frame_needed = 0, uses_anonymous_args = 0
 643              		@ link register save eliminated.
 644              		.loc 1 221 3 view .LVU191
 645              		.loc 1 221 25 is_stmt 0 view .LVU192
 646 0000 034B     		ldr	r3, .L30
 647              		.loc 1 223 42 view .LVU193
 648 0002 D3E90023 		ldrd	r2, r3, [r3]
 649 0006 9B1A     		subs	r3, r3, r2
 650              		.loc 1 223 13 view .LVU194
 651 0008 C0E90023 		strd	r2, r3, [r0]
 652              		.loc 1 225 1 view .LVU195
 653 000c 7047     		bx	lr
 654              	.L31:
 655 000e 00BF     		.align	2
 656              	.L30:
 657 0010 00000000 		.word	.LANCHOR0
 658              		.cfi_endproc
 659              	.LFE357:
 660              		.size	chCoreGetStatusX, .-chCoreGetStatusX
 661              		.global	ch_memcore
 662              		.section	.bss.ch_memcore,"aw",%nobits
 663              		.align	2
 664              		.set	.LANCHOR0,. + 0
 665              		.type	ch_memcore, %object
 666              		.size	ch_memcore, 8
 667              	ch_memcore:
 668 0000 00000000 		.space	8
 668      00000000 
 669              		.text
 670              	.Letext0:
 671              		.file 5 "c:\\chibistudio\\tools\\gnu tools arm embedded\\11.3 2022.08\\lib\\gcc\\arm-none-eabi\\11
 672              		.file 6 "c:\\chibistudio\\tools\\gnu tools arm embedded\\11.3 2022.08\\arm-none-eabi\\include\\mac
 673              		.file 7 "c:\\chibistudio\\tools\\gnu tools arm embedded\\11.3 2022.08\\arm-none-eabi\\include\\sys
 674              		.file 8 "./ChibiOS/os/oslib/include/chmemchecks.h"
 675              		.file 9 "./ChibiOS/os/oslib/include/chmemcore.h"