ARM GAS  C:\Users\DEVELO~1\AppData\Local\Temp\cc1go5hK.s 			page 1


   1              		.cpu cortex-m7
   2              		.arch armv7e-m
   3              		.fpu softvfp
   4              		.eabi_attribute 20, 1
   5              		.eabi_attribute 21, 1
   6              		.eabi_attribute 23, 3
   7              		.eabi_attribute 24, 1
   8              		.eabi_attribute 25, 1
   9              		.eabi_attribute 26, 1
  10              		.eabi_attribute 30, 2
  11              		.eabi_attribute 34, 1
  12              		.eabi_attribute 18, 4
  13              		.file	"chmemchecks.c"
  14              		.text
  15              	.Ltext0:
  16              		.cfi_sections	.debug_frame
  17              		.section	.text.chMemIsStringWithinX,"ax",%progbits
  18              		.align	1
  19              		.p2align 4,,15
  20              		.global	chMemIsStringWithinX
  21              		.syntax unified
  22              		.thumb
  23              		.thumb_func
  24              		.type	chMemIsStringWithinX, %function
  25              	chMemIsStringWithinX:
  26              	.LVL0:
  27              	.LFB352:
  28              		.file 1 "./ChibiOS/os/oslib/src/chmemchecks.c"
  29              		.loc 1 106 41 view -0
  30              		.cfi_startproc
  31              		@ args = 0, pretend = 0, frame = 0
  32              		@ frame_needed = 0, uses_anonymous_args = 0
  33              		@ link register save eliminated.
  34              		.loc 1 107 3 view .LVU1
  35              		.loc 1 107 15 is_stmt 0 view .LVU2
  36 0000 0368     		ldr	r3, [r0]
  37              	.LVL1:
  38              		.loc 1 108 3 is_stmt 1 view .LVU3
  39              		.loc 1 110 3 view .LVU4
  40              		.loc 1 110 6 is_stmt 0 view .LVU5
  41 0002 8B42     		cmp	r3, r1
  42 0004 11D8     		bhi	.L6
  43              		.loc 1 106 41 view .LVU6
  44 0006 10B4     		push	{r4}
  45              		.cfi_def_cfa_offset 4
  46              		.cfi_offset 4, -4
  47              		.loc 1 108 53 view .LVU7
  48 0008 4468     		ldr	r4, [r0, #4]
  49              	.LBB2:
  50              		.loc 1 113 7 view .LVU8
  51 000a 0020     		movs	r0, #0
  52              	.LVL2:
  53              		.loc 1 113 7 view .LVU9
  54              	.LBE2:
  55              		.loc 1 108 53 view .LVU10
  56 000c 04F1FF3C 		add	ip, r4, #-1
  57              		.loc 1 108 15 view .LVU11
ARM GAS  C:\Users\DEVELO~1\AppData\Local\Temp\cc1go5hK.s 			page 2


  58 0010 9C44     		add	ip, ip, r3
  59              	.LVL3:
  60              	.L3:
  61              	.LBB3:
  62              		.loc 1 115 7 is_stmt 1 view .LVU12
  63              		.loc 1 114 23 view .LVU13
  64 0012 6145     		cmp	r1, ip
  65 0014 0BD8     		bhi	.L7
  66              		.loc 1 114 23 is_stmt 0 view .LVU14
  67 0016 9042     		cmp	r0, r2
  68              		.loc 1 115 8 view .LVU15
  69 0018 00F10100 		add	r0, r0, #1
  70              	.LVL4:
  71              		.loc 1 116 7 is_stmt 1 view .LVU16
  72              		.loc 1 114 23 is_stmt 0 view .LVU17
  73 001c 07D2     		bcs	.L7
  74              		.loc 1 116 10 view .LVU18
  75 001e 11F8013B 		ldrb	r3, [r1], #1	@ zero_extendqisi2
  76              	.LVL5:
  77              		.loc 1 116 10 view .LVU19
  78 0022 002B     		cmp	r3, #0
  79 0024 F5D1     		bne	.L3
  80              	.LBE3:
  81              		.loc 1 123 1 view .LVU20
  82 0026 10BC     		pop	{r4}
  83              		.cfi_restore 4
  84              		.cfi_def_cfa_offset 0
  85 0028 7047     		bx	lr
  86              	.LVL6:
  87              	.L6:
  88              		.loc 1 122 10 view .LVU21
  89 002a 0020     		movs	r0, #0
  90              	.LVL7:
  91              		.loc 1 123 1 view .LVU22
  92 002c 7047     		bx	lr
  93              	.LVL8:
  94              	.L7:
  95              		.cfi_def_cfa_offset 4
  96              		.cfi_offset 4, -4
  97              		.loc 1 122 10 view .LVU23
  98 002e 0020     		movs	r0, #0
  99              	.LVL9:
 100              		.loc 1 123 1 view .LVU24
 101 0030 10BC     		pop	{r4}
 102              		.cfi_restore 4
 103              		.cfi_def_cfa_offset 0
 104 0032 7047     		bx	lr
 105              		.cfi_endproc
 106              	.LFE352:
 107              		.size	chMemIsStringWithinX, .-chMemIsStringWithinX
 108              		.section	.text.chMemIsPointersArrayWithinX,"ax",%progbits
 109              		.align	1
 110              		.p2align 4,,15
 111              		.global	chMemIsPointersArrayWithinX
 112              		.syntax unified
 113              		.thumb
 114              		.thumb_func
ARM GAS  C:\Users\DEVELO~1\AppData\Local\Temp\cc1go5hK.s 			page 3


 115              		.type	chMemIsPointersArrayWithinX, %function
 116              	chMemIsPointersArrayWithinX:
 117              	.LVL10:
 118              	.LFB353:
 119              		.loc 1 141 48 is_stmt 1 view -0
 120              		.cfi_startproc
 121              		@ args = 0, pretend = 0, frame = 0
 122              		@ frame_needed = 0, uses_anonymous_args = 0
 123              		@ link register save eliminated.
 124              		.loc 1 142 3 view .LVU26
 125              		.loc 1 142 16 is_stmt 0 view .LVU27
 126 0000 0368     		ldr	r3, [r0]
 127              	.LVL11:
 128              		.loc 1 143 3 is_stmt 1 view .LVU28
 129              		.loc 1 145 3 view .LVU29
 130              		.loc 1 145 6 is_stmt 0 view .LVU30
 131 0002 8B42     		cmp	r3, r1
 132 0004 11D8     		bhi	.L24
 133              		.loc 1 141 48 view .LVU31
 134 0006 10B4     		push	{r4}
 135              		.cfi_def_cfa_offset 4
 136              		.cfi_offset 4, -4
 137              		.loc 1 143 69 view .LVU32
 138 0008 4468     		ldr	r4, [r0, #4]
 139              	.LBB4:
 140              		.loc 1 148 7 view .LVU33
 141 000a 0020     		movs	r0, #0
 142              	.LVL12:
 143              		.loc 1 148 7 view .LVU34
 144              	.LBE4:
 145              		.loc 1 143 69 view .LVU35
 146 000c A4F1040C 		sub	ip, r4, #4
 147              		.loc 1 143 16 view .LVU36
 148 0010 9C44     		add	ip, ip, r3
 149              	.LVL13:
 150              	.L21:
 151              	.LBB5:
 152              		.loc 1 150 7 is_stmt 1 view .LVU37
 153              		.loc 1 149 24 view .LVU38
 154 0012 6145     		cmp	r1, ip
 155 0014 0BD8     		bhi	.L25
 156              		.loc 1 149 24 is_stmt 0 view .LVU39
 157 0016 9042     		cmp	r0, r2
 158              		.loc 1 150 9 view .LVU40
 159 0018 00F10400 		add	r0, r0, #4
 160              	.LVL14:
 161              		.loc 1 151 7 is_stmt 1 view .LVU41
 162              		.loc 1 149 24 is_stmt 0 view .LVU42
 163 001c 07D2     		bcs	.L25
 164              		.loc 1 151 10 view .LVU43
 165 001e 51F8043B 		ldr	r3, [r1], #4
 166              	.LVL15:
 167              		.loc 1 151 10 view .LVU44
 168 0022 002B     		cmp	r3, #0
 169 0024 F5D1     		bne	.L21
 170              	.LBE5:
 171              		.loc 1 158 1 view .LVU45
ARM GAS  C:\Users\DEVELO~1\AppData\Local\Temp\cc1go5hK.s 			page 4


 172 0026 10BC     		pop	{r4}
 173              		.cfi_restore 4
 174              		.cfi_def_cfa_offset 0
 175 0028 7047     		bx	lr
 176              	.LVL16:
 177              	.L24:
 178              		.loc 1 157 10 view .LVU46
 179 002a 0020     		movs	r0, #0
 180              	.LVL17:
 181              		.loc 1 158 1 view .LVU47
 182 002c 7047     		bx	lr
 183              	.LVL18:
 184              	.L25:
 185              		.cfi_def_cfa_offset 4
 186              		.cfi_offset 4, -4
 187              		.loc 1 157 10 view .LVU48
 188 002e 0020     		movs	r0, #0
 189              	.LVL19:
 190              		.loc 1 158 1 view .LVU49
 191 0030 10BC     		pop	{r4}
 192              		.cfi_restore 4
 193              		.cfi_def_cfa_offset 0
 194 0032 7047     		bx	lr
 195              		.cfi_endproc
 196              	.LFE353:
 197              		.size	chMemIsPointersArrayWithinX, .-chMemIsPointersArrayWithinX
 198              		.section	.text.chMemIsSpaceContainedX,"ax",%progbits
 199              		.align	1
 200              		.p2align 4,,15
 201              		.global	chMemIsSpaceContainedX
 202              		.syntax unified
 203              		.thumb
 204              		.thumb_func
 205              		.type	chMemIsSpaceContainedX, %function
 206              	chMemIsSpaceContainedX:
 207              	.LVL20:
 208              	.LFB354:
 209              		.loc 1 179 42 is_stmt 1 view -0
 210              		.cfi_startproc
 211              		@ args = 0, pretend = 0, frame = 0
 212              		@ frame_needed = 0, uses_anonymous_args = 0
 213              		.loc 1 180 3 view .LVU51
 214              		.loc 1 182 3 view .LVU52
 215              		.loc 1 182 3 view .LVU53
 216              		.loc 1 182 3 view .LVU54
 217              		.loc 1 185 3 view .LVU55
 218              		.loc 1 185 20 view .LVU56
 219              		.loc 1 185 13 is_stmt 0 view .LVU57
 220 0000 0368     		ldr	r3, [r0]
 221              		.loc 1 185 20 view .LVU58
 222 0002 B3F1FF3F 		cmp	r3, #-1
 223 0006 1ED0     		beq	.L42
 224 0008 8446     		mov	ip, r0
 225              		.loc 1 179 42 view .LVU59
 226 000a 10B5     		push	{r4, lr}
 227              		.cfi_def_cfa_offset 8
 228              		.cfi_offset 4, -8
ARM GAS  C:\Users\DEVELO~1\AppData\Local\Temp\cc1go5hK.s 			page 5


 229              		.cfi_offset 14, -4
 230 000c 02F1FF3E 		add	lr, r2, #-1
 231              	.LBB8:
 232              	.LBB9:
 233              		.file 2 "./ChibiOS/os/oslib/include/chmemchecks.h"
 234              		.loc 2 133 23 view .LVU60
 235 0010 11EB0E0E 		adds	lr, r1, lr
 236 0014 34BF     		ite	cc
 237 0016 0124     		movcc	r4, #1
 238 0018 0024     		movcs	r4, #0
 239 001a 03E0     		b	.L41
 240              	.LVL21:
 241              	.L40:
 242              		.loc 2 133 23 view .LVU61
 243              	.LBE9:
 244              	.LBE8:
 245              		.loc 1 185 13 view .LVU62
 246 001c 5CF8083F 		ldr	r3, [ip, #8]!
 247              	.LVL22:
 248              		.loc 1 185 20 view .LVU63
 249 0020 5A1C     		adds	r2, r3, #1
 250 0022 0FD0     		beq	.L44
 251              	.LVL23:
 252              	.L41:
 253              		.loc 1 186 5 is_stmt 1 view .LVU64
 254              	.LBB12:
 255              	.LBI8:
 256              		.loc 2 123 20 view .LVU65
 257              	.LBB10:
 258              		.loc 2 126 3 view .LVU66
 259              		.loc 2 127 3 view .LVU67
 260              		.loc 2 128 3 view .LVU68
 261              		.loc 2 129 3 view .LVU69
 262              		.loc 2 131 3 view .LVU70
 263              		.loc 2 131 3 view .LVU71
 264              		.loc 2 131 3 view .LVU72
 265              		.loc 2 133 3 view .LVU73
 266              		.loc 2 133 3 is_stmt 0 view .LVU74
 267              	.LBE10:
 268              	.LBE12:
 269              		.loc 1 189 5 is_stmt 1 view .LVU75
 270              		.loc 1 185 20 view .LVU76
 271              	.LBB13:
 272              	.LBB11:
 273              		.loc 2 127 13 is_stmt 0 view .LVU77
 274 0024 5A1E     		subs	r2, r3, #1
 275              		.loc 2 133 31 view .LVU78
 276 0026 8B42     		cmp	r3, r1
 277 0028 8CBF     		ite	hi
 278 002a 0020     		movhi	r0, #0
 279 002c 04F00100 		andls	r0, r4, #1
 280              		.loc 2 127 13 view .LVU79
 281 0030 DCF80430 		ldr	r3, [ip, #4]
 282 0034 D318     		adds	r3, r2, r3
 283              		.loc 2 133 53 view .LVU80
 284 0036 7345     		cmp	r3, lr
 285 0038 34BF     		ite	cc
ARM GAS  C:\Users\DEVELO~1\AppData\Local\Temp\cc1go5hK.s 			page 6


 286 003a 0020     		movcc	r0, #0
 287 003c 00F00100 		andcs	r0, r0, #1
 288 0040 0028     		cmp	r0, #0
 289 0042 EBD0     		beq	.L40
 290              	.LVL24:
 291              	.L44:
 292              		.loc 2 133 53 view .LVU81
 293              	.LBE11:
 294              	.LBE13:
 295              		.loc 1 193 1 view .LVU82
 296 0044 10BD     		pop	{r4, pc}
 297              	.LVL25:
 298              	.L42:
 299              		.cfi_def_cfa_offset 0
 300              		.cfi_restore 4
 301              		.cfi_restore 14
 302              		.loc 1 192 10 view .LVU83
 303 0046 0020     		movs	r0, #0
 304              	.LVL26:
 305              		.loc 1 193 1 view .LVU84
 306 0048 7047     		bx	lr
 307              		.cfi_endproc
 308              	.LFE354:
 309              		.size	chMemIsSpaceContainedX, .-chMemIsSpaceContainedX
 310 004a 00BF     		.section	.text.chMemIsSpaceWritableX,"ax",%progbits
 311              		.align	1
 312              		.p2align 4,,15
 313              		.global	chMemIsSpaceWritableX
 314              		.syntax unified
 315              		.thumb
 316              		.thumb_func
 317              		.type	chMemIsSpaceWritableX, %function
 318              	chMemIsSpaceWritableX:
 319              	.LVL27:
 320              	.LFB355:
 321              		.loc 1 218 44 is_stmt 1 view -0
 322              		.cfi_startproc
 323              		@ args = 0, pretend = 0, frame = 0
 324              		@ frame_needed = 0, uses_anonymous_args = 0
 325              		.loc 1 220 3 view .LVU86
 326              		.loc 1 220 3 view .LVU87
 327              		.loc 1 220 3 view .LVU88
 328              		.loc 1 222 3 view .LVU89
 329              		.loc 1 222 8 is_stmt 0 view .LVU90
 330 0000 013A     		subs	r2, r2, #1
 331              	.LVL28:
 332              		.loc 1 222 6 view .LVU91
 333 0002 0240     		ands	r2, r2, r0
 334              	.LVL29:
 335              		.loc 1 222 6 view .LVU92
 336 0004 01D0     		beq	.L66
 337              		.loc 1 223 12 view .LVU93
 338 0006 0020     		movs	r0, #0
 339              	.LVL30:
 340              		.loc 1 227 1 view .LVU94
 341 0008 7047     		bx	lr
 342              	.LVL31:
ARM GAS  C:\Users\DEVELO~1\AppData\Local\Temp\cc1go5hK.s 			page 7


 343              	.L66:
 344              		.loc 1 218 44 view .LVU95
 345 000a 10B5     		push	{r4, lr}
 346              		.cfi_def_cfa_offset 8
 347              		.cfi_offset 4, -8
 348              		.cfi_offset 14, -4
 349 000c 8646     		mov	lr, r0
 350              	.LVL32:
 351              	.LBB18:
 352              	.LBB19:
 353              		.loc 1 185 20 is_stmt 1 view .LVU96
 354              		.loc 1 185 13 is_stmt 0 view .LVU97
 355 000e 1248     		ldr	r0, .L68
 356              	.LVL33:
 357              		.loc 1 185 13 view .LVU98
 358 0010 0368     		ldr	r3, [r0]
 359              		.loc 1 185 20 view .LVU99
 360 0012 B3F1FF3F 		cmp	r3, #-1
 361 0016 1CD0     		beq	.L67
 362              		.loc 1 185 20 view .LVU100
 363 0018 0139     		subs	r1, r1, #1
 364              	.LVL34:
 365              		.loc 1 185 20 view .LVU101
 366 001a 8446     		mov	ip, r0
 367              	.LBB20:
 368              	.LBB21:
 369              		.loc 2 133 23 view .LVU102
 370 001c 1EEB0101 		adds	r1, lr, r1
 371              	.LVL35:
 372              		.loc 2 133 23 view .LVU103
 373 0020 34BF     		ite	cc
 374 0022 0124     		movcc	r4, #1
 375 0024 0024     		movcs	r4, #0
 376 0026 03E0     		b	.L56
 377              	.LVL36:
 378              	.L61:
 379              		.loc 2 133 23 view .LVU104
 380              	.LBE21:
 381              	.LBE20:
 382              		.loc 1 185 13 view .LVU105
 383 0028 5CF8083F 		ldr	r3, [ip, #8]!
 384              	.LVL37:
 385              		.loc 1 185 20 view .LVU106
 386 002c 5A1C     		adds	r2, r3, #1
 387 002e 0FD0     		beq	.L58
 388              	.LVL38:
 389              	.L56:
 390              		.loc 1 186 5 is_stmt 1 view .LVU107
 391              	.LBB24:
 392              	.LBI20:
 393              		.loc 2 123 20 view .LVU108
 394              	.LBB22:
 395              		.loc 2 126 3 view .LVU109
 396              		.loc 2 127 3 view .LVU110
 397              		.loc 2 128 3 view .LVU111
 398              		.loc 2 129 3 view .LVU112
 399              		.loc 2 131 3 view .LVU113
ARM GAS  C:\Users\DEVELO~1\AppData\Local\Temp\cc1go5hK.s 			page 8


 400              		.loc 2 131 3 view .LVU114
 401              		.loc 2 131 3 view .LVU115
 402              		.loc 2 133 3 view .LVU116
 403              		.loc 2 133 3 is_stmt 0 view .LVU117
 404              	.LBE22:
 405              	.LBE24:
 406              		.loc 1 189 5 is_stmt 1 view .LVU118
 407              		.loc 1 185 20 view .LVU119
 408              	.LBB25:
 409              	.LBB23:
 410              		.loc 2 127 13 is_stmt 0 view .LVU120
 411 0030 5A1E     		subs	r2, r3, #1
 412              		.loc 2 133 31 view .LVU121
 413 0032 9E45     		cmp	lr, r3
 414 0034 34BF     		ite	cc
 415 0036 0020     		movcc	r0, #0
 416 0038 04F00100 		andcs	r0, r4, #1
 417              		.loc 2 127 13 view .LVU122
 418 003c DCF80430 		ldr	r3, [ip, #4]
 419 0040 D318     		adds	r3, r2, r3
 420              		.loc 2 133 53 view .LVU123
 421 0042 8B42     		cmp	r3, r1
 422 0044 34BF     		ite	cc
 423 0046 0020     		movcc	r0, #0
 424 0048 00F00100 		andcs	r0, r0, #1
 425 004c 0028     		cmp	r0, #0
 426 004e EBD0     		beq	.L61
 427              	.LVL39:
 428              	.L58:
 429              		.loc 2 133 53 view .LVU124
 430              	.LBE23:
 431              	.LBE25:
 432              	.LBE19:
 433              	.LBE18:
 434              		.loc 1 227 1 view .LVU125
 435 0050 10BD     		pop	{r4, pc}
 436              	.LVL40:
 437              	.L67:
 438              		.loc 1 223 12 view .LVU126
 439 0052 1046     		mov	r0, r2
 440              		.loc 1 227 1 view .LVU127
 441 0054 10BD     		pop	{r4, pc}
 442              	.L69:
 443 0056 00BF     		.align	2
 444              	.L68:
 445 0058 00000000 		.word	__ch_mem_writable_areas
 446              		.cfi_endproc
 447              	.LFE355:
 448              		.size	chMemIsSpaceWritableX, .-chMemIsSpaceWritableX
 449              		.section	.text.chMemIsSpaceReadableX,"ax",%progbits
 450              		.align	1
 451              		.p2align 4,,15
 452              		.global	chMemIsSpaceReadableX
 453              		.syntax unified
 454              		.thumb
 455              		.thumb_func
 456              		.type	chMemIsSpaceReadableX, %function
ARM GAS  C:\Users\DEVELO~1\AppData\Local\Temp\cc1go5hK.s 			page 9


 457              	chMemIsSpaceReadableX:
 458              	.LVL41:
 459              	.LFB356:
 460              		.loc 1 250 44 is_stmt 1 view -0
 461              		.cfi_startproc
 462              		@ args = 0, pretend = 0, frame = 0
 463              		@ frame_needed = 0, uses_anonymous_args = 0
 464              		.loc 1 252 3 view .LVU129
 465              		.loc 1 252 3 view .LVU130
 466              		.loc 1 252 3 view .LVU131
 467              		.loc 1 254 3 view .LVU132
 468              		.loc 1 254 8 is_stmt 0 view .LVU133
 469 0000 013A     		subs	r2, r2, #1
 470              	.LVL42:
 471              		.loc 1 254 6 view .LVU134
 472 0002 0240     		ands	r2, r2, r0
 473              	.LVL43:
 474              		.loc 1 254 6 view .LVU135
 475 0004 01D0     		beq	.L87
 476              		.loc 1 255 12 view .LVU136
 477 0006 0020     		movs	r0, #0
 478              	.LVL44:
 479              		.loc 1 259 1 view .LVU137
 480 0008 7047     		bx	lr
 481              	.LVL45:
 482              	.L87:
 483              		.loc 1 250 44 view .LVU138
 484 000a 10B5     		push	{r4, lr}
 485              		.cfi_def_cfa_offset 8
 486              		.cfi_offset 4, -8
 487              		.cfi_offset 14, -4
 488 000c 8646     		mov	lr, r0
 489              	.LVL46:
 490              	.LBB30:
 491              	.LBB31:
 492              		.loc 1 185 20 is_stmt 1 view .LVU139
 493              		.loc 1 185 13 is_stmt 0 view .LVU140
 494 000e 1248     		ldr	r0, .L89
 495              	.LVL47:
 496              		.loc 1 185 13 view .LVU141
 497 0010 0368     		ldr	r3, [r0]
 498              		.loc 1 185 20 view .LVU142
 499 0012 B3F1FF3F 		cmp	r3, #-1
 500 0016 1CD0     		beq	.L88
 501              		.loc 1 185 20 view .LVU143
 502 0018 0139     		subs	r1, r1, #1
 503              	.LVL48:
 504              		.loc 1 185 20 view .LVU144
 505 001a 8446     		mov	ip, r0
 506              	.LBB32:
 507              	.LBB33:
 508              		.loc 2 133 23 view .LVU145
 509 001c 1EEB0101 		adds	r1, lr, r1
 510              	.LVL49:
 511              		.loc 2 133 23 view .LVU146
 512 0020 34BF     		ite	cc
 513 0022 0124     		movcc	r4, #1
ARM GAS  C:\Users\DEVELO~1\AppData\Local\Temp\cc1go5hK.s 			page 10


 514 0024 0024     		movcs	r4, #0
 515 0026 03E0     		b	.L77
 516              	.LVL50:
 517              	.L82:
 518              		.loc 2 133 23 view .LVU147
 519              	.LBE33:
 520              	.LBE32:
 521              		.loc 1 185 13 view .LVU148
 522 0028 5CF8083F 		ldr	r3, [ip, #8]!
 523              	.LVL51:
 524              		.loc 1 185 20 view .LVU149
 525 002c 5A1C     		adds	r2, r3, #1
 526 002e 0FD0     		beq	.L79
 527              	.LVL52:
 528              	.L77:
 529              		.loc 1 186 5 is_stmt 1 view .LVU150
 530              	.LBB36:
 531              	.LBI32:
 532              		.loc 2 123 20 view .LVU151
 533              	.LBB34:
 534              		.loc 2 126 3 view .LVU152
 535              		.loc 2 127 3 view .LVU153
 536              		.loc 2 128 3 view .LVU154
 537              		.loc 2 129 3 view .LVU155
 538              		.loc 2 131 3 view .LVU156
 539              		.loc 2 131 3 view .LVU157
 540              		.loc 2 131 3 view .LVU158
 541              		.loc 2 133 3 view .LVU159
 542              		.loc 2 133 3 is_stmt 0 view .LVU160
 543              	.LBE34:
 544              	.LBE36:
 545              		.loc 1 189 5 is_stmt 1 view .LVU161
 546              		.loc 1 185 20 view .LVU162
 547              	.LBB37:
 548              	.LBB35:
 549              		.loc 2 127 13 is_stmt 0 view .LVU163
 550 0030 5A1E     		subs	r2, r3, #1
 551              		.loc 2 133 31 view .LVU164
 552 0032 9E45     		cmp	lr, r3
 553 0034 34BF     		ite	cc
 554 0036 0020     		movcc	r0, #0
 555 0038 04F00100 		andcs	r0, r4, #1
 556              		.loc 2 127 13 view .LVU165
 557 003c DCF80430 		ldr	r3, [ip, #4]
 558 0040 D318     		adds	r3, r2, r3
 559              		.loc 2 133 53 view .LVU166
 560 0042 8B42     		cmp	r3, r1
 561 0044 34BF     		ite	cc
 562 0046 0020     		movcc	r0, #0
 563 0048 00F00100 		andcs	r0, r0, #1
 564 004c 0028     		cmp	r0, #0
 565 004e EBD0     		beq	.L82
 566              	.LVL53:
 567              	.L79:
 568              		.loc 2 133 53 view .LVU167
 569              	.LBE35:
 570              	.LBE37:
ARM GAS  C:\Users\DEVELO~1\AppData\Local\Temp\cc1go5hK.s 			page 11


 571              	.LBE31:
 572              	.LBE30:
 573              		.loc 1 259 1 view .LVU168
 574 0050 10BD     		pop	{r4, pc}
 575              	.LVL54:
 576              	.L88:
 577              		.loc 1 255 12 view .LVU169
 578 0052 1046     		mov	r0, r2
 579              		.loc 1 259 1 view .LVU170
 580 0054 10BD     		pop	{r4, pc}
 581              	.L90:
 582 0056 00BF     		.align	2
 583              	.L89:
 584 0058 00000000 		.word	__ch_mem_readable_areas
 585              		.cfi_endproc
 586              	.LFE356:
 587              		.size	chMemIsSpaceReadableX, .-chMemIsSpaceReadableX
 588              		.section	.text.chMemIsAddressExecutableX,"ax",%progbits
 589              		.align	1
 590              		.p2align 4,,15
 591              		.global	chMemIsAddressExecutableX
 592              		.syntax unified
 593              		.thumb
 594              		.thumb_func
 595              		.type	chMemIsAddressExecutableX, %function
 596              	chMemIsAddressExecutableX:
 597              	.LVL55:
 598              	.LFB357:
 599              		.loc 1 276 47 is_stmt 1 view -0
 600              		.cfi_startproc
 601              		@ args = 0, pretend = 0, frame = 0
 602              		@ frame_needed = 0, uses_anonymous_args = 0
 603              		@ link register save eliminated.
 604              		.loc 1 279 3 view .LVU172
 605              		.loc 1 284 3 view .LVU173
 606              	.LBB42:
 607              	.LBI42:
 608              		.loc 1 177 6 view .LVU174
 609              	.LBB43:
 610              		.loc 1 185 20 view .LVU175
 611              		.loc 1 185 13 is_stmt 0 view .LVU176
 612 0000 0C4B     		ldr	r3, .L99
 613              	.LBE43:
 614              	.LBE42:
 615              		.loc 1 276 47 view .LVU177
 616 0002 0146     		mov	r1, r0
 617              	.LBB50:
 618              	.LBB48:
 619              		.loc 1 185 13 view .LVU178
 620 0004 1A68     		ldr	r2, [r3]
 621              		.loc 1 185 20 view .LVU179
 622 0006 501C     		adds	r0, r2, #1
 623              	.LVL56:
 624              		.loc 1 185 20 view .LVU180
 625 0008 12D0     		beq	.L95
 626 000a 9C46     		mov	ip, r3
 627 000c 03E0     		b	.L94
ARM GAS  C:\Users\DEVELO~1\AppData\Local\Temp\cc1go5hK.s 			page 12


 628              	.LVL57:
 629              	.L93:
 630              		.loc 1 185 13 view .LVU181
 631 000e 5CF8082F 		ldr	r2, [ip, #8]!
 632              	.LVL58:
 633              		.loc 1 185 20 view .LVU182
 634 0012 531C     		adds	r3, r2, #1
 635 0014 0BD0     		beq	.L98
 636              	.LVL59:
 637              	.L94:
 638              		.loc 1 186 5 is_stmt 1 view .LVU183
 639              	.LBB44:
 640              	.LBI44:
 641              		.loc 2 123 20 view .LVU184
 642              	.LBB45:
 643              		.loc 2 126 3 view .LVU185
 644              		.loc 2 127 3 view .LVU186
 645              		.loc 2 128 3 view .LVU187
 646              		.loc 2 129 3 view .LVU188
 647              		.loc 2 131 3 view .LVU189
 648              		.loc 2 131 3 view .LVU190
 649              		.loc 2 131 3 view .LVU191
 650              		.loc 2 133 3 view .LVU192
 651              		.loc 2 133 3 is_stmt 0 view .LVU193
 652              	.LBE45:
 653              	.LBE44:
 654              		.loc 1 189 5 is_stmt 1 view .LVU194
 655              		.loc 1 185 20 view .LVU195
 656              	.LBB47:
 657              	.LBB46:
 658              		.loc 2 127 13 is_stmt 0 view .LVU196
 659 0016 DCF80400 		ldr	r0, [ip, #4]
 660 001a 531E     		subs	r3, r2, #1
 661 001c 0344     		add	r3, r3, r0
 662              		.loc 2 133 53 view .LVU197
 663 001e 9942     		cmp	r1, r3
 664 0020 98BF     		it	ls
 665 0022 8A42     		cmpls	r2, r1
 666 0024 94BF     		ite	ls
 667 0026 0120     		movls	r0, #1
 668 0028 0020     		movhi	r0, #0
 669 002a F0D8     		bhi	.L93
 670 002c 7047     		bx	lr
 671              	.LVL60:
 672              	.L98:
 673              		.loc 2 133 53 view .LVU198
 674              	.LBE46:
 675              	.LBE47:
 676              	.LBE48:
 677              	.LBE50:
 678              		.loc 1 285 1 view .LVU199
 679 002e 7047     		bx	lr
 680              	.LVL61:
 681              	.L95:
 682              	.LBB51:
 683              	.LBB49:
 684              		.loc 1 192 10 view .LVU200
ARM GAS  C:\Users\DEVELO~1\AppData\Local\Temp\cc1go5hK.s 			page 13


 685 0030 0020     		movs	r0, #0
 686 0032 7047     		bx	lr
 687              	.L100:
 688              		.align	2
 689              	.L99:
 690 0034 00000000 		.word	__ch_mem_executable_areas
 691              	.LBE49:
 692              	.LBE51:
 693              		.cfi_endproc
 694              	.LFE357:
 695              		.size	chMemIsAddressExecutableX, .-chMemIsAddressExecutableX
 696              		.weak	__ch_mem_executable_areas
 697              		.weak	__ch_mem_readable_areas
 698              		.weak	__ch_mem_writable_areas
 699              		.section	.rodata.__ch_mem_executable_areas,"a"
 700              		.align	2
 701              		.type	__ch_mem_executable_areas, %object
 702              		.size	__ch_mem_executable_areas, 16
 703              	__ch_mem_executable_areas:
 704 0000 00000000 		.word	0
 705 0004 00000000 		.word	0
 706 0008 FFFFFFFF 		.word	-1
 707 000c 00000000 		.word	0
 708              		.section	.rodata.__ch_mem_readable_areas,"a"
 709              		.align	2
 710              		.type	__ch_mem_readable_areas, %object
 711              		.size	__ch_mem_readable_areas, 16
 712              	__ch_mem_readable_areas:
 713 0000 00000000 		.word	0
 714 0004 00000000 		.word	0
 715 0008 FFFFFFFF 		.word	-1
 716 000c 00000000 		.word	0
 717              		.section	.rodata.__ch_mem_writable_areas,"a"
 718              		.align	2
 719              		.type	__ch_mem_writable_areas, %object
 720              		.size	__ch_mem_writable_areas, 16
 721              	__ch_mem_writable_areas:
 722 0000 00000000 		.word	0
 723 0004 00000000 		.word	0
 724 0008 FFFFFFFF 		.word	-1
 725 000c 00000000 		.word	0
 726              		.text
 727              	.Letext0:
 728              		.file 3 "c:\\chibistudio\\tools\\gnu tools arm embedded\\11.3 2022.08\\lib\\gcc\\arm-none-eabi\\11
 729              		.file 4 "c:\\chibistudio\\tools\\gnu tools arm embedded\\11.3 2022.08\\arm-none-eabi\\include\\mac
 730              		.file 5 "c:\\chibistudio\\tools\\gnu tools arm embedded\\11.3 2022.08\\arm-none-eabi\\include\\sys