ARM GAS  C:\Users\DEVELO~1\AppData\Local\Temp\ccQb9vWk.s 			page 1


   1              		.cpu cortex-m7
   2              		.arch armv7e-m
   3              		.fpu softvfp
   4              		.eabi_attribute 20, 1
   5              		.eabi_attribute 21, 1
   6              		.eabi_attribute 23, 3
   7              		.eabi_attribute 24, 1
   8              		.eabi_attribute 25, 1
   9              		.eabi_attribute 26, 1
  10              		.eabi_attribute 30, 2
  11              		.eabi_attribute 34, 1
  12              		.eabi_attribute 18, 4
  13              		.file	"chmemheaps.c"
  14              		.text
  15              	.Ltext0:
  16              		.cfi_sections	.debug_frame
  17              		.section	.text.__heap_init,"ax",%progbits
  18              		.align	1
  19              		.p2align 4,,15
  20              		.global	__heap_init
  21              		.syntax unified
  22              		.thumb
  23              		.thumb_func
  24              		.type	__heap_init, %function
  25              	__heap_init:
  26              	.LFB346:
  27              		.file 1 "../../../os/oslib/src/chmemheaps.c"
  28              		.loc 1 107 24 view -0
  29              		.cfi_startproc
  30              		@ args = 0, pretend = 0, frame = 0
  31              		@ frame_needed = 0, uses_anonymous_args = 0
  32              		@ link register save eliminated.
  33              		.loc 1 109 3 view .LVU1
  34              		.loc 1 109 25 is_stmt 0 view .LVU2
  35 0000 044B     		ldr	r3, .L3
  36              		.loc 1 110 32 view .LVU3
  37 0002 0022     		movs	r2, #0
  38              		.loc 1 109 25 view .LVU4
  39 0004 0449     		ldr	r1, .L3+4
  40              		.loc 1 113 3 view .LVU5
  41 0006 03F10C00 		add	r0, r3, #12
  42              		.loc 1 111 33 view .LVU6
  43 000a 9A60     		str	r2, [r3, #8]
  44              		.loc 1 109 25 view .LVU7
  45 000c C3E90012 		strd	r1, r2, [r3]
  46              		.loc 1 110 3 is_stmt 1 view .LVU8
  47              		.loc 1 111 3 view .LVU9
  48              		.loc 1 113 3 view .LVU10
  49 0010 FFF7FEBF 		b	chMtxObjectInit
  50              	.LVL0:
  51              	.L4:
  52              		.align	2
  53              	.L3:
  54 0014 00000000 		.word	.LANCHOR0
  55 0018 00000000 		.word	chCoreAllocFromTop
  56              		.cfi_endproc
  57              	.LFE346:
ARM GAS  C:\Users\DEVELO~1\AppData\Local\Temp\ccQb9vWk.s 			page 2


  58              		.size	__heap_init, .-__heap_init
  59              		.section	.text.chHeapObjectInit,"ax",%progbits
  60              		.align	1
  61              		.p2align 4,,15
  62              		.global	chHeapObjectInit
  63              		.syntax unified
  64              		.thumb
  65              		.thumb_func
  66              		.type	chHeapObjectInit, %function
  67              	chHeapObjectInit:
  68              	.LVL1:
  69              	.LFB347:
  70              		.loc 1 131 69 view -0
  71              		.cfi_startproc
  72              		@ args = 0, pretend = 0, frame = 0
  73              		@ frame_needed = 0, uses_anonymous_args = 0
  74              		@ link register save eliminated.
  75              		.loc 1 132 3 view .LVU12
  76              		.loc 1 132 40 is_stmt 0 view .LVU13
  77 0000 CB1D     		adds	r3, r1, #7
  78              		.loc 1 147 23 view .LVU14
  79 0002 083A     		subs	r2, r2, #8
  80              	.LVL2:
  81              		.loc 1 149 3 view .LVU15
  82 0004 0C30     		adds	r0, r0, #12
  83              	.LVL3:
  84              		.loc 1 132 40 view .LVU16
  85 0006 23F00703 		bic	r3, r3, #7
  86              		.loc 1 139 34 view .LVU17
  87 000a 591A     		subs	r1, r3, r1
  88              	.LVL4:
  89              		.loc 1 147 23 view .LVU18
  90 000c 521A     		subs	r2, r2, r1
  91              	.LVL5:
  92              		.loc 1 131 69 view .LVU19
  93 000e 10B4     		push	{r4}
  94              		.cfi_def_cfa_offset 4
  95              		.cfi_offset 4, -4
  96              		.loc 1 147 49 view .LVU20
  97 0010 D208     		lsrs	r2, r2, #3
  98              		.loc 1 143 19 view .LVU21
  99 0012 0024     		movs	r4, #0
 100              	.LVL6:
 101              		.loc 1 134 3 is_stmt 1 view .LVU22
 102              		.loc 1 134 3 view .LVU23
 103              		.loc 1 134 3 view .LVU24
 104              		.loc 1 139 3 view .LVU25
 105              		.loc 1 143 3 view .LVU26
 106              		.loc 1 144 3 view .LVU27
 107              		.loc 1 144 26 is_stmt 0 view .LVU28
 108 0014 40F8083C 		str	r3, [r0, #-8]
 109              		.loc 1 145 3 is_stmt 1 view .LVU29
 110              		.loc 1 146 3 view .LVU30
 111              		.loc 1 143 19 is_stmt 0 view .LVU31
 112 0018 40F80C4C 		str	r4, [r0, #-12]
 113              		.loc 1 145 27 view .LVU32
 114 001c 40F8044C 		str	r4, [r0, #-4]
ARM GAS  C:\Users\DEVELO~1\AppData\Local\Temp\ccQb9vWk.s 			page 3


 115              		.loc 1 146 14 view .LVU33
 116 0020 1C60     		str	r4, [r3]
 117              		.loc 1 147 3 is_stmt 1 view .LVU34
 118              		.loc 1 147 15 is_stmt 0 view .LVU35
 119 0022 5A60     		str	r2, [r3, #4]
 120              		.loc 1 149 3 is_stmt 1 view .LVU36
 121              		.loc 1 153 1 is_stmt 0 view .LVU37
 122 0024 10BC     		pop	{r4}
 123              		.cfi_restore 4
 124              		.cfi_def_cfa_offset 0
 125              		.loc 1 149 3 view .LVU38
 126 0026 FFF7FEBF 		b	chMtxObjectInit
 127              	.LVL7:
 128              		.loc 1 149 3 view .LVU39
 129              		.cfi_endproc
 130              	.LFE347:
 131              		.size	chHeapObjectInit, .-chHeapObjectInit
 132 002a 00BF     		.section	.text.chHeapAllocAligned,"ax",%progbits
 133              		.align	1
 134              		.p2align 4,,15
 135              		.global	chHeapAllocAligned
 136              		.syntax unified
 137              		.thumb
 138              		.thumb_func
 139              		.type	chHeapAllocAligned, %function
 140              	chHeapAllocAligned:
 141              	.LVL8:
 142              	.LFB348:
 143              		.loc 1 172 77 is_stmt 1 view -0
 144              		.cfi_startproc
 145              		@ args = 0, pretend = 0, frame = 8
 146              		@ frame_needed = 0, uses_anonymous_args = 0
 147              		.loc 1 173 3 view .LVU41
 148              		.loc 1 174 3 view .LVU42
 149              		.loc 1 176 3 view .LVU43
 150              		.loc 1 176 3 view .LVU44
 151              		.loc 1 176 3 view .LVU45
 152              		.loc 1 179 3 view .LVU46
 153              		.loc 1 180 11 is_stmt 0 view .LVU47
 154 0000 0028     		cmp	r0, #0
 155 0002 434B     		ldr	r3, .L28
 156              		.loc 1 172 77 view .LVU48
 157 0004 2DE9F04F 		push	{r4, r5, r6, r7, r8, r9, r10, fp, lr}
 158              		.cfi_def_cfa_offset 36
 159              		.cfi_offset 4, -36
 160              		.cfi_offset 5, -32
 161              		.cfi_offset 6, -28
 162              		.cfi_offset 7, -24
 163              		.cfi_offset 8, -20
 164              		.cfi_offset 9, -16
 165              		.cfi_offset 10, -12
 166              		.cfi_offset 11, -8
 167              		.cfi_offset 14, -4
 168              		.loc 1 179 6 view .LVU49
 169 0008 8046     		mov	r8, r0
 170              		.loc 1 180 11 view .LVU50
 171 000a 14BF     		ite	ne
ARM GAS  C:\Users\DEVELO~1\AppData\Local\Temp\ccQb9vWk.s 			page 4


 172 000c 8046     		movne	r8, r0
 173 000e 9846     		moveq	r8, r3
 174              	.LVL9:
 175              		.loc 1 184 3 is_stmt 1 view .LVU51
 176 0010 082A     		cmp	r2, #8
 177              		.loc 1 172 77 is_stmt 0 view .LVU52
 178 0012 83B0     		sub	sp, sp, #12
 179              		.cfi_def_cfa_offset 48
 180              		.loc 1 189 11 view .LVU53
 181 0014 01F10709 		add	r9, r1, #7
 182              		.loc 1 192 3 view .LVU54
 183 0018 08F10C0B 		add	fp, r8, #12
 184 001c 38BF     		it	cc
 185 001e 0822     		movcc	r2, #8
 186              	.LVL10:
 187              		.loc 1 172 77 view .LVU55
 188 0020 0191     		str	r1, [sp, #4]
 189              		.loc 1 189 9 view .LVU56
 190 0022 4FEAD909 		lsr	r9, r9, #3
 191              		.loc 1 192 3 view .LVU57
 192 0026 5846     		mov	r0, fp
 193 0028 9246     		mov	r10, r2
 194              	.LVL11:
 195              		.loc 1 189 3 is_stmt 1 view .LVU58
 196              		.loc 1 192 3 view .LVU59
 197 002a FFF7FEFF 		bl	chMtxLock
 198              	.LVL12:
 199              		.loc 1 195 3 view .LVU60
 200              		.loc 1 196 10 is_stmt 0 view .LVU61
 201 002e D8F80420 		ldr	r2, [r8, #4]
 202              	.LVL13:
 203              		.loc 1 196 3 is_stmt 1 view .LVU62
 204              		.loc 1 196 21 view .LVU63
 205 0032 E2B1     		cbz	r2, .L9
 206 0034 08F10401 		add	r1, r8, #4
 207              	.LVL14:
 208              		.loc 1 196 21 is_stmt 0 view .LVU64
 209 0038 0AF10707 		add	r7, r10, #7
 210              		.loc 1 202 28 view .LVU65
 211 003c CAF10006 		rsb	r6, r10, #0
 212              	.LVL15:
 213              	.L15:
 214              		.loc 1 199 5 is_stmt 1 view .LVU66
 215              		.loc 1 202 5 view .LVU67
 216              		.loc 1 196 21 view .LVU68
 217              		.loc 1 202 28 is_stmt 0 view .LVU69
 218 0040 D319     		adds	r3, r2, r7
 219              		.loc 1 204 16 view .LVU70
 220 0042 5568     		ldr	r5, [r2, #4]
 221              		.loc 1 202 28 view .LVU71
 222 0044 3340     		ands	r3, r3, r6
 223              		.loc 1 204 16 view .LVU72
 224 0046 05F1010C 		add	ip, r5, #1
 225              		.loc 1 204 42 view .LVU73
 226 004a 1C46     		mov	r4, r3
 227              		.loc 1 204 16 view .LVU74
 228 004c 02EBCC0C 		add	ip, r2, ip, lsl #3
ARM GAS  C:\Users\DEVELO~1\AppData\Local\Temp\ccQb9vWk.s 			page 5


 229              		.loc 1 202 63 view .LVU75
 230 0050 083B     		subs	r3, r3, #8
 231              	.LVL16:
 232              		.loc 1 204 5 is_stmt 1 view .LVU76
 233              		.loc 1 204 42 is_stmt 0 view .LVU77
 234 0052 ACEB040E 		sub	lr, ip, r4
 235              		.loc 1 204 8 view .LVU78
 236 0056 9C45     		cmp	ip, r3
 237              		.loc 1 204 42 view .LVU79
 238 0058 4FEAEE00 		asr	r0, lr, #3
 239              		.loc 1 204 8 view .LVU80
 240 005c 02D9     		bls	.L10
 241              		.loc 1 204 29 discriminator 1 view .LVU81
 242 005e B9EBEE0F 		cmp	r9, lr, asr #3
 243 0062 1AD9     		bls	.L25
 244              	.L10:
 245              		.loc 1 196 10 view .LVU82
 246 0064 1368     		ldr	r3, [r2]
 247              	.LVL17:
 248              		.loc 1 196 10 view .LVU83
 249 0066 1146     		mov	r1, r2
 250 0068 1A46     		mov	r2, r3
 251              	.LVL18:
 252              		.loc 1 196 21 view .LVU84
 253 006a 002B     		cmp	r3, #0
 254 006c E8D1     		bne	.L15
 255              	.LVL19:
 256              	.L9:
 257              		.loc 1 264 3 is_stmt 1 view .LVU85
 258 006e 5846     		mov	r0, fp
 259 0070 FFF7FEFF 		bl	chMtxUnlock
 260              	.LVL20:
 261              		.loc 1 268 3 view .LVU86
 262              		.loc 1 268 12 is_stmt 0 view .LVU87
 263 0074 D8F80040 		ldr	r4, [r8]
 264              		.loc 1 268 6 view .LVU88
 265 0078 5CB1     		cbz	r4, .L7
 266              		.loc 1 269 5 is_stmt 1 view .LVU89
 267              		.loc 1 269 11 is_stmt 0 view .LVU90
 268 007a 5146     		mov	r1, r10
 269 007c 4FEAC900 		lsl	r0, r9, #3
 270 0080 0822     		movs	r2, #8
 271 0082 A047     		blx	r4
 272              	.LVL21:
 273              		.loc 1 272 5 is_stmt 1 view .LVU91
 274              		.loc 1 272 8 is_stmt 0 view .LVU92
 275 0084 0446     		mov	r4, r0
 276 0086 20B1     		cbz	r0, .L7
 277              		.loc 1 273 7 is_stmt 1 view .LVU93
 278              	.LVL22:
 279              		.loc 1 274 7 view .LVU94
 280              		.loc 1 275 18 is_stmt 0 view .LVU95
 281 0088 019B     		ldr	r3, [sp, #4]
 282              		.loc 1 274 18 view .LVU96
 283 008a 40F8088C 		str	r8, [r0, #-8]
 284              		.loc 1 275 7 is_stmt 1 view .LVU97
 285              		.loc 1 275 18 is_stmt 0 view .LVU98
ARM GAS  C:\Users\DEVELO~1\AppData\Local\Temp\ccQb9vWk.s 			page 6


 286 008e 40F8043C 		str	r3, [r0, #-4]
 287              		.loc 1 278 7 is_stmt 1 view .LVU99
 288              	.LVL23:
 289              	.L7:
 290              		.loc 1 284 1 is_stmt 0 view .LVU100
 291 0092 2046     		mov	r0, r4
 292 0094 03B0     		add	sp, sp, #12
 293              		.cfi_remember_state
 294              		.cfi_def_cfa_offset 36
 295              		@ sp needed
 296 0096 BDE8F08F 		pop	{r4, r5, r6, r7, r8, r9, r10, fp, pc}
 297              	.LVL24:
 298              	.L25:
 299              		.cfi_restore_state
 300              		.loc 1 208 7 is_stmt 1 view .LVU101
 301              		.loc 1 208 10 is_stmt 0 view .LVU102
 302 009a 9A42     		cmp	r2, r3
 303 009c 1CD3     		bcc	.L26
 304              		.loc 1 232 9 is_stmt 1 view .LVU103
 305              		.loc 1 232 12 is_stmt 0 view .LVU104
 306 009e 4D45     		cmp	r5, r9
 307 00a0 30D0     		beq	.L27
 308              	.LBB2:
 309              		.loc 1 238 11 is_stmt 1 view .LVU105
 310              		.loc 1 240 11 view .LVU106
 311              		.loc 1 241 24 is_stmt 0 view .LVU107
 312 00a2 1368     		ldr	r3, [r2]
 313              	.LVL25:
 314              		.loc 1 240 28 view .LVU108
 315 00a4 09F10100 		add	r0, r9, #1
 316              	.LBE2:
 317              	.LBB3:
 318              		.loc 1 213 23 view .LVU109
 319 00a8 02F10804 		add	r4, r2, #8
 320              	.LVL26:
 321              		.loc 1 213 23 view .LVU110
 322              	.LBE3:
 323              	.LBB5:
 324              		.loc 1 241 22 view .LVU111
 325 00ac 42F83030 		str	r3, [r2, r0, lsl #3]
 326              		.loc 1 240 14 view .LVU112
 327 00b0 02EBC000 		add	r0, r2, r0, lsl #3
 328              	.LVL27:
 329              		.loc 1 241 11 is_stmt 1 view .LVU113
 330              		.loc 1 242 11 view .LVU114
 331              	.LBE5:
 332              	.LBB6:
 333              		.loc 1 213 23 is_stmt 0 view .LVU115
 334 00b4 1346     		mov	r3, r2
 335              	.LBE6:
 336              	.LBB7:
 337              		.loc 1 242 25 view .LVU116
 338 00b6 00F10802 		add	r2, r0, #8
 339              	.LVL28:
 340              		.loc 1 242 25 view .LVU117
 341 00ba ACEB0202 		sub	r2, ip, r2
 342 00be D210     		asrs	r2, r2, #3
ARM GAS  C:\Users\DEVELO~1\AppData\Local\Temp\ccQb9vWk.s 			page 7


 343              		.loc 1 242 23 view .LVU118
 344 00c0 4260     		str	r2, [r0, #4]
 345              		.loc 1 243 11 is_stmt 1 view .LVU119
 346              		.loc 1 243 22 is_stmt 0 view .LVU120
 347 00c2 0860     		str	r0, [r1]
 348              	.LVL29:
 349              	.L12:
 350              		.loc 1 243 22 view .LVU121
 351              	.LBE7:
 352              		.loc 1 248 7 is_stmt 1 view .LVU122
 353              		.loc 1 248 18 is_stmt 0 view .LVU123
 354 00c4 019A     		ldr	r2, [sp, #4]
 355              		.loc 1 252 7 view .LVU124
 356 00c6 5846     		mov	r0, fp
 357              		.loc 1 249 18 view .LVU125
 358 00c8 C3E90082 		strd	r8, r2, [r3]
 359              		.loc 1 252 7 is_stmt 1 view .LVU126
 360 00cc FFF7FEFF 		bl	chMtxUnlock
 361              	.LVL30:
 362              		.loc 1 255 7 view .LVU127
 363              		.loc 1 284 1 is_stmt 0 view .LVU128
 364 00d0 2046     		mov	r0, r4
 365 00d2 03B0     		add	sp, sp, #12
 366              		.cfi_remember_state
 367              		.cfi_def_cfa_offset 36
 368              		@ sp needed
 369 00d4 BDE8F08F 		pop	{r4, r5, r6, r7, r8, r9, r10, fp, pc}
 370              	.LVL31:
 371              	.L26:
 372              		.cfi_restore_state
 373              	.LBB8:
 374              		.loc 1 210 9 is_stmt 1 view .LVU129
 375              		.loc 1 212 9 view .LVU130
 376              		.loc 1 213 9 view .LVU131
 377              		.loc 1 213 23 is_stmt 0 view .LVU132
 378 00d8 02F10801 		add	r1, r2, #8
 379              		.loc 1 214 12 view .LVU133
 380 00dc 4845     		cmp	r0, r9
 381              		.loc 1 213 23 view .LVU134
 382 00de A3EB0101 		sub	r1, r3, r1
 383 00e2 4FEAE101 		asr	r1, r1, #3
 384              		.loc 1 213 21 view .LVU135
 385 00e6 5160     		str	r1, [r2, #4]
 386              		.loc 1 214 9 is_stmt 1 view .LVU136
 387              		.loc 1 214 12 is_stmt 0 view .LVU137
 388 00e8 ECD9     		bls	.L12
 389              	.LBB4:
 390              		.loc 1 216 11 is_stmt 1 view .LVU138
 391              		.loc 1 219 11 view .LVU139
 392              		.loc 1 220 42 is_stmt 0 view .LVU140
 393 00ea A0EB0901 		sub	r1, r0, r9
 394              		.loc 1 219 29 view .LVU141
 395 00ee 09F10109 		add	r9, r9, #1
 396              	.LVL32:
 397              		.loc 1 220 42 view .LVU142
 398 00f2 0139     		subs	r1, r1, #1
 399              		.loc 1 219 14 view .LVU143
ARM GAS  C:\Users\DEVELO~1\AppData\Local\Temp\ccQb9vWk.s 			page 8


 400 00f4 03EBC900 		add	r0, r3, r9, lsl #3
 401              	.LVL33:
 402              		.loc 1 220 11 is_stmt 1 view .LVU144
 403              		.loc 1 220 23 is_stmt 0 view .LVU145
 404 00f8 4160     		str	r1, [r0, #4]
 405              		.loc 1 223 11 is_stmt 1 view .LVU146
 406              		.loc 1 223 24 is_stmt 0 view .LVU147
 407 00fa 1168     		ldr	r1, [r2]
 408              		.loc 1 223 22 view .LVU148
 409 00fc 43F83910 		str	r1, [r3, r9, lsl #3]
 410              		.loc 1 224 11 is_stmt 1 view .LVU149
 411              		.loc 1 224 22 is_stmt 0 view .LVU150
 412 0100 1060     		str	r0, [r2]
 413 0102 DFE7     		b	.L12
 414              	.LVL34:
 415              	.L27:
 416              		.loc 1 224 22 view .LVU151
 417              	.LBE4:
 418              	.LBE8:
 419              		.loc 1 234 11 is_stmt 1 view .LVU152
 420              		.loc 1 234 24 is_stmt 0 view .LVU153
 421 0104 1446     		mov	r4, r2
 422 0106 1346     		mov	r3, r2
 423              	.LVL35:
 424              		.loc 1 234 24 view .LVU154
 425 0108 54F8082B 		ldr	r2, [r4], #8
 426              	.LVL36:
 427              		.loc 1 234 22 view .LVU155
 428 010c 0A60     		str	r2, [r1]
 429 010e D9E7     		b	.L12
 430              	.L29:
 431              		.align	2
 432              	.L28:
 433 0110 00000000 		.word	.LANCHOR0
 434              		.cfi_endproc
 435              	.LFE348:
 436              		.size	chHeapAllocAligned, .-chHeapAllocAligned
 437              		.section	.text.chHeapFree,"ax",%progbits
 438              		.align	1
 439              		.p2align 4,,15
 440              		.global	chHeapFree
 441              		.syntax unified
 442              		.thumb
 443              		.thumb_func
 444              		.type	chHeapFree, %function
 445              	chHeapFree:
 446              	.LVL37:
 447              	.LFB349:
 448              		.loc 1 293 26 is_stmt 1 view -0
 449              		.cfi_startproc
 450              		@ args = 0, pretend = 0, frame = 0
 451              		@ frame_needed = 0, uses_anonymous_args = 0
 452              		.loc 1 294 3 view .LVU157
 453              		.loc 1 295 3 view .LVU158
 454              		.loc 1 297 3 view .LVU159
 455              		.loc 1 297 3 view .LVU160
 456              		.loc 1 297 3 view .LVU161
ARM GAS  C:\Users\DEVELO~1\AppData\Local\Temp\ccQb9vWk.s 			page 9


 457              		.loc 1 300 3 view .LVU162
 458              		.loc 1 293 26 is_stmt 0 view .LVU163
 459 0000 F8B5     		push	{r3, r4, r5, r6, r7, lr}
 460              		.cfi_def_cfa_offset 24
 461              		.cfi_offset 3, -24
 462              		.cfi_offset 4, -20
 463              		.cfi_offset 5, -16
 464              		.cfi_offset 6, -12
 465              		.cfi_offset 7, -8
 466              		.cfi_offset 14, -4
 467              		.loc 1 302 9 view .LVU164
 468 0002 50E90273 		ldrd	r7, r3, [r0, #-8]
 469              		.loc 1 300 6 view .LVU165
 470 0006 A0F10804 		sub	r4, r0, #8
 471              	.LVL38:
 472              		.loc 1 302 3 is_stmt 1 view .LVU166
 473              		.loc 1 303 3 view .LVU167
 474              		.loc 1 293 26 is_stmt 0 view .LVU168
 475 000a 0646     		mov	r6, r0
 476              		.loc 1 306 17 view .LVU169
 477 000c 0733     		adds	r3, r3, #7
 478              		.loc 1 303 6 view .LVU170
 479 000e 3D1D     		adds	r5, r7, #4
 480              	.LVL39:
 481              		.loc 1 306 3 is_stmt 1 view .LVU171
 482              		.loc 1 310 3 is_stmt 0 view .LVU172
 483 0010 0C37     		adds	r7, r7, #12
 484              	.LVL40:
 485              		.loc 1 307 51 view .LVU173
 486 0012 DB08     		lsrs	r3, r3, #3
 487              		.loc 1 306 15 view .LVU174
 488 0014 40F8043C 		str	r3, [r0, #-4]
 489              		.loc 1 310 3 is_stmt 1 view .LVU175
 490 0018 3846     		mov	r0, r7
 491              	.LVL41:
 492              		.loc 1 310 3 is_stmt 0 view .LVU176
 493 001a FFF7FEFF 		bl	chMtxLock
 494              	.LVL42:
 495              		.loc 1 312 3 is_stmt 1 view .LVU177
 496              		.loc 1 313 5 view .LVU178
 497              		.loc 1 313 5 view .LVU179
 498              		.loc 1 313 5 view .LVU180
 499              		.loc 1 315 5 view .LVU181
 500              		.loc 1 333 5 view .LVU182
 501              		.loc 1 312 9 view .LVU183
 502              		.loc 1 303 6 is_stmt 0 view .LVU184
 503 001e 2B46     		mov	r3, r5
 504              		.loc 1 315 33 view .LVU185
 505 0020 A342     		cmp	r3, r4
 506              		.loc 1 316 11 view .LVU186
 507 0022 1A68     		ldr	r2, [r3]
 508              		.loc 1 315 33 view .LVU187
 509 0024 05D3     		bcc	.L38
 510              	.LVL43:
 511              	.L43:
 512              		.loc 1 315 33 discriminator 7 view .LVU188
 513 0026 9D42     		cmp	r5, r3
ARM GAS  C:\Users\DEVELO~1\AppData\Local\Temp\ccQb9vWk.s 			page 10


 514 0028 03D0     		beq	.L38
 515              	.L34:
 516              	.LVL44:
 517              		.loc 1 333 8 view .LVU189
 518 002a 1346     		mov	r3, r2
 519              	.LVL45:
 520              		.loc 1 312 3 is_stmt 1 view .LVU190
 521              		.loc 1 313 5 view .LVU191
 522              		.loc 1 313 5 view .LVU192
 523              		.loc 1 313 5 view .LVU193
 524              		.loc 1 315 5 view .LVU194
 525              		.loc 1 333 5 view .LVU195
 526              		.loc 1 312 9 view .LVU196
 527              		.loc 1 315 33 is_stmt 0 view .LVU197
 528 002c A342     		cmp	r3, r4
 529              		.loc 1 316 11 view .LVU198
 530 002e 1A68     		ldr	r2, [r3]
 531              	.LVL46:
 532              		.loc 1 315 33 view .LVU199
 533 0030 F9D2     		bcs	.L43
 534              	.L38:
 535              		.loc 1 315 47 discriminator 3 view .LVU200
 536 0032 0AB1     		cbz	r2, .L33
 537              		.loc 1 316 31 view .LVU201
 538 0034 9442     		cmp	r4, r2
 539 0036 F8D2     		bcs	.L34
 540              	.L33:
 541              		.loc 1 318 7 is_stmt 1 view .LVU202
 542              		.loc 1 318 18 is_stmt 0 view .LVU203
 543 0038 46F8082C 		str	r2, [r6, #-8]
 544              	.LVL47:
 545              		.loc 1 319 7 is_stmt 1 view .LVU204
 546              		.loc 1 321 11 is_stmt 0 view .LVU205
 547 003c 56F8042C 		ldr	r2, [r6, #-4]
 548              		.loc 1 319 18 view .LVU206
 549 0040 1C60     		str	r4, [r3]
 550              		.loc 1 321 7 is_stmt 1 view .LVU207
 551              		.loc 1 321 11 is_stmt 0 view .LVU208
 552 0042 0132     		adds	r2, r2, #1
 553              		.loc 1 321 26 view .LVU209
 554 0044 56F8081C 		ldr	r1, [r6, #-8]
 555              		.loc 1 321 11 view .LVU210
 556 0048 04EBC200 		add	r0, r4, r2, lsl #3
 557              		.loc 1 321 10 view .LVU211
 558 004c 8142     		cmp	r1, r0
 559 004e 0AD0     		beq	.L44
 560              		.loc 1 326 7 is_stmt 1 view .LVU212
 561              		.loc 1 326 12 is_stmt 0 view .LVU213
 562 0050 5968     		ldr	r1, [r3, #4]
 563 0052 4A1C     		adds	r2, r1, #1
 564 0054 03EBC202 		add	r2, r3, r2, lsl #3
 565              		.loc 1 326 10 view .LVU214
 566 0058 9442     		cmp	r4, r2
 567 005a 11D0     		beq	.L45
 568              	.L36:
 569              		.loc 1 331 7 is_stmt 1 view .LVU215
 570              		.loc 1 337 3 view .LVU216
ARM GAS  C:\Users\DEVELO~1\AppData\Local\Temp\ccQb9vWk.s 			page 11


 571 005c 3846     		mov	r0, r7
 572              		.loc 1 340 1 is_stmt 0 view .LVU217
 573 005e BDE8F840 		pop	{r3, r4, r5, r6, r7, lr}
 574              		.cfi_remember_state
 575              		.cfi_restore 14
 576              		.cfi_restore 7
 577              		.cfi_restore 6
 578              		.cfi_restore 5
 579              		.cfi_restore 4
 580              		.cfi_restore 3
 581              		.cfi_def_cfa_offset 0
 582              	.LVL48:
 583              		.loc 1 337 3 view .LVU218
 584 0062 FFF7FEBF 		b	chMtxUnlock
 585              	.LVL49:
 586              	.L44:
 587              		.cfi_restore_state
 588              		.loc 1 323 9 is_stmt 1 view .LVU219
 589              		.loc 1 323 21 is_stmt 0 view .LVU220
 590 0066 4868     		ldr	r0, [r1, #4]
 591 0068 1044     		add	r0, r0, r2
 592              		.loc 1 324 22 view .LVU221
 593 006a 0A68     		ldr	r2, [r1]
 594              		.loc 1 323 21 view .LVU222
 595 006c 46F8040C 		str	r0, [r6, #-4]
 596              		.loc 1 324 9 is_stmt 1 view .LVU223
 597              		.loc 1 326 12 is_stmt 0 view .LVU224
 598 0070 5968     		ldr	r1, [r3, #4]
 599              		.loc 1 324 20 view .LVU225
 600 0072 46F8082C 		str	r2, [r6, #-8]
 601              		.loc 1 326 7 is_stmt 1 view .LVU226
 602              		.loc 1 326 12 is_stmt 0 view .LVU227
 603 0076 4A1C     		adds	r2, r1, #1
 604 0078 03EBC202 		add	r2, r3, r2, lsl #3
 605              		.loc 1 326 10 view .LVU228
 606 007c 9442     		cmp	r4, r2
 607 007e EDD1     		bne	.L36
 608              	.L45:
 609              		.loc 1 328 9 is_stmt 1 view .LVU229
 610              		.loc 1 329 22 is_stmt 0 view .LVU230
 611 0080 56E90202 		ldrd	r0, r2, [r6, #-8]
 612              		.loc 1 328 21 view .LVU231
 613 0084 0132     		adds	r2, r2, #1
 614              		.loc 1 329 20 view .LVU232
 615 0086 1860     		str	r0, [r3]
 616              		.loc 1 337 3 view .LVU233
 617 0088 3846     		mov	r0, r7
 618              		.loc 1 328 21 view .LVU234
 619 008a 0A44     		add	r2, r2, r1
 620 008c 5A60     		str	r2, [r3, #4]
 621              		.loc 1 329 9 is_stmt 1 view .LVU235
 622              		.loc 1 331 7 view .LVU236
 623              		.loc 1 337 3 view .LVU237
 624              		.loc 1 340 1 is_stmt 0 view .LVU238
 625 008e BDE8F840 		pop	{r3, r4, r5, r6, r7, lr}
 626              		.cfi_restore 14
 627              		.cfi_restore 7
ARM GAS  C:\Users\DEVELO~1\AppData\Local\Temp\ccQb9vWk.s 			page 12


 628              		.cfi_restore 6
 629              		.cfi_restore 5
 630              		.cfi_restore 4
 631              		.cfi_restore 3
 632              		.cfi_def_cfa_offset 0
 633              	.LVL50:
 634              		.loc 1 337 3 view .LVU239
 635 0092 FFF7FEBF 		b	chMtxUnlock
 636              	.LVL51:
 637              		.loc 1 337 3 view .LVU240
 638              		.cfi_endproc
 639              	.LFE349:
 640              		.size	chHeapFree, .-chHeapFree
 641 0096 00BF     		.section	.text.chHeapStatus,"ax",%progbits
 642              		.align	1
 643              		.p2align 4,,15
 644              		.global	chHeapStatus
 645              		.syntax unified
 646              		.thumb
 647              		.thumb_func
 648              		.type	chHeapStatus, %function
 649              	chHeapStatus:
 650              	.LVL52:
 651              	.LFB350:
 652              		.loc 1 357 77 is_stmt 1 view -0
 653              		.cfi_startproc
 654              		@ args = 0, pretend = 0, frame = 0
 655              		@ frame_needed = 0, uses_anonymous_args = 0
 656              		.loc 1 358 3 view .LVU242
 657              		.loc 1 359 3 view .LVU243
 658              		.loc 1 361 3 view .LVU244
 659              		.loc 1 362 11 is_stmt 0 view .LVU245
 660 0000 0028     		cmp	r0, #0
 661 0002 174B     		ldr	r3, .L61
 662              		.loc 1 357 77 view .LVU246
 663 0004 2DE9F041 		push	{r4, r5, r6, r7, r8, lr}
 664              		.cfi_def_cfa_offset 24
 665              		.cfi_offset 4, -24
 666              		.cfi_offset 5, -20
 667              		.cfi_offset 6, -16
 668              		.cfi_offset 7, -12
 669              		.cfi_offset 8, -8
 670              		.cfi_offset 14, -4
 671              		.loc 1 361 6 view .LVU247
 672 0008 0446     		mov	r4, r0
 673              		.loc 1 362 11 view .LVU248
 674 000a 14BF     		ite	ne
 675 000c 0446     		movne	r4, r0
 676 000e 1C46     		moveq	r4, r3
 677              	.LVL53:
 678              		.loc 1 365 3 is_stmt 1 view .LVU249
 679              		.loc 1 357 77 is_stmt 0 view .LVU250
 680 0010 0F46     		mov	r7, r1
 681 0012 1646     		mov	r6, r2
 682              		.loc 1 365 3 view .LVU251
 683 0014 04F10C08 		add	r8, r4, #12
 684 0018 4046     		mov	r0, r8
ARM GAS  C:\Users\DEVELO~1\AppData\Local\Temp\ccQb9vWk.s 			page 13


 685 001a FFF7FEFF 		bl	chMtxLock
 686              	.LVL54:
 687              		.loc 1 366 3 is_stmt 1 view .LVU252
 688              		.loc 1 367 3 view .LVU253
 689              		.loc 1 368 3 view .LVU254
 690              		.loc 1 369 3 view .LVU255
 691              		.loc 1 370 3 view .LVU256
 692              		.loc 1 370 21 view .LVU257
 693              		.loc 1 370 10 is_stmt 0 view .LVU258
 694 001e 6368     		ldr	r3, [r4, #4]
 695              		.loc 1 370 21 view .LVU259
 696 0020 D3B1     		cbz	r3, .L52
 697              		.loc 1 367 10 view .LVU260
 698 0022 4FF0000C 		mov	ip, #0
 699              		.loc 1 366 10 view .LVU261
 700 0026 E646     		mov	lr, ip
 701              		.loc 1 368 5 view .LVU262
 702 0028 6546     		mov	r5, ip
 703              	.LVL55:
 704              	.L49:
 705              	.LBB9:
 706              		.loc 1 371 5 is_stmt 1 view .LVU263
 707              		.loc 1 374 6 is_stmt 0 view .LVU264
 708 002a 0135     		adds	r5, r5, #1
 709              	.LVL56:
 710              		.loc 1 375 5 is_stmt 1 view .LVU265
 711              	.LBE9:
 712              		.loc 1 370 10 is_stmt 0 view .LVU266
 713 002c D3E90034 		ldrd	r3, r4, [r3]
 714 0030 A445     		cmp	ip, r4
 715              	.LBB10:
 716              		.loc 1 375 12 view .LVU267
 717 0032 A644     		add	lr, lr, r4
 718              	.LVL57:
 719              		.loc 1 376 5 is_stmt 1 view .LVU268
 720 0034 38BF     		it	cc
 721 0036 A446     		movcc	ip, r4
 722              	.LVL58:
 723              		.loc 1 376 5 is_stmt 0 view .LVU269
 724              	.LBE10:
 725              		.loc 1 370 21 is_stmt 1 view .LVU270
 726 0038 002B     		cmp	r3, #0
 727 003a F6D1     		bne	.L49
 728              	.LVL59:
 729              	.L48:
 730              		.loc 1 384 3 view .LVU271
 731              		.loc 1 384 6 is_stmt 0 view .LVU272
 732 003c 17B1     		cbz	r7, .L50
 733              		.loc 1 385 5 is_stmt 1 view .LVU273
 734              		.loc 1 385 22 is_stmt 0 view .LVU274
 735 003e 4FEACE03 		lsl	r3, lr, #3
 736              		.loc 1 385 13 view .LVU275
 737 0042 3B60     		str	r3, [r7]
 738              	.L50:
 739              		.loc 1 389 3 is_stmt 1 view .LVU276
 740              		.loc 1 389 6 is_stmt 0 view .LVU277
 741 0044 16B1     		cbz	r6, .L51
ARM GAS  C:\Users\DEVELO~1\AppData\Local\Temp\ccQb9vWk.s 			page 14


 742              		.loc 1 390 5 is_stmt 1 view .LVU278
 743              		.loc 1 390 24 is_stmt 0 view .LVU279
 744 0046 4FEACC03 		lsl	r3, ip, #3
 745              		.loc 1 390 15 view .LVU280
 746 004a 3360     		str	r3, [r6]
 747              	.L51:
 748              		.loc 1 392 3 is_stmt 1 view .LVU281
 749 004c 4046     		mov	r0, r8
 750 004e FFF7FEFF 		bl	chMtxUnlock
 751              	.LVL60:
 752              		.loc 1 394 3 view .LVU282
 753              		.loc 1 395 1 is_stmt 0 view .LVU283
 754 0052 2846     		mov	r0, r5
 755 0054 BDE8F081 		pop	{r4, r5, r6, r7, r8, pc}
 756              	.LVL61:
 757              	.L52:
 758              		.loc 1 367 10 view .LVU284
 759 0058 9C46     		mov	ip, r3
 760              		.loc 1 366 10 view .LVU285
 761 005a 9E46     		mov	lr, r3
 762              		.loc 1 368 5 view .LVU286
 763 005c 1D46     		mov	r5, r3
 764 005e EDE7     		b	.L48
 765              	.L62:
 766              		.align	2
 767              	.L61:
 768 0060 00000000 		.word	.LANCHOR0
 769              		.cfi_endproc
 770              	.LFE350:
 771              		.size	chHeapStatus, .-chHeapStatus
 772              		.section	.bss.default_heap,"aw",%nobits
 773              		.align	2
 774              		.set	.LANCHOR0,. + 0
 775              		.type	default_heap, %object
 776              		.size	default_heap, 28
 777              	default_heap:
 778 0000 00000000 		.space	28
 778      00000000 
 778      00000000 
 778      00000000 
 778      00000000 
 779              		.text
 780              	.Letext0:
 781              		.file 2 "c:\\chibistudio\\tools\\gnu tools arm embedded\\11.3 2022.08\\lib\\gcc\\arm-none-eabi\\11
 782              		.file 3 "c:\\chibistudio\\tools\\gnu tools arm embedded\\11.3 2022.08\\arm-none-eabi\\include\\mac
 783              		.file 4 "c:\\chibistudio\\tools\\gnu tools arm embedded\\11.3 2022.08\\arm-none-eabi\\include\\sys
 784              		.file 5 "../../../os/common/ports/ARM-common/chtypes.h"
 785              		.file 6 "../../../os/rt/include/chearly.h"
 786              		.file 7 "../../../os/rt/include/chobjects.h"
 787              		.file 8 "../../../os/rt/include/chrfcu.h"
 788              		.file 9 "../../../os/rt/include/chdebug.h"
 789              		.file 10 "../../../os/rt/include/chtime.h"
 790              		.file 11 "../../../os/rt/include/chlists.h"
 791              		.file 12 "../../../os/rt/include/chtrace.h"
 792              		.file 13 "../../../os/common/ports/ARMv7-M/chcore.h"
 793              		.file 14 "../../../os/rt/include/chsem.h"
 794              		.file 15 "../../../os/rt/include/chmtx.h"
ARM GAS  C:\Users\DEVELO~1\AppData\Local\Temp\ccQb9vWk.s 			page 15


 795              		.file 16 "../../../os/oslib/include/chmemcore.h"
 796              		.file 17 "../../../os/oslib/include/chmemheaps.h"
 797              		.section	.debug_info,"",%progbits
 798              	.Ldebug_info0:
 799 0000 D90D0000 		.4byte	0xdd9
 800 0004 0500     		.2byte	0x5
 801 0006 01       		.byte	0x1
 802 0007 04       		.byte	0x4
 803 0008 00000000 		.4byte	.Ldebug_abbrev0
 804 000c 24       		.uleb128 0x24
 805 000d 6A020000 		.4byte	.LASF151
 806 0011 1D       		.byte	0x1d
 807 0012 F2060000 		.4byte	.LASF152
 808 0016 7D010000 		.4byte	.LASF153
 809 001a 36000000 		.4byte	.LLRL28
 810 001e 00000000 		.4byte	0
 811 0022 00000000 		.4byte	.Ldebug_line0
 812 0026 25       		.uleb128 0x25
 813 0027 04       		.byte	0x4
 814 0028 05       		.byte	0x5
 815 0029 696E7400 		.ascii	"int\000"
 816 002d 01       		.uleb128 0x1
 817 002e 1C000000 		.4byte	.LASF4
 818 0032 02       		.byte	0x2
 819 0033 D1       		.byte	0xd1
 820 0034 17       		.byte	0x17
 821 0035 39000000 		.4byte	0x39
 822 0039 05       		.uleb128 0x5
 823 003a 04       		.byte	0x4
 824 003b 07       		.byte	0x7
 825 003c 1F020000 		.4byte	.LASF0
 826 0040 05       		.uleb128 0x5
 827 0041 08       		.byte	0x8
 828 0042 05       		.byte	0x5
 829 0043 3D010000 		.4byte	.LASF1
 830 0047 05       		.uleb128 0x5
 831 0048 08       		.byte	0x8
 832 0049 04       		.byte	0x4
 833 004a A5050000 		.4byte	.LASF2
 834 004e 05       		.uleb128 0x5
 835 004f 01       		.byte	0x1
 836 0050 06       		.byte	0x6
 837 0051 B1000000 		.4byte	.LASF3
 838 0055 01       		.uleb128 0x1
 839 0056 2F000000 		.4byte	.LASF5
 840 005a 03       		.byte	0x3
 841 005b 2B       		.byte	0x2b
 842 005c 18       		.byte	0x18
 843 005d 61000000 		.4byte	0x61
 844 0061 05       		.uleb128 0x5
 845 0062 01       		.byte	0x1
 846 0063 08       		.byte	0x8
 847 0064 F1040000 		.4byte	.LASF6
 848 0068 05       		.uleb128 0x5
 849 0069 02       		.byte	0x2
 850 006a 05       		.byte	0x5
 851 006b 25050000 		.4byte	.LASF7
ARM GAS  C:\Users\DEVELO~1\AppData\Local\Temp\ccQb9vWk.s 			page 16


 852 006f 01       		.uleb128 0x1
 853 0070 D1050000 		.4byte	.LASF8
 854 0074 03       		.byte	0x3
 855 0075 39       		.byte	0x39
 856 0076 19       		.byte	0x19
 857 0077 7B000000 		.4byte	0x7b
 858 007b 05       		.uleb128 0x5
 859 007c 02       		.byte	0x2
 860 007d 07       		.byte	0x7
 861 007e 35030000 		.4byte	.LASF9
 862 0082 01       		.uleb128 0x1
 863 0083 8B030000 		.4byte	.LASF10
 864 0087 03       		.byte	0x3
 865 0088 4D       		.byte	0x4d
 866 0089 18       		.byte	0x18
 867 008a 8E000000 		.4byte	0x8e
 868 008e 05       		.uleb128 0x5
 869 008f 04       		.byte	0x4
 870 0090 05       		.byte	0x5
 871 0091 0C010000 		.4byte	.LASF11
 872 0095 01       		.uleb128 0x1
 873 0096 CC010000 		.4byte	.LASF12
 874 009a 03       		.byte	0x3
 875 009b 4F       		.byte	0x4f
 876 009c 19       		.byte	0x19
 877 009d A1000000 		.4byte	0xa1
 878 00a1 05       		.uleb128 0x5
 879 00a2 04       		.byte	0x4
 880 00a3 07       		.byte	0x7
 881 00a4 C4000000 		.4byte	.LASF13
 882 00a8 01       		.uleb128 0x1
 883 00a9 97040000 		.4byte	.LASF14
 884 00ad 03       		.byte	0x3
 885 00ae 69       		.byte	0x69
 886 00af 19       		.byte	0x19
 887 00b0 B4000000 		.4byte	0xb4
 888 00b4 05       		.uleb128 0x5
 889 00b5 08       		.byte	0x8
 890 00b6 07       		.byte	0x7
 891 00b7 E4000000 		.4byte	.LASF15
 892 00bb 01       		.uleb128 0x1
 893 00bc CE060000 		.4byte	.LASF16
 894 00c0 04       		.byte	0x4
 895 00c1 18       		.byte	0x18
 896 00c2 13       		.byte	0x13
 897 00c3 55000000 		.4byte	0x55
 898 00c7 01       		.uleb128 0x1
 899 00c8 4B010000 		.4byte	.LASF17
 900 00cc 04       		.byte	0x4
 901 00cd 24       		.byte	0x24
 902 00ce 14       		.byte	0x14
 903 00cf 6F000000 		.4byte	0x6f
 904 00d3 01       		.uleb128 0x1
 905 00d4 E9040000 		.4byte	.LASF18
 906 00d8 04       		.byte	0x4
 907 00d9 2C       		.byte	0x2c
 908 00da 13       		.byte	0x13
ARM GAS  C:\Users\DEVELO~1\AppData\Local\Temp\ccQb9vWk.s 			page 17


 909 00db 82000000 		.4byte	0x82
 910 00df 01       		.uleb128 0x1
 911 00e0 75050000 		.4byte	.LASF19
 912 00e4 04       		.byte	0x4
 913 00e5 30       		.byte	0x30
 914 00e6 14       		.byte	0x14
 915 00e7 95000000 		.4byte	0x95
 916 00eb 01       		.uleb128 0x1
 917 00ec 36040000 		.4byte	.LASF20
 918 00f0 04       		.byte	0x4
 919 00f1 3C       		.byte	0x3c
 920 00f2 14       		.byte	0x14
 921 00f3 A8000000 		.4byte	0xa8
 922 00f7 1E       		.uleb128 0x1e
 923 00f8 EB000000 		.4byte	0xeb
 924 00fc 01       		.uleb128 0x1
 925 00fd 8A050000 		.4byte	.LASF21
 926 0101 05       		.byte	0x5
 927 0102 48       		.byte	0x48
 928 0103 1D       		.byte	0x1d
 929 0104 EB000000 		.4byte	0xeb
 930 0108 01       		.uleb128 0x1
 931 0109 AB030000 		.4byte	.LASF22
 932 010d 06       		.byte	0x6
 933 010e 50       		.byte	0x50
 934 010f 19       		.byte	0x19
 935 0110 FC000000 		.4byte	0xfc
 936 0114 01       		.uleb128 0x1
 937 0115 61030000 		.4byte	.LASF23
 938 0119 06       		.byte	0x6
 939 011a 53       		.byte	0x53
 940 011b 19       		.byte	0x19
 941 011c BB000000 		.4byte	0xbb
 942 0120 01       		.uleb128 0x1
 943 0121 15010000 		.4byte	.LASF24
 944 0125 06       		.byte	0x6
 945 0126 54       		.byte	0x54
 946 0127 19       		.byte	0x19
 947 0128 BB000000 		.4byte	0xbb
 948 012c 01       		.uleb128 0x1
 949 012d B2040000 		.4byte	.LASF25
 950 0131 06       		.byte	0x6
 951 0132 55       		.byte	0x55
 952 0133 19       		.byte	0x19
 953 0134 BB000000 		.4byte	0xbb
 954 0138 01       		.uleb128 0x1
 955 0139 CB040000 		.4byte	.LASF26
 956 013d 06       		.byte	0x6
 957 013e 57       		.byte	0x57
 958 013f 19       		.byte	0x19
 959 0140 DF000000 		.4byte	0xdf
 960 0144 01       		.uleb128 0x1
 961 0145 52030000 		.4byte	.LASF27
 962 0149 06       		.byte	0x6
 963 014a 58       		.byte	0x58
 964 014b 19       		.byte	0x19
 965 014c D3000000 		.4byte	0xd3
ARM GAS  C:\Users\DEVELO~1\AppData\Local\Temp\ccQb9vWk.s 			page 18


 966 0150 01       		.uleb128 0x1
 967 0151 7F030000 		.4byte	.LASF28
 968 0155 06       		.byte	0x6
 969 0156 5A       		.byte	0x5a
 970 0157 19       		.byte	0x19
 971 0158 DF000000 		.4byte	0xdf
 972 015c 01       		.uleb128 0x1
 973 015d 10020000 		.4byte	.LASF29
 974 0161 06       		.byte	0x6
 975 0162 5C       		.byte	0x5c
 976 0163 19       		.byte	0x19
 977 0164 D3000000 		.4byte	0xd3
 978 0168 01       		.uleb128 0x1
 979 0169 A8040000 		.4byte	.LASF30
 980 016d 06       		.byte	0x6
 981 016e 80       		.byte	0x80
 982 016f 12       		.byte	0x12
 983 0170 39000000 		.4byte	0x39
 984 0174 01       		.uleb128 0x1
 985 0175 DC050000 		.4byte	.LASF31
 986 0179 06       		.byte	0x6
 987 017a 85       		.byte	0x85
 988 017b 1A       		.byte	0x1a
 989 017c 80010000 		.4byte	0x180
 990 0180 06       		.uleb128 0x6
 991 0181 48030000 		.4byte	.LASF46
 992 0185 48       		.byte	0x48
 993 0186 07       		.byte	0x7
 994 0187 9C       		.byte	0x9c
 995 0188 08       		.byte	0x8
 996 0189 5D020000 		.4byte	0x25d
 997 018d 08       		.uleb128 0x8
 998 018e 68647200 		.ascii	"hdr\000"
 999 0192 07       		.byte	0x7
 1000 0193 AD       		.byte	0xad
 1001 0194 05       		.byte	0x5
 1002 0195 21070000 		.4byte	0x721
 1003 0199 00       		.byte	0
 1004 019a 08       		.uleb128 0x8
 1005 019b 63747800 		.ascii	"ctx\000"
 1006 019f 07       		.byte	0x7
 1007 01a0 B1       		.byte	0xb1
 1008 01a1 21       		.byte	0x21
 1009 01a2 8C060000 		.4byte	0x68c
 1010 01a6 0C       		.byte	0xc
 1011 01a7 02       		.uleb128 0x2
 1012 01a8 58020000 		.4byte	.LASF32
 1013 01ac 07       		.byte	0x7
 1014 01ad B6       		.byte	0xb6
 1015 01ae 21       		.byte	0x21
 1016 01af A3030000 		.4byte	0x3a3
 1017 01b3 10       		.byte	0x10
 1018 01b4 02       		.uleb128 0x2
 1019 01b5 9A050000 		.4byte	.LASF33
 1020 01b9 07       		.byte	0x7
 1021 01ba BB       		.byte	0xbb
 1022 01bb 22       		.byte	0x22
ARM GAS  C:\Users\DEVELO~1\AppData\Local\Temp\ccQb9vWk.s 			page 19


 1023 01bc 23080000 		.4byte	0x823
 1024 01c0 18       		.byte	0x18
 1025 01c1 02       		.uleb128 0x2
 1026 01c2 1F030000 		.4byte	.LASF34
 1027 01c6 07       		.byte	0x7
 1028 01c7 C0       		.byte	0xc0
 1029 01c8 22       		.byte	0x22
 1030 01c9 3D030000 		.4byte	0x33d
 1031 01cd 1C       		.byte	0x1c
 1032 01ce 02       		.uleb128 0x2
 1033 01cf B1050000 		.4byte	.LASF35
 1034 01d3 07       		.byte	0x7
 1035 01d4 C9       		.byte	0xc9
 1036 01d5 22       		.byte	0x22
 1037 01d6 28080000 		.4byte	0x828
 1038 01da 20       		.byte	0x20
 1039 01db 02       		.uleb128 0x2
 1040 01dc 06010000 		.4byte	.LASF36
 1041 01e0 07       		.byte	0x7
 1042 01e1 CE       		.byte	0xce
 1043 01e2 21       		.byte	0x21
 1044 01e3 20010000 		.4byte	0x120
 1045 01e7 24       		.byte	0x24
 1046 01e8 02       		.uleb128 0x2
 1047 01e9 D6060000 		.4byte	.LASF37
 1048 01ed 07       		.byte	0x7
 1049 01ee D2       		.byte	0xd2
 1050 01ef 21       		.byte	0x21
 1051 01f0 14010000 		.4byte	0x114
 1052 01f4 25       		.byte	0x25
 1053 01f5 02       		.uleb128 0x2
 1054 01f6 BA040000 		.4byte	.LASF38
 1055 01fa 07       		.byte	0x7
 1056 01fb D7       		.byte	0xd7
 1057 01fc 21       		.byte	0x21
 1058 01fd 2C010000 		.4byte	0x12c
 1059 0201 26       		.byte	0x26
 1060 0202 07       		.uleb128 0x7
 1061 0203 7500     		.ascii	"u\000"
 1062 0205 07       		.byte	0x7
 1063 0206 2801     		.2byte	0x128
 1064 0208 21       		.byte	0x21
 1065 0209 4E070000 		.4byte	0x74e
 1066 020d 28       		.byte	0x28
 1067 020e 03       		.uleb128 0x3
 1068 020f DC010000 		.4byte	.LASF39
 1069 0213 2D01     		.2byte	0x12d
 1070 0215 21       		.byte	0x21
 1071 0216 77030000 		.4byte	0x377
 1072 021a 2C       		.byte	0x2c
 1073 021b 03       		.uleb128 0x3
 1074 021c 16020000 		.4byte	.LASF40
 1075 0220 3301     		.2byte	0x133
 1076 0222 21       		.byte	0x21
 1077 0223 A3030000 		.4byte	0x3a3
 1078 0227 30       		.byte	0x30
 1079 0228 03       		.uleb128 0x3
ARM GAS  C:\Users\DEVELO~1\AppData\Local\Temp\ccQb9vWk.s 			page 20


 1080 0229 58030000 		.4byte	.LASF41
 1081 022d 3901     		.2byte	0x139
 1082 022f 21       		.byte	0x21
 1083 0230 50010000 		.4byte	0x150
 1084 0234 38       		.byte	0x38
 1085 0235 03       		.uleb128 0x3
 1086 0236 29070000 		.4byte	.LASF42
 1087 023a 4001     		.2byte	0x140
 1088 023c 22       		.byte	0x22
 1089 023d 1E080000 		.4byte	0x81e
 1090 0241 3C       		.byte	0x3c
 1091 0242 03       		.uleb128 0x3
 1092 0243 D9030000 		.4byte	.LASF43
 1093 0247 4401     		.2byte	0x144
 1094 0249 21       		.byte	0x21
 1095 024a 38010000 		.4byte	0x138
 1096 024e 40       		.byte	0x40
 1097 024f 03       		.uleb128 0x3
 1098 0250 2A030000 		.4byte	.LASF44
 1099 0254 4B01     		.2byte	0x14b
 1100 0256 22       		.byte	0x22
 1101 0257 91040000 		.4byte	0x491
 1102 025b 44       		.byte	0x44
 1103 025c 00       		.byte	0
 1104 025d 01       		.uleb128 0x1
 1105 025e 4B060000 		.4byte	.LASF45
 1106 0262 06       		.byte	0x6
 1107 0263 8A       		.byte	0x8a
 1108 0264 1F       		.byte	0x1f
 1109 0265 69020000 		.4byte	0x269
 1110 0269 26       		.uleb128 0x26
 1111 026a 3C060000 		.4byte	.LASF47
 1112 026e 9008     		.2byte	0x890
 1113 0270 07       		.byte	0x7
 1114 0271 8A01     		.2byte	0x18a
 1115 0273 08       		.byte	0x8
 1116 0274 EF020000 		.4byte	0x2ef
 1117 0278 03       		.uleb128 0x3
 1118 0279 C8060000 		.4byte	.LASF48
 1119 027d 8E01     		.2byte	0x18e
 1120 027f 21       		.byte	0x21
 1121 0280 56080000 		.4byte	0x856
 1122 0284 00       		.byte	0
 1123 0285 03       		.uleb128 0x3
 1124 0286 50000000 		.4byte	.LASF49
 1125 028a 9201     		.2byte	0x192
 1126 028c 21       		.byte	0x21
 1127 028d E2060000 		.4byte	0x6e2
 1128 0291 10       		.byte	0x10
 1129 0292 03       		.uleb128 0x3
 1130 0293 59060000 		.4byte	.LASF50
 1131 0297 9901     		.2byte	0x199
 1132 0299 21       		.byte	0x21
 1133 029a 09070000 		.4byte	0x709
 1134 029e 28       		.byte	0x28
 1135 029f 03       		.uleb128 0x3
 1136 02a0 00000000 		.4byte	.LASF51
ARM GAS  C:\Users\DEVELO~1\AppData\Local\Temp\ccQb9vWk.s 			page 21


 1137 02a4 9E01     		.2byte	0x19e
 1138 02a6 21       		.byte	0x21
 1139 02a7 68010000 		.4byte	0x168
 1140 02ab 30       		.byte	0x30
 1141 02ac 03       		.uleb128 0x3
 1142 02ad 2A000000 		.4byte	.LASF52
 1143 02b1 A401     		.2byte	0x1a4
 1144 02b3 21       		.byte	0x21
 1145 02b4 16030000 		.4byte	0x316
 1146 02b8 34       		.byte	0x34
 1147 02b9 03       		.uleb128 0x3
 1148 02ba CA050000 		.4byte	.LASF53
 1149 02be A901     		.2byte	0x1a9
 1150 02c0 22       		.byte	0x22
 1151 02c1 C1080000 		.4byte	0x8c1
 1152 02c5 38       		.byte	0x38
 1153 02c6 03       		.uleb128 0x3
 1154 02c7 81000000 		.4byte	.LASF54
 1155 02cb AD01     		.2byte	0x1ad
 1156 02cd 21       		.byte	0x21
 1157 02ce 74010000 		.4byte	0x174
 1158 02d2 3C       		.byte	0x3c
 1159 02d3 07       		.uleb128 0x7
 1160 02d4 64626700 		.ascii	"dbg\000"
 1161 02d8 07       		.byte	0x7
 1162 02d9 B101     		.2byte	0x1b1
 1163 02db 21       		.byte	0x21
 1164 02dc 53030000 		.4byte	0x353
 1165 02e0 84       		.byte	0x84
 1166 02e1 03       		.uleb128 0x3
 1167 02e2 E5060000 		.4byte	.LASF55
 1168 02e6 B601     		.2byte	0x1b6
 1169 02e8 21       		.byte	0x21
 1170 02e9 EC050000 		.4byte	0x5ec
 1171 02ed 88       		.byte	0x88
 1172 02ee 00       		.byte	0
 1173 02ef 01       		.uleb128 0x1
 1174 02f0 E2030000 		.4byte	.LASF56
 1175 02f4 08       		.byte	0x8
 1176 02f5 3F       		.byte	0x3f
 1177 02f6 12       		.byte	0x12
 1178 02f7 DF000000 		.4byte	0xdf
 1179 02fb 06       		.uleb128 0x6
 1180 02fc 1E010000 		.4byte	.LASF57
 1181 0300 04       		.byte	0x4
 1182 0301 08       		.byte	0x8
 1183 0302 44       		.byte	0x44
 1184 0303 10       		.byte	0x10
 1185 0304 16030000 		.4byte	0x316
 1186 0308 02       		.uleb128 0x2
 1187 0309 D7010000 		.4byte	.LASF58
 1188 030d 08       		.byte	0x8
 1189 030e 48       		.byte	0x48
 1190 030f 21       		.byte	0x21
 1191 0310 EF020000 		.4byte	0x2ef
 1192 0314 00       		.byte	0
 1193 0315 00       		.byte	0
ARM GAS  C:\Users\DEVELO~1\AppData\Local\Temp\ccQb9vWk.s 			page 22


 1194 0316 01       		.uleb128 0x1
 1195 0317 1E050000 		.4byte	.LASF59
 1196 031b 08       		.byte	0x8
 1197 031c 49       		.byte	0x49
 1198 031d 03       		.byte	0x3
 1199 031e FB020000 		.4byte	0x2fb
 1200 0322 06       		.uleb128 0x6
 1201 0323 D3040000 		.4byte	.LASF60
 1202 0327 04       		.byte	0x4
 1203 0328 09       		.byte	0x9
 1204 0329 3E       		.byte	0x3e
 1205 032a 10       		.byte	0x10
 1206 032b 3D030000 		.4byte	0x33d
 1207 032f 02       		.uleb128 0x2
 1208 0330 2B060000 		.4byte	.LASF61
 1209 0334 09       		.byte	0x9
 1210 0335 46       		.byte	0x46
 1211 0336 24       		.byte	0x24
 1212 0337 42030000 		.4byte	0x342
 1213 033b 00       		.byte	0
 1214 033c 00       		.byte	0
 1215 033d 04       		.uleb128 0x4
 1216 033e 4E030000 		.4byte	0x34e
 1217 0342 1E       		.uleb128 0x1e
 1218 0343 3D030000 		.4byte	0x33d
 1219 0347 05       		.uleb128 0x5
 1220 0348 01       		.byte	0x1
 1221 0349 08       		.byte	0x8
 1222 034a C5050000 		.4byte	.LASF62
 1223 034e 0F       		.uleb128 0xf
 1224 034f 47030000 		.4byte	0x347
 1225 0353 01       		.uleb128 0x1
 1226 0354 43020000 		.4byte	.LASF63
 1227 0358 09       		.byte	0x9
 1228 0359 51       		.byte	0x51
 1229 035a 03       		.byte	0x3
 1230 035b 22030000 		.4byte	0x322
 1231 035f 01       		.uleb128 0x1
 1232 0360 F8050000 		.4byte	.LASF64
 1233 0364 0A       		.byte	0xa
 1234 0365 6D       		.byte	0x6d
 1235 0366 12       		.byte	0x12
 1236 0367 DF000000 		.4byte	0xdf
 1237 036b 01       		.uleb128 0x1
 1238 036c 02020000 		.4byte	.LASF65
 1239 0370 0A       		.byte	0xa
 1240 0371 79       		.byte	0x79
 1241 0372 12       		.byte	0x12
 1242 0373 DF000000 		.4byte	0xdf
 1243 0377 01       		.uleb128 0x1
 1244 0378 18040000 		.4byte	.LASF66
 1245 037c 0B       		.byte	0xb
 1246 037d 32       		.byte	0x32
 1247 037e 18       		.byte	0x18
 1248 037f 83030000 		.4byte	0x383
 1249 0383 06       		.uleb128 0x6
 1250 0384 69030000 		.4byte	.LASF67
ARM GAS  C:\Users\DEVELO~1\AppData\Local\Temp\ccQb9vWk.s 			page 23


 1251 0388 04       		.byte	0x4
 1252 0389 0B       		.byte	0xb
 1253 038a 38       		.byte	0x38
 1254 038b 08       		.byte	0x8
 1255 038c 9E030000 		.4byte	0x39e
 1256 0390 02       		.uleb128 0x2
 1257 0391 A0000000 		.4byte	.LASF68
 1258 0395 0B       		.byte	0xb
 1259 0396 39       		.byte	0x39
 1260 0397 1A       		.byte	0x1a
 1261 0398 9E030000 		.4byte	0x39e
 1262 039c 00       		.byte	0
 1263 039d 00       		.byte	0
 1264 039e 04       		.uleb128 0x4
 1265 039f 77030000 		.4byte	0x377
 1266 03a3 01       		.uleb128 0x1
 1267 03a4 5F020000 		.4byte	.LASF69
 1268 03a8 0B       		.byte	0xb
 1269 03a9 3F       		.byte	0x3f
 1270 03aa 19       		.byte	0x19
 1271 03ab AF030000 		.4byte	0x3af
 1272 03af 06       		.uleb128 0x6
 1273 03b0 34010000 		.4byte	.LASF70
 1274 03b4 08       		.byte	0x8
 1275 03b5 0B       		.byte	0xb
 1276 03b6 45       		.byte	0x45
 1277 03b7 08       		.byte	0x8
 1278 03b8 D7030000 		.4byte	0x3d7
 1279 03bc 02       		.uleb128 0x2
 1280 03bd A0000000 		.4byte	.LASF68
 1281 03c1 0B       		.byte	0xb
 1282 03c2 46       		.byte	0x46
 1283 03c3 1A       		.byte	0x1a
 1284 03c4 D7030000 		.4byte	0x3d7
 1285 03c8 00       		.byte	0
 1286 03c9 02       		.uleb128 0x2
 1287 03ca 39000000 		.4byte	.LASF71
 1288 03ce 0B       		.byte	0xb
 1289 03cf 47       		.byte	0x47
 1290 03d0 1A       		.byte	0x1a
 1291 03d1 D7030000 		.4byte	0x3d7
 1292 03d5 04       		.byte	0x4
 1293 03d6 00       		.byte	0
 1294 03d7 04       		.uleb128 0x4
 1295 03d8 A3030000 		.4byte	0x3a3
 1296 03dc 01       		.uleb128 0x1
 1297 03dd 10060000 		.4byte	.LASF72
 1298 03e1 0B       		.byte	0xb
 1299 03e2 4E       		.byte	0x4e
 1300 03e3 22       		.byte	0x22
 1301 03e4 E8030000 		.4byte	0x3e8
 1302 03e8 06       		.uleb128 0x6
 1303 03e9 66060000 		.4byte	.LASF73
 1304 03ed 0C       		.byte	0xc
 1305 03ee 0B       		.byte	0xb
 1306 03ef 55       		.byte	0x55
 1307 03f0 08       		.byte	0x8
ARM GAS  C:\Users\DEVELO~1\AppData\Local\Temp\ccQb9vWk.s 			page 24


 1308 03f1 1D040000 		.4byte	0x41d
 1309 03f5 02       		.uleb128 0x2
 1310 03f6 A0000000 		.4byte	.LASF68
 1311 03fa 0B       		.byte	0xb
 1312 03fb 56       		.byte	0x56
 1313 03fc 1A       		.byte	0x1a
 1314 03fd 1D040000 		.4byte	0x41d
 1315 0401 00       		.byte	0
 1316 0402 02       		.uleb128 0x2
 1317 0403 39000000 		.4byte	.LASF71
 1318 0407 0B       		.byte	0xb
 1319 0408 57       		.byte	0x57
 1320 0409 1A       		.byte	0x1a
 1321 040a 1D040000 		.4byte	0x41d
 1322 040e 04       		.byte	0x4
 1323 040f 02       		.uleb128 0x2
 1324 0410 85040000 		.4byte	.LASF74
 1325 0414 0B       		.byte	0xb
 1326 0415 58       		.byte	0x58
 1327 0416 19       		.byte	0x19
 1328 0417 38010000 		.4byte	0x138
 1329 041b 08       		.byte	0x8
 1330 041c 00       		.byte	0
 1331 041d 04       		.uleb128 0x4
 1332 041e DC030000 		.4byte	0x3dc
 1333 0422 01       		.uleb128 0x1
 1334 0423 8B060000 		.4byte	.LASF75
 1335 0427 0B       		.byte	0xb
 1336 0428 5F       		.byte	0x5f
 1337 0429 1E       		.byte	0x1e
 1338 042a 2E040000 		.4byte	0x42e
 1339 042e 06       		.uleb128 0x6
 1340 042f D6000000 		.4byte	.LASF76
 1341 0433 0C       		.byte	0xc
 1342 0434 0B       		.byte	0xb
 1343 0435 64       		.byte	0x64
 1344 0436 08       		.byte	0x8
 1345 0437 63040000 		.4byte	0x463
 1346 043b 02       		.uleb128 0x2
 1347 043c A0000000 		.4byte	.LASF68
 1348 0440 0B       		.byte	0xb
 1349 0441 65       		.byte	0x65
 1350 0442 1A       		.byte	0x1a
 1351 0443 63040000 		.4byte	0x463
 1352 0447 00       		.byte	0
 1353 0448 02       		.uleb128 0x2
 1354 0449 39000000 		.4byte	.LASF71
 1355 044d 0B       		.byte	0xb
 1356 044e 66       		.byte	0x66
 1357 044f 1A       		.byte	0x1a
 1358 0450 63040000 		.4byte	0x463
 1359 0454 04       		.byte	0x4
 1360 0455 02       		.uleb128 0x2
 1361 0456 94000000 		.4byte	.LASF77
 1362 045a 0B       		.byte	0xb
 1363 045b 67       		.byte	0x67
 1364 045c 19       		.byte	0x19
ARM GAS  C:\Users\DEVELO~1\AppData\Local\Temp\ccQb9vWk.s 			page 25


 1365 045d 6B030000 		.4byte	0x36b
 1366 0461 08       		.byte	0x8
 1367 0462 00       		.byte	0
 1368 0463 04       		.uleb128 0x4
 1369 0464 22040000 		.4byte	0x422
 1370 0468 0C       		.uleb128 0xc
 1371 0469 08       		.byte	0x8
 1372 046a 0C       		.byte	0xc
 1373 046b 83       		.byte	0x83
 1374 046c 05       		.byte	0x5
 1375 046d 8C040000 		.4byte	0x48c
 1376 0471 08       		.uleb128 0x8
 1377 0472 6E747000 		.ascii	"ntp\000"
 1378 0476 0C       		.byte	0xc
 1379 0477 87       		.byte	0x87
 1380 0478 1E       		.byte	0x1e
 1381 0479 8C040000 		.4byte	0x48c
 1382 047d 00       		.byte	0
 1383 047e 02       		.uleb128 0x2
 1384 047f 38050000 		.4byte	.LASF78
 1385 0483 0C       		.byte	0xc
 1386 0484 8B       		.byte	0x8b
 1387 0485 1E       		.byte	0x1e
 1388 0486 91040000 		.4byte	0x491
 1389 048a 04       		.byte	0x4
 1390 048b 00       		.byte	0
 1391 048c 04       		.uleb128 0x4
 1392 048d 74010000 		.4byte	0x174
 1393 0491 27       		.uleb128 0x27
 1394 0492 04       		.byte	0x4
 1395 0493 0C       		.uleb128 0xc
 1396 0494 08       		.byte	0x8
 1397 0495 0C       		.byte	0xc
 1398 0496 90       		.byte	0x90
 1399 0497 05       		.byte	0x5
 1400 0498 B6040000 		.4byte	0x4b6
 1401 049c 08       		.uleb128 0x8
 1402 049d 747000   		.ascii	"tp\000"
 1403 04a0 0C       		.byte	0xc
 1404 04a1 94       		.byte	0x94
 1405 04a2 1E       		.byte	0x1e
 1406 04a3 8C040000 		.4byte	0x48c
 1407 04a7 00       		.byte	0
 1408 04a8 08       		.uleb128 0x8
 1409 04a9 6D736700 		.ascii	"msg\000"
 1410 04ad 0C       		.byte	0xc
 1411 04ae 98       		.byte	0x98
 1412 04af 1D       		.byte	0x1d
 1413 04b0 44010000 		.4byte	0x144
 1414 04b4 04       		.byte	0x4
 1415 04b5 00       		.byte	0
 1416 04b6 0C       		.uleb128 0xc
 1417 04b7 04       		.byte	0x4
 1418 04b8 0C       		.byte	0xc
 1419 04b9 9D       		.byte	0x9d
 1420 04ba 05       		.byte	0x5
 1421 04bb CD040000 		.4byte	0x4cd
ARM GAS  C:\Users\DEVELO~1\AppData\Local\Temp\ccQb9vWk.s 			page 26


 1422 04bf 02       		.uleb128 0x2
 1423 04c0 1F030000 		.4byte	.LASF34
 1424 04c4 0C       		.byte	0xc
 1425 04c5 A1       		.byte	0xa1
 1426 04c6 1E       		.byte	0x1e
 1427 04c7 3D030000 		.4byte	0x33d
 1428 04cb 00       		.byte	0
 1429 04cc 00       		.byte	0
 1430 04cd 0C       		.uleb128 0xc
 1431 04ce 04       		.byte	0x4
 1432 04cf 0C       		.byte	0xc
 1433 04d0 A6       		.byte	0xa6
 1434 04d1 05       		.byte	0x5
 1435 04d2 E4040000 		.4byte	0x4e4
 1436 04d6 02       		.uleb128 0x2
 1437 04d7 4F050000 		.4byte	.LASF79
 1438 04db 0C       		.byte	0xc
 1439 04dc AA       		.byte	0xaa
 1440 04dd 1E       		.byte	0x1e
 1441 04de 3D030000 		.4byte	0x33d
 1442 04e2 00       		.byte	0
 1443 04e3 00       		.byte	0
 1444 04e4 0C       		.uleb128 0xc
 1445 04e5 08       		.byte	0x8
 1446 04e6 0C       		.byte	0xc
 1447 04e7 AF       		.byte	0xaf
 1448 04e8 05       		.byte	0x5
 1449 04e9 08050000 		.4byte	0x508
 1450 04ed 08       		.uleb128 0x8
 1451 04ee 75703100 		.ascii	"up1\000"
 1452 04f2 0C       		.byte	0xc
 1453 04f3 B3       		.byte	0xb3
 1454 04f4 1E       		.byte	0x1e
 1455 04f5 91040000 		.4byte	0x491
 1456 04f9 00       		.byte	0
 1457 04fa 08       		.uleb128 0x8
 1458 04fb 75703200 		.ascii	"up2\000"
 1459 04ff 0C       		.byte	0xc
 1460 0500 B7       		.byte	0xb7
 1461 0501 1E       		.byte	0x1e
 1462 0502 91040000 		.4byte	0x491
 1463 0506 04       		.byte	0x4
 1464 0507 00       		.byte	0
 1465 0508 16       		.uleb128 0x16
 1466 0509 08       		.byte	0x8
 1467 050a 0C       		.byte	0xc
 1468 050b 7F       		.byte	0x7f
 1469 050c 46050000 		.4byte	0x546
 1470 0510 17       		.uleb128 0x17
 1471 0511 737700   		.ascii	"sw\000"
 1472 0514 8C       		.byte	0x8c
 1473 0515 68040000 		.4byte	0x468
 1474 0519 17       		.uleb128 0x17
 1475 051a 72647900 		.ascii	"rdy\000"
 1476 051e 99       		.byte	0x99
 1477 051f 93040000 		.4byte	0x493
 1478 0523 17       		.uleb128 0x17
ARM GAS  C:\Users\DEVELO~1\AppData\Local\Temp\ccQb9vWk.s 			page 27


 1479 0524 69737200 		.ascii	"isr\000"
 1480 0528 A2       		.byte	0xa2
 1481 0529 B6040000 		.4byte	0x4b6
 1482 052d 0A       		.uleb128 0xa
 1483 052e 73000000 		.4byte	.LASF80
 1484 0532 0C       		.byte	0xc
 1485 0533 AB       		.byte	0xab
 1486 0534 07       		.byte	0x7
 1487 0535 CD040000 		.4byte	0x4cd
 1488 0539 0A       		.uleb128 0xa
 1489 053a C6040000 		.4byte	.LASF81
 1490 053e 0C       		.byte	0xc
 1491 053f B8       		.byte	0xb8
 1492 0540 07       		.byte	0x7
 1493 0541 E4040000 		.4byte	0x4e4
 1494 0545 00       		.byte	0
 1495 0546 0C       		.uleb128 0xc
 1496 0547 10       		.byte	0x10
 1497 0548 0C       		.byte	0xc
 1498 0549 6C       		.byte	0x6c
 1499 054a 09       		.byte	0x9
 1500 054b 8C050000 		.4byte	0x58c
 1501 054f 18       		.uleb128 0x18
 1502 0550 60000000 		.4byte	.LASF82
 1503 0554 70       		.byte	0x70
 1504 0555 DF000000 		.4byte	0xdf
 1505 0559 03       		.byte	0x3
 1506 055a 00       		.byte	0
 1507 055b 18       		.uleb128 0x18
 1508 055c 06010000 		.4byte	.LASF36
 1509 0560 74       		.byte	0x74
 1510 0561 DF000000 		.4byte	0xdf
 1511 0565 05       		.byte	0x5
 1512 0566 03       		.byte	0x3
 1513 0567 18       		.uleb128 0x18
 1514 0568 C7030000 		.4byte	.LASF83
 1515 056c 7A       		.byte	0x7a
 1516 056d DF000000 		.4byte	0xdf
 1517 0571 18       		.byte	0x18
 1518 0572 08       		.byte	0x8
 1519 0573 02       		.uleb128 0x2
 1520 0574 80040000 		.4byte	.LASF84
 1521 0578 0C       		.byte	0xc
 1522 0579 7E       		.byte	0x7e
 1523 057a 19       		.byte	0x19
 1524 057b 5F030000 		.4byte	0x35f
 1525 057f 04       		.byte	0x4
 1526 0580 08       		.uleb128 0x8
 1527 0581 7500     		.ascii	"u\000"
 1528 0583 0C       		.byte	0xc
 1529 0584 B9       		.byte	0xb9
 1530 0585 05       		.byte	0x5
 1531 0586 08050000 		.4byte	0x508
 1532 058a 08       		.byte	0x8
 1533 058b 00       		.byte	0
 1534 058c 01       		.uleb128 0x1
 1535 058d 65000000 		.4byte	.LASF85
ARM GAS  C:\Users\DEVELO~1\AppData\Local\Temp\ccQb9vWk.s 			page 28


 1536 0591 0C       		.byte	0xc
 1537 0592 BA       		.byte	0xba
 1538 0593 03       		.byte	0x3
 1539 0594 46050000 		.4byte	0x546
 1540 0598 28       		.uleb128 0x28
 1541 0599 0808     		.2byte	0x808
 1542 059b 0C       		.byte	0xc
 1543 059c C0       		.byte	0xc0
 1544 059d 09       		.byte	0x9
 1545 059e D7050000 		.4byte	0x5d7
 1546 05a2 02       		.uleb128 0x2
 1547 05a3 22040000 		.4byte	.LASF86
 1548 05a7 0C       		.byte	0xc
 1549 05a8 C4       		.byte	0xc4
 1550 05a9 19       		.byte	0x19
 1551 05aa C7000000 		.4byte	0xc7
 1552 05ae 00       		.byte	0
 1553 05af 02       		.uleb128 0x2
 1554 05b0 30030000 		.4byte	.LASF87
 1555 05b4 0C       		.byte	0xc
 1556 05b5 C8       		.byte	0xc8
 1557 05b6 19       		.byte	0x19
 1558 05b7 C7000000 		.4byte	0xc7
 1559 05bb 02       		.byte	0x2
 1560 05bc 08       		.uleb128 0x8
 1561 05bd 70747200 		.ascii	"ptr\000"
 1562 05c1 0C       		.byte	0xc
 1563 05c2 CC       		.byte	0xcc
 1564 05c3 1A       		.byte	0x1a
 1565 05c4 D7050000 		.4byte	0x5d7
 1566 05c8 04       		.byte	0x4
 1567 05c9 02       		.uleb128 0x2
 1568 05ca 76010000 		.4byte	.LASF88
 1569 05ce 0C       		.byte	0xc
 1570 05cf D0       		.byte	0xd0
 1571 05d0 19       		.byte	0x19
 1572 05d1 DC050000 		.4byte	0x5dc
 1573 05d5 08       		.byte	0x8
 1574 05d6 00       		.byte	0
 1575 05d7 04       		.uleb128 0x4
 1576 05d8 8C050000 		.4byte	0x58c
 1577 05dc 11       		.uleb128 0x11
 1578 05dd 8C050000 		.4byte	0x58c
 1579 05e1 EC050000 		.4byte	0x5ec
 1580 05e5 12       		.uleb128 0x12
 1581 05e6 39000000 		.4byte	0x39
 1582 05ea 7F       		.byte	0x7f
 1583 05eb 00       		.byte	0
 1584 05ec 01       		.uleb128 0x1
 1585 05ed 5B010000 		.4byte	.LASF89
 1586 05f1 0C       		.byte	0xc
 1587 05f2 D1       		.byte	0xd1
 1588 05f3 03       		.byte	0x3
 1589 05f4 98050000 		.4byte	0x598
 1590 05f8 05       		.uleb128 0x5
 1591 05f9 04       		.byte	0x4
 1592 05fa 04       		.byte	0x4
ARM GAS  C:\Users\DEVELO~1\AppData\Local\Temp\ccQb9vWk.s 			page 29


 1593 05fb A2040000 		.4byte	.LASF90
 1594 05ff 05       		.uleb128 0x5
 1595 0600 08       		.byte	0x8
 1596 0601 04       		.byte	0x4
 1597 0602 54010000 		.4byte	.LASF91
 1598 0606 13       		.uleb128 0x13
 1599 0607 3E000000 		.4byte	.LASF92
 1600 060b 24       		.byte	0x24
 1601 060c 0D       		.byte	0xd
 1602 060d E001     		.2byte	0x1e0
 1603 060f 08       		.byte	0x8
 1604 0610 8C060000 		.4byte	0x68c
 1605 0614 07       		.uleb128 0x7
 1606 0615 723400   		.ascii	"r4\000"
 1607 0618 0D       		.byte	0xd
 1608 0619 F901     		.2byte	0x1f9
 1609 061b 11       		.byte	0x11
 1610 061c DF000000 		.4byte	0xdf
 1611 0620 00       		.byte	0
 1612 0621 07       		.uleb128 0x7
 1613 0622 723500   		.ascii	"r5\000"
 1614 0625 0D       		.byte	0xd
 1615 0626 FA01     		.2byte	0x1fa
 1616 0628 11       		.byte	0x11
 1617 0629 DF000000 		.4byte	0xdf
 1618 062d 04       		.byte	0x4
 1619 062e 07       		.uleb128 0x7
 1620 062f 723600   		.ascii	"r6\000"
 1621 0632 0D       		.byte	0xd
 1622 0633 FB01     		.2byte	0x1fb
 1623 0635 11       		.byte	0x11
 1624 0636 DF000000 		.4byte	0xdf
 1625 063a 08       		.byte	0x8
 1626 063b 07       		.uleb128 0x7
 1627 063c 723700   		.ascii	"r7\000"
 1628 063f 0D       		.byte	0xd
 1629 0640 FC01     		.2byte	0x1fc
 1630 0642 11       		.byte	0x11
 1631 0643 DF000000 		.4byte	0xdf
 1632 0647 0C       		.byte	0xc
 1633 0648 07       		.uleb128 0x7
 1634 0649 723800   		.ascii	"r8\000"
 1635 064c 0D       		.byte	0xd
 1636 064d FD01     		.2byte	0x1fd
 1637 064f 11       		.byte	0x11
 1638 0650 DF000000 		.4byte	0xdf
 1639 0654 10       		.byte	0x10
 1640 0655 07       		.uleb128 0x7
 1641 0656 723900   		.ascii	"r9\000"
 1642 0659 0D       		.byte	0xd
 1643 065a FE01     		.2byte	0x1fe
 1644 065c 11       		.byte	0x11
 1645 065d DF000000 		.4byte	0xdf
 1646 0661 14       		.byte	0x14
 1647 0662 07       		.uleb128 0x7
 1648 0663 72313000 		.ascii	"r10\000"
 1649 0667 0D       		.byte	0xd
ARM GAS  C:\Users\DEVELO~1\AppData\Local\Temp\ccQb9vWk.s 			page 30


 1650 0668 FF01     		.2byte	0x1ff
 1651 066a 11       		.byte	0x11
 1652 066b DF000000 		.4byte	0xdf
 1653 066f 18       		.byte	0x18
 1654 0670 07       		.uleb128 0x7
 1655 0671 72313100 		.ascii	"r11\000"
 1656 0675 0D       		.byte	0xd
 1657 0676 0002     		.2byte	0x200
 1658 0678 11       		.byte	0x11
 1659 0679 DF000000 		.4byte	0xdf
 1660 067d 1C       		.byte	0x1c
 1661 067e 07       		.uleb128 0x7
 1662 067f 6C7200   		.ascii	"lr\000"
 1663 0682 0D       		.byte	0xd
 1664 0683 0102     		.2byte	0x201
 1665 0685 11       		.byte	0x11
 1666 0686 DF000000 		.4byte	0xdf
 1667 068a 20       		.byte	0x20
 1668 068b 00       		.byte	0
 1669 068c 13       		.uleb128 0x13
 1670 068d 65040000 		.4byte	.LASF93
 1671 0691 04       		.byte	0x4
 1672 0692 0D       		.byte	0xd
 1673 0693 0A02     		.2byte	0x20a
 1674 0695 08       		.byte	0x8
 1675 0696 A8060000 		.4byte	0x6a8
 1676 069a 07       		.uleb128 0x7
 1677 069b 737000   		.ascii	"sp\000"
 1678 069e 0D       		.byte	0xd
 1679 069f 0B02     		.2byte	0x20b
 1680 06a1 1A       		.byte	0x1a
 1681 06a2 A8060000 		.4byte	0x6a8
 1682 06a6 00       		.byte	0
 1683 06a7 00       		.byte	0
 1684 06a8 04       		.uleb128 0x4
 1685 06a9 06060000 		.4byte	0x606
 1686 06ad 06       		.uleb128 0x6
 1687 06ae 01040000 		.4byte	.LASF94
 1688 06b2 18       		.byte	0x18
 1689 06b3 07       		.byte	0x7
 1690 06b4 64       		.byte	0x64
 1691 06b5 10       		.byte	0x10
 1692 06b6 E2060000 		.4byte	0x6e2
 1693 06ba 02       		.uleb128 0x2
 1694 06bb F2050000 		.4byte	.LASF95
 1695 06bf 07       		.byte	0x7
 1696 06c0 68       		.byte	0x68
 1697 06c1 21       		.byte	0x21
 1698 06c2 22040000 		.4byte	0x422
 1699 06c6 00       		.byte	0
 1700 06c7 02       		.uleb128 0x2
 1701 06c8 2F050000 		.4byte	.LASF96
 1702 06cc 07       		.byte	0x7
 1703 06cd 73       		.byte	0x73
 1704 06ce 21       		.byte	0x21
 1705 06cf 5F030000 		.4byte	0x35f
 1706 06d3 0C       		.byte	0xc
ARM GAS  C:\Users\DEVELO~1\AppData\Local\Temp\ccQb9vWk.s 			page 31


 1707 06d4 02       		.uleb128 0x2
 1708 06d5 CF030000 		.4byte	.LASF97
 1709 06d9 07       		.byte	0x7
 1710 06da 79       		.byte	0x79
 1711 06db 21       		.byte	0x21
 1712 06dc F7000000 		.4byte	0xf7
 1713 06e0 10       		.byte	0x10
 1714 06e1 00       		.byte	0
 1715 06e2 01       		.uleb128 0x1
 1716 06e3 95030000 		.4byte	.LASF98
 1717 06e7 07       		.byte	0x7
 1718 06e8 7B       		.byte	0x7b
 1719 06e9 03       		.byte	0x3
 1720 06ea AD060000 		.4byte	0x6ad
 1721 06ee 06       		.uleb128 0x6
 1722 06ef 6A010000 		.4byte	.LASF99
 1723 06f3 08       		.byte	0x8
 1724 06f4 07       		.byte	0x7
 1725 06f5 80       		.byte	0x80
 1726 06f6 10       		.byte	0x10
 1727 06f7 09070000 		.4byte	0x709
 1728 06fb 02       		.uleb128 0x2
 1729 06fc 24030000 		.4byte	.LASF100
 1730 0700 07       		.byte	0x7
 1731 0701 84       		.byte	0x84
 1732 0702 21       		.byte	0x21
 1733 0703 A3030000 		.4byte	0x3a3
 1734 0707 00       		.byte	0
 1735 0708 00       		.byte	0
 1736 0709 01       		.uleb128 0x1
 1737 070a 63050000 		.4byte	.LASF101
 1738 070e 07       		.byte	0x7
 1739 070f 85       		.byte	0x85
 1740 0710 03       		.byte	0x3
 1741 0711 EE060000 		.4byte	0x6ee
 1742 0715 01       		.uleb128 0x1
 1743 0716 EE030000 		.4byte	.LASF102
 1744 071a 07       		.byte	0x7
 1745 071b 8A       		.byte	0x8a
 1746 071c 14       		.byte	0x14
 1747 071d 8C040000 		.4byte	0x48c
 1748 0721 16       		.uleb128 0x16
 1749 0722 0C       		.byte	0xc
 1750 0723 07       		.byte	0x7
 1751 0724 A0       		.byte	0xa0
 1752 0725 4E070000 		.4byte	0x74e
 1753 0729 0A       		.uleb128 0xa
 1754 072a 15070000 		.4byte	.LASF103
 1755 072e 07       		.byte	0x7
 1756 072f A4       		.byte	0xa4
 1757 0730 21       		.byte	0x21
 1758 0731 77030000 		.4byte	0x377
 1759 0735 0A       		.uleb128 0xa
 1760 0736 24030000 		.4byte	.LASF100
 1761 073a 07       		.byte	0x7
 1762 073b A8       		.byte	0xa8
 1763 073c 21       		.byte	0x21
ARM GAS  C:\Users\DEVELO~1\AppData\Local\Temp\ccQb9vWk.s 			page 32


 1764 073d A3030000 		.4byte	0x3a3
 1765 0741 0A       		.uleb128 0xa
 1766 0742 35060000 		.4byte	.LASF104
 1767 0746 07       		.byte	0x7
 1768 0747 AC       		.byte	0xac
 1769 0748 21       		.byte	0x21
 1770 0749 DC030000 		.4byte	0x3dc
 1771 074d 00       		.byte	0
 1772 074e 16       		.uleb128 0x16
 1773 074f 04       		.byte	0x4
 1774 0750 07       		.byte	0x7
 1775 0751 EB       		.byte	0xeb
 1776 0752 B7070000 		.4byte	0x7b7
 1777 0756 0A       		.uleb128 0xa
 1778 0757 23000000 		.4byte	.LASF105
 1779 075b 07       		.byte	0x7
 1780 075c F2       		.byte	0xf2
 1781 075d 21       		.byte	0x21
 1782 075e 44010000 		.4byte	0x144
 1783 0762 0A       		.uleb128 0xa
 1784 0763 78000000 		.4byte	.LASF106
 1785 0767 07       		.byte	0x7
 1786 0768 F9       		.byte	0xf9
 1787 0769 21       		.byte	0x21
 1788 076a 44010000 		.4byte	0x144
 1789 076e 0D       		.uleb128 0xd
 1790 076f 38050000 		.4byte	.LASF78
 1791 0773 0001     		.2byte	0x100
 1792 0775 22       		.byte	0x22
 1793 0776 91040000 		.4byte	0x491
 1794 077a 0D       		.uleb128 0xd
 1795 077b 52020000 		.4byte	.LASF107
 1796 077f 0701     		.2byte	0x107
 1797 0781 22       		.byte	0x22
 1798 0782 B7070000 		.4byte	0x7b7
 1799 0786 0D       		.uleb128 0xd
 1800 0787 8C000000 		.4byte	.LASF108
 1801 078b 0C01     		.2byte	0x10c
 1802 078d 21       		.byte	0x21
 1803 078e 44010000 		.4byte	0x144
 1804 0792 0D       		.uleb128 0xd
 1805 0793 3C020000 		.4byte	.LASF109
 1806 0797 1501     		.2byte	0x115
 1807 0799 22       		.byte	0x22
 1808 079a E4070000 		.4byte	0x7e4
 1809 079e 0D       		.uleb128 0xd
 1810 079f 24060000 		.4byte	.LASF110
 1811 07a3 1E01     		.2byte	0x11e
 1812 07a5 22       		.byte	0x22
 1813 07a6 1E080000 		.4byte	0x81e
 1814 07aa 0D       		.uleb128 0xd
 1815 07ab 3F050000 		.4byte	.LASF111
 1816 07af 2601     		.2byte	0x126
 1817 07b1 21       		.byte	0x21
 1818 07b2 50010000 		.4byte	0x150
 1819 07b6 00       		.byte	0
 1820 07b7 04       		.uleb128 0x4
ARM GAS  C:\Users\DEVELO~1\AppData\Local\Temp\ccQb9vWk.s 			page 33


 1821 07b8 15070000 		.4byte	0x715
 1822 07bc 06       		.uleb128 0x6
 1823 07bd 56050000 		.4byte	.LASF112
 1824 07c1 0C       		.byte	0xc
 1825 07c2 0E       		.byte	0xe
 1826 07c3 34       		.byte	0x34
 1827 07c4 10       		.byte	0x10
 1828 07c5 E4070000 		.4byte	0x7e4
 1829 07c9 02       		.uleb128 0x2
 1830 07ca 24030000 		.4byte	.LASF100
 1831 07ce 0E       		.byte	0xe
 1832 07cf 35       		.byte	0x35
 1833 07d0 19       		.byte	0x19
 1834 07d1 A3030000 		.4byte	0x3a3
 1835 07d5 00       		.byte	0
 1836 07d6 08       		.uleb128 0x8
 1837 07d7 636E7400 		.ascii	"cnt\000"
 1838 07db 0E       		.byte	0xe
 1839 07dc 37       		.byte	0x37
 1840 07dd 19       		.byte	0x19
 1841 07de 5C010000 		.4byte	0x15c
 1842 07e2 08       		.byte	0x8
 1843 07e3 00       		.byte	0
 1844 07e4 04       		.uleb128 0x4
 1845 07e5 BC070000 		.4byte	0x7bc
 1846 07e9 06       		.uleb128 0x6
 1847 07ea DC060000 		.4byte	.LASF113
 1848 07ee 10       		.byte	0x10
 1849 07ef 0F       		.byte	0xf
 1850 07f0 39       		.byte	0x39
 1851 07f1 08       		.byte	0x8
 1852 07f2 1E080000 		.4byte	0x81e
 1853 07f6 02       		.uleb128 0x2
 1854 07f7 24030000 		.4byte	.LASF100
 1855 07fb 0F       		.byte	0xf
 1856 07fc 3A       		.byte	0x3a
 1857 07fd 19       		.byte	0x19
 1858 07fe A3030000 		.4byte	0x3a3
 1859 0802 00       		.byte	0
 1860 0803 02       		.uleb128 0x2
 1861 0804 9A050000 		.4byte	.LASF33
 1862 0808 0F       		.byte	0xf
 1863 0809 3C       		.byte	0x3c
 1864 080a 1A       		.byte	0x1a
 1865 080b 8C040000 		.4byte	0x48c
 1866 080f 08       		.byte	0x8
 1867 0810 02       		.uleb128 0x2
 1868 0811 A0000000 		.4byte	.LASF68
 1869 0815 0F       		.byte	0xf
 1870 0816 3E       		.byte	0x3e
 1871 0817 1A       		.byte	0x1a
 1872 0818 D2080000 		.4byte	0x8d2
 1873 081c 0C       		.byte	0xc
 1874 081d 00       		.byte	0
 1875 081e 04       		.uleb128 0x4
 1876 081f E9070000 		.4byte	0x7e9
 1877 0823 04       		.uleb128 0x4
ARM GAS  C:\Users\DEVELO~1\AppData\Local\Temp\ccQb9vWk.s 			page 34


 1878 0824 5D020000 		.4byte	0x25d
 1879 0828 04       		.uleb128 0x4
 1880 0829 08010000 		.4byte	0x108
 1881 082d 13       		.uleb128 0x13
 1882 082e 71030000 		.4byte	.LASF114
 1883 0832 10       		.byte	0x10
 1884 0833 07       		.byte	0x7
 1885 0834 5C01     		.2byte	0x15c
 1886 0836 10       		.byte	0x10
 1887 0837 56080000 		.4byte	0x856
 1888 083b 03       		.uleb128 0x3
 1889 083c 35060000 		.4byte	.LASF104
 1890 0840 6101     		.2byte	0x161
 1891 0842 21       		.byte	0x21
 1892 0843 DC030000 		.4byte	0x3dc
 1893 0847 00       		.byte	0
 1894 0848 03       		.uleb128 0x3
 1895 0849 8F040000 		.4byte	.LASF115
 1896 084d 6501     		.2byte	0x165
 1897 084f 22       		.byte	0x22
 1898 0850 8C040000 		.4byte	0x48c
 1899 0854 0C       		.byte	0xc
 1900 0855 00       		.byte	0
 1901 0856 1F       		.uleb128 0x1f
 1902 0857 0F000000 		.4byte	.LASF116
 1903 085b 6601     		.2byte	0x166
 1904 085d 2D080000 		.4byte	0x82d
 1905 0861 13       		.uleb128 0x13
 1906 0862 4F040000 		.4byte	.LASF117
 1907 0866 14       		.byte	0x14
 1908 0867 07       		.byte	0x7
 1909 0868 6B01     		.2byte	0x16b
 1910 086a 10       		.byte	0x10
 1911 086b B1080000 		.4byte	0x8b1
 1912 086f 03       		.uleb128 0x3
 1913 0870 1F030000 		.4byte	.LASF34
 1914 0874 6F01     		.2byte	0x16f
 1915 0876 22       		.byte	0x22
 1916 0877 3D030000 		.4byte	0x33d
 1917 087b 00       		.byte	0
 1918 087c 03       		.uleb128 0x3
 1919 087d E4010000 		.4byte	.LASF118
 1920 0881 7501     		.2byte	0x175
 1921 0883 22       		.byte	0x22
 1922 0884 28080000 		.4byte	0x828
 1923 0888 04       		.byte	0x4
 1924 0889 03       		.uleb128 0x3
 1925 088a 9B060000 		.4byte	.LASF119
 1926 088e 7901     		.2byte	0x179
 1927 0890 22       		.byte	0x22
 1928 0891 28080000 		.4byte	0x828
 1929 0895 08       		.byte	0x8
 1930 0896 03       		.uleb128 0x3
 1931 0897 2C020000 		.4byte	.LASF120
 1932 089b 7F01     		.2byte	0x17f
 1933 089d 22       		.byte	0x22
 1934 089e 28080000 		.4byte	0x828
ARM GAS  C:\Users\DEVELO~1\AppData\Local\Temp\ccQb9vWk.s 			page 35


 1935 08a2 0C       		.byte	0xc
 1936 08a3 03       		.uleb128 0x3
 1937 08a4 1A070000 		.4byte	.LASF121
 1938 08a8 8301     		.2byte	0x183
 1939 08aa 22       		.byte	0x22
 1940 08ab 28080000 		.4byte	0x828
 1941 08af 10       		.byte	0x10
 1942 08b0 00       		.byte	0
 1943 08b1 1F       		.uleb128 0x1f
 1944 08b2 B3060000 		.4byte	.LASF122
 1945 08b6 8501     		.2byte	0x185
 1946 08b8 61080000 		.4byte	0x861
 1947 08bc 0F       		.uleb128 0xf
 1948 08bd B1080000 		.4byte	0x8b1
 1949 08c1 04       		.uleb128 0x4
 1950 08c2 BC080000 		.4byte	0x8bc
 1951 08c6 01       		.uleb128 0x1
 1952 08c7 F4010000 		.4byte	.LASF123
 1953 08cb 0F       		.byte	0xf
 1954 08cc 34       		.byte	0x34
 1955 08cd 19       		.byte	0x19
 1956 08ce E9070000 		.4byte	0x7e9
 1957 08d2 04       		.uleb128 0x4
 1958 08d3 C6080000 		.4byte	0x8c6
 1959 08d7 05       		.uleb128 0x5
 1960 08d8 01       		.byte	0x1
 1961 08d9 02       		.byte	0x2
 1962 08da E3040000 		.4byte	.LASF124
 1963 08de 01       		.uleb128 0x1
 1964 08df 72040000 		.4byte	.LASF125
 1965 08e3 10       		.byte	0x10
 1966 08e4 4C       		.byte	0x4c
 1967 08e5 11       		.byte	0x11
 1968 08e6 EA080000 		.4byte	0x8ea
 1969 08ea 04       		.uleb128 0x4
 1970 08eb EF080000 		.4byte	0x8ef
 1971 08ef 29       		.uleb128 0x29
 1972 08f0 91040000 		.4byte	0x491
 1973 08f4 08090000 		.4byte	0x908
 1974 08f8 0B       		.uleb128 0xb
 1975 08f9 2D000000 		.4byte	0x2d
 1976 08fd 0B       		.uleb128 0xb
 1977 08fe 39000000 		.4byte	0x39
 1978 0902 0B       		.uleb128 0xb
 1979 0903 2D000000 		.4byte	0x2d
 1980 0907 00       		.byte	0
 1981 0908 01       		.uleb128 0x1
 1982 0909 26010000 		.4byte	.LASF126
 1983 090d 11       		.byte	0x11
 1984 090e 48       		.byte	0x48
 1985 090f 1C       		.byte	0x1c
 1986 0910 14090000 		.4byte	0x914
 1987 0914 06       		.uleb128 0x6
 1988 0915 38070000 		.4byte	.LASF127
 1989 0919 1C       		.byte	0x1c
 1990 091a 11       		.byte	0x11
 1991 091b 60       		.byte	0x60
ARM GAS  C:\Users\DEVELO~1\AppData\Local\Temp\ccQb9vWk.s 			page 36


 1992 091c 08       		.byte	0x8
 1993 091d 49090000 		.4byte	0x949
 1994 0921 02       		.uleb128 0x2
 1995 0922 57000000 		.4byte	.LASF128
 1996 0926 11       		.byte	0x11
 1997 0927 61       		.byte	0x61
 1998 0928 19       		.byte	0x19
 1999 0929 DE080000 		.4byte	0x8de
 2000 092d 00       		.byte	0
 2001 092e 02       		.uleb128 0x2
 2002 092f 31070000 		.4byte	.LASF129
 2003 0933 11       		.byte	0x11
 2004 0934 63       		.byte	0x63
 2005 0935 19       		.byte	0x19
 2006 0936 49090000 		.4byte	0x949
 2007 093a 04       		.byte	0x4
 2008 093b 08       		.uleb128 0x8
 2009 093c 6D747800 		.ascii	"mtx\000"
 2010 0940 11       		.byte	0x11
 2011 0941 65       		.byte	0x65
 2012 0942 19       		.byte	0x19
 2013 0943 C6080000 		.4byte	0x8c6
 2014 0947 0C       		.byte	0xc
 2015 0948 00       		.byte	0
 2016 0949 01       		.uleb128 0x1
 2017 094a 02060000 		.4byte	.LASF130
 2018 094e 11       		.byte	0x11
 2019 094f 4D       		.byte	0x4d
 2020 0950 1B       		.byte	0x1b
 2021 0951 55090000 		.4byte	0x955
 2022 0955 2A       		.uleb128 0x2a
 2023 0956 FF040000 		.4byte	.LASF154
 2024 095a 08       		.byte	0x8
 2025 095b 11       		.byte	0x11
 2026 095c 52       		.byte	0x52
 2027 095d 07       		.byte	0x7
 2028 095e 7B090000 		.4byte	0x97b
 2029 0962 0A       		.uleb128 0xa
 2030 0963 61060000 		.4byte	.LASF131
 2031 0967 11       		.byte	0x11
 2032 0968 56       		.byte	0x56
 2033 0969 05       		.byte	0x5
 2034 096a 7B090000 		.4byte	0x97b
 2035 096e 0A       		.uleb128 0xa
 2036 096f 8A040000 		.4byte	.LASF132
 2037 0973 11       		.byte	0x11
 2038 0974 5A       		.byte	0x5a
 2039 0975 05       		.byte	0x5
 2040 0976 A4090000 		.4byte	0x9a4
 2041 097a 00       		.byte	0
 2042 097b 0C       		.uleb128 0xc
 2043 097c 08       		.byte	0x8
 2044 097d 11       		.byte	0x11
 2045 097e 53       		.byte	0x53
 2046 097f 03       		.byte	0x3
 2047 0980 9F090000 		.4byte	0x99f
 2048 0984 02       		.uleb128 0x2
ARM GAS  C:\Users\DEVELO~1\AppData\Local\Temp\ccQb9vWk.s 			page 37


 2049 0985 A0000000 		.4byte	.LASF68
 2050 0989 11       		.byte	0x11
 2051 098a 54       		.byte	0x54
 2052 098b 1A       		.byte	0x1a
 2053 098c 9F090000 		.4byte	0x99f
 2054 0990 00       		.byte	0
 2055 0991 02       		.uleb128 0x2
 2056 0992 4A000000 		.4byte	.LASF133
 2057 0996 11       		.byte	0x11
 2058 0997 55       		.byte	0x55
 2059 0998 19       		.byte	0x19
 2060 0999 2D000000 		.4byte	0x2d
 2061 099d 04       		.byte	0x4
 2062 099e 00       		.byte	0
 2063 099f 04       		.uleb128 0x4
 2064 09a0 49090000 		.4byte	0x949
 2065 09a4 0C       		.uleb128 0xc
 2066 09a5 08       		.byte	0x8
 2067 09a6 11       		.byte	0x11
 2068 09a7 57       		.byte	0x57
 2069 09a8 03       		.byte	0x3
 2070 09a9 C8090000 		.4byte	0x9c8
 2071 09ad 02       		.uleb128 0x2
 2072 09ae A0050000 		.4byte	.LASF134
 2073 09b2 11       		.byte	0x11
 2074 09b3 58       		.byte	0x58
 2075 09b4 1A       		.byte	0x1a
 2076 09b5 C8090000 		.4byte	0x9c8
 2077 09b9 00       		.byte	0
 2078 09ba 02       		.uleb128 0x2
 2079 09bb 30030000 		.4byte	.LASF87
 2080 09bf 11       		.byte	0x11
 2081 09c0 59       		.byte	0x59
 2082 09c1 19       		.byte	0x19
 2083 09c2 2D000000 		.4byte	0x2d
 2084 09c6 04       		.byte	0x4
 2085 09c7 00       		.byte	0
 2086 09c8 04       		.uleb128 0x4
 2087 09c9 08090000 		.4byte	0x908
 2088 09cd 2B       		.uleb128 0x2b
 2089 09ce B8050000 		.4byte	.LASF143
 2090 09d2 01       		.byte	0x1
 2091 09d3 5C       		.byte	0x5c
 2092 09d4 16       		.byte	0x16
 2093 09d5 08090000 		.4byte	0x908
 2094 09d9 05       		.uleb128 0x5
 2095 09da 03       		.byte	0x3
 2096 09db 00000000 		.4byte	default_heap
 2097 09df 19       		.uleb128 0x19
 2098 09e0 A5000000 		.4byte	.LASF135
 2099 09e4 6B       		.byte	0x6b
 2100 09e5 EF090000 		.4byte	0x9ef
 2101 09e9 0B       		.uleb128 0xb
 2102 09ea D2080000 		.4byte	0x8d2
 2103 09ee 00       		.byte	0
 2104 09ef 19       		.uleb128 0x19
 2105 09f0 2C040000 		.4byte	.LASF136
ARM GAS  C:\Users\DEVELO~1\AppData\Local\Temp\ccQb9vWk.s 			page 38


 2106 09f4 67       		.byte	0x67
 2107 09f5 FF090000 		.4byte	0x9ff
 2108 09f9 0B       		.uleb128 0xb
 2109 09fa D2080000 		.4byte	0x8d2
 2110 09fe 00       		.byte	0
 2111 09ff 19       		.uleb128 0x19
 2112 0a00 3F040000 		.4byte	.LASF137
 2113 0a04 66       		.byte	0x66
 2114 0a05 0F0A0000 		.4byte	0xa0f
 2115 0a09 0B       		.uleb128 0xb
 2116 0a0a D2080000 		.4byte	0x8d2
 2117 0a0e 00       		.byte	0
 2118 0a0f 2C       		.uleb128 0x2c
 2119 0a10 0B050000 		.4byte	.LASF155
 2120 0a14 10       		.byte	0x10
 2121 0a15 7F       		.byte	0x7f
 2122 0a16 09       		.byte	0x9
 2123 0a17 91040000 		.4byte	0x491
 2124 0a1b 2F0A0000 		.4byte	0xa2f
 2125 0a1f 0B       		.uleb128 0xb
 2126 0a20 2D000000 		.4byte	0x2d
 2127 0a24 0B       		.uleb128 0xb
 2128 0a25 39000000 		.4byte	0x39
 2129 0a29 0B       		.uleb128 0xb
 2130 0a2a 2D000000 		.4byte	0x2d
 2131 0a2e 00       		.byte	0
 2132 0a2f 2D       		.uleb128 0x2d
 2133 0a30 E5050000 		.4byte	.LASF144
 2134 0a34 01       		.byte	0x1
 2135 0a35 6501     		.2byte	0x165
 2136 0a37 08       		.byte	0x8
 2137 0a38 2D000000 		.4byte	0x2d
 2138 0a3c 00000000 		.4byte	.LFB350
 2139 0a40 64000000 		.4byte	.LFE350-.LFB350
 2140 0a44 01       		.uleb128 0x1
 2141 0a45 9C       		.byte	0x9c
 2142 0a46 0B0B0000 		.4byte	0xb0b
 2143 0a4a 1A       		.uleb128 0x1a
 2144 0a4b 9A000000 		.4byte	.LASF138
 2145 0a4f 24       		.byte	0x24
 2146 0a50 C8090000 		.4byte	0x9c8
 2147 0a54 14000000 		.4byte	.LLST20
 2148 0a58 0C000000 		.4byte	.LVUS20
 2149 0a5c 1A       		.uleb128 0x1a
 2150 0a5d 08000000 		.4byte	.LASF139
 2151 0a61 33       		.byte	0x33
 2152 0a62 0B0B0000 		.4byte	0xb0b
 2153 0a66 34000000 		.4byte	.LLST21
 2154 0a6a 30000000 		.4byte	.LVUS21
 2155 0a6e 1A       		.uleb128 0x1a
 2156 0a6f AA060000 		.4byte	.LASF140
 2157 0a73 43       		.byte	0x43
 2158 0a74 0B0B0000 		.4byte	0xb0b
 2159 0a78 48000000 		.4byte	.LLST22
 2160 0a7c 44000000 		.4byte	.LVUS22
 2161 0a80 14       		.uleb128 0x14
 2162 0a81 717000   		.ascii	"qp\000"
ARM GAS  C:\Users\DEVELO~1\AppData\Local\Temp\ccQb9vWk.s 			page 39


 2163 0a84 6601     		.2byte	0x166
 2164 0a86 12       		.byte	0x12
 2165 0a87 9F090000 		.4byte	0x99f
 2166 0a8b 5E000000 		.4byte	.LLST23
 2167 0a8f 58000000 		.4byte	.LVUS23
 2168 0a93 14       		.uleb128 0x14
 2169 0a94 6E00     		.ascii	"n\000"
 2170 0a96 6701     		.2byte	0x167
 2171 0a98 0A       		.byte	0xa
 2172 0a99 2D000000 		.4byte	0x2d
 2173 0a9d 7F000000 		.4byte	.LLST24
 2174 0aa1 79000000 		.4byte	.LVUS24
 2175 0aa5 1B       		.uleb128 0x1b
 2176 0aa6 6E050000 		.4byte	.LASF141
 2177 0aaa 6701     		.2byte	0x167
 2178 0aac 0D       		.byte	0xd
 2179 0aad 2D000000 		.4byte	0x2d
 2180 0ab1 9C000000 		.4byte	.LLST25
 2181 0ab5 96000000 		.4byte	.LVUS25
 2182 0ab9 1B       		.uleb128 0x1b
 2183 0aba BD000000 		.4byte	.LASF142
 2184 0abe 6701     		.2byte	0x167
 2185 0ac0 15       		.byte	0x15
 2186 0ac1 2D000000 		.4byte	0x2d
 2187 0ac5 B9000000 		.4byte	.LLST26
 2188 0ac9 B3000000 		.4byte	.LVUS26
 2189 0acd 1C       		.uleb128 0x1c
 2190 0ace 2A000000 		.4byte	.LLRL27
 2191 0ad2 E60A0000 		.4byte	0xae6
 2192 0ad6 2E       		.uleb128 0x2e
 2193 0ad7 4A000000 		.4byte	.LASF133
 2194 0adb 01       		.byte	0x1
 2195 0adc 7301     		.2byte	0x173
 2196 0ade 0C       		.byte	0xc
 2197 0adf 2D000000 		.4byte	0x2d
 2198 0ae3 01       		.uleb128 0x1
 2199 0ae4 54       		.byte	0x54
 2200 0ae5 00       		.byte	0
 2201 0ae6 15       		.uleb128 0x15
 2202 0ae7 1E000000 		.4byte	.LVL54
 2203 0aeb EF090000 		.4byte	0x9ef
 2204 0aef FA0A0000 		.4byte	0xafa
 2205 0af3 09       		.uleb128 0x9
 2206 0af4 01       		.uleb128 0x1
 2207 0af5 50       		.byte	0x50
 2208 0af6 02       		.uleb128 0x2
 2209 0af7 78       		.byte	0x78
 2210 0af8 00       		.sleb128 0
 2211 0af9 00       		.byte	0
 2212 0afa 20       		.uleb128 0x20
 2213 0afb 52000000 		.4byte	.LVL60
 2214 0aff DF090000 		.4byte	0x9df
 2215 0b03 09       		.uleb128 0x9
 2216 0b04 01       		.uleb128 0x1
 2217 0b05 50       		.byte	0x50
 2218 0b06 02       		.uleb128 0x2
 2219 0b07 78       		.byte	0x78
ARM GAS  C:\Users\DEVELO~1\AppData\Local\Temp\ccQb9vWk.s 			page 40


 2220 0b08 00       		.sleb128 0
 2221 0b09 00       		.byte	0
 2222 0b0a 00       		.byte	0
 2223 0b0b 04       		.uleb128 0x4
 2224 0b0c 2D000000 		.4byte	0x2d
 2225 0b10 2F       		.uleb128 0x2f
 2226 0b11 FB000000 		.4byte	.LASF149
 2227 0b15 01       		.byte	0x1
 2228 0b16 2501     		.2byte	0x125
 2229 0b18 06       		.byte	0x6
 2230 0b19 00000000 		.4byte	.LFB349
 2231 0b1d 96000000 		.4byte	.LFE349-.LFB349
 2232 0b21 01       		.uleb128 0x1
 2233 0b22 9C       		.byte	0x9c
 2234 0b23 A40B0000 		.4byte	0xba4
 2235 0b27 30       		.uleb128 0x30
 2236 0b28 7000     		.ascii	"p\000"
 2237 0b2a 01       		.byte	0x1
 2238 0b2b 2501     		.2byte	0x125
 2239 0b2d 17       		.byte	0x17
 2240 0b2e 91040000 		.4byte	0x491
 2241 0b32 DA000000 		.4byte	.LLST16
 2242 0b36 D0000000 		.4byte	.LVUS16
 2243 0b3a 14       		.uleb128 0x14
 2244 0b3b 717000   		.ascii	"qp\000"
 2245 0b3e 2601     		.2byte	0x126
 2246 0b40 12       		.byte	0x12
 2247 0b41 9F090000 		.4byte	0x99f
 2248 0b45 10010000 		.4byte	.LLST17
 2249 0b49 02010000 		.4byte	.LVUS17
 2250 0b4d 14       		.uleb128 0x14
 2251 0b4e 687000   		.ascii	"hp\000"
 2252 0b51 2601     		.2byte	0x126
 2253 0b53 17       		.byte	0x17
 2254 0b54 9F090000 		.4byte	0x99f
 2255 0b58 46010000 		.4byte	.LLST18
 2256 0b5c 3E010000 		.4byte	.LVUS18
 2257 0b60 1B       		.uleb128 0x1b
 2258 0b61 9A000000 		.4byte	.LASF138
 2259 0b65 2701     		.2byte	0x127
 2260 0b67 12       		.byte	0x12
 2261 0b68 C8090000 		.4byte	0x9c8
 2262 0b6c 79010000 		.4byte	.LLST19
 2263 0b70 6D010000 		.4byte	.LVUS19
 2264 0b74 1D       		.uleb128 0x1d
 2265 0b75 46050000 		.4byte	.LASF147
 2266 0b79 B40B0000 		.4byte	0xbb4
 2267 0b7d 15       		.uleb128 0x15
 2268 0b7e 1E000000 		.4byte	.LVL42
 2269 0b82 EF090000 		.4byte	0x9ef
 2270 0b86 910B0000 		.4byte	0xb91
 2271 0b8a 09       		.uleb128 0x9
 2272 0b8b 01       		.uleb128 0x1
 2273 0b8c 50       		.byte	0x50
 2274 0b8d 02       		.uleb128 0x2
 2275 0b8e 77       		.byte	0x77
 2276 0b8f 00       		.sleb128 0
ARM GAS  C:\Users\DEVELO~1\AppData\Local\Temp\ccQb9vWk.s 			page 41


 2277 0b90 00       		.byte	0
 2278 0b91 21       		.uleb128 0x21
 2279 0b92 66000000 		.4byte	.LVL49
 2280 0b96 DF090000 		.4byte	0x9df
 2281 0b9a 21       		.uleb128 0x21
 2282 0b9b 96000000 		.4byte	.LVL51
 2283 0b9f DF090000 		.4byte	0x9df
 2284 0ba3 00       		.byte	0
 2285 0ba4 11       		.uleb128 0x11
 2286 0ba5 4E030000 		.4byte	0x34e
 2287 0ba9 B40B0000 		.4byte	0xbb4
 2288 0bad 12       		.uleb128 0x12
 2289 0bae 39000000 		.4byte	0x39
 2290 0bb2 0A       		.byte	0xa
 2291 0bb3 00       		.byte	0
 2292 0bb4 0F       		.uleb128 0xf
 2293 0bb5 A40B0000 		.4byte	0xba4
 2294 0bb9 31       		.uleb128 0x31
 2295 0bba 78060000 		.4byte	.LASF145
 2296 0bbe 01       		.byte	0x1
 2297 0bbf AC       		.byte	0xac
 2298 0bc0 07       		.byte	0x7
 2299 0bc1 91040000 		.4byte	0x491
 2300 0bc5 00000000 		.4byte	.LFB348
 2301 0bc9 14010000 		.4byte	.LFE348-.LFB348
 2302 0bcd 01       		.uleb128 0x1
 2303 0bce 9C       		.byte	0x9c
 2304 0bcf 0D0D0000 		.4byte	0xd0d
 2305 0bd3 10       		.uleb128 0x10
 2306 0bd4 9A000000 		.4byte	.LASF138
 2307 0bd8 AC       		.byte	0xac
 2308 0bd9 29       		.byte	0x29
 2309 0bda C8090000 		.4byte	0x9c8
 2310 0bde AD010000 		.4byte	.LLST4
 2311 0be2 A9010000 		.4byte	.LVUS4
 2312 0be6 10       		.uleb128 0x10
 2313 0be7 30030000 		.4byte	.LASF87
 2314 0beb AC       		.byte	0xac
 2315 0bec 37       		.byte	0x37
 2316 0bed 2D000000 		.4byte	0x2d
 2317 0bf1 C2010000 		.4byte	.LLST5
 2318 0bf5 BE010000 		.4byte	.LVUS5
 2319 0bf9 10       		.uleb128 0x10
 2320 0bfa FC010000 		.4byte	.LASF146
 2321 0bfe AC       		.byte	0xac
 2322 0bff 46       		.byte	0x46
 2323 0c00 39000000 		.4byte	0x39
 2324 0c04 DC010000 		.4byte	.LLST6
 2325 0c08 D4010000 		.4byte	.LVUS6
 2326 0c0c 0E       		.uleb128 0xe
 2327 0c0d 717000   		.ascii	"qp\000"
 2328 0c10 AD       		.byte	0xad
 2329 0c11 12       		.byte	0x12
 2330 0c12 9F090000 		.4byte	0x99f
 2331 0c16 0A020000 		.4byte	.LLST7
 2332 0c1a FA010000 		.4byte	.LVUS7
 2333 0c1e 0E       		.uleb128 0xe
ARM GAS  C:\Users\DEVELO~1\AppData\Local\Temp\ccQb9vWk.s 			page 42


 2334 0c1f 687000   		.ascii	"hp\000"
 2335 0c22 AD       		.byte	0xad
 2336 0c23 17       		.byte	0x17
 2337 0c24 9F090000 		.4byte	0x99f
 2338 0c28 4F020000 		.4byte	.LLST8
 2339 0c2c 41020000 		.4byte	.LVUS8
 2340 0c30 0E       		.uleb128 0xe
 2341 0c31 61687000 		.ascii	"ahp\000"
 2342 0c35 AD       		.byte	0xad
 2343 0c36 1C       		.byte	0x1c
 2344 0c37 9F090000 		.4byte	0x99f
 2345 0c3b 93020000 		.4byte	.LLST9
 2346 0c3f 7F020000 		.4byte	.LVUS9
 2347 0c43 22       		.uleb128 0x22
 2348 0c44 4A000000 		.4byte	.LASF133
 2349 0c48 AE       		.byte	0xae
 2350 0c49 0A       		.byte	0xa
 2351 0c4a 2D000000 		.4byte	0x2d
 2352 0c4e 07030000 		.4byte	.LLST10
 2353 0c52 FD020000 		.4byte	.LVUS10
 2354 0c56 1D       		.uleb128 0x1d
 2355 0c57 46050000 		.4byte	.LASF147
 2356 0c5b 1D0D0000 		.4byte	0xd1d
 2357 0c5f 1C       		.uleb128 0x1c
 2358 0c60 1B000000 		.4byte	.LLRL13
 2359 0c64 980C0000 		.4byte	0xc98
 2360 0c68 22       		.uleb128 0x22
 2361 0c69 BF040000 		.4byte	.LASF148
 2362 0c6d D2       		.byte	0xd2
 2363 0c6e 10       		.byte	0x10
 2364 0c6f 2D000000 		.4byte	0x2d
 2365 0c73 3C030000 		.4byte	.LLST14
 2366 0c77 38030000 		.4byte	.LVUS14
 2367 0c7b 32       		.uleb128 0x32
 2368 0c7c EA000000 		.4byte	.LBB4
 2369 0c80 1A000000 		.4byte	.LBE4-.LBB4
 2370 0c84 0E       		.uleb128 0xe
 2371 0c85 667000   		.ascii	"fp\000"
 2372 0c88 D8       		.byte	0xd8
 2373 0c89 1A       		.byte	0x1a
 2374 0c8a 9F090000 		.4byte	0x99f
 2375 0c8e 52030000 		.4byte	.LLST15
 2376 0c92 50030000 		.4byte	.LVUS15
 2377 0c96 00       		.byte	0
 2378 0c97 00       		.byte	0
 2379 0c98 1C       		.uleb128 0x1c
 2380 0c99 0C000000 		.4byte	.LLRL11
 2381 0c9d B40C0000 		.4byte	0xcb4
 2382 0ca1 0E       		.uleb128 0xe
 2383 0ca2 667000   		.ascii	"fp\000"
 2384 0ca5 EE       		.byte	0xee
 2385 0ca6 1A       		.byte	0x1a
 2386 0ca7 9F090000 		.4byte	0x99f
 2387 0cab 5D030000 		.4byte	.LLST12
 2388 0caf 5B030000 		.4byte	.LVUS12
 2389 0cb3 00       		.byte	0
 2390 0cb4 15       		.uleb128 0x15
ARM GAS  C:\Users\DEVELO~1\AppData\Local\Temp\ccQb9vWk.s 			page 43


 2391 0cb5 2E000000 		.4byte	.LVL12
 2392 0cb9 EF090000 		.4byte	0x9ef
 2393 0cbd C80C0000 		.4byte	0xcc8
 2394 0cc1 09       		.uleb128 0x9
 2395 0cc2 01       		.uleb128 0x1
 2396 0cc3 50       		.byte	0x50
 2397 0cc4 02       		.uleb128 0x2
 2398 0cc5 7B       		.byte	0x7b
 2399 0cc6 00       		.sleb128 0
 2400 0cc7 00       		.byte	0
 2401 0cc8 15       		.uleb128 0x15
 2402 0cc9 74000000 		.4byte	.LVL20
 2403 0ccd DF090000 		.4byte	0x9df
 2404 0cd1 DC0C0000 		.4byte	0xcdc
 2405 0cd5 09       		.uleb128 0x9
 2406 0cd6 01       		.uleb128 0x1
 2407 0cd7 50       		.byte	0x50
 2408 0cd8 02       		.uleb128 0x2
 2409 0cd9 7B       		.byte	0x7b
 2410 0cda 00       		.sleb128 0
 2411 0cdb 00       		.byte	0
 2412 0cdc 33       		.uleb128 0x33
 2413 0cdd 84000000 		.4byte	.LVL21
 2414 0ce1 02       		.uleb128 0x2
 2415 0ce2 74       		.byte	0x74
 2416 0ce3 00       		.sleb128 0
 2417 0ce4 FC0C0000 		.4byte	0xcfc
 2418 0ce8 09       		.uleb128 0x9
 2419 0ce9 01       		.uleb128 0x1
 2420 0cea 50       		.byte	0x50
 2421 0ceb 04       		.uleb128 0x4
 2422 0cec 79       		.byte	0x79
 2423 0ced 00       		.sleb128 0
 2424 0cee 33       		.byte	0x33
 2425 0cef 24       		.byte	0x24
 2426 0cf0 09       		.uleb128 0x9
 2427 0cf1 01       		.uleb128 0x1
 2428 0cf2 51       		.byte	0x51
 2429 0cf3 02       		.uleb128 0x2
 2430 0cf4 7A       		.byte	0x7a
 2431 0cf5 00       		.sleb128 0
 2432 0cf6 09       		.uleb128 0x9
 2433 0cf7 01       		.uleb128 0x1
 2434 0cf8 52       		.byte	0x52
 2435 0cf9 01       		.uleb128 0x1
 2436 0cfa 38       		.byte	0x38
 2437 0cfb 00       		.byte	0
 2438 0cfc 20       		.uleb128 0x20
 2439 0cfd D0000000 		.4byte	.LVL30
 2440 0d01 DF090000 		.4byte	0x9df
 2441 0d05 09       		.uleb128 0x9
 2442 0d06 01       		.uleb128 0x1
 2443 0d07 50       		.byte	0x50
 2444 0d08 02       		.uleb128 0x2
 2445 0d09 7B       		.byte	0x7b
 2446 0d0a 00       		.sleb128 0
 2447 0d0b 00       		.byte	0
ARM GAS  C:\Users\DEVELO~1\AppData\Local\Temp\ccQb9vWk.s 			page 44


 2448 0d0c 00       		.byte	0
 2449 0d0d 11       		.uleb128 0x11
 2450 0d0e 4E030000 		.4byte	0x34e
 2451 0d12 1D0D0000 		.4byte	0xd1d
 2452 0d16 12       		.uleb128 0x12
 2453 0d17 39000000 		.4byte	0x39
 2454 0d1b 12       		.byte	0x12
 2455 0d1c 00       		.byte	0
 2456 0d1d 0F       		.uleb128 0xf
 2457 0d1e 0D0D0000 		.4byte	0xd0d
 2458 0d22 34       		.uleb128 0x34
 2459 0d23 B6030000 		.4byte	.LASF150
 2460 0d27 01       		.byte	0x1
 2461 0d28 83       		.byte	0x83
 2462 0d29 06       		.byte	0x6
 2463 0d2a 00000000 		.4byte	.LFB347
 2464 0d2e 2A000000 		.4byte	.LFE347-.LFB347
 2465 0d32 01       		.uleb128 0x1
 2466 0d33 9C       		.byte	0x9c
 2467 0d34 A10D0000 		.4byte	0xda1
 2468 0d38 10       		.uleb128 0x10
 2469 0d39 9A000000 		.4byte	.LASF138
 2470 0d3d 83       		.byte	0x83
 2471 0d3e 26       		.byte	0x26
 2472 0d3f C8090000 		.4byte	0x9c8
 2473 0d43 6C030000 		.4byte	.LLST0
 2474 0d47 66030000 		.4byte	.LVUS0
 2475 0d4b 35       		.uleb128 0x35
 2476 0d4c 62756600 		.ascii	"buf\000"
 2477 0d50 01       		.byte	0x1
 2478 0d51 83       		.byte	0x83
 2479 0d52 33       		.byte	0x33
 2480 0d53 91040000 		.4byte	0x491
 2481 0d57 8A030000 		.4byte	.LLST1
 2482 0d5b 86030000 		.4byte	.LVUS1
 2483 0d5f 10       		.uleb128 0x10
 2484 0d60 30030000 		.4byte	.LASF87
 2485 0d64 83       		.byte	0x83
 2486 0d65 3F       		.byte	0x3f
 2487 0d66 2D000000 		.4byte	0x2d
 2488 0d6a A3030000 		.4byte	.LLST2
 2489 0d6e 9D030000 		.4byte	.LVUS2
 2490 0d72 0E       		.uleb128 0xe
 2491 0d73 687000   		.ascii	"hp\000"
 2492 0d76 84       		.byte	0x84
 2493 0d77 12       		.byte	0x12
 2494 0d78 9F090000 		.4byte	0x99f
 2495 0d7c C1030000 		.4byte	.LLST3
 2496 0d80 BD030000 		.4byte	.LVUS3
 2497 0d84 1D       		.uleb128 0x1d
 2498 0d85 46050000 		.4byte	.LASF147
 2499 0d89 B10D0000 		.4byte	0xdb1
 2500 0d8d 23       		.uleb128 0x23
 2501 0d8e 2A000000 		.4byte	.LVL7
 2502 0d92 FF090000 		.4byte	0x9ff
 2503 0d96 09       		.uleb128 0x9
 2504 0d97 01       		.uleb128 0x1
ARM GAS  C:\Users\DEVELO~1\AppData\Local\Temp\ccQb9vWk.s 			page 45


 2505 0d98 50       		.byte	0x50
 2506 0d99 05       		.uleb128 0x5
 2507 0d9a A3       		.byte	0xa3
 2508 0d9b 01       		.uleb128 0x1
 2509 0d9c 50       		.byte	0x50
 2510 0d9d 23       		.byte	0x23
 2511 0d9e 0C       		.uleb128 0xc
 2512 0d9f 00       		.byte	0
 2513 0da0 00       		.byte	0
 2514 0da1 11       		.uleb128 0x11
 2515 0da2 4E030000 		.4byte	0x34e
 2516 0da6 B10D0000 		.4byte	0xdb1
 2517 0daa 12       		.uleb128 0x12
 2518 0dab 39000000 		.4byte	0x39
 2519 0daf 10       		.byte	0x10
 2520 0db0 00       		.byte	0
 2521 0db1 0F       		.uleb128 0xf
 2522 0db2 A10D0000 		.4byte	0xda1
 2523 0db6 36       		.uleb128 0x36
 2524 0db7 7E050000 		.4byte	.LASF156
 2525 0dbb 01       		.byte	0x1
 2526 0dbc 6B       		.byte	0x6b
 2527 0dbd 06       		.byte	0x6
 2528 0dbe 00000000 		.4byte	.LFB346
 2529 0dc2 1C000000 		.4byte	.LFE346-.LFB346
 2530 0dc6 01       		.uleb128 0x1
 2531 0dc7 9C       		.byte	0x9c
 2532 0dc8 23       		.uleb128 0x23
 2533 0dc9 14000000 		.4byte	.LVL0
 2534 0dcd FF090000 		.4byte	0x9ff
 2535 0dd1 09       		.uleb128 0x9
 2536 0dd2 01       		.uleb128 0x1
 2537 0dd3 50       		.byte	0x50
 2538 0dd4 05       		.uleb128 0x5
 2539 0dd5 03       		.byte	0x3
 2540 0dd6 0C000000 		.4byte	.LANCHOR0+12
 2541 0dda 00       		.byte	0
 2542 0ddb 00       		.byte	0
 2543 0ddc 00       		.byte	0
 2544              		.section	.debug_abbrev,"",%progbits
 2545              	.Ldebug_abbrev0:
 2546 0000 01       		.uleb128 0x1
 2547 0001 16       		.uleb128 0x16
 2548 0002 00       		.byte	0
 2549 0003 03       		.uleb128 0x3
 2550 0004 0E       		.uleb128 0xe
 2551 0005 3A       		.uleb128 0x3a
 2552 0006 0B       		.uleb128 0xb
 2553 0007 3B       		.uleb128 0x3b
 2554 0008 0B       		.uleb128 0xb
 2555 0009 39       		.uleb128 0x39
 2556 000a 0B       		.uleb128 0xb
 2557 000b 49       		.uleb128 0x49
 2558 000c 13       		.uleb128 0x13
 2559 000d 00       		.byte	0
 2560 000e 00       		.byte	0
 2561 000f 02       		.uleb128 0x2
ARM GAS  C:\Users\DEVELO~1\AppData\Local\Temp\ccQb9vWk.s 			page 46


 2562 0010 0D       		.uleb128 0xd
 2563 0011 00       		.byte	0
 2564 0012 03       		.uleb128 0x3
 2565 0013 0E       		.uleb128 0xe
 2566 0014 3A       		.uleb128 0x3a
 2567 0015 0B       		.uleb128 0xb
 2568 0016 3B       		.uleb128 0x3b
 2569 0017 0B       		.uleb128 0xb
 2570 0018 39       		.uleb128 0x39
 2571 0019 0B       		.uleb128 0xb
 2572 001a 49       		.uleb128 0x49
 2573 001b 13       		.uleb128 0x13
 2574 001c 38       		.uleb128 0x38
 2575 001d 0B       		.uleb128 0xb
 2576 001e 00       		.byte	0
 2577 001f 00       		.byte	0
 2578 0020 03       		.uleb128 0x3
 2579 0021 0D       		.uleb128 0xd
 2580 0022 00       		.byte	0
 2581 0023 03       		.uleb128 0x3
 2582 0024 0E       		.uleb128 0xe
 2583 0025 3A       		.uleb128 0x3a
 2584 0026 21       		.uleb128 0x21
 2585 0027 07       		.sleb128 7
 2586 0028 3B       		.uleb128 0x3b
 2587 0029 05       		.uleb128 0x5
 2588 002a 39       		.uleb128 0x39
 2589 002b 0B       		.uleb128 0xb
 2590 002c 49       		.uleb128 0x49
 2591 002d 13       		.uleb128 0x13
 2592 002e 38       		.uleb128 0x38
 2593 002f 0B       		.uleb128 0xb
 2594 0030 00       		.byte	0
 2595 0031 00       		.byte	0
 2596 0032 04       		.uleb128 0x4
 2597 0033 0F       		.uleb128 0xf
 2598 0034 00       		.byte	0
 2599 0035 0B       		.uleb128 0xb
 2600 0036 21       		.uleb128 0x21
 2601 0037 04       		.sleb128 4
 2602 0038 49       		.uleb128 0x49
 2603 0039 13       		.uleb128 0x13
 2604 003a 00       		.byte	0
 2605 003b 00       		.byte	0
 2606 003c 05       		.uleb128 0x5
 2607 003d 24       		.uleb128 0x24
 2608 003e 00       		.byte	0
 2609 003f 0B       		.uleb128 0xb
 2610 0040 0B       		.uleb128 0xb
 2611 0041 3E       		.uleb128 0x3e
 2612 0042 0B       		.uleb128 0xb
 2613 0043 03       		.uleb128 0x3
 2614 0044 0E       		.uleb128 0xe
 2615 0045 00       		.byte	0
 2616 0046 00       		.byte	0
 2617 0047 06       		.uleb128 0x6
 2618 0048 13       		.uleb128 0x13
ARM GAS  C:\Users\DEVELO~1\AppData\Local\Temp\ccQb9vWk.s 			page 47


 2619 0049 01       		.byte	0x1
 2620 004a 03       		.uleb128 0x3
 2621 004b 0E       		.uleb128 0xe
 2622 004c 0B       		.uleb128 0xb
 2623 004d 0B       		.uleb128 0xb
 2624 004e 3A       		.uleb128 0x3a
 2625 004f 0B       		.uleb128 0xb
 2626 0050 3B       		.uleb128 0x3b
 2627 0051 0B       		.uleb128 0xb
 2628 0052 39       		.uleb128 0x39
 2629 0053 0B       		.uleb128 0xb
 2630 0054 01       		.uleb128 0x1
 2631 0055 13       		.uleb128 0x13
 2632 0056 00       		.byte	0
 2633 0057 00       		.byte	0
 2634 0058 07       		.uleb128 0x7
 2635 0059 0D       		.uleb128 0xd
 2636 005a 00       		.byte	0
 2637 005b 03       		.uleb128 0x3
 2638 005c 08       		.uleb128 0x8
 2639 005d 3A       		.uleb128 0x3a
 2640 005e 0B       		.uleb128 0xb
 2641 005f 3B       		.uleb128 0x3b
 2642 0060 05       		.uleb128 0x5
 2643 0061 39       		.uleb128 0x39
 2644 0062 0B       		.uleb128 0xb
 2645 0063 49       		.uleb128 0x49
 2646 0064 13       		.uleb128 0x13
 2647 0065 38       		.uleb128 0x38
 2648 0066 0B       		.uleb128 0xb
 2649 0067 00       		.byte	0
 2650 0068 00       		.byte	0
 2651 0069 08       		.uleb128 0x8
 2652 006a 0D       		.uleb128 0xd
 2653 006b 00       		.byte	0
 2654 006c 03       		.uleb128 0x3
 2655 006d 08       		.uleb128 0x8
 2656 006e 3A       		.uleb128 0x3a
 2657 006f 0B       		.uleb128 0xb
 2658 0070 3B       		.uleb128 0x3b
 2659 0071 0B       		.uleb128 0xb
 2660 0072 39       		.uleb128 0x39
 2661 0073 0B       		.uleb128 0xb
 2662 0074 49       		.uleb128 0x49
 2663 0075 13       		.uleb128 0x13
 2664 0076 38       		.uleb128 0x38
 2665 0077 0B       		.uleb128 0xb
 2666 0078 00       		.byte	0
 2667 0079 00       		.byte	0
 2668 007a 09       		.uleb128 0x9
 2669 007b 49       		.uleb128 0x49
 2670 007c 00       		.byte	0
 2671 007d 02       		.uleb128 0x2
 2672 007e 18       		.uleb128 0x18
 2673 007f 7E       		.uleb128 0x7e
 2674 0080 18       		.uleb128 0x18
 2675 0081 00       		.byte	0
ARM GAS  C:\Users\DEVELO~1\AppData\Local\Temp\ccQb9vWk.s 			page 48


 2676 0082 00       		.byte	0
 2677 0083 0A       		.uleb128 0xa
 2678 0084 0D       		.uleb128 0xd
 2679 0085 00       		.byte	0
 2680 0086 03       		.uleb128 0x3
 2681 0087 0E       		.uleb128 0xe
 2682 0088 3A       		.uleb128 0x3a
 2683 0089 0B       		.uleb128 0xb
 2684 008a 3B       		.uleb128 0x3b
 2685 008b 0B       		.uleb128 0xb
 2686 008c 39       		.uleb128 0x39
 2687 008d 0B       		.uleb128 0xb
 2688 008e 49       		.uleb128 0x49
 2689 008f 13       		.uleb128 0x13
 2690 0090 00       		.byte	0
 2691 0091 00       		.byte	0
 2692 0092 0B       		.uleb128 0xb
 2693 0093 05       		.uleb128 0x5
 2694 0094 00       		.byte	0
 2695 0095 49       		.uleb128 0x49
 2696 0096 13       		.uleb128 0x13
 2697 0097 00       		.byte	0
 2698 0098 00       		.byte	0
 2699 0099 0C       		.uleb128 0xc
 2700 009a 13       		.uleb128 0x13
 2701 009b 01       		.byte	0x1
 2702 009c 0B       		.uleb128 0xb
 2703 009d 0B       		.uleb128 0xb
 2704 009e 3A       		.uleb128 0x3a
 2705 009f 0B       		.uleb128 0xb
 2706 00a0 3B       		.uleb128 0x3b
 2707 00a1 0B       		.uleb128 0xb
 2708 00a2 39       		.uleb128 0x39
 2709 00a3 0B       		.uleb128 0xb
 2710 00a4 01       		.uleb128 0x1
 2711 00a5 13       		.uleb128 0x13
 2712 00a6 00       		.byte	0
 2713 00a7 00       		.byte	0
 2714 00a8 0D       		.uleb128 0xd
 2715 00a9 0D       		.uleb128 0xd
 2716 00aa 00       		.byte	0
 2717 00ab 03       		.uleb128 0x3
 2718 00ac 0E       		.uleb128 0xe
 2719 00ad 3A       		.uleb128 0x3a
 2720 00ae 21       		.uleb128 0x21
 2721 00af 07       		.sleb128 7
 2722 00b0 3B       		.uleb128 0x3b
 2723 00b1 05       		.uleb128 0x5
 2724 00b2 39       		.uleb128 0x39
 2725 00b3 0B       		.uleb128 0xb
 2726 00b4 49       		.uleb128 0x49
 2727 00b5 13       		.uleb128 0x13
 2728 00b6 00       		.byte	0
 2729 00b7 00       		.byte	0
 2730 00b8 0E       		.uleb128 0xe
 2731 00b9 34       		.uleb128 0x34
 2732 00ba 00       		.byte	0
ARM GAS  C:\Users\DEVELO~1\AppData\Local\Temp\ccQb9vWk.s 			page 49


 2733 00bb 03       		.uleb128 0x3
 2734 00bc 08       		.uleb128 0x8
 2735 00bd 3A       		.uleb128 0x3a
 2736 00be 21       		.uleb128 0x21
 2737 00bf 01       		.sleb128 1
 2738 00c0 3B       		.uleb128 0x3b
 2739 00c1 0B       		.uleb128 0xb
 2740 00c2 39       		.uleb128 0x39
 2741 00c3 0B       		.uleb128 0xb
 2742 00c4 49       		.uleb128 0x49
 2743 00c5 13       		.uleb128 0x13
 2744 00c6 02       		.uleb128 0x2
 2745 00c7 17       		.uleb128 0x17
 2746 00c8 B742     		.uleb128 0x2137
 2747 00ca 17       		.uleb128 0x17
 2748 00cb 00       		.byte	0
 2749 00cc 00       		.byte	0
 2750 00cd 0F       		.uleb128 0xf
 2751 00ce 26       		.uleb128 0x26
 2752 00cf 00       		.byte	0
 2753 00d0 49       		.uleb128 0x49
 2754 00d1 13       		.uleb128 0x13
 2755 00d2 00       		.byte	0
 2756 00d3 00       		.byte	0
 2757 00d4 10       		.uleb128 0x10
 2758 00d5 05       		.uleb128 0x5
 2759 00d6 00       		.byte	0
 2760 00d7 03       		.uleb128 0x3
 2761 00d8 0E       		.uleb128 0xe
 2762 00d9 3A       		.uleb128 0x3a
 2763 00da 21       		.uleb128 0x21
 2764 00db 01       		.sleb128 1
 2765 00dc 3B       		.uleb128 0x3b
 2766 00dd 0B       		.uleb128 0xb
 2767 00de 39       		.uleb128 0x39
 2768 00df 0B       		.uleb128 0xb
 2769 00e0 49       		.uleb128 0x49
 2770 00e1 13       		.uleb128 0x13
 2771 00e2 02       		.uleb128 0x2
 2772 00e3 17       		.uleb128 0x17
 2773 00e4 B742     		.uleb128 0x2137
 2774 00e6 17       		.uleb128 0x17
 2775 00e7 00       		.byte	0
 2776 00e8 00       		.byte	0
 2777 00e9 11       		.uleb128 0x11
 2778 00ea 01       		.uleb128 0x1
 2779 00eb 01       		.byte	0x1
 2780 00ec 49       		.uleb128 0x49
 2781 00ed 13       		.uleb128 0x13
 2782 00ee 01       		.uleb128 0x1
 2783 00ef 13       		.uleb128 0x13
 2784 00f0 00       		.byte	0
 2785 00f1 00       		.byte	0
 2786 00f2 12       		.uleb128 0x12
 2787 00f3 21       		.uleb128 0x21
 2788 00f4 00       		.byte	0
 2789 00f5 49       		.uleb128 0x49
ARM GAS  C:\Users\DEVELO~1\AppData\Local\Temp\ccQb9vWk.s 			page 50


 2790 00f6 13       		.uleb128 0x13
 2791 00f7 2F       		.uleb128 0x2f
 2792 00f8 0B       		.uleb128 0xb
 2793 00f9 00       		.byte	0
 2794 00fa 00       		.byte	0
 2795 00fb 13       		.uleb128 0x13
 2796 00fc 13       		.uleb128 0x13
 2797 00fd 01       		.byte	0x1
 2798 00fe 03       		.uleb128 0x3
 2799 00ff 0E       		.uleb128 0xe
 2800 0100 0B       		.uleb128 0xb
 2801 0101 0B       		.uleb128 0xb
 2802 0102 3A       		.uleb128 0x3a
 2803 0103 0B       		.uleb128 0xb
 2804 0104 3B       		.uleb128 0x3b
 2805 0105 05       		.uleb128 0x5
 2806 0106 39       		.uleb128 0x39
 2807 0107 0B       		.uleb128 0xb
 2808 0108 01       		.uleb128 0x1
 2809 0109 13       		.uleb128 0x13
 2810 010a 00       		.byte	0
 2811 010b 00       		.byte	0
 2812 010c 14       		.uleb128 0x14
 2813 010d 34       		.uleb128 0x34
 2814 010e 00       		.byte	0
 2815 010f 03       		.uleb128 0x3
 2816 0110 08       		.uleb128 0x8
 2817 0111 3A       		.uleb128 0x3a
 2818 0112 21       		.uleb128 0x21
 2819 0113 01       		.sleb128 1
 2820 0114 3B       		.uleb128 0x3b
 2821 0115 05       		.uleb128 0x5
 2822 0116 39       		.uleb128 0x39
 2823 0117 0B       		.uleb128 0xb
 2824 0118 49       		.uleb128 0x49
 2825 0119 13       		.uleb128 0x13
 2826 011a 02       		.uleb128 0x2
 2827 011b 17       		.uleb128 0x17
 2828 011c B742     		.uleb128 0x2137
 2829 011e 17       		.uleb128 0x17
 2830 011f 00       		.byte	0
 2831 0120 00       		.byte	0
 2832 0121 15       		.uleb128 0x15
 2833 0122 48       		.uleb128 0x48
 2834 0123 01       		.byte	0x1
 2835 0124 7D       		.uleb128 0x7d
 2836 0125 01       		.uleb128 0x1
 2837 0126 7F       		.uleb128 0x7f
 2838 0127 13       		.uleb128 0x13
 2839 0128 01       		.uleb128 0x1
 2840 0129 13       		.uleb128 0x13
 2841 012a 00       		.byte	0
 2842 012b 00       		.byte	0
 2843 012c 16       		.uleb128 0x16
 2844 012d 17       		.uleb128 0x17
 2845 012e 01       		.byte	0x1
 2846 012f 0B       		.uleb128 0xb
ARM GAS  C:\Users\DEVELO~1\AppData\Local\Temp\ccQb9vWk.s 			page 51


 2847 0130 0B       		.uleb128 0xb
 2848 0131 3A       		.uleb128 0x3a
 2849 0132 0B       		.uleb128 0xb
 2850 0133 3B       		.uleb128 0x3b
 2851 0134 0B       		.uleb128 0xb
 2852 0135 39       		.uleb128 0x39
 2853 0136 21       		.uleb128 0x21
 2854 0137 03       		.sleb128 3
 2855 0138 01       		.uleb128 0x1
 2856 0139 13       		.uleb128 0x13
 2857 013a 00       		.byte	0
 2858 013b 00       		.byte	0
 2859 013c 17       		.uleb128 0x17
 2860 013d 0D       		.uleb128 0xd
 2861 013e 00       		.byte	0
 2862 013f 03       		.uleb128 0x3
 2863 0140 08       		.uleb128 0x8
 2864 0141 3A       		.uleb128 0x3a
 2865 0142 21       		.uleb128 0x21
 2866 0143 0C       		.sleb128 12
 2867 0144 3B       		.uleb128 0x3b
 2868 0145 0B       		.uleb128 0xb
 2869 0146 39       		.uleb128 0x39
 2870 0147 21       		.uleb128 0x21
 2871 0148 07       		.sleb128 7
 2872 0149 49       		.uleb128 0x49
 2873 014a 13       		.uleb128 0x13
 2874 014b 00       		.byte	0
 2875 014c 00       		.byte	0
 2876 014d 18       		.uleb128 0x18
 2877 014e 0D       		.uleb128 0xd
 2878 014f 00       		.byte	0
 2879 0150 03       		.uleb128 0x3
 2880 0151 0E       		.uleb128 0xe
 2881 0152 3A       		.uleb128 0x3a
 2882 0153 21       		.uleb128 0x21
 2883 0154 0C       		.sleb128 12
 2884 0155 3B       		.uleb128 0x3b
 2885 0156 0B       		.uleb128 0xb
 2886 0157 39       		.uleb128 0x39
 2887 0158 21       		.uleb128 0x21
 2888 0159 19       		.sleb128 25
 2889 015a 49       		.uleb128 0x49
 2890 015b 13       		.uleb128 0x13
 2891 015c 0D       		.uleb128 0xd
 2892 015d 0B       		.uleb128 0xb
 2893 015e 6B       		.uleb128 0x6b
 2894 015f 0B       		.uleb128 0xb
 2895 0160 00       		.byte	0
 2896 0161 00       		.byte	0
 2897 0162 19       		.uleb128 0x19
 2898 0163 2E       		.uleb128 0x2e
 2899 0164 01       		.byte	0x1
 2900 0165 3F       		.uleb128 0x3f
 2901 0166 19       		.uleb128 0x19
 2902 0167 03       		.uleb128 0x3
 2903 0168 0E       		.uleb128 0xe
ARM GAS  C:\Users\DEVELO~1\AppData\Local\Temp\ccQb9vWk.s 			page 52


 2904 0169 3A       		.uleb128 0x3a
 2905 016a 21       		.uleb128 0x21
 2906 016b 0F       		.sleb128 15
 2907 016c 3B       		.uleb128 0x3b
 2908 016d 0B       		.uleb128 0xb
 2909 016e 39       		.uleb128 0x39
 2910 016f 21       		.uleb128 0x21
 2911 0170 08       		.sleb128 8
 2912 0171 27       		.uleb128 0x27
 2913 0172 19       		.uleb128 0x19
 2914 0173 3C       		.uleb128 0x3c
 2915 0174 19       		.uleb128 0x19
 2916 0175 01       		.uleb128 0x1
 2917 0176 13       		.uleb128 0x13
 2918 0177 00       		.byte	0
 2919 0178 00       		.byte	0
 2920 0179 1A       		.uleb128 0x1a
 2921 017a 05       		.uleb128 0x5
 2922 017b 00       		.byte	0
 2923 017c 03       		.uleb128 0x3
 2924 017d 0E       		.uleb128 0xe
 2925 017e 3A       		.uleb128 0x3a
 2926 017f 21       		.uleb128 0x21
 2927 0180 01       		.sleb128 1
 2928 0181 3B       		.uleb128 0x3b
 2929 0182 21       		.uleb128 0x21
 2930 0183 E502     		.sleb128 357
 2931 0185 39       		.uleb128 0x39
 2932 0186 0B       		.uleb128 0xb
 2933 0187 49       		.uleb128 0x49
 2934 0188 13       		.uleb128 0x13
 2935 0189 02       		.uleb128 0x2
 2936 018a 17       		.uleb128 0x17
 2937 018b B742     		.uleb128 0x2137
 2938 018d 17       		.uleb128 0x17
 2939 018e 00       		.byte	0
 2940 018f 00       		.byte	0
 2941 0190 1B       		.uleb128 0x1b
 2942 0191 34       		.uleb128 0x34
 2943 0192 00       		.byte	0
 2944 0193 03       		.uleb128 0x3
 2945 0194 0E       		.uleb128 0xe
 2946 0195 3A       		.uleb128 0x3a
 2947 0196 21       		.uleb128 0x21
 2948 0197 01       		.sleb128 1
 2949 0198 3B       		.uleb128 0x3b
 2950 0199 05       		.uleb128 0x5
 2951 019a 39       		.uleb128 0x39
 2952 019b 0B       		.uleb128 0xb
 2953 019c 49       		.uleb128 0x49
 2954 019d 13       		.uleb128 0x13
 2955 019e 02       		.uleb128 0x2
 2956 019f 17       		.uleb128 0x17
 2957 01a0 B742     		.uleb128 0x2137
 2958 01a2 17       		.uleb128 0x17
 2959 01a3 00       		.byte	0
 2960 01a4 00       		.byte	0
ARM GAS  C:\Users\DEVELO~1\AppData\Local\Temp\ccQb9vWk.s 			page 53


 2961 01a5 1C       		.uleb128 0x1c
 2962 01a6 0B       		.uleb128 0xb
 2963 01a7 01       		.byte	0x1
 2964 01a8 55       		.uleb128 0x55
 2965 01a9 17       		.uleb128 0x17
 2966 01aa 01       		.uleb128 0x1
 2967 01ab 13       		.uleb128 0x13
 2968 01ac 00       		.byte	0
 2969 01ad 00       		.byte	0
 2970 01ae 1D       		.uleb128 0x1d
 2971 01af 34       		.uleb128 0x34
 2972 01b0 00       		.byte	0
 2973 01b1 03       		.uleb128 0x3
 2974 01b2 0E       		.uleb128 0xe
 2975 01b3 49       		.uleb128 0x49
 2976 01b4 13       		.uleb128 0x13
 2977 01b5 34       		.uleb128 0x34
 2978 01b6 19       		.uleb128 0x19
 2979 01b7 00       		.byte	0
 2980 01b8 00       		.byte	0
 2981 01b9 1E       		.uleb128 0x1e
 2982 01ba 35       		.uleb128 0x35
 2983 01bb 00       		.byte	0
 2984 01bc 49       		.uleb128 0x49
 2985 01bd 13       		.uleb128 0x13
 2986 01be 00       		.byte	0
 2987 01bf 00       		.byte	0
 2988 01c0 1F       		.uleb128 0x1f
 2989 01c1 16       		.uleb128 0x16
 2990 01c2 00       		.byte	0
 2991 01c3 03       		.uleb128 0x3
 2992 01c4 0E       		.uleb128 0xe
 2993 01c5 3A       		.uleb128 0x3a
 2994 01c6 21       		.uleb128 0x21
 2995 01c7 07       		.sleb128 7
 2996 01c8 3B       		.uleb128 0x3b
 2997 01c9 05       		.uleb128 0x5
 2998 01ca 39       		.uleb128 0x39
 2999 01cb 21       		.uleb128 0x21
 3000 01cc 03       		.sleb128 3
 3001 01cd 49       		.uleb128 0x49
 3002 01ce 13       		.uleb128 0x13
 3003 01cf 00       		.byte	0
 3004 01d0 00       		.byte	0
 3005 01d1 20       		.uleb128 0x20
 3006 01d2 48       		.uleb128 0x48
 3007 01d3 01       		.byte	0x1
 3008 01d4 7D       		.uleb128 0x7d
 3009 01d5 01       		.uleb128 0x1
 3010 01d6 7F       		.uleb128 0x7f
 3011 01d7 13       		.uleb128 0x13
 3012 01d8 00       		.byte	0
 3013 01d9 00       		.byte	0
 3014 01da 21       		.uleb128 0x21
 3015 01db 48       		.uleb128 0x48
 3016 01dc 00       		.byte	0
 3017 01dd 7D       		.uleb128 0x7d
ARM GAS  C:\Users\DEVELO~1\AppData\Local\Temp\ccQb9vWk.s 			page 54


 3018 01de 01       		.uleb128 0x1
 3019 01df 8201     		.uleb128 0x82
 3020 01e1 19       		.uleb128 0x19
 3021 01e2 7F       		.uleb128 0x7f
 3022 01e3 13       		.uleb128 0x13
 3023 01e4 00       		.byte	0
 3024 01e5 00       		.byte	0
 3025 01e6 22       		.uleb128 0x22
 3026 01e7 34       		.uleb128 0x34
 3027 01e8 00       		.byte	0
 3028 01e9 03       		.uleb128 0x3
 3029 01ea 0E       		.uleb128 0xe
 3030 01eb 3A       		.uleb128 0x3a
 3031 01ec 21       		.uleb128 0x21
 3032 01ed 01       		.sleb128 1
 3033 01ee 3B       		.uleb128 0x3b
 3034 01ef 0B       		.uleb128 0xb
 3035 01f0 39       		.uleb128 0x39
 3036 01f1 0B       		.uleb128 0xb
 3037 01f2 49       		.uleb128 0x49
 3038 01f3 13       		.uleb128 0x13
 3039 01f4 02       		.uleb128 0x2
 3040 01f5 17       		.uleb128 0x17
 3041 01f6 B742     		.uleb128 0x2137
 3042 01f8 17       		.uleb128 0x17
 3043 01f9 00       		.byte	0
 3044 01fa 00       		.byte	0
 3045 01fb 23       		.uleb128 0x23
 3046 01fc 48       		.uleb128 0x48
 3047 01fd 01       		.byte	0x1
 3048 01fe 7D       		.uleb128 0x7d
 3049 01ff 01       		.uleb128 0x1
 3050 0200 8201     		.uleb128 0x82
 3051 0202 19       		.uleb128 0x19
 3052 0203 7F       		.uleb128 0x7f
 3053 0204 13       		.uleb128 0x13
 3054 0205 00       		.byte	0
 3055 0206 00       		.byte	0
 3056 0207 24       		.uleb128 0x24
 3057 0208 11       		.uleb128 0x11
 3058 0209 01       		.byte	0x1
 3059 020a 25       		.uleb128 0x25
 3060 020b 0E       		.uleb128 0xe
 3061 020c 13       		.uleb128 0x13
 3062 020d 0B       		.uleb128 0xb
 3063 020e 03       		.uleb128 0x3
 3064 020f 0E       		.uleb128 0xe
 3065 0210 1B       		.uleb128 0x1b
 3066 0211 0E       		.uleb128 0xe
 3067 0212 55       		.uleb128 0x55
 3068 0213 17       		.uleb128 0x17
 3069 0214 11       		.uleb128 0x11
 3070 0215 01       		.uleb128 0x1
 3071 0216 10       		.uleb128 0x10
 3072 0217 17       		.uleb128 0x17
 3073 0218 00       		.byte	0
 3074 0219 00       		.byte	0
ARM GAS  C:\Users\DEVELO~1\AppData\Local\Temp\ccQb9vWk.s 			page 55


 3075 021a 25       		.uleb128 0x25
 3076 021b 24       		.uleb128 0x24
 3077 021c 00       		.byte	0
 3078 021d 0B       		.uleb128 0xb
 3079 021e 0B       		.uleb128 0xb
 3080 021f 3E       		.uleb128 0x3e
 3081 0220 0B       		.uleb128 0xb
 3082 0221 03       		.uleb128 0x3
 3083 0222 08       		.uleb128 0x8
 3084 0223 00       		.byte	0
 3085 0224 00       		.byte	0
 3086 0225 26       		.uleb128 0x26
 3087 0226 13       		.uleb128 0x13
 3088 0227 01       		.byte	0x1
 3089 0228 03       		.uleb128 0x3
 3090 0229 0E       		.uleb128 0xe
 3091 022a 0B       		.uleb128 0xb
 3092 022b 05       		.uleb128 0x5
 3093 022c 3A       		.uleb128 0x3a
 3094 022d 0B       		.uleb128 0xb
 3095 022e 3B       		.uleb128 0x3b
 3096 022f 05       		.uleb128 0x5
 3097 0230 39       		.uleb128 0x39
 3098 0231 0B       		.uleb128 0xb
 3099 0232 01       		.uleb128 0x1
 3100 0233 13       		.uleb128 0x13
 3101 0234 00       		.byte	0
 3102 0235 00       		.byte	0
 3103 0236 27       		.uleb128 0x27
 3104 0237 0F       		.uleb128 0xf
 3105 0238 00       		.byte	0
 3106 0239 0B       		.uleb128 0xb
 3107 023a 0B       		.uleb128 0xb
 3108 023b 00       		.byte	0
 3109 023c 00       		.byte	0
 3110 023d 28       		.uleb128 0x28
 3111 023e 13       		.uleb128 0x13
 3112 023f 01       		.byte	0x1
 3113 0240 0B       		.uleb128 0xb
 3114 0241 05       		.uleb128 0x5
 3115 0242 3A       		.uleb128 0x3a
 3116 0243 0B       		.uleb128 0xb
 3117 0244 3B       		.uleb128 0x3b
 3118 0245 0B       		.uleb128 0xb
 3119 0246 39       		.uleb128 0x39
 3120 0247 0B       		.uleb128 0xb
 3121 0248 01       		.uleb128 0x1
 3122 0249 13       		.uleb128 0x13
 3123 024a 00       		.byte	0
 3124 024b 00       		.byte	0
 3125 024c 29       		.uleb128 0x29
 3126 024d 15       		.uleb128 0x15
 3127 024e 01       		.byte	0x1
 3128 024f 27       		.uleb128 0x27
 3129 0250 19       		.uleb128 0x19
 3130 0251 49       		.uleb128 0x49
 3131 0252 13       		.uleb128 0x13
ARM GAS  C:\Users\DEVELO~1\AppData\Local\Temp\ccQb9vWk.s 			page 56


 3132 0253 01       		.uleb128 0x1
 3133 0254 13       		.uleb128 0x13
 3134 0255 00       		.byte	0
 3135 0256 00       		.byte	0
 3136 0257 2A       		.uleb128 0x2a
 3137 0258 17       		.uleb128 0x17
 3138 0259 01       		.byte	0x1
 3139 025a 03       		.uleb128 0x3
 3140 025b 0E       		.uleb128 0xe
 3141 025c 0B       		.uleb128 0xb
 3142 025d 0B       		.uleb128 0xb
 3143 025e 3A       		.uleb128 0x3a
 3144 025f 0B       		.uleb128 0xb
 3145 0260 3B       		.uleb128 0x3b
 3146 0261 0B       		.uleb128 0xb
 3147 0262 39       		.uleb128 0x39
 3148 0263 0B       		.uleb128 0xb
 3149 0264 01       		.uleb128 0x1
 3150 0265 13       		.uleb128 0x13
 3151 0266 00       		.byte	0
 3152 0267 00       		.byte	0
 3153 0268 2B       		.uleb128 0x2b
 3154 0269 34       		.uleb128 0x34
 3155 026a 00       		.byte	0
 3156 026b 03       		.uleb128 0x3
 3157 026c 0E       		.uleb128 0xe
 3158 026d 3A       		.uleb128 0x3a
 3159 026e 0B       		.uleb128 0xb
 3160 026f 3B       		.uleb128 0x3b
 3161 0270 0B       		.uleb128 0xb
 3162 0271 39       		.uleb128 0x39
 3163 0272 0B       		.uleb128 0xb
 3164 0273 49       		.uleb128 0x49
 3165 0274 13       		.uleb128 0x13
 3166 0275 02       		.uleb128 0x2
 3167 0276 18       		.uleb128 0x18
 3168 0277 00       		.byte	0
 3169 0278 00       		.byte	0
 3170 0279 2C       		.uleb128 0x2c
 3171 027a 2E       		.uleb128 0x2e
 3172 027b 01       		.byte	0x1
 3173 027c 3F       		.uleb128 0x3f
 3174 027d 19       		.uleb128 0x19
 3175 027e 03       		.uleb128 0x3
 3176 027f 0E       		.uleb128 0xe
 3177 0280 3A       		.uleb128 0x3a
 3178 0281 0B       		.uleb128 0xb
 3179 0282 3B       		.uleb128 0x3b
 3180 0283 0B       		.uleb128 0xb
 3181 0284 39       		.uleb128 0x39
 3182 0285 0B       		.uleb128 0xb
 3183 0286 27       		.uleb128 0x27
 3184 0287 19       		.uleb128 0x19
 3185 0288 49       		.uleb128 0x49
 3186 0289 13       		.uleb128 0x13
 3187 028a 3C       		.uleb128 0x3c
 3188 028b 19       		.uleb128 0x19
ARM GAS  C:\Users\DEVELO~1\AppData\Local\Temp\ccQb9vWk.s 			page 57


 3189 028c 01       		.uleb128 0x1
 3190 028d 13       		.uleb128 0x13
 3191 028e 00       		.byte	0
 3192 028f 00       		.byte	0
 3193 0290 2D       		.uleb128 0x2d
 3194 0291 2E       		.uleb128 0x2e
 3195 0292 01       		.byte	0x1
 3196 0293 3F       		.uleb128 0x3f
 3197 0294 19       		.uleb128 0x19
 3198 0295 03       		.uleb128 0x3
 3199 0296 0E       		.uleb128 0xe
 3200 0297 3A       		.uleb128 0x3a
 3201 0298 0B       		.uleb128 0xb
 3202 0299 3B       		.uleb128 0x3b
 3203 029a 05       		.uleb128 0x5
 3204 029b 39       		.uleb128 0x39
 3205 029c 0B       		.uleb128 0xb
 3206 029d 27       		.uleb128 0x27
 3207 029e 19       		.uleb128 0x19
 3208 029f 49       		.uleb128 0x49
 3209 02a0 13       		.uleb128 0x13
 3210 02a1 11       		.uleb128 0x11
 3211 02a2 01       		.uleb128 0x1
 3212 02a3 12       		.uleb128 0x12
 3213 02a4 06       		.uleb128 0x6
 3214 02a5 40       		.uleb128 0x40
 3215 02a6 18       		.uleb128 0x18
 3216 02a7 7A       		.uleb128 0x7a
 3217 02a8 19       		.uleb128 0x19
 3218 02a9 01       		.uleb128 0x1
 3219 02aa 13       		.uleb128 0x13
 3220 02ab 00       		.byte	0
 3221 02ac 00       		.byte	0
 3222 02ad 2E       		.uleb128 0x2e
 3223 02ae 34       		.uleb128 0x34
 3224 02af 00       		.byte	0
 3225 02b0 03       		.uleb128 0x3
 3226 02b1 0E       		.uleb128 0xe
 3227 02b2 3A       		.uleb128 0x3a
 3228 02b3 0B       		.uleb128 0xb
 3229 02b4 3B       		.uleb128 0x3b
 3230 02b5 05       		.uleb128 0x5
 3231 02b6 39       		.uleb128 0x39
 3232 02b7 0B       		.uleb128 0xb
 3233 02b8 49       		.uleb128 0x49
 3234 02b9 13       		.uleb128 0x13
 3235 02ba 02       		.uleb128 0x2
 3236 02bb 18       		.uleb128 0x18
 3237 02bc 00       		.byte	0
 3238 02bd 00       		.byte	0
 3239 02be 2F       		.uleb128 0x2f
 3240 02bf 2E       		.uleb128 0x2e
 3241 02c0 01       		.byte	0x1
 3242 02c1 3F       		.uleb128 0x3f
 3243 02c2 19       		.uleb128 0x19
 3244 02c3 03       		.uleb128 0x3
 3245 02c4 0E       		.uleb128 0xe
ARM GAS  C:\Users\DEVELO~1\AppData\Local\Temp\ccQb9vWk.s 			page 58


 3246 02c5 3A       		.uleb128 0x3a
 3247 02c6 0B       		.uleb128 0xb
 3248 02c7 3B       		.uleb128 0x3b
 3249 02c8 05       		.uleb128 0x5
 3250 02c9 39       		.uleb128 0x39
 3251 02ca 0B       		.uleb128 0xb
 3252 02cb 27       		.uleb128 0x27
 3253 02cc 19       		.uleb128 0x19
 3254 02cd 11       		.uleb128 0x11
 3255 02ce 01       		.uleb128 0x1
 3256 02cf 12       		.uleb128 0x12
 3257 02d0 06       		.uleb128 0x6
 3258 02d1 40       		.uleb128 0x40
 3259 02d2 18       		.uleb128 0x18
 3260 02d3 7A       		.uleb128 0x7a
 3261 02d4 19       		.uleb128 0x19
 3262 02d5 01       		.uleb128 0x1
 3263 02d6 13       		.uleb128 0x13
 3264 02d7 00       		.byte	0
 3265 02d8 00       		.byte	0
 3266 02d9 30       		.uleb128 0x30
 3267 02da 05       		.uleb128 0x5
 3268 02db 00       		.byte	0
 3269 02dc 03       		.uleb128 0x3
 3270 02dd 08       		.uleb128 0x8
 3271 02de 3A       		.uleb128 0x3a
 3272 02df 0B       		.uleb128 0xb
 3273 02e0 3B       		.uleb128 0x3b
 3274 02e1 05       		.uleb128 0x5
 3275 02e2 39       		.uleb128 0x39
 3276 02e3 0B       		.uleb128 0xb
 3277 02e4 49       		.uleb128 0x49
 3278 02e5 13       		.uleb128 0x13
 3279 02e6 02       		.uleb128 0x2
 3280 02e7 17       		.uleb128 0x17
 3281 02e8 B742     		.uleb128 0x2137
 3282 02ea 17       		.uleb128 0x17
 3283 02eb 00       		.byte	0
 3284 02ec 00       		.byte	0
 3285 02ed 31       		.uleb128 0x31
 3286 02ee 2E       		.uleb128 0x2e
 3287 02ef 01       		.byte	0x1
 3288 02f0 3F       		.uleb128 0x3f
 3289 02f1 19       		.uleb128 0x19
 3290 02f2 03       		.uleb128 0x3
 3291 02f3 0E       		.uleb128 0xe
 3292 02f4 3A       		.uleb128 0x3a
 3293 02f5 0B       		.uleb128 0xb
 3294 02f6 3B       		.uleb128 0x3b
 3295 02f7 0B       		.uleb128 0xb
 3296 02f8 39       		.uleb128 0x39
 3297 02f9 0B       		.uleb128 0xb
 3298 02fa 27       		.uleb128 0x27
 3299 02fb 19       		.uleb128 0x19
 3300 02fc 49       		.uleb128 0x49
 3301 02fd 13       		.uleb128 0x13
 3302 02fe 11       		.uleb128 0x11
ARM GAS  C:\Users\DEVELO~1\AppData\Local\Temp\ccQb9vWk.s 			page 59


 3303 02ff 01       		.uleb128 0x1
 3304 0300 12       		.uleb128 0x12
 3305 0301 06       		.uleb128 0x6
 3306 0302 40       		.uleb128 0x40
 3307 0303 18       		.uleb128 0x18
 3308 0304 7A       		.uleb128 0x7a
 3309 0305 19       		.uleb128 0x19
 3310 0306 01       		.uleb128 0x1
 3311 0307 13       		.uleb128 0x13
 3312 0308 00       		.byte	0
 3313 0309 00       		.byte	0
 3314 030a 32       		.uleb128 0x32
 3315 030b 0B       		.uleb128 0xb
 3316 030c 01       		.byte	0x1
 3317 030d 11       		.uleb128 0x11
 3318 030e 01       		.uleb128 0x1
 3319 030f 12       		.uleb128 0x12
 3320 0310 06       		.uleb128 0x6
 3321 0311 00       		.byte	0
 3322 0312 00       		.byte	0
 3323 0313 33       		.uleb128 0x33
 3324 0314 48       		.uleb128 0x48
 3325 0315 01       		.byte	0x1
 3326 0316 7D       		.uleb128 0x7d
 3327 0317 01       		.uleb128 0x1
 3328 0318 8301     		.uleb128 0x83
 3329 031a 18       		.uleb128 0x18
 3330 031b 01       		.uleb128 0x1
 3331 031c 13       		.uleb128 0x13
 3332 031d 00       		.byte	0
 3333 031e 00       		.byte	0
 3334 031f 34       		.uleb128 0x34
 3335 0320 2E       		.uleb128 0x2e
 3336 0321 01       		.byte	0x1
 3337 0322 3F       		.uleb128 0x3f
 3338 0323 19       		.uleb128 0x19
 3339 0324 03       		.uleb128 0x3
 3340 0325 0E       		.uleb128 0xe
 3341 0326 3A       		.uleb128 0x3a
 3342 0327 0B       		.uleb128 0xb
 3343 0328 3B       		.uleb128 0x3b
 3344 0329 0B       		.uleb128 0xb
 3345 032a 39       		.uleb128 0x39
 3346 032b 0B       		.uleb128 0xb
 3347 032c 27       		.uleb128 0x27
 3348 032d 19       		.uleb128 0x19
 3349 032e 11       		.uleb128 0x11
 3350 032f 01       		.uleb128 0x1
 3351 0330 12       		.uleb128 0x12
 3352 0331 06       		.uleb128 0x6
 3353 0332 40       		.uleb128 0x40
 3354 0333 18       		.uleb128 0x18
 3355 0334 7A       		.uleb128 0x7a
 3356 0335 19       		.uleb128 0x19
 3357 0336 01       		.uleb128 0x1
 3358 0337 13       		.uleb128 0x13
 3359 0338 00       		.byte	0
ARM GAS  C:\Users\DEVELO~1\AppData\Local\Temp\ccQb9vWk.s 			page 60


 3360 0339 00       		.byte	0
 3361 033a 35       		.uleb128 0x35
 3362 033b 05       		.uleb128 0x5
 3363 033c 00       		.byte	0
 3364 033d 03       		.uleb128 0x3
 3365 033e 08       		.uleb128 0x8
 3366 033f 3A       		.uleb128 0x3a
 3367 0340 0B       		.uleb128 0xb
 3368 0341 3B       		.uleb128 0x3b
 3369 0342 0B       		.uleb128 0xb
 3370 0343 39       		.uleb128 0x39
 3371 0344 0B       		.uleb128 0xb
 3372 0345 49       		.uleb128 0x49
 3373 0346 13       		.uleb128 0x13
 3374 0347 02       		.uleb128 0x2
 3375 0348 17       		.uleb128 0x17
 3376 0349 B742     		.uleb128 0x2137
 3377 034b 17       		.uleb128 0x17
 3378 034c 00       		.byte	0
 3379 034d 00       		.byte	0
 3380 034e 36       		.uleb128 0x36
 3381 034f 2E       		.uleb128 0x2e
 3382 0350 01       		.byte	0x1
 3383 0351 3F       		.uleb128 0x3f
 3384 0352 19       		.uleb128 0x19
 3385 0353 03       		.uleb128 0x3
 3386 0354 0E       		.uleb128 0xe
 3387 0355 3A       		.uleb128 0x3a
 3388 0356 0B       		.uleb128 0xb
 3389 0357 3B       		.uleb128 0x3b
 3390 0358 0B       		.uleb128 0xb
 3391 0359 39       		.uleb128 0x39
 3392 035a 0B       		.uleb128 0xb
 3393 035b 27       		.uleb128 0x27
 3394 035c 19       		.uleb128 0x19
 3395 035d 11       		.uleb128 0x11
 3396 035e 01       		.uleb128 0x1
 3397 035f 12       		.uleb128 0x12
 3398 0360 06       		.uleb128 0x6
 3399 0361 40       		.uleb128 0x40
 3400 0362 18       		.uleb128 0x18
 3401 0363 7A       		.uleb128 0x7a
 3402 0364 19       		.uleb128 0x19
 3403 0365 00       		.byte	0
 3404 0366 00       		.byte	0
 3405 0367 00       		.byte	0
 3406              		.section	.debug_loclists,"",%progbits
 3407 0000 D5030000 		.4byte	.Ldebug_loc3-.Ldebug_loc2
 3408              	.Ldebug_loc2:
 3409 0004 0500     		.2byte	0x5
 3410 0006 04       		.byte	0x4
 3411 0007 00       		.byte	0
 3412 0008 00000000 		.4byte	0
 3413              	.Ldebug_loc0:
 3414              	.LVUS20:
 3415 000c 00       		.uleb128 0
 3416 000d 00       		.uleb128 .LVU249
ARM GAS  C:\Users\DEVELO~1\AppData\Local\Temp\ccQb9vWk.s 			page 61


 3417 000e 00       		.uleb128 .LVU249
 3418 000f 00       		.uleb128 .LVU263
 3419 0010 00       		.uleb128 .LVU263
 3420 0011 00       		.uleb128 .LVU284
 3421 0012 00       		.uleb128 .LVU284
 3422 0013 00       		.uleb128 0
 3423              	.LLST20:
 3424 0014 06       		.byte	0x6
 3425 0015 00000000 		.4byte	.LVL52
 3426 0019 04       		.byte	0x4
 3427 001a 00       		.uleb128 .LVL52-.LVL52
 3428 001b 10       		.uleb128 .LVL53-.LVL52
 3429 001c 01       		.uleb128 0x1
 3430 001d 50       		.byte	0x50
 3431 001e 04       		.byte	0x4
 3432 001f 10       		.uleb128 .LVL53-.LVL52
 3433 0020 2A       		.uleb128 .LVL55-.LVL52
 3434 0021 01       		.uleb128 0x1
 3435 0022 54       		.byte	0x54
 3436 0023 04       		.byte	0x4
 3437 0024 2A       		.uleb128 .LVL55-.LVL52
 3438 0025 58       		.uleb128 .LVL61-.LVL52
 3439 0026 03       		.uleb128 0x3
 3440 0027 78       		.byte	0x78
 3441 0028 74       		.sleb128 -12
 3442 0029 9F       		.byte	0x9f
 3443 002a 04       		.byte	0x4
 3444 002b 58       		.uleb128 .LVL61-.LVL52
 3445 002c 64       		.uleb128 .LFE350-.LVL52
 3446 002d 01       		.uleb128 0x1
 3447 002e 54       		.byte	0x54
 3448 002f 00       		.byte	0
 3449              	.LVUS21:
 3450 0030 00       		.uleb128 0
 3451 0031 00       		.uleb128 .LVU252
 3452 0032 00       		.uleb128 .LVU252
 3453 0033 00       		.uleb128 0
 3454              	.LLST21:
 3455 0034 06       		.byte	0x6
 3456 0035 00000000 		.4byte	.LVL52
 3457 0039 04       		.byte	0x4
 3458 003a 00       		.uleb128 .LVL52-.LVL52
 3459 003b 1D       		.uleb128 .LVL54-1-.LVL52
 3460 003c 01       		.uleb128 0x1
 3461 003d 51       		.byte	0x51
 3462 003e 04       		.byte	0x4
 3463 003f 1D       		.uleb128 .LVL54-1-.LVL52
 3464 0040 64       		.uleb128 .LFE350-.LVL52
 3465 0041 01       		.uleb128 0x1
 3466 0042 57       		.byte	0x57
 3467 0043 00       		.byte	0
 3468              	.LVUS22:
 3469 0044 00       		.uleb128 0
 3470 0045 00       		.uleb128 .LVU252
 3471 0046 00       		.uleb128 .LVU252
 3472 0047 00       		.uleb128 0
 3473              	.LLST22:
ARM GAS  C:\Users\DEVELO~1\AppData\Local\Temp\ccQb9vWk.s 			page 62


 3474 0048 06       		.byte	0x6
 3475 0049 00000000 		.4byte	.LVL52
 3476 004d 04       		.byte	0x4
 3477 004e 00       		.uleb128 .LVL52-.LVL52
 3478 004f 1D       		.uleb128 .LVL54-1-.LVL52
 3479 0050 01       		.uleb128 0x1
 3480 0051 52       		.byte	0x52
 3481 0052 04       		.byte	0x4
 3482 0053 1D       		.uleb128 .LVL54-1-.LVL52
 3483 0054 64       		.uleb128 .LFE350-.LVL52
 3484 0055 01       		.uleb128 0x1
 3485 0056 56       		.byte	0x56
 3486 0057 00       		.byte	0
 3487              	.LVUS23:
 3488 0058 04       		.uleb128 .LVU256
 3489 0059 00       		.uleb128 .LVU263
 3490 005a 00       		.uleb128 .LVU263
 3491 005b 00       		.uleb128 .LVU269
 3492 005c 00       		.uleb128 .LVU284
 3493 005d 00       		.uleb128 0
 3494              	.LLST23:
 3495 005e 06       		.byte	0x6
 3496 005f 1E000000 		.4byte	.LVL54
 3497 0063 04       		.byte	0x4
 3498 0064 00       		.uleb128 .LVL54-.LVL54
 3499 0065 0C       		.uleb128 .LVL55-.LVL54
 3500 0066 03       		.uleb128 0x3
 3501 0067 74       		.byte	0x74
 3502 0068 04       		.sleb128 4
 3503 0069 9F       		.byte	0x9f
 3504 006a 04       		.byte	0x4
 3505 006b 0C       		.uleb128 .LVL55-.LVL54
 3506 006c 1A       		.uleb128 .LVL58-.LVL54
 3507 006d 03       		.uleb128 0x3
 3508 006e 78       		.byte	0x78
 3509 006f 78       		.sleb128 -8
 3510 0070 9F       		.byte	0x9f
 3511 0071 04       		.byte	0x4
 3512 0072 3A       		.uleb128 .LVL61-.LVL54
 3513 0073 46       		.uleb128 .LFE350-.LVL54
 3514 0074 03       		.uleb128 0x3
 3515 0075 74       		.byte	0x74
 3516 0076 04       		.sleb128 4
 3517 0077 9F       		.byte	0x9f
 3518 0078 00       		.byte	0
 3519              	.LVUS24:
 3520 0079 03       		.uleb128 .LVU255
 3521 007a 00       		.uleb128 .LVU263
 3522 007b 00       		.uleb128 .LVU263
 3523 007c 00       		.uleb128 .LVU271
 3524 007d 00       		.uleb128 .LVU284
 3525 007e 00       		.uleb128 0
 3526              	.LLST24:
 3527 007f 06       		.byte	0x6
 3528 0080 1E000000 		.4byte	.LVL54
 3529 0084 04       		.byte	0x4
 3530 0085 00       		.uleb128 .LVL54-.LVL54
ARM GAS  C:\Users\DEVELO~1\AppData\Local\Temp\ccQb9vWk.s 			page 63


 3531 0086 0C       		.uleb128 .LVL55-.LVL54
 3532 0087 02       		.uleb128 0x2
 3533 0088 30       		.byte	0x30
 3534 0089 9F       		.byte	0x9f
 3535 008a 04       		.byte	0x4
 3536 008b 0C       		.uleb128 .LVL55-.LVL54
 3537 008c 1E       		.uleb128 .LVL59-.LVL54
 3538 008d 01       		.uleb128 0x1
 3539 008e 55       		.byte	0x55
 3540 008f 04       		.byte	0x4
 3541 0090 3A       		.uleb128 .LVL61-.LVL54
 3542 0091 46       		.uleb128 .LFE350-.LVL54
 3543 0092 02       		.uleb128 0x2
 3544 0093 30       		.byte	0x30
 3545 0094 9F       		.byte	0x9f
 3546 0095 00       		.byte	0
 3547              	.LVUS25:
 3548 0096 01       		.uleb128 .LVU253
 3549 0097 00       		.uleb128 .LVU263
 3550 0098 00       		.uleb128 .LVU263
 3551 0099 00       		.uleb128 .LVU271
 3552 009a 00       		.uleb128 .LVU284
 3553 009b 00       		.uleb128 0
 3554              	.LLST25:
 3555 009c 06       		.byte	0x6
 3556 009d 1E000000 		.4byte	.LVL54
 3557 00a1 04       		.byte	0x4
 3558 00a2 00       		.uleb128 .LVL54-.LVL54
 3559 00a3 0C       		.uleb128 .LVL55-.LVL54
 3560 00a4 02       		.uleb128 0x2
 3561 00a5 30       		.byte	0x30
 3562 00a6 9F       		.byte	0x9f
 3563 00a7 04       		.byte	0x4
 3564 00a8 0C       		.uleb128 .LVL55-.LVL54
 3565 00a9 1E       		.uleb128 .LVL59-.LVL54
 3566 00aa 01       		.uleb128 0x1
 3567 00ab 5E       		.byte	0x5e
 3568 00ac 04       		.byte	0x4
 3569 00ad 3A       		.uleb128 .LVL61-.LVL54
 3570 00ae 46       		.uleb128 .LFE350-.LVL54
 3571 00af 02       		.uleb128 0x2
 3572 00b0 30       		.byte	0x30
 3573 00b1 9F       		.byte	0x9f
 3574 00b2 00       		.byte	0
 3575              	.LVUS26:
 3576 00b3 02       		.uleb128 .LVU254
 3577 00b4 00       		.uleb128 .LVU263
 3578 00b5 00       		.uleb128 .LVU263
 3579 00b6 00       		.uleb128 .LVU271
 3580 00b7 00       		.uleb128 .LVU284
 3581 00b8 00       		.uleb128 0
 3582              	.LLST26:
 3583 00b9 06       		.byte	0x6
 3584 00ba 1E000000 		.4byte	.LVL54
 3585 00be 04       		.byte	0x4
 3586 00bf 00       		.uleb128 .LVL54-.LVL54
 3587 00c0 0C       		.uleb128 .LVL55-.LVL54
ARM GAS  C:\Users\DEVELO~1\AppData\Local\Temp\ccQb9vWk.s 			page 64


 3588 00c1 02       		.uleb128 0x2
 3589 00c2 30       		.byte	0x30
 3590 00c3 9F       		.byte	0x9f
 3591 00c4 04       		.byte	0x4
 3592 00c5 0C       		.uleb128 .LVL55-.LVL54
 3593 00c6 1E       		.uleb128 .LVL59-.LVL54
 3594 00c7 01       		.uleb128 0x1
 3595 00c8 5C       		.byte	0x5c
 3596 00c9 04       		.byte	0x4
 3597 00ca 3A       		.uleb128 .LVL61-.LVL54
 3598 00cb 46       		.uleb128 .LFE350-.LVL54
 3599 00cc 02       		.uleb128 0x2
 3600 00cd 30       		.byte	0x30
 3601 00ce 9F       		.byte	0x9f
 3602 00cf 00       		.byte	0
 3603              	.LVUS16:
 3604 00d0 00       		.uleb128 0
 3605 00d1 00       		.uleb128 .LVU176
 3606 00d2 00       		.uleb128 .LVU176
 3607 00d3 00       		.uleb128 .LVU218
 3608 00d4 00       		.uleb128 .LVU218
 3609 00d5 00       		.uleb128 .LVU219
 3610 00d6 00       		.uleb128 .LVU219
 3611 00d7 00       		.uleb128 .LVU239
 3612 00d8 00       		.uleb128 .LVU239
 3613 00d9 00       		.uleb128 0
 3614              	.LLST16:
 3615 00da 06       		.byte	0x6
 3616 00db 00000000 		.4byte	.LVL37
 3617 00df 04       		.byte	0x4
 3618 00e0 00       		.uleb128 .LVL37-.LVL37
 3619 00e1 1A       		.uleb128 .LVL41-.LVL37
 3620 00e2 01       		.uleb128 0x1
 3621 00e3 50       		.byte	0x50
 3622 00e4 04       		.byte	0x4
 3623 00e5 1A       		.uleb128 .LVL41-.LVL37
 3624 00e6 62       		.uleb128 .LVL48-.LVL37
 3625 00e7 01       		.uleb128 0x1
 3626 00e8 56       		.byte	0x56
 3627 00e9 04       		.byte	0x4
 3628 00ea 62       		.uleb128 .LVL48-.LVL37
 3629 00eb 66       		.uleb128 .LVL49-.LVL37
 3630 00ec 04       		.uleb128 0x4
 3631 00ed A3       		.byte	0xa3
 3632 00ee 01       		.uleb128 0x1
 3633 00ef 50       		.byte	0x50
 3634 00f0 9F       		.byte	0x9f
 3635 00f1 04       		.byte	0x4
 3636 00f2 66       		.uleb128 .LVL49-.LVL37
 3637 00f3 9201     		.uleb128 .LVL50-.LVL37
 3638 00f5 01       		.uleb128 0x1
 3639 00f6 56       		.byte	0x56
 3640 00f7 04       		.byte	0x4
 3641 00f8 9201     		.uleb128 .LVL50-.LVL37
 3642 00fa 9601     		.uleb128 .LFE349-.LVL37
 3643 00fc 04       		.uleb128 0x4
 3644 00fd A3       		.byte	0xa3
ARM GAS  C:\Users\DEVELO~1\AppData\Local\Temp\ccQb9vWk.s 			page 65


 3645 00fe 01       		.uleb128 0x1
 3646 00ff 50       		.byte	0x50
 3647 0100 9F       		.byte	0x9f
 3648 0101 00       		.byte	0
 3649              	.LVUS17:
 3650 0102 00       		.uleb128 .LVU171
 3651 0103 05       		.uleb128 .LVU182
 3652 0104 06       		.uleb128 .LVU183
 3653 0105 00       		.uleb128 .LVU188
 3654 0106 00       		.uleb128 .LVU188
 3655 0107 00       		.uleb128 .LVU189
 3656 0108 00       		.uleb128 .LVU189
 3657 0109 00       		.uleb128 .LVU190
 3658 010a 00       		.uleb128 .LVU190
 3659 010b 05       		.uleb128 .LVU195
 3660 010c 06       		.uleb128 .LVU196
 3661 010d 00       		.uleb128 .LVU199
 3662 010e 00       		.uleb128 .LVU199
 3663 010f 00       		.uleb128 .LVU204
 3664              	.LLST17:
 3665 0110 06       		.byte	0x6
 3666 0111 10000000 		.4byte	.LVL39
 3667 0115 04       		.byte	0x4
 3668 0116 00       		.uleb128 .LVL39-.LVL39
 3669 0117 0E       		.uleb128 .LVL42-.LVL39
 3670 0118 01       		.uleb128 0x1
 3671 0119 55       		.byte	0x55
 3672 011a 04       		.byte	0x4
 3673 011b 0E       		.uleb128 .LVL42-.LVL39
 3674 011c 16       		.uleb128 .LVL43-.LVL39
 3675 011d 02       		.uleb128 0x2
 3676 011e 75       		.byte	0x75
 3677 011f 00       		.sleb128 0
 3678 0120 04       		.byte	0x4
 3679 0121 16       		.uleb128 .LVL43-.LVL39
 3680 0122 1A       		.uleb128 .LVL44-.LVL39
 3681 0123 02       		.uleb128 0x2
 3682 0124 73       		.byte	0x73
 3683 0125 00       		.sleb128 0
 3684 0126 04       		.byte	0x4
 3685 0127 1A       		.uleb128 .LVL44-.LVL39
 3686 0128 1C       		.uleb128 .LVL45-.LVL39
 3687 0129 02       		.uleb128 0x2
 3688 012a 72       		.byte	0x72
 3689 012b 00       		.sleb128 0
 3690 012c 04       		.byte	0x4
 3691 012d 1C       		.uleb128 .LVL45-.LVL39
 3692 012e 1C       		.uleb128 .LVL45-.LVL39
 3693 012f 01       		.uleb128 0x1
 3694 0130 52       		.byte	0x52
 3695 0131 04       		.byte	0x4
 3696 0132 1C       		.uleb128 .LVL45-.LVL39
 3697 0133 20       		.uleb128 .LVL46-.LVL39
 3698 0134 02       		.uleb128 0x2
 3699 0135 72       		.byte	0x72
 3700 0136 00       		.sleb128 0
 3701 0137 04       		.byte	0x4
ARM GAS  C:\Users\DEVELO~1\AppData\Local\Temp\ccQb9vWk.s 			page 66


 3702 0138 20       		.uleb128 .LVL46-.LVL39
 3703 0139 2C       		.uleb128 .LVL47-.LVL39
 3704 013a 02       		.uleb128 0x2
 3705 013b 73       		.byte	0x73
 3706 013c 00       		.sleb128 0
 3707 013d 00       		.byte	0
 3708              	.LVUS18:
 3709 013e 00       		.uleb128 .LVU166
 3710 013f 00       		.uleb128 .LVU218
 3711 0140 00       		.uleb128 .LVU218
 3712 0141 00       		.uleb128 .LVU219
 3713 0142 00       		.uleb128 .LVU219
 3714 0143 00       		.uleb128 .LVU239
 3715 0144 00       		.uleb128 .LVU239
 3716 0145 00       		.uleb128 0
 3717              	.LLST18:
 3718 0146 06       		.byte	0x6
 3719 0147 0A000000 		.4byte	.LVL38
 3720 014b 04       		.byte	0x4
 3721 014c 00       		.uleb128 .LVL38-.LVL38
 3722 014d 58       		.uleb128 .LVL48-.LVL38
 3723 014e 01       		.uleb128 0x1
 3724 014f 54       		.byte	0x54
 3725 0150 04       		.byte	0x4
 3726 0151 58       		.uleb128 .LVL48-.LVL38
 3727 0152 5C       		.uleb128 .LVL49-.LVL38
 3728 0153 06       		.uleb128 0x6
 3729 0154 A3       		.byte	0xa3
 3730 0155 01       		.uleb128 0x1
 3731 0156 50       		.byte	0x50
 3732 0157 38       		.byte	0x38
 3733 0158 1C       		.byte	0x1c
 3734 0159 9F       		.byte	0x9f
 3735 015a 04       		.byte	0x4
 3736 015b 5C       		.uleb128 .LVL49-.LVL38
 3737 015c 8801     		.uleb128 .LVL50-.LVL38
 3738 015e 01       		.uleb128 0x1
 3739 015f 54       		.byte	0x54
 3740 0160 04       		.byte	0x4
 3741 0161 8801     		.uleb128 .LVL50-.LVL38
 3742 0163 8C01     		.uleb128 .LFE349-.LVL38
 3743 0165 06       		.uleb128 0x6
 3744 0166 A3       		.byte	0xa3
 3745 0167 01       		.uleb128 0x1
 3746 0168 50       		.byte	0x50
 3747 0169 38       		.byte	0x38
 3748 016a 1C       		.byte	0x1c
 3749 016b 9F       		.byte	0x9f
 3750 016c 00       		.byte	0
 3751              	.LVUS19:
 3752 016d 01       		.uleb128 .LVU167
 3753 016e 00       		.uleb128 .LVU173
 3754 016f 00       		.uleb128 .LVU173
 3755 0170 00       		.uleb128 .LVU177
 3756 0171 00       		.uleb128 .LVU177
 3757 0172 00       		.uleb128 .LVU218
 3758 0173 00       		.uleb128 .LVU218
ARM GAS  C:\Users\DEVELO~1\AppData\Local\Temp\ccQb9vWk.s 			page 67


 3759 0174 00       		.uleb128 .LVU219
 3760 0175 00       		.uleb128 .LVU219
 3761 0176 00       		.uleb128 .LVU239
 3762 0177 00       		.uleb128 .LVU239
 3763 0178 00       		.uleb128 .LVU240
 3764              	.LLST19:
 3765 0179 06       		.byte	0x6
 3766 017a 0A000000 		.4byte	.LVL38
 3767 017e 04       		.byte	0x4
 3768 017f 00       		.uleb128 .LVL38-.LVL38
 3769 0180 08       		.uleb128 .LVL40-.LVL38
 3770 0181 01       		.uleb128 0x1
 3771 0182 57       		.byte	0x57
 3772 0183 04       		.byte	0x4
 3773 0184 08       		.uleb128 .LVL40-.LVL38
 3774 0185 13       		.uleb128 .LVL42-1-.LVL38
 3775 0186 02       		.uleb128 0x2
 3776 0187 74       		.byte	0x74
 3777 0188 00       		.sleb128 0
 3778 0189 04       		.byte	0x4
 3779 018a 13       		.uleb128 .LVL42-1-.LVL38
 3780 018b 58       		.uleb128 .LVL48-.LVL38
 3781 018c 03       		.uleb128 0x3
 3782 018d 77       		.byte	0x77
 3783 018e 74       		.sleb128 -12
 3784 018f 9F       		.byte	0x9f
 3785 0190 04       		.byte	0x4
 3786 0191 58       		.uleb128 .LVL48-.LVL38
 3787 0192 5B       		.uleb128 .LVL49-1-.LVL38
 3788 0193 03       		.uleb128 0x3
 3789 0194 70       		.byte	0x70
 3790 0195 74       		.sleb128 -12
 3791 0196 9F       		.byte	0x9f
 3792 0197 04       		.byte	0x4
 3793 0198 5C       		.uleb128 .LVL49-.LVL38
 3794 0199 8801     		.uleb128 .LVL50-.LVL38
 3795 019b 03       		.uleb128 0x3
 3796 019c 77       		.byte	0x77
 3797 019d 74       		.sleb128 -12
 3798 019e 9F       		.byte	0x9f
 3799 019f 04       		.byte	0x4
 3800 01a0 8801     		.uleb128 .LVL50-.LVL38
 3801 01a2 8B01     		.uleb128 .LVL51-1-.LVL38
 3802 01a4 03       		.uleb128 0x3
 3803 01a5 70       		.byte	0x70
 3804 01a6 74       		.sleb128 -12
 3805 01a7 9F       		.byte	0x9f
 3806 01a8 00       		.byte	0
 3807              	.LVUS4:
 3808 01a9 00       		.uleb128 0
 3809 01aa 00       		.uleb128 .LVU51
 3810 01ab 00       		.uleb128 .LVU51
 3811 01ac 00       		.uleb128 0
 3812              	.LLST4:
 3813 01ad 06       		.byte	0x6
 3814 01ae 00000000 		.4byte	.LVL8
 3815 01b2 04       		.byte	0x4
ARM GAS  C:\Users\DEVELO~1\AppData\Local\Temp\ccQb9vWk.s 			page 68


 3816 01b3 00       		.uleb128 .LVL8-.LVL8
 3817 01b4 10       		.uleb128 .LVL9-.LVL8
 3818 01b5 01       		.uleb128 0x1
 3819 01b6 50       		.byte	0x50
 3820 01b7 04       		.byte	0x4
 3821 01b8 10       		.uleb128 .LVL9-.LVL8
 3822 01b9 9402     		.uleb128 .LFE348-.LVL8
 3823 01bb 01       		.uleb128 0x1
 3824 01bc 58       		.byte	0x58
 3825 01bd 00       		.byte	0
 3826              	.LVUS5:
 3827 01be 00       		.uleb128 0
 3828 01bf 00       		.uleb128 .LVU60
 3829 01c0 00       		.uleb128 .LVU60
 3830 01c1 00       		.uleb128 0
 3831              	.LLST5:
 3832 01c2 06       		.byte	0x6
 3833 01c3 00000000 		.4byte	.LVL8
 3834 01c7 04       		.byte	0x4
 3835 01c8 00       		.uleb128 .LVL8-.LVL8
 3836 01c9 2D       		.uleb128 .LVL12-1-.LVL8
 3837 01ca 01       		.uleb128 0x1
 3838 01cb 51       		.byte	0x51
 3839 01cc 04       		.byte	0x4
 3840 01cd 2D       		.uleb128 .LVL12-1-.LVL8
 3841 01ce 9402     		.uleb128 .LFE348-.LVL8
 3842 01d0 02       		.uleb128 0x2
 3843 01d1 91       		.byte	0x91
 3844 01d2 54       		.sleb128 -44
 3845 01d3 00       		.byte	0
 3846              	.LVUS6:
 3847 01d4 00       		.uleb128 0
 3848 01d5 00       		.uleb128 .LVU55
 3849 01d6 00       		.uleb128 .LVU55
 3850 01d7 00       		.uleb128 .LVU58
 3851 01d8 00       		.uleb128 .LVU58
 3852 01d9 00       		.uleb128 .LVU60
 3853 01da 00       		.uleb128 .LVU60
 3854 01db 00       		.uleb128 0
 3855              	.LLST6:
 3856 01dc 06       		.byte	0x6
 3857 01dd 00000000 		.4byte	.LVL8
 3858 01e1 04       		.byte	0x4
 3859 01e2 00       		.uleb128 .LVL8-.LVL8
 3860 01e3 20       		.uleb128 .LVL10-.LVL8
 3861 01e4 01       		.uleb128 0x1
 3862 01e5 52       		.byte	0x52
 3863 01e6 04       		.byte	0x4
 3864 01e7 20       		.uleb128 .LVL10-.LVL8
 3865 01e8 2A       		.uleb128 .LVL11-.LVL8
 3866 01e9 04       		.uleb128 0x4
 3867 01ea A3       		.byte	0xa3
 3868 01eb 01       		.uleb128 0x1
 3869 01ec 52       		.byte	0x52
 3870 01ed 9F       		.byte	0x9f
 3871 01ee 04       		.byte	0x4
 3872 01ef 2A       		.uleb128 .LVL11-.LVL8
ARM GAS  C:\Users\DEVELO~1\AppData\Local\Temp\ccQb9vWk.s 			page 69


 3873 01f0 2D       		.uleb128 .LVL12-1-.LVL8
 3874 01f1 01       		.uleb128 0x1
 3875 01f2 52       		.byte	0x52
 3876 01f3 04       		.byte	0x4
 3877 01f4 2D       		.uleb128 .LVL12-1-.LVL8
 3878 01f5 9402     		.uleb128 .LFE348-.LVL8
 3879 01f7 01       		.uleb128 0x1
 3880 01f8 5A       		.byte	0x5a
 3881 01f9 00       		.byte	0
 3882              	.LVUS7:
 3883 01fa 00       		.uleb128 .LVU62
 3884 01fb 00       		.uleb128 .LVU64
 3885 01fc 00       		.uleb128 .LVU64
 3886 01fd 00       		.uleb128 .LVU66
 3887 01fe 02       		.uleb128 .LVU68
 3888 01ff 00       		.uleb128 .LVU84
 3889 0200 00       		.uleb128 .LVU84
 3890 0201 00       		.uleb128 .LVU85
 3891 0202 00       		.uleb128 .LVU101
 3892 0203 00       		.uleb128 .LVU117
 3893 0204 00       		.uleb128 .LVU117
 3894 0205 00       		.uleb128 .LVU121
 3895 0206 00       		.uleb128 .LVU129
 3896 0207 00       		.uleb128 .LVU155
 3897 0208 00       		.uleb128 .LVU155
 3898 0209 00       		.uleb128 0
 3899              	.LLST7:
 3900 020a 06       		.byte	0x6
 3901 020b 32000000 		.4byte	.LVL13
 3902 020f 04       		.byte	0x4
 3903 0210 00       		.uleb128 .LVL13-.LVL13
 3904 0211 06       		.uleb128 .LVL14-.LVL13
 3905 0212 03       		.uleb128 0x3
 3906 0213 78       		.byte	0x78
 3907 0214 04       		.sleb128 4
 3908 0215 9F       		.byte	0x9f
 3909 0216 04       		.byte	0x4
 3910 0217 06       		.uleb128 .LVL14-.LVL13
 3911 0218 0E       		.uleb128 .LVL15-.LVL13
 3912 0219 01       		.uleb128 0x1
 3913 021a 51       		.byte	0x51
 3914 021b 04       		.byte	0x4
 3915 021c 0E       		.uleb128 .LVL15-.LVL13
 3916 021d 38       		.uleb128 .LVL18-.LVL13
 3917 021e 01       		.uleb128 0x1
 3918 021f 52       		.byte	0x52
 3919 0220 04       		.byte	0x4
 3920 0221 38       		.uleb128 .LVL18-.LVL13
 3921 0222 3C       		.uleb128 .LVL19-.LVL13
 3922 0223 01       		.uleb128 0x1
 3923 0224 51       		.byte	0x51
 3924 0225 04       		.byte	0x4
 3925 0226 68       		.uleb128 .LVL24-.LVL13
 3926 0227 8801     		.uleb128 .LVL28-.LVL13
 3927 0229 01       		.uleb128 0x1
 3928 022a 52       		.byte	0x52
 3929 022b 04       		.byte	0x4
ARM GAS  C:\Users\DEVELO~1\AppData\Local\Temp\ccQb9vWk.s 			page 70


 3930 022c 8801     		.uleb128 .LVL28-.LVL13
 3931 022e 9201     		.uleb128 .LVL29-.LVL13
 3932 0230 01       		.uleb128 0x1
 3933 0231 53       		.byte	0x53
 3934 0232 04       		.byte	0x4
 3935 0233 A601     		.uleb128 .LVL31-.LVL13
 3936 0235 DA01     		.uleb128 .LVL36-.LVL13
 3937 0237 01       		.uleb128 0x1
 3938 0238 52       		.byte	0x52
 3939 0239 04       		.byte	0x4
 3940 023a DA01     		.uleb128 .LVL36-.LVL13
 3941 023c E201     		.uleb128 .LFE348-.LVL13
 3942 023e 01       		.uleb128 0x1
 3943 023f 53       		.byte	0x53
 3944 0240 00       		.byte	0
 3945              	.LVUS8:
 3946 0241 01       		.uleb128 .LVU67
 3947 0242 00       		.uleb128 .LVU84
 3948 0243 00       		.uleb128 .LVU84
 3949 0244 00       		.uleb128 .LVU85
 3950 0245 01       		.uleb128 .LVU94
 3951 0246 01       		.uleb128 .LVU100
 3952 0247 00       		.uleb128 .LVU101
 3953 0248 00       		.uleb128 .LVU117
 3954 0249 00       		.uleb128 .LVU117
 3955 024a 00       		.uleb128 .LVU127
 3956 024b 00       		.uleb128 .LVU129
 3957 024c 00       		.uleb128 .LVU155
 3958 024d 00       		.uleb128 .LVU155
 3959 024e 00       		.uleb128 0
 3960              	.LLST8:
 3961 024f 06       		.byte	0x6
 3962 0250 40000000 		.4byte	.LVL15
 3963 0254 04       		.byte	0x4
 3964 0255 00       		.uleb128 .LVL15-.LVL15
 3965 0256 2A       		.uleb128 .LVL18-.LVL15
 3966 0257 01       		.uleb128 0x1
 3967 0258 52       		.byte	0x52
 3968 0259 04       		.byte	0x4
 3969 025a 2A       		.uleb128 .LVL18-.LVL15
 3970 025b 2E       		.uleb128 .LVL19-.LVL15
 3971 025c 01       		.uleb128 0x1
 3972 025d 51       		.byte	0x51
 3973 025e 04       		.byte	0x4
 3974 025f 48       		.uleb128 .LVL22-.LVL15
 3975 0260 52       		.uleb128 .LVL23-.LVL15
 3976 0261 03       		.uleb128 0x3
 3977 0262 70       		.byte	0x70
 3978 0263 78       		.sleb128 -8
 3979 0264 9F       		.byte	0x9f
 3980 0265 04       		.byte	0x4
 3981 0266 5A       		.uleb128 .LVL24-.LVL15
 3982 0267 7A       		.uleb128 .LVL28-.LVL15
 3983 0268 01       		.uleb128 0x1
 3984 0269 52       		.byte	0x52
 3985 026a 04       		.byte	0x4
 3986 026b 7A       		.uleb128 .LVL28-.LVL15
ARM GAS  C:\Users\DEVELO~1\AppData\Local\Temp\ccQb9vWk.s 			page 71


 3987 026c 8F01     		.uleb128 .LVL30-1-.LVL15
 3988 026e 01       		.uleb128 0x1
 3989 026f 53       		.byte	0x53
 3990 0270 04       		.byte	0x4
 3991 0271 9801     		.uleb128 .LVL31-.LVL15
 3992 0273 CC01     		.uleb128 .LVL36-.LVL15
 3993 0275 01       		.uleb128 0x1
 3994 0276 52       		.byte	0x52
 3995 0277 04       		.byte	0x4
 3996 0278 CC01     		.uleb128 .LVL36-.LVL15
 3997 027a D401     		.uleb128 .LFE348-.LVL15
 3998 027c 01       		.uleb128 0x1
 3999 027d 53       		.byte	0x53
 4000 027e 00       		.byte	0
 4001              	.LVUS9:
 4002 027f 00       		.uleb128 .LVU76
 4003 0280 00       		.uleb128 .LVU83
 4004 0281 00       		.uleb128 .LVU83
 4005 0282 00       		.uleb128 .LVU85
 4006 0283 00       		.uleb128 .LVU91
 4007 0284 01       		.uleb128 .LVU100
 4008 0285 00       		.uleb128 .LVU101
 4009 0286 00       		.uleb128 .LVU108
 4010 0287 00       		.uleb128 .LVU108
 4011 0288 00       		.uleb128 .LVU110
 4012 0289 00       		.uleb128 .LVU110
 4013 028a 00       		.uleb128 .LVU117
 4014 028b 00       		.uleb128 .LVU117
 4015 028c 00       		.uleb128 .LVU121
 4016 028d 00       		.uleb128 .LVU129
 4017 028e 00       		.uleb128 .LVU154
 4018 028f 00       		.uleb128 .LVU154
 4019 0290 00       		.uleb128 .LVU155
 4020 0291 00       		.uleb128 .LVU155
 4021 0292 00       		.uleb128 0
 4022              	.LLST9:
 4023 0293 06       		.byte	0x6
 4024 0294 52000000 		.4byte	.LVL16
 4025 0298 04       		.byte	0x4
 4026 0299 00       		.uleb128 .LVL16-.LVL16
 4027 029a 14       		.uleb128 .LVL17-.LVL16
 4028 029b 01       		.uleb128 0x1
 4029 029c 53       		.byte	0x53
 4030 029d 04       		.byte	0x4
 4031 029e 14       		.uleb128 .LVL17-.LVL16
 4032 029f 1C       		.uleb128 .LVL19-.LVL16
 4033 02a0 03       		.uleb128 0x3
 4034 02a1 74       		.byte	0x74
 4035 02a2 78       		.sleb128 -8
 4036 02a3 9F       		.byte	0x9f
 4037 02a4 04       		.byte	0x4
 4038 02a5 32       		.uleb128 .LVL21-.LVL16
 4039 02a6 40       		.uleb128 .LVL23-.LVL16
 4040 02a7 01       		.uleb128 0x1
 4041 02a8 50       		.byte	0x50
 4042 02a9 04       		.byte	0x4
 4043 02aa 48       		.uleb128 .LVL24-.LVL16
ARM GAS  C:\Users\DEVELO~1\AppData\Local\Temp\ccQb9vWk.s 			page 72


 4044 02ab 52       		.uleb128 .LVL25-.LVL16
 4045 02ac 01       		.uleb128 0x1
 4046 02ad 53       		.byte	0x53
 4047 02ae 04       		.byte	0x4
 4048 02af 52       		.uleb128 .LVL25-.LVL16
 4049 02b0 5A       		.uleb128 .LVL26-.LVL16
 4050 02b1 03       		.uleb128 0x3
 4051 02b2 74       		.byte	0x74
 4052 02b3 78       		.sleb128 -8
 4053 02b4 9F       		.byte	0x9f
 4054 02b5 04       		.byte	0x4
 4055 02b6 5A       		.uleb128 .LVL26-.LVL16
 4056 02b7 68       		.uleb128 .LVL28-.LVL16
 4057 02b8 0B       		.uleb128 0xb
 4058 02b9 72       		.byte	0x72
 4059 02ba 00       		.sleb128 0
 4060 02bb 77       		.byte	0x77
 4061 02bc 00       		.sleb128 0
 4062 02bd 22       		.byte	0x22
 4063 02be 76       		.byte	0x76
 4064 02bf 00       		.sleb128 0
 4065 02c0 1A       		.byte	0x1a
 4066 02c1 38       		.byte	0x38
 4067 02c2 1C       		.byte	0x1c
 4068 02c3 9F       		.byte	0x9f
 4069 02c4 04       		.byte	0x4
 4070 02c5 68       		.uleb128 .LVL28-.LVL16
 4071 02c6 72       		.uleb128 .LVL29-.LVL16
 4072 02c7 0B       		.uleb128 0xb
 4073 02c8 73       		.byte	0x73
 4074 02c9 00       		.sleb128 0
 4075 02ca 77       		.byte	0x77
 4076 02cb 00       		.sleb128 0
 4077 02cc 22       		.byte	0x22
 4078 02cd 76       		.byte	0x76
 4079 02ce 00       		.sleb128 0
 4080 02cf 1A       		.byte	0x1a
 4081 02d0 38       		.byte	0x38
 4082 02d1 1C       		.byte	0x1c
 4083 02d2 9F       		.byte	0x9f
 4084 02d3 04       		.byte	0x4
 4085 02d4 8601     		.uleb128 .LVL31-.LVL16
 4086 02d6 B601     		.uleb128 .LVL35-.LVL16
 4087 02d8 01       		.uleb128 0x1
 4088 02d9 53       		.byte	0x53
 4089 02da 04       		.byte	0x4
 4090 02db B601     		.uleb128 .LVL35-.LVL16
 4091 02dd BA01     		.uleb128 .LVL36-.LVL16
 4092 02df 0B       		.uleb128 0xb
 4093 02e0 72       		.byte	0x72
 4094 02e1 00       		.sleb128 0
 4095 02e2 77       		.byte	0x77
 4096 02e3 00       		.sleb128 0
 4097 02e4 22       		.byte	0x22
 4098 02e5 76       		.byte	0x76
 4099 02e6 00       		.sleb128 0
 4100 02e7 1A       		.byte	0x1a
ARM GAS  C:\Users\DEVELO~1\AppData\Local\Temp\ccQb9vWk.s 			page 73


 4101 02e8 38       		.byte	0x38
 4102 02e9 1C       		.byte	0x1c
 4103 02ea 9F       		.byte	0x9f
 4104 02eb 04       		.byte	0x4
 4105 02ec BA01     		.uleb128 .LVL36-.LVL16
 4106 02ee C201     		.uleb128 .LFE348-.LVL16
 4107 02f0 0B       		.uleb128 0xb
 4108 02f1 73       		.byte	0x73
 4109 02f2 00       		.sleb128 0
 4110 02f3 77       		.byte	0x77
 4111 02f4 00       		.sleb128 0
 4112 02f5 22       		.byte	0x22
 4113 02f6 76       		.byte	0x76
 4114 02f7 00       		.sleb128 0
 4115 02f8 1A       		.byte	0x1a
 4116 02f9 38       		.byte	0x38
 4117 02fa 1C       		.byte	0x1c
 4118 02fb 9F       		.byte	0x9f
 4119 02fc 00       		.byte	0
 4120              	.LVUS10:
 4121 02fd 01       		.uleb128 .LVU59
 4122 02fe 00       		.uleb128 .LVU121
 4123 02ff 00       		.uleb128 .LVU121
 4124 0300 00       		.uleb128 .LVU129
 4125 0301 00       		.uleb128 .LVU129
 4126 0302 00       		.uleb128 .LVU142
 4127 0303 00       		.uleb128 .LVU142
 4128 0304 00       		.uleb128 .LVU151
 4129 0305 00       		.uleb128 .LVU151
 4130 0306 00       		.uleb128 0
 4131              	.LLST10:
 4132 0307 06       		.byte	0x6
 4133 0308 2A000000 		.4byte	.LVL11
 4134 030c 04       		.byte	0x4
 4135 030d 00       		.uleb128 .LVL11-.LVL11
 4136 030e 9A01     		.uleb128 .LVL29-.LVL11
 4137 0310 01       		.uleb128 0x1
 4138 0311 59       		.byte	0x59
 4139 0312 04       		.byte	0x4
 4140 0313 9A01     		.uleb128 .LVL29-.LVL11
 4141 0315 AE01     		.uleb128 .LVL31-.LVL11
 4142 0317 08       		.uleb128 0x8
 4143 0318 91       		.byte	0x91
 4144 0319 54       		.sleb128 -44
 4145 031a 06       		.byte	0x6
 4146 031b 23       		.byte	0x23
 4147 031c 07       		.uleb128 0x7
 4148 031d 33       		.byte	0x33
 4149 031e 25       		.byte	0x25
 4150 031f 9F       		.byte	0x9f
 4151 0320 04       		.byte	0x4
 4152 0321 AE01     		.uleb128 .LVL31-.LVL11
 4153 0323 C801     		.uleb128 .LVL32-.LVL11
 4154 0325 01       		.uleb128 0x1
 4155 0326 59       		.byte	0x59
 4156 0327 04       		.byte	0x4
 4157 0328 C801     		.uleb128 .LVL32-.LVL11
ARM GAS  C:\Users\DEVELO~1\AppData\Local\Temp\ccQb9vWk.s 			page 74


 4158 032a DA01     		.uleb128 .LVL34-.LVL11
 4159 032c 03       		.uleb128 0x3
 4160 032d 79       		.byte	0x79
 4161 032e 7F       		.sleb128 -1
 4162 032f 9F       		.byte	0x9f
 4163 0330 04       		.byte	0x4
 4164 0331 DA01     		.uleb128 .LVL34-.LVL11
 4165 0333 EA01     		.uleb128 .LFE348-.LVL11
 4166 0335 01       		.uleb128 0x1
 4167 0336 59       		.byte	0x59
 4168 0337 00       		.byte	0
 4169              	.LVUS14:
 4170 0338 02       		.uleb128 .LVU131
 4171 0339 00       		.uleb128 .LVU144
 4172 033a 00       		.uleb128 .LVU144
 4173 033b 00       		.uleb128 .LVU151
 4174              	.LLST14:
 4175 033c 06       		.byte	0x6
 4176 033d D8000000 		.4byte	.LVL31
 4177 0341 04       		.byte	0x4
 4178 0342 00       		.uleb128 .LVL31-.LVL31
 4179 0343 20       		.uleb128 .LVL33-.LVL31
 4180 0344 01       		.uleb128 0x1
 4181 0345 50       		.byte	0x50
 4182 0346 04       		.byte	0x4
 4183 0347 20       		.uleb128 .LVL33-.LVL31
 4184 0348 2C       		.uleb128 .LVL34-.LVL31
 4185 0349 05       		.uleb128 0x5
 4186 034a 7E       		.byte	0x7e
 4187 034b 00       		.sleb128 0
 4188 034c 33       		.byte	0x33
 4189 034d 26       		.byte	0x26
 4190 034e 9F       		.byte	0x9f
 4191 034f 00       		.byte	0
 4192              	.LVUS15:
 4193 0350 00       		.uleb128 .LVU144
 4194 0351 00       		.uleb128 .LVU151
 4195              	.LLST15:
 4196 0352 08       		.byte	0x8
 4197 0353 F8000000 		.4byte	.LVL33
 4198 0357 0C       		.uleb128 .LVL34-.LVL33
 4199 0358 01       		.uleb128 0x1
 4200 0359 50       		.byte	0x50
 4201 035a 00       		.byte	0
 4202              	.LVUS12:
 4203 035b 00       		.uleb128 .LVU113
 4204 035c 00       		.uleb128 .LVU121
 4205              	.LLST12:
 4206 035d 08       		.byte	0x8
 4207 035e B4000000 		.4byte	.LVL27
 4208 0362 10       		.uleb128 .LVL29-.LVL27
 4209 0363 01       		.uleb128 0x1
 4210 0364 50       		.byte	0x50
 4211 0365 00       		.byte	0
 4212              	.LVUS0:
 4213 0366 00       		.uleb128 0
 4214 0367 00       		.uleb128 .LVU16
ARM GAS  C:\Users\DEVELO~1\AppData\Local\Temp\ccQb9vWk.s 			page 75


 4215 0368 00       		.uleb128 .LVU16
 4216 0369 00       		.uleb128 .LVU39
 4217 036a 00       		.uleb128 .LVU39
 4218 036b 00       		.uleb128 0
 4219              	.LLST0:
 4220 036c 06       		.byte	0x6
 4221 036d 00000000 		.4byte	.LVL1
 4222 0371 04       		.byte	0x4
 4223 0372 00       		.uleb128 .LVL1-.LVL1
 4224 0373 06       		.uleb128 .LVL3-.LVL1
 4225 0374 01       		.uleb128 0x1
 4226 0375 50       		.byte	0x50
 4227 0376 04       		.byte	0x4
 4228 0377 06       		.uleb128 .LVL3-.LVL1
 4229 0378 29       		.uleb128 .LVL7-1-.LVL1
 4230 0379 03       		.uleb128 0x3
 4231 037a 70       		.byte	0x70
 4232 037b 74       		.sleb128 -12
 4233 037c 9F       		.byte	0x9f
 4234 037d 04       		.byte	0x4
 4235 037e 29       		.uleb128 .LVL7-1-.LVL1
 4236 037f 2A       		.uleb128 .LFE347-.LVL1
 4237 0380 04       		.uleb128 0x4
 4238 0381 A3       		.byte	0xa3
 4239 0382 01       		.uleb128 0x1
 4240 0383 50       		.byte	0x50
 4241 0384 9F       		.byte	0x9f
 4242 0385 00       		.byte	0
 4243              	.LVUS1:
 4244 0386 00       		.uleb128 0
 4245 0387 00       		.uleb128 .LVU18
 4246 0388 00       		.uleb128 .LVU18
 4247 0389 00       		.uleb128 0
 4248              	.LLST1:
 4249 038a 06       		.byte	0x6
 4250 038b 00000000 		.4byte	.LVL1
 4251 038f 04       		.byte	0x4
 4252 0390 00       		.uleb128 .LVL1-.LVL1
 4253 0391 0C       		.uleb128 .LVL4-.LVL1
 4254 0392 01       		.uleb128 0x1
 4255 0393 51       		.byte	0x51
 4256 0394 04       		.byte	0x4
 4257 0395 0C       		.uleb128 .LVL4-.LVL1
 4258 0396 2A       		.uleb128 .LFE347-.LVL1
 4259 0397 04       		.uleb128 0x4
 4260 0398 A3       		.byte	0xa3
 4261 0399 01       		.uleb128 0x1
 4262 039a 51       		.byte	0x51
 4263 039b 9F       		.byte	0x9f
 4264 039c 00       		.byte	0
 4265              	.LVUS2:
 4266 039d 00       		.uleb128 0
 4267 039e 00       		.uleb128 .LVU15
 4268 039f 00       		.uleb128 .LVU15
 4269 03a0 00       		.uleb128 .LVU19
 4270 03a1 00       		.uleb128 .LVU19
 4271 03a2 04       		.uleb128 .LVU26
ARM GAS  C:\Users\DEVELO~1\AppData\Local\Temp\ccQb9vWk.s 			page 76


 4272              	.LLST2:
 4273 03a3 06       		.byte	0x6
 4274 03a4 00000000 		.4byte	.LVL1
 4275 03a8 04       		.byte	0x4
 4276 03a9 00       		.uleb128 .LVL1-.LVL1
 4277 03aa 04       		.uleb128 .LVL2-.LVL1
 4278 03ab 01       		.uleb128 0x1
 4279 03ac 52       		.byte	0x52
 4280 03ad 04       		.byte	0x4
 4281 03ae 04       		.uleb128 .LVL2-.LVL1
 4282 03af 0E       		.uleb128 .LVL5-.LVL1
 4283 03b0 03       		.uleb128 0x3
 4284 03b1 72       		.byte	0x72
 4285 03b2 08       		.sleb128 8
 4286 03b3 9F       		.byte	0x9f
 4287 03b4 04       		.byte	0x4
 4288 03b5 0E       		.uleb128 .LVL5-.LVL1
 4289 03b6 14       		.uleb128 .LVL6-.LVL1
 4290 03b7 04       		.uleb128 0x4
 4291 03b8 A3       		.byte	0xa3
 4292 03b9 01       		.uleb128 0x1
 4293 03ba 52       		.byte	0x52
 4294 03bb 9F       		.byte	0x9f
 4295 03bc 00       		.byte	0
 4296              	.LVUS3:
 4297 03bd 00       		.uleb128 .LVU22
 4298 03be 00       		.uleb128 .LVU39
 4299 03bf 00       		.uleb128 .LVU39
 4300 03c0 00       		.uleb128 0
 4301              	.LLST3:
 4302 03c1 06       		.byte	0x6
 4303 03c2 14000000 		.4byte	.LVL6
 4304 03c6 04       		.byte	0x4
 4305 03c7 00       		.uleb128 .LVL6-.LVL6
 4306 03c8 15       		.uleb128 .LVL7-1-.LVL6
 4307 03c9 01       		.uleb128 0x1
 4308 03ca 53       		.byte	0x53
 4309 03cb 04       		.byte	0x4
 4310 03cc 15       		.uleb128 .LVL7-1-.LVL6
 4311 03cd 16       		.uleb128 .LFE347-.LVL6
 4312 03ce 09       		.uleb128 0x9
 4313 03cf A3       		.byte	0xa3
 4314 03d0 01       		.uleb128 0x1
 4315 03d1 51       		.byte	0x51
 4316 03d2 23       		.byte	0x23
 4317 03d3 07       		.uleb128 0x7
 4318 03d4 09       		.byte	0x9
 4319 03d5 F8       		.byte	0xf8
 4320 03d6 1A       		.byte	0x1a
 4321 03d7 9F       		.byte	0x9f
 4322 03d8 00       		.byte	0
 4323              	.Ldebug_loc3:
 4324              		.section	.debug_aranges,"",%progbits
 4325 0000 3C000000 		.4byte	0x3c
 4326 0004 0200     		.2byte	0x2
 4327 0006 00000000 		.4byte	.Ldebug_info0
 4328 000a 04       		.byte	0x4
ARM GAS  C:\Users\DEVELO~1\AppData\Local\Temp\ccQb9vWk.s 			page 77


 4329 000b 00       		.byte	0
 4330 000c 0000     		.2byte	0
 4331 000e 0000     		.2byte	0
 4332 0010 00000000 		.4byte	.LFB346
 4333 0014 1C000000 		.4byte	.LFE346-.LFB346
 4334 0018 00000000 		.4byte	.LFB347
 4335 001c 2A000000 		.4byte	.LFE347-.LFB347
 4336 0020 00000000 		.4byte	.LFB348
 4337 0024 14010000 		.4byte	.LFE348-.LFB348
 4338 0028 00000000 		.4byte	.LFB349
 4339 002c 96000000 		.4byte	.LFE349-.LFB349
 4340 0030 00000000 		.4byte	.LFB350
 4341 0034 64000000 		.4byte	.LFE350-.LFB350
 4342 0038 00000000 		.4byte	0
 4343 003c 00000000 		.4byte	0
 4344              		.section	.debug_rnglists,"",%progbits
 4345              	.Ldebug_ranges0:
 4346 0000 53000000 		.4byte	.Ldebug_ranges3-.Ldebug_ranges2
 4347              	.Ldebug_ranges2:
 4348 0004 0500     		.2byte	0x5
 4349 0006 04       		.byte	0x4
 4350 0007 00       		.byte	0
 4351 0008 00000000 		.4byte	0
 4352              	.LLRL11:
 4353 000c 05       		.byte	0x5
 4354 000d A2000000 		.4byte	.LBB2
 4355 0011 04       		.byte	0x4
 4356 0012 00       		.uleb128 .LBB2-.LBB2
 4357 0013 06       		.uleb128 .LBE2-.LBB2
 4358 0014 04       		.byte	0x4
 4359 0015 0A       		.uleb128 .LBB5-.LBB2
 4360 0016 12       		.uleb128 .LBE5-.LBB2
 4361 0017 04       		.byte	0x4
 4362 0018 14       		.uleb128 .LBB7-.LBB2
 4363 0019 22       		.uleb128 .LBE7-.LBB2
 4364 001a 00       		.byte	0
 4365              	.LLRL13:
 4366 001b 05       		.byte	0x5
 4367 001c A8000000 		.4byte	.LBB3
 4368 0020 04       		.byte	0x4
 4369 0021 00       		.uleb128 .LBB3-.LBB3
 4370 0022 04       		.uleb128 .LBE3-.LBB3
 4371 0023 04       		.byte	0x4
 4372 0024 0C       		.uleb128 .LBB6-.LBB3
 4373 0025 0E       		.uleb128 .LBE6-.LBB3
 4374 0026 04       		.byte	0x4
 4375 0027 30       		.uleb128 .LBB8-.LBB3
 4376 0028 5C       		.uleb128 .LBE8-.LBB3
 4377 0029 00       		.byte	0
 4378              	.LLRL27:
 4379 002a 05       		.byte	0x5
 4380 002b 2A000000 		.4byte	.LBB9
 4381 002f 04       		.byte	0x4
 4382 0030 00       		.uleb128 .LBB9-.LBB9
 4383 0031 02       		.uleb128 .LBE9-.LBB9
 4384 0032 04       		.byte	0x4
 4385 0033 08       		.uleb128 .LBB10-.LBB9
ARM GAS  C:\Users\DEVELO~1\AppData\Local\Temp\ccQb9vWk.s 			page 78


 4386 0034 0E       		.uleb128 .LBE10-.LBB9
 4387 0035 00       		.byte	0
 4388              	.LLRL28:
 4389 0036 07       		.byte	0x7
 4390 0037 00000000 		.4byte	.LFB346
 4391 003b 1C       		.uleb128 .LFE346-.LFB346
 4392 003c 07       		.byte	0x7
 4393 003d 00000000 		.4byte	.LFB347
 4394 0041 2A       		.uleb128 .LFE347-.LFB347
 4395 0042 07       		.byte	0x7
 4396 0043 00000000 		.4byte	.LFB348
 4397 0047 9402     		.uleb128 .LFE348-.LFB348
 4398 0049 07       		.byte	0x7
 4399 004a 00000000 		.4byte	.LFB349
 4400 004e 9601     		.uleb128 .LFE349-.LFB349
 4401 0050 07       		.byte	0x7
 4402 0051 00000000 		.4byte	.LFB350
 4403 0055 64       		.uleb128 .LFE350-.LFB350
 4404 0056 00       		.byte	0
 4405              	.Ldebug_ranges3:
 4406              		.section	.debug_line,"",%progbits
 4407              	.Ldebug_line0:
 4408 0000 86060000 		.section	.debug_str,"MS",%progbits,1
 4408      03008D02 
 4408      00000201 
 4408      FB0E0D00 
 4408      01010101 
 4409              	.LASF51:
 4410 0000 636F7265 		.ascii	"core_id\000"
 4410      5F696400 
 4411              	.LASF139:
 4412 0008 746F7461 		.ascii	"totalp\000"
 4412      6C7000
 4413              	.LASF116:
 4414 000f 72656164 		.ascii	"ready_list_t\000"
 4414      795F6C69 
 4414      73745F74 
 4414      00
 4415              	.LASF4:
 4416 001c 73697A65 		.ascii	"size_t\000"
 4416      5F7400
 4417              	.LASF105:
 4418 0023 7264796D 		.ascii	"rdymsg\000"
 4418      736700
 4419              	.LASF52:
 4420 002a 72666375 		.ascii	"rfcu\000"
 4420      00
 4421              	.LASF5:
 4422 002f 5F5F7569 		.ascii	"__uint8_t\000"
 4422      6E74385F 
 4422      7400
 4423              	.LASF71:
 4424 0039 70726576 		.ascii	"prev\000"
 4424      00
 4425              	.LASF92:
 4426 003e 706F7274 		.ascii	"port_intctx\000"
 4426      5F696E74 
ARM GAS  C:\Users\DEVELO~1\AppData\Local\Temp\ccQb9vWk.s 			page 79


 4426      63747800 
 4427              	.LASF133:
 4428 004a 70616765 		.ascii	"pages\000"
 4428      7300
 4429              	.LASF49:
 4430 0050 76746C69 		.ascii	"vtlist\000"
 4430      737400
 4431              	.LASF128:
 4432 0057 70726F76 		.ascii	"provider\000"
 4432      69646572 
 4432      00
 4433              	.LASF82:
 4434 0060 74797065 		.ascii	"type\000"
 4434      00
 4435              	.LASF85:
 4436 0065 74726163 		.ascii	"trace_event_t\000"
 4436      655F6576 
 4436      656E745F 
 4436      7400
 4437              	.LASF80:
 4438 0073 68616C74 		.ascii	"halt\000"
 4438      00
 4439              	.LASF106:
 4440 0078 65786974 		.ascii	"exitcode\000"
 4440      636F6465 
 4440      00
 4441              	.LASF54:
 4442 0081 6D61696E 		.ascii	"mainthread\000"
 4442      74687265 
 4442      616400
 4443              	.LASF108:
 4444 008c 73656E74 		.ascii	"sentmsg\000"
 4444      6D736700 
 4445              	.LASF77:
 4446 0094 64656C74 		.ascii	"delta\000"
 4446      6100
 4447              	.LASF138:
 4448 009a 68656170 		.ascii	"heapp\000"
 4448      7000
 4449              	.LASF68:
 4450 00a0 6E657874 		.ascii	"next\000"
 4450      00
 4451              	.LASF135:
 4452 00a5 63684D74 		.ascii	"chMtxUnlock\000"
 4452      78556E6C 
 4452      6F636B00 
 4453              	.LASF3:
 4454 00b1 7369676E 		.ascii	"signed char\000"
 4454      65642063 
 4454      68617200 
 4455              	.LASF142:
 4456 00bd 6C706167 		.ascii	"lpages\000"
 4456      657300
 4457              	.LASF13:
 4458 00c4 6C6F6E67 		.ascii	"long unsigned int\000"
 4458      20756E73 
 4458      69676E65 
ARM GAS  C:\Users\DEVELO~1\AppData\Local\Temp\ccQb9vWk.s 			page 80


 4458      6420696E 
 4458      7400
 4459              	.LASF76:
 4460 00d6 63685F64 		.ascii	"ch_delta_list\000"
 4460      656C7461 
 4460      5F6C6973 
 4460      7400
 4461              	.LASF15:
 4462 00e4 6C6F6E67 		.ascii	"long long unsigned int\000"
 4462      206C6F6E 
 4462      6720756E 
 4462      7369676E 
 4462      65642069 
 4463              	.LASF149:
 4464 00fb 63684865 		.ascii	"chHeapFree\000"
 4464      61704672 
 4464      656500
 4465              	.LASF36:
 4466 0106 73746174 		.ascii	"state\000"
 4466      6500
 4467              	.LASF11:
 4468 010c 6C6F6E67 		.ascii	"long int\000"
 4468      20696E74 
 4468      00
 4469              	.LASF24:
 4470 0115 74737461 		.ascii	"tstate_t\000"
 4470      74655F74 
 4470      00
 4471              	.LASF57:
 4472 011e 63685F72 		.ascii	"ch_rfcu\000"
 4472      66637500 
 4473              	.LASF126:
 4474 0126 6D656D6F 		.ascii	"memory_heap_t\000"
 4474      72795F68 
 4474      6561705F 
 4474      7400
 4475              	.LASF70:
 4476 0134 63685F71 		.ascii	"ch_queue\000"
 4476      75657565 
 4476      00
 4477              	.LASF1:
 4478 013d 6C6F6E67 		.ascii	"long long int\000"
 4478      206C6F6E 
 4478      6720696E 
 4478      7400
 4479              	.LASF17:
 4480 014b 75696E74 		.ascii	"uint16_t\000"
 4480      31365F74 
 4480      00
 4481              	.LASF91:
 4482 0154 646F7562 		.ascii	"double\000"
 4482      6C6500
 4483              	.LASF89:
 4484 015b 74726163 		.ascii	"trace_buffer_t\000"
 4484      655F6275 
 4484      66666572 
 4484      5F7400
ARM GAS  C:\Users\DEVELO~1\AppData\Local\Temp\ccQb9vWk.s 			page 81


 4485              	.LASF99:
 4486 016a 63685F72 		.ascii	"ch_registry\000"
 4486      65676973 
 4486      74727900 
 4487              	.LASF88:
 4488 0176 62756666 		.ascii	"buffer\000"
 4488      657200
 4489              	.LASF153:
 4490 017d 433A5C43 		.ascii	"C:\\ChibiStudio\\chibios2111\\demos\\STM32\\RT-STM3"
 4490      68696269 
 4490      53747564 
 4490      696F5C63 
 4490      68696269 
 4491 01ab 32483734 		.ascii	"2H743ZI_REV_XY-NUCLEO144 - Copie\000"
 4491      335A495F 
 4491      5245565F 
 4491      58592D4E 
 4491      55434C45 
 4492              	.LASF12:
 4493 01cc 5F5F7569 		.ascii	"__uint32_t\000"
 4493      6E743332 
 4493      5F7400
 4494              	.LASF58:
 4495 01d7 6D61736B 		.ascii	"mask\000"
 4495      00
 4496              	.LASF39:
 4497 01dc 77616974 		.ascii	"waiting\000"
 4497      696E6700 
 4498              	.LASF118:
 4499 01e4 6D61696E 		.ascii	"mainthread_base\000"
 4499      74687265 
 4499      61645F62 
 4499      61736500 
 4500              	.LASF123:
 4501 01f4 6D757465 		.ascii	"mutex_t\000"
 4501      785F7400 
 4502              	.LASF146:
 4503 01fc 616C6967 		.ascii	"align\000"
 4503      6E00
 4504              	.LASF65:
 4505 0202 73797369 		.ascii	"sysinterval_t\000"
 4505      6E746572 
 4505      76616C5F 
 4505      7400
 4506              	.LASF29:
 4507 0210 636E745F 		.ascii	"cnt_t\000"
 4507      7400
 4508              	.LASF40:
 4509 0216 6D736771 		.ascii	"msgqueue\000"
 4509      75657565 
 4509      00
 4510              	.LASF0:
 4511 021f 756E7369 		.ascii	"unsigned int\000"
 4511      676E6564 
 4511      20696E74 
 4511      00
 4512              	.LASF120:
ARM GAS  C:\Users\DEVELO~1\AppData\Local\Temp\ccQb9vWk.s 			page 82


 4513 022c 69646C65 		.ascii	"idlethread_base\000"
 4513      74687265 
 4513      61645F62 
 4513      61736500 
 4514              	.LASF109:
 4515 023c 77747365 		.ascii	"wtsemp\000"
 4515      6D7000
 4516              	.LASF63:
 4517 0243 73797374 		.ascii	"system_debug_t\000"
 4517      656D5F64 
 4517      65627567 
 4517      5F7400
 4518              	.LASF107:
 4519 0252 77747472 		.ascii	"wttrp\000"
 4519      7000
 4520              	.LASF32:
 4521 0258 72717565 		.ascii	"rqueue\000"
 4521      756500
 4522              	.LASF69:
 4523 025f 63685F71 		.ascii	"ch_queue_t\000"
 4523      75657565 
 4523      5F7400
 4524              	.LASF151:
 4525 026a 474E5520 		.ascii	"GNU C17 11.3.1 20220712 -mcpu=cortex-m7 -mthumb -mf"
 4525      43313720 
 4525      31312E33 
 4525      2E312032 
 4525      30323230 
 4526 029d 6C6F6174 		.ascii	"loat-abi=soft -march=armv7e-m -ggdb -O2 -fomit-fram"
 4526      2D616269 
 4526      3D736F66 
 4526      74202D6D 
 4526      61726368 
 4527 02d0 652D706F 		.ascii	"e-pointer -falign-functions=16 -ffunction-sections "
 4527      696E7465 
 4527      72202D66 
 4527      616C6967 
 4527      6E2D6675 
 4528 0303 2D666461 		.ascii	"-fdata-sections -fno-common\000"
 4528      74612D73 
 4528      65637469 
 4528      6F6E7320 
 4528      2D666E6F 
 4529              	.LASF34:
 4530 031f 6E616D65 		.ascii	"name\000"
 4530      00
 4531              	.LASF100:
 4532 0324 71756575 		.ascii	"queue\000"
 4532      6500
 4533              	.LASF44:
 4534 032a 6D706F6F 		.ascii	"mpool\000"
 4534      6C00
 4535              	.LASF87:
 4536 0330 73697A65 		.ascii	"size\000"
 4536      00
 4537              	.LASF9:
 4538 0335 73686F72 		.ascii	"short unsigned int\000"
ARM GAS  C:\Users\DEVELO~1\AppData\Local\Temp\ccQb9vWk.s 			page 83


 4538      7420756E 
 4538      7369676E 
 4538      65642069 
 4538      6E7400
 4539              	.LASF46:
 4540 0348 63685F74 		.ascii	"ch_thread\000"
 4540      68726561 
 4540      6400
 4541              	.LASF27:
 4542 0352 6D73675F 		.ascii	"msg_t\000"
 4542      7400
 4543              	.LASF41:
 4544 0358 6570656E 		.ascii	"epending\000"
 4544      64696E67 
 4544      00
 4545              	.LASF23:
 4546 0361 746D6F64 		.ascii	"tmode_t\000"
 4546      655F7400 
 4547              	.LASF67:
 4548 0369 63685F6C 		.ascii	"ch_list\000"
 4548      69737400 
 4549              	.LASF114:
 4550 0371 63685F72 		.ascii	"ch_ready_list\000"
 4550      65616479 
 4550      5F6C6973 
 4550      7400
 4551              	.LASF28:
 4552 037f 6576656E 		.ascii	"eventmask_t\000"
 4552      746D6173 
 4552      6B5F7400 
 4553              	.LASF10:
 4554 038b 5F5F696E 		.ascii	"__int32_t\000"
 4554      7433325F 
 4554      7400
 4555              	.LASF98:
 4556 0395 76697274 		.ascii	"virtual_timers_list_t\000"
 4556      75616C5F 
 4556      74696D65 
 4556      72735F6C 
 4556      6973745F 
 4557              	.LASF22:
 4558 03ab 73746B61 		.ascii	"stkalign_t\000"
 4558      6C69676E 
 4558      5F7400
 4559              	.LASF150:
 4560 03b6 63684865 		.ascii	"chHeapObjectInit\000"
 4560      61704F62 
 4560      6A656374 
 4560      496E6974 
 4560      00
 4561              	.LASF83:
 4562 03c7 72747374 		.ascii	"rtstamp\000"
 4562      616D7000 
 4563              	.LASF97:
 4564 03cf 6C617374 		.ascii	"laststamp\000"
 4564      7374616D 
 4564      7000
ARM GAS  C:\Users\DEVELO~1\AppData\Local\Temp\ccQb9vWk.s 			page 84


 4565              	.LASF43:
 4566 03d9 7265616C 		.ascii	"realprio\000"
 4566      7072696F 
 4566      00
 4567              	.LASF56:
 4568 03e2 72666375 		.ascii	"rfcu_mask_t\000"
 4568      5F6D6173 
 4568      6B5F7400 
 4569              	.LASF102:
 4570 03ee 74687265 		.ascii	"thread_reference_t\000"
 4570      61645F72 
 4570      65666572 
 4570      656E6365 
 4570      5F7400
 4571              	.LASF94:
 4572 0401 63685F76 		.ascii	"ch_virtual_timers_list\000"
 4572      69727475 
 4572      616C5F74 
 4572      696D6572 
 4572      735F6C69 
 4573              	.LASF66:
 4574 0418 63685F6C 		.ascii	"ch_list_t\000"
 4574      6973745F 
 4574      7400
 4575              	.LASF86:
 4576 0422 73757370 		.ascii	"suspended\000"
 4576      656E6465 
 4576      6400
 4577              	.LASF136:
 4578 042c 63684D74 		.ascii	"chMtxLock\000"
 4578      784C6F63 
 4578      6B00
 4579              	.LASF20:
 4580 0436 75696E74 		.ascii	"uint64_t\000"
 4580      36345F74 
 4580      00
 4581              	.LASF137:
 4582 043f 63684D74 		.ascii	"chMtxObjectInit\000"
 4582      784F626A 
 4582      65637449 
 4582      6E697400 
 4583              	.LASF117:
 4584 044f 63685F6F 		.ascii	"ch_os_instance_config\000"
 4584      735F696E 
 4584      7374616E 
 4584      63655F63 
 4584      6F6E6669 
 4585              	.LASF93:
 4586 0465 706F7274 		.ascii	"port_context\000"
 4586      5F636F6E 
 4586      74657874 
 4586      00
 4587              	.LASF125:
 4588 0472 6D656D67 		.ascii	"memgetfunc2_t\000"
 4588      65746675 
 4588      6E63325F 
 4588      7400
ARM GAS  C:\Users\DEVELO~1\AppData\Local\Temp\ccQb9vWk.s 			page 85


 4589              	.LASF84:
 4590 0480 74696D65 		.ascii	"time\000"
 4590      00
 4591              	.LASF74:
 4592 0485 7072696F 		.ascii	"prio\000"
 4592      00
 4593              	.LASF132:
 4594 048a 75736564 		.ascii	"used\000"
 4594      00
 4595              	.LASF115:
 4596 048f 63757272 		.ascii	"current\000"
 4596      656E7400 
 4597              	.LASF14:
 4598 0497 5F5F7569 		.ascii	"__uint64_t\000"
 4598      6E743634 
 4598      5F7400
 4599              	.LASF90:
 4600 04a2 666C6F61 		.ascii	"float\000"
 4600      7400
 4601              	.LASF30:
 4602 04a8 636F7265 		.ascii	"core_id_t\000"
 4602      5F69645F 
 4602      7400
 4603              	.LASF25:
 4604 04b2 74726566 		.ascii	"trefs_t\000"
 4604      735F7400 
 4605              	.LASF38:
 4606 04ba 72656673 		.ascii	"refs\000"
 4606      00
 4607              	.LASF148:
 4608 04bf 62706167 		.ascii	"bpages\000"
 4608      657300
 4609              	.LASF81:
 4610 04c6 75736572 		.ascii	"user\000"
 4610      00
 4611              	.LASF26:
 4612 04cb 74707269 		.ascii	"tprio_t\000"
 4612      6F5F7400 
 4613              	.LASF60:
 4614 04d3 63685F73 		.ascii	"ch_system_debug\000"
 4614      79737465 
 4614      6D5F6465 
 4614      62756700 
 4615              	.LASF124:
 4616 04e3 5F426F6F 		.ascii	"_Bool\000"
 4616      6C00
 4617              	.LASF18:
 4618 04e9 696E7433 		.ascii	"int32_t\000"
 4618      325F7400 
 4619              	.LASF6:
 4620 04f1 756E7369 		.ascii	"unsigned char\000"
 4620      676E6564 
 4620      20636861 
 4620      7200
 4621              	.LASF154:
 4622 04ff 68656170 		.ascii	"heap_header\000"
 4622      5F686561 
ARM GAS  C:\Users\DEVELO~1\AppData\Local\Temp\ccQb9vWk.s 			page 86


 4622      64657200 
 4623              	.LASF155:
 4624 050b 6368436F 		.ascii	"chCoreAllocFromTop\000"
 4624      7265416C 
 4624      6C6F6346 
 4624      726F6D54 
 4624      6F7000
 4625              	.LASF59:
 4626 051e 72666375 		.ascii	"rfcu_t\000"
 4626      5F7400
 4627              	.LASF7:
 4628 0525 73686F72 		.ascii	"short int\000"
 4628      7420696E 
 4628      7400
 4629              	.LASF96:
 4630 052f 6C617374 		.ascii	"lasttime\000"
 4630      74696D65 
 4630      00
 4631              	.LASF78:
 4632 0538 77746F62 		.ascii	"wtobjp\000"
 4632      6A7000
 4633              	.LASF111:
 4634 053f 65776D61 		.ascii	"ewmask\000"
 4634      736B00
 4635              	.LASF147:
 4636 0546 5F5F6675 		.ascii	"__func__\000"
 4636      6E635F5F 
 4636      00
 4637              	.LASF79:
 4638 054f 72656173 		.ascii	"reason\000"
 4638      6F6E00
 4639              	.LASF112:
 4640 0556 63685F73 		.ascii	"ch_semaphore\000"
 4640      656D6170 
 4640      686F7265 
 4640      00
 4641              	.LASF101:
 4642 0563 72656769 		.ascii	"registry_t\000"
 4642      73747279 
 4642      5F7400
 4643              	.LASF141:
 4644 056e 74706167 		.ascii	"tpages\000"
 4644      657300
 4645              	.LASF19:
 4646 0575 75696E74 		.ascii	"uint32_t\000"
 4646      33325F74 
 4646      00
 4647              	.LASF156:
 4648 057e 5F5F6865 		.ascii	"__heap_init\000"
 4648      61705F69 
 4648      6E697400 
 4649              	.LASF21:
 4650 058a 706F7274 		.ascii	"port_stkalign_t\000"
 4650      5F73746B 
 4650      616C6967 
 4650      6E5F7400 
 4651              	.LASF33:
ARM GAS  C:\Users\DEVELO~1\AppData\Local\Temp\ccQb9vWk.s 			page 87


 4652 059a 6F776E65 		.ascii	"owner\000"
 4652      7200
 4653              	.LASF134:
 4654 05a0 68656170 		.ascii	"heap\000"
 4654      00
 4655              	.LASF2:
 4656 05a5 6C6F6E67 		.ascii	"long double\000"
 4656      20646F75 
 4656      626C6500 
 4657              	.LASF35:
 4658 05b1 77616261 		.ascii	"wabase\000"
 4658      736500
 4659              	.LASF143:
 4660 05b8 64656661 		.ascii	"default_heap\000"
 4660      756C745F 
 4660      68656170 
 4660      00
 4661              	.LASF62:
 4662 05c5 63686172 		.ascii	"char\000"
 4662      00
 4663              	.LASF53:
 4664 05ca 636F6E66 		.ascii	"config\000"
 4664      696700
 4665              	.LASF8:
 4666 05d1 5F5F7569 		.ascii	"__uint16_t\000"
 4666      6E743136 
 4666      5F7400
 4667              	.LASF31:
 4668 05dc 74687265 		.ascii	"thread_t\000"
 4668      61645F74 
 4668      00
 4669              	.LASF144:
 4670 05e5 63684865 		.ascii	"chHeapStatus\000"
 4670      61705374 
 4670      61747573 
 4670      00
 4671              	.LASF95:
 4672 05f2 646C6973 		.ascii	"dlist\000"
 4672      7400
 4673              	.LASF64:
 4674 05f8 73797374 		.ascii	"systime_t\000"
 4674      696D655F 
 4674      7400
 4675              	.LASF130:
 4676 0602 68656170 		.ascii	"heap_header_t\000"
 4676      5F686561 
 4676      6465725F 
 4676      7400
 4677              	.LASF72:
 4678 0610 63685F70 		.ascii	"ch_priority_queue_t\000"
 4678      72696F72 
 4678      6974795F 
 4678      71756575 
 4678      655F7400 
 4679              	.LASF110:
 4680 0624 77746D74 		.ascii	"wtmtxp\000"
 4680      787000
ARM GAS  C:\Users\DEVELO~1\AppData\Local\Temp\ccQb9vWk.s 			page 88


 4681              	.LASF61:
 4682 062b 70616E69 		.ascii	"panic_msg\000"
 4682      635F6D73 
 4682      6700
 4683              	.LASF104:
 4684 0635 70717565 		.ascii	"pqueue\000"
 4684      756500
 4685              	.LASF47:
 4686 063c 63685F6F 		.ascii	"ch_os_instance\000"
 4686      735F696E 
 4686      7374616E 
 4686      636500
 4687              	.LASF45:
 4688 064b 6F735F69 		.ascii	"os_instance_t\000"
 4688      6E737461 
 4688      6E63655F 
 4688      7400
 4689              	.LASF50:
 4690 0659 7265676C 		.ascii	"reglist\000"
 4690      69737400 
 4691              	.LASF131:
 4692 0661 66726565 		.ascii	"free\000"
 4692      00
 4693              	.LASF73:
 4694 0666 63685F70 		.ascii	"ch_priority_queue\000"
 4694      72696F72 
 4694      6974795F 
 4694      71756575 
 4694      6500
 4695              	.LASF145:
 4696 0678 63684865 		.ascii	"chHeapAllocAligned\000"
 4696      6170416C 
 4696      6C6F6341 
 4696      6C69676E 
 4696      656400
 4697              	.LASF75:
 4698 068b 63685F64 		.ascii	"ch_delta_list_t\000"
 4698      656C7461 
 4698      5F6C6973 
 4698      745F7400 
 4699              	.LASF119:
 4700 069b 6D61696E 		.ascii	"mainthread_end\000"
 4700      74687265 
 4700      61645F65 
 4700      6E6400
 4701              	.LASF140:
 4702 06aa 6C617267 		.ascii	"largestp\000"
 4702      65737470 
 4702      00
 4703              	.LASF122:
 4704 06b3 6F735F69 		.ascii	"os_instance_config_t\000"
 4704      6E737461 
 4704      6E63655F 
 4704      636F6E66 
 4704      69675F74 
 4705              	.LASF48:
 4706 06c8 726C6973 		.ascii	"rlist\000"
ARM GAS  C:\Users\DEVELO~1\AppData\Local\Temp\ccQb9vWk.s 			page 89


 4706      7400
 4707              	.LASF16:
 4708 06ce 75696E74 		.ascii	"uint8_t\000"
 4708      385F7400 
 4709              	.LASF37:
 4710 06d6 666C6167 		.ascii	"flags\000"
 4710      7300
 4711              	.LASF113:
 4712 06dc 63685F6D 		.ascii	"ch_mutex\000"
 4712      75746578 
 4712      00
 4713              	.LASF55:
 4714 06e5 74726163 		.ascii	"trace_buffer\000"
 4714      655F6275 
 4714      66666572 
 4714      00
 4715              	.LASF152:
 4716 06f2 2E2E2F2E 		.ascii	"../../../os/oslib/src/chmemheaps.c\000"
 4716      2E2F2E2E 
 4716      2F6F732F 
 4716      6F736C69 
 4716      622F7372 
 4717              	.LASF103:
 4718 0715 6C697374 		.ascii	"list\000"
 4718      00
 4719              	.LASF121:
 4720 071a 69646C65 		.ascii	"idlethread_end\000"
 4720      74687265 
 4720      61645F65 
 4720      6E6400
 4721              	.LASF42:
 4722 0729 6D74786C 		.ascii	"mtxlist\000"
 4722      69737400 
 4723              	.LASF129:
 4724 0731 68656164 		.ascii	"header\000"
 4724      657200
 4725              	.LASF127:
 4726 0738 6D656D6F 		.ascii	"memory_heap\000"
 4726      72795F68 
 4726      65617000 
 4727              		.ident	"GCC: (Arm GNU Toolchain 11.3.Rel1) 11.3.1 20220712"
ARM GAS  C:\Users\DEVELO~1\AppData\Local\Temp\ccQb9vWk.s 			page 90


DEFINED SYMBOLS
                            *ABS*:00000000 chmemheaps.c
C:\Users\DEVELO~1\AppData\Local\Temp\ccQb9vWk.s:18     .text.__heap_init:00000000 $t
C:\Users\DEVELO~1\AppData\Local\Temp\ccQb9vWk.s:25     .text.__heap_init:00000000 __heap_init
C:\Users\DEVELO~1\AppData\Local\Temp\ccQb9vWk.s:54     .text.__heap_init:00000014 $d
C:\Users\DEVELO~1\AppData\Local\Temp\ccQb9vWk.s:60     .text.chHeapObjectInit:00000000 $t
C:\Users\DEVELO~1\AppData\Local\Temp\ccQb9vWk.s:67     .text.chHeapObjectInit:00000000 chHeapObjectInit
C:\Users\DEVELO~1\AppData\Local\Temp\ccQb9vWk.s:133    .text.chHeapAllocAligned:00000000 $t
C:\Users\DEVELO~1\AppData\Local\Temp\ccQb9vWk.s:140    .text.chHeapAllocAligned:00000000 chHeapAllocAligned
C:\Users\DEVELO~1\AppData\Local\Temp\ccQb9vWk.s:433    .text.chHeapAllocAligned:00000110 $d
C:\Users\DEVELO~1\AppData\Local\Temp\ccQb9vWk.s:438    .text.chHeapFree:00000000 $t
C:\Users\DEVELO~1\AppData\Local\Temp\ccQb9vWk.s:445    .text.chHeapFree:00000000 chHeapFree
C:\Users\DEVELO~1\AppData\Local\Temp\ccQb9vWk.s:642    .text.chHeapStatus:00000000 $t
C:\Users\DEVELO~1\AppData\Local\Temp\ccQb9vWk.s:649    .text.chHeapStatus:00000000 chHeapStatus
C:\Users\DEVELO~1\AppData\Local\Temp\ccQb9vWk.s:768    .text.chHeapStatus:00000060 $d
C:\Users\DEVELO~1\AppData\Local\Temp\ccQb9vWk.s:773    .bss.default_heap:00000000 $d
C:\Users\DEVELO~1\AppData\Local\Temp\ccQb9vWk.s:777    .bss.default_heap:00000000 default_heap

UNDEFINED SYMBOLS
chMtxObjectInit
chCoreAllocFromTop
chMtxLock
chMtxUnlock
