ARM GAS  C:\Users\DEVELO~1\AppData\Local\Temp\ccobj71c.s 			page 1


   1              		.cpu cortex-m7
   2              		.arch armv7e-m
   3              		.fpu softvfp
   4              		.eabi_attribute 20, 1
   5              		.eabi_attribute 21, 1
   6              		.eabi_attribute 23, 3
   7              		.eabi_attribute 24, 1
   8              		.eabi_attribute 25, 1
   9              		.eabi_attribute 26, 1
  10              		.eabi_attribute 30, 2
  11              		.eabi_attribute 34, 1
  12              		.eabi_attribute 18, 4
  13              		.file	"chmemcore.c"
  14              		.text
  15              	.Ltext0:
  16              		.cfi_sections	.debug_frame
  17              		.section	.text.__core_init,"ax",%progbits
  18              		.align	1
  19              		.p2align 4,,15
  20              		.global	__core_init
  21              		.syntax unified
  22              		.thumb
  23              		.thumb_func
  24              		.type	__core_init, %function
  25              	__core_init:
  26              	.LFB346:
  27              		.file 1 "../../../os/oslib/src/chmemcore.c"
  28              		.loc 1 81 24 view -0
  29              		.cfi_startproc
  30              		@ args = 0, pretend = 0, frame = 0
  31              		@ frame_needed = 0, uses_anonymous_args = 0
  32              		@ link register save eliminated.
  33              		.loc 1 83 3 view .LVU1
  34              		.loc 1 84 3 view .LVU2
  35              		.loc 1 87 3 view .LVU3
  36              		.loc 1 87 22 is_stmt 0 view .LVU4
  37 0000 024B     		ldr	r3, .L3
  38 0002 0349     		ldr	r1, .L3+4
  39              		.loc 1 88 22 view .LVU5
  40 0004 034A     		ldr	r2, .L3+8
  41 0006 C3E90012 		strd	r1, r2, [r3]
  42              		.loc 1 96 1 view .LVU6
  43 000a 7047     		bx	lr
  44              	.L4:
  45              		.align	2
  46              	.L3:
  47 000c 00000000 		.word	.LANCHOR0
  48 0010 00000000 		.word	__heap_base__
  49 0014 00000000 		.word	__heap_end__
  50              		.cfi_endproc
  51              	.LFE346:
  52              		.size	__core_init, .-__core_init
  53              		.section	.text.chCoreAllocFromBaseI,"ax",%progbits
  54              		.align	1
  55              		.p2align 4,,15
  56              		.global	chCoreAllocFromBaseI
  57              		.syntax unified
ARM GAS  C:\Users\DEVELO~1\AppData\Local\Temp\ccobj71c.s 			page 2


  58              		.thumb
  59              		.thumb_func
  60              		.type	chCoreAllocFromBaseI, %function
  61              	chCoreAllocFromBaseI:
  62              	.LVL0:
  63              	.LFB347:
  64              		.loc 1 112 72 is_stmt 1 view -0
  65              		.cfi_startproc
  66              		@ args = 0, pretend = 0, frame = 0
  67              		@ frame_needed = 0, uses_anonymous_args = 0
  68              		@ link register save eliminated.
  69              		.loc 1 113 3 view .LVU8
  70              		.loc 1 115 21 view .LVU9
  71              		.loc 1 116 3 view .LVU10
  72              		.loc 1 116 3 view .LVU11
  73              		.loc 1 116 3 view .LVU12
  74              		.loc 1 118 3 view .LVU13
  75              		.loc 1 118 18 is_stmt 0 view .LVU14
  76 0000 0B4B     		ldr	r3, .L9
  77 0002 01F1FF3C 		add	ip, r1, #-1
  78 0006 4942     		rsbs	r1, r1, #0
  79              	.LVL1:
  80              		.loc 1 112 72 view .LVU15
  81 0008 10B4     		push	{r4}
  82              		.cfi_def_cfa_offset 4
  83              		.cfi_offset 4, -4
  84              		.loc 1 118 18 view .LVU16
  85 000a 1C68     		ldr	r4, [r3]
  86 000c 2244     		add	r2, r2, r4
  87              	.LVL2:
  88              		.loc 1 118 18 view .LVU17
  89 000e 6244     		add	r2, r2, ip
  90 0010 0A40     		ands	r2, r2, r1
  91              	.LVL3:
  92              		.loc 1 119 3 is_stmt 1 view .LVU18
  93              		.loc 1 122 6 is_stmt 0 view .LVU19
  94 0012 5968     		ldr	r1, [r3, #4]
  95              	.LVL4:
  96              		.loc 1 119 8 view .LVU20
  97 0014 1044     		add	r0, r0, r2
  98              	.LVL5:
  99              		.loc 1 122 3 is_stmt 1 view .LVU21
 100              		.loc 1 122 34 is_stmt 0 view .LVU22
 101 0016 8842     		cmp	r0, r1
 102 0018 05D8     		bhi	.L7
 103 001a A042     		cmp	r0, r4
 104 001c 03D3     		bcc	.L7
 105              		.loc 1 126 3 is_stmt 1 view .LVU23
 106              		.loc 1 126 22 is_stmt 0 view .LVU24
 107 001e 1860     		str	r0, [r3]
 108              		.loc 1 128 3 is_stmt 1 view .LVU25
 109              		.loc 1 129 1 is_stmt 0 view .LVU26
 110 0020 1046     		mov	r0, r2
 111              	.LVL6:
 112              		.loc 1 129 1 view .LVU27
 113 0022 10BC     		pop	{r4}
 114              		.cfi_remember_state
ARM GAS  C:\Users\DEVELO~1\AppData\Local\Temp\ccobj71c.s 			page 3


 115              		.cfi_restore 4
 116              		.cfi_def_cfa_offset 0
 117 0024 7047     		bx	lr
 118              	.LVL7:
 119              	.L7:
 120              		.cfi_restore_state
 121              		.loc 1 123 12 view .LVU28
 122 0026 0022     		movs	r2, #0
 123              	.LVL8:
 124              		.loc 1 129 1 view .LVU29
 125 0028 10BC     		pop	{r4}
 126              		.cfi_restore 4
 127              		.cfi_def_cfa_offset 0
 128              	.LVL9:
 129              		.loc 1 129 1 view .LVU30
 130 002a 1046     		mov	r0, r2
 131              	.LVL10:
 132              		.loc 1 129 1 view .LVU31
 133 002c 7047     		bx	lr
 134              	.L10:
 135 002e 00BF     		.align	2
 136              	.L9:
 137 0030 00000000 		.word	.LANCHOR0
 138              		.cfi_endproc
 139              	.LFE347:
 140              		.size	chCoreAllocFromBaseI, .-chCoreAllocFromBaseI
 141              		.section	.text.chCoreAllocFromTopI,"ax",%progbits
 142              		.align	1
 143              		.p2align 4,,15
 144              		.global	chCoreAllocFromTopI
 145              		.syntax unified
 146              		.thumb
 147              		.thumb_func
 148              		.type	chCoreAllocFromTopI, %function
 149              	chCoreAllocFromTopI:
 150              	.LVL11:
 151              	.LFB348:
 152              		.loc 1 145 71 is_stmt 1 view -0
 153              		.cfi_startproc
 154              		@ args = 0, pretend = 0, frame = 0
 155              		@ frame_needed = 0, uses_anonymous_args = 0
 156              		@ link register save eliminated.
 157              		.loc 1 146 3 view .LVU33
 158              		.loc 1 148 21 view .LVU34
 159              		.loc 1 149 3 view .LVU35
 160              		.loc 1 149 3 view .LVU36
 161              		.loc 1 149 3 view .LVU37
 162              		.loc 1 151 3 view .LVU38
 163              		.loc 1 151 18 is_stmt 0 view .LVU39
 164 0000 084B     		ldr	r3, .L15
 165 0002 4942     		rsbs	r1, r1, #0
 166              	.LVL12:
 167              		.loc 1 145 71 view .LVU40
 168 0004 10B4     		push	{r4}
 169              		.cfi_def_cfa_offset 4
 170              		.cfi_offset 4, -4
 171              		.loc 1 151 18 view .LVU41
ARM GAS  C:\Users\DEVELO~1\AppData\Local\Temp\ccobj71c.s 			page 4


 172 0006 5C68     		ldr	r4, [r3, #4]
 173 0008 201A     		subs	r0, r4, r0
 174              	.LVL13:
 175              		.loc 1 151 5 view .LVU42
 176 000a 0840     		ands	r0, r0, r1
 177              	.LVL14:
 178              		.loc 1 152 3 is_stmt 1 view .LVU43
 179              		.loc 1 155 6 is_stmt 0 view .LVU44
 180 000c 1968     		ldr	r1, [r3]
 181              	.LVL15:
 182              		.loc 1 152 8 view .LVU45
 183 000e 821A     		subs	r2, r0, r2
 184              	.LVL16:
 185              		.loc 1 155 3 is_stmt 1 view .LVU46
 186              		.loc 1 155 35 is_stmt 0 view .LVU47
 187 0010 8A42     		cmp	r2, r1
 188 0012 04D3     		bcc	.L13
 189 0014 A242     		cmp	r2, r4
 190 0016 02D8     		bhi	.L13
 191              		.loc 1 159 3 is_stmt 1 view .LVU48
 192              		.loc 1 162 1 is_stmt 0 view .LVU49
 193 0018 10BC     		pop	{r4}
 194              		.cfi_remember_state
 195              		.cfi_restore 4
 196              		.cfi_def_cfa_offset 0
 197              		.loc 1 159 21 view .LVU50
 198 001a 5A60     		str	r2, [r3, #4]
 199              		.loc 1 161 3 is_stmt 1 view .LVU51
 200              		.loc 1 162 1 is_stmt 0 view .LVU52
 201 001c 7047     		bx	lr
 202              	.L13:
 203              		.cfi_restore_state
 204              		.loc 1 156 12 view .LVU53
 205 001e 0020     		movs	r0, #0
 206              	.LVL17:
 207              		.loc 1 162 1 view .LVU54
 208 0020 10BC     		pop	{r4}
 209              		.cfi_restore 4
 210              		.cfi_def_cfa_offset 0
 211              	.LVL18:
 212              		.loc 1 162 1 view .LVU55
 213 0022 7047     		bx	lr
 214              	.L16:
 215              		.align	2
 216              	.L15:
 217 0024 00000000 		.word	.LANCHOR0
 218              		.cfi_endproc
 219              	.LFE348:
 220              		.size	chCoreAllocFromTopI, .-chCoreAllocFromTopI
 221              		.section	.text.chCoreAllocFromBase,"ax",%progbits
 222              		.align	1
 223              		.p2align 4,,15
 224              		.global	chCoreAllocFromBase
 225              		.syntax unified
 226              		.thumb
 227              		.thumb_func
 228              		.type	chCoreAllocFromBase, %function
ARM GAS  C:\Users\DEVELO~1\AppData\Local\Temp\ccobj71c.s 			page 5


 229              	chCoreAllocFromBase:
 230              	.LVL19:
 231              	.LFB349:
 232              		.loc 1 178 71 is_stmt 1 view -0
 233              		.cfi_startproc
 234              		@ args = 0, pretend = 0, frame = 0
 235              		@ frame_needed = 0, uses_anonymous_args = 0
 236              		@ link register save eliminated.
 237              		.loc 1 179 3 view .LVU57
 238              		.loc 1 181 3 view .LVU58
 239              	.LBB45:
 240              	.LBI45:
 241              		.file 2 "../../../os/rt/include/chsys.h"
 242              		.loc 2 407 20 view .LVU59
 243              		.loc 2 409 3 view .LVU60
 244              	.LBB46:
 245              	.LBI46:
 246              		.file 3 "../../../os/common/ports/ARMv7-M/chcore.h"
 247              		.loc 3 806 27 view .LVU61
 248              		.loc 3 814 3 view .LVU62
 249              	.LBB47:
 250              	.LBI47:
 251              		.file 4 "../../../os/common/ext/ARM/CMSIS/Core/Include/cmsis_gcc.h"
 252              		.loc 4 491 27 view .LVU63
 253              	.LBB48:
 254              		.loc 4 493 3 view .LVU64
 255              	.LBE48:
 256              	.LBE47:
 257              	.LBE46:
 258              	.LBE45:
 259              		.loc 1 178 71 is_stmt 0 view .LVU65
 260 0000 30B4     		push	{r4, r5}
 261              		.cfi_def_cfa_offset 8
 262              		.cfi_offset 4, -8
 263              		.cfi_offset 5, -4
 264              		.loc 1 178 71 view .LVU66
 265 0002 0346     		mov	r3, r0
 266              	.LBB52:
 267              	.LBB51:
 268              	.LBB50:
 269              	.LBB49:
 270              		.loc 4 493 3 view .LVU67
 271 0004 3024     		movs	r4, #48
 272              		.syntax unified
 273              	@ 493 "../../../os/common/ext/ARM/CMSIS/Core/Include/cmsis_gcc.h" 1
 274 0006 84F31188 		MSR basepri, r4
 275              	@ 0 "" 2
 276              	.LVL20:
 277              		.loc 4 493 3 view .LVU68
 278              		.thumb
 279              		.syntax unified
 280              	.LBE49:
 281              	.LBE50:
 282              	.LBE51:
 283              		.loc 2 410 35 is_stmt 1 view .LVU69
 284              		.loc 2 411 21 view .LVU70
 285              	.LBE52:
ARM GAS  C:\Users\DEVELO~1\AppData\Local\Temp\ccobj71c.s 			page 6


 286              		.loc 1 182 3 view .LVU71
 287              	.LBB53:
 288              	.LBI53:
 289              		.loc 1 112 7 view .LVU72
 290              	.LBB54:
 291              		.loc 1 113 3 view .LVU73
 292              		.loc 1 115 21 view .LVU74
 293              		.loc 1 116 3 view .LVU75
 294              		.loc 1 116 3 view .LVU76
 295              		.loc 1 116 3 view .LVU77
 296              		.loc 1 118 3 view .LVU78
 297              		.loc 1 118 18 is_stmt 0 view .LVU79
 298 000a 0D4C     		ldr	r4, .L21
 299 000c 481E     		subs	r0, r1, #1
 300              	.LVL21:
 301              		.loc 1 118 18 view .LVU80
 302 000e 4942     		rsbs	r1, r1, #0
 303              	.LVL22:
 304              		.loc 1 118 18 view .LVU81
 305 0010 2568     		ldr	r5, [r4]
 306 0012 2A44     		add	r2, r2, r5
 307              	.LVL23:
 308              		.loc 1 118 18 view .LVU82
 309 0014 0244     		add	r2, r2, r0
 310 0016 02EA0100 		and	r0, r2, r1
 311              	.LVL24:
 312              		.loc 1 119 3 is_stmt 1 view .LVU83
 313              		.loc 1 122 6 is_stmt 0 view .LVU84
 314 001a 6268     		ldr	r2, [r4, #4]
 315              		.loc 1 119 8 view .LVU85
 316 001c 0344     		add	r3, r3, r0
 317              	.LVL25:
 318              		.loc 1 122 3 is_stmt 1 view .LVU86
 319              		.loc 1 122 34 is_stmt 0 view .LVU87
 320 001e 9342     		cmp	r3, r2
 321 0020 07D8     		bhi	.L19
 322 0022 9D42     		cmp	r5, r3
 323 0024 05D8     		bhi	.L19
 324              		.loc 1 126 3 is_stmt 1 view .LVU88
 325              		.loc 1 126 22 is_stmt 0 view .LVU89
 326 0026 2360     		str	r3, [r4]
 327              		.loc 1 128 3 is_stmt 1 view .LVU90
 328              	.LVL26:
 329              		.loc 1 128 3 is_stmt 0 view .LVU91
 330              	.LBE54:
 331              	.LBE53:
 332              		.loc 1 183 3 is_stmt 1 view .LVU92
 333              	.LBB56:
 334              	.LBI56:
 335              		.loc 2 421 20 view .LVU93
 336              	.LBB57:
 337              		.loc 2 423 23 view .LVU94
 338              		.loc 2 424 34 view .LVU95
 339              		.loc 2 430 3 view .LVU96
 340              		.loc 2 430 3 view .LVU97
 341              		.loc 2 430 3 view .LVU98
 342              		.loc 2 434 3 view .LVU99
ARM GAS  C:\Users\DEVELO~1\AppData\Local\Temp\ccobj71c.s 			page 7


 343              	.LBB58:
 344              	.LBI58:
 345              		.loc 3 830 27 view .LVU100
 346              		.loc 3 833 3 view .LVU101
 347              	.LBB59:
 348              	.LBI59:
 349              		.loc 4 491 27 view .LVU102
 350              	.LBB60:
 351              		.loc 4 493 3 view .LVU103
 352 0028 0023     		movs	r3, #0
 353              		.syntax unified
 354              	@ 493 "../../../os/common/ext/ARM/CMSIS/Core/Include/cmsis_gcc.h" 1
 355 002a 83F31188 		MSR basepri, r3
 356              	@ 0 "" 2
 357              	.LVL27:
 358              		.loc 4 493 3 is_stmt 0 view .LVU104
 359              		.thumb
 360              		.syntax unified
 361              	.LBE60:
 362              	.LBE59:
 363              	.LBE58:
 364              	.LBE57:
 365              	.LBE56:
 366              		.loc 1 185 3 is_stmt 1 view .LVU105
 367              		.loc 1 186 1 is_stmt 0 view .LVU106
 368 002e 30BC     		pop	{r4, r5}
 369              		.cfi_remember_state
 370              		.cfi_restore 5
 371              		.cfi_restore 4
 372              		.cfi_def_cfa_offset 0
 373 0030 7047     		bx	lr
 374              	.LVL28:
 375              	.L19:
 376              		.cfi_restore_state
 377              	.LBB65:
 378              	.LBB55:
 379              		.loc 1 123 12 view .LVU107
 380 0032 0020     		movs	r0, #0
 381              	.LVL29:
 382              		.loc 1 123 12 view .LVU108
 383              	.LBE55:
 384              	.LBE65:
 385              		.loc 1 183 3 is_stmt 1 view .LVU109
 386              	.LBB66:
 387              		.loc 2 421 20 view .LVU110
 388              	.LBB64:
 389              		.loc 2 423 23 view .LVU111
 390              		.loc 2 424 34 view .LVU112
 391              		.loc 2 430 3 view .LVU113
 392              		.loc 2 430 3 view .LVU114
 393              		.loc 2 430 3 view .LVU115
 394              		.loc 2 434 3 view .LVU116
 395              	.LBB63:
 396              		.loc 3 830 27 view .LVU117
 397              		.loc 3 833 3 view .LVU118
 398              	.LBB62:
 399              		.loc 4 491 27 view .LVU119
ARM GAS  C:\Users\DEVELO~1\AppData\Local\Temp\ccobj71c.s 			page 8


 400              	.LBB61:
 401              		.loc 4 493 3 view .LVU120
 402 0034 0023     		movs	r3, #0
 403              		.syntax unified
 404              	@ 493 "../../../os/common/ext/ARM/CMSIS/Core/Include/cmsis_gcc.h" 1
 405 0036 83F31188 		MSR basepri, r3
 406              	@ 0 "" 2
 407              	.LVL30:
 408              		.loc 4 493 3 is_stmt 0 view .LVU121
 409              		.thumb
 410              		.syntax unified
 411              	.LBE61:
 412              	.LBE62:
 413              	.LBE63:
 414              	.LBE64:
 415              	.LBE66:
 416              		.loc 1 185 3 is_stmt 1 view .LVU122
 417              		.loc 1 186 1 is_stmt 0 view .LVU123
 418 003a 30BC     		pop	{r4, r5}
 419              		.cfi_restore 5
 420              		.cfi_restore 4
 421              		.cfi_def_cfa_offset 0
 422 003c 7047     		bx	lr
 423              	.L22:
 424 003e 00BF     		.align	2
 425              	.L21:
 426 0040 00000000 		.word	.LANCHOR0
 427              		.cfi_endproc
 428              	.LFE349:
 429              		.size	chCoreAllocFromBase, .-chCoreAllocFromBase
 430              		.section	.text.chCoreAllocFromTop,"ax",%progbits
 431              		.align	1
 432              		.p2align 4,,15
 433              		.global	chCoreAllocFromTop
 434              		.syntax unified
 435              		.thumb
 436              		.thumb_func
 437              		.type	chCoreAllocFromTop, %function
 438              	chCoreAllocFromTop:
 439              	.LVL31:
 440              	.LFB350:
 441              		.loc 1 202 70 is_stmt 1 view -0
 442              		.cfi_startproc
 443              		@ args = 0, pretend = 0, frame = 0
 444              		@ frame_needed = 0, uses_anonymous_args = 0
 445              		@ link register save eliminated.
 446              		.loc 1 203 3 view .LVU125
 447              		.loc 1 205 3 view .LVU126
 448              	.LBB78:
 449              	.LBI78:
 450              		.loc 2 407 20 view .LVU127
 451              		.loc 2 409 3 view .LVU128
 452              	.LBB79:
 453              	.LBI79:
 454              		.loc 3 806 27 view .LVU129
 455              		.loc 3 814 3 view .LVU130
 456              	.LBB80:
ARM GAS  C:\Users\DEVELO~1\AppData\Local\Temp\ccobj71c.s 			page 9


 457              	.LBI80:
 458              		.loc 4 491 27 view .LVU131
 459              	.LBB81:
 460              		.loc 4 493 3 view .LVU132
 461 0000 3023     		movs	r3, #48
 462              	.LBE81:
 463              	.LBE80:
 464              	.LBE79:
 465              	.LBE78:
 466              		.loc 1 202 70 is_stmt 0 view .LVU133
 467 0002 10B4     		push	{r4}
 468              		.cfi_def_cfa_offset 4
 469              		.cfi_offset 4, -4
 470              	.LBB85:
 471              	.LBB84:
 472              	.LBB83:
 473              	.LBB82:
 474              		.loc 4 493 3 view .LVU134
 475              		.syntax unified
 476              	@ 493 "../../../os/common/ext/ARM/CMSIS/Core/Include/cmsis_gcc.h" 1
 477 0004 83F31188 		MSR basepri, r3
 478              	@ 0 "" 2
 479              	.LVL32:
 480              		.loc 4 493 3 view .LVU135
 481              		.thumb
 482              		.syntax unified
 483              	.LBE82:
 484              	.LBE83:
 485              	.LBE84:
 486              		.loc 2 410 35 is_stmt 1 view .LVU136
 487              		.loc 2 411 21 view .LVU137
 488              	.LBE85:
 489              		.loc 1 206 3 view .LVU138
 490              	.LBB86:
 491              	.LBI86:
 492              		.loc 1 145 7 view .LVU139
 493              	.LBB87:
 494              		.loc 1 146 3 view .LVU140
 495              		.loc 1 148 21 view .LVU141
 496              		.loc 1 149 3 view .LVU142
 497              		.loc 1 149 3 view .LVU143
 498              		.loc 1 149 3 view .LVU144
 499              		.loc 1 151 3 view .LVU145
 500              		.loc 1 151 18 is_stmt 0 view .LVU146
 501 0008 0B4B     		ldr	r3, .L27
 502 000a 4942     		rsbs	r1, r1, #0
 503              	.LVL33:
 504              		.loc 1 151 18 view .LVU147
 505 000c 5C68     		ldr	r4, [r3, #4]
 506 000e 201A     		subs	r0, r4, r0
 507              	.LVL34:
 508              		.loc 1 151 5 view .LVU148
 509 0010 0840     		ands	r0, r0, r1
 510              	.LVL35:
 511              		.loc 1 152 3 is_stmt 1 view .LVU149
 512              		.loc 1 155 6 is_stmt 0 view .LVU150
 513 0012 1968     		ldr	r1, [r3]
ARM GAS  C:\Users\DEVELO~1\AppData\Local\Temp\ccobj71c.s 			page 10


 514              	.LVL36:
 515              		.loc 1 152 8 view .LVU151
 516 0014 821A     		subs	r2, r0, r2
 517              	.LVL37:
 518              		.loc 1 155 3 is_stmt 1 view .LVU152
 519              		.loc 1 155 35 is_stmt 0 view .LVU153
 520 0016 8A42     		cmp	r2, r1
 521 0018 07D3     		bcc	.L25
 522 001a 9442     		cmp	r4, r2
 523 001c 05D3     		bcc	.L25
 524              		.loc 1 159 3 is_stmt 1 view .LVU154
 525              		.loc 1 159 21 is_stmt 0 view .LVU155
 526 001e 5A60     		str	r2, [r3, #4]
 527              		.loc 1 161 3 is_stmt 1 view .LVU156
 528              	.LVL38:
 529              		.loc 1 161 3 is_stmt 0 view .LVU157
 530              	.LBE87:
 531              	.LBE86:
 532              		.loc 1 207 3 is_stmt 1 view .LVU158
 533              	.LBB89:
 534              	.LBI89:
 535              		.loc 2 421 20 view .LVU159
 536              	.LBB90:
 537              		.loc 2 423 23 view .LVU160
 538              		.loc 2 424 34 view .LVU161
 539              		.loc 2 430 3 view .LVU162
 540              		.loc 2 430 3 view .LVU163
 541              		.loc 2 430 3 view .LVU164
 542              		.loc 2 434 3 view .LVU165
 543              	.LBB91:
 544              	.LBI91:
 545              		.loc 3 830 27 view .LVU166
 546              		.loc 3 833 3 view .LVU167
 547              	.LBB92:
 548              	.LBI92:
 549              		.loc 4 491 27 view .LVU168
 550              	.LBB93:
 551              		.loc 4 493 3 view .LVU169
 552 0020 0023     		movs	r3, #0
 553              		.syntax unified
 554              	@ 493 "../../../os/common/ext/ARM/CMSIS/Core/Include/cmsis_gcc.h" 1
 555 0022 83F31188 		MSR basepri, r3
 556              	@ 0 "" 2
 557              	.LVL39:
 558              		.loc 4 493 3 is_stmt 0 view .LVU170
 559              		.thumb
 560              		.syntax unified
 561              	.LBE93:
 562              	.LBE92:
 563              	.LBE91:
 564              	.LBE90:
 565              	.LBE89:
 566              		.loc 1 209 3 is_stmt 1 view .LVU171
 567              		.loc 1 210 1 is_stmt 0 view .LVU172
 568 0026 10BC     		pop	{r4}
 569              		.cfi_remember_state
 570              		.cfi_restore 4
ARM GAS  C:\Users\DEVELO~1\AppData\Local\Temp\ccobj71c.s 			page 11


 571              		.cfi_def_cfa_offset 0
 572 0028 7047     		bx	lr
 573              	.LVL40:
 574              	.L25:
 575              		.cfi_restore_state
 576              	.LBB98:
 577              	.LBB88:
 578              		.loc 1 156 12 view .LVU173
 579 002a 0020     		movs	r0, #0
 580              	.LVL41:
 581              		.loc 1 156 12 view .LVU174
 582              	.LBE88:
 583              	.LBE98:
 584              		.loc 1 207 3 is_stmt 1 view .LVU175
 585              	.LBB99:
 586              		.loc 2 421 20 view .LVU176
 587              	.LBB97:
 588              		.loc 2 423 23 view .LVU177
 589              		.loc 2 424 34 view .LVU178
 590              		.loc 2 430 3 view .LVU179
 591              		.loc 2 430 3 view .LVU180
 592              		.loc 2 430 3 view .LVU181
 593              		.loc 2 434 3 view .LVU182
 594              	.LBB96:
 595              		.loc 3 830 27 view .LVU183
 596              		.loc 3 833 3 view .LVU184
 597              	.LBB95:
 598              		.loc 4 491 27 view .LVU185
 599              	.LBB94:
 600              		.loc 4 493 3 view .LVU186
 601 002c 0023     		movs	r3, #0
 602              		.syntax unified
 603              	@ 493 "../../../os/common/ext/ARM/CMSIS/Core/Include/cmsis_gcc.h" 1
 604 002e 83F31188 		MSR basepri, r3
 605              	@ 0 "" 2
 606              	.LVL42:
 607              		.loc 4 493 3 is_stmt 0 view .LVU187
 608              		.thumb
 609              		.syntax unified
 610              	.LBE94:
 611              	.LBE95:
 612              	.LBE96:
 613              	.LBE97:
 614              	.LBE99:
 615              		.loc 1 209 3 is_stmt 1 view .LVU188
 616              		.loc 1 210 1 is_stmt 0 view .LVU189
 617 0032 10BC     		pop	{r4}
 618              		.cfi_restore 4
 619              		.cfi_def_cfa_offset 0
 620 0034 7047     		bx	lr
 621              	.L28:
 622 0036 00BF     		.align	2
 623              	.L27:
 624 0038 00000000 		.word	.LANCHOR0
 625              		.cfi_endproc
 626              	.LFE350:
 627              		.size	chCoreAllocFromTop, .-chCoreAllocFromTop
ARM GAS  C:\Users\DEVELO~1\AppData\Local\Temp\ccobj71c.s 			page 12


 628              		.section	.text.chCoreGetStatusX,"ax",%progbits
 629              		.align	1
 630              		.p2align 4,,15
 631              		.global	chCoreGetStatusX
 632              		.syntax unified
 633              		.thumb
 634              		.thumb_func
 635              		.type	chCoreGetStatusX, %function
 636              	chCoreGetStatusX:
 637              	.LFB351:
 638              		.loc 1 219 31 is_stmt 1 view -0
 639              		.cfi_startproc
 640              		@ args = 0, pretend = 0, frame = 0
 641              		@ frame_needed = 0, uses_anonymous_args = 0
 642              		@ link register save eliminated.
 643              		.loc 1 222 3 view .LVU191
 644              		.loc 1 222 29 is_stmt 0 view .LVU192
 645 0000 024B     		ldr	r3, .L30
 646              		.loc 1 222 37 view .LVU193
 647 0002 D3E90030 		ldrd	r3, r0, [r3]
 648              		.loc 1 224 1 view .LVU194
 649 0006 C01A     		subs	r0, r0, r3
 650 0008 7047     		bx	lr
 651              	.L31:
 652 000a 00BF     		.align	2
 653              	.L30:
 654 000c 00000000 		.word	.LANCHOR0
 655              		.cfi_endproc
 656              	.LFE351:
 657              		.size	chCoreGetStatusX, .-chCoreGetStatusX
 658              		.global	ch_memcore
 659              		.section	.bss.ch_memcore,"aw",%nobits
 660              		.align	2
 661              		.set	.LANCHOR0,. + 0
 662              		.type	ch_memcore, %object
 663              		.size	ch_memcore, 8
 664              	ch_memcore:
 665 0000 00000000 		.space	8
 665      00000000 
 666              		.text
 667              	.Letext0:
 668              		.file 5 "c:\\chibistudio\\tools\\gnu tools arm embedded\\11.3 2022.08\\lib\\gcc\\arm-none-eabi\\11
 669              		.file 6 "c:\\chibistudio\\tools\\gnu tools arm embedded\\11.3 2022.08\\arm-none-eabi\\include\\mac
 670              		.file 7 "c:\\chibistudio\\tools\\gnu tools arm embedded\\11.3 2022.08\\arm-none-eabi\\include\\sys
 671              		.file 8 "../../../os/oslib/include/chmemcore.h"
 672              		.section	.debug_info,"",%progbits
 673              	.Ldebug_info0:
 674 0000 C6050000 		.4byte	0x5c6
 675 0004 0500     		.2byte	0x5
 676 0006 01       		.byte	0x1
 677 0007 04       		.byte	0x4
 678 0008 00000000 		.4byte	.Ldebug_abbrev0
 679 000c 18       		.uleb128 0x18
 680 000d 7C000000 		.4byte	.LASF41
 681 0011 1D       		.byte	0x1d
 682 0012 00000000 		.4byte	.LASF42
 683 0016 71020000 		.4byte	.LASF43
ARM GAS  C:\Users\DEVELO~1\AppData\Local\Temp\ccobj71c.s 			page 13


 684 001a 54000000 		.4byte	.LLRL38
 685 001e 00000000 		.4byte	0
 686 0022 00000000 		.4byte	.Ldebug_line0
 687 0026 19       		.uleb128 0x19
 688 0027 04       		.byte	0x4
 689 0028 05       		.byte	0x5
 690 0029 696E7400 		.ascii	"int\000"
 691 002d 05       		.uleb128 0x5
 692 002e 2C000000 		.4byte	.LASF4
 693 0032 05       		.byte	0x5
 694 0033 D1       		.byte	0xd1
 695 0034 17       		.byte	0x17
 696 0035 39000000 		.4byte	0x39
 697 0039 02       		.uleb128 0x2
 698 003a 04       		.byte	0x4
 699 003b 07       		.byte	0x7
 700 003c BF010000 		.4byte	.LASF0
 701 0040 02       		.uleb128 0x2
 702 0041 08       		.byte	0x8
 703 0042 05       		.byte	0x5
 704 0043 2E020000 		.4byte	.LASF1
 705 0047 02       		.uleb128 0x2
 706 0048 08       		.byte	0x8
 707 0049 04       		.byte	0x4
 708 004a DA020000 		.4byte	.LASF2
 709 004e 02       		.uleb128 0x2
 710 004f 01       		.byte	0x1
 711 0050 06       		.byte	0x6
 712 0051 E6020000 		.4byte	.LASF3
 713 0055 05       		.uleb128 0x5
 714 0056 22000000 		.4byte	.LASF5
 715 005a 06       		.byte	0x6
 716 005b 2B       		.byte	0x2b
 717 005c 18       		.byte	0x18
 718 005d 61000000 		.4byte	0x61
 719 0061 02       		.uleb128 0x2
 720 0062 01       		.byte	0x1
 721 0063 08       		.byte	0x8
 722 0064 65010000 		.4byte	.LASF6
 723 0068 02       		.uleb128 0x2
 724 0069 02       		.byte	0x2
 725 006a 05       		.byte	0x5
 726 006b 53020000 		.4byte	.LASF7
 727 006f 02       		.uleb128 0x2
 728 0070 02       		.byte	0x2
 729 0071 07       		.byte	0x7
 730 0072 85010000 		.4byte	.LASF8
 731 0076 02       		.uleb128 0x2
 732 0077 04       		.byte	0x4
 733 0078 05       		.byte	0x5
 734 0079 D1020000 		.4byte	.LASF9
 735 007d 05       		.uleb128 0x5
 736 007e 9F010000 		.4byte	.LASF10
 737 0082 06       		.byte	0x6
 738 0083 4F       		.byte	0x4f
 739 0084 19       		.byte	0x19
 740 0085 89000000 		.4byte	0x89
ARM GAS  C:\Users\DEVELO~1\AppData\Local\Temp\ccobj71c.s 			page 14


 741 0089 02       		.uleb128 0x2
 742 008a 04       		.byte	0x4
 743 008b 07       		.byte	0x7
 744 008c 73010000 		.4byte	.LASF11
 745 0090 02       		.uleb128 0x2
 746 0091 08       		.byte	0x8
 747 0092 07       		.byte	0x7
 748 0093 40010000 		.4byte	.LASF12
 749 0097 05       		.uleb128 0x5
 750 0098 D1010000 		.4byte	.LASF13
 751 009c 07       		.byte	0x7
 752 009d 18       		.byte	0x18
 753 009e 13       		.byte	0x13
 754 009f 55000000 		.4byte	0x55
 755 00a3 05       		.uleb128 0x5
 756 00a4 C8020000 		.4byte	.LASF14
 757 00a8 07       		.byte	0x7
 758 00a9 30       		.byte	0x30
 759 00aa 14       		.byte	0x14
 760 00ab 7D000000 		.4byte	0x7d
 761 00af 02       		.uleb128 0x2
 762 00b0 01       		.byte	0x1
 763 00b1 08       		.byte	0x8
 764 00b2 CC010000 		.4byte	.LASF15
 765 00b6 08       		.uleb128 0x8
 766 00b7 AF000000 		.4byte	0xaf
 767 00bb 1A       		.uleb128 0x1a
 768 00bc 04       		.byte	0x4
 769 00bd 02       		.uleb128 0x2
 770 00be 04       		.byte	0x4
 771 00bf 04       		.byte	0x4
 772 00c0 3A010000 		.4byte	.LASF16
 773 00c4 02       		.uleb128 0x2
 774 00c5 08       		.byte	0x8
 775 00c6 04       		.byte	0x4
 776 00c7 98010000 		.4byte	.LASF17
 777 00cb 1B       		.uleb128 0x1b
 778 00cc 04       		.byte	0x4
 779 00cd 97000000 		.4byte	0x97
 780 00d1 02       		.uleb128 0x2
 781 00d2 01       		.byte	0x1
 782 00d3 02       		.byte	0x2
 783 00d4 F7020000 		.4byte	.LASF18
 784 00d8 1C       		.uleb128 0x1c
 785 00d9 08       		.byte	0x8
 786 00da 08       		.byte	0x8
 787 00db 51       		.byte	0x51
 788 00dc 09       		.byte	0x9
 789 00dd F8000000 		.4byte	0xf8
 790 00e1 10       		.uleb128 0x10
 791 00e2 C0020000 		.4byte	.LASF19
 792 00e6 55       		.byte	0x55
 793 00e7 CB000000 		.4byte	0xcb
 794 00eb 00       		.byte	0
 795 00ec 10       		.uleb128 0x10
 796 00ed D9010000 		.4byte	.LASF20
 797 00f1 59       		.byte	0x59
ARM GAS  C:\Users\DEVELO~1\AppData\Local\Temp\ccobj71c.s 			page 15


 798 00f2 CB000000 		.4byte	0xcb
 799 00f6 04       		.byte	0x4
 800 00f7 00       		.byte	0
 801 00f8 05       		.uleb128 0x5
 802 00f9 66000000 		.4byte	.LASF21
 803 00fd 08       		.byte	0x8
 804 00fe 5A       		.byte	0x5a
 805 00ff 03       		.byte	0x3
 806 0100 D8000000 		.4byte	0xd8
 807 0104 0C       		.uleb128 0xc
 808 0105 AA010000 		.4byte	.LASF25
 809 0109 08       		.byte	0x8
 810 010a 75       		.byte	0x75
 811 010b F8000000 		.4byte	0xf8
 812 010f 1D       		.uleb128 0x1d
 813 0110 04010000 		.4byte	0x104
 814 0114 01       		.byte	0x1
 815 0115 3A       		.byte	0x3a
 816 0116 0B       		.byte	0xb
 817 0117 05       		.uleb128 0x5
 818 0118 03       		.byte	0x3
 819 0119 00000000 		.4byte	ch_memcore
 820 011d 1E       		.uleb128 0x1e
 821 011e 1D020000 		.4byte	.LASF44
 822 0122 01       		.byte	0x1
 823 0123 DB       		.byte	0xdb
 824 0124 08       		.byte	0x8
 825 0125 2D000000 		.4byte	0x2d
 826 0129 00000000 		.4byte	.LFB351
 827 012d 10000000 		.4byte	.LFE351-.LFB351
 828 0131 01       		.uleb128 0x1
 829 0132 9C       		.byte	0x9c
 830 0133 11       		.uleb128 0x11
 831 0134 F6010000 		.4byte	.LASF26
 832 0138 CA       		.byte	0xca
 833 0139 BB000000 		.4byte	0xbb
 834 013d 00000000 		.4byte	.LFB350
 835 0141 3C000000 		.4byte	.LFE350-.LFB350
 836 0145 01       		.uleb128 0x1
 837 0146 9C       		.byte	0x9c
 838 0147 7E020000 		.4byte	0x27e
 839 014b 06       		.uleb128 0x6
 840 014c F2020000 		.4byte	.LASF22
 841 0150 CA       		.byte	0xca
 842 0151 21       		.byte	0x21
 843 0152 2D000000 		.4byte	0x2d
 844 0156 10000000 		.4byte	.LLST24
 845 015a 0C000000 		.4byte	.LVUS24
 846 015e 06       		.uleb128 0x6
 847 015f 3F000000 		.4byte	.LASF23
 848 0163 CA       		.byte	0xca
 849 0164 30       		.byte	0x30
 850 0165 39000000 		.4byte	0x39
 851 0169 29000000 		.4byte	.LLST25
 852 016d 23000000 		.4byte	.LVUS25
 853 0171 06       		.uleb128 0x6
 854 0172 38000000 		.4byte	.LASF24
ARM GAS  C:\Users\DEVELO~1\AppData\Local\Temp\ccobj71c.s 			page 16


 855 0176 CA       		.byte	0xca
 856 0177 3E       		.byte	0x3e
 857 0178 2D000000 		.4byte	0x2d
 858 017c 48000000 		.4byte	.LLST26
 859 0180 44000000 		.4byte	.LVUS26
 860 0184 12       		.uleb128 0x12
 861 0185 7000     		.ascii	"p\000"
 862 0187 CB       		.byte	0xcb
 863 0188 BB000000 		.4byte	0xbb
 864 018c 5F000000 		.4byte	.LLST27
 865 0190 5B000000 		.4byte	.LVUS27
 866 0194 09       		.uleb128 0x9
 867 0195 ED040000 		.4byte	0x4ed
 868 0199 00000000 		.4byte	.LBI78
 869 019d 03       		.byte	.LVU127
 870 019e 30000000 		.4byte	.LLRL28
 871 01a2 CD       		.byte	0xcd
 872 01a3 03       		.byte	0x3
 873 01a4 DA010000 		.4byte	0x1da
 874 01a8 03       		.uleb128 0x3
 875 01a9 FF040000 		.4byte	0x4ff
 876 01ad 00000000 		.4byte	.LBI79
 877 01b1 05       		.byte	.LVU129
 878 01b2 30000000 		.4byte	.LLRL28
 879 01b6 02       		.byte	0x2
 880 01b7 9901     		.2byte	0x199
 881 01b9 03       		.uleb128 0x3
 882 01ba 08050000 		.4byte	0x508
 883 01be 00000000 		.4byte	.LBI80
 884 01c2 07       		.byte	.LVU131
 885 01c3 30000000 		.4byte	.LLRL28
 886 01c7 03       		.byte	0x3
 887 01c8 2E03     		.2byte	0x32e
 888 01ca 01       		.uleb128 0x1
 889 01cb 15050000 		.4byte	0x515
 890 01cf 71000000 		.4byte	.LLST29
 891 01d3 6F000000 		.4byte	.LVUS29
 892 01d7 00       		.byte	0
 893 01d8 00       		.byte	0
 894 01d9 00       		.byte	0
 895 01da 09       		.uleb128 0x9
 896 01db C9030000 		.4byte	0x3c9
 897 01df 08000000 		.4byte	.LBI86
 898 01e3 04       		.byte	.LVU139
 899 01e4 3C000000 		.4byte	.LLRL30
 900 01e8 CE       		.byte	0xce
 901 01e9 07       		.byte	0x7
 902 01ea 36020000 		.4byte	0x236
 903 01ee 01       		.uleb128 0x1
 904 01ef ED030000 		.4byte	0x3ed
 905 01f3 82000000 		.4byte	.LLST31
 906 01f7 7C000000 		.4byte	.LVUS31
 907 01fb 01       		.uleb128 0x1
 908 01fc E2030000 		.4byte	0x3e2
 909 0200 A5000000 		.4byte	.LLST32
 910 0204 9D000000 		.4byte	.LVUS32
 911 0208 01       		.uleb128 0x1
ARM GAS  C:\Users\DEVELO~1\AppData\Local\Temp\ccobj71c.s 			page 17


 912 0209 D7030000 		.4byte	0x3d7
 913 020d CE000000 		.4byte	.LLST33
 914 0211 C8000000 		.4byte	.LVUS33
 915 0215 0A       		.uleb128 0xa
 916 0216 3C000000 		.4byte	.LLRL30
 917 021a 04       		.uleb128 0x4
 918 021b F8030000 		.4byte	0x3f8
 919 021f ED000000 		.4byte	.LLST34
 920 0223 E9000000 		.4byte	.LVUS34
 921 0227 04       		.uleb128 0x4
 922 0228 00040000 		.4byte	0x400
 923 022c 01010000 		.4byte	.LLST35
 924 0230 FD000000 		.4byte	.LVUS35
 925 0234 00       		.byte	0
 926 0235 00       		.byte	0
 927 0236 13       		.uleb128 0x13
 928 0237 C1040000 		.4byte	0x4c1
 929 023b 20000000 		.4byte	.LBI89
 930 023f 03       		.byte	.LVU159
 931 0240 48000000 		.4byte	.LLRL36
 932 0244 CF       		.byte	0xcf
 933 0245 0A       		.uleb128 0xa
 934 0246 48000000 		.4byte	.LLRL36
 935 024a 03       		.uleb128 0x3
 936 024b F6040000 		.4byte	0x4f6
 937 024f 20000000 		.4byte	.LBI91
 938 0253 0A       		.byte	.LVU166
 939 0254 48000000 		.4byte	.LLRL36
 940 0258 02       		.byte	0x2
 941 0259 B201     		.2byte	0x1b2
 942 025b 03       		.uleb128 0x3
 943 025c 08050000 		.4byte	0x508
 944 0260 20000000 		.4byte	.LBI92
 945 0264 0C       		.byte	.LVU168
 946 0265 48000000 		.4byte	.LLRL36
 947 0269 03       		.byte	0x3
 948 026a 4103     		.2byte	0x341
 949 026c 01       		.uleb128 0x1
 950 026d 15050000 		.4byte	0x515
 951 0271 15010000 		.4byte	.LLST37
 952 0275 11010000 		.4byte	.LVUS37
 953 0279 00       		.byte	0
 954 027a 00       		.byte	0
 955 027b 00       		.byte	0
 956 027c 00       		.byte	0
 957 027d 00       		.byte	0
 958 027e 11       		.uleb128 0x11
 959 027f 5D020000 		.4byte	.LASF27
 960 0283 B2       		.byte	0xb2
 961 0284 BB000000 		.4byte	0xbb
 962 0288 00000000 		.4byte	.LFB349
 963 028c 44000000 		.4byte	.LFE349-.LFB349
 964 0290 01       		.uleb128 0x1
 965 0291 9C       		.byte	0x9c
 966 0292 C9030000 		.4byte	0x3c9
 967 0296 06       		.uleb128 0x6
 968 0297 F2020000 		.4byte	.LASF22
ARM GAS  C:\Users\DEVELO~1\AppData\Local\Temp\ccobj71c.s 			page 18


 969 029b B2       		.byte	0xb2
 970 029c 22       		.byte	0x22
 971 029d 2D000000 		.4byte	0x2d
 972 02a1 2D010000 		.4byte	.LLST10
 973 02a5 27010000 		.4byte	.LVUS10
 974 02a9 06       		.uleb128 0x6
 975 02aa 3F000000 		.4byte	.LASF23
 976 02ae B2       		.byte	0xb2
 977 02af 31       		.byte	0x31
 978 02b0 39000000 		.4byte	0x39
 979 02b4 49010000 		.4byte	.LLST11
 980 02b8 45010000 		.4byte	.LVUS11
 981 02bc 06       		.uleb128 0x6
 982 02bd 38000000 		.4byte	.LASF24
 983 02c1 B2       		.byte	0xb2
 984 02c2 3F       		.byte	0x3f
 985 02c3 2D000000 		.4byte	0x2d
 986 02c7 60010000 		.4byte	.LLST12
 987 02cb 5C010000 		.4byte	.LVUS12
 988 02cf 12       		.uleb128 0x12
 989 02d0 7000     		.ascii	"p\000"
 990 02d2 B3       		.byte	0xb3
 991 02d3 BB000000 		.4byte	0xbb
 992 02d7 77010000 		.4byte	.LLST13
 993 02db 73010000 		.4byte	.LVUS13
 994 02df 09       		.uleb128 0x9
 995 02e0 ED040000 		.4byte	0x4ed
 996 02e4 00000000 		.4byte	.LBI45
 997 02e8 03       		.byte	.LVU59
 998 02e9 0C000000 		.4byte	.LLRL14
 999 02ed B5       		.byte	0xb5
 1000 02ee 03       		.byte	0x3
 1001 02ef 25030000 		.4byte	0x325
 1002 02f3 03       		.uleb128 0x3
 1003 02f4 FF040000 		.4byte	0x4ff
 1004 02f8 00000000 		.4byte	.LBI46
 1005 02fc 05       		.byte	.LVU61
 1006 02fd 0C000000 		.4byte	.LLRL14
 1007 0301 02       		.byte	0x2
 1008 0302 9901     		.2byte	0x199
 1009 0304 03       		.uleb128 0x3
 1010 0305 08050000 		.4byte	0x508
 1011 0309 00000000 		.4byte	.LBI47
 1012 030d 07       		.byte	.LVU63
 1013 030e 0C000000 		.4byte	.LLRL14
 1014 0312 03       		.byte	0x3
 1015 0313 2E03     		.2byte	0x32e
 1016 0315 01       		.uleb128 0x1
 1017 0316 15050000 		.4byte	0x515
 1018 031a 89010000 		.4byte	.LLST15
 1019 031e 87010000 		.4byte	.LVUS15
 1020 0322 00       		.byte	0
 1021 0323 00       		.byte	0
 1022 0324 00       		.byte	0
 1023 0325 09       		.uleb128 0x9
 1024 0326 29040000 		.4byte	0x429
 1025 032a 0A000000 		.4byte	.LBI53
ARM GAS  C:\Users\DEVELO~1\AppData\Local\Temp\ccobj71c.s 			page 19


 1026 032e 04       		.byte	.LVU72
 1027 032f 18000000 		.4byte	.LLRL16
 1028 0333 B6       		.byte	0xb6
 1029 0334 07       		.byte	0x7
 1030 0335 81030000 		.4byte	0x381
 1031 0339 01       		.uleb128 0x1
 1032 033a 4D040000 		.4byte	0x44d
 1033 033e 9A010000 		.4byte	.LLST17
 1034 0342 94010000 		.4byte	.LVUS17
 1035 0346 01       		.uleb128 0x1
 1036 0347 42040000 		.4byte	0x442
 1037 034b BB010000 		.4byte	.LLST18
 1038 034f B5010000 		.4byte	.LVUS18
 1039 0353 01       		.uleb128 0x1
 1040 0354 37040000 		.4byte	0x437
 1041 0358 DE010000 		.4byte	.LLST19
 1042 035c D6010000 		.4byte	.LVUS19
 1043 0360 0A       		.uleb128 0xa
 1044 0361 18000000 		.4byte	.LLRL16
 1045 0365 04       		.uleb128 0x4
 1046 0366 58040000 		.4byte	0x458
 1047 036a 02020000 		.4byte	.LLST20
 1048 036e FE010000 		.4byte	.LVUS20
 1049 0372 04       		.uleb128 0x4
 1050 0373 60040000 		.4byte	0x460
 1051 0377 16020000 		.4byte	.LLST21
 1052 037b 12020000 		.4byte	.LVUS21
 1053 037f 00       		.byte	0
 1054 0380 00       		.byte	0
 1055 0381 13       		.uleb128 0x13
 1056 0382 C1040000 		.4byte	0x4c1
 1057 0386 28000000 		.4byte	.LBI56
 1058 038a 03       		.byte	.LVU93
 1059 038b 24000000 		.4byte	.LLRL22
 1060 038f B7       		.byte	0xb7
 1061 0390 0A       		.uleb128 0xa
 1062 0391 24000000 		.4byte	.LLRL22
 1063 0395 03       		.uleb128 0x3
 1064 0396 F6040000 		.4byte	0x4f6
 1065 039a 28000000 		.4byte	.LBI58
 1066 039e 0A       		.byte	.LVU100
 1067 039f 24000000 		.4byte	.LLRL22
 1068 03a3 02       		.byte	0x2
 1069 03a4 B201     		.2byte	0x1b2
 1070 03a6 03       		.uleb128 0x3
 1071 03a7 08050000 		.4byte	0x508
 1072 03ab 28000000 		.4byte	.LBI59
 1073 03af 0C       		.byte	.LVU102
 1074 03b0 24000000 		.4byte	.LLRL22
 1075 03b4 03       		.byte	0x3
 1076 03b5 4103     		.2byte	0x341
 1077 03b7 01       		.uleb128 0x1
 1078 03b8 15050000 		.4byte	0x515
 1079 03bc 2A020000 		.4byte	.LLST23
 1080 03c0 26020000 		.4byte	.LVUS23
 1081 03c4 00       		.byte	0
 1082 03c5 00       		.byte	0
ARM GAS  C:\Users\DEVELO~1\AppData\Local\Temp\ccobj71c.s 			page 20


 1083 03c6 00       		.byte	0
 1084 03c7 00       		.byte	0
 1085 03c8 00       		.byte	0
 1086 03c9 14       		.uleb128 0x14
 1087 03ca 09020000 		.4byte	.LASF29
 1088 03ce 91       		.byte	0x91
 1089 03cf BB000000 		.4byte	0xbb
 1090 03d3 14040000 		.4byte	0x414
 1091 03d7 07       		.uleb128 0x7
 1092 03d8 F2020000 		.4byte	.LASF22
 1093 03dc 91       		.byte	0x91
 1094 03dd 22       		.byte	0x22
 1095 03de 2D000000 		.4byte	0x2d
 1096 03e2 07       		.uleb128 0x7
 1097 03e3 3F000000 		.4byte	.LASF23
 1098 03e7 91       		.byte	0x91
 1099 03e8 31       		.byte	0x31
 1100 03e9 39000000 		.4byte	0x39
 1101 03ed 07       		.uleb128 0x7
 1102 03ee 38000000 		.4byte	.LASF24
 1103 03f2 91       		.byte	0x91
 1104 03f3 3F       		.byte	0x3f
 1105 03f4 2D000000 		.4byte	0x2d
 1106 03f8 15       		.uleb128 0x15
 1107 03f9 7000     		.ascii	"p\000"
 1108 03fb 92       		.byte	0x92
 1109 03fc CB000000 		.4byte	0xcb
 1110 0400 16       		.uleb128 0x16
 1111 0401 FD020000 		.4byte	.LASF28
 1112 0405 92       		.byte	0x92
 1113 0406 CB000000 		.4byte	0xcb
 1114 040a 0D       		.uleb128 0xd
 1115 040b 31010000 		.4byte	.LASF32
 1116 040f 24040000 		.4byte	0x424
 1117 0413 00       		.byte	0
 1118 0414 0B       		.uleb128 0xb
 1119 0415 B6000000 		.4byte	0xb6
 1120 0419 24040000 		.4byte	0x424
 1121 041d 0E       		.uleb128 0xe
 1122 041e 39000000 		.4byte	0x39
 1123 0422 13       		.byte	0x13
 1124 0423 00       		.byte	0
 1125 0424 08       		.uleb128 0x8
 1126 0425 14040000 		.4byte	0x414
 1127 0429 14       		.uleb128 0x14
 1128 042a 51000000 		.4byte	.LASF30
 1129 042e 70       		.byte	0x70
 1130 042f BB000000 		.4byte	0xbb
 1131 0433 74040000 		.4byte	0x474
 1132 0437 07       		.uleb128 0x7
 1133 0438 F2020000 		.4byte	.LASF22
 1134 043c 70       		.byte	0x70
 1135 043d 23       		.byte	0x23
 1136 043e 2D000000 		.4byte	0x2d
 1137 0442 07       		.uleb128 0x7
 1138 0443 3F000000 		.4byte	.LASF23
 1139 0447 70       		.byte	0x70
ARM GAS  C:\Users\DEVELO~1\AppData\Local\Temp\ccobj71c.s 			page 21


 1140 0448 32       		.byte	0x32
 1141 0449 39000000 		.4byte	0x39
 1142 044d 07       		.uleb128 0x7
 1143 044e 38000000 		.4byte	.LASF24
 1144 0452 70       		.byte	0x70
 1145 0453 40       		.byte	0x40
 1146 0454 2D000000 		.4byte	0x2d
 1147 0458 15       		.uleb128 0x15
 1148 0459 7000     		.ascii	"p\000"
 1149 045b 71       		.byte	0x71
 1150 045c CB000000 		.4byte	0xcb
 1151 0460 16       		.uleb128 0x16
 1152 0461 33000000 		.4byte	.LASF31
 1153 0465 71       		.byte	0x71
 1154 0466 CB000000 		.4byte	0xcb
 1155 046a 0D       		.uleb128 0xd
 1156 046b 31010000 		.4byte	.LASF32
 1157 046f 84040000 		.4byte	0x484
 1158 0473 00       		.byte	0
 1159 0474 0B       		.uleb128 0xb
 1160 0475 B6000000 		.4byte	0xb6
 1161 0479 84040000 		.4byte	0x484
 1162 047d 0E       		.uleb128 0xe
 1163 047e 39000000 		.4byte	0x39
 1164 0482 14       		.byte	0x14
 1165 0483 00       		.byte	0
 1166 0484 08       		.uleb128 0x8
 1167 0485 74040000 		.4byte	0x474
 1168 0489 1F       		.uleb128 0x1f
 1169 048a 45000000 		.4byte	.LASF45
 1170 048e 01       		.byte	0x1
 1171 048f 51       		.byte	0x51
 1172 0490 06       		.byte	0x6
 1173 0491 00000000 		.4byte	.LFB346
 1174 0495 18000000 		.4byte	.LFE346-.LFB346
 1175 0499 01       		.uleb128 0x1
 1176 049a 9C       		.byte	0x9c
 1177 049b B6040000 		.4byte	0x4b6
 1178 049f 0C       		.uleb128 0xc
 1179 04a0 E0010000 		.4byte	.LASF33
 1180 04a4 01       		.byte	0x1
 1181 04a5 53       		.byte	0x53
 1182 04a6 B6040000 		.4byte	0x4b6
 1183 04aa 0C       		.uleb128 0xc
 1184 04ab 3C020000 		.4byte	.LASF34
 1185 04af 01       		.byte	0x1
 1186 04b0 54       		.byte	0x54
 1187 04b1 B6040000 		.4byte	0x4b6
 1188 04b5 00       		.byte	0
 1189 04b6 0B       		.uleb128 0xb
 1190 04b7 97000000 		.4byte	0x97
 1191 04bb C1040000 		.4byte	0x4c1
 1192 04bf 20       		.uleb128 0x20
 1193 04c0 00       		.byte	0
 1194 04c1 17       		.uleb128 0x17
 1195 04c2 02030000 		.4byte	.LASF38
 1196 04c6 02       		.byte	0x2
ARM GAS  C:\Users\DEVELO~1\AppData\Local\Temp\ccobj71c.s 			page 22


 1197 04c7 A501     		.2byte	0x1a5
 1198 04c9 14       		.byte	0x14
 1199 04ca D8040000 		.4byte	0x4d8
 1200 04ce 0D       		.uleb128 0xd
 1201 04cf 31010000 		.4byte	.LASF32
 1202 04d3 E8040000 		.4byte	0x4e8
 1203 04d7 00       		.byte	0
 1204 04d8 0B       		.uleb128 0xb
 1205 04d9 B6000000 		.4byte	0xb6
 1206 04dd E8040000 		.4byte	0x4e8
 1207 04e1 0E       		.uleb128 0xe
 1208 04e2 39000000 		.4byte	0x39
 1209 04e6 0B       		.byte	0xb
 1210 04e7 00       		.byte	0
 1211 04e8 08       		.uleb128 0x8
 1212 04e9 D8040000 		.4byte	0x4d8
 1213 04ed 0F       		.uleb128 0xf
 1214 04ee 49020000 		.4byte	.LASF35
 1215 04f2 02       		.byte	0x2
 1216 04f3 9701     		.2byte	0x197
 1217 04f5 14       		.byte	0x14
 1218 04f6 0F       		.uleb128 0xf
 1219 04f7 70000000 		.4byte	.LASF36
 1220 04fb 03       		.byte	0x3
 1221 04fc 3E03     		.2byte	0x33e
 1222 04fe 1B       		.byte	0x1b
 1223 04ff 0F       		.uleb128 0xf
 1224 0500 B5010000 		.4byte	.LASF37
 1225 0504 03       		.byte	0x3
 1226 0505 2603     		.2byte	0x326
 1227 0507 1B       		.byte	0x1b
 1228 0508 17       		.uleb128 0x17
 1229 0509 57010000 		.4byte	.LASF39
 1230 050d 04       		.byte	0x4
 1231 050e EB01     		.2byte	0x1eb
 1232 0510 1B       		.byte	0x1b
 1233 0511 23050000 		.4byte	0x523
 1234 0515 21       		.uleb128 0x21
 1235 0516 EE010000 		.4byte	.LASF40
 1236 051a 04       		.byte	0x4
 1237 051b EB01     		.2byte	0x1eb
 1238 051d 32       		.byte	0x32
 1239 051e A3000000 		.4byte	0xa3
 1240 0522 00       		.byte	0
 1241 0523 22       		.uleb128 0x22
 1242 0524 29040000 		.4byte	0x429
 1243 0528 00000000 		.4byte	.LFB347
 1244 052c 34000000 		.4byte	.LFE347-.LFB347
 1245 0530 01       		.uleb128 0x1
 1246 0531 9C       		.byte	0x9c
 1247 0532 78050000 		.4byte	0x578
 1248 0536 01       		.uleb128 0x1
 1249 0537 37040000 		.4byte	0x437
 1250 053b 40020000 		.4byte	.LLST0
 1251 053f 3C020000 		.4byte	.LVUS0
 1252 0543 01       		.uleb128 0x1
 1253 0544 42040000 		.4byte	0x442
ARM GAS  C:\Users\DEVELO~1\AppData\Local\Temp\ccobj71c.s 			page 23


 1254 0548 59020000 		.4byte	.LLST1
 1255 054c 53020000 		.4byte	.LVUS1
 1256 0550 01       		.uleb128 0x1
 1257 0551 4D040000 		.4byte	0x44d
 1258 0555 77020000 		.4byte	.LLST2
 1259 0559 73020000 		.4byte	.LVUS2
 1260 055d 04       		.uleb128 0x4
 1261 055e 58040000 		.4byte	0x458
 1262 0562 90020000 		.4byte	.LLST3
 1263 0566 8A020000 		.4byte	.LVUS3
 1264 056a 04       		.uleb128 0x4
 1265 056b 60040000 		.4byte	0x460
 1266 056f CB020000 		.4byte	.LLST4
 1267 0573 C3020000 		.4byte	.LVUS4
 1268 0577 00       		.byte	0
 1269 0578 23       		.uleb128 0x23
 1270 0579 C9030000 		.4byte	0x3c9
 1271 057d 00000000 		.4byte	.LFB348
 1272 0581 28000000 		.4byte	.LFE348-.LFB348
 1273 0585 01       		.uleb128 0x1
 1274 0586 9C       		.byte	0x9c
 1275 0587 01       		.uleb128 0x1
 1276 0588 D7030000 		.4byte	0x3d7
 1277 058c 02030000 		.4byte	.LLST5
 1278 0590 FE020000 		.4byte	.LVUS5
 1279 0594 01       		.uleb128 0x1
 1280 0595 E2030000 		.4byte	0x3e2
 1281 0599 1B030000 		.4byte	.LLST6
 1282 059d 15030000 		.4byte	.LVUS6
 1283 05a1 01       		.uleb128 0x1
 1284 05a2 ED030000 		.4byte	0x3ed
 1285 05a6 3A030000 		.4byte	.LLST7
 1286 05aa 36030000 		.4byte	.LVUS7
 1287 05ae 04       		.uleb128 0x4
 1288 05af F8030000 		.4byte	0x3f8
 1289 05b3 53030000 		.4byte	.LLST8
 1290 05b7 4D030000 		.4byte	.LVUS8
 1291 05bb 04       		.uleb128 0x4
 1292 05bc 00040000 		.4byte	0x400
 1293 05c0 84030000 		.4byte	.LLST9
 1294 05c4 82030000 		.4byte	.LVUS9
 1295 05c8 00       		.byte	0
 1296 05c9 00       		.byte	0
 1297              		.section	.debug_abbrev,"",%progbits
 1298              	.Ldebug_abbrev0:
 1299 0000 01       		.uleb128 0x1
 1300 0001 05       		.uleb128 0x5
 1301 0002 00       		.byte	0
 1302 0003 31       		.uleb128 0x31
 1303 0004 13       		.uleb128 0x13
 1304 0005 02       		.uleb128 0x2
 1305 0006 17       		.uleb128 0x17
 1306 0007 B742     		.uleb128 0x2137
 1307 0009 17       		.uleb128 0x17
 1308 000a 00       		.byte	0
 1309 000b 00       		.byte	0
 1310 000c 02       		.uleb128 0x2
ARM GAS  C:\Users\DEVELO~1\AppData\Local\Temp\ccobj71c.s 			page 24


 1311 000d 24       		.uleb128 0x24
 1312 000e 00       		.byte	0
 1313 000f 0B       		.uleb128 0xb
 1314 0010 0B       		.uleb128 0xb
 1315 0011 3E       		.uleb128 0x3e
 1316 0012 0B       		.uleb128 0xb
 1317 0013 03       		.uleb128 0x3
 1318 0014 0E       		.uleb128 0xe
 1319 0015 00       		.byte	0
 1320 0016 00       		.byte	0
 1321 0017 03       		.uleb128 0x3
 1322 0018 1D       		.uleb128 0x1d
 1323 0019 01       		.byte	0x1
 1324 001a 31       		.uleb128 0x31
 1325 001b 13       		.uleb128 0x13
 1326 001c 52       		.uleb128 0x52
 1327 001d 01       		.uleb128 0x1
 1328 001e B842     		.uleb128 0x2138
 1329 0020 0B       		.uleb128 0xb
 1330 0021 55       		.uleb128 0x55
 1331 0022 17       		.uleb128 0x17
 1332 0023 58       		.uleb128 0x58
 1333 0024 0B       		.uleb128 0xb
 1334 0025 59       		.uleb128 0x59
 1335 0026 05       		.uleb128 0x5
 1336 0027 57       		.uleb128 0x57
 1337 0028 21       		.uleb128 0x21
 1338 0029 03       		.sleb128 3
 1339 002a 00       		.byte	0
 1340 002b 00       		.byte	0
 1341 002c 04       		.uleb128 0x4
 1342 002d 34       		.uleb128 0x34
 1343 002e 00       		.byte	0
 1344 002f 31       		.uleb128 0x31
 1345 0030 13       		.uleb128 0x13
 1346 0031 02       		.uleb128 0x2
 1347 0032 17       		.uleb128 0x17
 1348 0033 B742     		.uleb128 0x2137
 1349 0035 17       		.uleb128 0x17
 1350 0036 00       		.byte	0
 1351 0037 00       		.byte	0
 1352 0038 05       		.uleb128 0x5
 1353 0039 16       		.uleb128 0x16
 1354 003a 00       		.byte	0
 1355 003b 03       		.uleb128 0x3
 1356 003c 0E       		.uleb128 0xe
 1357 003d 3A       		.uleb128 0x3a
 1358 003e 0B       		.uleb128 0xb
 1359 003f 3B       		.uleb128 0x3b
 1360 0040 0B       		.uleb128 0xb
 1361 0041 39       		.uleb128 0x39
 1362 0042 0B       		.uleb128 0xb
 1363 0043 49       		.uleb128 0x49
 1364 0044 13       		.uleb128 0x13
 1365 0045 00       		.byte	0
 1366 0046 00       		.byte	0
 1367 0047 06       		.uleb128 0x6
ARM GAS  C:\Users\DEVELO~1\AppData\Local\Temp\ccobj71c.s 			page 25


 1368 0048 05       		.uleb128 0x5
 1369 0049 00       		.byte	0
 1370 004a 03       		.uleb128 0x3
 1371 004b 0E       		.uleb128 0xe
 1372 004c 3A       		.uleb128 0x3a
 1373 004d 21       		.uleb128 0x21
 1374 004e 01       		.sleb128 1
 1375 004f 3B       		.uleb128 0x3b
 1376 0050 0B       		.uleb128 0xb
 1377 0051 39       		.uleb128 0x39
 1378 0052 0B       		.uleb128 0xb
 1379 0053 49       		.uleb128 0x49
 1380 0054 13       		.uleb128 0x13
 1381 0055 02       		.uleb128 0x2
 1382 0056 17       		.uleb128 0x17
 1383 0057 B742     		.uleb128 0x2137
 1384 0059 17       		.uleb128 0x17
 1385 005a 00       		.byte	0
 1386 005b 00       		.byte	0
 1387 005c 07       		.uleb128 0x7
 1388 005d 05       		.uleb128 0x5
 1389 005e 00       		.byte	0
 1390 005f 03       		.uleb128 0x3
 1391 0060 0E       		.uleb128 0xe
 1392 0061 3A       		.uleb128 0x3a
 1393 0062 21       		.uleb128 0x21
 1394 0063 01       		.sleb128 1
 1395 0064 3B       		.uleb128 0x3b
 1396 0065 0B       		.uleb128 0xb
 1397 0066 39       		.uleb128 0x39
 1398 0067 0B       		.uleb128 0xb
 1399 0068 49       		.uleb128 0x49
 1400 0069 13       		.uleb128 0x13
 1401 006a 00       		.byte	0
 1402 006b 00       		.byte	0
 1403 006c 08       		.uleb128 0x8
 1404 006d 26       		.uleb128 0x26
 1405 006e 00       		.byte	0
 1406 006f 49       		.uleb128 0x49
 1407 0070 13       		.uleb128 0x13
 1408 0071 00       		.byte	0
 1409 0072 00       		.byte	0
 1410 0073 09       		.uleb128 0x9
 1411 0074 1D       		.uleb128 0x1d
 1412 0075 01       		.byte	0x1
 1413 0076 31       		.uleb128 0x31
 1414 0077 13       		.uleb128 0x13
 1415 0078 52       		.uleb128 0x52
 1416 0079 01       		.uleb128 0x1
 1417 007a B842     		.uleb128 0x2138
 1418 007c 0B       		.uleb128 0xb
 1419 007d 55       		.uleb128 0x55
 1420 007e 17       		.uleb128 0x17
 1421 007f 58       		.uleb128 0x58
 1422 0080 21       		.uleb128 0x21
 1423 0081 01       		.sleb128 1
 1424 0082 59       		.uleb128 0x59
ARM GAS  C:\Users\DEVELO~1\AppData\Local\Temp\ccobj71c.s 			page 26


 1425 0083 0B       		.uleb128 0xb
 1426 0084 57       		.uleb128 0x57
 1427 0085 0B       		.uleb128 0xb
 1428 0086 01       		.uleb128 0x1
 1429 0087 13       		.uleb128 0x13
 1430 0088 00       		.byte	0
 1431 0089 00       		.byte	0
 1432 008a 0A       		.uleb128 0xa
 1433 008b 0B       		.uleb128 0xb
 1434 008c 01       		.byte	0x1
 1435 008d 55       		.uleb128 0x55
 1436 008e 17       		.uleb128 0x17
 1437 008f 00       		.byte	0
 1438 0090 00       		.byte	0
 1439 0091 0B       		.uleb128 0xb
 1440 0092 01       		.uleb128 0x1
 1441 0093 01       		.byte	0x1
 1442 0094 49       		.uleb128 0x49
 1443 0095 13       		.uleb128 0x13
 1444 0096 01       		.uleb128 0x1
 1445 0097 13       		.uleb128 0x13
 1446 0098 00       		.byte	0
 1447 0099 00       		.byte	0
 1448 009a 0C       		.uleb128 0xc
 1449 009b 34       		.uleb128 0x34
 1450 009c 00       		.byte	0
 1451 009d 03       		.uleb128 0x3
 1452 009e 0E       		.uleb128 0xe
 1453 009f 3A       		.uleb128 0x3a
 1454 00a0 0B       		.uleb128 0xb
 1455 00a1 3B       		.uleb128 0x3b
 1456 00a2 0B       		.uleb128 0xb
 1457 00a3 39       		.uleb128 0x39
 1458 00a4 21       		.uleb128 0x21
 1459 00a5 12       		.sleb128 18
 1460 00a6 49       		.uleb128 0x49
 1461 00a7 13       		.uleb128 0x13
 1462 00a8 3F       		.uleb128 0x3f
 1463 00a9 19       		.uleb128 0x19
 1464 00aa 3C       		.uleb128 0x3c
 1465 00ab 19       		.uleb128 0x19
 1466 00ac 00       		.byte	0
 1467 00ad 00       		.byte	0
 1468 00ae 0D       		.uleb128 0xd
 1469 00af 34       		.uleb128 0x34
 1470 00b0 00       		.byte	0
 1471 00b1 03       		.uleb128 0x3
 1472 00b2 0E       		.uleb128 0xe
 1473 00b3 49       		.uleb128 0x49
 1474 00b4 13       		.uleb128 0x13
 1475 00b5 34       		.uleb128 0x34
 1476 00b6 19       		.uleb128 0x19
 1477 00b7 00       		.byte	0
 1478 00b8 00       		.byte	0
 1479 00b9 0E       		.uleb128 0xe
 1480 00ba 21       		.uleb128 0x21
 1481 00bb 00       		.byte	0
ARM GAS  C:\Users\DEVELO~1\AppData\Local\Temp\ccobj71c.s 			page 27


 1482 00bc 49       		.uleb128 0x49
 1483 00bd 13       		.uleb128 0x13
 1484 00be 2F       		.uleb128 0x2f
 1485 00bf 0B       		.uleb128 0xb
 1486 00c0 00       		.byte	0
 1487 00c1 00       		.byte	0
 1488 00c2 0F       		.uleb128 0xf
 1489 00c3 2E       		.uleb128 0x2e
 1490 00c4 00       		.byte	0
 1491 00c5 03       		.uleb128 0x3
 1492 00c6 0E       		.uleb128 0xe
 1493 00c7 3A       		.uleb128 0x3a
 1494 00c8 0B       		.uleb128 0xb
 1495 00c9 3B       		.uleb128 0x3b
 1496 00ca 05       		.uleb128 0x5
 1497 00cb 39       		.uleb128 0x39
 1498 00cc 0B       		.uleb128 0xb
 1499 00cd 27       		.uleb128 0x27
 1500 00ce 19       		.uleb128 0x19
 1501 00cf 20       		.uleb128 0x20
 1502 00d0 21       		.uleb128 0x21
 1503 00d1 03       		.sleb128 3
 1504 00d2 00       		.byte	0
 1505 00d3 00       		.byte	0
 1506 00d4 10       		.uleb128 0x10
 1507 00d5 0D       		.uleb128 0xd
 1508 00d6 00       		.byte	0
 1509 00d7 03       		.uleb128 0x3
 1510 00d8 0E       		.uleb128 0xe
 1511 00d9 3A       		.uleb128 0x3a
 1512 00da 21       		.uleb128 0x21
 1513 00db 08       		.sleb128 8
 1514 00dc 3B       		.uleb128 0x3b
 1515 00dd 0B       		.uleb128 0xb
 1516 00de 39       		.uleb128 0x39
 1517 00df 21       		.uleb128 0x21
 1518 00e0 0C       		.sleb128 12
 1519 00e1 49       		.uleb128 0x49
 1520 00e2 13       		.uleb128 0x13
 1521 00e3 38       		.uleb128 0x38
 1522 00e4 0B       		.uleb128 0xb
 1523 00e5 00       		.byte	0
 1524 00e6 00       		.byte	0
 1525 00e7 11       		.uleb128 0x11
 1526 00e8 2E       		.uleb128 0x2e
 1527 00e9 01       		.byte	0x1
 1528 00ea 3F       		.uleb128 0x3f
 1529 00eb 19       		.uleb128 0x19
 1530 00ec 03       		.uleb128 0x3
 1531 00ed 0E       		.uleb128 0xe
 1532 00ee 3A       		.uleb128 0x3a
 1533 00ef 21       		.uleb128 0x21
 1534 00f0 01       		.sleb128 1
 1535 00f1 3B       		.uleb128 0x3b
 1536 00f2 0B       		.uleb128 0xb
 1537 00f3 39       		.uleb128 0x39
 1538 00f4 21       		.uleb128 0x21
ARM GAS  C:\Users\DEVELO~1\AppData\Local\Temp\ccobj71c.s 			page 28


 1539 00f5 07       		.sleb128 7
 1540 00f6 27       		.uleb128 0x27
 1541 00f7 19       		.uleb128 0x19
 1542 00f8 49       		.uleb128 0x49
 1543 00f9 13       		.uleb128 0x13
 1544 00fa 11       		.uleb128 0x11
 1545 00fb 01       		.uleb128 0x1
 1546 00fc 12       		.uleb128 0x12
 1547 00fd 06       		.uleb128 0x6
 1548 00fe 40       		.uleb128 0x40
 1549 00ff 18       		.uleb128 0x18
 1550 0100 7A       		.uleb128 0x7a
 1551 0101 19       		.uleb128 0x19
 1552 0102 01       		.uleb128 0x1
 1553 0103 13       		.uleb128 0x13
 1554 0104 00       		.byte	0
 1555 0105 00       		.byte	0
 1556 0106 12       		.uleb128 0x12
 1557 0107 34       		.uleb128 0x34
 1558 0108 00       		.byte	0
 1559 0109 03       		.uleb128 0x3
 1560 010a 08       		.uleb128 0x8
 1561 010b 3A       		.uleb128 0x3a
 1562 010c 21       		.uleb128 0x21
 1563 010d 01       		.sleb128 1
 1564 010e 3B       		.uleb128 0x3b
 1565 010f 0B       		.uleb128 0xb
 1566 0110 39       		.uleb128 0x39
 1567 0111 21       		.uleb128 0x21
 1568 0112 09       		.sleb128 9
 1569 0113 49       		.uleb128 0x49
 1570 0114 13       		.uleb128 0x13
 1571 0115 02       		.uleb128 0x2
 1572 0116 17       		.uleb128 0x17
 1573 0117 B742     		.uleb128 0x2137
 1574 0119 17       		.uleb128 0x17
 1575 011a 00       		.byte	0
 1576 011b 00       		.byte	0
 1577 011c 13       		.uleb128 0x13
 1578 011d 1D       		.uleb128 0x1d
 1579 011e 01       		.byte	0x1
 1580 011f 31       		.uleb128 0x31
 1581 0120 13       		.uleb128 0x13
 1582 0121 52       		.uleb128 0x52
 1583 0122 01       		.uleb128 0x1
 1584 0123 B842     		.uleb128 0x2138
 1585 0125 0B       		.uleb128 0xb
 1586 0126 55       		.uleb128 0x55
 1587 0127 17       		.uleb128 0x17
 1588 0128 58       		.uleb128 0x58
 1589 0129 21       		.uleb128 0x21
 1590 012a 01       		.sleb128 1
 1591 012b 59       		.uleb128 0x59
 1592 012c 0B       		.uleb128 0xb
 1593 012d 57       		.uleb128 0x57
 1594 012e 21       		.uleb128 0x21
 1595 012f 03       		.sleb128 3
ARM GAS  C:\Users\DEVELO~1\AppData\Local\Temp\ccobj71c.s 			page 29


 1596 0130 00       		.byte	0
 1597 0131 00       		.byte	0
 1598 0132 14       		.uleb128 0x14
 1599 0133 2E       		.uleb128 0x2e
 1600 0134 01       		.byte	0x1
 1601 0135 3F       		.uleb128 0x3f
 1602 0136 19       		.uleb128 0x19
 1603 0137 03       		.uleb128 0x3
 1604 0138 0E       		.uleb128 0xe
 1605 0139 3A       		.uleb128 0x3a
 1606 013a 21       		.uleb128 0x21
 1607 013b 01       		.sleb128 1
 1608 013c 3B       		.uleb128 0x3b
 1609 013d 0B       		.uleb128 0xb
 1610 013e 39       		.uleb128 0x39
 1611 013f 21       		.uleb128 0x21
 1612 0140 07       		.sleb128 7
 1613 0141 27       		.uleb128 0x27
 1614 0142 19       		.uleb128 0x19
 1615 0143 49       		.uleb128 0x49
 1616 0144 13       		.uleb128 0x13
 1617 0145 20       		.uleb128 0x20
 1618 0146 21       		.uleb128 0x21
 1619 0147 01       		.sleb128 1
 1620 0148 01       		.uleb128 0x1
 1621 0149 13       		.uleb128 0x13
 1622 014a 00       		.byte	0
 1623 014b 00       		.byte	0
 1624 014c 15       		.uleb128 0x15
 1625 014d 34       		.uleb128 0x34
 1626 014e 00       		.byte	0
 1627 014f 03       		.uleb128 0x3
 1628 0150 08       		.uleb128 0x8
 1629 0151 3A       		.uleb128 0x3a
 1630 0152 21       		.uleb128 0x21
 1631 0153 01       		.sleb128 1
 1632 0154 3B       		.uleb128 0x3b
 1633 0155 0B       		.uleb128 0xb
 1634 0156 39       		.uleb128 0x39
 1635 0157 21       		.uleb128 0x21
 1636 0158 0C       		.sleb128 12
 1637 0159 49       		.uleb128 0x49
 1638 015a 13       		.uleb128 0x13
 1639 015b 00       		.byte	0
 1640 015c 00       		.byte	0
 1641 015d 16       		.uleb128 0x16
 1642 015e 34       		.uleb128 0x34
 1643 015f 00       		.byte	0
 1644 0160 03       		.uleb128 0x3
 1645 0161 0E       		.uleb128 0xe
 1646 0162 3A       		.uleb128 0x3a
 1647 0163 21       		.uleb128 0x21
 1648 0164 01       		.sleb128 1
 1649 0165 3B       		.uleb128 0x3b
 1650 0166 0B       		.uleb128 0xb
 1651 0167 39       		.uleb128 0x39
 1652 0168 21       		.uleb128 0x21
ARM GAS  C:\Users\DEVELO~1\AppData\Local\Temp\ccobj71c.s 			page 30


 1653 0169 10       		.sleb128 16
 1654 016a 49       		.uleb128 0x49
 1655 016b 13       		.uleb128 0x13
 1656 016c 00       		.byte	0
 1657 016d 00       		.byte	0
 1658 016e 17       		.uleb128 0x17
 1659 016f 2E       		.uleb128 0x2e
 1660 0170 01       		.byte	0x1
 1661 0171 03       		.uleb128 0x3
 1662 0172 0E       		.uleb128 0xe
 1663 0173 3A       		.uleb128 0x3a
 1664 0174 0B       		.uleb128 0xb
 1665 0175 3B       		.uleb128 0x3b
 1666 0176 05       		.uleb128 0x5
 1667 0177 39       		.uleb128 0x39
 1668 0178 0B       		.uleb128 0xb
 1669 0179 27       		.uleb128 0x27
 1670 017a 19       		.uleb128 0x19
 1671 017b 20       		.uleb128 0x20
 1672 017c 21       		.uleb128 0x21
 1673 017d 03       		.sleb128 3
 1674 017e 01       		.uleb128 0x1
 1675 017f 13       		.uleb128 0x13
 1676 0180 00       		.byte	0
 1677 0181 00       		.byte	0
 1678 0182 18       		.uleb128 0x18
 1679 0183 11       		.uleb128 0x11
 1680 0184 01       		.byte	0x1
 1681 0185 25       		.uleb128 0x25
 1682 0186 0E       		.uleb128 0xe
 1683 0187 13       		.uleb128 0x13
 1684 0188 0B       		.uleb128 0xb
 1685 0189 03       		.uleb128 0x3
 1686 018a 0E       		.uleb128 0xe
 1687 018b 1B       		.uleb128 0x1b
 1688 018c 0E       		.uleb128 0xe
 1689 018d 55       		.uleb128 0x55
 1690 018e 17       		.uleb128 0x17
 1691 018f 11       		.uleb128 0x11
 1692 0190 01       		.uleb128 0x1
 1693 0191 10       		.uleb128 0x10
 1694 0192 17       		.uleb128 0x17
 1695 0193 00       		.byte	0
 1696 0194 00       		.byte	0
 1697 0195 19       		.uleb128 0x19
 1698 0196 24       		.uleb128 0x24
 1699 0197 00       		.byte	0
 1700 0198 0B       		.uleb128 0xb
 1701 0199 0B       		.uleb128 0xb
 1702 019a 3E       		.uleb128 0x3e
 1703 019b 0B       		.uleb128 0xb
 1704 019c 03       		.uleb128 0x3
 1705 019d 08       		.uleb128 0x8
 1706 019e 00       		.byte	0
 1707 019f 00       		.byte	0
 1708 01a0 1A       		.uleb128 0x1a
 1709 01a1 0F       		.uleb128 0xf
ARM GAS  C:\Users\DEVELO~1\AppData\Local\Temp\ccobj71c.s 			page 31


 1710 01a2 00       		.byte	0
 1711 01a3 0B       		.uleb128 0xb
 1712 01a4 0B       		.uleb128 0xb
 1713 01a5 00       		.byte	0
 1714 01a6 00       		.byte	0
 1715 01a7 1B       		.uleb128 0x1b
 1716 01a8 0F       		.uleb128 0xf
 1717 01a9 00       		.byte	0
 1718 01aa 0B       		.uleb128 0xb
 1719 01ab 0B       		.uleb128 0xb
 1720 01ac 49       		.uleb128 0x49
 1721 01ad 13       		.uleb128 0x13
 1722 01ae 00       		.byte	0
 1723 01af 00       		.byte	0
 1724 01b0 1C       		.uleb128 0x1c
 1725 01b1 13       		.uleb128 0x13
 1726 01b2 01       		.byte	0x1
 1727 01b3 0B       		.uleb128 0xb
 1728 01b4 0B       		.uleb128 0xb
 1729 01b5 3A       		.uleb128 0x3a
 1730 01b6 0B       		.uleb128 0xb
 1731 01b7 3B       		.uleb128 0x3b
 1732 01b8 0B       		.uleb128 0xb
 1733 01b9 39       		.uleb128 0x39
 1734 01ba 0B       		.uleb128 0xb
 1735 01bb 01       		.uleb128 0x1
 1736 01bc 13       		.uleb128 0x13
 1737 01bd 00       		.byte	0
 1738 01be 00       		.byte	0
 1739 01bf 1D       		.uleb128 0x1d
 1740 01c0 34       		.uleb128 0x34
 1741 01c1 00       		.byte	0
 1742 01c2 47       		.uleb128 0x47
 1743 01c3 13       		.uleb128 0x13
 1744 01c4 3A       		.uleb128 0x3a
 1745 01c5 0B       		.uleb128 0xb
 1746 01c6 3B       		.uleb128 0x3b
 1747 01c7 0B       		.uleb128 0xb
 1748 01c8 39       		.uleb128 0x39
 1749 01c9 0B       		.uleb128 0xb
 1750 01ca 02       		.uleb128 0x2
 1751 01cb 18       		.uleb128 0x18
 1752 01cc 00       		.byte	0
 1753 01cd 00       		.byte	0
 1754 01ce 1E       		.uleb128 0x1e
 1755 01cf 2E       		.uleb128 0x2e
 1756 01d0 00       		.byte	0
 1757 01d1 3F       		.uleb128 0x3f
 1758 01d2 19       		.uleb128 0x19
 1759 01d3 03       		.uleb128 0x3
 1760 01d4 0E       		.uleb128 0xe
 1761 01d5 3A       		.uleb128 0x3a
 1762 01d6 0B       		.uleb128 0xb
 1763 01d7 3B       		.uleb128 0x3b
 1764 01d8 0B       		.uleb128 0xb
 1765 01d9 39       		.uleb128 0x39
 1766 01da 0B       		.uleb128 0xb
ARM GAS  C:\Users\DEVELO~1\AppData\Local\Temp\ccobj71c.s 			page 32


 1767 01db 27       		.uleb128 0x27
 1768 01dc 19       		.uleb128 0x19
 1769 01dd 49       		.uleb128 0x49
 1770 01de 13       		.uleb128 0x13
 1771 01df 11       		.uleb128 0x11
 1772 01e0 01       		.uleb128 0x1
 1773 01e1 12       		.uleb128 0x12
 1774 01e2 06       		.uleb128 0x6
 1775 01e3 40       		.uleb128 0x40
 1776 01e4 18       		.uleb128 0x18
 1777 01e5 7A       		.uleb128 0x7a
 1778 01e6 19       		.uleb128 0x19
 1779 01e7 00       		.byte	0
 1780 01e8 00       		.byte	0
 1781 01e9 1F       		.uleb128 0x1f
 1782 01ea 2E       		.uleb128 0x2e
 1783 01eb 01       		.byte	0x1
 1784 01ec 3F       		.uleb128 0x3f
 1785 01ed 19       		.uleb128 0x19
 1786 01ee 03       		.uleb128 0x3
 1787 01ef 0E       		.uleb128 0xe
 1788 01f0 3A       		.uleb128 0x3a
 1789 01f1 0B       		.uleb128 0xb
 1790 01f2 3B       		.uleb128 0x3b
 1791 01f3 0B       		.uleb128 0xb
 1792 01f4 39       		.uleb128 0x39
 1793 01f5 0B       		.uleb128 0xb
 1794 01f6 27       		.uleb128 0x27
 1795 01f7 19       		.uleb128 0x19
 1796 01f8 11       		.uleb128 0x11
 1797 01f9 01       		.uleb128 0x1
 1798 01fa 12       		.uleb128 0x12
 1799 01fb 06       		.uleb128 0x6
 1800 01fc 40       		.uleb128 0x40
 1801 01fd 18       		.uleb128 0x18
 1802 01fe 7A       		.uleb128 0x7a
 1803 01ff 19       		.uleb128 0x19
 1804 0200 01       		.uleb128 0x1
 1805 0201 13       		.uleb128 0x13
 1806 0202 00       		.byte	0
 1807 0203 00       		.byte	0
 1808 0204 20       		.uleb128 0x20
 1809 0205 21       		.uleb128 0x21
 1810 0206 00       		.byte	0
 1811 0207 00       		.byte	0
 1812 0208 00       		.byte	0
 1813 0209 21       		.uleb128 0x21
 1814 020a 05       		.uleb128 0x5
 1815 020b 00       		.byte	0
 1816 020c 03       		.uleb128 0x3
 1817 020d 0E       		.uleb128 0xe
 1818 020e 3A       		.uleb128 0x3a
 1819 020f 0B       		.uleb128 0xb
 1820 0210 3B       		.uleb128 0x3b
 1821 0211 05       		.uleb128 0x5
 1822 0212 39       		.uleb128 0x39
 1823 0213 0B       		.uleb128 0xb
ARM GAS  C:\Users\DEVELO~1\AppData\Local\Temp\ccobj71c.s 			page 33


 1824 0214 49       		.uleb128 0x49
 1825 0215 13       		.uleb128 0x13
 1826 0216 00       		.byte	0
 1827 0217 00       		.byte	0
 1828 0218 22       		.uleb128 0x22
 1829 0219 2E       		.uleb128 0x2e
 1830 021a 01       		.byte	0x1
 1831 021b 31       		.uleb128 0x31
 1832 021c 13       		.uleb128 0x13
 1833 021d 11       		.uleb128 0x11
 1834 021e 01       		.uleb128 0x1
 1835 021f 12       		.uleb128 0x12
 1836 0220 06       		.uleb128 0x6
 1837 0221 40       		.uleb128 0x40
 1838 0222 18       		.uleb128 0x18
 1839 0223 7A       		.uleb128 0x7a
 1840 0224 19       		.uleb128 0x19
 1841 0225 01       		.uleb128 0x1
 1842 0226 13       		.uleb128 0x13
 1843 0227 00       		.byte	0
 1844 0228 00       		.byte	0
 1845 0229 23       		.uleb128 0x23
 1846 022a 2E       		.uleb128 0x2e
 1847 022b 01       		.byte	0x1
 1848 022c 31       		.uleb128 0x31
 1849 022d 13       		.uleb128 0x13
 1850 022e 11       		.uleb128 0x11
 1851 022f 01       		.uleb128 0x1
 1852 0230 12       		.uleb128 0x12
 1853 0231 06       		.uleb128 0x6
 1854 0232 40       		.uleb128 0x40
 1855 0233 18       		.uleb128 0x18
 1856 0234 7A       		.uleb128 0x7a
 1857 0235 19       		.uleb128 0x19
 1858 0236 00       		.byte	0
 1859 0237 00       		.byte	0
 1860 0238 00       		.byte	0
 1861              		.section	.debug_loclists,"",%progbits
 1862 0000 89030000 		.4byte	.Ldebug_loc3-.Ldebug_loc2
 1863              	.Ldebug_loc2:
 1864 0004 0500     		.2byte	0x5
 1865 0006 04       		.byte	0x4
 1866 0007 00       		.byte	0
 1867 0008 00000000 		.4byte	0
 1868              	.Ldebug_loc0:
 1869              	.LVUS24:
 1870 000c 00       		.uleb128 0
 1871 000d 00       		.uleb128 .LVU148
 1872 000e 00       		.uleb128 .LVU148
 1873 000f 00       		.uleb128 0
 1874              	.LLST24:
 1875 0010 06       		.byte	0x6
 1876 0011 00000000 		.4byte	.LVL31
 1877 0015 04       		.byte	0x4
 1878 0016 00       		.uleb128 .LVL31-.LVL31
 1879 0017 10       		.uleb128 .LVL34-.LVL31
 1880 0018 01       		.uleb128 0x1
ARM GAS  C:\Users\DEVELO~1\AppData\Local\Temp\ccobj71c.s 			page 34


 1881 0019 50       		.byte	0x50
 1882 001a 04       		.byte	0x4
 1883 001b 10       		.uleb128 .LVL34-.LVL31
 1884 001c 3C       		.uleb128 .LFE350-.LVL31
 1885 001d 04       		.uleb128 0x4
 1886 001e A3       		.byte	0xa3
 1887 001f 01       		.uleb128 0x1
 1888 0020 50       		.byte	0x50
 1889 0021 9F       		.byte	0x9f
 1890 0022 00       		.byte	0
 1891              	.LVUS25:
 1892 0023 00       		.uleb128 0
 1893 0024 00       		.uleb128 .LVU147
 1894 0025 00       		.uleb128 .LVU147
 1895 0026 00       		.uleb128 .LVU151
 1896 0027 00       		.uleb128 .LVU151
 1897 0028 00       		.uleb128 0
 1898              	.LLST25:
 1899 0029 06       		.byte	0x6
 1900 002a 00000000 		.4byte	.LVL31
 1901 002e 04       		.byte	0x4
 1902 002f 00       		.uleb128 .LVL31-.LVL31
 1903 0030 0C       		.uleb128 .LVL33-.LVL31
 1904 0031 01       		.uleb128 0x1
 1905 0032 51       		.byte	0x51
 1906 0033 04       		.byte	0x4
 1907 0034 0C       		.uleb128 .LVL33-.LVL31
 1908 0035 14       		.uleb128 .LVL36-.LVL31
 1909 0036 04       		.uleb128 0x4
 1910 0037 71       		.byte	0x71
 1911 0038 00       		.sleb128 0
 1912 0039 1F       		.byte	0x1f
 1913 003a 9F       		.byte	0x9f
 1914 003b 04       		.byte	0x4
 1915 003c 14       		.uleb128 .LVL36-.LVL31
 1916 003d 3C       		.uleb128 .LFE350-.LVL31
 1917 003e 04       		.uleb128 0x4
 1918 003f A3       		.byte	0xa3
 1919 0040 01       		.uleb128 0x1
 1920 0041 51       		.byte	0x51
 1921 0042 9F       		.byte	0x9f
 1922 0043 00       		.byte	0
 1923              	.LVUS26:
 1924 0044 00       		.uleb128 0
 1925 0045 00       		.uleb128 .LVU152
 1926 0046 00       		.uleb128 .LVU152
 1927 0047 00       		.uleb128 0
 1928              	.LLST26:
 1929 0048 06       		.byte	0x6
 1930 0049 00000000 		.4byte	.LVL31
 1931 004d 04       		.byte	0x4
 1932 004e 00       		.uleb128 .LVL31-.LVL31
 1933 004f 16       		.uleb128 .LVL37-.LVL31
 1934 0050 01       		.uleb128 0x1
 1935 0051 52       		.byte	0x52
 1936 0052 04       		.byte	0x4
 1937 0053 16       		.uleb128 .LVL37-.LVL31
ARM GAS  C:\Users\DEVELO~1\AppData\Local\Temp\ccobj71c.s 			page 35


 1938 0054 3C       		.uleb128 .LFE350-.LVL31
 1939 0055 04       		.uleb128 0x4
 1940 0056 A3       		.byte	0xa3
 1941 0057 01       		.uleb128 0x1
 1942 0058 52       		.byte	0x52
 1943 0059 9F       		.byte	0x9f
 1944 005a 00       		.byte	0
 1945              	.LVUS27:
 1946 005b 01       		.uleb128 .LVU157
 1947 005c 00       		.uleb128 .LVU173
 1948 005d 00       		.uleb128 .LVU174
 1949 005e 00       		.uleb128 0
 1950              	.LLST27:
 1951 005f 06       		.byte	0x6
 1952 0060 20000000 		.4byte	.LVL38
 1953 0064 04       		.byte	0x4
 1954 0065 00       		.uleb128 .LVL38-.LVL38
 1955 0066 0A       		.uleb128 .LVL40-.LVL38
 1956 0067 01       		.uleb128 0x1
 1957 0068 50       		.byte	0x50
 1958 0069 04       		.byte	0x4
 1959 006a 0C       		.uleb128 .LVL41-.LVL38
 1960 006b 1C       		.uleb128 .LFE350-.LVL38
 1961 006c 01       		.uleb128 0x1
 1962 006d 50       		.byte	0x50
 1963 006e 00       		.byte	0
 1964              	.LVUS29:
 1965 006f 07       		.uleb128 .LVU131
 1966 0070 00       		.uleb128 .LVU135
 1967              	.LLST29:
 1968 0071 08       		.byte	0x8
 1969 0072 00000000 		.4byte	.LVL31
 1970 0076 08       		.uleb128 .LVL32-.LVL31
 1971 0077 03       		.uleb128 0x3
 1972 0078 08       		.byte	0x8
 1973 0079 30       		.byte	0x30
 1974 007a 9F       		.byte	0x9f
 1975 007b 00       		.byte	0
 1976              	.LVUS31:
 1977 007c 04       		.uleb128 .LVU139
 1978 007d 00       		.uleb128 .LVU152
 1979 007e 00       		.uleb128 .LVU152
 1980 007f 01       		.uleb128 .LVU157
 1981 0080 00       		.uleb128 .LVU173
 1982 0081 00       		.uleb128 .LVU174
 1983              	.LLST31:
 1984 0082 06       		.byte	0x6
 1985 0083 08000000 		.4byte	.LVL32
 1986 0087 04       		.byte	0x4
 1987 0088 00       		.uleb128 .LVL32-.LVL32
 1988 0089 0E       		.uleb128 .LVL37-.LVL32
 1989 008a 01       		.uleb128 0x1
 1990 008b 52       		.byte	0x52
 1991 008c 04       		.byte	0x4
 1992 008d 0E       		.uleb128 .LVL37-.LVL32
 1993 008e 18       		.uleb128 .LVL38-.LVL32
 1994 008f 04       		.uleb128 0x4
ARM GAS  C:\Users\DEVELO~1\AppData\Local\Temp\ccobj71c.s 			page 36


 1995 0090 A3       		.byte	0xa3
 1996 0091 01       		.uleb128 0x1
 1997 0092 52       		.byte	0x52
 1998 0093 9F       		.byte	0x9f
 1999 0094 04       		.byte	0x4
 2000 0095 22       		.uleb128 .LVL40-.LVL32
 2001 0096 24       		.uleb128 .LVL41-.LVL32
 2002 0097 04       		.uleb128 0x4
 2003 0098 A3       		.byte	0xa3
 2004 0099 01       		.uleb128 0x1
 2005 009a 52       		.byte	0x52
 2006 009b 9F       		.byte	0x9f
 2007 009c 00       		.byte	0
 2008              	.LVUS32:
 2009 009d 04       		.uleb128 .LVU139
 2010 009e 00       		.uleb128 .LVU147
 2011 009f 00       		.uleb128 .LVU147
 2012 00a0 00       		.uleb128 .LVU151
 2013 00a1 00       		.uleb128 .LVU151
 2014 00a2 01       		.uleb128 .LVU157
 2015 00a3 00       		.uleb128 .LVU173
 2016 00a4 00       		.uleb128 .LVU174
 2017              	.LLST32:
 2018 00a5 06       		.byte	0x6
 2019 00a6 08000000 		.4byte	.LVL32
 2020 00aa 04       		.byte	0x4
 2021 00ab 00       		.uleb128 .LVL32-.LVL32
 2022 00ac 04       		.uleb128 .LVL33-.LVL32
 2023 00ad 01       		.uleb128 0x1
 2024 00ae 51       		.byte	0x51
 2025 00af 04       		.byte	0x4
 2026 00b0 04       		.uleb128 .LVL33-.LVL32
 2027 00b1 0C       		.uleb128 .LVL36-.LVL32
 2028 00b2 04       		.uleb128 0x4
 2029 00b3 71       		.byte	0x71
 2030 00b4 00       		.sleb128 0
 2031 00b5 1F       		.byte	0x1f
 2032 00b6 9F       		.byte	0x9f
 2033 00b7 04       		.byte	0x4
 2034 00b8 0C       		.uleb128 .LVL36-.LVL32
 2035 00b9 18       		.uleb128 .LVL38-.LVL32
 2036 00ba 04       		.uleb128 0x4
 2037 00bb A3       		.byte	0xa3
 2038 00bc 01       		.uleb128 0x1
 2039 00bd 51       		.byte	0x51
 2040 00be 9F       		.byte	0x9f
 2041 00bf 04       		.byte	0x4
 2042 00c0 22       		.uleb128 .LVL40-.LVL32
 2043 00c1 24       		.uleb128 .LVL41-.LVL32
 2044 00c2 04       		.uleb128 0x4
 2045 00c3 A3       		.byte	0xa3
 2046 00c4 01       		.uleb128 0x1
 2047 00c5 51       		.byte	0x51
 2048 00c6 9F       		.byte	0x9f
 2049 00c7 00       		.byte	0
 2050              	.LVUS33:
 2051 00c8 04       		.uleb128 .LVU139
ARM GAS  C:\Users\DEVELO~1\AppData\Local\Temp\ccobj71c.s 			page 37


 2052 00c9 00       		.uleb128 .LVU148
 2053 00ca 00       		.uleb128 .LVU148
 2054 00cb 01       		.uleb128 .LVU157
 2055 00cc 00       		.uleb128 .LVU173
 2056 00cd 00       		.uleb128 .LVU174
 2057              	.LLST33:
 2058 00ce 06       		.byte	0x6
 2059 00cf 08000000 		.4byte	.LVL32
 2060 00d3 04       		.byte	0x4
 2061 00d4 00       		.uleb128 .LVL32-.LVL32
 2062 00d5 08       		.uleb128 .LVL34-.LVL32
 2063 00d6 01       		.uleb128 0x1
 2064 00d7 50       		.byte	0x50
 2065 00d8 04       		.byte	0x4
 2066 00d9 08       		.uleb128 .LVL34-.LVL32
 2067 00da 18       		.uleb128 .LVL38-.LVL32
 2068 00db 04       		.uleb128 0x4
 2069 00dc A3       		.byte	0xa3
 2070 00dd 01       		.uleb128 0x1
 2071 00de 50       		.byte	0x50
 2072 00df 9F       		.byte	0x9f
 2073 00e0 04       		.byte	0x4
 2074 00e1 22       		.uleb128 .LVL40-.LVL32
 2075 00e2 24       		.uleb128 .LVL41-.LVL32
 2076 00e3 04       		.uleb128 0x4
 2077 00e4 A3       		.byte	0xa3
 2078 00e5 01       		.uleb128 0x1
 2079 00e6 50       		.byte	0x50
 2080 00e7 9F       		.byte	0x9f
 2081 00e8 00       		.byte	0
 2082              	.LVUS34:
 2083 00e9 00       		.uleb128 .LVU149
 2084 00ea 01       		.uleb128 .LVU157
 2085 00eb 00       		.uleb128 .LVU173
 2086 00ec 00       		.uleb128 .LVU174
 2087              	.LLST34:
 2088 00ed 06       		.byte	0x6
 2089 00ee 12000000 		.4byte	.LVL35
 2090 00f2 04       		.byte	0x4
 2091 00f3 00       		.uleb128 .LVL35-.LVL35
 2092 00f4 0E       		.uleb128 .LVL38-.LVL35
 2093 00f5 01       		.uleb128 0x1
 2094 00f6 50       		.byte	0x50
 2095 00f7 04       		.byte	0x4
 2096 00f8 18       		.uleb128 .LVL40-.LVL35
 2097 00f9 1A       		.uleb128 .LVL41-.LVL35
 2098 00fa 01       		.uleb128 0x1
 2099 00fb 50       		.byte	0x50
 2100 00fc 00       		.byte	0
 2101              	.LVUS35:
 2102 00fd 00       		.uleb128 .LVU152
 2103 00fe 01       		.uleb128 .LVU157
 2104 00ff 00       		.uleb128 .LVU173
 2105 0100 00       		.uleb128 .LVU174
 2106              	.LLST35:
 2107 0101 06       		.byte	0x6
 2108 0102 16000000 		.4byte	.LVL37
ARM GAS  C:\Users\DEVELO~1\AppData\Local\Temp\ccobj71c.s 			page 38


 2109 0106 04       		.byte	0x4
 2110 0107 00       		.uleb128 .LVL37-.LVL37
 2111 0108 0A       		.uleb128 .LVL38-.LVL37
 2112 0109 01       		.uleb128 0x1
 2113 010a 52       		.byte	0x52
 2114 010b 04       		.byte	0x4
 2115 010c 14       		.uleb128 .LVL40-.LVL37
 2116 010d 16       		.uleb128 .LVL41-.LVL37
 2117 010e 01       		.uleb128 0x1
 2118 010f 52       		.byte	0x52
 2119 0110 00       		.byte	0
 2120              	.LVUS37:
 2121 0111 0C       		.uleb128 .LVU168
 2122 0112 00       		.uleb128 .LVU170
 2123 0113 0B       		.uleb128 .LVU185
 2124 0114 00       		.uleb128 .LVU187
 2125              	.LLST37:
 2126 0115 06       		.byte	0x6
 2127 0116 20000000 		.4byte	.LVL38
 2128 011a 04       		.byte	0x4
 2129 011b 00       		.uleb128 .LVL38-.LVL38
 2130 011c 06       		.uleb128 .LVL39-.LVL38
 2131 011d 02       		.uleb128 0x2
 2132 011e 30       		.byte	0x30
 2133 011f 9F       		.byte	0x9f
 2134 0120 04       		.byte	0x4
 2135 0121 0C       		.uleb128 .LVL41-.LVL38
 2136 0122 12       		.uleb128 .LVL42-.LVL38
 2137 0123 02       		.uleb128 0x2
 2138 0124 30       		.byte	0x30
 2139 0125 9F       		.byte	0x9f
 2140 0126 00       		.byte	0
 2141              	.LVUS10:
 2142 0127 00       		.uleb128 0
 2143 0128 00       		.uleb128 .LVU80
 2144 0129 00       		.uleb128 .LVU80
 2145 012a 00       		.uleb128 .LVU86
 2146 012b 00       		.uleb128 .LVU86
 2147 012c 00       		.uleb128 0
 2148              	.LLST10:
 2149 012d 06       		.byte	0x6
 2150 012e 00000000 		.4byte	.LVL19
 2151 0132 04       		.byte	0x4
 2152 0133 00       		.uleb128 .LVL19-.LVL19
 2153 0134 0E       		.uleb128 .LVL21-.LVL19
 2154 0135 01       		.uleb128 0x1
 2155 0136 50       		.byte	0x50
 2156 0137 04       		.byte	0x4
 2157 0138 0E       		.uleb128 .LVL21-.LVL19
 2158 0139 1E       		.uleb128 .LVL25-.LVL19
 2159 013a 01       		.uleb128 0x1
 2160 013b 53       		.byte	0x53
 2161 013c 04       		.byte	0x4
 2162 013d 1E       		.uleb128 .LVL25-.LVL19
 2163 013e 44       		.uleb128 .LFE349-.LVL19
 2164 013f 04       		.uleb128 0x4
 2165 0140 A3       		.byte	0xa3
ARM GAS  C:\Users\DEVELO~1\AppData\Local\Temp\ccobj71c.s 			page 39


 2166 0141 01       		.uleb128 0x1
 2167 0142 50       		.byte	0x50
 2168 0143 9F       		.byte	0x9f
 2169 0144 00       		.byte	0
 2170              	.LVUS11:
 2171 0145 00       		.uleb128 0
 2172 0146 00       		.uleb128 .LVU81
 2173 0147 00       		.uleb128 .LVU81
 2174 0148 00       		.uleb128 0
 2175              	.LLST11:
 2176 0149 06       		.byte	0x6
 2177 014a 00000000 		.4byte	.LVL19
 2178 014e 04       		.byte	0x4
 2179 014f 00       		.uleb128 .LVL19-.LVL19
 2180 0150 10       		.uleb128 .LVL22-.LVL19
 2181 0151 01       		.uleb128 0x1
 2182 0152 51       		.byte	0x51
 2183 0153 04       		.byte	0x4
 2184 0154 10       		.uleb128 .LVL22-.LVL19
 2185 0155 44       		.uleb128 .LFE349-.LVL19
 2186 0156 04       		.uleb128 0x4
 2187 0157 71       		.byte	0x71
 2188 0158 00       		.sleb128 0
 2189 0159 1F       		.byte	0x1f
 2190 015a 9F       		.byte	0x9f
 2191 015b 00       		.byte	0
 2192              	.LVUS12:
 2193 015c 00       		.uleb128 0
 2194 015d 00       		.uleb128 .LVU82
 2195 015e 00       		.uleb128 .LVU82
 2196 015f 00       		.uleb128 0
 2197              	.LLST12:
 2198 0160 06       		.byte	0x6
 2199 0161 00000000 		.4byte	.LVL19
 2200 0165 04       		.byte	0x4
 2201 0166 00       		.uleb128 .LVL19-.LVL19
 2202 0167 14       		.uleb128 .LVL23-.LVL19
 2203 0168 01       		.uleb128 0x1
 2204 0169 52       		.byte	0x52
 2205 016a 04       		.byte	0x4
 2206 016b 14       		.uleb128 .LVL23-.LVL19
 2207 016c 44       		.uleb128 .LFE349-.LVL19
 2208 016d 04       		.uleb128 0x4
 2209 016e A3       		.byte	0xa3
 2210 016f 01       		.uleb128 0x1
 2211 0170 52       		.byte	0x52
 2212 0171 9F       		.byte	0x9f
 2213 0172 00       		.byte	0
 2214              	.LVUS13:
 2215 0173 01       		.uleb128 .LVU91
 2216 0174 00       		.uleb128 .LVU107
 2217 0175 00       		.uleb128 .LVU108
 2218 0176 00       		.uleb128 0
 2219              	.LLST13:
 2220 0177 06       		.byte	0x6
 2221 0178 28000000 		.4byte	.LVL26
 2222 017c 04       		.byte	0x4
ARM GAS  C:\Users\DEVELO~1\AppData\Local\Temp\ccobj71c.s 			page 40


 2223 017d 00       		.uleb128 .LVL26-.LVL26
 2224 017e 0A       		.uleb128 .LVL28-.LVL26
 2225 017f 01       		.uleb128 0x1
 2226 0180 50       		.byte	0x50
 2227 0181 04       		.byte	0x4
 2228 0182 0C       		.uleb128 .LVL29-.LVL26
 2229 0183 1C       		.uleb128 .LFE349-.LVL26
 2230 0184 01       		.uleb128 0x1
 2231 0185 50       		.byte	0x50
 2232 0186 00       		.byte	0
 2233              	.LVUS15:
 2234 0187 07       		.uleb128 .LVU63
 2235 0188 00       		.uleb128 .LVU68
 2236              	.LLST15:
 2237 0189 08       		.byte	0x8
 2238 018a 00000000 		.4byte	.LVL19
 2239 018e 0A       		.uleb128 .LVL20-.LVL19
 2240 018f 03       		.uleb128 0x3
 2241 0190 08       		.byte	0x8
 2242 0191 30       		.byte	0x30
 2243 0192 9F       		.byte	0x9f
 2244 0193 00       		.byte	0
 2245              	.LVUS17:
 2246 0194 04       		.uleb128 .LVU72
 2247 0195 00       		.uleb128 .LVU82
 2248 0196 00       		.uleb128 .LVU82
 2249 0197 01       		.uleb128 .LVU91
 2250 0198 00       		.uleb128 .LVU107
 2251 0199 00       		.uleb128 .LVU108
 2252              	.LLST17:
 2253 019a 06       		.byte	0x6
 2254 019b 0A000000 		.4byte	.LVL20
 2255 019f 04       		.byte	0x4
 2256 01a0 00       		.uleb128 .LVL20-.LVL20
 2257 01a1 0A       		.uleb128 .LVL23-.LVL20
 2258 01a2 01       		.uleb128 0x1
 2259 01a3 52       		.byte	0x52
 2260 01a4 04       		.byte	0x4
 2261 01a5 0A       		.uleb128 .LVL23-.LVL20
 2262 01a6 1E       		.uleb128 .LVL26-.LVL20
 2263 01a7 04       		.uleb128 0x4
 2264 01a8 A3       		.byte	0xa3
 2265 01a9 01       		.uleb128 0x1
 2266 01aa 52       		.byte	0x52
 2267 01ab 9F       		.byte	0x9f
 2268 01ac 04       		.byte	0x4
 2269 01ad 28       		.uleb128 .LVL28-.LVL20
 2270 01ae 2A       		.uleb128 .LVL29-.LVL20
 2271 01af 04       		.uleb128 0x4
 2272 01b0 A3       		.byte	0xa3
 2273 01b1 01       		.uleb128 0x1
 2274 01b2 52       		.byte	0x52
 2275 01b3 9F       		.byte	0x9f
 2276 01b4 00       		.byte	0
 2277              	.LVUS18:
 2278 01b5 04       		.uleb128 .LVU72
 2279 01b6 00       		.uleb128 .LVU81
ARM GAS  C:\Users\DEVELO~1\AppData\Local\Temp\ccobj71c.s 			page 41


 2280 01b7 00       		.uleb128 .LVU81
 2281 01b8 01       		.uleb128 .LVU91
 2282 01b9 00       		.uleb128 .LVU107
 2283 01ba 00       		.uleb128 .LVU108
 2284              	.LLST18:
 2285 01bb 06       		.byte	0x6
 2286 01bc 0A000000 		.4byte	.LVL20
 2287 01c0 04       		.byte	0x4
 2288 01c1 00       		.uleb128 .LVL20-.LVL20
 2289 01c2 06       		.uleb128 .LVL22-.LVL20
 2290 01c3 01       		.uleb128 0x1
 2291 01c4 51       		.byte	0x51
 2292 01c5 04       		.byte	0x4
 2293 01c6 06       		.uleb128 .LVL22-.LVL20
 2294 01c7 1E       		.uleb128 .LVL26-.LVL20
 2295 01c8 04       		.uleb128 0x4
 2296 01c9 71       		.byte	0x71
 2297 01ca 00       		.sleb128 0
 2298 01cb 1F       		.byte	0x1f
 2299 01cc 9F       		.byte	0x9f
 2300 01cd 04       		.byte	0x4
 2301 01ce 28       		.uleb128 .LVL28-.LVL20
 2302 01cf 2A       		.uleb128 .LVL29-.LVL20
 2303 01d0 04       		.uleb128 0x4
 2304 01d1 71       		.byte	0x71
 2305 01d2 00       		.sleb128 0
 2306 01d3 1F       		.byte	0x1f
 2307 01d4 9F       		.byte	0x9f
 2308 01d5 00       		.byte	0
 2309              	.LVUS19:
 2310 01d6 04       		.uleb128 .LVU72
 2311 01d7 00       		.uleb128 .LVU80
 2312 01d8 00       		.uleb128 .LVU80
 2313 01d9 00       		.uleb128 .LVU86
 2314 01da 00       		.uleb128 .LVU86
 2315 01db 01       		.uleb128 .LVU91
 2316 01dc 00       		.uleb128 .LVU107
 2317 01dd 00       		.uleb128 .LVU108
 2318              	.LLST19:
 2319 01de 06       		.byte	0x6
 2320 01df 0A000000 		.4byte	.LVL20
 2321 01e3 04       		.byte	0x4
 2322 01e4 00       		.uleb128 .LVL20-.LVL20
 2323 01e5 04       		.uleb128 .LVL21-.LVL20
 2324 01e6 01       		.uleb128 0x1
 2325 01e7 50       		.byte	0x50
 2326 01e8 04       		.byte	0x4
 2327 01e9 04       		.uleb128 .LVL21-.LVL20
 2328 01ea 14       		.uleb128 .LVL25-.LVL20
 2329 01eb 01       		.uleb128 0x1
 2330 01ec 53       		.byte	0x53
 2331 01ed 04       		.byte	0x4
 2332 01ee 14       		.uleb128 .LVL25-.LVL20
 2333 01ef 1E       		.uleb128 .LVL26-.LVL20
 2334 01f0 04       		.uleb128 0x4
 2335 01f1 A3       		.byte	0xa3
 2336 01f2 01       		.uleb128 0x1
ARM GAS  C:\Users\DEVELO~1\AppData\Local\Temp\ccobj71c.s 			page 42


 2337 01f3 50       		.byte	0x50
 2338 01f4 9F       		.byte	0x9f
 2339 01f5 04       		.byte	0x4
 2340 01f6 28       		.uleb128 .LVL28-.LVL20
 2341 01f7 2A       		.uleb128 .LVL29-.LVL20
 2342 01f8 04       		.uleb128 0x4
 2343 01f9 A3       		.byte	0xa3
 2344 01fa 01       		.uleb128 0x1
 2345 01fb 50       		.byte	0x50
 2346 01fc 9F       		.byte	0x9f
 2347 01fd 00       		.byte	0
 2348              	.LVUS20:
 2349 01fe 00       		.uleb128 .LVU83
 2350 01ff 01       		.uleb128 .LVU91
 2351 0200 00       		.uleb128 .LVU107
 2352 0201 00       		.uleb128 .LVU108
 2353              	.LLST20:
 2354 0202 06       		.byte	0x6
 2355 0203 1A000000 		.4byte	.LVL24
 2356 0207 04       		.byte	0x4
 2357 0208 00       		.uleb128 .LVL24-.LVL24
 2358 0209 0E       		.uleb128 .LVL26-.LVL24
 2359 020a 01       		.uleb128 0x1
 2360 020b 50       		.byte	0x50
 2361 020c 04       		.byte	0x4
 2362 020d 18       		.uleb128 .LVL28-.LVL24
 2363 020e 1A       		.uleb128 .LVL29-.LVL24
 2364 020f 01       		.uleb128 0x1
 2365 0210 50       		.byte	0x50
 2366 0211 00       		.byte	0
 2367              	.LVUS21:
 2368 0212 00       		.uleb128 .LVU86
 2369 0213 01       		.uleb128 .LVU91
 2370 0214 00       		.uleb128 .LVU107
 2371 0215 00       		.uleb128 .LVU108
 2372              	.LLST21:
 2373 0216 06       		.byte	0x6
 2374 0217 1E000000 		.4byte	.LVL25
 2375 021b 04       		.byte	0x4
 2376 021c 00       		.uleb128 .LVL25-.LVL25
 2377 021d 0A       		.uleb128 .LVL26-.LVL25
 2378 021e 01       		.uleb128 0x1
 2379 021f 53       		.byte	0x53
 2380 0220 04       		.byte	0x4
 2381 0221 14       		.uleb128 .LVL28-.LVL25
 2382 0222 16       		.uleb128 .LVL29-.LVL25
 2383 0223 01       		.uleb128 0x1
 2384 0224 53       		.byte	0x53
 2385 0225 00       		.byte	0
 2386              	.LVUS23:
 2387 0226 0C       		.uleb128 .LVU102
 2388 0227 00       		.uleb128 .LVU104
 2389 0228 0B       		.uleb128 .LVU119
 2390 0229 00       		.uleb128 .LVU121
 2391              	.LLST23:
 2392 022a 06       		.byte	0x6
 2393 022b 28000000 		.4byte	.LVL26
ARM GAS  C:\Users\DEVELO~1\AppData\Local\Temp\ccobj71c.s 			page 43


 2394 022f 04       		.byte	0x4
 2395 0230 00       		.uleb128 .LVL26-.LVL26
 2396 0231 06       		.uleb128 .LVL27-.LVL26
 2397 0232 02       		.uleb128 0x2
 2398 0233 30       		.byte	0x30
 2399 0234 9F       		.byte	0x9f
 2400 0235 04       		.byte	0x4
 2401 0236 0C       		.uleb128 .LVL29-.LVL26
 2402 0237 12       		.uleb128 .LVL30-.LVL26
 2403 0238 02       		.uleb128 0x2
 2404 0239 30       		.byte	0x30
 2405 023a 9F       		.byte	0x9f
 2406 023b 00       		.byte	0
 2407              	.LVUS0:
 2408 023c 00       		.uleb128 0
 2409 023d 00       		.uleb128 .LVU21
 2410 023e 00       		.uleb128 .LVU21
 2411 023f 00       		.uleb128 0
 2412              	.LLST0:
 2413 0240 06       		.byte	0x6
 2414 0241 00000000 		.4byte	.LVL0
 2415 0245 04       		.byte	0x4
 2416 0246 00       		.uleb128 .LVL0-.LVL0
 2417 0247 16       		.uleb128 .LVL5-.LVL0
 2418 0248 01       		.uleb128 0x1
 2419 0249 50       		.byte	0x50
 2420 024a 04       		.byte	0x4
 2421 024b 16       		.uleb128 .LVL5-.LVL0
 2422 024c 34       		.uleb128 .LFE347-.LVL0
 2423 024d 04       		.uleb128 0x4
 2424 024e A3       		.byte	0xa3
 2425 024f 01       		.uleb128 0x1
 2426 0250 50       		.byte	0x50
 2427 0251 9F       		.byte	0x9f
 2428 0252 00       		.byte	0
 2429              	.LVUS1:
 2430 0253 00       		.uleb128 0
 2431 0254 00       		.uleb128 .LVU15
 2432 0255 00       		.uleb128 .LVU15
 2433 0256 00       		.uleb128 .LVU20
 2434 0257 00       		.uleb128 .LVU20
 2435 0258 00       		.uleb128 0
 2436              	.LLST1:
 2437 0259 06       		.byte	0x6
 2438 025a 00000000 		.4byte	.LVL0
 2439 025e 04       		.byte	0x4
 2440 025f 00       		.uleb128 .LVL0-.LVL0
 2441 0260 08       		.uleb128 .LVL1-.LVL0
 2442 0261 01       		.uleb128 0x1
 2443 0262 51       		.byte	0x51
 2444 0263 04       		.byte	0x4
 2445 0264 08       		.uleb128 .LVL1-.LVL0
 2446 0265 14       		.uleb128 .LVL4-.LVL0
 2447 0266 04       		.uleb128 0x4
 2448 0267 71       		.byte	0x71
 2449 0268 00       		.sleb128 0
 2450 0269 1F       		.byte	0x1f
ARM GAS  C:\Users\DEVELO~1\AppData\Local\Temp\ccobj71c.s 			page 44


 2451 026a 9F       		.byte	0x9f
 2452 026b 04       		.byte	0x4
 2453 026c 14       		.uleb128 .LVL4-.LVL0
 2454 026d 34       		.uleb128 .LFE347-.LVL0
 2455 026e 03       		.uleb128 0x3
 2456 026f 7C       		.byte	0x7c
 2457 0270 01       		.sleb128 1
 2458 0271 9F       		.byte	0x9f
 2459 0272 00       		.byte	0
 2460              	.LVUS2:
 2461 0273 00       		.uleb128 0
 2462 0274 00       		.uleb128 .LVU17
 2463 0275 00       		.uleb128 .LVU17
 2464 0276 00       		.uleb128 0
 2465              	.LLST2:
 2466 0277 06       		.byte	0x6
 2467 0278 00000000 		.4byte	.LVL0
 2468 027c 04       		.byte	0x4
 2469 027d 00       		.uleb128 .LVL0-.LVL0
 2470 027e 0E       		.uleb128 .LVL2-.LVL0
 2471 027f 01       		.uleb128 0x1
 2472 0280 52       		.byte	0x52
 2473 0281 04       		.byte	0x4
 2474 0282 0E       		.uleb128 .LVL2-.LVL0
 2475 0283 34       		.uleb128 .LFE347-.LVL0
 2476 0284 04       		.uleb128 0x4
 2477 0285 A3       		.byte	0xa3
 2478 0286 01       		.uleb128 0x1
 2479 0287 52       		.byte	0x52
 2480 0288 9F       		.byte	0x9f
 2481 0289 00       		.byte	0
 2482              	.LVUS3:
 2483 028a 00       		.uleb128 .LVU18
 2484 028b 00       		.uleb128 .LVU29
 2485 028c 00       		.uleb128 .LVU29
 2486 028d 00       		.uleb128 .LVU30
 2487 028e 00       		.uleb128 .LVU30
 2488 028f 00       		.uleb128 0
 2489              	.LLST3:
 2490 0290 06       		.byte	0x6
 2491 0291 12000000 		.4byte	.LVL3
 2492 0295 04       		.byte	0x4
 2493 0296 00       		.uleb128 .LVL3-.LVL3
 2494 0297 16       		.uleb128 .LVL8-.LVL3
 2495 0298 01       		.uleb128 0x1
 2496 0299 52       		.byte	0x52
 2497 029a 04       		.byte	0x4
 2498 029b 16       		.uleb128 .LVL8-.LVL3
 2499 029c 18       		.uleb128 .LVL9-.LVL3
 2500 029d 0E       		.uleb128 0xe
 2501 029e 74       		.byte	0x74
 2502 029f 00       		.sleb128 0
 2503 02a0 7C       		.byte	0x7c
 2504 02a1 00       		.sleb128 0
 2505 02a2 22       		.byte	0x22
 2506 02a3 A3       		.byte	0xa3
 2507 02a4 01       		.uleb128 0x1
ARM GAS  C:\Users\DEVELO~1\AppData\Local\Temp\ccobj71c.s 			page 45


 2508 02a5 52       		.byte	0x52
 2509 02a6 22       		.byte	0x22
 2510 02a7 7C       		.byte	0x7c
 2511 02a8 00       		.sleb128 0
 2512 02a9 20       		.byte	0x20
 2513 02aa 1A       		.byte	0x1a
 2514 02ab 9F       		.byte	0x9f
 2515 02ac 04       		.byte	0x4
 2516 02ad 18       		.uleb128 .LVL9-.LVL3
 2517 02ae 22       		.uleb128 .LFE347-.LVL3
 2518 02af 12       		.uleb128 0x12
 2519 02b0 A3       		.byte	0xa3
 2520 02b1 01       		.uleb128 0x1
 2521 02b2 52       		.byte	0x52
 2522 02b3 7C       		.byte	0x7c
 2523 02b4 00       		.sleb128 0
 2524 02b5 22       		.byte	0x22
 2525 02b6 03       		.byte	0x3
 2526 02b7 00000000 		.4byte	ch_memcore
 2527 02bb 06       		.byte	0x6
 2528 02bc 22       		.byte	0x22
 2529 02bd 7C       		.byte	0x7c
 2530 02be 00       		.sleb128 0
 2531 02bf 20       		.byte	0x20
 2532 02c0 1A       		.byte	0x1a
 2533 02c1 9F       		.byte	0x9f
 2534 02c2 00       		.byte	0
 2535              	.LVUS4:
 2536 02c3 00       		.uleb128 .LVU21
 2537 02c4 00       		.uleb128 .LVU27
 2538 02c5 00       		.uleb128 .LVU27
 2539 02c6 00       		.uleb128 .LVU28
 2540 02c7 00       		.uleb128 .LVU28
 2541 02c8 00       		.uleb128 .LVU31
 2542 02c9 00       		.uleb128 .LVU31
 2543 02ca 00       		.uleb128 0
 2544              	.LLST4:
 2545 02cb 06       		.byte	0x6
 2546 02cc 16000000 		.4byte	.LVL5
 2547 02d0 04       		.byte	0x4
 2548 02d1 00       		.uleb128 .LVL5-.LVL5
 2549 02d2 0C       		.uleb128 .LVL6-.LVL5
 2550 02d3 01       		.uleb128 0x1
 2551 02d4 50       		.byte	0x50
 2552 02d5 04       		.byte	0x4
 2553 02d6 0C       		.uleb128 .LVL6-.LVL5
 2554 02d7 10       		.uleb128 .LVL7-.LVL5
 2555 02d8 05       		.uleb128 0x5
 2556 02d9 03       		.byte	0x3
 2557 02da 00000000 		.4byte	ch_memcore
 2558 02de 04       		.byte	0x4
 2559 02df 10       		.uleb128 .LVL7-.LVL5
 2560 02e0 16       		.uleb128 .LVL10-.LVL5
 2561 02e1 01       		.uleb128 0x1
 2562 02e2 50       		.byte	0x50
 2563 02e3 04       		.byte	0x4
 2564 02e4 16       		.uleb128 .LVL10-.LVL5
ARM GAS  C:\Users\DEVELO~1\AppData\Local\Temp\ccobj71c.s 			page 46


 2565 02e5 1E       		.uleb128 .LFE347-.LVL5
 2566 02e6 16       		.uleb128 0x16
 2567 02e7 A3       		.byte	0xa3
 2568 02e8 01       		.uleb128 0x1
 2569 02e9 52       		.byte	0x52
 2570 02ea 7C       		.byte	0x7c
 2571 02eb 00       		.sleb128 0
 2572 02ec 22       		.byte	0x22
 2573 02ed 03       		.byte	0x3
 2574 02ee 00000000 		.4byte	ch_memcore
 2575 02f2 06       		.byte	0x6
 2576 02f3 22       		.byte	0x22
 2577 02f4 7C       		.byte	0x7c
 2578 02f5 00       		.sleb128 0
 2579 02f6 20       		.byte	0x20
 2580 02f7 1A       		.byte	0x1a
 2581 02f8 A3       		.byte	0xa3
 2582 02f9 01       		.uleb128 0x1
 2583 02fa 50       		.byte	0x50
 2584 02fb 22       		.byte	0x22
 2585 02fc 9F       		.byte	0x9f
 2586 02fd 00       		.byte	0
 2587              	.LVUS5:
 2588 02fe 00       		.uleb128 0
 2589 02ff 00       		.uleb128 .LVU42
 2590 0300 00       		.uleb128 .LVU42
 2591 0301 00       		.uleb128 0
 2592              	.LLST5:
 2593 0302 06       		.byte	0x6
 2594 0303 00000000 		.4byte	.LVL11
 2595 0307 04       		.byte	0x4
 2596 0308 00       		.uleb128 .LVL11-.LVL11
 2597 0309 0A       		.uleb128 .LVL13-.LVL11
 2598 030a 01       		.uleb128 0x1
 2599 030b 50       		.byte	0x50
 2600 030c 04       		.byte	0x4
 2601 030d 0A       		.uleb128 .LVL13-.LVL11
 2602 030e 28       		.uleb128 .LFE348-.LVL11
 2603 030f 04       		.uleb128 0x4
 2604 0310 A3       		.byte	0xa3
 2605 0311 01       		.uleb128 0x1
 2606 0312 50       		.byte	0x50
 2607 0313 9F       		.byte	0x9f
 2608 0314 00       		.byte	0
 2609              	.LVUS6:
 2610 0315 00       		.uleb128 0
 2611 0316 00       		.uleb128 .LVU40
 2612 0317 00       		.uleb128 .LVU40
 2613 0318 00       		.uleb128 .LVU45
 2614 0319 00       		.uleb128 .LVU45
 2615 031a 00       		.uleb128 0
 2616              	.LLST6:
 2617 031b 06       		.byte	0x6
 2618 031c 00000000 		.4byte	.LVL11
 2619 0320 04       		.byte	0x4
 2620 0321 00       		.uleb128 .LVL11-.LVL11
 2621 0322 04       		.uleb128 .LVL12-.LVL11
ARM GAS  C:\Users\DEVELO~1\AppData\Local\Temp\ccobj71c.s 			page 47


 2622 0323 01       		.uleb128 0x1
 2623 0324 51       		.byte	0x51
 2624 0325 04       		.byte	0x4
 2625 0326 04       		.uleb128 .LVL12-.LVL11
 2626 0327 0E       		.uleb128 .LVL15-.LVL11
 2627 0328 04       		.uleb128 0x4
 2628 0329 71       		.byte	0x71
 2629 032a 00       		.sleb128 0
 2630 032b 1F       		.byte	0x1f
 2631 032c 9F       		.byte	0x9f
 2632 032d 04       		.byte	0x4
 2633 032e 0E       		.uleb128 .LVL15-.LVL11
 2634 032f 28       		.uleb128 .LFE348-.LVL11
 2635 0330 04       		.uleb128 0x4
 2636 0331 A3       		.byte	0xa3
 2637 0332 01       		.uleb128 0x1
 2638 0333 51       		.byte	0x51
 2639 0334 9F       		.byte	0x9f
 2640 0335 00       		.byte	0
 2641              	.LVUS7:
 2642 0336 00       		.uleb128 0
 2643 0337 00       		.uleb128 .LVU46
 2644 0338 00       		.uleb128 .LVU46
 2645 0339 00       		.uleb128 0
 2646              	.LLST7:
 2647 033a 06       		.byte	0x6
 2648 033b 00000000 		.4byte	.LVL11
 2649 033f 04       		.byte	0x4
 2650 0340 00       		.uleb128 .LVL11-.LVL11
 2651 0341 10       		.uleb128 .LVL16-.LVL11
 2652 0342 01       		.uleb128 0x1
 2653 0343 52       		.byte	0x52
 2654 0344 04       		.byte	0x4
 2655 0345 10       		.uleb128 .LVL16-.LVL11
 2656 0346 28       		.uleb128 .LFE348-.LVL11
 2657 0347 04       		.uleb128 0x4
 2658 0348 A3       		.byte	0xa3
 2659 0349 01       		.uleb128 0x1
 2660 034a 52       		.byte	0x52
 2661 034b 9F       		.byte	0x9f
 2662 034c 00       		.byte	0
 2663              	.LVUS8:
 2664 034d 00       		.uleb128 .LVU43
 2665 034e 00       		.uleb128 .LVU54
 2666 034f 00       		.uleb128 .LVU54
 2667 0350 00       		.uleb128 .LVU55
 2668 0351 00       		.uleb128 .LVU55
 2669 0352 00       		.uleb128 0
 2670              	.LLST8:
 2671 0353 06       		.byte	0x6
 2672 0354 0C000000 		.4byte	.LVL14
 2673 0358 04       		.byte	0x4
 2674 0359 00       		.uleb128 .LVL14-.LVL14
 2675 035a 14       		.uleb128 .LVL17-.LVL14
 2676 035b 01       		.uleb128 0x1
 2677 035c 50       		.byte	0x50
 2678 035d 04       		.byte	0x4
ARM GAS  C:\Users\DEVELO~1\AppData\Local\Temp\ccobj71c.s 			page 48


 2679 035e 14       		.uleb128 .LVL17-.LVL14
 2680 035f 16       		.uleb128 .LVL18-.LVL14
 2681 0360 0C       		.uleb128 0xc
 2682 0361 74       		.byte	0x74
 2683 0362 00       		.sleb128 0
 2684 0363 A3       		.byte	0xa3
 2685 0364 01       		.uleb128 0x1
 2686 0365 50       		.byte	0x50
 2687 0366 1C       		.byte	0x1c
 2688 0367 A3       		.byte	0xa3
 2689 0368 01       		.uleb128 0x1
 2690 0369 51       		.byte	0x51
 2691 036a 1F       		.byte	0x1f
 2692 036b 1A       		.byte	0x1a
 2693 036c 9F       		.byte	0x9f
 2694 036d 04       		.byte	0x4
 2695 036e 16       		.uleb128 .LVL18-.LVL14
 2696 036f 1C       		.uleb128 .LFE348-.LVL14
 2697 0370 10       		.uleb128 0x10
 2698 0371 03       		.byte	0x3
 2699 0372 04000000 		.4byte	ch_memcore+4
 2700 0376 06       		.byte	0x6
 2701 0377 A3       		.byte	0xa3
 2702 0378 01       		.uleb128 0x1
 2703 0379 50       		.byte	0x50
 2704 037a 1C       		.byte	0x1c
 2705 037b A3       		.byte	0xa3
 2706 037c 01       		.uleb128 0x1
 2707 037d 51       		.byte	0x51
 2708 037e 1F       		.byte	0x1f
 2709 037f 1A       		.byte	0x1a
 2710 0380 9F       		.byte	0x9f
 2711 0381 00       		.byte	0
 2712              	.LVUS9:
 2713 0382 00       		.uleb128 .LVU46
 2714 0383 00       		.uleb128 0
 2715              	.LLST9:
 2716 0384 08       		.byte	0x8
 2717 0385 10000000 		.4byte	.LVL16
 2718 0389 18       		.uleb128 .LFE348-.LVL16
 2719 038a 01       		.uleb128 0x1
 2720 038b 52       		.byte	0x52
 2721 038c 00       		.byte	0
 2722              	.Ldebug_loc3:
 2723              		.section	.debug_aranges,"",%progbits
 2724 0000 44000000 		.4byte	0x44
 2725 0004 0200     		.2byte	0x2
 2726 0006 00000000 		.4byte	.Ldebug_info0
 2727 000a 04       		.byte	0x4
 2728 000b 00       		.byte	0
 2729 000c 0000     		.2byte	0
 2730 000e 0000     		.2byte	0
 2731 0010 00000000 		.4byte	.LFB346
 2732 0014 18000000 		.4byte	.LFE346-.LFB346
 2733 0018 00000000 		.4byte	.LFB347
 2734 001c 34000000 		.4byte	.LFE347-.LFB347
 2735 0020 00000000 		.4byte	.LFB348
ARM GAS  C:\Users\DEVELO~1\AppData\Local\Temp\ccobj71c.s 			page 49


 2736 0024 28000000 		.4byte	.LFE348-.LFB348
 2737 0028 00000000 		.4byte	.LFB349
 2738 002c 44000000 		.4byte	.LFE349-.LFB349
 2739 0030 00000000 		.4byte	.LFB350
 2740 0034 3C000000 		.4byte	.LFE350-.LFB350
 2741 0038 00000000 		.4byte	.LFB351
 2742 003c 10000000 		.4byte	.LFE351-.LFB351
 2743 0040 00000000 		.4byte	0
 2744 0044 00000000 		.4byte	0
 2745              		.section	.debug_rnglists,"",%progbits
 2746              	.Ldebug_ranges0:
 2747 0000 75000000 		.4byte	.Ldebug_ranges3-.Ldebug_ranges2
 2748              	.Ldebug_ranges2:
 2749 0004 0500     		.2byte	0x5
 2750 0006 04       		.byte	0x4
 2751 0007 00       		.byte	0
 2752 0008 00000000 		.4byte	0
 2753              	.LLRL14:
 2754 000c 05       		.byte	0x5
 2755 000d 00000000 		.4byte	.LBB45
 2756 0011 04       		.byte	0x4
 2757 0012 00       		.uleb128 .LBB45-.LBB45
 2758 0013 00       		.uleb128 .LBE45-.LBB45
 2759 0014 04       		.byte	0x4
 2760 0015 04       		.uleb128 .LBB52-.LBB45
 2761 0016 0A       		.uleb128 .LBE52-.LBB45
 2762 0017 00       		.byte	0
 2763              	.LLRL16:
 2764 0018 05       		.byte	0x5
 2765 0019 0A000000 		.4byte	.LBB53
 2766 001d 04       		.byte	0x4
 2767 001e 00       		.uleb128 .LBB53-.LBB53
 2768 001f 1E       		.uleb128 .LBE53-.LBB53
 2769 0020 04       		.byte	0x4
 2770 0021 28       		.uleb128 .LBB65-.LBB53
 2771 0022 2A       		.uleb128 .LBE65-.LBB53
 2772 0023 00       		.byte	0
 2773              	.LLRL22:
 2774 0024 05       		.byte	0x5
 2775 0025 28000000 		.4byte	.LBB56
 2776 0029 04       		.byte	0x4
 2777 002a 00       		.uleb128 .LBB56-.LBB56
 2778 002b 06       		.uleb128 .LBE56-.LBB56
 2779 002c 04       		.byte	0x4
 2780 002d 0C       		.uleb128 .LBB66-.LBB56
 2781 002e 12       		.uleb128 .LBE66-.LBB56
 2782 002f 00       		.byte	0
 2783              	.LLRL28:
 2784 0030 05       		.byte	0x5
 2785 0031 00000000 		.4byte	.LBB78
 2786 0035 04       		.byte	0x4
 2787 0036 00       		.uleb128 .LBB78-.LBB78
 2788 0037 02       		.uleb128 .LBE78-.LBB78
 2789 0038 04       		.byte	0x4
 2790 0039 04       		.uleb128 .LBB85-.LBB78
 2791 003a 08       		.uleb128 .LBE85-.LBB78
 2792 003b 00       		.byte	0
ARM GAS  C:\Users\DEVELO~1\AppData\Local\Temp\ccobj71c.s 			page 50


 2793              	.LLRL30:
 2794 003c 05       		.byte	0x5
 2795 003d 08000000 		.4byte	.LBB86
 2796 0041 04       		.byte	0x4
 2797 0042 00       		.uleb128 .LBB86-.LBB86
 2798 0043 18       		.uleb128 .LBE86-.LBB86
 2799 0044 04       		.byte	0x4
 2800 0045 22       		.uleb128 .LBB98-.LBB86
 2801 0046 24       		.uleb128 .LBE98-.LBB86
 2802 0047 00       		.byte	0
 2803              	.LLRL36:
 2804 0048 05       		.byte	0x5
 2805 0049 20000000 		.4byte	.LBB89
 2806 004d 04       		.byte	0x4
 2807 004e 00       		.uleb128 .LBB89-.LBB89
 2808 004f 06       		.uleb128 .LBE89-.LBB89
 2809 0050 04       		.byte	0x4
 2810 0051 0C       		.uleb128 .LBB99-.LBB89
 2811 0052 12       		.uleb128 .LBE99-.LBB89
 2812 0053 00       		.byte	0
 2813              	.LLRL38:
 2814 0054 07       		.byte	0x7
 2815 0055 00000000 		.4byte	.LFB346
 2816 0059 18       		.uleb128 .LFE346-.LFB346
 2817 005a 07       		.byte	0x7
 2818 005b 00000000 		.4byte	.LFB347
 2819 005f 34       		.uleb128 .LFE347-.LFB347
 2820 0060 07       		.byte	0x7
 2821 0061 00000000 		.4byte	.LFB348
 2822 0065 28       		.uleb128 .LFE348-.LFB348
 2823 0066 07       		.byte	0x7
 2824 0067 00000000 		.4byte	.LFB349
 2825 006b 44       		.uleb128 .LFE349-.LFB349
 2826 006c 07       		.byte	0x7
 2827 006d 00000000 		.4byte	.LFB350
 2828 0071 3C       		.uleb128 .LFE350-.LFB350
 2829 0072 07       		.byte	0x7
 2830 0073 00000000 		.4byte	.LFB351
 2831 0077 10       		.uleb128 .LFE351-.LFB351
 2832 0078 00       		.byte	0
 2833              	.Ldebug_ranges3:
 2834              		.section	.debug_line,"",%progbits
 2835              	.Ldebug_line0:
 2836 0000 46050000 		.section	.debug_str,"MS",%progbits,1
 2836      03002202 
 2836      00000201 
 2836      FB0E0D00 
 2836      01010101 
 2837              	.LASF42:
 2838 0000 2E2E2F2E 		.ascii	"../../../os/oslib/src/chmemcore.c\000"
 2838      2E2F2E2E 
 2838      2F6F732F 
 2838      6F736C69 
 2838      622F7372 
 2839              	.LASF5:
 2840 0022 5F5F7569 		.ascii	"__uint8_t\000"
 2840      6E74385F 
ARM GAS  C:\Users\DEVELO~1\AppData\Local\Temp\ccobj71c.s 			page 51


 2840      7400
 2841              	.LASF4:
 2842 002c 73697A65 		.ascii	"size_t\000"
 2842      5F7400
 2843              	.LASF31:
 2844 0033 6E657874 		.ascii	"next\000"
 2844      00
 2845              	.LASF24:
 2846 0038 6F666673 		.ascii	"offset\000"
 2846      657400
 2847              	.LASF23:
 2848 003f 616C6967 		.ascii	"align\000"
 2848      6E00
 2849              	.LASF45:
 2850 0045 5F5F636F 		.ascii	"__core_init\000"
 2850      72655F69 
 2850      6E697400 
 2851              	.LASF30:
 2852 0051 6368436F 		.ascii	"chCoreAllocFromBaseI\000"
 2852      7265416C 
 2852      6C6F6346 
 2852      726F6D42 
 2852      61736549 
 2853              	.LASF21:
 2854 0066 6D656D63 		.ascii	"memcore_t\000"
 2854      6F72655F 
 2854      7400
 2855              	.LASF36:
 2856 0070 706F7274 		.ascii	"port_unlock\000"
 2856      5F756E6C 
 2856      6F636B00 
 2857              	.LASF41:
 2858 007c 474E5520 		.ascii	"GNU C17 11.3.1 20220712 -mcpu=cortex-m7 -mthumb -mf"
 2858      43313720 
 2858      31312E33 
 2858      2E312032 
 2858      30323230 
 2859 00af 6C6F6174 		.ascii	"loat-abi=soft -march=armv7e-m -ggdb -O2 -fomit-fram"
 2859      2D616269 
 2859      3D736F66 
 2859      74202D6D 
 2859      61726368 
 2860 00e2 652D706F 		.ascii	"e-pointer -falign-functions=16 -ffunction-sections "
 2860      696E7465 
 2860      72202D66 
 2860      616C6967 
 2860      6E2D6675 
 2861 0115 2D666461 		.ascii	"-fdata-sections -fno-common\000"
 2861      74612D73 
 2861      65637469 
 2861      6F6E7320 
 2861      2D666E6F 
 2862              	.LASF32:
 2863 0131 5F5F6675 		.ascii	"__func__\000"
 2863      6E635F5F 
 2863      00
 2864              	.LASF16:
ARM GAS  C:\Users\DEVELO~1\AppData\Local\Temp\ccobj71c.s 			page 52


 2865 013a 666C6F61 		.ascii	"float\000"
 2865      7400
 2866              	.LASF12:
 2867 0140 6C6F6E67 		.ascii	"long long unsigned int\000"
 2867      206C6F6E 
 2867      6720756E 
 2867      7369676E 
 2867      65642069 
 2868              	.LASF39:
 2869 0157 5F5F7365 		.ascii	"__set_BASEPRI\000"
 2869      745F4241 
 2869      53455052 
 2869      4900
 2870              	.LASF6:
 2871 0165 756E7369 		.ascii	"unsigned char\000"
 2871      676E6564 
 2871      20636861 
 2871      7200
 2872              	.LASF11:
 2873 0173 6C6F6E67 		.ascii	"long unsigned int\000"
 2873      20756E73 
 2873      69676E65 
 2873      6420696E 
 2873      7400
 2874              	.LASF8:
 2875 0185 73686F72 		.ascii	"short unsigned int\000"
 2875      7420756E 
 2875      7369676E 
 2875      65642069 
 2875      6E7400
 2876              	.LASF17:
 2877 0198 646F7562 		.ascii	"double\000"
 2877      6C6500
 2878              	.LASF10:
 2879 019f 5F5F7569 		.ascii	"__uint32_t\000"
 2879      6E743332 
 2879      5F7400
 2880              	.LASF25:
 2881 01aa 63685F6D 		.ascii	"ch_memcore\000"
 2881      656D636F 
 2881      726500
 2882              	.LASF37:
 2883 01b5 706F7274 		.ascii	"port_lock\000"
 2883      5F6C6F63 
 2883      6B00
 2884              	.LASF0:
 2885 01bf 756E7369 		.ascii	"unsigned int\000"
 2885      676E6564 
 2885      20696E74 
 2885      00
 2886              	.LASF15:
 2887 01cc 63686172 		.ascii	"char\000"
 2887      00
 2888              	.LASF13:
 2889 01d1 75696E74 		.ascii	"uint8_t\000"
 2889      385F7400 
 2890              	.LASF20:
ARM GAS  C:\Users\DEVELO~1\AppData\Local\Temp\ccobj71c.s 			page 53


 2891 01d9 746F706D 		.ascii	"topmem\000"
 2891      656D00
 2892              	.LASF33:
 2893 01e0 5F5F6865 		.ascii	"__heap_base__\000"
 2893      61705F62 
 2893      6173655F 
 2893      5F00
 2894              	.LASF40:
 2895 01ee 62617365 		.ascii	"basePri\000"
 2895      50726900 
 2896              	.LASF26:
 2897 01f6 6368436F 		.ascii	"chCoreAllocFromTop\000"
 2897      7265416C 
 2897      6C6F6346 
 2897      726F6D54 
 2897      6F7000
 2898              	.LASF29:
 2899 0209 6368436F 		.ascii	"chCoreAllocFromTopI\000"
 2899      7265416C 
 2899      6C6F6346 
 2899      726F6D54 
 2899      6F704900 
 2900              	.LASF44:
 2901 021d 6368436F 		.ascii	"chCoreGetStatusX\000"
 2901      72654765 
 2901      74537461 
 2901      74757358 
 2901      00
 2902              	.LASF1:
 2903 022e 6C6F6E67 		.ascii	"long long int\000"
 2903      206C6F6E 
 2903      6720696E 
 2903      7400
 2904              	.LASF34:
 2905 023c 5F5F6865 		.ascii	"__heap_end__\000"
 2905      61705F65 
 2905      6E645F5F 
 2905      00
 2906              	.LASF35:
 2907 0249 63685379 		.ascii	"chSysLock\000"
 2907      734C6F63 
 2907      6B00
 2908              	.LASF7:
 2909 0253 73686F72 		.ascii	"short int\000"
 2909      7420696E 
 2909      7400
 2910              	.LASF27:
 2911 025d 6368436F 		.ascii	"chCoreAllocFromBase\000"
 2911      7265416C 
 2911      6C6F6346 
 2911      726F6D42 
 2911      61736500 
 2912              	.LASF43:
 2913 0271 433A5C43 		.ascii	"C:\\ChibiStudio\\chibios2111\\demos\\STM32\\RT-STM3"
 2913      68696269 
 2913      53747564 
 2913      696F5C63 
ARM GAS  C:\Users\DEVELO~1\AppData\Local\Temp\ccobj71c.s 			page 54


 2913      68696269 
 2914 029f 32483734 		.ascii	"2H743ZI_REV_XY-NUCLEO144 - Copie\000"
 2914      335A495F 
 2914      5245565F 
 2914      58592D4E 
 2914      55434C45 
 2915              	.LASF19:
 2916 02c0 62617365 		.ascii	"basemem\000"
 2916      6D656D00 
 2917              	.LASF14:
 2918 02c8 75696E74 		.ascii	"uint32_t\000"
 2918      33325F74 
 2918      00
 2919              	.LASF9:
 2920 02d1 6C6F6E67 		.ascii	"long int\000"
 2920      20696E74 
 2920      00
 2921              	.LASF2:
 2922 02da 6C6F6E67 		.ascii	"long double\000"
 2922      20646F75 
 2922      626C6500 
 2923              	.LASF3:
 2924 02e6 7369676E 		.ascii	"signed char\000"
 2924      65642063 
 2924      68617200 
 2925              	.LASF22:
 2926 02f2 73697A65 		.ascii	"size\000"
 2926      00
 2927              	.LASF18:
 2928 02f7 5F426F6F 		.ascii	"_Bool\000"
 2928      6C00
 2929              	.LASF28:
 2930 02fd 70726576 		.ascii	"prev\000"
 2930      00
 2931              	.LASF38:
 2932 0302 63685379 		.ascii	"chSysUnlock\000"
 2932      73556E6C 
 2932      6F636B00 
 2933              		.ident	"GCC: (Arm GNU Toolchain 11.3.Rel1) 11.3.1 20220712"
ARM GAS  C:\Users\DEVELO~1\AppData\Local\Temp\ccobj71c.s 			page 55


DEFINED SYMBOLS
                            *ABS*:00000000 chmemcore.c
C:\Users\DEVELO~1\AppData\Local\Temp\ccobj71c.s:18     .text.__core_init:00000000 $t
C:\Users\DEVELO~1\AppData\Local\Temp\ccobj71c.s:25     .text.__core_init:00000000 __core_init
C:\Users\DEVELO~1\AppData\Local\Temp\ccobj71c.s:47     .text.__core_init:0000000c $d
C:\Users\DEVELO~1\AppData\Local\Temp\ccobj71c.s:54     .text.chCoreAllocFromBaseI:00000000 $t
C:\Users\DEVELO~1\AppData\Local\Temp\ccobj71c.s:61     .text.chCoreAllocFromBaseI:00000000 chCoreAllocFromBaseI
C:\Users\DEVELO~1\AppData\Local\Temp\ccobj71c.s:137    .text.chCoreAllocFromBaseI:00000030 $d
C:\Users\DEVELO~1\AppData\Local\Temp\ccobj71c.s:142    .text.chCoreAllocFromTopI:00000000 $t
C:\Users\DEVELO~1\AppData\Local\Temp\ccobj71c.s:149    .text.chCoreAllocFromTopI:00000000 chCoreAllocFromTopI
C:\Users\DEVELO~1\AppData\Local\Temp\ccobj71c.s:217    .text.chCoreAllocFromTopI:00000024 $d
C:\Users\DEVELO~1\AppData\Local\Temp\ccobj71c.s:222    .text.chCoreAllocFromBase:00000000 $t
C:\Users\DEVELO~1\AppData\Local\Temp\ccobj71c.s:229    .text.chCoreAllocFromBase:00000000 chCoreAllocFromBase
C:\Users\DEVELO~1\AppData\Local\Temp\ccobj71c.s:426    .text.chCoreAllocFromBase:00000040 $d
C:\Users\DEVELO~1\AppData\Local\Temp\ccobj71c.s:431    .text.chCoreAllocFromTop:00000000 $t
C:\Users\DEVELO~1\AppData\Local\Temp\ccobj71c.s:438    .text.chCoreAllocFromTop:00000000 chCoreAllocFromTop
C:\Users\DEVELO~1\AppData\Local\Temp\ccobj71c.s:624    .text.chCoreAllocFromTop:00000038 $d
C:\Users\DEVELO~1\AppData\Local\Temp\ccobj71c.s:629    .text.chCoreGetStatusX:00000000 $t
C:\Users\DEVELO~1\AppData\Local\Temp\ccobj71c.s:636    .text.chCoreGetStatusX:00000000 chCoreGetStatusX
C:\Users\DEVELO~1\AppData\Local\Temp\ccobj71c.s:654    .text.chCoreGetStatusX:0000000c $d
C:\Users\DEVELO~1\AppData\Local\Temp\ccobj71c.s:664    .bss.ch_memcore:00000000 ch_memcore
C:\Users\DEVELO~1\AppData\Local\Temp\ccobj71c.s:660    .bss.ch_memcore:00000000 $d

UNDEFINED SYMBOLS
__heap_base__
__heap_end__
