ARM GAS  C:\Users\DEVELO~1\AppData\Local\Temp\ccB976pz.s 			page 1


   1              		.cpu cortex-m7
   2              		.arch armv7e-m
   3              		.fpu softvfp
   4              		.eabi_attribute 20, 1
   5              		.eabi_attribute 21, 1
   6              		.eabi_attribute 23, 3
   7              		.eabi_attribute 24, 1
   8              		.eabi_attribute 25, 1
   9              		.eabi_attribute 26, 1
  10              		.eabi_attribute 30, 2
  11              		.eabi_attribute 34, 1
  12              		.eabi_attribute 18, 4
  13              		.file	"chmsg.c"
  14              		.text
  15              	.Ltext0:
  16              		.cfi_sections	.debug_frame
  17              		.section	.text.chMsgSend,"ax",%progbits
  18              		.align	1
  19              		.p2align 4,,15
  20              		.global	chMsgSend
  21              		.syntax unified
  22              		.thumb
  23              		.thumb_func
  24              		.type	chMsgSend, %function
  25              	chMsgSend:
  26              	.LVL0:
  27              	.LFB352:
  28              		.file 1 "./ChibiOS/os/rt/src/chmsg.c"
  29              		.loc 1 85 42 view -0
  30              		.cfi_startproc
  31              		@ args = 0, pretend = 0, frame = 0
  32              		@ frame_needed = 0, uses_anonymous_args = 0
  33              		.loc 1 86 3 view .LVU1
  34              	.LBB58:
  35              	.LBI58:
  36              		.file 2 "./ChibiOS/os/rt/include/chthreads.h"
  37              		.loc 2 527 25 view .LVU2
  38              	.LBB59:
  39              		.loc 2 529 3 view .LVU3
  40              	.LBE59:
  41              	.LBE58:
  42              		.loc 1 85 42 is_stmt 0 view .LVU4
  43 0000 38B5     		push	{r3, r4, r5, lr}
  44              		.cfi_def_cfa_offset 16
  45              		.cfi_offset 3, -16
  46              		.cfi_offset 4, -12
  47              		.cfi_offset 5, -8
  48              		.cfi_offset 14, -4
  49              	.LBB62:
  50              	.LBB60:
  51              		.loc 2 529 10 view .LVU5
  52 0002 0D4C     		ldr	r4, .L6
  53              	.LBE60:
  54              	.LBE62:
  55              	.LBB63:
  56              	.LBB64:
  57              	.LBB65:
ARM GAS  C:\Users\DEVELO~1\AppData\Local\Temp\ccB976pz.s 			page 2


  58              	.LBB66:
  59              		.file 3 "./ChibiOS/os/common/ext/ARM/CMSIS/Core/Include/cmsis_gcc.h"
  60              		.loc 3 493 3 view .LVU6
  61 0004 3022     		movs	r2, #48
  62              	.LBE66:
  63              	.LBE65:
  64              	.LBE64:
  65              	.LBE63:
  66              	.LBB70:
  67              	.LBB61:
  68              		.loc 2 529 10 view .LVU7
  69 0006 E468     		ldr	r4, [r4, #12]
  70              	.LVL1:
  71              		.loc 2 529 10 view .LVU8
  72              	.LBE61:
  73              	.LBE70:
  74              		.loc 1 88 3 is_stmt 1 view .LVU9
  75              		.loc 1 88 3 view .LVU10
  76              		.loc 1 88 3 view .LVU11
  77              		.loc 1 90 3 view .LVU12
  78              	.LBB71:
  79              	.LBI63:
  80              		.file 4 "./ChibiOS/os/rt/include/chsys.h"
  81              		.loc 4 372 20 view .LVU13
  82              		.loc 4 374 3 view .LVU14
  83              	.LBB69:
  84              	.LBI64:
  85              		.file 5 "./ChibiOS/os/common/ports/ARMv7-M/chcore.h"
  86              		.loc 5 840 27 view .LVU15
  87              		.loc 5 848 3 view .LVU16
  88              	.LBB68:
  89              	.LBI65:
  90              		.loc 3 491 27 view .LVU17
  91              	.LBB67:
  92              		.loc 3 493 3 view .LVU18
  93              		.syntax unified
  94              	@ 493 "./ChibiOS/os/common/ext/ARM/CMSIS/Core/Include/cmsis_gcc.h" 1
  95 0008 82F31188 		MSR basepri, r2
  96              	@ 0 "" 2
  97              	.LVL2:
  98              		.loc 3 493 3 is_stmt 0 view .LVU19
  99              		.thumb
 100              		.syntax unified
 101              	.LBE67:
 102              	.LBE68:
 103              	.LBE69:
 104              		.loc 4 375 35 is_stmt 1 view .LVU20
 105              		.loc 4 376 21 view .LVU21
 106              	.LBE71:
 107              		.loc 1 91 3 view .LVU22
 108              	.LBB72:
 109              	.LBB73:
 110              		.file 6 "./ChibiOS/os/rt/include/chlists.h"
 111              		.loc 6 325 21 is_stmt 0 view .LVU23
 112 000c 026C     		ldr	r2, [r0, #64]
 113              	.LBE73:
 114              	.LBE72:
ARM GAS  C:\Users\DEVELO~1\AppData\Local\Temp\ccB976pz.s 			page 3


 115              		.loc 1 92 3 view .LVU24
 116 000e 00F13C05 		add	r5, r0, #60
 117              		.loc 1 91 21 view .LVU25
 118 0012 6163     		str	r1, [r4, #52]
 119              		.loc 1 92 3 is_stmt 1 view .LVU26
 120              	.LVL3:
 121              	.LBB76:
 122              	.LBI72:
 123              		.loc 6 322 20 view .LVU27
 124              	.LBB74:
 125              		.loc 6 324 3 view .LVU28
 126              		.loc 6 325 3 view .LVU29
 127              		.loc 6 324 17 is_stmt 0 view .LVU30
 128 0014 2560     		str	r5, [r4]
 129              		.loc 6 325 17 view .LVU31
 130 0016 6260     		str	r2, [r4, #4]
 131              		.loc 6 326 3 is_stmt 1 view .LVU32
 132              		.loc 6 326 17 is_stmt 0 view .LVU33
 133 0018 1460     		str	r4, [r2]
 134              		.loc 6 327 3 is_stmt 1 view .LVU34
 135              	.LBE74:
 136              	.LBE76:
 137              		.loc 1 93 6 is_stmt 0 view .LVU35
 138 001a 027F     		ldrb	r2, [r0, #28]	@ zero_extendqisi2
 139              	.LBB77:
 140              	.LBB75:
 141              		.loc 6 327 17 view .LVU36
 142 001c 0464     		str	r4, [r0, #64]
 143              	.LVL4:
 144              		.loc 6 327 17 view .LVU37
 145              	.LBE75:
 146              	.LBE77:
 147              		.loc 1 93 3 is_stmt 1 view .LVU38
 148              		.loc 1 93 6 is_stmt 0 view .LVU39
 149 001e 0E2A     		cmp	r2, #14
 150 0020 07D0     		beq	.L5
 151              	.LVL5:
 152              	.L2:
 153              		.loc 1 96 3 is_stmt 1 view .LVU40
 154 0022 0C20     		movs	r0, #12
 155 0024 FFF7FEFF 		bl	chSchGoSleepS
 156              	.LVL6:
 157              		.loc 1 97 3 view .LVU41
 158              		.loc 1 97 7 is_stmt 0 view .LVU42
 159 0028 606B     		ldr	r0, [r4, #52]
 160              	.LVL7:
 161              		.loc 1 98 3 is_stmt 1 view .LVU43
 162              	.LBB78:
 163              	.LBI78:
 164              		.loc 4 386 20 view .LVU44
 165              	.LBB79:
 166              		.loc 4 388 23 view .LVU45
 167              		.loc 4 389 34 view .LVU46
 168              		.loc 4 395 3 view .LVU47
 169              		.loc 4 395 3 view .LVU48
 170              		.loc 4 395 3 view .LVU49
 171              		.loc 4 399 3 view .LVU50
ARM GAS  C:\Users\DEVELO~1\AppData\Local\Temp\ccB976pz.s 			page 4


 172              	.LBB80:
 173              	.LBI80:
 174              		.loc 5 864 27 view .LVU51
 175              		.loc 5 867 3 view .LVU52
 176              	.LBB81:
 177              	.LBI81:
 178              		.loc 3 491 27 view .LVU53
 179              	.LBB82:
 180              		.loc 3 493 3 view .LVU54
 181 002a 0023     		movs	r3, #0
 182              		.syntax unified
 183              	@ 493 "./ChibiOS/os/common/ext/ARM/CMSIS/Core/Include/cmsis_gcc.h" 1
 184 002c 83F31188 		MSR basepri, r3
 185              	@ 0 "" 2
 186              	.LVL8:
 187              		.loc 3 493 3 is_stmt 0 view .LVU55
 188              		.thumb
 189              		.syntax unified
 190              	.LBE82:
 191              	.LBE81:
 192              	.LBE80:
 193              	.LBE79:
 194              	.LBE78:
 195              		.loc 1 100 3 is_stmt 1 view .LVU56
 196              		.loc 1 101 1 is_stmt 0 view .LVU57
 197 0030 38BD     		pop	{r3, r4, r5, pc}
 198              	.LVL9:
 199              	.L5:
 200              		.loc 1 94 5 is_stmt 1 view .LVU58
 201              		.loc 1 94 12 is_stmt 0 view .LVU59
 202 0032 FFF7FEFF 		bl	chSchReadyI
 203              	.LVL10:
 204              		.loc 1 94 12 view .LVU60
 205 0036 F4E7     		b	.L2
 206              	.L7:
 207              		.align	2
 208              	.L6:
 209 0038 00000000 		.word	ch0
 210              		.cfi_endproc
 211              	.LFE352:
 212              		.size	chMsgSend, .-chMsgSend
 213              		.section	.text.chMsgWaitS,"ax",%progbits
 214              		.align	1
 215              		.p2align 4,,15
 216              		.global	chMsgWaitS
 217              		.syntax unified
 218              		.thumb
 219              		.thumb_func
 220              		.type	chMsgWaitS, %function
 221              	chMsgWaitS:
 222              	.LFB353:
 223              		.loc 1 119 28 is_stmt 1 view -0
 224              		.cfi_startproc
 225              		@ args = 0, pretend = 0, frame = 0
 226              		@ frame_needed = 0, uses_anonymous_args = 0
 227              		.loc 1 120 3 view .LVU62
 228              	.LBB83:
ARM GAS  C:\Users\DEVELO~1\AppData\Local\Temp\ccB976pz.s 			page 5


 229              	.LBI83:
 230              		.loc 2 527 25 view .LVU63
 231              	.LBB84:
 232              		.loc 2 529 3 view .LVU64
 233              	.LBE84:
 234              	.LBE83:
 235              		.loc 1 119 28 is_stmt 0 view .LVU65
 236 0000 38B5     		push	{r3, r4, r5, lr}
 237              		.cfi_def_cfa_offset 16
 238              		.cfi_offset 3, -16
 239              		.cfi_offset 4, -12
 240              		.cfi_offset 5, -8
 241              		.cfi_offset 14, -4
 242              	.LBB86:
 243              	.LBB85:
 244              		.loc 2 529 10 view .LVU66
 245 0002 094B     		ldr	r3, .L12
 246 0004 DD68     		ldr	r5, [r3, #12]
 247              	.LVL11:
 248              		.loc 2 529 10 view .LVU67
 249              	.LBE85:
 250              	.LBE86:
 251              		.loc 1 121 3 is_stmt 1 view .LVU68
 252              		.loc 1 123 21 view .LVU69
 253              		.loc 1 125 3 view .LVU70
 254              	.LBB87:
 255              	.LBI87:
 256              		.file 7 "./ChibiOS/os/rt/include/chmsg.h"
 257              		.loc 7 172 20 view .LVU71
 258              	.LBB88:
 259              		.loc 7 174 21 view .LVU72
 260              		.loc 7 176 3 view .LVU73
 261              		.loc 7 176 29 is_stmt 0 view .LVU74
 262 0006 2C46     		mov	r4, r5
 263 0008 54F83C0F 		ldr	r0, [r4, #60]!
 264              	.LVL12:
 265              		.loc 7 176 29 view .LVU75
 266              	.LBE88:
 267              	.LBE87:
 268              		.loc 1 125 6 view .LVU76
 269 000c 8442     		cmp	r4, r0
 270 000e 05D0     		beq	.L11
 271              	.L9:
 272              		.loc 1 128 3 is_stmt 1 view .LVU77
 273              	.LVL13:
 274              	.LBB89:
 275              	.LBI89:
 276              		.loc 6 340 27 view .LVU78
 277              	.LBB90:
 278              		.loc 6 341 3 view .LVU79
 279              		.loc 6 343 3 view .LVU80
 280              		.loc 6 343 21 is_stmt 0 view .LVU81
 281 0010 0368     		ldr	r3, [r0]
 282              	.LBE90:
 283              	.LBE89:
 284              		.loc 1 129 13 view .LVU82
 285 0012 0D22     		movs	r2, #13
ARM GAS  C:\Users\DEVELO~1\AppData\Local\Temp\ccB976pz.s 			page 6


 286              	.LBB93:
 287              	.LBB91:
 288              		.loc 6 343 18 view .LVU83
 289 0014 EB63     		str	r3, [r5, #60]
 290              	.LVL14:
 291              		.loc 6 344 3 is_stmt 1 view .LVU84
 292              		.loc 6 344 18 is_stmt 0 view .LVU85
 293 0016 5C60     		str	r4, [r3, #4]
 294              		.loc 6 346 3 is_stmt 1 view .LVU86
 295              	.LVL15:
 296              		.loc 6 346 3 is_stmt 0 view .LVU87
 297              	.LBE91:
 298              	.LBE93:
 299              		.loc 1 129 3 is_stmt 1 view .LVU88
 300              		.loc 1 129 13 is_stmt 0 view .LVU89
 301 0018 0277     		strb	r2, [r0, #28]
 302              		.loc 1 131 3 is_stmt 1 view .LVU90
 303              		.loc 1 132 1 is_stmt 0 view .LVU91
 304 001a 38BD     		pop	{r3, r4, r5, pc}
 305              	.LVL16:
 306              	.L11:
 307              		.loc 1 126 5 is_stmt 1 view .LVU92
 308 001c 0E20     		movs	r0, #14
 309 001e FFF7FEFF 		bl	chSchGoSleepS
 310              	.LVL17:
 311              	.LBB94:
 312              	.LBB92:
 313              		.loc 6 341 15 is_stmt 0 view .LVU93
 314 0022 E86B     		ldr	r0, [r5, #60]
 315 0024 F4E7     		b	.L9
 316              	.L13:
 317 0026 00BF     		.align	2
 318              	.L12:
 319 0028 00000000 		.word	ch0
 320              	.LBE92:
 321              	.LBE94:
 322              		.cfi_endproc
 323              	.LFE353:
 324              		.size	chMsgWaitS, .-chMsgWaitS
 325              		.section	.text.chMsgWaitTimeoutS,"ax",%progbits
 326              		.align	1
 327              		.p2align 4,,15
 328              		.global	chMsgWaitTimeoutS
 329              		.syntax unified
 330              		.thumb
 331              		.thumb_func
 332              		.type	chMsgWaitTimeoutS, %function
 333              	chMsgWaitTimeoutS:
 334              	.LVL18:
 335              	.LFB354:
 336              		.loc 1 155 52 is_stmt 1 view -0
 337              		.cfi_startproc
 338              		@ args = 0, pretend = 0, frame = 0
 339              		@ frame_needed = 0, uses_anonymous_args = 0
 340              		.loc 1 156 3 view .LVU95
 341              	.LBB95:
 342              	.LBI95:
ARM GAS  C:\Users\DEVELO~1\AppData\Local\Temp\ccB976pz.s 			page 7


 343              		.loc 2 527 25 view .LVU96
 344              	.LBB96:
 345              		.loc 2 529 3 view .LVU97
 346              	.LBE96:
 347              	.LBE95:
 348              		.loc 1 155 52 is_stmt 0 view .LVU98
 349 0000 38B5     		push	{r3, r4, r5, lr}
 350              		.cfi_def_cfa_offset 16
 351              		.cfi_offset 3, -16
 352              		.cfi_offset 4, -12
 353              		.cfi_offset 5, -8
 354              		.cfi_offset 14, -4
 355              	.LBB99:
 356              	.LBB97:
 357              		.loc 2 529 10 view .LVU99
 358 0002 0B4B     		ldr	r3, .L20
 359              	.LBE97:
 360              	.LBE99:
 361              		.loc 1 155 52 view .LVU100
 362 0004 0146     		mov	r1, r0
 363              	.LBB100:
 364              	.LBB98:
 365              		.loc 2 529 10 view .LVU101
 366 0006 DD68     		ldr	r5, [r3, #12]
 367              	.LVL19:
 368              		.loc 2 529 10 view .LVU102
 369              	.LBE98:
 370              	.LBE100:
 371              		.loc 1 157 3 is_stmt 1 view .LVU103
 372              		.loc 1 159 21 view .LVU104
 373              		.loc 1 161 3 view .LVU105
 374              	.LBB101:
 375              	.LBI101:
 376              		.loc 7 172 20 view .LVU106
 377              	.LBB102:
 378              		.loc 7 174 21 view .LVU107
 379              		.loc 7 176 3 view .LVU108
 380              		.loc 7 176 29 is_stmt 0 view .LVU109
 381 0008 2C46     		mov	r4, r5
 382 000a 54F83C0F 		ldr	r0, [r4, #60]!
 383              	.LVL20:
 384              		.loc 7 176 29 view .LVU110
 385              	.LBE102:
 386              	.LBE101:
 387              		.loc 1 161 6 view .LVU111
 388 000e 8442     		cmp	r4, r0
 389 0010 05D0     		beq	.L19
 390              	.LVL21:
 391              	.L15:
 392              		.loc 1 166 3 is_stmt 1 view .LVU112
 393              	.LBB103:
 394              	.LBI103:
 395              		.loc 6 340 27 view .LVU113
 396              	.LBB104:
 397              		.loc 6 341 3 view .LVU114
 398              		.loc 6 343 3 view .LVU115
 399              		.loc 6 343 21 is_stmt 0 view .LVU116
ARM GAS  C:\Users\DEVELO~1\AppData\Local\Temp\ccB976pz.s 			page 8


 400 0012 0368     		ldr	r3, [r0]
 401              	.LBE104:
 402              	.LBE103:
 403              		.loc 1 167 13 view .LVU117
 404 0014 0D22     		movs	r2, #13
 405              	.LBB107:
 406              	.LBB105:
 407              		.loc 6 343 18 view .LVU118
 408 0016 EB63     		str	r3, [r5, #60]
 409              	.LVL22:
 410              		.loc 6 344 3 is_stmt 1 view .LVU119
 411              		.loc 6 344 18 is_stmt 0 view .LVU120
 412 0018 5C60     		str	r4, [r3, #4]
 413              		.loc 6 346 3 is_stmt 1 view .LVU121
 414              	.LVL23:
 415              		.loc 6 346 3 is_stmt 0 view .LVU122
 416              	.LBE105:
 417              	.LBE107:
 418              		.loc 1 167 3 is_stmt 1 view .LVU123
 419              		.loc 1 167 13 is_stmt 0 view .LVU124
 420 001a 0277     		strb	r2, [r0, #28]
 421              		.loc 1 169 3 is_stmt 1 view .LVU125
 422              		.loc 1 170 1 is_stmt 0 view .LVU126
 423 001c 38BD     		pop	{r3, r4, r5, pc}
 424              	.LVL24:
 425              	.L19:
 426              		.loc 1 162 5 is_stmt 1 view .LVU127
 427              		.loc 1 162 9 is_stmt 0 view .LVU128
 428 001e 0E20     		movs	r0, #14
 429 0020 FFF7FEFF 		bl	chSchGoSleepTimeoutS
 430              	.LVL25:
 431              		.loc 1 162 8 view .LVU129
 432 0024 08B9     		cbnz	r0, .L17
 433              	.LBB108:
 434              	.LBB106:
 435              		.loc 6 341 15 view .LVU130
 436 0026 E86B     		ldr	r0, [r5, #60]
 437 0028 F3E7     		b	.L15
 438              	.L17:
 439              		.loc 6 341 15 view .LVU131
 440              	.LBE106:
 441              	.LBE108:
 442              		.loc 1 163 14 view .LVU132
 443 002a 0020     		movs	r0, #0
 444              		.loc 1 170 1 view .LVU133
 445 002c 38BD     		pop	{r3, r4, r5, pc}
 446              	.LVL26:
 447              	.L21:
 448              		.loc 1 170 1 view .LVU134
 449 002e 00BF     		.align	2
 450              	.L20:
 451 0030 00000000 		.word	ch0
 452              		.cfi_endproc
 453              	.LFE354:
 454              		.size	chMsgWaitTimeoutS, .-chMsgWaitTimeoutS
 455              		.section	.text.chMsgPollS,"ax",%progbits
 456              		.align	1
ARM GAS  C:\Users\DEVELO~1\AppData\Local\Temp\ccB976pz.s 			page 9


 457              		.p2align 4,,15
 458              		.global	chMsgPollS
 459              		.syntax unified
 460              		.thumb
 461              		.thumb_func
 462              		.type	chMsgPollS, %function
 463              	chMsgPollS:
 464              	.LFB355:
 465              		.loc 1 189 28 is_stmt 1 view -0
 466              		.cfi_startproc
 467              		@ args = 0, pretend = 0, frame = 0
 468              		@ frame_needed = 0, uses_anonymous_args = 0
 469              		@ link register save eliminated.
 470              		.loc 1 190 3 view .LVU136
 471              	.LBB109:
 472              	.LBI109:
 473              		.loc 2 527 25 view .LVU137
 474              	.LBB110:
 475              		.loc 2 529 3 view .LVU138
 476              		.loc 2 529 10 is_stmt 0 view .LVU139
 477 0000 084B     		ldr	r3, .L25
 478 0002 DA68     		ldr	r2, [r3, #12]
 479              	.LVL27:
 480              		.loc 2 529 10 view .LVU140
 481              	.LBE110:
 482              	.LBE109:
 483              		.loc 1 191 3 is_stmt 1 view .LVU141
 484              		.loc 1 193 3 view .LVU142
 485              	.LBB111:
 486              	.LBI111:
 487              		.loc 7 172 20 view .LVU143
 488              	.LBB112:
 489              		.loc 7 174 21 view .LVU144
 490              		.loc 7 176 3 view .LVU145
 491              		.loc 7 176 29 is_stmt 0 view .LVU146
 492 0004 1346     		mov	r3, r2
 493 0006 53F83C0F 		ldr	r0, [r3, #60]!
 494              	.LVL28:
 495              		.loc 7 176 29 view .LVU147
 496              	.LBE112:
 497              	.LBE111:
 498              		.loc 1 193 6 view .LVU148
 499 000a 8342     		cmp	r3, r0
 500 000c 07D0     		beq	.L24
 501              		.loc 1 194 5 is_stmt 1 view .LVU149
 502              	.LVL29:
 503              	.LBB113:
 504              	.LBI113:
 505              		.loc 6 340 27 view .LVU150
 506              	.LBB114:
 507              		.loc 6 341 3 view .LVU151
 508              		.loc 6 343 3 view .LVU152
 509              		.loc 6 343 21 is_stmt 0 view .LVU153
 510 000e 0168     		ldr	r1, [r0]
 511              	.LBE114:
 512              	.LBE113:
 513              		.loc 1 195 15 view .LVU154
ARM GAS  C:\Users\DEVELO~1\AppData\Local\Temp\ccB976pz.s 			page 10


 514 0010 4FF00D0C 		mov	ip, #13
 515              	.LBB116:
 516              	.LBB115:
 517              		.loc 6 343 18 view .LVU155
 518 0014 D163     		str	r1, [r2, #60]
 519              		.loc 6 344 3 is_stmt 1 view .LVU156
 520              		.loc 6 344 18 is_stmt 0 view .LVU157
 521 0016 4B60     		str	r3, [r1, #4]
 522              		.loc 6 346 3 is_stmt 1 view .LVU158
 523              	.LVL30:
 524              		.loc 6 346 3 is_stmt 0 view .LVU159
 525              	.LBE115:
 526              	.LBE116:
 527              		.loc 1 195 5 is_stmt 1 view .LVU160
 528              		.loc 1 195 15 is_stmt 0 view .LVU161
 529 0018 80F81CC0 		strb	ip, [r0, #28]
 530 001c 7047     		bx	lr
 531              	.LVL31:
 532              	.L24:
 533              		.loc 1 191 13 view .LVU162
 534 001e 0020     		movs	r0, #0
 535              		.loc 1 198 3 is_stmt 1 view .LVU163
 536              		.loc 1 199 1 is_stmt 0 view .LVU164
 537 0020 7047     		bx	lr
 538              	.L26:
 539 0022 00BF     		.align	2
 540              	.L25:
 541 0024 00000000 		.word	ch0
 542              		.cfi_endproc
 543              	.LFE355:
 544              		.size	chMsgPollS, .-chMsgPollS
 545              		.section	.text.chMsgRelease,"ax",%progbits
 546              		.align	1
 547              		.p2align 4,,15
 548              		.global	chMsgRelease
 549              		.syntax unified
 550              		.thumb
 551              		.thumb_func
 552              		.type	chMsgRelease, %function
 553              	chMsgRelease:
 554              	.LVL32:
 555              	.LFB356:
 556              		.loc 1 211 44 is_stmt 1 view -0
 557              		.cfi_startproc
 558              		@ args = 0, pretend = 0, frame = 0
 559              		@ frame_needed = 0, uses_anonymous_args = 0
 560              		.loc 1 213 3 view .LVU166
 561              	.LBB117:
 562              	.LBI117:
 563              		.loc 4 372 20 view .LVU167
 564              		.loc 4 374 3 view .LVU168
 565              	.LBB118:
 566              	.LBI118:
 567              		.loc 5 840 27 view .LVU169
 568              		.loc 5 848 3 view .LVU170
 569              	.LBB119:
 570              	.LBI119:
ARM GAS  C:\Users\DEVELO~1\AppData\Local\Temp\ccB976pz.s 			page 11


 571              		.loc 3 491 27 view .LVU171
 572              	.LBB120:
 573              		.loc 3 493 3 view .LVU172
 574              	.LBE120:
 575              	.LBE119:
 576              	.LBE118:
 577              	.LBE117:
 578              		.loc 1 211 44 is_stmt 0 view .LVU173
 579 0000 08B5     		push	{r3, lr}
 580              		.cfi_def_cfa_offset 8
 581              		.cfi_offset 3, -8
 582              		.cfi_offset 14, -4
 583              	.LBB124:
 584              	.LBB123:
 585              	.LBB122:
 586              	.LBB121:
 587              		.loc 3 493 3 view .LVU174
 588 0002 3023     		movs	r3, #48
 589              		.syntax unified
 590              	@ 493 "./ChibiOS/os/common/ext/ARM/CMSIS/Core/Include/cmsis_gcc.h" 1
 591 0004 83F31188 		MSR basepri, r3
 592              	@ 0 "" 2
 593              	.LVL33:
 594              		.loc 3 493 3 view .LVU175
 595              		.thumb
 596              		.syntax unified
 597              	.LBE121:
 598              	.LBE122:
 599              	.LBE123:
 600              		.loc 4 375 35 is_stmt 1 view .LVU176
 601              		.loc 4 376 21 view .LVU177
 602              	.LBE124:
 603              		.loc 1 214 3 view .LVU178
 604              		.loc 1 214 3 view .LVU179
 605              		.loc 1 214 3 view .LVU180
 606              		.loc 1 215 3 view .LVU181
 607              	.LBB125:
 608              	.LBI125:
 609              		.loc 7 206 20 view .LVU182
 610              	.LBB126:
 611              		.loc 7 208 21 view .LVU183
 612              		.loc 7 210 3 view .LVU184
 613 0008 FFF7FEFF 		bl	chSchWakeupS
 614              	.LVL34:
 615              		.loc 7 210 3 is_stmt 0 view .LVU185
 616              	.LBE126:
 617              	.LBE125:
 618              		.loc 1 216 3 is_stmt 1 view .LVU186
 619              	.LBB127:
 620              	.LBI127:
 621              		.loc 4 386 20 view .LVU187
 622              	.LBB128:
 623              		.loc 4 388 23 view .LVU188
 624              		.loc 4 389 34 view .LVU189
 625              		.loc 4 395 3 view .LVU190
 626              		.loc 4 395 3 view .LVU191
 627              		.loc 4 395 3 view .LVU192
ARM GAS  C:\Users\DEVELO~1\AppData\Local\Temp\ccB976pz.s 			page 12


 628              		.loc 4 399 3 view .LVU193
 629              	.LBB129:
 630              	.LBI129:
 631              		.loc 5 864 27 view .LVU194
 632              		.loc 5 867 3 view .LVU195
 633              	.LBB130:
 634              	.LBI130:
 635              		.loc 3 491 27 view .LVU196
 636              	.LBB131:
 637              		.loc 3 493 3 view .LVU197
 638 000c 0023     		movs	r3, #0
 639              		.syntax unified
 640              	@ 493 "./ChibiOS/os/common/ext/ARM/CMSIS/Core/Include/cmsis_gcc.h" 1
 641 000e 83F31188 		MSR basepri, r3
 642              	@ 0 "" 2
 643              	.LVL35:
 644              		.loc 3 493 3 is_stmt 0 view .LVU198
 645              		.thumb
 646              		.syntax unified
 647              	.LBE131:
 648              	.LBE130:
 649              	.LBE129:
 650              	.LBE128:
 651              	.LBE127:
 652              		.loc 1 217 1 view .LVU199
 653 0012 08BD     		pop	{r3, pc}
 654              		.cfi_endproc
 655              	.LFE356:
 656              		.size	chMsgRelease, .-chMsgRelease
 657              		.text
 658              	.Letext0:
 659              		.file 8 "c:\\chibistudio\\tools\\gnu tools arm embedded\\11.3 2022.08\\arm-none-eabi\\include\\mac
 660              		.file 9 "c:\\chibistudio\\tools\\gnu tools arm embedded\\11.3 2022.08\\arm-none-eabi\\include\\sys
 661              		.file 10 "./ChibiOS/os/common/ports/ARM-common/include/chtypes.h"
 662              		.file 11 "./ChibiOS/os/rt/include/chearly.h"
 663              		.file 12 "./ChibiOS/os/rt/include/chobjects.h"
 664              		.file 13 "./ChibiOS/os/rt/include/chrfcu.h"
 665              		.file 14 "./ChibiOS/os/rt/include/chdebug.h"
 666              		.file 15 "./ChibiOS/os/rt/include/chtime.h"
 667              		.file 16 "./ChibiOS/os/rt/include/chtrace.h"
 668              		.file 17 "./ChibiOS/os/rt/include/chsem.h"
 669              		.file 18 "./ChibiOS/os/rt/include/chmtx.h"
 670              		.file 19 "./ChibiOS/os/rt/include/chschd.h"
 671              		.section	.debug_info,"",%progbits
 672              	.Ldebug_info0:
 673 0000 1B0F0000 		.4byte	0xf1b
 674 0004 0500     		.2byte	0x5
 675 0006 01       		.byte	0x1
 676 0007 04       		.byte	0x4
 677 0008 00000000 		.4byte	.Ldebug_abbrev0
 678 000c 2B       		.uleb128 0x2b
 679 000d 91020000 		.4byte	.LASF147
 680 0011 1D       		.byte	0x1d
 681 0012 DA010000 		.4byte	.LASF148
 682 0016 8B010000 		.4byte	.LASF149
 683 001a 87000000 		.4byte	.LLRL36
 684 001e 00000000 		.4byte	0
ARM GAS  C:\Users\DEVELO~1\AppData\Local\Temp\ccB976pz.s 			page 13


 685 0022 00000000 		.4byte	.Ldebug_line0
 686 0026 2C       		.uleb128 0x2c
 687 0027 04       		.byte	0x4
 688 0028 05       		.byte	0x5
 689 0029 696E7400 		.ascii	"int\000"
 690 002d 06       		.uleb128 0x6
 691 002e 04       		.byte	0x4
 692 002f 07       		.byte	0x7
 693 0030 42020000 		.4byte	.LASF0
 694 0034 06       		.uleb128 0x6
 695 0035 08       		.byte	0x8
 696 0036 05       		.byte	0x5
 697 0037 BB000000 		.4byte	.LASF1
 698 003b 06       		.uleb128 0x6
 699 003c 08       		.byte	0x8
 700 003d 04       		.byte	0x4
 701 003e FA050000 		.4byte	.LASF2
 702 0042 06       		.uleb128 0x6
 703 0043 01       		.byte	0x1
 704 0044 06       		.byte	0x6
 705 0045 C9000000 		.4byte	.LASF3
 706 0049 01       		.uleb128 0x1
 707 004a 1F000000 		.4byte	.LASF6
 708 004e 08       		.byte	0x8
 709 004f 2B       		.byte	0x2b
 710 0050 18       		.byte	0x18
 711 0051 55000000 		.4byte	0x55
 712 0055 06       		.uleb128 0x6
 713 0056 01       		.byte	0x1
 714 0057 08       		.byte	0x8
 715 0058 23050000 		.4byte	.LASF4
 716 005c 06       		.uleb128 0x6
 717 005d 02       		.byte	0x2
 718 005e 05       		.byte	0x5
 719 005f D7030000 		.4byte	.LASF5
 720 0063 01       		.uleb128 0x1
 721 0064 19060000 		.4byte	.LASF7
 722 0068 08       		.byte	0x8
 723 0069 39       		.byte	0x39
 724 006a 19       		.byte	0x19
 725 006b 6F000000 		.4byte	0x6f
 726 006f 06       		.uleb128 0x6
 727 0070 02       		.byte	0x2
 728 0071 07       		.byte	0x7
 729 0072 7A030000 		.4byte	.LASF8
 730 0076 01       		.uleb128 0x1
 731 0077 E1030000 		.4byte	.LASF9
 732 007b 08       		.byte	0x8
 733 007c 4D       		.byte	0x4d
 734 007d 18       		.byte	0x18
 735 007e 82000000 		.4byte	0x82
 736 0082 06       		.uleb128 0x6
 737 0083 04       		.byte	0x4
 738 0084 05       		.byte	0x5
 739 0085 46000000 		.4byte	.LASF10
 740 0089 01       		.uleb128 0x1
 741 008a F6010000 		.4byte	.LASF11
ARM GAS  C:\Users\DEVELO~1\AppData\Local\Temp\ccB976pz.s 			page 14


 742 008e 08       		.byte	0x8
 743 008f 4F       		.byte	0x4f
 744 0090 19       		.byte	0x19
 745 0091 95000000 		.4byte	0x95
 746 0095 06       		.uleb128 0x6
 747 0096 04       		.byte	0x4
 748 0097 07       		.byte	0x7
 749 0098 65020000 		.4byte	.LASF12
 750 009c 01       		.uleb128 0x1
 751 009d CC040000 		.4byte	.LASF13
 752 00a1 08       		.byte	0x8
 753 00a2 69       		.byte	0x69
 754 00a3 19       		.byte	0x19
 755 00a4 A8000000 		.4byte	0xa8
 756 00a8 06       		.uleb128 0x6
 757 00a9 08       		.byte	0x8
 758 00aa 07       		.byte	0x7
 759 00ab E3000000 		.4byte	.LASF14
 760 00af 01       		.uleb128 0x1
 761 00b0 F7060000 		.4byte	.LASF15
 762 00b4 09       		.byte	0x9
 763 00b5 18       		.byte	0x18
 764 00b6 13       		.byte	0x13
 765 00b7 49000000 		.4byte	0x49
 766 00bb 01       		.uleb128 0x1
 767 00bc 42010000 		.4byte	.LASF16
 768 00c0 09       		.byte	0x9
 769 00c1 24       		.byte	0x24
 770 00c2 14       		.byte	0x14
 771 00c3 63000000 		.4byte	0x63
 772 00c7 01       		.uleb128 0x1
 773 00c8 1B050000 		.4byte	.LASF17
 774 00cc 09       		.byte	0x9
 775 00cd 2C       		.byte	0x2c
 776 00ce 13       		.byte	0x13
 777 00cf 76000000 		.4byte	0x76
 778 00d3 01       		.uleb128 0x1
 779 00d4 D8050000 		.4byte	.LASF18
 780 00d8 09       		.byte	0x9
 781 00d9 30       		.byte	0x30
 782 00da 14       		.byte	0x14
 783 00db 89000000 		.4byte	0x89
 784 00df 01       		.uleb128 0x1
 785 00e0 80040000 		.4byte	.LASF19
 786 00e4 09       		.byte	0x9
 787 00e5 3C       		.byte	0x3c
 788 00e6 14       		.byte	0x14
 789 00e7 9C000000 		.4byte	0x9c
 790 00eb 24       		.uleb128 0x24
 791 00ec DF000000 		.4byte	0xdf
 792 00f0 01       		.uleb128 0x1
 793 00f1 73000000 		.4byte	.LASF20
 794 00f5 0A       		.byte	0xa
 795 00f6 48       		.byte	0x48
 796 00f7 1D       		.byte	0x1d
 797 00f8 DF000000 		.4byte	0xdf
 798 00fc 01       		.uleb128 0x1
ARM GAS  C:\Users\DEVELO~1\AppData\Local\Temp\ccB976pz.s 			page 15


 799 00fd 08010000 		.4byte	.LASF21
 800 0101 0B       		.byte	0xb
 801 0102 50       		.byte	0x50
 802 0103 19       		.byte	0x19
 803 0104 F0000000 		.4byte	0xf0
 804 0108 01       		.uleb128 0x1
 805 0109 AD030000 		.4byte	.LASF22
 806 010d 0B       		.byte	0xb
 807 010e 53       		.byte	0x53
 808 010f 19       		.byte	0x19
 809 0110 AF000000 		.4byte	0xaf
 810 0114 01       		.uleb128 0x1
 811 0115 1C010000 		.4byte	.LASF23
 812 0119 0B       		.byte	0xb
 813 011a 54       		.byte	0x54
 814 011b 19       		.byte	0x19
 815 011c AF000000 		.4byte	0xaf
 816 0120 01       		.uleb128 0x1
 817 0121 EB040000 		.4byte	.LASF24
 818 0125 0B       		.byte	0xb
 819 0126 55       		.byte	0x55
 820 0127 19       		.byte	0x19
 821 0128 AF000000 		.4byte	0xaf
 822 012c 01       		.uleb128 0x1
 823 012d FD040000 		.4byte	.LASF25
 824 0131 0B       		.byte	0xb
 825 0132 57       		.byte	0x57
 826 0133 19       		.byte	0x19
 827 0134 D3000000 		.4byte	0xd3
 828 0138 01       		.uleb128 0x1
 829 0139 9E030000 		.4byte	.LASF26
 830 013d 0B       		.byte	0xb
 831 013e 58       		.byte	0x58
 832 013f 19       		.byte	0x19
 833 0140 C7000000 		.4byte	0xc7
 834 0144 01       		.uleb128 0x1
 835 0145 CB030000 		.4byte	.LASF27
 836 0149 0B       		.byte	0xb
 837 014a 5A       		.byte	0x5a
 838 014b 19       		.byte	0x19
 839 014c D3000000 		.4byte	0xd3
 840 0150 01       		.uleb128 0x1
 841 0151 33020000 		.4byte	.LASF28
 842 0155 0B       		.byte	0xb
 843 0156 5C       		.byte	0x5c
 844 0157 19       		.byte	0x19
 845 0158 C7000000 		.4byte	0xc7
 846 015c 01       		.uleb128 0x1
 847 015d E1040000 		.4byte	.LASF29
 848 0161 0B       		.byte	0xb
 849 0162 80       		.byte	0x80
 850 0163 12       		.byte	0x12
 851 0164 2D000000 		.4byte	0x2d
 852 0168 01       		.uleb128 0x1
 853 0169 24060000 		.4byte	.LASF30
 854 016d 0B       		.byte	0xb
 855 016e 85       		.byte	0x85
ARM GAS  C:\Users\DEVELO~1\AppData\Local\Temp\ccB976pz.s 			page 16


 856 016f 1A       		.byte	0x1a
 857 0170 74010000 		.4byte	0x174
 858 0174 08       		.uleb128 0x8
 859 0175 8D030000 		.4byte	.LASF47
 860 0179 50       		.byte	0x50
 861 017a 0C       		.byte	0xc
 862 017b A9       		.byte	0xa9
 863 017c 08       		.byte	0x8
 864 017d 6B020000 		.4byte	0x26b
 865 0181 09       		.uleb128 0x9
 866 0182 68647200 		.ascii	"hdr\000"
 867 0186 0C       		.byte	0xc
 868 0187 BA       		.byte	0xba
 869 0188 05       		.byte	0x5
 870 0189 51070000 		.4byte	0x751
 871 018d 00       		.byte	0
 872 018e 09       		.uleb128 0x9
 873 018f 63747800 		.ascii	"ctx\000"
 874 0193 0C       		.byte	0xc
 875 0194 BE       		.byte	0xbe
 876 0195 21       		.byte	0x21
 877 0196 A2050000 		.4byte	0x5a2
 878 019a 0C       		.byte	0xc
 879 019b 02       		.uleb128 0x2
 880 019c F4050000 		.4byte	.LASF31
 881 01a0 0C       		.byte	0xc
 882 01a1 C2       		.byte	0xc2
 883 01a2 22       		.byte	0x22
 884 01a3 55080000 		.4byte	0x855
 885 01a7 10       		.byte	0x10
 886 01a8 02       		.uleb128 0x2
 887 01a9 06060000 		.4byte	.LASF32
 888 01ad 0C       		.byte	0xc
 889 01ae C8       		.byte	0xc8
 890 01af 22       		.byte	0x22
 891 01b0 5A080000 		.4byte	0x85a
 892 01b4 14       		.byte	0x14
 893 01b5 02       		.uleb128 0x2
 894 01b6 DD060000 		.4byte	.LASF33
 895 01ba 0C       		.byte	0xc
 896 01bb CD       		.byte	0xcd
 897 01bc 21       		.byte	0x21
 898 01bd 5A080000 		.4byte	0x85a
 899 01c1 18       		.byte	0x18
 900 01c2 02       		.uleb128 0x2
 901 01c3 02010000 		.4byte	.LASF34
 902 01c7 0C       		.byte	0xc
 903 01c8 D1       		.byte	0xd1
 904 01c9 21       		.byte	0x21
 905 01ca 14010000 		.4byte	0x114
 906 01ce 1C       		.byte	0x1c
 907 01cf 02       		.uleb128 0x2
 908 01d0 FF060000 		.4byte	.LASF35
 909 01d4 0C       		.byte	0xc
 910 01d5 D5       		.byte	0xd5
 911 01d6 21       		.byte	0x21
 912 01d7 08010000 		.4byte	0x108
ARM GAS  C:\Users\DEVELO~1\AppData\Local\Temp\ccB976pz.s 			page 17


 913 01db 1D       		.byte	0x1d
 914 01dc 02       		.uleb128 0x2
 915 01dd F3040000 		.4byte	.LASF36
 916 01e1 0C       		.byte	0xc
 917 01e2 DA       		.byte	0xda
 918 01e3 21       		.byte	0x21
 919 01e4 20010000 		.4byte	0x120
 920 01e8 1E       		.byte	0x1e
 921 01e9 02       		.uleb128 0x2
 922 01ea 46030000 		.4byte	.LASF37
 923 01ee 0C       		.byte	0xc
 924 01ef DE       		.byte	0xde
 925 01f0 22       		.byte	0x22
 926 01f1 58030000 		.4byte	0x358
 927 01f5 20       		.byte	0x20
 928 01f6 02       		.uleb128 0x2
 929 01f7 77020000 		.4byte	.LASF38
 930 01fb 0C       		.byte	0xc
 931 01fc E2       		.byte	0xe2
 932 01fd 21       		.byte	0x21
 933 01fe EF050000 		.4byte	0x5ef
 934 0202 24       		.byte	0x24
 935 0203 02       		.uleb128 0x2
 936 0204 6B000000 		.4byte	.LASF39
 937 0208 0C       		.byte	0xc
 938 0209 E8       		.byte	0xe8
 939 020a 21       		.byte	0x21
 940 020b 35070000 		.4byte	0x735
 941 020f 2C       		.byte	0x2c
 942 0210 02       		.uleb128 0x2
 943 0211 A9000000 		.4byte	.LASF40
 944 0215 0C       		.byte	0xc
 945 0216 EE       		.byte	0xee
 946 0217 22       		.byte	0x22
 947 0218 BA030000 		.4byte	0x3ba
 948 021c 30       		.byte	0x30
 949 021d 07       		.uleb128 0x7
 950 021e 7500     		.ascii	"u\000"
 951 0220 0C       		.byte	0xc
 952 0221 3F01     		.2byte	0x13f
 953 0223 21       		.byte	0x21
 954 0224 7E070000 		.4byte	0x77e
 955 0228 34       		.byte	0x34
 956 0229 03       		.uleb128 0x3
 957 022a 06020000 		.4byte	.LASF41
 958 022e 4401     		.2byte	0x144
 959 0230 21       		.byte	0x21
 960 0231 C3050000 		.4byte	0x5c3
 961 0235 38       		.byte	0x38
 962 0236 03       		.uleb128 0x3
 963 0237 39020000 		.4byte	.LASF42
 964 023b 4A01     		.2byte	0x14a
 965 023d 21       		.byte	0x21
 966 023e EF050000 		.4byte	0x5ef
 967 0242 3C       		.byte	0x3c
 968 0243 03       		.uleb128 0x3
 969 0244 A4030000 		.4byte	.LASF43
ARM GAS  C:\Users\DEVELO~1\AppData\Local\Temp\ccB976pz.s 			page 18


 970 0248 5001     		.2byte	0x150
 971 024a 21       		.byte	0x21
 972 024b 44010000 		.4byte	0x144
 973 024f 44       		.byte	0x44
 974 0250 03       		.uleb128 0x3
 975 0251 36070000 		.4byte	.LASF44
 976 0255 5701     		.2byte	0x157
 977 0257 22       		.byte	0x22
 978 0258 50080000 		.4byte	0x850
 979 025c 48       		.byte	0x48
 980 025d 03       		.uleb128 0x3
 981 025e 13040000 		.4byte	.LASF45
 982 0262 5B01     		.2byte	0x15b
 983 0264 21       		.byte	0x21
 984 0265 2C010000 		.4byte	0x12c
 985 0269 4C       		.byte	0x4c
 986 026a 00       		.byte	0
 987 026b 01       		.uleb128 0x1
 988 026c 78060000 		.4byte	.LASF46
 989 0270 0B       		.byte	0xb
 990 0271 8A       		.byte	0x8a
 991 0272 1F       		.byte	0x1f
 992 0273 77020000 		.4byte	0x277
 993 0277 2D       		.uleb128 0x2d
 994 0278 69060000 		.4byte	.LASF48
 995 027c F008     		.2byte	0x8f0
 996 027e 0C       		.byte	0xc
 997 027f 9701     		.2byte	0x197
 998 0281 08       		.byte	0x8
 999 0282 0A030000 		.4byte	0x30a
 1000 0286 03       		.uleb128 0x3
 1001 0287 E3060000 		.4byte	.LASF49
 1002 028b 9B01     		.2byte	0x19b
 1003 028d 21       		.byte	0x21
 1004 028e 88080000 		.4byte	0x888
 1005 0292 00       		.byte	0
 1006 0293 03       		.uleb128 0x3
 1007 0294 3A000000 		.4byte	.LASF50
 1008 0298 9F01     		.2byte	0x19f
 1009 029a 21       		.byte	0x21
 1010 029b F6060000 		.4byte	0x6f6
 1011 029f 10       		.byte	0x10
 1012 02a0 03       		.uleb128 0x3
 1013 02a1 86060000 		.4byte	.LASF51
 1014 02a5 A601     		.2byte	0x1a6
 1015 02a7 21       		.byte	0x21
 1016 02a8 1D070000 		.4byte	0x71d
 1017 02ac 30       		.byte	0x30
 1018 02ad 03       		.uleb128 0x3
 1019 02ae 62030000 		.4byte	.LASF52
 1020 02b2 AB01     		.2byte	0x1ab
 1021 02b4 21       		.byte	0x21
 1022 02b5 5C010000 		.4byte	0x15c
 1023 02b9 38       		.byte	0x38
 1024 02ba 03       		.uleb128 0x3
 1025 02bb 1A000000 		.4byte	.LASF53
 1026 02bf B101     		.2byte	0x1b1
ARM GAS  C:\Users\DEVELO~1\AppData\Local\Temp\ccB976pz.s 			page 19


 1027 02c1 21       		.byte	0x21
 1028 02c2 31030000 		.4byte	0x331
 1029 02c6 3C       		.byte	0x3c
 1030 02c7 03       		.uleb128 0x3
 1031 02c8 12060000 		.4byte	.LASF54
 1032 02cc B601     		.2byte	0x1b6
 1033 02ce 22       		.byte	0x22
 1034 02cf F3080000 		.4byte	0x8f3
 1035 02d3 40       		.byte	0x40
 1036 02d4 03       		.uleb128 0x3
 1037 02d5 3E070000 		.4byte	.LASF55
 1038 02d9 BA01     		.2byte	0x1ba
 1039 02db 21       		.byte	0x21
 1040 02dc 68010000 		.4byte	0x168
 1041 02e0 44       		.byte	0x44
 1042 02e1 03       		.uleb128 0x3
 1043 02e2 8B000000 		.4byte	.LASF56
 1044 02e6 BF01     		.2byte	0x1bf
 1045 02e8 21       		.byte	0x21
 1046 02e9 68010000 		.4byte	0x168
 1047 02ed 94       		.byte	0x94
 1048 02ee 07       		.uleb128 0x7
 1049 02ef 64626700 		.ascii	"dbg\000"
 1050 02f3 0C       		.byte	0xc
 1051 02f4 C401     		.2byte	0x1c4
 1052 02f6 21       		.byte	0x21
 1053 02f7 6E030000 		.4byte	0x36e
 1054 02fb E4       		.byte	0xe4
 1055 02fc 03       		.uleb128 0x3
 1056 02fd 0E070000 		.4byte	.LASF57
 1057 0301 C901     		.2byte	0x1c9
 1058 0303 21       		.byte	0x21
 1059 0304 10050000 		.4byte	0x510
 1060 0308 E8       		.byte	0xe8
 1061 0309 00       		.byte	0
 1062 030a 01       		.uleb128 0x1
 1063 030b 1C040000 		.4byte	.LASF58
 1064 030f 0D       		.byte	0xd
 1065 0310 3F       		.byte	0x3f
 1066 0311 12       		.byte	0x12
 1067 0312 D3000000 		.4byte	0xd3
 1068 0316 08       		.uleb128 0x8
 1069 0317 25010000 		.4byte	.LASF59
 1070 031b 04       		.byte	0x4
 1071 031c 0D       		.byte	0xd
 1072 031d 44       		.byte	0x44
 1073 031e 10       		.byte	0x10
 1074 031f 31030000 		.4byte	0x331
 1075 0323 02       		.uleb128 0x2
 1076 0324 01020000 		.4byte	.LASF60
 1077 0328 0D       		.byte	0xd
 1078 0329 48       		.byte	0x48
 1079 032a 21       		.byte	0x21
 1080 032b 0A030000 		.4byte	0x30a
 1081 032f 00       		.byte	0
 1082 0330 00       		.byte	0
 1083 0331 01       		.uleb128 0x1
ARM GAS  C:\Users\DEVELO~1\AppData\Local\Temp\ccB976pz.s 			page 20


 1084 0332 31050000 		.4byte	.LASF61
 1085 0336 0D       		.byte	0xd
 1086 0337 49       		.byte	0x49
 1087 0338 03       		.byte	0x3
 1088 0339 16030000 		.4byte	0x316
 1089 033d 08       		.uleb128 0x8
 1090 033e 05050000 		.4byte	.LASF62
 1091 0342 04       		.byte	0x4
 1092 0343 0E       		.byte	0xe
 1093 0344 3E       		.byte	0x3e
 1094 0345 10       		.byte	0x10
 1095 0346 58030000 		.4byte	0x358
 1096 034a 02       		.uleb128 0x2
 1097 034b 58060000 		.4byte	.LASF63
 1098 034f 0E       		.byte	0xe
 1099 0350 46       		.byte	0x46
 1100 0351 24       		.byte	0x24
 1101 0352 5D030000 		.4byte	0x35d
 1102 0356 00       		.byte	0
 1103 0357 00       		.byte	0
 1104 0358 04       		.uleb128 0x4
 1105 0359 69030000 		.4byte	0x369
 1106 035d 24       		.uleb128 0x24
 1107 035e 58030000 		.4byte	0x358
 1108 0362 06       		.uleb128 0x6
 1109 0363 01       		.byte	0x1
 1110 0364 08       		.byte	0x8
 1111 0365 0D060000 		.4byte	.LASF64
 1112 0369 0D       		.uleb128 0xd
 1113 036a 62030000 		.4byte	0x362
 1114 036e 01       		.uleb128 0x1
 1115 036f 56020000 		.4byte	.LASF65
 1116 0373 0E       		.byte	0xe
 1117 0374 51       		.byte	0x51
 1118 0375 03       		.byte	0x3
 1119 0376 3D030000 		.4byte	0x33d
 1120 037a 01       		.uleb128 0x1
 1121 037b 33060000 		.4byte	.LASF66
 1122 037f 0F       		.byte	0xf
 1123 0380 6D       		.byte	0x6d
 1124 0381 12       		.byte	0x12
 1125 0382 D3000000 		.4byte	0xd3
 1126 0386 01       		.uleb128 0x1
 1127 0387 25020000 		.4byte	.LASF67
 1128 038b 0F       		.byte	0xf
 1129 038c 79       		.byte	0x79
 1130 038d 12       		.byte	0x12
 1131 038e D3000000 		.4byte	0xd3
 1132 0392 0C       		.uleb128 0xc
 1133 0393 08       		.byte	0x8
 1134 0394 83       		.byte	0x83
 1135 0395 05       		.byte	0x5
 1136 0396 B5030000 		.4byte	0x3b5
 1137 039a 09       		.uleb128 0x9
 1138 039b 6E747000 		.ascii	"ntp\000"
 1139 039f 10       		.byte	0x10
 1140 03a0 87       		.byte	0x87
ARM GAS  C:\Users\DEVELO~1\AppData\Local\Temp\ccB976pz.s 			page 21


 1141 03a1 1E       		.byte	0x1e
 1142 03a2 B5030000 		.4byte	0x3b5
 1143 03a6 00       		.byte	0
 1144 03a7 02       		.uleb128 0x2
 1145 03a8 6B050000 		.4byte	.LASF68
 1146 03ac 10       		.byte	0x10
 1147 03ad 8B       		.byte	0x8b
 1148 03ae 1E       		.byte	0x1e
 1149 03af BA030000 		.4byte	0x3ba
 1150 03b3 04       		.byte	0x4
 1151 03b4 00       		.byte	0
 1152 03b5 04       		.uleb128 0x4
 1153 03b6 68010000 		.4byte	0x168
 1154 03ba 2E       		.uleb128 0x2e
 1155 03bb 04       		.byte	0x4
 1156 03bc 0C       		.uleb128 0xc
 1157 03bd 08       		.byte	0x8
 1158 03be 90       		.byte	0x90
 1159 03bf 05       		.byte	0x5
 1160 03c0 DE030000 		.4byte	0x3de
 1161 03c4 09       		.uleb128 0x9
 1162 03c5 747000   		.ascii	"tp\000"
 1163 03c8 10       		.byte	0x10
 1164 03c9 94       		.byte	0x94
 1165 03ca 1E       		.byte	0x1e
 1166 03cb B5030000 		.4byte	0x3b5
 1167 03cf 00       		.byte	0
 1168 03d0 09       		.uleb128 0x9
 1169 03d1 6D736700 		.ascii	"msg\000"
 1170 03d5 10       		.byte	0x10
 1171 03d6 98       		.byte	0x98
 1172 03d7 1D       		.byte	0x1d
 1173 03d8 38010000 		.4byte	0x138
 1174 03dc 04       		.byte	0x4
 1175 03dd 00       		.byte	0
 1176 03de 0C       		.uleb128 0xc
 1177 03df 04       		.byte	0x4
 1178 03e0 9D       		.byte	0x9d
 1179 03e1 05       		.byte	0x5
 1180 03e2 F4030000 		.4byte	0x3f4
 1181 03e6 02       		.uleb128 0x2
 1182 03e7 46030000 		.4byte	.LASF37
 1183 03eb 10       		.byte	0x10
 1184 03ec A1       		.byte	0xa1
 1185 03ed 1E       		.byte	0x1e
 1186 03ee 58030000 		.4byte	0x358
 1187 03f2 00       		.byte	0
 1188 03f3 00       		.byte	0
 1189 03f4 0C       		.uleb128 0xc
 1190 03f5 04       		.byte	0x4
 1191 03f6 A6       		.byte	0xa6
 1192 03f7 05       		.byte	0x5
 1193 03f8 0A040000 		.4byte	0x40a
 1194 03fc 02       		.uleb128 0x2
 1195 03fd 9E050000 		.4byte	.LASF69
 1196 0401 10       		.byte	0x10
 1197 0402 AA       		.byte	0xaa
ARM GAS  C:\Users\DEVELO~1\AppData\Local\Temp\ccB976pz.s 			page 22


 1198 0403 1E       		.byte	0x1e
 1199 0404 58030000 		.4byte	0x358
 1200 0408 00       		.byte	0
 1201 0409 00       		.byte	0
 1202 040a 0C       		.uleb128 0xc
 1203 040b 08       		.byte	0x8
 1204 040c AF       		.byte	0xaf
 1205 040d 05       		.byte	0x5
 1206 040e 2D040000 		.4byte	0x42d
 1207 0412 09       		.uleb128 0x9
 1208 0413 75703100 		.ascii	"up1\000"
 1209 0417 10       		.byte	0x10
 1210 0418 B3       		.byte	0xb3
 1211 0419 1E       		.byte	0x1e
 1212 041a BA030000 		.4byte	0x3ba
 1213 041e 00       		.byte	0
 1214 041f 09       		.uleb128 0x9
 1215 0420 75703200 		.ascii	"up2\000"
 1216 0424 10       		.byte	0x10
 1217 0425 B7       		.byte	0xb7
 1218 0426 1E       		.byte	0x1e
 1219 0427 BA030000 		.4byte	0x3ba
 1220 042b 04       		.byte	0x4
 1221 042c 00       		.byte	0
 1222 042d 25       		.uleb128 0x25
 1223 042e 08       		.byte	0x8
 1224 042f 10       		.byte	0x10
 1225 0430 7F       		.byte	0x7f
 1226 0431 6B040000 		.4byte	0x46b
 1227 0435 1A       		.uleb128 0x1a
 1228 0436 737700   		.ascii	"sw\000"
 1229 0439 8C       		.byte	0x8c
 1230 043a 92030000 		.4byte	0x392
 1231 043e 1A       		.uleb128 0x1a
 1232 043f 72647900 		.ascii	"rdy\000"
 1233 0443 99       		.byte	0x99
 1234 0444 BC030000 		.4byte	0x3bc
 1235 0448 1A       		.uleb128 0x1a
 1236 0449 69737200 		.ascii	"isr\000"
 1237 044d A2       		.byte	0xa2
 1238 044e DE030000 		.4byte	0x3de
 1239 0452 0E       		.uleb128 0xe
 1240 0453 66050000 		.4byte	.LASF70
 1241 0457 10       		.byte	0x10
 1242 0458 AB       		.byte	0xab
 1243 0459 07       		.byte	0x7
 1244 045a F4030000 		.4byte	0x3f4
 1245 045e 0E       		.uleb128 0xe
 1246 045f F8040000 		.4byte	.LASF71
 1247 0463 10       		.byte	0x10
 1248 0464 B8       		.byte	0xb8
 1249 0465 07       		.byte	0x7
 1250 0466 0A040000 		.4byte	0x40a
 1251 046a 00       		.byte	0
 1252 046b 0C       		.uleb128 0xc
 1253 046c 10       		.byte	0x10
 1254 046d 6C       		.byte	0x6c
ARM GAS  C:\Users\DEVELO~1\AppData\Local\Temp\ccB976pz.s 			page 23


 1255 046e 09       		.byte	0x9
 1256 046f B0040000 		.4byte	0x4b0
 1257 0473 1B       		.uleb128 0x1b
 1258 0474 41000000 		.4byte	.LASF72
 1259 0478 70       		.byte	0x70
 1260 0479 D3000000 		.4byte	0xd3
 1261 047d 03       		.byte	0x3
 1262 047e 00       		.byte	0
 1263 047f 1B       		.uleb128 0x1b
 1264 0480 02010000 		.4byte	.LASF34
 1265 0484 74       		.byte	0x74
 1266 0485 D3000000 		.4byte	0xd3
 1267 0489 05       		.byte	0x5
 1268 048a 03       		.byte	0x3
 1269 048b 1B       		.uleb128 0x1b
 1270 048c 01040000 		.4byte	.LASF73
 1271 0490 7A       		.byte	0x7a
 1272 0491 D3000000 		.4byte	0xd3
 1273 0495 18       		.byte	0x18
 1274 0496 08       		.byte	0x8
 1275 0497 02       		.uleb128 0x2
 1276 0498 AC040000 		.4byte	.LASF74
 1277 049c 10       		.byte	0x10
 1278 049d 7E       		.byte	0x7e
 1279 049e 19       		.byte	0x19
 1280 049f 7A030000 		.4byte	0x37a
 1281 04a3 04       		.byte	0x4
 1282 04a4 09       		.uleb128 0x9
 1283 04a5 7500     		.ascii	"u\000"
 1284 04a7 10       		.byte	0x10
 1285 04a8 B9       		.byte	0xb9
 1286 04a9 05       		.byte	0x5
 1287 04aa 2D040000 		.4byte	0x42d
 1288 04ae 08       		.byte	0x8
 1289 04af 00       		.byte	0
 1290 04b0 01       		.uleb128 0x1
 1291 04b1 4F000000 		.4byte	.LASF75
 1292 04b5 10       		.byte	0x10
 1293 04b6 BA       		.byte	0xba
 1294 04b7 03       		.byte	0x3
 1295 04b8 6B040000 		.4byte	0x46b
 1296 04bc 2F       		.uleb128 0x2f
 1297 04bd 0808     		.2byte	0x808
 1298 04bf 10       		.byte	0x10
 1299 04c0 C0       		.byte	0xc0
 1300 04c1 09       		.byte	0x9
 1301 04c2 FB040000 		.4byte	0x4fb
 1302 04c6 02       		.uleb128 0x2
 1303 04c7 6A040000 		.4byte	.LASF76
 1304 04cb 10       		.byte	0x10
 1305 04cc C4       		.byte	0xc4
 1306 04cd 19       		.byte	0x19
 1307 04ce BB000000 		.4byte	0xbb
 1308 04d2 00       		.byte	0
 1309 04d3 02       		.uleb128 0x2
 1310 04d4 75030000 		.4byte	.LASF77
 1311 04d8 10       		.byte	0x10
ARM GAS  C:\Users\DEVELO~1\AppData\Local\Temp\ccB976pz.s 			page 24


 1312 04d9 C8       		.byte	0xc8
 1313 04da 19       		.byte	0x19
 1314 04db BB000000 		.4byte	0xbb
 1315 04df 02       		.byte	0x2
 1316 04e0 09       		.uleb128 0x9
 1317 04e1 70747200 		.ascii	"ptr\000"
 1318 04e5 10       		.byte	0x10
 1319 04e6 CC       		.byte	0xcc
 1320 04e7 1A       		.byte	0x1a
 1321 04e8 FB040000 		.4byte	0x4fb
 1322 04ec 04       		.byte	0x4
 1323 04ed 02       		.uleb128 0x2
 1324 04ee 3D060000 		.4byte	.LASF78
 1325 04f2 10       		.byte	0x10
 1326 04f3 D0       		.byte	0xd0
 1327 04f4 19       		.byte	0x19
 1328 04f5 00050000 		.4byte	0x500
 1329 04f9 08       		.byte	0x8
 1330 04fa 00       		.byte	0
 1331 04fb 04       		.uleb128 0x4
 1332 04fc B0040000 		.4byte	0x4b0
 1333 0500 12       		.uleb128 0x12
 1334 0501 B0040000 		.4byte	0x4b0
 1335 0505 10050000 		.4byte	0x510
 1336 0509 13       		.uleb128 0x13
 1337 050a 2D000000 		.4byte	0x2d
 1338 050e 7F       		.byte	0x7f
 1339 050f 00       		.byte	0
 1340 0510 01       		.uleb128 0x1
 1341 0511 60010000 		.4byte	.LASF79
 1342 0515 10       		.byte	0x10
 1343 0516 D1       		.byte	0xd1
 1344 0517 03       		.byte	0x3
 1345 0518 BC040000 		.4byte	0x4bc
 1346 051c 14       		.uleb128 0x14
 1347 051d 2E000000 		.4byte	.LASF80
 1348 0521 24       		.byte	0x24
 1349 0522 05       		.byte	0x5
 1350 0523 3F02     		.2byte	0x23f
 1351 0525 08       		.byte	0x8
 1352 0526 A2050000 		.4byte	0x5a2
 1353 052a 07       		.uleb128 0x7
 1354 052b 723400   		.ascii	"r4\000"
 1355 052e 05       		.byte	0x5
 1356 052f 5202     		.2byte	0x252
 1357 0531 11       		.byte	0x11
 1358 0532 D3000000 		.4byte	0xd3
 1359 0536 00       		.byte	0
 1360 0537 07       		.uleb128 0x7
 1361 0538 723500   		.ascii	"r5\000"
 1362 053b 05       		.byte	0x5
 1363 053c 5302     		.2byte	0x253
 1364 053e 11       		.byte	0x11
 1365 053f D3000000 		.4byte	0xd3
 1366 0543 04       		.byte	0x4
 1367 0544 07       		.uleb128 0x7
 1368 0545 723600   		.ascii	"r6\000"
ARM GAS  C:\Users\DEVELO~1\AppData\Local\Temp\ccB976pz.s 			page 25


 1369 0548 05       		.byte	0x5
 1370 0549 5402     		.2byte	0x254
 1371 054b 11       		.byte	0x11
 1372 054c D3000000 		.4byte	0xd3
 1373 0550 08       		.byte	0x8
 1374 0551 07       		.uleb128 0x7
 1375 0552 723700   		.ascii	"r7\000"
 1376 0555 05       		.byte	0x5
 1377 0556 5502     		.2byte	0x255
 1378 0558 11       		.byte	0x11
 1379 0559 D3000000 		.4byte	0xd3
 1380 055d 0C       		.byte	0xc
 1381 055e 07       		.uleb128 0x7
 1382 055f 723800   		.ascii	"r8\000"
 1383 0562 05       		.byte	0x5
 1384 0563 5602     		.2byte	0x256
 1385 0565 11       		.byte	0x11
 1386 0566 D3000000 		.4byte	0xd3
 1387 056a 10       		.byte	0x10
 1388 056b 07       		.uleb128 0x7
 1389 056c 723900   		.ascii	"r9\000"
 1390 056f 05       		.byte	0x5
 1391 0570 5702     		.2byte	0x257
 1392 0572 11       		.byte	0x11
 1393 0573 D3000000 		.4byte	0xd3
 1394 0577 14       		.byte	0x14
 1395 0578 07       		.uleb128 0x7
 1396 0579 72313000 		.ascii	"r10\000"
 1397 057d 05       		.byte	0x5
 1398 057e 5802     		.2byte	0x258
 1399 0580 11       		.byte	0x11
 1400 0581 D3000000 		.4byte	0xd3
 1401 0585 18       		.byte	0x18
 1402 0586 07       		.uleb128 0x7
 1403 0587 72313100 		.ascii	"r11\000"
 1404 058b 05       		.byte	0x5
 1405 058c 5902     		.2byte	0x259
 1406 058e 11       		.byte	0x11
 1407 058f D3000000 		.4byte	0xd3
 1408 0593 1C       		.byte	0x1c
 1409 0594 07       		.uleb128 0x7
 1410 0595 6C7200   		.ascii	"lr\000"
 1411 0598 05       		.byte	0x5
 1412 0599 5A02     		.2byte	0x25a
 1413 059b 11       		.byte	0x11
 1414 059c D3000000 		.4byte	0xd3
 1415 05a0 20       		.byte	0x20
 1416 05a1 00       		.byte	0
 1417 05a2 14       		.uleb128 0x14
 1418 05a3 9F040000 		.4byte	.LASF81
 1419 05a7 04       		.byte	0x4
 1420 05a8 05       		.byte	0x5
 1421 05a9 6302     		.2byte	0x263
 1422 05ab 08       		.byte	0x8
 1423 05ac BE050000 		.4byte	0x5be
 1424 05b0 07       		.uleb128 0x7
 1425 05b1 737000   		.ascii	"sp\000"
ARM GAS  C:\Users\DEVELO~1\AppData\Local\Temp\ccB976pz.s 			page 26


 1426 05b4 05       		.byte	0x5
 1427 05b5 6402     		.2byte	0x264
 1428 05b7 1A       		.byte	0x1a
 1429 05b8 BE050000 		.4byte	0x5be
 1430 05bc 00       		.byte	0
 1431 05bd 00       		.byte	0
 1432 05be 04       		.uleb128 0x4
 1433 05bf 1C050000 		.4byte	0x51c
 1434 05c3 01       		.uleb128 0x1
 1435 05c4 60040000 		.4byte	.LASF82
 1436 05c8 06       		.byte	0x6
 1437 05c9 32       		.byte	0x32
 1438 05ca 18       		.byte	0x18
 1439 05cb CF050000 		.4byte	0x5cf
 1440 05cf 08       		.uleb128 0x8
 1441 05d0 B5030000 		.4byte	.LASF83
 1442 05d4 04       		.byte	0x4
 1443 05d5 06       		.byte	0x6
 1444 05d6 38       		.byte	0x38
 1445 05d7 08       		.byte	0x8
 1446 05d8 EA050000 		.4byte	0x5ea
 1447 05dc 02       		.uleb128 0x2
 1448 05dd A4000000 		.4byte	.LASF84
 1449 05e1 06       		.byte	0x6
 1450 05e2 39       		.byte	0x39
 1451 05e3 1A       		.byte	0x1a
 1452 05e4 EA050000 		.4byte	0x5ea
 1453 05e8 00       		.byte	0
 1454 05e9 00       		.byte	0
 1455 05ea 04       		.uleb128 0x4
 1456 05eb C3050000 		.4byte	0x5c3
 1457 05ef 01       		.uleb128 0x1
 1458 05f0 7E020000 		.4byte	.LASF85
 1459 05f4 06       		.byte	0x6
 1460 05f5 3F       		.byte	0x3f
 1461 05f6 19       		.byte	0x19
 1462 05f7 FB050000 		.4byte	0x5fb
 1463 05fb 08       		.uleb128 0x8
 1464 05fc 39010000 		.4byte	.LASF86
 1465 0600 08       		.byte	0x8
 1466 0601 06       		.byte	0x6
 1467 0602 45       		.byte	0x45
 1468 0603 08       		.byte	0x8
 1469 0604 23060000 		.4byte	0x623
 1470 0608 02       		.uleb128 0x2
 1471 0609 A4000000 		.4byte	.LASF84
 1472 060d 06       		.byte	0x6
 1473 060e 46       		.byte	0x46
 1474 060f 1A       		.byte	0x1a
 1475 0610 23060000 		.4byte	0x623
 1476 0614 00       		.byte	0
 1477 0615 02       		.uleb128 0x2
 1478 0616 29000000 		.4byte	.LASF87
 1479 061a 06       		.byte	0x6
 1480 061b 47       		.byte	0x47
 1481 061c 1A       		.byte	0x1a
 1482 061d 23060000 		.4byte	0x623
ARM GAS  C:\Users\DEVELO~1\AppData\Local\Temp\ccB976pz.s 			page 27


 1483 0621 04       		.byte	0x4
 1484 0622 00       		.byte	0
 1485 0623 04       		.uleb128 0x4
 1486 0624 EF050000 		.4byte	0x5ef
 1487 0628 01       		.uleb128 0x1
 1488 0629 44060000 		.4byte	.LASF88
 1489 062d 06       		.byte	0x6
 1490 062e 4E       		.byte	0x4e
 1491 062f 22       		.byte	0x22
 1492 0630 34060000 		.4byte	0x634
 1493 0634 08       		.uleb128 0x8
 1494 0635 8E060000 		.4byte	.LASF89
 1495 0639 0C       		.byte	0xc
 1496 063a 06       		.byte	0x6
 1497 063b 55       		.byte	0x55
 1498 063c 08       		.byte	0x8
 1499 063d 69060000 		.4byte	0x669
 1500 0641 02       		.uleb128 0x2
 1501 0642 A4000000 		.4byte	.LASF84
 1502 0646 06       		.byte	0x6
 1503 0647 56       		.byte	0x56
 1504 0648 1A       		.byte	0x1a
 1505 0649 69060000 		.4byte	0x669
 1506 064d 00       		.byte	0
 1507 064e 02       		.uleb128 0x2
 1508 064f 29000000 		.4byte	.LASF87
 1509 0653 06       		.byte	0x6
 1510 0654 57       		.byte	0x57
 1511 0655 1A       		.byte	0x1a
 1512 0656 69060000 		.4byte	0x669
 1513 065a 04       		.byte	0x4
 1514 065b 02       		.uleb128 0x2
 1515 065c B1040000 		.4byte	.LASF90
 1516 0660 06       		.byte	0x6
 1517 0661 58       		.byte	0x58
 1518 0662 19       		.byte	0x19
 1519 0663 2C010000 		.4byte	0x12c
 1520 0667 08       		.byte	0x8
 1521 0668 00       		.byte	0
 1522 0669 04       		.uleb128 0x4
 1523 066a 28060000 		.4byte	0x628
 1524 066e 01       		.uleb128 0x1
 1525 066f AB060000 		.4byte	.LASF91
 1526 0673 06       		.byte	0x6
 1527 0674 5F       		.byte	0x5f
 1528 0675 1E       		.byte	0x1e
 1529 0676 7A060000 		.4byte	0x67a
 1530 067a 08       		.uleb128 0x8
 1531 067b D5000000 		.4byte	.LASF92
 1532 067f 0C       		.byte	0xc
 1533 0680 06       		.byte	0x6
 1534 0681 64       		.byte	0x64
 1535 0682 08       		.byte	0x8
 1536 0683 AF060000 		.4byte	0x6af
 1537 0687 02       		.uleb128 0x2
 1538 0688 A4000000 		.4byte	.LASF84
 1539 068c 06       		.byte	0x6
ARM GAS  C:\Users\DEVELO~1\AppData\Local\Temp\ccB976pz.s 			page 28


 1540 068d 65       		.byte	0x65
 1541 068e 1A       		.byte	0x1a
 1542 068f AF060000 		.4byte	0x6af
 1543 0693 00       		.byte	0
 1544 0694 02       		.uleb128 0x2
 1545 0695 29000000 		.4byte	.LASF87
 1546 0699 06       		.byte	0x6
 1547 069a 66       		.byte	0x66
 1548 069b 1A       		.byte	0x1a
 1549 069c AF060000 		.4byte	0x6af
 1550 06a0 04       		.byte	0x4
 1551 06a1 02       		.uleb128 0x2
 1552 06a2 9E000000 		.4byte	.LASF93
 1553 06a6 06       		.byte	0x6
 1554 06a7 67       		.byte	0x67
 1555 06a8 19       		.byte	0x19
 1556 06a9 86030000 		.4byte	0x386
 1557 06ad 08       		.byte	0x8
 1558 06ae 00       		.byte	0
 1559 06af 04       		.uleb128 0x4
 1560 06b0 6E060000 		.4byte	0x66e
 1561 06b4 08       		.uleb128 0x8
 1562 06b5 3B040000 		.4byte	.LASF94
 1563 06b9 20       		.byte	0x20
 1564 06ba 0C       		.byte	0xc
 1565 06bb 64       		.byte	0x64
 1566 06bc 10       		.byte	0x10
 1567 06bd F6060000 		.4byte	0x6f6
 1568 06c1 02       		.uleb128 0x2
 1569 06c2 2D060000 		.4byte	.LASF95
 1570 06c6 0C       		.byte	0xc
 1571 06c7 68       		.byte	0x68
 1572 06c8 21       		.byte	0x21
 1573 06c9 6E060000 		.4byte	0x66e
 1574 06cd 00       		.byte	0
 1575 06ce 02       		.uleb128 0x2
 1576 06cf 5D050000 		.4byte	.LASF96
 1577 06d3 0C       		.byte	0xc
 1578 06d4 73       		.byte	0x73
 1579 06d5 21       		.byte	0x21
 1580 06d6 7A030000 		.4byte	0x37a
 1581 06da 0C       		.byte	0xc
 1582 06db 02       		.uleb128 0x2
 1583 06dc D7040000 		.4byte	.LASF97
 1584 06e0 0C       		.byte	0xc
 1585 06e1 7B       		.byte	0x7b
 1586 06e2 21       		.byte	0x21
 1587 06e3 86030000 		.4byte	0x386
 1588 06e7 10       		.byte	0x10
 1589 06e8 02       		.uleb128 0x2
 1590 06e9 09040000 		.4byte	.LASF98
 1591 06ed 0C       		.byte	0xc
 1592 06ee 81       		.byte	0x81
 1593 06ef 21       		.byte	0x21
 1594 06f0 EB000000 		.4byte	0xeb
 1595 06f4 18       		.byte	0x18
 1596 06f5 00       		.byte	0
ARM GAS  C:\Users\DEVELO~1\AppData\Local\Temp\ccB976pz.s 			page 29


 1597 06f6 01       		.uleb128 0x1
 1598 06f7 EB030000 		.4byte	.LASF99
 1599 06fb 0C       		.byte	0xc
 1600 06fc 83       		.byte	0x83
 1601 06fd 03       		.byte	0x3
 1602 06fe B4060000 		.4byte	0x6b4
 1603 0702 08       		.uleb128 0x8
 1604 0703 7F010000 		.4byte	.LASF100
 1605 0707 08       		.byte	0x8
 1606 0708 0C       		.byte	0xc
 1607 0709 88       		.byte	0x88
 1608 070a 10       		.byte	0x10
 1609 070b 1D070000 		.4byte	0x71d
 1610 070f 02       		.uleb128 0x2
 1611 0710 5C030000 		.4byte	.LASF101
 1612 0714 0C       		.byte	0xc
 1613 0715 8C       		.byte	0x8c
 1614 0716 21       		.byte	0x21
 1615 0717 EF050000 		.4byte	0x5ef
 1616 071b 00       		.byte	0
 1617 071c 00       		.byte	0
 1618 071d 01       		.uleb128 0x1
 1619 071e CD050000 		.4byte	.LASF102
 1620 0722 0C       		.byte	0xc
 1621 0723 8D       		.byte	0x8d
 1622 0724 03       		.byte	0x3
 1623 0725 02070000 		.4byte	0x702
 1624 0729 01       		.uleb128 0x1
 1625 072a 28040000 		.4byte	.LASF103
 1626 072e 0C       		.byte	0xc
 1627 072f 92       		.byte	0x92
 1628 0730 14       		.byte	0x14
 1629 0731 B5030000 		.4byte	0x3b5
 1630 0735 01       		.uleb128 0x1
 1631 0736 4B030000 		.4byte	.LASF104
 1632 073a 0C       		.byte	0xc
 1633 073b A1       		.byte	0xa1
 1634 073c 10       		.byte	0x10
 1635 073d 41070000 		.4byte	0x741
 1636 0741 04       		.uleb128 0x4
 1637 0742 46070000 		.4byte	0x746
 1638 0746 30       		.uleb128 0x30
 1639 0747 51070000 		.4byte	0x751
 1640 074b 0B       		.uleb128 0xb
 1641 074c B5030000 		.4byte	0x3b5
 1642 0750 00       		.byte	0
 1643 0751 25       		.uleb128 0x25
 1644 0752 0C       		.byte	0xc
 1645 0753 0C       		.byte	0xc
 1646 0754 AD       		.byte	0xad
 1647 0755 7E070000 		.4byte	0x77e
 1648 0759 0E       		.uleb128 0xe
 1649 075a 27070000 		.4byte	.LASF105
 1650 075e 0C       		.byte	0xc
 1651 075f B1       		.byte	0xb1
 1652 0760 21       		.byte	0x21
 1653 0761 C3050000 		.4byte	0x5c3
ARM GAS  C:\Users\DEVELO~1\AppData\Local\Temp\ccB976pz.s 			page 30


 1654 0765 0E       		.uleb128 0xe
 1655 0766 5C030000 		.4byte	.LASF101
 1656 076a 0C       		.byte	0xc
 1657 076b B5       		.byte	0xb5
 1658 076c 21       		.byte	0x21
 1659 076d EF050000 		.4byte	0x5ef
 1660 0771 0E       		.uleb128 0xe
 1661 0772 62060000 		.4byte	.LASF106
 1662 0776 0C       		.byte	0xc
 1663 0777 B9       		.byte	0xb9
 1664 0778 21       		.byte	0x21
 1665 0779 28060000 		.4byte	0x628
 1666 077d 00       		.byte	0
 1667 077e 31       		.uleb128 0x31
 1668 077f 04       		.byte	0x4
 1669 0780 0C       		.byte	0xc
 1670 0781 0201     		.2byte	0x102
 1671 0783 03       		.byte	0x3
 1672 0784 E9070000 		.4byte	0x7e9
 1673 0788 0A       		.uleb128 0xa
 1674 0789 13000000 		.4byte	.LASF107
 1675 078d 0901     		.2byte	0x109
 1676 078f 21       		.byte	0x21
 1677 0790 38010000 		.4byte	0x138
 1678 0794 0A       		.uleb128 0xa
 1679 0795 82000000 		.4byte	.LASF108
 1680 0799 1001     		.2byte	0x110
 1681 079b 21       		.byte	0x21
 1682 079c 38010000 		.4byte	0x138
 1683 07a0 0A       		.uleb128 0xa
 1684 07a1 6B050000 		.4byte	.LASF68
 1685 07a5 1701     		.2byte	0x117
 1686 07a7 22       		.byte	0x22
 1687 07a8 BA030000 		.4byte	0x3ba
 1688 07ac 0A       		.uleb128 0xa
 1689 07ad 0D000000 		.4byte	.LASF109
 1690 07b1 1E01     		.2byte	0x11e
 1691 07b3 22       		.byte	0x22
 1692 07b4 E9070000 		.4byte	0x7e9
 1693 07b8 0A       		.uleb128 0xa
 1694 07b9 96000000 		.4byte	.LASF110
 1695 07bd 2301     		.2byte	0x123
 1696 07bf 21       		.byte	0x21
 1697 07c0 38010000 		.4byte	0x138
 1698 07c4 0A       		.uleb128 0xa
 1699 07c5 4F020000 		.4byte	.LASF111
 1700 07c9 2C01     		.2byte	0x12c
 1701 07cb 22       		.byte	0x22
 1702 07cc 16080000 		.4byte	0x816
 1703 07d0 0A       		.uleb128 0xa
 1704 07d1 E1050000 		.4byte	.LASF112
 1705 07d5 3501     		.2byte	0x135
 1706 07d7 22       		.byte	0x22
 1707 07d8 50080000 		.4byte	0x850
 1708 07dc 0A       		.uleb128 0xa
 1709 07dd 72050000 		.4byte	.LASF113
 1710 07e1 3D01     		.2byte	0x13d
ARM GAS  C:\Users\DEVELO~1\AppData\Local\Temp\ccB976pz.s 			page 31


 1711 07e3 21       		.byte	0x21
 1712 07e4 44010000 		.4byte	0x144
 1713 07e8 00       		.byte	0
 1714 07e9 04       		.uleb128 0x4
 1715 07ea 29070000 		.4byte	0x729
 1716 07ee 08       		.uleb128 0x8
 1717 07ef B2050000 		.4byte	.LASF114
 1718 07f3 0C       		.byte	0xc
 1719 07f4 11       		.byte	0x11
 1720 07f5 34       		.byte	0x34
 1721 07f6 10       		.byte	0x10
 1722 07f7 16080000 		.4byte	0x816
 1723 07fb 02       		.uleb128 0x2
 1724 07fc 5C030000 		.4byte	.LASF101
 1725 0800 11       		.byte	0x11
 1726 0801 35       		.byte	0x35
 1727 0802 19       		.byte	0x19
 1728 0803 EF050000 		.4byte	0x5ef
 1729 0807 00       		.byte	0
 1730 0808 09       		.uleb128 0x9
 1731 0809 636E7400 		.ascii	"cnt\000"
 1732 080d 11       		.byte	0x11
 1733 080e 37       		.byte	0x37
 1734 080f 19       		.byte	0x19
 1735 0810 50010000 		.4byte	0x150
 1736 0814 08       		.byte	0x8
 1737 0815 00       		.byte	0
 1738 0816 04       		.uleb128 0x4
 1739 0817 EE070000 		.4byte	0x7ee
 1740 081b 08       		.uleb128 0x8
 1741 081c 05070000 		.4byte	.LASF115
 1742 0820 10       		.byte	0x10
 1743 0821 12       		.byte	0x12
 1744 0822 39       		.byte	0x39
 1745 0823 08       		.byte	0x8
 1746 0824 50080000 		.4byte	0x850
 1747 0828 02       		.uleb128 0x2
 1748 0829 5C030000 		.4byte	.LASF101
 1749 082d 12       		.byte	0x12
 1750 082e 3A       		.byte	0x3a
 1751 082f 19       		.byte	0x19
 1752 0830 EF050000 		.4byte	0x5ef
 1753 0834 00       		.byte	0
 1754 0835 02       		.uleb128 0x2
 1755 0836 F4050000 		.4byte	.LASF31
 1756 083a 12       		.byte	0x12
 1757 083b 3C       		.byte	0x3c
 1758 083c 1A       		.byte	0x1a
 1759 083d B5030000 		.4byte	0x3b5
 1760 0841 08       		.byte	0x8
 1761 0842 02       		.uleb128 0x2
 1762 0843 A4000000 		.4byte	.LASF84
 1763 0847 12       		.byte	0x12
 1764 0848 3E       		.byte	0x3e
 1765 0849 1A       		.byte	0x1a
 1766 084a 11090000 		.4byte	0x911
 1767 084e 0C       		.byte	0xc
ARM GAS  C:\Users\DEVELO~1\AppData\Local\Temp\ccB976pz.s 			page 32


 1768 084f 00       		.byte	0
 1769 0850 04       		.uleb128 0x4
 1770 0851 1B080000 		.4byte	0x81b
 1771 0855 04       		.uleb128 0x4
 1772 0856 6B020000 		.4byte	0x26b
 1773 085a 04       		.uleb128 0x4
 1774 085b FC000000 		.4byte	0xfc
 1775 085f 14       		.uleb128 0x14
 1776 0860 BD030000 		.4byte	.LASF116
 1777 0864 10       		.byte	0x10
 1778 0865 0C       		.byte	0xc
 1779 0866 6C01     		.2byte	0x16c
 1780 0868 10       		.byte	0x10
 1781 0869 88080000 		.4byte	0x888
 1782 086d 03       		.uleb128 0x3
 1783 086e 62060000 		.4byte	.LASF106
 1784 0872 7101     		.2byte	0x171
 1785 0874 21       		.byte	0x21
 1786 0875 28060000 		.4byte	0x628
 1787 0879 00       		.byte	0
 1788 087a 03       		.uleb128 0x3
 1789 087b C4040000 		.4byte	.LASF117
 1790 087f 7501     		.2byte	0x175
 1791 0881 22       		.byte	0x22
 1792 0882 B5030000 		.4byte	0x3b5
 1793 0886 0C       		.byte	0xc
 1794 0887 00       		.byte	0
 1795 0888 26       		.uleb128 0x26
 1796 0889 00000000 		.4byte	.LASF118
 1797 088d 7601     		.2byte	0x176
 1798 088f 5F080000 		.4byte	0x85f
 1799 0893 14       		.uleb128 0x14
 1800 0894 89040000 		.4byte	.LASF119
 1801 0898 14       		.byte	0x14
 1802 0899 0C       		.byte	0xc
 1803 089a 7B01     		.2byte	0x17b
 1804 089c 10       		.byte	0x10
 1805 089d E3080000 		.4byte	0x8e3
 1806 08a1 03       		.uleb128 0x3
 1807 08a2 46030000 		.4byte	.LASF37
 1808 08a6 7F01     		.2byte	0x17f
 1809 08a8 22       		.byte	0x22
 1810 08a9 58030000 		.4byte	0x358
 1811 08ad 00       		.byte	0
 1812 08ae 03       		.uleb128 0x3
 1813 08af 74040000 		.4byte	.LASF120
 1814 08b3 8301     		.2byte	0x183
 1815 08b5 22       		.byte	0x22
 1816 08b6 5A080000 		.4byte	0x85a
 1817 08ba 04       		.byte	0x4
 1818 08bb 03       		.uleb128 0x3
 1819 08bc B0000000 		.4byte	.LASF121
 1820 08c0 8701     		.2byte	0x187
 1821 08c2 22       		.byte	0x22
 1822 08c3 5A080000 		.4byte	0x85a
 1823 08c7 08       		.byte	0x8
 1824 08c8 03       		.uleb128 0x3
ARM GAS  C:\Users\DEVELO~1\AppData\Local\Temp\ccB976pz.s 			page 33


 1825 08c9 0E020000 		.4byte	.LASF122
 1826 08cd 8C01     		.2byte	0x18c
 1827 08cf 22       		.byte	0x22
 1828 08d0 5A080000 		.4byte	0x85a
 1829 08d4 0C       		.byte	0xc
 1830 08d5 03       		.uleb128 0x3
 1831 08d6 B6040000 		.4byte	.LASF123
 1832 08da 9001     		.2byte	0x190
 1833 08dc 22       		.byte	0x22
 1834 08dd 5A080000 		.4byte	0x85a
 1835 08e1 10       		.byte	0x10
 1836 08e2 00       		.byte	0
 1837 08e3 26       		.uleb128 0x26
 1838 08e4 C8060000 		.4byte	.LASF124
 1839 08e8 9201     		.2byte	0x192
 1840 08ea 93080000 		.4byte	0x893
 1841 08ee 0D       		.uleb128 0xd
 1842 08ef E3080000 		.4byte	0x8e3
 1843 08f3 04       		.uleb128 0x4
 1844 08f4 EE080000 		.4byte	0x8ee
 1845 08f8 32       		.uleb128 0x32
 1846 08f9 63683000 		.ascii	"ch0\000"
 1847 08fd 04       		.byte	0x4
 1848 08fe 1F01     		.2byte	0x11f
 1849 0900 16       		.byte	0x16
 1850 0901 6B020000 		.4byte	0x26b
 1851 0905 01       		.uleb128 0x1
 1852 0906 1D020000 		.4byte	.LASF125
 1853 090a 12       		.byte	0x12
 1854 090b 34       		.byte	0x34
 1855 090c 19       		.byte	0x19
 1856 090d 1B080000 		.4byte	0x81b
 1857 0911 04       		.uleb128 0x4
 1858 0912 05090000 		.4byte	0x905
 1859 0916 06       		.uleb128 0x6
 1860 0917 01       		.byte	0x1
 1861 0918 02       		.byte	0x2
 1862 0919 15050000 		.4byte	.LASF126
 1863 091d 27       		.uleb128 0x27
 1864 091e BB060000 		.4byte	.LASF127
 1865 0922 93       		.byte	0x93
 1866 0923 32090000 		.4byte	0x932
 1867 0927 0B       		.uleb128 0xb
 1868 0928 B5030000 		.4byte	0x3b5
 1869 092c 0B       		.uleb128 0xb
 1870 092d 38010000 		.4byte	0x138
 1871 0931 00       		.byte	0
 1872 0932 28       		.uleb128 0x28
 1873 0933 48050000 		.4byte	.LASF129
 1874 0937 92       		.byte	0x92
 1875 0938 09       		.byte	0x9
 1876 0939 38010000 		.4byte	0x138
 1877 093d 4C090000 		.4byte	0x94c
 1878 0941 0B       		.uleb128 0xb
 1879 0942 14010000 		.4byte	0x114
 1880 0946 0B       		.uleb128 0xb
 1881 0947 86030000 		.4byte	0x386
ARM GAS  C:\Users\DEVELO~1\AppData\Local\Temp\ccB976pz.s 			page 34


 1882 094b 00       		.byte	0
 1883 094c 27       		.uleb128 0x27
 1884 094d BF050000 		.4byte	.LASF128
 1885 0951 91       		.byte	0x91
 1886 0952 5C090000 		.4byte	0x95c
 1887 0956 0B       		.uleb128 0xb
 1888 0957 14010000 		.4byte	0x114
 1889 095b 00       		.byte	0
 1890 095c 28       		.uleb128 0x28
 1891 095d E8050000 		.4byte	.LASF130
 1892 0961 90       		.byte	0x90
 1893 0962 0D       		.byte	0xd
 1894 0963 B5030000 		.4byte	0x3b5
 1895 0967 71090000 		.4byte	0x971
 1896 096b 0B       		.uleb128 0xb
 1897 096c B5030000 		.4byte	0x3b5
 1898 0970 00       		.byte	0
 1899 0971 33       		.uleb128 0x33
 1900 0972 A5050000 		.4byte	.LASF150
 1901 0976 01       		.byte	0x1
 1902 0977 D3       		.byte	0xd3
 1903 0978 06       		.byte	0x6
 1904 0979 00000000 		.4byte	.LFB356
 1905 097d 14000000 		.4byte	.LFE356-.LFB356
 1906 0981 01       		.uleb128 0x1
 1907 0982 9C       		.byte	0x9c
 1908 0983 960A0000 		.4byte	0xa96
 1909 0987 15       		.uleb128 0x15
 1910 0988 747000   		.ascii	"tp\000"
 1911 098b D3       		.byte	0xd3
 1912 098c 1D       		.byte	0x1d
 1913 098d B5030000 		.4byte	0x3b5
 1914 0991 10000000 		.4byte	.LLST29
 1915 0995 0C000000 		.4byte	.LVUS29
 1916 0999 15       		.uleb128 0x15
 1917 099a 6D736700 		.ascii	"msg\000"
 1918 099e D3       		.byte	0xd3
 1919 099f 27       		.byte	0x27
 1920 09a0 38010000 		.4byte	0x138
 1921 09a4 27000000 		.4byte	.LLST30
 1922 09a8 23000000 		.4byte	.LVUS30
 1923 09ac 1C       		.uleb128 0x1c
 1924 09ad 8B050000 		.4byte	.LASF137
 1925 09b1 A60A0000 		.4byte	0xaa6
 1926 09b5 0F       		.uleb128 0xf
 1927 09b6 A00E0000 		.4byte	0xea0
 1928 09ba 00000000 		.4byte	.LBI117
 1929 09be 02       		.byte	.LVU167
 1930 09bf 7B000000 		.4byte	.LLRL31
 1931 09c3 D5       		.byte	0xd5
 1932 09c4 03       		.byte	0x3
 1933 09c5 FB090000 		.4byte	0x9fb
 1934 09c9 16       		.uleb128 0x16
 1935 09ca FD0E0000 		.4byte	0xefd
 1936 09ce 00000000 		.4byte	.LBI118
 1937 09d2 04       		.byte	.LVU169
 1938 09d3 7B000000 		.4byte	.LLRL31
ARM GAS  C:\Users\DEVELO~1\AppData\Local\Temp\ccB976pz.s 			page 35


 1939 09d7 04       		.byte	0x4
 1940 09d8 7601     		.2byte	0x176
 1941 09da 16       		.uleb128 0x16
 1942 09db 060F0000 		.4byte	0xf06
 1943 09df 00000000 		.4byte	.LBI119
 1944 09e3 06       		.byte	.LVU171
 1945 09e4 7B000000 		.4byte	.LLRL31
 1946 09e8 05       		.byte	0x5
 1947 09e9 5003     		.2byte	0x350
 1948 09eb 05       		.uleb128 0x5
 1949 09ec 100F0000 		.4byte	0xf10
 1950 09f0 3C000000 		.4byte	.LLST32
 1951 09f4 3A000000 		.4byte	.LVUS32
 1952 09f8 00       		.byte	0
 1953 09f9 00       		.byte	0
 1954 09fa 00       		.byte	0
 1955 09fb 10       		.uleb128 0x10
 1956 09fc 280E0000 		.4byte	0xe28
 1957 0a00 08000000 		.4byte	.LBI125
 1958 0a04 07       		.byte	.LVU182
 1959 0a05 08000000 		.4byte	.LBB125
 1960 0a09 04000000 		.4byte	.LBE125-.LBB125
 1961 0a0d D7       		.byte	0xd7
 1962 0a0e 03       		.byte	0x3
 1963 0a0f 460A0000 		.4byte	0xa46
 1964 0a13 05       		.uleb128 0x5
 1965 0a14 3F0E0000 		.4byte	0xe3f
 1966 0a18 4B000000 		.4byte	.LLST33
 1967 0a1c 47000000 		.4byte	.LVUS33
 1968 0a20 05       		.uleb128 0x5
 1969 0a21 350E0000 		.4byte	0xe35
 1970 0a25 62000000 		.4byte	.LLST34
 1971 0a29 5E000000 		.4byte	.LVUS34
 1972 0a2d 1D       		.uleb128 0x1d
 1973 0a2e 0C000000 		.4byte	.LVL34
 1974 0a32 1D090000 		.4byte	0x91d
 1975 0a36 11       		.uleb128 0x11
 1976 0a37 01       		.uleb128 0x1
 1977 0a38 50       		.byte	0x50
 1978 0a39 03       		.uleb128 0x3
 1979 0a3a A3       		.byte	0xa3
 1980 0a3b 01       		.uleb128 0x1
 1981 0a3c 50       		.byte	0x50
 1982 0a3d 11       		.uleb128 0x11
 1983 0a3e 01       		.uleb128 0x1
 1984 0a3f 51       		.byte	0x51
 1985 0a40 03       		.uleb128 0x3
 1986 0a41 A3       		.byte	0xa3
 1987 0a42 01       		.uleb128 0x1
 1988 0a43 51       		.byte	0x51
 1989 0a44 00       		.byte	0
 1990 0a45 00       		.byte	0
 1991 0a46 34       		.uleb128 0x34
 1992 0a47 750E0000 		.4byte	0xe75
 1993 0a4b 0C000000 		.4byte	.LBI127
 1994 0a4f 02       		.byte	.LVU187
 1995 0a50 0C000000 		.4byte	.LBB127
ARM GAS  C:\Users\DEVELO~1\AppData\Local\Temp\ccB976pz.s 			page 36


 1996 0a54 06000000 		.4byte	.LBE127-.LBB127
 1997 0a58 01       		.byte	0x1
 1998 0a59 D8       		.byte	0xd8
 1999 0a5a 03       		.byte	0x3
 2000 0a5b 17       		.uleb128 0x17
 2001 0a5c F40E0000 		.4byte	0xef4
 2002 0a60 0C000000 		.4byte	.LBI129
 2003 0a64 09       		.byte	.LVU194
 2004 0a65 0C000000 		.4byte	.LBB129
 2005 0a69 06000000 		.4byte	.LBE129-.LBB129
 2006 0a6d 04       		.byte	0x4
 2007 0a6e 8F01     		.2byte	0x18f
 2008 0a70 17       		.uleb128 0x17
 2009 0a71 060F0000 		.4byte	0xf06
 2010 0a75 0C000000 		.4byte	.LBI130
 2011 0a79 0B       		.byte	.LVU196
 2012 0a7a 0C000000 		.4byte	.LBB130
 2013 0a7e 06000000 		.4byte	.LBE130-.LBB130
 2014 0a82 05       		.byte	0x5
 2015 0a83 6303     		.2byte	0x363
 2016 0a85 05       		.uleb128 0x5
 2017 0a86 100F0000 		.4byte	0xf10
 2018 0a8a 77000000 		.4byte	.LLST35
 2019 0a8e 75000000 		.4byte	.LVUS35
 2020 0a92 00       		.byte	0
 2021 0a93 00       		.byte	0
 2022 0a94 00       		.byte	0
 2023 0a95 00       		.byte	0
 2024 0a96 12       		.uleb128 0x12
 2025 0a97 69030000 		.4byte	0x369
 2026 0a9b A60A0000 		.4byte	0xaa6
 2027 0a9f 13       		.uleb128 0x13
 2028 0aa0 2D000000 		.4byte	0x2d
 2029 0aa4 0C       		.byte	0xc
 2030 0aa5 00       		.byte	0
 2031 0aa6 0D       		.uleb128 0xd
 2032 0aa7 960A0000 		.4byte	0xa96
 2033 0aab 18       		.uleb128 0x18
 2034 0aac A0060000 		.4byte	.LASF132
 2035 0ab0 BD       		.byte	0xbd
 2036 0ab1 0B       		.byte	0xb
 2037 0ab2 B5030000 		.4byte	0x3b5
 2038 0ab6 00000000 		.4byte	.LFB355
 2039 0aba 28000000 		.4byte	.LFE355-.LFB355
 2040 0abe 01       		.uleb128 0x1
 2041 0abf 9C       		.byte	0x9c
 2042 0ac0 570B0000 		.4byte	0xb57
 2043 0ac4 19       		.uleb128 0x19
 2044 0ac5 97030000 		.4byte	.LASF131
 2045 0ac9 BE       		.byte	0xbe
 2046 0aca B5030000 		.4byte	0x3b5
 2047 0ace 83000000 		.4byte	.LLST23
 2048 0ad2 81000000 		.4byte	.LVUS23
 2049 0ad6 35       		.uleb128 0x35
 2050 0ad7 747000   		.ascii	"tp\000"
 2051 0ada 01       		.byte	0x1
 2052 0adb BF       		.byte	0xbf
ARM GAS  C:\Users\DEVELO~1\AppData\Local\Temp\ccB976pz.s 			page 37


 2053 0adc 0D       		.byte	0xd
 2054 0add B5030000 		.4byte	0x3b5
 2055 0ae1 92000000 		.4byte	.LLST24
 2056 0ae5 8C000000 		.4byte	.LVUS24
 2057 0ae9 36       		.uleb128 0x36
 2058 0aea 670E0000 		.4byte	0xe67
 2059 0aee 00000000 		.4byte	.LBI109
 2060 0af2 02       		.byte	.LVU137
 2061 0af3 00000000 		.4byte	.LBB109
 2062 0af7 04000000 		.4byte	.LBE109-.LBB109
 2063 0afb 01       		.byte	0x1
 2064 0afc BE       		.byte	0xbe
 2065 0afd 16       		.byte	0x16
 2066 0afe 10       		.uleb128 0x10
 2067 0aff 4B0E0000 		.4byte	0xe4b
 2068 0b03 04000000 		.4byte	.LBI111
 2069 0b07 03       		.byte	.LVU143
 2070 0b08 04000000 		.4byte	.LBB111
 2071 0b0c 06000000 		.4byte	.LBE111-.LBB111
 2072 0b10 C1       		.byte	0xc1
 2073 0b11 07       		.byte	0x7
 2074 0b12 240B0000 		.4byte	0xb24
 2075 0b16 05       		.uleb128 0x5
 2076 0b17 5C0E0000 		.4byte	0xe5c
 2077 0b1b AB000000 		.4byte	.LLST25
 2078 0b1f A9000000 		.4byte	.LVUS25
 2079 0b23 00       		.byte	0
 2080 0b24 37       		.uleb128 0x37
 2081 0b25 A90E0000 		.4byte	0xea9
 2082 0b29 0E000000 		.4byte	.LBI113
 2083 0b2d 01       		.byte	.LVU150
 2084 0b2e 6F000000 		.4byte	.LLRL26
 2085 0b32 01       		.byte	0x1
 2086 0b33 C2       		.byte	0xc2
 2087 0b34 0A       		.byte	0xa
 2088 0b35 05       		.uleb128 0x5
 2089 0b36 BB0E0000 		.4byte	0xebb
 2090 0b3a B6000000 		.4byte	.LLST27
 2091 0b3e B4000000 		.4byte	.LVUS27
 2092 0b42 1E       		.uleb128 0x1e
 2093 0b43 6F000000 		.4byte	.LLRL26
 2094 0b47 1F       		.uleb128 0x1f
 2095 0b48 C60E0000 		.4byte	0xec6
 2096 0b4c C1000000 		.4byte	.LLST28
 2097 0b50 BF000000 		.4byte	.LVUS28
 2098 0b54 00       		.byte	0
 2099 0b55 00       		.byte	0
 2100 0b56 00       		.byte	0
 2101 0b57 18       		.uleb128 0x18
 2102 0b58 79050000 		.4byte	.LASF133
 2103 0b5c 9B       		.byte	0x9b
 2104 0b5d 0B       		.byte	0xb
 2105 0b5e B5030000 		.4byte	0x3b5
 2106 0b62 00000000 		.4byte	.LFB354
 2107 0b66 34000000 		.4byte	.LFE354-.LFB354
 2108 0b6a 01       		.uleb128 0x1
 2109 0b6b 9C       		.byte	0x9c
ARM GAS  C:\Users\DEVELO~1\AppData\Local\Temp\ccB976pz.s 			page 38


 2110 0b6c 190C0000 		.4byte	0xc19
 2111 0b70 38       		.uleb128 0x38
 2112 0b71 89020000 		.4byte	.LASF134
 2113 0b75 01       		.byte	0x1
 2114 0b76 9B       		.byte	0x9b
 2115 0b77 2B       		.byte	0x2b
 2116 0b78 86030000 		.4byte	0x386
 2117 0b7c D4000000 		.4byte	.LLST16
 2118 0b80 CA000000 		.4byte	.LVUS16
 2119 0b84 19       		.uleb128 0x19
 2120 0b85 97030000 		.4byte	.LASF131
 2121 0b89 9C       		.byte	0x9c
 2122 0b8a B5030000 		.4byte	0x3b5
 2123 0b8e FB000000 		.4byte	.LLST17
 2124 0b92 F9000000 		.4byte	.LVUS17
 2125 0b96 29       		.uleb128 0x29
 2126 0b97 747000   		.ascii	"tp\000"
 2127 0b9a 9D       		.byte	0x9d
 2128 0b9b B5030000 		.4byte	0x3b5
 2129 0b9f 20       		.uleb128 0x20
 2130 0ba0 670E0000 		.4byte	0xe67
 2131 0ba4 00000000 		.4byte	.LBI95
 2132 0ba8 02       		.byte	.LVU96
 2133 0ba9 51000000 		.4byte	.LLRL18
 2134 0bad 9C       		.byte	0x9c
 2135 0bae 10       		.uleb128 0x10
 2136 0baf 4B0E0000 		.4byte	0xe4b
 2137 0bb3 08000000 		.4byte	.LBI101
 2138 0bb7 04       		.byte	.LVU106
 2139 0bb8 08000000 		.4byte	.LBB101
 2140 0bbc 06000000 		.4byte	.LBE101-.LBB101
 2141 0bc0 A1       		.byte	0xa1
 2142 0bc1 08       		.byte	0x8
 2143 0bc2 D40B0000 		.4byte	0xbd4
 2144 0bc6 05       		.uleb128 0x5
 2145 0bc7 5C0E0000 		.4byte	0xe5c
 2146 0bcb 06010000 		.4byte	.LLST19
 2147 0bcf 04010000 		.4byte	.LVUS19
 2148 0bd3 00       		.byte	0
 2149 0bd4 0F       		.uleb128 0xf
 2150 0bd5 A90E0000 		.4byte	0xea9
 2151 0bd9 12000000 		.4byte	.LBI103
 2152 0bdd 01       		.byte	.LVU113
 2153 0bde 60000000 		.4byte	.LLRL20
 2154 0be2 A6       		.byte	0xa6
 2155 0be3 08       		.byte	0x8
 2156 0be4 090C0000 		.4byte	0xc09
 2157 0be8 05       		.uleb128 0x5
 2158 0be9 BB0E0000 		.4byte	0xebb
 2159 0bed 11010000 		.4byte	.LLST21
 2160 0bf1 0F010000 		.4byte	.LVUS21
 2161 0bf5 1E       		.uleb128 0x1e
 2162 0bf6 60000000 		.4byte	.LLRL20
 2163 0bfa 1F       		.uleb128 0x1f
 2164 0bfb C60E0000 		.4byte	0xec6
 2165 0bff 1C010000 		.4byte	.LLST22
 2166 0c03 1A010000 		.4byte	.LVUS22
ARM GAS  C:\Users\DEVELO~1\AppData\Local\Temp\ccB976pz.s 			page 39


 2167 0c07 00       		.byte	0
 2168 0c08 00       		.byte	0
 2169 0c09 1D       		.uleb128 0x1d
 2170 0c0a 24000000 		.4byte	.LVL25
 2171 0c0e 32090000 		.4byte	0x932
 2172 0c12 11       		.uleb128 0x11
 2173 0c13 01       		.uleb128 0x1
 2174 0c14 50       		.byte	0x50
 2175 0c15 01       		.uleb128 0x1
 2176 0c16 3E       		.byte	0x3e
 2177 0c17 00       		.byte	0
 2178 0c18 00       		.byte	0
 2179 0c19 18       		.uleb128 0x18
 2180 0c1a 6A030000 		.4byte	.LASF135
 2181 0c1e 77       		.byte	0x77
 2182 0c1f 0B       		.byte	0xb
 2183 0c20 B5030000 		.4byte	0x3b5
 2184 0c24 00000000 		.4byte	.LFB353
 2185 0c28 2C000000 		.4byte	.LFE353-.LFB353
 2186 0c2c 01       		.uleb128 0x1
 2187 0c2d 9C       		.byte	0x9c
 2188 0c2e C70C0000 		.4byte	0xcc7
 2189 0c32 19       		.uleb128 0x19
 2190 0c33 97030000 		.4byte	.LASF131
 2191 0c37 78       		.byte	0x78
 2192 0c38 B5030000 		.4byte	0x3b5
 2193 0c3c 28010000 		.4byte	.LLST10
 2194 0c40 26010000 		.4byte	.LVUS10
 2195 0c44 29       		.uleb128 0x29
 2196 0c45 747000   		.ascii	"tp\000"
 2197 0c48 79       		.byte	0x79
 2198 0c49 B5030000 		.4byte	0x3b5
 2199 0c4d 20       		.uleb128 0x20
 2200 0c4e 670E0000 		.4byte	0xe67
 2201 0c52 00000000 		.4byte	.LBI83
 2202 0c56 02       		.byte	.LVU63
 2203 0c57 36000000 		.4byte	.LLRL11
 2204 0c5b 78       		.byte	0x78
 2205 0c5c 10       		.uleb128 0x10
 2206 0c5d 4B0E0000 		.4byte	0xe4b
 2207 0c61 06000000 		.4byte	.LBI87
 2208 0c65 04       		.byte	.LVU71
 2209 0c66 06000000 		.4byte	.LBB87
 2210 0c6a 06000000 		.4byte	.LBE87-.LBB87
 2211 0c6e 7D       		.byte	0x7d
 2212 0c6f 08       		.byte	0x8
 2213 0c70 820C0000 		.4byte	0xc82
 2214 0c74 05       		.uleb128 0x5
 2215 0c75 5C0E0000 		.4byte	0xe5c
 2216 0c79 33010000 		.4byte	.LLST12
 2217 0c7d 31010000 		.4byte	.LVUS12
 2218 0c81 00       		.byte	0
 2219 0c82 0F       		.uleb128 0xf
 2220 0c83 A90E0000 		.4byte	0xea9
 2221 0c87 10000000 		.4byte	.LBI89
 2222 0c8b 01       		.byte	.LVU78
 2223 0c8c 42000000 		.4byte	.LLRL13
ARM GAS  C:\Users\DEVELO~1\AppData\Local\Temp\ccB976pz.s 			page 40


 2224 0c90 80       		.byte	0x80
 2225 0c91 08       		.byte	0x8
 2226 0c92 B70C0000 		.4byte	0xcb7
 2227 0c96 05       		.uleb128 0x5
 2228 0c97 BB0E0000 		.4byte	0xebb
 2229 0c9b 3E010000 		.4byte	.LLST14
 2230 0c9f 3C010000 		.4byte	.LVUS14
 2231 0ca3 1E       		.uleb128 0x1e
 2232 0ca4 42000000 		.4byte	.LLRL13
 2233 0ca8 1F       		.uleb128 0x1f
 2234 0ca9 C60E0000 		.4byte	0xec6
 2235 0cad 49010000 		.4byte	.LLST15
 2236 0cb1 47010000 		.4byte	.LVUS15
 2237 0cb5 00       		.byte	0
 2238 0cb6 00       		.byte	0
 2239 0cb7 1D       		.uleb128 0x1d
 2240 0cb8 22000000 		.4byte	.LVL17
 2241 0cbc 4C090000 		.4byte	0x94c
 2242 0cc0 11       		.uleb128 0x11
 2243 0cc1 01       		.uleb128 0x1
 2244 0cc2 50       		.byte	0x50
 2245 0cc3 01       		.uleb128 0x1
 2246 0cc4 3E       		.byte	0x3e
 2247 0cc5 00       		.byte	0
 2248 0cc6 00       		.byte	0
 2249 0cc7 18       		.uleb128 0x18
 2250 0cc8 12010000 		.4byte	.LASF136
 2251 0ccc 55       		.byte	0x55
 2252 0ccd 07       		.byte	0x7
 2253 0cce 38010000 		.4byte	0x138
 2254 0cd2 00000000 		.4byte	.LFB352
 2255 0cd6 3C000000 		.4byte	.LFE352-.LFB352
 2256 0cda 01       		.uleb128 0x1
 2257 0cdb 9C       		.byte	0x9c
 2258 0cdc 130E0000 		.4byte	0xe13
 2259 0ce0 15       		.uleb128 0x15
 2260 0ce1 747000   		.ascii	"tp\000"
 2261 0ce4 55       		.byte	0x55
 2262 0ce5 1B       		.byte	0x1b
 2263 0ce6 B5030000 		.4byte	0x3b5
 2264 0cea 5B010000 		.4byte	.LLST0
 2265 0cee 53010000 		.4byte	.LVUS0
 2266 0cf2 15       		.uleb128 0x15
 2267 0cf3 6D736700 		.ascii	"msg\000"
 2268 0cf7 55       		.byte	0x55
 2269 0cf8 25       		.byte	0x25
 2270 0cf9 38010000 		.4byte	0x138
 2271 0cfd 83010000 		.4byte	.LLST1
 2272 0d01 79010000 		.4byte	.LVUS1
 2273 0d05 19       		.uleb128 0x19
 2274 0d06 97030000 		.4byte	.LASF131
 2275 0d0a 56       		.byte	0x56
 2276 0d0b B5030000 		.4byte	0x3b5
 2277 0d0f AA010000 		.4byte	.LLST2
 2278 0d13 A8010000 		.4byte	.LVUS2
 2279 0d17 1C       		.uleb128 0x1c
 2280 0d18 8B050000 		.4byte	.LASF137
ARM GAS  C:\Users\DEVELO~1\AppData\Local\Temp\ccB976pz.s 			page 41


 2281 0d1c 230E0000 		.4byte	0xe23
 2282 0d20 20       		.uleb128 0x20
 2283 0d21 670E0000 		.4byte	0xe67
 2284 0d25 00000000 		.4byte	.LBI58
 2285 0d29 02       		.byte	.LVU2
 2286 0d2a 0C000000 		.4byte	.LLRL3
 2287 0d2e 56       		.byte	0x56
 2288 0d2f 0F       		.uleb128 0xf
 2289 0d30 A00E0000 		.4byte	0xea0
 2290 0d34 08000000 		.4byte	.LBI63
 2291 0d38 05       		.byte	.LVU13
 2292 0d39 1B000000 		.4byte	.LLRL4
 2293 0d3d 5A       		.byte	0x5a
 2294 0d3e 03       		.byte	0x3
 2295 0d3f 750D0000 		.4byte	0xd75
 2296 0d43 16       		.uleb128 0x16
 2297 0d44 FD0E0000 		.4byte	0xefd
 2298 0d48 08000000 		.4byte	.LBI64
 2299 0d4c 07       		.byte	.LVU15
 2300 0d4d 1B000000 		.4byte	.LLRL4
 2301 0d51 04       		.byte	0x4
 2302 0d52 7601     		.2byte	0x176
 2303 0d54 16       		.uleb128 0x16
 2304 0d55 060F0000 		.4byte	0xf06
 2305 0d59 08000000 		.4byte	.LBI65
 2306 0d5d 09       		.byte	.LVU17
 2307 0d5e 1B000000 		.4byte	.LLRL4
 2308 0d62 05       		.byte	0x5
 2309 0d63 5003     		.2byte	0x350
 2310 0d65 05       		.uleb128 0x5
 2311 0d66 100F0000 		.4byte	0xf10
 2312 0d6a B5010000 		.4byte	.LLST5
 2313 0d6e B3010000 		.4byte	.LVUS5
 2314 0d72 00       		.byte	0
 2315 0d73 00       		.byte	0
 2316 0d74 00       		.byte	0
 2317 0d75 0F       		.uleb128 0xf
 2318 0d76 D20E0000 		.4byte	0xed2
 2319 0d7a 14000000 		.4byte	.LBI72
 2320 0d7e 01       		.byte	.LVU27
 2321 0d7f 27000000 		.4byte	.LLRL6
 2322 0d83 5C       		.byte	0x5c
 2323 0d84 03       		.byte	0x3
 2324 0d85 A40D0000 		.4byte	0xda4
 2325 0d89 05       		.uleb128 0x5
 2326 0d8a E90E0000 		.4byte	0xee9
 2327 0d8e C2010000 		.4byte	.LLST7
 2328 0d92 C0010000 		.4byte	.LVUS7
 2329 0d96 05       		.uleb128 0x5
 2330 0d97 DE0E0000 		.4byte	0xede
 2331 0d9b CD010000 		.4byte	.LLST8
 2332 0d9f CB010000 		.4byte	.LVUS8
 2333 0da3 00       		.byte	0
 2334 0da4 10       		.uleb128 0x10
 2335 0da5 750E0000 		.4byte	0xe75
 2336 0da9 2A000000 		.4byte	.LBI78
 2337 0dad 01       		.byte	.LVU44
ARM GAS  C:\Users\DEVELO~1\AppData\Local\Temp\ccB976pz.s 			page 42


 2338 0dae 2A000000 		.4byte	.LBB78
 2339 0db2 06000000 		.4byte	.LBE78-.LBB78
 2340 0db6 62       		.byte	0x62
 2341 0db7 03       		.byte	0x3
 2342 0db8 F60D0000 		.4byte	0xdf6
 2343 0dbc 17       		.uleb128 0x17
 2344 0dbd F40E0000 		.4byte	0xef4
 2345 0dc1 2A000000 		.4byte	.LBI80
 2346 0dc5 08       		.byte	.LVU51
 2347 0dc6 2A000000 		.4byte	.LBB80
 2348 0dca 06000000 		.4byte	.LBE80-.LBB80
 2349 0dce 04       		.byte	0x4
 2350 0dcf 8F01     		.2byte	0x18f
 2351 0dd1 17       		.uleb128 0x17
 2352 0dd2 060F0000 		.4byte	0xf06
 2353 0dd6 2A000000 		.4byte	.LBI81
 2354 0dda 0A       		.byte	.LVU53
 2355 0ddb 2A000000 		.4byte	.LBB81
 2356 0ddf 06000000 		.4byte	.LBE81-.LBB81
 2357 0de3 05       		.byte	0x5
 2358 0de4 6303     		.2byte	0x363
 2359 0de6 05       		.uleb128 0x5
 2360 0de7 100F0000 		.4byte	0xf10
 2361 0deb DA010000 		.4byte	.LLST9
 2362 0def D8010000 		.4byte	.LVUS9
 2363 0df3 00       		.byte	0
 2364 0df4 00       		.byte	0
 2365 0df5 00       		.byte	0
 2366 0df6 39       		.uleb128 0x39
 2367 0df7 28000000 		.4byte	.LVL6
 2368 0dfb 4C090000 		.4byte	0x94c
 2369 0dff 090E0000 		.4byte	0xe09
 2370 0e03 11       		.uleb128 0x11
 2371 0e04 01       		.uleb128 0x1
 2372 0e05 50       		.byte	0x50
 2373 0e06 01       		.uleb128 0x1
 2374 0e07 3C       		.byte	0x3c
 2375 0e08 00       		.byte	0
 2376 0e09 3A       		.uleb128 0x3a
 2377 0e0a 36000000 		.4byte	.LVL10
 2378 0e0e 5C090000 		.4byte	0x95c
 2379 0e12 00       		.byte	0
 2380 0e13 12       		.uleb128 0x12
 2381 0e14 69030000 		.4byte	0x369
 2382 0e18 230E0000 		.4byte	0xe23
 2383 0e1c 13       		.uleb128 0x13
 2384 0e1d 2D000000 		.4byte	0x2d
 2385 0e21 09       		.byte	0x9
 2386 0e22 00       		.byte	0
 2387 0e23 0D       		.uleb128 0xd
 2388 0e24 130E0000 		.4byte	0xe13
 2389 0e28 3B       		.uleb128 0x3b
 2390 0e29 5D000000 		.4byte	.LASF138
 2391 0e2d 07       		.byte	0x7
 2392 0e2e CE       		.byte	0xce
 2393 0e2f 14       		.byte	0x14
 2394 0e30 03       		.byte	0x3
ARM GAS  C:\Users\DEVELO~1\AppData\Local\Temp\ccB976pz.s 			page 43


 2395 0e31 4B0E0000 		.4byte	0xe4b
 2396 0e35 21       		.uleb128 0x21
 2397 0e36 747000   		.ascii	"tp\000"
 2398 0e39 CE       		.byte	0xce
 2399 0e3a 2C       		.byte	0x2c
 2400 0e3b B5030000 		.4byte	0x3b5
 2401 0e3f 21       		.uleb128 0x21
 2402 0e40 6D736700 		.ascii	"msg\000"
 2403 0e44 CE       		.byte	0xce
 2404 0e45 36       		.byte	0x36
 2405 0e46 38010000 		.4byte	0x138
 2406 0e4a 00       		.byte	0
 2407 0e4b 3C       		.uleb128 0x3c
 2408 0e4c 6F010000 		.4byte	.LASF140
 2409 0e50 07       		.byte	0x7
 2410 0e51 AC       		.byte	0xac
 2411 0e52 14       		.byte	0x14
 2412 0e53 16090000 		.4byte	0x916
 2413 0e57 03       		.byte	0x3
 2414 0e58 670E0000 		.4byte	0xe67
 2415 0e5c 21       		.uleb128 0x21
 2416 0e5d 747000   		.ascii	"tp\000"
 2417 0e60 AC       		.byte	0xac
 2418 0e61 2E       		.byte	0x2e
 2419 0e62 B5030000 		.4byte	0x3b5
 2420 0e66 00       		.byte	0
 2421 0e67 3D       		.uleb128 0x3d
 2422 0e68 E9060000 		.4byte	.LASF151
 2423 0e6c 02       		.byte	0x2
 2424 0e6d 0F02     		.2byte	0x20f
 2425 0e6f 19       		.byte	0x19
 2426 0e70 B5030000 		.4byte	0x3b5
 2427 0e74 03       		.byte	0x3
 2428 0e75 2A       		.uleb128 0x2a
 2429 0e76 1B070000 		.4byte	.LASF139
 2430 0e7a 04       		.byte	0x4
 2431 0e7b 8201     		.2byte	0x182
 2432 0e7d 8B0E0000 		.4byte	0xe8b
 2433 0e81 1C       		.uleb128 0x1c
 2434 0e82 8B050000 		.4byte	.LASF137
 2435 0e86 9B0E0000 		.4byte	0xe9b
 2436 0e8a 00       		.byte	0
 2437 0e8b 12       		.uleb128 0x12
 2438 0e8c 69030000 		.4byte	0x369
 2439 0e90 9B0E0000 		.4byte	0xe9b
 2440 0e94 13       		.uleb128 0x13
 2441 0e95 2D000000 		.4byte	0x2d
 2442 0e99 0B       		.byte	0xb
 2443 0e9a 00       		.byte	0
 2444 0e9b 0D       		.uleb128 0xd
 2445 0e9c 8B0E0000 		.4byte	0xe8b
 2446 0ea0 22       		.uleb128 0x22
 2447 0ea1 94050000 		.4byte	.LASF143
 2448 0ea5 04       		.byte	0x4
 2449 0ea6 7401     		.2byte	0x174
 2450 0ea8 14       		.byte	0x14
 2451 0ea9 3E       		.uleb128 0x3e
ARM GAS  C:\Users\DEVELO~1\AppData\Local\Temp\ccB976pz.s 			page 44


 2452 0eaa 4B010000 		.4byte	.LASF141
 2453 0eae 06       		.byte	0x6
 2454 0eaf 5401     		.2byte	0x154
 2455 0eb1 1B       		.byte	0x1b
 2456 0eb2 23060000 		.4byte	0x623
 2457 0eb6 03       		.byte	0x3
 2458 0eb7 D20E0000 		.4byte	0xed2
 2459 0ebb 23       		.uleb128 0x23
 2460 0ebc 717000   		.ascii	"qp\000"
 2461 0ebf 5401     		.2byte	0x154
 2462 0ec1 3C       		.byte	0x3c
 2463 0ec2 23060000 		.4byte	0x623
 2464 0ec6 3F       		.uleb128 0x3f
 2465 0ec7 7000     		.ascii	"p\000"
 2466 0ec9 06       		.byte	0x6
 2467 0eca 5501     		.2byte	0x155
 2468 0ecc 0F       		.byte	0xf
 2469 0ecd 23060000 		.4byte	0x623
 2470 0ed1 00       		.byte	0
 2471 0ed2 2A       		.uleb128 0x2a
 2472 0ed3 38050000 		.4byte	.LASF142
 2473 0ed7 06       		.byte	0x6
 2474 0ed8 4201     		.2byte	0x142
 2475 0eda F40E0000 		.4byte	0xef4
 2476 0ede 23       		.uleb128 0x23
 2477 0edf 717000   		.ascii	"qp\000"
 2478 0ee2 4201     		.2byte	0x142
 2479 0ee4 30       		.byte	0x30
 2480 0ee5 23060000 		.4byte	0x623
 2481 0ee9 23       		.uleb128 0x23
 2482 0eea 7000     		.ascii	"p\000"
 2483 0eec 4201     		.2byte	0x142
 2484 0eee 40       		.byte	0x40
 2485 0eef 23060000 		.4byte	0x623
 2486 0ef3 00       		.byte	0
 2487 0ef4 22       		.uleb128 0x22
 2488 0ef5 2D010000 		.4byte	.LASF144
 2489 0ef9 05       		.byte	0x5
 2490 0efa 6003     		.2byte	0x360
 2491 0efc 1B       		.byte	0x1b
 2492 0efd 22       		.uleb128 0x22
 2493 0efe 2C070000 		.4byte	.LASF145
 2494 0f02 05       		.byte	0x5
 2495 0f03 4803     		.2byte	0x348
 2496 0f05 1B       		.byte	0x1b
 2497 0f06 40       		.uleb128 0x40
 2498 0f07 52040000 		.4byte	.LASF152
 2499 0f0b 03       		.byte	0x3
 2500 0f0c EB01     		.2byte	0x1eb
 2501 0f0e 1B       		.byte	0x1b
 2502 0f0f 03       		.byte	0x3
 2503 0f10 41       		.uleb128 0x41
 2504 0f11 FA000000 		.4byte	.LASF146
 2505 0f15 03       		.byte	0x3
 2506 0f16 EB01     		.2byte	0x1eb
 2507 0f18 32       		.byte	0x32
 2508 0f19 D3000000 		.4byte	0xd3
ARM GAS  C:\Users\DEVELO~1\AppData\Local\Temp\ccB976pz.s 			page 45


 2509 0f1d 00       		.byte	0
 2510 0f1e 00       		.byte	0
 2511              		.section	.debug_abbrev,"",%progbits
 2512              	.Ldebug_abbrev0:
 2513 0000 01       		.uleb128 0x1
 2514 0001 16       		.uleb128 0x16
 2515 0002 00       		.byte	0
 2516 0003 03       		.uleb128 0x3
 2517 0004 0E       		.uleb128 0xe
 2518 0005 3A       		.uleb128 0x3a
 2519 0006 0B       		.uleb128 0xb
 2520 0007 3B       		.uleb128 0x3b
 2521 0008 0B       		.uleb128 0xb
 2522 0009 39       		.uleb128 0x39
 2523 000a 0B       		.uleb128 0xb
 2524 000b 49       		.uleb128 0x49
 2525 000c 13       		.uleb128 0x13
 2526 000d 00       		.byte	0
 2527 000e 00       		.byte	0
 2528 000f 02       		.uleb128 0x2
 2529 0010 0D       		.uleb128 0xd
 2530 0011 00       		.byte	0
 2531 0012 03       		.uleb128 0x3
 2532 0013 0E       		.uleb128 0xe
 2533 0014 3A       		.uleb128 0x3a
 2534 0015 0B       		.uleb128 0xb
 2535 0016 3B       		.uleb128 0x3b
 2536 0017 0B       		.uleb128 0xb
 2537 0018 39       		.uleb128 0x39
 2538 0019 0B       		.uleb128 0xb
 2539 001a 49       		.uleb128 0x49
 2540 001b 13       		.uleb128 0x13
 2541 001c 38       		.uleb128 0x38
 2542 001d 0B       		.uleb128 0xb
 2543 001e 00       		.byte	0
 2544 001f 00       		.byte	0
 2545 0020 03       		.uleb128 0x3
 2546 0021 0D       		.uleb128 0xd
 2547 0022 00       		.byte	0
 2548 0023 03       		.uleb128 0x3
 2549 0024 0E       		.uleb128 0xe
 2550 0025 3A       		.uleb128 0x3a
 2551 0026 21       		.uleb128 0x21
 2552 0027 0C       		.sleb128 12
 2553 0028 3B       		.uleb128 0x3b
 2554 0029 05       		.uleb128 0x5
 2555 002a 39       		.uleb128 0x39
 2556 002b 0B       		.uleb128 0xb
 2557 002c 49       		.uleb128 0x49
 2558 002d 13       		.uleb128 0x13
 2559 002e 38       		.uleb128 0x38
 2560 002f 0B       		.uleb128 0xb
 2561 0030 00       		.byte	0
 2562 0031 00       		.byte	0
 2563 0032 04       		.uleb128 0x4
 2564 0033 0F       		.uleb128 0xf
 2565 0034 00       		.byte	0
ARM GAS  C:\Users\DEVELO~1\AppData\Local\Temp\ccB976pz.s 			page 46


 2566 0035 0B       		.uleb128 0xb
 2567 0036 21       		.uleb128 0x21
 2568 0037 04       		.sleb128 4
 2569 0038 49       		.uleb128 0x49
 2570 0039 13       		.uleb128 0x13
 2571 003a 00       		.byte	0
 2572 003b 00       		.byte	0
 2573 003c 05       		.uleb128 0x5
 2574 003d 05       		.uleb128 0x5
 2575 003e 00       		.byte	0
 2576 003f 31       		.uleb128 0x31
 2577 0040 13       		.uleb128 0x13
 2578 0041 02       		.uleb128 0x2
 2579 0042 17       		.uleb128 0x17
 2580 0043 B742     		.uleb128 0x2137
 2581 0045 17       		.uleb128 0x17
 2582 0046 00       		.byte	0
 2583 0047 00       		.byte	0
 2584 0048 06       		.uleb128 0x6
 2585 0049 24       		.uleb128 0x24
 2586 004a 00       		.byte	0
 2587 004b 0B       		.uleb128 0xb
 2588 004c 0B       		.uleb128 0xb
 2589 004d 3E       		.uleb128 0x3e
 2590 004e 0B       		.uleb128 0xb
 2591 004f 03       		.uleb128 0x3
 2592 0050 0E       		.uleb128 0xe
 2593 0051 00       		.byte	0
 2594 0052 00       		.byte	0
 2595 0053 07       		.uleb128 0x7
 2596 0054 0D       		.uleb128 0xd
 2597 0055 00       		.byte	0
 2598 0056 03       		.uleb128 0x3
 2599 0057 08       		.uleb128 0x8
 2600 0058 3A       		.uleb128 0x3a
 2601 0059 0B       		.uleb128 0xb
 2602 005a 3B       		.uleb128 0x3b
 2603 005b 05       		.uleb128 0x5
 2604 005c 39       		.uleb128 0x39
 2605 005d 0B       		.uleb128 0xb
 2606 005e 49       		.uleb128 0x49
 2607 005f 13       		.uleb128 0x13
 2608 0060 38       		.uleb128 0x38
 2609 0061 0B       		.uleb128 0xb
 2610 0062 00       		.byte	0
 2611 0063 00       		.byte	0
 2612 0064 08       		.uleb128 0x8
 2613 0065 13       		.uleb128 0x13
 2614 0066 01       		.byte	0x1
 2615 0067 03       		.uleb128 0x3
 2616 0068 0E       		.uleb128 0xe
 2617 0069 0B       		.uleb128 0xb
 2618 006a 0B       		.uleb128 0xb
 2619 006b 3A       		.uleb128 0x3a
 2620 006c 0B       		.uleb128 0xb
 2621 006d 3B       		.uleb128 0x3b
 2622 006e 0B       		.uleb128 0xb
ARM GAS  C:\Users\DEVELO~1\AppData\Local\Temp\ccB976pz.s 			page 47


 2623 006f 39       		.uleb128 0x39
 2624 0070 0B       		.uleb128 0xb
 2625 0071 01       		.uleb128 0x1
 2626 0072 13       		.uleb128 0x13
 2627 0073 00       		.byte	0
 2628 0074 00       		.byte	0
 2629 0075 09       		.uleb128 0x9
 2630 0076 0D       		.uleb128 0xd
 2631 0077 00       		.byte	0
 2632 0078 03       		.uleb128 0x3
 2633 0079 08       		.uleb128 0x8
 2634 007a 3A       		.uleb128 0x3a
 2635 007b 0B       		.uleb128 0xb
 2636 007c 3B       		.uleb128 0x3b
 2637 007d 0B       		.uleb128 0xb
 2638 007e 39       		.uleb128 0x39
 2639 007f 0B       		.uleb128 0xb
 2640 0080 49       		.uleb128 0x49
 2641 0081 13       		.uleb128 0x13
 2642 0082 38       		.uleb128 0x38
 2643 0083 0B       		.uleb128 0xb
 2644 0084 00       		.byte	0
 2645 0085 00       		.byte	0
 2646 0086 0A       		.uleb128 0xa
 2647 0087 0D       		.uleb128 0xd
 2648 0088 00       		.byte	0
 2649 0089 03       		.uleb128 0x3
 2650 008a 0E       		.uleb128 0xe
 2651 008b 3A       		.uleb128 0x3a
 2652 008c 21       		.uleb128 0x21
 2653 008d 0C       		.sleb128 12
 2654 008e 3B       		.uleb128 0x3b
 2655 008f 05       		.uleb128 0x5
 2656 0090 39       		.uleb128 0x39
 2657 0091 0B       		.uleb128 0xb
 2658 0092 49       		.uleb128 0x49
 2659 0093 13       		.uleb128 0x13
 2660 0094 00       		.byte	0
 2661 0095 00       		.byte	0
 2662 0096 0B       		.uleb128 0xb
 2663 0097 05       		.uleb128 0x5
 2664 0098 00       		.byte	0
 2665 0099 49       		.uleb128 0x49
 2666 009a 13       		.uleb128 0x13
 2667 009b 00       		.byte	0
 2668 009c 00       		.byte	0
 2669 009d 0C       		.uleb128 0xc
 2670 009e 13       		.uleb128 0x13
 2671 009f 01       		.byte	0x1
 2672 00a0 0B       		.uleb128 0xb
 2673 00a1 0B       		.uleb128 0xb
 2674 00a2 3A       		.uleb128 0x3a
 2675 00a3 21       		.uleb128 0x21
 2676 00a4 10       		.sleb128 16
 2677 00a5 3B       		.uleb128 0x3b
 2678 00a6 0B       		.uleb128 0xb
 2679 00a7 39       		.uleb128 0x39
ARM GAS  C:\Users\DEVELO~1\AppData\Local\Temp\ccB976pz.s 			page 48


 2680 00a8 0B       		.uleb128 0xb
 2681 00a9 01       		.uleb128 0x1
 2682 00aa 13       		.uleb128 0x13
 2683 00ab 00       		.byte	0
 2684 00ac 00       		.byte	0
 2685 00ad 0D       		.uleb128 0xd
 2686 00ae 26       		.uleb128 0x26
 2687 00af 00       		.byte	0
 2688 00b0 49       		.uleb128 0x49
 2689 00b1 13       		.uleb128 0x13
 2690 00b2 00       		.byte	0
 2691 00b3 00       		.byte	0
 2692 00b4 0E       		.uleb128 0xe
 2693 00b5 0D       		.uleb128 0xd
 2694 00b6 00       		.byte	0
 2695 00b7 03       		.uleb128 0x3
 2696 00b8 0E       		.uleb128 0xe
 2697 00b9 3A       		.uleb128 0x3a
 2698 00ba 0B       		.uleb128 0xb
 2699 00bb 3B       		.uleb128 0x3b
 2700 00bc 0B       		.uleb128 0xb
 2701 00bd 39       		.uleb128 0x39
 2702 00be 0B       		.uleb128 0xb
 2703 00bf 49       		.uleb128 0x49
 2704 00c0 13       		.uleb128 0x13
 2705 00c1 00       		.byte	0
 2706 00c2 00       		.byte	0
 2707 00c3 0F       		.uleb128 0xf
 2708 00c4 1D       		.uleb128 0x1d
 2709 00c5 01       		.byte	0x1
 2710 00c6 31       		.uleb128 0x31
 2711 00c7 13       		.uleb128 0x13
 2712 00c8 52       		.uleb128 0x52
 2713 00c9 01       		.uleb128 0x1
 2714 00ca B842     		.uleb128 0x2138
 2715 00cc 0B       		.uleb128 0xb
 2716 00cd 55       		.uleb128 0x55
 2717 00ce 17       		.uleb128 0x17
 2718 00cf 58       		.uleb128 0x58
 2719 00d0 21       		.uleb128 0x21
 2720 00d1 01       		.sleb128 1
 2721 00d2 59       		.uleb128 0x59
 2722 00d3 0B       		.uleb128 0xb
 2723 00d4 57       		.uleb128 0x57
 2724 00d5 0B       		.uleb128 0xb
 2725 00d6 01       		.uleb128 0x1
 2726 00d7 13       		.uleb128 0x13
 2727 00d8 00       		.byte	0
 2728 00d9 00       		.byte	0
 2729 00da 10       		.uleb128 0x10
 2730 00db 1D       		.uleb128 0x1d
 2731 00dc 01       		.byte	0x1
 2732 00dd 31       		.uleb128 0x31
 2733 00de 13       		.uleb128 0x13
 2734 00df 52       		.uleb128 0x52
 2735 00e0 01       		.uleb128 0x1
 2736 00e1 B842     		.uleb128 0x2138
ARM GAS  C:\Users\DEVELO~1\AppData\Local\Temp\ccB976pz.s 			page 49


 2737 00e3 0B       		.uleb128 0xb
 2738 00e4 11       		.uleb128 0x11
 2739 00e5 01       		.uleb128 0x1
 2740 00e6 12       		.uleb128 0x12
 2741 00e7 06       		.uleb128 0x6
 2742 00e8 58       		.uleb128 0x58
 2743 00e9 21       		.uleb128 0x21
 2744 00ea 01       		.sleb128 1
 2745 00eb 59       		.uleb128 0x59
 2746 00ec 0B       		.uleb128 0xb
 2747 00ed 57       		.uleb128 0x57
 2748 00ee 0B       		.uleb128 0xb
 2749 00ef 01       		.uleb128 0x1
 2750 00f0 13       		.uleb128 0x13
 2751 00f1 00       		.byte	0
 2752 00f2 00       		.byte	0
 2753 00f3 11       		.uleb128 0x11
 2754 00f4 49       		.uleb128 0x49
 2755 00f5 00       		.byte	0
 2756 00f6 02       		.uleb128 0x2
 2757 00f7 18       		.uleb128 0x18
 2758 00f8 7E       		.uleb128 0x7e
 2759 00f9 18       		.uleb128 0x18
 2760 00fa 00       		.byte	0
 2761 00fb 00       		.byte	0
 2762 00fc 12       		.uleb128 0x12
 2763 00fd 01       		.uleb128 0x1
 2764 00fe 01       		.byte	0x1
 2765 00ff 49       		.uleb128 0x49
 2766 0100 13       		.uleb128 0x13
 2767 0101 01       		.uleb128 0x1
 2768 0102 13       		.uleb128 0x13
 2769 0103 00       		.byte	0
 2770 0104 00       		.byte	0
 2771 0105 13       		.uleb128 0x13
 2772 0106 21       		.uleb128 0x21
 2773 0107 00       		.byte	0
 2774 0108 49       		.uleb128 0x49
 2775 0109 13       		.uleb128 0x13
 2776 010a 2F       		.uleb128 0x2f
 2777 010b 0B       		.uleb128 0xb
 2778 010c 00       		.byte	0
 2779 010d 00       		.byte	0
 2780 010e 14       		.uleb128 0x14
 2781 010f 13       		.uleb128 0x13
 2782 0110 01       		.byte	0x1
 2783 0111 03       		.uleb128 0x3
 2784 0112 0E       		.uleb128 0xe
 2785 0113 0B       		.uleb128 0xb
 2786 0114 0B       		.uleb128 0xb
 2787 0115 3A       		.uleb128 0x3a
 2788 0116 0B       		.uleb128 0xb
 2789 0117 3B       		.uleb128 0x3b
 2790 0118 05       		.uleb128 0x5
 2791 0119 39       		.uleb128 0x39
 2792 011a 0B       		.uleb128 0xb
 2793 011b 01       		.uleb128 0x1
ARM GAS  C:\Users\DEVELO~1\AppData\Local\Temp\ccB976pz.s 			page 50


 2794 011c 13       		.uleb128 0x13
 2795 011d 00       		.byte	0
 2796 011e 00       		.byte	0
 2797 011f 15       		.uleb128 0x15
 2798 0120 05       		.uleb128 0x5
 2799 0121 00       		.byte	0
 2800 0122 03       		.uleb128 0x3
 2801 0123 08       		.uleb128 0x8
 2802 0124 3A       		.uleb128 0x3a
 2803 0125 21       		.uleb128 0x21
 2804 0126 01       		.sleb128 1
 2805 0127 3B       		.uleb128 0x3b
 2806 0128 0B       		.uleb128 0xb
 2807 0129 39       		.uleb128 0x39
 2808 012a 0B       		.uleb128 0xb
 2809 012b 49       		.uleb128 0x49
 2810 012c 13       		.uleb128 0x13
 2811 012d 02       		.uleb128 0x2
 2812 012e 17       		.uleb128 0x17
 2813 012f B742     		.uleb128 0x2137
 2814 0131 17       		.uleb128 0x17
 2815 0132 00       		.byte	0
 2816 0133 00       		.byte	0
 2817 0134 16       		.uleb128 0x16
 2818 0135 1D       		.uleb128 0x1d
 2819 0136 01       		.byte	0x1
 2820 0137 31       		.uleb128 0x31
 2821 0138 13       		.uleb128 0x13
 2822 0139 52       		.uleb128 0x52
 2823 013a 01       		.uleb128 0x1
 2824 013b B842     		.uleb128 0x2138
 2825 013d 0B       		.uleb128 0xb
 2826 013e 55       		.uleb128 0x55
 2827 013f 17       		.uleb128 0x17
 2828 0140 58       		.uleb128 0x58
 2829 0141 0B       		.uleb128 0xb
 2830 0142 59       		.uleb128 0x59
 2831 0143 05       		.uleb128 0x5
 2832 0144 57       		.uleb128 0x57
 2833 0145 21       		.uleb128 0x21
 2834 0146 03       		.sleb128 3
 2835 0147 00       		.byte	0
 2836 0148 00       		.byte	0
 2837 0149 17       		.uleb128 0x17
 2838 014a 1D       		.uleb128 0x1d
 2839 014b 01       		.byte	0x1
 2840 014c 31       		.uleb128 0x31
 2841 014d 13       		.uleb128 0x13
 2842 014e 52       		.uleb128 0x52
 2843 014f 01       		.uleb128 0x1
 2844 0150 B842     		.uleb128 0x2138
 2845 0152 0B       		.uleb128 0xb
 2846 0153 11       		.uleb128 0x11
 2847 0154 01       		.uleb128 0x1
 2848 0155 12       		.uleb128 0x12
 2849 0156 06       		.uleb128 0x6
 2850 0157 58       		.uleb128 0x58
ARM GAS  C:\Users\DEVELO~1\AppData\Local\Temp\ccB976pz.s 			page 51


 2851 0158 0B       		.uleb128 0xb
 2852 0159 59       		.uleb128 0x59
 2853 015a 05       		.uleb128 0x5
 2854 015b 57       		.uleb128 0x57
 2855 015c 21       		.uleb128 0x21
 2856 015d 03       		.sleb128 3
 2857 015e 00       		.byte	0
 2858 015f 00       		.byte	0
 2859 0160 18       		.uleb128 0x18
 2860 0161 2E       		.uleb128 0x2e
 2861 0162 01       		.byte	0x1
 2862 0163 3F       		.uleb128 0x3f
 2863 0164 19       		.uleb128 0x19
 2864 0165 03       		.uleb128 0x3
 2865 0166 0E       		.uleb128 0xe
 2866 0167 3A       		.uleb128 0x3a
 2867 0168 21       		.uleb128 0x21
 2868 0169 01       		.sleb128 1
 2869 016a 3B       		.uleb128 0x3b
 2870 016b 0B       		.uleb128 0xb
 2871 016c 39       		.uleb128 0x39
 2872 016d 0B       		.uleb128 0xb
 2873 016e 27       		.uleb128 0x27
 2874 016f 19       		.uleb128 0x19
 2875 0170 49       		.uleb128 0x49
 2876 0171 13       		.uleb128 0x13
 2877 0172 11       		.uleb128 0x11
 2878 0173 01       		.uleb128 0x1
 2879 0174 12       		.uleb128 0x12
 2880 0175 06       		.uleb128 0x6
 2881 0176 40       		.uleb128 0x40
 2882 0177 18       		.uleb128 0x18
 2883 0178 7A       		.uleb128 0x7a
 2884 0179 19       		.uleb128 0x19
 2885 017a 01       		.uleb128 0x1
 2886 017b 13       		.uleb128 0x13
 2887 017c 00       		.byte	0
 2888 017d 00       		.byte	0
 2889 017e 19       		.uleb128 0x19
 2890 017f 34       		.uleb128 0x34
 2891 0180 00       		.byte	0
 2892 0181 03       		.uleb128 0x3
 2893 0182 0E       		.uleb128 0xe
 2894 0183 3A       		.uleb128 0x3a
 2895 0184 21       		.uleb128 0x21
 2896 0185 01       		.sleb128 1
 2897 0186 3B       		.uleb128 0x3b
 2898 0187 0B       		.uleb128 0xb
 2899 0188 39       		.uleb128 0x39
 2900 0189 21       		.uleb128 0x21
 2901 018a 0D       		.sleb128 13
 2902 018b 49       		.uleb128 0x49
 2903 018c 13       		.uleb128 0x13
 2904 018d 02       		.uleb128 0x2
 2905 018e 17       		.uleb128 0x17
 2906 018f B742     		.uleb128 0x2137
 2907 0191 17       		.uleb128 0x17
ARM GAS  C:\Users\DEVELO~1\AppData\Local\Temp\ccB976pz.s 			page 52


 2908 0192 00       		.byte	0
 2909 0193 00       		.byte	0
 2910 0194 1A       		.uleb128 0x1a
 2911 0195 0D       		.uleb128 0xd
 2912 0196 00       		.byte	0
 2913 0197 03       		.uleb128 0x3
 2914 0198 08       		.uleb128 0x8
 2915 0199 3A       		.uleb128 0x3a
 2916 019a 21       		.uleb128 0x21
 2917 019b 10       		.sleb128 16
 2918 019c 3B       		.uleb128 0x3b
 2919 019d 0B       		.uleb128 0xb
 2920 019e 39       		.uleb128 0x39
 2921 019f 21       		.uleb128 0x21
 2922 01a0 07       		.sleb128 7
 2923 01a1 49       		.uleb128 0x49
 2924 01a2 13       		.uleb128 0x13
 2925 01a3 00       		.byte	0
 2926 01a4 00       		.byte	0
 2927 01a5 1B       		.uleb128 0x1b
 2928 01a6 0D       		.uleb128 0xd
 2929 01a7 00       		.byte	0
 2930 01a8 03       		.uleb128 0x3
 2931 01a9 0E       		.uleb128 0xe
 2932 01aa 3A       		.uleb128 0x3a
 2933 01ab 21       		.uleb128 0x21
 2934 01ac 10       		.sleb128 16
 2935 01ad 3B       		.uleb128 0x3b
 2936 01ae 0B       		.uleb128 0xb
 2937 01af 39       		.uleb128 0x39
 2938 01b0 21       		.uleb128 0x21
 2939 01b1 19       		.sleb128 25
 2940 01b2 49       		.uleb128 0x49
 2941 01b3 13       		.uleb128 0x13
 2942 01b4 0D       		.uleb128 0xd
 2943 01b5 0B       		.uleb128 0xb
 2944 01b6 6B       		.uleb128 0x6b
 2945 01b7 0B       		.uleb128 0xb
 2946 01b8 00       		.byte	0
 2947 01b9 00       		.byte	0
 2948 01ba 1C       		.uleb128 0x1c
 2949 01bb 34       		.uleb128 0x34
 2950 01bc 00       		.byte	0
 2951 01bd 03       		.uleb128 0x3
 2952 01be 0E       		.uleb128 0xe
 2953 01bf 49       		.uleb128 0x49
 2954 01c0 13       		.uleb128 0x13
 2955 01c1 34       		.uleb128 0x34
 2956 01c2 19       		.uleb128 0x19
 2957 01c3 00       		.byte	0
 2958 01c4 00       		.byte	0
 2959 01c5 1D       		.uleb128 0x1d
 2960 01c6 48       		.uleb128 0x48
 2961 01c7 01       		.byte	0x1
 2962 01c8 7D       		.uleb128 0x7d
 2963 01c9 01       		.uleb128 0x1
 2964 01ca 7F       		.uleb128 0x7f
ARM GAS  C:\Users\DEVELO~1\AppData\Local\Temp\ccB976pz.s 			page 53


 2965 01cb 13       		.uleb128 0x13
 2966 01cc 00       		.byte	0
 2967 01cd 00       		.byte	0
 2968 01ce 1E       		.uleb128 0x1e
 2969 01cf 0B       		.uleb128 0xb
 2970 01d0 01       		.byte	0x1
 2971 01d1 55       		.uleb128 0x55
 2972 01d2 17       		.uleb128 0x17
 2973 01d3 00       		.byte	0
 2974 01d4 00       		.byte	0
 2975 01d5 1F       		.uleb128 0x1f
 2976 01d6 34       		.uleb128 0x34
 2977 01d7 00       		.byte	0
 2978 01d8 31       		.uleb128 0x31
 2979 01d9 13       		.uleb128 0x13
 2980 01da 02       		.uleb128 0x2
 2981 01db 17       		.uleb128 0x17
 2982 01dc B742     		.uleb128 0x2137
 2983 01de 17       		.uleb128 0x17
 2984 01df 00       		.byte	0
 2985 01e0 00       		.byte	0
 2986 01e1 20       		.uleb128 0x20
 2987 01e2 1D       		.uleb128 0x1d
 2988 01e3 00       		.byte	0
 2989 01e4 31       		.uleb128 0x31
 2990 01e5 13       		.uleb128 0x13
 2991 01e6 52       		.uleb128 0x52
 2992 01e7 01       		.uleb128 0x1
 2993 01e8 B842     		.uleb128 0x2138
 2994 01ea 0B       		.uleb128 0xb
 2995 01eb 55       		.uleb128 0x55
 2996 01ec 17       		.uleb128 0x17
 2997 01ed 58       		.uleb128 0x58
 2998 01ee 21       		.uleb128 0x21
 2999 01ef 01       		.sleb128 1
 3000 01f0 59       		.uleb128 0x59
 3001 01f1 0B       		.uleb128 0xb
 3002 01f2 57       		.uleb128 0x57
 3003 01f3 21       		.uleb128 0x21
 3004 01f4 16       		.sleb128 22
 3005 01f5 00       		.byte	0
 3006 01f6 00       		.byte	0
 3007 01f7 21       		.uleb128 0x21
 3008 01f8 05       		.uleb128 0x5
 3009 01f9 00       		.byte	0
 3010 01fa 03       		.uleb128 0x3
 3011 01fb 08       		.uleb128 0x8
 3012 01fc 3A       		.uleb128 0x3a
 3013 01fd 21       		.uleb128 0x21
 3014 01fe 07       		.sleb128 7
 3015 01ff 3B       		.uleb128 0x3b
 3016 0200 0B       		.uleb128 0xb
 3017 0201 39       		.uleb128 0x39
 3018 0202 0B       		.uleb128 0xb
 3019 0203 49       		.uleb128 0x49
 3020 0204 13       		.uleb128 0x13
 3021 0205 00       		.byte	0
ARM GAS  C:\Users\DEVELO~1\AppData\Local\Temp\ccB976pz.s 			page 54


 3022 0206 00       		.byte	0
 3023 0207 22       		.uleb128 0x22
 3024 0208 2E       		.uleb128 0x2e
 3025 0209 00       		.byte	0
 3026 020a 03       		.uleb128 0x3
 3027 020b 0E       		.uleb128 0xe
 3028 020c 3A       		.uleb128 0x3a
 3029 020d 0B       		.uleb128 0xb
 3030 020e 3B       		.uleb128 0x3b
 3031 020f 05       		.uleb128 0x5
 3032 0210 39       		.uleb128 0x39
 3033 0211 0B       		.uleb128 0xb
 3034 0212 27       		.uleb128 0x27
 3035 0213 19       		.uleb128 0x19
 3036 0214 20       		.uleb128 0x20
 3037 0215 21       		.uleb128 0x21
 3038 0216 03       		.sleb128 3
 3039 0217 00       		.byte	0
 3040 0218 00       		.byte	0
 3041 0219 23       		.uleb128 0x23
 3042 021a 05       		.uleb128 0x5
 3043 021b 00       		.byte	0
 3044 021c 03       		.uleb128 0x3
 3045 021d 08       		.uleb128 0x8
 3046 021e 3A       		.uleb128 0x3a
 3047 021f 21       		.uleb128 0x21
 3048 0220 06       		.sleb128 6
 3049 0221 3B       		.uleb128 0x3b
 3050 0222 05       		.uleb128 0x5
 3051 0223 39       		.uleb128 0x39
 3052 0224 0B       		.uleb128 0xb
 3053 0225 49       		.uleb128 0x49
 3054 0226 13       		.uleb128 0x13
 3055 0227 00       		.byte	0
 3056 0228 00       		.byte	0
 3057 0229 24       		.uleb128 0x24
 3058 022a 35       		.uleb128 0x35
 3059 022b 00       		.byte	0
 3060 022c 49       		.uleb128 0x49
 3061 022d 13       		.uleb128 0x13
 3062 022e 00       		.byte	0
 3063 022f 00       		.byte	0
 3064 0230 25       		.uleb128 0x25
 3065 0231 17       		.uleb128 0x17
 3066 0232 01       		.byte	0x1
 3067 0233 0B       		.uleb128 0xb
 3068 0234 0B       		.uleb128 0xb
 3069 0235 3A       		.uleb128 0x3a
 3070 0236 0B       		.uleb128 0xb
 3071 0237 3B       		.uleb128 0x3b
 3072 0238 0B       		.uleb128 0xb
 3073 0239 39       		.uleb128 0x39
 3074 023a 21       		.uleb128 0x21
 3075 023b 03       		.sleb128 3
 3076 023c 01       		.uleb128 0x1
 3077 023d 13       		.uleb128 0x13
 3078 023e 00       		.byte	0
ARM GAS  C:\Users\DEVELO~1\AppData\Local\Temp\ccB976pz.s 			page 55


 3079 023f 00       		.byte	0
 3080 0240 26       		.uleb128 0x26
 3081 0241 16       		.uleb128 0x16
 3082 0242 00       		.byte	0
 3083 0243 03       		.uleb128 0x3
 3084 0244 0E       		.uleb128 0xe
 3085 0245 3A       		.uleb128 0x3a
 3086 0246 21       		.uleb128 0x21
 3087 0247 0C       		.sleb128 12
 3088 0248 3B       		.uleb128 0x3b
 3089 0249 05       		.uleb128 0x5
 3090 024a 39       		.uleb128 0x39
 3091 024b 21       		.uleb128 0x21
 3092 024c 03       		.sleb128 3
 3093 024d 49       		.uleb128 0x49
 3094 024e 13       		.uleb128 0x13
 3095 024f 00       		.byte	0
 3096 0250 00       		.byte	0
 3097 0251 27       		.uleb128 0x27
 3098 0252 2E       		.uleb128 0x2e
 3099 0253 01       		.byte	0x1
 3100 0254 3F       		.uleb128 0x3f
 3101 0255 19       		.uleb128 0x19
 3102 0256 03       		.uleb128 0x3
 3103 0257 0E       		.uleb128 0xe
 3104 0258 3A       		.uleb128 0x3a
 3105 0259 21       		.uleb128 0x21
 3106 025a 13       		.sleb128 19
 3107 025b 3B       		.uleb128 0x3b
 3108 025c 0B       		.uleb128 0xb
 3109 025d 39       		.uleb128 0x39
 3110 025e 21       		.uleb128 0x21
 3111 025f 08       		.sleb128 8
 3112 0260 27       		.uleb128 0x27
 3113 0261 19       		.uleb128 0x19
 3114 0262 3C       		.uleb128 0x3c
 3115 0263 19       		.uleb128 0x19
 3116 0264 01       		.uleb128 0x1
 3117 0265 13       		.uleb128 0x13
 3118 0266 00       		.byte	0
 3119 0267 00       		.byte	0
 3120 0268 28       		.uleb128 0x28
 3121 0269 2E       		.uleb128 0x2e
 3122 026a 01       		.byte	0x1
 3123 026b 3F       		.uleb128 0x3f
 3124 026c 19       		.uleb128 0x19
 3125 026d 03       		.uleb128 0x3
 3126 026e 0E       		.uleb128 0xe
 3127 026f 3A       		.uleb128 0x3a
 3128 0270 21       		.uleb128 0x21
 3129 0271 13       		.sleb128 19
 3130 0272 3B       		.uleb128 0x3b
 3131 0273 0B       		.uleb128 0xb
 3132 0274 39       		.uleb128 0x39
 3133 0275 0B       		.uleb128 0xb
 3134 0276 27       		.uleb128 0x27
 3135 0277 19       		.uleb128 0x19
ARM GAS  C:\Users\DEVELO~1\AppData\Local\Temp\ccB976pz.s 			page 56


 3136 0278 49       		.uleb128 0x49
 3137 0279 13       		.uleb128 0x13
 3138 027a 3C       		.uleb128 0x3c
 3139 027b 19       		.uleb128 0x19
 3140 027c 01       		.uleb128 0x1
 3141 027d 13       		.uleb128 0x13
 3142 027e 00       		.byte	0
 3143 027f 00       		.byte	0
 3144 0280 29       		.uleb128 0x29
 3145 0281 34       		.uleb128 0x34
 3146 0282 00       		.byte	0
 3147 0283 03       		.uleb128 0x3
 3148 0284 08       		.uleb128 0x8
 3149 0285 3A       		.uleb128 0x3a
 3150 0286 21       		.uleb128 0x21
 3151 0287 01       		.sleb128 1
 3152 0288 3B       		.uleb128 0x3b
 3153 0289 0B       		.uleb128 0xb
 3154 028a 39       		.uleb128 0x39
 3155 028b 21       		.uleb128 0x21
 3156 028c 0D       		.sleb128 13
 3157 028d 49       		.uleb128 0x49
 3158 028e 13       		.uleb128 0x13
 3159 028f 00       		.byte	0
 3160 0290 00       		.byte	0
 3161 0291 2A       		.uleb128 0x2a
 3162 0292 2E       		.uleb128 0x2e
 3163 0293 01       		.byte	0x1
 3164 0294 03       		.uleb128 0x3
 3165 0295 0E       		.uleb128 0xe
 3166 0296 3A       		.uleb128 0x3a
 3167 0297 0B       		.uleb128 0xb
 3168 0298 3B       		.uleb128 0x3b
 3169 0299 05       		.uleb128 0x5
 3170 029a 39       		.uleb128 0x39
 3171 029b 21       		.uleb128 0x21
 3172 029c 14       		.sleb128 20
 3173 029d 27       		.uleb128 0x27
 3174 029e 19       		.uleb128 0x19
 3175 029f 20       		.uleb128 0x20
 3176 02a0 21       		.uleb128 0x21
 3177 02a1 03       		.sleb128 3
 3178 02a2 01       		.uleb128 0x1
 3179 02a3 13       		.uleb128 0x13
 3180 02a4 00       		.byte	0
 3181 02a5 00       		.byte	0
 3182 02a6 2B       		.uleb128 0x2b
 3183 02a7 11       		.uleb128 0x11
 3184 02a8 01       		.byte	0x1
 3185 02a9 25       		.uleb128 0x25
 3186 02aa 0E       		.uleb128 0xe
 3187 02ab 13       		.uleb128 0x13
 3188 02ac 0B       		.uleb128 0xb
 3189 02ad 03       		.uleb128 0x3
 3190 02ae 0E       		.uleb128 0xe
 3191 02af 1B       		.uleb128 0x1b
 3192 02b0 0E       		.uleb128 0xe
ARM GAS  C:\Users\DEVELO~1\AppData\Local\Temp\ccB976pz.s 			page 57


 3193 02b1 55       		.uleb128 0x55
 3194 02b2 17       		.uleb128 0x17
 3195 02b3 11       		.uleb128 0x11
 3196 02b4 01       		.uleb128 0x1
 3197 02b5 10       		.uleb128 0x10
 3198 02b6 17       		.uleb128 0x17
 3199 02b7 00       		.byte	0
 3200 02b8 00       		.byte	0
 3201 02b9 2C       		.uleb128 0x2c
 3202 02ba 24       		.uleb128 0x24
 3203 02bb 00       		.byte	0
 3204 02bc 0B       		.uleb128 0xb
 3205 02bd 0B       		.uleb128 0xb
 3206 02be 3E       		.uleb128 0x3e
 3207 02bf 0B       		.uleb128 0xb
 3208 02c0 03       		.uleb128 0x3
 3209 02c1 08       		.uleb128 0x8
 3210 02c2 00       		.byte	0
 3211 02c3 00       		.byte	0
 3212 02c4 2D       		.uleb128 0x2d
 3213 02c5 13       		.uleb128 0x13
 3214 02c6 01       		.byte	0x1
 3215 02c7 03       		.uleb128 0x3
 3216 02c8 0E       		.uleb128 0xe
 3217 02c9 0B       		.uleb128 0xb
 3218 02ca 05       		.uleb128 0x5
 3219 02cb 3A       		.uleb128 0x3a
 3220 02cc 0B       		.uleb128 0xb
 3221 02cd 3B       		.uleb128 0x3b
 3222 02ce 05       		.uleb128 0x5
 3223 02cf 39       		.uleb128 0x39
 3224 02d0 0B       		.uleb128 0xb
 3225 02d1 01       		.uleb128 0x1
 3226 02d2 13       		.uleb128 0x13
 3227 02d3 00       		.byte	0
 3228 02d4 00       		.byte	0
 3229 02d5 2E       		.uleb128 0x2e
 3230 02d6 0F       		.uleb128 0xf
 3231 02d7 00       		.byte	0
 3232 02d8 0B       		.uleb128 0xb
 3233 02d9 0B       		.uleb128 0xb
 3234 02da 00       		.byte	0
 3235 02db 00       		.byte	0
 3236 02dc 2F       		.uleb128 0x2f
 3237 02dd 13       		.uleb128 0x13
 3238 02de 01       		.byte	0x1
 3239 02df 0B       		.uleb128 0xb
 3240 02e0 05       		.uleb128 0x5
 3241 02e1 3A       		.uleb128 0x3a
 3242 02e2 0B       		.uleb128 0xb
 3243 02e3 3B       		.uleb128 0x3b
 3244 02e4 0B       		.uleb128 0xb
 3245 02e5 39       		.uleb128 0x39
 3246 02e6 0B       		.uleb128 0xb
 3247 02e7 01       		.uleb128 0x1
 3248 02e8 13       		.uleb128 0x13
 3249 02e9 00       		.byte	0
ARM GAS  C:\Users\DEVELO~1\AppData\Local\Temp\ccB976pz.s 			page 58


 3250 02ea 00       		.byte	0
 3251 02eb 30       		.uleb128 0x30
 3252 02ec 15       		.uleb128 0x15
 3253 02ed 01       		.byte	0x1
 3254 02ee 27       		.uleb128 0x27
 3255 02ef 19       		.uleb128 0x19
 3256 02f0 01       		.uleb128 0x1
 3257 02f1 13       		.uleb128 0x13
 3258 02f2 00       		.byte	0
 3259 02f3 00       		.byte	0
 3260 02f4 31       		.uleb128 0x31
 3261 02f5 17       		.uleb128 0x17
 3262 02f6 01       		.byte	0x1
 3263 02f7 0B       		.uleb128 0xb
 3264 02f8 0B       		.uleb128 0xb
 3265 02f9 3A       		.uleb128 0x3a
 3266 02fa 0B       		.uleb128 0xb
 3267 02fb 3B       		.uleb128 0x3b
 3268 02fc 05       		.uleb128 0x5
 3269 02fd 39       		.uleb128 0x39
 3270 02fe 0B       		.uleb128 0xb
 3271 02ff 01       		.uleb128 0x1
 3272 0300 13       		.uleb128 0x13
 3273 0301 00       		.byte	0
 3274 0302 00       		.byte	0
 3275 0303 32       		.uleb128 0x32
 3276 0304 34       		.uleb128 0x34
 3277 0305 00       		.byte	0
 3278 0306 03       		.uleb128 0x3
 3279 0307 08       		.uleb128 0x8
 3280 0308 3A       		.uleb128 0x3a
 3281 0309 0B       		.uleb128 0xb
 3282 030a 3B       		.uleb128 0x3b
 3283 030b 05       		.uleb128 0x5
 3284 030c 39       		.uleb128 0x39
 3285 030d 0B       		.uleb128 0xb
 3286 030e 49       		.uleb128 0x49
 3287 030f 13       		.uleb128 0x13
 3288 0310 3F       		.uleb128 0x3f
 3289 0311 19       		.uleb128 0x19
 3290 0312 3C       		.uleb128 0x3c
 3291 0313 19       		.uleb128 0x19
 3292 0314 00       		.byte	0
 3293 0315 00       		.byte	0
 3294 0316 33       		.uleb128 0x33
 3295 0317 2E       		.uleb128 0x2e
 3296 0318 01       		.byte	0x1
 3297 0319 3F       		.uleb128 0x3f
 3298 031a 19       		.uleb128 0x19
 3299 031b 03       		.uleb128 0x3
 3300 031c 0E       		.uleb128 0xe
 3301 031d 3A       		.uleb128 0x3a
 3302 031e 0B       		.uleb128 0xb
 3303 031f 3B       		.uleb128 0x3b
 3304 0320 0B       		.uleb128 0xb
 3305 0321 39       		.uleb128 0x39
 3306 0322 0B       		.uleb128 0xb
ARM GAS  C:\Users\DEVELO~1\AppData\Local\Temp\ccB976pz.s 			page 59


 3307 0323 27       		.uleb128 0x27
 3308 0324 19       		.uleb128 0x19
 3309 0325 11       		.uleb128 0x11
 3310 0326 01       		.uleb128 0x1
 3311 0327 12       		.uleb128 0x12
 3312 0328 06       		.uleb128 0x6
 3313 0329 40       		.uleb128 0x40
 3314 032a 18       		.uleb128 0x18
 3315 032b 7A       		.uleb128 0x7a
 3316 032c 19       		.uleb128 0x19
 3317 032d 01       		.uleb128 0x1
 3318 032e 13       		.uleb128 0x13
 3319 032f 00       		.byte	0
 3320 0330 00       		.byte	0
 3321 0331 34       		.uleb128 0x34
 3322 0332 1D       		.uleb128 0x1d
 3323 0333 01       		.byte	0x1
 3324 0334 31       		.uleb128 0x31
 3325 0335 13       		.uleb128 0x13
 3326 0336 52       		.uleb128 0x52
 3327 0337 01       		.uleb128 0x1
 3328 0338 B842     		.uleb128 0x2138
 3329 033a 0B       		.uleb128 0xb
 3330 033b 11       		.uleb128 0x11
 3331 033c 01       		.uleb128 0x1
 3332 033d 12       		.uleb128 0x12
 3333 033e 06       		.uleb128 0x6
 3334 033f 58       		.uleb128 0x58
 3335 0340 0B       		.uleb128 0xb
 3336 0341 59       		.uleb128 0x59
 3337 0342 0B       		.uleb128 0xb
 3338 0343 57       		.uleb128 0x57
 3339 0344 0B       		.uleb128 0xb
 3340 0345 00       		.byte	0
 3341 0346 00       		.byte	0
 3342 0347 35       		.uleb128 0x35
 3343 0348 34       		.uleb128 0x34
 3344 0349 00       		.byte	0
 3345 034a 03       		.uleb128 0x3
 3346 034b 08       		.uleb128 0x8
 3347 034c 3A       		.uleb128 0x3a
 3348 034d 0B       		.uleb128 0xb
 3349 034e 3B       		.uleb128 0x3b
 3350 034f 0B       		.uleb128 0xb
 3351 0350 39       		.uleb128 0x39
 3352 0351 0B       		.uleb128 0xb
 3353 0352 49       		.uleb128 0x49
 3354 0353 13       		.uleb128 0x13
 3355 0354 02       		.uleb128 0x2
 3356 0355 17       		.uleb128 0x17
 3357 0356 B742     		.uleb128 0x2137
 3358 0358 17       		.uleb128 0x17
 3359 0359 00       		.byte	0
 3360 035a 00       		.byte	0
 3361 035b 36       		.uleb128 0x36
 3362 035c 1D       		.uleb128 0x1d
 3363 035d 00       		.byte	0
ARM GAS  C:\Users\DEVELO~1\AppData\Local\Temp\ccB976pz.s 			page 60


 3364 035e 31       		.uleb128 0x31
 3365 035f 13       		.uleb128 0x13
 3366 0360 52       		.uleb128 0x52
 3367 0361 01       		.uleb128 0x1
 3368 0362 B842     		.uleb128 0x2138
 3369 0364 0B       		.uleb128 0xb
 3370 0365 11       		.uleb128 0x11
 3371 0366 01       		.uleb128 0x1
 3372 0367 12       		.uleb128 0x12
 3373 0368 06       		.uleb128 0x6
 3374 0369 58       		.uleb128 0x58
 3375 036a 0B       		.uleb128 0xb
 3376 036b 59       		.uleb128 0x59
 3377 036c 0B       		.uleb128 0xb
 3378 036d 57       		.uleb128 0x57
 3379 036e 0B       		.uleb128 0xb
 3380 036f 00       		.byte	0
 3381 0370 00       		.byte	0
 3382 0371 37       		.uleb128 0x37
 3383 0372 1D       		.uleb128 0x1d
 3384 0373 01       		.byte	0x1
 3385 0374 31       		.uleb128 0x31
 3386 0375 13       		.uleb128 0x13
 3387 0376 52       		.uleb128 0x52
 3388 0377 01       		.uleb128 0x1
 3389 0378 B842     		.uleb128 0x2138
 3390 037a 0B       		.uleb128 0xb
 3391 037b 55       		.uleb128 0x55
 3392 037c 17       		.uleb128 0x17
 3393 037d 58       		.uleb128 0x58
 3394 037e 0B       		.uleb128 0xb
 3395 037f 59       		.uleb128 0x59
 3396 0380 0B       		.uleb128 0xb
 3397 0381 57       		.uleb128 0x57
 3398 0382 0B       		.uleb128 0xb
 3399 0383 00       		.byte	0
 3400 0384 00       		.byte	0
 3401 0385 38       		.uleb128 0x38
 3402 0386 05       		.uleb128 0x5
 3403 0387 00       		.byte	0
 3404 0388 03       		.uleb128 0x3
 3405 0389 0E       		.uleb128 0xe
 3406 038a 3A       		.uleb128 0x3a
 3407 038b 0B       		.uleb128 0xb
 3408 038c 3B       		.uleb128 0x3b
 3409 038d 0B       		.uleb128 0xb
 3410 038e 39       		.uleb128 0x39
 3411 038f 0B       		.uleb128 0xb
 3412 0390 49       		.uleb128 0x49
 3413 0391 13       		.uleb128 0x13
 3414 0392 02       		.uleb128 0x2
 3415 0393 17       		.uleb128 0x17
 3416 0394 B742     		.uleb128 0x2137
 3417 0396 17       		.uleb128 0x17
 3418 0397 00       		.byte	0
 3419 0398 00       		.byte	0
 3420 0399 39       		.uleb128 0x39
ARM GAS  C:\Users\DEVELO~1\AppData\Local\Temp\ccB976pz.s 			page 61


 3421 039a 48       		.uleb128 0x48
 3422 039b 01       		.byte	0x1
 3423 039c 7D       		.uleb128 0x7d
 3424 039d 01       		.uleb128 0x1
 3425 039e 7F       		.uleb128 0x7f
 3426 039f 13       		.uleb128 0x13
 3427 03a0 01       		.uleb128 0x1
 3428 03a1 13       		.uleb128 0x13
 3429 03a2 00       		.byte	0
 3430 03a3 00       		.byte	0
 3431 03a4 3A       		.uleb128 0x3a
 3432 03a5 48       		.uleb128 0x48
 3433 03a6 00       		.byte	0
 3434 03a7 7D       		.uleb128 0x7d
 3435 03a8 01       		.uleb128 0x1
 3436 03a9 7F       		.uleb128 0x7f
 3437 03aa 13       		.uleb128 0x13
 3438 03ab 00       		.byte	0
 3439 03ac 00       		.byte	0
 3440 03ad 3B       		.uleb128 0x3b
 3441 03ae 2E       		.uleb128 0x2e
 3442 03af 01       		.byte	0x1
 3443 03b0 03       		.uleb128 0x3
 3444 03b1 0E       		.uleb128 0xe
 3445 03b2 3A       		.uleb128 0x3a
 3446 03b3 0B       		.uleb128 0xb
 3447 03b4 3B       		.uleb128 0x3b
 3448 03b5 0B       		.uleb128 0xb
 3449 03b6 39       		.uleb128 0x39
 3450 03b7 0B       		.uleb128 0xb
 3451 03b8 27       		.uleb128 0x27
 3452 03b9 19       		.uleb128 0x19
 3453 03ba 20       		.uleb128 0x20
 3454 03bb 0B       		.uleb128 0xb
 3455 03bc 01       		.uleb128 0x1
 3456 03bd 13       		.uleb128 0x13
 3457 03be 00       		.byte	0
 3458 03bf 00       		.byte	0
 3459 03c0 3C       		.uleb128 0x3c
 3460 03c1 2E       		.uleb128 0x2e
 3461 03c2 01       		.byte	0x1
 3462 03c3 03       		.uleb128 0x3
 3463 03c4 0E       		.uleb128 0xe
 3464 03c5 3A       		.uleb128 0x3a
 3465 03c6 0B       		.uleb128 0xb
 3466 03c7 3B       		.uleb128 0x3b
 3467 03c8 0B       		.uleb128 0xb
 3468 03c9 39       		.uleb128 0x39
 3469 03ca 0B       		.uleb128 0xb
 3470 03cb 27       		.uleb128 0x27
 3471 03cc 19       		.uleb128 0x19
 3472 03cd 49       		.uleb128 0x49
 3473 03ce 13       		.uleb128 0x13
 3474 03cf 20       		.uleb128 0x20
 3475 03d0 0B       		.uleb128 0xb
 3476 03d1 01       		.uleb128 0x1
 3477 03d2 13       		.uleb128 0x13
ARM GAS  C:\Users\DEVELO~1\AppData\Local\Temp\ccB976pz.s 			page 62


 3478 03d3 00       		.byte	0
 3479 03d4 00       		.byte	0
 3480 03d5 3D       		.uleb128 0x3d
 3481 03d6 2E       		.uleb128 0x2e
 3482 03d7 00       		.byte	0
 3483 03d8 03       		.uleb128 0x3
 3484 03d9 0E       		.uleb128 0xe
 3485 03da 3A       		.uleb128 0x3a
 3486 03db 0B       		.uleb128 0xb
 3487 03dc 3B       		.uleb128 0x3b
 3488 03dd 05       		.uleb128 0x5
 3489 03de 39       		.uleb128 0x39
 3490 03df 0B       		.uleb128 0xb
 3491 03e0 27       		.uleb128 0x27
 3492 03e1 19       		.uleb128 0x19
 3493 03e2 49       		.uleb128 0x49
 3494 03e3 13       		.uleb128 0x13
 3495 03e4 20       		.uleb128 0x20
 3496 03e5 0B       		.uleb128 0xb
 3497 03e6 00       		.byte	0
 3498 03e7 00       		.byte	0
 3499 03e8 3E       		.uleb128 0x3e
 3500 03e9 2E       		.uleb128 0x2e
 3501 03ea 01       		.byte	0x1
 3502 03eb 03       		.uleb128 0x3
 3503 03ec 0E       		.uleb128 0xe
 3504 03ed 3A       		.uleb128 0x3a
 3505 03ee 0B       		.uleb128 0xb
 3506 03ef 3B       		.uleb128 0x3b
 3507 03f0 05       		.uleb128 0x5
 3508 03f1 39       		.uleb128 0x39
 3509 03f2 0B       		.uleb128 0xb
 3510 03f3 27       		.uleb128 0x27
 3511 03f4 19       		.uleb128 0x19
 3512 03f5 49       		.uleb128 0x49
 3513 03f6 13       		.uleb128 0x13
 3514 03f7 20       		.uleb128 0x20
 3515 03f8 0B       		.uleb128 0xb
 3516 03f9 01       		.uleb128 0x1
 3517 03fa 13       		.uleb128 0x13
 3518 03fb 00       		.byte	0
 3519 03fc 00       		.byte	0
 3520 03fd 3F       		.uleb128 0x3f
 3521 03fe 34       		.uleb128 0x34
 3522 03ff 00       		.byte	0
 3523 0400 03       		.uleb128 0x3
 3524 0401 08       		.uleb128 0x8
 3525 0402 3A       		.uleb128 0x3a
 3526 0403 0B       		.uleb128 0xb
 3527 0404 3B       		.uleb128 0x3b
 3528 0405 05       		.uleb128 0x5
 3529 0406 39       		.uleb128 0x39
 3530 0407 0B       		.uleb128 0xb
 3531 0408 49       		.uleb128 0x49
 3532 0409 13       		.uleb128 0x13
 3533 040a 00       		.byte	0
 3534 040b 00       		.byte	0
ARM GAS  C:\Users\DEVELO~1\AppData\Local\Temp\ccB976pz.s 			page 63


 3535 040c 40       		.uleb128 0x40
 3536 040d 2E       		.uleb128 0x2e
 3537 040e 01       		.byte	0x1
 3538 040f 03       		.uleb128 0x3
 3539 0410 0E       		.uleb128 0xe
 3540 0411 3A       		.uleb128 0x3a
 3541 0412 0B       		.uleb128 0xb
 3542 0413 3B       		.uleb128 0x3b
 3543 0414 05       		.uleb128 0x5
 3544 0415 39       		.uleb128 0x39
 3545 0416 0B       		.uleb128 0xb
 3546 0417 27       		.uleb128 0x27
 3547 0418 19       		.uleb128 0x19
 3548 0419 20       		.uleb128 0x20
 3549 041a 0B       		.uleb128 0xb
 3550 041b 00       		.byte	0
 3551 041c 00       		.byte	0
 3552 041d 41       		.uleb128 0x41
 3553 041e 05       		.uleb128 0x5
 3554 041f 00       		.byte	0
 3555 0420 03       		.uleb128 0x3
 3556 0421 0E       		.uleb128 0xe
 3557 0422 3A       		.uleb128 0x3a
 3558 0423 0B       		.uleb128 0xb
 3559 0424 3B       		.uleb128 0x3b
 3560 0425 05       		.uleb128 0x5
 3561 0426 39       		.uleb128 0x39
 3562 0427 0B       		.uleb128 0xb
 3563 0428 49       		.uleb128 0x49
 3564 0429 13       		.uleb128 0x13
 3565 042a 00       		.byte	0
 3566 042b 00       		.byte	0
 3567 042c 00       		.byte	0
 3568              		.section	.debug_loclists,"",%progbits
 3569 0000 E0010000 		.4byte	.Ldebug_loc3-.Ldebug_loc2
 3570              	.Ldebug_loc2:
 3571 0004 0500     		.2byte	0x5
 3572 0006 04       		.byte	0x4
 3573 0007 00       		.byte	0
 3574 0008 00000000 		.4byte	0
 3575              	.Ldebug_loc0:
 3576              	.LVUS29:
 3577 000c 00       		.uleb128 0
 3578 000d 00       		.uleb128 .LVU185
 3579 000e 00       		.uleb128 .LVU185
 3580 000f 00       		.uleb128 0
 3581              	.LLST29:
 3582 0010 06       		.byte	0x6
 3583 0011 00000000 		.4byte	.LVL32
 3584 0015 04       		.byte	0x4
 3585 0016 00       		.uleb128 .LVL32-.LVL32
 3586 0017 0B       		.uleb128 .LVL34-1-.LVL32
 3587 0018 01       		.uleb128 0x1
 3588 0019 50       		.byte	0x50
 3589 001a 04       		.byte	0x4
 3590 001b 0B       		.uleb128 .LVL34-1-.LVL32
 3591 001c 14       		.uleb128 .LFE356-.LVL32
ARM GAS  C:\Users\DEVELO~1\AppData\Local\Temp\ccB976pz.s 			page 64


 3592 001d 04       		.uleb128 0x4
 3593 001e A3       		.byte	0xa3
 3594 001f 01       		.uleb128 0x1
 3595 0020 50       		.byte	0x50
 3596 0021 9F       		.byte	0x9f
 3597 0022 00       		.byte	0
 3598              	.LVUS30:
 3599 0023 00       		.uleb128 0
 3600 0024 00       		.uleb128 .LVU185
 3601 0025 00       		.uleb128 .LVU185
 3602 0026 00       		.uleb128 0
 3603              	.LLST30:
 3604 0027 06       		.byte	0x6
 3605 0028 00000000 		.4byte	.LVL32
 3606 002c 04       		.byte	0x4
 3607 002d 00       		.uleb128 .LVL32-.LVL32
 3608 002e 0B       		.uleb128 .LVL34-1-.LVL32
 3609 002f 01       		.uleb128 0x1
 3610 0030 51       		.byte	0x51
 3611 0031 04       		.byte	0x4
 3612 0032 0B       		.uleb128 .LVL34-1-.LVL32
 3613 0033 14       		.uleb128 .LFE356-.LVL32
 3614 0034 04       		.uleb128 0x4
 3615 0035 A3       		.byte	0xa3
 3616 0036 01       		.uleb128 0x1
 3617 0037 51       		.byte	0x51
 3618 0038 9F       		.byte	0x9f
 3619 0039 00       		.byte	0
 3620              	.LVUS32:
 3621 003a 06       		.uleb128 .LVU171
 3622 003b 00       		.uleb128 .LVU175
 3623              	.LLST32:
 3624 003c 08       		.byte	0x8
 3625 003d 00000000 		.4byte	.LVL32
 3626 0041 08       		.uleb128 .LVL33-.LVL32
 3627 0042 03       		.uleb128 0x3
 3628 0043 08       		.byte	0x8
 3629 0044 30       		.byte	0x30
 3630 0045 9F       		.byte	0x9f
 3631 0046 00       		.byte	0
 3632              	.LVUS33:
 3633 0047 07       		.uleb128 .LVU182
 3634 0048 00       		.uleb128 .LVU185
 3635 0049 00       		.uleb128 .LVU185
 3636 004a 00       		.uleb128 .LVU185
 3637              	.LLST33:
 3638 004b 06       		.byte	0x6
 3639 004c 08000000 		.4byte	.LVL33
 3640 0050 04       		.byte	0x4
 3641 0051 00       		.uleb128 .LVL33-.LVL33
 3642 0052 03       		.uleb128 .LVL34-1-.LVL33
 3643 0053 01       		.uleb128 0x1
 3644 0054 51       		.byte	0x51
 3645 0055 04       		.byte	0x4
 3646 0056 03       		.uleb128 .LVL34-1-.LVL33
 3647 0057 04       		.uleb128 .LVL34-.LVL33
 3648 0058 04       		.uleb128 0x4
ARM GAS  C:\Users\DEVELO~1\AppData\Local\Temp\ccB976pz.s 			page 65


 3649 0059 A3       		.byte	0xa3
 3650 005a 01       		.uleb128 0x1
 3651 005b 51       		.byte	0x51
 3652 005c 9F       		.byte	0x9f
 3653 005d 00       		.byte	0
 3654              	.LVUS34:
 3655 005e 07       		.uleb128 .LVU182
 3656 005f 00       		.uleb128 .LVU185
 3657 0060 00       		.uleb128 .LVU185
 3658 0061 00       		.uleb128 .LVU185
 3659              	.LLST34:
 3660 0062 06       		.byte	0x6
 3661 0063 08000000 		.4byte	.LVL33
 3662 0067 04       		.byte	0x4
 3663 0068 00       		.uleb128 .LVL33-.LVL33
 3664 0069 03       		.uleb128 .LVL34-1-.LVL33
 3665 006a 01       		.uleb128 0x1
 3666 006b 50       		.byte	0x50
 3667 006c 04       		.byte	0x4
 3668 006d 03       		.uleb128 .LVL34-1-.LVL33
 3669 006e 04       		.uleb128 .LVL34-.LVL33
 3670 006f 04       		.uleb128 0x4
 3671 0070 A3       		.byte	0xa3
 3672 0071 01       		.uleb128 0x1
 3673 0072 50       		.byte	0x50
 3674 0073 9F       		.byte	0x9f
 3675 0074 00       		.byte	0
 3676              	.LVUS35:
 3677 0075 0B       		.uleb128 .LVU196
 3678 0076 00       		.uleb128 .LVU198
 3679              	.LLST35:
 3680 0077 08       		.byte	0x8
 3681 0078 0C000000 		.4byte	.LVL34
 3682 007c 06       		.uleb128 .LVL35-.LVL34
 3683 007d 02       		.uleb128 0x2
 3684 007e 30       		.byte	0x30
 3685 007f 9F       		.byte	0x9f
 3686 0080 00       		.byte	0
 3687              	.LVUS23:
 3688 0081 00       		.uleb128 .LVU140
 3689 0082 00       		.uleb128 0
 3690              	.LLST23:
 3691 0083 08       		.byte	0x8
 3692 0084 04000000 		.4byte	.LVL27
 3693 0088 24       		.uleb128 .LFE355-.LVL27
 3694 0089 01       		.uleb128 0x1
 3695 008a 52       		.byte	0x52
 3696 008b 00       		.byte	0
 3697              	.LVUS24:
 3698 008c 02       		.uleb128 .LVU142
 3699 008d 01       		.uleb128 .LVU159
 3700 008e 01       		.uleb128 .LVU159
 3701 008f 00       		.uleb128 .LVU162
 3702 0090 00       		.uleb128 .LVU162
 3703 0091 00       		.uleb128 0
 3704              	.LLST24:
 3705 0092 06       		.byte	0x6
ARM GAS  C:\Users\DEVELO~1\AppData\Local\Temp\ccB976pz.s 			page 66


 3706 0093 04000000 		.4byte	.LVL27
 3707 0097 04       		.byte	0x4
 3708 0098 00       		.uleb128 .LVL27-.LVL27
 3709 0099 14       		.uleb128 .LVL30-.LVL27
 3710 009a 02       		.uleb128 0x2
 3711 009b 30       		.byte	0x30
 3712 009c 9F       		.byte	0x9f
 3713 009d 04       		.byte	0x4
 3714 009e 14       		.uleb128 .LVL30-.LVL27
 3715 009f 1A       		.uleb128 .LVL31-.LVL27
 3716 00a0 01       		.uleb128 0x1
 3717 00a1 50       		.byte	0x50
 3718 00a2 04       		.byte	0x4
 3719 00a3 1A       		.uleb128 .LVL31-.LVL27
 3720 00a4 24       		.uleb128 .LFE355-.LVL27
 3721 00a5 02       		.uleb128 0x2
 3722 00a6 30       		.byte	0x30
 3723 00a7 9F       		.byte	0x9f
 3724 00a8 00       		.byte	0
 3725              	.LVUS25:
 3726 00a9 03       		.uleb128 .LVU143
 3727 00aa 00       		.uleb128 .LVU147
 3728              	.LLST25:
 3729 00ab 08       		.byte	0x8
 3730 00ac 04000000 		.4byte	.LVL27
 3731 00b0 06       		.uleb128 .LVL28-.LVL27
 3732 00b1 01       		.uleb128 0x1
 3733 00b2 52       		.byte	0x52
 3734 00b3 00       		.byte	0
 3735              	.LVUS27:
 3736 00b4 01       		.uleb128 .LVU150
 3737 00b5 01       		.uleb128 .LVU159
 3738              	.LLST27:
 3739 00b6 08       		.byte	0x8
 3740 00b7 0E000000 		.4byte	.LVL29
 3741 00bb 0A       		.uleb128 .LVL30-.LVL29
 3742 00bc 01       		.uleb128 0x1
 3743 00bd 53       		.byte	0x53
 3744 00be 00       		.byte	0
 3745              	.LVUS28:
 3746 00bf 03       		.uleb128 .LVU152
 3747 00c0 01       		.uleb128 .LVU159
 3748              	.LLST28:
 3749 00c1 08       		.byte	0x8
 3750 00c2 0E000000 		.4byte	.LVL29
 3751 00c6 0A       		.uleb128 .LVL30-.LVL29
 3752 00c7 01       		.uleb128 0x1
 3753 00c8 50       		.byte	0x50
 3754 00c9 00       		.byte	0
 3755              	.LVUS16:
 3756 00ca 00       		.uleb128 0
 3757 00cb 00       		.uleb128 .LVU110
 3758 00cc 00       		.uleb128 .LVU110
 3759 00cd 00       		.uleb128 .LVU112
 3760 00ce 00       		.uleb128 .LVU112
 3761 00cf 00       		.uleb128 .LVU127
 3762 00d0 00       		.uleb128 .LVU127
ARM GAS  C:\Users\DEVELO~1\AppData\Local\Temp\ccB976pz.s 			page 67


 3763 00d1 00       		.uleb128 .LVU129
 3764 00d2 00       		.uleb128 .LVU129
 3765 00d3 00       		.uleb128 0
 3766              	.LLST16:
 3767 00d4 06       		.byte	0x6
 3768 00d5 00000000 		.4byte	.LVL18
 3769 00d9 04       		.byte	0x4
 3770 00da 00       		.uleb128 .LVL18-.LVL18
 3771 00db 0E       		.uleb128 .LVL20-.LVL18
 3772 00dc 01       		.uleb128 0x1
 3773 00dd 50       		.byte	0x50
 3774 00de 04       		.byte	0x4
 3775 00df 0E       		.uleb128 .LVL20-.LVL18
 3776 00e0 12       		.uleb128 .LVL21-.LVL18
 3777 00e1 01       		.uleb128 0x1
 3778 00e2 51       		.byte	0x51
 3779 00e3 04       		.byte	0x4
 3780 00e4 12       		.uleb128 .LVL21-.LVL18
 3781 00e5 1E       		.uleb128 .LVL24-.LVL18
 3782 00e6 04       		.uleb128 0x4
 3783 00e7 A3       		.byte	0xa3
 3784 00e8 01       		.uleb128 0x1
 3785 00e9 50       		.byte	0x50
 3786 00ea 9F       		.byte	0x9f
 3787 00eb 04       		.byte	0x4
 3788 00ec 1E       		.uleb128 .LVL24-.LVL18
 3789 00ed 23       		.uleb128 .LVL25-1-.LVL18
 3790 00ee 01       		.uleb128 0x1
 3791 00ef 51       		.byte	0x51
 3792 00f0 04       		.byte	0x4
 3793 00f1 23       		.uleb128 .LVL25-1-.LVL18
 3794 00f2 34       		.uleb128 .LFE354-.LVL18
 3795 00f3 04       		.uleb128 0x4
 3796 00f4 A3       		.byte	0xa3
 3797 00f5 01       		.uleb128 0x1
 3798 00f6 50       		.byte	0x50
 3799 00f7 9F       		.byte	0x9f
 3800 00f8 00       		.byte	0
 3801              	.LVUS17:
 3802 00f9 00       		.uleb128 .LVU102
 3803 00fa 00       		.uleb128 .LVU134
 3804              	.LLST17:
 3805 00fb 08       		.byte	0x8
 3806 00fc 08000000 		.4byte	.LVL19
 3807 0100 26       		.uleb128 .LVL26-.LVL19
 3808 0101 01       		.uleb128 0x1
 3809 0102 55       		.byte	0x55
 3810 0103 00       		.byte	0
 3811              	.LVUS19:
 3812 0104 04       		.uleb128 .LVU106
 3813 0105 00       		.uleb128 .LVU110
 3814              	.LLST19:
 3815 0106 08       		.byte	0x8
 3816 0107 08000000 		.4byte	.LVL19
 3817 010b 06       		.uleb128 .LVL20-.LVL19
 3818 010c 01       		.uleb128 0x1
 3819 010d 55       		.byte	0x55
ARM GAS  C:\Users\DEVELO~1\AppData\Local\Temp\ccB976pz.s 			page 68


 3820 010e 00       		.byte	0
 3821              	.LVUS21:
 3822 010f 01       		.uleb128 .LVU113
 3823 0110 01       		.uleb128 .LVU122
 3824              	.LLST21:
 3825 0111 08       		.byte	0x8
 3826 0112 12000000 		.4byte	.LVL21
 3827 0116 08       		.uleb128 .LVL23-.LVL21
 3828 0117 01       		.uleb128 0x1
 3829 0118 54       		.byte	0x54
 3830 0119 00       		.byte	0
 3831              	.LVUS22:
 3832 011a 03       		.uleb128 .LVU115
 3833 011b 00       		.uleb128 .LVU119
 3834              	.LLST22:
 3835 011c 08       		.byte	0x8
 3836 011d 12000000 		.4byte	.LVL21
 3837 0121 06       		.uleb128 .LVL22-.LVL21
 3838 0122 02       		.uleb128 0x2
 3839 0123 75       		.byte	0x75
 3840 0124 3C       		.sleb128 60
 3841 0125 00       		.byte	0
 3842              	.LVUS10:
 3843 0126 00       		.uleb128 .LVU67
 3844 0127 00       		.uleb128 0
 3845              	.LLST10:
 3846 0128 08       		.byte	0x8
 3847 0129 06000000 		.4byte	.LVL11
 3848 012d 26       		.uleb128 .LFE353-.LVL11
 3849 012e 01       		.uleb128 0x1
 3850 012f 55       		.byte	0x55
 3851 0130 00       		.byte	0
 3852              	.LVUS12:
 3853 0131 04       		.uleb128 .LVU71
 3854 0132 00       		.uleb128 .LVU75
 3855              	.LLST12:
 3856 0133 08       		.byte	0x8
 3857 0134 06000000 		.4byte	.LVL11
 3858 0138 06       		.uleb128 .LVL12-.LVL11
 3859 0139 01       		.uleb128 0x1
 3860 013a 55       		.byte	0x55
 3861 013b 00       		.byte	0
 3862              	.LVUS14:
 3863 013c 01       		.uleb128 .LVU78
 3864 013d 01       		.uleb128 .LVU87
 3865              	.LLST14:
 3866 013e 08       		.byte	0x8
 3867 013f 10000000 		.4byte	.LVL13
 3868 0143 08       		.uleb128 .LVL15-.LVL13
 3869 0144 01       		.uleb128 0x1
 3870 0145 54       		.byte	0x54
 3871 0146 00       		.byte	0
 3872              	.LVUS15:
 3873 0147 03       		.uleb128 .LVU80
 3874 0148 00       		.uleb128 .LVU84
 3875              	.LLST15:
 3876 0149 08       		.byte	0x8
ARM GAS  C:\Users\DEVELO~1\AppData\Local\Temp\ccB976pz.s 			page 69


 3877 014a 10000000 		.4byte	.LVL13
 3878 014e 06       		.uleb128 .LVL14-.LVL13
 3879 014f 02       		.uleb128 0x2
 3880 0150 75       		.byte	0x75
 3881 0151 3C       		.sleb128 60
 3882 0152 00       		.byte	0
 3883              	.LVUS0:
 3884 0153 00       		.uleb128 0
 3885 0154 00       		.uleb128 .LVU40
 3886 0155 00       		.uleb128 .LVU40
 3887 0156 00       		.uleb128 .LVU58
 3888 0157 00       		.uleb128 .LVU58
 3889 0158 00       		.uleb128 .LVU60
 3890 0159 00       		.uleb128 .LVU60
 3891 015a 00       		.uleb128 0
 3892              	.LLST0:
 3893 015b 06       		.byte	0x6
 3894 015c 00000000 		.4byte	.LVL0
 3895 0160 04       		.byte	0x4
 3896 0161 00       		.uleb128 .LVL0-.LVL0
 3897 0162 22       		.uleb128 .LVL5-.LVL0
 3898 0163 01       		.uleb128 0x1
 3899 0164 50       		.byte	0x50
 3900 0165 04       		.byte	0x4
 3901 0166 22       		.uleb128 .LVL5-.LVL0
 3902 0167 32       		.uleb128 .LVL9-.LVL0
 3903 0168 03       		.uleb128 0x3
 3904 0169 75       		.byte	0x75
 3905 016a 44       		.sleb128 -60
 3906 016b 9F       		.byte	0x9f
 3907 016c 04       		.byte	0x4
 3908 016d 32       		.uleb128 .LVL9-.LVL0
 3909 016e 35       		.uleb128 .LVL10-1-.LVL0
 3910 016f 01       		.uleb128 0x1
 3911 0170 50       		.byte	0x50
 3912 0171 04       		.byte	0x4
 3913 0172 35       		.uleb128 .LVL10-1-.LVL0
 3914 0173 3C       		.uleb128 .LFE352-.LVL0
 3915 0174 03       		.uleb128 0x3
 3916 0175 75       		.byte	0x75
 3917 0176 44       		.sleb128 -60
 3918 0177 9F       		.byte	0x9f
 3919 0178 00       		.byte	0
 3920              	.LVUS1:
 3921 0179 00       		.uleb128 0
 3922 017a 00       		.uleb128 .LVU40
 3923 017b 00       		.uleb128 .LVU40
 3924 017c 00       		.uleb128 .LVU43
 3925 017d 00       		.uleb128 .LVU43
 3926 017e 00       		.uleb128 .LVU58
 3927 017f 00       		.uleb128 .LVU58
 3928 0180 00       		.uleb128 .LVU60
 3929 0181 00       		.uleb128 .LVU60
 3930 0182 00       		.uleb128 0
 3931              	.LLST1:
 3932 0183 06       		.byte	0x6
 3933 0184 00000000 		.4byte	.LVL0
ARM GAS  C:\Users\DEVELO~1\AppData\Local\Temp\ccB976pz.s 			page 70


 3934 0188 04       		.byte	0x4
 3935 0189 00       		.uleb128 .LVL0-.LVL0
 3936 018a 22       		.uleb128 .LVL5-.LVL0
 3937 018b 01       		.uleb128 0x1
 3938 018c 51       		.byte	0x51
 3939 018d 04       		.byte	0x4
 3940 018e 22       		.uleb128 .LVL5-.LVL0
 3941 018f 2A       		.uleb128 .LVL7-.LVL0
 3942 0190 04       		.uleb128 0x4
 3943 0191 A3       		.byte	0xa3
 3944 0192 01       		.uleb128 0x1
 3945 0193 51       		.byte	0x51
 3946 0194 9F       		.byte	0x9f
 3947 0195 04       		.byte	0x4
 3948 0196 2A       		.uleb128 .LVL7-.LVL0
 3949 0197 32       		.uleb128 .LVL9-.LVL0
 3950 0198 01       		.uleb128 0x1
 3951 0199 50       		.byte	0x50
 3952 019a 04       		.byte	0x4
 3953 019b 32       		.uleb128 .LVL9-.LVL0
 3954 019c 35       		.uleb128 .LVL10-1-.LVL0
 3955 019d 01       		.uleb128 0x1
 3956 019e 51       		.byte	0x51
 3957 019f 04       		.byte	0x4
 3958 01a0 35       		.uleb128 .LVL10-1-.LVL0
 3959 01a1 3C       		.uleb128 .LFE352-.LVL0
 3960 01a2 04       		.uleb128 0x4
 3961 01a3 A3       		.byte	0xa3
 3962 01a4 01       		.uleb128 0x1
 3963 01a5 51       		.byte	0x51
 3964 01a6 9F       		.byte	0x9f
 3965 01a7 00       		.byte	0
 3966              	.LVUS2:
 3967 01a8 00       		.uleb128 .LVU8
 3968 01a9 00       		.uleb128 0
 3969              	.LLST2:
 3970 01aa 08       		.byte	0x8
 3971 01ab 08000000 		.4byte	.LVL1
 3972 01af 34       		.uleb128 .LFE352-.LVL1
 3973 01b0 01       		.uleb128 0x1
 3974 01b1 54       		.byte	0x54
 3975 01b2 00       		.byte	0
 3976              	.LVUS5:
 3977 01b3 09       		.uleb128 .LVU17
 3978 01b4 00       		.uleb128 .LVU19
 3979              	.LLST5:
 3980 01b5 08       		.byte	0x8
 3981 01b6 08000000 		.4byte	.LVL1
 3982 01ba 04       		.uleb128 .LVL2-.LVL1
 3983 01bb 03       		.uleb128 0x3
 3984 01bc 08       		.byte	0x8
 3985 01bd 30       		.byte	0x30
 3986 01be 9F       		.byte	0x9f
 3987 01bf 00       		.byte	0
 3988              	.LVUS7:
 3989 01c0 01       		.uleb128 .LVU27
 3990 01c1 00       		.uleb128 .LVU37
ARM GAS  C:\Users\DEVELO~1\AppData\Local\Temp\ccB976pz.s 			page 71


 3991              	.LLST7:
 3992 01c2 08       		.byte	0x8
 3993 01c3 14000000 		.4byte	.LVL3
 3994 01c7 0A       		.uleb128 .LVL4-.LVL3
 3995 01c8 01       		.uleb128 0x1
 3996 01c9 54       		.byte	0x54
 3997 01ca 00       		.byte	0
 3998              	.LVUS8:
 3999 01cb 01       		.uleb128 .LVU27
 4000 01cc 00       		.uleb128 .LVU37
 4001              	.LLST8:
 4002 01cd 08       		.byte	0x8
 4003 01ce 14000000 		.4byte	.LVL3
 4004 01d2 0A       		.uleb128 .LVL4-.LVL3
 4005 01d3 03       		.uleb128 0x3
 4006 01d4 73       		.byte	0x73
 4007 01d5 3C       		.sleb128 60
 4008 01d6 9F       		.byte	0x9f
 4009 01d7 00       		.byte	0
 4010              	.LVUS9:
 4011 01d8 0A       		.uleb128 .LVU53
 4012 01d9 00       		.uleb128 .LVU55
 4013              	.LLST9:
 4014 01da 08       		.byte	0x8
 4015 01db 2A000000 		.4byte	.LVL7
 4016 01df 06       		.uleb128 .LVL8-.LVL7
 4017 01e0 02       		.uleb128 0x2
 4018 01e1 30       		.byte	0x30
 4019 01e2 9F       		.byte	0x9f
 4020 01e3 00       		.byte	0
 4021              	.Ldebug_loc3:
 4022              		.section	.debug_aranges,"",%progbits
 4023 0000 3C000000 		.4byte	0x3c
 4024 0004 0200     		.2byte	0x2
 4025 0006 00000000 		.4byte	.Ldebug_info0
 4026 000a 04       		.byte	0x4
 4027 000b 00       		.byte	0
 4028 000c 0000     		.2byte	0
 4029 000e 0000     		.2byte	0
 4030 0010 00000000 		.4byte	.LFB352
 4031 0014 3C000000 		.4byte	.LFE352-.LFB352
 4032 0018 00000000 		.4byte	.LFB353
 4033 001c 2C000000 		.4byte	.LFE353-.LFB353
 4034 0020 00000000 		.4byte	.LFB354
 4035 0024 34000000 		.4byte	.LFE354-.LFB354
 4036 0028 00000000 		.4byte	.LFB355
 4037 002c 28000000 		.4byte	.LFE355-.LFB355
 4038 0030 00000000 		.4byte	.LFB356
 4039 0034 14000000 		.4byte	.LFE356-.LFB356
 4040 0038 00000000 		.4byte	0
 4041 003c 00000000 		.4byte	0
 4042              		.section	.debug_rnglists,"",%progbits
 4043              	.Ldebug_ranges0:
 4044 0000 A2000000 		.4byte	.Ldebug_ranges3-.Ldebug_ranges2
 4045              	.Ldebug_ranges2:
 4046 0004 0500     		.2byte	0x5
 4047 0006 04       		.byte	0x4
ARM GAS  C:\Users\DEVELO~1\AppData\Local\Temp\ccB976pz.s 			page 72


 4048 0007 00       		.byte	0
 4049 0008 00000000 		.4byte	0
 4050              	.LLRL3:
 4051 000c 05       		.byte	0x5
 4052 000d 00000000 		.4byte	.LBB58
 4053 0011 04       		.byte	0x4
 4054 0012 00       		.uleb128 .LBB58-.LBB58
 4055 0013 00       		.uleb128 .LBE58-.LBB58
 4056 0014 04       		.byte	0x4
 4057 0015 02       		.uleb128 .LBB62-.LBB58
 4058 0016 04       		.uleb128 .LBE62-.LBB58
 4059 0017 04       		.byte	0x4
 4060 0018 06       		.uleb128 .LBB70-.LBB58
 4061 0019 08       		.uleb128 .LBE70-.LBB58
 4062 001a 00       		.byte	0
 4063              	.LLRL4:
 4064 001b 05       		.byte	0x5
 4065 001c 04000000 		.4byte	.LBB63
 4066 0020 04       		.byte	0x4
 4067 0021 00       		.uleb128 .LBB63-.LBB63
 4068 0022 02       		.uleb128 .LBE63-.LBB63
 4069 0023 04       		.byte	0x4
 4070 0024 04       		.uleb128 .LBB71-.LBB63
 4071 0025 08       		.uleb128 .LBE71-.LBB63
 4072 0026 00       		.byte	0
 4073              	.LLRL6:
 4074 0027 05       		.byte	0x5
 4075 0028 0C000000 		.4byte	.LBB72
 4076 002c 04       		.byte	0x4
 4077 002d 00       		.uleb128 .LBB72-.LBB72
 4078 002e 02       		.uleb128 .LBE72-.LBB72
 4079 002f 04       		.byte	0x4
 4080 0030 08       		.uleb128 .LBB76-.LBB72
 4081 0031 0E       		.uleb128 .LBE76-.LBB72
 4082 0032 04       		.byte	0x4
 4083 0033 10       		.uleb128 .LBB77-.LBB72
 4084 0034 12       		.uleb128 .LBE77-.LBB72
 4085 0035 00       		.byte	0
 4086              	.LLRL11:
 4087 0036 05       		.byte	0x5
 4088 0037 00000000 		.4byte	.LBB83
 4089 003b 04       		.byte	0x4
 4090 003c 00       		.uleb128 .LBB83-.LBB83
 4091 003d 00       		.uleb128 .LBE83-.LBB83
 4092 003e 04       		.byte	0x4
 4093 003f 02       		.uleb128 .LBB86-.LBB83
 4094 0040 06       		.uleb128 .LBE86-.LBB83
 4095 0041 00       		.byte	0
 4096              	.LLRL13:
 4097 0042 05       		.byte	0x5
 4098 0043 10000000 		.4byte	.LBB89
 4099 0047 04       		.byte	0x4
 4100 0048 00       		.uleb128 .LBB89-.LBB89
 4101 0049 02       		.uleb128 .LBE89-.LBB89
 4102 004a 04       		.byte	0x4
 4103 004b 04       		.uleb128 .LBB93-.LBB89
 4104 004c 08       		.uleb128 .LBE93-.LBB89
ARM GAS  C:\Users\DEVELO~1\AppData\Local\Temp\ccB976pz.s 			page 73


 4105 004d 04       		.byte	0x4
 4106 004e 12       		.uleb128 .LBB94-.LBB89
 4107 004f 1C       		.uleb128 .LBE94-.LBB89
 4108 0050 00       		.byte	0
 4109              	.LLRL18:
 4110 0051 05       		.byte	0x5
 4111 0052 00000000 		.4byte	.LBB95
 4112 0056 04       		.byte	0x4
 4113 0057 00       		.uleb128 .LBB95-.LBB95
 4114 0058 00       		.uleb128 .LBE95-.LBB95
 4115 0059 04       		.byte	0x4
 4116 005a 02       		.uleb128 .LBB99-.LBB95
 4117 005b 04       		.uleb128 .LBE99-.LBB95
 4118 005c 04       		.byte	0x4
 4119 005d 06       		.uleb128 .LBB100-.LBB95
 4120 005e 08       		.uleb128 .LBE100-.LBB95
 4121 005f 00       		.byte	0
 4122              	.LLRL20:
 4123 0060 05       		.byte	0x5
 4124 0061 12000000 		.4byte	.LBB103
 4125 0065 04       		.byte	0x4
 4126 0066 00       		.uleb128 .LBB103-.LBB103
 4127 0067 02       		.uleb128 .LBE103-.LBB103
 4128 0068 04       		.byte	0x4
 4129 0069 04       		.uleb128 .LBB107-.LBB103
 4130 006a 08       		.uleb128 .LBE107-.LBB103
 4131 006b 04       		.byte	0x4
 4132 006c 14       		.uleb128 .LBB108-.LBB103
 4133 006d 18       		.uleb128 .LBE108-.LBB103
 4134 006e 00       		.byte	0
 4135              	.LLRL26:
 4136 006f 05       		.byte	0x5
 4137 0070 0E000000 		.4byte	.LBB113
 4138 0074 04       		.byte	0x4
 4139 0075 00       		.uleb128 .LBB113-.LBB113
 4140 0076 02       		.uleb128 .LBE113-.LBB113
 4141 0077 04       		.byte	0x4
 4142 0078 06       		.uleb128 .LBB116-.LBB113
 4143 0079 0A       		.uleb128 .LBE116-.LBB113
 4144 007a 00       		.byte	0
 4145              	.LLRL31:
 4146 007b 05       		.byte	0x5
 4147 007c 00000000 		.4byte	.LBB117
 4148 0080 04       		.byte	0x4
 4149 0081 00       		.uleb128 .LBB117-.LBB117
 4150 0082 00       		.uleb128 .LBE117-.LBB117
 4151 0083 04       		.byte	0x4
 4152 0084 02       		.uleb128 .LBB124-.LBB117
 4153 0085 08       		.uleb128 .LBE124-.LBB117
 4154 0086 00       		.byte	0
 4155              	.LLRL36:
 4156 0087 07       		.byte	0x7
 4157 0088 00000000 		.4byte	.LFB352
 4158 008c 3C       		.uleb128 .LFE352-.LFB352
 4159 008d 07       		.byte	0x7
 4160 008e 00000000 		.4byte	.LFB353
 4161 0092 2C       		.uleb128 .LFE353-.LFB353
ARM GAS  C:\Users\DEVELO~1\AppData\Local\Temp\ccB976pz.s 			page 74


 4162 0093 07       		.byte	0x7
 4163 0094 00000000 		.4byte	.LFB354
 4164 0098 34       		.uleb128 .LFE354-.LFB354
 4165 0099 07       		.byte	0x7
 4166 009a 00000000 		.4byte	.LFB355
 4167 009e 28       		.uleb128 .LFE355-.LFB355
 4168 009f 07       		.byte	0x7
 4169 00a0 00000000 		.4byte	.LFB356
 4170 00a4 14       		.uleb128 .LFE356-.LFB356
 4171 00a5 00       		.byte	0
 4172              	.Ldebug_ranges3:
 4173              		.section	.debug_line,"",%progbits
 4174              	.Ldebug_line0:
 4175 0000 40060000 		.section	.debug_str,"MS",%progbits,1
 4175      03005D02 
 4175      00000201 
 4175      FB0E0D00 
 4175      01010101 
 4176              	.LASF118:
 4177 0000 72656164 		.ascii	"ready_list_t\000"
 4177      795F6C69 
 4177      73745F74 
 4177      00
 4178              	.LASF109:
 4179 000d 77747472 		.ascii	"wttrp\000"
 4179      7000
 4180              	.LASF107:
 4181 0013 7264796D 		.ascii	"rdymsg\000"
 4181      736700
 4182              	.LASF53:
 4183 001a 72666375 		.ascii	"rfcu\000"
 4183      00
 4184              	.LASF6:
 4185 001f 5F5F7569 		.ascii	"__uint8_t\000"
 4185      6E74385F 
 4185      7400
 4186              	.LASF87:
 4187 0029 70726576 		.ascii	"prev\000"
 4187      00
 4188              	.LASF80:
 4189 002e 706F7274 		.ascii	"port_intctx\000"
 4189      5F696E74 
 4189      63747800 
 4190              	.LASF50:
 4191 003a 76746C69 		.ascii	"vtlist\000"
 4191      737400
 4192              	.LASF72:
 4193 0041 74797065 		.ascii	"type\000"
 4193      00
 4194              	.LASF10:
 4195 0046 6C6F6E67 		.ascii	"long int\000"
 4195      20696E74 
 4195      00
 4196              	.LASF75:
 4197 004f 74726163 		.ascii	"trace_event_t\000"
 4197      655F6576 
 4197      656E745F 
ARM GAS  C:\Users\DEVELO~1\AppData\Local\Temp\ccB976pz.s 			page 75


 4197      7400
 4198              	.LASF138:
 4199 005d 63684D73 		.ascii	"chMsgReleaseS\000"
 4199      6752656C 
 4199      65617365 
 4199      5300
 4200              	.LASF39:
 4201 006b 64697370 		.ascii	"dispose\000"
 4201      6F736500 
 4202              	.LASF20:
 4203 0073 706F7274 		.ascii	"port_stkline_t\000"
 4203      5F73746B 
 4203      6C696E65 
 4203      5F7400
 4204              	.LASF108:
 4205 0082 65786974 		.ascii	"exitcode\000"
 4205      636F6465 
 4205      00
 4206              	.LASF56:
 4207 008b 6D61696E 		.ascii	"mainthread\000"
 4207      74687265 
 4207      616400
 4208              	.LASF110:
 4209 0096 73656E74 		.ascii	"sentmsg\000"
 4209      6D736700 
 4210              	.LASF93:
 4211 009e 64656C74 		.ascii	"delta\000"
 4211      6100
 4212              	.LASF84:
 4213 00a4 6E657874 		.ascii	"next\000"
 4213      00
 4214              	.LASF40:
 4215 00a9 6F626A65 		.ascii	"object\000"
 4215      637400
 4216              	.LASF121:
 4217 00b0 63737461 		.ascii	"cstack_end\000"
 4217      636B5F65 
 4217      6E6400
 4218              	.LASF1:
 4219 00bb 6C6F6E67 		.ascii	"long long int\000"
 4219      206C6F6E 
 4219      6720696E 
 4219      7400
 4220              	.LASF3:
 4221 00c9 7369676E 		.ascii	"signed char\000"
 4221      65642063 
 4221      68617200 
 4222              	.LASF92:
 4223 00d5 63685F64 		.ascii	"ch_delta_list\000"
 4223      656C7461 
 4223      5F6C6973 
 4223      7400
 4224              	.LASF14:
 4225 00e3 6C6F6E67 		.ascii	"long long unsigned int\000"
 4225      206C6F6E 
 4225      6720756E 
 4225      7369676E 
ARM GAS  C:\Users\DEVELO~1\AppData\Local\Temp\ccB976pz.s 			page 76


 4225      65642069 
 4226              	.LASF146:
 4227 00fa 62617365 		.ascii	"basePri\000"
 4227      50726900 
 4228              	.LASF34:
 4229 0102 73746174 		.ascii	"state\000"
 4229      6500
 4230              	.LASF21:
 4231 0108 73746B6C 		.ascii	"stkline_t\000"
 4231      696E655F 
 4231      7400
 4232              	.LASF136:
 4233 0112 63684D73 		.ascii	"chMsgSend\000"
 4233      6753656E 
 4233      6400
 4234              	.LASF23:
 4235 011c 74737461 		.ascii	"tstate_t\000"
 4235      74655F74 
 4235      00
 4236              	.LASF59:
 4237 0125 63685F72 		.ascii	"ch_rfcu\000"
 4237      66637500 
 4238              	.LASF144:
 4239 012d 706F7274 		.ascii	"port_unlock\000"
 4239      5F756E6C 
 4239      6F636B00 
 4240              	.LASF86:
 4241 0139 63685F71 		.ascii	"ch_queue\000"
 4241      75657565 
 4241      00
 4242              	.LASF16:
 4243 0142 75696E74 		.ascii	"uint16_t\000"
 4243      31365F74 
 4243      00
 4244              	.LASF141:
 4245 014b 63685F71 		.ascii	"ch_queue_fifo_remove\000"
 4245      75657565 
 4245      5F666966 
 4245      6F5F7265 
 4245      6D6F7665 
 4246              	.LASF79:
 4247 0160 74726163 		.ascii	"trace_buffer_t\000"
 4247      655F6275 
 4247      66666572 
 4247      5F7400
 4248              	.LASF140:
 4249 016f 63684D73 		.ascii	"chMsgIsPendingI\000"
 4249      67497350 
 4249      656E6469 
 4249      6E674900 
 4250              	.LASF100:
 4251 017f 63685F72 		.ascii	"ch_registry\000"
 4251      65676973 
 4251      74727900 
 4252              	.LASF149:
 4253 018b 433A5C43 		.ascii	"C:\\ChibiStudio\\chibios2111\\demos\\STM32\\RT-STM3"
 4253      68696269 
ARM GAS  C:\Users\DEVELO~1\AppData\Local\Temp\ccB976pz.s 			page 77


 4253      53747564 
 4253      696F5C63 
 4253      68696269 
 4254 01b9 32483734 		.ascii	"2H743ZI_REV_XY-NUCLEO144 - Copie\000"
 4254      335A495F 
 4254      5245565F 
 4254      58592D4E 
 4254      55434C45 
 4255              	.LASF148:
 4256 01da 2E2F4368 		.ascii	"./ChibiOS/os/rt/src/chmsg.c\000"
 4256      6962694F 
 4256      532F6F73 
 4256      2F72742F 
 4256      7372632F 
 4257              	.LASF11:
 4258 01f6 5F5F7569 		.ascii	"__uint32_t\000"
 4258      6E743332 
 4258      5F7400
 4259              	.LASF60:
 4260 0201 6D61736B 		.ascii	"mask\000"
 4260      00
 4261              	.LASF41:
 4262 0206 77616974 		.ascii	"waiting\000"
 4262      696E6700 
 4263              	.LASF122:
 4264 020e 69646C65 		.ascii	"idlestack_base\000"
 4264      73746163 
 4264      6B5F6261 
 4264      736500
 4265              	.LASF125:
 4266 021d 6D757465 		.ascii	"mutex_t\000"
 4266      785F7400 
 4267              	.LASF67:
 4268 0225 73797369 		.ascii	"sysinterval_t\000"
 4268      6E746572 
 4268      76616C5F 
 4268      7400
 4269              	.LASF28:
 4270 0233 636E745F 		.ascii	"cnt_t\000"
 4270      7400
 4271              	.LASF42:
 4272 0239 6D736771 		.ascii	"msgqueue\000"
 4272      75657565 
 4272      00
 4273              	.LASF0:
 4274 0242 756E7369 		.ascii	"unsigned int\000"
 4274      676E6564 
 4274      20696E74 
 4274      00
 4275              	.LASF111:
 4276 024f 77747365 		.ascii	"wtsemp\000"
 4276      6D7000
 4277              	.LASF65:
 4278 0256 73797374 		.ascii	"system_debug_t\000"
 4278      656D5F64 
 4278      65627567 
 4278      5F7400
ARM GAS  C:\Users\DEVELO~1\AppData\Local\Temp\ccB976pz.s 			page 78


 4279              	.LASF12:
 4280 0265 6C6F6E67 		.ascii	"long unsigned int\000"
 4280      20756E73 
 4280      69676E65 
 4280      6420696E 
 4280      7400
 4281              	.LASF38:
 4282 0277 72717565 		.ascii	"rqueue\000"
 4282      756500
 4283              	.LASF85:
 4284 027e 63685F71 		.ascii	"ch_queue_t\000"
 4284      75657565 
 4284      5F7400
 4285              	.LASF134:
 4286 0289 74696D65 		.ascii	"timeout\000"
 4286      6F757400 
 4287              	.LASF147:
 4288 0291 474E5520 		.ascii	"GNU C17 11.3.1 20220712 -mcpu=cortex-m7 -mthumb -mf"
 4288      43313720 
 4288      31312E33 
 4288      2E312032 
 4288      30323230 
 4289 02c4 6C6F6174 		.ascii	"loat-abi=soft -march=armv7e-m -ggdb -O2 -fomit-fram"
 4289      2D616269 
 4289      3D736F66 
 4289      74202D6D 
 4289      61726368 
 4290 02f7 652D706F 		.ascii	"e-pointer -falign-functions=16 -ffunction-sections "
 4290      696E7465 
 4290      72202D66 
 4290      616C6967 
 4290      6E2D6675 
 4291 032a 2D666461 		.ascii	"-fdata-sections -fno-common\000"
 4291      74612D73 
 4291      65637469 
 4291      6F6E7320 
 4291      2D666E6F 
 4292              	.LASF37:
 4293 0346 6E616D65 		.ascii	"name\000"
 4293      00
 4294              	.LASF104:
 4295 034b 74687265 		.ascii	"thread_dispose_t\000"
 4295      61645F64 
 4295      6973706F 
 4295      73655F74 
 4295      00
 4296              	.LASF101:
 4297 035c 71756575 		.ascii	"queue\000"
 4297      6500
 4298              	.LASF52:
 4299 0362 636F7265 		.ascii	"core_id\000"
 4299      5F696400 
 4300              	.LASF135:
 4301 036a 63684D73 		.ascii	"chMsgWaitS\000"
 4301      67576169 
 4301      745300
 4302              	.LASF77:
ARM GAS  C:\Users\DEVELO~1\AppData\Local\Temp\ccB976pz.s 			page 79


 4303 0375 73697A65 		.ascii	"size\000"
 4303      00
 4304              	.LASF8:
 4305 037a 73686F72 		.ascii	"short unsigned int\000"
 4305      7420756E 
 4305      7369676E 
 4305      65642069 
 4305      6E7400
 4306              	.LASF47:
 4307 038d 63685F74 		.ascii	"ch_thread\000"
 4307      68726561 
 4307      6400
 4308              	.LASF131:
 4309 0397 63757272 		.ascii	"currtp\000"
 4309      747000
 4310              	.LASF26:
 4311 039e 6D73675F 		.ascii	"msg_t\000"
 4311      7400
 4312              	.LASF43:
 4313 03a4 6570656E 		.ascii	"epending\000"
 4313      64696E67 
 4313      00
 4314              	.LASF22:
 4315 03ad 746D6F64 		.ascii	"tmode_t\000"
 4315      655F7400 
 4316              	.LASF83:
 4317 03b5 63685F6C 		.ascii	"ch_list\000"
 4317      69737400 
 4318              	.LASF116:
 4319 03bd 63685F72 		.ascii	"ch_ready_list\000"
 4319      65616479 
 4319      5F6C6973 
 4319      7400
 4320              	.LASF27:
 4321 03cb 6576656E 		.ascii	"eventmask_t\000"
 4321      746D6173 
 4321      6B5F7400 
 4322              	.LASF5:
 4323 03d7 73686F72 		.ascii	"short int\000"
 4323      7420696E 
 4323      7400
 4324              	.LASF9:
 4325 03e1 5F5F696E 		.ascii	"__int32_t\000"
 4325      7433325F 
 4325      7400
 4326              	.LASF99:
 4327 03eb 76697274 		.ascii	"virtual_timers_list_t\000"
 4327      75616C5F 
 4327      74696D65 
 4327      72735F6C 
 4327      6973745F 
 4328              	.LASF73:
 4329 0401 72747374 		.ascii	"rtstamp\000"
 4329      616D7000 
 4330              	.LASF98:
 4331 0409 6C617374 		.ascii	"laststamp\000"
 4331      7374616D 
ARM GAS  C:\Users\DEVELO~1\AppData\Local\Temp\ccB976pz.s 			page 80


 4331      7000
 4332              	.LASF45:
 4333 0413 7265616C 		.ascii	"realprio\000"
 4333      7072696F 
 4333      00
 4334              	.LASF58:
 4335 041c 72666375 		.ascii	"rfcu_mask_t\000"
 4335      5F6D6173 
 4335      6B5F7400 
 4336              	.LASF103:
 4337 0428 74687265 		.ascii	"thread_reference_t\000"
 4337      61645F72 
 4337      65666572 
 4337      656E6365 
 4337      5F7400
 4338              	.LASF94:
 4339 043b 63685F76 		.ascii	"ch_virtual_timers_list\000"
 4339      69727475 
 4339      616C5F74 
 4339      696D6572 
 4339      735F6C69 
 4340              	.LASF152:
 4341 0452 5F5F7365 		.ascii	"__set_BASEPRI\000"
 4341      745F4241 
 4341      53455052 
 4341      4900
 4342              	.LASF82:
 4343 0460 63685F6C 		.ascii	"ch_list_t\000"
 4343      6973745F 
 4343      7400
 4344              	.LASF76:
 4345 046a 73757370 		.ascii	"suspended\000"
 4345      656E6465 
 4345      6400
 4346              	.LASF120:
 4347 0474 63737461 		.ascii	"cstack_base\000"
 4347      636B5F62 
 4347      61736500 
 4348              	.LASF19:
 4349 0480 75696E74 		.ascii	"uint64_t\000"
 4349      36345F74 
 4349      00
 4350              	.LASF119:
 4351 0489 63685F6F 		.ascii	"ch_os_instance_config\000"
 4351      735F696E 
 4351      7374616E 
 4351      63655F63 
 4351      6F6E6669 
 4352              	.LASF81:
 4353 049f 706F7274 		.ascii	"port_context\000"
 4353      5F636F6E 
 4353      74657874 
 4353      00
 4354              	.LASF74:
 4355 04ac 74696D65 		.ascii	"time\000"
 4355      00
 4356              	.LASF90:
ARM GAS  C:\Users\DEVELO~1\AppData\Local\Temp\ccB976pz.s 			page 81


 4357 04b1 7072696F 		.ascii	"prio\000"
 4357      00
 4358              	.LASF123:
 4359 04b6 69646C65 		.ascii	"idlestack_end\000"
 4359      73746163 
 4359      6B5F656E 
 4359      6400
 4360              	.LASF117:
 4361 04c4 63757272 		.ascii	"current\000"
 4361      656E7400 
 4362              	.LASF13:
 4363 04cc 5F5F7569 		.ascii	"__uint64_t\000"
 4363      6E743634 
 4363      5F7400
 4364              	.LASF97:
 4365 04d7 6C617374 		.ascii	"lastdelta\000"
 4365      64656C74 
 4365      6100
 4366              	.LASF29:
 4367 04e1 636F7265 		.ascii	"core_id_t\000"
 4367      5F69645F 
 4367      7400
 4368              	.LASF24:
 4369 04eb 74726566 		.ascii	"trefs_t\000"
 4369      735F7400 
 4370              	.LASF36:
 4371 04f3 72656673 		.ascii	"refs\000"
 4371      00
 4372              	.LASF71:
 4373 04f8 75736572 		.ascii	"user\000"
 4373      00
 4374              	.LASF25:
 4375 04fd 74707269 		.ascii	"tprio_t\000"
 4375      6F5F7400 
 4376              	.LASF62:
 4377 0505 63685F73 		.ascii	"ch_system_debug\000"
 4377      79737465 
 4377      6D5F6465 
 4377      62756700 
 4378              	.LASF126:
 4379 0515 5F426F6F 		.ascii	"_Bool\000"
 4379      6C00
 4380              	.LASF17:
 4381 051b 696E7433 		.ascii	"int32_t\000"
 4381      325F7400 
 4382              	.LASF4:
 4383 0523 756E7369 		.ascii	"unsigned char\000"
 4383      676E6564 
 4383      20636861 
 4383      7200
 4384              	.LASF61:
 4385 0531 72666375 		.ascii	"rfcu_t\000"
 4385      5F7400
 4386              	.LASF142:
 4387 0538 63685F71 		.ascii	"ch_queue_insert\000"
 4387      75657565 
 4387      5F696E73 
ARM GAS  C:\Users\DEVELO~1\AppData\Local\Temp\ccB976pz.s 			page 82


 4387      65727400 
 4388              	.LASF129:
 4389 0548 63685363 		.ascii	"chSchGoSleepTimeoutS\000"
 4389      68476F53 
 4389      6C656570 
 4389      54696D65 
 4389      6F757453 
 4390              	.LASF96:
 4391 055d 6C617374 		.ascii	"lasttime\000"
 4391      74696D65 
 4391      00
 4392              	.LASF70:
 4393 0566 68616C74 		.ascii	"halt\000"
 4393      00
 4394              	.LASF68:
 4395 056b 77746F62 		.ascii	"wtobjp\000"
 4395      6A7000
 4396              	.LASF113:
 4397 0572 65776D61 		.ascii	"ewmask\000"
 4397      736B00
 4398              	.LASF133:
 4399 0579 63684D73 		.ascii	"chMsgWaitTimeoutS\000"
 4399      67576169 
 4399      7454696D 
 4399      656F7574 
 4399      5300
 4400              	.LASF137:
 4401 058b 5F5F6675 		.ascii	"__func__\000"
 4401      6E635F5F 
 4401      00
 4402              	.LASF143:
 4403 0594 63685379 		.ascii	"chSysLock\000"
 4403      734C6F63 
 4403      6B00
 4404              	.LASF69:
 4405 059e 72656173 		.ascii	"reason\000"
 4405      6F6E00
 4406              	.LASF150:
 4407 05a5 63684D73 		.ascii	"chMsgRelease\000"
 4407      6752656C 
 4407      65617365 
 4407      00
 4408              	.LASF114:
 4409 05b2 63685F73 		.ascii	"ch_semaphore\000"
 4409      656D6170 
 4409      686F7265 
 4409      00
 4410              	.LASF128:
 4411 05bf 63685363 		.ascii	"chSchGoSleepS\000"
 4411      68476F53 
 4411      6C656570 
 4411      5300
 4412              	.LASF102:
 4413 05cd 72656769 		.ascii	"registry_t\000"
 4413      73747279 
 4413      5F7400
 4414              	.LASF18:
ARM GAS  C:\Users\DEVELO~1\AppData\Local\Temp\ccB976pz.s 			page 83


 4415 05d8 75696E74 		.ascii	"uint32_t\000"
 4415      33325F74 
 4415      00
 4416              	.LASF112:
 4417 05e1 77746D74 		.ascii	"wtmtxp\000"
 4417      787000
 4418              	.LASF130:
 4419 05e8 63685363 		.ascii	"chSchReadyI\000"
 4419      68526561 
 4419      64794900 
 4420              	.LASF31:
 4421 05f4 6F776E65 		.ascii	"owner\000"
 4421      7200
 4422              	.LASF2:
 4423 05fa 6C6F6E67 		.ascii	"long double\000"
 4423      20646F75 
 4423      626C6500 
 4424              	.LASF32:
 4425 0606 77616261 		.ascii	"wabase\000"
 4425      736500
 4426              	.LASF64:
 4427 060d 63686172 		.ascii	"char\000"
 4427      00
 4428              	.LASF54:
 4429 0612 636F6E66 		.ascii	"config\000"
 4429      696700
 4430              	.LASF7:
 4431 0619 5F5F7569 		.ascii	"__uint16_t\000"
 4431      6E743136 
 4431      5F7400
 4432              	.LASF30:
 4433 0624 74687265 		.ascii	"thread_t\000"
 4433      61645F74 
 4433      00
 4434              	.LASF95:
 4435 062d 646C6973 		.ascii	"dlist\000"
 4435      7400
 4436              	.LASF66:
 4437 0633 73797374 		.ascii	"systime_t\000"
 4437      696D655F 
 4437      7400
 4438              	.LASF78:
 4439 063d 62756666 		.ascii	"buffer\000"
 4439      657200
 4440              	.LASF88:
 4441 0644 63685F70 		.ascii	"ch_priority_queue_t\000"
 4441      72696F72 
 4441      6974795F 
 4441      71756575 
 4441      655F7400 
 4442              	.LASF63:
 4443 0658 70616E69 		.ascii	"panic_msg\000"
 4443      635F6D73 
 4443      6700
 4444              	.LASF106:
 4445 0662 70717565 		.ascii	"pqueue\000"
 4445      756500
ARM GAS  C:\Users\DEVELO~1\AppData\Local\Temp\ccB976pz.s 			page 84


 4446              	.LASF48:
 4447 0669 63685F6F 		.ascii	"ch_os_instance\000"
 4447      735F696E 
 4447      7374616E 
 4447      636500
 4448              	.LASF46:
 4449 0678 6F735F69 		.ascii	"os_instance_t\000"
 4449      6E737461 
 4449      6E63655F 
 4449      7400
 4450              	.LASF51:
 4451 0686 7265676C 		.ascii	"reglist\000"
 4451      69737400 
 4452              	.LASF89:
 4453 068e 63685F70 		.ascii	"ch_priority_queue\000"
 4453      72696F72 
 4453      6974795F 
 4453      71756575 
 4453      6500
 4454              	.LASF132:
 4455 06a0 63684D73 		.ascii	"chMsgPollS\000"
 4455      67506F6C 
 4455      6C5300
 4456              	.LASF91:
 4457 06ab 63685F64 		.ascii	"ch_delta_list_t\000"
 4457      656C7461 
 4457      5F6C6973 
 4457      745F7400 
 4458              	.LASF127:
 4459 06bb 63685363 		.ascii	"chSchWakeupS\000"
 4459      6857616B 
 4459      65757053 
 4459      00
 4460              	.LASF124:
 4461 06c8 6F735F69 		.ascii	"os_instance_config_t\000"
 4461      6E737461 
 4461      6E63655F 
 4461      636F6E66 
 4461      69675F74 
 4462              	.LASF33:
 4463 06dd 7761656E 		.ascii	"waend\000"
 4463      6400
 4464              	.LASF49:
 4465 06e3 726C6973 		.ascii	"rlist\000"
 4465      7400
 4466              	.LASF151:
 4467 06e9 63685468 		.ascii	"chThdGetSelfX\000"
 4467      64476574 
 4467      53656C66 
 4467      5800
 4468              	.LASF15:
 4469 06f7 75696E74 		.ascii	"uint8_t\000"
 4469      385F7400 
 4470              	.LASF35:
 4471 06ff 666C6167 		.ascii	"flags\000"
 4471      7300
 4472              	.LASF115:
ARM GAS  C:\Users\DEVELO~1\AppData\Local\Temp\ccB976pz.s 			page 85


 4473 0705 63685F6D 		.ascii	"ch_mutex\000"
 4473      75746578 
 4473      00
 4474              	.LASF57:
 4475 070e 74726163 		.ascii	"trace_buffer\000"
 4475      655F6275 
 4475      66666572 
 4475      00
 4476              	.LASF139:
 4477 071b 63685379 		.ascii	"chSysUnlock\000"
 4477      73556E6C 
 4477      6F636B00 
 4478              	.LASF105:
 4479 0727 6C697374 		.ascii	"list\000"
 4479      00
 4480              	.LASF145:
 4481 072c 706F7274 		.ascii	"port_lock\000"
 4481      5F6C6F63 
 4481      6B00
 4482              	.LASF44:
 4483 0736 6D74786C 		.ascii	"mtxlist\000"
 4483      69737400 
 4484              	.LASF55:
 4485 073e 69646C65 		.ascii	"idlethread\000"
 4485      74687265 
 4485      616400
 4486              		.ident	"GCC: (Arm GNU Toolchain 11.3.Rel1) 11.3.1 20220712"
ARM GAS  C:\Users\DEVELO~1\AppData\Local\Temp\ccB976pz.s 			page 86


DEFINED SYMBOLS
                            *ABS*:00000000 chmsg.c
C:\Users\DEVELO~1\AppData\Local\Temp\ccB976pz.s:18     .text.chMsgSend:00000000 $t
C:\Users\DEVELO~1\AppData\Local\Temp\ccB976pz.s:25     .text.chMsgSend:00000000 chMsgSend
C:\Users\DEVELO~1\AppData\Local\Temp\ccB976pz.s:209    .text.chMsgSend:00000038 $d
C:\Users\DEVELO~1\AppData\Local\Temp\ccB976pz.s:214    .text.chMsgWaitS:00000000 $t
C:\Users\DEVELO~1\AppData\Local\Temp\ccB976pz.s:221    .text.chMsgWaitS:00000000 chMsgWaitS
C:\Users\DEVELO~1\AppData\Local\Temp\ccB976pz.s:319    .text.chMsgWaitS:00000028 $d
C:\Users\DEVELO~1\AppData\Local\Temp\ccB976pz.s:326    .text.chMsgWaitTimeoutS:00000000 $t
C:\Users\DEVELO~1\AppData\Local\Temp\ccB976pz.s:333    .text.chMsgWaitTimeoutS:00000000 chMsgWaitTimeoutS
C:\Users\DEVELO~1\AppData\Local\Temp\ccB976pz.s:451    .text.chMsgWaitTimeoutS:00000030 $d
C:\Users\DEVELO~1\AppData\Local\Temp\ccB976pz.s:456    .text.chMsgPollS:00000000 $t
C:\Users\DEVELO~1\AppData\Local\Temp\ccB976pz.s:463    .text.chMsgPollS:00000000 chMsgPollS
C:\Users\DEVELO~1\AppData\Local\Temp\ccB976pz.s:541    .text.chMsgPollS:00000024 $d
C:\Users\DEVELO~1\AppData\Local\Temp\ccB976pz.s:546    .text.chMsgRelease:00000000 $t
C:\Users\DEVELO~1\AppData\Local\Temp\ccB976pz.s:553    .text.chMsgRelease:00000000 chMsgRelease

UNDEFINED SYMBOLS
chSchGoSleepS
chSchReadyI
ch0
chSchGoSleepTimeoutS
chSchWakeupS
