ARM GAS  C:\Users\DEVELO~1\AppData\Local\Temp\ccYZxVu7.s 			page 1


   1              		.cpu cortex-m7
   2              		.arch armv7e-m
   3              		.fpu softvfp
   4              		.eabi_attribute 20, 1
   5              		.eabi_attribute 21, 1
   6              		.eabi_attribute 23, 3
   7              		.eabi_attribute 24, 1
   8              		.eabi_attribute 25, 1
   9              		.eabi_attribute 26, 1
  10              		.eabi_attribute 30, 2
  11              		.eabi_attribute 34, 1
  12              		.eabi_attribute 18, 4
  13              		.file	"chmtx.c"
  14              		.text
  15              	.Ltext0:
  16              		.cfi_sections	.debug_frame
  17              		.section	.text.chMtxObjectInit,"ax",%progbits
  18              		.align	1
  19              		.p2align 4,,15
  20              		.global	chMtxObjectInit
  21              		.syntax unified
  22              		.thumb
  23              		.thumb_func
  24              		.type	chMtxObjectInit, %function
  25              	chMtxObjectInit:
  26              	.LVL0:
  27              	.LFB352:
  28              		.file 1 "./ChibiOS/os/rt/src/chmtx.c"
  29              		.loc 1 105 35 view -0
  30              		.cfi_startproc
  31              		@ args = 0, pretend = 0, frame = 0
  32              		@ frame_needed = 0, uses_anonymous_args = 0
  33              		@ link register save eliminated.
  34              		.loc 1 107 3 view .LVU1
  35              		.loc 1 107 3 view .LVU2
  36              		.loc 1 107 3 view .LVU3
  37              		.loc 1 109 3 view .LVU4
  38              		.loc 1 110 13 is_stmt 0 view .LVU5
  39 0000 0023     		movs	r3, #0
  40              	.LVL1:
  41              	.LBB109:
  42              	.LBI109:
  43              		.file 2 "./ChibiOS/os/rt/include/chlists.h"
  44              		.loc 2 282 20 is_stmt 1 view .LVU6
  45              	.LBB110:
  46              		.loc 2 284 3 view .LVU7
  47              		.loc 2 285 12 is_stmt 0 view .LVU8
  48 0002 C0E90000 		strd	r0, r0, [r0]
  49              	.LVL2:
  50              		.loc 2 285 12 view .LVU9
  51              	.LBE110:
  52              	.LBE109:
  53              		.loc 1 110 3 is_stmt 1 view .LVU10
  54              		.loc 1 110 13 is_stmt 0 view .LVU11
  55 0006 8360     		str	r3, [r0, #8]
  56              		.loc 1 114 1 view .LVU12
  57 0008 7047     		bx	lr
ARM GAS  C:\Users\DEVELO~1\AppData\Local\Temp\ccYZxVu7.s 			page 2


  58              		.cfi_endproc
  59              	.LFE352:
  60              		.size	chMtxObjectInit, .-chMtxObjectInit
  61 000a 00BF     		.section	.text.chMtxObjectDispose,"ax",%progbits
  62              		.align	1
  63              		.p2align 4,,15
  64              		.global	chMtxObjectDispose
  65              		.syntax unified
  66              		.thumb
  67              		.thumb_func
  68              		.type	chMtxObjectDispose, %function
  69              	chMtxObjectDispose:
  70              	.LVL3:
  71              	.LFB353:
  72              		.loc 1 131 38 is_stmt 1 view -0
  73              		.cfi_startproc
  74              		@ args = 0, pretend = 0, frame = 0
  75              		@ frame_needed = 0, uses_anonymous_args = 0
  76              		@ link register save eliminated.
  77              		.loc 1 133 3 view .LVU14
  78              		.loc 1 133 3 view .LVU15
  79              		.loc 1 133 3 view .LVU16
  80              		.loc 1 135 31 view .LVU17
  81              		.loc 1 137 3 view .LVU18
  82              		.loc 1 137 3 view .LVU19
  83              		.loc 1 137 3 view .LVU20
  84              		.loc 1 146 1 is_stmt 0 view .LVU21
  85 0000 7047     		bx	lr
  86              		.cfi_endproc
  87              	.LFE353:
  88              		.size	chMtxObjectDispose, .-chMtxObjectDispose
  89 0002 00BF     		.section	.text.chMtxLockS,"ax",%progbits
  90              		.align	1
  91              		.p2align 4,,15
  92              		.global	chMtxLockS
  93              		.syntax unified
  94              		.thumb
  95              		.thumb_func
  96              		.type	chMtxLockS, %function
  97              	chMtxLockS:
  98              	.LVL4:
  99              	.LFB355:
 100              		.loc 1 173 30 is_stmt 1 view -0
 101              		.cfi_startproc
 102              		@ args = 0, pretend = 0, frame = 0
 103              		@ frame_needed = 0, uses_anonymous_args = 0
 104              		.loc 1 174 3 view .LVU23
 105              	.LBB126:
 106              	.LBI126:
 107              		.file 3 "./ChibiOS/os/rt/include/chthreads.h"
 108              		.loc 3 527 25 view .LVU24
 109              	.LBB127:
 110              		.loc 3 529 3 view .LVU25
 111              	.LBE127:
 112              	.LBE126:
 113              		.loc 1 173 30 is_stmt 0 view .LVU26
 114 0000 70B5     		push	{r4, r5, r6, lr}
ARM GAS  C:\Users\DEVELO~1\AppData\Local\Temp\ccYZxVu7.s 			page 3


 115              		.cfi_def_cfa_offset 16
 116              		.cfi_offset 4, -16
 117              		.cfi_offset 5, -12
 118              		.cfi_offset 6, -8
 119              		.cfi_offset 14, -4
 120              	.LBB130:
 121              	.LBB128:
 122              		.loc 3 529 10 view .LVU27
 123 0002 2E4B     		ldr	r3, .L31
 124              	.LBE128:
 125              	.LBE130:
 126              		.loc 1 173 30 view .LVU28
 127 0004 0446     		mov	r4, r0
 128              		.loc 1 180 9 view .LVU29
 129 0006 8068     		ldr	r0, [r0, #8]
 130              	.LVL5:
 131              	.LBB131:
 132              	.LBB129:
 133              		.loc 3 529 10 view .LVU30
 134 0008 DD68     		ldr	r5, [r3, #12]
 135              	.LVL6:
 136              		.loc 3 529 10 view .LVU31
 137              	.LBE129:
 138              	.LBE131:
 139              		.loc 1 176 21 is_stmt 1 view .LVU32
 140              		.loc 1 177 3 view .LVU33
 141              		.loc 1 177 3 view .LVU34
 142              		.loc 1 177 3 view .LVU35
 143              		.loc 1 180 3 view .LVU36
 144              		.loc 1 180 6 is_stmt 0 view .LVU37
 145 000a 28B3     		cbz	r0, .L26
 146              	.LVL7:
 147              	.LBB132:
 148              		.loc 1 199 34 is_stmt 1 view .LVU38
 149              		.loc 1 199 54 is_stmt 0 view .LVU39
 150 000c AA68     		ldr	r2, [r5, #8]
 151              		.loc 1 199 34 view .LVU40
 152 000e 8368     		ldr	r3, [r0, #8]
 153 0010 9342     		cmp	r3, r2
 154 0012 06D2     		bcs	.L10
 155              	.L13:
 156              		.loc 1 201 9 is_stmt 1 view .LVU41
 157              		.loc 1 204 19 is_stmt 0 view .LVU42
 158 0014 037F     		ldrb	r3, [r0, #28]	@ zero_extendqisi2
 159              		.loc 1 201 29 view .LVU43
 160 0016 8260     		str	r2, [r0, #8]
 161              		.loc 1 204 9 is_stmt 1 view .LVU44
 162 0018 062B     		cmp	r3, #6
 163 001a 36D0     		beq	.L7
 164              		.loc 1 204 9 is_stmt 0 view .LVU45
 165 001c 072B     		cmp	r3, #7
 166 001e 20D0     		beq	.L8
 167 0020 9BB1     		cbz	r3, .L27
 168              	.LVL8:
 169              	.L10:
 170              		.loc 1 248 7 is_stmt 1 view .LVU46
 171              	.LBB133:
ARM GAS  C:\Users\DEVELO~1\AppData\Local\Temp\ccYZxVu7.s 			page 4


 172              	.LBI133:
 173              		.file 4 "./ChibiOS/os/rt/include/chschd.h"
 174              		.loc 4 168 20 view .LVU47
 175              	.LBB134:
 176              		.loc 4 170 3 view .LVU48
 177              		.loc 4 170 15 is_stmt 0 view .LVU49
 178 0022 2346     		mov	r3, r4
 179 0024 03E0     		b	.L18
 180              	.LVL9:
 181              	.L28:
 182              		.loc 4 173 23 view .LVU50
 183 0026 9968     		ldr	r1, [r3, #8]
 184 0028 AA68     		ldr	r2, [r5, #8]
 185 002a 9142     		cmp	r1, r2
 186 002c 02D3     		bcc	.L17
 187              	.L18:
 188              		.loc 4 171 3 is_stmt 1 view .LVU51
 189              		.loc 4 172 5 view .LVU52
 190              		.loc 4 172 8 is_stmt 0 view .LVU53
 191 002e 1B68     		ldr	r3, [r3]
 192              	.LVL10:
 193              		.loc 4 173 23 is_stmt 1 view .LVU54
 194 0030 9C42     		cmp	r4, r3
 195 0032 F8D1     		bne	.L28
 196              	.L17:
 197              		.loc 4 175 3 view .LVU55
 198              		.loc 4 176 22 is_stmt 0 view .LVU56
 199 0034 5A68     		ldr	r2, [r3, #4]
 200              	.LBE134:
 201              	.LBE133:
 202              		.loc 1 250 7 view .LVU57
 203 0036 0620     		movs	r0, #6
 204              	.LBB136:
 205              	.LBB135:
 206              		.loc 4 175 18 view .LVU58
 207 0038 2B60     		str	r3, [r5]
 208              		.loc 4 176 3 is_stmt 1 view .LVU59
 209              		.loc 4 176 18 is_stmt 0 view .LVU60
 210 003a 6A60     		str	r2, [r5, #4]
 211              		.loc 4 177 3 is_stmt 1 view .LVU61
 212              		.loc 4 177 18 is_stmt 0 view .LVU62
 213 003c 1560     		str	r5, [r2]
 214              		.loc 4 178 3 is_stmt 1 view .LVU63
 215              		.loc 4 178 18 is_stmt 0 view .LVU64
 216 003e 5D60     		str	r5, [r3, #4]
 217              	.LVL11:
 218              		.loc 4 178 18 view .LVU65
 219              	.LBE135:
 220              	.LBE136:
 221              		.loc 1 249 7 is_stmt 1 view .LVU66
 222              		.loc 1 249 24 is_stmt 0 view .LVU67
 223 0040 6C63     		str	r4, [r5, #52]
 224              		.loc 1 250 7 is_stmt 1 view .LVU68
 225              	.LBE132:
 226              		.loc 1 272 1 is_stmt 0 view .LVU69
 227 0042 BDE87040 		pop	{r4, r5, r6, lr}
 228              		.cfi_remember_state
ARM GAS  C:\Users\DEVELO~1\AppData\Local\Temp\ccYZxVu7.s 			page 5


 229              		.cfi_restore 14
 230              		.cfi_restore 6
 231              		.cfi_restore 5
 232              		.cfi_restore 4
 233              		.cfi_def_cfa_offset 0
 234              	.LVL12:
 235              	.LBB147:
 236              		.loc 1 250 7 view .LVU70
 237 0046 FFF7FEBF 		b	chSchGoSleepS
 238              	.LVL13:
 239              	.L27:
 240              		.cfi_restore_state
 241              		.loc 1 238 11 is_stmt 1 view .LVU71
 242              	.LBB137:
 243              	.LBI137:
 244              		.loc 2 378 27 view .LVU72
 245              	.LBB138:
 246              		.loc 2 380 3 view .LVU73
 247              		.loc 2 380 20 is_stmt 0 view .LVU74
 248 004a D0E90032 		ldrd	r3, r2, [r0]
 249              		.loc 2 380 17 view .LVU75
 250 004e 1360     		str	r3, [r2]
 251              		.loc 2 381 3 is_stmt 1 view .LVU76
 252              		.loc 2 381 17 is_stmt 0 view .LVU77
 253 0050 5A60     		str	r2, [r3, #4]
 254              		.loc 2 383 3 is_stmt 1 view .LVU78
 255              	.LVL14:
 256              		.loc 2 383 3 is_stmt 0 view .LVU79
 257              	.LBE138:
 258              	.LBE137:
 259              		.loc 1 238 18 view .LVU80
 260 0052 FFF7FEFF 		bl	chSchReadyI
 261              	.LVL15:
 262              		.loc 1 239 11 is_stmt 1 view .LVU81
 263 0056 E4E7     		b	.L10
 264              	.L26:
 265              		.loc 1 239 11 is_stmt 0 view .LVU82
 266              	.LBE147:
 267              		.loc 1 268 5 is_stmt 1 view .LVU83
 268              		.loc 1 269 14 is_stmt 0 view .LVU84
 269 0058 AB6C     		ldr	r3, [r5, #72]
 270 005a C4E90253 		strd	r5, r3, [r4, #8]
 271              		.loc 1 270 5 is_stmt 1 view .LVU85
 272              		.loc 1 270 21 is_stmt 0 view .LVU86
 273 005e AC64     		str	r4, [r5, #72]
 274              		.loc 1 272 1 view .LVU87
 275 0060 70BD     		pop	{r4, r5, r6, pc}
 276              	.LVL16:
 277              	.L8:
 278              	.LBB148:
 279              		.loc 1 228 11 is_stmt 1 view .LVU88
 280 0062 466B     		ldr	r6, [r0, #52]
 281              	.LVL17:
 282              	.LBB139:
 283              	.LBI139:
 284              		.loc 2 378 27 view .LVU89
 285              	.LBB140:
ARM GAS  C:\Users\DEVELO~1\AppData\Local\Temp\ccYZxVu7.s 			page 6


 286              		.loc 2 380 3 view .LVU90
 287              		.loc 2 380 20 is_stmt 0 view .LVU91
 288 0064 D0E90032 		ldrd	r3, r2, [r0]
 289              		.loc 2 380 17 view .LVU92
 290 0068 1360     		str	r3, [r2]
 291              		.loc 2 381 3 is_stmt 1 view .LVU93
 292              		.loc 2 381 17 is_stmt 0 view .LVU94
 293 006a 5A60     		str	r2, [r3, #4]
 294              		.loc 2 383 3 is_stmt 1 view .LVU95
 295              	.LVL18:
 296              		.loc 2 383 3 is_stmt 0 view .LVU96
 297              	.LBE140:
 298              	.LBE139:
 299              	.LBB141:
 300              	.LBI141:
 301              		.loc 4 168 20 is_stmt 1 view .LVU97
 302              	.LBB142:
 303              		.loc 4 170 3 view .LVU98
 304              		.loc 4 170 15 is_stmt 0 view .LVU99
 305 006c 3346     		mov	r3, r6
 306 006e 03E0     		b	.L15
 307              	.LVL19:
 308              	.L29:
 309              		.loc 4 173 23 view .LVU100
 310 0070 9968     		ldr	r1, [r3, #8]
 311 0072 8268     		ldr	r2, [r0, #8]
 312 0074 9142     		cmp	r1, r2
 313 0076 02D3     		bcc	.L14
 314              	.L15:
 315              		.loc 4 171 3 is_stmt 1 view .LVU101
 316              		.loc 4 172 5 view .LVU102
 317              		.loc 4 172 8 is_stmt 0 view .LVU103
 318 0078 1B68     		ldr	r3, [r3]
 319              	.LVL20:
 320              		.loc 4 173 23 is_stmt 1 view .LVU104
 321 007a 9E42     		cmp	r6, r3
 322 007c F8D1     		bne	.L29
 323              	.L14:
 324              		.loc 4 175 3 view .LVU105
 325              		.loc 4 176 22 is_stmt 0 view .LVU106
 326 007e 5A68     		ldr	r2, [r3, #4]
 327              		.loc 4 176 18 view .LVU107
 328 0080 C0E90032 		strd	r3, r2, [r0]
 329              		.loc 4 177 3 is_stmt 1 view .LVU108
 330              		.loc 4 177 18 is_stmt 0 view .LVU109
 331 0084 1060     		str	r0, [r2]
 332              		.loc 4 178 3 is_stmt 1 view .LVU110
 333              		.loc 4 178 18 is_stmt 0 view .LVU111
 334 0086 5860     		str	r0, [r3, #4]
 335              		.loc 4 179 1 view .LVU112
 336 0088 CBE7     		b	.L10
 337              	.LVL21:
 338              	.L7:
 339              		.loc 4 179 1 view .LVU113
 340              	.LBE142:
 341              	.LBE141:
 342              		.loc 1 207 11 is_stmt 1 discriminator 1 view .LVU114
ARM GAS  C:\Users\DEVELO~1\AppData\Local\Temp\ccYZxVu7.s 			page 7


 343              		.loc 1 207 36 is_stmt 0 discriminator 1 view .LVU115
 344 008a 466B     		ldr	r6, [r0, #52]
 345              	.LVL22:
 346              	.LBB143:
 347              	.LBI143:
 348              		.loc 2 378 27 is_stmt 1 discriminator 1 view .LVU116
 349              	.LBB144:
 350              		.loc 2 380 3 discriminator 1 view .LVU117
 351              		.loc 2 380 20 is_stmt 0 discriminator 1 view .LVU118
 352 008c D0E90032 		ldrd	r3, r2, [r0]
 353              		.loc 2 380 17 discriminator 1 view .LVU119
 354 0090 1360     		str	r3, [r2]
 355              		.loc 2 381 3 is_stmt 1 discriminator 1 view .LVU120
 356              		.loc 2 381 17 is_stmt 0 discriminator 1 view .LVU121
 357 0092 5A60     		str	r2, [r3, #4]
 358              		.loc 2 383 3 is_stmt 1 discriminator 1 view .LVU122
 359              	.LVL23:
 360              		.loc 2 383 3 is_stmt 0 discriminator 1 view .LVU123
 361              	.LBE144:
 362              	.LBE143:
 363              	.LBB145:
 364              	.LBI145:
 365              		.loc 4 168 20 is_stmt 1 discriminator 1 view .LVU124
 366              	.LBB146:
 367              		.loc 4 170 3 discriminator 1 view .LVU125
 368              		.loc 4 170 15 is_stmt 0 discriminator 1 view .LVU126
 369 0094 3346     		mov	r3, r6
 370 0096 03E0     		b	.L12
 371              	.LVL24:
 372              	.L30:
 373              		.loc 4 173 23 view .LVU127
 374 0098 9968     		ldr	r1, [r3, #8]
 375 009a 8268     		ldr	r2, [r0, #8]
 376 009c 9142     		cmp	r1, r2
 377 009e 02D3     		bcc	.L11
 378              	.L12:
 379              		.loc 4 171 3 is_stmt 1 view .LVU128
 380              		.loc 4 172 5 view .LVU129
 381              		.loc 4 172 8 is_stmt 0 view .LVU130
 382 00a0 1B68     		ldr	r3, [r3]
 383              	.LVL25:
 384              		.loc 4 173 23 is_stmt 1 view .LVU131
 385 00a2 9E42     		cmp	r6, r3
 386 00a4 F8D1     		bne	.L30
 387              	.L11:
 388              		.loc 4 175 3 view .LVU132
 389              		.loc 4 176 22 is_stmt 0 view .LVU133
 390 00a6 5A68     		ldr	r2, [r3, #4]
 391              		.loc 4 175 18 view .LVU134
 392 00a8 0360     		str	r3, [r0]
 393              		.loc 4 176 3 is_stmt 1 view .LVU135
 394              		.loc 4 176 18 is_stmt 0 view .LVU136
 395 00aa 4260     		str	r2, [r0, #4]
 396              		.loc 4 177 3 is_stmt 1 view .LVU137
 397              		.loc 4 177 18 is_stmt 0 view .LVU138
 398 00ac 1060     		str	r0, [r2]
 399              		.loc 4 178 3 is_stmt 1 view .LVU139
ARM GAS  C:\Users\DEVELO~1\AppData\Local\Temp\ccYZxVu7.s 			page 8


 400              		.loc 4 178 18 is_stmt 0 view .LVU140
 401 00ae 5860     		str	r0, [r3, #4]
 402              	.LVL26:
 403              		.loc 4 178 18 view .LVU141
 404              	.LBE146:
 405              	.LBE145:
 406              		.loc 1 209 11 is_stmt 1 view .LVU142
 407              		.loc 1 209 14 is_stmt 0 view .LVU143
 408 00b0 B068     		ldr	r0, [r6, #8]
 409              	.LVL27:
 410              		.loc 1 211 11 is_stmt 1 view .LVU144
 411              		.loc 1 199 34 view .LVU145
 412              		.loc 1 199 54 is_stmt 0 view .LVU146
 413 00b2 AA68     		ldr	r2, [r5, #8]
 414              		.loc 1 199 34 view .LVU147
 415 00b4 8368     		ldr	r3, [r0, #8]
 416 00b6 9342     		cmp	r3, r2
 417 00b8 ACD3     		bcc	.L13
 418 00ba B2E7     		b	.L10
 419              	.L32:
 420              		.align	2
 421              	.L31:
 422 00bc 00000000 		.word	ch0
 423              	.LBE148:
 424              		.cfi_endproc
 425              	.LFE355:
 426              		.size	chMtxLockS, .-chMtxLockS
 427              		.section	.text.chMtxLock,"ax",%progbits
 428              		.align	1
 429              		.p2align 4,,15
 430              		.global	chMtxLock
 431              		.syntax unified
 432              		.thumb
 433              		.thumb_func
 434              		.type	chMtxLock, %function
 435              	chMtxLock:
 436              	.LVL28:
 437              	.LFB354:
 438              		.loc 1 157 29 is_stmt 1 view -0
 439              		.cfi_startproc
 440              		@ args = 0, pretend = 0, frame = 0
 441              		@ frame_needed = 0, uses_anonymous_args = 0
 442              		.loc 1 159 3 view .LVU149
 443              	.LBB149:
 444              	.LBI149:
 445              		.file 5 "./ChibiOS/os/rt/include/chsys.h"
 446              		.loc 5 372 20 view .LVU150
 447              		.loc 5 374 3 view .LVU151
 448              	.LBB150:
 449              	.LBI150:
 450              		.file 6 "./ChibiOS/os/common/ports/ARMv7-M/chcore.h"
 451              		.loc 6 840 27 view .LVU152
 452              		.loc 6 848 3 view .LVU153
 453              	.LBB151:
 454              	.LBI151:
 455              		.file 7 "./ChibiOS/os/common/ext/ARM/CMSIS/Core/Include/cmsis_gcc.h"
 456              		.loc 7 491 27 view .LVU154
ARM GAS  C:\Users\DEVELO~1\AppData\Local\Temp\ccYZxVu7.s 			page 9


 457              	.LBB152:
 458              		.loc 7 493 3 view .LVU155
 459              	.LBE152:
 460              	.LBE151:
 461              	.LBE150:
 462              	.LBE149:
 463              		.loc 1 157 29 is_stmt 0 view .LVU156
 464 0000 08B5     		push	{r3, lr}
 465              		.cfi_def_cfa_offset 8
 466              		.cfi_offset 3, -8
 467              		.cfi_offset 14, -4
 468              	.LBB156:
 469              	.LBB155:
 470              	.LBB154:
 471              	.LBB153:
 472              		.loc 7 493 3 view .LVU157
 473 0002 3023     		movs	r3, #48
 474              		.syntax unified
 475              	@ 493 "./ChibiOS/os/common/ext/ARM/CMSIS/Core/Include/cmsis_gcc.h" 1
 476 0004 83F31188 		MSR basepri, r3
 477              	@ 0 "" 2
 478              	.LVL29:
 479              		.loc 7 493 3 view .LVU158
 480              		.thumb
 481              		.syntax unified
 482              	.LBE153:
 483              	.LBE154:
 484              	.LBE155:
 485              		.loc 5 375 35 is_stmt 1 view .LVU159
 486              		.loc 5 376 21 view .LVU160
 487              	.LBE156:
 488              		.loc 1 160 3 view .LVU161
 489 0008 FFF7FEFF 		bl	chMtxLockS
 490              	.LVL30:
 491              		.loc 1 161 3 view .LVU162
 492              	.LBB157:
 493              	.LBI157:
 494              		.loc 5 386 20 view .LVU163
 495              	.LBB158:
 496              		.loc 5 388 23 view .LVU164
 497              		.loc 5 389 34 view .LVU165
 498              		.loc 5 395 3 view .LVU166
 499              		.loc 5 395 3 view .LVU167
 500              		.loc 5 395 3 view .LVU168
 501              		.loc 5 399 3 view .LVU169
 502              	.LBB159:
 503              	.LBI159:
 504              		.loc 6 864 27 view .LVU170
 505              		.loc 6 867 3 view .LVU171
 506              	.LBB160:
 507              	.LBI160:
 508              		.loc 7 491 27 view .LVU172
 509              	.LBB161:
 510              		.loc 7 493 3 view .LVU173
 511 000c 0023     		movs	r3, #0
 512              		.syntax unified
 513              	@ 493 "./ChibiOS/os/common/ext/ARM/CMSIS/Core/Include/cmsis_gcc.h" 1
ARM GAS  C:\Users\DEVELO~1\AppData\Local\Temp\ccYZxVu7.s 			page 10


 514 000e 83F31188 		MSR basepri, r3
 515              	@ 0 "" 2
 516              	.LVL31:
 517              		.loc 7 493 3 is_stmt 0 view .LVU174
 518              		.thumb
 519              		.syntax unified
 520              	.LBE161:
 521              	.LBE160:
 522              	.LBE159:
 523              	.LBE158:
 524              	.LBE157:
 525              		.loc 1 162 1 view .LVU175
 526 0012 08BD     		pop	{r3, pc}
 527              		.cfi_endproc
 528              	.LFE354:
 529              		.size	chMtxLock, .-chMtxLock
 530              		.section	.text.chMtxTryLock,"ax",%progbits
 531              		.align	1
 532              		.p2align 4,,15
 533              		.global	chMtxTryLock
 534              		.syntax unified
 535              		.thumb
 536              		.thumb_func
 537              		.type	chMtxTryLock, %function
 538              	chMtxTryLock:
 539              	.LVL32:
 540              	.LFB356:
 541              		.loc 1 291 32 is_stmt 1 view -0
 542              		.cfi_startproc
 543              		@ args = 0, pretend = 0, frame = 0
 544              		@ frame_needed = 0, uses_anonymous_args = 0
 545              		@ link register save eliminated.
 546              		.loc 1 292 3 view .LVU177
 547              		.loc 1 294 3 view .LVU178
 548              	.LBB162:
 549              	.LBI162:
 550              		.loc 5 372 20 view .LVU179
 551              		.loc 5 374 3 view .LVU180
 552              	.LBB163:
 553              	.LBI163:
 554              		.loc 6 840 27 view .LVU181
 555              		.loc 6 848 3 view .LVU182
 556              	.LBB164:
 557              	.LBI164:
 558              		.loc 7 491 27 view .LVU183
 559              	.LBB165:
 560              		.loc 7 493 3 view .LVU184
 561 0000 3022     		movs	r2, #48
 562              	.LBE165:
 563              	.LBE164:
 564              	.LBE163:
 565              	.LBE162:
 566              		.loc 1 291 32 is_stmt 0 view .LVU185
 567 0002 0346     		mov	r3, r0
 568              	.LBB169:
 569              	.LBB168:
 570              	.LBB167:
ARM GAS  C:\Users\DEVELO~1\AppData\Local\Temp\ccYZxVu7.s 			page 11


 571              	.LBB166:
 572              		.loc 7 493 3 view .LVU186
 573              		.syntax unified
 574              	@ 493 "./ChibiOS/os/common/ext/ARM/CMSIS/Core/Include/cmsis_gcc.h" 1
 575 0004 82F31188 		MSR basepri, r2
 576              	@ 0 "" 2
 577              	.LVL33:
 578              		.loc 7 493 3 view .LVU187
 579              		.thumb
 580              		.syntax unified
 581              	.LBE166:
 582              	.LBE167:
 583              	.LBE168:
 584              		.loc 5 375 35 is_stmt 1 view .LVU188
 585              		.loc 5 376 21 view .LVU189
 586              	.LBE169:
 587              		.loc 1 295 3 view .LVU190
 588              	.LBB170:
 589              	.LBI170:
 590              		.loc 1 318 6 view .LVU191
 591              	.LBB171:
 592              		.loc 1 319 3 view .LVU192
 593              	.LBB172:
 594              	.LBI172:
 595              		.loc 3 527 25 view .LVU193
 596              	.LBB173:
 597              		.loc 3 529 3 view .LVU194
 598              		.loc 3 529 3 is_stmt 0 view .LVU195
 599              	.LBE173:
 600              	.LBE172:
 601              		.loc 1 321 21 is_stmt 1 view .LVU196
 602              		.loc 1 322 3 view .LVU197
 603              		.loc 1 322 3 view .LVU198
 604              		.loc 1 322 3 view .LVU199
 605              		.loc 1 324 3 view .LVU200
 606              		.loc 1 324 6 is_stmt 0 view .LVU201
 607 0008 8268     		ldr	r2, [r0, #8]
 608 000a 22B1     		cbz	r2, .L38
 609              		.loc 1 334 12 view .LVU202
 610 000c 0020     		movs	r0, #0
 611              	.LVL34:
 612              		.loc 1 334 12 view .LVU203
 613              	.LBE171:
 614              	.LBE170:
 615              		.loc 1 296 3 is_stmt 1 view .LVU204
 616              	.LBB179:
 617              	.LBI179:
 618              		.loc 5 386 20 view .LVU205
 619              	.LBB180:
 620              		.loc 5 388 23 view .LVU206
 621              		.loc 5 389 34 view .LVU207
 622              		.loc 5 395 3 view .LVU208
 623              		.loc 5 395 3 view .LVU209
 624              		.loc 5 395 3 view .LVU210
 625              		.loc 5 399 3 view .LVU211
 626              	.LBB181:
 627              	.LBI181:
ARM GAS  C:\Users\DEVELO~1\AppData\Local\Temp\ccYZxVu7.s 			page 12


 628              		.loc 6 864 27 view .LVU212
 629              		.loc 6 867 3 view .LVU213
 630              	.LBB182:
 631              	.LBI182:
 632              		.loc 7 491 27 view .LVU214
 633              	.LBB183:
 634              		.loc 7 493 3 view .LVU215
 635 000e 0023     		movs	r3, #0
 636              	.LVL35:
 637              		.loc 7 493 3 is_stmt 0 view .LVU216
 638              		.syntax unified
 639              	@ 493 "./ChibiOS/os/common/ext/ARM/CMSIS/Core/Include/cmsis_gcc.h" 1
 640 0010 83F31188 		MSR basepri, r3
 641              	@ 0 "" 2
 642              	.LVL36:
 643              		.loc 7 493 3 view .LVU217
 644              		.thumb
 645              		.syntax unified
 646              	.LBE183:
 647              	.LBE182:
 648              	.LBE181:
 649              	.LBE180:
 650              	.LBE179:
 651              		.loc 1 298 3 is_stmt 1 view .LVU218
 652              		.loc 1 299 1 is_stmt 0 view .LVU219
 653 0014 7047     		bx	lr
 654              	.LVL37:
 655              	.L38:
 656              	.LBB188:
 657              	.LBB178:
 658              	.LBB176:
 659              	.LBB174:
 660              		.loc 3 529 10 view .LVU220
 661 0016 054A     		ldr	r2, .L39
 662              	.LBE174:
 663              	.LBE176:
 664              		.loc 1 345 10 view .LVU221
 665 0018 0120     		movs	r0, #1
 666              	.LVL38:
 667              	.LBB177:
 668              	.LBB175:
 669              		.loc 3 529 10 view .LVU222
 670 001a D268     		ldr	r2, [r2, #12]
 671              	.LBE175:
 672              	.LBE177:
 673              		.loc 1 342 3 is_stmt 1 view .LVU223
 674              		.loc 1 343 12 is_stmt 0 view .LVU224
 675 001c 916C     		ldr	r1, [r2, #72]
 676 001e C3E90221 		strd	r2, r1, [r3, #8]
 677              		.loc 1 344 3 is_stmt 1 view .LVU225
 678              		.loc 1 344 19 is_stmt 0 view .LVU226
 679 0022 9364     		str	r3, [r2, #72]
 680              		.loc 1 345 3 is_stmt 1 view .LVU227
 681              	.LVL39:
 682              		.loc 1 345 3 is_stmt 0 view .LVU228
 683              	.LBE178:
 684              	.LBE188:
ARM GAS  C:\Users\DEVELO~1\AppData\Local\Temp\ccYZxVu7.s 			page 13


 685              		.loc 1 296 3 is_stmt 1 view .LVU229
 686              	.LBB189:
 687              		.loc 5 386 20 view .LVU230
 688              	.LBB187:
 689              		.loc 5 388 23 view .LVU231
 690              		.loc 5 389 34 view .LVU232
 691              		.loc 5 395 3 view .LVU233
 692              		.loc 5 395 3 view .LVU234
 693              		.loc 5 395 3 view .LVU235
 694              		.loc 5 399 3 view .LVU236
 695              	.LBB186:
 696              		.loc 6 864 27 view .LVU237
 697              		.loc 6 867 3 view .LVU238
 698              	.LBB185:
 699              		.loc 7 491 27 view .LVU239
 700              	.LBB184:
 701              		.loc 7 493 3 view .LVU240
 702 0024 0023     		movs	r3, #0
 703              	.LVL40:
 704              		.loc 7 493 3 is_stmt 0 view .LVU241
 705              		.syntax unified
 706              	@ 493 "./ChibiOS/os/common/ext/ARM/CMSIS/Core/Include/cmsis_gcc.h" 1
 707 0026 83F31188 		MSR basepri, r3
 708              	@ 0 "" 2
 709              	.LVL41:
 710              		.loc 7 493 3 view .LVU242
 711              		.thumb
 712              		.syntax unified
 713              	.LBE184:
 714              	.LBE185:
 715              	.LBE186:
 716              	.LBE187:
 717              	.LBE189:
 718              		.loc 1 298 3 is_stmt 1 view .LVU243
 719              		.loc 1 299 1 is_stmt 0 view .LVU244
 720 002a 7047     		bx	lr
 721              	.L40:
 722              		.align	2
 723              	.L39:
 724 002c 00000000 		.word	ch0
 725              		.cfi_endproc
 726              	.LFE356:
 727              		.size	chMtxTryLock, .-chMtxTryLock
 728              		.section	.text.chMtxTryLockS,"ax",%progbits
 729              		.align	1
 730              		.p2align 4,,15
 731              		.global	chMtxTryLockS
 732              		.syntax unified
 733              		.thumb
 734              		.thumb_func
 735              		.type	chMtxTryLockS, %function
 736              	chMtxTryLockS:
 737              	.LVL42:
 738              	.LFB357:
 739              		.loc 1 318 33 is_stmt 1 view -0
 740              		.cfi_startproc
 741              		@ args = 0, pretend = 0, frame = 0
ARM GAS  C:\Users\DEVELO~1\AppData\Local\Temp\ccYZxVu7.s 			page 14


 742              		@ frame_needed = 0, uses_anonymous_args = 0
 743              		@ link register save eliminated.
 744              		.loc 1 319 3 view .LVU246
 745              	.LBB190:
 746              	.LBI190:
 747              		.loc 3 527 25 view .LVU247
 748              	.LBB191:
 749              		.loc 3 529 3 view .LVU248
 750              		.loc 3 529 3 is_stmt 0 view .LVU249
 751              	.LBE191:
 752              	.LBE190:
 753              		.loc 1 321 21 is_stmt 1 view .LVU250
 754              		.loc 1 322 3 view .LVU251
 755              		.loc 1 322 3 view .LVU252
 756              		.loc 1 322 3 view .LVU253
 757              		.loc 1 324 3 view .LVU254
 758              		.loc 1 324 6 is_stmt 0 view .LVU255
 759 0000 8268     		ldr	r2, [r0, #8]
 760              		.loc 1 318 33 view .LVU256
 761 0002 0346     		mov	r3, r0
 762              		.loc 1 324 6 view .LVU257
 763 0004 0AB1     		cbz	r2, .L44
 764              		.loc 1 334 12 view .LVU258
 765 0006 0020     		movs	r0, #0
 766              	.LVL43:
 767              		.loc 1 346 1 view .LVU259
 768 0008 7047     		bx	lr
 769              	.LVL44:
 770              	.L44:
 771              	.LBB194:
 772              	.LBB192:
 773              		.loc 3 529 10 view .LVU260
 774 000a 044A     		ldr	r2, .L45
 775              	.LBE192:
 776              	.LBE194:
 777              		.loc 1 345 10 view .LVU261
 778 000c 0120     		movs	r0, #1
 779              	.LVL45:
 780              	.LBB195:
 781              	.LBB193:
 782              		.loc 3 529 10 view .LVU262
 783 000e D268     		ldr	r2, [r2, #12]
 784              	.LBE193:
 785              	.LBE195:
 786              		.loc 1 342 3 is_stmt 1 view .LVU263
 787              		.loc 1 343 12 is_stmt 0 view .LVU264
 788 0010 916C     		ldr	r1, [r2, #72]
 789 0012 C3E90221 		strd	r2, r1, [r3, #8]
 790              		.loc 1 344 3 is_stmt 1 view .LVU265
 791              		.loc 1 344 19 is_stmt 0 view .LVU266
 792 0016 9364     		str	r3, [r2, #72]
 793              		.loc 1 345 3 is_stmt 1 view .LVU267
 794              		.loc 1 345 10 is_stmt 0 view .LVU268
 795 0018 7047     		bx	lr
 796              	.L46:
 797 001a 00BF     		.align	2
 798              	.L45:
ARM GAS  C:\Users\DEVELO~1\AppData\Local\Temp\ccYZxVu7.s 			page 15


 799 001c 00000000 		.word	ch0
 800              		.cfi_endproc
 801              	.LFE357:
 802              		.size	chMtxTryLockS, .-chMtxTryLockS
 803              		.section	.text.chMtxUnlock,"ax",%progbits
 804              		.align	1
 805              		.p2align 4,,15
 806              		.global	chMtxUnlock
 807              		.syntax unified
 808              		.thumb
 809              		.thumb_func
 810              		.type	chMtxUnlock, %function
 811              	chMtxUnlock:
 812              	.LVL46:
 813              	.LFB358:
 814              		.loc 1 360 31 is_stmt 1 view -0
 815              		.cfi_startproc
 816              		@ args = 0, pretend = 0, frame = 0
 817              		@ frame_needed = 0, uses_anonymous_args = 0
 818              		.loc 1 361 3 view .LVU270
 819              	.LBB196:
 820              	.LBI196:
 821              		.loc 3 527 25 view .LVU271
 822              	.LBB197:
 823              		.loc 3 529 3 view .LVU272
 824              		.loc 3 529 10 is_stmt 0 view .LVU273
 825 0000 174A     		ldr	r2, .L58
 826              	.LBE197:
 827              	.LBE196:
 828              	.LBB199:
 829              	.LBB200:
 830              	.LBB201:
 831              	.LBB202:
 832              		.loc 7 493 3 view .LVU274
 833 0002 3023     		movs	r3, #48
 834              	.LBE202:
 835              	.LBE201:
 836              	.LBE200:
 837              	.LBE199:
 838              		.loc 1 360 31 view .LVU275
 839 0004 10B5     		push	{r4, lr}
 840              		.cfi_def_cfa_offset 8
 841              		.cfi_offset 4, -8
 842              		.cfi_offset 14, -4
 843              	.LBB206:
 844              	.LBB198:
 845              		.loc 3 529 10 view .LVU276
 846 0006 D468     		ldr	r4, [r2, #12]
 847              	.LVL47:
 848              		.loc 3 529 10 view .LVU277
 849              	.LBE198:
 850              	.LBE206:
 851              		.loc 1 362 3 is_stmt 1 view .LVU278
 852              		.loc 1 364 3 view .LVU279
 853              		.loc 1 364 3 view .LVU280
 854              		.loc 1 364 3 view .LVU281
 855              		.loc 1 366 3 view .LVU282
ARM GAS  C:\Users\DEVELO~1\AppData\Local\Temp\ccYZxVu7.s 			page 16


 856              	.LBB207:
 857              	.LBI199:
 858              		.loc 5 372 20 view .LVU283
 859              		.loc 5 374 3 view .LVU284
 860              	.LBB205:
 861              	.LBI200:
 862              		.loc 6 840 27 view .LVU285
 863              		.loc 6 848 3 view .LVU286
 864              	.LBB204:
 865              	.LBI201:
 866              		.loc 7 491 27 view .LVU287
 867              	.LBB203:
 868              		.loc 7 493 3 view .LVU288
 869              		.syntax unified
 870              	@ 493 "./ChibiOS/os/common/ext/ARM/CMSIS/Core/Include/cmsis_gcc.h" 1
 871 0008 83F31188 		MSR basepri, r3
 872              	@ 0 "" 2
 873              	.LVL48:
 874              		.loc 7 493 3 is_stmt 0 view .LVU289
 875              		.thumb
 876              		.syntax unified
 877              	.LBE203:
 878              	.LBE204:
 879              	.LBE205:
 880              		.loc 5 375 35 is_stmt 1 view .LVU290
 881              		.loc 5 376 21 view .LVU291
 882              	.LBE207:
 883              		.loc 1 368 3 view .LVU292
 884              		.loc 1 368 3 view .LVU293
 885              		.loc 1 368 3 view .LVU294
 886              		.loc 1 369 3 view .LVU295
 887              		.loc 1 369 3 view .LVU296
 888              		.loc 1 369 3 view .LVU297
 889              		.loc 1 376 5 view .LVU298
 890              		.loc 1 376 5 view .LVU299
 891              		.loc 1 376 5 view .LVU300
 892              		.loc 1 381 5 view .LVU301
 893              		.loc 1 384 8 is_stmt 0 view .LVU302
 894 000c 0268     		ldr	r2, [r0]
 895              		.loc 1 381 25 view .LVU303
 896 000e C368     		ldr	r3, [r0, #12]
 897              		.loc 1 384 8 view .LVU304
 898 0010 8242     		cmp	r2, r0
 899              		.loc 1 381 21 view .LVU305
 900 0012 A364     		str	r3, [r4, #72]
 901              		.loc 1 384 5 is_stmt 1 view .LVU306
 902              	.LVL49:
 903              	.LBB208:
 904              	.LBI208:
 905              		.file 8 "./ChibiOS/os/rt/include/chmtx.h"
 906              		.loc 8 129 20 view .LVU307
 907              	.LBB209:
 908              		.loc 8 131 21 view .LVU308
 909              		.loc 8 133 3 view .LVU309
 910              	.LBB210:
 911              	.LBI210:
 912              		.loc 2 309 20 view .LVU310
ARM GAS  C:\Users\DEVELO~1\AppData\Local\Temp\ccYZxVu7.s 			page 17


 913              	.LBB211:
 914              		.loc 2 311 3 view .LVU311
 915              		.loc 2 311 3 is_stmt 0 view .LVU312
 916              	.LBE211:
 917              	.LBE210:
 918              	.LBE209:
 919              	.LBE208:
 920              		.loc 1 384 8 view .LVU313
 921 0014 1DD0     		beq	.L48
 922              	.LBB212:
 923              		.loc 1 385 7 is_stmt 1 view .LVU314
 924              		.loc 1 389 7 view .LVU315
 925 0016 0146     		mov	r1, r0
 926              		.loc 1 389 15 is_stmt 0 view .LVU316
 927 0018 E06C     		ldr	r0, [r4, #76]
 928              	.LVL50:
 929              		.loc 1 390 7 is_stmt 1 view .LVU317
 930              		.loc 1 391 7 view .LVU318
 931              		.loc 1 391 18 view .LVU319
 932 001a 4BB1     		cbz	r3, .L49
 933              	.L51:
 934              		.loc 1 395 9 view .LVU320
 935              	.LVL51:
 936              	.LBB213:
 937              	.LBI213:
 938              		.loc 8 129 20 view .LVU321
 939              	.LBB214:
 940              		.loc 8 131 21 view .LVU322
 941              		.loc 8 133 3 view .LVU323
 942              	.LBB215:
 943              	.LBI215:
 944              		.loc 2 309 20 view .LVU324
 945              	.LBB216:
 946              		.loc 2 311 3 view .LVU325
 947              		.loc 2 311 19 is_stmt 0 view .LVU326
 948 001c 1A68     		ldr	r2, [r3]
 949              	.LVL52:
 950              		.loc 2 311 19 view .LVU327
 951              	.LBE216:
 952              	.LBE215:
 953              	.LBE214:
 954              	.LBE213:
 955              		.loc 1 395 12 view .LVU328
 956 001e 9342     		cmp	r3, r2
 957 0020 03D0     		beq	.L50
 958              		.loc 1 395 12 view .LVU329
 959 0022 9268     		ldr	r2, [r2, #8]
 960 0024 9042     		cmp	r0, r2
 961 0026 38BF     		it	cc
 962 0028 1046     		movcc	r0, r2
 963              	.LVL53:
 964              	.L50:
 965              		.loc 1 399 9 is_stmt 1 view .LVU330
 966              		.loc 1 399 13 is_stmt 0 view .LVU331
 967 002a DB68     		ldr	r3, [r3, #12]
 968              	.LVL54:
 969              		.loc 1 391 18 is_stmt 1 view .LVU332
ARM GAS  C:\Users\DEVELO~1\AppData\Local\Temp\ccYZxVu7.s 			page 18


 970 002c 002B     		cmp	r3, #0
 971 002e F5D1     		bne	.L51
 972              	.L49:
 973              		.loc 1 404 7 view .LVU333
 974              		.loc 1 404 31 is_stmt 0 view .LVU334
 975 0030 A060     		str	r0, [r4, #8]
 976              		.loc 1 411 7 is_stmt 1 view .LVU335
 977              	.LVL55:
 978              	.LBB217:
 979              	.LBI217:
 980              		.loc 2 340 27 view .LVU336
 981              	.LBB218:
 982              		.loc 2 341 3 view .LVU337
 983              		.loc 2 341 15 is_stmt 0 view .LVU338
 984 0032 0868     		ldr	r0, [r1]
 985              	.LVL56:
 986              		.loc 2 343 3 is_stmt 1 view .LVU339
 987              	.LBE218:
 988              	.LBE217:
 989              		.loc 1 413 16 is_stmt 0 view .LVU340
 990 0034 826C     		ldr	r2, [r0, #72]
 991              	.LBB220:
 992              	.LBB219:
 993              		.loc 2 343 21 view .LVU341
 994 0036 0368     		ldr	r3, [r0]
 995              	.LVL57:
 996              		.loc 2 343 18 view .LVU342
 997 0038 0B60     		str	r3, [r1]
 998              	.LVL58:
 999              		.loc 2 344 3 is_stmt 1 view .LVU343
 1000              		.loc 2 344 18 is_stmt 0 view .LVU344
 1001 003a 5960     		str	r1, [r3, #4]
 1002              		.loc 2 346 3 is_stmt 1 view .LVU345
 1003              	.LVL59:
 1004              		.loc 2 346 3 is_stmt 0 view .LVU346
 1005              	.LBE219:
 1006              	.LBE220:
 1007              		.loc 1 412 7 is_stmt 1 view .LVU347
 1008              		.loc 1 413 16 is_stmt 0 view .LVU348
 1009 003c C1E90202 		strd	r0, r2, [r1, #8]
 1010              		.loc 1 414 7 is_stmt 1 view .LVU349
 1011              		.loc 1 414 19 is_stmt 0 view .LVU350
 1012 0040 8164     		str	r1, [r0, #72]
 1013              		.loc 1 420 7 is_stmt 1 view .LVU351
 1014              		.loc 1 420 14 is_stmt 0 view .LVU352
 1015 0042 FFF7FEFF 		bl	chSchReadyI
 1016              	.LVL60:
 1017              		.loc 1 421 7 is_stmt 1 view .LVU353
 1018 0046 FFF7FEFF 		bl	chSchRescheduleS
 1019              	.LVL61:
 1020              	.LBE212:
 1021              		.loc 1 430 3 view .LVU354
 1022              	.LBB221:
 1023              	.LBI221:
 1024              		.loc 5 386 20 view .LVU355
 1025              	.LBB222:
 1026              		.loc 5 388 23 view .LVU356
ARM GAS  C:\Users\DEVELO~1\AppData\Local\Temp\ccYZxVu7.s 			page 19


 1027              		.loc 5 389 34 view .LVU357
 1028              		.loc 5 395 3 view .LVU358
 1029              		.loc 5 395 3 view .LVU359
 1030              		.loc 5 395 3 view .LVU360
 1031              		.loc 5 399 3 view .LVU361
 1032              	.LBB223:
 1033              	.LBI223:
 1034              		.loc 6 864 27 view .LVU362
 1035              		.loc 6 867 3 view .LVU363
 1036              	.LBB224:
 1037              	.LBI224:
 1038              		.loc 7 491 27 view .LVU364
 1039              	.LBB225:
 1040              		.loc 7 493 3 view .LVU365
 1041 004a 0023     		movs	r3, #0
 1042              		.syntax unified
 1043              	@ 493 "./ChibiOS/os/common/ext/ARM/CMSIS/Core/Include/cmsis_gcc.h" 1
 1044 004c 83F31188 		MSR basepri, r3
 1045              	@ 0 "" 2
 1046              	.LVL62:
 1047              		.loc 7 493 3 is_stmt 0 view .LVU366
 1048              		.thumb
 1049              		.syntax unified
 1050              	.LBE225:
 1051              	.LBE224:
 1052              	.LBE223:
 1053              	.LBE222:
 1054              	.LBE221:
 1055              		.loc 1 431 1 view .LVU367
 1056 0050 10BD     		pop	{r4, pc}
 1057              	.LVL63:
 1058              	.L48:
 1059              		.loc 1 424 7 is_stmt 1 view .LVU368
 1060              		.loc 1 424 17 is_stmt 0 view .LVU369
 1061 0052 0023     		movs	r3, #0
 1062 0054 9360     		str	r3, [r2, #8]
 1063              		.loc 1 430 3 is_stmt 1 view .LVU370
 1064              	.LBB230:
 1065              		.loc 5 386 20 view .LVU371
 1066              	.LBB229:
 1067              		.loc 5 388 23 view .LVU372
 1068              		.loc 5 389 34 view .LVU373
 1069              		.loc 5 395 3 view .LVU374
 1070              		.loc 5 395 3 view .LVU375
 1071              		.loc 5 395 3 view .LVU376
 1072              		.loc 5 399 3 view .LVU377
 1073              	.LBB228:
 1074              		.loc 6 864 27 view .LVU378
 1075              		.loc 6 867 3 view .LVU379
 1076              	.LVL64:
 1077              	.LBB227:
 1078              		.loc 7 491 27 view .LVU380
 1079              	.LBB226:
 1080              		.loc 7 493 3 view .LVU381
 1081 0056 0023     		movs	r3, #0
 1082              		.syntax unified
 1083              	@ 493 "./ChibiOS/os/common/ext/ARM/CMSIS/Core/Include/cmsis_gcc.h" 1
ARM GAS  C:\Users\DEVELO~1\AppData\Local\Temp\ccYZxVu7.s 			page 20


 1084 0058 83F31188 		MSR basepri, r3
 1085              	@ 0 "" 2
 1086              	.LVL65:
 1087              		.loc 7 493 3 is_stmt 0 view .LVU382
 1088              		.thumb
 1089              		.syntax unified
 1090              	.LBE226:
 1091              	.LBE227:
 1092              	.LBE228:
 1093              	.LBE229:
 1094              	.LBE230:
 1095              		.loc 1 431 1 view .LVU383
 1096 005c 10BD     		pop	{r4, pc}
 1097              	.LVL66:
 1098              	.L59:
 1099              		.loc 1 431 1 view .LVU384
 1100 005e 00BF     		.align	2
 1101              	.L58:
 1102 0060 00000000 		.word	ch0
 1103              		.cfi_endproc
 1104              	.LFE358:
 1105              		.size	chMtxUnlock, .-chMtxUnlock
 1106              		.section	.text.chMtxUnlockS,"ax",%progbits
 1107              		.align	1
 1108              		.p2align 4,,15
 1109              		.global	chMtxUnlockS
 1110              		.syntax unified
 1111              		.thumb
 1112              		.thumb_func
 1113              		.type	chMtxUnlockS, %function
 1114              	chMtxUnlockS:
 1115              	.LVL67:
 1116              	.LFB359:
 1117              		.loc 1 447 32 is_stmt 1 view -0
 1118              		.cfi_startproc
 1119              		@ args = 0, pretend = 0, frame = 0
 1120              		@ frame_needed = 0, uses_anonymous_args = 0
 1121              		@ link register save eliminated.
 1122              		.loc 1 448 3 view .LVU386
 1123              	.LBB231:
 1124              	.LBI231:
 1125              		.loc 3 527 25 view .LVU387
 1126              	.LBB232:
 1127              		.loc 3 529 3 view .LVU388
 1128              		.loc 3 529 10 is_stmt 0 view .LVU389
 1129 0000 124B     		ldr	r3, .L70
 1130              	.LBE232:
 1131              	.LBE231:
 1132              		.loc 1 470 8 view .LVU390
 1133 0002 0268     		ldr	r2, [r0]
 1134              		.loc 1 447 32 view .LVU391
 1135 0004 10B4     		push	{r4}
 1136              		.cfi_def_cfa_offset 4
 1137              		.cfi_offset 4, -4
 1138              		.loc 1 470 8 view .LVU392
 1139 0006 8242     		cmp	r2, r0
 1140              	.LBB234:
ARM GAS  C:\Users\DEVELO~1\AppData\Local\Temp\ccYZxVu7.s 			page 21


 1141              	.LBB233:
 1142              		.loc 3 529 10 view .LVU393
 1143 0008 DC68     		ldr	r4, [r3, #12]
 1144              	.LVL68:
 1145              		.loc 3 529 10 view .LVU394
 1146              	.LBE233:
 1147              	.LBE234:
 1148              		.loc 1 449 3 is_stmt 1 view .LVU395
 1149              		.loc 1 451 21 view .LVU396
 1150              		.loc 1 452 3 view .LVU397
 1151              		.loc 1 452 3 view .LVU398
 1152              		.loc 1 452 3 view .LVU399
 1153              		.loc 1 454 3 view .LVU400
 1154              		.loc 1 454 3 view .LVU401
 1155              		.loc 1 454 3 view .LVU402
 1156              		.loc 1 455 3 view .LVU403
 1157              		.loc 1 455 3 view .LVU404
 1158              		.loc 1 455 3 view .LVU405
 1159              		.loc 1 462 5 view .LVU406
 1160              		.loc 1 462 5 view .LVU407
 1161              		.loc 1 462 5 view .LVU408
 1162              		.loc 1 467 5 view .LVU409
 1163              		.loc 1 467 25 is_stmt 0 view .LVU410
 1164 000a C368     		ldr	r3, [r0, #12]
 1165              		.loc 1 467 21 view .LVU411
 1166 000c A364     		str	r3, [r4, #72]
 1167              		.loc 1 470 5 is_stmt 1 view .LVU412
 1168              	.LVL69:
 1169              	.LBB235:
 1170              	.LBI235:
 1171              		.loc 8 129 20 view .LVU413
 1172              	.LBB236:
 1173              		.loc 8 131 21 view .LVU414
 1174              		.loc 8 133 3 view .LVU415
 1175              	.LBB237:
 1176              	.LBI237:
 1177              		.loc 2 309 20 view .LVU416
 1178              	.LBB238:
 1179              		.loc 2 311 3 view .LVU417
 1180              		.loc 2 311 3 is_stmt 0 view .LVU418
 1181              	.LBE238:
 1182              	.LBE237:
 1183              	.LBE236:
 1184              	.LBE235:
 1185              		.loc 1 470 8 view .LVU419
 1186 000e 18D0     		beq	.L61
 1187              	.LBB239:
 1188              		.loc 1 471 7 is_stmt 1 view .LVU420
 1189              		.loc 1 475 7 view .LVU421
 1190 0010 0146     		mov	r1, r0
 1191              		.loc 1 475 15 is_stmt 0 view .LVU422
 1192 0012 E06C     		ldr	r0, [r4, #76]
 1193              	.LVL70:
 1194              		.loc 1 476 7 is_stmt 1 view .LVU423
 1195              		.loc 1 477 7 view .LVU424
 1196              		.loc 1 477 18 view .LVU425
 1197 0014 4BB1     		cbz	r3, .L62
ARM GAS  C:\Users\DEVELO~1\AppData\Local\Temp\ccYZxVu7.s 			page 22


 1198              	.L64:
 1199              		.loc 1 481 9 view .LVU426
 1200              	.LVL71:
 1201              	.LBB240:
 1202              	.LBI240:
 1203              		.loc 8 129 20 view .LVU427
 1204              	.LBB241:
 1205              		.loc 8 131 21 view .LVU428
 1206              		.loc 8 133 3 view .LVU429
 1207              	.LBB242:
 1208              	.LBI242:
 1209              		.loc 2 309 20 view .LVU430
 1210              	.LBB243:
 1211              		.loc 2 311 3 view .LVU431
 1212              		.loc 2 311 19 is_stmt 0 view .LVU432
 1213 0016 1A68     		ldr	r2, [r3]
 1214              	.LVL72:
 1215              		.loc 2 311 19 view .LVU433
 1216              	.LBE243:
 1217              	.LBE242:
 1218              	.LBE241:
 1219              	.LBE240:
 1220              		.loc 1 481 12 view .LVU434
 1221 0018 9342     		cmp	r3, r2
 1222 001a 03D0     		beq	.L63
 1223              		.loc 1 481 12 view .LVU435
 1224 001c 9268     		ldr	r2, [r2, #8]
 1225 001e 9042     		cmp	r0, r2
 1226 0020 38BF     		it	cc
 1227 0022 1046     		movcc	r0, r2
 1228              	.LVL73:
 1229              	.L63:
 1230              		.loc 1 485 9 is_stmt 1 view .LVU436
 1231              		.loc 1 485 13 is_stmt 0 view .LVU437
 1232 0024 DB68     		ldr	r3, [r3, #12]
 1233              	.LVL74:
 1234              		.loc 1 477 18 is_stmt 1 view .LVU438
 1235 0026 002B     		cmp	r3, #0
 1236 0028 F5D1     		bne	.L64
 1237              	.L62:
 1238              		.loc 1 490 7 view .LVU439
 1239              		.loc 1 490 31 is_stmt 0 view .LVU440
 1240 002a A060     		str	r0, [r4, #8]
 1241              		.loc 1 497 7 is_stmt 1 view .LVU441
 1242              	.LVL75:
 1243              	.LBB244:
 1244              	.LBI244:
 1245              		.loc 2 340 27 view .LVU442
 1246              	.LBB245:
 1247              		.loc 2 341 3 view .LVU443
 1248              		.loc 2 341 15 is_stmt 0 view .LVU444
 1249 002c 0868     		ldr	r0, [r1]
 1250              	.LVL76:
 1251              		.loc 2 343 3 is_stmt 1 view .LVU445
 1252              	.LBE245:
 1253              	.LBE244:
 1254              	.LBE239:
ARM GAS  C:\Users\DEVELO~1\AppData\Local\Temp\ccYZxVu7.s 			page 23


 1255              		.loc 1 509 1 is_stmt 0 view .LVU446
 1256 002e 10BC     		pop	{r4}
 1257              		.cfi_remember_state
 1258              		.cfi_restore 4
 1259              		.cfi_def_cfa_offset 0
 1260              	.LVL77:
 1261              	.LBB248:
 1262              		.loc 1 499 16 view .LVU447
 1263 0030 826C     		ldr	r2, [r0, #72]
 1264              	.LBB247:
 1265              	.LBB246:
 1266              		.loc 2 343 21 view .LVU448
 1267 0032 0368     		ldr	r3, [r0]
 1268              	.LVL78:
 1269              		.loc 2 343 18 view .LVU449
 1270 0034 0B60     		str	r3, [r1]
 1271              	.LVL79:
 1272              		.loc 2 344 3 is_stmt 1 view .LVU450
 1273              		.loc 2 344 18 is_stmt 0 view .LVU451
 1274 0036 5960     		str	r1, [r3, #4]
 1275              		.loc 2 346 3 is_stmt 1 view .LVU452
 1276              	.LVL80:
 1277              		.loc 2 346 3 is_stmt 0 view .LVU453
 1278              	.LBE246:
 1279              	.LBE247:
 1280              		.loc 1 498 7 is_stmt 1 view .LVU454
 1281              		.loc 1 499 16 is_stmt 0 view .LVU455
 1282 0038 C1E90202 		strd	r0, r2, [r1, #8]
 1283              		.loc 1 500 7 is_stmt 1 view .LVU456
 1284              		.loc 1 500 19 is_stmt 0 view .LVU457
 1285 003c 8164     		str	r1, [r0, #72]
 1286              		.loc 1 501 7 is_stmt 1 view .LVU458
 1287              		.loc 1 501 14 is_stmt 0 view .LVU459
 1288 003e FFF7FEBF 		b	chSchReadyI
 1289              	.LVL81:
 1290              	.L61:
 1291              		.cfi_restore_state
 1292              		.loc 1 501 14 view .LVU460
 1293              	.LBE248:
 1294              		.loc 1 504 7 is_stmt 1 view .LVU461
 1295              		.loc 1 504 17 is_stmt 0 view .LVU462
 1296 0042 0023     		movs	r3, #0
 1297              		.loc 1 509 1 view .LVU463
 1298 0044 10BC     		pop	{r4}
 1299              		.cfi_restore 4
 1300              		.cfi_def_cfa_offset 0
 1301              	.LVL82:
 1302              		.loc 1 504 17 view .LVU464
 1303 0046 9360     		str	r3, [r2, #8]
 1304              		.loc 1 509 1 view .LVU465
 1305 0048 7047     		bx	lr
 1306              	.L71:
 1307 004a 00BF     		.align	2
 1308              	.L70:
 1309 004c 00000000 		.word	ch0
 1310              		.cfi_endproc
 1311              	.LFE359:
ARM GAS  C:\Users\DEVELO~1\AppData\Local\Temp\ccYZxVu7.s 			page 24


 1312              		.size	chMtxUnlockS, .-chMtxUnlockS
 1313              		.section	.text.chMtxUnlockAllS,"ax",%progbits
 1314              		.align	1
 1315              		.p2align 4,,15
 1316              		.global	chMtxUnlockAllS
 1317              		.syntax unified
 1318              		.thumb
 1319              		.thumb_func
 1320              		.type	chMtxUnlockAllS, %function
 1321              	chMtxUnlockAllS:
 1322              	.LFB360:
 1323              		.loc 1 524 28 is_stmt 1 view -0
 1324              		.cfi_startproc
 1325              		@ args = 0, pretend = 0, frame = 0
 1326              		@ frame_needed = 0, uses_anonymous_args = 0
 1327              		.loc 1 525 3 view .LVU467
 1328              	.LBB249:
 1329              	.LBI249:
 1330              		.loc 3 527 25 view .LVU468
 1331              	.LBB250:
 1332              		.loc 3 529 3 view .LVU469
 1333              		.loc 3 529 10 is_stmt 0 view .LVU470
 1334 0000 114B     		ldr	r3, .L80
 1335              	.LBE250:
 1336              	.LBE249:
 1337              		.loc 1 524 28 view .LVU471
 1338 0002 70B5     		push	{r4, r5, r6, lr}
 1339              		.cfi_def_cfa_offset 16
 1340              		.cfi_offset 4, -16
 1341              		.cfi_offset 5, -12
 1342              		.cfi_offset 6, -8
 1343              		.cfi_offset 14, -4
 1344              	.LBB252:
 1345              	.LBB251:
 1346              		.loc 3 529 10 view .LVU472
 1347 0004 DC68     		ldr	r4, [r3, #12]
 1348              	.LVL83:
 1349              		.loc 3 529 10 view .LVU473
 1350              	.LBE251:
 1351              	.LBE252:
 1352              		.loc 1 527 3 is_stmt 1 view .LVU474
 1353              		.loc 1 527 13 is_stmt 0 view .LVU475
 1354 0006 A36C     		ldr	r3, [r4, #72]
 1355              		.loc 1 527 6 view .LVU476
 1356 0008 EBB1     		cbz	r3, .L72
 1357              	.LBB253:
 1358              		.loc 1 546 19 view .LVU477
 1359 000a 0026     		movs	r6, #0
 1360              	.L76:
 1361              		.loc 1 546 19 view .LVU478
 1362              	.LBE253:
 1363              		.loc 1 528 5 is_stmt 1 view .LVU479
 1364              	.LBB272:
 1365              		.loc 1 529 7 view .LVU480
 1366              	.LVL84:
 1367              		.loc 1 530 7 view .LVU481
 1368              	.LBB254:
ARM GAS  C:\Users\DEVELO~1\AppData\Local\Temp\ccYZxVu7.s 			page 25


 1369              		.loc 1 532 9 view .LVU482
 1370              		.loc 1 536 9 view .LVU483
 1371              	.LBB255:
 1372              	.LBI255:
 1373              		.loc 2 340 27 view .LVU484
 1374              	.LBB256:
 1375              		.loc 2 341 3 view .LVU485
 1376              	.LBE256:
 1377              	.LBE255:
 1378              	.LBE254:
 1379              		.loc 1 546 9 view .LVU486
 1380              	.LBB261:
 1381              	.LBB262:
 1382              	.LBB263:
 1383              	.LBB264:
 1384              		.loc 2 311 19 is_stmt 0 view .LVU487
 1385 000c 1A68     		ldr	r2, [r3]
 1386              	.LVL85:
 1387              		.loc 2 311 19 view .LVU488
 1388              	.LBE264:
 1389              	.LBE263:
 1390              	.LBE262:
 1391              	.LBE261:
 1392              	.LBB268:
 1393              	.LBB259:
 1394              	.LBB257:
 1395              		.loc 2 343 3 is_stmt 1 view .LVU489
 1396              	.LBE257:
 1397              	.LBE259:
 1398              	.LBE268:
 1399              		.loc 1 530 27 is_stmt 0 view .LVU490
 1400 000e D968     		ldr	r1, [r3, #12]
 1401              		.loc 1 531 10 view .LVU491
 1402 0010 9342     		cmp	r3, r2
 1403              	.LBB269:
 1404              		.loc 1 540 16 view .LVU492
 1405 0012 1046     		mov	r0, r2
 1406              	.LBE269:
 1407              		.loc 1 530 23 view .LVU493
 1408 0014 A164     		str	r1, [r4, #72]
 1409              	.LVL86:
 1410              		.loc 1 531 7 is_stmt 1 view .LVU494
 1411              	.LBB270:
 1412              	.LBI261:
 1413              		.loc 8 129 20 view .LVU495
 1414              	.LBB267:
 1415              		.loc 8 131 21 view .LVU496
 1416              		.loc 8 133 3 view .LVU497
 1417              	.LBB266:
 1418              	.LBI263:
 1419              		.loc 2 309 20 view .LVU498
 1420              	.LBB265:
 1421              		.loc 2 311 3 view .LVU499
 1422              		.loc 2 311 3 is_stmt 0 view .LVU500
 1423              	.LBE265:
 1424              	.LBE266:
 1425              	.LBE267:
ARM GAS  C:\Users\DEVELO~1\AppData\Local\Temp\ccYZxVu7.s 			page 26


 1426              	.LBE270:
 1427              		.loc 1 531 10 view .LVU501
 1428 0016 11D0     		beq	.L74
 1429              	.LBB271:
 1430              		.loc 1 538 21 view .LVU502
 1431 0018 956C     		ldr	r5, [r2, #72]
 1432              	.LBB260:
 1433              	.LBB258:
 1434              		.loc 2 343 21 view .LVU503
 1435 001a 1168     		ldr	r1, [r2]
 1436              		.loc 2 343 18 view .LVU504
 1437 001c 1960     		str	r1, [r3]
 1438              		.loc 2 344 3 is_stmt 1 view .LVU505
 1439              		.loc 2 344 18 is_stmt 0 view .LVU506
 1440 001e 4B60     		str	r3, [r1, #4]
 1441              		.loc 2 346 3 is_stmt 1 view .LVU507
 1442              	.LVL87:
 1443              		.loc 2 346 3 is_stmt 0 view .LVU508
 1444              	.LBE258:
 1445              	.LBE260:
 1446              		.loc 1 537 9 is_stmt 1 view .LVU509
 1447              		.loc 1 538 21 is_stmt 0 view .LVU510
 1448 0020 C3E90225 		strd	r2, r5, [r3, #8]
 1449              		.loc 1 539 9 is_stmt 1 view .LVU511
 1450              		.loc 1 539 21 is_stmt 0 view .LVU512
 1451 0024 9364     		str	r3, [r2, #72]
 1452              		.loc 1 540 9 is_stmt 1 view .LVU513
 1453              		.loc 1 540 16 is_stmt 0 view .LVU514
 1454 0026 FFF7FEFF 		bl	chSchReadyI
 1455              	.LVL88:
 1456              		.loc 1 540 16 view .LVU515
 1457              	.LBE271:
 1458              	.LBE272:
 1459              		.loc 1 548 30 is_stmt 1 view .LVU516
 1460              		.loc 1 548 20 is_stmt 0 view .LVU517
 1461 002a A36C     		ldr	r3, [r4, #72]
 1462              		.loc 1 548 30 view .LVU518
 1463 002c 002B     		cmp	r3, #0
 1464 002e EDD1     		bne	.L76
 1465              	.L79:
 1466              		.loc 1 549 5 is_stmt 1 view .LVU519
 1467              		.loc 1 549 29 is_stmt 0 view .LVU520
 1468 0030 E36C     		ldr	r3, [r4, #76]
 1469 0032 A360     		str	r3, [r4, #8]
 1470              		.loc 1 550 5 is_stmt 1 view .LVU521
 1471              		.loc 1 552 1 is_stmt 0 view .LVU522
 1472 0034 BDE87040 		pop	{r4, r5, r6, lr}
 1473              		.cfi_remember_state
 1474              		.cfi_restore 14
 1475              		.cfi_restore 6
 1476              		.cfi_restore 5
 1477              		.cfi_restore 4
 1478              		.cfi_def_cfa_offset 0
 1479              	.LVL89:
 1480              		.loc 1 550 5 view .LVU523
 1481 0038 FFF7FEBF 		b	chSchRescheduleS
 1482              	.LVL90:
ARM GAS  C:\Users\DEVELO~1\AppData\Local\Temp\ccYZxVu7.s 			page 27


 1483              	.L74:
 1484              		.cfi_restore_state
 1485              	.LBB273:
 1486              		.loc 1 546 19 view .LVU524
 1487 003c 9E60     		str	r6, [r3, #8]
 1488 003e 0B46     		mov	r3, r1
 1489              	.LVL91:
 1490              		.loc 1 546 19 view .LVU525
 1491              	.LBE273:
 1492              		.loc 1 548 30 is_stmt 1 view .LVU526
 1493 0040 002B     		cmp	r3, #0
 1494 0042 E3D1     		bne	.L76
 1495 0044 F4E7     		b	.L79
 1496              	.LVL92:
 1497              	.L72:
 1498              		.loc 1 552 1 is_stmt 0 view .LVU527
 1499 0046 70BD     		pop	{r4, r5, r6, pc}
 1500              	.LVL93:
 1501              	.L81:
 1502              		.loc 1 552 1 view .LVU528
 1503              		.align	2
 1504              	.L80:
 1505 0048 00000000 		.word	ch0
 1506              		.cfi_endproc
 1507              	.LFE360:
 1508              		.size	chMtxUnlockAllS, .-chMtxUnlockAllS
 1509              		.section	.text.chMtxUnlockAll,"ax",%progbits
 1510              		.align	1
 1511              		.p2align 4,,15
 1512              		.global	chMtxUnlockAll
 1513              		.syntax unified
 1514              		.thumb
 1515              		.thumb_func
 1516              		.type	chMtxUnlockAll, %function
 1517              	chMtxUnlockAll:
 1518              	.LFB361:
 1519              		.loc 1 565 27 is_stmt 1 view -0
 1520              		.cfi_startproc
 1521              		@ args = 0, pretend = 0, frame = 0
 1522              		@ frame_needed = 0, uses_anonymous_args = 0
 1523              		.loc 1 567 3 view .LVU530
 1524              	.LBB274:
 1525              	.LBI274:
 1526              		.loc 5 372 20 view .LVU531
 1527              		.loc 5 374 3 view .LVU532
 1528              	.LBB275:
 1529              	.LBI275:
 1530              		.loc 6 840 27 view .LVU533
 1531              		.loc 6 848 3 view .LVU534
 1532              	.LVL94:
 1533              	.LBB276:
 1534              	.LBI276:
 1535              		.loc 7 491 27 view .LVU535
 1536              	.LBB277:
 1537              		.loc 7 493 3 view .LVU536
 1538              	.LBE277:
 1539              	.LBE276:
ARM GAS  C:\Users\DEVELO~1\AppData\Local\Temp\ccYZxVu7.s 			page 28


 1540              	.LBE275:
 1541              	.LBE274:
 1542              		.loc 1 565 27 is_stmt 0 view .LVU537
 1543 0000 08B5     		push	{r3, lr}
 1544              		.cfi_def_cfa_offset 8
 1545              		.cfi_offset 3, -8
 1546              		.cfi_offset 14, -4
 1547              	.LBB281:
 1548              	.LBB280:
 1549              	.LBB279:
 1550              	.LBB278:
 1551              		.loc 7 493 3 view .LVU538
 1552 0002 3023     		movs	r3, #48
 1553              		.syntax unified
 1554              	@ 493 "./ChibiOS/os/common/ext/ARM/CMSIS/Core/Include/cmsis_gcc.h" 1
 1555 0004 83F31188 		MSR basepri, r3
 1556              	@ 0 "" 2
 1557              	.LVL95:
 1558              		.loc 7 493 3 view .LVU539
 1559              		.thumb
 1560              		.syntax unified
 1561              	.LBE278:
 1562              	.LBE279:
 1563              	.LBE280:
 1564              		.loc 5 375 35 is_stmt 1 view .LVU540
 1565              		.loc 5 376 21 view .LVU541
 1566              	.LBE281:
 1567              		.loc 1 568 3 view .LVU542
 1568 0008 FFF7FEFF 		bl	chMtxUnlockAllS
 1569              	.LVL96:
 1570              		.loc 1 569 3 view .LVU543
 1571              	.LBB282:
 1572              	.LBI282:
 1573              		.loc 5 386 20 view .LVU544
 1574              	.LBB283:
 1575              		.loc 5 388 23 view .LVU545
 1576              		.loc 5 389 34 view .LVU546
 1577              		.loc 5 395 3 view .LVU547
 1578              		.loc 5 395 3 view .LVU548
 1579              		.loc 5 395 3 view .LVU549
 1580              		.loc 5 399 3 view .LVU550
 1581              	.LBB284:
 1582              	.LBI284:
 1583              		.loc 6 864 27 view .LVU551
 1584              		.loc 6 867 3 view .LVU552
 1585              	.LBB285:
 1586              	.LBI285:
 1587              		.loc 7 491 27 view .LVU553
 1588              	.LBB286:
 1589              		.loc 7 493 3 view .LVU554
 1590 000c 0023     		movs	r3, #0
 1591              		.syntax unified
 1592              	@ 493 "./ChibiOS/os/common/ext/ARM/CMSIS/Core/Include/cmsis_gcc.h" 1
 1593 000e 83F31188 		MSR basepri, r3
 1594              	@ 0 "" 2
 1595              	.LVL97:
 1596              		.loc 7 493 3 is_stmt 0 view .LVU555
ARM GAS  C:\Users\DEVELO~1\AppData\Local\Temp\ccYZxVu7.s 			page 29


 1597              		.thumb
 1598              		.syntax unified
 1599              	.LBE286:
 1600              	.LBE285:
 1601              	.LBE284:
 1602              	.LBE283:
 1603              	.LBE282:
 1604              		.loc 1 570 1 view .LVU556
 1605 0012 08BD     		pop	{r3, pc}
 1606              		.cfi_endproc
 1607              	.LFE361:
 1608              		.size	chMtxUnlockAll, .-chMtxUnlockAll
 1609              		.text
 1610              	.Letext0:
 1611              		.file 9 "c:\\chibistudio\\tools\\gnu tools arm embedded\\11.3 2022.08\\arm-none-eabi\\include\\mac
 1612              		.file 10 "c:\\chibistudio\\tools\\gnu tools arm embedded\\11.3 2022.08\\arm-none-eabi\\include\\sy
 1613              		.file 11 "./ChibiOS/os/common/ports/ARM-common/include/chtypes.h"
 1614              		.file 12 "./ChibiOS/os/rt/include/chearly.h"
 1615              		.file 13 "./ChibiOS/os/rt/include/chobjects.h"
 1616              		.file 14 "./ChibiOS/os/rt/include/chrfcu.h"
 1617              		.file 15 "./ChibiOS/os/rt/include/chdebug.h"
 1618              		.file 16 "./ChibiOS/os/rt/include/chtime.h"
 1619              		.file 17 "./ChibiOS/os/rt/include/chtrace.h"
 1620              		.file 18 "./ChibiOS/os/rt/include/chsem.h"