ARM GAS  C:\Users\DEVELO~1\AppData\Local\Temp\ccsRbMwv.s 			page 1


   1              		.cpu cortex-m7
   2              		.arch armv7e-m
   3              		.fpu softvfp
   4              		.eabi_attribute 20, 1
   5              		.eabi_attribute 21, 1
   6              		.eabi_attribute 23, 3
   7              		.eabi_attribute 24, 1
   8              		.eabi_attribute 25, 1
   9              		.eabi_attribute 26, 1
  10              		.eabi_attribute 30, 2
  11              		.eabi_attribute 34, 1
  12              		.eabi_attribute 18, 4
  13              		.file	"chobjcaches.c"
  14              		.text
  15              	.Ltext0:
  16              		.cfi_sections	.debug_frame
  17              		.section	.text.chCacheObjectInit,"ax",%progbits
  18              		.align	1
  19              		.p2align 4,,15
  20              		.global	chCacheObjectInit
  21              		.syntax unified
  22              		.thumb
  23              		.thumb_func
  24              		.type	chCacheObjectInit, %function
  25              	chCacheObjectInit:
  26              	.LVL0:
  27              	.LFB348:
  28              		.file 1 "../../../os/oslib/src/chobjcaches.c"
  29              		.loc 1 247 44 view -0
  30              		.cfi_startproc
  31              		@ args = 16, pretend = 0, frame = 0
  32              		@ frame_needed = 0, uses_anonymous_args = 0
  33              		.loc 1 249 3 view .LVU1
  34              		.loc 1 249 3 view .LVU2
  35              		.loc 1 249 3 view .LVU3
  36              		.loc 1 255 3 view .LVU4
  37              		.loc 1 247 44 is_stmt 0 view .LVU5
  38 0000 2DE9F047 		push	{r4, r5, r6, r7, r8, r9, r10, lr}
  39              		.cfi_def_cfa_offset 32
  40              		.cfi_offset 4, -32
  41              		.cfi_offset 5, -28
  42              		.cfi_offset 6, -24
  43              		.cfi_offset 7, -20
  44              		.cfi_offset 8, -16
  45              		.cfi_offset 9, -12
  46              		.cfi_offset 10, -8
  47              		.cfi_offset 14, -4
  48              		.loc 1 247 44 view .LVU6
  49 0004 0646     		mov	r6, r0
  50 0006 1F46     		mov	r7, r3
  51 0008 8946     		mov	r9, r1
  52              		.loc 1 255 3 view .LVU7
  53 000a 2430     		adds	r0, r0, #36
  54              	.LVL1:
  55              		.loc 1 255 3 view .LVU8
  56 000c 0121     		movs	r1, #1
  57              	.LVL2:
ARM GAS  C:\Users\DEVELO~1\AppData\Local\Temp\ccsRbMwv.s 			page 2


  58              		.loc 1 247 44 view .LVU9
  59 000e 1546     		mov	r5, r2
  60 0010 099C     		ldr	r4, [sp, #36]
  61 0012 DDF82080 		ldr	r8, [sp, #32]
  62              		.loc 1 255 3 view .LVU10
  63 0016 FFF7FEFF 		bl	chSemObjectInit
  64              	.LVL3:
  65              		.loc 1 256 3 is_stmt 1 view .LVU11
  66 001a 3946     		mov	r1, r7
  67 001c 06F13000 		add	r0, r6, #48
  68 0020 FFF7FEFF 		bl	chSemObjectInit
  69              	.LVL4:
  70              		.loc 1 257 3 view .LVU12
  71              		.loc 1 261 25 is_stmt 0 view .LVU13
  72 0024 0A9B     		ldr	r3, [sp, #40]
  73              		.loc 1 273 20 view .LVU14
  74 0026 05EBC901 		add	r1, r5, r9, lsl #3
  75              		.loc 1 257 25 view .LVU15
  76 002a C6F80090 		str	r9, [r6]
  77              		.loc 1 258 3 is_stmt 1 view .LVU16
  78              		.loc 1 261 25 is_stmt 0 view .LVU17
  79 002e F363     		str	r3, [r6, #60]
  80              		.loc 1 265 42 view .LVU18
  81 0030 06F11409 		add	r9, r6, #20
  82              	.LVL5:
  83              		.loc 1 262 25 view .LVU19
  84 0034 0B9B     		ldr	r3, [sp, #44]
  85              		.loc 1 260 25 view .LVU20
  86 0036 3461     		str	r4, [r6, #16]
  87              		.loc 1 262 25 view .LVU21
  88 0038 3364     		str	r3, [r6, #64]
  89              		.loc 1 263 25 view .LVU22
  90 003a 0023     		movs	r3, #0
  91              		.loc 1 259 25 view .LVU23
  92 003c C6E90157 		strd	r5, r7, [r6, #4]
  93              		.loc 1 260 3 is_stmt 1 view .LVU24
  94              		.loc 1 261 3 view .LVU25
  95              		.loc 1 262 3 view .LVU26
  96              		.loc 1 263 3 view .LVU27
  97              		.loc 1 264 25 is_stmt 0 view .LVU28
  98 0040 C6E90533 		strd	r3, r3, [r6, #20]
  99              		.loc 1 265 3 is_stmt 1 view .LVU29
 100              		.loc 1 266 25 is_stmt 0 view .LVU30
 101 0044 C6E90799 		strd	r9, r9, [r6, #28]
 102              	.L2:
 103              		.loc 1 269 3 is_stmt 1 discriminator 1 view .LVU31
 104              		.loc 1 270 5 discriminator 1 view .LVU32
 105              		.loc 1 271 22 is_stmt 0 discriminator 1 view .LVU33
 106 0048 C5E90055 		strd	r5, r5, [r5]
 107              		.loc 1 272 5 is_stmt 1 discriminator 1 view .LVU34
 108              		.loc 1 272 10 is_stmt 0 discriminator 1 view .LVU35
 109 004c 0835     		adds	r5, r5, #8
 110              	.LVL6:
 111              		.loc 1 273 18 is_stmt 1 discriminator 1 view .LVU36
 112 004e A942     		cmp	r1, r5
 113 0050 FAD8     		bhi	.L2
 114              	.LBB45:
ARM GAS  C:\Users\DEVELO~1\AppData\Local\Temp\ccsRbMwv.s 			page 3


 115              		.loc 1 279 5 is_stmt 0 view .LVU37
 116 0052 4FF0010A 		mov	r10, #1
 117              		.loc 1 281 21 view .LVU38
 118 0056 0025     		movs	r5, #0
 119              	.LVL7:
 120              	.L3:
 121              		.loc 1 281 21 view .LVU39
 122              	.LBE45:
 123              		.loc 1 276 3 is_stmt 1 discriminator 1 view .LVU40
 124              	.LBB46:
 125              		.loc 1 277 5 discriminator 1 view .LVU41
 126              		.loc 1 279 5 discriminator 1 view .LVU42
 127 0058 04F11800 		add	r0, r4, #24
 128 005c 0121     		movs	r1, #1
 129 005e FFF7FEFF 		bl	chSemObjectInit
 130              	.LVL8:
 131              		.loc 1 280 5 discriminator 1 view .LVU43
 132 0062 F369     		ldr	r3, [r6, #28]
 133              	.LBE46:
 134              		.loc 1 287 17 is_stmt 0 discriminator 1 view .LVU44
 135 0064 013F     		subs	r7, r7, #1
 136              	.LVL9:
 137              	.LBB47:
 138              		.loc 1 280 5 discriminator 1 view .LVU45
 139 0066 C4E90239 		strd	r3, r9, [r4, #8]
 140              		.loc 1 280 5 is_stmt 1 discriminator 1 view .LVU46
 141              		.loc 1 280 5 discriminator 1 view .LVU47
 142 006a DC60     		str	r4, [r3, #12]
 143              		.loc 1 280 5 discriminator 1 view .LVU48
 144 006c F461     		str	r4, [r6, #28]
 145              		.loc 1 280 31 discriminator 1 view .LVU49
 146              		.loc 1 281 5 discriminator 1 view .LVU50
 147              		.loc 1 282 21 is_stmt 0 discriminator 1 view .LVU51
 148 006e C4E90455 		strd	r5, r5, [r4, #16]
 149              		.loc 1 283 5 is_stmt 1 discriminator 1 view .LVU52
 150              		.loc 1 284 21 is_stmt 0 discriminator 1 view .LVU53
 151 0072 C4E909A5 		strd	r10, r5, [r4, #36]
 152              		.loc 1 285 5 is_stmt 1 discriminator 1 view .LVU54
 153              		.loc 1 285 11 is_stmt 0 discriminator 1 view .LVU55
 154 0076 4444     		add	r4, r4, r8
 155              	.LVL10:
 156              		.loc 1 286 5 is_stmt 1 discriminator 1 view .LVU56
 157              		.loc 1 286 5 is_stmt 0 discriminator 1 view .LVU57
 158              	.LBE47:
 159              		.loc 1 287 17 is_stmt 1 discriminator 1 view .LVU58
 160 0078 EED1     		bne	.L3
 161              		.loc 1 288 1 is_stmt 0 view .LVU59
 162 007a BDE8F087 		pop	{r4, r5, r6, r7, r8, r9, r10, pc}
 163              		.loc 1 288 1 view .LVU60
 164              		.cfi_endproc
 165              	.LFE348:
 166              		.size	chCacheObjectInit, .-chCacheObjectInit
 167 007e 00BF     		.section	.text.chCacheGetObject,"ax",%progbits
 168              		.align	1
 169              		.p2align 4,,15
 170              		.global	chCacheGetObject
 171              		.syntax unified
ARM GAS  C:\Users\DEVELO~1\AppData\Local\Temp\ccsRbMwv.s 			page 4


 172              		.thumb
 173              		.thumb_func
 174              		.type	chCacheGetObject, %function
 175              	chCacheGetObject:
 176              	.LVL11:
 177              	.LFB349:
 178              		.loc 1 305 45 is_stmt 1 view -0
 179              		.cfi_startproc
 180              		@ args = 0, pretend = 0, frame = 0
 181              		@ frame_needed = 0, uses_anonymous_args = 0
 182              		.loc 1 306 3 view .LVU62
 183              		.loc 1 309 3 view .LVU63
 184              	.LBB78:
 185              	.LBI78:
 186              		.file 2 "../../../os/rt/include/chsys.h"
 187              		.loc 2 407 20 view .LVU64
 188              		.loc 2 409 3 view .LVU65
 189              	.LBB79:
 190              	.LBI79:
 191              		.file 3 "../../../os/common/ports/ARMv7-M/chcore.h"
 192              		.loc 3 806 27 view .LVU66
 193              		.loc 3 814 3 view .LVU67
 194              	.LBB80:
 195              	.LBI80:
 196              		.file 4 "../../../os/common/ext/ARM/CMSIS/Core/Include/cmsis_gcc.h"
 197              		.loc 4 491 27 view .LVU68
 198              	.LBB81:
 199              		.loc 4 493 3 view .LVU69
 200              	.LBE81:
 201              	.LBE80:
 202              	.LBE79:
 203              	.LBE78:
 204              		.loc 1 305 45 is_stmt 0 view .LVU70
 205 0000 2DE9F84F 		push	{r3, r4, r5, r6, r7, r8, r9, r10, fp, lr}
 206              		.cfi_def_cfa_offset 40
 207              		.cfi_offset 3, -40
 208              		.cfi_offset 4, -36
 209              		.cfi_offset 5, -32
 210              		.cfi_offset 6, -28
 211              		.cfi_offset 7, -24
 212              		.cfi_offset 8, -20
 213              		.cfi_offset 9, -16
 214              		.cfi_offset 10, -12
 215              		.cfi_offset 11, -8
 216              		.cfi_offset 14, -4
 217              	.LBB88:
 218              	.LBB86:
 219              	.LBB84:
 220              	.LBB82:
 221              		.loc 4 493 3 view .LVU71
 222 0004 3023     		movs	r3, #48
 223              	.LBE82:
 224              	.LBE84:
 225              	.LBE86:
 226              	.LBE88:
 227              		.loc 1 305 45 view .LVU72
 228 0006 0646     		mov	r6, r0
ARM GAS  C:\Users\DEVELO~1\AppData\Local\Temp\ccsRbMwv.s 			page 5


 229 0008 0F46     		mov	r7, r1
 230 000a 1546     		mov	r5, r2
 231              	.LBB89:
 232              	.LBB87:
 233              	.LBB85:
 234              	.LBB83:
 235              		.loc 4 493 3 view .LVU73
 236              		.syntax unified
 237              	@ 493 "../../../os/common/ext/ARM/CMSIS/Core/Include/cmsis_gcc.h" 1
 238 000c 83F31188 		MSR basepri, r3
 239              	@ 0 "" 2
 240              	.LVL12:
 241              		.loc 4 493 3 view .LVU74
 242              		.thumb
 243              		.syntax unified
 244              	.LBE83:
 245              	.LBE85:
 246              	.LBE87:
 247              		.loc 2 410 35 is_stmt 1 view .LVU75
 248              		.loc 2 411 21 view .LVU76
 249              	.LBE89:
 250              		.loc 1 312 3 view .LVU77
 251              	.LBB90:
 252              	.LBI90:
 253              		.loc 1 134 21 view .LVU78
 254              	.LBB91:
 255              		.loc 1 137 3 view .LVU79
 256              		.loc 1 138 3 view .LVU80
 257              		.loc 1 141 3 view .LVU81
 258              		.loc 1 141 22 is_stmt 0 view .LVU82
 259 0010 0368     		ldr	r3, [r0]
 260 0012 01EB0208 		add	r8, r1, r2
 261              		.loc 1 141 8 view .LVU83
 262 0016 4168     		ldr	r1, [r0, #4]
 263              	.LVL13:
 264              		.loc 1 141 22 view .LVU84
 265 0018 013B     		subs	r3, r3, #1
 266 001a 03EA0803 		and	r3, r3, r8
 267              		.loc 1 141 8 view .LVU85
 268 001e 01EBC302 		add	r2, r1, r3, lsl #3
 269              	.LVL14:
 270              		.loc 1 142 3 is_stmt 1 view .LVU86
 271              		.loc 1 142 8 is_stmt 0 view .LVU87
 272 0022 51F83340 		ldr	r4, [r1, r3, lsl #3]
 273              	.LVL15:
 274              		.loc 1 145 3 is_stmt 1 view .LVU88
 275              		.loc 1 145 15 view .LVU89
 276 0026 A242     		cmp	r2, r4
 277 0028 03D1     		bne	.L12
 278 002a 1BE0     		b	.L9
 279              	.L10:
 280              		.loc 1 151 10 is_stmt 0 view .LVU90
 281 002c 2468     		ldr	r4, [r4]
 282              	.LVL16:
 283              		.loc 1 145 15 is_stmt 1 view .LVU91
 284 002e A242     		cmp	r2, r4
 285 0030 18D0     		beq	.L9
ARM GAS  C:\Users\DEVELO~1\AppData\Local\Temp\ccsRbMwv.s 			page 6


 286              	.L12:
 287              		.loc 1 146 5 view .LVU92
 288              		.loc 1 151 5 view .LVU93
 289              		.loc 1 146 8 is_stmt 0 view .LVU94
 290 0032 6369     		ldr	r3, [r4, #20]
 291 0034 9D42     		cmp	r5, r3
 292 0036 F9D1     		bne	.L10
 293              		.loc 1 146 32 view .LVU95
 294 0038 2369     		ldr	r3, [r4, #16]
 295 003a 9F42     		cmp	r7, r3
 296 003c F6D1     		bne	.L10
 297              	.LVL17:
 298              		.loc 1 146 32 view .LVU96
 299              	.LBE91:
 300              	.LBE90:
 301              		.loc 1 313 3 is_stmt 1 view .LVU97
 302              		.loc 1 315 5 view .LVU98
 303              		.loc 1 315 5 view .LVU99
 304              		.loc 1 315 5 view .LVU100
 305              		.loc 1 320 5 view .LVU101
 306              	.LBB92:
 307              	.LBI92:
 308              		.file 5 "../../../os/rt/include/chsem.h"
 309              		.loc 5 189 21 view .LVU102
 310              	.LBB93:
 311              		.loc 5 191 21 view .LVU103
 312              		.loc 5 193 3 view .LVU104
 313              		.loc 5 193 12 is_stmt 0 view .LVU105
 314 003e 236A     		ldr	r3, [r4, #32]
 315              	.LVL18:
 316              		.loc 5 193 12 view .LVU106
 317              	.LBE93:
 318              	.LBE92:
 319              		.loc 1 320 8 view .LVU107
 320 0040 002B     		cmp	r3, #0
 321 0042 52DD     		ble	.L26
 322              		.loc 1 323 7 is_stmt 1 discriminator 5 view .LVU108
 323              		.loc 1 323 7 discriminator 5 view .LVU109
 324              		.loc 1 323 7 discriminator 5 view .LVU110
 325              		.loc 1 327 7 discriminator 5 view .LVU111
 326              		.loc 1 328 23 is_stmt 0 discriminator 5 view .LVU112
 327 0044 626A     		ldr	r2, [r4, #36]
 328              	.LBB94:
 329              	.LBB95:
 330              		.loc 5 162 10 discriminator 5 view .LVU113
 331 0046 013B     		subs	r3, r3, #1
 332              	.LBE95:
 333              	.LBE94:
 334              		.loc 1 327 7 discriminator 5 view .LVU114
 335 0048 D4E90210 		ldrd	r1, r0, [r4, #8]
 336              	.LVL19:
 337              		.loc 1 328 23 discriminator 5 view .LVU115
 338 004c 22F00102 		bic	r2, r2, #1
 339              		.loc 1 327 7 discriminator 5 view .LVU116
 340 0050 8160     		str	r1, [r0, #8]
 341              		.loc 1 327 7 is_stmt 1 discriminator 5 view .LVU117
 342 0052 C860     		str	r0, [r1, #12]
ARM GAS  C:\Users\DEVELO~1\AppData\Local\Temp\ccsRbMwv.s 			page 7


 343              		.loc 1 327 23 discriminator 5 view .LVU118
 344              		.loc 1 328 7 discriminator 5 view .LVU119
 345              	.LBB97:
 346              	.LBB96:
 347              		.loc 5 162 10 is_stmt 0 discriminator 5 view .LVU120
 348 0054 C4E90832 		strd	r3, r2, [r4, #32]
 349              		.loc 5 162 10 discriminator 5 view .LVU121
 350              	.LBE96:
 351              	.LBE97:
 352              		.loc 1 352 39 is_stmt 1 discriminator 5 view .LVU122
 353              		.loc 1 356 3 discriminator 5 view .LVU123
 354              	.LBB98:
 355              	.LBI98:
 356              		.loc 2 421 20 discriminator 5 view .LVU124
 357              	.LBB99:
 358              		.loc 2 423 23 discriminator 5 view .LVU125
 359              		.loc 2 424 34 discriminator 5 view .LVU126
 360              		.loc 2 430 3 discriminator 5 view .LVU127
 361              		.loc 2 430 3 discriminator 5 view .LVU128
 362              		.loc 2 430 3 discriminator 5 view .LVU129
 363              		.loc 2 434 3 discriminator 5 view .LVU130
 364              	.LBB100:
 365              	.LBI100:
 366              		.loc 3 830 27 discriminator 5 view .LVU131
 367              		.loc 3 833 3 discriminator 5 view .LVU132
 368              	.LVL20:
 369              	.LBB101:
 370              	.LBI101:
 371              		.loc 4 491 27 discriminator 5 view .LVU133
 372              	.LBB102:
 373              		.loc 4 493 3 discriminator 5 view .LVU134
 374 0058 0023     		movs	r3, #0
 375              		.syntax unified
 376              	@ 493 "../../../os/common/ext/ARM/CMSIS/Core/Include/cmsis_gcc.h" 1
 377 005a 83F31188 		MSR basepri, r3
 378              	@ 0 "" 2
 379              	.LVL21:
 380              		.loc 4 493 3 is_stmt 0 discriminator 5 view .LVU135
 381              		.thumb
 382              		.syntax unified
 383              	.LBE102:
 384              	.LBE101:
 385              	.LBE100:
 386              	.LBE99:
 387              	.LBE98:
 388              		.loc 1 358 3 is_stmt 1 discriminator 5 view .LVU136
 389              		.loc 1 359 1 is_stmt 0 discriminator 5 view .LVU137
 390 005e 2046     		mov	r0, r4
 391 0060 BDE8F88F 		pop	{r3, r4, r5, r6, r7, r8, r9, r10, fp, pc}
 392              	.LVL22:
 393              	.L9:
 394              	.LBB111:
 395              	.LBB112:
 396              		.loc 1 170 12 view .LVU138
 397 0064 06F13009 		add	r9, r6, #48
 398              	.LBB113:
 399              	.LBB114:
ARM GAS  C:\Users\DEVELO~1\AppData\Local\Temp\ccsRbMwv.s 			page 8


 400              	.LBB115:
 401              	.LBB116:
 402              	.LBB117:
 403              		.loc 4 493 3 view .LVU139
 404 0068 4FF0000B 		mov	fp, #0
 405              	.LBE117:
 406              	.LBE116:
 407              	.LBE115:
 408              	.LBE114:
 409              	.LBE113:
 410              		.loc 1 209 21 view .LVU140
 411 006c 4FF0220A 		mov	r10, #34
 412 0070 0BE0     		b	.L13
 413              	.LVL23:
 414              	.L15:
 415              	.LBB126:
 416              	.LBB124:
 417              	.LBB122:
 418              	.LBB120:
 419              	.LBB118:
 420              		.loc 4 493 3 view .LVU141
 421              		.syntax unified
 422              	@ 493 "../../../os/common/ext/ARM/CMSIS/Core/Include/cmsis_gcc.h" 1
 423 0072 8BF31188 		MSR basepri, fp
 424              	@ 0 "" 2
 425              	.LVL24:
 426              		.loc 4 493 3 view .LVU142
 427              		.thumb
 428              		.syntax unified
 429              	.LBE118:
 430              	.LBE120:
 431              	.LBE122:
 432              	.LBE124:
 433              	.LBE126:
 434              		.loc 1 209 5 is_stmt 1 view .LVU143
 435              		.loc 1 210 12 is_stmt 0 view .LVU144
 436 0076 0122     		movs	r2, #1
 437 0078 336C     		ldr	r3, [r6, #64]
 438 007a 2146     		mov	r1, r4
 439 007c 3046     		mov	r0, r6
 440              		.loc 1 209 21 view .LVU145
 441 007e C4F824A0 		str	r10, [r4, #36]
 442              		.loc 1 210 5 is_stmt 1 view .LVU146
 443              		.loc 1 210 12 is_stmt 0 view .LVU147
 444 0082 9847     		blx	r3
 445              	.LVL25:
 446              		.loc 1 213 5 is_stmt 1 view .LVU148
 447              	.LBB127:
 448              	.LBI127:
 449              		.loc 2 407 20 view .LVU149
 450              	.LBB128:
 451              		.loc 2 409 3 view .LVU150
 452              	.LBB129:
 453              	.LBI129:
 454              		.loc 3 806 27 view .LVU151
 455              		.loc 3 814 3 view .LVU152
 456              	.LBB130:
ARM GAS  C:\Users\DEVELO~1\AppData\Local\Temp\ccsRbMwv.s 			page 9


 457              	.LBI130:
 458              		.loc 4 491 27 view .LVU153
 459              	.LBB131:
 460              		.loc 4 493 3 view .LVU154
 461 0084 3023     		movs	r3, #48
 462              		.syntax unified
 463              	@ 493 "../../../os/common/ext/ARM/CMSIS/Core/Include/cmsis_gcc.h" 1
 464 0086 83F31188 		MSR basepri, r3
 465              	@ 0 "" 2
 466              	.LVL26:
 467              		.loc 4 493 3 is_stmt 0 view .LVU155
 468              		.thumb
 469              		.syntax unified
 470              	.LBE131:
 471              	.LBE130:
 472              	.LBE129:
 473              		.loc 2 410 35 is_stmt 1 view .LVU156
 474              		.loc 2 411 21 view .LVU157
 475              	.L13:
 476              		.loc 2 411 21 is_stmt 0 view .LVU158
 477              	.LBE128:
 478              	.LBE127:
 479              		.loc 1 166 3 is_stmt 1 view .LVU159
 480              		.loc 1 168 3 view .LVU160
 481              		.loc 1 170 5 view .LVU161
 482              		.loc 1 170 12 is_stmt 0 view .LVU162
 483 008a 4846     		mov	r0, r9
 484 008c FFF7FEFF 		bl	chSemWaitS
 485              	.LVL27:
 486              		.loc 1 174 5 is_stmt 1 view .LVU163
 487              		.loc 1 204 5 view .LVU164
 488              	.LBB132:
 489              	.LBI113:
 490              		.loc 2 421 20 view .LVU165
 491              	.LBB125:
 492              		.loc 2 423 23 view .LVU166
 493              		.loc 2 424 34 view .LVU167
 494              		.loc 2 430 3 view .LVU168
 495              		.loc 2 430 3 view .LVU169
 496              		.loc 2 430 3 view .LVU170
 497              		.loc 2 434 3 view .LVU171
 498              	.LBB123:
 499              	.LBI115:
 500              		.loc 3 830 27 view .LVU172
 501              		.loc 3 833 3 view .LVU173
 502              	.LBB121:
 503              	.LBI116:
 504              		.loc 4 491 27 view .LVU174
 505              	.LBB119:
 506              		.loc 4 493 3 view .LVU175
 507              	.LBE119:
 508              	.LBE121:
 509              	.LBE123:
 510              	.LBE125:
 511              	.LBE132:
 512              		.loc 1 174 10 is_stmt 0 view .LVU176
 513 0090 346A     		ldr	r4, [r6, #32]
ARM GAS  C:\Users\DEVELO~1\AppData\Local\Temp\ccsRbMwv.s 			page 10


 514              	.LVL28:
 515              		.loc 1 176 5 is_stmt 1 view .LVU177
 516              		.loc 1 176 5 view .LVU178
 517              		.loc 1 176 5 view .LVU179
 518              		.loc 1 178 5 view .LVU180
 519              		.loc 1 178 5 view .LVU181
 520              		.loc 1 178 5 view .LVU182
 521              		.loc 1 181 5 view .LVU183
 522              	.LBB133:
 523              	.LBB134:
 524              		.loc 5 162 10 is_stmt 0 view .LVU184
 525 0092 D4E90832 		ldrd	r3, r2, [r4, #32]
 526              	.LBE134:
 527              	.LBE133:
 528              		.loc 1 181 5 view .LVU185
 529 0096 D4E90210 		ldrd	r1, r0, [r4, #8]
 530              	.LBB137:
 531              	.LBB135:
 532              		.loc 5 162 10 view .LVU186
 533 009a 013B     		subs	r3, r3, #1
 534              	.LBE135:
 535              	.LBE137:
 536              		.loc 1 181 5 view .LVU187
 537 009c 8160     		str	r1, [r0, #8]
 538              		.loc 1 181 5 is_stmt 1 view .LVU188
 539 009e C860     		str	r0, [r1, #12]
 540              		.loc 1 181 21 view .LVU189
 541              		.loc 1 182 5 view .LVU190
 542              		.loc 1 182 21 is_stmt 0 view .LVU191
 543 00a0 22F00101 		bic	r1, r2, #1
 544 00a4 C4E90831 		strd	r3, r1, [r4, #32]
 545              		.loc 1 186 5 is_stmt 1 view .LVU192
 546              	.LVL29:
 547              	.LBB138:
 548              	.LBI133:
 549              		.loc 5 158 20 view .LVU193
 550              	.LBB136:
 551              		.loc 5 160 21 view .LVU194
 552              		.loc 5 162 3 view .LVU195
 553              		.loc 5 162 3 is_stmt 0 view .LVU196
 554              	.LBE136:
 555              	.LBE138:
 556              		.loc 1 190 5 is_stmt 1 view .LVU197
 557              		.loc 1 190 8 is_stmt 0 view .LVU198
 558 00a8 D106     		lsls	r1, r2, #27
 559 00aa E2D4     		bmi	.L15
 560              		.loc 1 193 7 is_stmt 1 view .LVU199
 561              		.loc 1 193 10 is_stmt 0 view .LVU200
 562 00ac 9307     		lsls	r3, r2, #30
 563 00ae 04D5     		bpl	.L16
 564              		.loc 1 194 9 is_stmt 1 view .LVU201
 565 00b0 D4E90023 		ldrd	r2, r3, [r4]
 566 00b4 1A60     		str	r2, [r3]
 567              		.loc 1 194 9 view .LVU202
 568 00b6 2268     		ldr	r2, [r4]
 569 00b8 5360     		str	r3, [r2, #4]
 570              	.L16:
ARM GAS  C:\Users\DEVELO~1\AppData\Local\Temp\ccsRbMwv.s 			page 11


 571              		.loc 1 194 26 view .LVU203
 572              		.loc 1 198 7 view .LVU204
 573              		.loc 1 200 7 view .LVU205
 574              	.LVL30:
 575              		.loc 1 200 7 is_stmt 0 view .LVU206
 576              	.LBE112:
 577              	.LBE111:
 578              		.loc 1 349 5 is_stmt 1 view .LVU207
 579              		.loc 1 351 21 is_stmt 0 view .LVU208
 580 00ba 0A21     		movs	r1, #10
 581              		.loc 1 349 21 view .LVU209
 582 00bc 2761     		str	r7, [r4, #16]
 583              		.loc 1 350 5 is_stmt 1 view .LVU210
 584              	.LBB139:
 585              		.loc 1 352 5 is_stmt 0 view .LVU211
 586 00be D6E90032 		ldrd	r3, r2, [r6]
 587              	.LBE139:
 588              		.loc 1 351 21 view .LVU212
 589 00c2 6162     		str	r1, [r4, #36]
 590              	.LBB140:
 591              		.loc 1 352 5 view .LVU213
 592 00c4 013B     		subs	r3, r3, #1
 593              	.LBE140:
 594              		.loc 1 350 21 view .LVU214
 595 00c6 6561     		str	r5, [r4, #20]
 596              		.loc 1 351 5 is_stmt 1 view .LVU215
 597              	.LBB141:
 598              		.loc 1 352 5 view .LVU216
 599              		.loc 1 352 5 view .LVU217
 600 00c8 03EA0803 		and	r3, r3, r8
 601 00cc 52F83310 		ldr	r1, [r2, r3, lsl #3]
 602 00d0 02EBC300 		add	r0, r2, r3, lsl #3
 603              	.LVL31:
 604              		.loc 1 352 5 view .LVU218
 605 00d4 C4E90010 		strd	r1, r0, [r4]
 606              		.loc 1 352 5 view .LVU219
 607 00d8 4C60     		str	r4, [r1, #4]
 608              		.loc 1 352 5 view .LVU220
 609 00da 42F83340 		str	r4, [r2, r3, lsl #3]
 610              		.loc 1 352 5 is_stmt 0 view .LVU221
 611              	.LBE141:
 612              		.loc 1 352 39 is_stmt 1 view .LVU222
 613              		.loc 1 356 3 view .LVU223
 614              	.LBB142:
 615              		.loc 2 421 20 view .LVU224
 616              	.LBB109:
 617              		.loc 2 423 23 view .LVU225
 618              		.loc 2 424 34 view .LVU226
 619              		.loc 2 430 3 view .LVU227
 620              		.loc 2 430 3 view .LVU228
 621              		.loc 2 430 3 view .LVU229
 622              		.loc 2 434 3 view .LVU230
 623              	.LBB107:
 624              		.loc 3 830 27 view .LVU231
 625              		.loc 3 833 3 view .LVU232
 626              	.LVL32:
 627              	.LBB105:
ARM GAS  C:\Users\DEVELO~1\AppData\Local\Temp\ccsRbMwv.s 			page 12


 628              		.loc 4 491 27 view .LVU233
 629              	.LBB103:
 630              		.loc 4 493 3 view .LVU234
 631 00de 0023     		movs	r3, #0
 632              		.syntax unified
 633              	@ 493 "../../../os/common/ext/ARM/CMSIS/Core/Include/cmsis_gcc.h" 1
 634 00e0 83F31188 		MSR basepri, r3
 635              	@ 0 "" 2
 636              	.LVL33:
 637              		.loc 4 493 3 is_stmt 0 view .LVU235
 638              		.thumb
 639              		.syntax unified
 640              	.LBE103:
 641              	.LBE105:
 642              	.LBE107:
 643              	.LBE109:
 644              	.LBE142:
 645              		.loc 1 358 3 is_stmt 1 view .LVU236
 646              		.loc 1 359 1 is_stmt 0 view .LVU237
 647 00e4 2046     		mov	r0, r4
 648              	.LVL34:
 649              		.loc 1 359 1 view .LVU238
 650 00e6 BDE8F88F 		pop	{r3, r4, r5, r6, r7, r8, r9, r10, fp, pc}
 651              	.LVL35:
 652              	.L26:
 653              		.loc 1 338 7 is_stmt 1 discriminator 5 view .LVU239
 654              		.loc 1 338 7 discriminator 5 view .LVU240
 655              		.loc 1 338 7 discriminator 5 view .LVU241
 656              		.loc 1 341 7 discriminator 5 view .LVU242
 657              		.loc 1 341 14 is_stmt 0 discriminator 5 view .LVU243
 658 00ea 04F11800 		add	r0, r4, #24
 659              	.LVL36:
 660              		.loc 1 341 14 discriminator 5 view .LVU244
 661 00ee FFF7FEFF 		bl	chSemWaitS
 662              	.LVL37:
 663              		.loc 1 352 39 is_stmt 1 discriminator 5 view .LVU245
 664              		.loc 1 356 3 discriminator 5 view .LVU246
 665              	.LBB143:
 666              		.loc 2 421 20 discriminator 5 view .LVU247
 667              	.LBB110:
 668              		.loc 2 423 23 discriminator 5 view .LVU248
 669              		.loc 2 424 34 discriminator 5 view .LVU249
 670              		.loc 2 430 3 discriminator 5 view .LVU250
 671              		.loc 2 430 3 discriminator 5 view .LVU251
 672              		.loc 2 430 3 discriminator 5 view .LVU252
 673              		.loc 2 434 3 discriminator 5 view .LVU253
 674              	.LBB108:
 675              		.loc 3 830 27 discriminator 5 view .LVU254
 676              		.loc 3 833 3 discriminator 5 view .LVU255
 677              	.LBB106:
 678              		.loc 4 491 27 discriminator 5 view .LVU256
 679              	.LBB104:
 680              		.loc 4 493 3 discriminator 5 view .LVU257
 681 00f2 0023     		movs	r3, #0
 682              		.syntax unified
 683              	@ 493 "../../../os/common/ext/ARM/CMSIS/Core/Include/cmsis_gcc.h" 1
 684 00f4 83F31188 		MSR basepri, r3
ARM GAS  C:\Users\DEVELO~1\AppData\Local\Temp\ccsRbMwv.s 			page 13


 685              	@ 0 "" 2
 686              	.LVL38:
 687              		.loc 4 493 3 is_stmt 0 discriminator 5 view .LVU258
 688              		.thumb
 689              		.syntax unified
 690              	.LBE104:
 691              	.LBE106:
 692              	.LBE108:
 693              	.LBE110:
 694              	.LBE143:
 695              		.loc 1 358 3 is_stmt 1 discriminator 5 view .LVU259
 696              		.loc 1 359 1 is_stmt 0 discriminator 5 view .LVU260
 697 00f8 2046     		mov	r0, r4
 698 00fa BDE8F88F 		pop	{r3, r4, r5, r6, r7, r8, r9, r10, fp, pc}
 699              		.loc 1 359 1 discriminator 5 view .LVU261
 700              		.cfi_endproc
 701              	.LFE349:
 702              		.size	chCacheGetObject, .-chCacheGetObject
 703 00fe 00BF     		.section	.text.chCacheReleaseObjectI,"ax",%progbits
 704              		.align	1
 705              		.p2align 4,,15
 706              		.global	chCacheReleaseObjectI
 707              		.syntax unified
 708              		.thumb
 709              		.thumb_func
 710              		.type	chCacheReleaseObjectI, %function
 711              	chCacheReleaseObjectI:
 712              	.LVL39:
 713              	.LFB350:
 714              		.loc 1 379 47 is_stmt 1 view -0
 715              		.cfi_startproc
 716              		@ args = 0, pretend = 0, frame = 0
 717              		@ frame_needed = 0, uses_anonymous_args = 0
 718              		.loc 1 382 3 view .LVU263
 719              		.loc 1 382 3 view .LVU264
 720              		.loc 1 382 3 view .LVU265
 721              		.loc 1 386 3 view .LVU266
 722              		.loc 1 386 3 view .LVU267
 723              		.loc 1 386 3 view .LVU268
 724              		.loc 1 391 3 view .LVU269
 725              		.loc 1 391 6 is_stmt 0 view .LVU270
 726 0000 0B6A     		ldr	r3, [r1, #32]
 727 0002 002B     		cmp	r3, #0
 728              		.loc 1 395 21 view .LVU271
 729 0004 4B6A     		ldr	r3, [r1, #36]
 730              		.loc 1 379 47 view .LVU272
 731 0006 10B5     		push	{r4, lr}
 732              		.cfi_def_cfa_offset 8
 733              		.cfi_offset 4, -8
 734              		.cfi_offset 14, -4
 735              		.loc 1 379 47 view .LVU273
 736 0008 0C46     		mov	r4, r1
 737              	.LVL40:
 738              	.LBB144:
 739              	.LBI144:
 740              		.loc 5 189 21 is_stmt 1 view .LVU274
 741              	.LBB145:
ARM GAS  C:\Users\DEVELO~1\AppData\Local\Temp\ccsRbMwv.s 			page 14


 742              		.loc 5 191 21 view .LVU275
 743              		.loc 5 193 3 view .LVU276
 744              		.loc 5 193 3 is_stmt 0 view .LVU277
 745              	.LBE145:
 746              	.LBE144:
 747              		.loc 1 391 6 view .LVU278
 748 000a 2EDB     		blt	.L34
 749              		.loc 1 402 3 is_stmt 1 view .LVU279
 750              		.loc 1 402 6 is_stmt 0 view .LVU280
 751 000c 1907     		lsls	r1, r3, #28
 752              	.LVL41:
 753              		.loc 1 402 6 view .LVU281
 754 000e 14D4     		bmi	.L35
 755              		.loc 1 411 5 is_stmt 1 view .LVU282
 756              		.loc 1 411 8 is_stmt 0 view .LVU283
 757 0010 9A06     		lsls	r2, r3, #26
 758 0012 22D4     		bmi	.L31
 759              		.loc 1 413 7 is_stmt 1 view .LVU284
 760 0014 C269     		ldr	r2, [r0, #28]
 761 0016 00F11401 		add	r1, r0, #20
 762 001a C4E90221 		strd	r2, r1, [r4, #8]
 763              		.loc 1 413 7 view .LVU285
 764 001e D460     		str	r4, [r2, #12]
 765              		.loc 1 413 7 view .LVU286
 766 0020 C461     		str	r4, [r0, #28]
 767              		.loc 1 413 33 view .LVU287
 768              	.L32:
 769              		.loc 1 417 33 discriminator 1 view .LVU288
 770              		.loc 1 419 5 discriminator 1 view .LVU289
 771              		.loc 1 420 5 discriminator 1 view .LVU290
 772              		.loc 1 419 21 is_stmt 0 discriminator 1 view .LVU291
 773 0022 03F01203 		and	r3, r3, #18
 774              		.loc 1 420 21 discriminator 1 view .LVU292
 775 0026 43F00103 		orr	r3, r3, #1
 776              	.L30:
 777              		.loc 1 407 21 view .LVU293
 778 002a 6362     		str	r3, [r4, #36]
 779              		.loc 1 424 3 is_stmt 1 view .LVU294
 780 002c 3030     		adds	r0, r0, #48
 781              	.LVL42:
 782              		.loc 1 424 3 is_stmt 0 view .LVU295
 783 002e FFF7FEFF 		bl	chSemSignalI
 784              	.LVL43:
 785              		.loc 1 428 3 is_stmt 1 view .LVU296
 786              	.LBB146:
 787              	.LBI146:
 788              		.loc 5 174 20 view .LVU297
 789              	.LBB147:
 790              		.loc 5 176 21 view .LVU298
 791              		.loc 5 178 3 view .LVU299
 792              		.loc 5 178 10 is_stmt 0 view .LVU300
 793 0032 236A     		ldr	r3, [r4, #32]
 794 0034 0133     		adds	r3, r3, #1
 795 0036 2362     		str	r3, [r4, #32]
 796              	.LVL44:
 797              		.loc 5 178 10 view .LVU301
 798              	.LBE147:
ARM GAS  C:\Users\DEVELO~1\AppData\Local\Temp\ccsRbMwv.s 			page 15


 799              	.LBE146:
 800              		.loc 1 429 1 view .LVU302
 801 0038 10BD     		pop	{r4, pc}
 802              	.LVL45:
 803              	.L35:
 804              		.loc 1 403 5 is_stmt 1 view .LVU303
 805 003a D4E90032 		ldrd	r3, r2, [r4]
 806              		.loc 1 404 5 is_stmt 0 view .LVU304
 807 003e 016A     		ldr	r1, [r0, #32]
 808              		.loc 1 403 5 view .LVU305
 809 0040 1360     		str	r3, [r2]
 810              		.loc 1 403 5 is_stmt 1 view .LVU306
 811 0042 5A60     		str	r2, [r3, #4]
 812              		.loc 1 403 22 view .LVU307
 813              		.loc 1 404 5 view .LVU308
 814 0044 00F11403 		add	r3, r0, #20
 815              		.loc 1 405 21 is_stmt 0 view .LVU309
 816 0048 0022     		movs	r2, #0
 817              		.loc 1 404 5 view .LVU310
 818 004a C4E90231 		strd	r3, r1, [r4, #8]
 819              		.loc 1 404 5 is_stmt 1 view .LVU311
 820 004e 8C60     		str	r4, [r1, #8]
 821              		.loc 1 404 5 view .LVU312
 822 0050 0123     		movs	r3, #1
 823 0052 0462     		str	r4, [r0, #32]
 824              		.loc 1 404 31 view .LVU313
 825              		.loc 1 405 5 view .LVU314
 826              		.loc 1 406 21 is_stmt 0 view .LVU315
 827 0054 C4E90422 		strd	r2, r2, [r4, #16]
 828              		.loc 1 407 5 is_stmt 1 view .LVU316
 829 0058 E7E7     		b	.L30
 830              	.L31:
 831              		.loc 1 417 7 view .LVU317
 832 005a 026A     		ldr	r2, [r0, #32]
 833 005c 00F11401 		add	r1, r0, #20
 834 0060 C4E90212 		strd	r1, r2, [r4, #8]
 835              		.loc 1 417 7 view .LVU318
 836 0064 9460     		str	r4, [r2, #8]
 837              		.loc 1 417 7 view .LVU319
 838 0066 0462     		str	r4, [r0, #32]
 839 0068 DBE7     		b	.L32
 840              	.LVL46:
 841              	.L34:
 842              		.loc 1 395 5 view .LVU320
 843              		.loc 1 395 21 is_stmt 0 view .LVU321
 844 006a 03F01A03 		and	r3, r3, #26
 845              		.loc 1 396 5 view .LVU322
 846 006e 01F11800 		add	r0, r1, #24
 847              	.LVL47:
 848              		.loc 1 429 1 view .LVU323
 849 0072 BDE81040 		pop	{r4, lr}
 850              		.cfi_restore 14
 851              		.cfi_restore 4
 852              		.cfi_def_cfa_offset 0
 853              		.loc 1 395 21 view .LVU324
 854 0076 4B62     		str	r3, [r1, #36]
 855              		.loc 1 396 5 is_stmt 1 view .LVU325
ARM GAS  C:\Users\DEVELO~1\AppData\Local\Temp\ccsRbMwv.s 			page 16


 856 0078 FFF7FEBF 		b	chSemSignalI
 857              	.LVL48:
 858              		.loc 1 396 5 is_stmt 0 view .LVU326
 859              		.cfi_endproc
 860              	.LFE350:
 861              		.size	chCacheReleaseObjectI, .-chCacheReleaseObjectI
 862              		.section	.text.chCacheReadObject,"ax",%progbits
 863              		.align	1
 864              		.p2align 4,,15
 865              		.global	chCacheReadObject
 866              		.syntax unified
 867              		.thumb
 868              		.thumb_func
 869              		.type	chCacheReadObject, %function
 870              	chCacheReadObject:
 871              	.LVL49:
 872              	.LFB351:
 873              		.loc 1 450 36 is_stmt 1 view -0
 874              		.cfi_startproc
 875              		@ args = 0, pretend = 0, frame = 0
 876              		@ frame_needed = 0, uses_anonymous_args = 0
 877              		@ link register save eliminated.
 878              		.loc 1 455 3 view .LVU328
 879              		.loc 1 450 36 is_stmt 0 view .LVU329
 880 0000 30B4     		push	{r4, r5}
 881              		.cfi_def_cfa_offset 8
 882              		.cfi_offset 4, -8
 883              		.cfi_offset 5, -4
 884              		.loc 1 455 19 view .LVU330
 885 0002 4C6A     		ldr	r4, [r1, #36]
 886              		.loc 1 457 10 view .LVU331
 887 0004 C56B     		ldr	r5, [r0, #60]
 888              		.loc 1 455 19 view .LVU332
 889 0006 44F00804 		orr	r4, r4, #8
 890              		.loc 1 457 10 view .LVU333
 891 000a 2B46     		mov	r3, r5
 892              		.loc 1 455 19 view .LVU334
 893 000c 4C62     		str	r4, [r1, #36]
 894              		.loc 1 457 3 is_stmt 1 view .LVU335
 895              		.loc 1 458 1 is_stmt 0 view .LVU336
 896 000e 30BC     		pop	{r4, r5}
 897              		.cfi_restore 5
 898              		.cfi_restore 4
 899              		.cfi_def_cfa_offset 0
 900              		.loc 1 457 10 view .LVU337
 901 0010 1847     		bx	r3
 902              	.LVL50:
 903              		.loc 1 457 10 view .LVU338
 904              		.cfi_endproc
 905              	.LFE351:
 906              		.size	chCacheReadObject, .-chCacheReadObject
 907 0012 00BF     		.section	.text.chCacheWriteObject,"ax",%progbits
 908              		.align	1
 909              		.p2align 4,,15
 910              		.global	chCacheWriteObject
 911              		.syntax unified
 912              		.thumb
ARM GAS  C:\Users\DEVELO~1\AppData\Local\Temp\ccsRbMwv.s 			page 17


 913              		.thumb_func
 914              		.type	chCacheWriteObject, %function
 915              	chCacheWriteObject:
 916              	.LVL51:
 917              	.LFB352:
 918              		.loc 1 479 37 is_stmt 1 view -0
 919              		.cfi_startproc
 920              		@ args = 0, pretend = 0, frame = 0
 921              		@ frame_needed = 0, uses_anonymous_args = 0
 922              		@ link register save eliminated.
 923              		.loc 1 483 3 view .LVU340
 924              		.loc 1 479 37 is_stmt 0 view .LVU341
 925 0000 30B4     		push	{r4, r5}
 926              		.cfi_def_cfa_offset 8
 927              		.cfi_offset 4, -8
 928              		.cfi_offset 5, -4
 929              		.loc 1 483 19 view .LVU342
 930 0002 4C6A     		ldr	r4, [r1, #36]
 931              		.loc 1 485 10 view .LVU343
 932 0004 056C     		ldr	r5, [r0, #64]
 933              		.loc 1 483 19 view .LVU344
 934 0006 24F01004 		bic	r4, r4, #16
 935              		.loc 1 485 10 view .LVU345
 936 000a 2B46     		mov	r3, r5
 937              		.loc 1 483 19 view .LVU346
 938 000c 4C62     		str	r4, [r1, #36]
 939              		.loc 1 485 3 is_stmt 1 view .LVU347
 940              		.loc 1 486 1 is_stmt 0 view .LVU348
 941 000e 30BC     		pop	{r4, r5}
 942              		.cfi_restore 5
 943              		.cfi_restore 4
 944              		.cfi_def_cfa_offset 0
 945              		.loc 1 485 10 view .LVU349
 946 0010 1847     		bx	r3
 947              	.LVL52:
 948              		.loc 1 485 10 view .LVU350
 949              		.cfi_endproc
 950              	.LFE352:
 951              		.size	chCacheWriteObject, .-chCacheWriteObject
 952 0012 00BF     		.text
 953              	.Letext0:
 954              		.file 6 "c:\\chibistudio\\tools\\gnu tools arm embedded\\11.3 2022.08\\lib\\gcc\\arm-none-eabi\\11
 955              		.file 7 "c:\\chibistudio\\tools\\gnu tools arm embedded\\11.3 2022.08\\arm-none-eabi\\include\\mac
 956              		.file 8 "c:\\chibistudio\\tools\\gnu tools arm embedded\\11.3 2022.08\\arm-none-eabi\\include\\sys
 957              		.file 9 "../../../os/rt/include/chearly.h"
 958              		.file 10 "../../../os/rt/include/chlists.h"
 959              		.file 11 "../../../os/oslib/include/chobjcaches.h"
 960              		.section	.debug_info,"",%progbits
 961              	.Ldebug_info0:
 962 0000 BE0A0000 		.4byte	0xabe
 963 0004 0500     		.2byte	0x5
 964 0006 01       		.byte	0x1
 965 0007 04       		.byte	0x4
 966 0008 00000000 		.4byte	.Ldebug_abbrev0
 967 000c 26       		.uleb128 0x26
 968 000d 3E030000 		.4byte	.LASF81
 969 0011 1D       		.byte	0x1d
ARM GAS  C:\Users\DEVELO~1\AppData\Local\Temp\ccsRbMwv.s 			page 18


 970 0012 DD000000 		.4byte	.LASF82
 971 0016 9C010000 		.4byte	.LASF83
 972 001a 76000000 		.4byte	.LLRL40
 973 001e 00000000 		.4byte	0
 974 0022 00000000 		.4byte	.Ldebug_line0
 975 0026 27       		.uleb128 0x27
 976 0027 04       		.byte	0x4
 977 0028 05       		.byte	0x5
 978 0029 696E7400 		.ascii	"int\000"
 979 002d 02       		.uleb128 0x2
 980 002e 24000000 		.4byte	.LASF4
 981 0032 06       		.byte	0x6
 982 0033 D1       		.byte	0xd1
 983 0034 17       		.byte	0x17
 984 0035 39000000 		.4byte	0x39
 985 0039 04       		.uleb128 0x4
 986 003a 04       		.byte	0x4
 987 003b 07       		.byte	0x7
 988 003c 83020000 		.4byte	.LASF0
 989 0040 04       		.uleb128 0x4
 990 0041 08       		.byte	0x8
 991 0042 05       		.byte	0x5
 992 0043 63010000 		.4byte	.LASF1
 993 0047 04       		.uleb128 0x4
 994 0048 08       		.byte	0x8
 995 0049 04       		.byte	0x4
 996 004a 00000000 		.4byte	.LASF2
 997 004e 04       		.uleb128 0x4
 998 004f 01       		.byte	0x1
 999 0050 06       		.byte	0x6
 1000 0051 66020000 		.4byte	.LASF3
 1001 0055 02       		.uleb128 0x2
 1002 0056 EB010000 		.4byte	.LASF5
 1003 005a 07       		.byte	0x7
 1004 005b 2B       		.byte	0x2b
 1005 005c 18       		.byte	0x18
 1006 005d 61000000 		.4byte	0x61
 1007 0061 04       		.uleb128 0x4
 1008 0062 01       		.byte	0x1
 1009 0063 08       		.byte	0x8
 1010 0064 27020000 		.4byte	.LASF6
 1011 0068 04       		.uleb128 0x4
 1012 0069 02       		.byte	0x2
 1013 006a 05       		.byte	0x5
 1014 006b 1A000000 		.4byte	.LASF7
 1015 006f 04       		.uleb128 0x4
 1016 0070 02       		.byte	0x2
 1017 0071 07       		.byte	0x7
 1018 0072 AE020000 		.4byte	.LASF8
 1019 0076 02       		.uleb128 0x2
 1020 0077 5C020000 		.4byte	.LASF9
 1021 007b 07       		.byte	0x7
 1022 007c 4D       		.byte	0x4d
 1023 007d 18       		.byte	0x18
 1024 007e 82000000 		.4byte	0x82
 1025 0082 04       		.uleb128 0x4
 1026 0083 04       		.byte	0x4
ARM GAS  C:\Users\DEVELO~1\AppData\Local\Temp\ccsRbMwv.s 			page 19


 1027 0084 05       		.byte	0x5
 1028 0085 93010000 		.4byte	.LASF10
 1029 0089 02       		.uleb128 0x2
 1030 008a 03020000 		.4byte	.LASF11
 1031 008e 07       		.byte	0x7
 1032 008f 4F       		.byte	0x4f
 1033 0090 19       		.byte	0x19
 1034 0091 95000000 		.4byte	0x95
 1035 0095 04       		.uleb128 0x4
 1036 0096 04       		.byte	0x4
 1037 0097 07       		.byte	0x7
 1038 0098 2C030000 		.4byte	.LASF12
 1039 009c 04       		.uleb128 0x4
 1040 009d 08       		.byte	0x8
 1041 009e 07       		.byte	0x7
 1042 009f 71010000 		.4byte	.LASF13
 1043 00a3 02       		.uleb128 0x2
 1044 00a4 12010000 		.4byte	.LASF14
 1045 00a8 08       		.byte	0x8
 1046 00a9 18       		.byte	0x18
 1047 00aa 13       		.byte	0x13
 1048 00ab 55000000 		.4byte	0x55
 1049 00af 02       		.uleb128 0x2
 1050 00b0 FA020000 		.4byte	.LASF15
 1051 00b4 08       		.byte	0x8
 1052 00b5 2C       		.byte	0x2c
 1053 00b6 13       		.byte	0x13
 1054 00b7 76000000 		.4byte	0x76
 1055 00bb 02       		.uleb128 0x2
 1056 00bc 36010000 		.4byte	.LASF16
 1057 00c0 08       		.byte	0x8
 1058 00c1 30       		.byte	0x30
 1059 00c2 14       		.byte	0x14
 1060 00c3 89000000 		.4byte	0x89
 1061 00c7 02       		.uleb128 0x2
 1062 00c8 A1040000 		.4byte	.LASF17
 1063 00cc 09       		.byte	0x9
 1064 00cd 58       		.byte	0x58
 1065 00ce 19       		.byte	0x19
 1066 00cf AF000000 		.4byte	0xaf
 1067 00d3 02       		.uleb128 0x2
 1068 00d4 02030000 		.4byte	.LASF18
 1069 00d8 09       		.byte	0x9
 1070 00d9 5C       		.byte	0x5c
 1071 00da 19       		.byte	0x19
 1072 00db AF000000 		.4byte	0xaf
 1073 00df 02       		.uleb128 0x2
 1074 00e0 F3020000 		.4byte	.LASF19
 1075 00e4 09       		.byte	0x9
 1076 00e5 5D       		.byte	0x5d
 1077 00e6 19       		.byte	0x19
 1078 00e7 BB000000 		.4byte	0xbb
 1079 00eb 04       		.uleb128 0x4
 1080 00ec 01       		.byte	0x1
 1081 00ed 08       		.byte	0x8
 1082 00ee E4020000 		.4byte	.LASF20
 1083 00f2 06       		.uleb128 0x6
ARM GAS  C:\Users\DEVELO~1\AppData\Local\Temp\ccsRbMwv.s 			page 20


 1084 00f3 EB000000 		.4byte	0xeb
 1085 00f7 02       		.uleb128 0x2
 1086 00f8 2B010000 		.4byte	.LASF21
 1087 00fc 0A       		.byte	0xa
 1088 00fd 3F       		.byte	0x3f
 1089 00fe 19       		.byte	0x19
 1090 00ff 03010000 		.4byte	0x103
 1091 0103 09       		.uleb128 0x9
 1092 0104 53040000 		.4byte	.LASF26
 1093 0108 08       		.byte	0x8
 1094 0109 0A       		.byte	0xa
 1095 010a 45       		.byte	0x45
 1096 010b 08       		.byte	0x8
 1097 010c 2B010000 		.4byte	0x12b
 1098 0110 01       		.uleb128 0x1
 1099 0111 B2040000 		.4byte	.LASF22
 1100 0115 0A       		.byte	0xa
 1101 0116 46       		.byte	0x46
 1102 0117 1A       		.byte	0x1a
 1103 0118 2B010000 		.4byte	0x12b
 1104 011c 00       		.byte	0
 1105 011d 01       		.uleb128 0x1
 1106 011e 9C040000 		.4byte	.LASF23
 1107 0122 0A       		.byte	0xa
 1108 0123 47       		.byte	0x47
 1109 0124 1A       		.byte	0x1a
 1110 0125 2B010000 		.4byte	0x12b
 1111 0129 04       		.byte	0x4
 1112 012a 00       		.byte	0
 1113 012b 07       		.uleb128 0x7
 1114 012c F7000000 		.4byte	0xf7
 1115 0130 28       		.uleb128 0x28
 1116 0131 04       		.byte	0x4
 1117 0132 04       		.uleb128 0x4
 1118 0133 04       		.byte	0x4
 1119 0134 04       		.byte	0x4
 1120 0135 5D010000 		.4byte	.LASF24
 1121 0139 04       		.uleb128 0x4
 1122 013a 08       		.byte	0x8
 1123 013b 04       		.byte	0x4
 1124 013c F3030000 		.4byte	.LASF25
 1125 0140 09       		.uleb128 0x9
 1126 0141 23040000 		.4byte	.LASF27
 1127 0145 0C       		.byte	0xc
 1128 0146 05       		.byte	0x5
 1129 0147 34       		.byte	0x34
 1130 0148 10       		.byte	0x10
 1131 0149 67010000 		.4byte	0x167
 1132 014d 01       		.uleb128 0x1
 1133 014e 69040000 		.4byte	.LASF28
 1134 0152 05       		.byte	0x5
 1135 0153 35       		.byte	0x35
 1136 0154 19       		.byte	0x19
 1137 0155 F7000000 		.4byte	0xf7
 1138 0159 00       		.byte	0
 1139 015a 1A       		.uleb128 0x1a
 1140 015b 636E7400 		.ascii	"cnt\000"
ARM GAS  C:\Users\DEVELO~1\AppData\Local\Temp\ccsRbMwv.s 			page 21


 1141 015f 05       		.byte	0x5
 1142 0160 37       		.byte	0x37
 1143 0161 D3000000 		.4byte	0xd3
 1144 0165 08       		.byte	0x8
 1145 0166 00       		.byte	0
 1146 0167 02       		.uleb128 0x2
 1147 0168 3F010000 		.4byte	.LASF29
 1148 016c 05       		.byte	0x5
 1149 016d 38       		.byte	0x38
 1150 016e 03       		.byte	0x3
 1151 016f 40010000 		.4byte	0x140
 1152 0173 06       		.uleb128 0x6
 1153 0174 67010000 		.4byte	0x167
 1154 0178 04       		.uleb128 0x4
 1155 0179 01       		.byte	0x1
 1156 017a 02       		.byte	0x2
 1157 017b 1A030000 		.4byte	.LASF30
 1158 017f 02       		.uleb128 0x2
 1159 0180 88010000 		.4byte	.LASF31
 1160 0184 0B       		.byte	0xb
 1161 0185 44       		.byte	0x44
 1162 0186 12       		.byte	0x12
 1163 0187 BB000000 		.4byte	0xbb
 1164 018b 02       		.uleb128 0x2
 1165 018c 6F040000 		.4byte	.LASF32
 1166 0190 0B       		.byte	0xb
 1167 0191 49       		.byte	0x49
 1168 0192 22       		.byte	0x22
 1169 0193 97010000 		.4byte	0x197
 1170 0197 09       		.uleb128 0x9
 1171 0198 9C020000 		.4byte	.LASF33
 1172 019c 08       		.byte	0x8
 1173 019d 0B       		.byte	0xb
 1174 019e 75       		.byte	0x75
 1175 019f 08       		.byte	0x8
 1176 01a0 BF010000 		.4byte	0x1bf
 1177 01a4 01       		.uleb128 0x1
 1178 01a5 0D040000 		.4byte	.LASF34
 1179 01a9 0B       		.byte	0xb
 1180 01aa 79       		.byte	0x79
 1181 01ab 1A       		.byte	0x1a
 1182 01ac 66030000 		.4byte	0x366
 1183 01b0 00       		.byte	0
 1184 01b1 01       		.uleb128 0x1
 1185 01b2 CF020000 		.4byte	.LASF35
 1186 01b6 0B       		.byte	0xb
 1187 01b7 7D       		.byte	0x7d
 1188 01b8 1A       		.byte	0x1a
 1189 01b9 66030000 		.4byte	0x366
 1190 01bd 04       		.byte	0x4
 1191 01be 00       		.byte	0
 1192 01bf 02       		.uleb128 0x2
 1193 01c0 43040000 		.4byte	.LASF36
 1194 01c4 0B       		.byte	0xb
 1195 01c5 4E       		.byte	0x4e
 1196 01c6 21       		.byte	0x21
 1197 01c7 CB010000 		.4byte	0x1cb
ARM GAS  C:\Users\DEVELO~1\AppData\Local\Temp\ccsRbMwv.s 			page 22


 1198 01cb 09       		.uleb128 0x9
 1199 01cc 0E020000 		.4byte	.LASF37
 1200 01d0 10       		.byte	0x10
 1201 01d1 0B       		.byte	0xb
 1202 01d2 83       		.byte	0x83
 1203 01d3 08       		.byte	0x8
 1204 01d4 0D020000 		.4byte	0x20d
 1205 01d8 01       		.uleb128 0x1
 1206 01d9 0D040000 		.4byte	.LASF34
 1207 01dd 0B       		.byte	0xb
 1208 01de 87       		.byte	0x87
 1209 01df 1A       		.byte	0x1a
 1210 01e0 66030000 		.4byte	0x366
 1211 01e4 00       		.byte	0
 1212 01e5 01       		.uleb128 0x1
 1213 01e6 CF020000 		.4byte	.LASF35
 1214 01ea 0B       		.byte	0xb
 1215 01eb 8B       		.byte	0x8b
 1216 01ec 1A       		.byte	0x1a
 1217 01ed 66030000 		.4byte	0x366
 1218 01f1 04       		.byte	0x4
 1219 01f2 01       		.uleb128 0x1
 1220 01f3 30040000 		.4byte	.LASF38
 1221 01f7 0B       		.byte	0xb
 1222 01f8 8F       		.byte	0x8f
 1223 01f9 1A       		.byte	0x1a
 1224 01fa 66030000 		.4byte	0x366
 1225 01fe 08       		.byte	0x8
 1226 01ff 01       		.uleb128 0x1
 1227 0200 93040000 		.4byte	.LASF39
 1228 0204 0B       		.byte	0xb
 1229 0205 93       		.byte	0x93
 1230 0206 1A       		.byte	0x1a
 1231 0207 66030000 		.4byte	0x366
 1232 020b 0C       		.byte	0xc
 1233 020c 00       		.byte	0
 1234 020d 02       		.uleb128 0x2
 1235 020e A9000000 		.4byte	.LASF40
 1236 0212 0B       		.byte	0xb
 1237 0213 53       		.byte	0x53
 1238 0214 1D       		.byte	0x1d
 1239 0215 19020000 		.4byte	0x219
 1240 0219 09       		.uleb128 0x9
 1241 021a 4C000000 		.4byte	.LASF41
 1242 021e 2C       		.byte	0x2c
 1243 021f 0B       		.byte	0xb
 1244 0220 99       		.byte	0x99
 1245 0221 08       		.byte	0x8
 1246 0222 9C020000 		.4byte	0x29c
 1247 0226 01       		.uleb128 0x1
 1248 0227 0D040000 		.4byte	.LASF34
 1249 022b 0B       		.byte	0xb
 1250 022c 9D       		.byte	0x9d
 1251 022d 1A       		.byte	0x1a
 1252 022e 66030000 		.4byte	0x366
 1253 0232 00       		.byte	0
 1254 0233 01       		.uleb128 0x1
ARM GAS  C:\Users\DEVELO~1\AppData\Local\Temp\ccsRbMwv.s 			page 23


 1255 0234 CF020000 		.4byte	.LASF35
 1256 0238 0B       		.byte	0xb
 1257 0239 A1       		.byte	0xa1
 1258 023a 1A       		.byte	0x1a
 1259 023b 66030000 		.4byte	0x366
 1260 023f 04       		.byte	0x4
 1261 0240 01       		.uleb128 0x1
 1262 0241 30040000 		.4byte	.LASF38
 1263 0245 0B       		.byte	0xb
 1264 0246 A5       		.byte	0xa5
 1265 0247 1A       		.byte	0x1a
 1266 0248 66030000 		.4byte	0x366
 1267 024c 08       		.byte	0x8
 1268 024d 01       		.uleb128 0x1
 1269 024e 93040000 		.4byte	.LASF39
 1270 0252 0B       		.byte	0xb
 1271 0253 A9       		.byte	0xa9
 1272 0254 1A       		.byte	0x1a
 1273 0255 66030000 		.4byte	0x366
 1274 0259 0C       		.byte	0xc
 1275 025a 01       		.uleb128 0x1
 1276 025b 7A000000 		.4byte	.LASF42
 1277 025f 0B       		.byte	0xb
 1278 0260 AD       		.byte	0xad
 1279 0261 19       		.byte	0x19
 1280 0262 BB000000 		.4byte	0xbb
 1281 0266 10       		.byte	0x10
 1282 0267 01       		.uleb128 0x1
 1283 0268 FB010000 		.4byte	.LASF43
 1284 026c 0B       		.byte	0xb
 1285 026d B1       		.byte	0xb1
 1286 026e 19       		.byte	0x19
 1287 026f BB000000 		.4byte	0xbb
 1288 0273 14       		.byte	0x14
 1289 0274 01       		.uleb128 0x1
 1290 0275 1F020000 		.4byte	.LASF44
 1291 0279 0B       		.byte	0xb
 1292 027a B5       		.byte	0xb5
 1293 027b 19       		.byte	0x19
 1294 027c 67010000 		.4byte	0x167
 1295 0280 18       		.byte	0x18
 1296 0281 01       		.uleb128 0x1
 1297 0282 69000000 		.4byte	.LASF45
 1298 0286 0B       		.byte	0xb
 1299 0287 B9       		.byte	0xb9
 1300 0288 19       		.byte	0x19
 1301 0289 7F010000 		.4byte	0x17f
 1302 028d 24       		.byte	0x24
 1303 028e 01       		.uleb128 0x1
 1304 028f 8E040000 		.4byte	.LASF46
 1305 0293 0B       		.byte	0xb
 1306 0294 BF       		.byte	0xbf
 1307 0295 1A       		.byte	0x1a
 1308 0296 30010000 		.4byte	0x130
 1309 029a 28       		.byte	0x28
 1310 029b 00       		.byte	0
 1311 029c 02       		.uleb128 0x2
ARM GAS  C:\Users\DEVELO~1\AppData\Local\Temp\ccsRbMwv.s 			page 24


 1312 029d 3C000000 		.4byte	.LASF47
 1313 02a1 0B       		.byte	0xb
 1314 02a2 58       		.byte	0x58
 1315 02a3 21       		.byte	0x21
 1316 02a4 A8020000 		.4byte	0x2a8
 1317 02a8 09       		.uleb128 0x9
 1318 02a9 01010000 		.4byte	.LASF48
 1319 02ad 44       		.byte	0x44
 1320 02ae 0B       		.byte	0xb
 1321 02af C5       		.byte	0xc5
 1322 02b0 08       		.byte	0x8
 1323 02b1 37030000 		.4byte	0x337
 1324 02b5 01       		.uleb128 0x1
 1325 02b6 7D020000 		.4byte	.LASF49
 1326 02ba 0B       		.byte	0xb
 1327 02bb C9       		.byte	0xc9
 1328 02bc 19       		.byte	0x19
 1329 02bd DF000000 		.4byte	0xdf
 1330 02c1 00       		.byte	0
 1331 02c2 01       		.uleb128 0x1
 1332 02c3 90020000 		.4byte	.LASF50
 1333 02c7 0B       		.byte	0xb
 1334 02c8 CD       		.byte	0xcd
 1335 02c9 1A       		.byte	0x1a
 1336 02ca 77030000 		.4byte	0x377
 1337 02ce 04       		.byte	0x4
 1338 02cf 01       		.uleb128 0x1
 1339 02d0 39040000 		.4byte	.LASF51
 1340 02d4 0B       		.byte	0xb
 1341 02d5 D1       		.byte	0xd1
 1342 02d6 19       		.byte	0x19
 1343 02d7 DF000000 		.4byte	0xdf
 1344 02db 08       		.byte	0x8
 1345 02dc 01       		.uleb128 0x1
 1346 02dd 4B010000 		.4byte	.LASF52
 1347 02e1 0B       		.byte	0xb
 1348 02e2 D5       		.byte	0xd5
 1349 02e3 19       		.byte	0x19
 1350 02e4 2D000000 		.4byte	0x2d
 1351 02e8 0C       		.byte	0xc
 1352 02e9 01       		.uleb128 0x1
 1353 02ea 0C000000 		.4byte	.LASF53
 1354 02ee 0B       		.byte	0xb
 1355 02ef D9       		.byte	0xd9
 1356 02f0 1A       		.byte	0x1a
 1357 02f1 30010000 		.4byte	0x130
 1358 02f5 10       		.byte	0x10
 1359 02f6 1A       		.uleb128 0x1a
 1360 02f7 6C727500 		.ascii	"lru\000"
 1361 02fb 0B       		.byte	0xb
 1362 02fc DD       		.byte	0xdd
 1363 02fd BF010000 		.4byte	0x1bf
 1364 0301 14       		.byte	0x14
 1365 0302 01       		.uleb128 0x1
 1366 0303 E9020000 		.4byte	.LASF54
 1367 0307 0B       		.byte	0xb
 1368 0308 E1       		.byte	0xe1
ARM GAS  C:\Users\DEVELO~1\AppData\Local\Temp\ccsRbMwv.s 			page 25


 1369 0309 19       		.byte	0x19
 1370 030a 67010000 		.4byte	0x167
 1371 030e 24       		.byte	0x24
 1372 030f 01       		.uleb128 0x1
 1373 0310 12000000 		.4byte	.LASF55
 1374 0314 0B       		.byte	0xb
 1375 0315 E5       		.byte	0xe5
 1376 0316 19       		.byte	0x19
 1377 0317 67010000 		.4byte	0x167
 1378 031b 30       		.byte	0x30
 1379 031c 01       		.uleb128 0x1
 1380 031d 96020000 		.4byte	.LASF56
 1381 0321 0B       		.byte	0xb
 1382 0322 E9       		.byte	0xe9
 1383 0323 19       		.byte	0x19
 1384 0324 37030000 		.4byte	0x337
 1385 0328 3C       		.byte	0x3c
 1386 0329 01       		.uleb128 0x1
 1387 032a 73000000 		.4byte	.LASF57
 1388 032e 0B       		.byte	0xb
 1389 032f ED       		.byte	0xed
 1390 0330 19       		.byte	0x19
 1391 0331 6B030000 		.4byte	0x36b
 1392 0335 40       		.byte	0x40
 1393 0336 00       		.byte	0
 1394 0337 02       		.uleb128 0x2
 1395 0338 D9020000 		.4byte	.LASF58
 1396 033c 0B       		.byte	0xb
 1397 033d 62       		.byte	0x62
 1398 033e 10       		.byte	0x10
 1399 033f 43030000 		.4byte	0x343
 1400 0343 07       		.uleb128 0x7
 1401 0344 48030000 		.4byte	0x348
 1402 0348 29       		.uleb128 0x29
 1403 0349 78010000 		.4byte	0x178
 1404 034d 61030000 		.4byte	0x361
 1405 0351 08       		.uleb128 0x8
 1406 0352 61030000 		.4byte	0x361
 1407 0356 08       		.uleb128 0x8
 1408 0357 66030000 		.4byte	0x366
 1409 035b 08       		.uleb128 0x8
 1410 035c 78010000 		.4byte	0x178
 1411 0360 00       		.byte	0
 1412 0361 07       		.uleb128 0x7
 1413 0362 9C020000 		.4byte	0x29c
 1414 0366 07       		.uleb128 0x7
 1415 0367 0D020000 		.4byte	0x20d
 1416 036b 02       		.uleb128 0x2
 1417 036c 51010000 		.4byte	.LASF59
 1418 0370 0B       		.byte	0xb
 1419 0371 6E       		.byte	0x6e
 1420 0372 10       		.byte	0x10
 1421 0373 43030000 		.4byte	0x343
 1422 0377 07       		.uleb128 0x7
 1423 0378 8B010000 		.4byte	0x18b
 1424 037c 1B       		.uleb128 0x1b
 1425 037d 5C040000 		.4byte	.LASF60
ARM GAS  C:\Users\DEVELO~1\AppData\Local\Temp\ccsRbMwv.s 			page 26


 1426 0381 63       		.byte	0x63
 1427 0382 8C030000 		.4byte	0x38c
 1428 0386 08       		.uleb128 0x8
 1429 0387 8C030000 		.4byte	0x38c
 1430 038b 00       		.byte	0
 1431 038c 07       		.uleb128 0x7
 1432 038d 67010000 		.4byte	0x167
 1433 0391 2A       		.uleb128 0x2a
 1434 0392 72020000 		.4byte	.LASF84
 1435 0396 05       		.byte	0x5
 1436 0397 5F       		.byte	0x5f
 1437 0398 09       		.byte	0x9
 1438 0399 C7000000 		.4byte	0xc7
 1439 039d A7030000 		.4byte	0x3a7
 1440 03a1 08       		.uleb128 0x8
 1441 03a2 8C030000 		.4byte	0x38c
 1442 03a6 00       		.byte	0
 1443 03a7 1B       		.uleb128 0x1b
 1444 03a8 59000000 		.4byte	.LASF61
 1445 03ac 5B       		.byte	0x5b
 1446 03ad BC030000 		.4byte	0x3bc
 1447 03b1 08       		.uleb128 0x8
 1448 03b2 8C030000 		.4byte	0x38c
 1449 03b6 08       		.uleb128 0x8
 1450 03b7 D3000000 		.4byte	0xd3
 1451 03bb 00       		.byte	0
 1452 03bc 14       		.uleb128 0x14
 1453 03bd FA030000 		.4byte	.LASF64
 1454 03c1 DD01     		.2byte	0x1dd
 1455 03c3 06       		.byte	0x6
 1456 03c4 78010000 		.4byte	0x178
 1457 03c8 00000000 		.4byte	.LFB352
 1458 03cc 12000000 		.4byte	.LFE352-.LFB352
 1459 03d0 01       		.uleb128 0x1
 1460 03d1 9C       		.byte	0x9c
 1461 03d2 27040000 		.4byte	0x427
 1462 03d6 0D       		.uleb128 0xd
 1463 03d7 6F637000 		.ascii	"ocp\000"
 1464 03db DD01     		.2byte	0x1dd
 1465 03dd 2A       		.byte	0x2a
 1466 03de 61030000 		.4byte	0x361
 1467 03e2 10000000 		.4byte	.LLST37
 1468 03e6 0C000000 		.4byte	.LVUS37
 1469 03ea 0A       		.uleb128 0xa
 1470 03eb 3E040000 		.4byte	.LASF62
 1471 03ef DE01     		.2byte	0x1de
 1472 03f1 26       		.byte	0x26
 1473 03f2 66030000 		.4byte	0x366
 1474 03f6 27000000 		.4byte	.LLST38
 1475 03fa 23000000 		.4byte	.LVUS38
 1476 03fe 0A       		.uleb128 0xa
 1477 03ff C9020000 		.4byte	.LASF63
 1478 0403 DF01     		.2byte	0x1df
 1479 0405 1E       		.byte	0x1e
 1480 0406 78010000 		.4byte	0x178
 1481 040a 3E000000 		.4byte	.LLST39
 1482 040e 3A000000 		.4byte	.LVUS39
ARM GAS  C:\Users\DEVELO~1\AppData\Local\Temp\ccsRbMwv.s 			page 27


 1483 0412 1C       		.uleb128 0x1c
 1484 0413 12000000 		.4byte	.LVL52
 1485 0417 03       		.uleb128 0x3
 1486 0418 01       		.uleb128 0x1
 1487 0419 50       		.byte	0x50
 1488 041a 03       		.uleb128 0x3
 1489 041b A3       		.byte	0xa3
 1490 041c 01       		.uleb128 0x1
 1491 041d 50       		.byte	0x50
 1492 041e 03       		.uleb128 0x3
 1493 041f 01       		.uleb128 0x1
 1494 0420 51       		.byte	0x51
 1495 0421 03       		.uleb128 0x3
 1496 0422 A3       		.byte	0xa3
 1497 0423 01       		.uleb128 0x1
 1498 0424 51       		.byte	0x51
 1499 0425 00       		.byte	0
 1500 0426 00       		.byte	0
 1501 0427 14       		.uleb128 0x14
 1502 0428 08030000 		.4byte	.LASF65
 1503 042c C001     		.2byte	0x1c0
 1504 042e 06       		.byte	0x6
 1505 042f 78010000 		.4byte	0x178
 1506 0433 00000000 		.4byte	.LFB351
 1507 0437 12000000 		.4byte	.LFE351-.LFB351
 1508 043b 01       		.uleb128 0x1
 1509 043c 9C       		.byte	0x9c
 1510 043d 92040000 		.4byte	0x492
 1511 0441 0D       		.uleb128 0xd
 1512 0442 6F637000 		.ascii	"ocp\000"
 1513 0446 C001     		.2byte	0x1c0
 1514 0448 29       		.byte	0x29
 1515 0449 61030000 		.4byte	0x361
 1516 044d 55000000 		.4byte	.LLST34
 1517 0451 51000000 		.4byte	.LVUS34
 1518 0455 0A       		.uleb128 0xa
 1519 0456 3E040000 		.4byte	.LASF62
 1520 045a C101     		.2byte	0x1c1
 1521 045c 25       		.byte	0x25
 1522 045d 66030000 		.4byte	0x366
 1523 0461 6C000000 		.4byte	.LLST35
 1524 0465 68000000 		.4byte	.LVUS35
 1525 0469 0A       		.uleb128 0xa
 1526 046a C9020000 		.4byte	.LASF63
 1527 046e C201     		.2byte	0x1c2
 1528 0470 1D       		.byte	0x1d
 1529 0471 78010000 		.4byte	0x178
 1530 0475 83000000 		.4byte	.LLST36
 1531 0479 7F000000 		.4byte	.LVUS36
 1532 047d 1C       		.uleb128 0x1c
 1533 047e 12000000 		.4byte	.LVL50
 1534 0482 03       		.uleb128 0x3
 1535 0483 01       		.uleb128 0x1
 1536 0484 50       		.byte	0x50
 1537 0485 03       		.uleb128 0x3
 1538 0486 A3       		.byte	0xa3
 1539 0487 01       		.uleb128 0x1
ARM GAS  C:\Users\DEVELO~1\AppData\Local\Temp\ccsRbMwv.s 			page 28


 1540 0488 50       		.byte	0x50
 1541 0489 03       		.uleb128 0x3
 1542 048a 01       		.uleb128 0x1
 1543 048b 51       		.byte	0x51
 1544 048c 03       		.uleb128 0x3
 1545 048d A3       		.byte	0xa3
 1546 048e 01       		.uleb128 0x1
 1547 048f 51       		.byte	0x51
 1548 0490 00       		.byte	0
 1549 0491 00       		.byte	0
 1550 0492 2B       		.uleb128 0x2b
 1551 0493 B5000000 		.4byte	.LASF69
 1552 0497 01       		.byte	0x1
 1553 0498 7A01     		.2byte	0x17a
 1554 049a 06       		.byte	0x6
 1555 049b 00000000 		.4byte	.LFB350
 1556 049f 7C000000 		.4byte	.LFE350-.LFB350
 1557 04a3 01       		.uleb128 0x1
 1558 04a4 9C       		.byte	0x9c
 1559 04a5 53050000 		.4byte	0x553
 1560 04a9 0D       		.uleb128 0xd
 1561 04aa 6F637000 		.ascii	"ocp\000"
 1562 04ae 7A01     		.2byte	0x17a
 1563 04b0 2D       		.byte	0x2d
 1564 04b1 61030000 		.4byte	0x361
 1565 04b5 A0000000 		.4byte	.LLST30
 1566 04b9 96000000 		.4byte	.LVUS30
 1567 04bd 0A       		.uleb128 0xa
 1568 04be 3E040000 		.4byte	.LASF62
 1569 04c2 7B01     		.2byte	0x17b
 1570 04c4 29       		.byte	0x29
 1571 04c5 66030000 		.4byte	0x366
 1572 04c9 CF000000 		.4byte	.LLST31
 1573 04cd C7000000 		.4byte	.LVUS31
 1574 04d1 0E       		.uleb128 0xe
 1575 04d2 44020000 		.4byte	.LASF68
 1576 04d6 63050000 		.4byte	0x563
 1577 04da 11       		.uleb128 0x11
 1578 04db 140A0000 		.4byte	0xa14
 1579 04df 0A000000 		.4byte	.LBI144
 1580 04e3 00       		.byte	.LVU274
 1581 04e4 0A000000 		.4byte	.LBB144
 1582 04e8 00000000 		.4byte	.LBE144-.LBB144
 1583 04ec 8701     		.2byte	0x187
 1584 04ee 07       		.byte	0x7
 1585 04ef 01050000 		.4byte	0x501
 1586 04f3 05       		.uleb128 0x5
 1587 04f4 240A0000 		.4byte	0xa24
 1588 04f8 EE000000 		.4byte	.LLST32
 1589 04fc EC000000 		.4byte	.LVUS32
 1590 0500 00       		.byte	0
 1591 0501 11       		.uleb128 0x11
 1592 0502 350A0000 		.4byte	0xa35
 1593 0506 32000000 		.4byte	.LBI146
 1594 050a 01       		.byte	.LVU297
 1595 050b 32000000 		.4byte	.LBB146
 1596 050f 06000000 		.4byte	.LBE146-.LBB146
ARM GAS  C:\Users\DEVELO~1\AppData\Local\Temp\ccsRbMwv.s 			page 29


 1597 0513 AC01     		.2byte	0x1ac
 1598 0515 03       		.byte	0x3
 1599 0516 28050000 		.4byte	0x528
 1600 051a 05       		.uleb128 0x5
 1601 051b 3F0A0000 		.4byte	0xa3f
 1602 051f FB000000 		.4byte	.LLST33
 1603 0523 F9000000 		.4byte	.LVUS33
 1604 0527 00       		.byte	0
 1605 0528 1D       		.uleb128 0x1d
 1606 0529 32000000 		.4byte	.LVL43
 1607 052d 7C030000 		.4byte	0x37c
 1608 0531 3F050000 		.4byte	0x53f
 1609 0535 03       		.uleb128 0x3
 1610 0536 01       		.uleb128 0x1
 1611 0537 50       		.byte	0x50
 1612 0538 05       		.uleb128 0x5
 1613 0539 A3       		.byte	0xa3
 1614 053a 01       		.uleb128 0x1
 1615 053b 50       		.byte	0x50
 1616 053c 23       		.byte	0x23
 1617 053d 30       		.uleb128 0x30
 1618 053e 00       		.byte	0
 1619 053f 2C       		.uleb128 0x2c
 1620 0540 7C000000 		.4byte	.LVL48
 1621 0544 7C030000 		.4byte	0x37c
 1622 0548 03       		.uleb128 0x3
 1623 0549 01       		.uleb128 0x1
 1624 054a 50       		.byte	0x50
 1625 054b 05       		.uleb128 0x5
 1626 054c A3       		.byte	0xa3
 1627 054d 01       		.uleb128 0x1
 1628 054e 51       		.byte	0x51
 1629 054f 23       		.byte	0x23
 1630 0550 18       		.uleb128 0x18
 1631 0551 00       		.byte	0
 1632 0552 00       		.byte	0
 1633 0553 0F       		.uleb128 0xf
 1634 0554 F2000000 		.4byte	0xf2
 1635 0558 63050000 		.4byte	0x563
 1636 055c 10       		.uleb128 0x10
 1637 055d 39000000 		.4byte	0x39
 1638 0561 15       		.byte	0x15
 1639 0562 00       		.byte	0
 1640 0563 06       		.uleb128 0x6
 1641 0564 53050000 		.4byte	0x553
 1642 0568 14       		.uleb128 0x14
 1643 0569 1A010000 		.4byte	.LASF66
 1644 056d 2F01     		.2byte	0x12f
 1645 056f 0E       		.byte	0xe
 1646 0570 66030000 		.4byte	0x366
 1647 0574 00000000 		.4byte	.LFB349
 1648 0578 FE000000 		.4byte	.LFE349-.LFB349
 1649 057c 01       		.uleb128 0x1
 1650 057d 9C       		.byte	0x9c
 1651 057e 4D080000 		.4byte	0x84d
 1652 0582 0D       		.uleb128 0xd
 1653 0583 6F637000 		.ascii	"ocp\000"
ARM GAS  C:\Users\DEVELO~1\AppData\Local\Temp\ccsRbMwv.s 			page 30


 1654 0587 2F01     		.2byte	0x12f
 1655 0589 30       		.byte	0x30
 1656 058a 61030000 		.4byte	0x361
 1657 058e 12010000 		.4byte	.LLST7
 1658 0592 06010000 		.4byte	.LVUS7
 1659 0596 0A       		.uleb128 0xa
 1660 0597 F5010000 		.4byte	.LASF67
 1661 059b 3001     		.2byte	0x130
 1662 059d 28       		.byte	0x28
 1663 059e BB000000 		.4byte	0xbb
 1664 05a2 3F010000 		.4byte	.LLST8
 1665 05a6 3B010000 		.4byte	.LVUS8
 1666 05aa 0D       		.uleb128 0xd
 1667 05ab 6B657900 		.ascii	"key\000"
 1668 05af 3101     		.2byte	0x131
 1669 05b1 28       		.byte	0x28
 1670 05b2 BB000000 		.4byte	0xbb
 1671 05b6 54010000 		.4byte	.LLST9
 1672 05ba 50010000 		.4byte	.LVUS9
 1673 05be 1E       		.uleb128 0x1e
 1674 05bf 3E040000 		.4byte	.LASF62
 1675 05c3 3201     		.2byte	0x132
 1676 05c5 10       		.byte	0x10
 1677 05c6 66030000 		.4byte	0x366
 1678 05ca 69010000 		.4byte	.LLST10
 1679 05ce 65010000 		.4byte	.LVUS10
 1680 05d2 0E       		.uleb128 0xe
 1681 05d3 44020000 		.4byte	.LASF68
 1682 05d7 5D080000 		.4byte	0x85d
 1683 05db 1F       		.uleb128 0x1f
 1684 05dc 67000000 		.4byte	.LLRL28
 1685 05e0 FA050000 		.4byte	0x5fa
 1686 05e4 2D       		.uleb128 0x2d
 1687 05e5 68687000 		.ascii	"hhp\000"
 1688 05e9 01       		.byte	0x1
 1689 05ea 6001     		.2byte	0x160
 1690 05ec 05       		.byte	0x5
 1691 05ed 77030000 		.4byte	0x377
 1692 05f1 7E010000 		.4byte	.LLST29
 1693 05f5 7A010000 		.4byte	.LVUS29
 1694 05f9 00       		.byte	0
 1695 05fa 20       		.uleb128 0x20
 1696 05fb 8E0A0000 		.4byte	0xa8e
 1697 05ff 00000000 		.4byte	.LBI78
 1698 0603 03       		.byte	.LVU64
 1699 0604 1B000000 		.4byte	.LLRL11
 1700 0608 3501     		.2byte	0x135
 1701 060a 40060000 		.4byte	0x640
 1702 060e 0B       		.uleb128 0xb
 1703 060f A00A0000 		.4byte	0xaa0
 1704 0613 00000000 		.4byte	.LBI79
 1705 0617 05       		.byte	.LVU66
 1706 0618 1B000000 		.4byte	.LLRL11
 1707 061c 02       		.byte	0x2
 1708 061d 9901     		.2byte	0x199
 1709 061f 0B       		.uleb128 0xb
 1710 0620 A90A0000 		.4byte	0xaa9
ARM GAS  C:\Users\DEVELO~1\AppData\Local\Temp\ccsRbMwv.s 			page 31


 1711 0624 00000000 		.4byte	.LBI80
 1712 0628 07       		.byte	.LVU68
 1713 0629 1B000000 		.4byte	.LLRL11
 1714 062d 03       		.byte	0x3
 1715 062e 2E03     		.2byte	0x32e
 1716 0630 05       		.uleb128 0x5
 1717 0631 B30A0000 		.4byte	0xab3
 1718 0635 9D010000 		.4byte	.LLST12
 1719 0639 9B010000 		.4byte	.LVUS12
 1720 063d 00       		.byte	0
 1721 063e 00       		.byte	0
 1722 063f 00       		.byte	0
 1723 0640 11       		.uleb128 0x11
 1724 0641 C9090000 		.4byte	0x9c9
 1725 0645 10000000 		.4byte	.LBI90
 1726 0649 04       		.byte	.LVU78
 1727 064a 10000000 		.4byte	.LBB90
 1728 064e 2E000000 		.4byte	.LBE90-.LBB90
 1729 0652 3801     		.2byte	0x138
 1730 0654 0A       		.byte	0xa
 1731 0655 A0060000 		.4byte	0x6a0
 1732 0659 15       		.uleb128 0x15
 1733 065a D9090000 		.4byte	0x9d9
 1734 065e 05       		.uleb128 0x5
 1735 065f D9090000 		.4byte	0x9d9
 1736 0663 AC010000 		.4byte	.LLST13
 1737 0667 A8010000 		.4byte	.LVUS13
 1738 066b 05       		.uleb128 0x5
 1739 066c F1090000 		.4byte	0x9f1
 1740 0670 C2010000 		.4byte	.LLST14
 1741 0674 BC010000 		.4byte	.LVUS14
 1742 0678 05       		.uleb128 0x5
 1743 0679 E5090000 		.4byte	0x9e5
 1744 067d DD010000 		.4byte	.LLST15
 1745 0681 D7010000 		.4byte	.LVUS15
 1746 0685 16       		.uleb128 0x16
 1747 0686 FD090000 		.4byte	0x9fd
 1748 068a F6010000 		.4byte	.LLST16
 1749 068e F2010000 		.4byte	.LVUS16
 1750 0692 16       		.uleb128 0x16
 1751 0693 090A0000 		.4byte	0xa09
 1752 0697 0A020000 		.4byte	.LLST17
 1753 069b 06020000 		.4byte	.LVUS17
 1754 069f 00       		.byte	0
 1755 06a0 11       		.uleb128 0x11
 1756 06a1 140A0000 		.4byte	0xa14
 1757 06a5 3E000000 		.4byte	.LBI92
 1758 06a9 06       		.byte	.LVU102
 1759 06aa 3E000000 		.4byte	.LBB92
 1760 06ae 02000000 		.4byte	.LBE92-.LBB92
 1761 06b2 4001     		.2byte	0x140
 1762 06b4 09       		.byte	0x9
 1763 06b5 C7060000 		.4byte	0x6c7
 1764 06b9 05       		.uleb128 0x5
 1765 06ba 240A0000 		.4byte	0xa24
 1766 06be 1C020000 		.4byte	.LLST18
 1767 06c2 1A020000 		.4byte	.LVUS18
ARM GAS  C:\Users\DEVELO~1\AppData\Local\Temp\ccsRbMwv.s 			page 32


 1768 06c6 00       		.byte	0
 1769 06c7 2E       		.uleb128 0x2e
 1770 06c8 4B0A0000 		.4byte	0xa4b
 1771 06cc 2A000000 		.4byte	.LLRL19
 1772 06d0 01       		.byte	0x1
 1773 06d1 4C01     		.2byte	0x14c
 1774 06d3 07       		.byte	0x7
 1775 06d4 DE060000 		.4byte	0x6de
 1776 06d8 15       		.uleb128 0x15
 1777 06d9 550A0000 		.4byte	0xa55
 1778 06dd 00       		.byte	0
 1779 06de 20       		.uleb128 0x20
 1780 06df 610A0000 		.4byte	0xa61
 1781 06e3 58000000 		.4byte	.LBI98
 1782 06e7 03       		.byte	.LVU124
 1783 06e8 36000000 		.4byte	.LLRL20
 1784 06ec 6401     		.2byte	0x164
 1785 06ee 2A070000 		.4byte	0x72a
 1786 06f2 21       		.uleb128 0x21
 1787 06f3 36000000 		.4byte	.LLRL20
 1788 06f7 0B       		.uleb128 0xb
 1789 06f8 970A0000 		.4byte	0xa97
 1790 06fc 58000000 		.4byte	.LBI100
 1791 0700 0A       		.byte	.LVU131
 1792 0701 36000000 		.4byte	.LLRL20
 1793 0705 02       		.byte	0x2
 1794 0706 B201     		.2byte	0x1b2
 1795 0708 0B       		.uleb128 0xb
 1796 0709 A90A0000 		.4byte	0xaa9
 1797 070d 58000000 		.4byte	.LBI101
 1798 0711 0C       		.byte	.LVU133
 1799 0712 36000000 		.4byte	.LLRL20
 1800 0716 03       		.byte	0x3
 1801 0717 4103     		.2byte	0x341
 1802 0719 05       		.uleb128 0x5
 1803 071a B30A0000 		.4byte	0xab3
 1804 071e 2D020000 		.4byte	.LLST21
 1805 0722 27020000 		.4byte	.LVUS21
 1806 0726 00       		.byte	0
 1807 0727 00       		.byte	0
 1808 0728 00       		.byte	0
 1809 0729 00       		.byte	0
 1810 072a 2F       		.uleb128 0x2f
 1811 072b 84090000 		.4byte	0x984
 1812 072f 64000000 		.4byte	.LBB111
 1813 0733 56000000 		.4byte	.LBE111-.LBB111
 1814 0737 01       		.byte	0x1
 1815 0738 5A01     		.2byte	0x15a
 1816 073a 0C       		.byte	0xc
 1817 073b 3C080000 		.4byte	0x83c
 1818 073f 15       		.uleb128 0x15
 1819 0740 94090000 		.4byte	0x994
 1820 0744 16       		.uleb128 0x16
 1821 0745 A0090000 		.4byte	0x9a0
 1822 0749 4D020000 		.4byte	.LLST22
 1823 074d 49020000 		.4byte	.LVUS22
 1824 0751 22       		.uleb128 0x22
ARM GAS  C:\Users\DEVELO~1\AppData\Local\Temp\ccsRbMwv.s 			page 33


 1825 0752 610A0000 		.4byte	0xa61
 1826 0756 90000000 		.4byte	.LBI113
 1827 075a 02       		.byte	.LVU165
 1828 075b 49000000 		.4byte	.LLRL23
 1829 075f CC       		.byte	0xcc
 1830 0760 9C070000 		.4byte	0x79c
 1831 0764 21       		.uleb128 0x21
 1832 0765 49000000 		.4byte	.LLRL23
 1833 0769 0B       		.uleb128 0xb
 1834 076a 970A0000 		.4byte	0xa97
 1835 076e 90000000 		.4byte	.LBI115
 1836 0772 09       		.byte	.LVU172
 1837 0773 49000000 		.4byte	.LLRL23
 1838 0777 02       		.byte	0x2
 1839 0778 B201     		.2byte	0x1b2
 1840 077a 0B       		.uleb128 0xb
 1841 077b A90A0000 		.4byte	0xaa9
 1842 077f 90000000 		.4byte	.LBI116
 1843 0783 0B       		.byte	.LVU174
 1844 0784 49000000 		.4byte	.LLRL23
 1845 0788 03       		.byte	0x3
 1846 0789 4103     		.2byte	0x341
 1847 078b 05       		.uleb128 0x5
 1848 078c B30A0000 		.4byte	0xab3
 1849 0790 61020000 		.4byte	.LLST24
 1850 0794 5D020000 		.4byte	.LVUS24
 1851 0798 00       		.byte	0
 1852 0799 00       		.byte	0
 1853 079a 00       		.byte	0
 1854 079b 00       		.byte	0
 1855 079c 30       		.uleb128 0x30
 1856 079d 8E0A0000 		.4byte	0xa8e
 1857 07a1 84000000 		.4byte	.LBI127
 1858 07a5 01       		.byte	.LVU149
 1859 07a6 84000000 		.4byte	.LBB127
 1860 07aa 06000000 		.4byte	.LBE127-.LBB127
 1861 07ae 01       		.byte	0x1
 1862 07af D5       		.byte	0xd5
 1863 07b0 05       		.byte	0x5
 1864 07b1 EF070000 		.4byte	0x7ef
 1865 07b5 23       		.uleb128 0x23
 1866 07b6 A00A0000 		.4byte	0xaa0
 1867 07ba 84000000 		.4byte	.LBI129
 1868 07be 03       		.byte	.LVU151
 1869 07bf 84000000 		.4byte	.LBB129
 1870 07c3 06000000 		.4byte	.LBE129-.LBB129
 1871 07c7 02       		.byte	0x2
 1872 07c8 9901     		.2byte	0x199
 1873 07ca 23       		.uleb128 0x23
 1874 07cb A90A0000 		.4byte	0xaa9
 1875 07cf 84000000 		.4byte	.LBI130
 1876 07d3 05       		.byte	.LVU153
 1877 07d4 84000000 		.4byte	.LBB130
 1878 07d8 06000000 		.4byte	.LBE130-.LBB130
 1879 07dc 03       		.byte	0x3
 1880 07dd 2E03     		.2byte	0x32e
 1881 07df 05       		.uleb128 0x5
ARM GAS  C:\Users\DEVELO~1\AppData\Local\Temp\ccsRbMwv.s 			page 34


 1882 07e0 B30A0000 		.4byte	0xab3
 1883 07e4 75020000 		.4byte	.LLST25
 1884 07e8 73020000 		.4byte	.LVUS25
 1885 07ec 00       		.byte	0
 1886 07ed 00       		.byte	0
 1887 07ee 00       		.byte	0
 1888 07ef 22       		.uleb128 0x22
 1889 07f0 4B0A0000 		.4byte	0xa4b
 1890 07f4 A8000000 		.4byte	.LBI133
 1891 07f8 01       		.byte	.LVU193
 1892 07f9 58000000 		.4byte	.LLRL26
 1893 07fd BA       		.byte	0xba
 1894 07fe 10080000 		.4byte	0x810
 1895 0802 05       		.uleb128 0x5
 1896 0803 550A0000 		.4byte	0xa55
 1897 0807 82020000 		.4byte	.LLST27
 1898 080b 80020000 		.4byte	.LVUS27
 1899 080f 00       		.byte	0
 1900 0810 31       		.uleb128 0x31
 1901 0811 84000000 		.4byte	.LVL25
 1902 0815 2B080000 		.4byte	0x82b
 1903 0819 03       		.uleb128 0x3
 1904 081a 01       		.uleb128 0x1
 1905 081b 50       		.byte	0x50
 1906 081c 02       		.uleb128 0x2
 1907 081d 76       		.byte	0x76
 1908 081e 00       		.sleb128 0
 1909 081f 03       		.uleb128 0x3
 1910 0820 01       		.uleb128 0x1
 1911 0821 51       		.byte	0x51
 1912 0822 02       		.uleb128 0x2
 1913 0823 74       		.byte	0x74
 1914 0824 00       		.sleb128 0
 1915 0825 03       		.uleb128 0x3
 1916 0826 01       		.uleb128 0x1
 1917 0827 52       		.byte	0x52
 1918 0828 01       		.uleb128 0x1
 1919 0829 31       		.byte	0x31
 1920 082a 00       		.byte	0
 1921 082b 12       		.uleb128 0x12
 1922 082c 90000000 		.4byte	.LVL27
 1923 0830 91030000 		.4byte	0x391
 1924 0834 03       		.uleb128 0x3
 1925 0835 01       		.uleb128 0x1
 1926 0836 50       		.byte	0x50
 1927 0837 02       		.uleb128 0x2
 1928 0838 79       		.byte	0x79
 1929 0839 00       		.sleb128 0
 1930 083a 00       		.byte	0
 1931 083b 00       		.byte	0
 1932 083c 12       		.uleb128 0x12
 1933 083d F2000000 		.4byte	.LVL37
 1934 0841 91030000 		.4byte	0x391
 1935 0845 03       		.uleb128 0x3
 1936 0846 01       		.uleb128 0x1
 1937 0847 50       		.byte	0x50
 1938 0848 02       		.uleb128 0x2
ARM GAS  C:\Users\DEVELO~1\AppData\Local\Temp\ccsRbMwv.s 			page 35


 1939 0849 74       		.byte	0x74
 1940 084a 18       		.sleb128 24
 1941 084b 00       		.byte	0
 1942 084c 00       		.byte	0
 1943 084d 0F       		.uleb128 0xf
 1944 084e F2000000 		.4byte	0xf2
 1945 0852 5D080000 		.4byte	0x85d
 1946 0856 10       		.uleb128 0x10
 1947 0857 39000000 		.4byte	0x39
 1948 085b 10       		.byte	0x10
 1949 085c 00       		.byte	0
 1950 085d 06       		.uleb128 0x6
 1951 085e 4D080000 		.4byte	0x84d
 1952 0862 32       		.uleb128 0x32
 1953 0863 CB000000 		.4byte	.LASF70
 1954 0867 01       		.byte	0x1
 1955 0868 F0       		.byte	0xf0
 1956 0869 06       		.byte	0x6
 1957 086a 00000000 		.4byte	.LFB348
 1958 086e 7E000000 		.4byte	.LFE348-.LFB348
 1959 0872 01       		.uleb128 0x1
 1960 0873 9C       		.byte	0x9c
 1961 0874 6F090000 		.4byte	0x96f
 1962 0878 33       		.uleb128 0x33
 1963 0879 6F637000 		.ascii	"ocp\000"
 1964 087d 01       		.byte	0x1
 1965 087e F0       		.byte	0xf0
 1966 087f 29       		.byte	0x29
 1967 0880 61030000 		.4byte	0x361
 1968 0884 91020000 		.4byte	.LLST0
 1969 0888 8D020000 		.4byte	.LVUS0
 1970 088c 13       		.uleb128 0x13
 1971 088d 7D020000 		.4byte	.LASF49
 1972 0891 F1       		.byte	0xf1
 1973 0892 1F       		.byte	0x1f
 1974 0893 DF000000 		.4byte	0xdf
 1975 0897 A9020000 		.4byte	.LLST1
 1976 089b A1020000 		.4byte	.LVUS1
 1977 089f 13       		.uleb128 0x13
 1978 08a0 90020000 		.4byte	.LASF50
 1979 08a4 F2       		.byte	0xf2
 1980 08a5 2A       		.byte	0x2a
 1981 08a6 77030000 		.4byte	0x377
 1982 08aa CB020000 		.4byte	.LLST2
 1983 08ae C7020000 		.4byte	.LVUS2
 1984 08b2 13       		.uleb128 0x13
 1985 08b3 39040000 		.4byte	.LASF51
 1986 08b7 F3       		.byte	0xf3
 1987 08b8 1F       		.byte	0x1f
 1988 08b9 DF000000 		.4byte	0xdf
 1989 08bd E1020000 		.4byte	.LLST3
 1990 08c1 DB020000 		.4byte	.LVUS3
 1991 08c5 17       		.uleb128 0x17
 1992 08c6 4B010000 		.4byte	.LASF52
 1993 08ca F4       		.byte	0xf4
 1994 08cb 1F       		.byte	0x1f
 1995 08cc 2D000000 		.4byte	0x2d
ARM GAS  C:\Users\DEVELO~1\AppData\Local\Temp\ccsRbMwv.s 			page 36


 1996 08d0 02       		.uleb128 0x2
 1997 08d1 91       		.byte	0x91
 1998 08d2 00       		.sleb128 0
 1999 08d3 13       		.uleb128 0x13
 2000 08d4 0C000000 		.4byte	.LASF53
 2001 08d8 F5       		.byte	0xf5
 2002 08d9 1E       		.byte	0x1e
 2003 08da 30010000 		.4byte	0x130
 2004 08de FC020000 		.4byte	.LLST4
 2005 08e2 F8020000 		.4byte	.LVUS4
 2006 08e6 17       		.uleb128 0x17
 2007 08e7 96020000 		.4byte	.LASF56
 2008 08eb F6       		.byte	0xf6
 2009 08ec 23       		.byte	0x23
 2010 08ed 37030000 		.4byte	0x337
 2011 08f1 02       		.uleb128 0x2
 2012 08f2 91       		.byte	0x91
 2013 08f3 08       		.sleb128 8
 2014 08f4 17       		.uleb128 0x17
 2015 08f5 73000000 		.4byte	.LASF57
 2016 08f9 F7       		.byte	0xf7
 2017 08fa 24       		.byte	0x24
 2018 08fb 6B030000 		.4byte	0x36b
 2019 08ff 02       		.uleb128 0x2
 2020 0900 91       		.byte	0x91
 2021 0901 0C       		.sleb128 12
 2022 0902 0E       		.uleb128 0xe
 2023 0903 44020000 		.4byte	.LASF68
 2024 0907 7F090000 		.4byte	0x97f
 2025 090b 1F       		.uleb128 0x1f
 2026 090c 0C000000 		.4byte	.LLRL5
 2027 0910 3F090000 		.4byte	0x93f
 2028 0914 1E       		.uleb128 0x1e
 2029 0915 3E040000 		.4byte	.LASF62
 2030 0919 1501     		.2byte	0x115
 2031 091b 12       		.byte	0x12
 2032 091c 66030000 		.4byte	0x366
 2033 0920 11030000 		.4byte	.LLST6
 2034 0924 0D030000 		.4byte	.LVUS6
 2035 0928 12       		.uleb128 0x12
 2036 0929 62000000 		.4byte	.LVL8
 2037 092d A7030000 		.4byte	0x3a7
 2038 0931 03       		.uleb128 0x3
 2039 0932 01       		.uleb128 0x1
 2040 0933 50       		.byte	0x50
 2041 0934 02       		.uleb128 0x2
 2042 0935 74       		.byte	0x74
 2043 0936 18       		.sleb128 24
 2044 0937 03       		.uleb128 0x3
 2045 0938 01       		.uleb128 0x1
 2046 0939 51       		.byte	0x51
 2047 093a 02       		.uleb128 0x2
 2048 093b 7A       		.byte	0x7a
 2049 093c 00       		.sleb128 0
 2050 093d 00       		.byte	0
 2051 093e 00       		.byte	0
 2052 093f 1D       		.uleb128 0x1d
ARM GAS  C:\Users\DEVELO~1\AppData\Local\Temp\ccsRbMwv.s 			page 37


 2053 0940 1A000000 		.4byte	.LVL3
 2054 0944 A7030000 		.4byte	0x3a7
 2055 0948 58090000 		.4byte	0x958
 2056 094c 03       		.uleb128 0x3
 2057 094d 01       		.uleb128 0x1
 2058 094e 50       		.byte	0x50
 2059 094f 02       		.uleb128 0x2
 2060 0950 76       		.byte	0x76
 2061 0951 24       		.sleb128 36
 2062 0952 03       		.uleb128 0x3
 2063 0953 01       		.uleb128 0x1
 2064 0954 51       		.byte	0x51
 2065 0955 01       		.uleb128 0x1
 2066 0956 31       		.byte	0x31
 2067 0957 00       		.byte	0
 2068 0958 12       		.uleb128 0x12
 2069 0959 24000000 		.4byte	.LVL4
 2070 095d A7030000 		.4byte	0x3a7
 2071 0961 03       		.uleb128 0x3
 2072 0962 01       		.uleb128 0x1
 2073 0963 50       		.byte	0x50
 2074 0964 02       		.uleb128 0x2
 2075 0965 76       		.byte	0x76
 2076 0966 30       		.sleb128 48
 2077 0967 03       		.uleb128 0x3
 2078 0968 01       		.uleb128 0x1
 2079 0969 51       		.byte	0x51
 2080 096a 02       		.uleb128 0x2
 2081 096b 77       		.byte	0x77
 2082 096c 00       		.sleb128 0
 2083 096d 00       		.byte	0
 2084 096e 00       		.byte	0
 2085 096f 0F       		.uleb128 0xf
 2086 0970 F2000000 		.4byte	0xf2
 2087 0974 7F090000 		.4byte	0x97f
 2088 0978 10       		.uleb128 0x10
 2089 0979 39000000 		.4byte	0x39
 2090 097d 11       		.byte	0x11
 2091 097e 00       		.byte	0
 2092 097f 06       		.uleb128 0x6
 2093 0980 6F090000 		.4byte	0x96f
 2094 0984 18       		.uleb128 0x18
 2095 0985 35020000 		.4byte	.LASF71
 2096 0989 01       		.byte	0x1
 2097 098a A5       		.byte	0xa5
 2098 098b 66030000 		.4byte	0x366
 2099 098f 01       		.byte	0x1
 2100 0990 B4090000 		.4byte	0x9b4
 2101 0994 0C       		.uleb128 0xc
 2102 0995 6F637000 		.ascii	"ocp\000"
 2103 0999 01       		.byte	0x1
 2104 099a A5       		.byte	0xa5
 2105 099b 35       		.byte	0x35
 2106 099c 61030000 		.4byte	0x361
 2107 09a0 24       		.uleb128 0x24
 2108 09a1 3E040000 		.4byte	.LASF62
 2109 09a5 A6       		.byte	0xa6
ARM GAS  C:\Users\DEVELO~1\AppData\Local\Temp\ccsRbMwv.s 			page 38


 2110 09a6 66030000 		.4byte	0x366
 2111 09aa 0E       		.uleb128 0xe
 2112 09ab 44020000 		.4byte	.LASF68
 2113 09af C4090000 		.4byte	0x9c4
 2114 09b3 00       		.byte	0
 2115 09b4 0F       		.uleb128 0xf
 2116 09b5 F2000000 		.4byte	0xf2
 2117 09b9 C4090000 		.4byte	0x9c4
 2118 09bd 10       		.uleb128 0x10
 2119 09be 39000000 		.4byte	0x39
 2120 09c2 0E       		.byte	0xe
 2121 09c3 00       		.byte	0
 2122 09c4 06       		.uleb128 0x6
 2123 09c5 B4090000 		.4byte	0x9b4
 2124 09c9 18       		.uleb128 0x18
 2125 09ca A7040000 		.4byte	.LASF72
 2126 09ce 01       		.byte	0x1
 2127 09cf 86       		.byte	0x86
 2128 09d0 66030000 		.4byte	0x366
 2129 09d4 01       		.byte	0x1
 2130 09d5 140A0000 		.4byte	0xa14
 2131 09d9 0C       		.uleb128 0xc
 2132 09da 6F637000 		.ascii	"ocp\000"
 2133 09de 01       		.byte	0x1
 2134 09df 86       		.byte	0x86
 2135 09e0 31       		.byte	0x31
 2136 09e1 61030000 		.4byte	0x361
 2137 09e5 34       		.uleb128 0x34
 2138 09e6 F5010000 		.4byte	.LASF67
 2139 09ea 01       		.byte	0x1
 2140 09eb 87       		.byte	0x87
 2141 09ec 29       		.byte	0x29
 2142 09ed BB000000 		.4byte	0xbb
 2143 09f1 0C       		.uleb128 0xc
 2144 09f2 6B657900 		.ascii	"key\000"
 2145 09f6 01       		.byte	0x1
 2146 09f7 88       		.byte	0x88
 2147 09f8 29       		.byte	0x29
 2148 09f9 BB000000 		.4byte	0xbb
 2149 09fd 35       		.uleb128 0x35
 2150 09fe 68687000 		.ascii	"hhp\000"
 2151 0a02 01       		.byte	0x1
 2152 0a03 89       		.byte	0x89
 2153 0a04 15       		.byte	0x15
 2154 0a05 77030000 		.4byte	0x377
 2155 0a09 24       		.uleb128 0x24
 2156 0a0a 3E040000 		.4byte	.LASF62
 2157 0a0e 8A       		.byte	0x8a
 2158 0a0f 66030000 		.4byte	0x366
 2159 0a13 00       		.byte	0
 2160 0a14 18       		.uleb128 0x18
 2161 0a15 2B000000 		.4byte	.LASF73
 2162 0a19 05       		.byte	0x5
 2163 0a1a BD       		.byte	0xbd
 2164 0a1b D3000000 		.4byte	0xd3
 2165 0a1f 03       		.byte	0x3
 2166 0a20 300A0000 		.4byte	0xa30
ARM GAS  C:\Users\DEVELO~1\AppData\Local\Temp\ccsRbMwv.s 			page 39


 2167 0a24 0C       		.uleb128 0xc
 2168 0a25 737000   		.ascii	"sp\000"
 2169 0a28 05       		.byte	0x5
 2170 0a29 BD       		.byte	0xbd
 2171 0a2a 39       		.byte	0x39
 2172 0a2b 300A0000 		.4byte	0xa30
 2173 0a2f 00       		.byte	0
 2174 0a30 07       		.uleb128 0x7
 2175 0a31 73010000 		.4byte	0x173
 2176 0a35 25       		.uleb128 0x25
 2177 0a36 84000000 		.4byte	.LASF74
 2178 0a3a AE       		.byte	0xae
 2179 0a3b 4B0A0000 		.4byte	0xa4b
 2180 0a3f 0C       		.uleb128 0xc
 2181 0a40 737000   		.ascii	"sp\000"
 2182 0a43 05       		.byte	0x5
 2183 0a44 AE       		.byte	0xae
 2184 0a45 32       		.byte	0x32
 2185 0a46 8C030000 		.4byte	0x38c
 2186 0a4a 00       		.byte	0
 2187 0a4b 25       		.uleb128 0x25
 2188 0a4c 4D020000 		.4byte	.LASF75
 2189 0a50 9E       		.byte	0x9e
 2190 0a51 610A0000 		.4byte	0xa61
 2191 0a55 0C       		.uleb128 0xc
 2192 0a56 737000   		.ascii	"sp\000"
 2193 0a59 05       		.byte	0x5
 2194 0a5a 9E       		.byte	0x9e
 2195 0a5b 30       		.byte	0x30
 2196 0a5c 8C030000 		.4byte	0x38c
 2197 0a60 00       		.byte	0
 2198 0a61 36       		.uleb128 0x36
 2199 0a62 17040000 		.4byte	.LASF76
 2200 0a66 02       		.byte	0x2
 2201 0a67 A501     		.2byte	0x1a5
 2202 0a69 14       		.byte	0x14
 2203 0a6a 03       		.byte	0x3
 2204 0a6b 790A0000 		.4byte	0xa79
 2205 0a6f 0E       		.uleb128 0xe
 2206 0a70 44020000 		.4byte	.LASF68
 2207 0a74 890A0000 		.4byte	0xa89
 2208 0a78 00       		.byte	0
 2209 0a79 0F       		.uleb128 0xf
 2210 0a7a F2000000 		.4byte	0xf2
 2211 0a7e 890A0000 		.4byte	0xa89
 2212 0a82 10       		.uleb128 0x10
 2213 0a83 39000000 		.4byte	0x39
 2214 0a87 0B       		.byte	0xb
 2215 0a88 00       		.byte	0
 2216 0a89 06       		.uleb128 0x6
 2217 0a8a 790A0000 		.4byte	0xa79
 2218 0a8e 19       		.uleb128 0x19
 2219 0a8f 9F000000 		.4byte	.LASF77
 2220 0a93 02       		.byte	0x2
 2221 0a94 9701     		.2byte	0x197
 2222 0a96 14       		.byte	0x14
 2223 0a97 19       		.uleb128 0x19
ARM GAS  C:\Users\DEVELO~1\AppData\Local\Temp\ccsRbMwv.s 			page 40


 2224 0a98 20030000 		.4byte	.LASF78
 2225 0a9c 03       		.byte	0x3
 2226 0a9d 3E03     		.2byte	0x33e
 2227 0a9f 1B       		.byte	0x1b
 2228 0aa0 19       		.uleb128 0x19
 2229 0aa1 95000000 		.4byte	.LASF79
 2230 0aa5 03       		.byte	0x3
 2231 0aa6 2603     		.2byte	0x326
 2232 0aa8 1B       		.byte	0x1b
 2233 0aa9 37       		.uleb128 0x37
 2234 0aaa 80040000 		.4byte	.LASF85
 2235 0aae 04       		.byte	0x4
 2236 0aaf EB01     		.2byte	0x1eb
 2237 0ab1 1B       		.byte	0x1b
 2238 0ab2 03       		.byte	0x3
 2239 0ab3 38       		.uleb128 0x38
 2240 0ab4 C1020000 		.4byte	.LASF80
 2241 0ab8 04       		.byte	0x4
 2242 0ab9 EB01     		.2byte	0x1eb
 2243 0abb 32       		.byte	0x32
 2244 0abc BB000000 		.4byte	0xbb
 2245 0ac0 00       		.byte	0
 2246 0ac1 00       		.byte	0
 2247              		.section	.debug_abbrev,"",%progbits
 2248              	.Ldebug_abbrev0:
 2249 0000 01       		.uleb128 0x1
 2250 0001 0D       		.uleb128 0xd
 2251 0002 00       		.byte	0
 2252 0003 03       		.uleb128 0x3
 2253 0004 0E       		.uleb128 0xe
 2254 0005 3A       		.uleb128 0x3a
 2255 0006 0B       		.uleb128 0xb
 2256 0007 3B       		.uleb128 0x3b
 2257 0008 0B       		.uleb128 0xb
 2258 0009 39       		.uleb128 0x39
 2259 000a 0B       		.uleb128 0xb
 2260 000b 49       		.uleb128 0x49
 2261 000c 13       		.uleb128 0x13
 2262 000d 38       		.uleb128 0x38
 2263 000e 0B       		.uleb128 0xb
 2264 000f 00       		.byte	0
 2265 0010 00       		.byte	0
 2266 0011 02       		.uleb128 0x2
 2267 0012 16       		.uleb128 0x16
 2268 0013 00       		.byte	0
 2269 0014 03       		.uleb128 0x3
 2270 0015 0E       		.uleb128 0xe
 2271 0016 3A       		.uleb128 0x3a
 2272 0017 0B       		.uleb128 0xb
 2273 0018 3B       		.uleb128 0x3b
 2274 0019 0B       		.uleb128 0xb
 2275 001a 39       		.uleb128 0x39
 2276 001b 0B       		.uleb128 0xb
 2277 001c 49       		.uleb128 0x49
 2278 001d 13       		.uleb128 0x13
 2279 001e 00       		.byte	0
 2280 001f 00       		.byte	0
ARM GAS  C:\Users\DEVELO~1\AppData\Local\Temp\ccsRbMwv.s 			page 41


 2281 0020 03       		.uleb128 0x3
 2282 0021 49       		.uleb128 0x49
 2283 0022 00       		.byte	0
 2284 0023 02       		.uleb128 0x2
 2285 0024 18       		.uleb128 0x18
 2286 0025 7E       		.uleb128 0x7e
 2287 0026 18       		.uleb128 0x18
 2288 0027 00       		.byte	0
 2289 0028 00       		.byte	0
 2290 0029 04       		.uleb128 0x4
 2291 002a 24       		.uleb128 0x24
 2292 002b 00       		.byte	0
 2293 002c 0B       		.uleb128 0xb
 2294 002d 0B       		.uleb128 0xb
 2295 002e 3E       		.uleb128 0x3e
 2296 002f 0B       		.uleb128 0xb
 2297 0030 03       		.uleb128 0x3
 2298 0031 0E       		.uleb128 0xe
 2299 0032 00       		.byte	0
 2300 0033 00       		.byte	0
 2301 0034 05       		.uleb128 0x5
 2302 0035 05       		.uleb128 0x5
 2303 0036 00       		.byte	0
 2304 0037 31       		.uleb128 0x31
 2305 0038 13       		.uleb128 0x13
 2306 0039 02       		.uleb128 0x2
 2307 003a 17       		.uleb128 0x17
 2308 003b B742     		.uleb128 0x2137
 2309 003d 17       		.uleb128 0x17
 2310 003e 00       		.byte	0
 2311 003f 00       		.byte	0
 2312 0040 06       		.uleb128 0x6
 2313 0041 26       		.uleb128 0x26
 2314 0042 00       		.byte	0
 2315 0043 49       		.uleb128 0x49
 2316 0044 13       		.uleb128 0x13
 2317 0045 00       		.byte	0
 2318 0046 00       		.byte	0
 2319 0047 07       		.uleb128 0x7
 2320 0048 0F       		.uleb128 0xf
 2321 0049 00       		.byte	0
 2322 004a 0B       		.uleb128 0xb
 2323 004b 21       		.uleb128 0x21
 2324 004c 04       		.sleb128 4
 2325 004d 49       		.uleb128 0x49
 2326 004e 13       		.uleb128 0x13
 2327 004f 00       		.byte	0
 2328 0050 00       		.byte	0
 2329 0051 08       		.uleb128 0x8
 2330 0052 05       		.uleb128 0x5
 2331 0053 00       		.byte	0
 2332 0054 49       		.uleb128 0x49
 2333 0055 13       		.uleb128 0x13
 2334 0056 00       		.byte	0
 2335 0057 00       		.byte	0
 2336 0058 09       		.uleb128 0x9
 2337 0059 13       		.uleb128 0x13
ARM GAS  C:\Users\DEVELO~1\AppData\Local\Temp\ccsRbMwv.s 			page 42


 2338 005a 01       		.byte	0x1
 2339 005b 03       		.uleb128 0x3
 2340 005c 0E       		.uleb128 0xe
 2341 005d 0B       		.uleb128 0xb
 2342 005e 0B       		.uleb128 0xb
 2343 005f 3A       		.uleb128 0x3a
 2344 0060 0B       		.uleb128 0xb
 2345 0061 3B       		.uleb128 0x3b
 2346 0062 0B       		.uleb128 0xb
 2347 0063 39       		.uleb128 0x39
 2348 0064 0B       		.uleb128 0xb
 2349 0065 01       		.uleb128 0x1
 2350 0066 13       		.uleb128 0x13
 2351 0067 00       		.byte	0
 2352 0068 00       		.byte	0
 2353 0069 0A       		.uleb128 0xa
 2354 006a 05       		.uleb128 0x5
 2355 006b 00       		.byte	0
 2356 006c 03       		.uleb128 0x3
 2357 006d 0E       		.uleb128 0xe
 2358 006e 3A       		.uleb128 0x3a
 2359 006f 21       		.uleb128 0x21
 2360 0070 01       		.sleb128 1
 2361 0071 3B       		.uleb128 0x3b
 2362 0072 05       		.uleb128 0x5
 2363 0073 39       		.uleb128 0x39
 2364 0074 0B       		.uleb128 0xb
 2365 0075 49       		.uleb128 0x49
 2366 0076 13       		.uleb128 0x13
 2367 0077 02       		.uleb128 0x2
 2368 0078 17       		.uleb128 0x17
 2369 0079 B742     		.uleb128 0x2137
 2370 007b 17       		.uleb128 0x17
 2371 007c 00       		.byte	0
 2372 007d 00       		.byte	0
 2373 007e 0B       		.uleb128 0xb
 2374 007f 1D       		.uleb128 0x1d
 2375 0080 01       		.byte	0x1
 2376 0081 31       		.uleb128 0x31
 2377 0082 13       		.uleb128 0x13
 2378 0083 52       		.uleb128 0x52
 2379 0084 01       		.uleb128 0x1
 2380 0085 B842     		.uleb128 0x2138
 2381 0087 0B       		.uleb128 0xb
 2382 0088 55       		.uleb128 0x55
 2383 0089 17       		.uleb128 0x17
 2384 008a 58       		.uleb128 0x58
 2385 008b 0B       		.uleb128 0xb
 2386 008c 59       		.uleb128 0x59
 2387 008d 05       		.uleb128 0x5
 2388 008e 57       		.uleb128 0x57
 2389 008f 21       		.uleb128 0x21
 2390 0090 03       		.sleb128 3
 2391 0091 00       		.byte	0
 2392 0092 00       		.byte	0
 2393 0093 0C       		.uleb128 0xc
 2394 0094 05       		.uleb128 0x5
ARM GAS  C:\Users\DEVELO~1\AppData\Local\Temp\ccsRbMwv.s 			page 43


 2395 0095 00       		.byte	0
 2396 0096 03       		.uleb128 0x3
 2397 0097 08       		.uleb128 0x8
 2398 0098 3A       		.uleb128 0x3a
 2399 0099 0B       		.uleb128 0xb
 2400 009a 3B       		.uleb128 0x3b
 2401 009b 0B       		.uleb128 0xb
 2402 009c 39       		.uleb128 0x39
 2403 009d 0B       		.uleb128 0xb
 2404 009e 49       		.uleb128 0x49
 2405 009f 13       		.uleb128 0x13
 2406 00a0 00       		.byte	0
 2407 00a1 00       		.byte	0
 2408 00a2 0D       		.uleb128 0xd
 2409 00a3 05       		.uleb128 0x5
 2410 00a4 00       		.byte	0
 2411 00a5 03       		.uleb128 0x3
 2412 00a6 08       		.uleb128 0x8
 2413 00a7 3A       		.uleb128 0x3a
 2414 00a8 21       		.uleb128 0x21
 2415 00a9 01       		.sleb128 1
 2416 00aa 3B       		.uleb128 0x3b
 2417 00ab 05       		.uleb128 0x5
 2418 00ac 39       		.uleb128 0x39
 2419 00ad 0B       		.uleb128 0xb
 2420 00ae 49       		.uleb128 0x49
 2421 00af 13       		.uleb128 0x13
 2422 00b0 02       		.uleb128 0x2
 2423 00b1 17       		.uleb128 0x17
 2424 00b2 B742     		.uleb128 0x2137
 2425 00b4 17       		.uleb128 0x17
 2426 00b5 00       		.byte	0
 2427 00b6 00       		.byte	0
 2428 00b7 0E       		.uleb128 0xe
 2429 00b8 34       		.uleb128 0x34
 2430 00b9 00       		.byte	0
 2431 00ba 03       		.uleb128 0x3
 2432 00bb 0E       		.uleb128 0xe
 2433 00bc 49       		.uleb128 0x49
 2434 00bd 13       		.uleb128 0x13
 2435 00be 34       		.uleb128 0x34
 2436 00bf 19       		.uleb128 0x19
 2437 00c0 00       		.byte	0
 2438 00c1 00       		.byte	0
 2439 00c2 0F       		.uleb128 0xf
 2440 00c3 01       		.uleb128 0x1
 2441 00c4 01       		.byte	0x1
 2442 00c5 49       		.uleb128 0x49
 2443 00c6 13       		.uleb128 0x13
 2444 00c7 01       		.uleb128 0x1
 2445 00c8 13       		.uleb128 0x13
 2446 00c9 00       		.byte	0
 2447 00ca 00       		.byte	0
 2448 00cb 10       		.uleb128 0x10
 2449 00cc 21       		.uleb128 0x21
 2450 00cd 00       		.byte	0
 2451 00ce 49       		.uleb128 0x49
ARM GAS  C:\Users\DEVELO~1\AppData\Local\Temp\ccsRbMwv.s 			page 44


 2452 00cf 13       		.uleb128 0x13
 2453 00d0 2F       		.uleb128 0x2f
 2454 00d1 0B       		.uleb128 0xb
 2455 00d2 00       		.byte	0
 2456 00d3 00       		.byte	0
 2457 00d4 11       		.uleb128 0x11
 2458 00d5 1D       		.uleb128 0x1d
 2459 00d6 01       		.byte	0x1
 2460 00d7 31       		.uleb128 0x31
 2461 00d8 13       		.uleb128 0x13
 2462 00d9 52       		.uleb128 0x52
 2463 00da 01       		.uleb128 0x1
 2464 00db B842     		.uleb128 0x2138
 2465 00dd 0B       		.uleb128 0xb
 2466 00de 11       		.uleb128 0x11
 2467 00df 01       		.uleb128 0x1
 2468 00e0 12       		.uleb128 0x12
 2469 00e1 06       		.uleb128 0x6
 2470 00e2 58       		.uleb128 0x58
 2471 00e3 21       		.uleb128 0x21
 2472 00e4 01       		.sleb128 1
 2473 00e5 59       		.uleb128 0x59
 2474 00e6 05       		.uleb128 0x5
 2475 00e7 57       		.uleb128 0x57
 2476 00e8 0B       		.uleb128 0xb
 2477 00e9 01       		.uleb128 0x1
 2478 00ea 13       		.uleb128 0x13
 2479 00eb 00       		.byte	0
 2480 00ec 00       		.byte	0
 2481 00ed 12       		.uleb128 0x12
 2482 00ee 48       		.uleb128 0x48
 2483 00ef 01       		.byte	0x1
 2484 00f0 7D       		.uleb128 0x7d
 2485 00f1 01       		.uleb128 0x1
 2486 00f2 7F       		.uleb128 0x7f
 2487 00f3 13       		.uleb128 0x13
 2488 00f4 00       		.byte	0
 2489 00f5 00       		.byte	0
 2490 00f6 13       		.uleb128 0x13
 2491 00f7 05       		.uleb128 0x5
 2492 00f8 00       		.byte	0
 2493 00f9 03       		.uleb128 0x3
 2494 00fa 0E       		.uleb128 0xe
 2495 00fb 3A       		.uleb128 0x3a
 2496 00fc 21       		.uleb128 0x21
 2497 00fd 01       		.sleb128 1
 2498 00fe 3B       		.uleb128 0x3b
 2499 00ff 0B       		.uleb128 0xb
 2500 0100 39       		.uleb128 0x39
 2501 0101 0B       		.uleb128 0xb
 2502 0102 49       		.uleb128 0x49
 2503 0103 13       		.uleb128 0x13
 2504 0104 02       		.uleb128 0x2
 2505 0105 17       		.uleb128 0x17
 2506 0106 B742     		.uleb128 0x2137
 2507 0108 17       		.uleb128 0x17
 2508 0109 00       		.byte	0
ARM GAS  C:\Users\DEVELO~1\AppData\Local\Temp\ccsRbMwv.s 			page 45


 2509 010a 00       		.byte	0
 2510 010b 14       		.uleb128 0x14
 2511 010c 2E       		.uleb128 0x2e
 2512 010d 01       		.byte	0x1
 2513 010e 3F       		.uleb128 0x3f
 2514 010f 19       		.uleb128 0x19
 2515 0110 03       		.uleb128 0x3
 2516 0111 0E       		.uleb128 0xe
 2517 0112 3A       		.uleb128 0x3a
 2518 0113 21       		.uleb128 0x21
 2519 0114 01       		.sleb128 1
 2520 0115 3B       		.uleb128 0x3b
 2521 0116 05       		.uleb128 0x5
 2522 0117 39       		.uleb128 0x39
 2523 0118 0B       		.uleb128 0xb
 2524 0119 27       		.uleb128 0x27
 2525 011a 19       		.uleb128 0x19
 2526 011b 49       		.uleb128 0x49
 2527 011c 13       		.uleb128 0x13
 2528 011d 11       		.uleb128 0x11
 2529 011e 01       		.uleb128 0x1
 2530 011f 12       		.uleb128 0x12
 2531 0120 06       		.uleb128 0x6
 2532 0121 40       		.uleb128 0x40
 2533 0122 18       		.uleb128 0x18
 2534 0123 7A       		.uleb128 0x7a
 2535 0124 19       		.uleb128 0x19
 2536 0125 01       		.uleb128 0x1
 2537 0126 13       		.uleb128 0x13
 2538 0127 00       		.byte	0
 2539 0128 00       		.byte	0
 2540 0129 15       		.uleb128 0x15
 2541 012a 05       		.uleb128 0x5
 2542 012b 00       		.byte	0
 2543 012c 31       		.uleb128 0x31
 2544 012d 13       		.uleb128 0x13
 2545 012e 00       		.byte	0
 2546 012f 00       		.byte	0
 2547 0130 16       		.uleb128 0x16
 2548 0131 34       		.uleb128 0x34
 2549 0132 00       		.byte	0
 2550 0133 31       		.uleb128 0x31
 2551 0134 13       		.uleb128 0x13
 2552 0135 02       		.uleb128 0x2
 2553 0136 17       		.uleb128 0x17
 2554 0137 B742     		.uleb128 0x2137
 2555 0139 17       		.uleb128 0x17
 2556 013a 00       		.byte	0
 2557 013b 00       		.byte	0
 2558 013c 17       		.uleb128 0x17
 2559 013d 05       		.uleb128 0x5
 2560 013e 00       		.byte	0
 2561 013f 03       		.uleb128 0x3
 2562 0140 0E       		.uleb128 0xe
 2563 0141 3A       		.uleb128 0x3a
 2564 0142 21       		.uleb128 0x21
 2565 0143 01       		.sleb128 1
ARM GAS  C:\Users\DEVELO~1\AppData\Local\Temp\ccsRbMwv.s 			page 46


 2566 0144 3B       		.uleb128 0x3b
 2567 0145 0B       		.uleb128 0xb
 2568 0146 39       		.uleb128 0x39
 2569 0147 0B       		.uleb128 0xb
 2570 0148 49       		.uleb128 0x49
 2571 0149 13       		.uleb128 0x13
 2572 014a 02       		.uleb128 0x2
 2573 014b 18       		.uleb128 0x18
 2574 014c 00       		.byte	0
 2575 014d 00       		.byte	0
 2576 014e 18       		.uleb128 0x18
 2577 014f 2E       		.uleb128 0x2e
 2578 0150 01       		.byte	0x1
 2579 0151 03       		.uleb128 0x3
 2580 0152 0E       		.uleb128 0xe
 2581 0153 3A       		.uleb128 0x3a
 2582 0154 0B       		.uleb128 0xb
 2583 0155 3B       		.uleb128 0x3b
 2584 0156 0B       		.uleb128 0xb
 2585 0157 39       		.uleb128 0x39
 2586 0158 21       		.uleb128 0x21
 2587 0159 15       		.sleb128 21
 2588 015a 27       		.uleb128 0x27
 2589 015b 19       		.uleb128 0x19
 2590 015c 49       		.uleb128 0x49
 2591 015d 13       		.uleb128 0x13
 2592 015e 20       		.uleb128 0x20
 2593 015f 0B       		.uleb128 0xb
 2594 0160 01       		.uleb128 0x1
 2595 0161 13       		.uleb128 0x13
 2596 0162 00       		.byte	0
 2597 0163 00       		.byte	0
 2598 0164 19       		.uleb128 0x19
 2599 0165 2E       		.uleb128 0x2e
 2600 0166 00       		.byte	0
 2601 0167 03       		.uleb128 0x3
 2602 0168 0E       		.uleb128 0xe
 2603 0169 3A       		.uleb128 0x3a
 2604 016a 0B       		.uleb128 0xb
 2605 016b 3B       		.uleb128 0x3b
 2606 016c 05       		.uleb128 0x5
 2607 016d 39       		.uleb128 0x39
 2608 016e 0B       		.uleb128 0xb
 2609 016f 27       		.uleb128 0x27
 2610 0170 19       		.uleb128 0x19
 2611 0171 20       		.uleb128 0x20
 2612 0172 21       		.uleb128 0x21
 2613 0173 03       		.sleb128 3
 2614 0174 00       		.byte	0
 2615 0175 00       		.byte	0
 2616 0176 1A       		.uleb128 0x1a
 2617 0177 0D       		.uleb128 0xd
 2618 0178 00       		.byte	0
 2619 0179 03       		.uleb128 0x3
 2620 017a 08       		.uleb128 0x8
 2621 017b 3A       		.uleb128 0x3a
 2622 017c 0B       		.uleb128 0xb
ARM GAS  C:\Users\DEVELO~1\AppData\Local\Temp\ccsRbMwv.s 			page 47


 2623 017d 3B       		.uleb128 0x3b
 2624 017e 0B       		.uleb128 0xb
 2625 017f 39       		.uleb128 0x39
 2626 0180 21       		.uleb128 0x21
 2627 0181 19       		.sleb128 25
 2628 0182 49       		.uleb128 0x49
 2629 0183 13       		.uleb128 0x13
 2630 0184 38       		.uleb128 0x38
 2631 0185 0B       		.uleb128 0xb
 2632 0186 00       		.byte	0
 2633 0187 00       		.byte	0
 2634 0188 1B       		.uleb128 0x1b
 2635 0189 2E       		.uleb128 0x2e
 2636 018a 01       		.byte	0x1
 2637 018b 3F       		.uleb128 0x3f
 2638 018c 19       		.uleb128 0x19
 2639 018d 03       		.uleb128 0x3
 2640 018e 0E       		.uleb128 0xe
 2641 018f 3A       		.uleb128 0x3a
 2642 0190 21       		.uleb128 0x21
 2643 0191 05       		.sleb128 5
 2644 0192 3B       		.uleb128 0x3b
 2645 0193 0B       		.uleb128 0xb
 2646 0194 39       		.uleb128 0x39
 2647 0195 21       		.uleb128 0x21
 2648 0196 08       		.sleb128 8
 2649 0197 27       		.uleb128 0x27
 2650 0198 19       		.uleb128 0x19
 2651 0199 3C       		.uleb128 0x3c
 2652 019a 19       		.uleb128 0x19
 2653 019b 01       		.uleb128 0x1
 2654 019c 13       		.uleb128 0x13
 2655 019d 00       		.byte	0
 2656 019e 00       		.byte	0
 2657 019f 1C       		.uleb128 0x1c
 2658 01a0 48       		.uleb128 0x48
 2659 01a1 01       		.byte	0x1
 2660 01a2 7D       		.uleb128 0x7d
 2661 01a3 01       		.uleb128 0x1
 2662 01a4 8201     		.uleb128 0x82
 2663 01a6 19       		.uleb128 0x19
 2664 01a7 00       		.byte	0
 2665 01a8 00       		.byte	0
 2666 01a9 1D       		.uleb128 0x1d
 2667 01aa 48       		.uleb128 0x48
 2668 01ab 01       		.byte	0x1
 2669 01ac 7D       		.uleb128 0x7d
 2670 01ad 01       		.uleb128 0x1
 2671 01ae 7F       		.uleb128 0x7f
 2672 01af 13       		.uleb128 0x13
 2673 01b0 01       		.uleb128 0x1
 2674 01b1 13       		.uleb128 0x13
 2675 01b2 00       		.byte	0
 2676 01b3 00       		.byte	0
 2677 01b4 1E       		.uleb128 0x1e
 2678 01b5 34       		.uleb128 0x34
 2679 01b6 00       		.byte	0
ARM GAS  C:\Users\DEVELO~1\AppData\Local\Temp\ccsRbMwv.s 			page 48


 2680 01b7 03       		.uleb128 0x3
 2681 01b8 0E       		.uleb128 0xe
 2682 01b9 3A       		.uleb128 0x3a
 2683 01ba 21       		.uleb128 0x21
 2684 01bb 01       		.sleb128 1
 2685 01bc 3B       		.uleb128 0x3b
 2686 01bd 05       		.uleb128 0x5
 2687 01be 39       		.uleb128 0x39
 2688 01bf 0B       		.uleb128 0xb
 2689 01c0 49       		.uleb128 0x49
 2690 01c1 13       		.uleb128 0x13
 2691 01c2 02       		.uleb128 0x2
 2692 01c3 17       		.uleb128 0x17
 2693 01c4 B742     		.uleb128 0x2137
 2694 01c6 17       		.uleb128 0x17
 2695 01c7 00       		.byte	0
 2696 01c8 00       		.byte	0
 2697 01c9 1F       		.uleb128 0x1f
 2698 01ca 0B       		.uleb128 0xb
 2699 01cb 01       		.byte	0x1
 2700 01cc 55       		.uleb128 0x55
 2701 01cd 17       		.uleb128 0x17
 2702 01ce 01       		.uleb128 0x1
 2703 01cf 13       		.uleb128 0x13
 2704 01d0 00       		.byte	0
 2705 01d1 00       		.byte	0
 2706 01d2 20       		.uleb128 0x20
 2707 01d3 1D       		.uleb128 0x1d
 2708 01d4 01       		.byte	0x1
 2709 01d5 31       		.uleb128 0x31
 2710 01d6 13       		.uleb128 0x13
 2711 01d7 52       		.uleb128 0x52
 2712 01d8 01       		.uleb128 0x1
 2713 01d9 B842     		.uleb128 0x2138
 2714 01db 0B       		.uleb128 0xb
 2715 01dc 55       		.uleb128 0x55
 2716 01dd 17       		.uleb128 0x17
 2717 01de 58       		.uleb128 0x58
 2718 01df 21       		.uleb128 0x21
 2719 01e0 01       		.sleb128 1
 2720 01e1 59       		.uleb128 0x59
 2721 01e2 05       		.uleb128 0x5
 2722 01e3 57       		.uleb128 0x57
 2723 01e4 21       		.uleb128 0x21
 2724 01e5 03       		.sleb128 3
 2725 01e6 01       		.uleb128 0x1
 2726 01e7 13       		.uleb128 0x13
 2727 01e8 00       		.byte	0
 2728 01e9 00       		.byte	0
 2729 01ea 21       		.uleb128 0x21
 2730 01eb 0B       		.uleb128 0xb
 2731 01ec 01       		.byte	0x1
 2732 01ed 55       		.uleb128 0x55
 2733 01ee 17       		.uleb128 0x17
 2734 01ef 00       		.byte	0
 2735 01f0 00       		.byte	0
 2736 01f1 22       		.uleb128 0x22
ARM GAS  C:\Users\DEVELO~1\AppData\Local\Temp\ccsRbMwv.s 			page 49


 2737 01f2 1D       		.uleb128 0x1d
 2738 01f3 01       		.byte	0x1
 2739 01f4 31       		.uleb128 0x31
 2740 01f5 13       		.uleb128 0x13
 2741 01f6 52       		.uleb128 0x52
 2742 01f7 01       		.uleb128 0x1
 2743 01f8 B842     		.uleb128 0x2138
 2744 01fa 0B       		.uleb128 0xb
 2745 01fb 55       		.uleb128 0x55
 2746 01fc 17       		.uleb128 0x17
 2747 01fd 58       		.uleb128 0x58
 2748 01fe 21       		.uleb128 0x21
 2749 01ff 01       		.sleb128 1
 2750 0200 59       		.uleb128 0x59
 2751 0201 0B       		.uleb128 0xb
 2752 0202 57       		.uleb128 0x57
 2753 0203 21       		.uleb128 0x21
 2754 0204 05       		.sleb128 5
 2755 0205 01       		.uleb128 0x1
 2756 0206 13       		.uleb128 0x13
 2757 0207 00       		.byte	0
 2758 0208 00       		.byte	0
 2759 0209 23       		.uleb128 0x23
 2760 020a 1D       		.uleb128 0x1d
 2761 020b 01       		.byte	0x1
 2762 020c 31       		.uleb128 0x31
 2763 020d 13       		.uleb128 0x13
 2764 020e 52       		.uleb128 0x52
 2765 020f 01       		.uleb128 0x1
 2766 0210 B842     		.uleb128 0x2138
 2767 0212 0B       		.uleb128 0xb
 2768 0213 11       		.uleb128 0x11
 2769 0214 01       		.uleb128 0x1
 2770 0215 12       		.uleb128 0x12
 2771 0216 06       		.uleb128 0x6
 2772 0217 58       		.uleb128 0x58
 2773 0218 0B       		.uleb128 0xb
 2774 0219 59       		.uleb128 0x59
 2775 021a 05       		.uleb128 0x5
 2776 021b 57       		.uleb128 0x57
 2777 021c 21       		.uleb128 0x21
 2778 021d 03       		.sleb128 3
 2779 021e 00       		.byte	0
 2780 021f 00       		.byte	0
 2781 0220 24       		.uleb128 0x24
 2782 0221 34       		.uleb128 0x34
 2783 0222 00       		.byte	0
 2784 0223 03       		.uleb128 0x3
 2785 0224 0E       		.uleb128 0xe
 2786 0225 3A       		.uleb128 0x3a
 2787 0226 21       		.uleb128 0x21
 2788 0227 01       		.sleb128 1
 2789 0228 3B       		.uleb128 0x3b
 2790 0229 0B       		.uleb128 0xb
 2791 022a 39       		.uleb128 0x39
 2792 022b 21       		.uleb128 0x21
 2793 022c 10       		.sleb128 16
ARM GAS  C:\Users\DEVELO~1\AppData\Local\Temp\ccsRbMwv.s 			page 50


 2794 022d 49       		.uleb128 0x49
 2795 022e 13       		.uleb128 0x13
 2796 022f 00       		.byte	0
 2797 0230 00       		.byte	0
 2798 0231 25       		.uleb128 0x25
 2799 0232 2E       		.uleb128 0x2e
 2800 0233 01       		.byte	0x1
 2801 0234 03       		.uleb128 0x3
 2802 0235 0E       		.uleb128 0xe
 2803 0236 3A       		.uleb128 0x3a
 2804 0237 21       		.uleb128 0x21
 2805 0238 05       		.sleb128 5
 2806 0239 3B       		.uleb128 0x3b
 2807 023a 0B       		.uleb128 0xb
 2808 023b 39       		.uleb128 0x39
 2809 023c 21       		.uleb128 0x21
 2810 023d 14       		.sleb128 20
 2811 023e 27       		.uleb128 0x27
 2812 023f 19       		.uleb128 0x19
 2813 0240 20       		.uleb128 0x20
 2814 0241 21       		.uleb128 0x21
 2815 0242 03       		.sleb128 3
 2816 0243 01       		.uleb128 0x1
 2817 0244 13       		.uleb128 0x13
 2818 0245 00       		.byte	0
 2819 0246 00       		.byte	0
 2820 0247 26       		.uleb128 0x26
 2821 0248 11       		.uleb128 0x11
 2822 0249 01       		.byte	0x1
 2823 024a 25       		.uleb128 0x25
 2824 024b 0E       		.uleb128 0xe
 2825 024c 13       		.uleb128 0x13
 2826 024d 0B       		.uleb128 0xb
 2827 024e 03       		.uleb128 0x3
 2828 024f 0E       		.uleb128 0xe
 2829 0250 1B       		.uleb128 0x1b
 2830 0251 0E       		.uleb128 0xe
 2831 0252 55       		.uleb128 0x55
 2832 0253 17       		.uleb128 0x17
 2833 0254 11       		.uleb128 0x11
 2834 0255 01       		.uleb128 0x1
 2835 0256 10       		.uleb128 0x10
 2836 0257 17       		.uleb128 0x17
 2837 0258 00       		.byte	0
 2838 0259 00       		.byte	0
 2839 025a 27       		.uleb128 0x27
 2840 025b 24       		.uleb128 0x24
 2841 025c 00       		.byte	0
 2842 025d 0B       		.uleb128 0xb
 2843 025e 0B       		.uleb128 0xb
 2844 025f 3E       		.uleb128 0x3e
 2845 0260 0B       		.uleb128 0xb
 2846 0261 03       		.uleb128 0x3
 2847 0262 08       		.uleb128 0x8
 2848 0263 00       		.byte	0
 2849 0264 00       		.byte	0
 2850 0265 28       		.uleb128 0x28
ARM GAS  C:\Users\DEVELO~1\AppData\Local\Temp\ccsRbMwv.s 			page 51


 2851 0266 0F       		.uleb128 0xf
 2852 0267 00       		.byte	0
 2853 0268 0B       		.uleb128 0xb
 2854 0269 0B       		.uleb128 0xb
 2855 026a 00       		.byte	0
 2856 026b 00       		.byte	0
 2857 026c 29       		.uleb128 0x29
 2858 026d 15       		.uleb128 0x15
 2859 026e 01       		.byte	0x1
 2860 026f 27       		.uleb128 0x27
 2861 0270 19       		.uleb128 0x19
 2862 0271 49       		.uleb128 0x49
 2863 0272 13       		.uleb128 0x13
 2864 0273 01       		.uleb128 0x1
 2865 0274 13       		.uleb128 0x13
 2866 0275 00       		.byte	0
 2867 0276 00       		.byte	0
 2868 0277 2A       		.uleb128 0x2a
 2869 0278 2E       		.uleb128 0x2e
 2870 0279 01       		.byte	0x1
 2871 027a 3F       		.uleb128 0x3f
 2872 027b 19       		.uleb128 0x19
 2873 027c 03       		.uleb128 0x3
 2874 027d 0E       		.uleb128 0xe
 2875 027e 3A       		.uleb128 0x3a
 2876 027f 0B       		.uleb128 0xb
 2877 0280 3B       		.uleb128 0x3b
 2878 0281 0B       		.uleb128 0xb
 2879 0282 39       		.uleb128 0x39
 2880 0283 0B       		.uleb128 0xb
 2881 0284 27       		.uleb128 0x27
 2882 0285 19       		.uleb128 0x19
 2883 0286 49       		.uleb128 0x49
 2884 0287 13       		.uleb128 0x13
 2885 0288 3C       		.uleb128 0x3c
 2886 0289 19       		.uleb128 0x19
 2887 028a 01       		.uleb128 0x1
 2888 028b 13       		.uleb128 0x13
 2889 028c 00       		.byte	0
 2890 028d 00       		.byte	0
 2891 028e 2B       		.uleb128 0x2b
 2892 028f 2E       		.uleb128 0x2e
 2893 0290 01       		.byte	0x1
 2894 0291 3F       		.uleb128 0x3f
 2895 0292 19       		.uleb128 0x19
 2896 0293 03       		.uleb128 0x3
 2897 0294 0E       		.uleb128 0xe
 2898 0295 3A       		.uleb128 0x3a
 2899 0296 0B       		.uleb128 0xb
 2900 0297 3B       		.uleb128 0x3b
 2901 0298 05       		.uleb128 0x5
 2902 0299 39       		.uleb128 0x39
 2903 029a 0B       		.uleb128 0xb
 2904 029b 27       		.uleb128 0x27
 2905 029c 19       		.uleb128 0x19
 2906 029d 11       		.uleb128 0x11
 2907 029e 01       		.uleb128 0x1
ARM GAS  C:\Users\DEVELO~1\AppData\Local\Temp\ccsRbMwv.s 			page 52


 2908 029f 12       		.uleb128 0x12
 2909 02a0 06       		.uleb128 0x6
 2910 02a1 40       		.uleb128 0x40
 2911 02a2 18       		.uleb128 0x18
 2912 02a3 7A       		.uleb128 0x7a
 2913 02a4 19       		.uleb128 0x19
 2914 02a5 01       		.uleb128 0x1
 2915 02a6 13       		.uleb128 0x13
 2916 02a7 00       		.byte	0
 2917 02a8 00       		.byte	0
 2918 02a9 2C       		.uleb128 0x2c
 2919 02aa 48       		.uleb128 0x48
 2920 02ab 01       		.byte	0x1
 2921 02ac 7D       		.uleb128 0x7d
 2922 02ad 01       		.uleb128 0x1
 2923 02ae 8201     		.uleb128 0x82
 2924 02b0 19       		.uleb128 0x19
 2925 02b1 7F       		.uleb128 0x7f
 2926 02b2 13       		.uleb128 0x13
 2927 02b3 00       		.byte	0
 2928 02b4 00       		.byte	0
 2929 02b5 2D       		.uleb128 0x2d
 2930 02b6 34       		.uleb128 0x34
 2931 02b7 00       		.byte	0
 2932 02b8 03       		.uleb128 0x3
 2933 02b9 08       		.uleb128 0x8
 2934 02ba 3A       		.uleb128 0x3a
 2935 02bb 0B       		.uleb128 0xb
 2936 02bc 3B       		.uleb128 0x3b
 2937 02bd 05       		.uleb128 0x5
 2938 02be 39       		.uleb128 0x39
 2939 02bf 0B       		.uleb128 0xb
 2940 02c0 49       		.uleb128 0x49
 2941 02c1 13       		.uleb128 0x13
 2942 02c2 02       		.uleb128 0x2
 2943 02c3 17       		.uleb128 0x17
 2944 02c4 B742     		.uleb128 0x2137
 2945 02c6 17       		.uleb128 0x17
 2946 02c7 00       		.byte	0
 2947 02c8 00       		.byte	0
 2948 02c9 2E       		.uleb128 0x2e
 2949 02ca 1D       		.uleb128 0x1d
 2950 02cb 01       		.byte	0x1
 2951 02cc 31       		.uleb128 0x31
 2952 02cd 13       		.uleb128 0x13
 2953 02ce 55       		.uleb128 0x55
 2954 02cf 17       		.uleb128 0x17
 2955 02d0 58       		.uleb128 0x58
 2956 02d1 0B       		.uleb128 0xb
 2957 02d2 59       		.uleb128 0x59
 2958 02d3 05       		.uleb128 0x5
 2959 02d4 57       		.uleb128 0x57
 2960 02d5 0B       		.uleb128 0xb
 2961 02d6 01       		.uleb128 0x1
 2962 02d7 13       		.uleb128 0x13
 2963 02d8 00       		.byte	0
 2964 02d9 00       		.byte	0
ARM GAS  C:\Users\DEVELO~1\AppData\Local\Temp\ccsRbMwv.s 			page 53


 2965 02da 2F       		.uleb128 0x2f
 2966 02db 1D       		.uleb128 0x1d
 2967 02dc 01       		.byte	0x1
 2968 02dd 31       		.uleb128 0x31
 2969 02de 13       		.uleb128 0x13
 2970 02df 11       		.uleb128 0x11
 2971 02e0 01       		.uleb128 0x1
 2972 02e1 12       		.uleb128 0x12
 2973 02e2 06       		.uleb128 0x6
 2974 02e3 58       		.uleb128 0x58
 2975 02e4 0B       		.uleb128 0xb
 2976 02e5 59       		.uleb128 0x59
 2977 02e6 05       		.uleb128 0x5
 2978 02e7 57       		.uleb128 0x57
 2979 02e8 0B       		.uleb128 0xb
 2980 02e9 01       		.uleb128 0x1
 2981 02ea 13       		.uleb128 0x13
 2982 02eb 00       		.byte	0
 2983 02ec 00       		.byte	0
 2984 02ed 30       		.uleb128 0x30
 2985 02ee 1D       		.uleb128 0x1d
 2986 02ef 01       		.byte	0x1
 2987 02f0 31       		.uleb128 0x31
 2988 02f1 13       		.uleb128 0x13
 2989 02f2 52       		.uleb128 0x52
 2990 02f3 01       		.uleb128 0x1
 2991 02f4 B842     		.uleb128 0x2138
 2992 02f6 0B       		.uleb128 0xb
 2993 02f7 11       		.uleb128 0x11
 2994 02f8 01       		.uleb128 0x1
 2995 02f9 12       		.uleb128 0x12
 2996 02fa 06       		.uleb128 0x6
 2997 02fb 58       		.uleb128 0x58
 2998 02fc 0B       		.uleb128 0xb
 2999 02fd 59       		.uleb128 0x59
 3000 02fe 0B       		.uleb128 0xb
 3001 02ff 57       		.uleb128 0x57
 3002 0300 0B       		.uleb128 0xb
 3003 0301 01       		.uleb128 0x1
 3004 0302 13       		.uleb128 0x13
 3005 0303 00       		.byte	0
 3006 0304 00       		.byte	0
 3007 0305 31       		.uleb128 0x31
 3008 0306 48       		.uleb128 0x48
 3009 0307 01       		.byte	0x1
 3010 0308 7D       		.uleb128 0x7d
 3011 0309 01       		.uleb128 0x1
 3012 030a 01       		.uleb128 0x1
 3013 030b 13       		.uleb128 0x13
 3014 030c 00       		.byte	0
 3015 030d 00       		.byte	0
 3016 030e 32       		.uleb128 0x32
 3017 030f 2E       		.uleb128 0x2e
 3018 0310 01       		.byte	0x1
 3019 0311 3F       		.uleb128 0x3f
 3020 0312 19       		.uleb128 0x19
 3021 0313 03       		.uleb128 0x3
ARM GAS  C:\Users\DEVELO~1\AppData\Local\Temp\ccsRbMwv.s 			page 54


 3022 0314 0E       		.uleb128 0xe
 3023 0315 3A       		.uleb128 0x3a
 3024 0316 0B       		.uleb128 0xb
 3025 0317 3B       		.uleb128 0x3b
 3026 0318 0B       		.uleb128 0xb
 3027 0319 39       		.uleb128 0x39
 3028 031a 0B       		.uleb128 0xb
 3029 031b 27       		.uleb128 0x27
 3030 031c 19       		.uleb128 0x19
 3031 031d 11       		.uleb128 0x11
 3032 031e 01       		.uleb128 0x1
 3033 031f 12       		.uleb128 0x12
 3034 0320 06       		.uleb128 0x6
 3035 0321 40       		.uleb128 0x40
 3036 0322 18       		.uleb128 0x18
 3037 0323 7A       		.uleb128 0x7a
 3038 0324 19       		.uleb128 0x19
 3039 0325 01       		.uleb128 0x1
 3040 0326 13       		.uleb128 0x13
 3041 0327 00       		.byte	0
 3042 0328 00       		.byte	0
 3043 0329 33       		.uleb128 0x33
 3044 032a 05       		.uleb128 0x5
 3045 032b 00       		.byte	0
 3046 032c 03       		.uleb128 0x3
 3047 032d 08       		.uleb128 0x8
 3048 032e 3A       		.uleb128 0x3a
 3049 032f 0B       		.uleb128 0xb
 3050 0330 3B       		.uleb128 0x3b
 3051 0331 0B       		.uleb128 0xb
 3052 0332 39       		.uleb128 0x39
 3053 0333 0B       		.uleb128 0xb
 3054 0334 49       		.uleb128 0x49
 3055 0335 13       		.uleb128 0x13
 3056 0336 02       		.uleb128 0x2
 3057 0337 17       		.uleb128 0x17
 3058 0338 B742     		.uleb128 0x2137
 3059 033a 17       		.uleb128 0x17
 3060 033b 00       		.byte	0
 3061 033c 00       		.byte	0
 3062 033d 34       		.uleb128 0x34
 3063 033e 05       		.uleb128 0x5
 3064 033f 00       		.byte	0
 3065 0340 03       		.uleb128 0x3
 3066 0341 0E       		.uleb128 0xe
 3067 0342 3A       		.uleb128 0x3a
 3068 0343 0B       		.uleb128 0xb
 3069 0344 3B       		.uleb128 0x3b
 3070 0345 0B       		.uleb128 0xb
 3071 0346 39       		.uleb128 0x39
 3072 0347 0B       		.uleb128 0xb
 3073 0348 49       		.uleb128 0x49
 3074 0349 13       		.uleb128 0x13
 3075 034a 00       		.byte	0
 3076 034b 00       		.byte	0
 3077 034c 35       		.uleb128 0x35
 3078 034d 34       		.uleb128 0x34
ARM GAS  C:\Users\DEVELO~1\AppData\Local\Temp\ccsRbMwv.s 			page 55


 3079 034e 00       		.byte	0
 3080 034f 03       		.uleb128 0x3
 3081 0350 08       		.uleb128 0x8
 3082 0351 3A       		.uleb128 0x3a
 3083 0352 0B       		.uleb128 0xb
 3084 0353 3B       		.uleb128 0x3b
 3085 0354 0B       		.uleb128 0xb
 3086 0355 39       		.uleb128 0x39
 3087 0356 0B       		.uleb128 0xb
 3088 0357 49       		.uleb128 0x49
 3089 0358 13       		.uleb128 0x13
 3090 0359 00       		.byte	0
 3091 035a 00       		.byte	0
 3092 035b 36       		.uleb128 0x36
 3093 035c 2E       		.uleb128 0x2e
 3094 035d 01       		.byte	0x1
 3095 035e 03       		.uleb128 0x3
 3096 035f 0E       		.uleb128 0xe
 3097 0360 3A       		.uleb128 0x3a
 3098 0361 0B       		.uleb128 0xb
 3099 0362 3B       		.uleb128 0x3b
 3100 0363 05       		.uleb128 0x5
 3101 0364 39       		.uleb128 0x39
 3102 0365 0B       		.uleb128 0xb
 3103 0366 27       		.uleb128 0x27
 3104 0367 19       		.uleb128 0x19
 3105 0368 20       		.uleb128 0x20
 3106 0369 0B       		.uleb128 0xb
 3107 036a 01       		.uleb128 0x1
 3108 036b 13       		.uleb128 0x13
 3109 036c 00       		.byte	0
 3110 036d 00       		.byte	0
 3111 036e 37       		.uleb128 0x37
 3112 036f 2E       		.uleb128 0x2e
 3113 0370 01       		.byte	0x1
 3114 0371 03       		.uleb128 0x3
 3115 0372 0E       		.uleb128 0xe
 3116 0373 3A       		.uleb128 0x3a
 3117 0374 0B       		.uleb128 0xb
 3118 0375 3B       		.uleb128 0x3b
 3119 0376 05       		.uleb128 0x5
 3120 0377 39       		.uleb128 0x39
 3121 0378 0B       		.uleb128 0xb
 3122 0379 27       		.uleb128 0x27
 3123 037a 19       		.uleb128 0x19
 3124 037b 20       		.uleb128 0x20
 3125 037c 0B       		.uleb128 0xb
 3126 037d 00       		.byte	0
 3127 037e 00       		.byte	0
 3128 037f 38       		.uleb128 0x38
 3129 0380 05       		.uleb128 0x5
 3130 0381 00       		.byte	0
 3131 0382 03       		.uleb128 0x3
 3132 0383 0E       		.uleb128 0xe
 3133 0384 3A       		.uleb128 0x3a
 3134 0385 0B       		.uleb128 0xb
 3135 0386 3B       		.uleb128 0x3b
ARM GAS  C:\Users\DEVELO~1\AppData\Local\Temp\ccsRbMwv.s 			page 56


 3136 0387 05       		.uleb128 0x5
 3137 0388 39       		.uleb128 0x39
 3138 0389 0B       		.uleb128 0xb
 3139 038a 49       		.uleb128 0x49
 3140 038b 13       		.uleb128 0x13
 3141 038c 00       		.byte	0
 3142 038d 00       		.byte	0
 3143 038e 00       		.byte	0
 3144              		.section	.debug_loclists,"",%progbits
 3145 0000 1E030000 		.4byte	.Ldebug_loc3-.Ldebug_loc2
 3146              	.Ldebug_loc2:
 3147 0004 0500     		.2byte	0x5
 3148 0006 04       		.byte	0x4
 3149 0007 00       		.byte	0
 3150 0008 00000000 		.4byte	0
 3151              	.Ldebug_loc0:
 3152              	.LVUS37:
 3153 000c 00       		.uleb128 0
 3154 000d 00       		.uleb128 .LVU350
 3155 000e 00       		.uleb128 .LVU350
 3156 000f 00       		.uleb128 0
 3157              	.LLST37:
 3158 0010 06       		.byte	0x6
 3159 0011 00000000 		.4byte	.LVL51
 3160 0015 04       		.byte	0x4
 3161 0016 00       		.uleb128 .LVL51-.LVL51
 3162 0017 11       		.uleb128 .LVL52-1-.LVL51
 3163 0018 01       		.uleb128 0x1
 3164 0019 50       		.byte	0x50
 3165 001a 04       		.byte	0x4
 3166 001b 11       		.uleb128 .LVL52-1-.LVL51
 3167 001c 12       		.uleb128 .LFE352-.LVL51
 3168 001d 04       		.uleb128 0x4
 3169 001e A3       		.byte	0xa3
 3170 001f 01       		.uleb128 0x1
 3171 0020 50       		.byte	0x50
 3172 0021 9F       		.byte	0x9f
 3173 0022 00       		.byte	0
 3174              	.LVUS38:
 3175 0023 00       		.uleb128 0
 3176 0024 00       		.uleb128 .LVU350
 3177 0025 00       		.uleb128 .LVU350
 3178 0026 00       		.uleb128 0
 3179              	.LLST38:
 3180 0027 06       		.byte	0x6
 3181 0028 00000000 		.4byte	.LVL51
 3182 002c 04       		.byte	0x4
 3183 002d 00       		.uleb128 .LVL51-.LVL51
 3184 002e 11       		.uleb128 .LVL52-1-.LVL51
 3185 002f 01       		.uleb128 0x1
 3186 0030 51       		.byte	0x51
 3187 0031 04       		.byte	0x4
 3188 0032 11       		.uleb128 .LVL52-1-.LVL51
 3189 0033 12       		.uleb128 .LFE352-.LVL51
 3190 0034 04       		.uleb128 0x4
 3191 0035 A3       		.byte	0xa3
 3192 0036 01       		.uleb128 0x1
ARM GAS  C:\Users\DEVELO~1\AppData\Local\Temp\ccsRbMwv.s 			page 57


 3193 0037 51       		.byte	0x51
 3194 0038 9F       		.byte	0x9f
 3195 0039 00       		.byte	0
 3196              	.LVUS39:
 3197 003a 00       		.uleb128 0
 3198 003b 00       		.uleb128 .LVU350
 3199 003c 00       		.uleb128 .LVU350
 3200 003d 00       		.uleb128 0
 3201              	.LLST39:
 3202 003e 06       		.byte	0x6
 3203 003f 00000000 		.4byte	.LVL51
 3204 0043 04       		.byte	0x4
 3205 0044 00       		.uleb128 .LVL51-.LVL51
 3206 0045 11       		.uleb128 .LVL52-1-.LVL51
 3207 0046 01       		.uleb128 0x1
 3208 0047 52       		.byte	0x52
 3209 0048 04       		.byte	0x4
 3210 0049 11       		.uleb128 .LVL52-1-.LVL51
 3211 004a 12       		.uleb128 .LFE352-.LVL51
 3212 004b 04       		.uleb128 0x4
 3213 004c A3       		.byte	0xa3
 3214 004d 01       		.uleb128 0x1
 3215 004e 52       		.byte	0x52
 3216 004f 9F       		.byte	0x9f
 3217 0050 00       		.byte	0
 3218              	.LVUS34:
 3219 0051 00       		.uleb128 0
 3220 0052 00       		.uleb128 .LVU338
 3221 0053 00       		.uleb128 .LVU338
 3222 0054 00       		.uleb128 0
 3223              	.LLST34:
 3224 0055 06       		.byte	0x6
 3225 0056 00000000 		.4byte	.LVL49
 3226 005a 04       		.byte	0x4
 3227 005b 00       		.uleb128 .LVL49-.LVL49
 3228 005c 11       		.uleb128 .LVL50-1-.LVL49
 3229 005d 01       		.uleb128 0x1
 3230 005e 50       		.byte	0x50
 3231 005f 04       		.byte	0x4
 3232 0060 11       		.uleb128 .LVL50-1-.LVL49
 3233 0061 12       		.uleb128 .LFE351-.LVL49
 3234 0062 04       		.uleb128 0x4
 3235 0063 A3       		.byte	0xa3
 3236 0064 01       		.uleb128 0x1
 3237 0065 50       		.byte	0x50
 3238 0066 9F       		.byte	0x9f
 3239 0067 00       		.byte	0
 3240              	.LVUS35:
 3241 0068 00       		.uleb128 0
 3242 0069 00       		.uleb128 .LVU338
 3243 006a 00       		.uleb128 .LVU338
 3244 006b 00       		.uleb128 0
 3245              	.LLST35:
 3246 006c 06       		.byte	0x6
 3247 006d 00000000 		.4byte	.LVL49
 3248 0071 04       		.byte	0x4
 3249 0072 00       		.uleb128 .LVL49-.LVL49
ARM GAS  C:\Users\DEVELO~1\AppData\Local\Temp\ccsRbMwv.s 			page 58


 3250 0073 11       		.uleb128 .LVL50-1-.LVL49
 3251 0074 01       		.uleb128 0x1
 3252 0075 51       		.byte	0x51
 3253 0076 04       		.byte	0x4
 3254 0077 11       		.uleb128 .LVL50-1-.LVL49
 3255 0078 12       		.uleb128 .LFE351-.LVL49
 3256 0079 04       		.uleb128 0x4
 3257 007a A3       		.byte	0xa3
 3258 007b 01       		.uleb128 0x1
 3259 007c 51       		.byte	0x51
 3260 007d 9F       		.byte	0x9f
 3261 007e 00       		.byte	0
 3262              	.LVUS36:
 3263 007f 00       		.uleb128 0
 3264 0080 00       		.uleb128 .LVU338
 3265 0081 00       		.uleb128 .LVU338
 3266 0082 00       		.uleb128 0
 3267              	.LLST36:
 3268 0083 06       		.byte	0x6
 3269 0084 00000000 		.4byte	.LVL49
 3270 0088 04       		.byte	0x4
 3271 0089 00       		.uleb128 .LVL49-.LVL49
 3272 008a 11       		.uleb128 .LVL50-1-.LVL49
 3273 008b 01       		.uleb128 0x1
 3274 008c 52       		.byte	0x52
 3275 008d 04       		.byte	0x4
 3276 008e 11       		.uleb128 .LVL50-1-.LVL49
 3277 008f 12       		.uleb128 .LFE351-.LVL49
 3278 0090 04       		.uleb128 0x4
 3279 0091 A3       		.byte	0xa3
 3280 0092 01       		.uleb128 0x1
 3281 0093 52       		.byte	0x52
 3282 0094 9F       		.byte	0x9f
 3283 0095 00       		.byte	0
 3284              	.LVUS30:
 3285 0096 00       		.uleb128 0
 3286 0097 00       		.uleb128 .LVU295
 3287 0098 00       		.uleb128 .LVU295
 3288 0099 00       		.uleb128 .LVU296
 3289 009a 00       		.uleb128 .LVU296
 3290 009b 00       		.uleb128 .LVU303
 3291 009c 00       		.uleb128 .LVU303
 3292 009d 00       		.uleb128 .LVU323
 3293 009e 00       		.uleb128 .LVU323
 3294 009f 00       		.uleb128 0
 3295              	.LLST30:
 3296 00a0 06       		.byte	0x6
 3297 00a1 00000000 		.4byte	.LVL39
 3298 00a5 04       		.byte	0x4
 3299 00a6 00       		.uleb128 .LVL39-.LVL39
 3300 00a7 2E       		.uleb128 .LVL42-.LVL39
 3301 00a8 01       		.uleb128 0x1
 3302 00a9 50       		.byte	0x50
 3303 00aa 04       		.byte	0x4
 3304 00ab 2E       		.uleb128 .LVL42-.LVL39
 3305 00ac 31       		.uleb128 .LVL43-1-.LVL39
 3306 00ad 03       		.uleb128 0x3
ARM GAS  C:\Users\DEVELO~1\AppData\Local\Temp\ccsRbMwv.s 			page 59


 3307 00ae 70       		.byte	0x70
 3308 00af 50       		.sleb128 -48
 3309 00b0 9F       		.byte	0x9f
 3310 00b1 04       		.byte	0x4
 3311 00b2 31       		.uleb128 .LVL43-1-.LVL39
 3312 00b3 3A       		.uleb128 .LVL45-.LVL39
 3313 00b4 04       		.uleb128 0x4
 3314 00b5 A3       		.byte	0xa3
 3315 00b6 01       		.uleb128 0x1
 3316 00b7 50       		.byte	0x50
 3317 00b8 9F       		.byte	0x9f
 3318 00b9 04       		.byte	0x4
 3319 00ba 3A       		.uleb128 .LVL45-.LVL39
 3320 00bb 72       		.uleb128 .LVL47-.LVL39
 3321 00bc 01       		.uleb128 0x1
 3322 00bd 50       		.byte	0x50
 3323 00be 04       		.byte	0x4
 3324 00bf 72       		.uleb128 .LVL47-.LVL39
 3325 00c0 7C       		.uleb128 .LFE350-.LVL39
 3326 00c1 04       		.uleb128 0x4
 3327 00c2 A3       		.byte	0xa3
 3328 00c3 01       		.uleb128 0x1
 3329 00c4 50       		.byte	0x50
 3330 00c5 9F       		.byte	0x9f
 3331 00c6 00       		.byte	0
 3332              	.LVUS31:
 3333 00c7 00       		.uleb128 0
 3334 00c8 00       		.uleb128 .LVU281
 3335 00c9 00       		.uleb128 .LVU281
 3336 00ca 00       		.uleb128 .LVU320
 3337 00cb 00       		.uleb128 .LVU320
 3338 00cc 00       		.uleb128 .LVU326
 3339 00cd 00       		.uleb128 .LVU326
 3340 00ce 00       		.uleb128 0
 3341              	.LLST31:
 3342 00cf 06       		.byte	0x6
 3343 00d0 00000000 		.4byte	.LVL39
 3344 00d4 04       		.byte	0x4
 3345 00d5 00       		.uleb128 .LVL39-.LVL39
 3346 00d6 0E       		.uleb128 .LVL41-.LVL39
 3347 00d7 01       		.uleb128 0x1
 3348 00d8 51       		.byte	0x51
 3349 00d9 04       		.byte	0x4
 3350 00da 0E       		.uleb128 .LVL41-.LVL39
 3351 00db 6A       		.uleb128 .LVL46-.LVL39
 3352 00dc 01       		.uleb128 0x1
 3353 00dd 54       		.byte	0x54
 3354 00de 04       		.byte	0x4
 3355 00df 6A       		.uleb128 .LVL46-.LVL39
 3356 00e0 7B       		.uleb128 .LVL48-1-.LVL39
 3357 00e1 01       		.uleb128 0x1
 3358 00e2 51       		.byte	0x51
 3359 00e3 04       		.byte	0x4
 3360 00e4 7B       		.uleb128 .LVL48-1-.LVL39
 3361 00e5 7C       		.uleb128 .LFE350-.LVL39
 3362 00e6 04       		.uleb128 0x4
 3363 00e7 A3       		.byte	0xa3
ARM GAS  C:\Users\DEVELO~1\AppData\Local\Temp\ccsRbMwv.s 			page 60


 3364 00e8 01       		.uleb128 0x1
 3365 00e9 51       		.byte	0x51
 3366 00ea 9F       		.byte	0x9f
 3367 00eb 00       		.byte	0
 3368              	.LVUS32:
 3369 00ec 00       		.uleb128 .LVU274
 3370 00ed 03       		.uleb128 .LVU277
 3371              	.LLST32:
 3372 00ee 08       		.byte	0x8
 3373 00ef 0A000000 		.4byte	.LVL40
 3374 00f3 00       		.uleb128 .LVL40-.LVL40
 3375 00f4 03       		.uleb128 0x3
 3376 00f5 71       		.byte	0x71
 3377 00f6 18       		.sleb128 24
 3378 00f7 9F       		.byte	0x9f
 3379 00f8 00       		.byte	0
 3380              	.LVUS33:
 3381 00f9 01       		.uleb128 .LVU297
 3382 00fa 00       		.uleb128 .LVU301
 3383              	.LLST33:
 3384 00fb 08       		.byte	0x8
 3385 00fc 32000000 		.4byte	.LVL43
 3386 0100 06       		.uleb128 .LVL44-.LVL43
 3387 0101 03       		.uleb128 0x3
 3388 0102 74       		.byte	0x74
 3389 0103 18       		.sleb128 24
 3390 0104 9F       		.byte	0x9f
 3391 0105 00       		.byte	0
 3392              	.LVUS7:
 3393 0106 00       		.uleb128 0
 3394 0107 00       		.uleb128 .LVU115
 3395 0108 00       		.uleb128 .LVU115
 3396 0109 00       		.uleb128 .LVU138
 3397 010a 00       		.uleb128 .LVU138
 3398 010b 00       		.uleb128 .LVU141
 3399 010c 00       		.uleb128 .LVU141
 3400 010d 00       		.uleb128 .LVU239
 3401 010e 00       		.uleb128 .LVU239
 3402 010f 00       		.uleb128 .LVU244
 3403 0110 00       		.uleb128 .LVU244
 3404 0111 00       		.uleb128 0
 3405              	.LLST7:
 3406 0112 06       		.byte	0x6
 3407 0113 00000000 		.4byte	.LVL11
 3408 0117 04       		.byte	0x4
 3409 0118 00       		.uleb128 .LVL11-.LVL11
 3410 0119 4C       		.uleb128 .LVL19-.LVL11
 3411 011a 01       		.uleb128 0x1
 3412 011b 50       		.byte	0x50
 3413 011c 04       		.byte	0x4
 3414 011d 4C       		.uleb128 .LVL19-.LVL11
 3415 011e 64       		.uleb128 .LVL22-.LVL11
 3416 011f 01       		.uleb128 0x1
 3417 0120 56       		.byte	0x56
 3418 0121 04       		.byte	0x4
 3419 0122 64       		.uleb128 .LVL22-.LVL11
 3420 0123 72       		.uleb128 .LVL23-.LVL11
ARM GAS  C:\Users\DEVELO~1\AppData\Local\Temp\ccsRbMwv.s 			page 61


 3421 0124 01       		.uleb128 0x1
 3422 0125 50       		.byte	0x50
 3423 0126 04       		.byte	0x4
 3424 0127 72       		.uleb128 .LVL23-.LVL11
 3425 0128 EA01     		.uleb128 .LVL35-.LVL11
 3426 012a 01       		.uleb128 0x1
 3427 012b 56       		.byte	0x56
 3428 012c 04       		.byte	0x4
 3429 012d EA01     		.uleb128 .LVL35-.LVL11
 3430 012f EE01     		.uleb128 .LVL36-.LVL11
 3431 0131 01       		.uleb128 0x1
 3432 0132 50       		.byte	0x50
 3433 0133 04       		.byte	0x4
 3434 0134 EE01     		.uleb128 .LVL36-.LVL11
 3435 0136 FE01     		.uleb128 .LFE349-.LVL11
 3436 0138 01       		.uleb128 0x1
 3437 0139 56       		.byte	0x56
 3438 013a 00       		.byte	0
 3439              	.LVUS8:
 3440 013b 00       		.uleb128 0
 3441 013c 00       		.uleb128 .LVU84
 3442 013d 00       		.uleb128 .LVU84
 3443 013e 00       		.uleb128 0
 3444              	.LLST8:
 3445 013f 06       		.byte	0x6
 3446 0140 00000000 		.4byte	.LVL11
 3447 0144 04       		.byte	0x4
 3448 0145 00       		.uleb128 .LVL11-.LVL11
 3449 0146 18       		.uleb128 .LVL13-.LVL11
 3450 0147 01       		.uleb128 0x1
 3451 0148 51       		.byte	0x51
 3452 0149 04       		.byte	0x4
 3453 014a 18       		.uleb128 .LVL13-.LVL11
 3454 014b FE01     		.uleb128 .LFE349-.LVL11
 3455 014d 01       		.uleb128 0x1
 3456 014e 57       		.byte	0x57
 3457 014f 00       		.byte	0
 3458              	.LVUS9:
 3459 0150 00       		.uleb128 0
 3460 0151 00       		.uleb128 .LVU86
 3461 0152 00       		.uleb128 .LVU86
 3462 0153 00       		.uleb128 0
 3463              	.LLST9:
 3464 0154 06       		.byte	0x6
 3465 0155 00000000 		.4byte	.LVL11
 3466 0159 04       		.byte	0x4
 3467 015a 00       		.uleb128 .LVL11-.LVL11
 3468 015b 22       		.uleb128 .LVL14-.LVL11
 3469 015c 01       		.uleb128 0x1
 3470 015d 52       		.byte	0x52
 3471 015e 04       		.byte	0x4
 3472 015f 22       		.uleb128 .LVL14-.LVL11
 3473 0160 FE01     		.uleb128 .LFE349-.LVL11
 3474 0162 01       		.uleb128 0x1
 3475 0163 55       		.byte	0x55
 3476 0164 00       		.byte	0
 3477              	.LVUS10:
ARM GAS  C:\Users\DEVELO~1\AppData\Local\Temp\ccsRbMwv.s 			page 62


 3478 0165 00       		.uleb128 .LVU96
 3479 0166 00       		.uleb128 .LVU138
 3480 0167 03       		.uleb128 .LVU206
 3481 0168 00       		.uleb128 0
 3482              	.LLST10:
 3483 0169 06       		.byte	0x6
 3484 016a 3E000000 		.4byte	.LVL17
 3485 016e 04       		.byte	0x4
 3486 016f 00       		.uleb128 .LVL17-.LVL17
 3487 0170 26       		.uleb128 .LVL22-.LVL17
 3488 0171 01       		.uleb128 0x1
 3489 0172 54       		.byte	0x54
 3490 0173 04       		.byte	0x4
 3491 0174 7C       		.uleb128 .LVL30-.LVL17
 3492 0175 C001     		.uleb128 .LFE349-.LVL17
 3493 0177 01       		.uleb128 0x1
 3494 0178 54       		.byte	0x54
 3495 0179 00       		.byte	0
 3496              	.LVUS29:
 3497 017a 00       		.uleb128 .LVU218
 3498 017b 00       		.uleb128 .LVU238
 3499 017c 00       		.uleb128 .LVU238
 3500 017d 00       		.uleb128 .LVU239
 3501              	.LLST29:
 3502 017e 06       		.byte	0x6
 3503 017f D4000000 		.4byte	.LVL31
 3504 0183 04       		.byte	0x4
 3505 0184 00       		.uleb128 .LVL31-.LVL31
 3506 0185 12       		.uleb128 .LVL34-.LVL31
 3507 0186 01       		.uleb128 0x1
 3508 0187 50       		.byte	0x50
 3509 0188 04       		.byte	0x4
 3510 0189 12       		.uleb128 .LVL34-.LVL31
 3511 018a 16       		.uleb128 .LVL35-.LVL31
 3512 018b 0E       		.uleb128 0xe
 3513 018c 76       		.byte	0x76
 3514 018d 00       		.sleb128 0
 3515 018e 06       		.byte	0x6
 3516 018f 31       		.byte	0x31
 3517 0190 1C       		.byte	0x1c
 3518 0191 78       		.byte	0x78
 3519 0192 00       		.sleb128 0
 3520 0193 1A       		.byte	0x1a
 3521 0194 33       		.byte	0x33
 3522 0195 24       		.byte	0x24
 3523 0196 72       		.byte	0x72
 3524 0197 00       		.sleb128 0
 3525 0198 22       		.byte	0x22
 3526 0199 9F       		.byte	0x9f
 3527 019a 00       		.byte	0
 3528              	.LVUS12:
 3529 019b 07       		.uleb128 .LVU68
 3530 019c 00       		.uleb128 .LVU74
 3531              	.LLST12:
 3532 019d 08       		.byte	0x8
 3533 019e 00000000 		.4byte	.LVL11
 3534 01a2 10       		.uleb128 .LVL12-.LVL11
ARM GAS  C:\Users\DEVELO~1\AppData\Local\Temp\ccsRbMwv.s 			page 63


 3535 01a3 03       		.uleb128 0x3
 3536 01a4 08       		.byte	0x8
 3537 01a5 30       		.byte	0x30
 3538 01a6 9F       		.byte	0x9f
 3539 01a7 00       		.byte	0
 3540              	.LVUS13:
 3541 01a8 05       		.uleb128 .LVU79
 3542 01a9 00       		.uleb128 .LVU96
 3543 01aa 00       		.uleb128 .LVU138
 3544 01ab 00       		.uleb128 .LVU141
 3545              	.LLST13:
 3546 01ac 06       		.byte	0x6
 3547 01ad 10000000 		.4byte	.LVL12
 3548 01b1 04       		.byte	0x4
 3549 01b2 00       		.uleb128 .LVL12-.LVL12
 3550 01b3 2E       		.uleb128 .LVL17-.LVL12
 3551 01b4 01       		.uleb128 0x1
 3552 01b5 50       		.byte	0x50
 3553 01b6 04       		.byte	0x4
 3554 01b7 54       		.uleb128 .LVL22-.LVL12
 3555 01b8 62       		.uleb128 .LVL23-.LVL12
 3556 01b9 01       		.uleb128 0x1
 3557 01ba 50       		.byte	0x50
 3558 01bb 00       		.byte	0
 3559              	.LVUS14:
 3560 01bc 04       		.uleb128 .LVU78
 3561 01bd 00       		.uleb128 .LVU86
 3562 01be 00       		.uleb128 .LVU86
 3563 01bf 00       		.uleb128 .LVU96
 3564 01c0 00       		.uleb128 .LVU138
 3565 01c1 00       		.uleb128 .LVU141
 3566              	.LLST14:
 3567 01c2 06       		.byte	0x6
 3568 01c3 10000000 		.4byte	.LVL12
 3569 01c7 04       		.byte	0x4
 3570 01c8 00       		.uleb128 .LVL12-.LVL12
 3571 01c9 12       		.uleb128 .LVL14-.LVL12
 3572 01ca 01       		.uleb128 0x1
 3573 01cb 52       		.byte	0x52
 3574 01cc 04       		.byte	0x4
 3575 01cd 12       		.uleb128 .LVL14-.LVL12
 3576 01ce 2E       		.uleb128 .LVL17-.LVL12
 3577 01cf 01       		.uleb128 0x1
 3578 01d0 55       		.byte	0x55
 3579 01d1 04       		.byte	0x4
 3580 01d2 54       		.uleb128 .LVL22-.LVL12
 3581 01d3 62       		.uleb128 .LVL23-.LVL12
 3582 01d4 01       		.uleb128 0x1
 3583 01d5 55       		.byte	0x55
 3584 01d6 00       		.byte	0
 3585              	.LVUS15:
 3586 01d7 04       		.uleb128 .LVU78
 3587 01d8 00       		.uleb128 .LVU84
 3588 01d9 00       		.uleb128 .LVU84
 3589 01da 00       		.uleb128 .LVU96
 3590 01db 00       		.uleb128 .LVU138
 3591 01dc 00       		.uleb128 .LVU141
ARM GAS  C:\Users\DEVELO~1\AppData\Local\Temp\ccsRbMwv.s 			page 64


 3592              	.LLST15:
 3593 01dd 06       		.byte	0x6
 3594 01de 10000000 		.4byte	.LVL12
 3595 01e2 04       		.byte	0x4
 3596 01e3 00       		.uleb128 .LVL12-.LVL12
 3597 01e4 08       		.uleb128 .LVL13-.LVL12
 3598 01e5 01       		.uleb128 0x1
 3599 01e6 51       		.byte	0x51
 3600 01e7 04       		.byte	0x4
 3601 01e8 08       		.uleb128 .LVL13-.LVL12
 3602 01e9 2E       		.uleb128 .LVL17-.LVL12
 3603 01ea 01       		.uleb128 0x1
 3604 01eb 57       		.byte	0x57
 3605 01ec 04       		.byte	0x4
 3606 01ed 54       		.uleb128 .LVL22-.LVL12
 3607 01ee 62       		.uleb128 .LVL23-.LVL12
 3608 01ef 01       		.uleb128 0x1
 3609 01f0 57       		.byte	0x57
 3610 01f1 00       		.byte	0
 3611              	.LVUS16:
 3612 01f2 00       		.uleb128 .LVU86
 3613 01f3 00       		.uleb128 .LVU96
 3614 01f4 00       		.uleb128 .LVU138
 3615 01f5 00       		.uleb128 .LVU141
 3616              	.LLST16:
 3617 01f6 06       		.byte	0x6
 3618 01f7 22000000 		.4byte	.LVL14
 3619 01fb 04       		.byte	0x4
 3620 01fc 00       		.uleb128 .LVL14-.LVL14
 3621 01fd 1C       		.uleb128 .LVL17-.LVL14
 3622 01fe 01       		.uleb128 0x1
 3623 01ff 52       		.byte	0x52
 3624 0200 04       		.byte	0x4
 3625 0201 42       		.uleb128 .LVL22-.LVL14
 3626 0202 50       		.uleb128 .LVL23-.LVL14
 3627 0203 01       		.uleb128 0x1
 3628 0204 52       		.byte	0x52
 3629 0205 00       		.byte	0
 3630              	.LVUS17:
 3631 0206 00       		.uleb128 .LVU88
 3632 0207 00       		.uleb128 .LVU96
 3633 0208 00       		.uleb128 .LVU138
 3634 0209 00       		.uleb128 .LVU141
 3635              	.LLST17:
 3636 020a 06       		.byte	0x6
 3637 020b 26000000 		.4byte	.LVL15
 3638 020f 04       		.byte	0x4
 3639 0210 00       		.uleb128 .LVL15-.LVL15
 3640 0211 18       		.uleb128 .LVL17-.LVL15
 3641 0212 01       		.uleb128 0x1
 3642 0213 54       		.byte	0x54
 3643 0214 04       		.byte	0x4
 3644 0215 3E       		.uleb128 .LVL22-.LVL15
 3645 0216 4C       		.uleb128 .LVL23-.LVL15
 3646 0217 01       		.uleb128 0x1
 3647 0218 54       		.byte	0x54
 3648 0219 00       		.byte	0
ARM GAS  C:\Users\DEVELO~1\AppData\Local\Temp\ccsRbMwv.s 			page 65


 3649              	.LVUS18:
 3650 021a 06       		.uleb128 .LVU102
 3651 021b 00       		.uleb128 .LVU106
 3652              	.LLST18:
 3653 021c 08       		.byte	0x8
 3654 021d 3E000000 		.4byte	.LVL17
 3655 0221 02       		.uleb128 .LVL18-.LVL17
 3656 0222 03       		.uleb128 0x3
 3657 0223 74       		.byte	0x74
 3658 0224 18       		.sleb128 24
 3659 0225 9F       		.byte	0x9f
 3660 0226 00       		.byte	0
 3661              	.LVUS21:
 3662 0227 0C       		.uleb128 .LVU133
 3663 0228 00       		.uleb128 .LVU135
 3664 0229 0C       		.uleb128 .LVU233
 3665 022a 00       		.uleb128 .LVU235
 3666 022b 0B       		.uleb128 .LVU256
 3667 022c 00       		.uleb128 .LVU258
 3668              	.LLST21:
 3669 022d 06       		.byte	0x6
 3670 022e 58000000 		.4byte	.LVL20
 3671 0232 04       		.byte	0x4
 3672 0233 00       		.uleb128 .LVL20-.LVL20
 3673 0234 06       		.uleb128 .LVL21-.LVL20
 3674 0235 02       		.uleb128 0x2
 3675 0236 30       		.byte	0x30
 3676 0237 9F       		.byte	0x9f
 3677 0238 04       		.byte	0x4
 3678 0239 8601     		.uleb128 .LVL32-.LVL20
 3679 023b 8C01     		.uleb128 .LVL33-.LVL20
 3680 023d 02       		.uleb128 0x2
 3681 023e 30       		.byte	0x30
 3682 023f 9F       		.byte	0x9f
 3683 0240 04       		.byte	0x4
 3684 0241 9A01     		.uleb128 .LVL37-.LVL20
 3685 0243 A001     		.uleb128 .LVL38-.LVL20
 3686 0245 02       		.uleb128 0x2
 3687 0246 30       		.byte	0x30
 3688 0247 9F       		.byte	0x9f
 3689 0248 00       		.byte	0
 3690              	.LVUS22:
 3691 0249 00       		.uleb128 .LVU141
 3692 024a 03       		.uleb128 .LVU158
 3693 024b 00       		.uleb128 .LVU177
 3694 024c 03       		.uleb128 .LVU206
 3695              	.LLST22:
 3696 024d 06       		.byte	0x6
 3697 024e 72000000 		.4byte	.LVL23
 3698 0252 04       		.byte	0x4
 3699 0253 00       		.uleb128 .LVL23-.LVL23
 3700 0254 18       		.uleb128 .LVL26-.LVL23
 3701 0255 01       		.uleb128 0x1
 3702 0256 54       		.byte	0x54
 3703 0257 04       		.byte	0x4
 3704 0258 20       		.uleb128 .LVL28-.LVL23
 3705 0259 48       		.uleb128 .LVL30-.LVL23
ARM GAS  C:\Users\DEVELO~1\AppData\Local\Temp\ccsRbMwv.s 			page 66


 3706 025a 01       		.uleb128 0x1
 3707 025b 54       		.byte	0x54
 3708 025c 00       		.byte	0
 3709              	.LVUS24:
 3710 025d 00       		.uleb128 .LVU141
 3711 025e 00       		.uleb128 .LVU142
 3712 025f 0B       		.uleb128 .LVU174
 3713 0260 00       		.uleb128 .LVU239
 3714              	.LLST24:
 3715 0261 06       		.byte	0x6
 3716 0262 72000000 		.4byte	.LVL23
 3717 0266 04       		.byte	0x4
 3718 0267 00       		.uleb128 .LVL23-.LVL23
 3719 0268 04       		.uleb128 .LVL24-.LVL23
 3720 0269 02       		.uleb128 0x2
 3721 026a 30       		.byte	0x30
 3722 026b 9F       		.byte	0x9f
 3723 026c 04       		.byte	0x4
 3724 026d 1E       		.uleb128 .LVL27-.LVL23
 3725 026e 78       		.uleb128 .LVL35-.LVL23
 3726 026f 02       		.uleb128 0x2
 3727 0270 30       		.byte	0x30
 3728 0271 9F       		.byte	0x9f
 3729 0272 00       		.byte	0
 3730              	.LVUS25:
 3731 0273 05       		.uleb128 .LVU153
 3732 0274 00       		.uleb128 .LVU155
 3733              	.LLST25:
 3734 0275 08       		.byte	0x8
 3735 0276 84000000 		.4byte	.LVL25
 3736 027a 06       		.uleb128 .LVL26-.LVL25
 3737 027b 03       		.uleb128 0x3
 3738 027c 08       		.byte	0x8
 3739 027d 30       		.byte	0x30
 3740 027e 9F       		.byte	0x9f
 3741 027f 00       		.byte	0
 3742              	.LVUS27:
 3743 0280 01       		.uleb128 .LVU193
 3744 0281 04       		.uleb128 .LVU196
 3745              	.LLST27:
 3746 0282 08       		.byte	0x8
 3747 0283 A8000000 		.4byte	.LVL29
 3748 0287 00       		.uleb128 .LVL29-.LVL29
 3749 0288 03       		.uleb128 0x3
 3750 0289 74       		.byte	0x74
 3751 028a 18       		.sleb128 24
 3752 028b 9F       		.byte	0x9f
 3753 028c 00       		.byte	0
 3754              	.LVUS0:
 3755 028d 00       		.uleb128 0
 3756 028e 00       		.uleb128 .LVU8
 3757 028f 00       		.uleb128 .LVU8
 3758 0290 00       		.uleb128 0
 3759              	.LLST0:
 3760 0291 06       		.byte	0x6
 3761 0292 00000000 		.4byte	.LVL0
 3762 0296 04       		.byte	0x4
ARM GAS  C:\Users\DEVELO~1\AppData\Local\Temp\ccsRbMwv.s 			page 67


 3763 0297 00       		.uleb128 .LVL0-.LVL0
 3764 0298 0C       		.uleb128 .LVL1-.LVL0
 3765 0299 01       		.uleb128 0x1
 3766 029a 50       		.byte	0x50
 3767 029b 04       		.byte	0x4
 3768 029c 0C       		.uleb128 .LVL1-.LVL0
 3769 029d 7E       		.uleb128 .LFE348-.LVL0
 3770 029e 01       		.uleb128 0x1
 3771 029f 56       		.byte	0x56
 3772 02a0 00       		.byte	0
 3773              	.LVUS1:
 3774 02a1 00       		.uleb128 0
 3775 02a2 00       		.uleb128 .LVU9
 3776 02a3 00       		.uleb128 .LVU9
 3777 02a4 00       		.uleb128 .LVU19
 3778 02a5 00       		.uleb128 .LVU19
 3779 02a6 00       		.uleb128 .LVU39
 3780 02a7 00       		.uleb128 .LVU39
 3781 02a8 00       		.uleb128 0
 3782              	.LLST1:
 3783 02a9 06       		.byte	0x6
 3784 02aa 00000000 		.4byte	.LVL0
 3785 02ae 04       		.byte	0x4
 3786 02af 00       		.uleb128 .LVL0-.LVL0
 3787 02b0 0E       		.uleb128 .LVL2-.LVL0
 3788 02b1 01       		.uleb128 0x1
 3789 02b2 51       		.byte	0x51
 3790 02b3 04       		.byte	0x4
 3791 02b4 0E       		.uleb128 .LVL2-.LVL0
 3792 02b5 34       		.uleb128 .LVL5-.LVL0
 3793 02b6 01       		.uleb128 0x1
 3794 02b7 59       		.byte	0x59
 3795 02b8 04       		.byte	0x4
 3796 02b9 34       		.uleb128 .LVL5-.LVL0
 3797 02ba 58       		.uleb128 .LVL7-.LVL0
 3798 02bb 02       		.uleb128 0x2
 3799 02bc 76       		.byte	0x76
 3800 02bd 00       		.sleb128 0
 3801 02be 04       		.byte	0x4
 3802 02bf 58       		.uleb128 .LVL7-.LVL0
 3803 02c0 7E       		.uleb128 .LFE348-.LVL0
 3804 02c1 04       		.uleb128 0x4
 3805 02c2 A3       		.byte	0xa3
 3806 02c3 01       		.uleb128 0x1
 3807 02c4 51       		.byte	0x51
 3808 02c5 9F       		.byte	0x9f
 3809 02c6 00       		.byte	0
 3810              	.LVUS2:
 3811 02c7 00       		.uleb128 0
 3812 02c8 00       		.uleb128 .LVU11
 3813 02c9 00       		.uleb128 .LVU11
 3814 02ca 00       		.uleb128 .LVU39
 3815              	.LLST2:
 3816 02cb 06       		.byte	0x6
 3817 02cc 00000000 		.4byte	.LVL0
 3818 02d0 04       		.byte	0x4
 3819 02d1 00       		.uleb128 .LVL0-.LVL0
ARM GAS  C:\Users\DEVELO~1\AppData\Local\Temp\ccsRbMwv.s 			page 68


 3820 02d2 19       		.uleb128 .LVL3-1-.LVL0
 3821 02d3 01       		.uleb128 0x1
 3822 02d4 52       		.byte	0x52
 3823 02d5 04       		.byte	0x4
 3824 02d6 19       		.uleb128 .LVL3-1-.LVL0
 3825 02d7 58       		.uleb128 .LVL7-.LVL0
 3826 02d8 01       		.uleb128 0x1
 3827 02d9 55       		.byte	0x55
 3828 02da 00       		.byte	0
 3829              	.LVUS3:
 3830 02db 00       		.uleb128 0
 3831 02dc 00       		.uleb128 .LVU11
 3832 02dd 00       		.uleb128 .LVU11
 3833 02de 00       		.uleb128 .LVU45
 3834 02df 00       		.uleb128 .LVU45
 3835 02e0 01       		.uleb128 .LVU57
 3836              	.LLST3:
 3837 02e1 06       		.byte	0x6
 3838 02e2 00000000 		.4byte	.LVL0
 3839 02e6 04       		.byte	0x4
 3840 02e7 00       		.uleb128 .LVL0-.LVL0
 3841 02e8 19       		.uleb128 .LVL3-1-.LVL0
 3842 02e9 01       		.uleb128 0x1
 3843 02ea 53       		.byte	0x53
 3844 02eb 04       		.byte	0x4
 3845 02ec 19       		.uleb128 .LVL3-1-.LVL0
 3846 02ed 66       		.uleb128 .LVL9-.LVL0
 3847 02ee 01       		.uleb128 0x1
 3848 02ef 57       		.byte	0x57
 3849 02f0 04       		.byte	0x4
 3850 02f1 66       		.uleb128 .LVL9-.LVL0
 3851 02f2 78       		.uleb128 .LVL10-.LVL0
 3852 02f3 03       		.uleb128 0x3
 3853 02f4 77       		.byte	0x77
 3854 02f5 01       		.sleb128 1
 3855 02f6 9F       		.byte	0x9f
 3856 02f7 00       		.byte	0
 3857              	.LVUS4:
 3858 02f8 00       		.uleb128 0
 3859 02f9 00       		.uleb128 .LVU39
 3860 02fa 00       		.uleb128 .LVU39
 3861 02fb 00       		.uleb128 0
 3862              	.LLST4:
 3863 02fc 06       		.byte	0x6
 3864 02fd 00000000 		.4byte	.LVL0
 3865 0301 04       		.byte	0x4
 3866 0302 00       		.uleb128 .LVL0-.LVL0
 3867 0303 58       		.uleb128 .LVL7-.LVL0
 3868 0304 02       		.uleb128 0x2
 3869 0305 91       		.byte	0x91
 3870 0306 04       		.sleb128 4
 3871 0307 04       		.byte	0x4
 3872 0308 58       		.uleb128 .LVL7-.LVL0
 3873 0309 7E       		.uleb128 .LFE348-.LVL0
 3874 030a 01       		.uleb128 0x1
 3875 030b 54       		.byte	0x54
 3876 030c 00       		.byte	0
ARM GAS  C:\Users\DEVELO~1\AppData\Local\Temp\ccsRbMwv.s 			page 69


 3877              	.LVUS6:
 3878 030d 03       		.uleb128 .LVU42
 3879 030e 00       		.uleb128 .LVU56
 3880 030f 00       		.uleb128 .LVU56
 3881 0310 00       		.uleb128 0
 3882              	.LLST6:
 3883 0311 06       		.byte	0x6
 3884 0312 58000000 		.4byte	.LVL7
 3885 0316 04       		.byte	0x4
 3886 0317 00       		.uleb128 .LVL7-.LVL7
 3887 0318 20       		.uleb128 .LVL10-.LVL7
 3888 0319 01       		.uleb128 0x1
 3889 031a 54       		.byte	0x54
 3890 031b 04       		.byte	0x4
 3891 031c 20       		.uleb128 .LVL10-.LVL7
 3892 031d 26       		.uleb128 .LFE348-.LVL7
 3893 031e 02       		.uleb128 0x2
 3894 031f 76       		.byte	0x76
 3895 0320 1C       		.sleb128 28
 3896 0321 00       		.byte	0
 3897              	.Ldebug_loc3:
 3898              		.section	.debug_aranges,"",%progbits
 3899 0000 3C000000 		.4byte	0x3c
 3900 0004 0200     		.2byte	0x2
 3901 0006 00000000 		.4byte	.Ldebug_info0
 3902 000a 04       		.byte	0x4
 3903 000b 00       		.byte	0
 3904 000c 0000     		.2byte	0
 3905 000e 0000     		.2byte	0
 3906 0010 00000000 		.4byte	.LFB348
 3907 0014 7E000000 		.4byte	.LFE348-.LFB348
 3908 0018 00000000 		.4byte	.LFB349
 3909 001c FE000000 		.4byte	.LFE349-.LFB349
 3910 0020 00000000 		.4byte	.LFB350
 3911 0024 7C000000 		.4byte	.LFE350-.LFB350
 3912 0028 00000000 		.4byte	.LFB351
 3913 002c 12000000 		.4byte	.LFE351-.LFB351
 3914 0030 00000000 		.4byte	.LFB352
 3915 0034 12000000 		.4byte	.LFE352-.LFB352
 3916 0038 00000000 		.4byte	0
 3917 003c 00000000 		.4byte	0
 3918              		.section	.debug_rnglists,"",%progbits
 3919              	.Ldebug_ranges0:
 3920 0000 92000000 		.4byte	.Ldebug_ranges3-.Ldebug_ranges2
 3921              	.Ldebug_ranges2:
 3922 0004 0500     		.2byte	0x5
 3923 0006 04       		.byte	0x4
 3924 0007 00       		.byte	0
 3925 0008 00000000 		.4byte	0
 3926              	.LLRL5:
 3927 000c 05       		.byte	0x5
 3928 000d 52000000 		.4byte	.LBB45
 3929 0011 04       		.byte	0x4
 3930 0012 00       		.uleb128 .LBB45-.LBB45
 3931 0013 06       		.uleb128 .LBE45-.LBB45
 3932 0014 04       		.byte	0x4
 3933 0015 06       		.uleb128 .LBB46-.LBB45
ARM GAS  C:\Users\DEVELO~1\AppData\Local\Temp\ccsRbMwv.s 			page 70


 3934 0016 12       		.uleb128 .LBE46-.LBB45
 3935 0017 04       		.byte	0x4
 3936 0018 14       		.uleb128 .LBB47-.LBB45
 3937 0019 26       		.uleb128 .LBE47-.LBB45
 3938 001a 00       		.byte	0
 3939              	.LLRL11:
 3940 001b 05       		.byte	0x5
 3941 001c 00000000 		.4byte	.LBB78
 3942 0020 04       		.byte	0x4
 3943 0021 00       		.uleb128 .LBB78-.LBB78
 3944 0022 00       		.uleb128 .LBE78-.LBB78
 3945 0023 04       		.byte	0x4
 3946 0024 04       		.uleb128 .LBB88-.LBB78
 3947 0025 06       		.uleb128 .LBE88-.LBB78
 3948 0026 04       		.byte	0x4
 3949 0027 0C       		.uleb128 .LBB89-.LBB78
 3950 0028 10       		.uleb128 .LBE89-.LBB78
 3951 0029 00       		.byte	0
 3952              	.LLRL19:
 3953 002a 05       		.byte	0x5
 3954 002b 46000000 		.4byte	.LBB94
 3955 002f 04       		.byte	0x4
 3956 0030 00       		.uleb128 .LBB94-.LBB94
 3957 0031 02       		.uleb128 .LBE94-.LBB94
 3958 0032 04       		.byte	0x4
 3959 0033 0E       		.uleb128 .LBB97-.LBB94
 3960 0034 12       		.uleb128 .LBE97-.LBB94
 3961 0035 00       		.byte	0
 3962              	.LLRL20:
 3963 0036 05       		.byte	0x5
 3964 0037 58000000 		.4byte	.LBB98
 3965 003b 04       		.byte	0x4
 3966 003c 00       		.uleb128 .LBB98-.LBB98
 3967 003d 06       		.uleb128 .LBE98-.LBB98
 3968 003e 04       		.byte	0x4
 3969 003f 8601     		.uleb128 .LBB142-.LBB98
 3970 0041 8C01     		.uleb128 .LBE142-.LBB98
 3971 0043 04       		.byte	0x4
 3972 0044 9A01     		.uleb128 .LBB143-.LBB98
 3973 0046 A001     		.uleb128 .LBE143-.LBB98
 3974 0048 00       		.byte	0
 3975              	.LLRL23:
 3976 0049 05       		.byte	0x5
 3977 004a 68000000 		.4byte	.LBB113
 3978 004e 04       		.byte	0x4
 3979 004f 00       		.uleb128 .LBB113-.LBB113
 3980 0050 04       		.uleb128 .LBE113-.LBB113
 3981 0051 04       		.byte	0x4
 3982 0052 0A       		.uleb128 .LBB126-.LBB113
 3983 0053 0E       		.uleb128 .LBE126-.LBB113
 3984 0054 04       		.byte	0x4
 3985 0055 28       		.uleb128 .LBB132-.LBB113
 3986 0056 28       		.uleb128 .LBE132-.LBB113
 3987 0057 00       		.byte	0
 3988              	.LLRL26:
 3989 0058 05       		.byte	0x5
 3990 0059 92000000 		.4byte	.LBB133
ARM GAS  C:\Users\DEVELO~1\AppData\Local\Temp\ccsRbMwv.s 			page 71


 3991 005d 04       		.byte	0x4
 3992 005e 00       		.uleb128 .LBB133-.LBB133
 3993 005f 04       		.uleb128 .LBE133-.LBB133
 3994 0060 04       		.byte	0x4
 3995 0061 08       		.uleb128 .LBB137-.LBB133
 3996 0062 0A       		.uleb128 .LBE137-.LBB133
 3997 0063 04       		.byte	0x4
 3998 0064 16       		.uleb128 .LBB138-.LBB133
 3999 0065 16       		.uleb128 .LBE138-.LBB133
 4000 0066 00       		.byte	0
 4001              	.LLRL28:
 4002 0067 05       		.byte	0x5
 4003 0068 BE000000 		.4byte	.LBB139
 4004 006c 04       		.byte	0x4
 4005 006d 00       		.uleb128 .LBB139-.LBB139
 4006 006e 04       		.uleb128 .LBE139-.LBB139
 4007 006f 04       		.byte	0x4
 4008 0070 06       		.uleb128 .LBB140-.LBB139
 4009 0071 08       		.uleb128 .LBE140-.LBB139
 4010 0072 04       		.byte	0x4
 4011 0073 0A       		.uleb128 .LBB141-.LBB139
 4012 0074 20       		.uleb128 .LBE141-.LBB139
 4013 0075 00       		.byte	0
 4014              	.LLRL40:
 4015 0076 07       		.byte	0x7
 4016 0077 00000000 		.4byte	.LFB348
 4017 007b 7E       		.uleb128 .LFE348-.LFB348
 4018 007c 07       		.byte	0x7
 4019 007d 00000000 		.4byte	.LFB349
 4020 0081 FE01     		.uleb128 .LFE349-.LFB349
 4021 0083 07       		.byte	0x7
 4022 0084 00000000 		.4byte	.LFB350
 4023 0088 7C       		.uleb128 .LFE350-.LFB350
 4024 0089 07       		.byte	0x7
 4025 008a 00000000 		.4byte	.LFB351
 4026 008e 12       		.uleb128 .LFE351-.LFB351
 4027 008f 07       		.byte	0x7
 4028 0090 00000000 		.4byte	.LFB352
 4029 0094 12       		.uleb128 .LFE352-.LFB352
 4030 0095 00       		.byte	0
 4031              	.Ldebug_ranges3:
 4032              		.section	.debug_line,"",%progbits
 4033              	.Ldebug_line0:
 4034 0000 AE080000 		.section	.debug_str,"MS",%progbits,1
 4034      03004B02 
 4034      00000201 
 4034      FB0E0D00 
 4034      01010101 
 4035              	.LASF2:
 4036 0000 6C6F6E67 		.ascii	"long double\000"
 4036      20646F75 
 4036      626C6500 
 4037              	.LASF53:
 4038 000c 6F626A76 		.ascii	"objvp\000"
 4038      7000
 4039              	.LASF55:
 4040 0012 6C72755F 		.ascii	"lru_sem\000"
ARM GAS  C:\Users\DEVELO~1\AppData\Local\Temp\ccsRbMwv.s 			page 72


 4040      73656D00 
 4041              	.LASF7:
 4042 001a 73686F72 		.ascii	"short int\000"
 4042      7420696E 
 4042      7400
 4043              	.LASF4:
 4044 0024 73697A65 		.ascii	"size_t\000"
 4044      5F7400
 4045              	.LASF73:
 4046 002b 63685365 		.ascii	"chSemGetCounterI\000"
 4046      6D476574 
 4046      436F756E 
 4046      74657249 
 4046      00
 4047              	.LASF47:
 4048 003c 6F626A65 		.ascii	"objects_cache_t\000"
 4048      6374735F 
 4048      63616368 
 4048      655F7400 
 4049              	.LASF41:
 4050 004c 63685F6F 		.ascii	"ch_oc_object\000"
 4050      635F6F62 
 4050      6A656374 
 4050      00
 4051              	.LASF61:
 4052 0059 63685365 		.ascii	"chSemObjectInit\000"
 4052      6D4F626A 
 4052      65637449 
 4052      6E697400 
 4053              	.LASF45:
 4054 0069 6F626A5F 		.ascii	"obj_flags\000"
 4054      666C6167 
 4054      7300
 4055              	.LASF57:
 4056 0073 77726974 		.ascii	"writef\000"
 4056      656600
 4057              	.LASF42:
 4058 007a 6F626A5F 		.ascii	"obj_group\000"
 4058      67726F75 
 4058      7000
 4059              	.LASF74:
 4060 0084 63685365 		.ascii	"chSemFastSignalI\000"
 4060      6D466173 
 4060      74536967 
 4060      6E616C49 
 4060      00
 4061              	.LASF79:
 4062 0095 706F7274 		.ascii	"port_lock\000"
 4062      5F6C6F63 
 4062      6B00
 4063              	.LASF77:
 4064 009f 63685379 		.ascii	"chSysLock\000"
 4064      734C6F63 
 4064      6B00
 4065              	.LASF40:
 4066 00a9 6F635F6F 		.ascii	"oc_object_t\000"
 4066      626A6563 
ARM GAS  C:\Users\DEVELO~1\AppData\Local\Temp\ccsRbMwv.s 			page 73


 4066      745F7400 
 4067              	.LASF69:
 4068 00b5 63684361 		.ascii	"chCacheReleaseObjectI\000"
 4068      63686552 
 4068      656C6561 
 4068      73654F62 
 4068      6A656374 
 4069              	.LASF70:
 4070 00cb 63684361 		.ascii	"chCacheObjectInit\000"
 4070      6368654F 
 4070      626A6563 
 4070      74496E69 
 4070      7400
 4071              	.LASF82:
 4072 00dd 2E2E2F2E 		.ascii	"../../../os/oslib/src/chobjcaches.c\000"
 4072      2E2F2E2E 
 4072      2F6F732F 
 4072      6F736C69 
 4072      622F7372 
 4073              	.LASF48:
 4074 0101 63685F6F 		.ascii	"ch_objects_cache\000"
 4074      626A6563 
 4074      74735F63 
 4074      61636865 
 4074      00
 4075              	.LASF14:
 4076 0112 75696E74 		.ascii	"uint8_t\000"
 4076      385F7400 
 4077              	.LASF66:
 4078 011a 63684361 		.ascii	"chCacheGetObject\000"
 4078      63686547 
 4078      65744F62 
 4078      6A656374 
 4078      00
 4079              	.LASF21:
 4080 012b 63685F71 		.ascii	"ch_queue_t\000"
 4080      75657565 
 4080      5F7400
 4081              	.LASF16:
 4082 0136 75696E74 		.ascii	"uint32_t\000"
 4082      33325F74 
 4082      00
 4083              	.LASF29:
 4084 013f 73656D61 		.ascii	"semaphore_t\000"
 4084      70686F72 
 4084      655F7400 
 4085              	.LASF52:
 4086 014b 6F626A73 		.ascii	"objsz\000"
 4086      7A00
 4087              	.LASF59:
 4088 0151 6F635F77 		.ascii	"oc_writef_t\000"
 4088      72697465 
 4088      665F7400 
 4089              	.LASF24:
 4090 015d 666C6F61 		.ascii	"float\000"
 4090      7400
 4091              	.LASF1:
ARM GAS  C:\Users\DEVELO~1\AppData\Local\Temp\ccsRbMwv.s 			page 74


 4092 0163 6C6F6E67 		.ascii	"long long int\000"
 4092      206C6F6E 
 4092      6720696E 
 4092      7400
 4093              	.LASF13:
 4094 0171 6C6F6E67 		.ascii	"long long unsigned int\000"
 4094      206C6F6E 
 4094      6720756E 
 4094      7369676E 
 4094      65642069 
 4095              	.LASF31:
 4096 0188 6F635F66 		.ascii	"oc_flags_t\000"
 4096      6C616773 
 4096      5F7400
 4097              	.LASF10:
 4098 0193 6C6F6E67 		.ascii	"long int\000"
 4098      20696E74 
 4098      00
 4099              	.LASF83:
 4100 019c 433A5C43 		.ascii	"C:\\ChibiStudio\\chibios2111\\demos\\STM32\\RT-STM3"
 4100      68696269 
 4100      53747564 
 4100      696F5C63 
 4100      68696269 
 4101 01ca 32483734 		.ascii	"2H743ZI_REV_XY-NUCLEO144 - Copie\000"
 4101      335A495F 
 4101      5245565F 
 4101      58592D4E 
 4101      55434C45 
 4102              	.LASF5:
 4103 01eb 5F5F7569 		.ascii	"__uint8_t\000"
 4103      6E74385F 
 4103      7400
 4104              	.LASF67:
 4105 01f5 67726F75 		.ascii	"group\000"
 4105      7000
 4106              	.LASF43:
 4107 01fb 6F626A5F 		.ascii	"obj_key\000"
 4107      6B657900 
 4108              	.LASF11:
 4109 0203 5F5F7569 		.ascii	"__uint32_t\000"
 4109      6E743332 
 4109      5F7400
 4110              	.LASF37:
 4111 020e 63685F6F 		.ascii	"ch_oc_lru_header\000"
 4111      635F6C72 
 4111      755F6865 
 4111      61646572 
 4111      00
 4112              	.LASF44:
 4113 021f 6F626A5F 		.ascii	"obj_sem\000"
 4113      73656D00 
 4114              	.LASF6:
 4115 0227 756E7369 		.ascii	"unsigned char\000"
 4115      676E6564 
 4115      20636861 
 4115      7200
ARM GAS  C:\Users\DEVELO~1\AppData\Local\Temp\ccsRbMwv.s 			page 75


 4116              	.LASF71:
 4117 0235 6C72755F 		.ascii	"lru_get_last_s\000"
 4117      6765745F 
 4117      6C617374 
 4117      5F7300
 4118              	.LASF68:
 4119 0244 5F5F6675 		.ascii	"__func__\000"
 4119      6E635F5F 
 4119      00
 4120              	.LASF75:
 4121 024d 63685365 		.ascii	"chSemFastWaitI\000"
 4121      6D466173 
 4121      74576169 
 4121      744900
 4122              	.LASF9:
 4123 025c 5F5F696E 		.ascii	"__int32_t\000"
 4123      7433325F 
 4123      7400
 4124              	.LASF3:
 4125 0266 7369676E 		.ascii	"signed char\000"
 4125      65642063 
 4125      68617200 
 4126              	.LASF84:
 4127 0272 63685365 		.ascii	"chSemWaitS\000"
 4127      6D576169 
 4127      745300
 4128              	.LASF49:
 4129 027d 68617368 		.ascii	"hashn\000"
 4129      6E00
 4130              	.LASF0:
 4131 0283 756E7369 		.ascii	"unsigned int\000"
 4131      676E6564 
 4131      20696E74 
 4131      00
 4132              	.LASF50:
 4133 0290 68617368 		.ascii	"hashp\000"
 4133      7000
 4134              	.LASF56:
 4135 0296 72656164 		.ascii	"readf\000"
 4135      6600
 4136              	.LASF33:
 4137 029c 63685F6F 		.ascii	"ch_oc_hash_header\000"
 4137      635F6861 
 4137      73685F68 
 4137      65616465 
 4137      7200
 4138              	.LASF8:
 4139 02ae 73686F72 		.ascii	"short unsigned int\000"
 4139      7420756E 
 4139      7369676E 
 4139      65642069 
 4139      6E7400
 4140              	.LASF80:
 4141 02c1 62617365 		.ascii	"basePri\000"
 4141      50726900 
 4142              	.LASF63:
 4143 02c9 6173796E 		.ascii	"async\000"
ARM GAS  C:\Users\DEVELO~1\AppData\Local\Temp\ccsRbMwv.s 			page 76


 4143      6300
 4144              	.LASF35:
 4145 02cf 68617368 		.ascii	"hash_prev\000"
 4145      5F707265 
 4145      7600
 4146              	.LASF58:
 4147 02d9 6F635F72 		.ascii	"oc_readf_t\000"
 4147      65616466 
 4147      5F7400
 4148              	.LASF20:
 4149 02e4 63686172 		.ascii	"char\000"
 4149      00
 4150              	.LASF54:
 4151 02e9 63616368 		.ascii	"cache_sem\000"
 4151      655F7365 
 4151      6D00
 4152              	.LASF19:
 4153 02f3 75636E74 		.ascii	"ucnt_t\000"
 4153      5F7400
 4154              	.LASF15:
 4155 02fa 696E7433 		.ascii	"int32_t\000"
 4155      325F7400 
 4156              	.LASF18:
 4157 0302 636E745F 		.ascii	"cnt_t\000"
 4157      7400
 4158              	.LASF65:
 4159 0308 63684361 		.ascii	"chCacheReadObject\000"
 4159      63686552 
 4159      6561644F 
 4159      626A6563 
 4159      7400
 4160              	.LASF30:
 4161 031a 5F426F6F 		.ascii	"_Bool\000"
 4161      6C00
 4162              	.LASF78:
 4163 0320 706F7274 		.ascii	"port_unlock\000"
 4163      5F756E6C 
 4163      6F636B00 
 4164              	.LASF12:
 4165 032c 6C6F6E67 		.ascii	"long unsigned int\000"
 4165      20756E73 
 4165      69676E65 
 4165      6420696E 
 4165      7400
 4166              	.LASF81:
 4167 033e 474E5520 		.ascii	"GNU C17 11.3.1 20220712 -mcpu=cortex-m7 -mthumb -mf"
 4167      43313720 
 4167      31312E33 
 4167      2E312032 
 4167      30323230 
 4168 0371 6C6F6174 		.ascii	"loat-abi=soft -march=armv7e-m -ggdb -O2 -fomit-fram"
 4168      2D616269 
 4168      3D736F66 
 4168      74202D6D 
 4168      61726368 
 4169 03a4 652D706F 		.ascii	"e-pointer -falign-functions=16 -ffunction-sections "
 4169      696E7465 
ARM GAS  C:\Users\DEVELO~1\AppData\Local\Temp\ccsRbMwv.s 			page 77


 4169      72202D66 
 4169      616C6967 
 4169      6E2D6675 
 4170 03d7 2D666461 		.ascii	"-fdata-sections -fno-common\000"
 4170      74612D73 
 4170      65637469 
 4170      6F6E7320 
 4170      2D666E6F 
 4171              	.LASF25:
 4172 03f3 646F7562 		.ascii	"double\000"
 4172      6C6500
 4173              	.LASF64:
 4174 03fa 63684361 		.ascii	"chCacheWriteObject\000"
 4174      63686557 
 4174      72697465 
 4174      4F626A65 
 4174      637400
 4175              	.LASF34:
 4176 040d 68617368 		.ascii	"hash_next\000"
 4176      5F6E6578 
 4176      7400
 4177              	.LASF76:
 4178 0417 63685379 		.ascii	"chSysUnlock\000"
 4178      73556E6C 
 4178      6F636B00 
 4179              	.LASF27:
 4180 0423 63685F73 		.ascii	"ch_semaphore\000"
 4180      656D6170 
 4180      686F7265 
 4180      00
 4181              	.LASF38:
 4182 0430 6C72755F 		.ascii	"lru_next\000"
 4182      6E657874 
 4182      00
 4183              	.LASF51:
 4184 0439 6F626A6E 		.ascii	"objn\000"
 4184      00
 4185              	.LASF62:
 4186 043e 6F626A70 		.ascii	"objp\000"
 4186      00
 4187              	.LASF36:
 4188 0443 6F635F6C 		.ascii	"oc_lru_header_t\000"
 4188      72755F68 
 4188      65616465 
 4188      725F7400 
 4189              	.LASF26:
 4190 0453 63685F71 		.ascii	"ch_queue\000"
 4190      75657565 
 4190      00
 4191              	.LASF60:
 4192 045c 63685365 		.ascii	"chSemSignalI\000"
 4192      6D536967 
 4192      6E616C49 
 4192      00
 4193              	.LASF28:
 4194 0469 71756575 		.ascii	"queue\000"
 4194      6500
ARM GAS  C:\Users\DEVELO~1\AppData\Local\Temp\ccsRbMwv.s 			page 78


 4195              	.LASF32:
 4196 046f 6F635F68 		.ascii	"oc_hash_header_t\000"
 4196      6173685F 
 4196      68656164 
 4196      65725F74 
 4196      00
 4197              	.LASF85:
 4198 0480 5F5F7365 		.ascii	"__set_BASEPRI\000"
 4198      745F4241 
 4198      53455052 
 4198      4900
 4199              	.LASF46:
 4200 048e 64707472 		.ascii	"dptr\000"
 4200      00
 4201              	.LASF39:
 4202 0493 6C72755F 		.ascii	"lru_prev\000"
 4202      70726576 
 4202      00
 4203              	.LASF23:
 4204 049c 70726576 		.ascii	"prev\000"
 4204      00
 4205              	.LASF17:
 4206 04a1 6D73675F 		.ascii	"msg_t\000"
 4206      7400
 4207              	.LASF72:
 4208 04a7 68617368 		.ascii	"hash_get_s\000"
 4208      5F676574 
 4208      5F7300
 4209              	.LASF22:
 4210 04b2 6E657874 		.ascii	"next\000"
 4210      00
 4211              		.ident	"GCC: (Arm GNU Toolchain 11.3.Rel1) 11.3.1 20220712"
ARM GAS  C:\Users\DEVELO~1\AppData\Local\Temp\ccsRbMwv.s 			page 79


DEFINED SYMBOLS
                            *ABS*:00000000 chobjcaches.c
C:\Users\DEVELO~1\AppData\Local\Temp\ccsRbMwv.s:18     .text.chCacheObjectInit:00000000 $t
C:\Users\DEVELO~1\AppData\Local\Temp\ccsRbMwv.s:25     .text.chCacheObjectInit:00000000 chCacheObjectInit
C:\Users\DEVELO~1\AppData\Local\Temp\ccsRbMwv.s:168    .text.chCacheGetObject:00000000 $t
C:\Users\DEVELO~1\AppData\Local\Temp\ccsRbMwv.s:175    .text.chCacheGetObject:00000000 chCacheGetObject
C:\Users\DEVELO~1\AppData\Local\Temp\ccsRbMwv.s:704    .text.chCacheReleaseObjectI:00000000 $t
C:\Users\DEVELO~1\AppData\Local\Temp\ccsRbMwv.s:711    .text.chCacheReleaseObjectI:00000000 chCacheReleaseObjectI
C:\Users\DEVELO~1\AppData\Local\Temp\ccsRbMwv.s:863    .text.chCacheReadObject:00000000 $t
C:\Users\DEVELO~1\AppData\Local\Temp\ccsRbMwv.s:870    .text.chCacheReadObject:00000000 chCacheReadObject
C:\Users\DEVELO~1\AppData\Local\Temp\ccsRbMwv.s:908    .text.chCacheWriteObject:00000000 $t
C:\Users\DEVELO~1\AppData\Local\Temp\ccsRbMwv.s:915    .text.chCacheWriteObject:00000000 chCacheWriteObject

UNDEFINED SYMBOLS
chSemObjectInit
chSemWaitS
chSemSignalI
