ARM GAS  C:\Users\DEVELO~1\AppData\Local\Temp\ccPQmLBO.s 			page 1


   1              		.cpu cortex-m7
   2              		.arch armv7e-m
   3              		.fpu softvfp
   4              		.eabi_attribute 20, 1
   5              		.eabi_attribute 21, 1
   6              		.eabi_attribute 23, 3
   7              		.eabi_attribute 24, 1
   8              		.eabi_attribute 25, 1
   9              		.eabi_attribute 26, 1
  10              		.eabi_attribute 30, 2
  11              		.eabi_attribute 34, 1
  12              		.eabi_attribute 18, 4
  13              		.file	"chobjcaches.c"
  14              		.text
  15              	.Ltext0:
  16              		.cfi_sections	.debug_frame
  17              		.section	.text.chCacheObjectInit,"ax",%progbits
  18              		.align	1
  19              		.p2align 4,,15
  20              		.global	chCacheObjectInit
  21              		.syntax unified
  22              		.thumb
  23              		.thumb_func
  24              		.type	chCacheObjectInit, %function
  25              	chCacheObjectInit:
  26              	.LVL0:
  27              	.LFB354:
  28              		.file 1 "./ChibiOS/os/oslib/src/chobjcaches.c"
  29              		.loc 1 247 44 view -0
  30              		.cfi_startproc
  31              		@ args = 16, pretend = 0, frame = 0
  32              		@ frame_needed = 0, uses_anonymous_args = 0
  33              		.loc 1 249 3 view .LVU1
  34              		.loc 1 249 3 view .LVU2
  35              		.loc 1 249 3 view .LVU3
  36              		.loc 1 255 3 view .LVU4
  37              		.loc 1 247 44 is_stmt 0 view .LVU5
  38 0000 2DE9F047 		push	{r4, r5, r6, r7, r8, r9, r10, lr}
  39              		.cfi_def_cfa_offset 32
  40              		.cfi_offset 4, -32
  41              		.cfi_offset 5, -28
  42              		.cfi_offset 6, -24
  43              		.cfi_offset 7, -20
  44              		.cfi_offset 8, -16
  45              		.cfi_offset 9, -12
  46              		.cfi_offset 10, -8
  47              		.cfi_offset 14, -4
  48              		.loc 1 247 44 view .LVU6
  49 0004 0646     		mov	r6, r0
  50 0006 1F46     		mov	r7, r3
  51 0008 8946     		mov	r9, r1
  52              		.loc 1 255 3 view .LVU7
  53 000a 2430     		adds	r0, r0, #36
  54              	.LVL1:
  55              		.loc 1 255 3 view .LVU8
  56 000c 0121     		movs	r1, #1
  57              	.LVL2:
ARM GAS  C:\Users\DEVELO~1\AppData\Local\Temp\ccPQmLBO.s 			page 2


  58              		.loc 1 247 44 view .LVU9
  59 000e 1546     		mov	r5, r2
  60 0010 099C     		ldr	r4, [sp, #36]
  61 0012 DDF82080 		ldr	r8, [sp, #32]
  62              		.loc 1 255 3 view .LVU10
  63 0016 FFF7FEFF 		bl	chSemObjectInit
  64              	.LVL3:
  65              		.loc 1 256 3 is_stmt 1 view .LVU11
  66 001a 3946     		mov	r1, r7
  67 001c 06F13000 		add	r0, r6, #48
  68 0020 FFF7FEFF 		bl	chSemObjectInit
  69              	.LVL4:
  70              		.loc 1 257 3 view .LVU12
  71              		.loc 1 261 25 is_stmt 0 view .LVU13
  72 0024 0A9B     		ldr	r3, [sp, #40]
  73              		.loc 1 273 20 view .LVU14
  74 0026 05EBC901 		add	r1, r5, r9, lsl #3
  75              		.loc 1 257 25 view .LVU15
  76 002a C6F80090 		str	r9, [r6]
  77              		.loc 1 258 3 is_stmt 1 view .LVU16
  78              		.loc 1 261 25 is_stmt 0 view .LVU17
  79 002e F363     		str	r3, [r6, #60]
  80              		.loc 1 265 27 view .LVU18
  81 0030 06F11409 		add	r9, r6, #20
  82              	.LVL5:
  83              		.loc 1 262 25 view .LVU19
  84 0034 0B9B     		ldr	r3, [sp, #44]
  85              		.loc 1 260 25 view .LVU20
  86 0036 3461     		str	r4, [r6, #16]
  87              		.loc 1 262 25 view .LVU21
  88 0038 3364     		str	r3, [r6, #64]
  89              		.loc 1 263 25 view .LVU22
  90 003a 0023     		movs	r3, #0
  91              		.loc 1 259 25 view .LVU23
  92 003c C6E90157 		strd	r5, r7, [r6, #4]
  93              		.loc 1 260 3 is_stmt 1 view .LVU24
  94              		.loc 1 261 3 view .LVU25
  95              		.loc 1 262 3 view .LVU26
  96              		.loc 1 263 3 view .LVU27
  97              		.loc 1 264 25 is_stmt 0 view .LVU28
  98 0040 C6E90533 		strd	r3, r3, [r6, #20]
  99              		.loc 1 265 3 is_stmt 1 view .LVU29
 100              		.loc 1 266 25 is_stmt 0 view .LVU30
 101 0044 C6E90799 		strd	r9, r9, [r6, #28]
 102              	.L2:
 103              		.loc 1 269 3 is_stmt 1 discriminator 1 view .LVU31
 104              		.loc 1 270 5 discriminator 1 view .LVU32
 105              		.loc 1 271 17 is_stmt 0 discriminator 1 view .LVU33
 106 0048 C5E90055 		strd	r5, r5, [r5]
 107              		.loc 1 272 5 is_stmt 1 discriminator 1 view .LVU34
 108              		.loc 1 272 10 is_stmt 0 discriminator 1 view .LVU35
 109 004c 0835     		adds	r5, r5, #8
 110              	.LVL6:
 111              		.loc 1 273 18 is_stmt 1 discriminator 1 view .LVU36
 112 004e A942     		cmp	r1, r5
 113 0050 FAD8     		bhi	.L2
 114              	.LBB45:
ARM GAS  C:\Users\DEVELO~1\AppData\Local\Temp\ccPQmLBO.s 			page 3


 115              		.loc 1 279 5 is_stmt 0 view .LVU37
 116 0052 4FF0010A 		mov	r10, #1
 117              		.loc 1 281 21 view .LVU38
 118 0056 0025     		movs	r5, #0
 119              	.LVL7:
 120              	.L3:
 121              		.loc 1 281 21 view .LVU39
 122              	.LBE45:
 123              		.loc 1 276 3 is_stmt 1 discriminator 1 view .LVU40
 124              	.LBB46:
 125              		.loc 1 277 5 discriminator 1 view .LVU41
 126              		.loc 1 279 5 discriminator 1 view .LVU42
 127 0058 04F11800 		add	r0, r4, #24
 128 005c 0121     		movs	r1, #1
 129 005e FFF7FEFF 		bl	chSemObjectInit
 130              	.LVL8:
 131              		.loc 1 280 5 discriminator 1 view .LVU43
 132 0062 F369     		ldr	r3, [r6, #28]
 133              	.LBE46:
 134              		.loc 1 287 17 is_stmt 0 discriminator 1 view .LVU44
 135 0064 013F     		subs	r7, r7, #1
 136              	.LVL9:
 137              	.LBB47:
 138              		.loc 1 280 5 discriminator 1 view .LVU45
 139 0066 C4E90239 		strd	r3, r9, [r4, #8]
 140              		.loc 1 280 5 is_stmt 1 discriminator 1 view .LVU46
 141              		.loc 1 280 5 discriminator 1 view .LVU47
 142 006a DC60     		str	r4, [r3, #12]
 143              		.loc 1 280 5 discriminator 1 view .LVU48
 144 006c F461     		str	r4, [r6, #28]
 145              		.loc 1 280 31 discriminator 1 view .LVU49
 146              		.loc 1 281 5 discriminator 1 view .LVU50
 147              		.loc 1 282 21 is_stmt 0 discriminator 1 view .LVU51
 148 006e C4E90455 		strd	r5, r5, [r4, #16]
 149              		.loc 1 283 5 is_stmt 1 discriminator 1 view .LVU52
 150              		.loc 1 284 21 is_stmt 0 discriminator 1 view .LVU53
 151 0072 C4E909A5 		strd	r10, r5, [r4, #36]
 152              		.loc 1 285 5 is_stmt 1 discriminator 1 view .LVU54
 153              		.loc 1 285 11 is_stmt 0 discriminator 1 view .LVU55
 154 0076 4444     		add	r4, r4, r8
 155              	.LVL10:
 156              		.loc 1 286 5 is_stmt 1 discriminator 1 view .LVU56
 157              		.loc 1 286 5 is_stmt 0 discriminator 1 view .LVU57
 158              	.LBE47:
 159              		.loc 1 287 17 is_stmt 1 discriminator 1 view .LVU58
 160 0078 EED1     		bne	.L3
 161              		.loc 1 288 1 is_stmt 0 view .LVU59
 162 007a BDE8F087 		pop	{r4, r5, r6, r7, r8, r9, r10, pc}
 163              		.loc 1 288 1 view .LVU60
 164              		.cfi_endproc
 165              	.LFE354:
 166              		.size	chCacheObjectInit, .-chCacheObjectInit
 167 007e 00BF     		.section	.text.chCacheGetObject,"ax",%progbits
 168              		.align	1
 169              		.p2align 4,,15
 170              		.global	chCacheGetObject
 171              		.syntax unified
ARM GAS  C:\Users\DEVELO~1\AppData\Local\Temp\ccPQmLBO.s 			page 4


 172              		.thumb
 173              		.thumb_func
 174              		.type	chCacheGetObject, %function
 175              	chCacheGetObject:
 176              	.LVL11:
 177              	.LFB355:
 178              		.loc 1 305 45 is_stmt 1 view -0
 179              		.cfi_startproc
 180              		@ args = 0, pretend = 0, frame = 0
 181              		@ frame_needed = 0, uses_anonymous_args = 0
 182              		.loc 1 306 3 view .LVU62
 183              		.loc 1 309 3 view .LVU63
 184              	.LBB80:
 185              	.LBI80:
 186              		.file 2 "./ChibiOS/os/rt/include/chsys.h"
 187              		.loc 2 372 20 view .LVU64
 188              		.loc 2 374 3 view .LVU65
 189              	.LBB81:
 190              	.LBI81:
 191              		.file 3 "./ChibiOS/os/common/ports/ARMv7-M/chcore.h"
 192              		.loc 3 840 27 view .LVU66
 193              		.loc 3 848 3 view .LVU67
 194              	.LBB82:
 195              	.LBI82:
 196              		.file 4 "./ChibiOS/os/common/ext/ARM/CMSIS/Core/Include/cmsis_gcc.h"
 197              		.loc 4 491 27 view .LVU68
 198              	.LBB83:
 199              		.loc 4 493 3 view .LVU69
 200              	.LBE83:
 201              	.LBE82:
 202              	.LBE81:
 203              	.LBE80:
 204              		.loc 1 305 45 is_stmt 0 view .LVU70
 205 0000 2DE9F84F 		push	{r3, r4, r5, r6, r7, r8, r9, r10, fp, lr}
 206              		.cfi_def_cfa_offset 40
 207              		.cfi_offset 3, -40
 208              		.cfi_offset 4, -36
 209              		.cfi_offset 5, -32
 210              		.cfi_offset 6, -28
 211              		.cfi_offset 7, -24
 212              		.cfi_offset 8, -20
 213              		.cfi_offset 9, -16
 214              		.cfi_offset 10, -12
 215              		.cfi_offset 11, -8
 216              		.cfi_offset 14, -4
 217              	.LBB90:
 218              	.LBB88:
 219              	.LBB86:
 220              	.LBB84:
 221              		.loc 4 493 3 view .LVU71
 222 0004 3023     		movs	r3, #48
 223              	.LBE84:
 224              	.LBE86:
 225              	.LBE88:
 226              	.LBE90:
 227              		.loc 1 305 45 view .LVU72
 228 0006 0646     		mov	r6, r0
ARM GAS  C:\Users\DEVELO~1\AppData\Local\Temp\ccPQmLBO.s 			page 5


 229 0008 0D46     		mov	r5, r1
 230 000a 1746     		mov	r7, r2
 231              	.LBB91:
 232              	.LBB89:
 233              	.LBB87:
 234              	.LBB85:
 235              		.loc 4 493 3 view .LVU73
 236              		.syntax unified
 237              	@ 493 "./ChibiOS/os/common/ext/ARM/CMSIS/Core/Include/cmsis_gcc.h" 1
 238 000c 83F31188 		MSR basepri, r3
 239              	@ 0 "" 2
 240              	.LVL12:
 241              		.loc 4 493 3 view .LVU74
 242              		.thumb
 243              		.syntax unified
 244              	.LBE85:
 245              	.LBE87:
 246              	.LBE89:
 247              		.loc 2 375 35 is_stmt 1 view .LVU75
 248              		.loc 2 376 21 view .LVU76
 249              	.LBE91:
 250              		.loc 1 312 3 view .LVU77
 251              	.LBB92:
 252              	.LBI92:
 253              		.loc 1 134 21 view .LVU78
 254              	.LBB93:
 255              		.loc 1 137 3 view .LVU79
 256              		.loc 1 140 3 view .LVU80
 257              		.loc 1 140 22 is_stmt 0 view .LVU81
 258 0010 0368     		ldr	r3, [r0]
 259 0012 01EB0208 		add	r8, r1, r2
 260              		.loc 1 140 8 view .LVU82
 261 0016 4268     		ldr	r2, [r0, #4]
 262              	.LVL13:
 263              		.loc 1 140 22 view .LVU83
 264 0018 013B     		subs	r3, r3, #1
 265 001a 03EA0803 		and	r3, r3, r8
 266              		.loc 1 140 8 view .LVU84
 267 001e 02EBC301 		add	r1, r2, r3, lsl #3
 268              	.LVL14:
 269              		.loc 1 143 3 is_stmt 1 view .LVU85
 270              		.loc 1 143 5 is_stmt 0 view .LVU86
 271 0022 52F83340 		ldr	r4, [r2, r3, lsl #3]
 272              	.LVL15:
 273              		.loc 1 144 3 is_stmt 1 view .LVU87
 274              		.loc 1 144 12 view .LVU88
 275 0026 A142     		cmp	r1, r4
 276 0028 03D1     		bne	.L12
 277 002a 1BE0     		b	.L9
 278              	.LVL16:
 279              	.L10:
 280              	.LBB94:
 281              		.loc 1 151 7 is_stmt 0 view .LVU89
 282 002c 2468     		ldr	r4, [r4]
 283              	.LVL17:
 284              		.loc 1 151 7 view .LVU90
 285              	.LBE94:
ARM GAS  C:\Users\DEVELO~1\AppData\Local\Temp\ccPQmLBO.s 			page 6


 286              		.loc 1 144 12 is_stmt 1 view .LVU91
 287 002e A142     		cmp	r1, r4
 288 0030 18D0     		beq	.L9
 289              	.L12:
 290              	.LBB95:
 291              		.loc 1 145 5 view .LVU92
 292              	.LVL18:
 293              		.loc 1 146 5 view .LVU93
 294              		.loc 1 151 5 view .LVU94
 295              		.loc 1 146 8 is_stmt 0 view .LVU95
 296 0032 2369     		ldr	r3, [r4, #16]
 297 0034 9D42     		cmp	r5, r3
 298 0036 F9D1     		bne	.L10
 299              		.loc 1 146 36 view .LVU96
 300 0038 6369     		ldr	r3, [r4, #20]
 301 003a 9F42     		cmp	r7, r3
 302 003c F6D1     		bne	.L10
 303              	.LVL19:
 304              		.loc 1 146 36 view .LVU97
 305              	.LBE95:
 306              	.LBE93:
 307              	.LBE92:
 308              		.loc 1 313 3 is_stmt 1 view .LVU98
 309              		.loc 1 315 5 view .LVU99
 310              		.loc 1 315 5 view .LVU100
 311              		.loc 1 315 5 view .LVU101
 312              		.loc 1 320 5 view .LVU102
 313              	.LBB96:
 314              	.LBI96:
 315              		.file 5 "./ChibiOS/os/rt/include/chsem.h"
 316              		.loc 5 190 21 view .LVU103
 317              	.LBB97:
 318              		.loc 5 192 21 view .LVU104
 319              		.loc 5 194 3 view .LVU105
 320              		.loc 5 194 12 is_stmt 0 view .LVU106
 321 003e 236A     		ldr	r3, [r4, #32]
 322              	.LVL20:
 323              		.loc 5 194 12 view .LVU107
 324              	.LBE97:
 325              	.LBE96:
 326              		.loc 1 320 8 view .LVU108
 327 0040 002B     		cmp	r3, #0
 328 0042 54DD     		ble	.L26
 329              		.loc 1 323 7 is_stmt 1 discriminator 5 view .LVU109
 330              		.loc 1 323 7 discriminator 5 view .LVU110
 331              		.loc 1 323 7 discriminator 5 view .LVU111
 332              		.loc 1 327 7 discriminator 5 view .LVU112
 333              		.loc 1 328 23 is_stmt 0 discriminator 5 view .LVU113
 334 0044 626A     		ldr	r2, [r4, #36]
 335              	.LBB98:
 336              	.LBB99:
 337              		.loc 5 163 10 discriminator 5 view .LVU114
 338 0046 013B     		subs	r3, r3, #1
 339              	.LBE99:
 340              	.LBE98:
 341              		.loc 1 327 7 discriminator 5 view .LVU115
 342 0048 D4E90210 		ldrd	r1, r0, [r4, #8]
ARM GAS  C:\Users\DEVELO~1\AppData\Local\Temp\ccPQmLBO.s 			page 7


 343              	.LVL21:
 344              		.loc 1 328 23 discriminator 5 view .LVU116
 345 004c 22F00102 		bic	r2, r2, #1
 346              		.loc 1 327 7 discriminator 5 view .LVU117
 347 0050 8160     		str	r1, [r0, #8]
 348              		.loc 1 327 7 is_stmt 1 discriminator 5 view .LVU118
 349 0052 C860     		str	r0, [r1, #12]
 350              		.loc 1 327 23 discriminator 5 view .LVU119
 351              		.loc 1 328 7 discriminator 5 view .LVU120
 352              	.LBB101:
 353              	.LBB100:
 354              		.loc 5 163 10 is_stmt 0 discriminator 5 view .LVU121
 355 0054 C4E90832 		strd	r3, r2, [r4, #32]
 356              		.loc 5 163 10 discriminator 5 view .LVU122
 357              	.LBE100:
 358              	.LBE101:
 359              		.loc 1 352 39 is_stmt 1 discriminator 5 view .LVU123
 360              		.loc 1 356 3 discriminator 5 view .LVU124
 361              	.LBB102:
 362              	.LBI102:
 363              		.loc 2 386 20 discriminator 5 view .LVU125
 364              	.LBB103:
 365              		.loc 2 388 23 discriminator 5 view .LVU126
 366              		.loc 2 389 34 discriminator 5 view .LVU127
 367              		.loc 2 395 3 discriminator 5 view .LVU128
 368              		.loc 2 395 3 discriminator 5 view .LVU129
 369              		.loc 2 395 3 discriminator 5 view .LVU130
 370              		.loc 2 399 3 discriminator 5 view .LVU131
 371              	.LBB104:
 372              	.LBI104:
 373              		.loc 3 864 27 discriminator 5 view .LVU132
 374              		.loc 3 867 3 discriminator 5 view .LVU133
 375              	.LVL22:
 376              	.LBB105:
 377              	.LBI105:
 378              		.loc 4 491 27 discriminator 5 view .LVU134
 379              	.LBB106:
 380              		.loc 4 493 3 discriminator 5 view .LVU135
 381 0058 0023     		movs	r3, #0
 382              		.syntax unified
 383              	@ 493 "./ChibiOS/os/common/ext/ARM/CMSIS/Core/Include/cmsis_gcc.h" 1
 384 005a 83F31188 		MSR basepri, r3
 385              	@ 0 "" 2
 386              	.LVL23:
 387              		.loc 4 493 3 is_stmt 0 discriminator 5 view .LVU136
 388              		.thumb
 389              		.syntax unified
 390              	.LBE106:
 391              	.LBE105:
 392              	.LBE104:
 393              	.LBE103:
 394              	.LBE102:
 395              		.loc 1 358 3 is_stmt 1 discriminator 5 view .LVU137
 396              		.loc 1 359 1 is_stmt 0 discriminator 5 view .LVU138
 397 005e 2046     		mov	r0, r4
 398 0060 BDE8F88F 		pop	{r3, r4, r5, r6, r7, r8, r9, r10, fp, pc}
 399              	.LVL24:
ARM GAS  C:\Users\DEVELO~1\AppData\Local\Temp\ccPQmLBO.s 			page 8


 400              	.L9:
 401              	.LBB115:
 402              	.LBB116:
 403              		.loc 1 170 12 view .LVU139
 404 0064 06F13009 		add	r9, r6, #48
 405              	.LBB117:
 406              	.LBB118:
 407              	.LBB119:
 408              	.LBB120:
 409              	.LBB121:
 410              		.loc 4 493 3 view .LVU140
 411 0068 4FF0000B 		mov	fp, #0
 412              	.LBE121:
 413              	.LBE120:
 414              	.LBE119:
 415              	.LBE118:
 416              	.LBE117:
 417              		.loc 1 209 21 view .LVU141
 418 006c 4FF0220A 		mov	r10, #34
 419 0070 0BE0     		b	.L13
 420              	.LVL25:
 421              	.L15:
 422              	.LBB130:
 423              	.LBB128:
 424              	.LBB126:
 425              	.LBB124:
 426              	.LBB122:
 427              		.loc 4 493 3 view .LVU142
 428              		.syntax unified
 429              	@ 493 "./ChibiOS/os/common/ext/ARM/CMSIS/Core/Include/cmsis_gcc.h" 1
 430 0072 8BF31188 		MSR basepri, fp
 431              	@ 0 "" 2
 432              	.LVL26:
 433              		.loc 4 493 3 view .LVU143
 434              		.thumb
 435              		.syntax unified
 436              	.LBE122:
 437              	.LBE124:
 438              	.LBE126:
 439              	.LBE128:
 440              	.LBE130:
 441              		.loc 1 209 5 is_stmt 1 view .LVU144
 442              		.loc 1 210 12 is_stmt 0 view .LVU145
 443 0076 0122     		movs	r2, #1
 444 0078 336C     		ldr	r3, [r6, #64]
 445 007a 2146     		mov	r1, r4
 446 007c 3046     		mov	r0, r6
 447              		.loc 1 209 21 view .LVU146
 448 007e C4F824A0 		str	r10, [r4, #36]
 449              		.loc 1 210 5 is_stmt 1 view .LVU147
 450              		.loc 1 210 12 is_stmt 0 view .LVU148
 451 0082 9847     		blx	r3
 452              	.LVL27:
 453              		.loc 1 213 5 is_stmt 1 view .LVU149
 454              	.LBB131:
 455              	.LBI131:
 456              		.loc 2 372 20 view .LVU150
ARM GAS  C:\Users\DEVELO~1\AppData\Local\Temp\ccPQmLBO.s 			page 9


 457              	.LBB132:
 458              		.loc 2 374 3 view .LVU151
 459              	.LBB133:
 460              	.LBI133:
 461              		.loc 3 840 27 view .LVU152
 462              		.loc 3 848 3 view .LVU153
 463              	.LBB134:
 464              	.LBI134:
 465              		.loc 4 491 27 view .LVU154
 466              	.LBB135:
 467              		.loc 4 493 3 view .LVU155
 468 0084 3023     		movs	r3, #48
 469              		.syntax unified
 470              	@ 493 "./ChibiOS/os/common/ext/ARM/CMSIS/Core/Include/cmsis_gcc.h" 1
 471 0086 83F31188 		MSR basepri, r3
 472              	@ 0 "" 2
 473              	.LVL28:
 474              		.loc 4 493 3 is_stmt 0 view .LVU156
 475              		.thumb
 476              		.syntax unified
 477              	.LBE135:
 478              	.LBE134:
 479              	.LBE133:
 480              		.loc 2 375 35 is_stmt 1 view .LVU157
 481              		.loc 2 376 21 view .LVU158
 482              	.L13:
 483              		.loc 2 376 21 is_stmt 0 view .LVU159
 484              	.LBE132:
 485              	.LBE131:
 486              		.loc 1 166 3 is_stmt 1 view .LVU160
 487              		.loc 1 168 3 view .LVU161
 488              		.loc 1 170 5 view .LVU162
 489              		.loc 1 170 12 is_stmt 0 view .LVU163
 490 008a 4846     		mov	r0, r9
 491 008c FFF7FEFF 		bl	chSemWaitS
 492              	.LVL29:
 493              		.loc 1 174 5 is_stmt 1 view .LVU164
 494              		.loc 1 204 5 view .LVU165
 495              	.LBB136:
 496              	.LBI117:
 497              		.loc 2 386 20 view .LVU166
 498              	.LBB129:
 499              		.loc 2 388 23 view .LVU167
 500              		.loc 2 389 34 view .LVU168
 501              		.loc 2 395 3 view .LVU169
 502              		.loc 2 395 3 view .LVU170
 503              		.loc 2 395 3 view .LVU171
 504              		.loc 2 399 3 view .LVU172
 505              	.LBB127:
 506              	.LBI119:
 507              		.loc 3 864 27 view .LVU173
 508              		.loc 3 867 3 view .LVU174
 509              	.LBB125:
 510              	.LBI120:
 511              		.loc 4 491 27 view .LVU175
 512              	.LBB123:
 513              		.loc 4 493 3 view .LVU176
ARM GAS  C:\Users\DEVELO~1\AppData\Local\Temp\ccPQmLBO.s 			page 10


 514              	.LBE123:
 515              	.LBE125:
 516              	.LBE127:
 517              	.LBE129:
 518              	.LBE136:
 519              		.loc 1 174 10 is_stmt 0 view .LVU177
 520 0090 346A     		ldr	r4, [r6, #32]
 521              	.LVL30:
 522              		.loc 1 176 5 is_stmt 1 view .LVU178
 523              		.loc 1 176 5 view .LVU179
 524              		.loc 1 176 5 view .LVU180
 525              		.loc 1 178 5 view .LVU181
 526              		.loc 1 178 5 view .LVU182
 527              		.loc 1 178 5 view .LVU183
 528              		.loc 1 181 5 view .LVU184
 529              	.LBB137:
 530              	.LBB138:
 531              		.loc 5 163 10 is_stmt 0 view .LVU185
 532 0092 D4E90832 		ldrd	r3, r2, [r4, #32]
 533              	.LBE138:
 534              	.LBE137:
 535              		.loc 1 181 5 view .LVU186
 536 0096 D4E90210 		ldrd	r1, r0, [r4, #8]
 537              	.LBB141:
 538              	.LBB139:
 539              		.loc 5 163 10 view .LVU187
 540 009a 013B     		subs	r3, r3, #1
 541              	.LBE139:
 542              	.LBE141:
 543              		.loc 1 181 5 view .LVU188
 544 009c 8160     		str	r1, [r0, #8]
 545              		.loc 1 181 5 is_stmt 1 view .LVU189
 546 009e C860     		str	r0, [r1, #12]
 547              		.loc 1 181 21 view .LVU190
 548              		.loc 1 182 5 view .LVU191
 549              		.loc 1 182 21 is_stmt 0 view .LVU192
 550 00a0 22F00101 		bic	r1, r2, #1
 551 00a4 C4E90831 		strd	r3, r1, [r4, #32]
 552              		.loc 1 186 5 is_stmt 1 view .LVU193
 553              	.LVL31:
 554              	.LBB142:
 555              	.LBI137:
 556              		.loc 5 159 20 view .LVU194
 557              	.LBB140:
 558              		.loc 5 161 21 view .LVU195
 559              		.loc 5 163 3 view .LVU196
 560              		.loc 5 163 3 is_stmt 0 view .LVU197
 561              	.LBE140:
 562              	.LBE142:
 563              		.loc 1 190 5 is_stmt 1 view .LVU198
 564              		.loc 1 190 8 is_stmt 0 view .LVU199
 565 00a8 D106     		lsls	r1, r2, #27
 566 00aa E2D4     		bmi	.L15
 567              		.loc 1 193 7 is_stmt 1 view .LVU200
 568              		.loc 1 193 10 is_stmt 0 view .LVU201
 569 00ac 9307     		lsls	r3, r2, #30
 570 00ae 04D5     		bpl	.L16
ARM GAS  C:\Users\DEVELO~1\AppData\Local\Temp\ccPQmLBO.s 			page 11


 571              		.loc 1 194 9 is_stmt 1 view .LVU202
 572 00b0 D4E90023 		ldrd	r2, r3, [r4]
 573 00b4 1A60     		str	r2, [r3]
 574              		.loc 1 194 9 view .LVU203
 575 00b6 2268     		ldr	r2, [r4]
 576 00b8 5360     		str	r3, [r2, #4]
 577              	.L16:
 578              		.loc 1 194 26 view .LVU204
 579              		.loc 1 198 7 view .LVU205
 580              		.loc 1 200 7 view .LVU206
 581              	.LVL32:
 582              		.loc 1 200 7 is_stmt 0 view .LVU207
 583              	.LBE116:
 584              	.LBE115:
 585              		.loc 1 349 5 is_stmt 1 view .LVU208
 586              		.loc 1 351 21 is_stmt 0 view .LVU209
 587 00ba 0A21     		movs	r1, #10
 588              		.loc 1 349 21 view .LVU210
 589 00bc 2561     		str	r5, [r4, #16]
 590              		.loc 1 350 5 is_stmt 1 view .LVU211
 591              	.LBB143:
 592              		.loc 1 352 5 is_stmt 0 view .LVU212
 593 00be D6E90032 		ldrd	r3, r2, [r6]
 594              	.LBE143:
 595              		.loc 1 351 21 view .LVU213
 596 00c2 6162     		str	r1, [r4, #36]
 597              	.LBB144:
 598              		.loc 1 352 5 view .LVU214
 599 00c4 013B     		subs	r3, r3, #1
 600              	.LBE144:
 601              		.loc 1 350 21 view .LVU215
 602 00c6 6761     		str	r7, [r4, #20]
 603              		.loc 1 351 5 is_stmt 1 view .LVU216
 604              	.LBB145:
 605              		.loc 1 352 5 view .LVU217
 606              		.loc 1 352 5 view .LVU218
 607 00c8 03EA0803 		and	r3, r3, r8
 608 00cc 52F83310 		ldr	r1, [r2, r3, lsl #3]
 609 00d0 02EBC300 		add	r0, r2, r3, lsl #3
 610              	.LVL33:
 611              		.loc 1 352 5 view .LVU219
 612 00d4 2160     		str	r1, [r4]
 613              		.loc 1 352 5 view .LVU220
 614 00d6 52F83310 		ldr	r1, [r2, r3, lsl #3]
 615 00da 6060     		str	r0, [r4, #4]
 616              		.loc 1 352 5 view .LVU221
 617 00dc 4C60     		str	r4, [r1, #4]
 618              		.loc 1 352 5 view .LVU222
 619 00de 42F83340 		str	r4, [r2, r3, lsl #3]
 620              		.loc 1 352 5 is_stmt 0 view .LVU223
 621              	.LBE145:
 622              		.loc 1 352 39 is_stmt 1 view .LVU224
 623              		.loc 1 356 3 view .LVU225
 624              	.LBB146:
 625              		.loc 2 386 20 view .LVU226
 626              	.LBB113:
 627              		.loc 2 388 23 view .LVU227
ARM GAS  C:\Users\DEVELO~1\AppData\Local\Temp\ccPQmLBO.s 			page 12


 628              		.loc 2 389 34 view .LVU228
 629              		.loc 2 395 3 view .LVU229
 630              		.loc 2 395 3 view .LVU230
 631              		.loc 2 395 3 view .LVU231
 632              		.loc 2 399 3 view .LVU232
 633              	.LBB111:
 634              		.loc 3 864 27 view .LVU233
 635              		.loc 3 867 3 view .LVU234
 636              	.LVL34:
 637              	.LBB109:
 638              		.loc 4 491 27 view .LVU235
 639              	.LBB107:
 640              		.loc 4 493 3 view .LVU236
 641 00e2 0023     		movs	r3, #0
 642              		.syntax unified
 643              	@ 493 "./ChibiOS/os/common/ext/ARM/CMSIS/Core/Include/cmsis_gcc.h" 1
 644 00e4 83F31188 		MSR basepri, r3
 645              	@ 0 "" 2
 646              	.LVL35:
 647              		.loc 4 493 3 is_stmt 0 view .LVU237
 648              		.thumb
 649              		.syntax unified
 650              	.LBE107:
 651              	.LBE109:
 652              	.LBE111:
 653              	.LBE113:
 654              	.LBE146:
 655              		.loc 1 358 3 is_stmt 1 view .LVU238
 656              		.loc 1 359 1 is_stmt 0 view .LVU239
 657 00e8 2046     		mov	r0, r4
 658              	.LVL36:
 659              		.loc 1 359 1 view .LVU240
 660 00ea BDE8F88F 		pop	{r3, r4, r5, r6, r7, r8, r9, r10, fp, pc}
 661              	.LVL37:
 662              	.L26:
 663              		.loc 1 338 7 is_stmt 1 discriminator 5 view .LVU241
 664              		.loc 1 338 7 discriminator 5 view .LVU242
 665              		.loc 1 338 7 discriminator 5 view .LVU243
 666              		.loc 1 341 7 discriminator 5 view .LVU244
 667              		.loc 1 341 14 is_stmt 0 discriminator 5 view .LVU245
 668 00ee 04F11800 		add	r0, r4, #24
 669              	.LVL38:
 670              		.loc 1 341 14 discriminator 5 view .LVU246
 671 00f2 FFF7FEFF 		bl	chSemWaitS
 672              	.LVL39:
 673              		.loc 1 352 39 is_stmt 1 discriminator 5 view .LVU247
 674              		.loc 1 356 3 discriminator 5 view .LVU248
 675              	.LBB147:
 676              		.loc 2 386 20 discriminator 5 view .LVU249
 677              	.LBB114:
 678              		.loc 2 388 23 discriminator 5 view .LVU250
 679              		.loc 2 389 34 discriminator 5 view .LVU251
 680              		.loc 2 395 3 discriminator 5 view .LVU252
 681              		.loc 2 395 3 discriminator 5 view .LVU253
 682              		.loc 2 395 3 discriminator 5 view .LVU254
 683              		.loc 2 399 3 discriminator 5 view .LVU255
 684              	.LBB112:
ARM GAS  C:\Users\DEVELO~1\AppData\Local\Temp\ccPQmLBO.s 			page 13


 685              		.loc 3 864 27 discriminator 5 view .LVU256
 686              		.loc 3 867 3 discriminator 5 view .LVU257
 687              	.LBB110:
 688              		.loc 4 491 27 discriminator 5 view .LVU258
 689              	.LBB108:
 690              		.loc 4 493 3 discriminator 5 view .LVU259
 691 00f6 0023     		movs	r3, #0
 692              		.syntax unified
 693              	@ 493 "./ChibiOS/os/common/ext/ARM/CMSIS/Core/Include/cmsis_gcc.h" 1
 694 00f8 83F31188 		MSR basepri, r3
 695              	@ 0 "" 2
 696              	.LVL40:
 697              		.loc 4 493 3 is_stmt 0 discriminator 5 view .LVU260
 698              		.thumb
 699              		.syntax unified
 700              	.LBE108:
 701              	.LBE110:
 702              	.LBE112:
 703              	.LBE114:
 704              	.LBE147:
 705              		.loc 1 358 3 is_stmt 1 discriminator 5 view .LVU261
 706              		.loc 1 359 1 is_stmt 0 discriminator 5 view .LVU262
 707 00fc 2046     		mov	r0, r4
 708 00fe BDE8F88F 		pop	{r3, r4, r5, r6, r7, r8, r9, r10, fp, pc}
 709              		.loc 1 359 1 discriminator 5 view .LVU263
 710              		.cfi_endproc
 711              	.LFE355:
 712              		.size	chCacheGetObject, .-chCacheGetObject
 713 0102 00BF     		.section	.text.chCacheReleaseObjectI,"ax",%progbits
 714              		.align	1
 715              		.p2align 4,,15
 716              		.global	chCacheReleaseObjectI
 717              		.syntax unified
 718              		.thumb
 719              		.thumb_func
 720              		.type	chCacheReleaseObjectI, %function
 721              	chCacheReleaseObjectI:
 722              	.LVL41:
 723              	.LFB356:
 724              		.loc 1 378 47 is_stmt 1 view -0
 725              		.cfi_startproc
 726              		@ args = 0, pretend = 0, frame = 0
 727              		@ frame_needed = 0, uses_anonymous_args = 0
 728              		.loc 1 381 3 view .LVU265
 729              		.loc 1 381 3 view .LVU266
 730              		.loc 1 381 3 view .LVU267
 731              		.loc 1 385 3 view .LVU268
 732              		.loc 1 385 3 view .LVU269
 733              		.loc 1 385 3 view .LVU270
 734              		.loc 1 390 3 view .LVU271
 735              		.loc 1 390 6 is_stmt 0 view .LVU272
 736 0000 0B6A     		ldr	r3, [r1, #32]
 737 0002 002B     		cmp	r3, #0
 738              		.loc 1 394 21 view .LVU273
 739 0004 4B6A     		ldr	r3, [r1, #36]
 740              		.loc 1 378 47 view .LVU274
 741 0006 10B5     		push	{r4, lr}
ARM GAS  C:\Users\DEVELO~1\AppData\Local\Temp\ccPQmLBO.s 			page 14


 742              		.cfi_def_cfa_offset 8
 743              		.cfi_offset 4, -8
 744              		.cfi_offset 14, -4
 745              		.loc 1 378 47 view .LVU275
 746 0008 0C46     		mov	r4, r1
 747              	.LVL42:
 748              	.LBB148:
 749              	.LBI148:
 750              		.loc 5 190 21 is_stmt 1 view .LVU276
 751              	.LBB149:
 752              		.loc 5 192 21 view .LVU277
 753              		.loc 5 194 3 view .LVU278
 754              		.loc 5 194 3 is_stmt 0 view .LVU279
 755              	.LBE149:
 756              	.LBE148:
 757              		.loc 1 390 6 view .LVU280
 758 000a 2EDB     		blt	.L34
 759              		.loc 1 401 3 is_stmt 1 view .LVU281
 760              		.loc 1 401 6 is_stmt 0 view .LVU282
 761 000c 1907     		lsls	r1, r3, #28
 762              	.LVL43:
 763              		.loc 1 401 6 view .LVU283
 764 000e 14D4     		bmi	.L35
 765              		.loc 1 410 5 is_stmt 1 view .LVU284
 766              		.loc 1 410 8 is_stmt 0 view .LVU285
 767 0010 9A06     		lsls	r2, r3, #26
 768 0012 22D4     		bmi	.L31
 769              		.loc 1 412 7 is_stmt 1 view .LVU286
 770 0014 C269     		ldr	r2, [r0, #28]
 771 0016 00F11401 		add	r1, r0, #20
 772 001a C4E90221 		strd	r2, r1, [r4, #8]
 773              		.loc 1 412 7 view .LVU287
 774 001e D460     		str	r4, [r2, #12]
 775              		.loc 1 412 7 view .LVU288
 776 0020 C461     		str	r4, [r0, #28]
 777              		.loc 1 412 33 view .LVU289
 778              	.L32:
 779              		.loc 1 416 33 discriminator 1 view .LVU290
 780              		.loc 1 418 5 discriminator 1 view .LVU291
 781              		.loc 1 419 5 discriminator 1 view .LVU292
 782              		.loc 1 418 21 is_stmt 0 discriminator 1 view .LVU293
 783 0022 03F01203 		and	r3, r3, #18
 784              		.loc 1 419 21 discriminator 1 view .LVU294
 785 0026 43F00103 		orr	r3, r3, #1
 786              	.L30:
 787              		.loc 1 406 21 view .LVU295
 788 002a 6362     		str	r3, [r4, #36]
 789              		.loc 1 423 3 is_stmt 1 view .LVU296
 790 002c 3030     		adds	r0, r0, #48
 791              	.LVL44:
 792              		.loc 1 423 3 is_stmt 0 view .LVU297
 793 002e FFF7FEFF 		bl	chSemSignalI
 794              	.LVL45:
 795              		.loc 1 427 3 is_stmt 1 view .LVU298
 796              	.LBB150:
 797              	.LBI150:
 798              		.loc 5 175 20 view .LVU299
ARM GAS  C:\Users\DEVELO~1\AppData\Local\Temp\ccPQmLBO.s 			page 15


 799              	.LBB151:
 800              		.loc 5 177 21 view .LVU300
 801              		.loc 5 179 3 view .LVU301
 802              		.loc 5 179 10 is_stmt 0 view .LVU302
 803 0032 236A     		ldr	r3, [r4, #32]
 804 0034 0133     		adds	r3, r3, #1
 805 0036 2362     		str	r3, [r4, #32]
 806              	.LVL46:
 807              		.loc 5 179 10 view .LVU303
 808              	.LBE151:
 809              	.LBE150:
 810              		.loc 1 428 1 view .LVU304
 811 0038 10BD     		pop	{r4, pc}
 812              	.LVL47:
 813              	.L35:
 814              		.loc 1 402 5 is_stmt 1 view .LVU305
 815 003a D4E90032 		ldrd	r3, r2, [r4]
 816              		.loc 1 403 5 is_stmt 0 view .LVU306
 817 003e 016A     		ldr	r1, [r0, #32]
 818              		.loc 1 402 5 view .LVU307
 819 0040 1360     		str	r3, [r2]
 820              		.loc 1 402 5 is_stmt 1 view .LVU308
 821 0042 5A60     		str	r2, [r3, #4]
 822              		.loc 1 402 22 view .LVU309
 823              		.loc 1 403 5 view .LVU310
 824 0044 00F11403 		add	r3, r0, #20
 825              		.loc 1 404 21 is_stmt 0 view .LVU311
 826 0048 0022     		movs	r2, #0
 827              		.loc 1 403 5 view .LVU312
 828 004a C4E90231 		strd	r3, r1, [r4, #8]
 829              		.loc 1 403 5 is_stmt 1 view .LVU313
 830 004e 8C60     		str	r4, [r1, #8]
 831              		.loc 1 403 5 view .LVU314
 832 0050 0123     		movs	r3, #1
 833 0052 0462     		str	r4, [r0, #32]
 834              		.loc 1 403 31 view .LVU315
 835              		.loc 1 404 5 view .LVU316
 836              		.loc 1 405 21 is_stmt 0 view .LVU317
 837 0054 C4E90422 		strd	r2, r2, [r4, #16]
 838              		.loc 1 406 5 is_stmt 1 view .LVU318
 839 0058 E7E7     		b	.L30
 840              	.L31:
 841              		.loc 1 416 7 view .LVU319
 842 005a 026A     		ldr	r2, [r0, #32]
 843 005c 00F11401 		add	r1, r0, #20
 844 0060 C4E90212 		strd	r1, r2, [r4, #8]
 845              		.loc 1 416 7 view .LVU320
 846 0064 9460     		str	r4, [r2, #8]
 847              		.loc 1 416 7 view .LVU321
 848 0066 0462     		str	r4, [r0, #32]
 849 0068 DBE7     		b	.L32
 850              	.LVL48:
 851              	.L34:
 852              		.loc 1 394 5 view .LVU322
 853              		.loc 1 394 21 is_stmt 0 view .LVU323
 854 006a 03F01A03 		and	r3, r3, #26
 855              		.loc 1 395 5 view .LVU324
ARM GAS  C:\Users\DEVELO~1\AppData\Local\Temp\ccPQmLBO.s 			page 16


 856 006e 01F11800 		add	r0, r1, #24
 857              	.LVL49:
 858              		.loc 1 428 1 view .LVU325
 859 0072 BDE81040 		pop	{r4, lr}
 860              		.cfi_restore 14
 861              		.cfi_restore 4
 862              		.cfi_def_cfa_offset 0
 863              		.loc 1 394 21 view .LVU326
 864 0076 4B62     		str	r3, [r1, #36]
 865              		.loc 1 395 5 is_stmt 1 view .LVU327
 866 0078 FFF7FEBF 		b	chSemSignalI
 867              	.LVL50:
 868              		.loc 1 395 5 is_stmt 0 view .LVU328
 869              		.cfi_endproc
 870              	.LFE356:
 871              		.size	chCacheReleaseObjectI, .-chCacheReleaseObjectI
 872              		.section	.text.chCacheReadObject,"ax",%progbits
 873              		.align	1
 874              		.p2align 4,,15
 875              		.global	chCacheReadObject
 876              		.syntax unified
 877              		.thumb
 878              		.thumb_func
 879              		.type	chCacheReadObject, %function
 880              	chCacheReadObject:
 881              	.LVL51:
 882              	.LFB357:
 883              		.loc 1 449 36 is_stmt 1 view -0
 884              		.cfi_startproc
 885              		@ args = 0, pretend = 0, frame = 0
 886              		@ frame_needed = 0, uses_anonymous_args = 0
 887              		@ link register save eliminated.
 888              		.loc 1 454 3 view .LVU330
 889              		.loc 1 449 36 is_stmt 0 view .LVU331
 890 0000 30B4     		push	{r4, r5}
 891              		.cfi_def_cfa_offset 8
 892              		.cfi_offset 4, -8
 893              		.cfi_offset 5, -4
 894              		.loc 1 454 19 view .LVU332
 895 0002 4C6A     		ldr	r4, [r1, #36]
 896              		.loc 1 456 10 view .LVU333
 897 0004 C56B     		ldr	r5, [r0, #60]
 898              		.loc 1 454 19 view .LVU334
 899 0006 44F00804 		orr	r4, r4, #8
 900              		.loc 1 456 10 view .LVU335
 901 000a 2B46     		mov	r3, r5
 902              		.loc 1 454 19 view .LVU336
 903 000c 4C62     		str	r4, [r1, #36]
 904              		.loc 1 456 3 is_stmt 1 view .LVU337
 905              		.loc 1 457 1 is_stmt 0 view .LVU338
 906 000e 30BC     		pop	{r4, r5}
 907              		.cfi_restore 5
 908              		.cfi_restore 4
 909              		.cfi_def_cfa_offset 0
 910              		.loc 1 456 10 view .LVU339
 911 0010 1847     		bx	r3
 912              	.LVL52:
ARM GAS  C:\Users\DEVELO~1\AppData\Local\Temp\ccPQmLBO.s 			page 17


 913              		.loc 1 456 10 view .LVU340
 914              		.cfi_endproc
 915              	.LFE357:
 916              		.size	chCacheReadObject, .-chCacheReadObject
 917 0012 00BF     		.section	.text.chCacheWriteObject,"ax",%progbits
 918              		.align	1
 919              		.p2align 4,,15
 920              		.global	chCacheWriteObject
 921              		.syntax unified
 922              		.thumb
 923              		.thumb_func
 924              		.type	chCacheWriteObject, %function
 925              	chCacheWriteObject:
 926              	.LVL53:
 927              	.LFB358:
 928              		.loc 1 478 37 is_stmt 1 view -0
 929              		.cfi_startproc
 930              		@ args = 0, pretend = 0, frame = 0
 931              		@ frame_needed = 0, uses_anonymous_args = 0
 932              		@ link register save eliminated.
 933              		.loc 1 482 3 view .LVU342
 934              		.loc 1 478 37 is_stmt 0 view .LVU343
 935 0000 30B4     		push	{r4, r5}
 936              		.cfi_def_cfa_offset 8
 937              		.cfi_offset 4, -8
 938              		.cfi_offset 5, -4
 939              		.loc 1 482 19 view .LVU344
 940 0002 4C6A     		ldr	r4, [r1, #36]
 941              		.loc 1 484 10 view .LVU345
 942 0004 056C     		ldr	r5, [r0, #64]
 943              		.loc 1 482 19 view .LVU346
 944 0006 24F01004 		bic	r4, r4, #16
 945              		.loc 1 484 10 view .LVU347
 946 000a 2B46     		mov	r3, r5
 947              		.loc 1 482 19 view .LVU348
 948 000c 4C62     		str	r4, [r1, #36]
 949              		.loc 1 484 3 is_stmt 1 view .LVU349
 950              		.loc 1 485 1 is_stmt 0 view .LVU350
 951 000e 30BC     		pop	{r4, r5}
 952              		.cfi_restore 5
 953              		.cfi_restore 4
 954              		.cfi_def_cfa_offset 0
 955              		.loc 1 484 10 view .LVU351
 956 0010 1847     		bx	r3
 957              	.LVL54:
 958              		.loc 1 484 10 view .LVU352
 959              		.cfi_endproc
 960              	.LFE358:
 961              		.size	chCacheWriteObject, .-chCacheWriteObject
 962 0012 00BF     		.text
 963              	.Letext0:
 964              		.file 6 "c:\\chibistudio\\tools\\gnu tools arm embedded\\11.3 2022.08\\lib\\gcc\\arm-none-eabi\\11
 965              		.file 7 "c:\\chibistudio\\tools\\gnu tools arm embedded\\11.3 2022.08\\arm-none-eabi\\include\\mac
 966              		.file 8 "c:\\chibistudio\\tools\\gnu tools arm embedded\\11.3 2022.08\\arm-none-eabi\\include\\sys
 967              		.file 9 "./ChibiOS/os/rt/include/chearly.h"
 968              		.file 10 "./ChibiOS/os/rt/include/chlists.h"
 969              		.file 11 "./ChibiOS/os/oslib/include/chobjcaches.h"
ARM GAS  C:\Users\DEVELO~1\AppData\Local\Temp\ccPQmLBO.s 			page 18

