ARM GAS  C:\Users\DEVELO~1\AppData\Local\Temp\ccPQmLBO.s 			page 1


   1              		.cpu cortex-m7
   2              		.arch armv7e-m
   3              		.fpu softvfp
   4              		.eabi_attribute 20, 1
   5              		.eabi_attribute 21, 1
   6              		.eabi_attribute 23, 3
   7              		.eabi_attribute 24, 1
   8              		.eabi_attribute 25, 1
   9              		.eabi_attribute 26, 1
  10              		.eabi_attribute 30, 2
  11              		.eabi_attribute 34, 1
  12              		.eabi_attribute 18, 4
  13              		.file	"chobjcaches.c"
  14              		.text
  15              	.Ltext0:
  16              		.cfi_sections	.debug_frame
  17              		.section	.text.chCacheObjectInit,"ax",%progbits
  18              		.align	1
  19              		.p2align 4,,15
  20              		.global	chCacheObjectInit
  21              		.syntax unified
  22              		.thumb
  23              		.thumb_func
  24              		.type	chCacheObjectInit, %function
  25              	chCacheObjectInit:
  26              	.LVL0:
  27              	.LFB354:
  28              		.file 1 "./ChibiOS/os/oslib/src/chobjcaches.c"
  29              		.loc 1 247 44 view -0
  30              		.cfi_startproc
  31              		@ args = 16, pretend = 0, frame = 0
  32              		@ frame_needed = 0, uses_anonymous_args = 0
  33              		.loc 1 249 3 view .LVU1
  34              		.loc 1 249 3 view .LVU2
  35              		.loc 1 249 3 view .LVU3
  36              		.loc 1 255 3 view .LVU4
  37              		.loc 1 247 44 is_stmt 0 view .LVU5
  38 0000 2DE9F047 		push	{r4, r5, r6, r7, r8, r9, r10, lr}
  39              		.cfi_def_cfa_offset 32
  40              		.cfi_offset 4, -32
  41              		.cfi_offset 5, -28
  42              		.cfi_offset 6, -24
  43              		.cfi_offset 7, -20
  44              		.cfi_offset 8, -16
  45              		.cfi_offset 9, -12
  46              		.cfi_offset 10, -8
  47              		.cfi_offset 14, -4
  48              		.loc 1 247 44 view .LVU6
  49 0004 0646     		mov	r6, r0
  50 0006 1F46     		mov	r7, r3
  51 0008 8946     		mov	r9, r1
  52              		.loc 1 255 3 view .LVU7
  53 000a 2430     		adds	r0, r0, #36
  54              	.LVL1:
  55              		.loc 1 255 3 view .LVU8
  56 000c 0121     		movs	r1, #1
  57              	.LVL2:
ARM GAS  C:\Users\DEVELO~1\AppData\Local\Temp\ccPQmLBO.s 			page 2


  58              		.loc 1 247 44 view .LVU9
  59 000e 1546     		mov	r5, r2
  60 0010 099C     		ldr	r4, [sp, #36]
  61 0012 DDF82080 		ldr	r8, [sp, #32]
  62              		.loc 1 255 3 view .LVU10
  63 0016 FFF7FEFF 		bl	chSemObjectInit
  64              	.LVL3:
  65              		.loc 1 256 3 is_stmt 1 view .LVU11
  66 001a 3946     		mov	r1, r7
  67 001c 06F13000 		add	r0, r6, #48
  68 0020 FFF7FEFF 		bl	chSemObjectInit
  69              	.LVL4:
  70              		.loc 1 257 3 view .LVU12
  71              		.loc 1 261 25 is_stmt 0 view .LVU13
  72 0024 0A9B     		ldr	r3, [sp, #40]
  73              		.loc 1 273 20 view .LVU14
  74 0026 05EBC901 		add	r1, r5, r9, lsl #3
  75              		.loc 1 257 25 view .LVU15
  76 002a C6F80090 		str	r9, [r6]
  77              		.loc 1 258 3 is_stmt 1 view .LVU16
  78              		.loc 1 261 25 is_stmt 0 view .LVU17
  79 002e F363     		str	r3, [r6, #60]
  80              		.loc 1 265 27 view .LVU18
  81 0030 06F11409 		add	r9, r6, #20
  82              	.LVL5:
  83              		.loc 1 262 25 view .LVU19
  84 0034 0B9B     		ldr	r3, [sp, #44]
  85              		.loc 1 260 25 view .LVU20
  86 0036 3461     		str	r4, [r6, #16]
  87              		.loc 1 262 25 view .LVU21
  88 0038 3364     		str	r3, [r6, #64]
  89              		.loc 1 263 25 view .LVU22
  90 003a 0023     		movs	r3, #0
  91              		.loc 1 259 25 view .LVU23
  92 003c C6E90157 		strd	r5, r7, [r6, #4]
  93              		.loc 1 260 3 is_stmt 1 view .LVU24
  94              		.loc 1 261 3 view .LVU25
  95              		.loc 1 262 3 view .LVU26
  96              		.loc 1 263 3 view .LVU27
  97              		.loc 1 264 25 is_stmt 0 view .LVU28
  98 0040 C6E90533 		strd	r3, r3, [r6, #20]
  99              		.loc 1 265 3 is_stmt 1 view .LVU29
 100              		.loc 1 266 25 is_stmt 0 view .LVU30
 101 0044 C6E90799 		strd	r9, r9, [r6, #28]
 102              	.L2:
 103              		.loc 1 269 3 is_stmt 1 discriminator 1 view .LVU31
 104              		.loc 1 270 5 discriminator 1 view .LVU32
 105              		.loc 1 271 17 is_stmt 0 discriminator 1 view .LVU33
 106 0048 C5E90055 		strd	r5, r5, [r5]
 107              		.loc 1 272 5 is_stmt 1 discriminator 1 view .LVU34
 108              		.loc 1 272 10 is_stmt 0 discriminator 1 view .LVU35
 109 004c 0835     		adds	r5, r5, #8
 110              	.LVL6:
 111              		.loc 1 273 18 is_stmt 1 discriminator 1 view .LVU36
 112 004e A942     		cmp	r1, r5
 113 0050 FAD8     		bhi	.L2
 114              	.LBB45:
ARM GAS  C:\Users\DEVELO~1\AppData\Local\Temp\ccPQmLBO.s 			page 3


 115              		.loc 1 279 5 is_stmt 0 view .LVU37
 116 0052 4FF0010A 		mov	r10, #1
 117              		.loc 1 281 21 view .LVU38
 118 0056 0025     		movs	r5, #0
 119              	.LVL7:
 120              	.L3:
 121              		.loc 1 281 21 view .LVU39
 122              	.LBE45:
 123              		.loc 1 276 3 is_stmt 1 discriminator 1 view .LVU40
 124              	.LBB46:
 125              		.loc 1 277 5 discriminator 1 view .LVU41
 126              		.loc 1 279 5 discriminator 1 view .LVU42
 127 0058 04F11800 		add	r0, r4, #24
 128 005c 0121     		movs	r1, #1
 129 005e FFF7FEFF 		bl	chSemObjectInit
 130              	.LVL8:
 131              		.loc 1 280 5 discriminator 1 view .LVU43
 132 0062 F369     		ldr	r3, [r6, #28]
 133              	.LBE46:
 134              		.loc 1 287 17 is_stmt 0 discriminator 1 view .LVU44
 135 0064 013F     		subs	r7, r7, #1
 136              	.LVL9:
 137              	.LBB47:
 138              		.loc 1 280 5 discriminator 1 view .LVU45
 139 0066 C4E90239 		strd	r3, r9, [r4, #8]
 140              		.loc 1 280 5 is_stmt 1 discriminator 1 view .LVU46
 141              		.loc 1 280 5 discriminator 1 view .LVU47
 142 006a DC60     		str	r4, [r3, #12]
 143              		.loc 1 280 5 discriminator 1 view .LVU48
 144 006c F461     		str	r4, [r6, #28]
 145              		.loc 1 280 31 discriminator 1 view .LVU49
 146              		.loc 1 281 5 discriminator 1 view .LVU50
 147              		.loc 1 282 21 is_stmt 0 discriminator 1 view .LVU51
 148 006e C4E90455 		strd	r5, r5, [r4, #16]
 149              		.loc 1 283 5 is_stmt 1 discriminator 1 view .LVU52
 150              		.loc 1 284 21 is_stmt 0 discriminator 1 view .LVU53
 151 0072 C4E909A5 		strd	r10, r5, [r4, #36]
 152              		.loc 1 285 5 is_stmt 1 discriminator 1 view .LVU54
 153              		.loc 1 285 11 is_stmt 0 discriminator 1 view .LVU55
 154 0076 4444     		add	r4, r4, r8
 155              	.LVL10:
 156              		.loc 1 286 5 is_stmt 1 discriminator 1 view .LVU56
 157              		.loc 1 286 5 is_stmt 0 discriminator 1 view .LVU57
 158              	.LBE47:
 159              		.loc 1 287 17 is_stmt 1 discriminator 1 view .LVU58
 160 0078 EED1     		bne	.L3
 161              		.loc 1 288 1 is_stmt 0 view .LVU59
 162 007a BDE8F087 		pop	{r4, r5, r6, r7, r8, r9, r10, pc}
 163              		.loc 1 288 1 view .LVU60
 164              		.cfi_endproc
 165              	.LFE354:
 166              		.size	chCacheObjectInit, .-chCacheObjectInit
 167 007e 00BF     		.section	.text.chCacheGetObject,"ax",%progbits
 168              		.align	1
 169              		.p2align 4,,15
 170              		.global	chCacheGetObject
 171              		.syntax unified
ARM GAS  C:\Users\DEVELO~1\AppData\Local\Temp\ccPQmLBO.s 			page 4


 172              		.thumb
 173              		.thumb_func
 174              		.type	chCacheGetObject, %function
 175              	chCacheGetObject:
 176              	.LVL11:
 177              	.LFB355:
 178              		.loc 1 305 45 is_stmt 1 view -0
 179              		.cfi_startproc
 180              		@ args = 0, pretend = 0, frame = 0
 181              		@ frame_needed = 0, uses_anonymous_args = 0
 182              		.loc 1 306 3 view .LVU62
 183              		.loc 1 309 3 view .LVU63
 184              	.LBB80:
 185              	.LBI80:
 186              		.file 2 "./ChibiOS/os/rt/include/chsys.h"
 187              		.loc 2 372 20 view .LVU64
 188              		.loc 2 374 3 view .LVU65
 189              	.LBB81:
 190              	.LBI81:
 191              		.file 3 "./ChibiOS/os/common/ports/ARMv7-M/chcore.h"
 192              		.loc 3 840 27 view .LVU66
 193              		.loc 3 848 3 view .LVU67
 194              	.LBB82:
 195              	.LBI82:
 196              		.file 4 "./ChibiOS/os/common/ext/ARM/CMSIS/Core/Include/cmsis_gcc.h"
 197              		.loc 4 491 27 view .LVU68
 198              	.LBB83:
 199              		.loc 4 493 3 view .LVU69
 200              	.LBE83:
 201              	.LBE82:
 202              	.LBE81:
 203              	.LBE80:
 204              		.loc 1 305 45 is_stmt 0 view .LVU70
 205 0000 2DE9F84F 		push	{r3, r4, r5, r6, r7, r8, r9, r10, fp, lr}
 206              		.cfi_def_cfa_offset 40
 207              		.cfi_offset 3, -40
 208              		.cfi_offset 4, -36
 209              		.cfi_offset 5, -32
 210              		.cfi_offset 6, -28
 211              		.cfi_offset 7, -24
 212              		.cfi_offset 8, -20
 213              		.cfi_offset 9, -16
 214              		.cfi_offset 10, -12
 215              		.cfi_offset 11, -8
 216              		.cfi_offset 14, -4
 217              	.LBB90:
 218              	.LBB88:
 219              	.LBB86:
 220              	.LBB84:
 221              		.loc 4 493 3 view .LVU71
 222 0004 3023     		movs	r3, #48
 223              	.LBE84:
 224              	.LBE86:
 225              	.LBE88:
 226              	.LBE90:
 227              		.loc 1 305 45 view .LVU72
 228 0006 0646     		mov	r6, r0
ARM GAS  C:\Users\DEVELO~1\AppData\Local\Temp\ccPQmLBO.s 			page 5


 229 0008 0D46     		mov	r5, r1
 230 000a 1746     		mov	r7, r2
 231              	.LBB91:
 232              	.LBB89:
 233              	.LBB87:
 234              	.LBB85:
 235              		.loc 4 493 3 view .LVU73
 236              		.syntax unified
 237              	@ 493 "./ChibiOS/os/common/ext/ARM/CMSIS/Core/Include/cmsis_gcc.h" 1
 238 000c 83F31188 		MSR basepri, r3
 239              	@ 0 "" 2
 240              	.LVL12:
 241              		.loc 4 493 3 view .LVU74
 242              		.thumb
 243              		.syntax unified
 244              	.LBE85:
 245              	.LBE87:
 246              	.LBE89:
 247              		.loc 2 375 35 is_stmt 1 view .LVU75
 248              		.loc 2 376 21 view .LVU76
 249              	.LBE91:
 250              		.loc 1 312 3 view .LVU77
 251              	.LBB92:
 252              	.LBI92:
 253              		.loc 1 134 21 view .LVU78
 254              	.LBB93:
 255              		.loc 1 137 3 view .LVU79
 256              		.loc 1 140 3 view .LVU80
 257              		.loc 1 140 22 is_stmt 0 view .LVU81
 258 0010 0368     		ldr	r3, [r0]
 259 0012 01EB0208 		add	r8, r1, r2
 260              		.loc 1 140 8 view .LVU82
 261 0016 4268     		ldr	r2, [r0, #4]
 262              	.LVL13:
 263              		.loc 1 140 22 view .LVU83
 264 0018 013B     		subs	r3, r3, #1
 265 001a 03EA0803 		and	r3, r3, r8
 266              		.loc 1 140 8 view .LVU84
 267 001e 02EBC301 		add	r1, r2, r3, lsl #3
 268              	.LVL14:
 269              		.loc 1 143 3 is_stmt 1 view .LVU85
 270              		.loc 1 143 5 is_stmt 0 view .LVU86
 271 0022 52F83340 		ldr	r4, [r2, r3, lsl #3]
 272              	.LVL15:
 273              		.loc 1 144 3 is_stmt 1 view .LVU87
 274              		.loc 1 144 12 view .LVU88
 275 0026 A142     		cmp	r1, r4
 276 0028 03D1     		bne	.L12
 277 002a 1BE0     		b	.L9
 278              	.LVL16:
 279              	.L10:
 280              	.LBB94:
 281              		.loc 1 151 7 is_stmt 0 view .LVU89
 282 002c 2468     		ldr	r4, [r4]
 283              	.LVL17:
 284              		.loc 1 151 7 view .LVU90
 285              	.LBE94:
ARM GAS  C:\Users\DEVELO~1\AppData\Local\Temp\ccPQmLBO.s 			page 6


 286              		.loc 1 144 12 is_stmt 1 view .LVU91
 287 002e A142     		cmp	r1, r4
 288 0030 18D0     		beq	.L9
 289              	.L12:
 290              	.LBB95:
 291              		.loc 1 145 5 view .LVU92
 292              	.LVL18:
 293              		.loc 1 146 5 view .LVU93
 294              		.loc 1 151 5 view .LVU94
 295              		.loc 1 146 8 is_stmt 0 view .LVU95
 296 0032 2369     		ldr	r3, [r4, #16]
 297 0034 9D42     		cmp	r5, r3
 298 0036 F9D1     		bne	.L10
 299              		.loc 1 146 36 view .LVU96
 300 0038 6369     		ldr	r3, [r4, #20]
 301 003a 9F42     		cmp	r7, r3
 302 003c F6D1     		bne	.L10
 303              	.LVL19:
 304              		.loc 1 146 36 view .LVU97
 305              	.LBE95:
 306              	.LBE93:
 307              	.LBE92:
 308              		.loc 1 313 3 is_stmt 1 view .LVU98
 309              		.loc 1 315 5 view .LVU99
 310              		.loc 1 315 5 view .LVU100
 311              		.loc 1 315 5 view .LVU101
 312              		.loc 1 320 5 view .LVU102
 313              	.LBB96:
 314              	.LBI96:
 315              		.file 5 "./ChibiOS/os/rt/include/chsem.h"
 316              		.loc 5 190 21 view .LVU103
 317              	.LBB97:
 318              		.loc 5 192 21 view .LVU104
 319              		.loc 5 194 3 view .LVU105
 320              		.loc 5 194 12 is_stmt 0 view .LVU106
 321 003e 236A     		ldr	r3, [r4, #32]
 322              	.LVL20:
 323              		.loc 5 194 12 view .LVU107
 324              	.LBE97:
 325              	.LBE96:
 326              		.loc 1 320 8 view .LVU108
 327 0040 002B     		cmp	r3, #0
 328 0042 54DD     		ble	.L26
 329              		.loc 1 323 7 is_stmt 1 discriminator 5 view .LVU109
 330              		.loc 1 323 7 discriminator 5 view .LVU110
 331              		.loc 1 323 7 discriminator 5 view .LVU111
 332              		.loc 1 327 7 discriminator 5 view .LVU112
 333              		.loc 1 328 23 is_stmt 0 discriminator 5 view .LVU113
 334 0044 626A     		ldr	r2, [r4, #36]
 335              	.LBB98:
 336              	.LBB99:
 337              		.loc 5 163 10 discriminator 5 view .LVU114
 338 0046 013B     		subs	r3, r3, #1
 339              	.LBE99:
 340              	.LBE98:
 341              		.loc 1 327 7 discriminator 5 view .LVU115
 342 0048 D4E90210 		ldrd	r1, r0, [r4, #8]
ARM GAS  C:\Users\DEVELO~1\AppData\Local\Temp\ccPQmLBO.s 			page 7


 343              	.LVL21:
 344              		.loc 1 328 23 discriminator 5 view .LVU116
 345 004c 22F00102 		bic	r2, r2, #1
 346              		.loc 1 327 7 discriminator 5 view .LVU117
 347 0050 8160     		str	r1, [r0, #8]
 348              		.loc 1 327 7 is_stmt 1 discriminator 5 view .LVU118
 349 0052 C860     		str	r0, [r1, #12]
 350              		.loc 1 327 23 discriminator 5 view .LVU119
 351              		.loc 1 328 7 discriminator 5 view .LVU120
 352              	.LBB101:
 353              	.LBB100:
 354              		.loc 5 163 10 is_stmt 0 discriminator 5 view .LVU121
 355 0054 C4E90832 		strd	r3, r2, [r4, #32]
 356              		.loc 5 163 10 discriminator 5 view .LVU122
 357              	.LBE100:
 358              	.LBE101:
 359              		.loc 1 352 39 is_stmt 1 discriminator 5 view .LVU123
 360              		.loc 1 356 3 discriminator 5 view .LVU124
 361              	.LBB102:
 362              	.LBI102:
 363              		.loc 2 386 20 discriminator 5 view .LVU125
 364              	.LBB103:
 365              		.loc 2 388 23 discriminator 5 view .LVU126
 366              		.loc 2 389 34 discriminator 5 view .LVU127
 367              		.loc 2 395 3 discriminator 5 view .LVU128
 368              		.loc 2 395 3 discriminator 5 view .LVU129
 369              		.loc 2 395 3 discriminator 5 view .LVU130
 370              		.loc 2 399 3 discriminator 5 view .LVU131
 371              	.LBB104:
 372              	.LBI104:
 373              		.loc 3 864 27 discriminator 5 view .LVU132
 374              		.loc 3 867 3 discriminator 5 view .LVU133
 375              	.LVL22:
 376              	.LBB105:
 377              	.LBI105:
 378              		.loc 4 491 27 discriminator 5 view .LVU134
 379              	.LBB106:
 380              		.loc 4 493 3 discriminator 5 view .LVU135
 381 0058 0023     		movs	r3, #0
 382              		.syntax unified
 383              	@ 493 "./ChibiOS/os/common/ext/ARM/CMSIS/Core/Include/cmsis_gcc.h" 1
 384 005a 83F31188 		MSR basepri, r3
 385              	@ 0 "" 2
 386              	.LVL23:
 387              		.loc 4 493 3 is_stmt 0 discriminator 5 view .LVU136
 388              		.thumb
 389              		.syntax unified
 390              	.LBE106:
 391              	.LBE105:
 392              	.LBE104:
 393              	.LBE103:
 394              	.LBE102:
 395              		.loc 1 358 3 is_stmt 1 discriminator 5 view .LVU137
 396              		.loc 1 359 1 is_stmt 0 discriminator 5 view .LVU138
 397 005e 2046     		mov	r0, r4
 398 0060 BDE8F88F 		pop	{r3, r4, r5, r6, r7, r8, r9, r10, fp, pc}
 399              	.LVL24:
ARM GAS  C:\Users\DEVELO~1\AppData\Local\Temp\ccPQmLBO.s 			page 8


 400              	.L9:
 401              	.LBB115:
 402              	.LBB116:
 403              		.loc 1 170 12 view .LVU139
 404 0064 06F13009 		add	r9, r6, #48
 405              	.LBB117:
 406              	.LBB118:
 407              	.LBB119:
 408              	.LBB120:
 409              	.LBB121:
 410              		.loc 4 493 3 view .LVU140
 411 0068 4FF0000B 		mov	fp, #0
 412              	.LBE121:
 413              	.LBE120:
 414              	.LBE119:
 415              	.LBE118:
 416              	.LBE117:
 417              		.loc 1 209 21 view .LVU141
 418 006c 4FF0220A 		mov	r10, #34
 419 0070 0BE0     		b	.L13
 420              	.LVL25:
 421              	.L15:
 422              	.LBB130:
 423              	.LBB128:
 424              	.LBB126:
 425              	.LBB124:
 426              	.LBB122:
 427              		.loc 4 493 3 view .LVU142
 428              		.syntax unified
 429              	@ 493 "./ChibiOS/os/common/ext/ARM/CMSIS/Core/Include/cmsis_gcc.h" 1
 430 0072 8BF31188 		MSR basepri, fp
 431              	@ 0 "" 2
 432              	.LVL26:
 433              		.loc 4 493 3 view .LVU143
 434              		.thumb
 435              		.syntax unified
 436              	.LBE122:
 437              	.LBE124:
 438              	.LBE126:
 439              	.LBE128:
 440              	.LBE130:
 441              		.loc 1 209 5 is_stmt 1 view .LVU144
 442              		.loc 1 210 12 is_stmt 0 view .LVU145
 443 0076 0122     		movs	r2, #1
 444 0078 336C     		ldr	r3, [r6, #64]
 445 007a 2146     		mov	r1, r4
 446 007c 3046     		mov	r0, r6
 447              		.loc 1 209 21 view .LVU146
 448 007e C4F824A0 		str	r10, [r4, #36]
 449              		.loc 1 210 5 is_stmt 1 view .LVU147
 450              		.loc 1 210 12 is_stmt 0 view .LVU148
 451 0082 9847     		blx	r3
 452              	.LVL27:
 453              		.loc 1 213 5 is_stmt 1 view .LVU149
 454              	.LBB131:
 455              	.LBI131:
 456              		.loc 2 372 20 view .LVU150
ARM GAS  C:\Users\DEVELO~1\AppData\Local\Temp\ccPQmLBO.s 			page 9


 457              	.LBB132:
 458              		.loc 2 374 3 view .LVU151
 459              	.LBB133:
 460              	.LBI133:
 461              		.loc 3 840 27 view .LVU152
 462              		.loc 3 848 3 view .LVU153
 463              	.LBB134:
 464              	.LBI134:
 465              		.loc 4 491 27 view .LVU154
 466              	.LBB135:
 467              		.loc 4 493 3 view .LVU155
 468 0084 3023     		movs	r3, #48
 469              		.syntax unified
 470              	@ 493 "./ChibiOS/os/common/ext/ARM/CMSIS/Core/Include/cmsis_gcc.h" 1
 471 0086 83F31188 		MSR basepri, r3
 472              	@ 0 "" 2
 473              	.LVL28:
 474              		.loc 4 493 3 is_stmt 0 view .LVU156
 475              		.thumb
 476              		.syntax unified
 477              	.LBE135:
 478              	.LBE134:
 479              	.LBE133:
 480              		.loc 2 375 35 is_stmt 1 view .LVU157
 481              		.loc 2 376 21 view .LVU158
 482              	.L13:
 483              		.loc 2 376 21 is_stmt 0 view .LVU159
 484              	.LBE132:
 485              	.LBE131:
 486              		.loc 1 166 3 is_stmt 1 view .LVU160
 487              		.loc 1 168 3 view .LVU161
 488              		.loc 1 170 5 view .LVU162
 489              		.loc 1 170 12 is_stmt 0 view .LVU163
 490 008a 4846     		mov	r0, r9
 491 008c FFF7FEFF 		bl	chSemWaitS
 492              	.LVL29:
 493              		.loc 1 174 5 is_stmt 1 view .LVU164
 494              		.loc 1 204 5 view .LVU165
 495              	.LBB136:
 496              	.LBI117:
 497              		.loc 2 386 20 view .LVU166
 498              	.LBB129:
 499              		.loc 2 388 23 view .LVU167
 500              		.loc 2 389 34 view .LVU168
 501              		.loc 2 395 3 view .LVU169
 502              		.loc 2 395 3 view .LVU170
 503              		.loc 2 395 3 view .LVU171
 504              		.loc 2 399 3 view .LVU172
 505              	.LBB127:
 506              	.LBI119:
 507              		.loc 3 864 27 view .LVU173
 508              		.loc 3 867 3 view .LVU174
 509              	.LBB125:
 510              	.LBI120:
 511              		.loc 4 491 27 view .LVU175
 512              	.LBB123:
 513              		.loc 4 493 3 view .LVU176
ARM GAS  C:\Users\DEVELO~1\AppData\Local\Temp\ccPQmLBO.s 			page 10


 514              	.LBE123:
 515              	.LBE125:
 516              	.LBE127:
 517              	.LBE129:
 518              	.LBE136:
 519              		.loc 1 174 10 is_stmt 0 view .LVU177
 520 0090 346A     		ldr	r4, [r6, #32]
 521              	.LVL30:
 522              		.loc 1 176 5 is_stmt 1 view .LVU178
 523              		.loc 1 176 5 view .LVU179
 524              		.loc 1 176 5 view .LVU180
 525              		.loc 1 178 5 view .LVU181
 526              		.loc 1 178 5 view .LVU182
 527              		.loc 1 178 5 view .LVU183
 528              		.loc 1 181 5 view .LVU184
 529              	.LBB137:
 530              	.LBB138:
 531              		.loc 5 163 10 is_stmt 0 view .LVU185
 532 0092 D4E90832 		ldrd	r3, r2, [r4, #32]
 533              	.LBE138:
 534              	.LBE137:
 535              		.loc 1 181 5 view .LVU186
 536 0096 D4E90210 		ldrd	r1, r0, [r4, #8]
 537              	.LBB141:
 538              	.LBB139:
 539              		.loc 5 163 10 view .LVU187
 540 009a 013B     		subs	r3, r3, #1
 541              	.LBE139:
 542              	.LBE141:
 543              		.loc 1 181 5 view .LVU188
 544 009c 8160     		str	r1, [r0, #8]
 545              		.loc 1 181 5 is_stmt 1 view .LVU189
 546 009e C860     		str	r0, [r1, #12]
 547              		.loc 1 181 21 view .LVU190
 548              		.loc 1 182 5 view .LVU191
 549              		.loc 1 182 21 is_stmt 0 view .LVU192
 550 00a0 22F00101 		bic	r1, r2, #1
 551 00a4 C4E90831 		strd	r3, r1, [r4, #32]
 552              		.loc 1 186 5 is_stmt 1 view .LVU193
 553              	.LVL31:
 554              	.LBB142:
 555              	.LBI137:
 556              		.loc 5 159 20 view .LVU194
 557              	.LBB140:
 558              		.loc 5 161 21 view .LVU195
 559              		.loc 5 163 3 view .LVU196
 560              		.loc 5 163 3 is_stmt 0 view .LVU197
 561              	.LBE140:
 562              	.LBE142:
 563              		.loc 1 190 5 is_stmt 1 view .LVU198
 564              		.loc 1 190 8 is_stmt 0 view .LVU199
 565 00a8 D106     		lsls	r1, r2, #27
 566 00aa E2D4     		bmi	.L15
 567              		.loc 1 193 7 is_stmt 1 view .LVU200
 568              		.loc 1 193 10 is_stmt 0 view .LVU201
 569 00ac 9307     		lsls	r3, r2, #30
 570 00ae 04D5     		bpl	.L16
ARM GAS  C:\Users\DEVELO~1\AppData\Local\Temp\ccPQmLBO.s 			page 11


 571              		.loc 1 194 9 is_stmt 1 view .LVU202
 572 00b0 D4E90023 		ldrd	r2, r3, [r4]
 573 00b4 1A60     		str	r2, [r3]
 574              		.loc 1 194 9 view .LVU203
 575 00b6 2268     		ldr	r2, [r4]
 576 00b8 5360     		str	r3, [r2, #4]
 577              	.L16:
 578              		.loc 1 194 26 view .LVU204
 579              		.loc 1 198 7 view .LVU205
 580              		.loc 1 200 7 view .LVU206
 581              	.LVL32:
 582              		.loc 1 200 7 is_stmt 0 view .LVU207
 583              	.LBE116:
 584              	.LBE115:
 585              		.loc 1 349 5 is_stmt 1 view .LVU208
 586              		.loc 1 351 21 is_stmt 0 view .LVU209
 587 00ba 0A21     		movs	r1, #10
 588              		.loc 1 349 21 view .LVU210
 589 00bc 2561     		str	r5, [r4, #16]
 590              		.loc 1 350 5 is_stmt 1 view .LVU211
 591              	.LBB143:
 592              		.loc 1 352 5 is_stmt 0 view .LVU212
 593 00be D6E90032 		ldrd	r3, r2, [r6]
 594              	.LBE143:
 595              		.loc 1 351 21 view .LVU213
 596 00c2 6162     		str	r1, [r4, #36]
 597              	.LBB144:
 598              		.loc 1 352 5 view .LVU214
 599 00c4 013B     		subs	r3, r3, #1
 600              	.LBE144:
 601              		.loc 1 350 21 view .LVU215
 602 00c6 6761     		str	r7, [r4, #20]
 603              		.loc 1 351 5 is_stmt 1 view .LVU216
 604              	.LBB145:
 605              		.loc 1 352 5 view .LVU217
 606              		.loc 1 352 5 view .LVU218
 607 00c8 03EA0803 		and	r3, r3, r8
 608 00cc 52F83310 		ldr	r1, [r2, r3, lsl #3]
 609 00d0 02EBC300 		add	r0, r2, r3, lsl #3
 610              	.LVL33:
 611              		.loc 1 352 5 view .LVU219
 612 00d4 2160     		str	r1, [r4]
 613              		.loc 1 352 5 view .LVU220
 614 00d6 52F83310 		ldr	r1, [r2, r3, lsl #3]
 615 00da 6060     		str	r0, [r4, #4]
 616              		.loc 1 352 5 view .LVU221
 617 00dc 4C60     		str	r4, [r1, #4]
 618              		.loc 1 352 5 view .LVU222
 619 00de 42F83340 		str	r4, [r2, r3, lsl #3]
 620              		.loc 1 352 5 is_stmt 0 view .LVU223
 621              	.LBE145:
 622              		.loc 1 352 39 is_stmt 1 view .LVU224
 623              		.loc 1 356 3 view .LVU225
 624              	.LBB146:
 625              		.loc 2 386 20 view .LVU226
 626              	.LBB113:
 627              		.loc 2 388 23 view .LVU227
ARM GAS  C:\Users\DEVELO~1\AppData\Local\Temp\ccPQmLBO.s 			page 12


 628              		.loc 2 389 34 view .LVU228
 629              		.loc 2 395 3 view .LVU229
 630              		.loc 2 395 3 view .LVU230
 631              		.loc 2 395 3 view .LVU231
 632              		.loc 2 399 3 view .LVU232
 633              	.LBB111:
 634              		.loc 3 864 27 view .LVU233
 635              		.loc 3 867 3 view .LVU234
 636              	.LVL34:
 637              	.LBB109:
 638              		.loc 4 491 27 view .LVU235
 639              	.LBB107:
 640              		.loc 4 493 3 view .LVU236
 641 00e2 0023     		movs	r3, #0
 642              		.syntax unified
 643              	@ 493 "./ChibiOS/os/common/ext/ARM/CMSIS/Core/Include/cmsis_gcc.h" 1
 644 00e4 83F31188 		MSR basepri, r3
 645              	@ 0 "" 2
 646              	.LVL35:
 647              		.loc 4 493 3 is_stmt 0 view .LVU237
 648              		.thumb
 649              		.syntax unified
 650              	.LBE107:
 651              	.LBE109:
 652              	.LBE111:
 653              	.LBE113:
 654              	.LBE146:
 655              		.loc 1 358 3 is_stmt 1 view .LVU238
 656              		.loc 1 359 1 is_stmt 0 view .LVU239
 657 00e8 2046     		mov	r0, r4
 658              	.LVL36:
 659              		.loc 1 359 1 view .LVU240
 660 00ea BDE8F88F 		pop	{r3, r4, r5, r6, r7, r8, r9, r10, fp, pc}
 661              	.LVL37:
 662              	.L26:
 663              		.loc 1 338 7 is_stmt 1 discriminator 5 view .LVU241
 664              		.loc 1 338 7 discriminator 5 view .LVU242
 665              		.loc 1 338 7 discriminator 5 view .LVU243
 666              		.loc 1 341 7 discriminator 5 view .LVU244
 667              		.loc 1 341 14 is_stmt 0 discriminator 5 view .LVU245
 668 00ee 04F11800 		add	r0, r4, #24
 669              	.LVL38:
 670              		.loc 1 341 14 discriminator 5 view .LVU246
 671 00f2 FFF7FEFF 		bl	chSemWaitS
 672              	.LVL39:
 673              		.loc 1 352 39 is_stmt 1 discriminator 5 view .LVU247
 674              		.loc 1 356 3 discriminator 5 view .LVU248
 675              	.LBB147:
 676              		.loc 2 386 20 discriminator 5 view .LVU249
 677              	.LBB114:
 678              		.loc 2 388 23 discriminator 5 view .LVU250
 679              		.loc 2 389 34 discriminator 5 view .LVU251
 680              		.loc 2 395 3 discriminator 5 view .LVU252
 681              		.loc 2 395 3 discriminator 5 view .LVU253
 682              		.loc 2 395 3 discriminator 5 view .LVU254
 683              		.loc 2 399 3 discriminator 5 view .LVU255
 684              	.LBB112:
ARM GAS  C:\Users\DEVELO~1\AppData\Local\Temp\ccPQmLBO.s 			page 13


 685              		.loc 3 864 27 discriminator 5 view .LVU256
 686              		.loc 3 867 3 discriminator 5 view .LVU257
 687              	.LBB110:
 688              		.loc 4 491 27 discriminator 5 view .LVU258
 689              	.LBB108:
 690              		.loc 4 493 3 discriminator 5 view .LVU259
 691 00f6 0023     		movs	r3, #0
 692              		.syntax unified
 693              	@ 493 "./ChibiOS/os/common/ext/ARM/CMSIS/Core/Include/cmsis_gcc.h" 1
 694 00f8 83F31188 		MSR basepri, r3
 695              	@ 0 "" 2
 696              	.LVL40:
 697              		.loc 4 493 3 is_stmt 0 discriminator 5 view .LVU260
 698              		.thumb
 699              		.syntax unified
 700              	.LBE108:
 701              	.LBE110:
 702              	.LBE112:
 703              	.LBE114:
 704              	.LBE147:
 705              		.loc 1 358 3 is_stmt 1 discriminator 5 view .LVU261
 706              		.loc 1 359 1 is_stmt 0 discriminator 5 view .LVU262
 707 00fc 2046     		mov	r0, r4
 708 00fe BDE8F88F 		pop	{r3, r4, r5, r6, r7, r8, r9, r10, fp, pc}
 709              		.loc 1 359 1 discriminator 5 view .LVU263
 710              		.cfi_endproc
 711              	.LFE355:
 712              		.size	chCacheGetObject, .-chCacheGetObject
 713 0102 00BF     		.section	.text.chCacheReleaseObjectI,"ax",%progbits
 714              		.align	1
 715              		.p2align 4,,15
 716              		.global	chCacheReleaseObjectI
 717              		.syntax unified
 718              		.thumb
 719              		.thumb_func
 720              		.type	chCacheReleaseObjectI, %function
 721              	chCacheReleaseObjectI:
 722              	.LVL41:
 723              	.LFB356:
 724              		.loc 1 378 47 is_stmt 1 view -0
 725              		.cfi_startproc
 726              		@ args = 0, pretend = 0, frame = 0
 727              		@ frame_needed = 0, uses_anonymous_args = 0
 728              		.loc 1 381 3 view .LVU265
 729              		.loc 1 381 3 view .LVU266
 730              		.loc 1 381 3 view .LVU267
 731              		.loc 1 385 3 view .LVU268
 732              		.loc 1 385 3 view .LVU269
 733              		.loc 1 385 3 view .LVU270
 734              		.loc 1 390 3 view .LVU271
 735              		.loc 1 390 6 is_stmt 0 view .LVU272
 736 0000 0B6A     		ldr	r3, [r1, #32]
 737 0002 002B     		cmp	r3, #0
 738              		.loc 1 394 21 view .LVU273
 739 0004 4B6A     		ldr	r3, [r1, #36]
 740              		.loc 1 378 47 view .LVU274
 741 0006 10B5     		push	{r4, lr}
ARM GAS  C:\Users\DEVELO~1\AppData\Local\Temp\ccPQmLBO.s 			page 14


 742              		.cfi_def_cfa_offset 8
 743              		.cfi_offset 4, -8
 744              		.cfi_offset 14, -4
 745              		.loc 1 378 47 view .LVU275
 746 0008 0C46     		mov	r4, r1
 747              	.LVL42:
 748              	.LBB148:
 749              	.LBI148:
 750              		.loc 5 190 21 is_stmt 1 view .LVU276
 751              	.LBB149:
 752              		.loc 5 192 21 view .LVU277
 753              		.loc 5 194 3 view .LVU278
 754              		.loc 5 194 3 is_stmt 0 view .LVU279
 755              	.LBE149:
 756              	.LBE148:
 757              		.loc 1 390 6 view .LVU280
 758 000a 2EDB     		blt	.L34
 759              		.loc 1 401 3 is_stmt 1 view .LVU281
 760              		.loc 1 401 6 is_stmt 0 view .LVU282
 761 000c 1907     		lsls	r1, r3, #28
 762              	.LVL43:
 763              		.loc 1 401 6 view .LVU283
 764 000e 14D4     		bmi	.L35
 765              		.loc 1 410 5 is_stmt 1 view .LVU284
 766              		.loc 1 410 8 is_stmt 0 view .LVU285
 767 0010 9A06     		lsls	r2, r3, #26
 768 0012 22D4     		bmi	.L31
 769              		.loc 1 412 7 is_stmt 1 view .LVU286
 770 0014 C269     		ldr	r2, [r0, #28]
 771 0016 00F11401 		add	r1, r0, #20
 772 001a C4E90221 		strd	r2, r1, [r4, #8]
 773              		.loc 1 412 7 view .LVU287
 774 001e D460     		str	r4, [r2, #12]
 775              		.loc 1 412 7 view .LVU288
 776 0020 C461     		str	r4, [r0, #28]
 777              		.loc 1 412 33 view .LVU289
 778              	.L32:
 779              		.loc 1 416 33 discriminator 1 view .LVU290
 780              		.loc 1 418 5 discriminator 1 view .LVU291
 781              		.loc 1 419 5 discriminator 1 view .LVU292
 782              		.loc 1 418 21 is_stmt 0 discriminator 1 view .LVU293
 783 0022 03F01203 		and	r3, r3, #18
 784              		.loc 1 419 21 discriminator 1 view .LVU294
 785 0026 43F00103 		orr	r3, r3, #1
 786              	.L30:
 787              		.loc 1 406 21 view .LVU295
 788 002a 6362     		str	r3, [r4, #36]
 789              		.loc 1 423 3 is_stmt 1 view .LVU296
 790 002c 3030     		adds	r0, r0, #48
 791              	.LVL44:
 792              		.loc 1 423 3 is_stmt 0 view .LVU297
 793 002e FFF7FEFF 		bl	chSemSignalI
 794              	.LVL45:
 795              		.loc 1 427 3 is_stmt 1 view .LVU298
 796              	.LBB150:
 797              	.LBI150:
 798              		.loc 5 175 20 view .LVU299
ARM GAS  C:\Users\DEVELO~1\AppData\Local\Temp\ccPQmLBO.s 			page 15


 799              	.LBB151:
 800              		.loc 5 177 21 view .LVU300
 801              		.loc 5 179 3 view .LVU301
 802              		.loc 5 179 10 is_stmt 0 view .LVU302
 803 0032 236A     		ldr	r3, [r4, #32]
 804 0034 0133     		adds	r3, r3, #1
 805 0036 2362     		str	r3, [r4, #32]
 806              	.LVL46:
 807              		.loc 5 179 10 view .LVU303
 808              	.LBE151:
 809              	.LBE150:
 810              		.loc 1 428 1 view .LVU304
 811 0038 10BD     		pop	{r4, pc}
 812              	.LVL47:
 813              	.L35:
 814              		.loc 1 402 5 is_stmt 1 view .LVU305
 815 003a D4E90032 		ldrd	r3, r2, [r4]
 816              		.loc 1 403 5 is_stmt 0 view .LVU306
 817 003e 016A     		ldr	r1, [r0, #32]
 818              		.loc 1 402 5 view .LVU307
 819 0040 1360     		str	r3, [r2]
 820              		.loc 1 402 5 is_stmt 1 view .LVU308
 821 0042 5A60     		str	r2, [r3, #4]
 822              		.loc 1 402 22 view .LVU309
 823              		.loc 1 403 5 view .LVU310
 824 0044 00F11403 		add	r3, r0, #20
 825              		.loc 1 404 21 is_stmt 0 view .LVU311
 826 0048 0022     		movs	r2, #0
 827              		.loc 1 403 5 view .LVU312
 828 004a C4E90231 		strd	r3, r1, [r4, #8]
 829              		.loc 1 403 5 is_stmt 1 view .LVU313
 830 004e 8C60     		str	r4, [r1, #8]
 831              		.loc 1 403 5 view .LVU314
 832 0050 0123     		movs	r3, #1
 833 0052 0462     		str	r4, [r0, #32]
 834              		.loc 1 403 31 view .LVU315
 835              		.loc 1 404 5 view .LVU316
 836              		.loc 1 405 21 is_stmt 0 view .LVU317
 837 0054 C4E90422 		strd	r2, r2, [r4, #16]
 838              		.loc 1 406 5 is_stmt 1 view .LVU318
 839 0058 E7E7     		b	.L30
 840              	.L31:
 841              		.loc 1 416 7 view .LVU319
 842 005a 026A     		ldr	r2, [r0, #32]
 843 005c 00F11401 		add	r1, r0, #20
 844 0060 C4E90212 		strd	r1, r2, [r4, #8]
 845              		.loc 1 416 7 view .LVU320
 846 0064 9460     		str	r4, [r2, #8]
 847              		.loc 1 416 7 view .LVU321
 848 0066 0462     		str	r4, [r0, #32]
 849 0068 DBE7     		b	.L32
 850              	.LVL48:
 851              	.L34:
 852              		.loc 1 394 5 view .LVU322
 853              		.loc 1 394 21 is_stmt 0 view .LVU323
 854 006a 03F01A03 		and	r3, r3, #26
 855              		.loc 1 395 5 view .LVU324
ARM GAS  C:\Users\DEVELO~1\AppData\Local\Temp\ccPQmLBO.s 			page 16


 856 006e 01F11800 		add	r0, r1, #24
 857              	.LVL49:
 858              		.loc 1 428 1 view .LVU325
 859 0072 BDE81040 		pop	{r4, lr}
 860              		.cfi_restore 14
 861              		.cfi_restore 4
 862              		.cfi_def_cfa_offset 0
 863              		.loc 1 394 21 view .LVU326
 864 0076 4B62     		str	r3, [r1, #36]
 865              		.loc 1 395 5 is_stmt 1 view .LVU327
 866 0078 FFF7FEBF 		b	chSemSignalI
 867              	.LVL50:
 868              		.loc 1 395 5 is_stmt 0 view .LVU328
 869              		.cfi_endproc
 870              	.LFE356:
 871              		.size	chCacheReleaseObjectI, .-chCacheReleaseObjectI
 872              		.section	.text.chCacheReadObject,"ax",%progbits
 873              		.align	1
 874              		.p2align 4,,15
 875              		.global	chCacheReadObject
 876              		.syntax unified
 877              		.thumb
 878              		.thumb_func
 879              		.type	chCacheReadObject, %function
 880              	chCacheReadObject:
 881              	.LVL51:
 882              	.LFB357:
 883              		.loc 1 449 36 is_stmt 1 view -0
 884              		.cfi_startproc
 885              		@ args = 0, pretend = 0, frame = 0
 886              		@ frame_needed = 0, uses_anonymous_args = 0
 887              		@ link register save eliminated.
 888              		.loc 1 454 3 view .LVU330
 889              		.loc 1 449 36 is_stmt 0 view .LVU331
 890 0000 30B4     		push	{r4, r5}
 891              		.cfi_def_cfa_offset 8
 892              		.cfi_offset 4, -8
 893              		.cfi_offset 5, -4
 894              		.loc 1 454 19 view .LVU332
 895 0002 4C6A     		ldr	r4, [r1, #36]
 896              		.loc 1 456 10 view .LVU333
 897 0004 C56B     		ldr	r5, [r0, #60]
 898              		.loc 1 454 19 view .LVU334
 899 0006 44F00804 		orr	r4, r4, #8
 900              		.loc 1 456 10 view .LVU335
 901 000a 2B46     		mov	r3, r5
 902              		.loc 1 454 19 view .LVU336
 903 000c 4C62     		str	r4, [r1, #36]
 904              		.loc 1 456 3 is_stmt 1 view .LVU337
 905              		.loc 1 457 1 is_stmt 0 view .LVU338
 906 000e 30BC     		pop	{r4, r5}
 907              		.cfi_restore 5
 908              		.cfi_restore 4
 909              		.cfi_def_cfa_offset 0
 910              		.loc 1 456 10 view .LVU339
 911 0010 1847     		bx	r3
 912              	.LVL52:
ARM GAS  C:\Users\DEVELO~1\AppData\Local\Temp\ccPQmLBO.s 			page 17


 913              		.loc 1 456 10 view .LVU340
 914              		.cfi_endproc
 915              	.LFE357:
 916              		.size	chCacheReadObject, .-chCacheReadObject
 917 0012 00BF     		.section	.text.chCacheWriteObject,"ax",%progbits
 918              		.align	1
 919              		.p2align 4,,15
 920              		.global	chCacheWriteObject
 921              		.syntax unified
 922              		.thumb
 923              		.thumb_func
 924              		.type	chCacheWriteObject, %function
 925              	chCacheWriteObject:
 926              	.LVL53:
 927              	.LFB358:
 928              		.loc 1 478 37 is_stmt 1 view -0
 929              		.cfi_startproc
 930              		@ args = 0, pretend = 0, frame = 0
 931              		@ frame_needed = 0, uses_anonymous_args = 0
 932              		@ link register save eliminated.
 933              		.loc 1 482 3 view .LVU342
 934              		.loc 1 478 37 is_stmt 0 view .LVU343
 935 0000 30B4     		push	{r4, r5}
 936              		.cfi_def_cfa_offset 8
 937              		.cfi_offset 4, -8
 938              		.cfi_offset 5, -4
 939              		.loc 1 482 19 view .LVU344
 940 0002 4C6A     		ldr	r4, [r1, #36]
 941              		.loc 1 484 10 view .LVU345
 942 0004 056C     		ldr	r5, [r0, #64]
 943              		.loc 1 482 19 view .LVU346
 944 0006 24F01004 		bic	r4, r4, #16
 945              		.loc 1 484 10 view .LVU347
 946 000a 2B46     		mov	r3, r5
 947              		.loc 1 482 19 view .LVU348
 948 000c 4C62     		str	r4, [r1, #36]
 949              		.loc 1 484 3 is_stmt 1 view .LVU349
 950              		.loc 1 485 1 is_stmt 0 view .LVU350
 951 000e 30BC     		pop	{r4, r5}
 952              		.cfi_restore 5
 953              		.cfi_restore 4
 954              		.cfi_def_cfa_offset 0
 955              		.loc 1 484 10 view .LVU351
 956 0010 1847     		bx	r3
 957              	.LVL54:
 958              		.loc 1 484 10 view .LVU352
 959              		.cfi_endproc
 960              	.LFE358:
 961              		.size	chCacheWriteObject, .-chCacheWriteObject
 962 0012 00BF     		.text
 963              	.Letext0:
 964              		.file 6 "c:\\chibistudio\\tools\\gnu tools arm embedded\\11.3 2022.08\\lib\\gcc\\arm-none-eabi\\11
 965              		.file 7 "c:\\chibistudio\\tools\\gnu tools arm embedded\\11.3 2022.08\\arm-none-eabi\\include\\mac
 966              		.file 8 "c:\\chibistudio\\tools\\gnu tools arm embedded\\11.3 2022.08\\arm-none-eabi\\include\\sys
 967              		.file 9 "./ChibiOS/os/rt/include/chearly.h"
 968              		.file 10 "./ChibiOS/os/rt/include/chlists.h"
 969              		.file 11 "./ChibiOS/os/oslib/include/chobjcaches.h"
ARM GAS  C:\Users\DEVELO~1\AppData\Local\Temp\ccPQmLBO.s 			page 18


 970              		.section	.debug_info,"",%progbits
 971              	.Ldebug_info0:
 972 0000 A20A0000 		.4byte	0xaa2
 973 0004 0500     		.2byte	0x5
 974 0006 01       		.byte	0x1
 975 0007 04       		.byte	0x4
 976 0008 00000000 		.4byte	.Ldebug_abbrev0
 977 000c 27       		.uleb128 0x27
 978 000d 24030000 		.4byte	.LASF76
 979 0011 1D       		.byte	0x1d
 980 0012 D9030000 		.4byte	.LASF77
 981 0016 92010000 		.4byte	.LASF78
 982 001a 82000000 		.4byte	.LLRL42
 983 001e 00000000 		.4byte	0
 984 0022 00000000 		.4byte	.Ldebug_line0
 985 0026 28       		.uleb128 0x28
 986 0027 04       		.byte	0x4
 987 0028 05       		.byte	0x5
 988 0029 696E7400 		.ascii	"int\000"
 989 002d 02       		.uleb128 0x2
 990 002e 36000000 		.4byte	.LASF4
 991 0032 06       		.byte	0x6
 992 0033 D1       		.byte	0xd1
 993 0034 17       		.byte	0x17
 994 0035 39000000 		.4byte	0x39
 995 0039 04       		.uleb128 0x4
 996 003a 04       		.byte	0x4
 997 003b 07       		.byte	0x7
 998 003c 75020000 		.4byte	.LASF0
 999 0040 04       		.uleb128 0x4
 1000 0041 08       		.byte	0x8
 1001 0042 05       		.byte	0x5
 1002 0043 59010000 		.4byte	.LASF1
 1003 0047 04       		.uleb128 0x4
 1004 0048 08       		.byte	0x8
 1005 0049 04       		.byte	0x4
 1006 004a 4D010000 		.4byte	.LASF2
 1007 004e 04       		.uleb128 0x4
 1008 004f 01       		.byte	0x1
 1009 0050 06       		.byte	0x6
 1010 0051 51020000 		.4byte	.LASF3
 1011 0055 02       		.uleb128 0x2
 1012 0056 E1010000 		.4byte	.LASF5
 1013 005a 07       		.byte	0x7
 1014 005b 2B       		.byte	0x2b
 1015 005c 18       		.byte	0x18
 1016 005d 61000000 		.4byte	0x61
 1017 0061 04       		.uleb128 0x4
 1018 0062 01       		.byte	0x1
 1019 0063 08       		.byte	0x8
 1020 0064 0C020000 		.4byte	.LASF6
 1021 0068 04       		.uleb128 0x4
 1022 0069 02       		.byte	0x2
 1023 006a 05       		.byte	0x5
 1024 006b DA000000 		.4byte	.LASF7
 1025 006f 04       		.uleb128 0x4
 1026 0070 02       		.byte	0x2
ARM GAS  C:\Users\DEVELO~1\AppData\Local\Temp\ccPQmLBO.s 			page 19


 1027 0071 07       		.byte	0x7
 1028 0072 8E020000 		.4byte	.LASF8
 1029 0076 02       		.uleb128 0x2
 1030 0077 47020000 		.4byte	.LASF9
 1031 007b 07       		.byte	0x7
 1032 007c 4D       		.byte	0x4d
 1033 007d 18       		.byte	0x18
 1034 007e 82000000 		.4byte	0x82
 1035 0082 04       		.uleb128 0x4
 1036 0083 04       		.byte	0x4
 1037 0084 05       		.byte	0x5
 1038 0085 89010000 		.4byte	.LASF10
 1039 0089 02       		.uleb128 0x2
 1040 008a F3010000 		.4byte	.LASF11
 1041 008e 07       		.byte	0x7
 1042 008f 4F       		.byte	0x4f
 1043 0090 19       		.byte	0x19
 1044 0091 95000000 		.4byte	0x95
 1045 0095 04       		.uleb128 0x4
 1046 0096 04       		.byte	0x4
 1047 0097 07       		.byte	0x7
 1048 0098 12030000 		.4byte	.LASF12
 1049 009c 04       		.uleb128 0x4
 1050 009d 08       		.byte	0x8
 1051 009e 07       		.byte	0x7
 1052 009f 67010000 		.4byte	.LASF13
 1053 00a3 02       		.uleb128 0x2
 1054 00a4 04010000 		.4byte	.LASF14
 1055 00a8 08       		.byte	0x8
 1056 00a9 18       		.byte	0x18
 1057 00aa 13       		.byte	0x13
 1058 00ab 55000000 		.4byte	0x55
 1059 00af 02       		.uleb128 0x2
 1060 00b0 D0020000 		.4byte	.LASF15
 1061 00b4 08       		.byte	0x8
 1062 00b5 2C       		.byte	0x2c
 1063 00b6 13       		.byte	0x13
 1064 00b7 76000000 		.4byte	0x76
 1065 00bb 02       		.uleb128 0x2
 1066 00bc 28010000 		.4byte	.LASF16
 1067 00c0 08       		.byte	0x8
 1068 00c1 30       		.byte	0x30
 1069 00c2 14       		.byte	0x14
 1070 00c3 89000000 		.4byte	0x89
 1071 00c7 02       		.uleb128 0x2
 1072 00c8 6C040000 		.4byte	.LASF17
 1073 00cc 09       		.byte	0x9
 1074 00cd 58       		.byte	0x58
 1075 00ce 19       		.byte	0x19
 1076 00cf AF000000 		.4byte	0xaf
 1077 00d3 02       		.uleb128 0x2
 1078 00d4 68000000 		.4byte	.LASF18
 1079 00d8 09       		.byte	0x9
 1080 00d9 5C       		.byte	0x5c
 1081 00da 19       		.byte	0x19
 1082 00db AF000000 		.4byte	0xaf
 1083 00df 02       		.uleb128 0x2
ARM GAS  C:\Users\DEVELO~1\AppData\Local\Temp\ccPQmLBO.s 			page 20


 1084 00e0 C9020000 		.4byte	.LASF19
 1085 00e4 09       		.byte	0x9
 1086 00e5 5D       		.byte	0x5d
 1087 00e6 19       		.byte	0x19
 1088 00e7 BB000000 		.4byte	0xbb
 1089 00eb 04       		.uleb128 0x4
 1090 00ec 01       		.byte	0x1
 1091 00ed 08       		.byte	0x8
 1092 00ee BA020000 		.4byte	.LASF20
 1093 00f2 07       		.uleb128 0x7
 1094 00f3 EB000000 		.4byte	0xeb
 1095 00f7 29       		.uleb128 0x29
 1096 00f8 04       		.byte	0x4
 1097 00f9 02       		.uleb128 0x2
 1098 00fa 1D010000 		.4byte	.LASF21
 1099 00fe 0A       		.byte	0xa
 1100 00ff 3F       		.byte	0x3f
 1101 0100 19       		.byte	0x19
 1102 0101 05010000 		.4byte	0x105
 1103 0105 09       		.uleb128 0x9
 1104 0106 34040000 		.4byte	.LASF24
 1105 010a 08       		.byte	0x8
 1106 010b 0A       		.byte	0xa
 1107 010c 45       		.byte	0x45
 1108 010d 08       		.byte	0x8
 1109 010e 2D010000 		.4byte	0x12d
 1110 0112 01       		.uleb128 0x1
 1111 0113 7D040000 		.4byte	.LASF22
 1112 0117 0A       		.byte	0xa
 1113 0118 46       		.byte	0x46
 1114 0119 1A       		.byte	0x1a
 1115 011a 2D010000 		.4byte	0x12d
 1116 011e 00       		.byte	0
 1117 011f 01       		.uleb128 0x1
 1118 0120 5D040000 		.4byte	.LASF23
 1119 0124 0A       		.byte	0xa
 1120 0125 47       		.byte	0x47
 1121 0126 1A       		.byte	0x1a
 1122 0127 2D010000 		.4byte	0x12d
 1123 012b 04       		.byte	0x4
 1124 012c 00       		.byte	0
 1125 012d 06       		.uleb128 0x6
 1126 012e F9000000 		.4byte	0xf9
 1127 0132 09       		.uleb128 0x9
 1128 0133 1D040000 		.4byte	.LASF25
 1129 0137 0C       		.byte	0xc
 1130 0138 05       		.byte	0x5
 1131 0139 34       		.byte	0x34
 1132 013a 10       		.byte	0x10
 1133 013b 59010000 		.4byte	0x159
 1134 013f 01       		.uleb128 0x1
 1135 0140 FE010000 		.4byte	.LASF26
 1136 0144 05       		.byte	0x5
 1137 0145 35       		.byte	0x35
 1138 0146 19       		.byte	0x19
 1139 0147 F9000000 		.4byte	0xf9
 1140 014b 00       		.byte	0
ARM GAS  C:\Users\DEVELO~1\AppData\Local\Temp\ccPQmLBO.s 			page 21


 1141 014c 1A       		.uleb128 0x1a
 1142 014d 636E7400 		.ascii	"cnt\000"
 1143 0151 05       		.byte	0x5
 1144 0152 37       		.byte	0x37
 1145 0153 D3000000 		.4byte	0xd3
 1146 0157 08       		.byte	0x8
 1147 0158 00       		.byte	0
 1148 0159 02       		.uleb128 0x2
 1149 015a 31010000 		.4byte	.LASF27
 1150 015e 05       		.byte	0x5
 1151 015f 38       		.byte	0x38
 1152 0160 03       		.byte	0x3
 1153 0161 32010000 		.4byte	0x132
 1154 0165 07       		.uleb128 0x7
 1155 0166 59010000 		.4byte	0x159
 1156 016a 04       		.uleb128 0x4
 1157 016b 01       		.byte	0x1
 1158 016c 02       		.byte	0x2
 1159 016d EF020000 		.4byte	.LASF28
 1160 0171 02       		.uleb128 0x2
 1161 0172 7E010000 		.4byte	.LASF29
 1162 0176 0B       		.byte	0xb
 1163 0177 44       		.byte	0x44
 1164 0178 12       		.byte	0x12
 1165 0179 BB000000 		.4byte	0xbb
 1166 017d 02       		.uleb128 0x2
 1167 017e 12000000 		.4byte	.LASF30
 1168 0182 0B       		.byte	0xb
 1169 0183 49       		.byte	0x49
 1170 0184 20       		.byte	0x20
 1171 0185 89010000 		.4byte	0x189
 1172 0189 09       		.uleb128 0x9
 1173 018a E4000000 		.4byte	.LASF31
 1174 018e 08       		.byte	0x8
 1175 018f 0B       		.byte	0xb
 1176 0190 77       		.byte	0x77
 1177 0191 08       		.byte	0x8
 1178 0192 B1010000 		.4byte	0x1b1
 1179 0196 01       		.uleb128 0x1
 1180 0197 7D040000 		.4byte	.LASF22
 1181 019b 0B       		.byte	0xb
 1182 019c 7B       		.byte	0x7b
 1183 019d 1A       		.byte	0x1a
 1184 019e 33030000 		.4byte	0x333
 1185 01a2 00       		.byte	0
 1186 01a3 01       		.uleb128 0x1
 1187 01a4 5D040000 		.4byte	.LASF23
 1188 01a8 0B       		.byte	0xb
 1189 01a9 7F       		.byte	0x7f
 1190 01aa 1A       		.byte	0x1a
 1191 01ab 33030000 		.4byte	0x333
 1192 01af 04       		.byte	0x4
 1193 01b0 00       		.byte	0
 1194 01b1 02       		.uleb128 0x2
 1195 01b2 01030000 		.4byte	.LASF32
 1196 01b6 0B       		.byte	0xb
 1197 01b7 4E       		.byte	0x4e
ARM GAS  C:\Users\DEVELO~1\AppData\Local\Temp\ccPQmLBO.s 			page 22


 1198 01b8 1F       		.byte	0x1f
 1199 01b9 BD010000 		.4byte	0x1bd
 1200 01bd 09       		.uleb128 0x9
 1201 01be 97000000 		.4byte	.LASF33
 1202 01c2 10       		.byte	0x10
 1203 01c3 0B       		.byte	0xb
 1204 01c4 85       		.byte	0x85
 1205 01c5 08       		.byte	0x8
 1206 01c6 EF010000 		.4byte	0x1ef
 1207 01ca 1A       		.uleb128 0x1a
 1208 01cb 6800     		.ascii	"h\000"
 1209 01cd 0B       		.byte	0xb
 1210 01ce 89       		.byte	0x89
 1211 01cf 7D010000 		.4byte	0x17d
 1212 01d3 00       		.byte	0
 1213 01d4 01       		.uleb128 0x1
 1214 01d5 7D040000 		.4byte	.LASF22
 1215 01d9 0B       		.byte	0xb
 1216 01da 8D       		.byte	0x8d
 1217 01db 18       		.byte	0x18
 1218 01dc 38030000 		.4byte	0x338
 1219 01e0 08       		.byte	0x8
 1220 01e1 01       		.uleb128 0x1
 1221 01e2 5D040000 		.4byte	.LASF23
 1222 01e6 0B       		.byte	0xb
 1223 01e7 91       		.byte	0x91
 1224 01e8 18       		.byte	0x18
 1225 01e9 38030000 		.4byte	0x338
 1226 01ed 0C       		.byte	0xc
 1227 01ee 00       		.byte	0
 1228 01ef 02       		.uleb128 0x2
 1229 01f0 A6000000 		.4byte	.LASF34
 1230 01f4 0B       		.byte	0xb
 1231 01f5 53       		.byte	0x53
 1232 01f6 1A       		.byte	0x1a
 1233 01f7 FB010000 		.4byte	0x1fb
 1234 01fb 09       		.uleb128 0x9
 1235 01fc 62040000 		.4byte	.LASF35
 1236 0200 2C       		.byte	0x2c
 1237 0201 0B       		.byte	0xb
 1238 0202 97       		.byte	0x97
 1239 0203 08       		.byte	0x8
 1240 0204 57020000 		.4byte	0x257
 1241 0208 01       		.uleb128 0x1
 1242 0209 D8020000 		.4byte	.LASF36
 1243 020d 0B       		.byte	0xb
 1244 020e 9B       		.byte	0x9b
 1245 020f 19       		.byte	0x19
 1246 0210 B1010000 		.4byte	0x1b1
 1247 0214 00       		.byte	0
 1248 0215 01       		.uleb128 0x1
 1249 0216 2C000000 		.4byte	.LASF37
 1250 021a 0B       		.byte	0xb
 1251 021b 9F       		.byte	0x9f
 1252 021c 1A       		.byte	0x1a
 1253 021d F7000000 		.4byte	0xf7
 1254 0221 10       		.byte	0x10
ARM GAS  C:\Users\DEVELO~1\AppData\Local\Temp\ccPQmLBO.s 			page 23


 1255 0222 01       		.uleb128 0x1
 1256 0223 EB010000 		.4byte	.LASF38
 1257 0227 0B       		.byte	0xb
 1258 0228 A3       		.byte	0xa3
 1259 0229 19       		.byte	0x19
 1260 022a BB000000 		.4byte	0xbb
 1261 022e 14       		.byte	0x14
 1262 022f 01       		.uleb128 0x1
 1263 0230 04020000 		.4byte	.LASF39
 1264 0234 0B       		.byte	0xb
 1265 0235 A7       		.byte	0xa7
 1266 0236 19       		.byte	0x19
 1267 0237 59010000 		.4byte	0x159
 1268 023b 18       		.byte	0x18
 1269 023c 01       		.uleb128 0x1
 1270 023d 5E000000 		.4byte	.LASF40
 1271 0241 0B       		.byte	0xb
 1272 0242 AB       		.byte	0xab
 1273 0243 19       		.byte	0x19
 1274 0244 71010000 		.4byte	0x171
 1275 0248 24       		.byte	0x24
 1276 0249 01       		.uleb128 0x1
 1277 024a 58040000 		.4byte	.LASF41
 1278 024e 0B       		.byte	0xb
 1279 024f B1       		.byte	0xb1
 1280 0250 1A       		.byte	0x1a
 1281 0251 F7000000 		.4byte	0xf7
 1282 0255 28       		.byte	0x28
 1283 0256 00       		.byte	0
 1284 0257 02       		.uleb128 0x2
 1285 0258 F4000000 		.4byte	.LASF42
 1286 025c 0B       		.byte	0xb
 1287 025d 58       		.byte	0x58
 1288 025e 1E       		.byte	0x1e
 1289 025f 63020000 		.4byte	0x263
 1290 0263 09       		.uleb128 0x9
 1291 0264 7F000000 		.4byte	.LASF43
 1292 0268 44       		.byte	0x44
 1293 0269 0B       		.byte	0xb
 1294 026a B7       		.byte	0xb7
 1295 026b 08       		.byte	0x8
 1296 026c F3020000 		.4byte	0x2f3
 1297 0270 01       		.uleb128 0x1
 1298 0271 6F020000 		.4byte	.LASF44
 1299 0275 0B       		.byte	0xb
 1300 0276 BB       		.byte	0xbb
 1301 0277 19       		.byte	0x19
 1302 0278 DF000000 		.4byte	0xdf
 1303 027c 00       		.byte	0
 1304 027d 01       		.uleb128 0x1
 1305 027e 82020000 		.4byte	.LASF45
 1306 0282 0B       		.byte	0xb
 1307 0283 BF       		.byte	0xbf
 1308 0284 17       		.byte	0x17
 1309 0285 33030000 		.4byte	0x333
 1310 0289 04       		.byte	0x4
 1311 028a 01       		.uleb128 0x1
ARM GAS  C:\Users\DEVELO~1\AppData\Local\Temp\ccPQmLBO.s 			page 24


 1312 028b 2A040000 		.4byte	.LASF46
 1313 028f 0B       		.byte	0xb
 1314 0290 C3       		.byte	0xc3
 1315 0291 19       		.byte	0x19
 1316 0292 DF000000 		.4byte	0xdf
 1317 0296 08       		.byte	0x8
 1318 0297 01       		.uleb128 0x1
 1319 0298 3D010000 		.4byte	.LASF47
 1320 029c 0B       		.byte	0xb
 1321 029d C7       		.byte	0xc7
 1322 029e 19       		.byte	0x19
 1323 029f 2D000000 		.4byte	0x2d
 1324 02a3 0C       		.byte	0xc
 1325 02a4 01       		.uleb128 0x1
 1326 02a5 0C000000 		.4byte	.LASF48
 1327 02a9 0B       		.byte	0xb
 1328 02aa CB       		.byte	0xcb
 1329 02ab 1A       		.byte	0x1a
 1330 02ac F7000000 		.4byte	0xf7
 1331 02b0 10       		.byte	0x10
 1332 02b1 01       		.uleb128 0x1
 1333 02b2 D8020000 		.4byte	.LASF36
 1334 02b6 0B       		.byte	0xb
 1335 02b7 CF       		.byte	0xcf
 1336 02b8 19       		.byte	0x19
 1337 02b9 B1010000 		.4byte	0x1b1
 1338 02bd 14       		.byte	0x14
 1339 02be 01       		.uleb128 0x1
 1340 02bf BF020000 		.4byte	.LASF49
 1341 02c3 0B       		.byte	0xb
 1342 02c4 D3       		.byte	0xd3
 1343 02c5 19       		.byte	0x19
 1344 02c6 59010000 		.4byte	0x159
 1345 02ca 24       		.byte	0x24
 1346 02cb 01       		.uleb128 0x1
 1347 02cc 24000000 		.4byte	.LASF50
 1348 02d0 0B       		.byte	0xb
 1349 02d1 D7       		.byte	0xd7
 1350 02d2 19       		.byte	0x19
 1351 02d3 59010000 		.4byte	0x159
 1352 02d7 30       		.byte	0x30
 1353 02d8 01       		.uleb128 0x1
 1354 02d9 88020000 		.4byte	.LASF51
 1355 02dd 0B       		.byte	0xb
 1356 02de DB       		.byte	0xdb
 1357 02df 19       		.byte	0x19
 1358 02e0 F3020000 		.4byte	0x2f3
 1359 02e4 3C       		.byte	0x3c
 1360 02e5 01       		.uleb128 0x1
 1361 02e6 68020000 		.4byte	.LASF52
 1362 02ea 0B       		.byte	0xb
 1363 02eb DF       		.byte	0xdf
 1364 02ec 19       		.byte	0x19
 1365 02ed 27030000 		.4byte	0x327
 1366 02f1 40       		.byte	0x40
 1367 02f2 00       		.byte	0
 1368 02f3 02       		.uleb128 0x2
ARM GAS  C:\Users\DEVELO~1\AppData\Local\Temp\ccPQmLBO.s 			page 25


 1369 02f4 AF020000 		.4byte	.LASF53
 1370 02f8 0B       		.byte	0xb
 1371 02f9 63       		.byte	0x63
 1372 02fa 10       		.byte	0x10
 1373 02fb FF020000 		.4byte	0x2ff
 1374 02ff 06       		.uleb128 0x6
 1375 0300 04030000 		.4byte	0x304
 1376 0304 2A       		.uleb128 0x2a
 1377 0305 6A010000 		.4byte	0x16a
 1378 0309 1D030000 		.4byte	0x31d
 1379 030d 08       		.uleb128 0x8
 1380 030e 1D030000 		.4byte	0x31d
 1381 0312 08       		.uleb128 0x8
 1382 0313 22030000 		.4byte	0x322
 1383 0317 08       		.uleb128 0x8
 1384 0318 6A010000 		.4byte	0x16a
 1385 031c 00       		.byte	0
 1386 031d 06       		.uleb128 0x6
 1387 031e 57020000 		.4byte	0x257
 1388 0322 06       		.uleb128 0x6
 1389 0323 EF010000 		.4byte	0x1ef
 1390 0327 02       		.uleb128 0x2
 1391 0328 00000000 		.4byte	.LASF54
 1392 032c 0B       		.byte	0xb
 1393 032d 70       		.byte	0x70
 1394 032e 10       		.byte	0x10
 1395 032f FF020000 		.4byte	0x2ff
 1396 0333 06       		.uleb128 0x6
 1397 0334 7D010000 		.4byte	0x17d
 1398 0338 06       		.uleb128 0x6
 1399 0339 B1010000 		.4byte	0x1b1
 1400 033d 1B       		.uleb128 0x1b
 1401 033e 3D040000 		.4byte	.LASF55
 1402 0342 64       		.byte	0x64
 1403 0343 4D030000 		.4byte	0x34d
 1404 0347 08       		.uleb128 0x8
 1405 0348 4D030000 		.4byte	0x34d
 1406 034c 00       		.byte	0
 1407 034d 06       		.uleb128 0x6
 1408 034e 59010000 		.4byte	0x159
 1409 0352 2B       		.uleb128 0x2b
 1410 0353 5D020000 		.4byte	.LASF79
 1411 0357 05       		.byte	0x5
 1412 0358 60       		.byte	0x60
 1413 0359 09       		.byte	0x9
 1414 035a C7000000 		.4byte	0xc7
 1415 035e 68030000 		.4byte	0x368
 1416 0362 08       		.uleb128 0x8
 1417 0363 4D030000 		.4byte	0x34d
 1418 0367 00       		.byte	0
 1419 0368 1B       		.uleb128 0x1b
 1420 0369 4E000000 		.4byte	.LASF56
 1421 036d 5B       		.byte	0x5b
 1422 036e 7D030000 		.4byte	0x37d
 1423 0372 08       		.uleb128 0x8
 1424 0373 4D030000 		.4byte	0x34d
 1425 0377 08       		.uleb128 0x8
ARM GAS  C:\Users\DEVELO~1\AppData\Local\Temp\ccPQmLBO.s 			page 26


 1426 0378 D3000000 		.4byte	0xd3
 1427 037c 00       		.byte	0
 1428 037d 15       		.uleb128 0x15
 1429 037e FE030000 		.4byte	.LASF59
 1430 0382 DC01     		.2byte	0x1dc
 1431 0384 06       		.byte	0x6
 1432 0385 6A010000 		.4byte	0x16a
 1433 0389 00000000 		.4byte	.LFB358
 1434 038d 12000000 		.4byte	.LFE358-.LFB358
 1435 0391 01       		.uleb128 0x1
 1436 0392 9C       		.byte	0x9c
 1437 0393 E8030000 		.4byte	0x3e8
 1438 0397 0D       		.uleb128 0xd
 1439 0398 6F637000 		.ascii	"ocp\000"
 1440 039c DC01     		.2byte	0x1dc
 1441 039e 2A       		.byte	0x2a
 1442 039f 1D030000 		.4byte	0x31d
 1443 03a3 10000000 		.4byte	.LLST39
 1444 03a7 0C000000 		.4byte	.LVUS39
 1445 03ab 0A       		.uleb128 0xa
 1446 03ac 2F040000 		.4byte	.LASF57
 1447 03b0 DD01     		.2byte	0x1dd
 1448 03b2 26       		.byte	0x26
 1449 03b3 22030000 		.4byte	0x322
 1450 03b7 27000000 		.4byte	.LLST40
 1451 03bb 23000000 		.4byte	.LVUS40
 1452 03bf 0A       		.uleb128 0xa
 1453 03c0 A9020000 		.4byte	.LASF58
 1454 03c4 DE01     		.2byte	0x1de
 1455 03c6 1E       		.byte	0x1e
 1456 03c7 6A010000 		.4byte	0x16a
 1457 03cb 3E000000 		.4byte	.LLST41
 1458 03cf 3A000000 		.4byte	.LVUS41
 1459 03d3 1C       		.uleb128 0x1c
 1460 03d4 12000000 		.4byte	.LVL54
 1461 03d8 03       		.uleb128 0x3
 1462 03d9 01       		.uleb128 0x1
 1463 03da 50       		.byte	0x50
 1464 03db 03       		.uleb128 0x3
 1465 03dc A3       		.byte	0xa3
 1466 03dd 01       		.uleb128 0x1
 1467 03de 50       		.byte	0x50
 1468 03df 03       		.uleb128 0x3
 1469 03e0 01       		.uleb128 0x1
 1470 03e1 51       		.byte	0x51
 1471 03e2 03       		.uleb128 0x3
 1472 03e3 A3       		.byte	0xa3
 1473 03e4 01       		.uleb128 0x1
 1474 03e5 51       		.byte	0x51
 1475 03e6 00       		.byte	0
 1476 03e7 00       		.byte	0
 1477 03e8 15       		.uleb128 0x15
 1478 03e9 DD020000 		.4byte	.LASF60
 1479 03ed BF01     		.2byte	0x1bf
 1480 03ef 06       		.byte	0x6
 1481 03f0 6A010000 		.4byte	0x16a
 1482 03f4 00000000 		.4byte	.LFB357
ARM GAS  C:\Users\DEVELO~1\AppData\Local\Temp\ccPQmLBO.s 			page 27


 1483 03f8 12000000 		.4byte	.LFE357-.LFB357
 1484 03fc 01       		.uleb128 0x1
 1485 03fd 9C       		.byte	0x9c
 1486 03fe 53040000 		.4byte	0x453
 1487 0402 0D       		.uleb128 0xd
 1488 0403 6F637000 		.ascii	"ocp\000"
 1489 0407 BF01     		.2byte	0x1bf
 1490 0409 29       		.byte	0x29
 1491 040a 1D030000 		.4byte	0x31d
 1492 040e 55000000 		.4byte	.LLST36
 1493 0412 51000000 		.4byte	.LVUS36
 1494 0416 0A       		.uleb128 0xa
 1495 0417 2F040000 		.4byte	.LASF57
 1496 041b C001     		.2byte	0x1c0
 1497 041d 25       		.byte	0x25
 1498 041e 22030000 		.4byte	0x322
 1499 0422 6C000000 		.4byte	.LLST37
 1500 0426 68000000 		.4byte	.LVUS37
 1501 042a 0A       		.uleb128 0xa
 1502 042b A9020000 		.4byte	.LASF58
 1503 042f C101     		.2byte	0x1c1
 1504 0431 1D       		.byte	0x1d
 1505 0432 6A010000 		.4byte	0x16a
 1506 0436 83000000 		.4byte	.LLST38
 1507 043a 7F000000 		.4byte	.LVUS38
 1508 043e 1C       		.uleb128 0x1c
 1509 043f 12000000 		.4byte	.LVL52
 1510 0443 03       		.uleb128 0x3
 1511 0444 01       		.uleb128 0x1
 1512 0445 50       		.byte	0x50
 1513 0446 03       		.uleb128 0x3
 1514 0447 A3       		.byte	0xa3
 1515 0448 01       		.uleb128 0x1
 1516 0449 50       		.byte	0x50
 1517 044a 03       		.uleb128 0x3
 1518 044b 01       		.uleb128 0x1
 1519 044c 51       		.byte	0x51
 1520 044d 03       		.uleb128 0x3
 1521 044e A3       		.byte	0xa3
 1522 044f 01       		.uleb128 0x1
 1523 0450 51       		.byte	0x51
 1524 0451 00       		.byte	0
 1525 0452 00       		.byte	0
 1526 0453 2C       		.uleb128 0x2c
 1527 0454 B2000000 		.4byte	.LASF64
 1528 0458 01       		.byte	0x1
 1529 0459 7901     		.2byte	0x179
 1530 045b 06       		.byte	0x6
 1531 045c 00000000 		.4byte	.LFB356
 1532 0460 7C000000 		.4byte	.LFE356-.LFB356
 1533 0464 01       		.uleb128 0x1
 1534 0465 9C       		.byte	0x9c
 1535 0466 14050000 		.4byte	0x514
 1536 046a 0D       		.uleb128 0xd
 1537 046b 6F637000 		.ascii	"ocp\000"
 1538 046f 7901     		.2byte	0x179
 1539 0471 2D       		.byte	0x2d
ARM GAS  C:\Users\DEVELO~1\AppData\Local\Temp\ccPQmLBO.s 			page 28


 1540 0472 1D030000 		.4byte	0x31d
 1541 0476 A0000000 		.4byte	.LLST32
 1542 047a 96000000 		.4byte	.LVUS32
 1543 047e 0A       		.uleb128 0xa
 1544 047f 2F040000 		.4byte	.LASF57
 1545 0483 7A01     		.2byte	0x17a
 1546 0485 29       		.byte	0x29
 1547 0486 22030000 		.4byte	0x322
 1548 048a CF000000 		.4byte	.LLST33
 1549 048e C7000000 		.4byte	.LVUS33
 1550 0492 0E       		.uleb128 0xe
 1551 0493 29020000 		.4byte	.LASF63
 1552 0497 24050000 		.4byte	0x524
 1553 049b 11       		.uleb128 0x11
 1554 049c F8090000 		.4byte	0x9f8
 1555 04a0 0A000000 		.4byte	.LBI148
 1556 04a4 00       		.byte	.LVU276
 1557 04a5 0A000000 		.4byte	.LBB148
 1558 04a9 00000000 		.4byte	.LBE148-.LBB148
 1559 04ad 8601     		.2byte	0x186
 1560 04af 07       		.byte	0x7
 1561 04b0 C2040000 		.4byte	0x4c2
 1562 04b4 05       		.uleb128 0x5
 1563 04b5 080A0000 		.4byte	0xa08
 1564 04b9 EE000000 		.4byte	.LLST34
 1565 04bd EC000000 		.4byte	.LVUS34
 1566 04c1 00       		.byte	0
 1567 04c2 11       		.uleb128 0x11
 1568 04c3 190A0000 		.4byte	0xa19
 1569 04c7 32000000 		.4byte	.LBI150
 1570 04cb 01       		.byte	.LVU299
 1571 04cc 32000000 		.4byte	.LBB150
 1572 04d0 06000000 		.4byte	.LBE150-.LBB150
 1573 04d4 AB01     		.2byte	0x1ab
 1574 04d6 03       		.byte	0x3
 1575 04d7 E9040000 		.4byte	0x4e9
 1576 04db 05       		.uleb128 0x5
 1577 04dc 230A0000 		.4byte	0xa23
 1578 04e0 FB000000 		.4byte	.LLST35
 1579 04e4 F9000000 		.4byte	.LVUS35
 1580 04e8 00       		.byte	0
 1581 04e9 1D       		.uleb128 0x1d
 1582 04ea 32000000 		.4byte	.LVL45
 1583 04ee 3D030000 		.4byte	0x33d
 1584 04f2 00050000 		.4byte	0x500
 1585 04f6 03       		.uleb128 0x3
 1586 04f7 01       		.uleb128 0x1
 1587 04f8 50       		.byte	0x50
 1588 04f9 05       		.uleb128 0x5
 1589 04fa A3       		.byte	0xa3
 1590 04fb 01       		.uleb128 0x1
 1591 04fc 50       		.byte	0x50
 1592 04fd 23       		.byte	0x23
 1593 04fe 30       		.uleb128 0x30
 1594 04ff 00       		.byte	0
 1595 0500 2D       		.uleb128 0x2d
 1596 0501 7C000000 		.4byte	.LVL50
ARM GAS  C:\Users\DEVELO~1\AppData\Local\Temp\ccPQmLBO.s 			page 29


 1597 0505 3D030000 		.4byte	0x33d
 1598 0509 03       		.uleb128 0x3
 1599 050a 01       		.uleb128 0x1
 1600 050b 50       		.byte	0x50
 1601 050c 05       		.uleb128 0x5
 1602 050d A3       		.byte	0xa3
 1603 050e 01       		.uleb128 0x1
 1604 050f 51       		.byte	0x51
 1605 0510 23       		.byte	0x23
 1606 0511 18       		.uleb128 0x18
 1607 0512 00       		.byte	0
 1608 0513 00       		.byte	0
 1609 0514 0F       		.uleb128 0xf
 1610 0515 F2000000 		.4byte	0xf2
 1611 0519 24050000 		.4byte	0x524
 1612 051d 10       		.uleb128 0x10
 1613 051e 39000000 		.4byte	0x39
 1614 0522 15       		.byte	0x15
 1615 0523 00       		.byte	0
 1616 0524 07       		.uleb128 0x7
 1617 0525 14050000 		.4byte	0x514
 1618 0529 15       		.uleb128 0x15
 1619 052a 0C010000 		.4byte	.LASF61
 1620 052e 2F01     		.2byte	0x12f
 1621 0530 0E       		.byte	0xe
 1622 0531 22030000 		.4byte	0x322
 1623 0535 00000000 		.4byte	.LFB355
 1624 0539 02010000 		.4byte	.LFE355-.LFB355
 1625 053d 01       		.uleb128 0x1
 1626 053e 9C       		.byte	0x9c
 1627 053f 25080000 		.4byte	0x825
 1628 0543 0D       		.uleb128 0xd
 1629 0544 6F637000 		.ascii	"ocp\000"
 1630 0548 2F01     		.2byte	0x12f
 1631 054a 30       		.byte	0x30
 1632 054b 1D030000 		.4byte	0x31d
 1633 054f 12010000 		.4byte	.LLST7
 1634 0553 06010000 		.4byte	.LVUS7
 1635 0557 0A       		.uleb128 0xa
 1636 0558 32020000 		.4byte	.LASF62
 1637 055c 3001     		.2byte	0x130
 1638 055e 25       		.byte	0x25
 1639 055f F7000000 		.4byte	0xf7
 1640 0563 3F010000 		.4byte	.LLST8
 1641 0567 3B010000 		.4byte	.LVUS8
 1642 056b 0D       		.uleb128 0xd
 1643 056c 6B657900 		.ascii	"key\000"
 1644 0570 3101     		.2byte	0x131
 1645 0572 28       		.byte	0x28
 1646 0573 BB000000 		.4byte	0xbb
 1647 0577 54010000 		.4byte	.LLST9
 1648 057b 50010000 		.4byte	.LVUS9
 1649 057f 1E       		.uleb128 0x1e
 1650 0580 2F040000 		.4byte	.LASF57
 1651 0584 3201     		.2byte	0x132
 1652 0586 10       		.byte	0x10
 1653 0587 22030000 		.4byte	0x322
ARM GAS  C:\Users\DEVELO~1\AppData\Local\Temp\ccPQmLBO.s 			page 30


 1654 058b 69010000 		.4byte	.LLST10
 1655 058f 65010000 		.4byte	.LVUS10
 1656 0593 0E       		.uleb128 0xe
 1657 0594 29020000 		.4byte	.LASF63
 1658 0598 35080000 		.4byte	0x835
 1659 059c 1F       		.uleb128 0x1f
 1660 059d 73000000 		.4byte	.LLRL30
 1661 05a1 BB050000 		.4byte	0x5bb
 1662 05a5 2E       		.uleb128 0x2e
 1663 05a6 68657000 		.ascii	"hep\000"
 1664 05aa 01       		.byte	0x1
 1665 05ab 6001     		.2byte	0x160
 1666 05ad 05       		.byte	0x5
 1667 05ae 33030000 		.4byte	0x333
 1668 05b2 7E010000 		.4byte	.LLST31
 1669 05b6 7A010000 		.4byte	.LVUS31
 1670 05ba 00       		.byte	0
 1671 05bb 20       		.uleb128 0x20
 1672 05bc 720A0000 		.4byte	0xa72
 1673 05c0 00000000 		.4byte	.LBI80
 1674 05c4 03       		.byte	.LVU64
 1675 05c5 1B000000 		.4byte	.LLRL11
 1676 05c9 3501     		.2byte	0x135
 1677 05cb 01060000 		.4byte	0x601
 1678 05cf 0B       		.uleb128 0xb
 1679 05d0 840A0000 		.4byte	0xa84
 1680 05d4 00000000 		.4byte	.LBI81
 1681 05d8 05       		.byte	.LVU66
 1682 05d9 1B000000 		.4byte	.LLRL11
 1683 05dd 02       		.byte	0x2
 1684 05de 7601     		.2byte	0x176
 1685 05e0 0B       		.uleb128 0xb
 1686 05e1 8D0A0000 		.4byte	0xa8d
 1687 05e5 00000000 		.4byte	.LBI82
 1688 05e9 07       		.byte	.LVU68
 1689 05ea 1B000000 		.4byte	.LLRL11
 1690 05ee 03       		.byte	0x3
 1691 05ef 5003     		.2byte	0x350
 1692 05f1 05       		.uleb128 0x5
 1693 05f2 970A0000 		.4byte	0xa97
 1694 05f6 9D010000 		.4byte	.LLST12
 1695 05fa 9B010000 		.4byte	.LVUS12
 1696 05fe 00       		.byte	0
 1697 05ff 00       		.byte	0
 1698 0600 00       		.byte	0
 1699 0601 11       		.uleb128 0x11
 1700 0602 A2090000 		.4byte	0x9a2
 1701 0606 10000000 		.4byte	.LBI92
 1702 060a 04       		.byte	.LVU78
 1703 060b 10000000 		.4byte	.LBB92
 1704 060f 2E000000 		.4byte	.LBE92-.LBB92
 1705 0613 3801     		.2byte	0x138
 1706 0615 0A       		.byte	0xa
 1707 0616 78060000 		.4byte	0x678
 1708 061a 16       		.uleb128 0x16
 1709 061b B2090000 		.4byte	0x9b2
 1710 061f 05       		.uleb128 0x5
ARM GAS  C:\Users\DEVELO~1\AppData\Local\Temp\ccPQmLBO.s 			page 31


 1711 0620 B2090000 		.4byte	0x9b2
 1712 0624 AC010000 		.4byte	.LLST13
 1713 0628 A8010000 		.4byte	.LVUS13
 1714 062c 05       		.uleb128 0x5
 1715 062d CA090000 		.4byte	0x9ca
 1716 0631 C2010000 		.4byte	.LLST14
 1717 0635 BC010000 		.4byte	.LVUS14
 1718 0639 05       		.uleb128 0x5
 1719 063a BE090000 		.4byte	0x9be
 1720 063e DD010000 		.4byte	.LLST15
 1721 0642 D7010000 		.4byte	.LVUS15
 1722 0646 12       		.uleb128 0x12
 1723 0647 D6090000 		.4byte	0x9d6
 1724 064b F6010000 		.4byte	.LLST16
 1725 064f F2010000 		.4byte	.LVUS16
 1726 0653 12       		.uleb128 0x12
 1727 0654 E1090000 		.4byte	0x9e1
 1728 0658 0A020000 		.4byte	.LLST17
 1729 065c 06020000 		.4byte	.LVUS17
 1730 0660 2F       		.uleb128 0x2f
 1731 0661 EA090000 		.4byte	0x9ea
 1732 0665 2A000000 		.4byte	.LLRL18
 1733 0669 12       		.uleb128 0x12
 1734 066a EB090000 		.4byte	0x9eb
 1735 066e 20020000 		.4byte	.LLST19
 1736 0672 1A020000 		.4byte	.LVUS19
 1737 0676 00       		.byte	0
 1738 0677 00       		.byte	0
 1739 0678 11       		.uleb128 0x11
 1740 0679 F8090000 		.4byte	0x9f8
 1741 067d 3E000000 		.4byte	.LBI96
 1742 0681 06       		.byte	.LVU103
 1743 0682 3E000000 		.4byte	.LBB96
 1744 0686 02000000 		.4byte	.LBE96-.LBB96
 1745 068a 4001     		.2byte	0x140
 1746 068c 09       		.byte	0x9
 1747 068d 9F060000 		.4byte	0x69f
 1748 0691 05       		.uleb128 0x5
 1749 0692 080A0000 		.4byte	0xa08
 1750 0696 39020000 		.4byte	.LLST20
 1751 069a 37020000 		.4byte	.LVUS20
 1752 069e 00       		.byte	0
 1753 069f 30       		.uleb128 0x30
 1754 06a0 2F0A0000 		.4byte	0xa2f
 1755 06a4 36000000 		.4byte	.LLRL21
 1756 06a8 01       		.byte	0x1
 1757 06a9 4C01     		.2byte	0x14c
 1758 06ab 07       		.byte	0x7
 1759 06ac B6060000 		.4byte	0x6b6
 1760 06b0 16       		.uleb128 0x16
 1761 06b1 390A0000 		.4byte	0xa39
 1762 06b5 00       		.byte	0
 1763 06b6 20       		.uleb128 0x20
 1764 06b7 450A0000 		.4byte	0xa45
 1765 06bb 58000000 		.4byte	.LBI102
 1766 06bf 03       		.byte	.LVU125
 1767 06c0 42000000 		.4byte	.LLRL22
ARM GAS  C:\Users\DEVELO~1\AppData\Local\Temp\ccPQmLBO.s 			page 32


 1768 06c4 6401     		.2byte	0x164
 1769 06c6 02070000 		.4byte	0x702
 1770 06ca 21       		.uleb128 0x21
 1771 06cb 42000000 		.4byte	.LLRL22
 1772 06cf 0B       		.uleb128 0xb
 1773 06d0 7B0A0000 		.4byte	0xa7b
 1774 06d4 58000000 		.4byte	.LBI104
 1775 06d8 0A       		.byte	.LVU132
 1776 06d9 42000000 		.4byte	.LLRL22
 1777 06dd 02       		.byte	0x2
 1778 06de 8F01     		.2byte	0x18f
 1779 06e0 0B       		.uleb128 0xb
 1780 06e1 8D0A0000 		.4byte	0xa8d
 1781 06e5 58000000 		.4byte	.LBI105
 1782 06e9 0C       		.byte	.LVU134
 1783 06ea 42000000 		.4byte	.LLRL22
 1784 06ee 03       		.byte	0x3
 1785 06ef 6303     		.2byte	0x363
 1786 06f1 05       		.uleb128 0x5
 1787 06f2 970A0000 		.4byte	0xa97
 1788 06f6 4A020000 		.4byte	.LLST23
 1789 06fa 44020000 		.4byte	.LVUS23
 1790 06fe 00       		.byte	0
 1791 06ff 00       		.byte	0
 1792 0700 00       		.byte	0
 1793 0701 00       		.byte	0
 1794 0702 31       		.uleb128 0x31
 1795 0703 5C090000 		.4byte	0x95c
 1796 0707 64000000 		.4byte	.LBB115
 1797 070b 56000000 		.4byte	.LBE115-.LBB115
 1798 070f 01       		.byte	0x1
 1799 0710 5A01     		.2byte	0x15a
 1800 0712 0C       		.byte	0xc
 1801 0713 14080000 		.4byte	0x814
 1802 0717 16       		.uleb128 0x16
 1803 0718 6C090000 		.4byte	0x96c
 1804 071c 12       		.uleb128 0x12
 1805 071d 78090000 		.4byte	0x978
 1806 0721 6A020000 		.4byte	.LLST24
 1807 0725 66020000 		.4byte	.LVUS24
 1808 0729 22       		.uleb128 0x22
 1809 072a 450A0000 		.4byte	0xa45
 1810 072e 90000000 		.4byte	.LBI117
 1811 0732 02       		.byte	.LVU166
 1812 0733 55000000 		.4byte	.LLRL25
 1813 0737 CC       		.byte	0xcc
 1814 0738 74070000 		.4byte	0x774
 1815 073c 21       		.uleb128 0x21
 1816 073d 55000000 		.4byte	.LLRL25
 1817 0741 0B       		.uleb128 0xb
 1818 0742 7B0A0000 		.4byte	0xa7b
 1819 0746 90000000 		.4byte	.LBI119
 1820 074a 09       		.byte	.LVU173
 1821 074b 55000000 		.4byte	.LLRL25
 1822 074f 02       		.byte	0x2
 1823 0750 8F01     		.2byte	0x18f
 1824 0752 0B       		.uleb128 0xb
ARM GAS  C:\Users\DEVELO~1\AppData\Local\Temp\ccPQmLBO.s 			page 33


 1825 0753 8D0A0000 		.4byte	0xa8d
 1826 0757 90000000 		.4byte	.LBI120
 1827 075b 0B       		.byte	.LVU175
 1828 075c 55000000 		.4byte	.LLRL25
 1829 0760 03       		.byte	0x3
 1830 0761 6303     		.2byte	0x363
 1831 0763 05       		.uleb128 0x5
 1832 0764 970A0000 		.4byte	0xa97
 1833 0768 7E020000 		.4byte	.LLST26
 1834 076c 7A020000 		.4byte	.LVUS26
 1835 0770 00       		.byte	0
 1836 0771 00       		.byte	0
 1837 0772 00       		.byte	0
 1838 0773 00       		.byte	0
 1839 0774 32       		.uleb128 0x32
 1840 0775 720A0000 		.4byte	0xa72
 1841 0779 84000000 		.4byte	.LBI131
 1842 077d 01       		.byte	.LVU150
 1843 077e 84000000 		.4byte	.LBB131
 1844 0782 06000000 		.4byte	.LBE131-.LBB131
 1845 0786 01       		.byte	0x1
 1846 0787 D5       		.byte	0xd5
 1847 0788 05       		.byte	0x5
 1848 0789 C7070000 		.4byte	0x7c7
 1849 078d 23       		.uleb128 0x23
 1850 078e 840A0000 		.4byte	0xa84
 1851 0792 84000000 		.4byte	.LBI133
 1852 0796 03       		.byte	.LVU152
 1853 0797 84000000 		.4byte	.LBB133
 1854 079b 06000000 		.4byte	.LBE133-.LBB133
 1855 079f 02       		.byte	0x2
 1856 07a0 7601     		.2byte	0x176
 1857 07a2 23       		.uleb128 0x23
 1858 07a3 8D0A0000 		.4byte	0xa8d
 1859 07a7 84000000 		.4byte	.LBI134
 1860 07ab 05       		.byte	.LVU154
 1861 07ac 84000000 		.4byte	.LBB134
 1862 07b0 06000000 		.4byte	.LBE134-.LBB134
 1863 07b4 03       		.byte	0x3
 1864 07b5 5003     		.2byte	0x350
 1865 07b7 05       		.uleb128 0x5
 1866 07b8 970A0000 		.4byte	0xa97
 1867 07bc 92020000 		.4byte	.LLST27
 1868 07c0 90020000 		.4byte	.LVUS27
 1869 07c4 00       		.byte	0
 1870 07c5 00       		.byte	0
 1871 07c6 00       		.byte	0
 1872 07c7 22       		.uleb128 0x22
 1873 07c8 2F0A0000 		.4byte	0xa2f
 1874 07cc A8000000 		.4byte	.LBI137
 1875 07d0 01       		.byte	.LVU194
 1876 07d1 64000000 		.4byte	.LLRL28
 1877 07d5 BA       		.byte	0xba
 1878 07d6 E8070000 		.4byte	0x7e8
 1879 07da 05       		.uleb128 0x5
 1880 07db 390A0000 		.4byte	0xa39
 1881 07df 9F020000 		.4byte	.LLST29
ARM GAS  C:\Users\DEVELO~1\AppData\Local\Temp\ccPQmLBO.s 			page 34


 1882 07e3 9D020000 		.4byte	.LVUS29
 1883 07e7 00       		.byte	0
 1884 07e8 33       		.uleb128 0x33
 1885 07e9 84000000 		.4byte	.LVL27
 1886 07ed 03080000 		.4byte	0x803
 1887 07f1 03       		.uleb128 0x3
 1888 07f2 01       		.uleb128 0x1
 1889 07f3 50       		.byte	0x50
 1890 07f4 02       		.uleb128 0x2
 1891 07f5 76       		.byte	0x76
 1892 07f6 00       		.sleb128 0
 1893 07f7 03       		.uleb128 0x3
 1894 07f8 01       		.uleb128 0x1
 1895 07f9 51       		.byte	0x51
 1896 07fa 02       		.uleb128 0x2
 1897 07fb 74       		.byte	0x74
 1898 07fc 00       		.sleb128 0
 1899 07fd 03       		.uleb128 0x3
 1900 07fe 01       		.uleb128 0x1
 1901 07ff 52       		.byte	0x52
 1902 0800 01       		.uleb128 0x1
 1903 0801 31       		.byte	0x31
 1904 0802 00       		.byte	0
 1905 0803 13       		.uleb128 0x13
 1906 0804 90000000 		.4byte	.LVL29
 1907 0808 52030000 		.4byte	0x352
 1908 080c 03       		.uleb128 0x3
 1909 080d 01       		.uleb128 0x1
 1910 080e 50       		.byte	0x50
 1911 080f 02       		.uleb128 0x2
 1912 0810 79       		.byte	0x79
 1913 0811 00       		.sleb128 0
 1914 0812 00       		.byte	0
 1915 0813 00       		.byte	0
 1916 0814 13       		.uleb128 0x13
 1917 0815 F6000000 		.4byte	.LVL39
 1918 0819 52030000 		.4byte	0x352
 1919 081d 03       		.uleb128 0x3
 1920 081e 01       		.uleb128 0x1
 1921 081f 50       		.byte	0x50
 1922 0820 02       		.uleb128 0x2
 1923 0821 74       		.byte	0x74
 1924 0822 18       		.sleb128 24
 1925 0823 00       		.byte	0
 1926 0824 00       		.byte	0
 1927 0825 0F       		.uleb128 0xf
 1928 0826 F2000000 		.4byte	0xf2
 1929 082a 35080000 		.4byte	0x835
 1930 082e 10       		.uleb128 0x10
 1931 082f 39000000 		.4byte	0x39
 1932 0833 10       		.byte	0x10
 1933 0834 00       		.byte	0
 1934 0835 07       		.uleb128 0x7
 1935 0836 25080000 		.4byte	0x825
 1936 083a 34       		.uleb128 0x34
 1937 083b C8000000 		.4byte	.LASF65
 1938 083f 01       		.byte	0x1
ARM GAS  C:\Users\DEVELO~1\AppData\Local\Temp\ccPQmLBO.s 			page 35


 1939 0840 F0       		.byte	0xf0
 1940 0841 06       		.byte	0x6
 1941 0842 00000000 		.4byte	.LFB354
 1942 0846 7E000000 		.4byte	.LFE354-.LFB354
 1943 084a 01       		.uleb128 0x1
 1944 084b 9C       		.byte	0x9c
 1945 084c 47090000 		.4byte	0x947
 1946 0850 35       		.uleb128 0x35
 1947 0851 6F637000 		.ascii	"ocp\000"
 1948 0855 01       		.byte	0x1
 1949 0856 F0       		.byte	0xf0
 1950 0857 29       		.byte	0x29
 1951 0858 1D030000 		.4byte	0x31d
 1952 085c AE020000 		.4byte	.LLST0
 1953 0860 AA020000 		.4byte	.LVUS0
 1954 0864 14       		.uleb128 0x14
 1955 0865 6F020000 		.4byte	.LASF44
 1956 0869 F1       		.byte	0xf1
 1957 086a 1F       		.byte	0x1f
 1958 086b DF000000 		.4byte	0xdf
 1959 086f C6020000 		.4byte	.LLST1
 1960 0873 BE020000 		.4byte	.LVUS1
 1961 0877 14       		.uleb128 0x14
 1962 0878 82020000 		.4byte	.LASF45
 1963 087c F2       		.byte	0xf2
 1964 087d 2B       		.byte	0x2b
 1965 087e 33030000 		.4byte	0x333
 1966 0882 E8020000 		.4byte	.LLST2
 1967 0886 E4020000 		.4byte	.LVUS2
 1968 088a 14       		.uleb128 0x14
 1969 088b 2A040000 		.4byte	.LASF46
 1970 088f F3       		.byte	0xf3
 1971 0890 1F       		.byte	0x1f
 1972 0891 DF000000 		.4byte	0xdf
 1973 0895 FE020000 		.4byte	.LLST3
 1974 0899 F8020000 		.4byte	.LVUS3
 1975 089d 17       		.uleb128 0x17
 1976 089e 3D010000 		.4byte	.LASF47
 1977 08a2 F4       		.byte	0xf4
 1978 08a3 1F       		.byte	0x1f
 1979 08a4 2D000000 		.4byte	0x2d
 1980 08a8 02       		.uleb128 0x2
 1981 08a9 91       		.byte	0x91
 1982 08aa 00       		.sleb128 0
 1983 08ab 14       		.uleb128 0x14
 1984 08ac 0C000000 		.4byte	.LASF48
 1985 08b0 F5       		.byte	0xf5
 1986 08b1 1E       		.byte	0x1e
 1987 08b2 F7000000 		.4byte	0xf7
 1988 08b6 19030000 		.4byte	.LLST4
 1989 08ba 15030000 		.4byte	.LVUS4
 1990 08be 17       		.uleb128 0x17
 1991 08bf 88020000 		.4byte	.LASF51
 1992 08c3 F6       		.byte	0xf6
 1993 08c4 23       		.byte	0x23
 1994 08c5 F3020000 		.4byte	0x2f3
 1995 08c9 02       		.uleb128 0x2
ARM GAS  C:\Users\DEVELO~1\AppData\Local\Temp\ccPQmLBO.s 			page 36


 1996 08ca 91       		.byte	0x91
 1997 08cb 08       		.sleb128 8
 1998 08cc 17       		.uleb128 0x17
 1999 08cd 68020000 		.4byte	.LASF52
 2000 08d1 F7       		.byte	0xf7
 2001 08d2 24       		.byte	0x24
 2002 08d3 27030000 		.4byte	0x327
 2003 08d7 02       		.uleb128 0x2
 2004 08d8 91       		.byte	0x91
 2005 08d9 0C       		.sleb128 12
 2006 08da 0E       		.uleb128 0xe
 2007 08db 29020000 		.4byte	.LASF63
 2008 08df 57090000 		.4byte	0x957
 2009 08e3 1F       		.uleb128 0x1f
 2010 08e4 0C000000 		.4byte	.LLRL5
 2011 08e8 17090000 		.4byte	0x917
 2012 08ec 1E       		.uleb128 0x1e
 2013 08ed 2F040000 		.4byte	.LASF57
 2014 08f1 1501     		.2byte	0x115
 2015 08f3 12       		.byte	0x12
 2016 08f4 22030000 		.4byte	0x322
 2017 08f8 2E030000 		.4byte	.LLST6
 2018 08fc 2A030000 		.4byte	.LVUS6
 2019 0900 13       		.uleb128 0x13
 2020 0901 62000000 		.4byte	.LVL8
 2021 0905 68030000 		.4byte	0x368
 2022 0909 03       		.uleb128 0x3
 2023 090a 01       		.uleb128 0x1
 2024 090b 50       		.byte	0x50
 2025 090c 02       		.uleb128 0x2
 2026 090d 74       		.byte	0x74
 2027 090e 18       		.sleb128 24
 2028 090f 03       		.uleb128 0x3
 2029 0910 01       		.uleb128 0x1
 2030 0911 51       		.byte	0x51
 2031 0912 02       		.uleb128 0x2
 2032 0913 7A       		.byte	0x7a
 2033 0914 00       		.sleb128 0
 2034 0915 00       		.byte	0
 2035 0916 00       		.byte	0
 2036 0917 1D       		.uleb128 0x1d
 2037 0918 1A000000 		.4byte	.LVL3
 2038 091c 68030000 		.4byte	0x368
 2039 0920 30090000 		.4byte	0x930
 2040 0924 03       		.uleb128 0x3
 2041 0925 01       		.uleb128 0x1
 2042 0926 50       		.byte	0x50
 2043 0927 02       		.uleb128 0x2
 2044 0928 76       		.byte	0x76
 2045 0929 24       		.sleb128 36
 2046 092a 03       		.uleb128 0x3
 2047 092b 01       		.uleb128 0x1
 2048 092c 51       		.byte	0x51
 2049 092d 01       		.uleb128 0x1
 2050 092e 31       		.byte	0x31
 2051 092f 00       		.byte	0
 2052 0930 13       		.uleb128 0x13
ARM GAS  C:\Users\DEVELO~1\AppData\Local\Temp\ccPQmLBO.s 			page 37


 2053 0931 24000000 		.4byte	.LVL4
 2054 0935 68030000 		.4byte	0x368
 2055 0939 03       		.uleb128 0x3
 2056 093a 01       		.uleb128 0x1
 2057 093b 50       		.byte	0x50
 2058 093c 02       		.uleb128 0x2
 2059 093d 76       		.byte	0x76
 2060 093e 30       		.sleb128 48
 2061 093f 03       		.uleb128 0x3
 2062 0940 01       		.uleb128 0x1
 2063 0941 51       		.byte	0x51
 2064 0942 02       		.uleb128 0x2
 2065 0943 77       		.byte	0x77
 2066 0944 00       		.sleb128 0
 2067 0945 00       		.byte	0
 2068 0946 00       		.byte	0
 2069 0947 0F       		.uleb128 0xf
 2070 0948 F2000000 		.4byte	0xf2
 2071 094c 57090000 		.4byte	0x957
 2072 0950 10       		.uleb128 0x10
 2073 0951 39000000 		.4byte	0x39
 2074 0955 11       		.byte	0x11
 2075 0956 00       		.byte	0
 2076 0957 07       		.uleb128 0x7
 2077 0958 47090000 		.4byte	0x947
 2078 095c 18       		.uleb128 0x18
 2079 095d 1A020000 		.4byte	.LASF66
 2080 0961 01       		.byte	0x1
 2081 0962 A5       		.byte	0xa5
 2082 0963 22030000 		.4byte	0x322
 2083 0967 01       		.byte	0x1
 2084 0968 8D090000 		.4byte	0x98d
 2085 096c 0C       		.uleb128 0xc
 2086 096d 6F637000 		.ascii	"ocp\000"
 2087 0971 01       		.byte	0x1
 2088 0972 A5       		.byte	0xa5
 2089 0973 35       		.byte	0x35
 2090 0974 1D030000 		.4byte	0x31d
 2091 0978 24       		.uleb128 0x24
 2092 0979 2F040000 		.4byte	.LASF57
 2093 097d A6       		.byte	0xa6
 2094 097e 10       		.byte	0x10
 2095 097f 22030000 		.4byte	0x322
 2096 0983 0E       		.uleb128 0xe
 2097 0984 29020000 		.4byte	.LASF63
 2098 0988 9D090000 		.4byte	0x99d
 2099 098c 00       		.byte	0
 2100 098d 0F       		.uleb128 0xf
 2101 098e F2000000 		.4byte	0xf2
 2102 0992 9D090000 		.4byte	0x99d
 2103 0996 10       		.uleb128 0x10
 2104 0997 39000000 		.4byte	0x39
 2105 099b 0E       		.byte	0xe
 2106 099c 00       		.byte	0
 2107 099d 07       		.uleb128 0x7
 2108 099e 8D090000 		.4byte	0x98d
 2109 09a2 18       		.uleb128 0x18
ARM GAS  C:\Users\DEVELO~1\AppData\Local\Temp\ccPQmLBO.s 			page 38


 2110 09a3 72040000 		.4byte	.LASF67
 2111 09a7 01       		.byte	0x1
 2112 09a8 86       		.byte	0x86
 2113 09a9 22030000 		.4byte	0x322
 2114 09ad 01       		.byte	0x1
 2115 09ae F8090000 		.4byte	0x9f8
 2116 09b2 0C       		.uleb128 0xc
 2117 09b3 6F637000 		.ascii	"ocp\000"
 2118 09b7 01       		.byte	0x1
 2119 09b8 86       		.byte	0x86
 2120 09b9 31       		.byte	0x31
 2121 09ba 1D030000 		.4byte	0x31d
 2122 09be 36       		.uleb128 0x36
 2123 09bf 32020000 		.4byte	.LASF62
 2124 09c3 01       		.byte	0x1
 2125 09c4 87       		.byte	0x87
 2126 09c5 26       		.byte	0x26
 2127 09c6 F7000000 		.4byte	0xf7
 2128 09ca 0C       		.uleb128 0xc
 2129 09cb 6B657900 		.ascii	"key\000"
 2130 09cf 01       		.byte	0x1
 2131 09d0 88       		.byte	0x88
 2132 09d1 29       		.byte	0x29
 2133 09d2 BB000000 		.4byte	0xbb
 2134 09d6 25       		.uleb128 0x25
 2135 09d7 68657000 		.ascii	"hep\000"
 2136 09db 89       		.byte	0x89
 2137 09dc 16       		.byte	0x16
 2138 09dd 33030000 		.4byte	0x333
 2139 09e1 25       		.uleb128 0x25
 2140 09e2 7000     		.ascii	"p\000"
 2141 09e4 89       		.byte	0x89
 2142 09e5 1C       		.byte	0x1c
 2143 09e6 33030000 		.4byte	0x333
 2144 09ea 37       		.uleb128 0x37
 2145 09eb 24       		.uleb128 0x24
 2146 09ec 2F040000 		.4byte	.LASF57
 2147 09f0 91       		.byte	0x91
 2148 09f1 12       		.byte	0x12
 2149 09f2 22030000 		.4byte	0x322
 2150 09f6 00       		.byte	0
 2151 09f7 00       		.byte	0
 2152 09f8 18       		.uleb128 0x18
 2153 09f9 3D000000 		.4byte	.LASF68
 2154 09fd 05       		.byte	0x5
 2155 09fe BE       		.byte	0xbe
 2156 09ff D3000000 		.4byte	0xd3
 2157 0a03 03       		.byte	0x3
 2158 0a04 140A0000 		.4byte	0xa14
 2159 0a08 0C       		.uleb128 0xc
 2160 0a09 737000   		.ascii	"sp\000"
 2161 0a0c 05       		.byte	0x5
 2162 0a0d BE       		.byte	0xbe
 2163 0a0e 39       		.byte	0x39
 2164 0a0f 140A0000 		.4byte	0xa14
 2165 0a13 00       		.byte	0
 2166 0a14 06       		.uleb128 0x6
ARM GAS  C:\Users\DEVELO~1\AppData\Local\Temp\ccPQmLBO.s 			page 39


 2167 0a15 65010000 		.4byte	0x165
 2168 0a19 26       		.uleb128 0x26
 2169 0a1a 6E000000 		.4byte	.LASF69
 2170 0a1e AF       		.byte	0xaf
 2171 0a1f 2F0A0000 		.4byte	0xa2f
 2172 0a23 0C       		.uleb128 0xc
 2173 0a24 737000   		.ascii	"sp\000"
 2174 0a27 05       		.byte	0x5
 2175 0a28 AF       		.byte	0xaf
 2176 0a29 32       		.byte	0x32
 2177 0a2a 4D030000 		.4byte	0x34d
 2178 0a2e 00       		.byte	0
 2179 0a2f 26       		.uleb128 0x26
 2180 0a30 38020000 		.4byte	.LASF70
 2181 0a34 9F       		.byte	0x9f
 2182 0a35 450A0000 		.4byte	0xa45
 2183 0a39 0C       		.uleb128 0xc
 2184 0a3a 737000   		.ascii	"sp\000"
 2185 0a3d 05       		.byte	0x5
 2186 0a3e 9F       		.byte	0x9f
 2187 0a3f 30       		.byte	0x30
 2188 0a40 4D030000 		.4byte	0x34d
 2189 0a44 00       		.byte	0
 2190 0a45 38       		.uleb128 0x38
 2191 0a46 11040000 		.4byte	.LASF71
 2192 0a4a 02       		.byte	0x2
 2193 0a4b 8201     		.2byte	0x182
 2194 0a4d 14       		.byte	0x14
 2195 0a4e 03       		.byte	0x3
 2196 0a4f 5D0A0000 		.4byte	0xa5d
 2197 0a53 0E       		.uleb128 0xe
 2198 0a54 29020000 		.4byte	.LASF63
 2199 0a58 6D0A0000 		.4byte	0xa6d
 2200 0a5c 00       		.byte	0
 2201 0a5d 0F       		.uleb128 0xf
 2202 0a5e F2000000 		.4byte	0xf2
 2203 0a62 6D0A0000 		.4byte	0xa6d
 2204 0a66 10       		.uleb128 0x10
 2205 0a67 39000000 		.4byte	0x39
 2206 0a6b 0B       		.byte	0xb
 2207 0a6c 00       		.byte	0
 2208 0a6d 07       		.uleb128 0x7
 2209 0a6e 5D0A0000 		.4byte	0xa5d
 2210 0a72 19       		.uleb128 0x19
 2211 0a73 43010000 		.4byte	.LASF72
 2212 0a77 02       		.byte	0x2
 2213 0a78 7401     		.2byte	0x174
 2214 0a7a 14       		.byte	0x14
 2215 0a7b 19       		.uleb128 0x19
 2216 0a7c F5020000 		.4byte	.LASF73
 2217 0a80 03       		.byte	0x3
 2218 0a81 6003     		.2byte	0x360
 2219 0a83 1B       		.byte	0x1b
 2220 0a84 19       		.uleb128 0x19
 2221 0a85 8D000000 		.4byte	.LASF74
 2222 0a89 03       		.byte	0x3
 2223 0a8a 4803     		.2byte	0x348
ARM GAS  C:\Users\DEVELO~1\AppData\Local\Temp\ccPQmLBO.s 			page 40


 2224 0a8c 1B       		.byte	0x1b
 2225 0a8d 39       		.uleb128 0x39
 2226 0a8e 4A040000 		.4byte	.LASF80
 2227 0a92 04       		.byte	0x4
 2228 0a93 EB01     		.2byte	0x1eb
 2229 0a95 1B       		.byte	0x1b
 2230 0a96 03       		.byte	0x3
 2231 0a97 3A       		.uleb128 0x3a
 2232 0a98 A1020000 		.4byte	.LASF75
 2233 0a9c 04       		.byte	0x4
 2234 0a9d EB01     		.2byte	0x1eb
 2235 0a9f 32       		.byte	0x32
 2236 0aa0 BB000000 		.4byte	0xbb
 2237 0aa4 00       		.byte	0
 2238 0aa5 00       		.byte	0
 2239              		.section	.debug_abbrev,"",%progbits
 2240              	.Ldebug_abbrev0:
 2241 0000 01       		.uleb128 0x1
 2242 0001 0D       		.uleb128 0xd
 2243 0002 00       		.byte	0
 2244 0003 03       		.uleb128 0x3
 2245 0004 0E       		.uleb128 0xe
 2246 0005 3A       		.uleb128 0x3a
 2247 0006 0B       		.uleb128 0xb
 2248 0007 3B       		.uleb128 0x3b
 2249 0008 0B       		.uleb128 0xb
 2250 0009 39       		.uleb128 0x39
 2251 000a 0B       		.uleb128 0xb
 2252 000b 49       		.uleb128 0x49
 2253 000c 13       		.uleb128 0x13
 2254 000d 38       		.uleb128 0x38
 2255 000e 0B       		.uleb128 0xb
 2256 000f 00       		.byte	0
 2257 0010 00       		.byte	0
 2258 0011 02       		.uleb128 0x2
 2259 0012 16       		.uleb128 0x16
 2260 0013 00       		.byte	0
 2261 0014 03       		.uleb128 0x3
 2262 0015 0E       		.uleb128 0xe
 2263 0016 3A       		.uleb128 0x3a
 2264 0017 0B       		.uleb128 0xb
 2265 0018 3B       		.uleb128 0x3b
 2266 0019 0B       		.uleb128 0xb
 2267 001a 39       		.uleb128 0x39
 2268 001b 0B       		.uleb128 0xb
 2269 001c 49       		.uleb128 0x49
 2270 001d 13       		.uleb128 0x13
 2271 001e 00       		.byte	0
 2272 001f 00       		.byte	0
 2273 0020 03       		.uleb128 0x3
 2274 0021 49       		.uleb128 0x49
 2275 0022 00       		.byte	0
 2276 0023 02       		.uleb128 0x2
 2277 0024 18       		.uleb128 0x18
 2278 0025 7E       		.uleb128 0x7e
 2279 0026 18       		.uleb128 0x18
 2280 0027 00       		.byte	0
ARM GAS  C:\Users\DEVELO~1\AppData\Local\Temp\ccPQmLBO.s 			page 41


 2281 0028 00       		.byte	0
 2282 0029 04       		.uleb128 0x4
 2283 002a 24       		.uleb128 0x24
 2284 002b 00       		.byte	0
 2285 002c 0B       		.uleb128 0xb
 2286 002d 0B       		.uleb128 0xb
 2287 002e 3E       		.uleb128 0x3e
 2288 002f 0B       		.uleb128 0xb
 2289 0030 03       		.uleb128 0x3
 2290 0031 0E       		.uleb128 0xe
 2291 0032 00       		.byte	0
 2292 0033 00       		.byte	0
 2293 0034 05       		.uleb128 0x5
 2294 0035 05       		.uleb128 0x5
 2295 0036 00       		.byte	0
 2296 0037 31       		.uleb128 0x31
 2297 0038 13       		.uleb128 0x13
 2298 0039 02       		.uleb128 0x2
 2299 003a 17       		.uleb128 0x17
 2300 003b B742     		.uleb128 0x2137
 2301 003d 17       		.uleb128 0x17
 2302 003e 00       		.byte	0
 2303 003f 00       		.byte	0
 2304 0040 06       		.uleb128 0x6
 2305 0041 0F       		.uleb128 0xf
 2306 0042 00       		.byte	0
 2307 0043 0B       		.uleb128 0xb
 2308 0044 21       		.uleb128 0x21
 2309 0045 04       		.sleb128 4
 2310 0046 49       		.uleb128 0x49
 2311 0047 13       		.uleb128 0x13
 2312 0048 00       		.byte	0
 2313 0049 00       		.byte	0
 2314 004a 07       		.uleb128 0x7
 2315 004b 26       		.uleb128 0x26
 2316 004c 00       		.byte	0
 2317 004d 49       		.uleb128 0x49
 2318 004e 13       		.uleb128 0x13
 2319 004f 00       		.byte	0
 2320 0050 00       		.byte	0
 2321 0051 08       		.uleb128 0x8
 2322 0052 05       		.uleb128 0x5
 2323 0053 00       		.byte	0
 2324 0054 49       		.uleb128 0x49
 2325 0055 13       		.uleb128 0x13
 2326 0056 00       		.byte	0
 2327 0057 00       		.byte	0
 2328 0058 09       		.uleb128 0x9
 2329 0059 13       		.uleb128 0x13
 2330 005a 01       		.byte	0x1
 2331 005b 03       		.uleb128 0x3
 2332 005c 0E       		.uleb128 0xe
 2333 005d 0B       		.uleb128 0xb
 2334 005e 0B       		.uleb128 0xb
 2335 005f 3A       		.uleb128 0x3a
 2336 0060 0B       		.uleb128 0xb
 2337 0061 3B       		.uleb128 0x3b
ARM GAS  C:\Users\DEVELO~1\AppData\Local\Temp\ccPQmLBO.s 			page 42


 2338 0062 0B       		.uleb128 0xb
 2339 0063 39       		.uleb128 0x39
 2340 0064 0B       		.uleb128 0xb
 2341 0065 01       		.uleb128 0x1
 2342 0066 13       		.uleb128 0x13
 2343 0067 00       		.byte	0
 2344 0068 00       		.byte	0
 2345 0069 0A       		.uleb128 0xa
 2346 006a 05       		.uleb128 0x5
 2347 006b 00       		.byte	0
 2348 006c 03       		.uleb128 0x3
 2349 006d 0E       		.uleb128 0xe
 2350 006e 3A       		.uleb128 0x3a
 2351 006f 21       		.uleb128 0x21
 2352 0070 01       		.sleb128 1
 2353 0071 3B       		.uleb128 0x3b
 2354 0072 05       		.uleb128 0x5
 2355 0073 39       		.uleb128 0x39
 2356 0074 0B       		.uleb128 0xb
 2357 0075 49       		.uleb128 0x49
 2358 0076 13       		.uleb128 0x13
 2359 0077 02       		.uleb128 0x2
 2360 0078 17       		.uleb128 0x17
 2361 0079 B742     		.uleb128 0x2137
 2362 007b 17       		.uleb128 0x17
 2363 007c 00       		.byte	0
 2364 007d 00       		.byte	0
 2365 007e 0B       		.uleb128 0xb
 2366 007f 1D       		.uleb128 0x1d
 2367 0080 01       		.byte	0x1
 2368 0081 31       		.uleb128 0x31
 2369 0082 13       		.uleb128 0x13
 2370 0083 52       		.uleb128 0x52
 2371 0084 01       		.uleb128 0x1
 2372 0085 B842     		.uleb128 0x2138
 2373 0087 0B       		.uleb128 0xb
 2374 0088 55       		.uleb128 0x55
 2375 0089 17       		.uleb128 0x17
 2376 008a 58       		.uleb128 0x58
 2377 008b 0B       		.uleb128 0xb
 2378 008c 59       		.uleb128 0x59
 2379 008d 05       		.uleb128 0x5
 2380 008e 57       		.uleb128 0x57
 2381 008f 21       		.uleb128 0x21
 2382 0090 03       		.sleb128 3
 2383 0091 00       		.byte	0
 2384 0092 00       		.byte	0
 2385 0093 0C       		.uleb128 0xc
 2386 0094 05       		.uleb128 0x5
 2387 0095 00       		.byte	0
 2388 0096 03       		.uleb128 0x3
 2389 0097 08       		.uleb128 0x8
 2390 0098 3A       		.uleb128 0x3a
 2391 0099 0B       		.uleb128 0xb
 2392 009a 3B       		.uleb128 0x3b
 2393 009b 0B       		.uleb128 0xb
 2394 009c 39       		.uleb128 0x39
ARM GAS  C:\Users\DEVELO~1\AppData\Local\Temp\ccPQmLBO.s 			page 43


 2395 009d 0B       		.uleb128 0xb
 2396 009e 49       		.uleb128 0x49
 2397 009f 13       		.uleb128 0x13
 2398 00a0 00       		.byte	0
 2399 00a1 00       		.byte	0
 2400 00a2 0D       		.uleb128 0xd
 2401 00a3 05       		.uleb128 0x5
 2402 00a4 00       		.byte	0
 2403 00a5 03       		.uleb128 0x3
 2404 00a6 08       		.uleb128 0x8
 2405 00a7 3A       		.uleb128 0x3a
 2406 00a8 21       		.uleb128 0x21
 2407 00a9 01       		.sleb128 1
 2408 00aa 3B       		.uleb128 0x3b
 2409 00ab 05       		.uleb128 0x5
 2410 00ac 39       		.uleb128 0x39
 2411 00ad 0B       		.uleb128 0xb
 2412 00ae 49       		.uleb128 0x49
 2413 00af 13       		.uleb128 0x13
 2414 00b0 02       		.uleb128 0x2
 2415 00b1 17       		.uleb128 0x17
 2416 00b2 B742     		.uleb128 0x2137
 2417 00b4 17       		.uleb128 0x17
 2418 00b5 00       		.byte	0
 2419 00b6 00       		.byte	0
 2420 00b7 0E       		.uleb128 0xe
 2421 00b8 34       		.uleb128 0x34
 2422 00b9 00       		.byte	0
 2423 00ba 03       		.uleb128 0x3
 2424 00bb 0E       		.uleb128 0xe
 2425 00bc 49       		.uleb128 0x49
 2426 00bd 13       		.uleb128 0x13
 2427 00be 34       		.uleb128 0x34
 2428 00bf 19       		.uleb128 0x19
 2429 00c0 00       		.byte	0
 2430 00c1 00       		.byte	0
 2431 00c2 0F       		.uleb128 0xf
 2432 00c3 01       		.uleb128 0x1
 2433 00c4 01       		.byte	0x1
 2434 00c5 49       		.uleb128 0x49
 2435 00c6 13       		.uleb128 0x13
 2436 00c7 01       		.uleb128 0x1
 2437 00c8 13       		.uleb128 0x13
 2438 00c9 00       		.byte	0
 2439 00ca 00       		.byte	0
 2440 00cb 10       		.uleb128 0x10
 2441 00cc 21       		.uleb128 0x21
 2442 00cd 00       		.byte	0
 2443 00ce 49       		.uleb128 0x49
 2444 00cf 13       		.uleb128 0x13
 2445 00d0 2F       		.uleb128 0x2f
 2446 00d1 0B       		.uleb128 0xb
 2447 00d2 00       		.byte	0
 2448 00d3 00       		.byte	0
 2449 00d4 11       		.uleb128 0x11
 2450 00d5 1D       		.uleb128 0x1d
 2451 00d6 01       		.byte	0x1
ARM GAS  C:\Users\DEVELO~1\AppData\Local\Temp\ccPQmLBO.s 			page 44


 2452 00d7 31       		.uleb128 0x31
 2453 00d8 13       		.uleb128 0x13
 2454 00d9 52       		.uleb128 0x52
 2455 00da 01       		.uleb128 0x1
 2456 00db B842     		.uleb128 0x2138
 2457 00dd 0B       		.uleb128 0xb
 2458 00de 11       		.uleb128 0x11
 2459 00df 01       		.uleb128 0x1
 2460 00e0 12       		.uleb128 0x12
 2461 00e1 06       		.uleb128 0x6
 2462 00e2 58       		.uleb128 0x58
 2463 00e3 21       		.uleb128 0x21
 2464 00e4 01       		.sleb128 1
 2465 00e5 59       		.uleb128 0x59
 2466 00e6 05       		.uleb128 0x5
 2467 00e7 57       		.uleb128 0x57
 2468 00e8 0B       		.uleb128 0xb
 2469 00e9 01       		.uleb128 0x1
 2470 00ea 13       		.uleb128 0x13
 2471 00eb 00       		.byte	0
 2472 00ec 00       		.byte	0
 2473 00ed 12       		.uleb128 0x12
 2474 00ee 34       		.uleb128 0x34
 2475 00ef 00       		.byte	0
 2476 00f0 31       		.uleb128 0x31
 2477 00f1 13       		.uleb128 0x13
 2478 00f2 02       		.uleb128 0x2
 2479 00f3 17       		.uleb128 0x17
 2480 00f4 B742     		.uleb128 0x2137
 2481 00f6 17       		.uleb128 0x17
 2482 00f7 00       		.byte	0
 2483 00f8 00       		.byte	0
 2484 00f9 13       		.uleb128 0x13
 2485 00fa 48       		.uleb128 0x48
 2486 00fb 01       		.byte	0x1
 2487 00fc 7D       		.uleb128 0x7d
 2488 00fd 01       		.uleb128 0x1
 2489 00fe 7F       		.uleb128 0x7f
 2490 00ff 13       		.uleb128 0x13
 2491 0100 00       		.byte	0
 2492 0101 00       		.byte	0
 2493 0102 14       		.uleb128 0x14
 2494 0103 05       		.uleb128 0x5
 2495 0104 00       		.byte	0
 2496 0105 03       		.uleb128 0x3
 2497 0106 0E       		.uleb128 0xe
 2498 0107 3A       		.uleb128 0x3a
 2499 0108 21       		.uleb128 0x21
 2500 0109 01       		.sleb128 1
 2501 010a 3B       		.uleb128 0x3b
 2502 010b 0B       		.uleb128 0xb
 2503 010c 39       		.uleb128 0x39
 2504 010d 0B       		.uleb128 0xb
 2505 010e 49       		.uleb128 0x49
 2506 010f 13       		.uleb128 0x13
 2507 0110 02       		.uleb128 0x2
 2508 0111 17       		.uleb128 0x17
ARM GAS  C:\Users\DEVELO~1\AppData\Local\Temp\ccPQmLBO.s 			page 45


 2509 0112 B742     		.uleb128 0x2137
 2510 0114 17       		.uleb128 0x17
 2511 0115 00       		.byte	0
 2512 0116 00       		.byte	0
 2513 0117 15       		.uleb128 0x15
 2514 0118 2E       		.uleb128 0x2e
 2515 0119 01       		.byte	0x1
 2516 011a 3F       		.uleb128 0x3f
 2517 011b 19       		.uleb128 0x19
 2518 011c 03       		.uleb128 0x3
 2519 011d 0E       		.uleb128 0xe
 2520 011e 3A       		.uleb128 0x3a
 2521 011f 21       		.uleb128 0x21
 2522 0120 01       		.sleb128 1
 2523 0121 3B       		.uleb128 0x3b
 2524 0122 05       		.uleb128 0x5
 2525 0123 39       		.uleb128 0x39
 2526 0124 0B       		.uleb128 0xb
 2527 0125 27       		.uleb128 0x27
 2528 0126 19       		.uleb128 0x19
 2529 0127 49       		.uleb128 0x49
 2530 0128 13       		.uleb128 0x13
 2531 0129 11       		.uleb128 0x11
 2532 012a 01       		.uleb128 0x1
 2533 012b 12       		.uleb128 0x12
 2534 012c 06       		.uleb128 0x6
 2535 012d 40       		.uleb128 0x40
 2536 012e 18       		.uleb128 0x18
 2537 012f 7A       		.uleb128 0x7a
 2538 0130 19       		.uleb128 0x19
 2539 0131 01       		.uleb128 0x1
 2540 0132 13       		.uleb128 0x13
 2541 0133 00       		.byte	0
 2542 0134 00       		.byte	0
 2543 0135 16       		.uleb128 0x16
 2544 0136 05       		.uleb128 0x5
 2545 0137 00       		.byte	0
 2546 0138 31       		.uleb128 0x31
 2547 0139 13       		.uleb128 0x13
 2548 013a 00       		.byte	0
 2549 013b 00       		.byte	0
 2550 013c 17       		.uleb128 0x17
 2551 013d 05       		.uleb128 0x5
 2552 013e 00       		.byte	0
 2553 013f 03       		.uleb128 0x3
 2554 0140 0E       		.uleb128 0xe
 2555 0141 3A       		.uleb128 0x3a
 2556 0142 21       		.uleb128 0x21
 2557 0143 01       		.sleb128 1
 2558 0144 3B       		.uleb128 0x3b
 2559 0145 0B       		.uleb128 0xb
 2560 0146 39       		.uleb128 0x39
 2561 0147 0B       		.uleb128 0xb
 2562 0148 49       		.uleb128 0x49
 2563 0149 13       		.uleb128 0x13
 2564 014a 02       		.uleb128 0x2
 2565 014b 18       		.uleb128 0x18
ARM GAS  C:\Users\DEVELO~1\AppData\Local\Temp\ccPQmLBO.s 			page 46


 2566 014c 00       		.byte	0
 2567 014d 00       		.byte	0
 2568 014e 18       		.uleb128 0x18
 2569 014f 2E       		.uleb128 0x2e
 2570 0150 01       		.byte	0x1
 2571 0151 03       		.uleb128 0x3
 2572 0152 0E       		.uleb128 0xe
 2573 0153 3A       		.uleb128 0x3a
 2574 0154 0B       		.uleb128 0xb
 2575 0155 3B       		.uleb128 0x3b
 2576 0156 0B       		.uleb128 0xb
 2577 0157 39       		.uleb128 0x39
 2578 0158 21       		.uleb128 0x21
 2579 0159 15       		.sleb128 21
 2580 015a 27       		.uleb128 0x27
 2581 015b 19       		.uleb128 0x19
 2582 015c 49       		.uleb128 0x49
 2583 015d 13       		.uleb128 0x13
 2584 015e 20       		.uleb128 0x20
 2585 015f 0B       		.uleb128 0xb
 2586 0160 01       		.uleb128 0x1
 2587 0161 13       		.uleb128 0x13
 2588 0162 00       		.byte	0
 2589 0163 00       		.byte	0
 2590 0164 19       		.uleb128 0x19
 2591 0165 2E       		.uleb128 0x2e
 2592 0166 00       		.byte	0
 2593 0167 03       		.uleb128 0x3
 2594 0168 0E       		.uleb128 0xe
 2595 0169 3A       		.uleb128 0x3a
 2596 016a 0B       		.uleb128 0xb
 2597 016b 3B       		.uleb128 0x3b
 2598 016c 05       		.uleb128 0x5
 2599 016d 39       		.uleb128 0x39
 2600 016e 0B       		.uleb128 0xb
 2601 016f 27       		.uleb128 0x27
 2602 0170 19       		.uleb128 0x19
 2603 0171 20       		.uleb128 0x20
 2604 0172 21       		.uleb128 0x21
 2605 0173 03       		.sleb128 3
 2606 0174 00       		.byte	0
 2607 0175 00       		.byte	0
 2608 0176 1A       		.uleb128 0x1a
 2609 0177 0D       		.uleb128 0xd
 2610 0178 00       		.byte	0
 2611 0179 03       		.uleb128 0x3
 2612 017a 08       		.uleb128 0x8
 2613 017b 3A       		.uleb128 0x3a
 2614 017c 0B       		.uleb128 0xb
 2615 017d 3B       		.uleb128 0x3b
 2616 017e 0B       		.uleb128 0xb
 2617 017f 39       		.uleb128 0x39
 2618 0180 21       		.uleb128 0x21
 2619 0181 19       		.sleb128 25
 2620 0182 49       		.uleb128 0x49
 2621 0183 13       		.uleb128 0x13
 2622 0184 38       		.uleb128 0x38
ARM GAS  C:\Users\DEVELO~1\AppData\Local\Temp\ccPQmLBO.s 			page 47


 2623 0185 0B       		.uleb128 0xb
 2624 0186 00       		.byte	0
 2625 0187 00       		.byte	0
 2626 0188 1B       		.uleb128 0x1b
 2627 0189 2E       		.uleb128 0x2e
 2628 018a 01       		.byte	0x1
 2629 018b 3F       		.uleb128 0x3f
 2630 018c 19       		.uleb128 0x19
 2631 018d 03       		.uleb128 0x3
 2632 018e 0E       		.uleb128 0xe
 2633 018f 3A       		.uleb128 0x3a
 2634 0190 21       		.uleb128 0x21
 2635 0191 05       		.sleb128 5
 2636 0192 3B       		.uleb128 0x3b
 2637 0193 0B       		.uleb128 0xb
 2638 0194 39       		.uleb128 0x39
 2639 0195 21       		.uleb128 0x21
 2640 0196 08       		.sleb128 8
 2641 0197 27       		.uleb128 0x27
 2642 0198 19       		.uleb128 0x19
 2643 0199 3C       		.uleb128 0x3c
 2644 019a 19       		.uleb128 0x19
 2645 019b 01       		.uleb128 0x1
 2646 019c 13       		.uleb128 0x13
 2647 019d 00       		.byte	0
 2648 019e 00       		.byte	0
 2649 019f 1C       		.uleb128 0x1c
 2650 01a0 48       		.uleb128 0x48
 2651 01a1 01       		.byte	0x1
 2652 01a2 7D       		.uleb128 0x7d
 2653 01a3 01       		.uleb128 0x1
 2654 01a4 8201     		.uleb128 0x82
 2655 01a6 19       		.uleb128 0x19
 2656 01a7 00       		.byte	0
 2657 01a8 00       		.byte	0
 2658 01a9 1D       		.uleb128 0x1d
 2659 01aa 48       		.uleb128 0x48
 2660 01ab 01       		.byte	0x1
 2661 01ac 7D       		.uleb128 0x7d
 2662 01ad 01       		.uleb128 0x1
 2663 01ae 7F       		.uleb128 0x7f
 2664 01af 13       		.uleb128 0x13
 2665 01b0 01       		.uleb128 0x1
 2666 01b1 13       		.uleb128 0x13
 2667 01b2 00       		.byte	0
 2668 01b3 00       		.byte	0
 2669 01b4 1E       		.uleb128 0x1e
 2670 01b5 34       		.uleb128 0x34
 2671 01b6 00       		.byte	0
 2672 01b7 03       		.uleb128 0x3
 2673 01b8 0E       		.uleb128 0xe
 2674 01b9 3A       		.uleb128 0x3a
 2675 01ba 21       		.uleb128 0x21
 2676 01bb 01       		.sleb128 1
 2677 01bc 3B       		.uleb128 0x3b
 2678 01bd 05       		.uleb128 0x5
 2679 01be 39       		.uleb128 0x39
ARM GAS  C:\Users\DEVELO~1\AppData\Local\Temp\ccPQmLBO.s 			page 48


 2680 01bf 0B       		.uleb128 0xb
 2681 01c0 49       		.uleb128 0x49
 2682 01c1 13       		.uleb128 0x13
 2683 01c2 02       		.uleb128 0x2
 2684 01c3 17       		.uleb128 0x17
 2685 01c4 B742     		.uleb128 0x2137
 2686 01c6 17       		.uleb128 0x17
 2687 01c7 00       		.byte	0
 2688 01c8 00       		.byte	0
 2689 01c9 1F       		.uleb128 0x1f
 2690 01ca 0B       		.uleb128 0xb
 2691 01cb 01       		.byte	0x1
 2692 01cc 55       		.uleb128 0x55
 2693 01cd 17       		.uleb128 0x17
 2694 01ce 01       		.uleb128 0x1
 2695 01cf 13       		.uleb128 0x13
 2696 01d0 00       		.byte	0
 2697 01d1 00       		.byte	0
 2698 01d2 20       		.uleb128 0x20
 2699 01d3 1D       		.uleb128 0x1d
 2700 01d4 01       		.byte	0x1
 2701 01d5 31       		.uleb128 0x31
 2702 01d6 13       		.uleb128 0x13
 2703 01d7 52       		.uleb128 0x52
 2704 01d8 01       		.uleb128 0x1
 2705 01d9 B842     		.uleb128 0x2138
 2706 01db 0B       		.uleb128 0xb
 2707 01dc 55       		.uleb128 0x55
 2708 01dd 17       		.uleb128 0x17
 2709 01de 58       		.uleb128 0x58
 2710 01df 21       		.uleb128 0x21
 2711 01e0 01       		.sleb128 1
 2712 01e1 59       		.uleb128 0x59
 2713 01e2 05       		.uleb128 0x5
 2714 01e3 57       		.uleb128 0x57
 2715 01e4 21       		.uleb128 0x21
 2716 01e5 03       		.sleb128 3
 2717 01e6 01       		.uleb128 0x1
 2718 01e7 13       		.uleb128 0x13
 2719 01e8 00       		.byte	0
 2720 01e9 00       		.byte	0
 2721 01ea 21       		.uleb128 0x21
 2722 01eb 0B       		.uleb128 0xb
 2723 01ec 01       		.byte	0x1
 2724 01ed 55       		.uleb128 0x55
 2725 01ee 17       		.uleb128 0x17
 2726 01ef 00       		.byte	0
 2727 01f0 00       		.byte	0
 2728 01f1 22       		.uleb128 0x22
 2729 01f2 1D       		.uleb128 0x1d
 2730 01f3 01       		.byte	0x1
 2731 01f4 31       		.uleb128 0x31
 2732 01f5 13       		.uleb128 0x13
 2733 01f6 52       		.uleb128 0x52
 2734 01f7 01       		.uleb128 0x1
 2735 01f8 B842     		.uleb128 0x2138
 2736 01fa 0B       		.uleb128 0xb
ARM GAS  C:\Users\DEVELO~1\AppData\Local\Temp\ccPQmLBO.s 			page 49


 2737 01fb 55       		.uleb128 0x55
 2738 01fc 17       		.uleb128 0x17
 2739 01fd 58       		.uleb128 0x58
 2740 01fe 21       		.uleb128 0x21
 2741 01ff 01       		.sleb128 1
 2742 0200 59       		.uleb128 0x59
 2743 0201 0B       		.uleb128 0xb
 2744 0202 57       		.uleb128 0x57
 2745 0203 21       		.uleb128 0x21
 2746 0204 05       		.sleb128 5
 2747 0205 01       		.uleb128 0x1
 2748 0206 13       		.uleb128 0x13
 2749 0207 00       		.byte	0
 2750 0208 00       		.byte	0
 2751 0209 23       		.uleb128 0x23
 2752 020a 1D       		.uleb128 0x1d
 2753 020b 01       		.byte	0x1
 2754 020c 31       		.uleb128 0x31
 2755 020d 13       		.uleb128 0x13
 2756 020e 52       		.uleb128 0x52
 2757 020f 01       		.uleb128 0x1
 2758 0210 B842     		.uleb128 0x2138
 2759 0212 0B       		.uleb128 0xb
 2760 0213 11       		.uleb128 0x11
 2761 0214 01       		.uleb128 0x1
 2762 0215 12       		.uleb128 0x12
 2763 0216 06       		.uleb128 0x6
 2764 0217 58       		.uleb128 0x58
 2765 0218 0B       		.uleb128 0xb
 2766 0219 59       		.uleb128 0x59
 2767 021a 05       		.uleb128 0x5
 2768 021b 57       		.uleb128 0x57
 2769 021c 21       		.uleb128 0x21
 2770 021d 03       		.sleb128 3
 2771 021e 00       		.byte	0
 2772 021f 00       		.byte	0
 2773 0220 24       		.uleb128 0x24
 2774 0221 34       		.uleb128 0x34
 2775 0222 00       		.byte	0
 2776 0223 03       		.uleb128 0x3
 2777 0224 0E       		.uleb128 0xe
 2778 0225 3A       		.uleb128 0x3a
 2779 0226 21       		.uleb128 0x21
 2780 0227 01       		.sleb128 1
 2781 0228 3B       		.uleb128 0x3b
 2782 0229 0B       		.uleb128 0xb
 2783 022a 39       		.uleb128 0x39
 2784 022b 0B       		.uleb128 0xb
 2785 022c 49       		.uleb128 0x49
 2786 022d 13       		.uleb128 0x13
 2787 022e 00       		.byte	0
 2788 022f 00       		.byte	0
 2789 0230 25       		.uleb128 0x25
 2790 0231 34       		.uleb128 0x34
 2791 0232 00       		.byte	0
 2792 0233 03       		.uleb128 0x3
 2793 0234 08       		.uleb128 0x8
ARM GAS  C:\Users\DEVELO~1\AppData\Local\Temp\ccPQmLBO.s 			page 50


 2794 0235 3A       		.uleb128 0x3a
 2795 0236 21       		.uleb128 0x21
 2796 0237 01       		.sleb128 1
 2797 0238 3B       		.uleb128 0x3b
 2798 0239 0B       		.uleb128 0xb
 2799 023a 39       		.uleb128 0x39
 2800 023b 0B       		.uleb128 0xb
 2801 023c 49       		.uleb128 0x49
 2802 023d 13       		.uleb128 0x13
 2803 023e 00       		.byte	0
 2804 023f 00       		.byte	0
 2805 0240 26       		.uleb128 0x26
 2806 0241 2E       		.uleb128 0x2e
 2807 0242 01       		.byte	0x1
 2808 0243 03       		.uleb128 0x3
 2809 0244 0E       		.uleb128 0xe
 2810 0245 3A       		.uleb128 0x3a
 2811 0246 21       		.uleb128 0x21
 2812 0247 05       		.sleb128 5
 2813 0248 3B       		.uleb128 0x3b
 2814 0249 0B       		.uleb128 0xb
 2815 024a 39       		.uleb128 0x39
 2816 024b 21       		.uleb128 0x21
 2817 024c 14       		.sleb128 20
 2818 024d 27       		.uleb128 0x27
 2819 024e 19       		.uleb128 0x19
 2820 024f 20       		.uleb128 0x20
 2821 0250 21       		.uleb128 0x21
 2822 0251 03       		.sleb128 3
 2823 0252 01       		.uleb128 0x1
 2824 0253 13       		.uleb128 0x13
 2825 0254 00       		.byte	0
 2826 0255 00       		.byte	0
 2827 0256 27       		.uleb128 0x27
 2828 0257 11       		.uleb128 0x11
 2829 0258 01       		.byte	0x1
 2830 0259 25       		.uleb128 0x25
 2831 025a 0E       		.uleb128 0xe
 2832 025b 13       		.uleb128 0x13
 2833 025c 0B       		.uleb128 0xb
 2834 025d 03       		.uleb128 0x3
 2835 025e 0E       		.uleb128 0xe
 2836 025f 1B       		.uleb128 0x1b
 2837 0260 0E       		.uleb128 0xe
 2838 0261 55       		.uleb128 0x55
 2839 0262 17       		.uleb128 0x17
 2840 0263 11       		.uleb128 0x11
 2841 0264 01       		.uleb128 0x1
 2842 0265 10       		.uleb128 0x10
 2843 0266 17       		.uleb128 0x17
 2844 0267 00       		.byte	0
 2845 0268 00       		.byte	0
 2846 0269 28       		.uleb128 0x28
 2847 026a 24       		.uleb128 0x24
 2848 026b 00       		.byte	0
 2849 026c 0B       		.uleb128 0xb
 2850 026d 0B       		.uleb128 0xb
ARM GAS  C:\Users\DEVELO~1\AppData\Local\Temp\ccPQmLBO.s 			page 51


 2851 026e 3E       		.uleb128 0x3e
 2852 026f 0B       		.uleb128 0xb
 2853 0270 03       		.uleb128 0x3
 2854 0271 08       		.uleb128 0x8
 2855 0272 00       		.byte	0
 2856 0273 00       		.byte	0
 2857 0274 29       		.uleb128 0x29
 2858 0275 0F       		.uleb128 0xf
 2859 0276 00       		.byte	0
 2860 0277 0B       		.uleb128 0xb
 2861 0278 0B       		.uleb128 0xb
 2862 0279 00       		.byte	0
 2863 027a 00       		.byte	0
 2864 027b 2A       		.uleb128 0x2a
 2865 027c 15       		.uleb128 0x15
 2866 027d 01       		.byte	0x1
 2867 027e 27       		.uleb128 0x27
 2868 027f 19       		.uleb128 0x19
 2869 0280 49       		.uleb128 0x49
 2870 0281 13       		.uleb128 0x13
 2871 0282 01       		.uleb128 0x1
 2872 0283 13       		.uleb128 0x13
 2873 0284 00       		.byte	0
 2874 0285 00       		.byte	0
 2875 0286 2B       		.uleb128 0x2b
 2876 0287 2E       		.uleb128 0x2e
 2877 0288 01       		.byte	0x1
 2878 0289 3F       		.uleb128 0x3f
 2879 028a 19       		.uleb128 0x19
 2880 028b 03       		.uleb128 0x3
 2881 028c 0E       		.uleb128 0xe
 2882 028d 3A       		.uleb128 0x3a
 2883 028e 0B       		.uleb128 0xb
 2884 028f 3B       		.uleb128 0x3b
 2885 0290 0B       		.uleb128 0xb
 2886 0291 39       		.uleb128 0x39
 2887 0292 0B       		.uleb128 0xb
 2888 0293 27       		.uleb128 0x27
 2889 0294 19       		.uleb128 0x19
 2890 0295 49       		.uleb128 0x49
 2891 0296 13       		.uleb128 0x13
 2892 0297 3C       		.uleb128 0x3c
 2893 0298 19       		.uleb128 0x19
 2894 0299 01       		.uleb128 0x1
 2895 029a 13       		.uleb128 0x13
 2896 029b 00       		.byte	0
 2897 029c 00       		.byte	0
 2898 029d 2C       		.uleb128 0x2c
 2899 029e 2E       		.uleb128 0x2e
 2900 029f 01       		.byte	0x1
 2901 02a0 3F       		.uleb128 0x3f
 2902 02a1 19       		.uleb128 0x19
 2903 02a2 03       		.uleb128 0x3
 2904 02a3 0E       		.uleb128 0xe
 2905 02a4 3A       		.uleb128 0x3a
 2906 02a5 0B       		.uleb128 0xb
 2907 02a6 3B       		.uleb128 0x3b
ARM GAS  C:\Users\DEVELO~1\AppData\Local\Temp\ccPQmLBO.s 			page 52


 2908 02a7 05       		.uleb128 0x5
 2909 02a8 39       		.uleb128 0x39
 2910 02a9 0B       		.uleb128 0xb
 2911 02aa 27       		.uleb128 0x27
 2912 02ab 19       		.uleb128 0x19
 2913 02ac 11       		.uleb128 0x11
 2914 02ad 01       		.uleb128 0x1
 2915 02ae 12       		.uleb128 0x12
 2916 02af 06       		.uleb128 0x6
 2917 02b0 40       		.uleb128 0x40
 2918 02b1 18       		.uleb128 0x18
 2919 02b2 7A       		.uleb128 0x7a
 2920 02b3 19       		.uleb128 0x19
 2921 02b4 01       		.uleb128 0x1
 2922 02b5 13       		.uleb128 0x13
 2923 02b6 00       		.byte	0
 2924 02b7 00       		.byte	0
 2925 02b8 2D       		.uleb128 0x2d
 2926 02b9 48       		.uleb128 0x48
 2927 02ba 01       		.byte	0x1
 2928 02bb 7D       		.uleb128 0x7d
 2929 02bc 01       		.uleb128 0x1
 2930 02bd 8201     		.uleb128 0x82
 2931 02bf 19       		.uleb128 0x19
 2932 02c0 7F       		.uleb128 0x7f
 2933 02c1 13       		.uleb128 0x13
 2934 02c2 00       		.byte	0
 2935 02c3 00       		.byte	0
 2936 02c4 2E       		.uleb128 0x2e
 2937 02c5 34       		.uleb128 0x34
 2938 02c6 00       		.byte	0
 2939 02c7 03       		.uleb128 0x3
 2940 02c8 08       		.uleb128 0x8
 2941 02c9 3A       		.uleb128 0x3a
 2942 02ca 0B       		.uleb128 0xb
 2943 02cb 3B       		.uleb128 0x3b
 2944 02cc 05       		.uleb128 0x5
 2945 02cd 39       		.uleb128 0x39
 2946 02ce 0B       		.uleb128 0xb
 2947 02cf 49       		.uleb128 0x49
 2948 02d0 13       		.uleb128 0x13
 2949 02d1 02       		.uleb128 0x2
 2950 02d2 17       		.uleb128 0x17
 2951 02d3 B742     		.uleb128 0x2137
 2952 02d5 17       		.uleb128 0x17
 2953 02d6 00       		.byte	0
 2954 02d7 00       		.byte	0
 2955 02d8 2F       		.uleb128 0x2f
 2956 02d9 0B       		.uleb128 0xb
 2957 02da 01       		.byte	0x1
 2958 02db 31       		.uleb128 0x31
 2959 02dc 13       		.uleb128 0x13
 2960 02dd 55       		.uleb128 0x55
 2961 02de 17       		.uleb128 0x17
 2962 02df 00       		.byte	0
 2963 02e0 00       		.byte	0
 2964 02e1 30       		.uleb128 0x30
ARM GAS  C:\Users\DEVELO~1\AppData\Local\Temp\ccPQmLBO.s 			page 53


 2965 02e2 1D       		.uleb128 0x1d
 2966 02e3 01       		.byte	0x1
 2967 02e4 31       		.uleb128 0x31
 2968 02e5 13       		.uleb128 0x13
 2969 02e6 55       		.uleb128 0x55
 2970 02e7 17       		.uleb128 0x17
 2971 02e8 58       		.uleb128 0x58
 2972 02e9 0B       		.uleb128 0xb
 2973 02ea 59       		.uleb128 0x59
 2974 02eb 05       		.uleb128 0x5
 2975 02ec 57       		.uleb128 0x57
 2976 02ed 0B       		.uleb128 0xb
 2977 02ee 01       		.uleb128 0x1
 2978 02ef 13       		.uleb128 0x13
 2979 02f0 00       		.byte	0
 2980 02f1 00       		.byte	0
 2981 02f2 31       		.uleb128 0x31
 2982 02f3 1D       		.uleb128 0x1d
 2983 02f4 01       		.byte	0x1
 2984 02f5 31       		.uleb128 0x31
 2985 02f6 13       		.uleb128 0x13
 2986 02f7 11       		.uleb128 0x11
 2987 02f8 01       		.uleb128 0x1
 2988 02f9 12       		.uleb128 0x12
 2989 02fa 06       		.uleb128 0x6
 2990 02fb 58       		.uleb128 0x58
 2991 02fc 0B       		.uleb128 0xb
 2992 02fd 59       		.uleb128 0x59
 2993 02fe 05       		.uleb128 0x5
 2994 02ff 57       		.uleb128 0x57
 2995 0300 0B       		.uleb128 0xb
 2996 0301 01       		.uleb128 0x1
 2997 0302 13       		.uleb128 0x13
 2998 0303 00       		.byte	0
 2999 0304 00       		.byte	0
 3000 0305 32       		.uleb128 0x32
 3001 0306 1D       		.uleb128 0x1d
 3002 0307 01       		.byte	0x1
 3003 0308 31       		.uleb128 0x31
 3004 0309 13       		.uleb128 0x13
 3005 030a 52       		.uleb128 0x52
 3006 030b 01       		.uleb128 0x1
 3007 030c B842     		.uleb128 0x2138
 3008 030e 0B       		.uleb128 0xb
 3009 030f 11       		.uleb128 0x11
 3010 0310 01       		.uleb128 0x1
 3011 0311 12       		.uleb128 0x12
 3012 0312 06       		.uleb128 0x6
 3013 0313 58       		.uleb128 0x58
 3014 0314 0B       		.uleb128 0xb
 3015 0315 59       		.uleb128 0x59
 3016 0316 0B       		.uleb128 0xb
 3017 0317 57       		.uleb128 0x57
 3018 0318 0B       		.uleb128 0xb
 3019 0319 01       		.uleb128 0x1
 3020 031a 13       		.uleb128 0x13
 3021 031b 00       		.byte	0
ARM GAS  C:\Users\DEVELO~1\AppData\Local\Temp\ccPQmLBO.s 			page 54


 3022 031c 00       		.byte	0
 3023 031d 33       		.uleb128 0x33
 3024 031e 48       		.uleb128 0x48
 3025 031f 01       		.byte	0x1
 3026 0320 7D       		.uleb128 0x7d
 3027 0321 01       		.uleb128 0x1
 3028 0322 01       		.uleb128 0x1
 3029 0323 13       		.uleb128 0x13
 3030 0324 00       		.byte	0
 3031 0325 00       		.byte	0
 3032 0326 34       		.uleb128 0x34
 3033 0327 2E       		.uleb128 0x2e
 3034 0328 01       		.byte	0x1
 3035 0329 3F       		.uleb128 0x3f
 3036 032a 19       		.uleb128 0x19
 3037 032b 03       		.uleb128 0x3
 3038 032c 0E       		.uleb128 0xe
 3039 032d 3A       		.uleb128 0x3a
 3040 032e 0B       		.uleb128 0xb
 3041 032f 3B       		.uleb128 0x3b
 3042 0330 0B       		.uleb128 0xb
 3043 0331 39       		.uleb128 0x39
 3044 0332 0B       		.uleb128 0xb
 3045 0333 27       		.uleb128 0x27
 3046 0334 19       		.uleb128 0x19
 3047 0335 11       		.uleb128 0x11
 3048 0336 01       		.uleb128 0x1
 3049 0337 12       		.uleb128 0x12
 3050 0338 06       		.uleb128 0x6
 3051 0339 40       		.uleb128 0x40
 3052 033a 18       		.uleb128 0x18
 3053 033b 7A       		.uleb128 0x7a
 3054 033c 19       		.uleb128 0x19
 3055 033d 01       		.uleb128 0x1
 3056 033e 13       		.uleb128 0x13
 3057 033f 00       		.byte	0
 3058 0340 00       		.byte	0
 3059 0341 35       		.uleb128 0x35
 3060 0342 05       		.uleb128 0x5
 3061 0343 00       		.byte	0
 3062 0344 03       		.uleb128 0x3
 3063 0345 08       		.uleb128 0x8
 3064 0346 3A       		.uleb128 0x3a
 3065 0347 0B       		.uleb128 0xb
 3066 0348 3B       		.uleb128 0x3b
 3067 0349 0B       		.uleb128 0xb
 3068 034a 39       		.uleb128 0x39
 3069 034b 0B       		.uleb128 0xb
 3070 034c 49       		.uleb128 0x49
 3071 034d 13       		.uleb128 0x13
 3072 034e 02       		.uleb128 0x2
 3073 034f 17       		.uleb128 0x17
 3074 0350 B742     		.uleb128 0x2137
 3075 0352 17       		.uleb128 0x17
 3076 0353 00       		.byte	0
 3077 0354 00       		.byte	0
 3078 0355 36       		.uleb128 0x36
ARM GAS  C:\Users\DEVELO~1\AppData\Local\Temp\ccPQmLBO.s 			page 55


 3079 0356 05       		.uleb128 0x5
 3080 0357 00       		.byte	0
 3081 0358 03       		.uleb128 0x3
 3082 0359 0E       		.uleb128 0xe
 3083 035a 3A       		.uleb128 0x3a
 3084 035b 0B       		.uleb128 0xb
 3085 035c 3B       		.uleb128 0x3b
 3086 035d 0B       		.uleb128 0xb
 3087 035e 39       		.uleb128 0x39
 3088 035f 0B       		.uleb128 0xb
 3089 0360 49       		.uleb128 0x49
 3090 0361 13       		.uleb128 0x13
 3091 0362 00       		.byte	0
 3092 0363 00       		.byte	0
 3093 0364 37       		.uleb128 0x37
 3094 0365 0B       		.uleb128 0xb
 3095 0366 01       		.byte	0x1
 3096 0367 00       		.byte	0
 3097 0368 00       		.byte	0
 3098 0369 38       		.uleb128 0x38
 3099 036a 2E       		.uleb128 0x2e
 3100 036b 01       		.byte	0x1
 3101 036c 03       		.uleb128 0x3
 3102 036d 0E       		.uleb128 0xe
 3103 036e 3A       		.uleb128 0x3a
 3104 036f 0B       		.uleb128 0xb
 3105 0370 3B       		.uleb128 0x3b
 3106 0371 05       		.uleb128 0x5
 3107 0372 39       		.uleb128 0x39
 3108 0373 0B       		.uleb128 0xb
 3109 0374 27       		.uleb128 0x27
 3110 0375 19       		.uleb128 0x19
 3111 0376 20       		.uleb128 0x20
 3112 0377 0B       		.uleb128 0xb
 3113 0378 01       		.uleb128 0x1
 3114 0379 13       		.uleb128 0x13
 3115 037a 00       		.byte	0
 3116 037b 00       		.byte	0
 3117 037c 39       		.uleb128 0x39
 3118 037d 2E       		.uleb128 0x2e
 3119 037e 01       		.byte	0x1
 3120 037f 03       		.uleb128 0x3
 3121 0380 0E       		.uleb128 0xe
 3122 0381 3A       		.uleb128 0x3a
 3123 0382 0B       		.uleb128 0xb
 3124 0383 3B       		.uleb128 0x3b
 3125 0384 05       		.uleb128 0x5
 3126 0385 39       		.uleb128 0x39
 3127 0386 0B       		.uleb128 0xb
 3128 0387 27       		.uleb128 0x27
 3129 0388 19       		.uleb128 0x19
 3130 0389 20       		.uleb128 0x20
 3131 038a 0B       		.uleb128 0xb
 3132 038b 00       		.byte	0
 3133 038c 00       		.byte	0
 3134 038d 3A       		.uleb128 0x3a
 3135 038e 05       		.uleb128 0x5
ARM GAS  C:\Users\DEVELO~1\AppData\Local\Temp\ccPQmLBO.s 			page 56


 3136 038f 00       		.byte	0
 3137 0390 03       		.uleb128 0x3
 3138 0391 0E       		.uleb128 0xe
 3139 0392 3A       		.uleb128 0x3a
 3140 0393 0B       		.uleb128 0xb
 3141 0394 3B       		.uleb128 0x3b
 3142 0395 05       		.uleb128 0x5
 3143 0396 39       		.uleb128 0x39
 3144 0397 0B       		.uleb128 0xb
 3145 0398 49       		.uleb128 0x49
 3146 0399 13       		.uleb128 0x13
 3147 039a 00       		.byte	0
 3148 039b 00       		.byte	0
 3149 039c 00       		.byte	0
 3150              		.section	.debug_loclists,"",%progbits
 3151 0000 3B030000 		.4byte	.Ldebug_loc3-.Ldebug_loc2
 3152              	.Ldebug_loc2:
 3153 0004 0500     		.2byte	0x5
 3154 0006 04       		.byte	0x4
 3155 0007 00       		.byte	0
 3156 0008 00000000 		.4byte	0
 3157              	.Ldebug_loc0:
 3158              	.LVUS39:
 3159 000c 00       		.uleb128 0
 3160 000d 00       		.uleb128 .LVU352
 3161 000e 00       		.uleb128 .LVU352
 3162 000f 00       		.uleb128 0
 3163              	.LLST39:
 3164 0010 06       		.byte	0x6
 3165 0011 00000000 		.4byte	.LVL53
 3166 0015 04       		.byte	0x4
 3167 0016 00       		.uleb128 .LVL53-.LVL53
 3168 0017 11       		.uleb128 .LVL54-1-.LVL53
 3169 0018 01       		.uleb128 0x1
 3170 0019 50       		.byte	0x50
 3171 001a 04       		.byte	0x4
 3172 001b 11       		.uleb128 .LVL54-1-.LVL53
 3173 001c 12       		.uleb128 .LFE358-.LVL53
 3174 001d 04       		.uleb128 0x4
 3175 001e A3       		.byte	0xa3
 3176 001f 01       		.uleb128 0x1
 3177 0020 50       		.byte	0x50
 3178 0021 9F       		.byte	0x9f
 3179 0022 00       		.byte	0
 3180              	.LVUS40:
 3181 0023 00       		.uleb128 0
 3182 0024 00       		.uleb128 .LVU352
 3183 0025 00       		.uleb128 .LVU352
 3184 0026 00       		.uleb128 0
 3185              	.LLST40:
 3186 0027 06       		.byte	0x6
 3187 0028 00000000 		.4byte	.LVL53
 3188 002c 04       		.byte	0x4
 3189 002d 00       		.uleb128 .LVL53-.LVL53
 3190 002e 11       		.uleb128 .LVL54-1-.LVL53
 3191 002f 01       		.uleb128 0x1
 3192 0030 51       		.byte	0x51
ARM GAS  C:\Users\DEVELO~1\AppData\Local\Temp\ccPQmLBO.s 			page 57


 3193 0031 04       		.byte	0x4
 3194 0032 11       		.uleb128 .LVL54-1-.LVL53
 3195 0033 12       		.uleb128 .LFE358-.LVL53
 3196 0034 04       		.uleb128 0x4
 3197 0035 A3       		.byte	0xa3
 3198 0036 01       		.uleb128 0x1
 3199 0037 51       		.byte	0x51
 3200 0038 9F       		.byte	0x9f
 3201 0039 00       		.byte	0
 3202              	.LVUS41:
 3203 003a 00       		.uleb128 0
 3204 003b 00       		.uleb128 .LVU352
 3205 003c 00       		.uleb128 .LVU352
 3206 003d 00       		.uleb128 0
 3207              	.LLST41:
 3208 003e 06       		.byte	0x6
 3209 003f 00000000 		.4byte	.LVL53
 3210 0043 04       		.byte	0x4
 3211 0044 00       		.uleb128 .LVL53-.LVL53
 3212 0045 11       		.uleb128 .LVL54-1-.LVL53
 3213 0046 01       		.uleb128 0x1
 3214 0047 52       		.byte	0x52
 3215 0048 04       		.byte	0x4
 3216 0049 11       		.uleb128 .LVL54-1-.LVL53
 3217 004a 12       		.uleb128 .LFE358-.LVL53
 3218 004b 04       		.uleb128 0x4
 3219 004c A3       		.byte	0xa3
 3220 004d 01       		.uleb128 0x1
 3221 004e 52       		.byte	0x52
 3222 004f 9F       		.byte	0x9f
 3223 0050 00       		.byte	0
 3224              	.LVUS36:
 3225 0051 00       		.uleb128 0
 3226 0052 00       		.uleb128 .LVU340
 3227 0053 00       		.uleb128 .LVU340
 3228 0054 00       		.uleb128 0
 3229              	.LLST36:
 3230 0055 06       		.byte	0x6
 3231 0056 00000000 		.4byte	.LVL51
 3232 005a 04       		.byte	0x4
 3233 005b 00       		.uleb128 .LVL51-.LVL51
 3234 005c 11       		.uleb128 .LVL52-1-.LVL51
 3235 005d 01       		.uleb128 0x1
 3236 005e 50       		.byte	0x50
 3237 005f 04       		.byte	0x4
 3238 0060 11       		.uleb128 .LVL52-1-.LVL51
 3239 0061 12       		.uleb128 .LFE357-.LVL51
 3240 0062 04       		.uleb128 0x4
 3241 0063 A3       		.byte	0xa3
 3242 0064 01       		.uleb128 0x1
 3243 0065 50       		.byte	0x50
 3244 0066 9F       		.byte	0x9f
 3245 0067 00       		.byte	0
 3246              	.LVUS37:
 3247 0068 00       		.uleb128 0
 3248 0069 00       		.uleb128 .LVU340
 3249 006a 00       		.uleb128 .LVU340
ARM GAS  C:\Users\DEVELO~1\AppData\Local\Temp\ccPQmLBO.s 			page 58


 3250 006b 00       		.uleb128 0
 3251              	.LLST37:
 3252 006c 06       		.byte	0x6
 3253 006d 00000000 		.4byte	.LVL51
 3254 0071 04       		.byte	0x4
 3255 0072 00       		.uleb128 .LVL51-.LVL51
 3256 0073 11       		.uleb128 .LVL52-1-.LVL51
 3257 0074 01       		.uleb128 0x1
 3258 0075 51       		.byte	0x51
 3259 0076 04       		.byte	0x4
 3260 0077 11       		.uleb128 .LVL52-1-.LVL51
 3261 0078 12       		.uleb128 .LFE357-.LVL51
 3262 0079 04       		.uleb128 0x4
 3263 007a A3       		.byte	0xa3
 3264 007b 01       		.uleb128 0x1
 3265 007c 51       		.byte	0x51
 3266 007d 9F       		.byte	0x9f
 3267 007e 00       		.byte	0
 3268              	.LVUS38:
 3269 007f 00       		.uleb128 0
 3270 0080 00       		.uleb128 .LVU340
 3271 0081 00       		.uleb128 .LVU340
 3272 0082 00       		.uleb128 0
 3273              	.LLST38:
 3274 0083 06       		.byte	0x6
 3275 0084 00000000 		.4byte	.LVL51
 3276 0088 04       		.byte	0x4
 3277 0089 00       		.uleb128 .LVL51-.LVL51
 3278 008a 11       		.uleb128 .LVL52-1-.LVL51
 3279 008b 01       		.uleb128 0x1
 3280 008c 52       		.byte	0x52
 3281 008d 04       		.byte	0x4
 3282 008e 11       		.uleb128 .LVL52-1-.LVL51
 3283 008f 12       		.uleb128 .LFE357-.LVL51
 3284 0090 04       		.uleb128 0x4
 3285 0091 A3       		.byte	0xa3
 3286 0092 01       		.uleb128 0x1
 3287 0093 52       		.byte	0x52
 3288 0094 9F       		.byte	0x9f
 3289 0095 00       		.byte	0
 3290              	.LVUS32:
 3291 0096 00       		.uleb128 0
 3292 0097 00       		.uleb128 .LVU297
 3293 0098 00       		.uleb128 .LVU297
 3294 0099 00       		.uleb128 .LVU298
 3295 009a 00       		.uleb128 .LVU298
 3296 009b 00       		.uleb128 .LVU305
 3297 009c 00       		.uleb128 .LVU305
 3298 009d 00       		.uleb128 .LVU325
 3299 009e 00       		.uleb128 .LVU325
 3300 009f 00       		.uleb128 0
 3301              	.LLST32:
 3302 00a0 06       		.byte	0x6
 3303 00a1 00000000 		.4byte	.LVL41
 3304 00a5 04       		.byte	0x4
 3305 00a6 00       		.uleb128 .LVL41-.LVL41
 3306 00a7 2E       		.uleb128 .LVL44-.LVL41
ARM GAS  C:\Users\DEVELO~1\AppData\Local\Temp\ccPQmLBO.s 			page 59


 3307 00a8 01       		.uleb128 0x1
 3308 00a9 50       		.byte	0x50
 3309 00aa 04       		.byte	0x4
 3310 00ab 2E       		.uleb128 .LVL44-.LVL41
 3311 00ac 31       		.uleb128 .LVL45-1-.LVL41
 3312 00ad 03       		.uleb128 0x3
 3313 00ae 70       		.byte	0x70
 3314 00af 50       		.sleb128 -48
 3315 00b0 9F       		.byte	0x9f
 3316 00b1 04       		.byte	0x4
 3317 00b2 31       		.uleb128 .LVL45-1-.LVL41
 3318 00b3 3A       		.uleb128 .LVL47-.LVL41
 3319 00b4 04       		.uleb128 0x4
 3320 00b5 A3       		.byte	0xa3
 3321 00b6 01       		.uleb128 0x1
 3322 00b7 50       		.byte	0x50
 3323 00b8 9F       		.byte	0x9f
 3324 00b9 04       		.byte	0x4
 3325 00ba 3A       		.uleb128 .LVL47-.LVL41
 3326 00bb 72       		.uleb128 .LVL49-.LVL41
 3327 00bc 01       		.uleb128 0x1
 3328 00bd 50       		.byte	0x50
 3329 00be 04       		.byte	0x4
 3330 00bf 72       		.uleb128 .LVL49-.LVL41
 3331 00c0 7C       		.uleb128 .LFE356-.LVL41
 3332 00c1 04       		.uleb128 0x4
 3333 00c2 A3       		.byte	0xa3
 3334 00c3 01       		.uleb128 0x1
 3335 00c4 50       		.byte	0x50
 3336 00c5 9F       		.byte	0x9f
 3337 00c6 00       		.byte	0
 3338              	.LVUS33:
 3339 00c7 00       		.uleb128 0
 3340 00c8 00       		.uleb128 .LVU283
 3341 00c9 00       		.uleb128 .LVU283
 3342 00ca 00       		.uleb128 .LVU322
 3343 00cb 00       		.uleb128 .LVU322
 3344 00cc 00       		.uleb128 .LVU328
 3345 00cd 00       		.uleb128 .LVU328
 3346 00ce 00       		.uleb128 0
 3347              	.LLST33:
 3348 00cf 06       		.byte	0x6
 3349 00d0 00000000 		.4byte	.LVL41
 3350 00d4 04       		.byte	0x4
 3351 00d5 00       		.uleb128 .LVL41-.LVL41
 3352 00d6 0E       		.uleb128 .LVL43-.LVL41
 3353 00d7 01       		.uleb128 0x1
 3354 00d8 51       		.byte	0x51
 3355 00d9 04       		.byte	0x4
 3356 00da 0E       		.uleb128 .LVL43-.LVL41
 3357 00db 6A       		.uleb128 .LVL48-.LVL41
 3358 00dc 01       		.uleb128 0x1
 3359 00dd 54       		.byte	0x54
 3360 00de 04       		.byte	0x4
 3361 00df 6A       		.uleb128 .LVL48-.LVL41
 3362 00e0 7B       		.uleb128 .LVL50-1-.LVL41
 3363 00e1 01       		.uleb128 0x1
ARM GAS  C:\Users\DEVELO~1\AppData\Local\Temp\ccPQmLBO.s 			page 60


 3364 00e2 51       		.byte	0x51
 3365 00e3 04       		.byte	0x4
 3366 00e4 7B       		.uleb128 .LVL50-1-.LVL41
 3367 00e5 7C       		.uleb128 .LFE356-.LVL41
 3368 00e6 04       		.uleb128 0x4
 3369 00e7 A3       		.byte	0xa3
 3370 00e8 01       		.uleb128 0x1
 3371 00e9 51       		.byte	0x51
 3372 00ea 9F       		.byte	0x9f
 3373 00eb 00       		.byte	0
 3374              	.LVUS34:
 3375 00ec 00       		.uleb128 .LVU276
 3376 00ed 03       		.uleb128 .LVU279
 3377              	.LLST34:
 3378 00ee 08       		.byte	0x8
 3379 00ef 0A000000 		.4byte	.LVL42
 3380 00f3 00       		.uleb128 .LVL42-.LVL42
 3381 00f4 03       		.uleb128 0x3
 3382 00f5 71       		.byte	0x71
 3383 00f6 18       		.sleb128 24
 3384 00f7 9F       		.byte	0x9f
 3385 00f8 00       		.byte	0
 3386              	.LVUS35:
 3387 00f9 01       		.uleb128 .LVU299
 3388 00fa 00       		.uleb128 .LVU303
 3389              	.LLST35:
 3390 00fb 08       		.byte	0x8
 3391 00fc 32000000 		.4byte	.LVL45
 3392 0100 06       		.uleb128 .LVL46-.LVL45
 3393 0101 03       		.uleb128 0x3
 3394 0102 74       		.byte	0x74
 3395 0103 18       		.sleb128 24
 3396 0104 9F       		.byte	0x9f
 3397 0105 00       		.byte	0
 3398              	.LVUS7:
 3399 0106 00       		.uleb128 0
 3400 0107 00       		.uleb128 .LVU116
 3401 0108 00       		.uleb128 .LVU116
 3402 0109 00       		.uleb128 .LVU139
 3403 010a 00       		.uleb128 .LVU139
 3404 010b 00       		.uleb128 .LVU142
 3405 010c 00       		.uleb128 .LVU142
 3406 010d 00       		.uleb128 .LVU241
 3407 010e 00       		.uleb128 .LVU241
 3408 010f 00       		.uleb128 .LVU246
 3409 0110 00       		.uleb128 .LVU246
 3410 0111 00       		.uleb128 0
 3411              	.LLST7:
 3412 0112 06       		.byte	0x6
 3413 0113 00000000 		.4byte	.LVL11
 3414 0117 04       		.byte	0x4
 3415 0118 00       		.uleb128 .LVL11-.LVL11
 3416 0119 4C       		.uleb128 .LVL21-.LVL11
 3417 011a 01       		.uleb128 0x1
 3418 011b 50       		.byte	0x50
 3419 011c 04       		.byte	0x4
 3420 011d 4C       		.uleb128 .LVL21-.LVL11
ARM GAS  C:\Users\DEVELO~1\AppData\Local\Temp\ccPQmLBO.s 			page 61


 3421 011e 64       		.uleb128 .LVL24-.LVL11
 3422 011f 01       		.uleb128 0x1
 3423 0120 56       		.byte	0x56
 3424 0121 04       		.byte	0x4
 3425 0122 64       		.uleb128 .LVL24-.LVL11
 3426 0123 72       		.uleb128 .LVL25-.LVL11
 3427 0124 01       		.uleb128 0x1
 3428 0125 50       		.byte	0x50
 3429 0126 04       		.byte	0x4
 3430 0127 72       		.uleb128 .LVL25-.LVL11
 3431 0128 EE01     		.uleb128 .LVL37-.LVL11
 3432 012a 01       		.uleb128 0x1
 3433 012b 56       		.byte	0x56
 3434 012c 04       		.byte	0x4
 3435 012d EE01     		.uleb128 .LVL37-.LVL11
 3436 012f F201     		.uleb128 .LVL38-.LVL11
 3437 0131 01       		.uleb128 0x1
 3438 0132 50       		.byte	0x50
 3439 0133 04       		.byte	0x4
 3440 0134 F201     		.uleb128 .LVL38-.LVL11
 3441 0136 8202     		.uleb128 .LFE355-.LVL11
 3442 0138 01       		.uleb128 0x1
 3443 0139 56       		.byte	0x56
 3444 013a 00       		.byte	0
 3445              	.LVUS8:
 3446 013b 00       		.uleb128 0
 3447 013c 00       		.uleb128 .LVU85
 3448 013d 00       		.uleb128 .LVU85
 3449 013e 00       		.uleb128 0
 3450              	.LLST8:
 3451 013f 06       		.byte	0x6
 3452 0140 00000000 		.4byte	.LVL11
 3453 0144 04       		.byte	0x4
 3454 0145 00       		.uleb128 .LVL11-.LVL11
 3455 0146 22       		.uleb128 .LVL14-.LVL11
 3456 0147 01       		.uleb128 0x1
 3457 0148 51       		.byte	0x51
 3458 0149 04       		.byte	0x4
 3459 014a 22       		.uleb128 .LVL14-.LVL11
 3460 014b 8202     		.uleb128 .LFE355-.LVL11
 3461 014d 01       		.uleb128 0x1
 3462 014e 55       		.byte	0x55
 3463 014f 00       		.byte	0
 3464              	.LVUS9:
 3465 0150 00       		.uleb128 0
 3466 0151 00       		.uleb128 .LVU83
 3467 0152 00       		.uleb128 .LVU83
 3468 0153 00       		.uleb128 0
 3469              	.LLST9:
 3470 0154 06       		.byte	0x6
 3471 0155 00000000 		.4byte	.LVL11
 3472 0159 04       		.byte	0x4
 3473 015a 00       		.uleb128 .LVL11-.LVL11
 3474 015b 18       		.uleb128 .LVL13-.LVL11
 3475 015c 01       		.uleb128 0x1
 3476 015d 52       		.byte	0x52
 3477 015e 04       		.byte	0x4
ARM GAS  C:\Users\DEVELO~1\AppData\Local\Temp\ccPQmLBO.s 			page 62


 3478 015f 18       		.uleb128 .LVL13-.LVL11
 3479 0160 8202     		.uleb128 .LFE355-.LVL11
 3480 0162 01       		.uleb128 0x1
 3481 0163 57       		.byte	0x57
 3482 0164 00       		.byte	0
 3483              	.LVUS10:
 3484 0165 00       		.uleb128 .LVU97
 3485 0166 00       		.uleb128 .LVU139
 3486 0167 03       		.uleb128 .LVU207
 3487 0168 00       		.uleb128 0
 3488              	.LLST10:
 3489 0169 06       		.byte	0x6
 3490 016a 3E000000 		.4byte	.LVL19
 3491 016e 04       		.byte	0x4
 3492 016f 00       		.uleb128 .LVL19-.LVL19
 3493 0170 26       		.uleb128 .LVL24-.LVL19
 3494 0171 01       		.uleb128 0x1
 3495 0172 54       		.byte	0x54
 3496 0173 04       		.byte	0x4
 3497 0174 7C       		.uleb128 .LVL32-.LVL19
 3498 0175 C401     		.uleb128 .LFE355-.LVL19
 3499 0177 01       		.uleb128 0x1
 3500 0178 54       		.byte	0x54
 3501 0179 00       		.byte	0
 3502              	.LVUS31:
 3503 017a 00       		.uleb128 .LVU219
 3504 017b 00       		.uleb128 .LVU240
 3505 017c 00       		.uleb128 .LVU240
 3506 017d 00       		.uleb128 .LVU241
 3507              	.LLST31:
 3508 017e 06       		.byte	0x6
 3509 017f D4000000 		.4byte	.LVL33
 3510 0183 04       		.byte	0x4
 3511 0184 00       		.uleb128 .LVL33-.LVL33
 3512 0185 16       		.uleb128 .LVL36-.LVL33
 3513 0186 01       		.uleb128 0x1
 3514 0187 50       		.byte	0x50
 3515 0188 04       		.byte	0x4
 3516 0189 16       		.uleb128 .LVL36-.LVL33
 3517 018a 1A       		.uleb128 .LVL37-.LVL33
 3518 018b 0E       		.uleb128 0xe
 3519 018c 76       		.byte	0x76
 3520 018d 00       		.sleb128 0
 3521 018e 06       		.byte	0x6
 3522 018f 31       		.byte	0x31
 3523 0190 1C       		.byte	0x1c
 3524 0191 78       		.byte	0x78
 3525 0192 00       		.sleb128 0
 3526 0193 1A       		.byte	0x1a
 3527 0194 33       		.byte	0x33
 3528 0195 24       		.byte	0x24
 3529 0196 72       		.byte	0x72
 3530 0197 00       		.sleb128 0
 3531 0198 22       		.byte	0x22
 3532 0199 9F       		.byte	0x9f
 3533 019a 00       		.byte	0
 3534              	.LVUS12:
ARM GAS  C:\Users\DEVELO~1\AppData\Local\Temp\ccPQmLBO.s 			page 63


 3535 019b 07       		.uleb128 .LVU68
 3536 019c 00       		.uleb128 .LVU74
 3537              	.LLST12:
 3538 019d 08       		.byte	0x8
 3539 019e 00000000 		.4byte	.LVL11
 3540 01a2 10       		.uleb128 .LVL12-.LVL11
 3541 01a3 03       		.uleb128 0x3
 3542 01a4 08       		.byte	0x8
 3543 01a5 30       		.byte	0x30
 3544 01a6 9F       		.byte	0x9f
 3545 01a7 00       		.byte	0
 3546              	.LVUS13:
 3547 01a8 05       		.uleb128 .LVU79
 3548 01a9 00       		.uleb128 .LVU97
 3549 01aa 00       		.uleb128 .LVU139
 3550 01ab 00       		.uleb128 .LVU142
 3551              	.LLST13:
 3552 01ac 06       		.byte	0x6
 3553 01ad 10000000 		.4byte	.LVL12
 3554 01b1 04       		.byte	0x4
 3555 01b2 00       		.uleb128 .LVL12-.LVL12
 3556 01b3 2E       		.uleb128 .LVL19-.LVL12
 3557 01b4 01       		.uleb128 0x1
 3558 01b5 50       		.byte	0x50
 3559 01b6 04       		.byte	0x4
 3560 01b7 54       		.uleb128 .LVL24-.LVL12
 3561 01b8 62       		.uleb128 .LVL25-.LVL12
 3562 01b9 01       		.uleb128 0x1
 3563 01ba 50       		.byte	0x50
 3564 01bb 00       		.byte	0
 3565              	.LVUS14:
 3566 01bc 04       		.uleb128 .LVU78
 3567 01bd 00       		.uleb128 .LVU83
 3568 01be 00       		.uleb128 .LVU83
 3569 01bf 00       		.uleb128 .LVU97
 3570 01c0 00       		.uleb128 .LVU139
 3571 01c1 00       		.uleb128 .LVU142
 3572              	.LLST14:
 3573 01c2 06       		.byte	0x6
 3574 01c3 10000000 		.4byte	.LVL12
 3575 01c7 04       		.byte	0x4
 3576 01c8 00       		.uleb128 .LVL12-.LVL12
 3577 01c9 08       		.uleb128 .LVL13-.LVL12
 3578 01ca 01       		.uleb128 0x1
 3579 01cb 52       		.byte	0x52
 3580 01cc 04       		.byte	0x4
 3581 01cd 08       		.uleb128 .LVL13-.LVL12
 3582 01ce 2E       		.uleb128 .LVL19-.LVL12
 3583 01cf 01       		.uleb128 0x1
 3584 01d0 57       		.byte	0x57
 3585 01d1 04       		.byte	0x4
 3586 01d2 54       		.uleb128 .LVL24-.LVL12
 3587 01d3 62       		.uleb128 .LVL25-.LVL12
 3588 01d4 01       		.uleb128 0x1
 3589 01d5 57       		.byte	0x57
 3590 01d6 00       		.byte	0
 3591              	.LVUS15:
ARM GAS  C:\Users\DEVELO~1\AppData\Local\Temp\ccPQmLBO.s 			page 64


 3592 01d7 04       		.uleb128 .LVU78
 3593 01d8 00       		.uleb128 .LVU85
 3594 01d9 00       		.uleb128 .LVU85
 3595 01da 00       		.uleb128 .LVU97
 3596 01db 00       		.uleb128 .LVU139
 3597 01dc 00       		.uleb128 .LVU142
 3598              	.LLST15:
 3599 01dd 06       		.byte	0x6
 3600 01de 10000000 		.4byte	.LVL12
 3601 01e2 04       		.byte	0x4
 3602 01e3 00       		.uleb128 .LVL12-.LVL12
 3603 01e4 12       		.uleb128 .LVL14-.LVL12
 3604 01e5 01       		.uleb128 0x1
 3605 01e6 51       		.byte	0x51
 3606 01e7 04       		.byte	0x4
 3607 01e8 12       		.uleb128 .LVL14-.LVL12
 3608 01e9 2E       		.uleb128 .LVL19-.LVL12
 3609 01ea 01       		.uleb128 0x1
 3610 01eb 55       		.byte	0x55
 3611 01ec 04       		.byte	0x4
 3612 01ed 54       		.uleb128 .LVL24-.LVL12
 3613 01ee 62       		.uleb128 .LVL25-.LVL12
 3614 01ef 01       		.uleb128 0x1
 3615 01f0 55       		.byte	0x55
 3616 01f1 00       		.byte	0
 3617              	.LVUS16:
 3618 01f2 00       		.uleb128 .LVU85
 3619 01f3 00       		.uleb128 .LVU97
 3620 01f4 00       		.uleb128 .LVU139
 3621 01f5 00       		.uleb128 .LVU142
 3622              	.LLST16:
 3623 01f6 06       		.byte	0x6
 3624 01f7 22000000 		.4byte	.LVL14
 3625 01fb 04       		.byte	0x4
 3626 01fc 00       		.uleb128 .LVL14-.LVL14
 3627 01fd 1C       		.uleb128 .LVL19-.LVL14
 3628 01fe 01       		.uleb128 0x1
 3629 01ff 51       		.byte	0x51
 3630 0200 04       		.byte	0x4
 3631 0201 42       		.uleb128 .LVL24-.LVL14
 3632 0202 50       		.uleb128 .LVL25-.LVL14
 3633 0203 01       		.uleb128 0x1
 3634 0204 51       		.byte	0x51
 3635 0205 00       		.byte	0
 3636              	.LVUS17:
 3637 0206 00       		.uleb128 .LVU87
 3638 0207 00       		.uleb128 .LVU97
 3639 0208 00       		.uleb128 .LVU139
 3640 0209 00       		.uleb128 .LVU142
 3641              	.LLST17:
 3642 020a 06       		.byte	0x6
 3643 020b 26000000 		.4byte	.LVL15
 3644 020f 04       		.byte	0x4
 3645 0210 00       		.uleb128 .LVL15-.LVL15
 3646 0211 18       		.uleb128 .LVL19-.LVL15
 3647 0212 01       		.uleb128 0x1
 3648 0213 54       		.byte	0x54
ARM GAS  C:\Users\DEVELO~1\AppData\Local\Temp\ccPQmLBO.s 			page 65


 3649 0214 04       		.byte	0x4
 3650 0215 3E       		.uleb128 .LVL24-.LVL15
 3651 0216 4C       		.uleb128 .LVL25-.LVL15
 3652 0217 01       		.uleb128 0x1
 3653 0218 54       		.byte	0x54
 3654 0219 00       		.byte	0
 3655              	.LVUS19:
 3656 021a 00       		.uleb128 .LVU89
 3657 021b 00       		.uleb128 .LVU90
 3658 021c 01       		.uleb128 .LVU93
 3659 021d 00       		.uleb128 .LVU139
 3660 021e 00       		.uleb128 .LVU241
 3661 021f 00       		.uleb128 0
 3662              	.LLST19:
 3663 0220 06       		.byte	0x6
 3664 0221 2C000000 		.4byte	.LVL16
 3665 0225 04       		.byte	0x4
 3666 0226 00       		.uleb128 .LVL16-.LVL16
 3667 0227 02       		.uleb128 .LVL17-.LVL16
 3668 0228 01       		.uleb128 0x1
 3669 0229 54       		.byte	0x54
 3670 022a 04       		.byte	0x4
 3671 022b 06       		.uleb128 .LVL18-.LVL16
 3672 022c 38       		.uleb128 .LVL24-.LVL16
 3673 022d 01       		.uleb128 0x1
 3674 022e 54       		.byte	0x54
 3675 022f 04       		.byte	0x4
 3676 0230 C201     		.uleb128 .LVL37-.LVL16
 3677 0232 D601     		.uleb128 .LFE355-.LVL16
 3678 0234 01       		.uleb128 0x1
 3679 0235 54       		.byte	0x54
 3680 0236 00       		.byte	0
 3681              	.LVUS20:
 3682 0237 06       		.uleb128 .LVU103
 3683 0238 00       		.uleb128 .LVU107
 3684              	.LLST20:
 3685 0239 08       		.byte	0x8
 3686 023a 3E000000 		.4byte	.LVL19
 3687 023e 02       		.uleb128 .LVL20-.LVL19
 3688 023f 03       		.uleb128 0x3
 3689 0240 74       		.byte	0x74
 3690 0241 18       		.sleb128 24
 3691 0242 9F       		.byte	0x9f
 3692 0243 00       		.byte	0
 3693              	.LVUS23:
 3694 0244 0C       		.uleb128 .LVU134
 3695 0245 00       		.uleb128 .LVU136
 3696 0246 0C       		.uleb128 .LVU235
 3697 0247 00       		.uleb128 .LVU237
 3698 0248 0B       		.uleb128 .LVU258
 3699 0249 00       		.uleb128 .LVU260
 3700              	.LLST23:
 3701 024a 06       		.byte	0x6
 3702 024b 58000000 		.4byte	.LVL22
 3703 024f 04       		.byte	0x4
 3704 0250 00       		.uleb128 .LVL22-.LVL22
 3705 0251 06       		.uleb128 .LVL23-.LVL22
ARM GAS  C:\Users\DEVELO~1\AppData\Local\Temp\ccPQmLBO.s 			page 66


 3706 0252 02       		.uleb128 0x2
 3707 0253 30       		.byte	0x30
 3708 0254 9F       		.byte	0x9f
 3709 0255 04       		.byte	0x4
 3710 0256 8A01     		.uleb128 .LVL34-.LVL22
 3711 0258 9001     		.uleb128 .LVL35-.LVL22
 3712 025a 02       		.uleb128 0x2
 3713 025b 30       		.byte	0x30
 3714 025c 9F       		.byte	0x9f
 3715 025d 04       		.byte	0x4
 3716 025e 9E01     		.uleb128 .LVL39-.LVL22
 3717 0260 A401     		.uleb128 .LVL40-.LVL22
 3718 0262 02       		.uleb128 0x2
 3719 0263 30       		.byte	0x30
 3720 0264 9F       		.byte	0x9f
 3721 0265 00       		.byte	0
 3722              	.LVUS24:
 3723 0266 00       		.uleb128 .LVU142
 3724 0267 03       		.uleb128 .LVU159
 3725 0268 00       		.uleb128 .LVU178
 3726 0269 03       		.uleb128 .LVU207
 3727              	.LLST24:
 3728 026a 06       		.byte	0x6
 3729 026b 72000000 		.4byte	.LVL25
 3730 026f 04       		.byte	0x4
 3731 0270 00       		.uleb128 .LVL25-.LVL25
 3732 0271 18       		.uleb128 .LVL28-.LVL25
 3733 0272 01       		.uleb128 0x1
 3734 0273 54       		.byte	0x54
 3735 0274 04       		.byte	0x4
 3736 0275 20       		.uleb128 .LVL30-.LVL25
 3737 0276 48       		.uleb128 .LVL32-.LVL25
 3738 0277 01       		.uleb128 0x1
 3739 0278 54       		.byte	0x54
 3740 0279 00       		.byte	0
 3741              	.LVUS26:
 3742 027a 00       		.uleb128 .LVU142
 3743 027b 00       		.uleb128 .LVU143
 3744 027c 0B       		.uleb128 .LVU175
 3745 027d 00       		.uleb128 .LVU241
 3746              	.LLST26:
 3747 027e 06       		.byte	0x6
 3748 027f 72000000 		.4byte	.LVL25
 3749 0283 04       		.byte	0x4
 3750 0284 00       		.uleb128 .LVL25-.LVL25
 3751 0285 04       		.uleb128 .LVL26-.LVL25
 3752 0286 02       		.uleb128 0x2
 3753 0287 30       		.byte	0x30
 3754 0288 9F       		.byte	0x9f
 3755 0289 04       		.byte	0x4
 3756 028a 1E       		.uleb128 .LVL29-.LVL25
 3757 028b 7C       		.uleb128 .LVL37-.LVL25
 3758 028c 02       		.uleb128 0x2
 3759 028d 30       		.byte	0x30
 3760 028e 9F       		.byte	0x9f
 3761 028f 00       		.byte	0
 3762              	.LVUS27:
ARM GAS  C:\Users\DEVELO~1\AppData\Local\Temp\ccPQmLBO.s 			page 67


 3763 0290 05       		.uleb128 .LVU154
 3764 0291 00       		.uleb128 .LVU156
 3765              	.LLST27:
 3766 0292 08       		.byte	0x8
 3767 0293 84000000 		.4byte	.LVL27
 3768 0297 06       		.uleb128 .LVL28-.LVL27
 3769 0298 03       		.uleb128 0x3
 3770 0299 08       		.byte	0x8
 3771 029a 30       		.byte	0x30
 3772 029b 9F       		.byte	0x9f
 3773 029c 00       		.byte	0
 3774              	.LVUS29:
 3775 029d 01       		.uleb128 .LVU194
 3776 029e 04       		.uleb128 .LVU197
 3777              	.LLST29:
 3778 029f 08       		.byte	0x8
 3779 02a0 A8000000 		.4byte	.LVL31
 3780 02a4 00       		.uleb128 .LVL31-.LVL31
 3781 02a5 03       		.uleb128 0x3
 3782 02a6 74       		.byte	0x74
 3783 02a7 18       		.sleb128 24
 3784 02a8 9F       		.byte	0x9f
 3785 02a9 00       		.byte	0
 3786              	.LVUS0:
 3787 02aa 00       		.uleb128 0
 3788 02ab 00       		.uleb128 .LVU8
 3789 02ac 00       		.uleb128 .LVU8
 3790 02ad 00       		.uleb128 0
 3791              	.LLST0:
 3792 02ae 06       		.byte	0x6
 3793 02af 00000000 		.4byte	.LVL0
 3794 02b3 04       		.byte	0x4
 3795 02b4 00       		.uleb128 .LVL0-.LVL0
 3796 02b5 0C       		.uleb128 .LVL1-.LVL0
 3797 02b6 01       		.uleb128 0x1
 3798 02b7 50       		.byte	0x50
 3799 02b8 04       		.byte	0x4
 3800 02b9 0C       		.uleb128 .LVL1-.LVL0
 3801 02ba 7E       		.uleb128 .LFE354-.LVL0
 3802 02bb 01       		.uleb128 0x1
 3803 02bc 56       		.byte	0x56
 3804 02bd 00       		.byte	0
 3805              	.LVUS1:
 3806 02be 00       		.uleb128 0
 3807 02bf 00       		.uleb128 .LVU9
 3808 02c0 00       		.uleb128 .LVU9
 3809 02c1 00       		.uleb128 .LVU19
 3810 02c2 00       		.uleb128 .LVU19
 3811 02c3 00       		.uleb128 .LVU39
 3812 02c4 00       		.uleb128 .LVU39
 3813 02c5 00       		.uleb128 0
 3814              	.LLST1:
 3815 02c6 06       		.byte	0x6
 3816 02c7 00000000 		.4byte	.LVL0
 3817 02cb 04       		.byte	0x4
 3818 02cc 00       		.uleb128 .LVL0-.LVL0
 3819 02cd 0E       		.uleb128 .LVL2-.LVL0
ARM GAS  C:\Users\DEVELO~1\AppData\Local\Temp\ccPQmLBO.s 			page 68


 3820 02ce 01       		.uleb128 0x1
 3821 02cf 51       		.byte	0x51
 3822 02d0 04       		.byte	0x4
 3823 02d1 0E       		.uleb128 .LVL2-.LVL0
 3824 02d2 34       		.uleb128 .LVL5-.LVL0
 3825 02d3 01       		.uleb128 0x1
 3826 02d4 59       		.byte	0x59
 3827 02d5 04       		.byte	0x4
 3828 02d6 34       		.uleb128 .LVL5-.LVL0
 3829 02d7 58       		.uleb128 .LVL7-.LVL0
 3830 02d8 02       		.uleb128 0x2
 3831 02d9 76       		.byte	0x76
 3832 02da 00       		.sleb128 0
 3833 02db 04       		.byte	0x4
 3834 02dc 58       		.uleb128 .LVL7-.LVL0
 3835 02dd 7E       		.uleb128 .LFE354-.LVL0
 3836 02de 04       		.uleb128 0x4
 3837 02df A3       		.byte	0xa3
 3838 02e0 01       		.uleb128 0x1
 3839 02e1 51       		.byte	0x51
 3840 02e2 9F       		.byte	0x9f
 3841 02e3 00       		.byte	0
 3842              	.LVUS2:
 3843 02e4 00       		.uleb128 0
 3844 02e5 00       		.uleb128 .LVU11
 3845 02e6 00       		.uleb128 .LVU11
 3846 02e7 00       		.uleb128 .LVU39
 3847              	.LLST2:
 3848 02e8 06       		.byte	0x6
 3849 02e9 00000000 		.4byte	.LVL0
 3850 02ed 04       		.byte	0x4
 3851 02ee 00       		.uleb128 .LVL0-.LVL0
 3852 02ef 19       		.uleb128 .LVL3-1-.LVL0
 3853 02f0 01       		.uleb128 0x1
 3854 02f1 52       		.byte	0x52
 3855 02f2 04       		.byte	0x4
 3856 02f3 19       		.uleb128 .LVL3-1-.LVL0
 3857 02f4 58       		.uleb128 .LVL7-.LVL0
 3858 02f5 01       		.uleb128 0x1
 3859 02f6 55       		.byte	0x55
 3860 02f7 00       		.byte	0
 3861              	.LVUS3:
 3862 02f8 00       		.uleb128 0
 3863 02f9 00       		.uleb128 .LVU11
 3864 02fa 00       		.uleb128 .LVU11
 3865 02fb 00       		.uleb128 .LVU45
 3866 02fc 00       		.uleb128 .LVU45
 3867 02fd 01       		.uleb128 .LVU57
 3868              	.LLST3:
 3869 02fe 06       		.byte	0x6
 3870 02ff 00000000 		.4byte	.LVL0
 3871 0303 04       		.byte	0x4
 3872 0304 00       		.uleb128 .LVL0-.LVL0
 3873 0305 19       		.uleb128 .LVL3-1-.LVL0
 3874 0306 01       		.uleb128 0x1
 3875 0307 53       		.byte	0x53
 3876 0308 04       		.byte	0x4
ARM GAS  C:\Users\DEVELO~1\AppData\Local\Temp\ccPQmLBO.s 			page 69


 3877 0309 19       		.uleb128 .LVL3-1-.LVL0
 3878 030a 66       		.uleb128 .LVL9-.LVL0
 3879 030b 01       		.uleb128 0x1
 3880 030c 57       		.byte	0x57
 3881 030d 04       		.byte	0x4
 3882 030e 66       		.uleb128 .LVL9-.LVL0
 3883 030f 78       		.uleb128 .LVL10-.LVL0
 3884 0310 03       		.uleb128 0x3
 3885 0311 77       		.byte	0x77
 3886 0312 01       		.sleb128 1
 3887 0313 9F       		.byte	0x9f
 3888 0314 00       		.byte	0
 3889              	.LVUS4:
 3890 0315 00       		.uleb128 0
 3891 0316 00       		.uleb128 .LVU39
 3892 0317 00       		.uleb128 .LVU39
 3893 0318 00       		.uleb128 0
 3894              	.LLST4:
 3895 0319 06       		.byte	0x6
 3896 031a 00000000 		.4byte	.LVL0
 3897 031e 04       		.byte	0x4
 3898 031f 00       		.uleb128 .LVL0-.LVL0
 3899 0320 58       		.uleb128 .LVL7-.LVL0
 3900 0321 02       		.uleb128 0x2
 3901 0322 91       		.byte	0x91
 3902 0323 04       		.sleb128 4
 3903 0324 04       		.byte	0x4
 3904 0325 58       		.uleb128 .LVL7-.LVL0
 3905 0326 7E       		.uleb128 .LFE354-.LVL0
 3906 0327 01       		.uleb128 0x1
 3907 0328 54       		.byte	0x54
 3908 0329 00       		.byte	0
 3909              	.LVUS6:
 3910 032a 03       		.uleb128 .LVU42
 3911 032b 00       		.uleb128 .LVU56
 3912 032c 00       		.uleb128 .LVU56
 3913 032d 00       		.uleb128 0
 3914              	.LLST6:
 3915 032e 06       		.byte	0x6
 3916 032f 58000000 		.4byte	.LVL7
 3917 0333 04       		.byte	0x4
 3918 0334 00       		.uleb128 .LVL7-.LVL7
 3919 0335 20       		.uleb128 .LVL10-.LVL7
 3920 0336 01       		.uleb128 0x1
 3921 0337 54       		.byte	0x54
 3922 0338 04       		.byte	0x4
 3923 0339 20       		.uleb128 .LVL10-.LVL7
 3924 033a 26       		.uleb128 .LFE354-.LVL7
 3925 033b 02       		.uleb128 0x2
 3926 033c 76       		.byte	0x76
 3927 033d 1C       		.sleb128 28
 3928 033e 00       		.byte	0
 3929              	.Ldebug_loc3:
 3930              		.section	.debug_aranges,"",%progbits
 3931 0000 3C000000 		.4byte	0x3c
 3932 0004 0200     		.2byte	0x2
 3933 0006 00000000 		.4byte	.Ldebug_info0
ARM GAS  C:\Users\DEVELO~1\AppData\Local\Temp\ccPQmLBO.s 			page 70


 3934 000a 04       		.byte	0x4
 3935 000b 00       		.byte	0
 3936 000c 0000     		.2byte	0
 3937 000e 0000     		.2byte	0
 3938 0010 00000000 		.4byte	.LFB354
 3939 0014 7E000000 		.4byte	.LFE354-.LFB354
 3940 0018 00000000 		.4byte	.LFB355
 3941 001c 02010000 		.4byte	.LFE355-.LFB355
 3942 0020 00000000 		.4byte	.LFB356
 3943 0024 7C000000 		.4byte	.LFE356-.LFB356
 3944 0028 00000000 		.4byte	.LFB357
 3945 002c 12000000 		.4byte	.LFE357-.LFB357
 3946 0030 00000000 		.4byte	.LFB358
 3947 0034 12000000 		.4byte	.LFE358-.LFB358
 3948 0038 00000000 		.4byte	0
 3949 003c 00000000 		.4byte	0
 3950              		.section	.debug_rnglists,"",%progbits
 3951              	.Ldebug_ranges0:
 3952 0000 9E000000 		.4byte	.Ldebug_ranges3-.Ldebug_ranges2
 3953              	.Ldebug_ranges2:
 3954 0004 0500     		.2byte	0x5
 3955 0006 04       		.byte	0x4
 3956 0007 00       		.byte	0
 3957 0008 00000000 		.4byte	0
 3958              	.LLRL5:
 3959 000c 05       		.byte	0x5
 3960 000d 52000000 		.4byte	.LBB45
 3961 0011 04       		.byte	0x4
 3962 0012 00       		.uleb128 .LBB45-.LBB45
 3963 0013 06       		.uleb128 .LBE45-.LBB45
 3964 0014 04       		.byte	0x4
 3965 0015 06       		.uleb128 .LBB46-.LBB45
 3966 0016 12       		.uleb128 .LBE46-.LBB45
 3967 0017 04       		.byte	0x4
 3968 0018 14       		.uleb128 .LBB47-.LBB45
 3969 0019 26       		.uleb128 .LBE47-.LBB45
 3970 001a 00       		.byte	0
 3971              	.LLRL11:
 3972 001b 05       		.byte	0x5
 3973 001c 00000000 		.4byte	.LBB80
 3974 0020 04       		.byte	0x4
 3975 0021 00       		.uleb128 .LBB80-.LBB80
 3976 0022 00       		.uleb128 .LBE80-.LBB80
 3977 0023 04       		.byte	0x4
 3978 0024 04       		.uleb128 .LBB90-.LBB80
 3979 0025 06       		.uleb128 .LBE90-.LBB80
 3980 0026 04       		.byte	0x4
 3981 0027 0C       		.uleb128 .LBB91-.LBB80
 3982 0028 10       		.uleb128 .LBE91-.LBB80
 3983 0029 00       		.byte	0
 3984              	.LLRL18:
 3985 002a 05       		.byte	0x5
 3986 002b 2C000000 		.4byte	.LBB94
 3987 002f 04       		.byte	0x4
 3988 0030 00       		.uleb128 .LBB94-.LBB94
 3989 0031 02       		.uleb128 .LBE94-.LBB94
 3990 0032 04       		.byte	0x4
ARM GAS  C:\Users\DEVELO~1\AppData\Local\Temp\ccPQmLBO.s 			page 71


 3991 0033 06       		.uleb128 .LBB95-.LBB94
 3992 0034 12       		.uleb128 .LBE95-.LBB94
 3993 0035 00       		.byte	0
 3994              	.LLRL21:
 3995 0036 05       		.byte	0x5
 3996 0037 46000000 		.4byte	.LBB98
 3997 003b 04       		.byte	0x4
 3998 003c 00       		.uleb128 .LBB98-.LBB98
 3999 003d 02       		.uleb128 .LBE98-.LBB98
 4000 003e 04       		.byte	0x4
 4001 003f 0E       		.uleb128 .LBB101-.LBB98
 4002 0040 12       		.uleb128 .LBE101-.LBB98
 4003 0041 00       		.byte	0
 4004              	.LLRL22:
 4005 0042 05       		.byte	0x5
 4006 0043 58000000 		.4byte	.LBB102
 4007 0047 04       		.byte	0x4
 4008 0048 00       		.uleb128 .LBB102-.LBB102
 4009 0049 06       		.uleb128 .LBE102-.LBB102
 4010 004a 04       		.byte	0x4
 4011 004b 8A01     		.uleb128 .LBB146-.LBB102
 4012 004d 9001     		.uleb128 .LBE146-.LBB102
 4013 004f 04       		.byte	0x4
 4014 0050 9E01     		.uleb128 .LBB147-.LBB102
 4015 0052 A401     		.uleb128 .LBE147-.LBB102
 4016 0054 00       		.byte	0
 4017              	.LLRL25:
 4018 0055 05       		.byte	0x5
 4019 0056 68000000 		.4byte	.LBB117
 4020 005a 04       		.byte	0x4
 4021 005b 00       		.uleb128 .LBB117-.LBB117
 4022 005c 04       		.uleb128 .LBE117-.LBB117
 4023 005d 04       		.byte	0x4
 4024 005e 0A       		.uleb128 .LBB130-.LBB117
 4025 005f 0E       		.uleb128 .LBE130-.LBB117
 4026 0060 04       		.byte	0x4
 4027 0061 28       		.uleb128 .LBB136-.LBB117
 4028 0062 28       		.uleb128 .LBE136-.LBB117
 4029 0063 00       		.byte	0
 4030              	.LLRL28:
 4031 0064 05       		.byte	0x5
 4032 0065 92000000 		.4byte	.LBB137
 4033 0069 04       		.byte	0x4
 4034 006a 00       		.uleb128 .LBB137-.LBB137
 4035 006b 04       		.uleb128 .LBE137-.LBB137
 4036 006c 04       		.byte	0x4
 4037 006d 08       		.uleb128 .LBB141-.LBB137
 4038 006e 0A       		.uleb128 .LBE141-.LBB137
 4039 006f 04       		.byte	0x4
 4040 0070 16       		.uleb128 .LBB142-.LBB137
 4041 0071 16       		.uleb128 .LBE142-.LBB137
 4042 0072 00       		.byte	0
 4043              	.LLRL30:
 4044 0073 05       		.byte	0x5
 4045 0074 BE000000 		.4byte	.LBB143
 4046 0078 04       		.byte	0x4
 4047 0079 00       		.uleb128 .LBB143-.LBB143
ARM GAS  C:\Users\DEVELO~1\AppData\Local\Temp\ccPQmLBO.s 			page 72


 4048 007a 04       		.uleb128 .LBE143-.LBB143
 4049 007b 04       		.byte	0x4
 4050 007c 06       		.uleb128 .LBB144-.LBB143
 4051 007d 08       		.uleb128 .LBE144-.LBB143
 4052 007e 04       		.byte	0x4
 4053 007f 0A       		.uleb128 .LBB145-.LBB143
 4054 0080 24       		.uleb128 .LBE145-.LBB143
 4055 0081 00       		.byte	0
 4056              	.LLRL42:
 4057 0082 07       		.byte	0x7
 4058 0083 00000000 		.4byte	.LFB354
 4059 0087 7E       		.uleb128 .LFE354-.LFB354
 4060 0088 07       		.byte	0x7
 4061 0089 00000000 		.4byte	.LFB355
 4062 008d 8202     		.uleb128 .LFE355-.LFB355
 4063 008f 07       		.byte	0x7
 4064 0090 00000000 		.4byte	.LFB356
 4065 0094 7C       		.uleb128 .LFE356-.LFB356
 4066 0095 07       		.byte	0x7
 4067 0096 00000000 		.4byte	.LFB357
 4068 009a 12       		.uleb128 .LFE357-.LFB357
 4069 009b 07       		.byte	0x7
 4070 009c 00000000 		.4byte	.LFB358
 4071 00a0 12       		.uleb128 .LFE358-.LFB358
 4072 00a1 00       		.byte	0
 4073              	.Ldebug_ranges3:
 4074              		.section	.debug_line,"",%progbits
 4075              	.Ldebug_line0:
 4076 0000 B0080000 		.section	.debug_str,"MS",%progbits,1
 4076      03005002 
 4076      00000201 
 4076      FB0E0D00 
 4076      01010101 
 4077              	.LASF54:
 4078 0000 6F635F77 		.ascii	"oc_writef_t\000"
 4078      72697465 
 4078      665F7400 
 4079              	.LASF48:
 4080 000c 6F626A76 		.ascii	"objvp\000"
 4080      7000
 4081              	.LASF30:
 4082 0012 6F635F68 		.ascii	"oc_hash_element_t\000"
 4082      6173685F 
 4082      656C656D 
 4082      656E745F 
 4082      7400
 4083              	.LASF50:
 4084 0024 6C72755F 		.ascii	"lru_sem\000"
 4084      73656D00 
 4085              	.LASF37:
 4086 002c 6F626A5F 		.ascii	"obj_owner\000"
 4086      6F776E65 
 4086      7200
 4087              	.LASF4:
 4088 0036 73697A65 		.ascii	"size_t\000"
 4088      5F7400
 4089              	.LASF68:
ARM GAS  C:\Users\DEVELO~1\AppData\Local\Temp\ccPQmLBO.s 			page 73


 4090 003d 63685365 		.ascii	"chSemGetCounterI\000"
 4090      6D476574 
 4090      436F756E 
 4090      74657249 
 4090      00
 4091              	.LASF56:
 4092 004e 63685365 		.ascii	"chSemObjectInit\000"
 4092      6D4F626A 
 4092      65637449 
 4092      6E697400 
 4093              	.LASF40:
 4094 005e 6F626A5F 		.ascii	"obj_flags\000"
 4094      666C6167 
 4094      7300
 4095              	.LASF18:
 4096 0068 636E745F 		.ascii	"cnt_t\000"
 4096      7400
 4097              	.LASF69:
 4098 006e 63685365 		.ascii	"chSemFastSignalI\000"
 4098      6D466173 
 4098      74536967 
 4098      6E616C49 
 4098      00
 4099              	.LASF43:
 4100 007f 6F626A65 		.ascii	"objects_cache\000"
 4100      6374735F 
 4100      63616368 
 4100      6500
 4101              	.LASF74:
 4102 008d 706F7274 		.ascii	"port_lock\000"
 4102      5F6C6F63 
 4102      6B00
 4103              	.LASF33:
 4104 0097 6F635F6C 		.ascii	"oc_lru_element\000"
 4104      72755F65 
 4104      6C656D65 
 4104      6E7400
 4105              	.LASF34:
 4106 00a6 6F635F6F 		.ascii	"oc_object_t\000"
 4106      626A6563 
 4106      745F7400 
 4107              	.LASF64:
 4108 00b2 63684361 		.ascii	"chCacheReleaseObjectI\000"
 4108      63686552 
 4108      656C6561 
 4108      73654F62 
 4108      6A656374 
 4109              	.LASF65:
 4110 00c8 63684361 		.ascii	"chCacheObjectInit\000"
 4110      6368654F 
 4110      626A6563 
 4110      74496E69 
 4110      7400
 4111              	.LASF7:
 4112 00da 73686F72 		.ascii	"short int\000"
 4112      7420696E 
 4112      7400
ARM GAS  C:\Users\DEVELO~1\AppData\Local\Temp\ccPQmLBO.s 			page 74


 4113              	.LASF31:
 4114 00e4 6F635F68 		.ascii	"oc_hash_element\000"
 4114      6173685F 
 4114      656C656D 
 4114      656E7400 
 4115              	.LASF42:
 4116 00f4 6F626A65 		.ascii	"objects_cache_t\000"
 4116      6374735F 
 4116      63616368 
 4116      655F7400 
 4117              	.LASF14:
 4118 0104 75696E74 		.ascii	"uint8_t\000"
 4118      385F7400 
 4119              	.LASF61:
 4120 010c 63684361 		.ascii	"chCacheGetObject\000"
 4120      63686547 
 4120      65744F62 
 4120      6A656374 
 4120      00
 4121              	.LASF21:
 4122 011d 63685F71 		.ascii	"ch_queue_t\000"
 4122      75657565 
 4122      5F7400
 4123              	.LASF16:
 4124 0128 75696E74 		.ascii	"uint32_t\000"
 4124      33325F74 
 4124      00
 4125              	.LASF27:
 4126 0131 73656D61 		.ascii	"semaphore_t\000"
 4126      70686F72 
 4126      655F7400 
 4127              	.LASF47:
 4128 013d 6F626A73 		.ascii	"objsz\000"
 4128      7A00
 4129              	.LASF72:
 4130 0143 63685379 		.ascii	"chSysLock\000"
 4130      734C6F63 
 4130      6B00
 4131              	.LASF2:
 4132 014d 6C6F6E67 		.ascii	"long double\000"
 4132      20646F75 
 4132      626C6500 
 4133              	.LASF1:
 4134 0159 6C6F6E67 		.ascii	"long long int\000"
 4134      206C6F6E 
 4134      6720696E 
 4134      7400
 4135              	.LASF13:
 4136 0167 6C6F6E67 		.ascii	"long long unsigned int\000"
 4136      206C6F6E 
 4136      6720756E 
 4136      7369676E 
 4136      65642069 
 4137              	.LASF29:
 4138 017e 6F635F66 		.ascii	"oc_flags_t\000"
 4138      6C616773 
 4138      5F7400
ARM GAS  C:\Users\DEVELO~1\AppData\Local\Temp\ccPQmLBO.s 			page 75


 4139              	.LASF10:
 4140 0189 6C6F6E67 		.ascii	"long int\000"
 4140      20696E74 
 4140      00
 4141              	.LASF78:
 4142 0192 433A5C43 		.ascii	"C:\\ChibiStudio\\chibios2111\\demos\\STM32\\RT-STM3"
 4142      68696269 
 4142      53747564 
 4142      696F5C63 
 4142      68696269 
 4143 01c0 32483734 		.ascii	"2H743ZI_REV_XY-NUCLEO144 - Copie\000"
 4143      335A495F 
 4143      5245565F 
 4143      58592D4E 
 4143      55434C45 
 4144              	.LASF5:
 4145 01e1 5F5F7569 		.ascii	"__uint8_t\000"
 4145      6E74385F 
 4145      7400
 4146              	.LASF38:
 4147 01eb 6F626A5F 		.ascii	"obj_key\000"
 4147      6B657900 
 4148              	.LASF11:
 4149 01f3 5F5F7569 		.ascii	"__uint32_t\000"
 4149      6E743332 
 4149      5F7400
 4150              	.LASF26:
 4151 01fe 71756575 		.ascii	"queue\000"
 4151      6500
 4152              	.LASF39:
 4153 0204 6F626A5F 		.ascii	"obj_sem\000"
 4153      73656D00 
 4154              	.LASF6:
 4155 020c 756E7369 		.ascii	"unsigned char\000"
 4155      676E6564 
 4155      20636861 
 4155      7200
 4156              	.LASF66:
 4157 021a 6C72755F 		.ascii	"lru_get_last_s\000"
 4157      6765745F 
 4157      6C617374 
 4157      5F7300
 4158              	.LASF63:
 4159 0229 5F5F6675 		.ascii	"__func__\000"
 4159      6E635F5F 
 4159      00
 4160              	.LASF62:
 4161 0232 6F776E65 		.ascii	"owner\000"
 4161      7200
 4162              	.LASF70:
 4163 0238 63685365 		.ascii	"chSemFastWaitI\000"
 4163      6D466173 
 4163      74576169 
 4163      744900
 4164              	.LASF9:
 4165 0247 5F5F696E 		.ascii	"__int32_t\000"
 4165      7433325F 
ARM GAS  C:\Users\DEVELO~1\AppData\Local\Temp\ccPQmLBO.s 			page 76


 4165      7400
 4166              	.LASF3:
 4167 0251 7369676E 		.ascii	"signed char\000"
 4167      65642063 
 4167      68617200 
 4168              	.LASF79:
 4169 025d 63685365 		.ascii	"chSemWaitS\000"
 4169      6D576169 
 4169      745300
 4170              	.LASF52:
 4171 0268 77726974 		.ascii	"writef\000"
 4171      656600
 4172              	.LASF44:
 4173 026f 68617368 		.ascii	"hashn\000"
 4173      6E00
 4174              	.LASF0:
 4175 0275 756E7369 		.ascii	"unsigned int\000"
 4175      676E6564 
 4175      20696E74 
 4175      00
 4176              	.LASF45:
 4177 0282 68617368 		.ascii	"hashp\000"
 4177      7000
 4178              	.LASF51:
 4179 0288 72656164 		.ascii	"readf\000"
 4179      6600
 4180              	.LASF8:
 4181 028e 73686F72 		.ascii	"short unsigned int\000"
 4181      7420756E 
 4181      7369676E 
 4181      65642069 
 4181      6E7400
 4182              	.LASF75:
 4183 02a1 62617365 		.ascii	"basePri\000"
 4183      50726900 
 4184              	.LASF58:
 4185 02a9 6173796E 		.ascii	"async\000"
 4185      6300
 4186              	.LASF53:
 4187 02af 6F635F72 		.ascii	"oc_readf_t\000"
 4187      65616466 
 4187      5F7400
 4188              	.LASF20:
 4189 02ba 63686172 		.ascii	"char\000"
 4189      00
 4190              	.LASF49:
 4191 02bf 63616368 		.ascii	"cache_sem\000"
 4191      655F7365 
 4191      6D00
 4192              	.LASF19:
 4193 02c9 75636E74 		.ascii	"ucnt_t\000"
 4193      5F7400
 4194              	.LASF15:
 4195 02d0 696E7433 		.ascii	"int32_t\000"
 4195      325F7400 
 4196              	.LASF36:
 4197 02d8 6C697374 		.ascii	"list\000"
ARM GAS  C:\Users\DEVELO~1\AppData\Local\Temp\ccPQmLBO.s 			page 77


 4197      00
 4198              	.LASF60:
 4199 02dd 63684361 		.ascii	"chCacheReadObject\000"
 4199      63686552 
 4199      6561644F 
 4199      626A6563 
 4199      7400
 4200              	.LASF28:
 4201 02ef 5F426F6F 		.ascii	"_Bool\000"
 4201      6C00
 4202              	.LASF73:
 4203 02f5 706F7274 		.ascii	"port_unlock\000"
 4203      5F756E6C 
 4203      6F636B00 
 4204              	.LASF32:
 4205 0301 6F635F6C 		.ascii	"oc_lru_element_t\000"
 4205      72755F65 
 4205      6C656D65 
 4205      6E745F74 
 4205      00
 4206              	.LASF12:
 4207 0312 6C6F6E67 		.ascii	"long unsigned int\000"
 4207      20756E73 
 4207      69676E65 
 4207      6420696E 
 4207      7400
 4208              	.LASF76:
 4209 0324 474E5520 		.ascii	"GNU C17 11.3.1 20220712 -mcpu=cortex-m7 -mthumb -mf"
 4209      43313720 
 4209      31312E33 
 4209      2E312032 
 4209      30323230 
 4210 0357 6C6F6174 		.ascii	"loat-abi=soft -march=armv7e-m -ggdb -O2 -fomit-fram"
 4210      2D616269 
 4210      3D736F66 
 4210      74202D6D 
 4210      61726368 
 4211 038a 652D706F 		.ascii	"e-pointer -falign-functions=16 -ffunction-sections "
 4211      696E7465 
 4211      72202D66 
 4211      616C6967 
 4211      6E2D6675 
 4212 03bd 2D666461 		.ascii	"-fdata-sections -fno-common\000"
 4212      74612D73 
 4212      65637469 
 4212      6F6E7320 
 4212      2D666E6F 
 4213              	.LASF77:
 4214 03d9 2E2F4368 		.ascii	"./ChibiOS/os/oslib/src/chobjcaches.c\000"
 4214      6962694F 
 4214      532F6F73 
 4214      2F6F736C 
 4214      69622F73 
 4215              	.LASF59:
 4216 03fe 63684361 		.ascii	"chCacheWriteObject\000"
 4216      63686557 
 4216      72697465 
ARM GAS  C:\Users\DEVELO~1\AppData\Local\Temp\ccPQmLBO.s 			page 78


 4216      4F626A65 
 4216      637400
 4217              	.LASF71:
 4218 0411 63685379 		.ascii	"chSysUnlock\000"
 4218      73556E6C 
 4218      6F636B00 
 4219              	.LASF25:
 4220 041d 63685F73 		.ascii	"ch_semaphore\000"
 4220      656D6170 
 4220      686F7265 
 4220      00
 4221              	.LASF46:
 4222 042a 6F626A6E 		.ascii	"objn\000"
 4222      00
 4223              	.LASF57:
 4224 042f 6F626A70 		.ascii	"objp\000"
 4224      00
 4225              	.LASF24:
 4226 0434 63685F71 		.ascii	"ch_queue\000"
 4226      75657565 
 4226      00
 4227              	.LASF55:
 4228 043d 63685365 		.ascii	"chSemSignalI\000"
 4228      6D536967 
 4228      6E616C49 
 4228      00
 4229              	.LASF80:
 4230 044a 5F5F7365 		.ascii	"__set_BASEPRI\000"
 4230      745F4241 
 4230      53455052 
 4230      4900
 4231              	.LASF41:
 4232 0458 64707472 		.ascii	"dptr\000"
 4232      00
 4233              	.LASF23:
 4234 045d 70726576 		.ascii	"prev\000"
 4234      00
 4235              	.LASF35:
 4236 0462 6F635F6F 		.ascii	"oc_object\000"
 4236      626A6563 
 4236      7400
 4237              	.LASF17:
 4238 046c 6D73675F 		.ascii	"msg_t\000"
 4238      7400
 4239              	.LASF67:
 4240 0472 68617368 		.ascii	"hash_get_s\000"
 4240      5F676574 
 4240      5F7300
 4241              	.LASF22:
 4242 047d 6E657874 		.ascii	"next\000"
 4242      00
 4243              		.ident	"GCC: (Arm GNU Toolchain 11.3.Rel1) 11.3.1 20220712"
ARM GAS  C:\Users\DEVELO~1\AppData\Local\Temp\ccPQmLBO.s 			page 79


DEFINED SYMBOLS
                            *ABS*:00000000 chobjcaches.c
C:\Users\DEVELO~1\AppData\Local\Temp\ccPQmLBO.s:18     .text.chCacheObjectInit:00000000 $t
C:\Users\DEVELO~1\AppData\Local\Temp\ccPQmLBO.s:25     .text.chCacheObjectInit:00000000 chCacheObjectInit
C:\Users\DEVELO~1\AppData\Local\Temp\ccPQmLBO.s:168    .text.chCacheGetObject:00000000 $t
C:\Users\DEVELO~1\AppData\Local\Temp\ccPQmLBO.s:175    .text.chCacheGetObject:00000000 chCacheGetObject
C:\Users\DEVELO~1\AppData\Local\Temp\ccPQmLBO.s:714    .text.chCacheReleaseObjectI:00000000 $t
C:\Users\DEVELO~1\AppData\Local\Temp\ccPQmLBO.s:721    .text.chCacheReleaseObjectI:00000000 chCacheReleaseObjectI
C:\Users\DEVELO~1\AppData\Local\Temp\ccPQmLBO.s:873    .text.chCacheReadObject:00000000 $t
C:\Users\DEVELO~1\AppData\Local\Temp\ccPQmLBO.s:880    .text.chCacheReadObject:00000000 chCacheReadObject
C:\Users\DEVELO~1\AppData\Local\Temp\ccPQmLBO.s:918    .text.chCacheWriteObject:00000000 $t
C:\Users\DEVELO~1\AppData\Local\Temp\ccPQmLBO.s:925    .text.chCacheWriteObject:00000000 chCacheWriteObject

UNDEFINED SYMBOLS
chSemObjectInit
chSemWaitS
chSemSignalI
