ARM GAS  C:\Users\DEVELO~1\AppData\Local\Temp\ccOkkO3t.s 			page 1


   1              		.cpu cortex-m7
   2              		.arch armv7e-m
   3              		.fpu softvfp
   4              		.eabi_attribute 20, 1
   5              		.eabi_attribute 21, 1
   6              		.eabi_attribute 23, 3
   7              		.eabi_attribute 24, 1
   8              		.eabi_attribute 25, 1
   9              		.eabi_attribute 26, 1
  10              		.eabi_attribute 30, 2
  11              		.eabi_attribute 34, 1
  12              		.eabi_attribute 18, 4
  13              		.file	"chpipes.c"
  14              		.text
  15              	.Ltext0:
  16              		.cfi_sections	.debug_frame
  17              		.section	.text.chPipeObjectInit,"ax",%progbits
  18              		.align	1
  19              		.p2align 4,,15
  20              		.global	chPipeObjectInit
  21              		.syntax unified
  22              		.thumb
  23              		.thumb_func
  24              		.type	chPipeObjectInit, %function
  25              	chPipeObjectInit:
  26              	.LVL0:
  27              	.LFB348:
  28              		.file 1 "../../../os/oslib/src/chpipes.c"
  29              		.loc 1 207 59 view -0
  30              		.cfi_startproc
  31              		@ args = 0, pretend = 0, frame = 0
  32              		@ frame_needed = 0, uses_anonymous_args = 0
  33              		.loc 1 209 3 view .LVU1
  34              		.loc 1 209 3 view .LVU2
  35              		.loc 1 209 3 view .LVU3
  36              		.loc 1 211 3 view .LVU4
  37              		.loc 1 207 59 is_stmt 0 view .LVU5
  38 0000 10B5     		push	{r4, lr}
  39              		.cfi_def_cfa_offset 8
  40              		.cfi_offset 4, -8
  41              		.cfi_offset 14, -4
  42              		.loc 1 215 14 view .LVU6
  43 0002 0023     		movs	r3, #0
  44              		.loc 1 207 59 view .LVU7
  45 0004 0446     		mov	r4, r0
  46              		.loc 1 214 16 view .LVU8
  47 0006 0A44     		add	r2, r2, r1
  48              	.LVL1:
  49              		.loc 1 219 3 view .LVU9
  50 0008 2030     		adds	r0, r0, #32
  51              	.LVL2:
  52              		.loc 1 211 14 view .LVU10
  53 000a 2160     		str	r1, [r4]
  54              		.loc 1 212 3 is_stmt 1 view .LVU11
  55              		.loc 1 214 14 is_stmt 0 view .LVU12
  56 000c 6260     		str	r2, [r4, #4]
  57              		.loc 1 215 14 view .LVU13
ARM GAS  C:\Users\DEVELO~1\AppData\Local\Temp\ccOkkO3t.s 			page 2


  58 000e 2361     		str	r3, [r4, #16]
  59              		.loc 1 216 14 view .LVU14
  60 0010 2375     		strb	r3, [r4, #20]
  61              		.loc 1 213 14 view .LVU15
  62 0012 C4E90211 		strd	r1, r1, [r4, #8]
  63              		.loc 1 214 3 is_stmt 1 view .LVU16
  64              		.loc 1 215 3 view .LVU17
  65              		.loc 1 216 3 view .LVU18
  66              		.loc 1 217 3 view .LVU19
  67              		.loc 1 218 14 is_stmt 0 view .LVU20
  68 0016 C4E90633 		strd	r3, r3, [r4, #24]
  69              		.loc 1 219 3 is_stmt 1 view .LVU21
  70 001a FFF7FEFF 		bl	chMtxObjectInit
  71              	.LVL3:
  72              		.loc 1 220 3 view .LVU22
  73 001e 04F13000 		add	r0, r4, #48
  74 0022 FFF7FEFF 		bl	chMtxObjectInit
  75              	.LVL4:
  76              		.loc 1 221 3 view .LVU23
  77 0026 04F14000 		add	r0, r4, #64
  78              		.loc 1 222 1 is_stmt 0 view .LVU24
  79 002a BDE81040 		pop	{r4, lr}
  80              		.cfi_restore 14
  81              		.cfi_restore 4
  82              		.cfi_def_cfa_offset 0
  83              	.LVL5:
  84              		.loc 1 221 3 view .LVU25
  85 002e FFF7FEBF 		b	chMtxObjectInit
  86              	.LVL6:
  87              		.loc 1 221 3 view .LVU26
  88              		.cfi_endproc
  89              	.LFE348:
  90              		.size	chPipeObjectInit, .-chPipeObjectInit
  91 0032 00BF     		.section	.text.chPipeReset,"ax",%progbits
  92              		.align	1
  93              		.p2align 4,,15
  94              		.global	chPipeReset
  95              		.syntax unified
  96              		.thumb
  97              		.thumb_func
  98              		.type	chPipeReset, %function
  99              	chPipeReset:
 100              	.LVL7:
 101              	.LFB349:
 102              		.loc 1 236 30 is_stmt 1 view -0
 103              		.cfi_startproc
 104              		@ args = 0, pretend = 0, frame = 0
 105              		@ frame_needed = 0, uses_anonymous_args = 0
 106              		.loc 1 238 3 view .LVU28
 107              		.loc 1 238 3 view .LVU29
 108              		.loc 1 238 3 view .LVU30
 109              		.loc 1 240 3 view .LVU31
 110              		.loc 1 236 30 is_stmt 0 view .LVU32
 111 0000 70B5     		push	{r4, r5, r6, lr}
 112              		.cfi_def_cfa_offset 16
 113              		.cfi_offset 4, -16
 114              		.cfi_offset 5, -12
ARM GAS  C:\Users\DEVELO~1\AppData\Local\Temp\ccOkkO3t.s 			page 3


 115              		.cfi_offset 6, -8
 116              		.cfi_offset 14, -4
 117              		.loc 1 240 3 view .LVU33
 118 0002 00F12005 		add	r5, r0, #32
 119              		.loc 1 236 30 view .LVU34
 120 0006 0446     		mov	r4, r0
 121              		.loc 1 244 13 view .LVU35
 122 0008 0026     		movs	r6, #0
 123              		.loc 1 240 3 view .LVU36
 124 000a 2846     		mov	r0, r5
 125              	.LVL8:
 126              		.loc 1 240 3 view .LVU37
 127 000c FFF7FEFF 		bl	chMtxLock
 128              	.LVL9:
 129              		.loc 1 242 3 is_stmt 1 view .LVU38
 130              		.loc 1 242 17 is_stmt 0 view .LVU39
 131 0010 2368     		ldr	r3, [r4]
 132              		.loc 1 245 13 view .LVU40
 133 0012 0122     		movs	r2, #1
 134              		.loc 1 244 13 view .LVU41
 135 0014 2661     		str	r6, [r4, #16]
 136              		.loc 1 243 13 view .LVU42
 137 0016 C4E90233 		strd	r3, r3, [r4, #8]
 138              		.loc 1 244 3 is_stmt 1 view .LVU43
 139              		.loc 1 245 3 view .LVU44
 140              		.loc 1 245 13 is_stmt 0 view .LVU45
 141 001a 2275     		strb	r2, [r4, #20]
 142              		.loc 1 247 3 is_stmt 1 view .LVU46
 143              	.LBB68:
 144              	.LBI68:
 145              		.file 2 "../../../os/rt/include/chsys.h"
 146              		.loc 2 407 20 view .LVU47
 147              		.loc 2 409 3 view .LVU48
 148              	.LBB69:
 149              	.LBI69:
 150              		.file 3 "../../../os/common/ports/ARMv7-M/chcore.h"
 151              		.loc 3 806 27 view .LVU49
 152              		.loc 3 814 3 view .LVU50
 153              	.LVL10:
 154              	.LBB70:
 155              	.LBI70:
 156              		.file 4 "../../../os/common/ext/ARM/CMSIS/Core/Include/cmsis_gcc.h"
 157              		.loc 4 491 27 view .LVU51
 158              	.LBB71:
 159              		.loc 4 493 3 view .LVU52
 160 001c 3023     		movs	r3, #48
 161              		.syntax unified
 162              	@ 493 "../../../os/common/ext/ARM/CMSIS/Core/Include/cmsis_gcc.h" 1
 163 001e 83F31188 		MSR basepri, r3
 164              	@ 0 "" 2
 165              	.LVL11:
 166              		.loc 4 493 3 is_stmt 0 view .LVU53
 167              		.thumb
 168              		.syntax unified
 169              	.LBE71:
 170              	.LBE70:
 171              	.LBE69:
ARM GAS  C:\Users\DEVELO~1\AppData\Local\Temp\ccOkkO3t.s 			page 4


 172              		.loc 2 410 35 is_stmt 1 view .LVU54
 173              		.loc 2 411 21 view .LVU55
 174              	.LBE68:
 175              		.loc 1 248 3 view .LVU56
 176 0022 6FF00101 		mvn	r1, #1
 177 0026 04F11800 		add	r0, r4, #24
 178 002a FFF7FEFF 		bl	chThdResumeI
 179              	.LVL12:
 180              		.loc 1 249 3 view .LVU57
 181 002e 6FF00101 		mvn	r1, #1
 182 0032 04F11C00 		add	r0, r4, #28
 183 0036 FFF7FEFF 		bl	chThdResumeI
 184              	.LVL13:
 185              		.loc 1 250 3 view .LVU58
 186 003a FFF7FEFF 		bl	chSchRescheduleS
 187              	.LVL14:
 188              		.loc 1 251 3 view .LVU59
 189              	.LBB72:
 190              	.LBI72:
 191              		.loc 2 421 20 view .LVU60
 192              	.LBB73:
 193              		.loc 2 423 23 view .LVU61
 194              		.loc 2 424 34 view .LVU62
 195              		.loc 2 430 3 view .LVU63
 196              		.loc 2 430 3 view .LVU64
 197              		.loc 2 430 3 view .LVU65
 198              		.loc 2 434 3 view .LVU66
 199              	.LBB74:
 200              	.LBI74:
 201              		.loc 3 830 27 view .LVU67
 202              		.loc 3 833 3 view .LVU68
 203              	.LBB75:
 204              	.LBI75:
 205              		.loc 4 491 27 view .LVU69
 206              	.LBB76:
 207              		.loc 4 493 3 view .LVU70
 208              		.syntax unified
 209              	@ 493 "../../../os/common/ext/ARM/CMSIS/Core/Include/cmsis_gcc.h" 1
 210 003e 86F31188 		MSR basepri, r6
 211              	@ 0 "" 2
 212              	.LVL15:
 213              		.loc 4 493 3 is_stmt 0 view .LVU71
 214              		.thumb
 215              		.syntax unified
 216              	.LBE76:
 217              	.LBE75:
 218              	.LBE74:
 219              	.LBE73:
 220              	.LBE72:
 221              		.loc 1 253 3 is_stmt 1 view .LVU72
 222 0042 2846     		mov	r0, r5
 223              		.loc 1 254 1 is_stmt 0 view .LVU73
 224 0044 BDE87040 		pop	{r4, r5, r6, lr}
 225              		.cfi_restore 14
 226              		.cfi_restore 6
 227              		.cfi_restore 5
 228              		.cfi_restore 4
ARM GAS  C:\Users\DEVELO~1\AppData\Local\Temp\ccOkkO3t.s 			page 5


 229              		.cfi_def_cfa_offset 0
 230              	.LVL16:
 231              		.loc 1 253 3 view .LVU74
 232 0048 FFF7FEBF 		b	chMtxUnlock
 233              	.LVL17:
 234              		.loc 1 253 3 view .LVU75
 235              		.cfi_endproc
 236              	.LFE349:
 237              		.size	chPipeReset, .-chPipeReset
 238              		.section	.text.chPipeWriteTimeout,"ax",%progbits
 239              		.align	1
 240              		.p2align 4,,15
 241              		.global	chPipeWriteTimeout
 242              		.syntax unified
 243              		.thumb
 244              		.thumb_func
 245              		.type	chPipeWriteTimeout, %function
 246              	chPipeWriteTimeout:
 247              	.LVL18:
 248              	.LFB350:
 249              		.loc 1 279 60 is_stmt 1 view -0
 250              		.cfi_startproc
 251              		@ args = 0, pretend = 0, frame = 16
 252              		@ frame_needed = 0, uses_anonymous_args = 0
 253              		.loc 1 280 3 view .LVU77
 254              		.loc 1 279 60 is_stmt 0 view .LVU78
 255 0000 2DE9F04F 		push	{r4, r5, r6, r7, r8, r9, r10, fp, lr}
 256              		.cfi_def_cfa_offset 36
 257              		.cfi_offset 4, -36
 258              		.cfi_offset 5, -32
 259              		.cfi_offset 6, -28
 260              		.cfi_offset 7, -24
 261              		.cfi_offset 8, -20
 262              		.cfi_offset 9, -16
 263              		.cfi_offset 10, -12
 264              		.cfi_offset 11, -8
 265              		.cfi_offset 14, -4
 266 0004 85B0     		sub	sp, sp, #20
 267              		.cfi_def_cfa_offset 56
 268              		.loc 1 279 60 view .LVU79
 269 0006 CDE90132 		strd	r3, r2, [sp, #4]
 270              		.loc 1 285 6 view .LVU80
 271 000a 037D     		ldrb	r3, [r0, #20]	@ zero_extendqisi2
 272              	.LVL19:
 273              		.loc 1 285 6 view .LVU81
 274 000c 2BB1     		cbz	r3, .L25
 275              		.loc 1 286 12 view .LVU82
 276 000e 4FF00008 		mov	r8, #0
 277              		.loc 1 319 1 view .LVU83
 278 0012 4046     		mov	r0, r8
 279              	.LVL20:
 280              		.loc 1 319 1 view .LVU84
 281 0014 05B0     		add	sp, sp, #20
 282              		.cfi_remember_state
 283              		.cfi_def_cfa_offset 36
 284              		@ sp needed
 285 0016 BDE8F08F 		pop	{r4, r5, r6, r7, r8, r9, r10, fp, pc}
ARM GAS  C:\Users\DEVELO~1\AppData\Local\Temp\ccOkkO3t.s 			page 6


 286              	.LVL21:
 287              	.L25:
 288              		.cfi_restore_state
 289              		.loc 1 289 3 is_stmt 1 view .LVU85
 290 001a 00F13003 		add	r3, r0, #48
 291 001e 1446     		mov	r4, r2
 292 0020 0546     		mov	r5, r0
 293 0022 0F46     		mov	r7, r1
 294 0024 1846     		mov	r0, r3
 295              	.LVL22:
 296              		.loc 1 289 3 is_stmt 0 view .LVU86
 297 0026 0393     		str	r3, [sp, #12]
 298 0028 FFF7FEFF 		bl	chMtxLock
 299              	.LVL23:
 300              		.loc 1 291 3 is_stmt 1 view .LVU87
 301              		.loc 1 291 12 view .LVU88
 302 002c 002C     		cmp	r4, #0
 303 002e 43D0     		beq	.L15
 304              	.LBB96:
 305              	.LBB97:
 306              	.LBB98:
 307              		.loc 1 108 3 is_stmt 0 view .LVU89
 308 0030 05F12009 		add	r9, r5, #32
 309 0034 DDF80880 		ldr	r8, [sp, #8]
 310              	.LBE98:
 311              	.LBE97:
 312              		.loc 1 312 7 view .LVU90
 313 0038 05F11C0A 		add	r10, r5, #28
 314              	.LVL24:
 315              	.L16:
 316              		.loc 1 292 5 is_stmt 1 view .LVU91
 317              		.loc 1 294 5 view .LVU92
 318              	.LBB116:
 319              	.LBI97:
 320              		.loc 1 105 15 view .LVU93
 321              	.LBB113:
 322              		.loc 1 106 3 view .LVU94
 323              		.loc 1 108 3 view .LVU95
 324 003c 4846     		mov	r0, r9
 325 003e FFF7FEFF 		bl	chMtxLock
 326              	.LVL25:
 327              		.loc 1 111 3 view .LVU96
 328              	.LBB99:
 329              	.LBI99:
 330              		.file 5 "../../../os/oslib/include/chpipes.h"
 331              		.loc 5 187 22 view .LVU97
 332              	.LBB100:
 333              		.loc 5 189 3 view .LVU98
 334              	.LBB101:
 335              	.LBI101:
 336              		.loc 5 158 22 view .LVU99
 337              	.LBB102:
 338              		.loc 5 162 3 view .LVU100
 339              	.LBE102:
 340              	.LBE101:
 341              	.LBE100:
 342              	.LBE99:
ARM GAS  C:\Users\DEVELO~1\AppData\Local\Temp\ccOkkO3t.s 			page 7


 343              		.loc 1 125 8 view .LVU101
 344              	.LBB110:
 345              	.LBB107:
 346              	.LBB104:
 347              	.LBB105:
 348              		.loc 5 176 12 is_stmt 0 view .LVU102
 349 0042 2B69     		ldr	r3, [r5, #16]
 350              	.LVL26:
 351              		.loc 5 176 12 view .LVU103
 352              	.LBE105:
 353              	.LBE104:
 354              	.LBE107:
 355              	.LBE110:
 356              		.loc 1 118 29 view .LVU104
 357 0044 A868     		ldr	r0, [r5, #8]
 358              	.LBB111:
 359              	.LBB108:
 360              	.LBB106:
 361              	.LBB103:
 362              		.loc 5 162 27 view .LVU105
 363 0046 D5E90046 		ldrd	r4, r6, [r5]
 364 004a 341B     		subs	r4, r6, r4
 365              	.LBE103:
 366              	.LBE106:
 367              	.LBE108:
 368              	.LBE111:
 369              		.loc 1 118 25 view .LVU106
 370 004c 361A     		subs	r6, r6, r0
 371              	.LBB112:
 372              	.LBB109:
 373              		.loc 5 189 28 view .LVU107
 374 004e E41A     		subs	r4, r4, r3
 375 0050 4445     		cmp	r4, r8
 376 0052 28BF     		it	cs
 377 0054 4446     		movcs	r4, r8
 378              	.LVL27:
 379              		.loc 5 189 28 view .LVU108
 380              	.LBE109:
 381              	.LBE112:
 382              		.loc 1 114 3 is_stmt 1 view .LVU109
 383              		.loc 1 114 11 is_stmt 0 view .LVU110
 384 0056 2344     		add	r3, r3, r4
 385              		.loc 1 121 6 view .LVU111
 386 0058 B442     		cmp	r4, r6
 387              		.loc 1 114 11 view .LVU112
 388 005a 2B61     		str	r3, [r5, #16]
 389              		.loc 1 118 3 is_stmt 1 view .LVU113
 390              	.LVL28:
 391              		.loc 1 121 3 view .LVU114
 392              		.loc 1 121 6 is_stmt 0 view .LVU115
 393 005c 3AD3     		bcc	.L26
 394              		.loc 1 126 5 is_stmt 1 view .LVU116
 395              		.loc 1 133 5 view .LVU117
 396              		.loc 1 128 8 is_stmt 0 view .LVU118
 397 005e A4EB060B 		sub	fp, r4, r6
 398              		.loc 1 126 5 view .LVU119
 399 0062 3246     		mov	r2, r6
ARM GAS  C:\Users\DEVELO~1\AppData\Local\Temp\ccOkkO3t.s 			page 8


 400              		.loc 1 133 5 view .LVU120
 401 0064 3946     		mov	r1, r7
 402              		.loc 1 125 11 view .LVU121
 403 0066 30D9     		bls	.L12
 404              		.loc 1 126 5 view .LVU122
 405 0068 FFF7FEFF 		bl	memcpy
 406              	.LVL29:
 407              		.loc 1 127 5 is_stmt 1 view .LVU123
 408              		.loc 1 128 5 view .LVU124
 409              		.loc 1 129 5 view .LVU125
 410 006c 5A46     		mov	r2, fp
 411 006e B919     		adds	r1, r7, r6
 412              	.LVL30:
 413              		.loc 1 129 5 is_stmt 0 view .LVU126
 414 0070 2868     		ldr	r0, [r5]
 415 0072 FFF7FEFF 		bl	memcpy
 416              	.LVL31:
 417              		.loc 1 130 5 is_stmt 1 view .LVU127
 418              		.loc 1 130 28 is_stmt 0 view .LVU128
 419 0076 2A68     		ldr	r2, [r5]
 420 0078 5A44     		add	r2, r2, fp
 421              	.LVL32:
 422              	.L11:
 423              		.loc 1 137 3 view .LVU129
 424 007a 4846     		mov	r0, r9
 425              		.loc 1 123 15 view .LVU130
 426 007c AA60     		str	r2, [r5, #8]
 427              		.loc 1 137 3 is_stmt 1 view .LVU131
 428 007e FFF7FEFF 		bl	chMtxUnlock
 429              	.LVL33:
 430              		.loc 1 139 3 view .LVU132
 431              		.loc 1 139 3 is_stmt 0 view .LVU133
 432              	.LBE113:
 433              	.LBE116:
 434              		.loc 1 295 5 is_stmt 1 view .LVU134
 435              	.LBB117:
 436              		.loc 1 296 7 view .LVU135
 437              		.loc 1 298 7 view .LVU136
 438              	.LBB118:
 439              	.LBI118:
 440              		.loc 2 407 20 view .LVU137
 441              		.loc 2 409 3 view .LVU138
 442              	.LBB119:
 443              	.LBI119:
 444              		.loc 3 806 27 view .LVU139
 445              		.loc 3 814 3 view .LVU140
 446              	.LBB120:
 447              	.LBI120:
 448              		.loc 4 491 27 view .LVU141
 449              	.LBB121:
 450              		.loc 4 493 3 view .LVU142
 451              	.LBE121:
 452              	.LBE120:
 453              	.LBE119:
 454              	.LBE118:
 455              	.LBE117:
 456              		.loc 1 308 7 view .LVU143
ARM GAS  C:\Users\DEVELO~1\AppData\Local\Temp\ccOkkO3t.s 			page 9


 457              		.loc 1 312 7 is_stmt 0 view .LVU144
 458 0082 0021     		movs	r1, #0
 459 0084 5046     		mov	r0, r10
 460              		.loc 1 295 8 view .LVU145
 461 0086 7CB9     		cbnz	r4, .L13
 462              	.LBB131:
 463              	.LBB125:
 464              	.LBB124:
 465              	.LBB123:
 466              	.LBB122:
 467              		.loc 4 493 3 view .LVU146
 468 0088 3023     		movs	r3, #48
 469              		.syntax unified
 470              	@ 493 "../../../os/common/ext/ARM/CMSIS/Core/Include/cmsis_gcc.h" 1
 471 008a 83F31188 		MSR basepri, r3
 472              	@ 0 "" 2
 473              	.LVL34:
 474              		.loc 4 493 3 view .LVU147
 475              		.thumb
 476              		.syntax unified
 477              	.LBE122:
 478              	.LBE123:
 479              	.LBE124:
 480              		.loc 2 410 35 is_stmt 1 view .LVU148
 481              		.loc 2 411 21 view .LVU149
 482              	.LBE125:
 483              		.loc 1 299 7 view .LVU150
 484              		.loc 1 299 13 is_stmt 0 view .LVU151
 485 008e 0199     		ldr	r1, [sp, #4]
 486 0090 05F11800 		add	r0, r5, #24
 487 0094 FFF7FEFF 		bl	chThdSuspendTimeoutS
 488              	.LVL35:
 489              		.loc 1 300 7 is_stmt 1 view .LVU152
 490              	.LBB126:
 491              	.LBI126:
 492              		.loc 2 421 20 view .LVU153
 493              	.LBB127:
 494              		.loc 2 423 23 view .LVU154
 495              		.loc 2 424 34 view .LVU155
 496              		.loc 2 430 3 view .LVU156
 497              		.loc 2 430 3 view .LVU157
 498              		.loc 2 430 3 view .LVU158
 499              		.loc 2 434 3 view .LVU159
 500              	.LBB128:
 501              	.LBI128:
 502              		.loc 3 830 27 view .LVU160
 503              		.loc 3 833 3 view .LVU161
 504              	.LBB129:
 505              	.LBI129:
 506              		.loc 4 491 27 view .LVU162
 507              	.LBB130:
 508              		.loc 4 493 3 view .LVU163
 509              		.syntax unified
 510              	@ 493 "../../../os/common/ext/ARM/CMSIS/Core/Include/cmsis_gcc.h" 1
 511 0098 84F31188 		MSR basepri, r4
 512              	@ 0 "" 2
 513              	.LVL36:
ARM GAS  C:\Users\DEVELO~1\AppData\Local\Temp\ccOkkO3t.s 			page 10


 514              		.loc 4 493 3 is_stmt 0 view .LVU164
 515              		.thumb
 516              		.syntax unified
 517              	.LBE130:
 518              	.LBE129:
 519              	.LBE128:
 520              	.LBE127:
 521              	.LBE126:
 522              		.loc 1 303 7 is_stmt 1 view .LVU165
 523              		.loc 1 303 10 is_stmt 0 view .LVU166
 524 009c 0028     		cmp	r0, #0
 525 009e CDD0     		beq	.L16
 526              	.LBE131:
 527              	.LBE96:
 528              		.loc 1 318 14 view .LVU167
 529 00a0 029B     		ldr	r3, [sp, #8]
 530 00a2 A3EB0808 		sub	r8, r3, r8
 531              	.LVL37:
 532              		.loc 1 318 14 view .LVU168
 533 00a6 09E0     		b	.L9
 534              	.LVL38:
 535              	.L13:
 536              	.LBB134:
 537              		.loc 1 308 10 view .LVU169
 538 00a8 A8EB0408 		sub	r8, r8, r4
 539              	.LVL39:
 540              		.loc 1 309 7 is_stmt 1 view .LVU170
 541              		.loc 1 309 10 is_stmt 0 view .LVU171
 542 00ac 2744     		add	r7, r7, r4
 543              	.LVL40:
 544              		.loc 1 312 7 is_stmt 1 view .LVU172
 545 00ae FFF7FEFF 		bl	chThdResume
 546              	.LVL41:
 547              		.loc 1 312 7 is_stmt 0 view .LVU173
 548              	.LBE134:
 549              		.loc 1 291 12 is_stmt 1 view .LVU174
 550 00b2 B8F1000F 		cmp	r8, #0
 551 00b6 C1D1     		bne	.L16
 552              	.LVL42:
 553              	.L15:
 554              	.LBB135:
 555              	.LBB132:
 556              	.LBB114:
 557              		.loc 1 108 3 is_stmt 0 view .LVU175
 558 00b8 DDF80880 		ldr	r8, [sp, #8]
 559              	.L9:
 560              		.loc 1 108 3 view .LVU176
 561              	.LBE114:
 562              	.LBE132:
 563              	.LBE135:
 564              		.loc 1 316 3 is_stmt 1 view .LVU177
 565 00bc 0398     		ldr	r0, [sp, #12]
 566 00be FFF7FEFF 		bl	chMtxUnlock
 567              	.LVL43:
 568              		.loc 1 318 3 view .LVU178
 569              		.loc 1 319 1 is_stmt 0 view .LVU179
 570 00c2 4046     		mov	r0, r8
ARM GAS  C:\Users\DEVELO~1\AppData\Local\Temp\ccOkkO3t.s 			page 11


 571 00c4 05B0     		add	sp, sp, #20
 572              		.cfi_remember_state
 573              		.cfi_def_cfa_offset 36
 574              		@ sp needed
 575 00c6 BDE8F08F 		pop	{r4, r5, r6, r7, r8, r9, r10, fp, pc}
 576              	.LVL44:
 577              	.L12:
 578              		.cfi_restore_state
 579              	.LBB136:
 580              	.LBB133:
 581              	.LBB115:
 582              		.loc 1 133 5 view .LVU180
 583 00ca 2246     		mov	r2, r4
 584              	.LVL45:
 585              		.loc 1 133 5 view .LVU181
 586 00cc FFF7FEFF 		bl	memcpy
 587              	.LVL46:
 588              		.loc 1 134 5 is_stmt 1 view .LVU182
 589              		.loc 1 134 19 is_stmt 0 view .LVU183
 590 00d0 2A68     		ldr	r2, [r5]
 591 00d2 D2E7     		b	.L11
 592              	.L26:
 593              		.loc 1 122 5 is_stmt 1 view .LVU184
 594 00d4 2246     		mov	r2, r4
 595 00d6 3946     		mov	r1, r7
 596 00d8 FFF7FEFF 		bl	memcpy
 597              	.LVL47:
 598              		.loc 1 123 5 view .LVU185
 599              		.loc 1 123 15 is_stmt 0 view .LVU186
 600 00dc AA68     		ldr	r2, [r5, #8]
 601 00de 2244     		add	r2, r2, r4
 602 00e0 CBE7     		b	.L11
 603              	.LBE115:
 604              	.LBE133:
 605              	.LBE136:
 606              		.cfi_endproc
 607              	.LFE350:
 608              		.size	chPipeWriteTimeout, .-chPipeWriteTimeout
 609 00e2 00BF     		.section	.text.chPipeReadTimeout,"ax",%progbits
 610              		.align	1
 611              		.p2align 4,,15
 612              		.global	chPipeReadTimeout
 613              		.syntax unified
 614              		.thumb
 615              		.thumb_func
 616              		.type	chPipeReadTimeout, %function
 617              	chPipeReadTimeout:
 618              	.LVL48:
 619              	.LFB351:
 620              		.loc 1 344 59 is_stmt 1 view -0
 621              		.cfi_startproc
 622              		@ args = 0, pretend = 0, frame = 16
 623              		@ frame_needed = 0, uses_anonymous_args = 0
 624              		.loc 1 345 3 view .LVU188
 625              		.loc 1 344 59 is_stmt 0 view .LVU189
 626 0000 2DE9F04F 		push	{r4, r5, r6, r7, r8, r9, r10, fp, lr}
 627              		.cfi_def_cfa_offset 36
ARM GAS  C:\Users\DEVELO~1\AppData\Local\Temp\ccOkkO3t.s 			page 12


 628              		.cfi_offset 4, -36
 629              		.cfi_offset 5, -32
 630              		.cfi_offset 6, -28
 631              		.cfi_offset 7, -24
 632              		.cfi_offset 8, -20
 633              		.cfi_offset 9, -16
 634              		.cfi_offset 10, -12
 635              		.cfi_offset 11, -8
 636              		.cfi_offset 14, -4
 637 0004 85B0     		sub	sp, sp, #20
 638              		.cfi_def_cfa_offset 56
 639              		.loc 1 344 59 view .LVU190
 640 0006 CDE90132 		strd	r3, r2, [sp, #4]
 641              		.loc 1 350 6 view .LVU191
 642 000a 037D     		ldrb	r3, [r0, #20]	@ zero_extendqisi2
 643              	.LVL49:
 644              		.loc 1 350 6 view .LVU192
 645 000c 2BB1     		cbz	r3, .L46
 646              		.loc 1 351 12 view .LVU193
 647 000e 4FF00008 		mov	r8, #0
 648              		.loc 1 384 1 view .LVU194
 649 0012 4046     		mov	r0, r8
 650              	.LVL50:
 651              		.loc 1 384 1 view .LVU195
 652 0014 05B0     		add	sp, sp, #20
 653              		.cfi_remember_state
 654              		.cfi_def_cfa_offset 36
 655              		@ sp needed
 656 0016 BDE8F08F 		pop	{r4, r5, r6, r7, r8, r9, r10, fp, pc}
 657              	.LVL51:
 658              	.L46:
 659              		.cfi_restore_state
 660              		.loc 1 354 3 is_stmt 1 view .LVU196
 661 001a 00F14003 		add	r3, r0, #64
 662 001e 1546     		mov	r5, r2
 663 0020 0446     		mov	r4, r0
 664 0022 0F46     		mov	r7, r1
 665 0024 1846     		mov	r0, r3
 666              	.LVL52:
 667              		.loc 1 354 3 is_stmt 0 view .LVU197
 668 0026 0393     		str	r3, [sp, #12]
 669 0028 FFF7FEFF 		bl	chMtxLock
 670              	.LVL53:
 671              		.loc 1 356 3 is_stmt 1 view .LVU198
 672              		.loc 1 356 12 view .LVU199
 673 002c 002D     		cmp	r5, #0
 674 002e 42D0     		beq	.L36
 675              	.LBB152:
 676              	.LBB153:
 677              	.LBB154:
 678              		.loc 1 159 3 is_stmt 0 view .LVU200
 679 0030 04F12009 		add	r9, r4, #32
 680 0034 DDF80880 		ldr	r8, [sp, #8]
 681              	.LBE154:
 682              	.LBE153:
 683              		.loc 1 377 7 view .LVU201
 684 0038 04F1180A 		add	r10, r4, #24
ARM GAS  C:\Users\DEVELO~1\AppData\Local\Temp\ccOkkO3t.s 			page 13


 685              	.LVL54:
 686              	.L37:
 687              		.loc 1 357 5 is_stmt 1 view .LVU202
 688              		.loc 1 359 5 view .LVU203
 689              	.LBB160:
 690              	.LBI153:
 691              		.loc 1 156 15 view .LVU204
 692              	.LBB157:
 693              		.loc 1 157 3 view .LVU205
 694              		.loc 1 159 3 view .LVU206
 695 003c 4846     		mov	r0, r9
 696 003e FFF7FEFF 		bl	chMtxLock
 697              	.LVL55:
 698              		.loc 1 162 3 view .LVU207
 699              	.LBB155:
 700              	.LBI155:
 701              		.loc 5 174 22 view .LVU208
 702              	.LBB156:
 703              		.loc 5 176 3 view .LVU209
 704              	.LBE156:
 705              	.LBE155:
 706              		.loc 1 176 8 view .LVU210
 707              		.loc 1 169 25 is_stmt 0 view .LVU211
 708 0042 6668     		ldr	r6, [r4, #4]
 709              		.loc 1 169 29 view .LVU212
 710 0044 D4E90313 		ldrd	r1, r3, [r4, #12]
 711 0048 4345     		cmp	r3, r8
 712 004a 1D46     		mov	r5, r3
 713              		.loc 1 169 25 view .LVU213
 714 004c A6EB0106 		sub	r6, r6, r1
 715 0050 28BF     		it	cs
 716 0052 4546     		movcs	r5, r8
 717              	.LVL56:
 718              		.loc 1 165 3 is_stmt 1 view .LVU214
 719              		.loc 1 165 11 is_stmt 0 view .LVU215
 720 0054 5B1B     		subs	r3, r3, r5
 721              		.loc 1 172 6 view .LVU216
 722 0056 B542     		cmp	r5, r6
 723              		.loc 1 165 11 view .LVU217
 724 0058 2361     		str	r3, [r4, #16]
 725              		.loc 1 169 3 is_stmt 1 view .LVU218
 726              	.LVL57:
 727              		.loc 1 172 3 view .LVU219
 728              		.loc 1 172 6 is_stmt 0 view .LVU220
 729 005a 3AD3     		bcc	.L47
 730              		.loc 1 177 5 is_stmt 1 view .LVU221
 731              		.loc 1 184 5 view .LVU222
 732              		.loc 1 179 8 is_stmt 0 view .LVU223
 733 005c A5EB060B 		sub	fp, r5, r6
 734              		.loc 1 177 5 view .LVU224
 735 0060 3246     		mov	r2, r6
 736              		.loc 1 184 5 view .LVU225
 737 0062 3846     		mov	r0, r7
 738              		.loc 1 176 11 view .LVU226
 739 0064 30D9     		bls	.L33
 740              		.loc 1 177 5 view .LVU227
 741 0066 FFF7FEFF 		bl	memcpy
ARM GAS  C:\Users\DEVELO~1\AppData\Local\Temp\ccOkkO3t.s 			page 14


 742              	.LVL58:
 743              		.loc 1 178 5 is_stmt 1 view .LVU228
 744              		.loc 1 179 5 view .LVU229
 745              		.loc 1 180 5 view .LVU230
 746 006a 5A46     		mov	r2, fp
 747 006c B819     		adds	r0, r7, r6
 748              	.LVL59:
 749              		.loc 1 180 5 is_stmt 0 view .LVU231
 750 006e 2168     		ldr	r1, [r4]
 751 0070 FFF7FEFF 		bl	memcpy
 752              	.LVL60:
 753              		.loc 1 181 5 is_stmt 1 view .LVU232
 754              		.loc 1 181 28 is_stmt 0 view .LVU233
 755 0074 2268     		ldr	r2, [r4]
 756 0076 5A44     		add	r2, r2, fp
 757              	.LVL61:
 758              	.L32:
 759              		.loc 1 188 3 view .LVU234
 760 0078 4846     		mov	r0, r9
 761              		.loc 1 174 15 view .LVU235
 762 007a E260     		str	r2, [r4, #12]
 763              		.loc 1 188 3 is_stmt 1 view .LVU236
 764 007c FFF7FEFF 		bl	chMtxUnlock
 765              	.LVL62:
 766              		.loc 1 190 3 view .LVU237
 767              		.loc 1 190 3 is_stmt 0 view .LVU238
 768              	.LBE157:
 769              	.LBE160:
 770              		.loc 1 360 5 is_stmt 1 view .LVU239
 771              	.LBB161:
 772              		.loc 1 361 7 view .LVU240
 773              		.loc 1 363 7 view .LVU241
 774              	.LBB162:
 775              	.LBI162:
 776              		.loc 2 407 20 view .LVU242
 777              		.loc 2 409 3 view .LVU243
 778              	.LBB163:
 779              	.LBI163:
 780              		.loc 3 806 27 view .LVU244
 781              		.loc 3 814 3 view .LVU245
 782              	.LBB164:
 783              	.LBI164:
 784              		.loc 4 491 27 view .LVU246
 785              	.LBB165:
 786              		.loc 4 493 3 view .LVU247
 787              	.LBE165:
 788              	.LBE164:
 789              	.LBE163:
 790              	.LBE162:
 791              	.LBE161:
 792              		.loc 1 373 7 view .LVU248
 793              		.loc 1 377 7 is_stmt 0 view .LVU249
 794 0080 0021     		movs	r1, #0
 795 0082 5046     		mov	r0, r10
 796              		.loc 1 360 8 view .LVU250
 797 0084 7DB9     		cbnz	r5, .L34
 798              	.LBB175:
ARM GAS  C:\Users\DEVELO~1\AppData\Local\Temp\ccOkkO3t.s 			page 15


 799              	.LBB169:
 800              	.LBB168:
 801              	.LBB167:
 802              	.LBB166:
 803              		.loc 4 493 3 view .LVU251
 804 0086 3023     		movs	r3, #48
 805              		.syntax unified
 806              	@ 493 "../../../os/common/ext/ARM/CMSIS/Core/Include/cmsis_gcc.h" 1
 807 0088 83F31188 		MSR basepri, r3
 808              	@ 0 "" 2
 809              	.LVL63:
 810              		.loc 4 493 3 view .LVU252
 811              		.thumb
 812              		.syntax unified
 813              	.LBE166:
 814              	.LBE167:
 815              	.LBE168:
 816              		.loc 2 410 35 is_stmt 1 view .LVU253
 817              		.loc 2 411 21 view .LVU254
 818              	.LBE169:
 819              		.loc 1 364 7 view .LVU255
 820              		.loc 1 364 13 is_stmt 0 view .LVU256
 821 008c 0199     		ldr	r1, [sp, #4]
 822 008e 04F11C00 		add	r0, r4, #28
 823 0092 FFF7FEFF 		bl	chThdSuspendTimeoutS
 824              	.LVL64:
 825              		.loc 1 365 7 is_stmt 1 view .LVU257
 826              	.LBB170:
 827              	.LBI170:
 828              		.loc 2 421 20 view .LVU258
 829              	.LBB171:
 830              		.loc 2 423 23 view .LVU259
 831              		.loc 2 424 34 view .LVU260
 832              		.loc 2 430 3 view .LVU261
 833              		.loc 2 430 3 view .LVU262
 834              		.loc 2 430 3 view .LVU263
 835              		.loc 2 434 3 view .LVU264
 836              	.LBB172:
 837              	.LBI172:
 838              		.loc 3 830 27 view .LVU265
 839              		.loc 3 833 3 view .LVU266
 840              	.LBB173:
 841              	.LBI173:
 842              		.loc 4 491 27 view .LVU267
 843              	.LBB174:
 844              		.loc 4 493 3 view .LVU268
 845              		.syntax unified
 846              	@ 493 "../../../os/common/ext/ARM/CMSIS/Core/Include/cmsis_gcc.h" 1
 847 0096 85F31188 		MSR basepri, r5
 848              	@ 0 "" 2
 849              	.LVL65:
 850              		.loc 4 493 3 is_stmt 0 view .LVU269
 851              		.thumb
 852              		.syntax unified
 853              	.LBE174:
 854              	.LBE173:
 855              	.LBE172:
ARM GAS  C:\Users\DEVELO~1\AppData\Local\Temp\ccOkkO3t.s 			page 16


 856              	.LBE171:
 857              	.LBE170:
 858              		.loc 1 368 7 is_stmt 1 view .LVU270
 859              		.loc 1 368 10 is_stmt 0 view .LVU271
 860 009a 0028     		cmp	r0, #0
 861 009c CED0     		beq	.L37
 862              	.LBE175:
 863              	.LBE152:
 864              		.loc 1 383 14 view .LVU272
 865 009e 029B     		ldr	r3, [sp, #8]
 866 00a0 A3EB0808 		sub	r8, r3, r8
 867              	.LVL66:
 868              		.loc 1 383 14 view .LVU273
 869 00a4 09E0     		b	.L30
 870              	.LVL67:
 871              	.L34:
 872              	.LBB178:
 873              		.loc 1 373 10 view .LVU274
 874 00a6 A8EB0508 		sub	r8, r8, r5
 875              	.LVL68:
 876              		.loc 1 374 7 is_stmt 1 view .LVU275
 877              		.loc 1 374 10 is_stmt 0 view .LVU276
 878 00aa 2F44     		add	r7, r7, r5
 879              	.LVL69:
 880              		.loc 1 377 7 is_stmt 1 view .LVU277
 881 00ac FFF7FEFF 		bl	chThdResume
 882              	.LVL70:
 883              		.loc 1 377 7 is_stmt 0 view .LVU278
 884              	.LBE178:
 885              		.loc 1 356 12 is_stmt 1 view .LVU279
 886 00b0 B8F1000F 		cmp	r8, #0
 887 00b4 C2D1     		bne	.L37
 888              	.LVL71:
 889              	.L36:
 890              	.LBB179:
 891              	.LBB176:
 892              	.LBB158:
 893              		.loc 1 159 3 is_stmt 0 view .LVU280
 894 00b6 DDF80880 		ldr	r8, [sp, #8]
 895              	.L30:
 896              		.loc 1 159 3 view .LVU281
 897              	.LBE158:
 898              	.LBE176:
 899              	.LBE179:
 900              		.loc 1 381 3 is_stmt 1 view .LVU282
 901 00ba 0398     		ldr	r0, [sp, #12]
 902 00bc FFF7FEFF 		bl	chMtxUnlock
 903              	.LVL72:
 904              		.loc 1 383 3 view .LVU283
 905              		.loc 1 384 1 is_stmt 0 view .LVU284
 906 00c0 4046     		mov	r0, r8
 907 00c2 05B0     		add	sp, sp, #20
 908              		.cfi_remember_state
 909              		.cfi_def_cfa_offset 36
 910              		@ sp needed
 911 00c4 BDE8F08F 		pop	{r4, r5, r6, r7, r8, r9, r10, fp, pc}
 912              	.LVL73:
ARM GAS  C:\Users\DEVELO~1\AppData\Local\Temp\ccOkkO3t.s 			page 17


 913              	.L33:
 914              		.cfi_restore_state
 915              	.LBB180:
 916              	.LBB177:
 917              	.LBB159:
 918              		.loc 1 184 5 view .LVU285
 919 00c8 2A46     		mov	r2, r5
 920              	.LVL74:
 921              		.loc 1 184 5 view .LVU286
 922 00ca FFF7FEFF 		bl	memcpy
 923              	.LVL75:
 924              		.loc 1 185 5 is_stmt 1 view .LVU287
 925              		.loc 1 185 19 is_stmt 0 view .LVU288
 926 00ce 2268     		ldr	r2, [r4]
 927 00d0 D2E7     		b	.L32
 928              	.L47:
 929              		.loc 1 173 5 is_stmt 1 view .LVU289
 930 00d2 2A46     		mov	r2, r5
 931 00d4 3846     		mov	r0, r7
 932 00d6 FFF7FEFF 		bl	memcpy
 933              	.LVL76:
 934              		.loc 1 174 5 view .LVU290
 935              		.loc 1 174 15 is_stmt 0 view .LVU291
 936 00da E268     		ldr	r2, [r4, #12]
 937 00dc 2A44     		add	r2, r2, r5
 938 00de CBE7     		b	.L32
 939              	.LBE159:
 940              	.LBE177:
 941              	.LBE180:
 942              		.cfi_endproc
 943              	.LFE351:
 944              		.size	chPipeReadTimeout, .-chPipeReadTimeout
 945              		.text
 946              	.Letext0:
 947              		.file 6 "c:\\chibistudio\\tools\\gnu tools arm embedded\\11.3 2022.08\\lib\\gcc\\arm-none-eabi\\11
 948              		.file 7 "c:\\chibistudio\\tools\\gnu tools arm embedded\\11.3 2022.08\\arm-none-eabi\\include\\mac
 949              		.file 8 "c:\\chibistudio\\tools\\gnu tools arm embedded\\11.3 2022.08\\arm-none-eabi\\include\\sys
 950              		.file 9 "../../../os/common/ports/ARM-common/chtypes.h"
 951              		.file 10 "../../../os/rt/include/chearly.h"
 952              		.file 11 "../../../os/rt/include/chobjects.h"
 953              		.file 12 "../../../os/rt/include/chrfcu.h"
 954              		.file 13 "../../../os/rt/include/chdebug.h"
 955              		.file 14 "../../../os/rt/include/chtime.h"
 956              		.file 15 "../../../os/rt/include/chlists.h"
 957              		.file 16 "../../../os/rt/include/chtrace.h"
 958              		.file 17 "../../../os/rt/include/chsem.h"
 959              		.file 18 "../../../os/rt/include/chmtx.h"
 960              		.file 19 "c:\\chibistudio\\tools\\gnu tools arm embedded\\11.3 2022.08\\arm-none-eabi\\include\\st
 961              		.file 20 "../../../os/rt/include/chthreads.h"
 962              		.file 21 "../../../os/rt/include/chschd.h"
 963              		.file 22 "<built-in>"