ARM GAS  C:\Users\DEVELO~1\AppData\Local\Temp\cc93bAhO.s 			page 1


   1              		.cpu cortex-m7
   2              		.arch armv7e-m
   3              		.fpu softvfp
   4              		.eabi_attribute 20, 1
   5              		.eabi_attribute 21, 1
   6              		.eabi_attribute 23, 3
   7              		.eabi_attribute 24, 1
   8              		.eabi_attribute 25, 1
   9              		.eabi_attribute 26, 1
  10              		.eabi_attribute 30, 2
  11              		.eabi_attribute 34, 1
  12              		.eabi_attribute 18, 4
  13              		.file	"chregistry.c"
  14              		.text
  15              	.Ltext0:
  16              		.cfi_sections	.debug_frame
  17              		.section	.text.chRegFirstThread,"ax",%progbits
  18              		.align	1
  19              		.p2align 4,,15
  20              		.global	chRegFirstThread
  21              		.syntax unified
  22              		.thumb
  23              		.thumb_func
  24              		.type	chRegFirstThread, %function
  25              	chRegFirstThread:
  26              	.LFB346:
  27              		.file 1 "../../../os/rt/src/chregistry.c"
  28              		.loc 1 159 34 view -0
  29              		.cfi_startproc
  30              		@ args = 0, pretend = 0, frame = 0
  31              		@ frame_needed = 0, uses_anonymous_args = 0
  32              		@ link register save eliminated.
  33              		.loc 1 160 3 view .LVU1
  34              		.loc 1 161 3 view .LVU2
  35              		.loc 1 163 3 view .LVU3
  36              	.LBB72:
  37              	.LBI72:
  38              		.file 2 "../../../os/rt/include/chsys.h"
  39              		.loc 2 407 20 view .LVU4
  40              		.loc 2 409 3 view .LVU5
  41              	.LBB73:
  42              	.LBI73:
  43              		.file 3 "../../../os/common/ports/ARMv7-M/chcore.h"
  44              		.loc 3 806 27 view .LVU6
  45              		.loc 3 814 3 view .LVU7
  46              	.LVL0:
  47              	.LBB74:
  48              	.LBI74:
  49              		.file 4 "../../../os/common/ext/ARM/CMSIS/Core/Include/cmsis_gcc.h"
  50              		.loc 4 491 27 view .LVU8
  51              	.LBB75:
  52              		.loc 4 493 3 view .LVU9
  53 0000 3023     		movs	r3, #48
  54              		.syntax unified
  55              	@ 493 "../../../os/common/ext/ARM/CMSIS/Core/Include/cmsis_gcc.h" 1
  56 0002 83F31188 		MSR basepri, r3
  57              	@ 0 "" 2
ARM GAS  C:\Users\DEVELO~1\AppData\Local\Temp\cc93bAhO.s 			page 2


  58              	.LVL1:
  59              		.loc 4 493 3 is_stmt 0 view .LVU10
  60              		.thumb
  61              		.syntax unified
  62              	.LBE75:
  63              	.LBE74:
  64              	.LBE73:
  65              		.loc 2 410 35 is_stmt 1 view .LVU11
  66              		.loc 2 411 21 view .LVU12
  67              	.LBE72:
  68              		.loc 1 164 3 view .LVU13
  69              		.loc 1 164 5 is_stmt 0 view .LVU14
  70 0006 054B     		ldr	r3, .L3
  71              	.LBB76:
  72              	.LBB77:
  73              	.LBB78:
  74              	.LBB79:
  75              	.LBB80:
  76              		.loc 4 493 3 view .LVU15
  77 0008 0022     		movs	r2, #0
  78              	.LBE80:
  79              	.LBE79:
  80              	.LBE78:
  81              	.LBE77:
  82              	.LBE76:
  83              		.loc 1 164 5 view .LVU16
  84 000a 986A     		ldr	r0, [r3, #40]
  85              	.LVL2:
  86              		.loc 1 166 3 is_stmt 1 view .LVU17
  87              		.loc 1 169 3 view .LVU18
  88              		.loc 1 169 11 is_stmt 0 view .LVU19
  89 000c 837D     		ldrb	r3, [r0, #22]	@ zero_extendqisi2
  90 000e 0133     		adds	r3, r3, #1
  91 0010 8375     		strb	r3, [r0, #22]
  92              		.loc 1 171 3 is_stmt 1 view .LVU20
  93              	.LBB85:
  94              	.LBI76:
  95              		.loc 2 421 20 view .LVU21
  96              	.LBB84:
  97              		.loc 2 423 23 view .LVU22
  98              		.loc 2 424 34 view .LVU23
  99              		.loc 2 430 3 view .LVU24
 100              		.loc 2 430 3 view .LVU25
 101              		.loc 2 430 3 view .LVU26
 102              		.loc 2 434 3 view .LVU27
 103              	.LBB83:
 104              	.LBI78:
 105              		.loc 3 830 27 view .LVU28
 106              		.loc 3 833 3 view .LVU29
 107              	.LVL3:
 108              	.LBB82:
 109              	.LBI79:
 110              		.loc 4 491 27 view .LVU30
 111              	.LBB81:
 112              		.loc 4 493 3 view .LVU31
 113              		.syntax unified
 114              	@ 493 "../../../os/common/ext/ARM/CMSIS/Core/Include/cmsis_gcc.h" 1
ARM GAS  C:\Users\DEVELO~1\AppData\Local\Temp\cc93bAhO.s 			page 3


 115 0012 82F31188 		MSR basepri, r2
 116              	@ 0 "" 2
 117              	.LVL4:
 118              		.loc 4 493 3 is_stmt 0 view .LVU32
 119              		.thumb
 120              		.syntax unified
 121              	.LBE81:
 122              	.LBE82:
 123              	.LBE83:
 124              	.LBE84:
 125              	.LBE85:
 126              		.loc 1 173 3 is_stmt 1 view .LVU33
 127              		.loc 1 174 1 is_stmt 0 view .LVU34
 128 0016 1038     		subs	r0, r0, #16
 129              	.LVL5:
 130              		.loc 1 174 1 view .LVU35
 131 0018 7047     		bx	lr
 132              	.L4:
 133 001a 00BF     		.align	2
 134              	.L3:
 135 001c 00000000 		.word	ch0
 136              		.cfi_endproc
 137              	.LFE346:
 138              		.size	chRegFirstThread, .-chRegFirstThread
 139              		.section	.text.chRegNextThread,"ax",%progbits
 140              		.align	1
 141              		.p2align 4,,15
 142              		.global	chRegNextThread
 143              		.syntax unified
 144              		.thumb
 145              		.thumb_func
 146              		.type	chRegNextThread, %function
 147              	chRegNextThread:
 148              	.LVL6:
 149              	.LFB347:
 150              		.loc 1 187 41 is_stmt 1 view -0
 151              		.cfi_startproc
 152              		@ args = 0, pretend = 0, frame = 0
 153              		@ frame_needed = 0, uses_anonymous_args = 0
 154              		.loc 1 188 3 view .LVU37
 155              		.loc 1 189 3 view .LVU38
 156              		.loc 1 191 3 view .LVU39
 157              	.LBB96:
 158              	.LBI96:
 159              		.loc 2 407 20 view .LVU40
 160              		.loc 2 409 3 view .LVU41
 161              	.LBB97:
 162              	.LBI97:
 163              		.loc 3 806 27 view .LVU42
 164              		.loc 3 814 3 view .LVU43
 165              	.LBB98:
 166              	.LBI98:
 167              		.loc 4 491 27 view .LVU44
 168              	.LBB99:
 169              		.loc 4 493 3 view .LVU45
 170 0000 3023     		movs	r3, #48
 171              	.LBE99:
ARM GAS  C:\Users\DEVELO~1\AppData\Local\Temp\cc93bAhO.s 			page 4


 172              	.LBE98:
 173              	.LBE97:
 174              	.LBE96:
 175              		.loc 1 187 41 is_stmt 0 view .LVU46
 176 0002 10B5     		push	{r4, lr}
 177              		.cfi_def_cfa_offset 8
 178              		.cfi_offset 4, -8
 179              		.cfi_offset 14, -4
 180              	.LBB103:
 181              	.LBB102:
 182              	.LBB101:
 183              	.LBB100:
 184              		.loc 4 493 3 view .LVU47
 185              		.syntax unified
 186              	@ 493 "../../../os/common/ext/ARM/CMSIS/Core/Include/cmsis_gcc.h" 1
 187 0004 83F31188 		MSR basepri, r3
 188              	@ 0 "" 2
 189              	.LVL7:
 190              		.loc 4 493 3 view .LVU48
 191              		.thumb
 192              		.syntax unified
 193              	.LBE100:
 194              	.LBE101:
 195              	.LBE102:
 196              		.loc 2 410 35 is_stmt 1 view .LVU49
 197              		.loc 2 411 21 view .LVU50
 198              	.LBE103:
 199              		.loc 1 194 3 view .LVU51
 200              		.loc 1 195 6 is_stmt 0 view .LVU52
 201 0008 0B4A     		ldr	r2, .L9
 202              		.loc 1 194 7 view .LVU53
 203 000a 0369     		ldr	r3, [r0, #16]
 204              	.LVL8:
 205              		.loc 1 195 3 is_stmt 1 view .LVU54
 206              		.loc 1 195 6 is_stmt 0 view .LVU55
 207 000c 9342     		cmp	r3, r2
 208 000e 0BD0     		beq	.L7
 209              	.LBB104:
 210              		.loc 1 199 5 is_stmt 1 view .LVU56
 211              	.LVL9:
 212              		.loc 1 201 5 view .LVU57
 213              		.loc 1 207 14 is_stmt 0 view .LVU58
 214 0010 9A7D     		ldrb	r2, [r3, #22]	@ zero_extendqisi2
 215              		.loc 1 201 9 view .LVU59
 216 0012 A3F11004 		sub	r4, r3, #16
 217              	.LVL10:
 218              		.loc 1 205 5 is_stmt 1 view .LVU60
 219              		.loc 1 205 5 view .LVU61
 220              		.loc 1 205 5 view .LVU62
 221              		.loc 1 207 5 view .LVU63
 222              		.loc 1 207 14 is_stmt 0 view .LVU64
 223 0016 0132     		adds	r2, r2, #1
 224 0018 9A75     		strb	r2, [r3, #22]
 225              		.loc 1 207 14 view .LVU65
 226              	.LBE104:
 227              		.loc 1 210 3 is_stmt 1 view .LVU66
 228              	.LBB105:
ARM GAS  C:\Users\DEVELO~1\AppData\Local\Temp\cc93bAhO.s 			page 5


 229              	.LBI105:
 230              		.loc 2 421 20 view .LVU67
 231              	.LBB106:
 232              		.loc 2 423 23 view .LVU68
 233              		.loc 2 424 34 view .LVU69
 234              		.loc 2 430 3 view .LVU70
 235              		.loc 2 430 3 view .LVU71
 236              		.loc 2 430 3 view .LVU72
 237              		.loc 2 434 3 view .LVU73
 238              	.LBB107:
 239              	.LBI107:
 240              		.loc 3 830 27 view .LVU74
 241              		.loc 3 833 3 view .LVU75
 242              	.LVL11:
 243              	.LBB108:
 244              	.LBI108:
 245              		.loc 4 491 27 view .LVU76
 246              	.LBB109:
 247              		.loc 4 493 3 view .LVU77
 248 001a 0023     		movs	r3, #0
 249              	.LVL12:
 250              		.loc 4 493 3 is_stmt 0 view .LVU78
 251              		.syntax unified
 252              	@ 493 "../../../os/common/ext/ARM/CMSIS/Core/Include/cmsis_gcc.h" 1
 253 001c 83F31188 		MSR basepri, r3
 254              	@ 0 "" 2
 255              	.LVL13:
 256              		.loc 4 493 3 view .LVU79
 257              		.thumb
 258              		.syntax unified
 259              	.LBE109:
 260              	.LBE108:
 261              	.LBE107:
 262              	.LBE106:
 263              	.LBE105:
 264              		.loc 1 212 3 is_stmt 1 view .LVU80
 265 0020 FFF7FEFF 		bl	chThdRelease
 266              	.LVL14:
 267              		.loc 1 215 3 view .LVU81
 268              		.loc 1 216 1 is_stmt 0 view .LVU82
 269 0024 2046     		mov	r0, r4
 270 0026 10BD     		pop	{r4, pc}
 271              	.LVL15:
 272              	.L7:
 273              		.loc 1 196 9 view .LVU83
 274 0028 0024     		movs	r4, #0
 275              	.LVL16:
 276              		.loc 1 210 3 is_stmt 1 view .LVU84
 277              	.LBB114:
 278              		.loc 2 421 20 view .LVU85
 279              	.LBB113:
 280              		.loc 2 423 23 view .LVU86
 281              		.loc 2 424 34 view .LVU87
 282              		.loc 2 430 3 view .LVU88
 283              		.loc 2 430 3 view .LVU89
 284              		.loc 2 430 3 view .LVU90
 285              		.loc 2 434 3 view .LVU91
ARM GAS  C:\Users\DEVELO~1\AppData\Local\Temp\cc93bAhO.s 			page 6


 286              	.LBB112:
 287              		.loc 3 830 27 view .LVU92
 288              		.loc 3 833 3 view .LVU93
 289              	.LBB111:
 290              		.loc 4 491 27 view .LVU94
 291              	.LBB110:
 292              		.loc 4 493 3 view .LVU95
 293 002a 0023     		movs	r3, #0
 294              	.LVL17:
 295              		.loc 4 493 3 is_stmt 0 view .LVU96
 296              		.syntax unified
 297              	@ 493 "../../../os/common/ext/ARM/CMSIS/Core/Include/cmsis_gcc.h" 1
 298 002c 83F31188 		MSR basepri, r3
 299              	@ 0 "" 2
 300              	.LVL18:
 301              		.loc 4 493 3 view .LVU97
 302              		.thumb
 303              		.syntax unified
 304              	.LBE110:
 305              	.LBE111:
 306              	.LBE112:
 307              	.LBE113:
 308              	.LBE114:
 309              		.loc 1 212 3 is_stmt 1 view .LVU98
 310 0030 FFF7FEFF 		bl	chThdRelease
 311              	.LVL19:
 312              		.loc 1 215 3 view .LVU99
 313              		.loc 1 216 1 is_stmt 0 view .LVU100
 314 0034 2046     		mov	r0, r4
 315 0036 10BD     		pop	{r4, pc}
 316              	.LVL20:
 317              	.L10:
 318              		.loc 1 216 1 view .LVU101
 319              		.align	2
 320              	.L9:
 321 0038 28000000 		.word	ch0+40
 322              		.cfi_endproc
 323              	.LFE347:
 324              		.size	chRegNextThread, .-chRegNextThread
 325              		.section	.text.chRegFindThreadByName,"ax",%progbits
 326              		.align	1
 327              		.p2align 4,,15
 328              		.global	chRegFindThreadByName
 329              		.syntax unified
 330              		.thumb
 331              		.thumb_func
 332              		.type	chRegFindThreadByName, %function
 333              	chRegFindThreadByName:
 334              	.LVL21:
 335              	.LFB348:
 336              		.loc 1 230 51 is_stmt 1 view -0
 337              		.cfi_startproc
 338              		@ args = 0, pretend = 0, frame = 0
 339              		@ frame_needed = 0, uses_anonymous_args = 0
 340              		.loc 1 231 3 view .LVU103
 341              		.loc 1 234 3 view .LVU104
 342              	.LBB140:
ARM GAS  C:\Users\DEVELO~1\AppData\Local\Temp\cc93bAhO.s 			page 7


 343              	.LBI140:
 344              		.loc 1 159 11 view .LVU105
 345              	.LBB141:
 346              		.loc 1 160 3 view .LVU106
 347              		.loc 1 161 3 view .LVU107
 348              		.loc 1 163 3 view .LVU108
 349              	.LBB142:
 350              	.LBI142:
 351              		.loc 2 407 20 view .LVU109
 352              		.loc 2 409 3 view .LVU110
 353              	.LBB143:
 354              	.LBI143:
 355              		.loc 3 806 27 view .LVU111
 356              		.loc 3 814 3 view .LVU112
 357              	.LBB144:
 358              	.LBI144:
 359              		.loc 4 491 27 view .LVU113
 360              	.LBB145:
 361              		.loc 4 493 3 view .LVU114
 362              	.LBE145:
 363              	.LBE144:
 364              	.LBE143:
 365              	.LBE142:
 366              	.LBE141:
 367              	.LBE140:
 368              		.loc 1 230 51 is_stmt 0 view .LVU115
 369 0000 2DE9F041 		push	{r4, r5, r6, r7, r8, lr}
 370              		.cfi_def_cfa_offset 24
 371              		.cfi_offset 4, -24
 372              		.cfi_offset 5, -20
 373              		.cfi_offset 6, -16
 374              		.cfi_offset 7, -12
 375              		.cfi_offset 8, -8
 376              		.cfi_offset 14, -4
 377              	.LBB166:
 378              	.LBB164:
 379              	.LBB152:
 380              	.LBB150:
 381              	.LBB148:
 382              	.LBB146:
 383              		.loc 4 493 3 view .LVU116
 384 0004 3025     		movs	r5, #48
 385              	.LBE146:
 386              	.LBE148:
 387              	.LBE150:
 388              	.LBE152:
 389              	.LBE164:
 390              	.LBE166:
 391              		.loc 1 230 51 view .LVU117
 392 0006 0646     		mov	r6, r0
 393              	.LBB167:
 394              	.LBB165:
 395              	.LBB153:
 396              	.LBB151:
 397              	.LBB149:
 398              	.LBB147:
 399              		.loc 4 493 3 view .LVU118
ARM GAS  C:\Users\DEVELO~1\AppData\Local\Temp\cc93bAhO.s 			page 8


 400              		.syntax unified
 401              	@ 493 "../../../os/common/ext/ARM/CMSIS/Core/Include/cmsis_gcc.h" 1
 402 0008 85F31188 		MSR basepri, r5
 403              	@ 0 "" 2
 404              	.LVL22:
 405              		.loc 4 493 3 view .LVU119
 406              		.thumb
 407              		.syntax unified
 408              	.LBE147:
 409              	.LBE149:
 410              	.LBE151:
 411              		.loc 2 410 35 is_stmt 1 view .LVU120
 412              		.loc 2 411 21 view .LVU121
 413              	.LBE153:
 414              		.loc 1 164 3 view .LVU122
 415              		.loc 1 164 5 is_stmt 0 view .LVU123
 416 000c 154F     		ldr	r7, .L19
 417              	.LBB154:
 418              	.LBB155:
 419              	.LBB156:
 420              	.LBB157:
 421              	.LBB158:
 422              		.loc 4 493 3 view .LVU124
 423 000e 4FF00008 		mov	r8, #0
 424              	.LBE158:
 425              	.LBE157:
 426              	.LBE156:
 427              	.LBE155:
 428              	.LBE154:
 429              		.loc 1 164 5 view .LVU125
 430 0012 57F8283F 		ldr	r3, [r7, #40]!
 431              	.LVL23:
 432              		.loc 1 166 3 is_stmt 1 view .LVU126
 433              		.loc 1 169 11 is_stmt 0 view .LVU127
 434 0016 9A7D     		ldrb	r2, [r3, #22]	@ zero_extendqisi2
 435              		.loc 1 166 6 view .LVU128
 436 0018 A3F11004 		sub	r4, r3, #16
 437              	.LVL24:
 438              		.loc 1 169 3 is_stmt 1 view .LVU129
 439              		.loc 1 169 11 is_stmt 0 view .LVU130
 440 001c 0132     		adds	r2, r2, #1
 441 001e 9A75     		strb	r2, [r3, #22]
 442              		.loc 1 171 3 is_stmt 1 view .LVU131
 443              	.LBB163:
 444              	.LBI154:
 445              		.loc 2 421 20 view .LVU132
 446              	.LBB162:
 447              		.loc 2 423 23 view .LVU133
 448              		.loc 2 424 34 view .LVU134
 449              		.loc 2 430 3 view .LVU135
 450              		.loc 2 430 3 view .LVU136
 451              		.loc 2 430 3 view .LVU137
 452              		.loc 2 434 3 view .LVU138
 453              	.LBB161:
 454              	.LBI156:
 455              		.loc 3 830 27 view .LVU139
 456              		.loc 3 833 3 view .LVU140
ARM GAS  C:\Users\DEVELO~1\AppData\Local\Temp\cc93bAhO.s 			page 9


 457              	.LVL25:
 458              	.LBB160:
 459              	.LBI157:
 460              		.loc 4 491 27 view .LVU141
 461              	.LBB159:
 462              		.loc 4 493 3 view .LVU142
 463              		.syntax unified
 464              	@ 493 "../../../os/common/ext/ARM/CMSIS/Core/Include/cmsis_gcc.h" 1
 465 0020 88F31188 		MSR basepri, r8
 466              	@ 0 "" 2
 467              	.LVL26:
 468              		.loc 4 493 3 is_stmt 0 view .LVU143
 469              		.thumb
 470              		.syntax unified
 471              	.LBE159:
 472              	.LBE160:
 473              	.LBE161:
 474              	.LBE162:
 475              	.LBE163:
 476              		.loc 1 173 3 is_stmt 1 view .LVU144
 477              		.loc 1 173 3 is_stmt 0 view .LVU145
 478 0024 08E0     		b	.L14
 479              	.LVL27:
 480              	.L13:
 481              		.loc 1 173 3 view .LVU146
 482              	.LBE165:
 483              	.LBE167:
 484              	.LBB168:
 485              	.LBB169:
 486              	.LBB170:
 487              		.loc 1 207 14 view .LVU147
 488 0026 9A7D     		ldrb	r2, [r3, #22]	@ zero_extendqisi2
 489 0028 0132     		adds	r2, r2, #1
 490 002a 9A75     		strb	r2, [r3, #22]
 491              		.loc 1 207 14 view .LVU148
 492              	.LBE170:
 493              		.loc 1 210 3 is_stmt 1 view .LVU149
 494              	.LBB171:
 495              	.LBI171:
 496              		.loc 2 421 20 view .LVU150
 497              	.LBB172:
 498              		.loc 2 423 23 view .LVU151
 499              		.loc 2 424 34 view .LVU152
 500              		.loc 2 430 3 view .LVU153
 501              		.loc 2 430 3 view .LVU154
 502              		.loc 2 430 3 view .LVU155
 503              		.loc 2 434 3 view .LVU156
 504              	.LBB173:
 505              	.LBI173:
 506              		.loc 3 830 27 view .LVU157
 507              		.loc 3 833 3 view .LVU158
 508              	.LVL28:
 509              	.LBB174:
 510              	.LBI174:
 511              		.loc 4 491 27 view .LVU159
 512              	.LBB175:
 513              		.loc 4 493 3 view .LVU160
ARM GAS  C:\Users\DEVELO~1\AppData\Local\Temp\cc93bAhO.s 			page 10


 514              		.syntax unified
 515              	@ 493 "../../../os/common/ext/ARM/CMSIS/Core/Include/cmsis_gcc.h" 1
 516 002c 88F31188 		MSR basepri, r8
 517              	@ 0 "" 2
 518              	.LVL29:
 519              		.loc 4 493 3 is_stmt 0 view .LVU161
 520              		.thumb
 521              		.syntax unified
 522              	.LBE175:
 523              	.LBE174:
 524              	.LBE173:
 525              	.LBE172:
 526              	.LBE171:
 527              		.loc 1 212 3 is_stmt 1 view .LVU162
 528 0030 2046     		mov	r0, r4
 529 0032 0C46     		mov	r4, r1
 530              	.LVL30:
 531              		.loc 1 212 3 is_stmt 0 view .LVU163
 532 0034 FFF7FEFF 		bl	chThdRelease
 533              	.LVL31:
 534              		.loc 1 215 3 is_stmt 1 view .LVU164
 535              		.loc 1 215 3 is_stmt 0 view .LVU165
 536              	.LBE169:
 537              	.LBE168:
 538              		.loc 1 240 16 is_stmt 1 view .LVU166
 539              	.L14:
 540              		.loc 1 235 3 view .LVU167
 541              		.loc 1 236 5 view .LVU168
 542              	.LBB195:
 543              	.LBI195:
 544              		.file 5 "../../../os/rt/include/chregistry.h"
 545              		.loc 5 185 27 view .LVU169
 546              	.LBB196:
 547              		.loc 5 188 3 view .LVU170
 548              		.loc 5 188 3 is_stmt 0 view .LVU171
 549              	.LBE196:
 550              	.LBE195:
 551              		.loc 1 236 9 view .LVU172
 552 0038 3146     		mov	r1, r6
 553 003a E069     		ldr	r0, [r4, #28]
 554 003c FFF7FEFF 		bl	strcmp
 555              	.LVL32:
 556              		.loc 1 239 5 is_stmt 1 view .LVU173
 557              	.LBB197:
 558              	.LBI168:
 559              		.loc 1 187 11 view .LVU174
 560              	.LBB192:
 561              		.loc 1 188 3 view .LVU175
 562              		.loc 1 189 3 view .LVU176
 563              		.loc 1 191 3 view .LVU177
 564              	.LBB180:
 565              	.LBI180:
 566              		.loc 2 407 20 view .LVU178
 567              		.loc 2 409 3 view .LVU179
 568              	.LBB181:
 569              	.LBI181:
 570              		.loc 3 806 27 view .LVU180
ARM GAS  C:\Users\DEVELO~1\AppData\Local\Temp\cc93bAhO.s 			page 11


 571              		.loc 3 814 3 view .LVU181
 572              	.LBB182:
 573              	.LBI182:
 574              		.loc 4 491 27 view .LVU182
 575              	.LBB183:
 576              		.loc 4 493 3 view .LVU183
 577              	.LBE183:
 578              	.LBE182:
 579              	.LBE181:
 580              	.LBE180:
 581              	.LBE192:
 582              	.LBE197:
 583              		.loc 1 236 8 is_stmt 0 view .LVU184
 584 0040 68B1     		cbz	r0, .L11
 585              	.LBB198:
 586              	.LBB193:
 587              	.LBB187:
 588              	.LBB186:
 589              	.LBB185:
 590              	.LBB184:
 591              		.loc 4 493 3 view .LVU185
 592              		.syntax unified
 593              	@ 493 "../../../os/common/ext/ARM/CMSIS/Core/Include/cmsis_gcc.h" 1
 594 0042 85F31188 		MSR basepri, r5
 595              	@ 0 "" 2
 596              	.LVL33:
 597              		.loc 4 493 3 view .LVU186
 598              		.thumb
 599              		.syntax unified
 600              	.LBE184:
 601              	.LBE185:
 602              	.LBE186:
 603              		.loc 2 410 35 is_stmt 1 view .LVU187
 604              		.loc 2 411 21 view .LVU188
 605              	.LBE187:
 606              		.loc 1 194 3 view .LVU189
 607              	.LBB188:
 608              		.loc 1 199 5 view .LVU190
 609              	.LBE188:
 610              		.loc 1 194 7 is_stmt 0 view .LVU191
 611 0046 2369     		ldr	r3, [r4, #16]
 612              	.LVL34:
 613              		.loc 1 195 3 is_stmt 1 view .LVU192
 614              	.LBB189:
 615              		.loc 1 201 5 view .LVU193
 616              	.LBE189:
 617              		.loc 1 195 6 is_stmt 0 view .LVU194
 618 0048 BB42     		cmp	r3, r7
 619              	.LBB190:
 620              		.loc 1 201 9 view .LVU195
 621 004a A3F11001 		sub	r1, r3, #16
 622              	.LVL35:
 623              		.loc 1 205 5 is_stmt 1 view .LVU196
 624              		.loc 1 205 5 view .LVU197
 625              		.loc 1 205 5 view .LVU198
 626              		.loc 1 207 5 view .LVU199
 627              	.LBE190:
ARM GAS  C:\Users\DEVELO~1\AppData\Local\Temp\cc93bAhO.s 			page 12


 628              		.loc 1 195 6 is_stmt 0 view .LVU200
 629 004e EAD1     		bne	.L13
 630              	.LVL36:
 631              		.loc 1 210 3 is_stmt 1 view .LVU201
 632              	.LBB191:
 633              		.loc 2 421 20 view .LVU202
 634              	.LBB179:
 635              		.loc 2 423 23 view .LVU203
 636              		.loc 2 424 34 view .LVU204
 637              		.loc 2 430 3 view .LVU205
 638              		.loc 2 430 3 view .LVU206
 639              		.loc 2 430 3 view .LVU207
 640              		.loc 2 434 3 view .LVU208
 641              	.LBB178:
 642              		.loc 3 830 27 view .LVU209
 643              		.loc 3 833 3 view .LVU210
 644              	.LBB177:
 645              		.loc 4 491 27 view .LVU211
 646              	.LBB176:
 647              		.loc 4 493 3 view .LVU212
 648 0050 0023     		movs	r3, #0
 649              	.LVL37:
 650              		.loc 4 493 3 is_stmt 0 view .LVU213
 651              		.syntax unified
 652              	@ 493 "../../../os/common/ext/ARM/CMSIS/Core/Include/cmsis_gcc.h" 1
 653 0052 83F31188 		MSR basepri, r3
 654              	@ 0 "" 2
 655              	.LVL38:
 656              		.loc 4 493 3 view .LVU214
 657              		.thumb
 658              		.syntax unified
 659              	.LBE176:
 660              	.LBE177:
 661              	.LBE178:
 662              	.LBE179:
 663              	.LBE191:
 664              		.loc 1 212 3 is_stmt 1 view .LVU215
 665 0056 2046     		mov	r0, r4
 666              	.LBE193:
 667              	.LBE198:
 668              		.loc 1 242 10 is_stmt 0 view .LVU216
 669 0058 1C46     		mov	r4, r3
 670              	.LVL39:
 671              	.LBB199:
 672              	.LBB194:
 673              		.loc 1 212 3 view .LVU217
 674 005a FFF7FEFF 		bl	chThdRelease
 675              	.LVL40:
 676              		.loc 1 215 3 is_stmt 1 view .LVU218
 677              		.loc 1 215 3 is_stmt 0 view .LVU219
 678              	.LBE194:
 679              	.LBE199:
 680              		.loc 1 240 16 is_stmt 1 view .LVU220
 681              	.L11:
 682              		.loc 1 243 1 is_stmt 0 view .LVU221
 683 005e 2046     		mov	r0, r4
 684 0060 BDE8F081 		pop	{r4, r5, r6, r7, r8, pc}
ARM GAS  C:\Users\DEVELO~1\AppData\Local\Temp\cc93bAhO.s 			page 13


 685              	.LVL41:
 686              	.L20:
 687              		.loc 1 243 1 view .LVU222
 688              		.align	2
 689              	.L19:
 690 0064 00000000 		.word	ch0
 691              		.cfi_endproc
 692              	.LFE348:
 693              		.size	chRegFindThreadByName, .-chRegFindThreadByName
 694              		.section	.text.chRegFindThreadByPointer,"ax",%progbits
 695              		.align	1
 696              		.p2align 4,,15
 697              		.global	chRegFindThreadByPointer
 698              		.syntax unified
 699              		.thumb
 700              		.thumb_func
 701              		.type	chRegFindThreadByPointer, %function
 702              	chRegFindThreadByPointer:
 703              	.LVL42:
 704              	.LFB349:
 705              		.loc 1 257 50 is_stmt 1 view -0
 706              		.cfi_startproc
 707              		@ args = 0, pretend = 0, frame = 0
 708              		@ frame_needed = 0, uses_anonymous_args = 0
 709              		.loc 1 258 3 view .LVU224
 710              		.loc 1 261 3 view .LVU225
 711              	.LBB223:
 712              	.LBI223:
 713              		.loc 1 159 11 view .LVU226
 714              	.LBB224:
 715              		.loc 1 160 3 view .LVU227
 716              		.loc 1 161 3 view .LVU228
 717              		.loc 1 163 3 view .LVU229
 718              	.LBB225:
 719              	.LBI225:
 720              		.loc 2 407 20 view .LVU230
 721              		.loc 2 409 3 view .LVU231
 722              	.LBB226:
 723              	.LBI226:
 724              		.loc 3 806 27 view .LVU232
 725              		.loc 3 814 3 view .LVU233
 726              	.LBB227:
 727              	.LBI227:
 728              		.loc 4 491 27 view .LVU234
 729              	.LBB228:
 730              		.loc 4 493 3 view .LVU235
 731              	.LBE228:
 732              	.LBE227:
 733              	.LBE226:
 734              	.LBE225:
 735              	.LBE224:
 736              	.LBE223:
 737              		.loc 1 257 50 is_stmt 0 view .LVU236
 738 0000 2DE9F041 		push	{r4, r5, r6, r7, r8, lr}
 739              		.cfi_def_cfa_offset 24
 740              		.cfi_offset 4, -24
 741              		.cfi_offset 5, -20
ARM GAS  C:\Users\DEVELO~1\AppData\Local\Temp\cc93bAhO.s 			page 14


 742              		.cfi_offset 6, -16
 743              		.cfi_offset 7, -12
 744              		.cfi_offset 8, -8
 745              		.cfi_offset 14, -4
 746              	.LBB249:
 747              	.LBB247:
 748              	.LBB235:
 749              	.LBB233:
 750              	.LBB231:
 751              	.LBB229:
 752              		.loc 4 493 3 view .LVU237
 753 0004 3025     		movs	r5, #48
 754              	.LBE229:
 755              	.LBE231:
 756              	.LBE233:
 757              	.LBE235:
 758              	.LBE247:
 759              	.LBE249:
 760              		.loc 1 257 50 view .LVU238
 761 0006 0746     		mov	r7, r0
 762              	.LBB250:
 763              	.LBB248:
 764              	.LBB236:
 765              	.LBB234:
 766              	.LBB232:
 767              	.LBB230:
 768              		.loc 4 493 3 view .LVU239
 769              		.syntax unified
 770              	@ 493 "../../../os/common/ext/ARM/CMSIS/Core/Include/cmsis_gcc.h" 1
 771 0008 85F31188 		MSR basepri, r5
 772              	@ 0 "" 2
 773              	.LVL43:
 774              		.loc 4 493 3 view .LVU240
 775              		.thumb
 776              		.syntax unified
 777              	.LBE230:
 778              	.LBE232:
 779              	.LBE234:
 780              		.loc 2 410 35 is_stmt 1 view .LVU241
 781              		.loc 2 411 21 view .LVU242
 782              	.LBE236:
 783              		.loc 1 164 3 view .LVU243
 784              		.loc 1 164 5 is_stmt 0 view .LVU244
 785 000c 144E     		ldr	r6, .L28
 786              	.LBB237:
 787              	.LBB238:
 788              	.LBB239:
 789              	.LBB240:
 790              	.LBB241:
 791              		.loc 4 493 3 view .LVU245
 792 000e 4FF00008 		mov	r8, #0
 793              	.LBE241:
 794              	.LBE240:
 795              	.LBE239:
 796              	.LBE238:
 797              	.LBE237:
 798              		.loc 1 164 5 view .LVU246
ARM GAS  C:\Users\DEVELO~1\AppData\Local\Temp\cc93bAhO.s 			page 15


 799 0012 B36A     		ldr	r3, [r6, #40]
 800              	.LVL44:
 801              		.loc 1 166 3 is_stmt 1 view .LVU247
 802              		.loc 1 169 11 is_stmt 0 view .LVU248
 803 0014 9A7D     		ldrb	r2, [r3, #22]	@ zero_extendqisi2
 804              		.loc 1 166 6 view .LVU249
 805 0016 A3F11000 		sub	r0, r3, #16
 806              	.LVL45:
 807              		.loc 1 169 3 is_stmt 1 view .LVU250
 808              		.loc 1 169 11 is_stmt 0 view .LVU251
 809 001a 0132     		adds	r2, r2, #1
 810 001c 9A75     		strb	r2, [r3, #22]
 811              		.loc 1 171 3 is_stmt 1 view .LVU252
 812              	.LBB246:
 813              	.LBI237:
 814              		.loc 2 421 20 view .LVU253
 815              	.LBB245:
 816              		.loc 2 423 23 view .LVU254
 817              		.loc 2 424 34 view .LVU255
 818              		.loc 2 430 3 view .LVU256
 819              		.loc 2 430 3 view .LVU257
 820              		.loc 2 430 3 view .LVU258
 821              		.loc 2 434 3 view .LVU259
 822              	.LBB244:
 823              	.LBI239:
 824              		.loc 3 830 27 view .LVU260
 825              		.loc 3 833 3 view .LVU261
 826              	.LVL46:
 827              	.LBB243:
 828              	.LBI240:
 829              		.loc 4 491 27 view .LVU262
 830              	.LBB242:
 831              		.loc 4 493 3 view .LVU263
 832              		.syntax unified
 833              	@ 493 "../../../os/common/ext/ARM/CMSIS/Core/Include/cmsis_gcc.h" 1
 834 001e 88F31188 		MSR basepri, r8
 835              	@ 0 "" 2
 836              	.LVL47:
 837              		.loc 4 493 3 is_stmt 0 view .LVU264
 838              		.thumb
 839              		.syntax unified
 840              	.LBE242:
 841              	.LBE243:
 842              	.LBE244:
 843              	.LBE245:
 844              	.LBE246:
 845              		.loc 1 173 3 is_stmt 1 view .LVU265
 846              		.loc 1 173 3 is_stmt 0 view .LVU266
 847              	.LBE248:
 848              	.LBE250:
 849              		.loc 1 262 3 is_stmt 1 view .LVU267
 850              		.loc 1 263 5 view .LVU268
 851              		.loc 1 263 8 is_stmt 0 view .LVU269
 852 0022 8742     		cmp	r7, r0
 853 0024 1AD0     		beq	.L25
 854 0026 2836     		adds	r6, r6, #40
 855 0028 09E0     		b	.L24
ARM GAS  C:\Users\DEVELO~1\AppData\Local\Temp\cc93bAhO.s 			page 16


 856              	.LVL48:
 857              	.L23:
 858              	.LBB251:
 859              	.LBB252:
 860              	.LBB253:
 861              		.loc 1 207 14 view .LVU270
 862 002a 9A7D     		ldrb	r2, [r3, #22]	@ zero_extendqisi2
 863 002c 0132     		adds	r2, r2, #1
 864 002e 9A75     		strb	r2, [r3, #22]
 865              		.loc 1 207 14 view .LVU271
 866              	.LBE253:
 867              		.loc 1 210 3 is_stmt 1 view .LVU272
 868              	.LBB254:
 869              	.LBI254:
 870              		.loc 2 421 20 view .LVU273
 871              	.LBB255:
 872              		.loc 2 423 23 view .LVU274
 873              		.loc 2 424 34 view .LVU275
 874              		.loc 2 430 3 view .LVU276
 875              		.loc 2 430 3 view .LVU277
 876              		.loc 2 430 3 view .LVU278
 877              		.loc 2 434 3 view .LVU279
 878              	.LBB256:
 879              	.LBI256:
 880              		.loc 3 830 27 view .LVU280
 881              		.loc 3 833 3 view .LVU281
 882              	.LVL49:
 883              	.LBB257:
 884              	.LBI257:
 885              		.loc 4 491 27 view .LVU282
 886              	.LBB258:
 887              		.loc 4 493 3 view .LVU283
 888              		.syntax unified
 889              	@ 493 "../../../os/common/ext/ARM/CMSIS/Core/Include/cmsis_gcc.h" 1
 890 0030 88F31188 		MSR basepri, r8
 891              	@ 0 "" 2
 892              	.LVL50:
 893              		.loc 4 493 3 is_stmt 0 view .LVU284
 894              		.thumb
 895              		.syntax unified
 896              	.LBE258:
 897              	.LBE257:
 898              	.LBE256:
 899              	.LBE255:
 900              	.LBE254:
 901              		.loc 1 212 3 is_stmt 1 view .LVU285
 902 0034 FFF7FEFF 		bl	chThdRelease
 903              	.LVL51:
 904              		.loc 1 215 3 view .LVU286
 905              		.loc 1 215 3 is_stmt 0 view .LVU287
 906              	.LBE252:
 907              	.LBE251:
 908              		.loc 1 267 16 is_stmt 1 view .LVU288
 909              		.loc 1 262 3 view .LVU289
 910              		.loc 1 263 5 view .LVU290
 911              		.loc 1 263 8 is_stmt 0 view .LVU291
 912 0038 A742     		cmp	r7, r4
ARM GAS  C:\Users\DEVELO~1\AppData\Local\Temp\cc93bAhO.s 			page 17


 913 003a 2046     		mov	r0, r4
 914 003c 0BD0     		beq	.L21
 915              	.LVL52:
 916              	.L24:
 917              		.loc 1 266 5 is_stmt 1 view .LVU292
 918              	.LBB272:
 919              	.LBI251:
 920              		.loc 1 187 11 view .LVU293
 921              	.LBB271:
 922              		.loc 1 188 3 view .LVU294
 923              		.loc 1 189 3 view .LVU295
 924              		.loc 1 191 3 view .LVU296
 925              	.LBB263:
 926              	.LBI263:
 927              		.loc 2 407 20 view .LVU297
 928              		.loc 2 409 3 view .LVU298
 929              	.LBB264:
 930              	.LBI264:
 931              		.loc 3 806 27 view .LVU299
 932              		.loc 3 814 3 view .LVU300
 933              	.LBB265:
 934              	.LBI265:
 935              		.loc 4 491 27 view .LVU301
 936              	.LBB266:
 937              		.loc 4 493 3 view .LVU302
 938              		.syntax unified
 939              	@ 493 "../../../os/common/ext/ARM/CMSIS/Core/Include/cmsis_gcc.h" 1
 940 003e 85F31188 		MSR basepri, r5
 941              	@ 0 "" 2
 942              	.LVL53:
 943              		.loc 4 493 3 is_stmt 0 view .LVU303
 944              		.thumb
 945              		.syntax unified
 946              	.LBE266:
 947              	.LBE265:
 948              	.LBE264:
 949              		.loc 2 410 35 is_stmt 1 view .LVU304
 950              		.loc 2 411 21 view .LVU305
 951              	.LBE263:
 952              		.loc 1 194 3 view .LVU306
 953              	.LBB267:
 954              		.loc 1 199 5 view .LVU307
 955              	.LBE267:
 956              		.loc 1 194 7 is_stmt 0 view .LVU308
 957 0042 0369     		ldr	r3, [r0, #16]
 958              	.LVL54:
 959              		.loc 1 195 3 is_stmt 1 view .LVU309
 960              	.LBB268:
 961              		.loc 1 201 5 view .LVU310
 962              	.LBE268:
 963              		.loc 1 195 6 is_stmt 0 view .LVU311
 964 0044 B342     		cmp	r3, r6
 965              	.LBB269:
 966              		.loc 1 201 9 view .LVU312
 967 0046 A3F11004 		sub	r4, r3, #16
 968              	.LVL55:
 969              		.loc 1 205 5 is_stmt 1 view .LVU313
ARM GAS  C:\Users\DEVELO~1\AppData\Local\Temp\cc93bAhO.s 			page 18


 970              		.loc 1 205 5 view .LVU314
 971              		.loc 1 205 5 view .LVU315
 972              		.loc 1 207 5 view .LVU316
 973              	.LBE269:
 974              		.loc 1 195 6 is_stmt 0 view .LVU317
 975 004a EED1     		bne	.L23
 976              	.LVL56:
 977              		.loc 1 210 3 is_stmt 1 view .LVU318
 978              	.LBB270:
 979              		.loc 2 421 20 view .LVU319
 980              	.LBB262:
 981              		.loc 2 423 23 view .LVU320
 982              		.loc 2 424 34 view .LVU321
 983              		.loc 2 430 3 view .LVU322
 984              		.loc 2 430 3 view .LVU323
 985              		.loc 2 430 3 view .LVU324
 986              		.loc 2 434 3 view .LVU325
 987              	.LBB261:
 988              		.loc 3 830 27 view .LVU326
 989              		.loc 3 833 3 view .LVU327
 990              	.LBB260:
 991              		.loc 4 491 27 view .LVU328
 992              	.LBB259:
 993              		.loc 4 493 3 view .LVU329
 994 004c 0024     		movs	r4, #0
 995              		.syntax unified
 996              	@ 493 "../../../os/common/ext/ARM/CMSIS/Core/Include/cmsis_gcc.h" 1
 997 004e 84F31188 		MSR basepri, r4
 998              	@ 0 "" 2
 999              	.LVL57:
 1000              		.loc 4 493 3 is_stmt 0 view .LVU330
 1001              		.thumb
 1002              		.syntax unified
 1003              	.LBE259:
 1004              	.LBE260:
 1005              	.LBE261:
 1006              	.LBE262:
 1007              	.LBE270:
 1008              		.loc 1 212 3 is_stmt 1 view .LVU331
 1009 0052 FFF7FEFF 		bl	chThdRelease
 1010              	.LVL58:
 1011              		.loc 1 215 3 view .LVU332
 1012              		.loc 1 215 3 is_stmt 0 view .LVU333
 1013              	.LBE271:
 1014              	.LBE272:
 1015              		.loc 1 267 16 is_stmt 1 view .LVU334
 1016              	.L21:
 1017              		.loc 1 270 1 is_stmt 0 view .LVU335
 1018 0056 2046     		mov	r0, r4
 1019 0058 BDE8F081 		pop	{r4, r5, r6, r7, r8, pc}
 1020              	.LVL59:
 1021              	.L25:
 1022              		.loc 1 263 8 view .LVU336
 1023 005c 3C46     		mov	r4, r7
 1024 005e FAE7     		b	.L21
 1025              	.L29:
 1026              		.align	2
ARM GAS  C:\Users\DEVELO~1\AppData\Local\Temp\cc93bAhO.s 			page 19


 1027              	.L28:
 1028 0060 00000000 		.word	ch0
 1029              		.cfi_endproc
 1030              	.LFE349:
 1031              		.size	chRegFindThreadByPointer, .-chRegFindThreadByPointer
 1032              		.section	.text.chRegFindThreadByWorkingArea,"ax",%progbits
 1033              		.align	1
 1034              		.p2align 4,,15
 1035              		.global	chRegFindThreadByWorkingArea
 1036              		.syntax unified
 1037              		.thumb
 1038              		.thumb_func
 1039              		.type	chRegFindThreadByWorkingArea, %function
 1040              	chRegFindThreadByWorkingArea:
 1041              	.LVL60:
 1042              	.LFB350:
 1043              		.loc 1 286 56 is_stmt 1 view -0
 1044              		.cfi_startproc
 1045              		@ args = 0, pretend = 0, frame = 0
 1046              		@ frame_needed = 0, uses_anonymous_args = 0
 1047              		.loc 1 287 3 view .LVU338
 1048              		.loc 1 290 3 view .LVU339
 1049              	.LBB298:
 1050              	.LBI298:
 1051              		.loc 1 159 11 view .LVU340
 1052              	.LBB299:
 1053              		.loc 1 160 3 view .LVU341
 1054              		.loc 1 161 3 view .LVU342
 1055              		.loc 1 163 3 view .LVU343
 1056              	.LBB300:
 1057              	.LBI300:
 1058              		.loc 2 407 20 view .LVU344
 1059              		.loc 2 409 3 view .LVU345
 1060              	.LBB301:
 1061              	.LBI301:
 1062              		.loc 3 806 27 view .LVU346
 1063              		.loc 3 814 3 view .LVU347
 1064              	.LBB302:
 1065              	.LBI302:
 1066              		.loc 4 491 27 view .LVU348
 1067              	.LBB303:
 1068              		.loc 4 493 3 view .LVU349
 1069              	.LBE303:
 1070              	.LBE302:
 1071              	.LBE301:
 1072              	.LBE300:
 1073              	.LBE299:
 1074              	.LBE298:
 1075              		.loc 1 286 56 is_stmt 0 view .LVU350
 1076 0000 2DE9F843 		push	{r3, r4, r5, r6, r7, r8, r9, lr}
 1077              		.cfi_def_cfa_offset 32
 1078              		.cfi_offset 3, -32
 1079              		.cfi_offset 4, -28
 1080              		.cfi_offset 5, -24
 1081              		.cfi_offset 6, -20
 1082              		.cfi_offset 7, -16
 1083              		.cfi_offset 8, -12
ARM GAS  C:\Users\DEVELO~1\AppData\Local\Temp\cc93bAhO.s 			page 20


 1084              		.cfi_offset 9, -8
 1085              		.cfi_offset 14, -4
 1086              	.LBB324:
 1087              	.LBB322:
 1088              	.LBB310:
 1089              	.LBB308:
 1090              	.LBB306:
 1091              	.LBB304:
 1092              		.loc 4 493 3 view .LVU351
 1093 0004 3025     		movs	r5, #48
 1094              	.LBE304:
 1095              	.LBE306:
 1096              	.LBE308:
 1097              	.LBE310:
 1098              	.LBE322:
 1099              	.LBE324:
 1100              		.loc 1 286 56 view .LVU352
 1101 0006 0746     		mov	r7, r0
 1102              	.LBB325:
 1103              	.LBB323:
 1104              	.LBB311:
 1105              	.LBB309:
 1106              	.LBB307:
 1107              	.LBB305:
 1108              		.loc 4 493 3 view .LVU353
 1109              		.syntax unified
 1110              	@ 493 "../../../os/common/ext/ARM/CMSIS/Core/Include/cmsis_gcc.h" 1
 1111 0008 85F31188 		MSR basepri, r5
 1112              	@ 0 "" 2
 1113              	.LVL61:
 1114              		.loc 4 493 3 view .LVU354
 1115              		.thumb
 1116              		.syntax unified
 1117              	.LBE305:
 1118              	.LBE307:
 1119              	.LBE309:
 1120              		.loc 2 410 35 is_stmt 1 view .LVU355
 1121              		.loc 2 411 21 view .LVU356
 1122              	.LBE311:
 1123              		.loc 1 164 3 view .LVU357
 1124              		.loc 1 164 5 is_stmt 0 view .LVU358
 1125 000c 164E     		ldr	r6, .L37
 1126              	.LBB312:
 1127              	.LBB313:
 1128              	.LBB314:
 1129              	.LBB315:
 1130              	.LBB316:
 1131              		.loc 4 493 3 view .LVU359
 1132 000e 4FF00008 		mov	r8, #0
 1133              	.LBE316:
 1134              	.LBE315:
 1135              	.LBE314:
 1136              	.LBE313:
 1137              	.LBE312:
 1138              		.loc 1 164 5 view .LVU360
 1139 0012 B36A     		ldr	r3, [r6, #40]
 1140              	.LVL62:
ARM GAS  C:\Users\DEVELO~1\AppData\Local\Temp\cc93bAhO.s 			page 21


 1141              		.loc 1 166 3 is_stmt 1 view .LVU361
 1142              		.loc 1 169 11 is_stmt 0 view .LVU362
 1143 0014 9A7D     		ldrb	r2, [r3, #22]	@ zero_extendqisi2
 1144              		.loc 1 166 6 view .LVU363
 1145 0016 A3F11000 		sub	r0, r3, #16
 1146              	.LVL63:
 1147              		.loc 1 169 3 is_stmt 1 view .LVU364
 1148              		.loc 1 169 11 is_stmt 0 view .LVU365
 1149 001a 0132     		adds	r2, r2, #1
 1150 001c 9A75     		strb	r2, [r3, #22]
 1151              		.loc 1 171 3 is_stmt 1 view .LVU366
 1152              	.LBB321:
 1153              	.LBI312:
 1154              		.loc 2 421 20 view .LVU367
 1155              	.LBB320:
 1156              		.loc 2 423 23 view .LVU368
 1157              		.loc 2 424 34 view .LVU369
 1158              		.loc 2 430 3 view .LVU370
 1159              		.loc 2 430 3 view .LVU371
 1160              		.loc 2 430 3 view .LVU372
 1161              		.loc 2 434 3 view .LVU373
 1162              	.LBB319:
 1163              	.LBI314:
 1164              		.loc 3 830 27 view .LVU374
 1165              		.loc 3 833 3 view .LVU375
 1166              	.LVL64:
 1167              	.LBB318:
 1168              	.LBI315:
 1169              		.loc 4 491 27 view .LVU376
 1170              	.LBB317:
 1171              		.loc 4 493 3 view .LVU377
 1172              		.syntax unified
 1173              	@ 493 "../../../os/common/ext/ARM/CMSIS/Core/Include/cmsis_gcc.h" 1
 1174 001e 88F31188 		MSR basepri, r8
 1175              	@ 0 "" 2
 1176              	.LVL65:
 1177              		.loc 4 493 3 is_stmt 0 view .LVU378
 1178              		.thumb
 1179              		.syntax unified
 1180              	.LBE317:
 1181              	.LBE318:
 1182              	.LBE319:
 1183              	.LBE320:
 1184              	.LBE321:
 1185              		.loc 1 173 3 is_stmt 1 view .LVU379
 1186              		.loc 1 173 3 is_stmt 0 view .LVU380
 1187              	.LBE323:
 1188              	.LBE325:
 1189              		.loc 1 291 3 is_stmt 1 view .LVU381
 1190              		.loc 1 292 5 view .LVU382
 1191              	.LBB326:
 1192              	.LBI326:
 1193              		.file 6 "../../../os/rt/include/chthreads.h"
 1194              		.loc 6 386 27 view .LVU383
 1195              	.LBB327:
 1196              		.loc 6 388 3 view .LVU384
 1197              		.loc 6 388 3 is_stmt 0 view .LVU385
ARM GAS  C:\Users\DEVELO~1\AppData\Local\Temp\cc93bAhO.s 			page 22


 1198              	.LBE327:
 1199              	.LBE326:
 1200              		.loc 1 292 8 view .LVU386
 1201 0022 1B69     		ldr	r3, [r3, #16]
 1202 0024 9F42     		cmp	r7, r3
 1203 0026 1CD0     		beq	.L34
 1204 0028 2836     		adds	r6, r6, #40
 1205 002a 0AE0     		b	.L33
 1206              	.LVL66:
 1207              	.L32:
 1208              	.LBB329:
 1209              	.LBB330:
 1210              	.LBB331:
 1211              		.loc 1 207 14 view .LVU387
 1212 002c A37D     		ldrb	r3, [r4, #22]	@ zero_extendqisi2
 1213 002e 0133     		adds	r3, r3, #1
 1214 0030 A375     		strb	r3, [r4, #22]
 1215              		.loc 1 207 14 view .LVU388
 1216              	.LBE331:
 1217              		.loc 1 210 3 is_stmt 1 view .LVU389
 1218              	.LBB332:
 1219              	.LBI332:
 1220              		.loc 2 421 20 view .LVU390
 1221              	.LBB333:
 1222              		.loc 2 423 23 view .LVU391
 1223              		.loc 2 424 34 view .LVU392
 1224              		.loc 2 430 3 view .LVU393
 1225              		.loc 2 430 3 view .LVU394
 1226              		.loc 2 430 3 view .LVU395
 1227              		.loc 2 434 3 view .LVU396
 1228              	.LBB334:
 1229              	.LBI334:
 1230              		.loc 3 830 27 view .LVU397
 1231              		.loc 3 833 3 view .LVU398
 1232              	.LVL67:
 1233              	.LBB335:
 1234              	.LBI335:
 1235              		.loc 4 491 27 view .LVU399
 1236              	.LBB336:
 1237              		.loc 4 493 3 view .LVU400
 1238              		.syntax unified
 1239              	@ 493 "../../../os/common/ext/ARM/CMSIS/Core/Include/cmsis_gcc.h" 1
 1240 0032 88F31188 		MSR basepri, r8
 1241              	@ 0 "" 2
 1242              	.LVL68:
 1243              		.loc 4 493 3 is_stmt 0 view .LVU401
 1244              		.thumb
 1245              		.syntax unified
 1246              	.LBE336:
 1247              	.LBE335:
 1248              	.LBE334:
 1249              	.LBE333:
 1250              	.LBE332:
 1251              		.loc 1 212 3 is_stmt 1 view .LVU402
 1252 0036 FFF7FEFF 		bl	chThdRelease
 1253              	.LVL69:
 1254              		.loc 1 215 3 view .LVU403
ARM GAS  C:\Users\DEVELO~1\AppData\Local\Temp\cc93bAhO.s 			page 23


 1255              		.loc 1 215 3 is_stmt 0 view .LVU404
 1256              	.LBE330:
 1257              	.LBE329:
 1258              		.loc 1 296 16 is_stmt 1 view .LVU405
 1259              		.loc 1 291 3 view .LVU406
 1260              		.loc 1 292 5 view .LVU407
 1261              	.LBB352:
 1262              		.loc 6 386 27 view .LVU408
 1263              	.LBB328:
 1264              		.loc 6 388 3 view .LVU409
 1265              		.loc 6 388 3 is_stmt 0 view .LVU410
 1266              	.LBE328:
 1267              	.LBE352:
 1268              		.loc 1 292 8 view .LVU411
 1269 003a 2369     		ldr	r3, [r4, #16]
 1270              	.LBB353:
 1271              	.LBB350:
 1272              	.LBB341:
 1273              		.loc 1 201 9 view .LVU412
 1274 003c 4846     		mov	r0, r9
 1275              	.LBE341:
 1276              	.LBE350:
 1277              	.LBE353:
 1278              		.loc 1 292 8 view .LVU413
 1279 003e 9F42     		cmp	r7, r3
 1280 0040 0CD0     		beq	.L30
 1281              	.LVL70:
 1282              	.L33:
 1283              		.loc 1 295 5 is_stmt 1 view .LVU414
 1284              	.LBB354:
 1285              	.LBI329:
 1286              		.loc 1 187 11 view .LVU415
 1287              	.LBB351:
 1288              		.loc 1 188 3 view .LVU416
 1289              		.loc 1 189 3 view .LVU417
 1290              		.loc 1 191 3 view .LVU418
 1291              	.LBB342:
 1292              	.LBI342:
 1293              		.loc 2 407 20 view .LVU419
 1294              		.loc 2 409 3 view .LVU420
 1295              	.LBB343:
 1296              	.LBI343:
 1297              		.loc 3 806 27 view .LVU421
 1298              		.loc 3 814 3 view .LVU422
 1299              	.LBB344:
 1300              	.LBI344:
 1301              		.loc 4 491 27 view .LVU423
 1302              	.LBB345:
 1303              		.loc 4 493 3 view .LVU424
 1304              		.syntax unified
 1305              	@ 493 "../../../os/common/ext/ARM/CMSIS/Core/Include/cmsis_gcc.h" 1
 1306 0042 85F31188 		MSR basepri, r5
 1307              	@ 0 "" 2
 1308              	.LVL71:
 1309              		.loc 4 493 3 is_stmt 0 view .LVU425
 1310              		.thumb
 1311              		.syntax unified
ARM GAS  C:\Users\DEVELO~1\AppData\Local\Temp\cc93bAhO.s 			page 24


 1312              	.LBE345:
 1313              	.LBE344:
 1314              	.LBE343:
 1315              		.loc 2 410 35 is_stmt 1 view .LVU426
 1316              		.loc 2 411 21 view .LVU427
 1317              	.LBE342:
 1318              		.loc 1 194 3 view .LVU428
 1319              	.LBB346:
 1320              		.loc 1 199 5 view .LVU429
 1321              	.LBE346:
 1322              		.loc 1 194 7 is_stmt 0 view .LVU430
 1323 0046 0469     		ldr	r4, [r0, #16]
 1324              	.LVL72:
 1325              		.loc 1 195 3 is_stmt 1 view .LVU431
 1326              	.LBB347:
 1327              		.loc 1 201 5 view .LVU432
 1328              	.LBE347:
 1329              		.loc 1 195 6 is_stmt 0 view .LVU433
 1330 0048 B442     		cmp	r4, r6
 1331              	.LBB348:
 1332              		.loc 1 201 9 view .LVU434
 1333 004a A4F11009 		sub	r9, r4, #16
 1334              	.LVL73:
 1335              		.loc 1 205 5 is_stmt 1 view .LVU435
 1336              		.loc 1 205 5 view .LVU436
 1337              		.loc 1 205 5 view .LVU437
 1338              		.loc 1 207 5 view .LVU438
 1339              	.LBE348:
 1340              		.loc 1 195 6 is_stmt 0 view .LVU439
 1341 004e EDD1     		bne	.L32
 1342              	.LVL74:
 1343              		.loc 1 210 3 is_stmt 1 view .LVU440
 1344              	.LBB349:
 1345              		.loc 2 421 20 view .LVU441
 1346              	.LBB340:
 1347              		.loc 2 423 23 view .LVU442
 1348              		.loc 2 424 34 view .LVU443
 1349              		.loc 2 430 3 view .LVU444
 1350              		.loc 2 430 3 view .LVU445
 1351              		.loc 2 430 3 view .LVU446
 1352              		.loc 2 434 3 view .LVU447
 1353              	.LBB339:
 1354              		.loc 3 830 27 view .LVU448
 1355              		.loc 3 833 3 view .LVU449
 1356              	.LBB338:
 1357              		.loc 4 491 27 view .LVU450
 1358              	.LBB337:
 1359              		.loc 4 493 3 view .LVU451
 1360 0050 4FF00009 		mov	r9, #0
 1361              		.syntax unified
 1362              	@ 493 "../../../os/common/ext/ARM/CMSIS/Core/Include/cmsis_gcc.h" 1
 1363 0054 89F31188 		MSR basepri, r9
 1364              	@ 0 "" 2
 1365              	.LVL75:
 1366              		.loc 4 493 3 is_stmt 0 view .LVU452
 1367              		.thumb
 1368              		.syntax unified
ARM GAS  C:\Users\DEVELO~1\AppData\Local\Temp\cc93bAhO.s 			page 25


 1369              	.LBE337:
 1370              	.LBE338:
 1371              	.LBE339:
 1372              	.LBE340:
 1373              	.LBE349:
 1374              		.loc 1 212 3 is_stmt 1 view .LVU453
 1375 0058 FFF7FEFF 		bl	chThdRelease
 1376              	.LVL76:
 1377              		.loc 1 215 3 view .LVU454
 1378              		.loc 1 215 3 is_stmt 0 view .LVU455
 1379              	.LBE351:
 1380              	.LBE354:
 1381              		.loc 1 296 16 is_stmt 1 view .LVU456
 1382              	.L30:
 1383              		.loc 1 299 1 is_stmt 0 view .LVU457
 1384 005c 4846     		mov	r0, r9
 1385 005e BDE8F883 		pop	{r3, r4, r5, r6, r7, r8, r9, pc}
 1386              	.LVL77:
 1387              	.L34:
 1388              		.loc 1 290 9 view .LVU458
 1389 0062 8146     		mov	r9, r0
 1390 0064 FAE7     		b	.L30
 1391              	.L38:
 1392 0066 00BF     		.align	2
 1393              	.L37:
 1394 0068 00000000 		.word	ch0
 1395              		.cfi_endproc
 1396              	.LFE350:
 1397              		.size	chRegFindThreadByWorkingArea, .-chRegFindThreadByWorkingArea
 1398              		.global	ch_debug
 1399              		.section	.rodata.ch_debug,"a"
 1400              		.align	2
 1401              		.type	ch_debug, %object
 1402              		.size	ch_debug, 44
 1403              	ch_debug:
 1404 0000 6D61696E 		.ascii	"main"
 1405 0004 00       		.byte	0
 1406 0005 2C       		.byte	44
 1407 0006 0438     		.short	14340
 1408 0008 04       		.byte	4
 1409 0009 04       		.byte	4
 1410 000a 48       		.byte	72
 1411 000b 08       		.byte	8
 1412 000c 0C       		.byte	12
 1413 000d 10       		.byte	16
 1414 000e 14       		.byte	20
 1415 000f 1C       		.byte	28
 1416 0010 20       		.byte	32
 1417 0011 24       		.byte	36
 1418 0012 25       		.byte	37
 1419 0013 26       		.byte	38
 1420 0014 00       		.byte	0
 1421 0015 00       		.byte	0
 1422 0016 00000000 		.ascii	"\000\000\000\000"
 1423 001a 24       		.byte	36
 1424 001b 04       		.byte	4
 1425 001c 01       		.byte	1
ARM GAS  C:\Users\DEVELO~1\AppData\Local\Temp\cc93bAhO.s 			page 26


 1426 001d 00       		.byte	0
 1427 001e 04       		.byte	4
 1428 001f 00       		.byte	0
 1429 0020 00       		.byte	0
 1430 0021 00000000 		.ascii	"\000\000\000\000"
 1431 0025 0C       		.byte	12
 1432 0026 00       		.byte	0
 1433 0027 10       		.byte	16
 1434 0028 28       		.byte	40
 1435 0029 30       		.byte	48
 1436 002a 34       		.byte	52
 1437 002b 00       		.space	1
 1438              		.text
 1439              	.Letext0:
 1440              		.file 7 "c:\\chibistudio\\tools\\gnu tools arm embedded\\11.3 2022.08\\lib\\gcc\\arm-none-eabi\\11
 1441              		.file 8 "c:\\chibistudio\\tools\\gnu tools arm embedded\\11.3 2022.08\\arm-none-eabi\\include\\mac
 1442              		.file 9 "c:\\chibistudio\\tools\\gnu tools arm embedded\\11.3 2022.08\\arm-none-eabi\\include\\sys
 1443              		.file 10 "../../../os/common/ports/ARM-common/chtypes.h"
 1444              		.file 11 "../../../os/rt/include/chearly.h"
 1445              		.file 12 "../../../os/rt/include/chobjects.h"
 1446              		.file 13 "../../../os/rt/include/chrfcu.h"
 1447              		.file 14 "../../../os/rt/include/chdebug.h"
 1448              		.file 15 "../../../os/rt/include/chtime.h"
 1449              		.file 16 "../../../os/rt/include/chlists.h"
 1450              		.file 17 "../../../os/rt/include/chtrace.h"
 1451              		.file 18 "../../../os/rt/include/chtm.h"
 1452              		.file 19 "../../../os/rt/include/chsem.h"
 1453              		.file 20 "../../../os/rt/include/chmtx.h"
 1454              		.file 21 "c:\\chibistudio\\tools\\gnu tools arm embedded\\11.3 2022.08\\arm-none-eabi\\include\\st