ARM GAS  C:\Users\DEVELO~1\AppData\Local\Temp\ccSesTYq.s 			page 1


   1              		.cpu cortex-m7
   2              		.arch armv7e-m
   3              		.fpu softvfp
   4              		.eabi_attribute 20, 1
   5              		.eabi_attribute 21, 1
   6              		.eabi_attribute 23, 3
   7              		.eabi_attribute 24, 1
   8              		.eabi_attribute 25, 1
   9              		.eabi_attribute 26, 1
  10              		.eabi_attribute 30, 2
  11              		.eabi_attribute 34, 1
  12              		.eabi_attribute 18, 4
  13              		.file	"chsafety.c"
  14              		.text
  15              	.Ltext0:
  16              		.cfi_sections	.debug_frame
  17              		.section	.text.chSftIntegrityCheckI,"ax",%progbits
  18              		.align	1
  19              		.p2align 4,,15
  20              		.global	chSftIntegrityCheckI
  21              		.syntax unified
  22              		.thumb
  23              		.thumb_func
  24              		.type	chSftIntegrityCheckI, %function
  25              	chSftIntegrityCheckI:
  26              	.LVL0:
  27              	.LFB352:
  28              		.file 1 "./ChibiOS/os/rt/src/chsafety.c"
  29              		.loc 1 152 46 view -0
  30              		.cfi_startproc
  31              		@ args = 0, pretend = 0, frame = 0
  32              		@ frame_needed = 0, uses_anonymous_args = 0
  33              		.loc 1 153 3 view .LVU1
  34              		.loc 1 155 21 view .LVU2
  35              		.loc 1 158 3 view .LVU3
  36              		.loc 1 158 6 is_stmt 0 view .LVU4
  37 0000 C107     		lsls	r1, r0, #31
  38              		.loc 1 152 46 view .LVU5
  39 0002 F8B5     		push	{r3, r4, r5, r6, r7, lr}
  40              		.cfi_def_cfa_offset 24
  41              		.cfi_offset 3, -24
  42              		.cfi_offset 4, -20
  43              		.cfi_offset 5, -16
  44              		.cfi_offset 6, -12
  45              		.cfi_offset 7, -8
  46              		.cfi_offset 14, -4
  47              		.loc 1 152 46 view .LVU6
  48 0004 0546     		mov	r5, r0
  49              		.loc 1 158 6 view .LVU7
  50 0006 09D5     		bpl	.L2
  51              	.LBB14:
  52              		.loc 1 161 26 view .LVU8
  53 0008 174E     		ldr	r6, .L28
  54              	.LBB15:
  55              		.loc 1 168 7 view .LVU9
  56 000a 184F     		ldr	r7, .L28+4
  57              	.LBE15:
ARM GAS  C:\Users\DEVELO~1\AppData\Local\Temp\ccSesTYq.s 			page 2


  58              		.loc 1 161 26 view .LVU10
  59 000c 3446     		mov	r4, r6
  60              	.LVL1:
  61              	.L4:
  62              		.loc 1 162 5 is_stmt 1 view .LVU11
  63              	.LBB16:
  64              		.loc 1 163 7 view .LVU12
  65              		.loc 1 166 7 view .LVU13
  66 000e 2346     		mov	r3, r4
  67              		.loc 1 166 12 is_stmt 0 view .LVU14
  68 0010 2468     		ldr	r4, [r4]
  69              	.LVL2:
  70              		.loc 1 167 7 is_stmt 1 view .LVU15
  71              		.loc 1 168 7 view .LVU16
  72              		.loc 1 168 7 view .LVU17
  73              		.loc 1 168 7 view .LVU18
  74 0012 6268     		ldr	r2, [r4, #4]
  75 0014 9A42     		cmp	r2, r3
  76 0016 1AD1     		bne	.L25
  77              	.LVL3:
  78              	.L3:
  79              		.loc 1 168 7 discriminator 5 view .LVU19
  80              		.loc 1 168 7 discriminator 5 view .LVU20
  81              		.loc 1 169 7 discriminator 5 view .LVU21
  82              		.loc 1 169 7 is_stmt 0 discriminator 5 view .LVU22
  83              	.LBE16:
  84              		.loc 1 170 22 is_stmt 1 discriminator 5 view .LVU23
  85 0018 B442     		cmp	r4, r6
  86 001a F8D1     		bne	.L4
  87              	.LVL4:
  88              	.L2:
  89              		.loc 1 170 22 is_stmt 0 discriminator 5 view .LVU24
  90              	.LBE14:
  91              		.loc 1 174 3 is_stmt 1 view .LVU25
  92              		.loc 1 174 6 is_stmt 0 view .LVU26
  93 001c AA07     		lsls	r2, r5, #30
  94 001e 09D5     		bpl	.L5
  95              	.LBB18:
  96              		.loc 1 177 22 view .LVU27
  97 0020 134E     		ldr	r6, .L28+8
  98              	.LBB19:
  99              		.loc 1 184 7 view .LVU28
 100 0022 124F     		ldr	r7, .L28+4
 101              	.LBE19:
 102              		.loc 1 177 22 view .LVU29
 103 0024 3446     		mov	r4, r6
 104              	.L7:
 105              	.LVL5:
 106              		.loc 1 178 5 is_stmt 1 view .LVU30
 107              	.LBB20:
 108              		.loc 1 179 7 view .LVU31
 109              		.loc 1 182 7 view .LVU32
 110 0026 2346     		mov	r3, r4
 111              		.loc 1 182 12 is_stmt 0 view .LVU33
 112 0028 2468     		ldr	r4, [r4]
 113              	.LVL6:
 114              		.loc 1 183 7 is_stmt 1 view .LVU34
ARM GAS  C:\Users\DEVELO~1\AppData\Local\Temp\ccSesTYq.s 			page 3


 115              		.loc 1 184 7 view .LVU35
 116              		.loc 1 184 7 view .LVU36
 117              		.loc 1 184 7 view .LVU37
 118 002a 6268     		ldr	r2, [r4, #4]
 119 002c 9A42     		cmp	r2, r3
 120 002e 16D1     		bne	.L26
 121              	.LVL7:
 122              	.L6:
 123              		.loc 1 184 7 discriminator 5 view .LVU38
 124              		.loc 1 184 7 discriminator 5 view .LVU39
 125              		.loc 1 185 7 discriminator 5 view .LVU40
 126              		.loc 1 185 7 is_stmt 0 discriminator 5 view .LVU41
 127              	.LBE20:
 128              		.loc 1 186 22 is_stmt 1 discriminator 5 view .LVU42
 129 0030 B442     		cmp	r4, r6
 130 0032 F8D1     		bne	.L7
 131              	.LVL8:
 132              	.L5:
 133              		.loc 1 186 22 is_stmt 0 discriminator 5 view .LVU43
 134              	.LBE18:
 135              		.loc 1 190 3 is_stmt 1 view .LVU44
 136              		.loc 1 190 6 is_stmt 0 view .LVU45
 137 0034 6B07     		lsls	r3, r5, #29
 138 0036 09D5     		bpl	.L1
 139              	.LBB22:
 140              		.loc 1 193 17 view .LVU46
 141 0038 0E4D     		ldr	r5, .L28+12
 142              	.LVL9:
 143              	.LBB23:
 144              		.loc 1 200 7 view .LVU47
 145 003a 0C4E     		ldr	r6, .L28+4
 146              	.LBE23:
 147              		.loc 1 193 17 view .LVU48
 148 003c 2C46     		mov	r4, r5
 149              	.L10:
 150              	.LVL10:
 151              		.loc 1 194 5 is_stmt 1 view .LVU49
 152              	.LBB24:
 153              		.loc 1 195 7 view .LVU50
 154              		.loc 1 198 7 view .LVU51
 155 003e 2346     		mov	r3, r4
 156              		.loc 1 198 12 is_stmt 0 view .LVU52
 157 0040 2468     		ldr	r4, [r4]
 158              	.LVL11:
 159              		.loc 1 199 7 is_stmt 1 view .LVU53
 160              		.loc 1 200 7 view .LVU54
 161              		.loc 1 200 7 view .LVU55
 162              		.loc 1 200 7 view .LVU56
 163 0042 6268     		ldr	r2, [r4, #4]
 164 0044 9A42     		cmp	r2, r3
 165 0046 06D1     		bne	.L27
 166              	.LVL12:
 167              	.L9:
 168              		.loc 1 200 7 discriminator 5 view .LVU57
 169              		.loc 1 200 7 discriminator 5 view .LVU58
 170              		.loc 1 201 7 discriminator 5 view .LVU59
 171              		.loc 1 201 7 is_stmt 0 discriminator 5 view .LVU60
ARM GAS  C:\Users\DEVELO~1\AppData\Local\Temp\ccSesTYq.s 			page 4


 172              	.LBE24:
 173              		.loc 1 202 22 is_stmt 1 discriminator 5 view .LVU61
 174 0048 AC42     		cmp	r4, r5
 175 004a F8D1     		bne	.L10
 176              	.LVL13:
 177              	.L1:
 178              		.loc 1 202 22 is_stmt 0 discriminator 5 view .LVU62
 179              	.LBE22:
 180              		.loc 1 211 1 view .LVU63
 181 004c F8BD     		pop	{r3, r4, r5, r6, r7, pc}
 182              	.LVL14:
 183              	.L25:
 184              	.LBB26:
 185              	.LBB17:
 186              		.loc 1 168 7 is_stmt 1 discriminator 3 view .LVU64
 187 004e 3846     		mov	r0, r7
 188 0050 FFF7FEFF 		bl	chSysHalt
 189              	.LVL15:
 190              		.loc 1 168 7 is_stmt 0 discriminator 3 view .LVU65
 191 0054 E0E7     		b	.L3
 192              	.LVL16:
 193              	.L27:
 194              		.loc 1 168 7 discriminator 3 view .LVU66
 195              	.LBE17:
 196              	.LBE26:
 197              	.LBB27:
 198              	.LBB25:
 199              		.loc 1 200 7 is_stmt 1 discriminator 3 view .LVU67
 200 0056 3046     		mov	r0, r6
 201 0058 FFF7FEFF 		bl	chSysHalt
 202              	.LVL17:
 203              		.loc 1 200 7 is_stmt 0 discriminator 3 view .LVU68
 204 005c F4E7     		b	.L9
 205              	.LVL18:
 206              	.L26:
 207              		.loc 1 200 7 discriminator 3 view .LVU69
 208              	.LBE25:
 209              	.LBE27:
 210              	.LBB28:
 211              	.LBB21:
 212              		.loc 1 184 7 is_stmt 1 discriminator 3 view .LVU70
 213 005e 3846     		mov	r0, r7
 214 0060 FFF7FEFF 		bl	chSysHalt
 215              	.LVL19:
 216              		.loc 1 184 7 is_stmt 0 discriminator 3 view .LVU71
 217 0064 E4E7     		b	.L6
 218              	.L29:
 219 0066 00BF     		.align	2
 220              	.L28:
 221 0068 00000000 		.word	ch0
 222 006c 00000000 		.word	.LANCHOR0
 223 0070 10000000 		.word	ch0+16
 224 0074 30000000 		.word	ch0+48
 225              	.LBE21:
 226              	.LBE28:
 227              		.cfi_endproc
 228              	.LFE352:
ARM GAS  C:\Users\DEVELO~1\AppData\Local\Temp\ccSesTYq.s 			page 5


 229              		.size	chSftIntegrityCheckI, .-chSftIntegrityCheckI
 230              		.section	.rodata.__func__.1,"a"
 231              		.align	2
 232              		.set	.LANCHOR0,. + 0
 233              		.type	__func__.1, %object
 234              		.size	__func__.1, 21
 235              	__func__.1:
 236 0000 63685366 		.ascii	"chSftIntegrityCheckI\000"
 236      74496E74 
 236      65677269 
 236      74794368 
 236      65636B49 
 237              		.text
 238              	.Letext0:
 239              		.file 2 "c:\\chibistudio\\tools\\gnu tools arm embedded\\11.3 2022.08\\arm-none-eabi\\include\\mac
 240              		.file 3 "c:\\chibistudio\\tools\\gnu tools arm embedded\\11.3 2022.08\\arm-none-eabi\\include\\sys
 241              		.file 4 "./ChibiOS/os/common/ports/ARM-common/include/chtypes.h"
 242              		.file 5 "./ChibiOS/os/rt/include/chearly.h"
 243              		.file 6 "./ChibiOS/os/rt/include/chobjects.h"
 244              		.file 7 "./ChibiOS/os/rt/include/chrfcu.h"
 245              		.file 8 "./ChibiOS/os/rt/include/chdebug.h"
 246              		.file 9 "./ChibiOS/os/rt/include/chtime.h"
 247              		.file 10 "./ChibiOS/os/rt/include/chtrace.h"
 248              		.file 11 "./ChibiOS/os/common/ports/ARMv7-M/chcore.h"
 249              		.file 12 "./ChibiOS/os/rt/include/chlists.h"
 250              		.file 13 "./ChibiOS/os/rt/include/chsem.h"
 251              		.file 14 "./ChibiOS/os/rt/include/chmtx.h"
 252              		.file 15 "./ChibiOS/os/rt/include/chsafety.h"
 253              		.file 16 "./ChibiOS/os/rt/include/chsys.h"