ARM GAS  C:\Users\DEVELO~1\AppData\Local\Temp\ccyQDiwM.s 			page 1


   1              		.cpu cortex-m7
   2              		.arch armv7e-m
   3              		.fpu softvfp
   4              		.eabi_attribute 20, 1
   5              		.eabi_attribute 21, 1
   6              		.eabi_attribute 23, 3
   7              		.eabi_attribute 24, 1
   8              		.eabi_attribute 25, 1
   9              		.eabi_attribute 26, 1
  10              		.eabi_attribute 30, 2
  11              		.eabi_attribute 34, 1
  12              		.eabi_attribute 18, 4
  13              		.file	"chschd.c"
  14              		.text
  15              	.Ltext0:
  16              		.cfi_sections	.debug_frame
  17              		.section	.text.__sch_wakeup,"ax",%progbits
  18              		.align	1
  19              		.p2align 4,,15
  20              		.syntax unified
  21              		.thumb
  22              		.thumb_func
  23              		.type	__sch_wakeup, %function
  24              	__sch_wakeup:
  25              	.LVL0:
  26              	.LFB356:
  27              		.file 1 "./ChibiOS/os/rt/src/chschd.c"
  28              		.loc 1 188 57 view -0
  29              		.cfi_startproc
  30              		@ args = 0, pretend = 0, frame = 0
  31              		@ frame_needed = 0, uses_anonymous_args = 0
  32              		.loc 1 189 3 view .LVU1
  33              		.loc 1 188 57 is_stmt 0 view .LVU2
  34 0000 10B5     		push	{r4, lr}
  35              		.cfi_def_cfa_offset 8
  36              		.cfi_offset 4, -8
  37              		.cfi_offset 14, -4
  38              	.LBB97:
  39              	.LBB98:
  40              	.LBB99:
  41              	.LBB100:
  42              	.LBB101:
  43              		.file 2 "./ChibiOS/os/common/ext/ARM/CMSIS/Core/Include/cmsis_gcc.h"
  44              		.loc 2 493 3 view .LVU3
  45 0002 3023     		movs	r3, #48
  46              	.LBE101:
  47              	.LBE100:
  48              	.LBE99:
  49              	.LBE98:
  50              	.LBE97:
  51              		.loc 1 188 57 view .LVU4
  52 0004 0C46     		mov	r4, r1
  53              	.LVL1:
  54              		.loc 1 191 3 is_stmt 1 view .LVU5
  55              		.loc 1 193 3 view .LVU6
  56              	.LBB106:
  57              	.LBI97:
ARM GAS  C:\Users\DEVELO~1\AppData\Local\Temp\ccyQDiwM.s 			page 2


  58              		.file 3 "./ChibiOS/os/rt/include/chsys.h"
  59              		.loc 3 416 20 view .LVU7
  60              		.loc 3 418 3 view .LVU8
  61              	.LBB105:
  62              	.LBI98:
  63              		.file 4 "./ChibiOS/os/common/ports/ARMv7-M/chcore.h"
  64              		.loc 4 879 27 view .LVU9
  65              		.loc 4 881 3 view .LVU10
  66              	.LBB104:
  67              	.LBI99:
  68              		.loc 4 840 27 view .LVU11
  69              		.loc 4 848 3 view .LVU12
  70              	.LBB103:
  71              	.LBI100:
  72              		.loc 2 491 27 view .LVU13
  73              	.LBB102:
  74              		.loc 2 493 3 view .LVU14
  75              		.syntax unified
  76              	@ 493 "./ChibiOS/os/common/ext/ARM/CMSIS/Core/Include/cmsis_gcc.h" 1
  77 0006 83F31188 		MSR basepri, r3
  78              	@ 0 "" 2
  79              	.LVL2:
  80              		.loc 2 493 3 is_stmt 0 view .LVU15
  81              		.thumb
  82              		.syntax unified
  83              	.LBE102:
  84              	.LBE103:
  85              	.LBE104:
  86              	.LBE105:
  87              		.loc 3 419 35 is_stmt 1 view .LVU16
  88              		.loc 3 420 30 view .LVU17
  89              	.LBE106:
  90              		.loc 1 194 3 view .LVU18
  91 000a 0B7F     		ldrb	r3, [r1, #28]	@ zero_extendqisi2
  92 000c 0C2B     		cmp	r3, #12
  93 000e 10D8     		bhi	.L2
  94 0010 DFE803F0 		tbb	[pc, r3]
  95              	.L4:
  96 0014 2A       		.byte	(.L7-.L4)/2
  97 0015 0F       		.byte	(.L2-.L4)/2
  98 0016 0F       		.byte	(.L2-.L4)/2
  99 0017 26       		.byte	(.L6-.L4)/2
 100 0018 0B       		.byte	(.L3-.L4)/2
 101 0019 07       		.byte	(.L5-.L4)/2
 102 001a 0F       		.byte	(.L2-.L4)/2
 103 001b 0B       		.byte	(.L3-.L4)/2
 104 001c 0F       		.byte	(.L2-.L4)/2
 105 001d 0F       		.byte	(.L2-.L4)/2
 106 001e 0F       		.byte	(.L2-.L4)/2
 107 001f 0F       		.byte	(.L2-.L4)/2
 108 0020 0B       		.byte	(.L3-.L4)/2
 109 0021 00       		.p2align 1
 110              	.L5:
 111              		.loc 1 205 5 view .LVU19
 112              		.loc 1 205 27 is_stmt 0 view .LVU20
 113 0022 4A6B     		ldr	r2, [r1, #52]
 114              	.LVL3:
ARM GAS  C:\Users\DEVELO~1\AppData\Local\Temp\ccyQDiwM.s 			page 3


 115              	.LBB107:
 116              	.LBI107:
 117              		.file 5 "./ChibiOS/os/rt/include/chsem.h"
 118              		.loc 5 175 20 is_stmt 1 view .LVU21
 119              	.LBB108:
 120              		.loc 5 177 21 view .LVU22
 121              		.loc 5 179 3 view .LVU23
 122              		.loc 5 179 10 is_stmt 0 view .LVU24
 123 0024 9368     		ldr	r3, [r2, #8]
 124 0026 0133     		adds	r3, r3, #1
 125 0028 9360     		str	r3, [r2, #8]
 126              	.LVL4:
 127              	.L3:
 128              		.loc 5 179 10 view .LVU25
 129              	.LBE108:
 130              	.LBE107:
 131              		.loc 1 218 5 is_stmt 1 view .LVU26
 132              	.LBB109:
 133              	.LBI109:
 134              		.file 6 "./ChibiOS/os/rt/include/chlists.h"
 135              		.loc 6 378 27 view .LVU27
 136              	.LBB110:
 137              		.loc 6 380 3 view .LVU28
 138              		.loc 6 380 20 is_stmt 0 view .LVU29
 139 002a D4E90032 		ldrd	r3, r2, [r4]
 140              		.loc 6 380 17 view .LVU30
 141 002e 1360     		str	r3, [r2]
 142              		.loc 6 381 3 is_stmt 1 view .LVU31
 143              		.loc 6 381 17 is_stmt 0 view .LVU32
 144 0030 5A60     		str	r2, [r3, #4]
 145              		.loc 6 383 3 is_stmt 1 view .LVU33
 146              	.LVL5:
 147              	.L2:
 148              		.loc 6 383 3 is_stmt 0 view .LVU34
 149              	.LBE110:
 150              	.LBE109:
 151              		.loc 1 226 3 is_stmt 1 view .LVU35
 152              		.loc 1 226 16 is_stmt 0 view .LVU36
 153 0032 4FF0FF31 		mov	r1, #-1
 154              	.LVL6:
 155              	.LBB111:
 156              	.LBB112:
 157              		.loc 1 74 3 view .LVU37
 158 0036 2046     		mov	r0, r4
 159              	.LVL7:
 160              		.loc 1 74 3 view .LVU38
 161              	.LBE112:
 162              	.LBE111:
 163              		.loc 1 226 16 view .LVU39
 164 0038 6163     		str	r1, [r4, #52]
 165              		.loc 1 229 3 is_stmt 1 view .LVU40
 166              	.LVL8:
 167              	.LBB122:
 168              	.LBI111:
 169              		.loc 1 67 18 view .LVU41
 170              	.LBB120:
 171              		.loc 1 69 3 view .LVU42
ARM GAS  C:\Users\DEVELO~1\AppData\Local\Temp\ccyQDiwM.s 			page 4


 172              		.loc 1 69 3 view .LVU43
 173              		.loc 1 69 3 view .LVU44
 174              		.loc 1 74 3 view .LVU45
 175 003a FFF7FEFF 		bl	__trace_ready
 176              	.LVL9:
 177              		.loc 1 77 3 view .LVU46
 178              		.loc 1 77 13 is_stmt 0 view .LVU47
 179 003e 0022     		movs	r2, #0
 180              		.loc 1 80 10 view .LVU48
 181 0040 2369     		ldr	r3, [r4, #16]
 182              	.LBB113:
 183              	.LBB114:
 184              		.loc 6 445 12 view .LVU49
 185 0042 A168     		ldr	r1, [r4, #8]
 186              	.LBE114:
 187              	.LBE113:
 188              		.loc 1 77 13 view .LVU50
 189 0044 2277     		strb	r2, [r4, #28]
 190              		.loc 1 80 3 is_stmt 1 view .LVU51
 191              	.LVL10:
 192              	.LBB118:
 193              	.LBI113:
 194              		.loc 6 433 36 view .LVU52
 195              	.L9:
 196              	.LBB116:
 197              		.loc 6 437 3 view .LVU53
 198              	.LBB115:
 199              		.loc 6 438 5 view .LVU54
 200              		.loc 6 438 26 is_stmt 0 view .LVU55
 201 0046 1B68     		ldr	r3, [r3]
 202              	.LVL11:
 203              		.loc 6 441 5 is_stmt 1 view .LVU56
 204              		.loc 6 442 5 view .LVU57
 205              		.loc 6 442 5 view .LVU58
 206              		.loc 6 442 5 view .LVU59
 207              		.loc 6 442 5 view .LVU60
 208              		.loc 6 444 5 view .LVU61
 209              		.loc 6 444 5 is_stmt 0 view .LVU62
 210              	.LBE115:
 211              		.loc 6 445 12 is_stmt 1 view .LVU63
 212 0048 9A68     		ldr	r2, [r3, #8]
 213 004a 8A42     		cmp	r2, r1
 214 004c FBD2     		bcs	.L9
 215              		.loc 6 448 3 view .LVU64
 216              		.loc 6 449 22 is_stmt 0 view .LVU65
 217 004e 5A68     		ldr	r2, [r3, #4]
 218              	.LBE116:
 219              	.LBE118:
 220              	.LBE120:
 221              	.LBE122:
 222              	.LBB123:
 223              	.LBB124:
 224              	.LBB125:
 225              	.LBB126:
 226              	.LBB127:
 227              	.LBB128:
 228              		.loc 2 493 3 view .LVU66
ARM GAS  C:\Users\DEVELO~1\AppData\Local\Temp\ccyQDiwM.s 			page 5


 229 0050 0021     		movs	r1, #0
 230              	.LBE128:
 231              	.LBE127:
 232              	.LBE126:
 233              	.LBE125:
 234              	.LBE124:
 235              	.LBE123:
 236              	.LBB134:
 237              	.LBB121:
 238              	.LBB119:
 239              	.LBB117:
 240              		.loc 6 448 17 view .LVU67
 241 0052 2360     		str	r3, [r4]
 242              		.loc 6 449 3 is_stmt 1 view .LVU68
 243              		.loc 6 449 17 is_stmt 0 view .LVU69
 244 0054 6260     		str	r2, [r4, #4]
 245              		.loc 6 450 3 is_stmt 1 view .LVU70
 246              		.loc 6 450 17 is_stmt 0 view .LVU71
 247 0056 1460     		str	r4, [r2]
 248              		.loc 6 451 3 is_stmt 1 view .LVU72
 249              		.loc 6 451 17 is_stmt 0 view .LVU73
 250 0058 5C60     		str	r4, [r3, #4]
 251              		.loc 6 453 3 is_stmt 1 view .LVU74
 252              	.LVL12:
 253              		.loc 6 453 3 is_stmt 0 view .LVU75
 254              	.LBE117:
 255              	.LBE119:
 256              	.LBE121:
 257              	.LBE134:
 258              		.loc 1 230 3 is_stmt 1 view .LVU76
 259              	.LBB135:
 260              	.LBI123:
 261              		.loc 3 438 20 view .LVU77
 262              	.LBB133:
 263              		.loc 3 440 32 view .LVU78
 264              		.loc 3 441 34 view .LVU79
 265              		.loc 3 442 3 view .LVU80
 266              	.LBB132:
 267              	.LBI125:
 268              		.loc 4 890 27 view .LVU81
 269              		.loc 4 892 3 view .LVU82
 270              	.LBB131:
 271              	.LBI126:
 272              		.loc 4 864 27 view .LVU83
 273              		.loc 4 867 3 view .LVU84
 274              	.LBB130:
 275              	.LBI127:
 276              		.loc 2 491 27 view .LVU85
 277              	.LBB129:
 278              		.loc 2 493 3 view .LVU86
 279              		.syntax unified
 280              	@ 493 "./ChibiOS/os/common/ext/ARM/CMSIS/Core/Include/cmsis_gcc.h" 1
 281 005a 81F31188 		MSR basepri, r1
 282              	@ 0 "" 2
 283              	.LVL13:
 284              		.loc 2 493 3 is_stmt 0 view .LVU87
 285              		.thumb
ARM GAS  C:\Users\DEVELO~1\AppData\Local\Temp\ccyQDiwM.s 			page 6


 286              		.syntax unified
 287              	.LBE129:
 288              	.LBE130:
 289              	.LBE131:
 290              	.LBE132:
 291              	.LBE133:
 292              	.LBE135:
 293              		.loc 1 233 1 view .LVU88
 294 005e 10BD     		pop	{r4, pc}
 295              	.LVL14:
 296              	.L6:
 297              		.loc 1 201 5 is_stmt 1 view .LVU89
 298              		.loc 1 201 11 is_stmt 0 view .LVU90
 299 0060 4B6B     		ldr	r3, [r1, #52]
 300              		.loc 1 201 18 view .LVU91
 301 0062 0022     		movs	r2, #0
 302 0064 1A60     		str	r2, [r3]
 303              		.loc 1 202 5 is_stmt 1 view .LVU92
 304 0066 E4E7     		b	.L2
 305              	.L7:
 306              		.loc 1 198 5 view .LVU93
 307              	.LBB136:
 308              	.LBI136:
 309              		.loc 3 438 20 view .LVU94
 310              	.LBB137:
 311              		.loc 3 440 32 view .LVU95
 312              		.loc 3 441 34 view .LVU96
 313              		.loc 3 442 3 view .LVU97
 314              	.LBB138:
 315              	.LBI138:
 316              		.loc 4 890 27 view .LVU98
 317              		.loc 4 892 3 view .LVU99
 318              	.LBB139:
 319              	.LBI139:
 320              		.loc 4 864 27 view .LVU100
 321              		.loc 4 867 3 view .LVU101
 322              	.LVL15:
 323              	.LBB140:
 324              	.LBI140:
 325              		.loc 2 491 27 view .LVU102
 326              	.LBB141:
 327              		.loc 2 493 3 view .LVU103
 328 0068 0023     		movs	r3, #0
 329              		.syntax unified
 330              	@ 493 "./ChibiOS/os/common/ext/ARM/CMSIS/Core/Include/cmsis_gcc.h" 1
 331 006a 83F31188 		MSR basepri, r3
 332              	@ 0 "" 2
 333              	.LVL16:
 334              		.loc 2 493 3 is_stmt 0 view .LVU104
 335              		.thumb
 336              		.syntax unified
 337              	.LBE141:
 338              	.LBE140:
 339              	.LBE139:
 340              	.LBE138:
 341              	.LBE137:
 342              	.LBE136:
ARM GAS  C:\Users\DEVELO~1\AppData\Local\Temp\ccyQDiwM.s 			page 7


 343              		.loc 1 233 1 view .LVU105
 344 006e 10BD     		pop	{r4, pc}
 345              		.cfi_endproc
 346              	.LFE356:
 347              		.size	__sch_wakeup, .-__sch_wakeup
 348              		.section	.text.chSchReadyI,"ax",%progbits
 349              		.align	1
 350              		.p2align 4,,15
 351              		.global	chSchReadyI
 352              		.syntax unified
 353              		.thumb
 354              		.thumb_func
 355              		.type	chSchReadyI, %function
 356              	chSchReadyI:
 357              	.LVL17:
 358              	.LFB357:
 359              		.loc 1 280 37 is_stmt 1 view -0
 360              		.cfi_startproc
 361              		@ args = 0, pretend = 0, frame = 0
 362              		@ frame_needed = 0, uses_anonymous_args = 0
 363              		.loc 1 282 21 view .LVU107
 364              		.loc 1 283 3 view .LVU108
 365              		.loc 1 283 3 view .LVU109
 366              		.loc 1 283 3 view .LVU110
 367              		.loc 1 293 3 view .LVU111
 368              		.loc 1 280 37 is_stmt 0 view .LVU112
 369 0000 10B5     		push	{r4, lr}
 370              		.cfi_def_cfa_offset 8
 371              		.cfi_offset 4, -8
 372              		.cfi_offset 14, -4
 373              		.loc 1 280 37 view .LVU113
 374 0002 0446     		mov	r4, r0
 375              	.LVL18:
 376              	.LBB147:
 377              	.LBI147:
 378              		.loc 1 67 18 is_stmt 1 view .LVU114
 379              	.LBB148:
 380              		.loc 1 69 3 view .LVU115
 381              		.loc 1 69 3 view .LVU116
 382              		.loc 1 69 3 view .LVU117
 383              		.loc 1 74 3 view .LVU118
 384 0004 416B     		ldr	r1, [r0, #52]
 385 0006 FFF7FEFF 		bl	__trace_ready
 386              	.LVL19:
 387              		.loc 1 77 3 view .LVU119
 388              		.loc 1 77 13 is_stmt 0 view .LVU120
 389 000a 0022     		movs	r2, #0
 390              		.loc 1 80 10 view .LVU121
 391 000c 2369     		ldr	r3, [r4, #16]
 392              	.LBB149:
 393              	.LBB150:
 394              		.loc 6 445 12 view .LVU122
 395 000e A168     		ldr	r1, [r4, #8]
 396              	.LBE150:
 397              	.LBE149:
 398              		.loc 1 77 13 view .LVU123
 399 0010 2277     		strb	r2, [r4, #28]
ARM GAS  C:\Users\DEVELO~1\AppData\Local\Temp\ccyQDiwM.s 			page 8


 400              		.loc 1 80 3 is_stmt 1 view .LVU124
 401              	.LVL20:
 402              	.LBB154:
 403              	.LBI149:
 404              		.loc 6 433 36 view .LVU125
 405              	.L16:
 406              	.LBB152:
 407              		.loc 6 437 3 view .LVU126
 408              	.LBB151:
 409              		.loc 6 438 5 view .LVU127
 410              		.loc 6 438 26 is_stmt 0 view .LVU128
 411 0012 1B68     		ldr	r3, [r3]
 412              	.LVL21:
 413              		.loc 6 441 5 is_stmt 1 view .LVU129
 414              		.loc 6 442 5 view .LVU130
 415              		.loc 6 442 5 view .LVU131
 416              		.loc 6 442 5 view .LVU132
 417              		.loc 6 442 5 view .LVU133
 418              		.loc 6 444 5 view .LVU134
 419              		.loc 6 444 5 is_stmt 0 view .LVU135
 420              	.LBE151:
 421              		.loc 6 445 12 is_stmt 1 view .LVU136
 422 0014 9A68     		ldr	r2, [r3, #8]
 423 0016 8A42     		cmp	r2, r1
 424 0018 FBD2     		bcs	.L16
 425              		.loc 6 448 3 view .LVU137
 426              		.loc 6 449 22 is_stmt 0 view .LVU138
 427 001a 5A68     		ldr	r2, [r3, #4]
 428              	.LBE152:
 429              	.LBE154:
 430              	.LBE148:
 431              	.LBE147:
 432              		.loc 1 294 1 view .LVU139
 433 001c 2046     		mov	r0, r4
 434              	.LBB157:
 435              	.LBB156:
 436              	.LBB155:
 437              	.LBB153:
 438              		.loc 6 448 17 view .LVU140
 439 001e 2360     		str	r3, [r4]
 440              		.loc 6 449 3 is_stmt 1 view .LVU141
 441              		.loc 6 449 17 is_stmt 0 view .LVU142
 442 0020 6260     		str	r2, [r4, #4]
 443              		.loc 6 450 3 is_stmt 1 view .LVU143
 444              		.loc 6 450 17 is_stmt 0 view .LVU144
 445 0022 1460     		str	r4, [r2]
 446              		.loc 6 451 3 is_stmt 1 view .LVU145
 447              		.loc 6 451 17 is_stmt 0 view .LVU146
 448 0024 5C60     		str	r4, [r3, #4]
 449              		.loc 6 453 3 is_stmt 1 view .LVU147
 450              	.LVL22:
 451              		.loc 6 453 3 is_stmt 0 view .LVU148
 452              	.LBE153:
 453              	.LBE155:
 454              	.LBE156:
 455              	.LBE157:
 456              		.loc 1 294 1 view .LVU149
ARM GAS  C:\Users\DEVELO~1\AppData\Local\Temp\ccyQDiwM.s 			page 9


 457 0026 10BD     		pop	{r4, pc}
 458              		.loc 1 294 1 view .LVU150
 459              		.cfi_endproc
 460              	.LFE357:
 461              		.size	chSchReadyI, .-chSchReadyI
 462              		.section	.text.chSchGoSleepS,"ax",%progbits
 463              		.align	1
 464              		.p2align 4,,15
 465              		.global	chSchGoSleepS
 466              		.syntax unified
 467              		.thumb
 468              		.thumb_func
 469              		.type	chSchGoSleepS, %function
 470              	chSchGoSleepS:
 471              	.LVL23:
 472              	.LFB358:
 473              		.loc 1 305 39 is_stmt 1 view -0
 474              		.cfi_startproc
 475              		@ args = 0, pretend = 0, frame = 0
 476              		@ frame_needed = 0, uses_anonymous_args = 0
 477              		.loc 1 306 3 view .LVU152
 478              		.loc 1 307 3 view .LVU153
 479              		.loc 1 305 39 is_stmt 0 view .LVU154
 480 0000 38B5     		push	{r3, r4, r5, lr}
 481              		.cfi_def_cfa_offset 16
 482              		.cfi_offset 3, -16
 483              		.cfi_offset 4, -12
 484              		.cfi_offset 5, -8
 485              		.cfi_offset 14, -4
 486              		.loc 1 307 13 view .LVU155
 487 0002 0A4B     		ldr	r3, .L21
 488              		.loc 1 326 14 view .LVU156
 489 0004 0121     		movs	r1, #1
 490              	.LBB160:
 491              	.LBB161:
 492              		.loc 6 413 24 view .LVU157
 493 0006 1C68     		ldr	r4, [r3]
 494              	.LBE161:
 495              	.LBE160:
 496              		.loc 1 307 13 view .LVU158
 497 0008 DD68     		ldr	r5, [r3, #12]
 498              	.LVL24:
 499              		.loc 1 308 3 is_stmt 1 view .LVU159
 500              		.loc 1 310 21 view .LVU160
 501              		.loc 1 312 3 view .LVU161
 502              		.loc 1 312 3 view .LVU162
 503              		.loc 1 312 3 view .LVU163
 504              		.loc 1 313 3 view .LVU164
 505              		.loc 1 313 3 view .LVU165
 506              		.loc 1 313 3 view .LVU166
 507              		.loc 1 316 3 view .LVU167
 508              		.loc 1 316 14 is_stmt 0 view .LVU168
 509 000a 2877     		strb	r0, [r5, #28]
 510              		.loc 1 325 3 is_stmt 1 view .LVU169
 511              	.LVL25:
 512              	.LBB164:
 513              	.LBI160:
ARM GAS  C:\Users\DEVELO~1\AppData\Local\Temp\ccyQDiwM.s 			page 10


 514              		.loc 6 412 36 view .LVU170
 515              	.LBB162:
 516              		.loc 6 413 3 view .LVU171
 517              		.loc 6 415 3 view .LVU172
 518              	.LBE162:
 519              	.LBE164:
 520              		.loc 1 335 3 is_stmt 0 view .LVU173
 521 000c 2046     		mov	r0, r4
 522              	.LVL26:
 523              	.LBB165:
 524              	.LBB163:
 525              		.loc 6 415 22 view .LVU174
 526 000e 2268     		ldr	r2, [r4]
 527              		.loc 6 416 19 view .LVU175
 528 0010 5360     		str	r3, [r2, #4]
 529              	.LVL27:
 530              		.loc 6 415 19 view .LVU176
 531 0012 1A60     		str	r2, [r3]
 532              		.loc 6 416 3 is_stmt 1 view .LVU177
 533              		.loc 6 418 3 view .LVU178
 534              	.LVL28:
 535              		.loc 6 418 3 is_stmt 0 view .LVU179
 536              	.LBE163:
 537              	.LBE165:
 538              		.loc 1 326 3 is_stmt 1 view .LVU180
 539              		.loc 1 327 3 view .LVU181
 540              		.loc 1 326 14 is_stmt 0 view .LVU182
 541 0014 2177     		strb	r1, [r4, #28]
 542              		.loc 1 335 3 view .LVU183
 543 0016 2946     		mov	r1, r5
 544              		.loc 1 327 3 view .LVU184
 545 0018 DC60     		str	r4, [r3, #12]
 546              		.loc 1 330 3 is_stmt 1 view .LVU185
 547              		.loc 1 331 5 view .LVU186
 548              		.loc 1 331 29 view .LVU187
 549              		.loc 1 335 3 view .LVU188
 550 001a FFF7FEFF 		bl	__trace_switch
 551              	.LVL29:
 552              		.loc 1 335 3 view .LVU189
 553              		.loc 1 335 3 view .LVU190
 554              		.loc 1 335 3 view .LVU191
 555              		.loc 1 335 3 view .LVU192
 556 001e 2946     		mov	r1, r5
 557 0020 2046     		mov	r0, r4
 558              		.loc 1 336 1 is_stmt 0 view .LVU193
 559 0022 BDE83840 		pop	{r3, r4, r5, lr}
 560              		.cfi_restore 14
 561              		.cfi_restore 5
 562              		.cfi_restore 4
 563              		.cfi_restore 3
 564              		.cfi_def_cfa_offset 0
 565              	.LVL30:
 566              		.loc 1 335 3 view .LVU194
 567 0026 FFF7FEBF 		b	__port_switch
 568              	.LVL31:
 569              	.L22:
 570              		.loc 1 335 3 view .LVU195
ARM GAS  C:\Users\DEVELO~1\AppData\Local\Temp\ccyQDiwM.s 			page 11


 571 002a 00BF     		.align	2
 572              	.L21:
 573 002c 00000000 		.word	ch0
 574              		.cfi_endproc
 575              	.LFE358:
 576              		.size	chSchGoSleepS, .-chSchGoSleepS
 577              		.section	.text.chSchGoSleepTimeoutS,"ax",%progbits
 578              		.align	1
 579              		.p2align 4,,15
 580              		.global	chSchGoSleepTimeoutS
 581              		.syntax unified
 582              		.thumb
 583              		.thumb_func
 584              		.type	chSchGoSleepTimeoutS, %function
 585              	chSchGoSleepTimeoutS:
 586              	.LVL32:
 587              	.LFB359:
 588              		.loc 1 358 70 is_stmt 1 view -0
 589              		.cfi_startproc
 590              		@ args = 0, pretend = 0, frame = 24
 591              		@ frame_needed = 0, uses_anonymous_args = 0
 592              		.loc 1 359 3 view .LVU197
 593              		.loc 1 358 70 is_stmt 0 view .LVU198
 594 0000 F0B5     		push	{r4, r5, r6, r7, lr}
 595              		.cfi_def_cfa_offset 20
 596              		.cfi_offset 4, -20
 597              		.cfi_offset 5, -16
 598              		.cfi_offset 6, -12
 599              		.cfi_offset 7, -8
 600              		.cfi_offset 14, -4
 601              		.loc 1 363 6 view .LVU199
 602 0002 4B1C     		adds	r3, r1, #1
 603              		.loc 1 359 13 view .LVU200
 604 0004 1A4C     		ldr	r4, .L31
 605              		.loc 1 358 70 view .LVU201
 606 0006 87B0     		sub	sp, sp, #28
 607              		.cfi_def_cfa_offset 48
 608              		.loc 1 358 70 view .LVU202
 609 0008 0546     		mov	r5, r0
 610              		.loc 1 359 13 view .LVU203
 611 000a E668     		ldr	r6, [r4, #12]
 612              	.LVL33:
 613              		.loc 1 361 21 is_stmt 1 view .LVU204
 614              		.loc 1 363 3 view .LVU205
 615              		.loc 1 363 6 is_stmt 0 view .LVU206
 616 000c 1DD0     		beq	.L24
 617              	.LBB177:
 618              		.loc 1 364 5 is_stmt 1 view .LVU207
 619              		.loc 1 366 5 view .LVU208
 620 000e 3346     		mov	r3, r6
 621 0010 184A     		ldr	r2, .L31+4
 622 0012 6846     		mov	r0, sp
 623              	.LVL34:
 624              		.loc 1 366 5 is_stmt 0 view .LVU209
 625 0014 FFF7FEFF 		bl	chVTDoSetI
 626              	.LVL35:
 627              		.loc 1 367 5 is_stmt 1 view .LVU210
ARM GAS  C:\Users\DEVELO~1\AppData\Local\Temp\ccyQDiwM.s 			page 12


 628              	.LBB178:
 629              	.LBI178:
 630              		.loc 1 305 6 view .LVU211
 631              	.LBB179:
 632              		.loc 1 306 3 view .LVU212
 633              		.loc 1 307 3 view .LVU213
 634              		.loc 1 307 13 is_stmt 0 view .LVU214
 635 0018 E768     		ldr	r7, [r4, #12]
 636              	.LVL36:
 637              		.loc 1 308 3 is_stmt 1 view .LVU215
 638              		.loc 1 310 21 view .LVU216
 639              		.loc 1 312 3 view .LVU217
 640              		.loc 1 312 3 view .LVU218
 641              		.loc 1 312 3 view .LVU219
 642              		.loc 1 313 3 view .LVU220
 643              		.loc 1 313 3 view .LVU221
 644              		.loc 1 313 3 view .LVU222
 645              		.loc 1 316 3 view .LVU223
 646              		.loc 1 326 14 is_stmt 0 view .LVU224
 647 001a 0122     		movs	r2, #1
 648              		.loc 1 316 14 view .LVU225
 649 001c 3D77     		strb	r5, [r7, #28]
 650              		.loc 1 325 3 is_stmt 1 view .LVU226
 651              	.LVL37:
 652              	.LBB180:
 653              	.LBI180:
 654              		.loc 6 412 36 view .LVU227
 655              	.LBB181:
 656              		.loc 6 413 3 view .LVU228
 657              	.LBE181:
 658              	.LBE180:
 659              		.loc 1 335 3 is_stmt 0 view .LVU229
 660 001e 3946     		mov	r1, r7
 661              	.LBB185:
 662              	.LBB182:
 663              		.loc 6 413 24 view .LVU230
 664 0020 2568     		ldr	r5, [r4]
 665              	.LVL38:
 666              		.loc 6 415 3 is_stmt 1 view .LVU231
 667              		.loc 6 415 22 is_stmt 0 view .LVU232
 668 0022 2B68     		ldr	r3, [r5]
 669              	.LBE182:
 670              	.LBE185:
 671              		.loc 1 335 3 view .LVU233
 672 0024 2846     		mov	r0, r5
 673              	.LBB186:
 674              	.LBB183:
 675              		.loc 6 416 19 view .LVU234
 676 0026 5C60     		str	r4, [r3, #4]
 677              	.LVL39:
 678              		.loc 6 416 19 view .LVU235
 679              	.LBE183:
 680              	.LBE186:
 681              		.loc 1 326 14 view .LVU236
 682 0028 2A77     		strb	r2, [r5, #28]
 683              	.LBB187:
 684              	.LBB184:
ARM GAS  C:\Users\DEVELO~1\AppData\Local\Temp\ccyQDiwM.s 			page 13


 685              		.loc 6 415 19 view .LVU237
 686 002a 2360     		str	r3, [r4]
 687              		.loc 6 416 3 is_stmt 1 view .LVU238
 688              		.loc 6 418 3 view .LVU239
 689              	.LVL40:
 690              		.loc 6 418 3 is_stmt 0 view .LVU240
 691              	.LBE184:
 692              	.LBE187:
 693              		.loc 1 326 3 is_stmt 1 view .LVU241
 694              		.loc 1 327 3 view .LVU242
 695 002c E560     		str	r5, [r4, #12]
 696              		.loc 1 330 3 view .LVU243
 697              		.loc 1 331 5 view .LVU244
 698              		.loc 1 331 29 view .LVU245
 699              		.loc 1 335 3 view .LVU246
 700 002e FFF7FEFF 		bl	__trace_switch
 701              	.LVL41:
 702              		.loc 1 335 3 view .LVU247
 703              		.loc 1 335 3 view .LVU248
 704              		.loc 1 335 3 view .LVU249
 705              		.loc 1 335 3 view .LVU250
 706 0032 3946     		mov	r1, r7
 707 0034 2846     		mov	r0, r5
 708 0036 FFF7FEFF 		bl	__port_switch
 709              	.LVL42:
 710              		.loc 1 335 24 view .LVU251
 711              		.loc 1 335 24 is_stmt 0 view .LVU252
 712              	.LBE179:
 713              	.LBE178:
 714              		.loc 1 368 5 is_stmt 1 view .LVU253
 715              	.LBB188:
 716              	.LBI188:
 717              		.file 7 "./ChibiOS/os/rt/include/chvt.h"
 718              		.loc 7 261 20 view .LVU254
 719              	.LBB189:
 720              		.loc 7 263 21 view .LVU255
 721              		.loc 7 265 3 view .LVU256
 722              		.loc 7 265 3 is_stmt 0 view .LVU257
 723              	.LBE189:
 724              	.LBE188:
 725              		.loc 1 368 8 view .LVU258
 726 003a 009B     		ldr	r3, [sp]
 727 003c 13B1     		cbz	r3, .L26
 728              		.loc 1 369 7 is_stmt 1 view .LVU259
 729 003e 6846     		mov	r0, sp
 730 0040 FFF7FEFF 		bl	chVTDoResetI
 731              	.LVL43:
 732              	.L26:
 733              	.LBE177:
 734              		.loc 1 376 3 view .LVU260
 735              		.loc 1 377 1 is_stmt 0 view .LVU261
 736 0044 706B     		ldr	r0, [r6, #52]
 737 0046 07B0     		add	sp, sp, #28
 738              		.cfi_remember_state
 739              		.cfi_def_cfa_offset 20
 740              		@ sp needed
 741 0048 F0BD     		pop	{r4, r5, r6, r7, pc}
ARM GAS  C:\Users\DEVELO~1\AppData\Local\Temp\ccyQDiwM.s 			page 14


 742              	.LVL44:
 743              	.L24:
 744              		.cfi_restore_state
 745              		.loc 1 373 5 is_stmt 1 view .LVU262
 746              	.LBB190:
 747              	.LBI190:
 748              		.loc 1 305 6 view .LVU263
 749              	.LBB191:
 750              		.loc 1 306 3 view .LVU264
 751              		.loc 1 307 3 view .LVU265
 752              		.loc 1 308 3 view .LVU266
 753              		.loc 1 310 21 view .LVU267
 754              		.loc 1 312 3 view .LVU268
 755              		.loc 1 312 3 view .LVU269
 756              		.loc 1 312 3 view .LVU270
 757              		.loc 1 313 3 view .LVU271
 758              		.loc 1 313 3 view .LVU272
 759              		.loc 1 313 3 view .LVU273
 760              		.loc 1 316 3 view .LVU274
 761              	.LBB192:
 762              	.LBB193:
 763              		.loc 6 413 24 is_stmt 0 view .LVU275
 764 004a 2768     		ldr	r7, [r4]
 765              	.LBE193:
 766              	.LBE192:
 767              		.loc 1 326 14 view .LVU276
 768 004c 0122     		movs	r2, #1
 769              		.loc 1 316 14 view .LVU277
 770 004e 3077     		strb	r0, [r6, #28]
 771              		.loc 1 325 3 is_stmt 1 view .LVU278
 772              	.LVL45:
 773              	.LBB198:
 774              	.LBI192:
 775              		.loc 6 412 36 view .LVU279
 776              	.LBB194:
 777              		.loc 6 413 3 view .LVU280
 778              		.loc 6 415 3 view .LVU281
 779              	.LBE194:
 780              	.LBE198:
 781              		.loc 1 335 3 is_stmt 0 view .LVU282
 782 0050 3146     		mov	r1, r6
 783              	.LVL46:
 784              	.LBB199:
 785              	.LBB195:
 786              		.loc 6 415 22 view .LVU283
 787 0052 3B68     		ldr	r3, [r7]
 788              	.LVL47:
 789              		.loc 6 415 22 view .LVU284
 790              	.LBE195:
 791              	.LBE199:
 792              		.loc 1 335 3 view .LVU285
 793 0054 3846     		mov	r0, r7
 794              	.LVL48:
 795              	.LBB200:
 796              	.LBB196:
 797              		.loc 6 416 19 view .LVU286
 798 0056 5C60     		str	r4, [r3, #4]
ARM GAS  C:\Users\DEVELO~1\AppData\Local\Temp\ccyQDiwM.s 			page 15


 799              	.LVL49:
 800              		.loc 6 416 19 view .LVU287
 801              	.LBE196:
 802              	.LBE200:
 803              		.loc 1 326 14 view .LVU288
 804 0058 3A77     		strb	r2, [r7, #28]
 805              	.LBB201:
 806              	.LBB197:
 807              		.loc 6 415 19 view .LVU289
 808 005a 2360     		str	r3, [r4]
 809              		.loc 6 416 3 is_stmt 1 view .LVU290
 810              		.loc 6 418 3 view .LVU291
 811              	.LVL50:
 812              		.loc 6 418 3 is_stmt 0 view .LVU292
 813              	.LBE197:
 814              	.LBE201:
 815              		.loc 1 326 3 is_stmt 1 view .LVU293
 816              		.loc 1 327 3 view .LVU294
 817 005c E760     		str	r7, [r4, #12]
 818              		.loc 1 330 3 view .LVU295
 819              		.loc 1 331 5 view .LVU296
 820              		.loc 1 331 29 view .LVU297
 821              		.loc 1 335 3 view .LVU298
 822 005e FFF7FEFF 		bl	__trace_switch
 823              	.LVL51:
 824              		.loc 1 335 3 view .LVU299
 825              		.loc 1 335 3 view .LVU300
 826              		.loc 1 335 3 view .LVU301
 827              		.loc 1 335 3 view .LVU302
 828 0062 3846     		mov	r0, r7
 829 0064 3146     		mov	r1, r6
 830 0066 FFF7FEFF 		bl	__port_switch
 831              	.LVL52:
 832              		.loc 1 335 24 view .LVU303
 833              		.loc 1 335 24 is_stmt 0 view .LVU304
 834              	.LBE191:
 835              	.LBE190:
 836              		.loc 1 376 3 is_stmt 1 view .LVU305
 837              		.loc 1 377 1 is_stmt 0 view .LVU306
 838 006a 706B     		ldr	r0, [r6, #52]
 839 006c 07B0     		add	sp, sp, #28
 840              		.cfi_def_cfa_offset 20
 841              		@ sp needed
 842 006e F0BD     		pop	{r4, r5, r6, r7, pc}
 843              	.LVL53:
 844              	.L32:
 845              		.loc 1 377 1 view .LVU307
 846              		.align	2
 847              	.L31:
 848 0070 00000000 		.word	ch0
 849 0074 00000000 		.word	__sch_wakeup
 850              		.cfi_endproc
 851              	.LFE359:
 852              		.size	chSchGoSleepTimeoutS, .-chSchGoSleepTimeoutS
 853              		.section	.text.chSchWakeupS,"ax",%progbits
 854              		.align	1
 855              		.p2align 4,,15
ARM GAS  C:\Users\DEVELO~1\AppData\Local\Temp\ccyQDiwM.s 			page 16


 856              		.global	chSchWakeupS
 857              		.syntax unified
 858              		.thumb
 859              		.thumb_func
 860              		.type	chSchWakeupS, %function
 861              	chSchWakeupS:
 862              	.LVL54:
 863              	.LFB360:
 864              		.loc 1 396 45 is_stmt 1 view -0
 865              		.cfi_startproc
 866              		@ args = 0, pretend = 0, frame = 0
 867              		@ frame_needed = 0, uses_anonymous_args = 0
 868              		.loc 1 397 3 view .LVU309
 869              		.loc 1 398 3 view .LVU310
 870              		.loc 1 396 45 is_stmt 0 view .LVU311
 871 0000 70B5     		push	{r4, r5, r6, lr}
 872              		.cfi_def_cfa_offset 16
 873              		.cfi_offset 4, -16
 874              		.cfi_offset 5, -12
 875              		.cfi_offset 6, -8
 876              		.cfi_offset 14, -4
 877              		.loc 1 398 13 view .LVU312
 878 0002 1B4E     		ldr	r6, .L43
 879              		.loc 1 396 45 view .LVU313
 880 0004 0546     		mov	r5, r0
 881              		.loc 1 426 6 view .LVU314
 882 0006 8268     		ldr	r2, [r0, #8]
 883              		.loc 1 398 13 view .LVU315
 884 0008 F468     		ldr	r4, [r6, #12]
 885              	.LVL55:
 886              		.loc 1 400 21 is_stmt 1 view .LVU316
 887              		.loc 1 402 3 view .LVU317
 888              		.loc 1 402 3 view .LVU318
 889              		.loc 1 402 3 view .LVU319
 890              		.loc 1 408 3 view .LVU320
 891              		.loc 1 426 3 view .LVU321
 892              		.loc 1 408 17 is_stmt 0 view .LVU322
 893 000a 4163     		str	r1, [r0, #52]
 894              		.loc 1 426 6 view .LVU323
 895 000c A368     		ldr	r3, [r4, #8]
 896 000e 9A42     		cmp	r2, r3
 897 0010 1DD9     		bls	.L42
 898              		.loc 1 432 5 is_stmt 1 view .LVU324
 899              	.LVL56:
 900              	.LBB212:
 901              	.LBI212:
 902              		.loc 1 100 18 view .LVU325
 903              	.LBB213:
 904              		.loc 1 102 3 view .LVU326
 905              		.loc 1 102 3 view .LVU327
 906              		.loc 1 102 3 view .LVU328
 907              		.loc 1 107 3 view .LVU329
 908 0012 616B     		ldr	r1, [r4, #52]
 909              	.LVL57:
 910              		.loc 1 107 3 is_stmt 0 view .LVU330
 911 0014 2046     		mov	r0, r4
 912              	.LVL58:
ARM GAS  C:\Users\DEVELO~1\AppData\Local\Temp\ccyQDiwM.s 			page 17


 913              		.loc 1 107 3 view .LVU331
 914 0016 FFF7FEFF 		bl	__trace_ready
 915              	.LVL59:
 916              		.loc 1 110 3 is_stmt 1 view .LVU332
 917              		.loc 1 110 13 is_stmt 0 view .LVU333
 918 001a 0022     		movs	r2, #0
 919              		.loc 1 113 10 view .LVU334
 920 001c 2369     		ldr	r3, [r4, #16]
 921              	.LBB214:
 922              	.LBB215:
 923              		.loc 6 484 12 view .LVU335
 924 001e A168     		ldr	r1, [r4, #8]
 925              	.LBE215:
 926              	.LBE214:
 927              		.loc 1 110 13 view .LVU336
 928 0020 2277     		strb	r2, [r4, #28]
 929              		.loc 1 113 3 is_stmt 1 view .LVU337
 930              	.LVL60:
 931              	.LBB220:
 932              	.LBI214:
 933              		.loc 6 472 36 view .LVU338
 934              	.L37:
 935              	.LBB217:
 936              		.loc 6 476 3 view .LVU339
 937              	.LBB216:
 938              		.loc 6 477 5 view .LVU340
 939              		.loc 6 477 26 is_stmt 0 view .LVU341
 940 0022 1B68     		ldr	r3, [r3]
 941              	.LVL61:
 942              		.loc 6 480 5 is_stmt 1 view .LVU342
 943              		.loc 6 481 5 view .LVU343
 944              		.loc 6 481 5 view .LVU344
 945              		.loc 6 481 5 view .LVU345
 946              		.loc 6 481 5 view .LVU346
 947              		.loc 6 483 5 view .LVU347
 948              		.loc 6 483 5 is_stmt 0 view .LVU348
 949              	.LBE216:
 950              		.loc 6 484 12 is_stmt 1 view .LVU349
 951 0024 9A68     		ldr	r2, [r3, #8]
 952 0026 8A42     		cmp	r2, r1
 953 0028 FBD8     		bhi	.L37
 954              		.loc 6 487 3 view .LVU350
 955              		.loc 6 488 22 is_stmt 0 view .LVU351
 956 002a 5A68     		ldr	r2, [r3, #4]
 957              	.LBE217:
 958              	.LBE220:
 959              	.LBE213:
 960              	.LBE212:
 961              		.loc 1 444 5 view .LVU352
 962 002c 2146     		mov	r1, r4
 963 002e 2846     		mov	r0, r5
 964              	.LBB225:
 965              	.LBB223:
 966              	.LBB221:
 967              	.LBB218:
 968              		.loc 6 488 17 view .LVU353
 969 0030 C4E90032 		strd	r3, r2, [r4]
ARM GAS  C:\Users\DEVELO~1\AppData\Local\Temp\ccyQDiwM.s 			page 18


 970              		.loc 6 489 3 is_stmt 1 view .LVU354
 971              		.loc 6 489 17 is_stmt 0 view .LVU355
 972 0034 1460     		str	r4, [r2]
 973              		.loc 6 490 3 is_stmt 1 view .LVU356
 974              	.LBE218:
 975              	.LBE221:
 976              	.LBE223:
 977              	.LBE225:
 978              		.loc 1 440 16 is_stmt 0 view .LVU357
 979 0036 0122     		movs	r2, #1
 980              	.LBB226:
 981              	.LBB224:
 982              	.LBB222:
 983              	.LBB219:
 984              		.loc 6 490 17 view .LVU358
 985 0038 5C60     		str	r4, [r3, #4]
 986              		.loc 6 492 3 is_stmt 1 view .LVU359
 987              	.LVL62:
 988              		.loc 6 492 3 is_stmt 0 view .LVU360
 989              	.LBE219:
 990              	.LBE222:
 991              	.LBE224:
 992              	.LBE226:
 993              		.loc 1 435 5 is_stmt 1 view .LVU361
 994              		.loc 1 436 7 view .LVU362
 995              		.loc 1 436 31 view .LVU363
 996              		.loc 1 440 5 view .LVU364
 997              		.loc 1 440 16 is_stmt 0 view .LVU365
 998 003a 2A77     		strb	r2, [r5, #28]
 999              		.loc 1 441 5 is_stmt 1 view .LVU366
 1000              		.loc 1 444 5 view .LVU367
 1001              		.loc 1 441 5 is_stmt 0 view .LVU368
 1002 003c F560     		str	r5, [r6, #12]
 1003              		.loc 1 444 5 view .LVU369
 1004 003e FFF7FEFF 		bl	__trace_switch
 1005              	.LVL63:
 1006              		.loc 1 444 5 is_stmt 1 view .LVU370
 1007              		.loc 1 444 5 view .LVU371
 1008              		.loc 1 444 5 view .LVU372
 1009              		.loc 1 444 5 view .LVU373
 1010 0042 2146     		mov	r1, r4
 1011 0044 2846     		mov	r0, r5
 1012              		.loc 1 446 1 is_stmt 0 view .LVU374
 1013 0046 BDE87040 		pop	{r4, r5, r6, lr}
 1014              		.cfi_remember_state
 1015              		.cfi_restore 14
 1016              		.cfi_restore 6
 1017              		.cfi_restore 5
 1018              		.cfi_restore 4
 1019              		.cfi_def_cfa_offset 0
 1020              	.LVL64:
 1021              		.loc 1 444 5 view .LVU375
 1022 004a FFF7FEBF 		b	__port_switch
 1023              	.LVL65:
 1024              	.L42:
 1025              		.cfi_restore_state
 1026              		.loc 1 427 5 is_stmt 1 view .LVU376
ARM GAS  C:\Users\DEVELO~1\AppData\Local\Temp\ccyQDiwM.s 			page 19


 1027              	.LBB227:
 1028              	.LBI227:
 1029              		.loc 1 67 18 view .LVU377
 1030              	.LBB228:
 1031              		.loc 1 69 3 view .LVU378
 1032              		.loc 1 69 3 view .LVU379
 1033              		.loc 1 69 3 view .LVU380
 1034              		.loc 1 74 3 view .LVU381
 1035 004e FFF7FEFF 		bl	__trace_ready
 1036              	.LVL66:
 1037              		.loc 1 77 3 view .LVU382
 1038              		.loc 1 77 13 is_stmt 0 view .LVU383
 1039 0052 0022     		movs	r2, #0
 1040              		.loc 1 80 10 view .LVU384
 1041 0054 2B69     		ldr	r3, [r5, #16]
 1042              	.LBB229:
 1043              	.LBB230:
 1044              		.loc 6 445 12 view .LVU385
 1045 0056 A968     		ldr	r1, [r5, #8]
 1046              	.LBE230:
 1047              	.LBE229:
 1048              		.loc 1 77 13 view .LVU386
 1049 0058 2A77     		strb	r2, [r5, #28]
 1050              		.loc 1 80 3 is_stmt 1 view .LVU387
 1051              	.LVL67:
 1052              	.LBB233:
 1053              	.LBI229:
 1054              		.loc 6 433 36 view .LVU388
 1055              	.L35:
 1056              	.LBB232:
 1057              		.loc 6 437 3 view .LVU389
 1058              	.LBB231:
 1059              		.loc 6 438 5 view .LVU390
 1060              		.loc 6 438 26 is_stmt 0 view .LVU391
 1061 005a 1B68     		ldr	r3, [r3]
 1062              	.LVL68:
 1063              		.loc 6 441 5 is_stmt 1 view .LVU392
 1064              		.loc 6 442 5 view .LVU393
 1065              		.loc 6 442 5 view .LVU394
 1066              		.loc 6 442 5 view .LVU395
 1067              		.loc 6 442 5 view .LVU396
 1068              		.loc 6 444 5 view .LVU397
 1069              		.loc 6 444 5 is_stmt 0 view .LVU398
 1070              	.LBE231:
 1071              		.loc 6 445 12 is_stmt 1 view .LVU399
 1072 005c 9A68     		ldr	r2, [r3, #8]
 1073 005e 8A42     		cmp	r2, r1
 1074 0060 FBD2     		bcs	.L35
 1075              		.loc 6 448 3 view .LVU400
 1076              		.loc 6 449 22 is_stmt 0 view .LVU401
 1077 0062 5A68     		ldr	r2, [r3, #4]
 1078              		.loc 6 449 17 view .LVU402
 1079 0064 C5E90032 		strd	r3, r2, [r5]
 1080              		.loc 6 450 3 is_stmt 1 view .LVU403
 1081              		.loc 6 450 17 is_stmt 0 view .LVU404
 1082 0068 1560     		str	r5, [r2]
 1083              		.loc 6 451 3 is_stmt 1 view .LVU405
ARM GAS  C:\Users\DEVELO~1\AppData\Local\Temp\ccyQDiwM.s 			page 20


 1084              		.loc 6 451 17 is_stmt 0 view .LVU406
 1085 006a 5D60     		str	r5, [r3, #4]
 1086              		.loc 6 453 3 is_stmt 1 view .LVU407
 1087              	.LVL69:
 1088              		.loc 6 453 3 is_stmt 0 view .LVU408
 1089              	.LBE232:
 1090              	.LBE233:
 1091              	.LBE228:
 1092              	.LBE227:
 1093              		.loc 1 446 1 view .LVU409
 1094 006c 70BD     		pop	{r4, r5, r6, pc}
 1095              	.LVL70:
 1096              	.L44:
 1097              		.loc 1 446 1 view .LVU410
 1098 006e 00BF     		.align	2
 1099              	.L43:
 1100 0070 00000000 		.word	ch0
 1101              		.cfi_endproc
 1102              	.LFE360:
 1103              		.size	chSchWakeupS, .-chSchWakeupS
 1104              		.section	.text.chSchIsPreemptionRequired,"ax",%progbits
 1105              		.align	1
 1106              		.p2align 4,,15
 1107              		.global	chSchIsPreemptionRequired
 1108              		.syntax unified
 1109              		.thumb
 1110              		.thumb_func
 1111              		.type	chSchIsPreemptionRequired, %function
 1112              	chSchIsPreemptionRequired:
 1113              	.LFB362:
 1114              		.loc 1 484 38 is_stmt 1 view -0
 1115              		.cfi_startproc
 1116              		@ args = 0, pretend = 0, frame = 0
 1117              		@ frame_needed = 0, uses_anonymous_args = 0
 1118              		@ link register save eliminated.
 1119              		.loc 1 485 3 view .LVU412
 1120              	.LVL71:
 1121              		.loc 1 486 3 view .LVU413
 1122              		.loc 1 488 3 view .LVU414
 1123              		.loc 1 489 3 view .LVU415
 1124              		.loc 1 500 3 view .LVU416
 1125              		.loc 1 488 16 is_stmt 0 view .LVU417
 1126 0000 044B     		ldr	r3, .L46
 1127              	.LVL72:
 1128              		.loc 1 488 11 view .LVU418
 1129 0002 1A68     		ldr	r2, [r3]
 1130              		.loc 1 489 11 view .LVU419
 1131 0004 DB68     		ldr	r3, [r3, #12]
 1132              	.LVL73:
 1133              		.loc 1 500 13 view .LVU420
 1134 0006 9068     		ldr	r0, [r2, #8]
 1135 0008 9B68     		ldr	r3, [r3, #8]
 1136              		.loc 1 502 1 view .LVU421
 1137 000a 9842     		cmp	r0, r3
 1138 000c 94BF     		ite	ls
 1139 000e 0020     		movls	r0, #0
 1140 0010 0120     		movhi	r0, #1
ARM GAS  C:\Users\DEVELO~1\AppData\Local\Temp\ccyQDiwM.s 			page 21


 1141 0012 7047     		bx	lr
 1142              	.L47:
 1143              		.align	2
 1144              	.L46:
 1145 0014 00000000 		.word	ch0
 1146              		.cfi_endproc
 1147              	.LFE362:
 1148              		.size	chSchIsPreemptionRequired, .-chSchIsPreemptionRequired
 1149              		.section	.text.chSchDoPreemption,"ax",%progbits
 1150              		.align	1
 1151              		.p2align 4,,15
 1152              		.global	chSchDoPreemption
 1153              		.syntax unified
 1154              		.thumb
 1155              		.thumb_func
 1156              		.type	chSchDoPreemption, %function
 1157              	chSchDoPreemption:
 1158              	.LFB363:
 1159              		.loc 1 516 30 is_stmt 1 view -0
 1160              		.cfi_startproc
 1161              		@ args = 0, pretend = 0, frame = 0
 1162              		@ frame_needed = 0, uses_anonymous_args = 0
 1163              		.loc 1 517 3 view .LVU423
 1164              	.LVL74:
 1165              		.loc 1 518 3 view .LVU424
 1166              		.loc 1 516 30 is_stmt 0 view .LVU425
 1167 0000 38B5     		push	{r3, r4, r5, lr}
 1168              		.cfi_def_cfa_offset 16
 1169              		.cfi_offset 3, -16
 1170              		.cfi_offset 4, -12
 1171              		.cfi_offset 5, -8
 1172              		.cfi_offset 14, -4
 1173              		.loc 1 518 13 view .LVU426
 1174 0002 124B     		ldr	r3, .L52
 1175              		.loc 1 523 14 view .LVU427
 1176 0004 0121     		movs	r1, #1
 1177              	.LBB241:
 1178              	.LBB242:
 1179              		.loc 6 413 24 view .LVU428
 1180 0006 1D68     		ldr	r5, [r3]
 1181              	.LBE242:
 1182              	.LBE241:
 1183              		.loc 1 518 13 view .LVU429
 1184 0008 DC68     		ldr	r4, [r3, #12]
 1185              	.LVL75:
 1186              		.loc 1 519 3 is_stmt 1 view .LVU430
 1187              		.loc 1 522 3 view .LVU431
 1188              	.LBB245:
 1189              	.LBI241:
 1190              		.loc 6 412 36 view .LVU432
 1191              	.LBB243:
 1192              		.loc 6 413 3 view .LVU433
 1193              		.loc 6 415 3 view .LVU434
 1194              		.loc 6 415 22 is_stmt 0 view .LVU435
 1195 000a 2A68     		ldr	r2, [r5]
 1196              	.LBE243:
 1197              	.LBE245:
ARM GAS  C:\Users\DEVELO~1\AppData\Local\Temp\ccyQDiwM.s 			page 22


 1198              	.LBB246:
 1199              	.LBB247:
 1200              		.loc 1 107 3 view .LVU436
 1201 000c 2046     		mov	r0, r4
 1202              	.LBE247:
 1203              	.LBE246:
 1204              	.LBB261:
 1205              	.LBB244:
 1206              		.loc 6 416 19 view .LVU437
 1207 000e 5360     		str	r3, [r2, #4]
 1208              		.loc 6 415 19 view .LVU438
 1209 0010 1A60     		str	r2, [r3]
 1210              		.loc 6 416 3 is_stmt 1 view .LVU439
 1211              		.loc 6 418 3 view .LVU440
 1212              	.LVL76:
 1213              		.loc 6 418 3 is_stmt 0 view .LVU441
 1214              	.LBE244:
 1215              	.LBE261:
 1216              		.loc 1 523 3 is_stmt 1 view .LVU442
 1217              		.loc 1 524 3 view .LVU443
 1218              		.loc 1 523 14 is_stmt 0 view .LVU444
 1219 0012 2977     		strb	r1, [r5, #28]
 1220              	.LBB262:
 1221              	.LBB257:
 1222              		.loc 1 107 3 view .LVU445
 1223 0014 616B     		ldr	r1, [r4, #52]
 1224              	.LBE257:
 1225              	.LBE262:
 1226              		.loc 1 524 3 view .LVU446
 1227 0016 DD60     		str	r5, [r3, #12]
 1228              		.loc 1 527 3 is_stmt 1 view .LVU447
 1229              		.loc 1 528 5 view .LVU448
 1230              		.loc 1 528 29 view .LVU449
 1231              		.loc 1 551 3 view .LVU450
 1232              	.LVL77:
 1233              	.LBB263:
 1234              	.LBI246:
 1235              		.loc 1 100 18 view .LVU451
 1236              	.LBB258:
 1237              		.loc 1 102 3 view .LVU452
 1238              		.loc 1 102 3 view .LVU453
 1239              		.loc 1 102 3 view .LVU454
 1240              		.loc 1 107 3 view .LVU455
 1241 0018 FFF7FEFF 		bl	__trace_ready
 1242              	.LVL78:
 1243              		.loc 1 110 3 view .LVU456
 1244              		.loc 1 110 13 is_stmt 0 view .LVU457
 1245 001c 0022     		movs	r2, #0
 1246              		.loc 1 113 10 view .LVU458
 1247 001e 2369     		ldr	r3, [r4, #16]
 1248              	.LBB248:
 1249              	.LBB249:
 1250              		.loc 6 484 12 view .LVU459
 1251 0020 A168     		ldr	r1, [r4, #8]
 1252              	.LBE249:
 1253              	.LBE248:
 1254              		.loc 1 110 13 view .LVU460
ARM GAS  C:\Users\DEVELO~1\AppData\Local\Temp\ccyQDiwM.s 			page 23


 1255 0022 2277     		strb	r2, [r4, #28]
 1256              		.loc 1 113 3 is_stmt 1 view .LVU461
 1257              	.LVL79:
 1258              	.LBB254:
 1259              	.LBI248:
 1260              		.loc 6 472 36 view .LVU462
 1261              	.L49:
 1262              	.LBB251:
 1263              		.loc 6 476 3 view .LVU463
 1264              	.LBB250:
 1265              		.loc 6 477 5 view .LVU464
 1266              		.loc 6 477 26 is_stmt 0 view .LVU465
 1267 0024 1B68     		ldr	r3, [r3]
 1268              	.LVL80:
 1269              		.loc 6 480 5 is_stmt 1 view .LVU466
 1270              		.loc 6 481 5 view .LVU467
 1271              		.loc 6 481 5 view .LVU468
 1272              		.loc 6 481 5 view .LVU469
 1273              		.loc 6 481 5 view .LVU470
 1274              		.loc 6 483 5 view .LVU471
 1275              		.loc 6 483 5 is_stmt 0 view .LVU472
 1276              	.LBE250:
 1277              		.loc 6 484 12 is_stmt 1 view .LVU473
 1278 0026 9A68     		ldr	r2, [r3, #8]
 1279 0028 8A42     		cmp	r2, r1
 1280 002a FBD8     		bhi	.L49
 1281              		.loc 6 487 3 view .LVU474
 1282              		.loc 6 488 22 is_stmt 0 view .LVU475
 1283 002c 5A68     		ldr	r2, [r3, #4]
 1284              	.LBE251:
 1285              	.LBE254:
 1286              	.LBE258:
 1287              	.LBE263:
 1288              		.loc 1 555 3 view .LVU476
 1289 002e 2146     		mov	r1, r4
 1290              	.LBB264:
 1291              	.LBB259:
 1292              	.LBB255:
 1293              	.LBB252:
 1294              		.loc 6 487 17 view .LVU477
 1295 0030 2360     		str	r3, [r4]
 1296              		.loc 6 488 3 is_stmt 1 view .LVU478
 1297              	.LBE252:
 1298              	.LBE255:
 1299              	.LBE259:
 1300              	.LBE264:
 1301              		.loc 1 555 3 is_stmt 0 view .LVU479
 1302 0032 2846     		mov	r0, r5
 1303              	.LBB265:
 1304              	.LBB260:
 1305              	.LBB256:
 1306              	.LBB253:
 1307              		.loc 6 488 17 view .LVU480
 1308 0034 6260     		str	r2, [r4, #4]
 1309              		.loc 6 489 3 is_stmt 1 view .LVU481
 1310              		.loc 6 489 17 is_stmt 0 view .LVU482
 1311 0036 1460     		str	r4, [r2]
ARM GAS  C:\Users\DEVELO~1\AppData\Local\Temp\ccyQDiwM.s 			page 24


 1312              		.loc 6 490 3 is_stmt 1 view .LVU483
 1313              		.loc 6 490 17 is_stmt 0 view .LVU484
 1314 0038 5C60     		str	r4, [r3, #4]
 1315              		.loc 6 492 3 is_stmt 1 view .LVU485
 1316              	.LVL81:
 1317              		.loc 6 492 3 is_stmt 0 view .LVU486
 1318              	.LBE253:
 1319              	.LBE256:
 1320              	.LBE260:
 1321              	.LBE265:
 1322              		.loc 1 555 3 is_stmt 1 view .LVU487
 1323 003a FFF7FEFF 		bl	__trace_switch
 1324              	.LVL82:
 1325              		.loc 1 555 3 view .LVU488
 1326              		.loc 1 555 3 view .LVU489
 1327              		.loc 1 555 3 view .LVU490
 1328              		.loc 1 555 3 view .LVU491
 1329 003e 2146     		mov	r1, r4
 1330 0040 2846     		mov	r0, r5
 1331              		.loc 1 556 1 is_stmt 0 view .LVU492
 1332 0042 BDE83840 		pop	{r3, r4, r5, lr}
 1333              		.cfi_restore 14
 1334              		.cfi_restore 5
 1335              		.cfi_restore 4
 1336              		.cfi_restore 3
 1337              		.cfi_def_cfa_offset 0
 1338              	.LVL83:
 1339              		.loc 1 555 3 view .LVU493
 1340 0046 FFF7FEBF 		b	__port_switch
 1341              	.LVL84:
 1342              	.L53:
 1343              		.loc 1 555 3 view .LVU494
 1344 004a 00BF     		.align	2
 1345              	.L52:
 1346 004c 00000000 		.word	ch0
 1347              		.cfi_endproc
 1348              	.LFE363:
 1349              		.size	chSchDoPreemption, .-chSchDoPreemption
 1350              		.thumb_set __sch_reschedule_ahead,chSchDoPreemption
 1351              		.section	.text.chSchRescheduleS,"ax",%progbits
 1352              		.align	1
 1353              		.p2align 4,,15
 1354              		.global	chSchRescheduleS
 1355              		.syntax unified
 1356              		.thumb
 1357              		.thumb_func
 1358              		.type	chSchRescheduleS, %function
 1359              	chSchRescheduleS:
 1360              	.LFB361:
 1361              		.loc 1 457 29 is_stmt 1 view -0
 1362              		.cfi_startproc
 1363              		@ args = 0, pretend = 0, frame = 0
 1364              		@ frame_needed = 0, uses_anonymous_args = 0
 1365              		@ link register save eliminated.
 1366              		.loc 1 458 3 view .LVU496
 1367              	.LVL85:
 1368              		.loc 1 459 3 view .LVU497
ARM GAS  C:\Users\DEVELO~1\AppData\Local\Temp\ccyQDiwM.s 			page 25


 1369              		.loc 1 461 21 view .LVU498
 1370              		.loc 1 465 3 view .LVU499
 1371              		.loc 1 465 7 is_stmt 0 view .LVU500
 1372 0000 044B     		ldr	r3, .L56
 1373 0002 1A68     		ldr	r2, [r3]
 1374 0004 DB68     		ldr	r3, [r3, #12]
 1375              		.loc 1 465 6 view .LVU501
 1376 0006 9268     		ldr	r2, [r2, #8]
 1377 0008 9B68     		ldr	r3, [r3, #8]
 1378 000a 9A42     		cmp	r2, r3
 1379 000c 01D9     		bls	.L54
 1380              		.loc 1 466 5 is_stmt 1 view .LVU502
 1381 000e FFF7FEBF 		b	__sch_reschedule_ahead
 1382              	.LVL86:
 1383              	.L54:
 1384              		.loc 1 468 1 is_stmt 0 view .LVU503
 1385 0012 7047     		bx	lr
 1386              	.L57:
 1387              		.align	2
 1388              	.L56:
 1389 0014 00000000 		.word	ch0
 1390              		.cfi_endproc
 1391              	.LFE361:
 1392              		.size	chSchRescheduleS, .-chSchRescheduleS
 1393              		.section	.text.chSchPreemption,"ax",%progbits
 1394              		.align	1
 1395              		.p2align 4,,15
 1396              		.global	chSchPreemption
 1397              		.syntax unified
 1398              		.thumb
 1399              		.thumb_func
 1400              		.type	chSchPreemption, %function
 1401              	chSchPreemption:
 1402              	.LFB369:
 1403              		.cfi_startproc
 1404              		@ args = 0, pretend = 0, frame = 0
 1405              		@ frame_needed = 0, uses_anonymous_args = 0
 1406              		@ link register save eliminated.
 1407 0000 044B     		ldr	r3, .L60
 1408 0002 1A68     		ldr	r2, [r3]
 1409 0004 DB68     		ldr	r3, [r3, #12]
 1410 0006 9268     		ldr	r2, [r2, #8]
 1411 0008 9B68     		ldr	r3, [r3, #8]
 1412 000a 9A42     		cmp	r2, r3
 1413 000c 01D9     		bls	.L58
 1414 000e FFF7FEBF 		b	__sch_reschedule_ahead
 1415              	.L58:
 1416 0012 7047     		bx	lr
 1417              	.L61:
 1418              		.align	2
 1419              	.L60:
 1420 0014 00000000 		.word	ch0
 1421              		.cfi_endproc
 1422              	.LFE369:
 1423              		.size	chSchPreemption, .-chSchPreemption
 1424              		.section	.text.chSchDoYieldS,"ax",%progbits
 1425              		.align	1
ARM GAS  C:\Users\DEVELO~1\AppData\Local\Temp\ccyQDiwM.s 			page 26


 1426              		.p2align 4,,15
 1427              		.global	chSchDoYieldS
 1428              		.syntax unified
 1429              		.thumb
 1430              		.thumb_func
 1431              		.type	chSchDoYieldS, %function
 1432              	chSchDoYieldS:
 1433              	.LFB365:
 1434              		.loc 1 601 26 is_stmt 1 view -0
 1435              		.cfi_startproc
 1436              		@ args = 0, pretend = 0, frame = 0
 1437              		@ frame_needed = 0, uses_anonymous_args = 0
 1438              		.loc 1 602 3 view .LVU505
 1439              	.LVL87:
 1440              		.loc 1 603 3 view .LVU506
 1441              		.loc 1 601 26 is_stmt 0 view .LVU507
 1442 0000 38B5     		push	{r3, r4, r5, lr}
 1443              		.cfi_def_cfa_offset 16
 1444              		.cfi_offset 3, -16
 1445              		.cfi_offset 4, -12
 1446              		.cfi_offset 5, -8
 1447              		.cfi_offset 14, -4
 1448              		.loc 1 603 13 view .LVU508
 1449 0002 144B     		ldr	r3, .L67
 1450 0004 DC68     		ldr	r4, [r3, #12]
 1451              	.LVL88:
 1452              		.loc 1 605 21 is_stmt 1 view .LVU509
 1453              		.loc 1 609 3 view .LVU510
 1454              		.loc 1 609 7 is_stmt 0 view .LVU511
 1455 0006 1D68     		ldr	r5, [r3]
 1456              		.loc 1 609 6 view .LVU512
 1457 0008 A268     		ldr	r2, [r4, #8]
 1458 000a A968     		ldr	r1, [r5, #8]
 1459 000c 9142     		cmp	r1, r2
 1460 000e 20D3     		bcc	.L62
 1461              		.loc 1 610 5 is_stmt 1 view .LVU513
 1462              	.LBB275:
 1463              	.LBI275:
 1464              		.loc 1 127 13 view .LVU514
 1465              	.LBB276:
 1466              		.loc 1 128 3 view .LVU515
 1467              	.LVL89:
 1468              		.loc 1 129 3 view .LVU516
 1469              		.loc 1 130 3 view .LVU517
 1470              		.loc 1 133 3 view .LVU518
 1471              	.LBB277:
 1472              	.LBI277:
 1473              		.loc 6 412 36 view .LVU519
 1474              	.LBB278:
 1475              		.loc 6 413 3 view .LVU520
 1476              		.loc 6 415 3 view .LVU521
 1477              		.loc 6 415 22 is_stmt 0 view .LVU522
 1478 0010 2A68     		ldr	r2, [r5]
 1479              	.LBE278:
 1480              	.LBE277:
 1481              		.loc 1 134 14 view .LVU523
 1482 0012 0121     		movs	r1, #1
ARM GAS  C:\Users\DEVELO~1\AppData\Local\Temp\ccyQDiwM.s 			page 27


 1483              	.LBB280:
 1484              	.LBB281:
 1485              		.loc 1 74 3 view .LVU524
 1486 0014 2046     		mov	r0, r4
 1487              	.LBE281:
 1488              	.LBE280:
 1489              	.LBB295:
 1490              	.LBB279:
 1491              		.loc 6 416 19 view .LVU525
 1492 0016 5360     		str	r3, [r2, #4]
 1493              		.loc 6 415 19 view .LVU526
 1494 0018 1A60     		str	r2, [r3]
 1495              		.loc 6 416 3 is_stmt 1 view .LVU527
 1496              		.loc 6 418 3 view .LVU528
 1497              	.LVL90:
 1498              		.loc 6 418 3 is_stmt 0 view .LVU529
 1499              	.LBE279:
 1500              	.LBE295:
 1501              		.loc 1 134 3 is_stmt 1 view .LVU530
 1502              		.loc 1 135 3 view .LVU531
 1503              		.loc 1 134 14 is_stmt 0 view .LVU532
 1504 001a 2977     		strb	r1, [r5, #28]
 1505              	.LBB296:
 1506              	.LBB291:
 1507              		.loc 1 74 3 view .LVU533
 1508 001c 616B     		ldr	r1, [r4, #52]
 1509              	.LBE291:
 1510              	.LBE296:
 1511              		.loc 1 135 3 view .LVU534
 1512 001e DD60     		str	r5, [r3, #12]
 1513              		.loc 1 138 3 is_stmt 1 view .LVU535
 1514              		.loc 1 139 5 view .LVU536
 1515              		.loc 1 139 29 view .LVU537
 1516              		.loc 1 148 3 view .LVU538
 1517              	.LVL91:
 1518              	.LBB297:
 1519              	.LBI280:
 1520              		.loc 1 67 18 view .LVU539
 1521              	.LBB292:
 1522              		.loc 1 69 3 view .LVU540
 1523              		.loc 1 69 3 view .LVU541
 1524              		.loc 1 69 3 view .LVU542
 1525              		.loc 1 74 3 view .LVU543
 1526 0020 FFF7FEFF 		bl	__trace_ready
 1527              	.LVL92:
 1528              		.loc 1 77 3 view .LVU544
 1529              		.loc 1 77 13 is_stmt 0 view .LVU545
 1530 0024 0022     		movs	r2, #0
 1531              		.loc 1 80 10 view .LVU546
 1532 0026 2369     		ldr	r3, [r4, #16]
 1533              	.LBB282:
 1534              	.LBB283:
 1535              		.loc 6 445 12 view .LVU547
 1536 0028 A168     		ldr	r1, [r4, #8]
 1537              	.LBE283:
 1538              	.LBE282:
 1539              		.loc 1 77 13 view .LVU548
ARM GAS  C:\Users\DEVELO~1\AppData\Local\Temp\ccyQDiwM.s 			page 28


 1540 002a 2277     		strb	r2, [r4, #28]
 1541              		.loc 1 80 3 is_stmt 1 view .LVU549
 1542              	.LVL93:
 1543              	.LBB288:
 1544              	.LBI282:
 1545              		.loc 6 433 36 view .LVU550
 1546              	.L64:
 1547              	.LBB285:
 1548              		.loc 6 437 3 view .LVU551
 1549              	.LBB284:
 1550              		.loc 6 438 5 view .LVU552
 1551              		.loc 6 438 26 is_stmt 0 view .LVU553
 1552 002c 1B68     		ldr	r3, [r3]
 1553              	.LVL94:
 1554              		.loc 6 441 5 is_stmt 1 view .LVU554
 1555              		.loc 6 442 5 view .LVU555
 1556              		.loc 6 442 5 view .LVU556
 1557              		.loc 6 442 5 view .LVU557
 1558              		.loc 6 442 5 view .LVU558
 1559              		.loc 6 444 5 view .LVU559
 1560              		.loc 6 444 5 is_stmt 0 view .LVU560
 1561              	.LBE284:
 1562              		.loc 6 445 12 is_stmt 1 view .LVU561
 1563 002e 9A68     		ldr	r2, [r3, #8]
 1564 0030 8A42     		cmp	r2, r1
 1565 0032 FBD2     		bcs	.L64
 1566              		.loc 6 448 3 view .LVU562
 1567              		.loc 6 449 22 is_stmt 0 view .LVU563
 1568 0034 5A68     		ldr	r2, [r3, #4]
 1569              	.LBE285:
 1570              	.LBE288:
 1571              	.LBE292:
 1572              	.LBE297:
 1573              		.loc 1 151 3 view .LVU564
 1574 0036 2146     		mov	r1, r4
 1575              	.LBB298:
 1576              	.LBB293:
 1577              	.LBB289:
 1578              	.LBB286:
 1579              		.loc 6 448 17 view .LVU565
 1580 0038 2360     		str	r3, [r4]
 1581              		.loc 6 449 3 is_stmt 1 view .LVU566
 1582              	.LBE286:
 1583              	.LBE289:
 1584              	.LBE293:
 1585              	.LBE298:
 1586              		.loc 1 151 3 is_stmt 0 view .LVU567
 1587 003a 2846     		mov	r0, r5
 1588              	.LBB299:
 1589              	.LBB294:
 1590              	.LBB290:
 1591              	.LBB287:
 1592              		.loc 6 449 17 view .LVU568
 1593 003c 6260     		str	r2, [r4, #4]
 1594              		.loc 6 450 3 is_stmt 1 view .LVU569
 1595              		.loc 6 450 17 is_stmt 0 view .LVU570
 1596 003e 1460     		str	r4, [r2]
ARM GAS  C:\Users\DEVELO~1\AppData\Local\Temp\ccyQDiwM.s 			page 29


 1597              		.loc 6 451 3 is_stmt 1 view .LVU571
 1598              		.loc 6 451 17 is_stmt 0 view .LVU572
 1599 0040 5C60     		str	r4, [r3, #4]
 1600              		.loc 6 453 3 is_stmt 1 view .LVU573
 1601              	.LVL95:
 1602              		.loc 6 453 3 is_stmt 0 view .LVU574
 1603              	.LBE287:
 1604              	.LBE290:
 1605              	.LBE294:
 1606              	.LBE299:
 1607              		.loc 1 151 3 is_stmt 1 view .LVU575
 1608 0042 FFF7FEFF 		bl	__trace_switch
 1609              	.LVL96:
 1610              		.loc 1 151 3 view .LVU576
 1611              		.loc 1 151 3 view .LVU577
 1612              		.loc 1 151 3 view .LVU578
 1613              		.loc 1 151 3 view .LVU579
 1614 0046 2146     		mov	r1, r4
 1615 0048 2846     		mov	r0, r5
 1616              	.LBE276:
 1617              	.LBE275:
 1618              		.loc 1 612 1 is_stmt 0 view .LVU580
 1619 004a BDE83840 		pop	{r3, r4, r5, lr}
 1620              		.cfi_remember_state
 1621              		.cfi_restore 14
 1622              		.cfi_restore 5
 1623              		.cfi_restore 4
 1624              		.cfi_restore 3
 1625              		.cfi_def_cfa_offset 0
 1626              	.LVL97:
 1627              	.LBB301:
 1628              	.LBB300:
 1629              		.loc 1 151 3 view .LVU581
 1630 004e FFF7FEBF 		b	__port_switch
 1631              	.LVL98:
 1632              	.L62:
 1633              		.cfi_restore_state
 1634              		.loc 1 151 3 view .LVU582
 1635              	.LBE300:
 1636              	.LBE301:
 1637              		.loc 1 612 1 view .LVU583
 1638 0052 38BD     		pop	{r3, r4, r5, pc}
 1639              	.LVL99:
 1640              	.L68:
 1641              		.loc 1 612 1 view .LVU584
 1642              		.align	2
 1643              	.L67:
 1644 0054 00000000 		.word	ch0
 1645              		.cfi_endproc
 1646              	.LFE365:
 1647              		.size	chSchDoYieldS, .-chSchDoYieldS
 1648              		.section	.text.chSchSelectFirst,"ax",%progbits
 1649              		.align	1
 1650              		.p2align 4,,15
 1651              		.global	chSchSelectFirst
 1652              		.syntax unified
 1653              		.thumb
ARM GAS  C:\Users\DEVELO~1\AppData\Local\Temp\ccyQDiwM.s 			page 30


 1654              		.thumb_func
 1655              		.type	chSchSelectFirst, %function
 1656              	chSchSelectFirst:
 1657              	.LFB366:
 1658              		.loc 1 626 34 is_stmt 1 view -0
 1659              		.cfi_startproc
 1660              		@ args = 0, pretend = 0, frame = 0
 1661              		@ frame_needed = 0, uses_anonymous_args = 0
 1662              		.loc 1 627 3 view .LVU586
 1663              	.LVL100:
 1664              		.loc 1 628 3 view .LVU587
 1665              		.loc 1 626 34 is_stmt 0 view .LVU588
 1666 0000 38B5     		push	{r3, r4, r5, lr}
 1667              		.cfi_def_cfa_offset 16
 1668              		.cfi_offset 3, -16
 1669              		.cfi_offset 4, -12
 1670              		.cfi_offset 5, -8
 1671              		.cfi_offset 14, -4
 1672              		.loc 1 628 13 view .LVU589
 1673 0002 0E4B     		ldr	r3, .L73
 1674              		.loc 1 633 14 view .LVU590
 1675 0004 0121     		movs	r1, #1
 1676              	.LBB309:
 1677              	.LBB310:
 1678              		.loc 6 413 24 view .LVU591
 1679 0006 1D68     		ldr	r5, [r3]
 1680              	.LBE310:
 1681              	.LBE309:
 1682              		.loc 1 628 13 view .LVU592
 1683 0008 DC68     		ldr	r4, [r3, #12]
 1684              	.LVL101:
 1685              		.loc 1 629 3 is_stmt 1 view .LVU593
 1686              		.loc 1 632 3 view .LVU594
 1687              	.LBB313:
 1688              	.LBI309:
 1689              		.loc 6 412 36 view .LVU595
 1690              	.LBB311:
 1691              		.loc 6 413 3 view .LVU596
 1692              		.loc 6 415 3 view .LVU597
 1693              		.loc 6 415 22 is_stmt 0 view .LVU598
 1694 000a 2A68     		ldr	r2, [r5]
 1695              	.LBE311:
 1696              	.LBE313:
 1697              	.LBB314:
 1698              	.LBB315:
 1699              		.loc 1 107 3 view .LVU599
 1700 000c 2046     		mov	r0, r4
 1701              	.LBE315:
 1702              	.LBE314:
 1703              	.LBB326:
 1704              	.LBB312:
 1705              		.loc 6 416 19 view .LVU600
 1706 000e 5360     		str	r3, [r2, #4]
 1707              		.loc 6 415 19 view .LVU601
 1708 0010 1A60     		str	r2, [r3]
 1709              		.loc 6 416 3 is_stmt 1 view .LVU602
 1710              		.loc 6 418 3 view .LVU603
ARM GAS  C:\Users\DEVELO~1\AppData\Local\Temp\ccyQDiwM.s 			page 31


 1711              	.LVL102:
 1712              		.loc 6 418 3 is_stmt 0 view .LVU604
 1713              	.LBE312:
 1714              	.LBE326:
 1715              		.loc 1 633 3 is_stmt 1 view .LVU605
 1716              		.loc 1 634 3 view .LVU606
 1717              		.loc 1 633 14 is_stmt 0 view .LVU607
 1718 0012 2977     		strb	r1, [r5, #28]
 1719              	.LBB327:
 1720              	.LBB323:
 1721              		.loc 1 107 3 view .LVU608
 1722 0014 616B     		ldr	r1, [r4, #52]
 1723              	.LBE323:
 1724              	.LBE327:
 1725              		.loc 1 634 3 view .LVU609
 1726 0016 DD60     		str	r5, [r3, #12]
 1727              		.loc 1 637 3 is_stmt 1 view .LVU610
 1728              		.loc 1 638 5 view .LVU611
 1729              		.loc 1 638 29 view .LVU612
 1730              		.loc 1 642 3 view .LVU613
 1731              	.LVL103:
 1732              	.LBB328:
 1733              	.LBI314:
 1734              		.loc 1 100 18 view .LVU614
 1735              	.LBB324:
 1736              		.loc 1 102 3 view .LVU615
 1737              		.loc 1 102 3 view .LVU616
 1738              		.loc 1 102 3 view .LVU617
 1739              		.loc 1 107 3 view .LVU618
 1740 0018 FFF7FEFF 		bl	__trace_ready
 1741              	.LVL104:
 1742              		.loc 1 110 3 view .LVU619
 1743              		.loc 1 110 13 is_stmt 0 view .LVU620
 1744 001c 0022     		movs	r2, #0
 1745              		.loc 1 113 10 view .LVU621
 1746 001e 2369     		ldr	r3, [r4, #16]
 1747              	.LBB316:
 1748              	.LBB317:
 1749              		.loc 6 484 12 view .LVU622
 1750 0020 A168     		ldr	r1, [r4, #8]
 1751              	.LBE317:
 1752              	.LBE316:
 1753              		.loc 1 110 13 view .LVU623
 1754 0022 2277     		strb	r2, [r4, #28]
 1755              		.loc 1 113 3 is_stmt 1 view .LVU624
 1756              	.LVL105:
 1757              	.LBB321:
 1758              	.LBI316:
 1759              		.loc 6 472 36 view .LVU625
 1760              	.L70:
 1761              	.LBB319:
 1762              		.loc 6 476 3 view .LVU626
 1763              	.LBB318:
 1764              		.loc 6 477 5 view .LVU627
 1765              		.loc 6 477 26 is_stmt 0 view .LVU628
 1766 0024 1B68     		ldr	r3, [r3]
 1767              	.LVL106:
ARM GAS  C:\Users\DEVELO~1\AppData\Local\Temp\ccyQDiwM.s 			page 32


 1768              		.loc 6 480 5 is_stmt 1 view .LVU629
 1769              		.loc 6 481 5 view .LVU630
 1770              		.loc 6 481 5 view .LVU631
 1771              		.loc 6 481 5 view .LVU632
 1772              		.loc 6 481 5 view .LVU633
 1773              		.loc 6 483 5 view .LVU634
 1774              		.loc 6 483 5 is_stmt 0 view .LVU635
 1775              	.LBE318:
 1776              		.loc 6 484 12 is_stmt 1 view .LVU636
 1777 0026 9A68     		ldr	r2, [r3, #8]
 1778 0028 8A42     		cmp	r2, r1
 1779 002a FBD8     		bhi	.L70
 1780              		.loc 6 487 3 view .LVU637
 1781              		.loc 6 488 22 is_stmt 0 view .LVU638
 1782 002c 5A68     		ldr	r2, [r3, #4]
 1783              	.LBE319:
 1784              	.LBE321:
 1785              	.LBE324:
 1786              	.LBE328:
 1787              		.loc 1 645 1 view .LVU639
 1788 002e 2846     		mov	r0, r5
 1789              	.LBB329:
 1790              	.LBB325:
 1791              	.LBB322:
 1792              	.LBB320:
 1793              		.loc 6 487 17 view .LVU640
 1794 0030 2360     		str	r3, [r4]
 1795              		.loc 6 488 3 is_stmt 1 view .LVU641
 1796              		.loc 6 488 17 is_stmt 0 view .LVU642
 1797 0032 6260     		str	r2, [r4, #4]
 1798              		.loc 6 489 3 is_stmt 1 view .LVU643
 1799              		.loc 6 489 17 is_stmt 0 view .LVU644
 1800 0034 1460     		str	r4, [r2]
 1801              		.loc 6 490 3 is_stmt 1 view .LVU645
 1802              		.loc 6 490 17 is_stmt 0 view .LVU646
 1803 0036 5C60     		str	r4, [r3, #4]
 1804              		.loc 6 492 3 is_stmt 1 view .LVU647
 1805              	.LVL107:
 1806              		.loc 6 492 3 is_stmt 0 view .LVU648
 1807              	.LBE320:
 1808              	.LBE322:
 1809              	.LBE325:
 1810              	.LBE329:
 1811              		.loc 1 644 3 is_stmt 1 view .LVU649
 1812              		.loc 1 645 1 is_stmt 0 view .LVU650
 1813 0038 38BD     		pop	{r3, r4, r5, pc}
 1814              	.LVL108:
 1815              	.L74:
 1816              		.loc 1 645 1 view .LVU651
 1817 003a 00BF     		.align	2
 1818              	.L73:
 1819 003c 00000000 		.word	ch0
 1820              		.cfi_endproc
 1821              	.LFE366:
 1822              		.size	chSchSelectFirst, .-chSchSelectFirst
 1823              		.text
 1824              	.Letext0:
ARM GAS  C:\Users\DEVELO~1\AppData\Local\Temp\ccyQDiwM.s 			page 33


 1825              		.file 8 "c:\\chibistudio\\tools\\gnu tools arm embedded\\11.3 2022.08\\arm-none-eabi\\include\\mac
 1826              		.file 9 "c:\\chibistudio\\tools\\gnu tools arm embedded\\11.3 2022.08\\arm-none-eabi\\include\\sys
 1827              		.file 10 "./ChibiOS/os/common/ports/ARM-common/include/chtypes.h"
 1828              		.file 11 "./ChibiOS/os/rt/include/chearly.h"
 1829              		.file 12 "./ChibiOS/os/rt/include/chobjects.h"
 1830              		.file 13 "./ChibiOS/os/rt/include/chrfcu.h"
 1831              		.file 14 "./ChibiOS/os/rt/include/chdebug.h"
 1832              		.file 15 "./ChibiOS/os/rt/include/chtime.h"
 1833              		.file 16 "./ChibiOS/os/rt/include/chtrace.h"
 1834              		.file 17 "./ChibiOS/os/rt/include/chmtx.h"
 1835              		.file 18 "./ChibiOS/os/rt/include/chsafety.h"