ARM GAS  C:\Users\DEVELO~1\AppData\Local\Temp\cc4WWr21.s 			page 1


   1              		.cpu cortex-m7
   2              		.arch armv7e-m
   3              		.fpu softvfp
   4              		.eabi_attribute 20, 1
   5              		.eabi_attribute 21, 1
   6              		.eabi_attribute 23, 3
   7              		.eabi_attribute 24, 1
   8              		.eabi_attribute 25, 1
   9              		.eabi_attribute 26, 1
  10              		.eabi_attribute 30, 2
  11              		.eabi_attribute 34, 1
  12              		.eabi_attribute 18, 4
  13              		.file	"chsem.c"
  14              		.text
  15              	.Ltext0:
  16              		.cfi_sections	.debug_frame
  17              		.section	.text.chSemObjectInit,"ax",%progbits
  18              		.align	1
  19              		.p2align 4,,15
  20              		.global	chSemObjectInit
  21              		.syntax unified
  22              		.thumb
  23              		.thumb_func
  24              		.type	chSemObjectInit, %function
  25              	chSemObjectInit:
  26              	.LVL0:
  27              	.LFB352:
  28              		.file 1 "./ChibiOS/os/rt/src/chsem.c"
  29              		.loc 1 99 48 view -0
  30              		.cfi_startproc
  31              		@ args = 0, pretend = 0, frame = 0
  32              		@ frame_needed = 0, uses_anonymous_args = 0
  33              		@ link register save eliminated.
  34              		.loc 1 101 3 view .LVU1
  35              		.loc 1 101 3 view .LVU2
  36              		.loc 1 101 3 view .LVU3
  37              		.loc 1 103 3 view .LVU4
  38              	.LBB104:
  39              	.LBI104:
  40              		.file 2 "./ChibiOS/os/rt/include/chlists.h"
  41              		.loc 2 282 20 view .LVU5
  42              	.LBB105:
  43              		.loc 2 284 3 view .LVU6
  44              		.loc 2 285 12 is_stmt 0 view .LVU7
  45 0000 C0E90000 		strd	r0, r0, [r0]
  46              	.LVL1:
  47              		.loc 2 285 12 view .LVU8
  48              	.LBE105:
  49              	.LBE104:
  50              		.loc 1 104 3 is_stmt 1 view .LVU9
  51              		.loc 1 104 11 is_stmt 0 view .LVU10
  52 0004 8160     		str	r1, [r0, #8]
  53              		.loc 1 105 1 view .LVU11
  54 0006 7047     		bx	lr
  55              		.cfi_endproc
  56              	.LFE352:
  57              		.size	chSemObjectInit, .-chSemObjectInit
ARM GAS  C:\Users\DEVELO~1\AppData\Local\Temp\cc4WWr21.s 			page 2


  58              		.section	.text.chSemObjectDispose,"ax",%progbits
  59              		.align	1
  60              		.p2align 4,,15
  61              		.global	chSemObjectDispose
  62              		.syntax unified
  63              		.thumb
  64              		.thumb_func
  65              		.type	chSemObjectDispose, %function
  66              	chSemObjectDispose:
  67              	.LVL2:
  68              	.LFB353:
  69              		.loc 1 122 42 is_stmt 1 view -0
  70              		.cfi_startproc
  71              		@ args = 0, pretend = 0, frame = 0
  72              		@ frame_needed = 0, uses_anonymous_args = 0
  73              		@ link register save eliminated.
  74              		.loc 1 124 3 view .LVU13
  75              		.loc 1 124 3 view .LVU14
  76              		.loc 1 124 3 view .LVU15
  77              		.loc 1 126 31 view .LVU16
  78              		.loc 1 128 3 view .LVU17
  79              		.loc 1 128 3 view .LVU18
  80              		.loc 1 128 3 view .LVU19
  81              		.loc 1 134 1 is_stmt 0 view .LVU20
  82 0000 7047     		bx	lr
  83              		.cfi_endproc
  84              	.LFE353:
  85              		.size	chSemObjectDispose, .-chSemObjectDispose
  86 0002 00BF     		.section	.text.chSemResetWithMessage,"ax",%progbits
  87              		.align	1
  88              		.p2align 4,,15
  89              		.global	chSemResetWithMessage
  90              		.syntax unified
  91              		.thumb
  92              		.thumb_func
  93              		.type	chSemResetWithMessage, %function
  94              	chSemResetWithMessage:
  95              	.LVL3:
  96              	.LFB354:
  97              		.loc 1 149 65 is_stmt 1 view -0
  98              		.cfi_startproc
  99              		@ args = 0, pretend = 0, frame = 0
 100              		@ frame_needed = 0, uses_anonymous_args = 0
 101              		.loc 1 151 3 view .LVU22
 102              	.LBB121:
 103              	.LBI121:
 104              		.file 3 "./ChibiOS/os/rt/include/chsys.h"
 105              		.loc 3 372 20 view .LVU23
 106              		.loc 3 374 3 view .LVU24
 107              	.LBB122:
 108              	.LBI122:
 109              		.file 4 "./ChibiOS/os/common/ports/ARMv7-M/chcore.h"
 110              		.loc 4 840 27 view .LVU25
 111              		.loc 4 848 3 view .LVU26
 112              	.LBB123:
 113              	.LBI123:
 114              		.file 5 "./ChibiOS/os/common/ext/ARM/CMSIS/Core/Include/cmsis_gcc.h"
ARM GAS  C:\Users\DEVELO~1\AppData\Local\Temp\cc4WWr21.s 			page 3


 115              		.loc 5 491 27 view .LVU27
 116              	.LBB124:
 117              		.loc 5 493 3 view .LVU28
 118              	.LBE124:
 119              	.LBE123:
 120              	.LBE122:
 121              	.LBE121:
 122              		.loc 1 149 65 is_stmt 0 view .LVU29
 123 0000 38B5     		push	{r3, r4, r5, lr}
 124              		.cfi_def_cfa_offset 16
 125              		.cfi_offset 3, -16
 126              		.cfi_offset 4, -12
 127              		.cfi_offset 5, -8
 128              		.cfi_offset 14, -4
 129              	.LBB128:
 130              	.LBB127:
 131              	.LBB126:
 132              	.LBB125:
 133              		.loc 5 493 3 view .LVU30
 134 0002 3023     		movs	r3, #48
 135              		.syntax unified
 136              	@ 493 "./ChibiOS/os/common/ext/ARM/CMSIS/Core/Include/cmsis_gcc.h" 1
 137 0004 83F31188 		MSR basepri, r3
 138              	@ 0 "" 2
 139              	.LVL4:
 140              		.loc 5 493 3 view .LVU31
 141              		.thumb
 142              		.syntax unified
 143              	.LBE125:
 144              	.LBE126:
 145              	.LBE127:
 146              		.loc 3 375 35 is_stmt 1 view .LVU32
 147              		.loc 3 376 21 view .LVU33
 148              	.LBE128:
 149              		.loc 1 152 3 view .LVU34
 150              	.LBB129:
 151              	.LBI129:
 152              		.loc 1 174 6 view .LVU35
 153              	.LBB130:
 154              		.loc 1 176 21 view .LVU36
 155              		.loc 1 177 3 view .LVU37
 156              		.loc 1 177 3 view .LVU38
 157              		.loc 1 177 3 view .LVU39
 158              		.loc 1 178 3 view .LVU40
 159              		.loc 1 178 3 view .LVU41
 160              		.loc 1 178 3 view .LVU42
 161              		.loc 1 182 3 view .LVU43
 162              		.loc 1 183 10 is_stmt 0 view .LVU44
 163 0008 0368     		ldr	r3, [r0]
 164              		.loc 1 182 11 view .LVU45
 165 000a 8160     		str	r1, [r0, #8]
 166              		.loc 1 183 3 is_stmt 1 view .LVU46
 167              		.loc 1 183 10 view .LVU47
 168              	.LVL5:
 169              	.LBB131:
 170              	.LBI131:
 171              		.loc 2 309 20 view .LVU48
ARM GAS  C:\Users\DEVELO~1\AppData\Local\Temp\cc4WWr21.s 			page 4


 172              	.LBB132:
 173              		.loc 2 311 3 view .LVU49
 174              		.loc 2 311 3 is_stmt 0 view .LVU50
 175              	.LBE132:
 176              	.LBE131:
 177              		.loc 1 183 10 view .LVU51
 178 000c 8342     		cmp	r3, r0
 179 000e 0BD0     		beq	.L5
 180 0010 0446     		mov	r4, r0
 181 0012 1546     		mov	r5, r2
 182              	.LVL6:
 183              	.L6:
 184              		.loc 1 184 5 is_stmt 1 view .LVU52
 185              	.LBB134:
 186              	.LBI134:
 187              		.loc 2 359 27 view .LVU53
 188              	.LBB135:
 189              		.loc 2 360 3 view .LVU54
 190              		.loc 2 360 15 is_stmt 0 view .LVU55
 191 0014 6068     		ldr	r0, [r4, #4]
 192              	.LVL7:
 193              		.loc 2 362 3 is_stmt 1 view .LVU56
 194              		.loc 2 362 21 is_stmt 0 view .LVU57
 195 0016 4368     		ldr	r3, [r0, #4]
 196              		.loc 2 362 18 view .LVU58
 197 0018 6360     		str	r3, [r4, #4]
 198              		.loc 2 363 3 is_stmt 1 view .LVU59
 199              		.loc 2 363 18 is_stmt 0 view .LVU60
 200 001a 1C60     		str	r4, [r3]
 201              		.loc 2 365 3 is_stmt 1 view .LVU61
 202              	.LVL8:
 203              		.loc 2 365 3 is_stmt 0 view .LVU62
 204              	.LBE135:
 205              	.LBE134:
 206              		.loc 1 184 5 view .LVU63
 207 001c FFF7FEFF 		bl	chSchReadyI
 208              	.LVL9:
 209              		.loc 1 183 10 view .LVU64
 210 0020 2368     		ldr	r3, [r4]
 211              		.loc 1 184 72 view .LVU65
 212 0022 4563     		str	r5, [r0, #52]
 213              		.loc 1 183 10 is_stmt 1 view .LVU66
 214              	.LVL10:
 215              	.LBB136:
 216              		.loc 2 309 20 view .LVU67
 217              	.LBB133:
 218              		.loc 2 311 3 view .LVU68
 219              		.loc 2 311 3 is_stmt 0 view .LVU69
 220              	.LBE133:
 221              	.LBE136:
 222              		.loc 1 183 10 view .LVU70
 223 0024 A342     		cmp	r3, r4
 224 0026 F5D1     		bne	.L6
 225              	.LVL11:
 226              	.L5:
 227              		.loc 1 183 10 view .LVU71
 228              	.LBE130:
ARM GAS  C:\Users\DEVELO~1\AppData\Local\Temp\cc4WWr21.s 			page 5


 229              	.LBE129:
 230              		.loc 1 153 3 is_stmt 1 view .LVU72
 231 0028 FFF7FEFF 		bl	chSchRescheduleS
 232              	.LVL12:
 233              		.loc 1 154 3 view .LVU73
 234              	.LBB137:
 235              	.LBI137:
 236              		.loc 3 386 20 view .LVU74
 237              	.LBB138:
 238              		.loc 3 388 23 view .LVU75
 239              		.loc 3 389 34 view .LVU76
 240              		.loc 3 395 3 view .LVU77
 241              		.loc 3 395 3 view .LVU78
 242              		.loc 3 395 3 view .LVU79
 243              		.loc 3 399 3 view .LVU80
 244              	.LBB139:
 245              	.LBI139:
 246              		.loc 4 864 27 view .LVU81
 247              		.loc 4 867 3 view .LVU82
 248              	.LBB140:
 249              	.LBI140:
 250              		.loc 5 491 27 view .LVU83
 251              	.LBB141:
 252              		.loc 5 493 3 view .LVU84
 253 002c 0023     		movs	r3, #0
 254              		.syntax unified
 255              	@ 493 "./ChibiOS/os/common/ext/ARM/CMSIS/Core/Include/cmsis_gcc.h" 1
 256 002e 83F31188 		MSR basepri, r3
 257              	@ 0 "" 2
 258              	.LVL13:
 259              		.loc 5 493 3 is_stmt 0 view .LVU85
 260              		.thumb
 261              		.syntax unified
 262              	.LBE141:
 263              	.LBE140:
 264              	.LBE139:
 265              	.LBE138:
 266              	.LBE137:
 267              		.loc 1 155 1 view .LVU86
 268 0032 38BD     		pop	{r3, r4, r5, pc}
 269              		.cfi_endproc
 270              	.LFE354:
 271              		.size	chSemResetWithMessage, .-chSemResetWithMessage
 272              		.section	.text.chSemResetWithMessageI,"ax",%progbits
 273              		.align	1
 274              		.p2align 4,,15
 275              		.global	chSemResetWithMessageI
 276              		.syntax unified
 277              		.thumb
 278              		.thumb_func
 279              		.type	chSemResetWithMessageI, %function
 280              	chSemResetWithMessageI:
 281              	.LVL14:
 282              	.LFB355:
 283              		.loc 1 174 66 is_stmt 1 view -0
 284              		.cfi_startproc
 285              		@ args = 0, pretend = 0, frame = 0
ARM GAS  C:\Users\DEVELO~1\AppData\Local\Temp\cc4WWr21.s 			page 6


 286              		@ frame_needed = 0, uses_anonymous_args = 0
 287              		.loc 1 176 21 view .LVU88
 288              		.loc 1 177 3 view .LVU89
 289              		.loc 1 177 3 view .LVU90
 290              		.loc 1 177 3 view .LVU91
 291              		.loc 1 178 3 view .LVU92
 292              		.loc 1 178 3 view .LVU93
 293              		.loc 1 178 3 view .LVU94
 294              		.loc 1 182 3 view .LVU95
 295              		.loc 1 174 66 is_stmt 0 view .LVU96
 296 0000 38B5     		push	{r3, r4, r5, lr}
 297              		.cfi_def_cfa_offset 16
 298              		.cfi_offset 3, -16
 299              		.cfi_offset 4, -12
 300              		.cfi_offset 5, -8
 301              		.cfi_offset 14, -4
 302              		.loc 1 183 10 view .LVU97
 303 0002 0368     		ldr	r3, [r0]
 304              		.loc 1 182 11 view .LVU98
 305 0004 8160     		str	r1, [r0, #8]
 306              		.loc 1 183 3 is_stmt 1 view .LVU99
 307              		.loc 1 183 10 view .LVU100
 308              	.LVL15:
 309              	.LBB142:
 310              	.LBI142:
 311              		.loc 2 309 20 view .LVU101
 312              	.LBB143:
 313              		.loc 2 311 3 view .LVU102
 314              		.loc 2 311 3 is_stmt 0 view .LVU103
 315              	.LBE143:
 316              	.LBE142:
 317              		.loc 1 183 10 view .LVU104
 318 0006 8342     		cmp	r3, r0
 319 0008 0BD0     		beq	.L9
 320 000a 0446     		mov	r4, r0
 321 000c 1546     		mov	r5, r2
 322              	.LVL16:
 323              	.L11:
 324              		.loc 1 184 5 is_stmt 1 view .LVU105
 325              	.LBB145:
 326              	.LBI145:
 327              		.loc 2 359 27 view .LVU106
 328              	.LBB146:
 329              		.loc 2 360 3 view .LVU107
 330              		.loc 2 360 15 is_stmt 0 view .LVU108
 331 000e 6068     		ldr	r0, [r4, #4]
 332              	.LVL17:
 333              		.loc 2 362 3 is_stmt 1 view .LVU109
 334              		.loc 2 362 21 is_stmt 0 view .LVU110
 335 0010 4368     		ldr	r3, [r0, #4]
 336              		.loc 2 362 18 view .LVU111
 337 0012 6360     		str	r3, [r4, #4]
 338              		.loc 2 363 3 is_stmt 1 view .LVU112
 339              		.loc 2 363 18 is_stmt 0 view .LVU113
 340 0014 1C60     		str	r4, [r3]
 341              		.loc 2 365 3 is_stmt 1 view .LVU114
 342              	.LVL18:
ARM GAS  C:\Users\DEVELO~1\AppData\Local\Temp\cc4WWr21.s 			page 7


 343              		.loc 2 365 3 is_stmt 0 view .LVU115
 344              	.LBE146:
 345              	.LBE145:
 346              		.loc 1 184 5 view .LVU116
 347 0016 FFF7FEFF 		bl	chSchReadyI
 348              	.LVL19:
 349              		.loc 1 183 10 view .LVU117
 350 001a 2368     		ldr	r3, [r4]
 351              		.loc 1 184 72 view .LVU118
 352 001c 4563     		str	r5, [r0, #52]
 353              		.loc 1 183 10 is_stmt 1 view .LVU119
 354              	.LVL20:
 355              	.LBB147:
 356              		.loc 2 309 20 view .LVU120
 357              	.LBB144:
 358              		.loc 2 311 3 view .LVU121
 359              		.loc 2 311 3 is_stmt 0 view .LVU122
 360              	.LBE144:
 361              	.LBE147:
 362              		.loc 1 183 10 view .LVU123
 363 001e A342     		cmp	r3, r4
 364 0020 F5D1     		bne	.L11
 365              	.LVL21:
 366              	.L9:
 367              		.loc 1 186 1 view .LVU124
 368 0022 38BD     		pop	{r3, r4, r5, pc}
 369              		.cfi_endproc
 370              	.LFE355:
 371              		.size	chSemResetWithMessageI, .-chSemResetWithMessageI
 372              		.section	.text.chSemWait,"ax",%progbits
 373              		.align	1
 374              		.p2align 4,,15
 375              		.global	chSemWait
 376              		.syntax unified
 377              		.thumb
 378              		.thumb_func
 379              		.type	chSemWait, %function
 380              	chSemWait:
 381              	.LVL22:
 382              	.LFB356:
 383              		.loc 1 200 34 is_stmt 1 view -0
 384              		.cfi_startproc
 385              		@ args = 0, pretend = 0, frame = 0
 386              		@ frame_needed = 0, uses_anonymous_args = 0
 387              		.loc 1 201 3 view .LVU126
 388              		.loc 1 203 3 view .LVU127
 389              	.LBB166:
 390              	.LBI166:
 391              		.loc 3 372 20 view .LVU128
 392              		.loc 3 374 3 view .LVU129
 393              	.LBB167:
 394              	.LBI167:
 395              		.loc 4 840 27 view .LVU130
 396              		.loc 4 848 3 view .LVU131
 397              	.LBB168:
 398              	.LBI168:
 399              		.loc 5 491 27 view .LVU132
ARM GAS  C:\Users\DEVELO~1\AppData\Local\Temp\cc4WWr21.s 			page 8


 400              	.LBB169:
 401              		.loc 5 493 3 view .LVU133
 402 0000 3022     		movs	r2, #48
 403              		.syntax unified
 404              	@ 493 "./ChibiOS/os/common/ext/ARM/CMSIS/Core/Include/cmsis_gcc.h" 1
 405 0002 82F31188 		MSR basepri, r2
 406              	@ 0 "" 2
 407              	.LVL23:
 408              		.loc 5 493 3 is_stmt 0 view .LVU134
 409              		.thumb
 410              		.syntax unified
 411              	.LBE169:
 412              	.LBE168:
 413              	.LBE167:
 414              		.loc 3 375 35 is_stmt 1 view .LVU135
 415              		.loc 3 376 21 view .LVU136
 416              	.LBE166:
 417              		.loc 1 204 3 view .LVU137
 418              	.LBB170:
 419              	.LBI170:
 420              		.loc 1 222 7 view .LVU138
 421              	.LBB171:
 422              		.loc 1 224 21 view .LVU139
 423              		.loc 1 225 3 view .LVU140
 424              		.loc 1 225 3 view .LVU141
 425              		.loc 1 225 3 view .LVU142
 426              		.loc 1 226 3 view .LVU143
 427              		.loc 1 226 3 view .LVU144
 428              		.loc 1 226 3 view .LVU145
 429              		.loc 1 230 3 view .LVU146
 430              		.loc 1 230 7 is_stmt 0 view .LVU147
 431 0006 8268     		ldr	r2, [r0, #8]
 432 0008 013A     		subs	r2, r2, #1
 433              		.loc 1 230 6 view .LVU148
 434 000a 002A     		cmp	r2, #0
 435 000c 8260     		str	r2, [r0, #8]
 436 000e 04DB     		blt	.L21
 437              		.loc 1 239 10 view .LVU149
 438 0010 0020     		movs	r0, #0
 439              	.LVL24:
 440              		.loc 1 239 10 view .LVU150
 441              	.LBE171:
 442              	.LBE170:
 443              		.loc 1 205 3 is_stmt 1 view .LVU151
 444              	.LBB192:
 445              	.LBI192:
 446              		.loc 3 386 20 view .LVU152
 447              	.LBB193:
 448              		.loc 3 388 23 view .LVU153
 449              		.loc 3 389 34 view .LVU154
 450              		.loc 3 395 3 view .LVU155
 451              		.loc 3 395 3 view .LVU156
 452              		.loc 3 395 3 view .LVU157
 453              		.loc 3 399 3 view .LVU158
 454              	.LBB194:
 455              	.LBI194:
 456              		.loc 4 864 27 view .LVU159
ARM GAS  C:\Users\DEVELO~1\AppData\Local\Temp\cc4WWr21.s 			page 9


 457              		.loc 4 867 3 view .LVU160
 458              	.LBB195:
 459              	.LBI195:
 460              		.loc 5 491 27 view .LVU161
 461              	.LBB196:
 462              		.loc 5 493 3 view .LVU162
 463 0012 0023     		movs	r3, #0
 464              		.syntax unified
 465              	@ 493 "./ChibiOS/os/common/ext/ARM/CMSIS/Core/Include/cmsis_gcc.h" 1
 466 0014 83F31188 		MSR basepri, r3
 467              	@ 0 "" 2
 468              	.LVL25:
 469              		.loc 5 493 3 is_stmt 0 view .LVU163
 470              		.thumb
 471              		.syntax unified
 472              	.LBE196:
 473              	.LBE195:
 474              	.LBE194:
 475              	.LBE193:
 476              	.LBE192:
 477              		.loc 1 207 3 is_stmt 1 view .LVU164
 478              		.loc 1 208 1 is_stmt 0 view .LVU165
 479 0018 7047     		bx	lr
 480              	.LVL26:
 481              	.L21:
 482              	.LBB201:
 483              	.LBB190:
 484              	.LBB172:
 485              	.LBB173:
 486              	.LBB174:
 487              	.LBB175:
 488              	.LBB176:
 489              		.file 6 "./ChibiOS/os/rt/include/chthreads.h"
 490              		.loc 6 529 10 view .LVU166
 491 001a 0949     		ldr	r1, .L22
 492 001c 0346     		mov	r3, r0
 493              	.LVL27:
 494              		.loc 6 529 10 view .LVU167
 495              	.LBE176:
 496              	.LBE175:
 497              	.LBE174:
 498              	.LBE173:
 499              	.LBI172:
 500              		.loc 1 222 7 is_stmt 1 view .LVU168
 501              	.LBB187:
 502              	.LBB185:
 503              		.loc 1 231 5 view .LVU169
 504              	.LBB179:
 505              	.LBI175:
 506              		.loc 6 527 25 view .LVU170
 507              	.LBB177:
 508              		.loc 6 529 3 view .LVU171
 509              	.LBE177:
 510              	.LBE179:
 511              	.LBB180:
 512              	.LBB181:
 513              		.loc 2 325 21 is_stmt 0 view .LVU172
ARM GAS  C:\Users\DEVELO~1\AppData\Local\Temp\cc4WWr21.s 			page 10


 514 001e 4268     		ldr	r2, [r0, #4]
 515              	.LBE181:
 516              	.LBE180:
 517              		.loc 1 234 5 view .LVU173
 518 0020 0520     		movs	r0, #5
 519              	.LVL28:
 520              		.loc 1 234 5 view .LVU174
 521              	.LBE185:
 522              	.LBE187:
 523              	.LBE172:
 524              	.LBE190:
 525              	.LBE201:
 526              		.loc 1 200 34 view .LVU175
 527 0022 10B5     		push	{r4, lr}
 528              		.cfi_def_cfa_offset 8
 529              		.cfi_offset 4, -8
 530              		.cfi_offset 14, -4
 531              	.LBB202:
 532              	.LBB191:
 533              	.LBB189:
 534              	.LBB188:
 535              	.LBB186:
 536              	.LBB183:
 537              	.LBB178:
 538              		.loc 6 529 10 view .LVU176
 539 0024 CC68     		ldr	r4, [r1, #12]
 540              	.LVL29:
 541              		.loc 6 529 10 view .LVU177
 542              	.LBE178:
 543              	.LBE183:
 544              		.loc 1 232 5 is_stmt 1 view .LVU178
 545              		.loc 1 232 22 is_stmt 0 view .LVU179
 546 0026 6363     		str	r3, [r4, #52]
 547              		.loc 1 233 5 is_stmt 1 view .LVU180
 548              	.LVL30:
 549              	.LBB184:
 550              	.LBI180:
 551              		.loc 2 322 20 view .LVU181
 552              	.LBB182:
 553              		.loc 2 324 3 view .LVU182
 554              		.loc 2 325 17 is_stmt 0 view .LVU183
 555 0028 C4E90032 		strd	r3, r2, [r4]
 556              		.loc 2 326 3 is_stmt 1 view .LVU184
 557              		.loc 2 326 17 is_stmt 0 view .LVU185
 558 002c 1460     		str	r4, [r2]
 559              		.loc 2 327 3 is_stmt 1 view .LVU186
 560              		.loc 2 327 17 is_stmt 0 view .LVU187
 561 002e 5C60     		str	r4, [r3, #4]
 562              	.LVL31:
 563              		.loc 2 327 17 view .LVU188
 564              	.LBE182:
 565              	.LBE184:
 566              		.loc 1 234 5 is_stmt 1 view .LVU189
 567 0030 FFF7FEFF 		bl	chSchGoSleepS
 568              	.LVL32:
 569              		.loc 1 236 5 view .LVU190
 570              		.loc 1 236 21 is_stmt 0 view .LVU191
ARM GAS  C:\Users\DEVELO~1\AppData\Local\Temp\cc4WWr21.s 			page 11


 571 0034 606B     		ldr	r0, [r4, #52]
 572              	.LVL33:
 573              		.loc 1 236 21 view .LVU192
 574              	.LBE186:
 575              	.LBE188:
 576              	.LBE189:
 577              	.LBE191:
 578              	.LBE202:
 579              		.loc 1 205 3 is_stmt 1 view .LVU193
 580              	.LBB203:
 581              		.loc 3 386 20 view .LVU194
 582              	.LBB200:
 583              		.loc 3 388 23 view .LVU195
 584              		.loc 3 389 34 view .LVU196
 585              		.loc 3 395 3 view .LVU197
 586              		.loc 3 395 3 view .LVU198
 587              		.loc 3 395 3 view .LVU199
 588              		.loc 3 399 3 view .LVU200
 589              	.LBB199:
 590              		.loc 4 864 27 view .LVU201
 591              		.loc 4 867 3 view .LVU202
 592              	.LBB198:
 593              		.loc 5 491 27 view .LVU203
 594              	.LBB197:
 595              		.loc 5 493 3 view .LVU204
 596 0036 0023     		movs	r3, #0
 597              		.syntax unified
 598              	@ 493 "./ChibiOS/os/common/ext/ARM/CMSIS/Core/Include/cmsis_gcc.h" 1
 599 0038 83F31188 		MSR basepri, r3
 600              	@ 0 "" 2
 601              	.LVL34:
 602              		.loc 5 493 3 is_stmt 0 view .LVU205
 603              		.thumb
 604              		.syntax unified
 605              	.LBE197:
 606              	.LBE198:
 607              	.LBE199:
 608              	.LBE200:
 609              	.LBE203:
 610              		.loc 1 207 3 is_stmt 1 view .LVU206
 611              		.loc 1 208 1 is_stmt 0 view .LVU207
 612 003c 10BD     		pop	{r4, pc}
 613              	.L23:
 614 003e 00BF     		.align	2
 615              	.L22:
 616 0040 00000000 		.word	ch0
 617              		.cfi_endproc
 618              	.LFE356:
 619              		.size	chSemWait, .-chSemWait
 620              		.section	.text.chSemWaitS,"ax",%progbits
 621              		.align	1
 622              		.p2align 4,,15
 623              		.global	chSemWaitS
 624              		.syntax unified
 625              		.thumb
 626              		.thumb_func
 627              		.type	chSemWaitS, %function
ARM GAS  C:\Users\DEVELO~1\AppData\Local\Temp\cc4WWr21.s 			page 12


 628              	chSemWaitS:
 629              	.LVL35:
 630              	.LFB357:
 631              		.loc 1 222 35 is_stmt 1 view -0
 632              		.cfi_startproc
 633              		@ args = 0, pretend = 0, frame = 0
 634              		@ frame_needed = 0, uses_anonymous_args = 0
 635              		.loc 1 224 21 view .LVU209
 636              		.loc 1 225 3 view .LVU210
 637              		.loc 1 225 3 view .LVU211
 638              		.loc 1 225 3 view .LVU212
 639              		.loc 1 226 3 view .LVU213
 640              		.loc 1 226 3 view .LVU214
 641              		.loc 1 226 3 view .LVU215
 642              		.loc 1 230 3 view .LVU216
 643              		.loc 1 230 7 is_stmt 0 view .LVU217
 644 0000 8268     		ldr	r2, [r0, #8]
 645 0002 013A     		subs	r2, r2, #1
 646              		.loc 1 230 6 view .LVU218
 647 0004 002A     		cmp	r2, #0
 648 0006 8260     		str	r2, [r0, #8]
 649 0008 01DB     		blt	.L31
 650              		.loc 1 239 10 view .LVU219
 651 000a 0020     		movs	r0, #0
 652              	.LVL36:
 653              		.loc 1 240 1 view .LVU220
 654 000c 7047     		bx	lr
 655              	.LVL37:
 656              	.L31:
 657              	.LBB211:
 658              	.LBB212:
 659              	.LBB213:
 660              	.LBB214:
 661              	.LBB215:
 662              		.loc 6 529 10 view .LVU221
 663 000e 0749     		ldr	r1, .L32
 664 0010 0346     		mov	r3, r0
 665              	.LVL38:
 666              		.loc 6 529 10 view .LVU222
 667              	.LBE215:
 668              	.LBE214:
 669              	.LBE213:
 670              	.LBE212:
 671              	.LBI211:
 672              		.loc 1 222 7 is_stmt 1 view .LVU223
 673              	.LBB226:
 674              	.LBB224:
 675              		.loc 1 231 5 view .LVU224
 676              	.LBB218:
 677              	.LBI214:
 678              		.loc 6 527 25 view .LVU225
 679              	.LBB216:
 680              		.loc 6 529 3 view .LVU226
 681              	.LBE216:
 682              	.LBE218:
 683              	.LBB219:
 684              	.LBB220:
ARM GAS  C:\Users\DEVELO~1\AppData\Local\Temp\cc4WWr21.s 			page 13


 685              		.loc 2 325 21 is_stmt 0 view .LVU227
 686 0012 4268     		ldr	r2, [r0, #4]
 687              	.LBE220:
 688              	.LBE219:
 689              		.loc 1 234 5 view .LVU228
 690 0014 0520     		movs	r0, #5
 691              	.LVL39:
 692              		.loc 1 234 5 view .LVU229
 693              	.LBE224:
 694              	.LBE226:
 695              	.LBE211:
 696              		.loc 1 222 35 view .LVU230
 697 0016 10B5     		push	{r4, lr}
 698              		.cfi_def_cfa_offset 8
 699              		.cfi_offset 4, -8
 700              		.cfi_offset 14, -4
 701              	.LBB228:
 702              	.LBB227:
 703              	.LBB225:
 704              	.LBB222:
 705              	.LBB217:
 706              		.loc 6 529 10 view .LVU231
 707 0018 CC68     		ldr	r4, [r1, #12]
 708              	.LVL40:
 709              		.loc 6 529 10 view .LVU232
 710              	.LBE217:
 711              	.LBE222:
 712              		.loc 1 232 5 is_stmt 1 view .LVU233
 713              		.loc 1 232 22 is_stmt 0 view .LVU234
 714 001a 6363     		str	r3, [r4, #52]
 715              		.loc 1 233 5 is_stmt 1 view .LVU235
 716              	.LVL41:
 717              	.LBB223:
 718              	.LBI219:
 719              		.loc 2 322 20 view .LVU236
 720              	.LBB221:
 721              		.loc 2 324 3 view .LVU237
 722              		.loc 2 325 17 is_stmt 0 view .LVU238
 723 001c C4E90032 		strd	r3, r2, [r4]
 724              		.loc 2 326 3 is_stmt 1 view .LVU239
 725              		.loc 2 326 17 is_stmt 0 view .LVU240
 726 0020 1460     		str	r4, [r2]
 727              		.loc 2 327 3 is_stmt 1 view .LVU241
 728              		.loc 2 327 17 is_stmt 0 view .LVU242
 729 0022 5C60     		str	r4, [r3, #4]
 730              	.LVL42:
 731              		.loc 2 327 17 view .LVU243
 732              	.LBE221:
 733              	.LBE223:
 734              		.loc 1 234 5 is_stmt 1 view .LVU244
 735 0024 FFF7FEFF 		bl	chSchGoSleepS
 736              	.LVL43:
 737              		.loc 1 236 5 view .LVU245
 738              		.loc 1 236 21 is_stmt 0 view .LVU246
 739 0028 606B     		ldr	r0, [r4, #52]
 740              	.LVL44:
 741              		.loc 1 236 21 view .LVU247
ARM GAS  C:\Users\DEVELO~1\AppData\Local\Temp\cc4WWr21.s 			page 14


 742              	.LBE225:
 743              	.LBE227:
 744              	.LBE228:
 745              		.loc 1 240 1 view .LVU248
 746 002a 10BD     		pop	{r4, pc}
 747              	.L33:
 748              		.align	2
 749              	.L32:
 750 002c 00000000 		.word	ch0
 751              		.cfi_endproc
 752              	.LFE357:
 753              		.size	chSemWaitS, .-chSemWaitS
 754              		.section	.text.chSemWaitTimeout,"ax",%progbits
 755              		.align	1
 756              		.p2align 4,,15
 757              		.global	chSemWaitTimeout
 758              		.syntax unified
 759              		.thumb
 760              		.thumb_func
 761              		.type	chSemWaitTimeout, %function
 762              	chSemWaitTimeout:
 763              	.LVL45:
 764              	.LFB358:
 765              		.loc 1 260 64 is_stmt 1 view -0
 766              		.cfi_startproc
 767              		@ args = 0, pretend = 0, frame = 0
 768              		@ frame_needed = 0, uses_anonymous_args = 0
 769              		.loc 1 260 64 is_stmt 0 view .LVU250
 770 0000 10B5     		push	{r4, lr}
 771              		.cfi_def_cfa_offset 8
 772              		.cfi_offset 4, -8
 773              		.cfi_offset 14, -4
 774              		.loc 1 260 64 view .LVU251
 775 0002 0346     		mov	r3, r0
 776              		.loc 1 261 3 is_stmt 1 view .LVU252
 777              		.loc 1 263 3 view .LVU253
 778              	.LBB248:
 779              	.LBI248:
 780              		.loc 3 372 20 view .LVU254
 781              		.loc 3 374 3 view .LVU255
 782              	.LBB249:
 783              	.LBI249:
 784              		.loc 4 840 27 view .LVU256
 785              		.loc 4 848 3 view .LVU257
 786              	.LVL46:
 787              	.LBB250:
 788              	.LBI250:
 789              		.loc 5 491 27 view .LVU258
 790              	.LBB251:
 791              		.loc 5 493 3 view .LVU259
 792 0004 3024     		movs	r4, #48
 793              		.syntax unified
 794              	@ 493 "./ChibiOS/os/common/ext/ARM/CMSIS/Core/Include/cmsis_gcc.h" 1
 795 0006 84F31188 		MSR basepri, r4
 796              	@ 0 "" 2
 797              	.LVL47:
 798              		.loc 5 493 3 is_stmt 0 view .LVU260
ARM GAS  C:\Users\DEVELO~1\AppData\Local\Temp\cc4WWr21.s 			page 15


 799              		.thumb
 800              		.syntax unified
 801              	.LBE251:
 802              	.LBE250:
 803              	.LBE249:
 804              		.loc 3 375 35 is_stmt 1 view .LVU261
 805              		.loc 3 376 21 view .LVU262
 806              	.LBE248:
 807              		.loc 1 264 3 view .LVU263
 808              	.LBB252:
 809              	.LBI252:
 810              		.loc 1 288 7 view .LVU264
 811              	.LBB253:
 812              		.loc 1 290 21 view .LVU265
 813              		.loc 1 291 3 view .LVU266
 814              		.loc 1 291 3 view .LVU267
 815              		.loc 1 291 3 view .LVU268
 816              		.loc 1 292 3 view .LVU269
 817              		.loc 1 292 3 view .LVU270
 818              		.loc 1 292 3 view .LVU271
 819              		.loc 1 296 3 view .LVU272
 820              		.loc 1 296 11 is_stmt 0 view .LVU273
 821 000a 8468     		ldr	r4, [r0, #8]
 822              		.loc 1 296 7 view .LVU274
 823 000c 601E     		subs	r0, r4, #1
 824              	.LVL48:
 825              		.loc 1 296 6 view .LVU275
 826 000e 0028     		cmp	r0, #0
 827 0010 9860     		str	r0, [r3, #8]
 828 0012 04DB     		blt	.L39
 829              		.loc 1 309 10 view .LVU276
 830 0014 0020     		movs	r0, #0
 831              	.L35:
 832              	.LVL49:
 833              		.loc 1 309 10 view .LVU277
 834              	.LBE253:
 835              	.LBE252:
 836              		.loc 1 265 3 is_stmt 1 view .LVU278
 837              	.LBB269:
 838              	.LBI269:
 839              		.loc 3 386 20 view .LVU279
 840              	.LBB270:
 841              		.loc 3 388 23 view .LVU280
 842              		.loc 3 389 34 view .LVU281
 843              		.loc 3 395 3 view .LVU282
 844              		.loc 3 395 3 view .LVU283
 845              		.loc 3 395 3 view .LVU284
 846              		.loc 3 399 3 view .LVU285
 847              	.LBB271:
 848              	.LBI271:
 849              		.loc 4 864 27 view .LVU286
 850              		.loc 4 867 3 view .LVU287
 851              	.LBB272:
 852              	.LBI272:
 853              		.loc 5 491 27 view .LVU288
 854              	.LBB273:
 855              		.loc 5 493 3 view .LVU289
ARM GAS  C:\Users\DEVELO~1\AppData\Local\Temp\cc4WWr21.s 			page 16


 856 0016 0023     		movs	r3, #0
 857              	.LVL50:
 858              		.loc 5 493 3 is_stmt 0 view .LVU290
 859              		.syntax unified
 860              	@ 493 "./ChibiOS/os/common/ext/ARM/CMSIS/Core/Include/cmsis_gcc.h" 1
 861 0018 83F31188 		MSR basepri, r3
 862              	@ 0 "" 2
 863              	.LVL51:
 864              		.loc 5 493 3 view .LVU291
 865              		.thumb
 866              		.syntax unified
 867              	.LBE273:
 868              	.LBE272:
 869              	.LBE271:
 870              	.LBE270:
 871              	.LBE269:
 872              		.loc 1 267 3 is_stmt 1 view .LVU292
 873              		.loc 1 268 1 is_stmt 0 view .LVU293
 874 001c 10BD     		pop	{r4, pc}
 875              	.LVL52:
 876              	.L39:
 877              	.LBB278:
 878              	.LBB267:
 879              	.LBB254:
 880              		.loc 1 297 5 is_stmt 1 view .LVU294
 881              		.loc 1 297 8 is_stmt 0 view .LVU295
 882 001e 71B1     		cbz	r1, .L40
 883              	.LVL53:
 884              		.loc 1 297 8 view .LVU296
 885              	.LBE254:
 886              	.LBB255:
 887              	.LBI255:
 888              		.loc 1 288 7 is_stmt 1 view .LVU297
 889              	.LBB256:
 890              	.LBB257:
 891              		.loc 1 302 5 view .LVU298
 892              	.LBB258:
 893              	.LBI258:
 894              		.loc 6 527 25 view .LVU299
 895              	.LBB259:
 896              		.loc 6 529 3 view .LVU300
 897              		.loc 6 529 10 is_stmt 0 view .LVU301
 898 0020 094A     		ldr	r2, .L41
 899              	.LBE259:
 900              	.LBE258:
 901              		.loc 1 306 12 view .LVU302
 902 0022 0520     		movs	r0, #5
 903              	.LBB261:
 904              	.LBB262:
 905              		.loc 2 325 21 view .LVU303
 906 0024 5C68     		ldr	r4, [r3, #4]
 907              	.LBE262:
 908              	.LBE261:
 909              	.LBB264:
 910              	.LBB260:
 911              		.loc 6 529 10 view .LVU304
 912 0026 D268     		ldr	r2, [r2, #12]
ARM GAS  C:\Users\DEVELO~1\AppData\Local\Temp\cc4WWr21.s 			page 17


 913              	.LVL54:
 914              		.loc 6 529 10 view .LVU305
 915              	.LBE260:
 916              	.LBE264:
 917              		.loc 1 303 5 is_stmt 1 view .LVU306
 918              		.loc 1 303 22 is_stmt 0 view .LVU307
 919 0028 5363     		str	r3, [r2, #52]
 920              		.loc 1 304 5 is_stmt 1 view .LVU308
 921              	.LVL55:
 922              	.LBB265:
 923              	.LBI261:
 924              		.loc 2 322 20 view .LVU309
 925              	.LBB263:
 926              		.loc 2 324 3 view .LVU310
 927              		.loc 2 325 17 is_stmt 0 view .LVU311
 928 002a C2E90034 		strd	r3, r4, [r2]
 929              		.loc 2 326 3 is_stmt 1 view .LVU312
 930              		.loc 2 326 17 is_stmt 0 view .LVU313
 931 002e 2260     		str	r2, [r4]
 932              		.loc 2 327 3 is_stmt 1 view .LVU314
 933              		.loc 2 327 17 is_stmt 0 view .LVU315
 934 0030 5A60     		str	r2, [r3, #4]
 935              	.LVL56:
 936              		.loc 2 327 17 view .LVU316
 937              	.LBE263:
 938              	.LBE265:
 939              		.loc 1 306 5 is_stmt 1 view .LVU317
 940              		.loc 1 306 12 is_stmt 0 view .LVU318
 941 0032 FFF7FEFF 		bl	chSchGoSleepTimeoutS
 942              	.LVL57:
 943              		.loc 1 306 12 view .LVU319
 944              	.LBE257:
 945              	.LBE256:
 946              	.LBE255:
 947              	.LBE267:
 948              	.LBE278:
 949              		.loc 1 265 3 is_stmt 1 view .LVU320
 950              	.LBB279:
 951              		.loc 3 386 20 view .LVU321
 952              	.LBB277:
 953              		.loc 3 388 23 view .LVU322
 954              		.loc 3 389 34 view .LVU323
 955              		.loc 3 395 3 view .LVU324
 956              		.loc 3 395 3 view .LVU325
 957              		.loc 3 395 3 view .LVU326
 958              		.loc 3 399 3 view .LVU327
 959              	.LBB276:
 960              		.loc 4 864 27 view .LVU328
 961              		.loc 4 867 3 view .LVU329
 962              	.LBB275:
 963              		.loc 5 491 27 view .LVU330
 964              	.LBB274:
 965              		.loc 5 493 3 view .LVU331
 966 0036 0023     		movs	r3, #0
 967              		.syntax unified
 968              	@ 493 "./ChibiOS/os/common/ext/ARM/CMSIS/Core/Include/cmsis_gcc.h" 1
 969 0038 83F31188 		MSR basepri, r3
ARM GAS  C:\Users\DEVELO~1\AppData\Local\Temp\cc4WWr21.s 			page 18


 970              	@ 0 "" 2
 971              	.LVL58:
 972              		.loc 5 493 3 is_stmt 0 view .LVU332
 973              		.thumb
 974              		.syntax unified
 975              	.LBE274:
 976              	.LBE275:
 977              	.LBE276:
 978              	.LBE277:
 979              	.LBE279:
 980              		.loc 1 267 3 is_stmt 1 view .LVU333
 981              		.loc 1 268 1 is_stmt 0 view .LVU334
 982 003c 10BD     		pop	{r4, pc}
 983              	.LVL59:
 984              	.L40:
 985              	.LBB280:
 986              	.LBB268:
 987              	.LBB266:
 988              		.loc 1 298 7 is_stmt 1 view .LVU335
 989              		.loc 1 300 14 is_stmt 0 view .LVU336
 990 003e 4FF0FF30 		mov	r0, #-1
 991              		.loc 1 298 14 view .LVU337
 992 0042 9C60     		str	r4, [r3, #8]
 993              		.loc 1 300 7 is_stmt 1 view .LVU338
 994              		.loc 1 300 14 is_stmt 0 view .LVU339
 995 0044 E7E7     		b	.L35
 996              	.L42:
 997 0046 00BF     		.align	2
 998              	.L41:
 999 0048 00000000 		.word	ch0
 1000              	.LBE266:
 1001              	.LBE268:
 1002              	.LBE280:
 1003              		.cfi_endproc
 1004              	.LFE358:
 1005              		.size	chSemWaitTimeout, .-chSemWaitTimeout
 1006              		.section	.text.chSemWaitTimeoutS,"ax",%progbits
 1007              		.align	1
 1008              		.p2align 4,,15
 1009              		.global	chSemWaitTimeoutS
 1010              		.syntax unified
 1011              		.thumb
 1012              		.thumb_func
 1013              		.type	chSemWaitTimeoutS, %function
 1014              	chSemWaitTimeoutS:
 1015              	.LVL60:
 1016              	.LFB359:
 1017              		.loc 1 288 65 is_stmt 1 view -0
 1018              		.cfi_startproc
 1019              		@ args = 0, pretend = 0, frame = 0
 1020              		@ frame_needed = 0, uses_anonymous_args = 0
 1021              		@ link register save eliminated.
 1022              		.loc 1 288 65 is_stmt 0 view .LVU341
 1023 0000 10B4     		push	{r4}
 1024              		.cfi_def_cfa_offset 4
 1025              		.cfi_offset 4, -4
 1026              		.loc 1 296 11 view .LVU342
ARM GAS  C:\Users\DEVELO~1\AppData\Local\Temp\cc4WWr21.s 			page 19


 1027 0002 8468     		ldr	r4, [r0, #8]
 1028              		.loc 1 288 65 view .LVU343
 1029 0004 0346     		mov	r3, r0
 1030              		.loc 1 290 21 is_stmt 1 view .LVU344
 1031              		.loc 1 291 3 view .LVU345
 1032              		.loc 1 291 3 view .LVU346
 1033              		.loc 1 291 3 view .LVU347
 1034              		.loc 1 292 3 view .LVU348
 1035              		.loc 1 292 3 view .LVU349
 1036              		.loc 1 292 3 view .LVU350
 1037              		.loc 1 296 3 view .LVU351
 1038              		.loc 1 296 7 is_stmt 0 view .LVU352
 1039 0006 601E     		subs	r0, r4, #1
 1040              	.LVL61:
 1041              		.loc 1 296 6 view .LVU353
 1042 0008 0028     		cmp	r0, #0
 1043 000a 9860     		str	r0, [r3, #8]
 1044 000c 02DB     		blt	.L48
 1045              		.loc 1 309 10 view .LVU354
 1046 000e 0020     		movs	r0, #0
 1047              	.L43:
 1048              		.loc 1 310 1 view .LVU355
 1049 0010 10BC     		pop	{r4}
 1050              		.cfi_remember_state
 1051              		.cfi_restore 4
 1052              		.cfi_def_cfa_offset 0
 1053 0012 7047     		bx	lr
 1054              	.L48:
 1055              		.cfi_restore_state
 1056              	.LBB289:
 1057              		.loc 1 297 5 is_stmt 1 view .LVU356
 1058              		.loc 1 297 8 is_stmt 0 view .LVU357
 1059 0014 59B1     		cbz	r1, .L49
 1060              	.LVL62:
 1061              		.loc 1 297 8 view .LVU358
 1062              	.LBE289:
 1063              	.LBB290:
 1064              	.LBI290:
 1065              		.loc 1 288 7 is_stmt 1 view .LVU359
 1066              	.LBB291:
 1067              	.LBB292:
 1068              		.loc 1 302 5 view .LVU360
 1069              	.LBB293:
 1070              	.LBI293:
 1071              		.loc 6 527 25 view .LVU361
 1072              	.LBB294:
 1073              		.loc 6 529 3 view .LVU362
 1074              		.loc 6 529 10 is_stmt 0 view .LVU363
 1075 0016 084A     		ldr	r2, .L50
 1076              	.LBE294:
 1077              	.LBE293:
 1078              		.loc 1 306 12 view .LVU364
 1079 0018 0520     		movs	r0, #5
 1080              	.LBB296:
 1081              	.LBB297:
 1082              		.loc 2 325 21 view .LVU365
 1083 001a 5C68     		ldr	r4, [r3, #4]
ARM GAS  C:\Users\DEVELO~1\AppData\Local\Temp\cc4WWr21.s 			page 20


 1084              	.LBE297:
 1085              	.LBE296:
 1086              	.LBB301:
 1087              	.LBB295:
 1088              		.loc 6 529 10 view .LVU366
 1089 001c D268     		ldr	r2, [r2, #12]
 1090              	.LVL63:
 1091              		.loc 6 529 10 view .LVU367
 1092              	.LBE295:
 1093              	.LBE301:
 1094              		.loc 1 303 5 is_stmt 1 view .LVU368
 1095              	.LBB302:
 1096              	.LBB298:
 1097              		.loc 2 325 17 is_stmt 0 view .LVU369
 1098 001e C2E90034 		strd	r3, r4, [r2]
 1099              	.LBE298:
 1100              	.LBE302:
 1101              		.loc 1 303 22 view .LVU370
 1102 0022 5363     		str	r3, [r2, #52]
 1103              		.loc 1 304 5 is_stmt 1 view .LVU371
 1104              	.LVL64:
 1105              	.LBB303:
 1106              	.LBI296:
 1107              		.loc 2 322 20 view .LVU372
 1108              	.LBB299:
 1109              		.loc 2 324 3 view .LVU373
 1110              		.loc 2 326 3 view .LVU374
 1111              		.loc 2 326 17 is_stmt 0 view .LVU375
 1112 0024 2260     		str	r2, [r4]
 1113              		.loc 2 327 3 is_stmt 1 view .LVU376
 1114              	.LBE299:
 1115              	.LBE303:
 1116              	.LBE292:
 1117              	.LBE291:
 1118              	.LBE290:
 1119              		.loc 1 310 1 is_stmt 0 view .LVU377
 1120 0026 10BC     		pop	{r4}
 1121              		.cfi_remember_state
 1122              		.cfi_restore 4
 1123              		.cfi_def_cfa_offset 0
 1124              	.LBB307:
 1125              	.LBB306:
 1126              	.LBB305:
 1127              	.LBB304:
 1128              	.LBB300:
 1129              		.loc 2 327 17 view .LVU378
 1130 0028 5A60     		str	r2, [r3, #4]
 1131              	.LVL65:
 1132              		.loc 2 327 17 view .LVU379
 1133              	.LBE300:
 1134              	.LBE304:
 1135              		.loc 1 306 5 is_stmt 1 view .LVU380
 1136              		.loc 1 306 12 is_stmt 0 view .LVU381
 1137 002a FFF7FEBF 		b	chSchGoSleepTimeoutS
 1138              	.LVL66:
 1139              	.L49:
 1140              		.cfi_restore_state
ARM GAS  C:\Users\DEVELO~1\AppData\Local\Temp\cc4WWr21.s 			page 21


 1141              		.loc 1 306 12 view .LVU382
 1142              	.LBE305:
 1143              	.LBE306:
 1144              	.LBE307:
 1145              	.LBB308:
 1146              		.loc 1 298 7 is_stmt 1 view .LVU383
 1147              		.loc 1 300 14 is_stmt 0 view .LVU384
 1148 002e 4FF0FF30 		mov	r0, #-1
 1149              		.loc 1 298 14 view .LVU385
 1150 0032 9C60     		str	r4, [r3, #8]
 1151              		.loc 1 300 7 is_stmt 1 view .LVU386
 1152              		.loc 1 300 14 is_stmt 0 view .LVU387
 1153 0034 ECE7     		b	.L43
 1154              	.L51:
 1155 0036 00BF     		.align	2
 1156              	.L50:
 1157 0038 00000000 		.word	ch0
 1158              	.LBE308:
 1159              		.cfi_endproc
 1160              	.LFE359:
 1161              		.size	chSemWaitTimeoutS, .-chSemWaitTimeoutS
 1162              		.section	.text.chSemSignal,"ax",%progbits
 1163              		.align	1
 1164              		.p2align 4,,15
 1165              		.global	chSemSignal
 1166              		.syntax unified
 1167              		.thumb
 1168              		.thumb_func
 1169              		.type	chSemSignal, %function
 1170              	chSemSignal:
 1171              	.LVL67:
 1172              	.LFB360:
 1173              		.loc 1 319 35 is_stmt 1 view -0
 1174              		.cfi_startproc
 1175              		@ args = 0, pretend = 0, frame = 0
 1176              		@ frame_needed = 0, uses_anonymous_args = 0
 1177              		.loc 1 321 3 view .LVU389
 1178              		.loc 1 321 3 view .LVU390
 1179              		.loc 1 321 3 view .LVU391
 1180              		.loc 1 323 3 view .LVU392
 1181              	.LBB309:
 1182              	.LBI309:
 1183              		.loc 3 372 20 view .LVU393
 1184              		.loc 3 374 3 view .LVU394
 1185              	.LBB310:
 1186              	.LBI310:
 1187              		.loc 4 840 27 view .LVU395
 1188              		.loc 4 848 3 view .LVU396
 1189              	.LBB311:
 1190              	.LBI311:
 1191              		.loc 5 491 27 view .LVU397
 1192              	.LBB312:
 1193              		.loc 5 493 3 view .LVU398
 1194 0000 3022     		movs	r2, #48
 1195              	.LBE312:
 1196              	.LBE311:
 1197              	.LBE310:
ARM GAS  C:\Users\DEVELO~1\AppData\Local\Temp\cc4WWr21.s 			page 22


 1198              	.LBE309:
 1199              		.loc 1 319 35 is_stmt 0 view .LVU399
 1200 0002 08B5     		push	{r3, lr}
 1201              		.cfi_def_cfa_offset 8
 1202              		.cfi_offset 3, -8
 1203              		.cfi_offset 14, -4
 1204              	.LBB316:
 1205              	.LBB315:
 1206              	.LBB314:
 1207              	.LBB313:
 1208              		.loc 5 493 3 view .LVU400
 1209              		.syntax unified
 1210              	@ 493 "./ChibiOS/os/common/ext/ARM/CMSIS/Core/Include/cmsis_gcc.h" 1
 1211 0004 82F31188 		MSR basepri, r2
 1212              	@ 0 "" 2
 1213              	.LVL68:
 1214              		.loc 5 493 3 view .LVU401
 1215              		.thumb
 1216              		.syntax unified
 1217              	.LBE313:
 1218              	.LBE314:
 1219              	.LBE315:
 1220              		.loc 3 375 35 is_stmt 1 view .LVU402
 1221              		.loc 3 376 21 view .LVU403
 1222              	.LBE316:
 1223              		.loc 1 324 3 view .LVU404
 1224              		.loc 1 324 3 view .LVU405
 1225              		.loc 1 324 3 view .LVU406
 1226              		.loc 1 327 3 view .LVU407
 1227              		.loc 1 327 7 is_stmt 0 view .LVU408
 1228 0008 8268     		ldr	r2, [r0, #8]
 1229 000a 0132     		adds	r2, r2, #1
 1230              		.loc 1 327 6 view .LVU409
 1231 000c 002A     		cmp	r2, #0
 1232 000e 8260     		str	r2, [r0, #8]
 1233 0010 03DD     		ble	.L55
 1234              		.loc 1 330 3 is_stmt 1 view .LVU410
 1235              	.LBB317:
 1236              	.LBI317:
 1237              		.loc 3 386 20 view .LVU411
 1238              	.LBB318:
 1239              		.loc 3 388 23 view .LVU412
 1240              		.loc 3 389 34 view .LVU413
 1241              		.loc 3 395 3 view .LVU414
 1242              		.loc 3 395 3 view .LVU415
 1243              		.loc 3 395 3 view .LVU416
 1244              		.loc 3 399 3 view .LVU417
 1245              	.LBB319:
 1246              	.LBI319:
 1247              		.loc 4 864 27 view .LVU418
 1248              		.loc 4 867 3 view .LVU419
 1249              	.LVL69:
 1250              	.LBB320:
 1251              	.LBI320:
 1252              		.loc 5 491 27 view .LVU420
 1253              	.LBB321:
 1254              		.loc 5 493 3 view .LVU421
ARM GAS  C:\Users\DEVELO~1\AppData\Local\Temp\cc4WWr21.s 			page 23


 1255 0012 0023     		movs	r3, #0
 1256              		.syntax unified
 1257              	@ 493 "./ChibiOS/os/common/ext/ARM/CMSIS/Core/Include/cmsis_gcc.h" 1
 1258 0014 83F31188 		MSR basepri, r3
 1259              	@ 0 "" 2
 1260              	.LVL70:
 1261              		.loc 5 493 3 is_stmt 0 view .LVU422
 1262              		.thumb
 1263              		.syntax unified
 1264              	.LBE321:
 1265              	.LBE320:
 1266              	.LBE319:
 1267              	.LBE318:
 1268              	.LBE317:
 1269              		.loc 1 331 1 view .LVU423
 1270 0018 08BD     		pop	{r3, pc}
 1271              	.L55:
 1272 001a 0346     		mov	r3, r0
 1273              		.loc 1 328 5 is_stmt 1 view .LVU424
 1274              	.LVL71:
 1275              	.LBB326:
 1276              	.LBI326:
 1277              		.loc 2 340 27 view .LVU425
 1278              	.LBB327:
 1279              		.loc 2 341 3 view .LVU426
 1280              		.loc 2 341 15 is_stmt 0 view .LVU427
 1281 001c 0068     		ldr	r0, [r0]
 1282              	.LVL72:
 1283              		.loc 2 343 3 is_stmt 1 view .LVU428
 1284              	.LBE327:
 1285              	.LBE326:
 1286              		.loc 1 328 5 is_stmt 0 view .LVU429
 1287 001e 0021     		movs	r1, #0
 1288              	.LBB329:
 1289              	.LBB328:
 1290              		.loc 2 343 21 view .LVU430
 1291 0020 0268     		ldr	r2, [r0]
 1292              		.loc 2 343 18 view .LVU431
 1293 0022 1A60     		str	r2, [r3]
 1294              		.loc 2 344 3 is_stmt 1 view .LVU432
 1295              		.loc 2 344 18 is_stmt 0 view .LVU433
 1296 0024 5360     		str	r3, [r2, #4]
 1297              		.loc 2 346 3 is_stmt 1 view .LVU434
 1298              	.LVL73:
 1299              		.loc 2 346 3 is_stmt 0 view .LVU435
 1300              	.LBE328:
 1301              	.LBE329:
 1302              		.loc 1 328 5 view .LVU436
 1303 0026 FFF7FEFF 		bl	chSchWakeupS
 1304              	.LVL74:
 1305              		.loc 1 330 3 is_stmt 1 view .LVU437
 1306              	.LBB330:
 1307              		.loc 3 386 20 view .LVU438
 1308              	.LBB325:
 1309              		.loc 3 388 23 view .LVU439
 1310              		.loc 3 389 34 view .LVU440
 1311              		.loc 3 395 3 view .LVU441
ARM GAS  C:\Users\DEVELO~1\AppData\Local\Temp\cc4WWr21.s 			page 24


 1312              		.loc 3 395 3 view .LVU442
 1313              		.loc 3 395 3 view .LVU443
 1314              		.loc 3 399 3 view .LVU444
 1315              	.LBB324:
 1316              		.loc 4 864 27 view .LVU445
 1317              		.loc 4 867 3 view .LVU446
 1318              	.LBB323:
 1319              		.loc 5 491 27 view .LVU447
 1320              	.LBB322:
 1321              		.loc 5 493 3 view .LVU448
 1322 002a 0023     		movs	r3, #0
 1323              		.syntax unified
 1324              	@ 493 "./ChibiOS/os/common/ext/ARM/CMSIS/Core/Include/cmsis_gcc.h" 1
 1325 002c 83F31188 		MSR basepri, r3
 1326              	@ 0 "" 2
 1327              	.LVL75:
 1328              		.loc 5 493 3 is_stmt 0 view .LVU449
 1329              		.thumb
 1330              		.syntax unified
 1331              	.LBE322:
 1332              	.LBE323:
 1333              	.LBE324:
 1334              	.LBE325:
 1335              	.LBE330:
 1336              		.loc 1 331 1 view .LVU450
 1337 0030 08BD     		pop	{r3, pc}
 1338              		.cfi_endproc
 1339              	.LFE360:
 1340              		.size	chSemSignal, .-chSemSignal
 1341 0032 00BF     		.section	.text.chSemSignalI,"ax",%progbits
 1342              		.align	1
 1343              		.p2align 4,,15
 1344              		.global	chSemSignalI
 1345              		.syntax unified
 1346              		.thumb
 1347              		.thumb_func
 1348              		.type	chSemSignalI, %function
 1349              	chSemSignalI:
 1350              	.LVL76:
 1351              	.LFB361:
 1352              		.loc 1 344 36 is_stmt 1 view -0
 1353              		.cfi_startproc
 1354              		@ args = 0, pretend = 0, frame = 0
 1355              		@ frame_needed = 0, uses_anonymous_args = 0
 1356              		@ link register save eliminated.
 1357              		.loc 1 346 21 view .LVU452
 1358              		.loc 1 347 3 view .LVU453
 1359              		.loc 1 347 3 view .LVU454
 1360              		.loc 1 347 3 view .LVU455
 1361              		.loc 1 348 3 view .LVU456
 1362              		.loc 1 348 3 view .LVU457
 1363              		.loc 1 348 3 view .LVU458
 1364              		.loc 1 352 3 view .LVU459
 1365              		.loc 1 352 7 is_stmt 0 view .LVU460
 1366 0000 8268     		ldr	r2, [r0, #8]
 1367              		.loc 1 344 36 view .LVU461
 1368 0002 0346     		mov	r3, r0
ARM GAS  C:\Users\DEVELO~1\AppData\Local\Temp\cc4WWr21.s 			page 25


 1369              		.loc 1 352 7 view .LVU462
 1370 0004 0132     		adds	r2, r2, #1
 1371              		.loc 1 352 6 view .LVU463
 1372 0006 002A     		cmp	r2, #0
 1373 0008 8260     		str	r2, [r0, #8]
 1374 000a 00DD     		ble	.L58
 1375              		.loc 1 359 1 view .LVU464
 1376 000c 7047     		bx	lr
 1377              	.L58:
 1378              	.LBB331:
 1379              		.loc 1 355 5 is_stmt 1 view .LVU465
 1380              	.LVL77:
 1381              	.LBB332:
 1382              	.LBI332:
 1383              		.loc 2 340 27 view .LVU466
 1384              	.LBB333:
 1385              		.loc 2 341 3 view .LVU467
 1386              		.loc 2 341 15 is_stmt 0 view .LVU468
 1387 000e 0068     		ldr	r0, [r0]
 1388              	.LVL78:
 1389              		.loc 2 343 3 is_stmt 1 view .LVU469
 1390              	.LBE333:
 1391              	.LBE332:
 1392              		.loc 1 356 18 is_stmt 0 view .LVU470
 1393 0010 0021     		movs	r1, #0
 1394              	.LBB335:
 1395              	.LBB334:
 1396              		.loc 2 343 21 view .LVU471
 1397 0012 0268     		ldr	r2, [r0]
 1398              		.loc 2 343 18 view .LVU472
 1399 0014 1A60     		str	r2, [r3]
 1400              		.loc 2 344 3 is_stmt 1 view .LVU473
 1401              		.loc 2 344 18 is_stmt 0 view .LVU474
 1402 0016 5360     		str	r3, [r2, #4]
 1403              		.loc 2 346 3 is_stmt 1 view .LVU475
 1404              	.LVL79:
 1405              		.loc 2 346 3 is_stmt 0 view .LVU476
 1406              	.LBE334:
 1407              	.LBE335:
 1408              		.loc 1 356 5 is_stmt 1 view .LVU477
 1409              		.loc 1 356 18 is_stmt 0 view .LVU478
 1410 0018 4163     		str	r1, [r0, #52]
 1411              		.loc 1 357 5 is_stmt 1 view .LVU479
 1412              		.loc 1 357 12 is_stmt 0 view .LVU480
 1413 001a FFF7FEBF 		b	chSchReadyI
 1414              	.LVL80:
 1415              		.loc 1 357 12 view .LVU481
 1416              	.LBE331:
 1417              		.cfi_endproc
 1418              	.LFE361:
 1419              		.size	chSemSignalI, .-chSemSignalI
 1420 001e 00BF     		.section	.text.chSemAddCounterI,"ax",%progbits
 1421              		.align	1
 1422              		.p2align 4,,15
 1423              		.global	chSemAddCounterI
 1424              		.syntax unified
 1425              		.thumb
ARM GAS  C:\Users\DEVELO~1\AppData\Local\Temp\cc4WWr21.s 			page 26


 1426              		.thumb_func
 1427              		.type	chSemAddCounterI, %function
 1428              	chSemAddCounterI:
 1429              	.LVL81:
 1430              	.LFB362:
 1431              		.loc 1 374 49 is_stmt 1 view -0
 1432              		.cfi_startproc
 1433              		@ args = 0, pretend = 0, frame = 0
 1434              		@ frame_needed = 0, uses_anonymous_args = 0
 1435              		.loc 1 376 21 view .LVU483
 1436              		.loc 1 377 3 view .LVU484
 1437              		.loc 1 377 3 view .LVU485
 1438              		.loc 1 377 3 view .LVU486
 1439              		.loc 1 378 3 view .LVU487
 1440              		.loc 1 378 3 view .LVU488
 1441              		.loc 1 382 12 view .LVU489
 1442              		.loc 1 374 49 is_stmt 0 view .LVU490
 1443 0000 70B5     		push	{r4, r5, r6, lr}
 1444              		.cfi_def_cfa_offset 16
 1445              		.cfi_offset 4, -16
 1446              		.cfi_offset 5, -12
 1447              		.cfi_offset 6, -8
 1448              		.cfi_offset 14, -4
 1449              		.loc 1 382 12 view .LVU491
 1450 0002 0C1E     		subs	r4, r1, #0
 1451 0004 12DD     		ble	.L59
 1452 0006 0546     		mov	r5, r0
 1453              		.loc 1 384 74 view .LVU492
 1454 0008 0026     		movs	r6, #0
 1455 000a 01E0     		b	.L62
 1456              	.LVL82:
 1457              	.L61:
 1458              		.loc 1 386 5 is_stmt 1 view .LVU493
 1459              		.loc 1 382 12 view .LVU494
 1460 000c 013C     		subs	r4, r4, #1
 1461              	.LVL83:
 1462              		.loc 1 382 12 is_stmt 0 view .LVU495
 1463 000e 0DD0     		beq	.L59
 1464              	.LVL84:
 1465              	.L62:
 1466              		.loc 1 383 5 is_stmt 1 view .LVU496
 1467              		.loc 1 383 9 is_stmt 0 view .LVU497
 1468 0010 AB68     		ldr	r3, [r5, #8]
 1469 0012 0133     		adds	r3, r3, #1
 1470              		.loc 1 383 8 view .LVU498
 1471 0014 002B     		cmp	r3, #0
 1472 0016 AB60     		str	r3, [r5, #8]
 1473 0018 F8DC     		bgt	.L61
 1474              		.loc 1 384 7 is_stmt 1 view .LVU499
 1475              	.LVL85:
 1476              	.LBB336:
 1477              	.LBI336:
 1478              		.loc 2 340 27 view .LVU500
 1479              	.LBB337:
 1480              		.loc 2 341 3 view .LVU501
 1481              		.loc 2 341 15 is_stmt 0 view .LVU502
 1482 001a 2868     		ldr	r0, [r5]
ARM GAS  C:\Users\DEVELO~1\AppData\Local\Temp\cc4WWr21.s 			page 27


 1483              	.LVL86:
 1484              		.loc 2 343 3 is_stmt 1 view .LVU503
 1485              		.loc 2 343 21 is_stmt 0 view .LVU504
 1486 001c 0368     		ldr	r3, [r0]
 1487              		.loc 2 343 18 view .LVU505
 1488 001e 2B60     		str	r3, [r5]
 1489              		.loc 2 344 3 is_stmt 1 view .LVU506
 1490              		.loc 2 344 18 is_stmt 0 view .LVU507
 1491 0020 5D60     		str	r5, [r3, #4]
 1492              		.loc 2 346 3 is_stmt 1 view .LVU508
 1493              	.LVL87:
 1494              		.loc 2 346 3 is_stmt 0 view .LVU509
 1495              	.LBE337:
 1496              	.LBE336:
 1497              		.loc 1 384 7 view .LVU510
 1498 0022 FFF7FEFF 		bl	chSchReadyI
 1499              	.LVL88:
 1500              		.loc 1 382 12 view .LVU511
 1501 0026 013C     		subs	r4, r4, #1
 1502              	.LVL89:
 1503              		.loc 1 384 74 view .LVU512
 1504 0028 4663     		str	r6, [r0, #52]
 1505              		.loc 1 386 5 is_stmt 1 view .LVU513
 1506              	.LVL90:
 1507              		.loc 1 382 12 view .LVU514
 1508 002a F1D1     		bne	.L62
 1509              	.LVL91:
 1510              	.L59:
 1511              		.loc 1 388 1 is_stmt 0 view .LVU515
 1512 002c 70BD     		pop	{r4, r5, r6, pc}
 1513              		.cfi_endproc
 1514              	.LFE362:
 1515              		.size	chSemAddCounterI, .-chSemAddCounterI
 1516 002e 00BF     		.section	.text.chSemSignalWait,"ax",%progbits
 1517              		.align	1
 1518              		.p2align 4,,15
 1519              		.global	chSemSignalWait
 1520              		.syntax unified
 1521              		.thumb
 1522              		.thumb_func
 1523              		.type	chSemSignalWait, %function
 1524              	chSemSignalWait:
 1525              	.LVL92:
 1526              	.LFB363:
 1527              		.loc 1 403 59 is_stmt 1 view -0
 1528              		.cfi_startproc
 1529              		@ args = 0, pretend = 0, frame = 0
 1530              		@ frame_needed = 0, uses_anonymous_args = 0
 1531              		.loc 1 404 3 view .LVU517
 1532              		.loc 1 406 3 view .LVU518
 1533              		.loc 1 406 3 view .LVU519
 1534              		.loc 1 406 3 view .LVU520
 1535              		.loc 1 408 3 view .LVU521
 1536              	.LBB338:
 1537              	.LBI338:
 1538              		.loc 3 372 20 view .LVU522
 1539              		.loc 3 374 3 view .LVU523
ARM GAS  C:\Users\DEVELO~1\AppData\Local\Temp\cc4WWr21.s 			page 28


 1540              	.LBB339:
 1541              	.LBI339:
 1542              		.loc 4 840 27 view .LVU524
 1543              		.loc 4 848 3 view .LVU525
 1544              	.LBB340:
 1545              	.LBI340:
 1546              		.loc 5 491 27 view .LVU526
 1547              	.LBB341:
 1548              		.loc 5 493 3 view .LVU527
 1549              	.LBE341:
 1550              	.LBE340:
 1551              	.LBE339:
 1552              	.LBE338:
 1553              		.loc 1 403 59 is_stmt 0 view .LVU528
 1554 0000 38B5     		push	{r3, r4, r5, lr}
 1555              		.cfi_def_cfa_offset 16
 1556              		.cfi_offset 3, -16
 1557              		.cfi_offset 4, -12
 1558              		.cfi_offset 5, -8
 1559              		.cfi_offset 14, -4
 1560              	.LBB348:
 1561              	.LBB346:
 1562              	.LBB344:
 1563              	.LBB342:
 1564              		.loc 5 493 3 view .LVU529
 1565 0002 3022     		movs	r2, #48
 1566              	.LBE342:
 1567              	.LBE344:
 1568              	.LBE346:
 1569              	.LBE348:
 1570              		.loc 1 403 59 view .LVU530
 1571 0004 0C46     		mov	r4, r1
 1572              	.LBB349:
 1573              	.LBB347:
 1574              	.LBB345:
 1575              	.LBB343:
 1576              		.loc 5 493 3 view .LVU531
 1577              		.syntax unified
 1578              	@ 493 "./ChibiOS/os/common/ext/ARM/CMSIS/Core/Include/cmsis_gcc.h" 1
 1579 0006 82F31188 		MSR basepri, r2
 1580              	@ 0 "" 2
 1581              	.LVL93:
 1582              		.loc 5 493 3 view .LVU532
 1583              		.thumb
 1584              		.syntax unified
 1585              	.LBE343:
 1586              	.LBE345:
 1587              	.LBE347:
 1588              		.loc 3 375 35 is_stmt 1 view .LVU533
 1589              		.loc 3 376 21 view .LVU534
 1590              	.LBE349:
 1591              		.loc 1 409 3 view .LVU535
 1592              		.loc 1 409 3 view .LVU536
 1593              		.loc 1 409 3 view .LVU537
 1594              		.loc 1 412 3 view .LVU538
 1595              		.loc 1 412 3 view .LVU539
 1596              		.loc 1 412 3 view .LVU540
ARM GAS  C:\Users\DEVELO~1\AppData\Local\Temp\cc4WWr21.s 			page 29


 1597              		.loc 1 415 3 view .LVU541
 1598              		.loc 1 415 7 is_stmt 0 view .LVU542
 1599 000a 8268     		ldr	r2, [r0, #8]
 1600 000c 0132     		adds	r2, r2, #1
 1601              		.loc 1 415 6 view .LVU543
 1602 000e 002A     		cmp	r2, #0
 1603 0010 8260     		str	r2, [r0, #8]
 1604 0012 1BDD     		ble	.L70
 1605              	.LVL94:
 1606              	.L66:
 1607              		.loc 1 418 3 is_stmt 1 view .LVU544
 1608              		.loc 1 418 7 is_stmt 0 view .LVU545
 1609 0014 A368     		ldr	r3, [r4, #8]
 1610 0016 013B     		subs	r3, r3, #1
 1611              		.loc 1 418 6 view .LVU546
 1612 0018 002B     		cmp	r3, #0
 1613 001a A360     		str	r3, [r4, #8]
 1614 001c 06DB     		blt	.L71
 1615              		.loc 1 426 5 is_stmt 1 view .LVU547
 1616 001e FFF7FEFF 		bl	chSchRescheduleS
 1617              	.LVL95:
 1618              		.loc 1 427 5 view .LVU548
 1619              		.loc 1 427 9 is_stmt 0 view .LVU549
 1620 0022 0020     		movs	r0, #0
 1621              	.LVL96:
 1622              		.loc 1 429 3 is_stmt 1 view .LVU550
 1623              	.LBB350:
 1624              	.LBI350:
 1625              		.loc 3 386 20 view .LVU551
 1626              	.LBB351:
 1627              		.loc 3 388 23 view .LVU552
 1628              		.loc 3 389 34 view .LVU553
 1629              		.loc 3 395 3 view .LVU554
 1630              		.loc 3 395 3 view .LVU555
 1631              		.loc 3 395 3 view .LVU556
 1632              		.loc 3 399 3 view .LVU557
 1633              	.LBB352:
 1634              	.LBI352:
 1635              		.loc 4 864 27 view .LVU558
 1636              		.loc 4 867 3 view .LVU559
 1637              	.LBB353:
 1638              	.LBI353:
 1639              		.loc 5 491 27 view .LVU560
 1640              	.LBB354:
 1641              		.loc 5 493 3 view .LVU561
 1642 0024 0023     		movs	r3, #0
 1643              		.syntax unified
 1644              	@ 493 "./ChibiOS/os/common/ext/ARM/CMSIS/Core/Include/cmsis_gcc.h" 1
 1645 0026 83F31188 		MSR basepri, r3
 1646              	@ 0 "" 2
 1647              	.LVL97:
 1648              		.loc 5 493 3 is_stmt 0 view .LVU562
 1649              		.thumb
 1650              		.syntax unified
 1651              	.LBE354:
 1652              	.LBE353:
 1653              	.LBE352:
ARM GAS  C:\Users\DEVELO~1\AppData\Local\Temp\cc4WWr21.s 			page 30


 1654              	.LBE351:
 1655              	.LBE350:
 1656              		.loc 1 431 3 is_stmt 1 view .LVU563
 1657              		.loc 1 432 1 is_stmt 0 view .LVU564
 1658 002a 38BD     		pop	{r3, r4, r5, pc}
 1659              	.LVL98:
 1660              	.L71:
 1661              	.LBB359:
 1662              		.loc 1 419 5 is_stmt 1 view .LVU565
 1663              	.LBB360:
 1664              	.LBI360:
 1665              		.loc 6 527 25 view .LVU566
 1666              	.LBB361:
 1667              		.loc 6 529 3 view .LVU567
 1668              		.loc 6 529 10 is_stmt 0 view .LVU568
 1669 002c 0C4A     		ldr	r2, .L72
 1670              	.LBE361:
 1671              	.LBE360:
 1672              		.loc 1 422 5 view .LVU569
 1673 002e 0520     		movs	r0, #5
 1674              	.LBB363:
 1675              	.LBB364:
 1676              		.loc 2 325 21 view .LVU570
 1677 0030 6368     		ldr	r3, [r4, #4]
 1678              	.LBE364:
 1679              	.LBE363:
 1680              	.LBB366:
 1681              	.LBB362:
 1682              		.loc 6 529 10 view .LVU571
 1683 0032 D568     		ldr	r5, [r2, #12]
 1684              	.LVL99:
 1685              		.loc 6 529 10 view .LVU572
 1686              	.LBE362:
 1687              	.LBE366:
 1688              		.loc 1 420 5 is_stmt 1 view .LVU573
 1689              	.LBB367:
 1690              	.LBI363:
 1691              		.loc 2 322 20 view .LVU574
 1692              	.LBB365:
 1693              		.loc 2 324 3 view .LVU575
 1694              		.loc 2 325 17 is_stmt 0 view .LVU576
 1695 0034 C5E90043 		strd	r4, r3, [r5]
 1696              		.loc 2 326 3 is_stmt 1 view .LVU577
 1697              		.loc 2 326 17 is_stmt 0 view .LVU578
 1698 0038 1D60     		str	r5, [r3]
 1699              		.loc 2 327 3 is_stmt 1 view .LVU579
 1700              		.loc 2 327 17 is_stmt 0 view .LVU580
 1701 003a 6560     		str	r5, [r4, #4]
 1702              	.LVL100:
 1703              		.loc 2 327 17 view .LVU581
 1704              	.LBE365:
 1705              	.LBE367:
 1706              		.loc 1 421 5 is_stmt 1 view .LVU582
 1707              		.loc 1 421 22 is_stmt 0 view .LVU583
 1708 003c 6C63     		str	r4, [r5, #52]
 1709              		.loc 1 422 5 is_stmt 1 view .LVU584
 1710 003e FFF7FEFF 		bl	chSchGoSleepS
ARM GAS  C:\Users\DEVELO~1\AppData\Local\Temp\cc4WWr21.s 			page 31


 1711              	.LVL101:
 1712              		.loc 1 423 5 view .LVU585
 1713              		.loc 1 423 9 is_stmt 0 view .LVU586
 1714 0042 686B     		ldr	r0, [r5, #52]
 1715              	.LVL102:
 1716              		.loc 1 423 9 view .LVU587
 1717              	.LBE359:
 1718              		.loc 1 429 3 is_stmt 1 view .LVU588
 1719              	.LBB368:
 1720              		.loc 3 386 20 view .LVU589
 1721              	.LBB358:
 1722              		.loc 3 388 23 view .LVU590
 1723              		.loc 3 389 34 view .LVU591
 1724              		.loc 3 395 3 view .LVU592
 1725              		.loc 3 395 3 view .LVU593
 1726              		.loc 3 395 3 view .LVU594
 1727              		.loc 3 399 3 view .LVU595
 1728              	.LBB357:
 1729              		.loc 4 864 27 view .LVU596
 1730              		.loc 4 867 3 view .LVU597
 1731              	.LBB356:
 1732              		.loc 5 491 27 view .LVU598
 1733              	.LBB355:
 1734              		.loc 5 493 3 view .LVU599
 1735 0044 0023     		movs	r3, #0
 1736              		.syntax unified
 1737              	@ 493 "./ChibiOS/os/common/ext/ARM/CMSIS/Core/Include/cmsis_gcc.h" 1
 1738 0046 83F31188 		MSR basepri, r3
 1739              	@ 0 "" 2
 1740              	.LVL103:
 1741              		.loc 5 493 3 is_stmt 0 view .LVU600
 1742              		.thumb
 1743              		.syntax unified
 1744              	.LBE355:
 1745              	.LBE356:
 1746              	.LBE357:
 1747              	.LBE358:
 1748              	.LBE368:
 1749              		.loc 1 431 3 is_stmt 1 view .LVU601
 1750              		.loc 1 432 1 is_stmt 0 view .LVU602
 1751 004a 38BD     		pop	{r3, r4, r5, pc}
 1752              	.LVL104:
 1753              	.L70:
 1754              		.loc 1 432 1 view .LVU603
 1755 004c 0346     		mov	r3, r0
 1756              		.loc 1 416 5 is_stmt 1 view .LVU604
 1757              	.LVL105:
 1758              	.LBB369:
 1759              	.LBI369:
 1760              		.loc 2 340 27 view .LVU605
 1761              	.LBB370:
 1762              		.loc 2 341 3 view .LVU606
 1763              		.loc 2 341 15 is_stmt 0 view .LVU607
 1764 004e 0068     		ldr	r0, [r0]
 1765              	.LVL106:
 1766              		.loc 2 343 3 is_stmt 1 view .LVU608
 1767              		.loc 2 343 21 is_stmt 0 view .LVU609
ARM GAS  C:\Users\DEVELO~1\AppData\Local\Temp\cc4WWr21.s 			page 32


 1768 0050 0268     		ldr	r2, [r0]
 1769              		.loc 2 343 18 view .LVU610
 1770 0052 1A60     		str	r2, [r3]
 1771              		.loc 2 344 3 is_stmt 1 view .LVU611
 1772              		.loc 2 344 18 is_stmt 0 view .LVU612
 1773 0054 5360     		str	r3, [r2, #4]
 1774              		.loc 2 346 3 is_stmt 1 view .LVU613
 1775              	.LVL107:
 1776              		.loc 2 346 3 is_stmt 0 view .LVU614
 1777              	.LBE370:
 1778              	.LBE369:
 1779              		.loc 1 416 5 view .LVU615
 1780 0056 FFF7FEFF 		bl	chSchReadyI
 1781              	.LVL108:
 1782              		.loc 1 416 73 view .LVU616
 1783 005a 0023     		movs	r3, #0
 1784 005c 4363     		str	r3, [r0, #52]
 1785 005e D9E7     		b	.L66
 1786              	.L73:
 1787              		.align	2
 1788              	.L72:
 1789 0060 00000000 		.word	ch0
 1790              		.cfi_endproc
 1791              	.LFE363:
 1792              		.size	chSemSignalWait, .-chSemSignalWait
 1793              		.text
 1794              	.Letext0:
 1795              		.file 7 "c:\\chibistudio\\tools\\gnu tools arm embedded\\11.3 2022.08\\arm-none-eabi\\include\\mac
 1796              		.file 8 "c:\\chibistudio\\tools\\gnu tools arm embedded\\11.3 2022.08\\arm-none-eabi\\include\\sys
 1797              		.file 9 "./ChibiOS/os/common/ports/ARM-common/include/chtypes.h"
 1798              		.file 10 "./ChibiOS/os/rt/include/chearly.h"
 1799              		.file 11 "./ChibiOS/os/rt/include/chobjects.h"
 1800              		.file 12 "./ChibiOS/os/rt/include/chrfcu.h"
 1801              		.file 13 "./ChibiOS/os/rt/include/chdebug.h"
 1802              		.file 14 "./ChibiOS/os/rt/include/chtime.h"
 1803              		.file 15 "./ChibiOS/os/rt/include/chtrace.h"
 1804              		.file 16 "./ChibiOS/os/rt/include/chsem.h"
 1805              		.file 17 "./ChibiOS/os/rt/include/chmtx.h"
 1806              		.file 18 "./ChibiOS/os/rt/include/chschd.h"