ARM GAS  C:\Users\DEVELO~1\AppData\Local\Temp\ccUBlV4P.s 			page 1


   1              		.cpu cortex-m7
   2              		.arch armv7e-m
   3              		.fpu softvfp
   4              		.eabi_attribute 20, 1
   5              		.eabi_attribute 21, 1
   6              		.eabi_attribute 23, 3
   7              		.eabi_attribute 24, 1
   8              		.eabi_attribute 25, 1
   9              		.eabi_attribute 26, 1
  10              		.eabi_attribute 30, 2
  11              		.eabi_attribute 34, 1
  12              		.eabi_attribute 18, 4
  13              		.file	"chthreads.c"
  14              		.text
  15              	.Ltext0:
  16              		.cfi_sections	.debug_frame
  17              		.section	.text.chThdObjectInit,"ax",%progbits
  18              		.align	1
  19              		.p2align 4,,15
  20              		.global	chThdObjectInit
  21              		.syntax unified
  22              		.thumb
  23              		.thumb_func
  24              		.type	chThdObjectInit, %function
  25              	chThdObjectInit:
  26              	.LVL0:
  27              	.LFB352:
  28              		.file 1 "./ChibiOS/os/rt/src/chthreads.c"
  29              		.loc 1 117 59 view -0
  30              		.cfi_startproc
  31              		@ args = 0, pretend = 0, frame = 0
  32              		@ frame_needed = 0, uses_anonymous_args = 0
  33              		@ link register save eliminated.
  34              		.loc 1 119 3 view .LVU1
  35              		.loc 1 119 3 view .LVU2
  36              		.loc 1 119 3 view .LVU3
  37              		.loc 1 120 3 view .LVU4
  38              		.loc 1 120 3 view .LVU5
  39              		.loc 1 120 3 view .LVU6
  40              		.loc 1 123 3 view .LVU7
  41              		.loc 1 128 25 is_stmt 0 view .LVU8
  42 0000 0223     		movs	r3, #2
  43              		.loc 1 117 59 view .LVU9
  44 0002 10B4     		push	{r4}
  45              		.cfi_def_cfa_offset 4
  46              		.cfi_offset 4, -4
  47              		.loc 1 124 14 view .LVU10
  48 0004 D1E90142 		ldrd	r4, r2, [r1, #4]
  49 0008 C0E90542 		strd	r4, r2, [r0, #20]
  50              		.loc 1 127 3 is_stmt 1 view .LVU11
  51              		.loc 1 127 30 is_stmt 0 view .LVU12
  52 000c CC68     		ldr	r4, [r1, #12]
  53              		.loc 1 128 25 view .LVU13
  54 000e 8383     		strh	r3, [r0, #28]	@ movhi
  55              		.loc 1 130 10 view .LVU14
  56 0010 8A69     		ldr	r2, [r1, #24]
  57              		.loc 1 127 25 view .LVU15
ARM GAS  C:\Users\DEVELO~1\AppData\Local\Temp\ccUBlV4P.s 			page 2


  58 0012 8460     		str	r4, [r0, #8]
  59              		.loc 1 128 3 is_stmt 1 view .LVU16
  60              		.loc 1 129 3 view .LVU17
  61              		.loc 1 130 3 view .LVU18
  62              		.loc 1 130 6 is_stmt 0 view .LVU19
  63 0014 9AB1     		cbz	r2, .L6
  64              	.L2:
  65              		.loc 1 137 25 view .LVU20
  66 0016 0023     		movs	r3, #0
  67              		.loc 1 149 25 view .LVU21
  68 0018 C464     		str	r4, [r0, #76]
  69              		.loc 1 165 25 view .LVU22
  70 001a 0124     		movs	r4, #1
  71 001c 0261     		str	r2, [r0, #16]
  72              		.loc 1 137 3 is_stmt 1 view .LVU23
  73              		.loc 1 171 3 is_stmt 0 view .LVU24
  74 001e 00F13C02 		add	r2, r0, #60
  75              		.loc 1 165 25 view .LVU25
  76 0022 8477     		strb	r4, [r0, #30]
  77              		.loc 1 166 25 view .LVU26
  78 0024 0968     		ldr	r1, [r1]
  79              	.LVL1:
  80              		.loc 1 183 1 view .LVU27
  81 0026 10BC     		pop	{r4}
  82              		.cfi_remember_state
  83              		.cfi_restore 4
  84              		.cfi_def_cfa_offset 0
  85              	.LBB281:
  86              	.LBB282:
  87              		.file 2 "./ChibiOS/os/rt/include/chlists.h"
  88              		.loc 2 284 12 view .LVU28
  89 0028 C263     		str	r2, [r0, #60]
  90              	.LBE282:
  91              	.LBE281:
  92              		.loc 1 166 25 view .LVU29
  93 002a 0162     		str	r1, [r0, #32]
  94              	.LBB285:
  95              	.LBB283:
  96              		.loc 2 285 12 view .LVU30
  97 002c 0264     		str	r2, [r0, #64]
  98              	.LBE283:
  99              	.LBE285:
 100              		.loc 1 138 25 view .LVU31
 101 002e C0E90B33 		strd	r3, r3, [r0, #44]
 102              		.loc 1 144 3 is_stmt 1 view .LVU32
 103              	.LVL2:
 104              	.LBB286:
 105              	.LBI286:
 106              		.loc 2 213 20 view .LVU33
 107              	.LBB287:
 108              		.loc 2 215 3 view .LVU34
 109              	.LBE287:
 110              	.LBE286:
 111              		.loc 1 155 25 is_stmt 0 view .LVU35
 112 0032 C0E91133 		strd	r3, r3, [r0, #68]
 113              		.loc 1 144 3 view .LVU36
 114 0036 00F13803 		add	r3, r0, #56
ARM GAS  C:\Users\DEVELO~1\AppData\Local\Temp\ccUBlV4P.s 			page 3


 115              	.LVL3:
 116              	.LBB289:
 117              	.LBB288:
 118              		.loc 2 215 12 view .LVU37
 119 003a 8363     		str	r3, [r0, #56]
 120              	.LVL4:
 121              		.loc 2 215 12 view .LVU38
 122              	.LBE288:
 123              	.LBE289:
 124              		.loc 1 149 3 is_stmt 1 view .LVU39
 125              		.loc 1 150 3 view .LVU40
 126              		.loc 1 155 3 view .LVU41
 127              		.loc 1 165 3 view .LVU42
 128              		.loc 1 166 3 view .LVU43
 129              		.loc 1 171 3 view .LVU44
 130              	.LBB290:
 131              	.LBI281:
 132              		.loc 2 282 20 view .LVU45
 133              	.LBB284:
 134              		.loc 2 284 3 view .LVU46
 135              		.loc 2 285 3 view .LVU47
 136              		.loc 2 285 3 is_stmt 0 view .LVU48
 137              	.LBE284:
 138              	.LBE290:
 139              		.loc 1 180 3 is_stmt 1 view .LVU49
 140              		.loc 1 180 30 view .LVU50
 141              		.loc 1 182 3 view .LVU51
 142              		.loc 1 183 1 is_stmt 0 view .LVU52
 143 003c 7047     		bx	lr
 144              	.LVL5:
 145              	.L6:
 146              		.cfi_restore_state
 147              		.loc 1 134 25 view .LVU53
 148 003e 014A     		ldr	r2, .L7
 149 0040 E9E7     		b	.L2
 150              	.L8:
 151 0042 00BF     		.align	2
 152              	.L7:
 153 0044 00000000 		.word	ch0
 154              		.cfi_endproc
 155              	.LFE352:
 156              		.size	chThdObjectInit, .-chThdObjectInit
 157              		.section	.text.chThdObjectDispose,"ax",%progbits
 158              		.align	1
 159              		.p2align 4,,15
 160              		.global	chThdObjectDispose
 161              		.syntax unified
 162              		.thumb
 163              		.thumb_func
 164              		.type	chThdObjectDispose, %function
 165              	chThdObjectDispose:
 166              	.LVL6:
 167              	.LFB353:
 168              		.loc 1 200 39 is_stmt 1 view -0
 169              		.cfi_startproc
 170              		@ args = 0, pretend = 0, frame = 0
 171              		@ frame_needed = 0, uses_anonymous_args = 0
ARM GAS  C:\Users\DEVELO~1\AppData\Local\Temp\ccUBlV4P.s 			page 4


 172              		@ link register save eliminated.
 173              		.loc 1 202 3 view .LVU55
 174              		.loc 1 202 3 view .LVU56
 175              		.loc 1 202 3 view .LVU57
 176              		.loc 1 204 32 view .LVU58
 177              		.loc 1 205 34 view .LVU59
 178              		.loc 1 208 3 view .LVU60
 179              		.loc 1 208 3 view .LVU61
 180              		.loc 1 208 3 view .LVU62
 181              		.loc 1 211 3 view .LVU63
 182              		.loc 1 211 3 view .LVU64
 183              		.loc 1 211 3 view .LVU65
 184              		.loc 1 214 3 view .LVU66
 185              		.loc 1 214 3 view .LVU67
 186              		.loc 1 214 3 view .LVU68
 187              		.loc 1 217 3 view .LVU69
 188              		.loc 1 217 3 view .LVU70
 189              		.loc 1 217 3 view .LVU71
 190              		.loc 1 223 1 is_stmt 0 view .LVU72
 191 0000 7047     		bx	lr
 192              		.cfi_endproc
 193              	.LFE353:
 194              		.size	chThdObjectDispose, .-chThdObjectDispose
 195 0002 00BF     		.section	.text.chThdSpawnSuspendedI,"ax",%progbits
 196              		.align	1
 197              		.p2align 4,,15
 198              		.global	chThdSpawnSuspendedI
 199              		.syntax unified
 200              		.thumb
 201              		.thumb_func
 202              		.type	chThdSpawnSuspendedI, %function
 203              	chThdSpawnSuspendedI:
 204              	.LVL7:
 205              	.LFB354:
 206              		.loc 1 245 64 is_stmt 1 view -0
 207              		.cfi_startproc
 208              		@ args = 0, pretend = 0, frame = 0
 209              		@ frame_needed = 0, uses_anonymous_args = 0
 210              		@ link register save eliminated.
 211              		.loc 1 247 3 view .LVU74
 212              		.loc 1 247 3 view .LVU75
 213              		.loc 1 247 3 view .LVU76
 214              		.loc 1 248 3 view .LVU77
 215              		.loc 1 248 3 view .LVU78
 216              		.loc 1 248 3 view .LVU79
 217              		.loc 1 251 3 view .LVU80
 218              		.loc 1 251 3 view .LVU81
 219              		.loc 1 251 3 view .LVU82
 220              		.loc 1 258 3 view .LVU83
 221              	.LBB301:
 222              	.LBB302:
 223              		.loc 1 128 25 is_stmt 0 view .LVU84
 224 0000 0223     		movs	r3, #2
 225              	.LVL8:
 226              		.loc 1 128 25 view .LVU85
 227              	.LBE302:
 228              	.LBI301:
ARM GAS  C:\Users\DEVELO~1\AppData\Local\Temp\ccUBlV4P.s 			page 5


 229              		.loc 1 116 11 is_stmt 1 view .LVU86
 230              	.LBB311:
 231              		.loc 1 119 3 view .LVU87
 232              		.loc 1 119 3 view .LVU88
 233              		.loc 1 119 3 view .LVU89
 234              		.loc 1 120 3 view .LVU90
 235              		.loc 1 120 3 view .LVU91
 236              		.loc 1 120 3 view .LVU92
 237              		.loc 1 123 3 view .LVU93
 238              	.LBE311:
 239              	.LBE301:
 240              		.loc 1 245 64 is_stmt 0 view .LVU94
 241 0002 F0B4     		push	{r4, r5, r6, r7}
 242              		.cfi_def_cfa_offset 16
 243              		.cfi_offset 4, -16
 244              		.cfi_offset 5, -12
 245              		.cfi_offset 6, -8
 246              		.cfi_offset 7, -4
 247              	.LBB318:
 248              	.LBB312:
 249              		.loc 1 124 27 view .LVU95
 250 0004 D1E90142 		ldrd	r4, r2, [r1, #4]
 251              		.loc 1 124 14 view .LVU96
 252 0008 C0E90542 		strd	r4, r2, [r0, #20]
 253              		.loc 1 127 3 is_stmt 1 view .LVU97
 254              		.loc 1 127 30 is_stmt 0 view .LVU98
 255 000c CC68     		ldr	r4, [r1, #12]
 256              		.loc 1 128 25 view .LVU99
 257 000e 8383     		strh	r3, [r0, #28]	@ movhi
 258              		.loc 1 130 10 view .LVU100
 259 0010 8B69     		ldr	r3, [r1, #24]
 260              		.loc 1 127 25 view .LVU101
 261 0012 8460     		str	r4, [r0, #8]
 262              		.loc 1 128 3 is_stmt 1 view .LVU102
 263              		.loc 1 129 3 view .LVU103
 264              		.loc 1 130 3 view .LVU104
 265              		.loc 1 130 6 is_stmt 0 view .LVU105
 266 0014 33B3     		cbz	r3, .L14
 267              	.L11:
 268              		.loc 1 149 25 view .LVU106
 269 0016 C464     		str	r4, [r0, #76]
 270              		.loc 1 165 25 view .LVU107
 271 0018 0124     		movs	r4, #1
 272              		.loc 1 144 3 view .LVU108
 273 001a 00F13807 		add	r7, r0, #56
 274 001e 0361     		str	r3, [r0, #16]
 275              		.loc 1 137 3 is_stmt 1 view .LVU109
 276              		.loc 1 165 25 is_stmt 0 view .LVU110
 277 0020 8477     		strb	r4, [r0, #30]
 278              		.loc 1 166 25 view .LVU111
 279 0022 0C68     		ldr	r4, [r1]
 280 0024 0462     		str	r4, [r0, #32]
 281              		.loc 1 171 3 view .LVU112
 282 0026 00F13C04 		add	r4, r0, #60
 283              	.LBE312:
 284              	.LBE318:
 285              		.loc 1 261 3 view .LVU113
ARM GAS  C:\Users\DEVELO~1\AppData\Local\Temp\ccUBlV4P.s 			page 6


 286 002a D1E90465 		ldrd	r6, r5, [r1, #16]
 287              	.LBB319:
 288              	.LBB313:
 289              	.LBB303:
 290              	.LBB304:
 291              		.loc 2 284 12 view .LVU114
 292 002e C0E90F44 		strd	r4, r4, [r0, #60]
 293              	.LBE304:
 294              	.LBE303:
 295              		.loc 1 137 25 view .LVU115
 296 0032 0021     		movs	r1, #0
 297              	.LVL9:
 298              		.loc 1 137 25 view .LVU116
 299              	.LBE313:
 300              	.LBE319:
 301              		.loc 1 261 3 view .LVU117
 302 0034 A2F12404 		sub	r4, r2, #36
 303              	.LBB320:
 304              	.LBB314:
 305              		.loc 1 138 25 view .LVU118
 306 0038 C0E90B11 		strd	r1, r1, [r0, #44]
 307              		.loc 1 144 3 is_stmt 1 view .LVU119
 308              	.LVL10:
 309              	.LBB306:
 310              	.LBI306:
 311              		.loc 2 213 20 view .LVU120
 312              	.LBB307:
 313              		.loc 2 215 3 view .LVU121
 314              	.LBE307:
 315              	.LBE306:
 316              	.LBE314:
 317              	.LBE320:
 318              		.loc 1 261 3 is_stmt 0 view .LVU122
 319 003c C460     		str	r4, [r0, #12]
 320              	.LBB321:
 321              	.LBB322:
 322              		.loc 2 325 21 view .LVU123
 323 003e 5C6B     		ldr	r4, [r3, #52]
 324              	.LBE322:
 325              	.LBE321:
 326              	.LBB325:
 327              	.LBB315:
 328              	.LBB309:
 329              	.LBB308:
 330              		.loc 2 215 12 view .LVU124
 331 0040 8763     		str	r7, [r0, #56]
 332              	.LVL11:
 333              		.loc 2 215 12 view .LVU125
 334              	.LBE308:
 335              	.LBE309:
 336              		.loc 1 149 3 is_stmt 1 view .LVU126
 337              		.loc 1 150 3 view .LVU127
 338              		.loc 1 155 3 view .LVU128
 339              		.loc 1 165 3 view .LVU129
 340              		.loc 1 166 3 view .LVU130
 341              		.loc 1 171 3 view .LVU131
 342              	.LBB310:
ARM GAS  C:\Users\DEVELO~1\AppData\Local\Temp\ccUBlV4P.s 			page 7


 343              	.LBI303:
 344              		.loc 2 282 20 view .LVU132
 345              	.LBB305:
 346              		.loc 2 284 3 view .LVU133
 347              		.loc 2 285 3 view .LVU134
 348              		.loc 2 285 3 is_stmt 0 view .LVU135
 349              	.LBE305:
 350              	.LBE310:
 351              		.loc 1 180 3 is_stmt 1 view .LVU136
 352              		.loc 1 180 30 view .LVU137
 353              		.loc 1 182 3 view .LVU138
 354              		.loc 1 182 3 is_stmt 0 view .LVU139
 355              	.LBE315:
 356              	.LBE325:
 357              		.loc 1 261 3 is_stmt 1 view .LVU140
 358              		.loc 1 261 3 view .LVU141
 359              		.loc 1 261 3 view .LVU142
 360              	.LBB326:
 361              	.LBB316:
 362              		.loc 1 155 25 is_stmt 0 view .LVU143
 363 0042 C0E91111 		strd	r1, r1, [r0, #68]
 364              	.LBE316:
 365              	.LBE326:
 366              		.loc 1 261 3 view .LVU144
 367 0046 42E90965 		strd	r6, r5, [r2, #-36]
 368              		.loc 1 261 3 is_stmt 1 view .LVU145
 369 004a 074D     		ldr	r5, .L15
 370              		.loc 1 265 3 is_stmt 0 view .LVU146
 371 004c 00F12401 		add	r1, r0, #36
 372              		.loc 1 261 3 view .LVU147
 373 0050 42F8045C 		str	r5, [r2, #-4]
 374              		.loc 1 261 3 is_stmt 1 view .LVU148
 375              		.loc 1 265 3 view .LVU149
 376              	.LVL12:
 377              	.LBB327:
 378              	.LBI321:
 379              		.loc 2 322 20 view .LVU150
 380              	.LBB323:
 381              		.loc 2 324 3 view .LVU151
 382              	.LBE323:
 383              	.LBE327:
 384              		.loc 1 265 3 is_stmt 0 view .LVU152
 385 0054 03F13002 		add	r2, r3, #48
 386              	.LVL13:
 387              	.LBB328:
 388              	.LBB324:
 389              		.loc 2 324 17 view .LVU153
 390 0058 C0E90924 		strd	r2, r4, [r0, #36]
 391              		.loc 2 325 3 is_stmt 1 view .LVU154
 392              		.loc 2 326 3 view .LVU155
 393              		.loc 2 326 17 is_stmt 0 view .LVU156
 394 005c 2160     		str	r1, [r4]
 395              		.loc 2 327 3 is_stmt 1 view .LVU157
 396              		.loc 2 327 17 is_stmt 0 view .LVU158
 397 005e 5963     		str	r1, [r3, #52]
 398              	.LVL14:
 399              		.loc 2 327 17 view .LVU159
ARM GAS  C:\Users\DEVELO~1\AppData\Local\Temp\ccUBlV4P.s 			page 8


 400              	.LBE324:
 401              	.LBE328:
 402              		.loc 1 268 3 is_stmt 1 view .LVU160
 403              		.loc 1 269 1 is_stmt 0 view .LVU161
 404 0060 F0BC     		pop	{r4, r5, r6, r7}
 405              		.cfi_remember_state
 406              		.cfi_restore 7
 407              		.cfi_restore 6
 408              		.cfi_restore 5
 409              		.cfi_restore 4
 410              		.cfi_def_cfa_offset 0
 411 0062 7047     		bx	lr
 412              	.LVL15:
 413              	.L14:
 414              		.cfi_restore_state
 415              	.LBB329:
 416              	.LBB317:
 417              		.loc 1 134 25 view .LVU162
 418 0064 014B     		ldr	r3, .L15+4
 419 0066 D6E7     		b	.L11
 420              	.L16:
 421              		.align	2
 422              	.L15:
 423 0068 00000000 		.word	__port_thread_start
 424 006c 00000000 		.word	ch0
 425              	.LBE317:
 426              	.LBE329:
 427              		.cfi_endproc
 428              	.LFE354:
 429              		.size	chThdSpawnSuspendedI, .-chThdSpawnSuspendedI
 430              		.section	.text.chThdSpawnSuspended,"ax",%progbits
 431              		.align	1
 432              		.p2align 4,,15
 433              		.global	chThdSpawnSuspended
 434              		.syntax unified
 435              		.thumb
 436              		.thumb_func
 437              		.type	chThdSpawnSuspended, %function
 438              	chThdSpawnSuspended:
 439              	.LVL16:
 440              	.LFB355:
 441              		.loc 1 288 63 is_stmt 1 view -0
 442              		.cfi_startproc
 443              		@ args = 0, pretend = 0, frame = 0
 444              		@ frame_needed = 0, uses_anonymous_args = 0
 445              		@ link register save eliminated.
 446              		.loc 1 291 3 view .LVU164
 447              		.loc 1 291 3 view .LVU165
 448              		.loc 1 291 3 view .LVU166
 449              		.loc 1 295 17 view .LVU167
 450              		.loc 1 297 3 view .LVU168
 451              	.LBB349:
 452              	.LBI349:
 453              		.file 3 "./ChibiOS/os/rt/include/chsys.h"
 454              		.loc 3 372 20 view .LVU169
 455              		.loc 3 374 3 view .LVU170
 456              	.LBB350:
ARM GAS  C:\Users\DEVELO~1\AppData\Local\Temp\ccUBlV4P.s 			page 9


 457              	.LBI350:
 458              		.file 4 "./ChibiOS/os/common/ports/ARMv7-M/chcore.h"
 459              		.loc 4 840 27 view .LVU171
 460              		.loc 4 848 3 view .LVU172
 461              	.LBB351:
 462              	.LBI351:
 463              		.file 5 "./ChibiOS/os/common/ext/ARM/CMSIS/Core/Include/cmsis_gcc.h"
 464              		.loc 5 491 27 view .LVU173
 465              	.LBB352:
 466              		.loc 5 493 3 view .LVU174
 467 0000 3023     		movs	r3, #48
 468              	.LBE352:
 469              	.LBE351:
 470              	.LBE350:
 471              	.LBE349:
 472              		.loc 1 288 63 is_stmt 0 view .LVU175
 473 0002 F0B4     		push	{r4, r5, r6, r7}
 474              		.cfi_def_cfa_offset 16
 475              		.cfi_offset 4, -16
 476              		.cfi_offset 5, -12
 477              		.cfi_offset 6, -8
 478              		.cfi_offset 7, -4
 479              	.LBB356:
 480              	.LBB355:
 481              	.LBB354:
 482              	.LBB353:
 483              		.loc 5 493 3 view .LVU176
 484              		.syntax unified
 485              	@ 493 "./ChibiOS/os/common/ext/ARM/CMSIS/Core/Include/cmsis_gcc.h" 1
 486 0004 83F31188 		MSR basepri, r3
 487              	@ 0 "" 2
 488              	.LVL17:
 489              		.loc 5 493 3 view .LVU177
 490              		.thumb
 491              		.syntax unified
 492              	.LBE353:
 493              	.LBE354:
 494              	.LBE355:
 495              		.loc 3 375 35 is_stmt 1 view .LVU178
 496              		.loc 3 376 21 view .LVU179
 497              	.LBE356:
 498              		.loc 1 298 3 view .LVU180
 499              	.LBB357:
 500              	.LBI357:
 501              		.loc 1 244 11 view .LVU181
 502              	.LBB358:
 503              		.loc 1 247 3 view .LVU182
 504              		.loc 1 247 3 view .LVU183
 505              		.loc 1 247 3 view .LVU184
 506              		.loc 1 248 3 view .LVU185
 507              		.loc 1 248 3 view .LVU186
 508              		.loc 1 248 3 view .LVU187
 509              		.loc 1 251 3 view .LVU188
 510              		.loc 1 251 3 view .LVU189
 511              		.loc 1 251 3 view .LVU190
 512              		.loc 1 258 3 view .LVU191
 513              	.LBB359:
ARM GAS  C:\Users\DEVELO~1\AppData\Local\Temp\ccUBlV4P.s 			page 10


 514              	.LBI359:
 515              		.loc 1 116 11 view .LVU192
 516              	.LBB360:
 517              		.loc 1 119 3 view .LVU193
 518              		.loc 1 119 3 view .LVU194
 519              		.loc 1 119 3 view .LVU195
 520              		.loc 1 120 3 view .LVU196
 521              		.loc 1 120 3 view .LVU197
 522              		.loc 1 120 3 view .LVU198
 523              		.loc 1 123 3 view .LVU199
 524              		.loc 1 128 25 is_stmt 0 view .LVU200
 525 0008 0223     		movs	r3, #2
 526              		.loc 1 124 27 view .LVU201
 527 000a D1E90124 		ldrd	r2, r4, [r1, #4]
 528              		.loc 1 124 14 view .LVU202
 529 000e C0E90524 		strd	r2, r4, [r0, #20]
 530              		.loc 1 127 3 is_stmt 1 view .LVU203
 531              		.loc 1 127 30 is_stmt 0 view .LVU204
 532 0012 CA68     		ldr	r2, [r1, #12]
 533              		.loc 1 128 25 view .LVU205
 534 0014 8383     		strh	r3, [r0, #28]	@ movhi
 535              		.loc 1 130 10 view .LVU206
 536 0016 8B69     		ldr	r3, [r1, #24]
 537              		.loc 1 127 25 view .LVU207
 538 0018 8260     		str	r2, [r0, #8]
 539              		.loc 1 128 3 is_stmt 1 view .LVU208
 540              		.loc 1 129 3 view .LVU209
 541              		.loc 1 130 3 view .LVU210
 542              		.loc 1 130 6 is_stmt 0 view .LVU211
 543 001a 4BB3     		cbz	r3, .L21
 544              	.L18:
 545              		.loc 1 149 25 view .LVU212
 546 001c C264     		str	r2, [r0, #76]
 547              		.loc 1 165 25 view .LVU213
 548 001e 0122     		movs	r2, #1
 549              		.loc 1 144 3 view .LVU214
 550 0020 00F1380C 		add	ip, r0, #56
 551 0024 0361     		str	r3, [r0, #16]
 552              		.loc 1 137 3 is_stmt 1 view .LVU215
 553              		.loc 1 165 25 is_stmt 0 view .LVU216
 554 0026 8277     		strb	r2, [r0, #30]
 555              		.loc 1 166 25 view .LVU217
 556 0028 0A68     		ldr	r2, [r1]
 557 002a 0262     		str	r2, [r0, #32]
 558              		.loc 1 171 3 view .LVU218
 559 002c 00F13C02 		add	r2, r0, #60
 560              	.LBB361:
 561              	.LBB362:
 562              		.loc 2 284 12 view .LVU219
 563 0030 C0E90F22 		strd	r2, r2, [r0, #60]
 564              	.LBE362:
 565              	.LBE361:
 566              	.LBE360:
 567              	.LBE359:
 568              		.loc 1 261 3 view .LVU220
 569 0034 A4F12402 		sub	r2, r4, #36
 570              	.LBB373:
ARM GAS  C:\Users\DEVELO~1\AppData\Local\Temp\ccUBlV4P.s 			page 11


 571              	.LBB374:
 572              		.loc 2 325 21 view .LVU221
 573 0038 5D6B     		ldr	r5, [r3, #52]
 574              	.LBE374:
 575              	.LBE373:
 576              		.loc 1 261 3 view .LVU222
 577 003a D1E90476 		ldrd	r7, r6, [r1, #16]
 578 003e C260     		str	r2, [r0, #12]
 579              	.LBB377:
 580              	.LBB369:
 581              		.loc 1 137 25 view .LVU223
 582 0040 0022     		movs	r2, #0
 583              	.LBB364:
 584              	.LBB365:
 585              		.loc 2 215 12 view .LVU224
 586 0042 C0F838C0 		str	ip, [r0, #56]
 587              	.LBE365:
 588              	.LBE364:
 589              	.LBE369:
 590              	.LBE377:
 591              		.loc 1 265 3 view .LVU225
 592 0046 00F12401 		add	r1, r0, #36
 593              	.LVL18:
 594              	.LBB378:
 595              	.LBB370:
 596              		.loc 1 138 25 view .LVU226
 597 004a C0E90B22 		strd	r2, r2, [r0, #44]
 598              		.loc 1 144 3 is_stmt 1 view .LVU227
 599              	.LVL19:
 600              	.LBB367:
 601              	.LBI364:
 602              		.loc 2 213 20 view .LVU228
 603              	.LBB366:
 604              		.loc 2 215 3 view .LVU229
 605              		.loc 2 215 3 is_stmt 0 view .LVU230
 606              	.LBE366:
 607              	.LBE367:
 608              		.loc 1 149 3 is_stmt 1 view .LVU231
 609              		.loc 1 150 3 view .LVU232
 610              		.loc 1 155 3 view .LVU233
 611              		.loc 1 165 3 view .LVU234
 612              		.loc 1 166 3 view .LVU235
 613              		.loc 1 171 3 view .LVU236
 614              	.LBB368:
 615              	.LBI361:
 616              		.loc 2 282 20 view .LVU237
 617              	.LBB363:
 618              		.loc 2 284 3 view .LVU238
 619              		.loc 2 285 3 view .LVU239
 620              		.loc 2 285 3 is_stmt 0 view .LVU240
 621              	.LBE363:
 622              	.LBE368:
 623              		.loc 1 180 3 is_stmt 1 view .LVU241
 624              		.loc 1 180 30 view .LVU242
 625              		.loc 1 182 3 view .LVU243
 626              		.loc 1 182 3 is_stmt 0 view .LVU244
 627              	.LBE370:
ARM GAS  C:\Users\DEVELO~1\AppData\Local\Temp\ccUBlV4P.s 			page 12


 628              	.LBE378:
 629              		.loc 1 261 3 is_stmt 1 view .LVU245
 630              		.loc 1 261 3 view .LVU246
 631              		.loc 1 261 3 view .LVU247
 632              	.LBB379:
 633              	.LBB371:
 634              		.loc 1 155 25 is_stmt 0 view .LVU248
 635 004e C0E91122 		strd	r2, r2, [r0, #68]
 636              	.LBE371:
 637              	.LBE379:
 638              		.loc 1 261 3 view .LVU249
 639 0052 44E90976 		strd	r7, r6, [r4, #-36]
 640              		.loc 1 261 3 is_stmt 1 view .LVU250
 641 0056 074E     		ldr	r6, .L22
 642 0058 44F8046C 		str	r6, [r4, #-4]
 643              		.loc 1 261 3 view .LVU251
 644              		.loc 1 265 3 view .LVU252
 645              	.LVL20:
 646              	.LBB380:
 647              	.LBI373:
 648              		.loc 2 322 20 view .LVU253
 649              	.LBB375:
 650              		.loc 2 324 3 view .LVU254
 651              	.LBE375:
 652              	.LBE380:
 653              		.loc 1 265 3 is_stmt 0 view .LVU255
 654 005c 03F13004 		add	r4, r3, #48
 655              	.LVL21:
 656              	.LBB381:
 657              	.LBB376:
 658              		.loc 2 325 17 view .LVU256
 659 0060 8562     		str	r5, [r0, #40]
 660              		.loc 2 324 17 view .LVU257
 661 0062 4462     		str	r4, [r0, #36]
 662              		.loc 2 325 3 is_stmt 1 view .LVU258
 663              		.loc 2 326 3 view .LVU259
 664              		.loc 2 326 17 is_stmt 0 view .LVU260
 665 0064 2960     		str	r1, [r5]
 666              		.loc 2 327 3 is_stmt 1 view .LVU261
 667              		.loc 2 327 17 is_stmt 0 view .LVU262
 668 0066 5963     		str	r1, [r3, #52]
 669              	.LVL22:
 670              		.loc 2 327 17 view .LVU263
 671              	.LBE376:
 672              	.LBE381:
 673              		.loc 1 268 3 is_stmt 1 view .LVU264
 674              		.loc 1 268 3 is_stmt 0 view .LVU265
 675              	.LBE358:
 676              	.LBE357:
 677              		.loc 1 299 3 is_stmt 1 view .LVU266
 678              	.LBB384:
 679              	.LBI384:
 680              		.loc 3 386 20 view .LVU267
 681              	.LBB385:
 682              		.loc 3 388 23 view .LVU268
 683              		.loc 3 389 34 view .LVU269
 684              		.loc 3 395 3 view .LVU270
ARM GAS  C:\Users\DEVELO~1\AppData\Local\Temp\ccUBlV4P.s 			page 13


 685              		.loc 3 395 3 view .LVU271
 686              		.loc 3 395 3 view .LVU272
 687              		.loc 3 399 3 view .LVU273
 688              	.LBB386:
 689              	.LBI386:
 690              		.loc 4 864 27 view .LVU274
 691              		.loc 4 867 3 view .LVU275
 692              	.LBB387:
 693              	.LBI387:
 694              		.loc 5 491 27 view .LVU276
 695              	.LBB388:
 696              		.loc 5 493 3 view .LVU277
 697              		.syntax unified
 698              	@ 493 "./ChibiOS/os/common/ext/ARM/CMSIS/Core/Include/cmsis_gcc.h" 1
 699 0068 82F31188 		MSR basepri, r2
 700              	@ 0 "" 2
 701              	.LVL23:
 702              		.loc 5 493 3 is_stmt 0 view .LVU278
 703              		.thumb
 704              		.syntax unified
 705              	.LBE388:
 706              	.LBE387:
 707              	.LBE386:
 708              	.LBE385:
 709              	.LBE384:
 710              		.loc 1 301 3 is_stmt 1 view .LVU279
 711              		.loc 1 302 1 is_stmt 0 view .LVU280
 712 006c F0BC     		pop	{r4, r5, r6, r7}
 713              		.cfi_remember_state
 714              		.cfi_restore 7
 715              		.cfi_restore 6
 716              		.cfi_restore 5
 717              		.cfi_restore 4
 718              		.cfi_def_cfa_offset 0
 719 006e 7047     		bx	lr
 720              	.LVL24:
 721              	.L21:
 722              		.cfi_restore_state
 723              	.LBB389:
 724              	.LBB383:
 725              	.LBB382:
 726              	.LBB372:
 727              		.loc 1 134 25 view .LVU281
 728 0070 014B     		ldr	r3, .L22+4
 729 0072 D3E7     		b	.L18
 730              	.L23:
 731              		.align	2
 732              	.L22:
 733 0074 00000000 		.word	__port_thread_start
 734 0078 00000000 		.word	ch0
 735              	.LBE372:
 736              	.LBE382:
 737              	.LBE383:
 738              	.LBE389:
 739              		.cfi_endproc
 740              	.LFE355:
 741              		.size	chThdSpawnSuspended, .-chThdSpawnSuspended
ARM GAS  C:\Users\DEVELO~1\AppData\Local\Temp\ccUBlV4P.s 			page 14


 742              		.section	.text.chThdSpawnRunningI,"ax",%progbits
 743              		.align	1
 744              		.p2align 4,,15
 745              		.global	chThdSpawnRunningI
 746              		.syntax unified
 747              		.thumb
 748              		.thumb_func
 749              		.type	chThdSpawnRunningI, %function
 750              	chThdSpawnRunningI:
 751              	.LVL25:
 752              	.LFB356:
 753              		.loc 1 321 76 is_stmt 1 view -0
 754              		.cfi_startproc
 755              		@ args = 0, pretend = 0, frame = 0
 756              		@ frame_needed = 0, uses_anonymous_args = 0
 757              		.loc 1 323 3 view .LVU283
 758              		.loc 1 321 76 is_stmt 0 view .LVU284
 759 0000 08B5     		push	{r3, lr}
 760              		.cfi_def_cfa_offset 8
 761              		.cfi_offset 3, -8
 762              		.cfi_offset 14, -4
 763              		.loc 1 323 10 view .LVU285
 764 0002 FFF7FEFF 		bl	chThdSpawnSuspendedI
 765              	.LVL26:
 766              		.loc 1 324 1 view .LVU286
 767 0006 BDE80840 		pop	{r3, lr}
 768              		.cfi_restore 14
 769              		.cfi_restore 3
 770              		.cfi_def_cfa_offset 0
 771              		.loc 1 323 10 view .LVU287
 772 000a FFF7FEBF 		b	chSchReadyI
 773              	.LVL27:
 774              		.cfi_endproc
 775              	.LFE356:
 776              		.size	chThdSpawnRunningI, .-chThdSpawnRunningI
 777 000e 00BF     		.section	.text.chThdSpawnRunning,"ax",%progbits
 778              		.align	1
 779              		.p2align 4,,15
 780              		.global	chThdSpawnRunning
 781              		.syntax unified
 782              		.thumb
 783              		.thumb_func
 784              		.type	chThdSpawnRunning, %function
 785              	chThdSpawnRunning:
 786              	.LVL28:
 787              	.LFB357:
 788              		.loc 1 340 75 is_stmt 1 view -0
 789              		.cfi_startproc
 790              		@ args = 0, pretend = 0, frame = 0
 791              		@ frame_needed = 0, uses_anonymous_args = 0
 792              		.loc 1 344 3 view .LVU289
 793              		.loc 1 344 3 view .LVU290
 794              		.loc 1 344 3 view .LVU291
 795              		.loc 1 348 17 view .LVU292
 796              		.loc 1 350 3 view .LVU293
 797              	.LBB390:
 798              	.LBI390:
ARM GAS  C:\Users\DEVELO~1\AppData\Local\Temp\ccUBlV4P.s 			page 15


 799              		.loc 3 372 20 view .LVU294
 800              		.loc 3 374 3 view .LVU295
 801              	.LBB391:
 802              	.LBI391:
 803              		.loc 4 840 27 view .LVU296
 804              		.loc 4 848 3 view .LVU297
 805              	.LBB392:
 806              	.LBI392:
 807              		.loc 5 491 27 view .LVU298
 808              	.LBB393:
 809              		.loc 5 493 3 view .LVU299
 810              	.LBE393:
 811              	.LBE392:
 812              	.LBE391:
 813              	.LBE390:
 814              		.loc 1 340 75 is_stmt 0 view .LVU300
 815 0000 10B5     		push	{r4, lr}
 816              		.cfi_def_cfa_offset 8
 817              		.cfi_offset 4, -8
 818              		.cfi_offset 14, -4
 819              	.LBB397:
 820              	.LBB396:
 821              	.LBB395:
 822              	.LBB394:
 823              		.loc 5 493 3 view .LVU301
 824 0002 3023     		movs	r3, #48
 825              		.syntax unified
 826              	@ 493 "./ChibiOS/os/common/ext/ARM/CMSIS/Core/Include/cmsis_gcc.h" 1
 827 0004 83F31188 		MSR basepri, r3
 828              	@ 0 "" 2
 829              	.LVL29:
 830              		.loc 5 493 3 view .LVU302
 831              		.thumb
 832              		.syntax unified
 833              	.LBE394:
 834              	.LBE395:
 835              	.LBE396:
 836              		.loc 3 375 35 is_stmt 1 view .LVU303
 837              		.loc 3 376 21 view .LVU304
 838              	.LBE397:
 839              		.loc 1 351 3 view .LVU305
 840              		.loc 1 351 8 is_stmt 0 view .LVU306
 841 0008 FFF7FEFF 		bl	chThdSpawnSuspendedI
 842              	.LVL30:
 843              		.loc 1 352 3 view .LVU307
 844 000c 0021     		movs	r1, #0
 845              		.loc 1 351 8 view .LVU308
 846 000e 0446     		mov	r4, r0
 847              	.LVL31:
 848              		.loc 1 352 3 is_stmt 1 view .LVU309
 849 0010 FFF7FEFF 		bl	chSchWakeupS
 850              	.LVL32:
 851              		.loc 1 353 3 view .LVU310
 852              	.LBB398:
 853              	.LBI398:
 854              		.loc 3 386 20 view .LVU311
 855              	.LBB399:
ARM GAS  C:\Users\DEVELO~1\AppData\Local\Temp\ccUBlV4P.s 			page 16


 856              		.loc 3 388 23 view .LVU312
 857              		.loc 3 389 34 view .LVU313
 858              		.loc 3 395 3 view .LVU314
 859              		.loc 3 395 3 view .LVU315
 860              		.loc 3 395 3 view .LVU316
 861              		.loc 3 399 3 view .LVU317
 862              	.LBB400:
 863              	.LBI400:
 864              		.loc 4 864 27 view .LVU318
 865              		.loc 4 867 3 view .LVU319
 866              	.LBB401:
 867              	.LBI401:
 868              		.loc 5 491 27 view .LVU320
 869              	.LBB402:
 870              		.loc 5 493 3 view .LVU321
 871 0014 0023     		movs	r3, #0
 872              		.syntax unified
 873              	@ 493 "./ChibiOS/os/common/ext/ARM/CMSIS/Core/Include/cmsis_gcc.h" 1
 874 0016 83F31188 		MSR basepri, r3
 875              	@ 0 "" 2
 876              	.LVL33:
 877              		.loc 5 493 3 is_stmt 0 view .LVU322
 878              		.thumb
 879              		.syntax unified
 880              	.LBE402:
 881              	.LBE401:
 882              	.LBE400:
 883              	.LBE399:
 884              	.LBE398:
 885              		.loc 1 355 3 is_stmt 1 view .LVU323
 886              		.loc 1 356 1 is_stmt 0 view .LVU324
 887 001a 2046     		mov	r0, r4
 888 001c 10BD     		pop	{r4, pc}
 889              		.loc 1 356 1 view .LVU325
 890              		.cfi_endproc
 891              	.LFE357:
 892              		.size	chThdSpawnRunning, .-chThdSpawnRunning
 893 001e 00BF     		.section	.text.chThdCreateSuspendedI,"ax",%progbits
 894              		.align	1
 895              		.p2align 4,,15
 896              		.global	chThdCreateSuspendedI
 897              		.syntax unified
 898              		.thumb
 899              		.thumb_func
 900              		.type	chThdCreateSuspendedI, %function
 901              	chThdCreateSuspendedI:
 902              	.LVL34:
 903              	.LFB358:
 904              		.loc 1 378 65 is_stmt 1 view -0
 905              		.cfi_startproc
 906              		@ args = 0, pretend = 0, frame = 0
 907              		@ frame_needed = 0, uses_anonymous_args = 0
 908              		@ link register save eliminated.
 909              		.loc 1 379 3 view .LVU327
 910              		.loc 1 380 3 view .LVU328
 911              		.loc 1 382 21 view .LVU329
 912              		.loc 1 385 3 view .LVU330
ARM GAS  C:\Users\DEVELO~1\AppData\Local\Temp\ccUBlV4P.s 			page 17


 913              		.loc 1 385 3 view .LVU331
 914              		.loc 1 385 3 view .LVU332
 915              		.loc 1 390 3 view .LVU333
 916              		.loc 1 390 3 view .LVU334
 917              		.loc 1 390 3 view .LVU335
 918              		.loc 1 396 3 view .LVU336
 919              		.loc 1 378 65 is_stmt 0 view .LVU337
 920 0000 0246     		mov	r2, r0
 921              	.LVL35:
 922              		.loc 1 397 3 is_stmt 1 view .LVU338
 923              		.loc 1 397 27 is_stmt 0 view .LVU339
 924 0002 8368     		ldr	r3, [r0, #8]
 925              	.LBB413:
 926              	.LBB414:
 927              		.loc 1 129 25 view .LVU340
 928 0004 0021     		movs	r1, #0
 929              	.LBE414:
 930              	.LBE413:
 931              		.loc 1 397 11 view .LVU341
 932 0006 A3F16000 		sub	r0, r3, #96
 933              	.LVL36:
 934              		.loc 1 399 3 is_stmt 1 view .LVU342
 935              		.loc 1 399 3 view .LVU343
 936              		.loc 1 399 3 view .LVU344
 937              		.loc 1 403 3 view .LVU345
 938              	.LBB431:
 939              	.LBI413:
 940              		.loc 1 116 11 view .LVU346
 941              	.LBB423:
 942              		.loc 1 119 3 view .LVU347
 943              		.loc 1 119 3 view .LVU348
 944              		.loc 1 119 3 view .LVU349
 945              		.loc 1 120 3 view .LVU350
 946              		.loc 1 120 3 view .LVU351
 947              		.loc 1 120 3 view .LVU352
 948              		.loc 1 123 3 view .LVU353
 949              	.LBE423:
 950              	.LBE431:
 951              		.loc 1 378 65 is_stmt 0 view .LVU354
 952 000a 30B4     		push	{r4, r5}
 953              		.cfi_def_cfa_offset 8
 954              		.cfi_offset 4, -8
 955              		.cfi_offset 5, -4
 956              	.LBB432:
 957              	.LBB424:
 958              		.loc 1 123 14 view .LVU355
 959 000c 5468     		ldr	r4, [r2, #4]
 960              		.loc 1 128 25 view .LVU356
 961 000e 0225     		movs	r5, #2
 962              		.loc 1 124 14 view .LVU357
 963 0010 43E91343 		strd	r4, r3, [r3, #-76]
 964              		.loc 1 127 3 is_stmt 1 view .LVU358
 965              		.loc 1 127 30 is_stmt 0 view .LVU359
 966 0014 D468     		ldr	r4, [r2, #12]
 967              		.loc 1 128 25 view .LVU360
 968 0016 03F8445C 		strb	r5, [r3, #-68]
 969              	.LVL37:
ARM GAS  C:\Users\DEVELO~1\AppData\Local\Temp\ccUBlV4P.s 			page 18


 970              		.loc 1 129 25 view .LVU361
 971 001a 03F8431C 		strb	r1, [r3, #-67]
 972              		.loc 1 130 10 view .LVU362
 973 001e 9169     		ldr	r1, [r2, #24]
 974              		.loc 1 127 25 view .LVU363
 975 0020 43F8584C 		str	r4, [r3, #-88]
 976              		.loc 1 128 3 is_stmt 1 view .LVU364
 977              		.loc 1 129 3 view .LVU365
 978              		.loc 1 130 3 view .LVU366
 979              		.loc 1 130 6 is_stmt 0 view .LVU367
 980 0024 81B3     		cbz	r1, .L32
 981              	.L29:
 982              		.loc 1 149 25 view .LVU368
 983 0026 43F8144C 		str	r4, [r3, #-20]
 984              		.loc 1 165 25 view .LVU369
 985 002a 0124     		movs	r4, #1
 986              	.LBE424:
 987              	.LBE432:
 988              		.loc 1 406 3 view .LVU370
 989 002c 174D     		ldr	r5, .L33
 990              	.LBB433:
 991              	.LBB425:
 992              		.loc 1 165 25 view .LVU371
 993 002e 03F8424C 		strb	r4, [r3, #-66]
 994              		.loc 1 166 25 view .LVU372
 995 0032 1468     		ldr	r4, [r2]
 996 0034 43F8501C 		str	r1, [r3, #-80]
 997              		.loc 1 137 3 is_stmt 1 view .LVU373
 998              		.loc 1 166 25 is_stmt 0 view .LVU374
 999 0038 43F8404C 		str	r4, [r3, #-64]
 1000              		.loc 1 171 3 view .LVU375
 1001 003c A3F12404 		sub	r4, r3, #36
 1002              	.LBB415:
 1003              	.LBB416:
 1004              		.loc 2 284 12 view .LVU376
 1005 0040 43E90944 		strd	r4, r4, [r3, #-36]
 1006              	.LBE416:
 1007              	.LBE415:
 1008              	.LBE425:
 1009              	.LBE433:
 1010              		.loc 1 406 3 view .LVU377
 1011 0044 A3F18404 		sub	r4, r3, #132
 1012 0048 43F8544C 		str	r4, [r3, #-84]
 1013 004c D2E90442 		ldrd	r4, r2, [r2, #16]
 1014              	.LVL38:
 1015              		.loc 1 406 3 view .LVU378
 1016 0050 43F8645C 		str	r5, [r3, #-100]
 1017              	.LBB434:
 1018              	.LBB426:
 1019              		.loc 1 144 3 view .LVU379
 1020 0054 A3F12805 		sub	r5, r3, #40
 1021              	.LBE426:
 1022              	.LBE434:
 1023              		.loc 1 406 3 view .LVU380
 1024 0058 43F8802C 		str	r2, [r3, #-128]
 1025              	.LBB435:
 1026              	.LBB427:
ARM GAS  C:\Users\DEVELO~1\AppData\Local\Temp\ccUBlV4P.s 			page 19


 1027              		.loc 1 137 25 view .LVU381
 1028 005c 0022     		movs	r2, #0
 1029              	.LBE427:
 1030              	.LBE435:
 1031              		.loc 1 406 3 view .LVU382
 1032 005e 43F8844C 		str	r4, [r3, #-132]
 1033              		.loc 1 409 3 view .LVU383
 1034 0062 A3F13C04 		sub	r4, r3, #60
 1035              	.LBB436:
 1036              	.LBB428:
 1037              		.loc 1 138 25 view .LVU384
 1038 0066 43E90D22 		strd	r2, r2, [r3, #-52]
 1039              		.loc 1 144 3 is_stmt 1 view .LVU385
 1040              	.LVL39:
 1041              	.LBB418:
 1042              	.LBI418:
 1043              		.loc 2 213 20 view .LVU386
 1044              	.LBB419:
 1045              		.loc 2 215 3 view .LVU387
 1046              	.LBE419:
 1047              	.LBE418:
 1048              		.loc 1 155 25 is_stmt 0 view .LVU388
 1049 006a 43E90722 		strd	r2, r2, [r3, #-28]
 1050              	.LBE428:
 1051              	.LBE436:
 1052              	.LBB437:
 1053              	.LBB438:
 1054              		.loc 2 325 21 view .LVU389
 1055 006e 4A6B     		ldr	r2, [r1, #52]
 1056              	.LBE438:
 1057              	.LBE437:
 1058              	.LBB441:
 1059              	.LBB429:
 1060              	.LBB421:
 1061              	.LBB420:
 1062              		.loc 2 215 12 view .LVU390
 1063 0070 43F8285C 		str	r5, [r3, #-40]
 1064              	.LVL40:
 1065              		.loc 2 215 12 view .LVU391
 1066              	.LBE420:
 1067              	.LBE421:
 1068              		.loc 1 149 3 is_stmt 1 view .LVU392
 1069              		.loc 1 150 3 view .LVU393
 1070              		.loc 1 155 3 view .LVU394
 1071              		.loc 1 165 3 view .LVU395
 1072              		.loc 1 166 3 view .LVU396
 1073              		.loc 1 171 3 view .LVU397
 1074              	.LBB422:
 1075              	.LBI415:
 1076              		.loc 2 282 20 view .LVU398
 1077              	.LBB417:
 1078              		.loc 2 284 3 view .LVU399
 1079              		.loc 2 285 3 view .LVU400
 1080              		.loc 2 285 3 is_stmt 0 view .LVU401
 1081              	.LBE417:
 1082              	.LBE422:
 1083              		.loc 1 180 3 is_stmt 1 view .LVU402
ARM GAS  C:\Users\DEVELO~1\AppData\Local\Temp\ccUBlV4P.s 			page 20


 1084              		.loc 1 180 30 view .LVU403
 1085              		.loc 1 182 3 view .LVU404
 1086              		.loc 1 182 3 is_stmt 0 view .LVU405
 1087              	.LBE429:
 1088              	.LBE441:
 1089              		.loc 1 406 3 is_stmt 1 view .LVU406
 1090              		.loc 1 406 3 view .LVU407
 1091              		.loc 1 406 3 view .LVU408
 1092              		.loc 1 406 3 view .LVU409
 1093              		.loc 1 406 3 view .LVU410
 1094              		.loc 1 406 3 view .LVU411
 1095              		.loc 1 409 3 view .LVU412
 1096              	.LBB442:
 1097              	.LBI437:
 1098              		.loc 2 322 20 view .LVU413
 1099              	.LBB439:
 1100              		.loc 2 324 3 view .LVU414
 1101              	.LBE439:
 1102              	.LBE442:
 1103              		.loc 1 409 3 is_stmt 0 view .LVU415
 1104 0074 01F13005 		add	r5, r1, #48
 1105              	.LVL41:
 1106              	.LBB443:
 1107              	.LBB440:
 1108              		.loc 2 325 17 view .LVU416
 1109 0078 43F8382C 		str	r2, [r3, #-56]
 1110              		.loc 2 324 17 view .LVU417
 1111 007c 43F83C5C 		str	r5, [r3, #-60]
 1112              		.loc 2 325 3 is_stmt 1 view .LVU418
 1113              		.loc 2 326 3 view .LVU419
 1114              		.loc 2 326 17 is_stmt 0 view .LVU420
 1115 0080 1460     		str	r4, [r2]
 1116              		.loc 2 327 3 is_stmt 1 view .LVU421
 1117              		.loc 2 327 17 is_stmt 0 view .LVU422
 1118 0082 4C63     		str	r4, [r1, #52]
 1119              	.LVL42:
 1120              		.loc 2 327 17 view .LVU423
 1121              	.LBE440:
 1122              	.LBE443:
 1123              		.loc 1 412 3 is_stmt 1 view .LVU424
 1124              		.loc 1 413 1 is_stmt 0 view .LVU425
 1125 0084 30BC     		pop	{r4, r5}
 1126              		.cfi_remember_state
 1127              		.cfi_restore 5
 1128              		.cfi_restore 4
 1129              		.cfi_def_cfa_offset 0
 1130 0086 7047     		bx	lr
 1131              	.LVL43:
 1132              	.L32:
 1133              		.cfi_restore_state
 1134              	.LBB444:
 1135              	.LBB430:
 1136              		.loc 1 134 25 view .LVU426
 1137 0088 0149     		ldr	r1, .L33+4
 1138 008a CCE7     		b	.L29
 1139              	.L34:
 1140              		.align	2
ARM GAS  C:\Users\DEVELO~1\AppData\Local\Temp\ccUBlV4P.s 			page 21


 1141              	.L33:
 1142 008c 00000000 		.word	__port_thread_start
 1143 0090 00000000 		.word	ch0
 1144              	.LBE430:
 1145              	.LBE444:
 1146              		.cfi_endproc
 1147              	.LFE358:
 1148              		.size	chThdCreateSuspendedI, .-chThdCreateSuspendedI
 1149              		.section	.text.chThdCreateSuspended,"ax",%progbits
 1150              		.align	1
 1151              		.p2align 4,,15
 1152              		.global	chThdCreateSuspended
 1153              		.syntax unified
 1154              		.thumb
 1155              		.thumb_func
 1156              		.type	chThdCreateSuspended, %function
 1157              	chThdCreateSuspended:
 1158              	.LVL44:
 1159              	.LFB359:
 1160              		.loc 1 432 64 is_stmt 1 view -0
 1161              		.cfi_startproc
 1162              		@ args = 0, pretend = 0, frame = 0
 1163              		@ frame_needed = 0, uses_anonymous_args = 0
 1164              		@ link register save eliminated.
 1165              		.loc 1 433 3 view .LVU428
 1166              		.loc 1 436 3 view .LVU429
 1167              		.loc 1 436 3 view .LVU430
 1168              		.loc 1 436 3 view .LVU431
 1169              		.loc 1 444 3 view .LVU432
 1170              	.LBB464:
 1171              	.LBI464:
 1172              		.loc 3 372 20 view .LVU433
 1173              		.loc 3 374 3 view .LVU434
 1174              	.LBB465:
 1175              	.LBI465:
 1176              		.loc 4 840 27 view .LVU435
 1177              		.loc 4 848 3 view .LVU436
 1178              	.LBB466:
 1179              	.LBI466:
 1180              		.loc 5 491 27 view .LVU437
 1181              	.LBB467:
 1182              		.loc 5 493 3 view .LVU438
 1183 0000 3023     		movs	r3, #48
 1184              	.LBE467:
 1185              	.LBE466:
 1186              	.LBE465:
 1187              	.LBE464:
 1188              		.loc 1 432 64 is_stmt 0 view .LVU439
 1189 0002 0246     		mov	r2, r0
 1190 0004 70B4     		push	{r4, r5, r6}
 1191              		.cfi_def_cfa_offset 12
 1192              		.cfi_offset 4, -12
 1193              		.cfi_offset 5, -8
 1194              		.cfi_offset 6, -4
 1195              	.LBB471:
 1196              	.LBB470:
 1197              	.LBB469:
ARM GAS  C:\Users\DEVELO~1\AppData\Local\Temp\ccUBlV4P.s 			page 22


 1198              	.LBB468:
 1199              		.loc 5 493 3 view .LVU440
 1200              		.syntax unified
 1201              	@ 493 "./ChibiOS/os/common/ext/ARM/CMSIS/Core/Include/cmsis_gcc.h" 1
 1202 0006 83F31188 		MSR basepri, r3
 1203              	@ 0 "" 2
 1204              	.LVL45:
 1205              		.loc 5 493 3 view .LVU441
 1206              		.thumb
 1207              		.syntax unified
 1208              	.LBE468:
 1209              	.LBE469:
 1210              	.LBE470:
 1211              		.loc 3 375 35 is_stmt 1 view .LVU442
 1212              		.loc 3 376 21 view .LVU443
 1213              	.LBE471:
 1214              		.loc 1 445 3 view .LVU444
 1215              	.LBB472:
 1216              	.LBI472:
 1217              		.loc 1 378 11 view .LVU445
 1218              	.LBB473:
 1219              		.loc 1 379 3 view .LVU446
 1220              		.loc 1 380 3 view .LVU447
 1221              		.loc 1 382 21 view .LVU448
 1222              		.loc 1 385 3 view .LVU449
 1223              		.loc 1 385 3 view .LVU450
 1224              		.loc 1 385 3 view .LVU451
 1225              		.loc 1 390 3 view .LVU452
 1226              		.loc 1 390 3 view .LVU453
 1227              		.loc 1 390 3 view .LVU454
 1228              		.loc 1 396 3 view .LVU455
 1229              		.loc 1 397 3 view .LVU456
 1230              	.LBB474:
 1231              	.LBB475:
 1232              		.loc 1 128 25 is_stmt 0 view .LVU457
 1233 000a 0220     		movs	r0, #2
 1234              	.LVL46:
 1235              		.loc 1 129 25 view .LVU458
 1236 000c 0021     		movs	r1, #0
 1237              		.loc 1 127 30 view .LVU459
 1238 000e D468     		ldr	r4, [r2, #12]
 1239              		.loc 1 123 14 view .LVU460
 1240 0010 D2E90153 		ldrd	r5, r3, [r2, #4]
 1241              		.loc 1 128 25 view .LVU461
 1242 0014 03F8440C 		strb	r0, [r3, #-68]
 1243              	.LVL47:
 1244              		.loc 1 128 25 view .LVU462
 1245              	.LBE475:
 1246              	.LBE474:
 1247              		.loc 1 397 11 view .LVU463
 1248 0018 A3F16000 		sub	r0, r3, #96
 1249              	.LVL48:
 1250              		.loc 1 399 3 is_stmt 1 view .LVU464
 1251              		.loc 1 399 3 view .LVU465
 1252              		.loc 1 399 3 view .LVU466
 1253              		.loc 1 403 3 view .LVU467
 1254              	.LBB490:
ARM GAS  C:\Users\DEVELO~1\AppData\Local\Temp\ccUBlV4P.s 			page 23


 1255              	.LBI474:
 1256              		.loc 1 116 11 view .LVU468
 1257              	.LBB484:
 1258              		.loc 1 119 3 view .LVU469
 1259              		.loc 1 119 3 view .LVU470
 1260              		.loc 1 119 3 view .LVU471
 1261              		.loc 1 120 3 view .LVU472
 1262              		.loc 1 120 3 view .LVU473
 1263              		.loc 1 120 3 view .LVU474
 1264              		.loc 1 123 3 view .LVU475
 1265              		.loc 1 129 25 is_stmt 0 view .LVU476
 1266 001c 03F8431C 		strb	r1, [r3, #-67]
 1267              		.loc 1 130 10 view .LVU477
 1268 0020 9169     		ldr	r1, [r2, #24]
 1269              		.loc 1 127 25 view .LVU478
 1270 0022 43F8584C 		str	r4, [r3, #-88]
 1271              		.loc 1 124 14 view .LVU479
 1272 0026 43E91353 		strd	r5, r3, [r3, #-76]
 1273              		.loc 1 127 3 is_stmt 1 view .LVU480
 1274              		.loc 1 128 3 view .LVU481
 1275              		.loc 1 129 3 view .LVU482
 1276              		.loc 1 130 3 view .LVU483
 1277              		.loc 1 130 6 is_stmt 0 view .LVU484
 1278 002a 91B3     		cbz	r1, .L39
 1279              	.L36:
 1280              		.loc 1 149 25 view .LVU485
 1281 002c 43F8144C 		str	r4, [r3, #-20]
 1282              		.loc 1 165 25 view .LVU486
 1283 0030 0124     		movs	r4, #1
 1284              		.loc 1 144 3 view .LVU487
 1285 0032 A3F12806 		sub	r6, r3, #40
 1286              	.LBE484:
 1287              	.LBE490:
 1288              		.loc 1 406 3 view .LVU488
 1289 0036 184D     		ldr	r5, .L40
 1290              	.LVL49:
 1291              	.LBB491:
 1292              	.LBB485:
 1293              		.loc 1 165 25 view .LVU489
 1294 0038 03F8424C 		strb	r4, [r3, #-66]
 1295              		.loc 1 166 25 view .LVU490
 1296 003c 1468     		ldr	r4, [r2]
 1297 003e 43F8501C 		str	r1, [r3, #-80]
 1298              		.loc 1 137 3 is_stmt 1 view .LVU491
 1299              		.loc 1 166 25 is_stmt 0 view .LVU492
 1300 0042 43F8404C 		str	r4, [r3, #-64]
 1301              		.loc 1 171 3 view .LVU493
 1302 0046 A3F12404 		sub	r4, r3, #36
 1303              	.LBB476:
 1304              	.LBB477:
 1305              		.loc 2 284 12 view .LVU494
 1306 004a 43E90944 		strd	r4, r4, [r3, #-36]
 1307              	.LBE477:
 1308              	.LBE476:
 1309              	.LBE485:
 1310              	.LBE491:
 1311              		.loc 1 406 3 view .LVU495
ARM GAS  C:\Users\DEVELO~1\AppData\Local\Temp\ccUBlV4P.s 			page 24


 1312 004e A3F18404 		sub	r4, r3, #132
 1313 0052 43F8544C 		str	r4, [r3, #-84]
 1314 0056 D2E90442 		ldrd	r4, r2, [r2, #16]
 1315              	.LVL50:
 1316              		.loc 1 406 3 view .LVU496
 1317 005a 43F8645C 		str	r5, [r3, #-100]
 1318 005e 43F8844C 		str	r4, [r3, #-132]
 1319              		.loc 1 409 3 view .LVU497
 1320 0062 A3F13C04 		sub	r4, r3, #60
 1321              	.LBB492:
 1322              	.LBB493:
 1323              		.loc 2 325 21 view .LVU498
 1324 0066 4D6B     		ldr	r5, [r1, #52]
 1325              	.LBE493:
 1326              	.LBE492:
 1327              		.loc 1 406 3 view .LVU499
 1328 0068 43F8802C 		str	r2, [r3, #-128]
 1329              	.LBB497:
 1330              	.LBB486:
 1331              		.loc 1 137 25 view .LVU500
 1332 006c 0022     		movs	r2, #0
 1333              	.LBB479:
 1334              	.LBB480:
 1335              		.loc 2 215 12 view .LVU501
 1336 006e 43F8286C 		str	r6, [r3, #-40]
 1337              	.LBE480:
 1338              	.LBE479:
 1339              	.LBE486:
 1340              	.LBE497:
 1341              		.loc 1 409 3 view .LVU502
 1342 0072 01F13006 		add	r6, r1, #48
 1343              	.LBB498:
 1344              	.LBB494:
 1345              		.loc 2 325 17 view .LVU503
 1346 0076 43F8385C 		str	r5, [r3, #-56]
 1347              		.loc 2 324 17 view .LVU504
 1348 007a 43F83C6C 		str	r6, [r3, #-60]
 1349              	.LBE494:
 1350              	.LBE498:
 1351              	.LBB499:
 1352              	.LBB487:
 1353              		.loc 1 138 25 view .LVU505
 1354 007e 43E90D22 		strd	r2, r2, [r3, #-52]
 1355              		.loc 1 144 3 is_stmt 1 view .LVU506
 1356              	.LVL51:
 1357              	.LBB482:
 1358              	.LBI479:
 1359              		.loc 2 213 20 view .LVU507
 1360              	.LBB481:
 1361              		.loc 2 215 3 view .LVU508
 1362              		.loc 2 215 3 is_stmt 0 view .LVU509
 1363              	.LBE481:
 1364              	.LBE482:
 1365              		.loc 1 149 3 is_stmt 1 view .LVU510
 1366              		.loc 1 150 3 view .LVU511
 1367              		.loc 1 155 3 view .LVU512
 1368              		.loc 1 165 3 view .LVU513
ARM GAS  C:\Users\DEVELO~1\AppData\Local\Temp\ccUBlV4P.s 			page 25


 1369              		.loc 1 166 3 view .LVU514
 1370              		.loc 1 171 3 view .LVU515
 1371              	.LBB483:
 1372              	.LBI476:
 1373              		.loc 2 282 20 view .LVU516
 1374              	.LBB478:
 1375              		.loc 2 284 3 view .LVU517
 1376              		.loc 2 285 3 view .LVU518
 1377              		.loc 2 285 3 is_stmt 0 view .LVU519
 1378              	.LBE478:
 1379              	.LBE483:
 1380              		.loc 1 180 3 is_stmt 1 view .LVU520
 1381              		.loc 1 180 30 view .LVU521
 1382              		.loc 1 182 3 view .LVU522
 1383              		.loc 1 182 3 is_stmt 0 view .LVU523
 1384              	.LBE487:
 1385              	.LBE499:
 1386              		.loc 1 406 3 is_stmt 1 view .LVU524
 1387              		.loc 1 406 3 view .LVU525
 1388              		.loc 1 406 3 view .LVU526
 1389              		.loc 1 406 3 view .LVU527
 1390              		.loc 1 406 3 view .LVU528
 1391              		.loc 1 406 3 view .LVU529
 1392              		.loc 1 409 3 view .LVU530
 1393              	.LBB500:
 1394              	.LBI492:
 1395              		.loc 2 322 20 view .LVU531
 1396              	.LBB495:
 1397              		.loc 2 324 3 view .LVU532
 1398              		.loc 2 325 3 view .LVU533
 1399              		.loc 2 326 3 view .LVU534
 1400              	.LBE495:
 1401              	.LBE500:
 1402              	.LBB501:
 1403              	.LBB488:
 1404              		.loc 1 155 25 is_stmt 0 view .LVU535
 1405 0082 43E90722 		strd	r2, r2, [r3, #-28]
 1406              	.LBE488:
 1407              	.LBE501:
 1408              	.LBB502:
 1409              	.LBB496:
 1410              		.loc 2 326 17 view .LVU536
 1411 0086 2C60     		str	r4, [r5]
 1412              		.loc 2 327 3 is_stmt 1 view .LVU537
 1413              		.loc 2 327 17 is_stmt 0 view .LVU538
 1414 0088 4C63     		str	r4, [r1, #52]
 1415              	.LVL52:
 1416              		.loc 2 327 17 view .LVU539
 1417              	.LBE496:
 1418              	.LBE502:
 1419              		.loc 1 412 3 is_stmt 1 view .LVU540
 1420              		.loc 1 412 3 is_stmt 0 view .LVU541
 1421              	.LBE473:
 1422              	.LBE472:
 1423              		.loc 1 446 3 is_stmt 1 view .LVU542
 1424              	.LBB505:
 1425              	.LBI505:
ARM GAS  C:\Users\DEVELO~1\AppData\Local\Temp\ccUBlV4P.s 			page 26


 1426              		.loc 3 386 20 view .LVU543
 1427              	.LBB506:
 1428              		.loc 3 388 23 view .LVU544
 1429              		.loc 3 389 34 view .LVU545
 1430              		.loc 3 395 3 view .LVU546
 1431              		.loc 3 395 3 view .LVU547
 1432              		.loc 3 395 3 view .LVU548
 1433              		.loc 3 399 3 view .LVU549
 1434              	.LBB507:
 1435              	.LBI507:
 1436              		.loc 4 864 27 view .LVU550
 1437              		.loc 4 867 3 view .LVU551
 1438              	.LBB508:
 1439              	.LBI508:
 1440              		.loc 5 491 27 view .LVU552
 1441              	.LBB509:
 1442              		.loc 5 493 3 view .LVU553
 1443              		.syntax unified
 1444              	@ 493 "./ChibiOS/os/common/ext/ARM/CMSIS/Core/Include/cmsis_gcc.h" 1
 1445 008a 82F31188 		MSR basepri, r2
 1446              	@ 0 "" 2
 1447              	.LVL53:
 1448              		.loc 5 493 3 is_stmt 0 view .LVU554
 1449              		.thumb
 1450              		.syntax unified
 1451              	.LBE509:
 1452              	.LBE508:
 1453              	.LBE507:
 1454              	.LBE506:
 1455              	.LBE505:
 1456              		.loc 1 448 3 is_stmt 1 view .LVU555
 1457              		.loc 1 449 1 is_stmt 0 view .LVU556
 1458 008e 70BC     		pop	{r4, r5, r6}
 1459              		.cfi_remember_state
 1460              		.cfi_restore 6
 1461              		.cfi_restore 5
 1462              		.cfi_restore 4
 1463              		.cfi_def_cfa_offset 0
 1464 0090 7047     		bx	lr
 1465              	.LVL54:
 1466              	.L39:
 1467              		.cfi_restore_state
 1468              	.LBB510:
 1469              	.LBB504:
 1470              	.LBB503:
 1471              	.LBB489:
 1472              		.loc 1 134 25 view .LVU557
 1473 0092 0249     		ldr	r1, .L40+4
 1474 0094 CAE7     		b	.L36
 1475              	.L41:
 1476 0096 00BF     		.align	2
 1477              	.L40:
 1478 0098 00000000 		.word	__port_thread_start
 1479 009c 00000000 		.word	ch0
 1480              	.LBE489:
 1481              	.LBE503:
 1482              	.LBE504:
ARM GAS  C:\Users\DEVELO~1\AppData\Local\Temp\ccUBlV4P.s 			page 27


 1483              	.LBE510:
 1484              		.cfi_endproc
 1485              	.LFE359:
 1486              		.size	chThdCreateSuspended, .-chThdCreateSuspended
 1487              		.section	.text.chThdCreateI,"ax",%progbits
 1488              		.align	1
 1489              		.p2align 4,,15
 1490              		.global	chThdCreateI
 1491              		.syntax unified
 1492              		.thumb
 1493              		.thumb_func
 1494              		.type	chThdCreateI, %function
 1495              	chThdCreateI:
 1496              	.LVL55:
 1497              	.LFB360:
 1498              		.loc 1 469 56 is_stmt 1 view -0
 1499              		.cfi_startproc
 1500              		@ args = 0, pretend = 0, frame = 0
 1501              		@ frame_needed = 0, uses_anonymous_args = 0
 1502              		.loc 1 471 3 view .LVU559
 1503              		.loc 1 469 56 is_stmt 0 view .LVU560
 1504 0000 08B5     		push	{r3, lr}
 1505              		.cfi_def_cfa_offset 8
 1506              		.cfi_offset 3, -8
 1507              		.cfi_offset 14, -4
 1508              		.loc 1 471 10 view .LVU561
 1509 0002 FFF7FEFF 		bl	chThdCreateSuspendedI
 1510              	.LVL56:
 1511              		.loc 1 472 1 view .LVU562
 1512 0006 BDE80840 		pop	{r3, lr}
 1513              		.cfi_restore 14
 1514              		.cfi_restore 3
 1515              		.cfi_def_cfa_offset 0
 1516              		.loc 1 471 10 view .LVU563
 1517 000a FFF7FEBF 		b	chSchReadyI
 1518              	.LVL57:
 1519              		.cfi_endproc
 1520              	.LFE360:
 1521              		.size	chThdCreateI, .-chThdCreateI
 1522 000e 00BF     		.section	.text.chThdCreate,"ax",%progbits
 1523              		.align	1
 1524              		.p2align 4,,15
 1525              		.global	chThdCreate
 1526              		.syntax unified
 1527              		.thumb
 1528              		.thumb_func
 1529              		.type	chThdCreate, %function
 1530              	chThdCreate:
 1531              	.LVL58:
 1532              	.LFB361:
 1533              		.loc 1 487 55 is_stmt 1 view -0
 1534              		.cfi_startproc
 1535              		@ args = 0, pretend = 0, frame = 0
 1536              		@ frame_needed = 0, uses_anonymous_args = 0
 1537              		.loc 1 488 3 view .LVU565
 1538              		.loc 1 492 3 view .LVU566
 1539              		.loc 1 492 3 view .LVU567
ARM GAS  C:\Users\DEVELO~1\AppData\Local\Temp\ccUBlV4P.s 			page 28


 1540              		.loc 1 492 3 view .LVU568
 1541              		.loc 1 500 3 view .LVU569
 1542              	.LBB511:
 1543              	.LBI511:
 1544              		.loc 3 372 20 view .LVU570
 1545              		.loc 3 374 3 view .LVU571
 1546              	.LBB512:
 1547              	.LBI512:
 1548              		.loc 4 840 27 view .LVU572
 1549              		.loc 4 848 3 view .LVU573
 1550              	.LBB513:
 1551              	.LBI513:
 1552              		.loc 5 491 27 view .LVU574
 1553              	.LBB514:
 1554              		.loc 5 493 3 view .LVU575
 1555              	.LBE514:
 1556              	.LBE513:
 1557              	.LBE512:
 1558              	.LBE511:
 1559              		.loc 1 487 55 is_stmt 0 view .LVU576
 1560 0000 10B5     		push	{r4, lr}
 1561              		.cfi_def_cfa_offset 8
 1562              		.cfi_offset 4, -8
 1563              		.cfi_offset 14, -4
 1564              	.LBB518:
 1565              	.LBB517:
 1566              	.LBB516:
 1567              	.LBB515:
 1568              		.loc 5 493 3 view .LVU577
 1569 0002 3023     		movs	r3, #48
 1570              		.syntax unified
 1571              	@ 493 "./ChibiOS/os/common/ext/ARM/CMSIS/Core/Include/cmsis_gcc.h" 1
 1572 0004 83F31188 		MSR basepri, r3
 1573              	@ 0 "" 2
 1574              	.LVL59:
 1575              		.loc 5 493 3 view .LVU578
 1576              		.thumb
 1577              		.syntax unified
 1578              	.LBE515:
 1579              	.LBE516:
 1580              	.LBE517:
 1581              		.loc 3 375 35 is_stmt 1 view .LVU579
 1582              		.loc 3 376 21 view .LVU580
 1583              	.LBE518:
 1584              		.loc 1 501 3 view .LVU581
 1585              		.loc 1 501 8 is_stmt 0 view .LVU582
 1586 0008 FFF7FEFF 		bl	chThdCreateSuspendedI
 1587              	.LVL60:
 1588              		.loc 1 502 3 view .LVU583
 1589 000c 0021     		movs	r1, #0
 1590              		.loc 1 501 8 view .LVU584
 1591 000e 0446     		mov	r4, r0
 1592              	.LVL61:
 1593              		.loc 1 502 3 is_stmt 1 view .LVU585
 1594 0010 FFF7FEFF 		bl	chSchWakeupS
 1595              	.LVL62:
 1596              		.loc 1 503 3 view .LVU586
ARM GAS  C:\Users\DEVELO~1\AppData\Local\Temp\ccUBlV4P.s 			page 29


 1597              	.LBB519:
 1598              	.LBI519:
 1599              		.loc 3 386 20 view .LVU587
 1600              	.LBB520:
 1601              		.loc 3 388 23 view .LVU588
 1602              		.loc 3 389 34 view .LVU589
 1603              		.loc 3 395 3 view .LVU590
 1604              		.loc 3 395 3 view .LVU591
 1605              		.loc 3 395 3 view .LVU592
 1606              		.loc 3 399 3 view .LVU593
 1607              	.LBB521:
 1608              	.LBI521:
 1609              		.loc 4 864 27 view .LVU594
 1610              		.loc 4 867 3 view .LVU595
 1611              	.LBB522:
 1612              	.LBI522:
 1613              		.loc 5 491 27 view .LVU596
 1614              	.LBB523:
 1615              		.loc 5 493 3 view .LVU597
 1616 0014 0023     		movs	r3, #0
 1617              		.syntax unified
 1618              	@ 493 "./ChibiOS/os/common/ext/ARM/CMSIS/Core/Include/cmsis_gcc.h" 1
 1619 0016 83F31188 		MSR basepri, r3
 1620              	@ 0 "" 2
 1621              	.LVL63:
 1622              		.loc 5 493 3 is_stmt 0 view .LVU598
 1623              		.thumb
 1624              		.syntax unified
 1625              	.LBE523:
 1626              	.LBE522:
 1627              	.LBE521:
 1628              	.LBE520:
 1629              	.LBE519:
 1630              		.loc 1 505 3 is_stmt 1 view .LVU599
 1631              		.loc 1 506 1 is_stmt 0 view .LVU600
 1632 001a 2046     		mov	r0, r4
 1633 001c 10BD     		pop	{r4, pc}
 1634              		.loc 1 506 1 view .LVU601
 1635              		.cfi_endproc
 1636              	.LFE361:
 1637              		.size	chThdCreate, .-chThdCreate
 1638 001e 00BF     		.section	.rodata.chThdCreateStatic.str1.4,"aMS",%progbits,1
 1639              		.align	2
 1640              	.LC0:
 1641 0000 6E6F6E61 		.ascii	"noname\000"
 1641      6D6500
 1642              		.section	.text.chThdCreateStatic,"ax",%progbits
 1643              		.align	1
 1644              		.p2align 4,,15
 1645              		.global	chThdCreateStatic
 1646              		.syntax unified
 1647              		.thumb
 1648              		.thumb_func
 1649              		.type	chThdCreateStatic, %function
 1650              	chThdCreateStatic:
 1651              	.LVL64:
 1652              	.LFB362:
ARM GAS  C:\Users\DEVELO~1\AppData\Local\Temp\ccUBlV4P.s 			page 30


 1653              		.loc 1 529 68 is_stmt 1 view -0
 1654              		.cfi_startproc
 1655              		@ args = 4, pretend = 0, frame = 0
 1656              		@ frame_needed = 0, uses_anonymous_args = 0
 1657              		.loc 1 530 3 view .LVU603
 1658              		.loc 1 531 3 view .LVU604
 1659              		.loc 1 534 3 view .LVU605
 1660              		.loc 1 534 3 view .LVU606
 1661              		.loc 1 534 3 view .LVU607
 1662              		.loc 1 538 3 view .LVU608
 1663              		.loc 1 538 3 view .LVU609
 1664              		.loc 1 538 3 view .LVU610
 1665              		.loc 1 543 3 view .LVU611
 1666              		.loc 1 543 3 view .LVU612
 1667              		.loc 1 543 3 view .LVU613
 1668              		.loc 1 548 3 view .LVU614
 1669              		.loc 1 529 68 is_stmt 0 view .LVU615
 1670 0000 F8B5     		push	{r3, r4, r5, r6, r7, lr}
 1671              		.cfi_def_cfa_offset 24
 1672              		.cfi_offset 3, -24
 1673              		.cfi_offset 4, -20
 1674              		.cfi_offset 5, -16
 1675              		.cfi_offset 6, -12
 1676              		.cfi_offset 7, -8
 1677              		.cfi_offset 14, -4
 1678              		.loc 1 548 8 view .LVU616
 1679 0002 4418     		adds	r4, r0, r1
 1680              	.LVL65:
 1681              		.loc 1 554 3 is_stmt 1 view .LVU617
 1682              		.loc 1 555 3 view .LVU618
 1683              	.LBB541:
 1684              	.LBB542:
 1685              		.loc 1 128 25 is_stmt 0 view .LVU619
 1686 0004 0221     		movs	r1, #2
 1687              	.LVL66:
 1688              		.loc 1 128 25 view .LVU620
 1689              	.LBE542:
 1690              	.LBE541:
 1691              		.loc 1 529 68 view .LVU621
 1692 0006 069D     		ldr	r5, [sp, #24]
 1693              	.LBB557:
 1694              	.LBB551:
 1695              		.loc 1 128 25 view .LVU622
 1696 0008 04F8441C 		strb	r1, [r4, #-68]
 1697              		.loc 1 144 3 view .LVU623
 1698 000c A4F12801 		sub	r1, r4, #40
 1699              		.loc 1 123 14 view .LVU624
 1700 0010 44F84C0C 		str	r0, [r4, #-76]
 1701              	.LBE551:
 1702              	.LBE557:
 1703              		.loc 1 555 11 view .LVU625
 1704 0014 A4F16006 		sub	r6, r4, #96
 1705              	.LVL67:
 1706              		.loc 1 556 3 is_stmt 1 view .LVU626
 1707              		.loc 1 556 3 view .LVU627
 1708              		.loc 1 556 3 view .LVU628
 1709              		.loc 1 565 3 view .LVU629
ARM GAS  C:\Users\DEVELO~1\AppData\Local\Temp\ccUBlV4P.s 			page 31


 1710              		.loc 1 566 3 view .LVU630
 1711              	.LBB558:
 1712              	.LBI541:
 1713              		.loc 1 116 11 view .LVU631
 1714              	.LBB552:
 1715              		.loc 1 119 3 view .LVU632
 1716              		.loc 1 119 3 view .LVU633
 1717              		.loc 1 119 3 view .LVU634
 1718              		.loc 1 120 3 view .LVU635
 1719              		.loc 1 120 3 view .LVU636
 1720              		.loc 1 120 3 view .LVU637
 1721              		.loc 1 123 3 view .LVU638
 1722              		.loc 1 124 3 view .LVU639
 1723              		.loc 1 127 3 view .LVU640
 1724              		.loc 1 128 3 view .LVU641
 1725              		.loc 1 129 3 view .LVU642
 1726              		.loc 1 130 3 view .LVU643
 1727              		.loc 1 131 5 view .LVU644
 1728              		.loc 1 137 3 view .LVU645
 1729              		.loc 1 138 3 view .LVU646
 1730              		.loc 1 144 3 view .LVU647
 1731              	.LBB543:
 1732              	.LBI543:
 1733              		.loc 2 213 20 view .LVU648
 1734              	.LBB544:
 1735              		.loc 2 215 3 view .LVU649
 1736              		.loc 2 215 3 is_stmt 0 view .LVU650
 1737              	.LBE544:
 1738              	.LBE543:
 1739              		.loc 1 149 3 is_stmt 1 view .LVU651
 1740              		.loc 1 150 3 view .LVU652
 1741              		.loc 1 155 3 view .LVU653
 1742              		.loc 1 165 3 view .LVU654
 1743              		.loc 1 166 3 view .LVU655
 1744              		.loc 1 171 3 view .LVU656
 1745              	.LBB546:
 1746              	.LBI546:
 1747              		.loc 2 282 20 view .LVU657
 1748              	.LBB547:
 1749              		.loc 2 284 3 view .LVU658
 1750              		.loc 2 285 3 view .LVU659
 1751              		.loc 2 285 3 is_stmt 0 view .LVU660
 1752              	.LBE547:
 1753              	.LBE546:
 1754              		.loc 1 180 3 is_stmt 1 view .LVU661
 1755              		.loc 1 180 30 view .LVU662
 1756              		.loc 1 182 3 view .LVU663
 1757              		.loc 1 182 3 is_stmt 0 view .LVU664
 1758              	.LBE552:
 1759              	.LBE558:
 1760              		.loc 1 569 3 is_stmt 1 view .LVU665
 1761              		.loc 1 569 3 view .LVU666
 1762              		.loc 1 569 3 view .LVU667
 1763              		.loc 1 569 3 view .LVU668
 1764              		.loc 1 569 3 view .LVU669
 1765              		.loc 1 569 3 view .LVU670
 1766              		.loc 1 571 3 view .LVU671
ARM GAS  C:\Users\DEVELO~1\AppData\Local\Temp\ccUBlV4P.s 			page 32


 1767              	.LBB559:
 1768              	.LBI559:
 1769              		.loc 3 372 20 view .LVU672
 1770              		.loc 3 374 3 view .LVU673
 1771              	.LBB560:
 1772              	.LBI560:
 1773              		.loc 4 840 27 view .LVU674
 1774              		.loc 4 848 3 view .LVU675
 1775              	.LBB561:
 1776              	.LBI561:
 1777              		.loc 5 491 27 view .LVU676
 1778              	.LBB562:
 1779              		.loc 5 493 3 view .LVU677
 1780              	.LBE562:
 1781              	.LBE561:
 1782              	.LBE560:
 1783              	.LBE559:
 1784              		.loc 1 569 3 is_stmt 0 view .LVU678
 1785 0018 1F48     		ldr	r0, .L48
 1786              	.LVL68:
 1787              		.loc 1 569 3 view .LVU679
 1788 001a 44F8843C 		str	r3, [r4, #-132]
 1789              	.LBB566:
 1790              	.LBB553:
 1791              	.LBB549:
 1792              	.LBB545:
 1793              		.loc 2 215 12 view .LVU680
 1794 001e 44F8281C 		str	r1, [r4, #-40]
 1795              	.LBE545:
 1796              	.LBE549:
 1797              		.loc 1 165 25 view .LVU681
 1798 0022 0121     		movs	r1, #1
 1799              		.loc 1 131 25 view .LVU682
 1800 0024 1D4B     		ldr	r3, .L48+4
 1801              	.LVL69:
 1802              		.loc 1 131 25 view .LVU683
 1803              	.LBE553:
 1804              	.LBE566:
 1805              		.loc 1 569 3 view .LVU684
 1806 0026 44F8805C 		str	r5, [r4, #-128]
 1807              	.LBB567:
 1808              	.LBB554:
 1809              		.loc 1 129 25 view .LVU685
 1810 002a 0025     		movs	r5, #0
 1811              	.LBE554:
 1812              	.LBE567:
 1813              		.loc 1 569 3 view .LVU686
 1814 002c 44F8640C 		str	r0, [r4, #-100]
 1815 0030 A4F18400 		sub	r0, r4, #132
 1816              	.LVL70:
 1817              	.LBB568:
 1818              	.LBB555:
 1819              		.loc 1 131 25 view .LVU687
 1820 0034 44F8503C 		str	r3, [r4, #-80]
 1821              		.loc 1 171 3 view .LVU688
 1822 0038 A4F12403 		sub	r3, r4, #36
 1823              		.loc 1 165 25 view .LVU689
ARM GAS  C:\Users\DEVELO~1\AppData\Local\Temp\ccUBlV4P.s 			page 33


 1824 003c 04F8421C 		strb	r1, [r4, #-66]
 1825              		.loc 1 166 25 view .LVU690
 1826 0040 1749     		ldr	r1, .L48+8
 1827              		.loc 1 124 14 view .LVU691
 1828 0042 44F8484C 		str	r4, [r4, #-72]
 1829              		.loc 1 127 25 view .LVU692
 1830 0046 44F8582C 		str	r2, [r4, #-88]
 1831              		.loc 1 129 25 view .LVU693
 1832 004a 04F8435C 		strb	r5, [r4, #-67]
 1833              	.LBE555:
 1834              	.LBE568:
 1835              		.loc 1 569 3 view .LVU694
 1836 004e 44F8540C 		str	r0, [r4, #-84]
 1837              	.LBB569:
 1838              	.LBB556:
 1839              		.loc 1 155 25 view .LVU695
 1840 0052 44F81C5C 		str	r5, [r4, #-28]
 1841              		.loc 1 166 25 view .LVU696
 1842 0056 44F8401C 		str	r1, [r4, #-64]
 1843              	.LBB550:
 1844              	.LBB548:
 1845              		.loc 2 285 12 view .LVU697
 1846 005a 44E90933 		strd	r3, r3, [r4, #-36]
 1847              	.LBE548:
 1848              	.LBE550:
 1849              		.loc 1 138 25 view .LVU698
 1850 005e 44E90D55 		strd	r5, r5, [r4, #-52]
 1851              		.loc 1 150 25 view .LVU699
 1852 0062 44E90652 		strd	r5, r2, [r4, #-24]
 1853              	.LBE556:
 1854              	.LBE569:
 1855              	.LBB570:
 1856              	.LBB565:
 1857              	.LBB564:
 1858              	.LBB563:
 1859              		.loc 5 493 3 view .LVU700
 1860 0066 3023     		movs	r3, #48
 1861              		.syntax unified
 1862              	@ 493 "./ChibiOS/os/common/ext/ARM/CMSIS/Core/Include/cmsis_gcc.h" 1
 1863 0068 83F31188 		MSR basepri, r3
 1864              	@ 0 "" 2
 1865              	.LVL71:
 1866              		.loc 5 493 3 view .LVU701
 1867              		.thumb
 1868              		.syntax unified
 1869              	.LBE563:
 1870              	.LBE564:
 1871              	.LBE565:
 1872              		.loc 3 375 35 is_stmt 1 view .LVU702
 1873              		.loc 3 376 21 view .LVU703
 1874              	.LBE570:
 1875              		.loc 1 574 3 view .LVU704
 1876 006c 54F8503C 		ldr	r3, [r4, #-80]
 1877 0070 A4F13C02 		sub	r2, r4, #60
 1878              	.LVL72:
 1879              	.LBB571:
 1880              	.LBI571:
ARM GAS  C:\Users\DEVELO~1\AppData\Local\Temp\ccUBlV4P.s 			page 34


 1881              		.loc 2 322 20 view .LVU705
 1882              	.LBB572:
 1883              		.loc 2 324 3 view .LVU706
 1884              	.LBE572:
 1885              	.LBE571:
 1886              		.loc 1 578 3 is_stmt 0 view .LVU707
 1887 0074 2946     		mov	r1, r5
 1888 0076 3046     		mov	r0, r6
 1889              	.LVL73:
 1890              	.LBB575:
 1891              	.LBB573:
 1892              		.loc 2 325 21 view .LVU708
 1893 0078 5F6B     		ldr	r7, [r3, #52]
 1894              	.LBE573:
 1895              	.LBE575:
 1896              		.loc 1 574 3 view .LVU709
 1897 007a 03F1300C 		add	ip, r3, #48
 1898              	.LVL74:
 1899              	.LBB576:
 1900              	.LBB574:
 1901              		.loc 2 325 17 view .LVU710
 1902 007e 44F8387C 		str	r7, [r4, #-56]
 1903              		.loc 2 324 17 view .LVU711
 1904 0082 44F83CCC 		str	ip, [r4, #-60]
 1905              		.loc 2 325 3 is_stmt 1 view .LVU712
 1906              		.loc 2 326 3 view .LVU713
 1907              		.loc 2 326 17 is_stmt 0 view .LVU714
 1908 0086 3A60     		str	r2, [r7]
 1909              	.LVL75:
 1910              		.loc 2 327 3 is_stmt 1 view .LVU715
 1911              		.loc 2 327 17 is_stmt 0 view .LVU716
 1912 0088 5A63     		str	r2, [r3, #52]
 1913              	.LVL76:
 1914              		.loc 2 327 17 view .LVU717
 1915              	.LBE574:
 1916              	.LBE576:
 1917              		.loc 1 578 3 is_stmt 1 view .LVU718
 1918 008a FFF7FEFF 		bl	chSchWakeupS
 1919              	.LVL77:
 1920              		.loc 1 579 3 view .LVU719
 1921              	.LBB577:
 1922              	.LBI577:
 1923              		.loc 3 386 20 view .LVU720
 1924              	.LBB578:
 1925              		.loc 3 388 23 view .LVU721
 1926              		.loc 3 389 34 view .LVU722
 1927              		.loc 3 395 3 view .LVU723
 1928              		.loc 3 395 3 view .LVU724
 1929              		.loc 3 395 3 view .LVU725
 1930              		.loc 3 399 3 view .LVU726
 1931              	.LBB579:
 1932              	.LBI579:
 1933              		.loc 4 864 27 view .LVU727
 1934              		.loc 4 867 3 view .LVU728
 1935              	.LBB580:
 1936              	.LBI580:
 1937              		.loc 5 491 27 view .LVU729
ARM GAS  C:\Users\DEVELO~1\AppData\Local\Temp\ccUBlV4P.s 			page 35


 1938              	.LBB581:
 1939              		.loc 5 493 3 view .LVU730
 1940              		.syntax unified
 1941              	@ 493 "./ChibiOS/os/common/ext/ARM/CMSIS/Core/Include/cmsis_gcc.h" 1
 1942 008e 85F31188 		MSR basepri, r5
 1943              	@ 0 "" 2
 1944              	.LVL78:
 1945              		.loc 5 493 3 is_stmt 0 view .LVU731
 1946              		.thumb
 1947              		.syntax unified
 1948              	.LBE581:
 1949              	.LBE580:
 1950              	.LBE579:
 1951              	.LBE578:
 1952              	.LBE577:
 1953              		.loc 1 581 3 is_stmt 1 view .LVU732
 1954              		.loc 1 582 1 is_stmt 0 view .LVU733
 1955 0092 3046     		mov	r0, r6
 1956 0094 F8BD     		pop	{r3, r4, r5, r6, r7, pc}
 1957              	.LVL79:
 1958              	.L49:
 1959              		.loc 1 582 1 view .LVU734
 1960 0096 00BF     		.align	2
 1961              	.L48:
 1962 0098 00000000 		.word	__port_thread_start
 1963 009c 00000000 		.word	ch0
 1964 00a0 00000000 		.word	.LC0
 1965              		.cfi_endproc
 1966              	.LFE362:
 1967              		.size	chThdCreateStatic, .-chThdCreateStatic
 1968              		.section	.text.chThdStart,"ax",%progbits
 1969              		.align	1
 1970              		.p2align 4,,15
 1971              		.global	chThdStart
 1972              		.syntax unified
 1973              		.thumb
 1974              		.thumb_func
 1975              		.type	chThdStart, %function
 1976              	chThdStart:
 1977              	.LVL80:
 1978              	.LFB363:
 1979              		.loc 1 592 36 is_stmt 1 view -0
 1980              		.cfi_startproc
 1981              		@ args = 0, pretend = 0, frame = 0
 1982              		@ frame_needed = 0, uses_anonymous_args = 0
 1983              		.loc 1 594 3 view .LVU736
 1984              	.LBB582:
 1985              	.LBI582:
 1986              		.loc 3 372 20 view .LVU737
 1987              		.loc 3 374 3 view .LVU738
 1988              	.LBB583:
 1989              	.LBI583:
 1990              		.loc 4 840 27 view .LVU739
 1991              		.loc 4 848 3 view .LVU740
 1992              	.LBB584:
 1993              	.LBI584:
 1994              		.loc 5 491 27 view .LVU741
ARM GAS  C:\Users\DEVELO~1\AppData\Local\Temp\ccUBlV4P.s 			page 36


 1995              	.LBB585:
 1996              		.loc 5 493 3 view .LVU742
 1997              	.LBE585:
 1998              	.LBE584:
 1999              	.LBE583:
 2000              	.LBE582:
 2001              		.loc 1 592 36 is_stmt 0 view .LVU743
 2002 0000 10B5     		push	{r4, lr}
 2003              		.cfi_def_cfa_offset 8
 2004              		.cfi_offset 4, -8
 2005              		.cfi_offset 14, -4
 2006              	.LBB592:
 2007              	.LBB590:
 2008              	.LBB588:
 2009              	.LBB586:
 2010              		.loc 5 493 3 view .LVU744
 2011 0002 3023     		movs	r3, #48
 2012              	.LBE586:
 2013              	.LBE588:
 2014              	.LBE590:
 2015              	.LBE592:
 2016              		.loc 1 592 36 view .LVU745
 2017 0004 0446     		mov	r4, r0
 2018              	.LBB593:
 2019              	.LBB591:
 2020              	.LBB589:
 2021              	.LBB587:
 2022              		.loc 5 493 3 view .LVU746
 2023              		.syntax unified
 2024              	@ 493 "./ChibiOS/os/common/ext/ARM/CMSIS/Core/Include/cmsis_gcc.h" 1
 2025 0006 83F31188 		MSR basepri, r3
 2026              	@ 0 "" 2
 2027              	.LVL81:
 2028              		.loc 5 493 3 view .LVU747
 2029              		.thumb
 2030              		.syntax unified
 2031              	.LBE587:
 2032              	.LBE589:
 2033              	.LBE591:
 2034              		.loc 3 375 35 is_stmt 1 view .LVU748
 2035              		.loc 3 376 21 view .LVU749
 2036              	.LBE593:
 2037              		.loc 1 595 3 view .LVU750
 2038              		.loc 1 595 3 view .LVU751
 2039              		.loc 1 595 3 view .LVU752
 2040              		.loc 1 596 3 view .LVU753
 2041 000a 0021     		movs	r1, #0
 2042 000c FFF7FEFF 		bl	chSchWakeupS
 2043              	.LVL82:
 2044              		.loc 1 597 3 view .LVU754
 2045              	.LBB594:
 2046              	.LBI594:
 2047              		.loc 3 386 20 view .LVU755
 2048              	.LBB595:
 2049              		.loc 3 388 23 view .LVU756
 2050              		.loc 3 389 34 view .LVU757
 2051              		.loc 3 395 3 view .LVU758
ARM GAS  C:\Users\DEVELO~1\AppData\Local\Temp\ccUBlV4P.s 			page 37


 2052              		.loc 3 395 3 view .LVU759
 2053              		.loc 3 395 3 view .LVU760
 2054              		.loc 3 399 3 view .LVU761
 2055              	.LBB596:
 2056              	.LBI596:
 2057              		.loc 4 864 27 view .LVU762
 2058              		.loc 4 867 3 view .LVU763
 2059              	.LBB597:
 2060              	.LBI597:
 2061              		.loc 5 491 27 view .LVU764
 2062              	.LBB598:
 2063              		.loc 5 493 3 view .LVU765
 2064 0010 0023     		movs	r3, #0
 2065              		.syntax unified
 2066              	@ 493 "./ChibiOS/os/common/ext/ARM/CMSIS/Core/Include/cmsis_gcc.h" 1
 2067 0012 83F31188 		MSR basepri, r3
 2068              	@ 0 "" 2
 2069              	.LVL83:
 2070              		.loc 5 493 3 is_stmt 0 view .LVU766
 2071              		.thumb
 2072              		.syntax unified
 2073              	.LBE598:
 2074              	.LBE597:
 2075              	.LBE596:
 2076              	.LBE595:
 2077              	.LBE594:
 2078              		.loc 1 599 3 is_stmt 1 view .LVU767
 2079              		.loc 1 600 1 is_stmt 0 view .LVU768
 2080 0016 2046     		mov	r0, r4
 2081 0018 10BD     		pop	{r4, pc}
 2082              		.loc 1 600 1 view .LVU769
 2083              		.cfi_endproc
 2084              	.LFE363:
 2085              		.size	chThdStart, .-chThdStart
 2086 001a 00BF     		.section	.text.chThdAddRef,"ax",%progbits
 2087              		.align	1
 2088              		.p2align 4,,15
 2089              		.global	chThdAddRef
 2090              		.syntax unified
 2091              		.thumb
 2092              		.thumb_func
 2093              		.type	chThdAddRef, %function
 2094              	chThdAddRef:
 2095              	.LVL84:
 2096              	.LFB364:
 2097              		.loc 1 614 37 is_stmt 1 view -0
 2098              		.cfi_startproc
 2099              		@ args = 0, pretend = 0, frame = 0
 2100              		@ frame_needed = 0, uses_anonymous_args = 0
 2101              		@ link register save eliminated.
 2102              		.loc 1 616 3 view .LVU771
 2103              	.LBB599:
 2104              	.LBI599:
 2105              		.loc 3 372 20 view .LVU772
 2106              		.loc 3 374 3 view .LVU773
 2107              	.LBB600:
 2108              	.LBI600:
ARM GAS  C:\Users\DEVELO~1\AppData\Local\Temp\ccUBlV4P.s 			page 38


 2109              		.loc 4 840 27 view .LVU774
 2110              		.loc 4 848 3 view .LVU775
 2111              	.LBB601:
 2112              	.LBI601:
 2113              		.loc 5 491 27 view .LVU776
 2114              	.LBB602:
 2115              		.loc 5 493 3 view .LVU777
 2116 0000 3022     		movs	r2, #48
 2117              		.syntax unified
 2118              	@ 493 "./ChibiOS/os/common/ext/ARM/CMSIS/Core/Include/cmsis_gcc.h" 1
 2119 0002 82F31188 		MSR basepri, r2
 2120              	@ 0 "" 2
 2121              	.LVL85:
 2122              		.loc 5 493 3 is_stmt 0 view .LVU778
 2123              		.thumb
 2124              		.syntax unified
 2125              	.LBE602:
 2126              	.LBE601:
 2127              	.LBE600:
 2128              		.loc 3 375 35 is_stmt 1 view .LVU779
 2129              		.loc 3 376 21 view .LVU780
 2130              	.LBE599:
 2131              		.loc 1 617 3 view .LVU781
 2132              		.loc 1 617 3 view .LVU782
 2133              		.loc 1 617 3 view .LVU783
 2134              		.loc 1 618 3 view .LVU784
 2135              		.loc 1 618 11 is_stmt 0 view .LVU785
 2136 0006 827F     		ldrb	r2, [r0, #30]	@ zero_extendqisi2
 2137              	.LBB603:
 2138              	.LBB604:
 2139              	.LBB605:
 2140              	.LBB606:
 2141              	.LBB607:
 2142              		.loc 5 493 3 view .LVU786
 2143 0008 0021     		movs	r1, #0
 2144              	.LBE607:
 2145              	.LBE606:
 2146              	.LBE605:
 2147              	.LBE604:
 2148              	.LBE603:
 2149              		.loc 1 618 11 view .LVU787
 2150 000a 0132     		adds	r2, r2, #1
 2151 000c 8277     		strb	r2, [r0, #30]
 2152              		.loc 1 619 3 is_stmt 1 view .LVU788
 2153              	.LBB612:
 2154              	.LBI603:
 2155              		.loc 3 386 20 view .LVU789
 2156              	.LBB611:
 2157              		.loc 3 388 23 view .LVU790
 2158              		.loc 3 389 34 view .LVU791
 2159              		.loc 3 395 3 view .LVU792
 2160              		.loc 3 395 3 view .LVU793
 2161              		.loc 3 395 3 view .LVU794
 2162              		.loc 3 399 3 view .LVU795
 2163              	.LBB610:
 2164              	.LBI605:
 2165              		.loc 4 864 27 view .LVU796
ARM GAS  C:\Users\DEVELO~1\AppData\Local\Temp\ccUBlV4P.s 			page 39


 2166              		.loc 4 867 3 view .LVU797
 2167              	.LVL86:
 2168              	.LBB609:
 2169              	.LBI606:
 2170              		.loc 5 491 27 view .LVU798
 2171              	.LBB608:
 2172              		.loc 5 493 3 view .LVU799
 2173              		.syntax unified
 2174              	@ 493 "./ChibiOS/os/common/ext/ARM/CMSIS/Core/Include/cmsis_gcc.h" 1
 2175 000e 81F31188 		MSR basepri, r1
 2176              	@ 0 "" 2
 2177              	.LVL87:
 2178              		.loc 5 493 3 is_stmt 0 view .LVU800
 2179              		.thumb
 2180              		.syntax unified
 2181              	.LBE608:
 2182              	.LBE609:
 2183              	.LBE610:
 2184              	.LBE611:
 2185              	.LBE612:
 2186              		.loc 1 621 3 is_stmt 1 view .LVU801
 2187              		.loc 1 622 1 is_stmt 0 view .LVU802
 2188 0012 7047     		bx	lr
 2189              		.cfi_endproc
 2190              	.LFE364:
 2191              		.size	chThdAddRef, .-chThdAddRef
 2192              		.section	.text.chThdRelease,"ax",%progbits
 2193              		.align	1
 2194              		.p2align 4,,15
 2195              		.global	chThdRelease
 2196              		.syntax unified
 2197              		.thumb
 2198              		.thumb_func
 2199              		.type	chThdRelease, %function
 2200              	chThdRelease:
 2201              	.LVL88:
 2202              	.LFB365:
 2203              		.loc 1 642 33 is_stmt 1 view -0
 2204              		.cfi_startproc
 2205              		@ args = 0, pretend = 0, frame = 0
 2206              		@ frame_needed = 0, uses_anonymous_args = 0
 2207              		@ link register save eliminated.
 2208              		.loc 1 644 3 view .LVU804
 2209              	.LBB649:
 2210              	.LBI649:
 2211              		.loc 3 372 20 view .LVU805
 2212              		.loc 3 374 3 view .LVU806
 2213              	.LBB650:
 2214              	.LBI650:
 2215              		.loc 4 840 27 view .LVU807
 2216              		.loc 4 848 3 view .LVU808
 2217              	.LBB651:
 2218              	.LBI651:
 2219              		.loc 5 491 27 view .LVU809
 2220              	.LBB652:
 2221              		.loc 5 493 3 view .LVU810
 2222 0000 3022     		movs	r2, #48
ARM GAS  C:\Users\DEVELO~1\AppData\Local\Temp\ccUBlV4P.s 			page 40


 2223              		.syntax unified
 2224              	@ 493 "./ChibiOS/os/common/ext/ARM/CMSIS/Core/Include/cmsis_gcc.h" 1
 2225 0002 82F31188 		MSR basepri, r2
 2226              	@ 0 "" 2
 2227              	.LVL89:
 2228              		.loc 5 493 3 is_stmt 0 view .LVU811
 2229              		.thumb
 2230              		.syntax unified
 2231              	.LBE652:
 2232              	.LBE651:
 2233              	.LBE650:
 2234              		.loc 3 375 35 is_stmt 1 view .LVU812
 2235              		.loc 3 376 21 view .LVU813
 2236              	.LBE649:
 2237              		.loc 1 645 3 view .LVU814
 2238              		.loc 1 645 3 view .LVU815
 2239              		.loc 1 645 3 view .LVU816
 2240              		.loc 1 646 3 view .LVU817
 2241              		.loc 1 646 11 is_stmt 0 view .LVU818
 2242 0006 827F     		ldrb	r2, [r0, #30]	@ zero_extendqisi2
 2243 0008 013A     		subs	r2, r2, #1
 2244 000a 8277     		strb	r2, [r0, #30]
 2245              		.loc 1 651 3 is_stmt 1 view .LVU819
 2246              		.loc 1 651 32 is_stmt 0 view .LVU820
 2247 000c C269     		ldr	r2, [r0, #28]
 2248 000e 02F0FF12 		and	r2, r2, #16711935
 2249              		.loc 1 651 6 view .LVU821
 2250 0012 0F2A     		cmp	r2, #15
 2251 0014 03D0     		beq	.L59
 2252              		.loc 1 666 3 is_stmt 1 view .LVU822
 2253              	.LBB653:
 2254              	.LBI653:
 2255              		.loc 3 386 20 view .LVU823
 2256              	.LBB654:
 2257              		.loc 3 388 23 view .LVU824
 2258              		.loc 3 389 34 view .LVU825
 2259              		.loc 3 395 3 view .LVU826
 2260              		.loc 3 395 3 view .LVU827
 2261              		.loc 3 395 3 view .LVU828
 2262              		.loc 3 399 3 view .LVU829
 2263              	.LBB655:
 2264              	.LBI655:
 2265              		.loc 4 864 27 view .LVU830
 2266              		.loc 4 867 3 view .LVU831
 2267              	.LVL90:
 2268              	.LBB656:
 2269              	.LBI656:
 2270              		.loc 5 491 27 view .LVU832
 2271              	.LBB657:
 2272              		.loc 5 493 3 view .LVU833
 2273 0016 0023     		movs	r3, #0
 2274              		.syntax unified
 2275              	@ 493 "./ChibiOS/os/common/ext/ARM/CMSIS/Core/Include/cmsis_gcc.h" 1
 2276 0018 83F31188 		MSR basepri, r3
 2277              	@ 0 "" 2
 2278              	.LVL91:
 2279              		.thumb
ARM GAS  C:\Users\DEVELO~1\AppData\Local\Temp\ccUBlV4P.s 			page 41


 2280              		.syntax unified
 2281              	.L53:
 2282              		.loc 5 493 3 is_stmt 0 view .LVU834
 2283              	.LBE657:
 2284              	.LBE656:
 2285              	.LBE655:
 2286              	.LBE654:
 2287              	.LBE653:
 2288              		.loc 1 667 1 view .LVU835
 2289 001c 7047     		bx	lr
 2290              	.L59:
 2291              	.LVL92:
 2292              	.LBB658:
 2293              	.LBI658:
 2294              		.loc 1 642 6 is_stmt 1 view .LVU836
 2295              	.LBB659:
 2296              		.loc 1 654 5 view .LVU837
 2297              	.LBB660:
 2298              	.LBI660:
 2299              		.loc 2 378 27 view .LVU838
 2300              	.LBB661:
 2301              		.loc 2 380 3 view .LVU839
 2302              		.loc 2 380 20 is_stmt 0 view .LVU840
 2303 001e D0E90921 		ldrd	r2, r1, [r0, #36]
 2304              	.LBE661:
 2305              	.LBE660:
 2306              	.LBB663:
 2307              	.LBB664:
 2308              	.LBB665:
 2309              	.LBB666:
 2310              	.LBB667:
 2311              		.loc 5 493 3 view .LVU841
 2312 0022 4FF0000C 		mov	ip, #0
 2313              	.LBE667:
 2314              	.LBE666:
 2315              	.LBE665:
 2316              	.LBE664:
 2317              	.LBE663:
 2318              	.LBB672:
 2319              	.LBB662:
 2320              		.loc 2 380 17 view .LVU842
 2321 0026 0A60     		str	r2, [r1]
 2322              		.loc 2 381 3 is_stmt 1 view .LVU843
 2323              		.loc 2 381 17 is_stmt 0 view .LVU844
 2324 0028 5160     		str	r1, [r2, #4]
 2325              		.loc 2 383 3 is_stmt 1 view .LVU845
 2326              	.LVL93:
 2327              		.loc 2 383 3 is_stmt 0 view .LVU846
 2328              	.LBE662:
 2329              	.LBE672:
 2330              		.loc 1 655 5 is_stmt 1 view .LVU847
 2331              	.LBB673:
 2332              	.LBI663:
 2333              		.loc 3 386 20 view .LVU848
 2334              	.LBB671:
 2335              		.loc 3 388 23 view .LVU849
 2336              		.loc 3 389 34 view .LVU850
ARM GAS  C:\Users\DEVELO~1\AppData\Local\Temp\ccUBlV4P.s 			page 42


 2337              		.loc 3 395 3 view .LVU851
 2338              		.loc 3 395 3 view .LVU852
 2339              		.loc 3 395 3 view .LVU853
 2340              		.loc 3 399 3 view .LVU854
 2341              	.LBB670:
 2342              	.LBI665:
 2343              		.loc 4 864 27 view .LVU855
 2344              		.loc 4 867 3 view .LVU856
 2345              	.LBB669:
 2346              	.LBI666:
 2347              		.loc 5 491 27 view .LVU857
 2348              	.LBB668:
 2349              		.loc 5 493 3 view .LVU858
 2350              		.syntax unified
 2351              	@ 493 "./ChibiOS/os/common/ext/ARM/CMSIS/Core/Include/cmsis_gcc.h" 1
 2352 002a 8CF31188 		MSR basepri, ip
 2353              	@ 0 "" 2
 2354              	.LVL94:
 2355              		.loc 5 493 3 is_stmt 0 view .LVU859
 2356              		.thumb
 2357              		.syntax unified
 2358              	.LBE668:
 2359              	.LBE669:
 2360              	.LBE670:
 2361              	.LBE671:
 2362              	.LBE673:
 2363              		.loc 1 659 5 is_stmt 1 view .LVU860
 2364              		.loc 1 659 11 is_stmt 0 view .LVU861
 2365 002e C36A     		ldr	r3, [r0, #44]
 2366              		.loc 1 659 8 view .LVU862
 2367 0030 002B     		cmp	r3, #0
 2368 0032 F3D0     		beq	.L53
 2369              		.loc 1 660 7 is_stmt 1 view .LVU863
 2370 0034 1847     		bx	r3	@ indirect register sibling call
 2371              	.LVL95:
 2372              		.loc 1 660 7 is_stmt 0 view .LVU864
 2373              	.LBE659:
 2374              	.LBE658:
 2375              		.cfi_endproc
 2376              	.LFE365:
 2377              		.size	chThdRelease, .-chThdRelease
 2378 0036 00BF     		.section	.text.chThdExit,"ax",%progbits
 2379              		.align	1
 2380              		.p2align 4,,15
 2381              		.global	chThdExit
 2382              		.syntax unified
 2383              		.thumb
 2384              		.thumb_func
 2385              		.type	chThdExit, %function
 2386              	chThdExit:
 2387              	.LVL96:
 2388              	.LFB366:
 2389              		.loc 1 684 27 is_stmt 1 view -0
 2390              		.cfi_startproc
 2391              		@ args = 0, pretend = 0, frame = 0
 2392              		@ frame_needed = 0, uses_anonymous_args = 0
 2393              		.loc 1 686 3 view .LVU866
ARM GAS  C:\Users\DEVELO~1\AppData\Local\Temp\ccUBlV4P.s 			page 43


 2394              	.LBB688:
 2395              	.LBI688:
 2396              		.loc 3 372 20 view .LVU867
 2397              		.loc 3 374 3 view .LVU868
 2398              	.LBB689:
 2399              	.LBI689:
 2400              		.loc 4 840 27 view .LVU869
 2401              		.loc 4 848 3 view .LVU870
 2402              	.LBB690:
 2403              	.LBI690:
 2404              		.loc 5 491 27 view .LVU871
 2405              	.LBB691:
 2406              		.loc 5 493 3 view .LVU872
 2407              	.LBE691:
 2408              	.LBE690:
 2409              	.LBE689:
 2410              	.LBE688:
 2411              		.loc 1 684 27 is_stmt 0 view .LVU873
 2412 0000 38B5     		push	{r3, r4, r5, lr}
 2413              		.cfi_def_cfa_offset 16
 2414              		.cfi_offset 3, -16
 2415              		.cfi_offset 4, -12
 2416              		.cfi_offset 5, -8
 2417              		.cfi_offset 14, -4
 2418              	.LBB695:
 2419              	.LBB694:
 2420              	.LBB693:
 2421              	.LBB692:
 2422              		.loc 5 493 3 view .LVU874
 2423 0002 3023     		movs	r3, #48
 2424              		.syntax unified
 2425              	@ 493 "./ChibiOS/os/common/ext/ARM/CMSIS/Core/Include/cmsis_gcc.h" 1
 2426 0004 83F31188 		MSR basepri, r3
 2427              	@ 0 "" 2
 2428              	.LVL97:
 2429              		.loc 5 493 3 view .LVU875
 2430              		.thumb
 2431              		.syntax unified
 2432              	.LBE692:
 2433              	.LBE693:
 2434              	.LBE694:
 2435              		.loc 3 375 35 is_stmt 1 view .LVU876
 2436              		.loc 3 376 21 view .LVU877
 2437              	.LBE695:
 2438              		.loc 1 687 3 view .LVU878
 2439              	.LBB696:
 2440              	.LBI696:
 2441              		.loc 1 708 6 view .LVU879
 2442              	.LBB697:
 2443              		.loc 1 709 3 view .LVU880
 2444              	.LBB698:
 2445              	.LBI698:
 2446              		.file 6 "./ChibiOS/os/rt/include/chthreads.h"
 2447              		.loc 6 527 25 view .LVU881
 2448              	.LBB699:
 2449              		.loc 6 529 3 view .LVU882
 2450              		.loc 6 529 10 is_stmt 0 view .LVU883
ARM GAS  C:\Users\DEVELO~1\AppData\Local\Temp\ccUBlV4P.s 			page 44


 2451 0008 104B     		ldr	r3, .L67
 2452 000a DC68     		ldr	r4, [r3, #12]
 2453              	.LVL98:
 2454              		.loc 6 529 10 view .LVU884
 2455              	.LBE699:
 2456              	.LBE698:
 2457              		.loc 1 712 3 is_stmt 1 view .LVU885
 2458              		.loc 1 719 10 is_stmt 0 view .LVU886
 2459 000c 04F13805 		add	r5, r4, #56
 2460              	.LBB700:
 2461              	.LBB701:
 2462              		.loc 2 241 19 view .LVU887
 2463 0010 A36B     		ldr	r3, [r4, #56]
 2464              	.LBE701:
 2465              	.LBE700:
 2466              		.loc 1 712 22 view .LVU888
 2467 0012 6063     		str	r0, [r4, #52]
 2468              		.loc 1 715 3 is_stmt 1 view .LVU889
 2469              		.loc 1 715 34 view .LVU890
 2470              		.loc 1 719 3 view .LVU891
 2471              		.loc 1 719 10 view .LVU892
 2472              	.LVL99:
 2473              	.LBB704:
 2474              	.LBI700:
 2475              		.loc 2 239 20 view .LVU893
 2476              	.LBB702:
 2477              		.loc 2 241 3 view .LVU894
 2478              		.loc 2 241 3 is_stmt 0 view .LVU895
 2479              	.LBE702:
 2480              	.LBE704:
 2481              		.loc 1 719 10 view .LVU896
 2482 0014 9D42     		cmp	r5, r3
 2483 0016 06D1     		bne	.L62
 2484              		.loc 1 725 3 is_stmt 1 view .LVU897
 2485              		.loc 1 725 6 is_stmt 0 view .LVU898
 2486 0018 A37F     		ldrb	r3, [r4, #30]	@ zero_extendqisi2
 2487 001a 7BB1     		cbz	r3, .L66
 2488              	.LVL100:
 2489              	.L63:
 2490              		.loc 1 739 3 is_stmt 1 view .LVU899
 2491 001c 0F20     		movs	r0, #15
 2492              	.LBE697:
 2493              	.LBE696:
 2494              		.loc 1 689 1 is_stmt 0 view .LVU900
 2495 001e BDE83840 		pop	{r3, r4, r5, lr}
 2496              		.cfi_remember_state
 2497              		.cfi_restore 14
 2498              		.cfi_restore 5
 2499              		.cfi_restore 4
 2500              		.cfi_restore 3
 2501              		.cfi_def_cfa_offset 0
 2502              	.LVL101:
 2503              	.LBB713:
 2504              	.LBB712:
 2505              		.loc 1 739 3 view .LVU901
 2506 0022 FFF7FEBF 		b	chSchGoSleepS
 2507              	.LVL102:
ARM GAS  C:\Users\DEVELO~1\AppData\Local\Temp\ccUBlV4P.s 			page 45


 2508              	.L62:
 2509              		.cfi_restore_state
 2510              		.loc 1 720 5 is_stmt 1 view .LVU902
 2511              	.LBB705:
 2512              	.LBI705:
 2513              		.loc 2 267 26 view .LVU903
 2514              	.LBB706:
 2515              		.loc 2 269 3 view .LVU904
 2516              		.loc 2 270 3 view .LVU905
 2517              		.loc 2 270 15 is_stmt 0 view .LVU906
 2518 0026 1A68     		ldr	r2, [r3]
 2519              	.LBE706:
 2520              	.LBE705:
 2521              		.loc 1 720 12 view .LVU907
 2522 0028 1846     		mov	r0, r3
 2523              	.LBB708:
 2524              	.LBB707:
 2525              		.loc 2 270 12 view .LVU908
 2526 002a A263     		str	r2, [r4, #56]
 2527              		.loc 2 272 3 is_stmt 1 view .LVU909
 2528              	.LVL103:
 2529              		.loc 2 272 3 is_stmt 0 view .LVU910
 2530              	.LBE707:
 2531              	.LBE708:
 2532              		.loc 1 720 12 view .LVU911
 2533 002c FFF7FEFF 		bl	chSchReadyI
 2534              	.LVL104:
 2535              		.loc 1 719 10 is_stmt 1 view .LVU912
 2536              	.LBB709:
 2537              		.loc 2 239 20 view .LVU913
 2538              	.LBB703:
 2539              		.loc 2 241 3 view .LVU914
 2540              		.loc 2 241 19 is_stmt 0 view .LVU915
 2541 0030 A36B     		ldr	r3, [r4, #56]
 2542              	.LVL105:
 2543              		.loc 2 241 19 view .LVU916
 2544              	.LBE703:
 2545              	.LBE709:
 2546              		.loc 1 719 10 view .LVU917
 2547 0032 AB42     		cmp	r3, r5
 2548 0034 F7D1     		bne	.L62
 2549              		.loc 1 725 3 is_stmt 1 view .LVU918
 2550              		.loc 1 725 6 is_stmt 0 view .LVU919
 2551 0036 A37F     		ldrb	r3, [r4, #30]	@ zero_extendqisi2
 2552 0038 002B     		cmp	r3, #0
 2553 003a EFD1     		bne	.L63
 2554              	.L66:
 2555              		.loc 1 729 5 is_stmt 1 view .LVU920
 2556              		.loc 1 729 8 is_stmt 0 view .LVU921
 2557 003c E36A     		ldr	r3, [r4, #44]
 2558 003e 002B     		cmp	r3, #0
 2559 0040 ECD1     		bne	.L63
 2560              		.loc 1 730 7 is_stmt 1 view .LVU922
 2561              	.LVL106:
 2562              	.LBB710:
 2563              	.LBI710:
 2564              		.loc 2 378 27 view .LVU923
ARM GAS  C:\Users\DEVELO~1\AppData\Local\Temp\ccUBlV4P.s 			page 46


 2565              	.LBB711:
 2566              		.loc 2 380 3 view .LVU924
 2567              		.loc 2 380 20 is_stmt 0 view .LVU925
 2568 0042 D4E90932 		ldrd	r3, r2, [r4, #36]
 2569              		.loc 2 380 17 view .LVU926
 2570 0046 1360     		str	r3, [r2]
 2571              		.loc 2 381 3 is_stmt 1 view .LVU927
 2572              		.loc 2 381 17 is_stmt 0 view .LVU928
 2573 0048 5A60     		str	r2, [r3, #4]
 2574              		.loc 2 383 3 is_stmt 1 view .LVU929
 2575              		.loc 2 383 10 is_stmt 0 view .LVU930
 2576 004a E7E7     		b	.L63
 2577              	.L68:
 2578              		.align	2
 2579              	.L67:
 2580 004c 00000000 		.word	ch0
 2581              	.LBE711:
 2582              	.LBE710:
 2583              	.LBE712:
 2584              	.LBE713:
 2585              		.cfi_endproc
 2586              	.LFE366:
 2587              		.size	chThdExit, .-chThdExit
 2588              		.section	.text.chThdExitS,"ax",%progbits
 2589              		.align	1
 2590              		.p2align 4,,15
 2591              		.global	chThdExitS
 2592              		.syntax unified
 2593              		.thumb
 2594              		.thumb_func
 2595              		.type	chThdExitS, %function
 2596              	chThdExitS:
 2597              	.LVL107:
 2598              	.LFB367:
 2599              		.loc 1 708 28 is_stmt 1 view -0
 2600              		.cfi_startproc
 2601              		@ args = 0, pretend = 0, frame = 0
 2602              		@ frame_needed = 0, uses_anonymous_args = 0
 2603              		.loc 1 709 3 view .LVU932
 2604              	.LBB714:
 2605              	.LBI714:
 2606              		.loc 6 527 25 view .LVU933
 2607              	.LBB715:
 2608              		.loc 6 529 3 view .LVU934
 2609              	.LBE715:
 2610              	.LBE714:
 2611              		.loc 1 708 28 is_stmt 0 view .LVU935
 2612 0000 38B5     		push	{r3, r4, r5, lr}
 2613              		.cfi_def_cfa_offset 16
 2614              		.cfi_offset 3, -16
 2615              		.cfi_offset 4, -12
 2616              		.cfi_offset 5, -8
 2617              		.cfi_offset 14, -4
 2618              	.LBB717:
 2619              	.LBB716:
 2620              		.loc 6 529 10 view .LVU936
 2621 0002 114B     		ldr	r3, .L76
ARM GAS  C:\Users\DEVELO~1\AppData\Local\Temp\ccUBlV4P.s 			page 47


 2622 0004 DC68     		ldr	r4, [r3, #12]
 2623              	.LVL108:
 2624              		.loc 6 529 10 view .LVU937
 2625              	.LBE716:
 2626              	.LBE717:
 2627              		.loc 1 712 3 is_stmt 1 view .LVU938
 2628              		.loc 1 719 10 is_stmt 0 view .LVU939
 2629 0006 04F13805 		add	r5, r4, #56
 2630              	.LBB718:
 2631              	.LBB719:
 2632              		.loc 2 241 19 view .LVU940
 2633 000a A36B     		ldr	r3, [r4, #56]
 2634              	.LBE719:
 2635              	.LBE718:
 2636              		.loc 1 712 22 view .LVU941
 2637 000c 6063     		str	r0, [r4, #52]
 2638              		.loc 1 715 3 is_stmt 1 view .LVU942
 2639              		.loc 1 715 34 view .LVU943
 2640              		.loc 1 719 3 view .LVU944
 2641              		.loc 1 719 10 view .LVU945
 2642              	.LVL109:
 2643              	.LBB722:
 2644              	.LBI718:
 2645              		.loc 2 239 20 view .LVU946
 2646              	.LBB720:
 2647              		.loc 2 241 3 view .LVU947
 2648              		.loc 2 241 3 is_stmt 0 view .LVU948
 2649              	.LBE720:
 2650              	.LBE722:
 2651              		.loc 1 719 10 view .LVU949
 2652 000e 9D42     		cmp	r5, r3
 2653 0010 06D1     		bne	.L71
 2654              		.loc 1 725 3 is_stmt 1 view .LVU950
 2655              		.loc 1 725 6 is_stmt 0 view .LVU951
 2656 0012 A37F     		ldrb	r3, [r4, #30]	@ zero_extendqisi2
 2657 0014 7BB1     		cbz	r3, .L75
 2658              	.LVL110:
 2659              	.L72:
 2660              		.loc 1 739 3 is_stmt 1 view .LVU952
 2661 0016 0F20     		movs	r0, #15
 2662              		.loc 1 743 1 is_stmt 0 view .LVU953
 2663 0018 BDE83840 		pop	{r3, r4, r5, lr}
 2664              		.cfi_remember_state
 2665              		.cfi_restore 14
 2666              		.cfi_restore 5
 2667              		.cfi_restore 4
 2668              		.cfi_restore 3
 2669              		.cfi_def_cfa_offset 0
 2670              	.LVL111:
 2671              		.loc 1 739 3 view .LVU954
 2672 001c FFF7FEBF 		b	chSchGoSleepS
 2673              	.LVL112:
 2674              	.L71:
 2675              		.cfi_restore_state
 2676              		.loc 1 720 5 is_stmt 1 view .LVU955
 2677              	.LBB723:
 2678              	.LBI723:
ARM GAS  C:\Users\DEVELO~1\AppData\Local\Temp\ccUBlV4P.s 			page 48


 2679              		.loc 2 267 26 view .LVU956
 2680              	.LBB724:
 2681              		.loc 2 269 3 view .LVU957
 2682              		.loc 2 270 3 view .LVU958
 2683              		.loc 2 270 15 is_stmt 0 view .LVU959
 2684 0020 1A68     		ldr	r2, [r3]
 2685              	.LBE724:
 2686              	.LBE723:
 2687              		.loc 1 720 12 view .LVU960
 2688 0022 1846     		mov	r0, r3
 2689              	.LBB726:
 2690              	.LBB725:
 2691              		.loc 2 270 12 view .LVU961
 2692 0024 A263     		str	r2, [r4, #56]
 2693              		.loc 2 272 3 is_stmt 1 view .LVU962
 2694              	.LVL113:
 2695              		.loc 2 272 3 is_stmt 0 view .LVU963
 2696              	.LBE725:
 2697              	.LBE726:
 2698              		.loc 1 720 12 view .LVU964
 2699 0026 FFF7FEFF 		bl	chSchReadyI
 2700              	.LVL114:
 2701              		.loc 1 719 10 is_stmt 1 view .LVU965
 2702              	.LBB727:
 2703              		.loc 2 239 20 view .LVU966
 2704              	.LBB721:
 2705              		.loc 2 241 3 view .LVU967
 2706              		.loc 2 241 19 is_stmt 0 view .LVU968
 2707 002a A36B     		ldr	r3, [r4, #56]
 2708              	.LVL115:
 2709              		.loc 2 241 19 view .LVU969
 2710              	.LBE721:
 2711              	.LBE727:
 2712              		.loc 1 719 10 view .LVU970
 2713 002c 9D42     		cmp	r5, r3
 2714 002e F7D1     		bne	.L71
 2715              		.loc 1 725 3 is_stmt 1 view .LVU971
 2716              		.loc 1 725 6 is_stmt 0 view .LVU972
 2717 0030 A37F     		ldrb	r3, [r4, #30]	@ zero_extendqisi2
 2718 0032 002B     		cmp	r3, #0
 2719 0034 EFD1     		bne	.L72
 2720              	.L75:
 2721              		.loc 1 729 5 is_stmt 1 view .LVU973
 2722              		.loc 1 729 8 is_stmt 0 view .LVU974
 2723 0036 E36A     		ldr	r3, [r4, #44]
 2724 0038 002B     		cmp	r3, #0
 2725 003a ECD1     		bne	.L72
 2726              		.loc 1 730 7 is_stmt 1 view .LVU975
 2727              	.LVL116:
 2728              	.LBB728:
 2729              	.LBI728:
 2730              		.loc 2 378 27 view .LVU976
 2731              	.LBB729:
 2732              		.loc 2 380 3 view .LVU977
 2733              		.loc 2 380 20 is_stmt 0 view .LVU978
 2734 003c D4E90932 		ldrd	r3, r2, [r4, #36]
 2735              		.loc 2 380 17 view .LVU979
ARM GAS  C:\Users\DEVELO~1\AppData\Local\Temp\ccUBlV4P.s 			page 49


 2736 0040 1360     		str	r3, [r2]
 2737              		.loc 2 381 3 is_stmt 1 view .LVU980
 2738              		.loc 2 381 17 is_stmt 0 view .LVU981
 2739 0042 5A60     		str	r2, [r3, #4]
 2740              		.loc 2 383 3 is_stmt 1 view .LVU982
 2741              		.loc 2 383 10 is_stmt 0 view .LVU983
 2742 0044 E7E7     		b	.L72
 2743              	.L77:
 2744 0046 00BF     		.align	2
 2745              	.L76:
 2746 0048 00000000 		.word	ch0
 2747              	.LBE729:
 2748              	.LBE728:
 2749              		.cfi_endproc
 2750              	.LFE367:
 2751              		.size	chThdExitS, .-chThdExitS
 2752              		.section	.text.chThdWait,"ax",%progbits
 2753              		.align	1
 2754              		.p2align 4,,15
 2755              		.global	chThdWait
 2756              		.syntax unified
 2757              		.thumb
 2758              		.thumb_func
 2759              		.type	chThdWait, %function
 2760              	chThdWait:
 2761              	.LVL117:
 2762              	.LFB368:
 2763              		.loc 1 765 31 is_stmt 1 view -0
 2764              		.cfi_startproc
 2765              		@ args = 0, pretend = 0, frame = 0
 2766              		@ frame_needed = 0, uses_anonymous_args = 0
 2767              		.loc 1 766 3 view .LVU985
 2768              	.LBB772:
 2769              	.LBI772:
 2770              		.loc 6 527 25 view .LVU986
 2771              	.LBB773:
 2772              		.loc 6 529 3 view .LVU987
 2773              	.LBE773:
 2774              	.LBE772:
 2775              		.loc 1 765 31 is_stmt 0 view .LVU988
 2776 0000 38B5     		push	{r3, r4, r5, lr}
 2777              		.cfi_def_cfa_offset 16
 2778              		.cfi_offset 3, -16
 2779              		.cfi_offset 4, -12
 2780              		.cfi_offset 5, -8
 2781              		.cfi_offset 14, -4
 2782              	.LBB776:
 2783              	.LBB774:
 2784              		.loc 6 529 10 view .LVU989
 2785 0002 174B     		ldr	r3, .L90
 2786              	.LBE774:
 2787              	.LBE776:
 2788              	.LBB777:
 2789              	.LBB778:
 2790              	.LBB779:
 2791              	.LBB780:
 2792              		.loc 5 493 3 view .LVU990
ARM GAS  C:\Users\DEVELO~1\AppData\Local\Temp\ccUBlV4P.s 			page 50


 2793 0004 3022     		movs	r2, #48
 2794              	.LBE780:
 2795              	.LBE779:
 2796              	.LBE778:
 2797              	.LBE777:
 2798              		.loc 1 765 31 view .LVU991
 2799 0006 0446     		mov	r4, r0
 2800              	.LBB784:
 2801              	.LBB775:
 2802              		.loc 6 529 10 view .LVU992
 2803 0008 DB68     		ldr	r3, [r3, #12]
 2804              	.LVL118:
 2805              		.loc 6 529 10 view .LVU993
 2806              	.LBE775:
 2807              	.LBE784:
 2808              		.loc 1 767 3 is_stmt 1 view .LVU994
 2809              		.loc 1 769 3 view .LVU995
 2810              		.loc 1 769 3 view .LVU996
 2811              		.loc 1 769 3 view .LVU997
 2812              		.loc 1 771 3 view .LVU998
 2813              	.LBB785:
 2814              	.LBI777:
 2815              		.loc 3 372 20 view .LVU999
 2816              		.loc 3 374 3 view .LVU1000
 2817              	.LBB783:
 2818              	.LBI778:
 2819              		.loc 4 840 27 view .LVU1001
 2820              		.loc 4 848 3 view .LVU1002
 2821              	.LBB782:
 2822              	.LBI779:
 2823              		.loc 5 491 27 view .LVU1003
 2824              	.LBB781:
 2825              		.loc 5 493 3 view .LVU1004
 2826              		.syntax unified
 2827              	@ 493 "./ChibiOS/os/common/ext/ARM/CMSIS/Core/Include/cmsis_gcc.h" 1
 2828 000a 82F31188 		MSR basepri, r2
 2829              	@ 0 "" 2
 2830              	.LVL119:
 2831              		.loc 5 493 3 is_stmt 0 view .LVU1005
 2832              		.thumb
 2833              		.syntax unified
 2834              	.LBE781:
 2835              	.LBE782:
 2836              	.LBE783:
 2837              		.loc 3 375 35 is_stmt 1 view .LVU1006
 2838              		.loc 3 376 21 view .LVU1007
 2839              	.LBE785:
 2840              		.loc 1 772 3 view .LVU1008
 2841              		.loc 1 772 3 view .LVU1009
 2842              		.loc 1 772 3 view .LVU1010
 2843              		.loc 1 774 3 view .LVU1011
 2844              		.loc 1 774 3 view .LVU1012
 2845              		.loc 1 774 3 view .LVU1013
 2846              		.loc 1 777 3 view .LVU1014
 2847              		.loc 1 777 6 is_stmt 0 view .LVU1015
 2848 000e 027F     		ldrb	r2, [r0, #28]	@ zero_extendqisi2
 2849 0010 0F2A     		cmp	r2, #15
ARM GAS  C:\Users\DEVELO~1\AppData\Local\Temp\ccUBlV4P.s 			page 51


 2850 0012 05D0     		beq	.L79
 2851              		.loc 1 778 5 is_stmt 1 view .LVU1016
 2852              	.LVL120:
 2853              	.LBB786:
 2854              	.LBI786:
 2855              		.loc 2 252 20 view .LVU1017
 2856              	.LBB787:
 2857              		.loc 2 254 3 view .LVU1018
 2858              		.loc 2 254 15 is_stmt 0 view .LVU1019
 2859 0014 826B     		ldr	r2, [r0, #56]
 2860              	.LBE787:
 2861              	.LBE786:
 2862              		.loc 1 779 5 view .LVU1020
 2863 0016 0920     		movs	r0, #9
 2864              	.LVL121:
 2865              	.LBB789:
 2866              	.LBB788:
 2867              		.loc 2 254 11 view .LVU1021
 2868 0018 1A60     		str	r2, [r3]
 2869              		.loc 2 255 3 is_stmt 1 view .LVU1022
 2870              		.loc 2 255 12 is_stmt 0 view .LVU1023
 2871 001a A363     		str	r3, [r4, #56]
 2872              	.LVL122:
 2873              		.loc 2 255 12 view .LVU1024
 2874              	.LBE788:
 2875              	.LBE789:
 2876              		.loc 1 779 5 is_stmt 1 view .LVU1025
 2877 001c FFF7FEFF 		bl	chSchGoSleepS
 2878              	.LVL123:
 2879              	.L79:
 2880              		.loc 1 781 3 view .LVU1026
 2881              		.loc 1 781 7 is_stmt 0 view .LVU1027
 2882 0020 656B     		ldr	r5, [r4, #52]
 2883              	.LVL124:
 2884              		.loc 1 782 3 is_stmt 1 view .LVU1028
 2885              	.LBB790:
 2886              	.LBI790:
 2887              		.loc 3 386 20 view .LVU1029
 2888              	.LBB791:
 2889              		.loc 3 388 23 view .LVU1030
 2890              		.loc 3 389 34 view .LVU1031
 2891              		.loc 3 395 3 view .LVU1032
 2892              		.loc 3 395 3 view .LVU1033
 2893              		.loc 3 395 3 view .LVU1034
 2894              		.loc 3 399 3 view .LVU1035
 2895              	.LBB792:
 2896              	.LBI792:
 2897              		.loc 4 864 27 view .LVU1036
 2898              		.loc 4 867 3 view .LVU1037
 2899              	.LBB793:
 2900              	.LBI793:
 2901              		.loc 5 491 27 view .LVU1038
 2902              	.LBB794:
 2903              		.loc 5 493 3 view .LVU1039
 2904 0022 0022     		movs	r2, #0
 2905              		.syntax unified
 2906              	@ 493 "./ChibiOS/os/common/ext/ARM/CMSIS/Core/Include/cmsis_gcc.h" 1
ARM GAS  C:\Users\DEVELO~1\AppData\Local\Temp\ccUBlV4P.s 			page 52


 2907 0024 82F31188 		MSR basepri, r2
 2908              	@ 0 "" 2
 2909              	.LVL125:
 2910              		.loc 5 493 3 is_stmt 0 view .LVU1040
 2911              		.thumb
 2912              		.syntax unified
 2913              	.LBE794:
 2914              	.LBE793:
 2915              	.LBE792:
 2916              	.LBE791:
 2917              	.LBE790:
 2918              		.loc 1 786 3 is_stmt 1 view .LVU1041
 2919              	.LBB795:
 2920              	.LBI795:
 2921              		.loc 1 642 6 view .LVU1042
 2922              	.LBB796:
 2923              		.loc 1 644 3 view .LVU1043
 2924              	.LBB797:
 2925              	.LBI797:
 2926              		.loc 3 372 20 view .LVU1044
 2927              		.loc 3 374 3 view .LVU1045
 2928              	.LBB798:
 2929              	.LBI798:
 2930              		.loc 4 840 27 view .LVU1046
 2931              		.loc 4 848 3 view .LVU1047
 2932              	.LBB799:
 2933              	.LBI799:
 2934              		.loc 5 491 27 view .LVU1048
 2935              	.LBB800:
 2936              		.loc 5 493 3 view .LVU1049
 2937 0028 3023     		movs	r3, #48
 2938              		.syntax unified
 2939              	@ 493 "./ChibiOS/os/common/ext/ARM/CMSIS/Core/Include/cmsis_gcc.h" 1
 2940 002a 83F31188 		MSR basepri, r3
 2941              	@ 0 "" 2
 2942              	.LVL126:
 2943              		.loc 5 493 3 is_stmt 0 view .LVU1050
 2944              		.thumb
 2945              		.syntax unified
 2946              	.LBE800:
 2947              	.LBE799:
 2948              	.LBE798:
 2949              		.loc 3 375 35 is_stmt 1 view .LVU1051
 2950              		.loc 3 376 21 view .LVU1052
 2951              	.LBE797:
 2952              		.loc 1 645 3 view .LVU1053
 2953              		.loc 1 645 3 view .LVU1054
 2954              		.loc 1 645 3 view .LVU1055
 2955              		.loc 1 646 3 view .LVU1056
 2956              		.loc 1 646 11 is_stmt 0 view .LVU1057
 2957 002e A37F     		ldrb	r3, [r4, #30]	@ zero_extendqisi2
 2958 0030 013B     		subs	r3, r3, #1
 2959 0032 A377     		strb	r3, [r4, #30]
 2960              		.loc 1 651 3 is_stmt 1 view .LVU1058
 2961              		.loc 1 651 32 is_stmt 0 view .LVU1059
 2962 0034 E369     		ldr	r3, [r4, #28]
 2963 0036 03F0FF13 		and	r3, r3, #16711935
ARM GAS  C:\Users\DEVELO~1\AppData\Local\Temp\ccUBlV4P.s 			page 53


 2964              		.loc 1 651 6 view .LVU1060
 2965 003a 0F2B     		cmp	r3, #15
 2966 003c 03D0     		beq	.L89
 2967              		.loc 1 666 3 is_stmt 1 view .LVU1061
 2968              	.LBB801:
 2969              	.LBI801:
 2970              		.loc 3 386 20 view .LVU1062
 2971              	.LBB802:
 2972              		.loc 3 388 23 view .LVU1063
 2973              		.loc 3 389 34 view .LVU1064
 2974              		.loc 3 395 3 view .LVU1065
 2975              		.loc 3 395 3 view .LVU1066
 2976              		.loc 3 395 3 view .LVU1067
 2977              		.loc 3 399 3 view .LVU1068
 2978              	.LBB803:
 2979              	.LBI803:
 2980              		.loc 4 864 27 view .LVU1069
 2981              		.loc 4 867 3 view .LVU1070
 2982              	.LVL127:
 2983              	.LBB804:
 2984              	.LBI804:
 2985              		.loc 5 491 27 view .LVU1071
 2986              	.LBB805:
 2987              		.loc 5 493 3 view .LVU1072
 2988              		.syntax unified
 2989              	@ 493 "./ChibiOS/os/common/ext/ARM/CMSIS/Core/Include/cmsis_gcc.h" 1
 2990 003e 82F31188 		MSR basepri, r2
 2991              	@ 0 "" 2
 2992              	.LVL128:
 2993              		.loc 5 493 3 is_stmt 0 view .LVU1073
 2994              		.thumb
 2995              		.syntax unified
 2996              	.LBE805:
 2997              	.LBE804:
 2998              	.LBE803:
 2999              	.LBE802:
 3000              	.LBE801:
 3001              	.LBE796:
 3002              	.LBE795:
 3003              		.loc 1 789 3 is_stmt 1 view .LVU1074
 3004              	.L78:
 3005              		.loc 1 790 1 is_stmt 0 view .LVU1075
 3006 0042 2846     		mov	r0, r5
 3007 0044 38BD     		pop	{r3, r4, r5, pc}
 3008              	.LVL129:
 3009              	.L89:
 3010              	.LBB816:
 3011              	.LBB815:
 3012              	.LBB806:
 3013              	.LBI806:
 3014              		.loc 1 642 6 is_stmt 1 view .LVU1076
 3015              	.LBB807:
 3016              		.loc 1 654 5 view .LVU1077
 3017              	.LBB808:
 3018              	.LBI808:
 3019              		.loc 2 378 27 view .LVU1078
 3020              	.LBB809:
ARM GAS  C:\Users\DEVELO~1\AppData\Local\Temp\ccUBlV4P.s 			page 54


 3021              		.loc 2 380 3 view .LVU1079
 3022              		.loc 2 380 20 is_stmt 0 view .LVU1080
 3023 0046 D4E90931 		ldrd	r3, r1, [r4, #36]
 3024              		.loc 2 380 17 view .LVU1081
 3025 004a 0B60     		str	r3, [r1]
 3026              		.loc 2 381 3 is_stmt 1 view .LVU1082
 3027              		.loc 2 381 17 is_stmt 0 view .LVU1083
 3028 004c 5960     		str	r1, [r3, #4]
 3029              		.loc 2 383 3 is_stmt 1 view .LVU1084
 3030              	.LVL130:
 3031              		.loc 2 383 3 is_stmt 0 view .LVU1085
 3032              	.LBE809:
 3033              	.LBE808:
 3034              		.loc 1 655 5 is_stmt 1 view .LVU1086
 3035              	.LBB810:
 3036              	.LBI810:
 3037              		.loc 3 386 20 view .LVU1087
 3038              	.LBB811:
 3039              		.loc 3 388 23 view .LVU1088
 3040              		.loc 3 389 34 view .LVU1089
 3041              		.loc 3 395 3 view .LVU1090
 3042              		.loc 3 395 3 view .LVU1091
 3043              		.loc 3 395 3 view .LVU1092
 3044              		.loc 3 399 3 view .LVU1093
 3045              	.LBB812:
 3046              	.LBI812:
 3047              		.loc 4 864 27 view .LVU1094
 3048              		.loc 4 867 3 view .LVU1095
 3049              	.LBB813:
 3050              	.LBI813:
 3051              		.loc 5 491 27 view .LVU1096
 3052              	.LBB814:
 3053              		.loc 5 493 3 view .LVU1097
 3054              		.syntax unified
 3055              	@ 493 "./ChibiOS/os/common/ext/ARM/CMSIS/Core/Include/cmsis_gcc.h" 1
 3056 004e 82F31188 		MSR basepri, r2
 3057              	@ 0 "" 2
 3058              	.LVL131:
 3059              		.loc 5 493 3 is_stmt 0 view .LVU1098
 3060              		.thumb
 3061              		.syntax unified
 3062              	.LBE814:
 3063              	.LBE813:
 3064              	.LBE812:
 3065              	.LBE811:
 3066              	.LBE810:
 3067              		.loc 1 659 5 is_stmt 1 view .LVU1099
 3068              		.loc 1 659 11 is_stmt 0 view .LVU1100
 3069 0052 E36A     		ldr	r3, [r4, #44]
 3070              		.loc 1 659 8 view .LVU1101
 3071 0054 002B     		cmp	r3, #0
 3072 0056 F4D0     		beq	.L78
 3073              		.loc 1 660 7 is_stmt 1 view .LVU1102
 3074 0058 2046     		mov	r0, r4
 3075 005a 9847     		blx	r3
 3076              	.LVL132:
 3077              	.LBE807:
ARM GAS  C:\Users\DEVELO~1\AppData\Local\Temp\ccUBlV4P.s 			page 55


 3078              	.LBE806:
 3079              	.LBE815:
 3080              	.LBE816:
 3081              		.loc 1 790 1 is_stmt 0 view .LVU1103
 3082 005c 2846     		mov	r0, r5
 3083 005e 38BD     		pop	{r3, r4, r5, pc}
 3084              	.LVL133:
 3085              	.L91:
 3086              		.loc 1 790 1 view .LVU1104
 3087              		.align	2
 3088              	.L90:
 3089 0060 00000000 		.word	ch0
 3090              		.cfi_endproc
 3091              	.LFE368:
 3092              		.size	chThdWait, .-chThdWait
 3093              		.section	.text.chThdSetPriority,"ax",%progbits
 3094              		.align	1
 3095              		.p2align 4,,15
 3096              		.global	chThdSetPriority
 3097              		.syntax unified
 3098              		.thumb
 3099              		.thumb_func
 3100              		.type	chThdSetPriority, %function
 3101              	chThdSetPriority:
 3102              	.LVL134:
 3103              	.LFB369:
 3104              		.loc 1 805 43 is_stmt 1 view -0
 3105              		.cfi_startproc
 3106              		@ args = 0, pretend = 0, frame = 0
 3107              		@ frame_needed = 0, uses_anonymous_args = 0
 3108              		.loc 1 806 3 view .LVU1106
 3109              	.LBB817:
 3110              	.LBI817:
 3111              		.loc 6 527 25 view .LVU1107
 3112              	.LBB818:
 3113              		.loc 6 529 3 view .LVU1108
 3114              		.loc 6 529 10 is_stmt 0 view .LVU1109
 3115 0000 0A4A     		ldr	r2, .L100
 3116              	.LBE818:
 3117              	.LBE817:
 3118              	.LBB820:
 3119              	.LBB821:
 3120              	.LBB822:
 3121              	.LBB823:
 3122              		.loc 5 493 3 view .LVU1110
 3123 0002 3021     		movs	r1, #48
 3124              	.LBE823:
 3125              	.LBE822:
 3126              	.LBE821:
 3127              	.LBE820:
 3128              	.LBB830:
 3129              	.LBB819:
 3130              		.loc 6 529 10 view .LVU1111
 3131 0004 D268     		ldr	r2, [r2, #12]
 3132              	.LVL135:
 3133              		.loc 6 529 10 view .LVU1112
 3134              	.LBE819:
ARM GAS  C:\Users\DEVELO~1\AppData\Local\Temp\ccUBlV4P.s 			page 56


 3135              	.LBE830:
 3136              		.loc 1 807 3 is_stmt 1 view .LVU1113
 3137              		.loc 1 809 3 view .LVU1114
 3138              		.loc 1 809 3 view .LVU1115
 3139              		.loc 1 809 3 view .LVU1116
 3140              		.loc 1 811 3 view .LVU1117
 3141              	.LBB831:
 3142              	.LBI820:
 3143              		.loc 3 372 20 view .LVU1118
 3144              		.loc 3 374 3 view .LVU1119
 3145              	.LBB828:
 3146              	.LBI821:
 3147              		.loc 4 840 27 view .LVU1120
 3148              		.loc 4 848 3 view .LVU1121
 3149              	.LBB826:
 3150              	.LBI822:
 3151              		.loc 5 491 27 view .LVU1122
 3152              	.LBB824:
 3153              		.loc 5 493 3 view .LVU1123
 3154              	.LBE824:
 3155              	.LBE826:
 3156              	.LBE828:
 3157              	.LBE831:
 3158              		.loc 1 805 43 is_stmt 0 view .LVU1124
 3159 0006 10B5     		push	{r4, lr}
 3160              		.cfi_def_cfa_offset 8
 3161              		.cfi_offset 4, -8
 3162              		.cfi_offset 14, -4
 3163              	.LBB832:
 3164              	.LBB829:
 3165              	.LBB827:
 3166              	.LBB825:
 3167              		.loc 5 493 3 view .LVU1125
 3168              		.syntax unified
 3169              	@ 493 "./ChibiOS/os/common/ext/ARM/CMSIS/Core/Include/cmsis_gcc.h" 1
 3170 0008 81F31188 		MSR basepri, r1
 3171              	@ 0 "" 2
 3172              	.LVL136:
 3173              		.loc 5 493 3 view .LVU1126
 3174              		.thumb
 3175              		.syntax unified
 3176              	.LBE825:
 3177              	.LBE827:
 3178              	.LBE829:
 3179              		.loc 3 375 35 is_stmt 1 view .LVU1127
 3180              		.loc 3 376 21 view .LVU1128
 3181              	.LBE832:
 3182              		.loc 1 813 3 view .LVU1129
 3183              		.loc 1 814 26 is_stmt 0 view .LVU1130
 3184 000c 9168     		ldr	r1, [r2, #8]
 3185              		.loc 1 813 11 view .LVU1131
 3186 000e D46C     		ldr	r4, [r2, #76]
 3187              	.LVL137:
 3188              		.loc 1 814 3 is_stmt 1 view .LVU1132
 3189              		.loc 1 814 53 is_stmt 0 view .LVU1133
 3190 0010 8142     		cmp	r1, r0
 3191 0012 01D3     		bcc	.L95
ARM GAS  C:\Users\DEVELO~1\AppData\Local\Temp\ccUBlV4P.s 			page 57


 3192 0014 A142     		cmp	r1, r4
 3193 0016 00D1     		bne	.L93
 3194              	.L95:
 3195              		.loc 1 816 5 is_stmt 1 view .LVU1134
 3196              		.loc 1 816 29 is_stmt 0 view .LVU1135
 3197 0018 9060     		str	r0, [r2, #8]
 3198              	.L93:
 3199              		.loc 1 818 3 is_stmt 1 view .LVU1136
 3200              		.loc 1 818 20 is_stmt 0 view .LVU1137
 3201 001a D064     		str	r0, [r2, #76]
 3202              		.loc 1 823 3 is_stmt 1 view .LVU1138
 3203 001c FFF7FEFF 		bl	chSchRescheduleS
 3204              	.LVL138:
 3205              		.loc 1 824 3 view .LVU1139
 3206              	.LBB833:
 3207              	.LBI833:
 3208              		.loc 3 386 20 view .LVU1140
 3209              	.LBB834:
 3210              		.loc 3 388 23 view .LVU1141
 3211              		.loc 3 389 34 view .LVU1142
 3212              		.loc 3 395 3 view .LVU1143
 3213              		.loc 3 395 3 view .LVU1144
 3214              		.loc 3 395 3 view .LVU1145
 3215              		.loc 3 399 3 view .LVU1146
 3216              	.LBB835:
 3217              	.LBI835:
 3218              		.loc 4 864 27 view .LVU1147
 3219              		.loc 4 867 3 view .LVU1148
 3220              	.LBB836:
 3221              	.LBI836:
 3222              		.loc 5 491 27 view .LVU1149
 3223              	.LBB837:
 3224              		.loc 5 493 3 view .LVU1150
 3225 0020 0023     		movs	r3, #0
 3226              		.syntax unified
 3227              	@ 493 "./ChibiOS/os/common/ext/ARM/CMSIS/Core/Include/cmsis_gcc.h" 1
 3228 0022 83F31188 		MSR basepri, r3
 3229              	@ 0 "" 2
 3230              	.LVL139:
 3231              		.loc 5 493 3 is_stmt 0 view .LVU1151
 3232              		.thumb
 3233              		.syntax unified
 3234              	.LBE837:
 3235              	.LBE836:
 3236              	.LBE835:
 3237              	.LBE834:
 3238              	.LBE833:
 3239              		.loc 1 826 3 is_stmt 1 view .LVU1152
 3240              		.loc 1 827 1 is_stmt 0 view .LVU1153
 3241 0026 2046     		mov	r0, r4
 3242 0028 10BD     		pop	{r4, pc}
 3243              	.LVL140:
 3244              	.L101:
 3245              		.loc 1 827 1 view .LVU1154
 3246 002a 00BF     		.align	2
 3247              	.L100:
 3248 002c 00000000 		.word	ch0
ARM GAS  C:\Users\DEVELO~1\AppData\Local\Temp\ccUBlV4P.s 			page 58


 3249              		.cfi_endproc
 3250              	.LFE369:
 3251              		.size	chThdSetPriority, .-chThdSetPriority
 3252              		.section	.text.chThdTerminate,"ax",%progbits
 3253              		.align	1
 3254              		.p2align 4,,15
 3255              		.global	chThdTerminate
 3256              		.syntax unified
 3257              		.thumb
 3258              		.thumb_func
 3259              		.type	chThdTerminate, %function
 3260              	chThdTerminate:
 3261              	.LVL141:
 3262              	.LFB370:
 3263              		.loc 1 841 35 is_stmt 1 view -0
 3264              		.cfi_startproc
 3265              		@ args = 0, pretend = 0, frame = 0
 3266              		@ frame_needed = 0, uses_anonymous_args = 0
 3267              		@ link register save eliminated.
 3268              		.loc 1 843 3 view .LVU1156
 3269              	.LBB838:
 3270              	.LBI838:
 3271              		.loc 3 372 20 view .LVU1157
 3272              		.loc 3 374 3 view .LVU1158
 3273              	.LBB839:
 3274              	.LBI839:
 3275              		.loc 4 840 27 view .LVU1159
 3276              		.loc 4 848 3 view .LVU1160
 3277              	.LBB840:
 3278              	.LBI840:
 3279              		.loc 5 491 27 view .LVU1161
 3280              	.LBB841:
 3281              		.loc 5 493 3 view .LVU1162
 3282 0000 3023     		movs	r3, #48
 3283              		.syntax unified
 3284              	@ 493 "./ChibiOS/os/common/ext/ARM/CMSIS/Core/Include/cmsis_gcc.h" 1
 3285 0002 83F31188 		MSR basepri, r3
 3286              	@ 0 "" 2
 3287              	.LVL142:
 3288              		.loc 5 493 3 is_stmt 0 view .LVU1163
 3289              		.thumb
 3290              		.syntax unified
 3291              	.LBE841:
 3292              	.LBE840:
 3293              	.LBE839:
 3294              		.loc 3 375 35 is_stmt 1 view .LVU1164
 3295              		.loc 3 376 21 view .LVU1165
 3296              	.LBE838:
 3297              		.loc 1 844 3 view .LVU1166
 3298              		.loc 1 844 13 is_stmt 0 view .LVU1167
 3299 0006 437F     		ldrb	r3, [r0, #29]	@ zero_extendqisi2
 3300              	.LBB842:
 3301              	.LBB843:
 3302              	.LBB844:
 3303              	.LBB845:
 3304              	.LBB846:
 3305              		.loc 5 493 3 view .LVU1168
ARM GAS  C:\Users\DEVELO~1\AppData\Local\Temp\ccUBlV4P.s 			page 59


 3306 0008 0022     		movs	r2, #0
 3307              	.LBE846:
 3308              	.LBE845:
 3309              	.LBE844:
 3310              	.LBE843:
 3311              	.LBE842:
 3312              		.loc 1 844 13 view .LVU1169
 3313 000a 63F07F03 		orn	r3, r3, #127
 3314 000e 4377     		strb	r3, [r0, #29]
 3315              		.loc 1 845 3 is_stmt 1 view .LVU1170
 3316              	.LBB851:
 3317              	.LBI842:
 3318              		.loc 3 386 20 view .LVU1171
 3319              	.LBB850:
 3320              		.loc 3 388 23 view .LVU1172
 3321              		.loc 3 389 34 view .LVU1173
 3322              		.loc 3 395 3 view .LVU1174
 3323              		.loc 3 395 3 view .LVU1175
 3324              		.loc 3 395 3 view .LVU1176
 3325              		.loc 3 399 3 view .LVU1177
 3326              	.LBB849:
 3327              	.LBI844:
 3328              		.loc 4 864 27 view .LVU1178
 3329              		.loc 4 867 3 view .LVU1179
 3330              	.LVL143:
 3331              	.LBB848:
 3332              	.LBI845:
 3333              		.loc 5 491 27 view .LVU1180
 3334              	.LBB847:
 3335              		.loc 5 493 3 view .LVU1181
 3336              		.syntax unified
 3337              	@ 493 "./ChibiOS/os/common/ext/ARM/CMSIS/Core/Include/cmsis_gcc.h" 1
 3338 0010 82F31188 		MSR basepri, r2
 3339              	@ 0 "" 2
 3340              	.LVL144:
 3341              		.loc 5 493 3 is_stmt 0 view .LVU1182
 3342              		.thumb
 3343              		.syntax unified
 3344              	.LBE847:
 3345              	.LBE848:
 3346              	.LBE849:
 3347              	.LBE850:
 3348              	.LBE851:
 3349              		.loc 1 846 1 view .LVU1183
 3350 0014 7047     		bx	lr
 3351              		.cfi_endproc
 3352              	.LFE370:
 3353              		.size	chThdTerminate, .-chThdTerminate
 3354 0016 00BF     		.section	.text.chThdSleep,"ax",%progbits
 3355              		.align	1
 3356              		.p2align 4,,15
 3357              		.global	chThdSleep
 3358              		.syntax unified
 3359              		.thumb
 3360              		.thumb_func
 3361              		.type	chThdSleep, %function
 3362              	chThdSleep:
ARM GAS  C:\Users\DEVELO~1\AppData\Local\Temp\ccUBlV4P.s 			page 60


 3363              	.LVL145:
 3364              	.LFB371:
 3365              		.loc 1 859 37 is_stmt 1 view -0
 3366              		.cfi_startproc
 3367              		@ args = 0, pretend = 0, frame = 0
 3368              		@ frame_needed = 0, uses_anonymous_args = 0
 3369              		.loc 1 861 3 view .LVU1185
 3370              	.LBB852:
 3371              	.LBI852:
 3372              		.loc 3 372 20 view .LVU1186
 3373              		.loc 3 374 3 view .LVU1187
 3374              	.LBB853:
 3375              	.LBI853:
 3376              		.loc 4 840 27 view .LVU1188
 3377              		.loc 4 848 3 view .LVU1189
 3378              	.LBB854:
 3379              	.LBI854:
 3380              		.loc 5 491 27 view .LVU1190
 3381              	.LBB855:
 3382              		.loc 5 493 3 view .LVU1191
 3383              	.LBE855:
 3384              	.LBE854:
 3385              	.LBE853:
 3386              	.LBE852:
 3387              		.loc 1 859 37 is_stmt 0 view .LVU1192
 3388 0000 08B5     		push	{r3, lr}
 3389              		.cfi_def_cfa_offset 8
 3390              		.cfi_offset 3, -8
 3391              		.cfi_offset 14, -4
 3392              		.loc 1 859 37 view .LVU1193
 3393 0002 0146     		mov	r1, r0
 3394              	.LBB859:
 3395              	.LBB858:
 3396              	.LBB857:
 3397              	.LBB856:
 3398              		.loc 5 493 3 view .LVU1194
 3399 0004 3023     		movs	r3, #48
 3400              		.syntax unified
 3401              	@ 493 "./ChibiOS/os/common/ext/ARM/CMSIS/Core/Include/cmsis_gcc.h" 1
 3402 0006 83F31188 		MSR basepri, r3
 3403              	@ 0 "" 2
 3404              	.LVL146:
 3405              		.loc 5 493 3 view .LVU1195
 3406              		.thumb
 3407              		.syntax unified
 3408              	.LBE856:
 3409              	.LBE857:
 3410              	.LBE858:
 3411              		.loc 3 375 35 is_stmt 1 view .LVU1196
 3412              		.loc 3 376 21 view .LVU1197
 3413              	.LBE859:
 3414              		.loc 1 862 3 view .LVU1198
 3415              	.LBB860:
 3416              	.LBI860:
 3417              		.loc 6 629 20 view .LVU1199
 3418              	.LBB861:
 3419              		.loc 6 631 3 view .LVU1200
ARM GAS  C:\Users\DEVELO~1\AppData\Local\Temp\ccUBlV4P.s 			page 61


 3420              		.loc 6 631 3 view .LVU1201
 3421              		.loc 6 631 3 view .LVU1202
 3422              		.loc 6 633 3 view .LVU1203
 3423              		.loc 6 633 10 is_stmt 0 view .LVU1204
 3424 000a 0820     		movs	r0, #8
 3425              	.LVL147:
 3426              		.loc 6 633 10 view .LVU1205
 3427 000c FFF7FEFF 		bl	chSchGoSleepTimeoutS
 3428              	.LVL148:
 3429              		.loc 6 633 10 view .LVU1206
 3430              	.LBE861:
 3431              	.LBE860:
 3432              		.loc 1 863 3 is_stmt 1 view .LVU1207
 3433              	.LBB862:
 3434              	.LBI862:
 3435              		.loc 3 386 20 view .LVU1208
 3436              	.LBB863:
 3437              		.loc 3 388 23 view .LVU1209
 3438              		.loc 3 389 34 view .LVU1210
 3439              		.loc 3 395 3 view .LVU1211
 3440              		.loc 3 395 3 view .LVU1212
 3441              		.loc 3 395 3 view .LVU1213
 3442              		.loc 3 399 3 view .LVU1214
 3443              	.LBB864:
 3444              	.LBI864:
 3445              		.loc 4 864 27 view .LVU1215
 3446              		.loc 4 867 3 view .LVU1216
 3447              	.LBB865:
 3448              	.LBI865:
 3449              		.loc 5 491 27 view .LVU1217
 3450              	.LBB866:
 3451              		.loc 5 493 3 view .LVU1218
 3452 0010 0023     		movs	r3, #0
 3453              		.syntax unified
 3454              	@ 493 "./ChibiOS/os/common/ext/ARM/CMSIS/Core/Include/cmsis_gcc.h" 1
 3455 0012 83F31188 		MSR basepri, r3
 3456              	@ 0 "" 2
 3457              	.LVL149:
 3458              		.loc 5 493 3 is_stmt 0 view .LVU1219
 3459              		.thumb
 3460              		.syntax unified
 3461              	.LBE866:
 3462              	.LBE865:
 3463              	.LBE864:
 3464              	.LBE863:
 3465              	.LBE862:
 3466              		.loc 1 864 1 view .LVU1220
 3467 0016 08BD     		pop	{r3, pc}
 3468              		.cfi_endproc
 3469              	.LFE371:
 3470              		.size	chThdSleep, .-chThdSleep
 3471              		.section	.text.chThdSleepUntil,"ax",%progbits
 3472              		.align	1
 3473              		.p2align 4,,15
 3474              		.global	chThdSleepUntil
 3475              		.syntax unified
 3476              		.thumb
ARM GAS  C:\Users\DEVELO~1\AppData\Local\Temp\ccUBlV4P.s 			page 62


 3477              		.thumb_func
 3478              		.type	chThdSleepUntil, %function
 3479              	chThdSleepUntil:
 3480              	.LVL150:
 3481              	.LFB372:
 3482              		.loc 1 879 38 is_stmt 1 view -0
 3483              		.cfi_startproc
 3484              		@ args = 0, pretend = 0, frame = 0
 3485              		@ frame_needed = 0, uses_anonymous_args = 0
 3486              		.loc 1 880 3 view .LVU1222
 3487              		.loc 1 882 3 view .LVU1223
 3488              	.LBB867:
 3489              	.LBI867:
 3490              		.loc 3 372 20 view .LVU1224
 3491              		.loc 3 374 3 view .LVU1225
 3492              	.LBB868:
 3493              	.LBI868:
 3494              		.loc 4 840 27 view .LVU1226
 3495              		.loc 4 848 3 view .LVU1227
 3496              	.LBB869:
 3497              	.LBI869:
 3498              		.loc 5 491 27 view .LVU1228
 3499              	.LBB870:
 3500              		.loc 5 493 3 view .LVU1229
 3501              	.LBE870:
 3502              	.LBE869:
 3503              	.LBE868:
 3504              	.LBE867:
 3505              		.loc 1 879 38 is_stmt 0 view .LVU1230
 3506 0000 10B5     		push	{r4, lr}
 3507              		.cfi_def_cfa_offset 8
 3508              		.cfi_offset 4, -8
 3509              		.cfi_offset 14, -4
 3510              	.LBB877:
 3511              	.LBB875:
 3512              	.LBB873:
 3513              	.LBB871:
 3514              		.loc 5 493 3 view .LVU1231
 3515 0002 3023     		movs	r3, #48
 3516              	.LBE871:
 3517              	.LBE873:
 3518              	.LBE875:
 3519              	.LBE877:
 3520              		.loc 1 879 38 view .LVU1232
 3521 0004 0446     		mov	r4, r0
 3522              	.LBB878:
 3523              	.LBB876:
 3524              	.LBB874:
 3525              	.LBB872:
 3526              		.loc 5 493 3 view .LVU1233
 3527              		.syntax unified
 3528              	@ 493 "./ChibiOS/os/common/ext/ARM/CMSIS/Core/Include/cmsis_gcc.h" 1
 3529 0006 83F31188 		MSR basepri, r3
 3530              	@ 0 "" 2
 3531              	.LVL151:
 3532              		.loc 5 493 3 view .LVU1234
 3533              		.thumb
ARM GAS  C:\Users\DEVELO~1\AppData\Local\Temp\ccUBlV4P.s 			page 63


 3534              		.syntax unified
 3535              	.LBE872:
 3536              	.LBE874:
 3537              	.LBE876:
 3538              		.loc 3 375 35 is_stmt 1 view .LVU1235
 3539              		.loc 3 376 21 view .LVU1236
 3540              	.LBE878:
 3541              		.loc 1 883 3 view .LVU1237
 3542              	.LBB879:
 3543              	.LBI879:
 3544              		.file 7 "./ChibiOS/os/rt/include/chvt.h"
 3545              		.loc 7 135 25 view .LVU1238
 3546              		.loc 7 140 3 view .LVU1239
 3547              	.LBB880:
 3548              	.LBI880:
 3549              		.file 8 "./ChibiOS/os/hal/osal/rt-nil/chcore_timer.h"
 3550              		.loc 8 111 25 view .LVU1240
 3551              	.LBB881:
 3552              		.loc 8 113 3 view .LVU1241
 3553              		.loc 8 113 10 is_stmt 0 view .LVU1242
 3554 000a FFF7FEFF 		bl	stGetCounter
 3555              	.LVL152:
 3556              		.loc 8 113 10 view .LVU1243
 3557              	.LBE881:
 3558              	.LBE880:
 3559              	.LBE879:
 3560              	.LBB882:
 3561              	.LBI882:
 3562              		.file 9 "./ChibiOS/os/rt/include/chtime.h"
 3563              		.loc 9 461 29 is_stmt 1 view .LVU1244
 3564              	.LBB883:
 3565              		.loc 9 465 3 view .LVU1245
 3566              		.loc 9 465 3 is_stmt 0 view .LVU1246
 3567              	.LBE883:
 3568              	.LBE882:
 3569              		.loc 1 884 3 is_stmt 1 view .LVU1247
 3570              		.loc 1 884 6 is_stmt 0 view .LVU1248
 3571 000e 211A     		subs	r1, r4, r0
 3572              	.LVL153:
 3573              		.loc 1 884 6 view .LVU1249
 3574 0010 02D0     		beq	.L106
 3575              		.loc 1 885 5 is_stmt 1 view .LVU1250
 3576              	.LVL154:
 3577              	.LBB884:
 3578              	.LBI884:
 3579              		.loc 6 629 20 view .LVU1251
 3580              	.LBB885:
 3581              		.loc 6 631 3 view .LVU1252
 3582              		.loc 6 631 3 view .LVU1253
 3583              		.loc 6 631 3 view .LVU1254
 3584              		.loc 6 633 3 view .LVU1255
 3585              		.loc 6 633 10 is_stmt 0 view .LVU1256
 3586 0012 0820     		movs	r0, #8
 3587 0014 FFF7FEFF 		bl	chSchGoSleepTimeoutS
 3588              	.LVL155:
 3589              	.L106:
 3590              		.loc 6 633 10 view .LVU1257
ARM GAS  C:\Users\DEVELO~1\AppData\Local\Temp\ccUBlV4P.s 			page 64


 3591              	.LBE885:
 3592              	.LBE884:
 3593              		.loc 1 887 3 is_stmt 1 view .LVU1258
 3594              	.LBB886:
 3595              	.LBI886:
 3596              		.loc 3 386 20 view .LVU1259
 3597              	.LBB887:
 3598              		.loc 3 388 23 view .LVU1260
 3599              		.loc 3 389 34 view .LVU1261
 3600              		.loc 3 395 3 view .LVU1262
 3601              		.loc 3 395 3 view .LVU1263
 3602              		.loc 3 395 3 view .LVU1264
 3603              		.loc 3 399 3 view .LVU1265
 3604              	.LBB888:
 3605              	.LBI888:
 3606              		.loc 4 864 27 view .LVU1266
 3607              		.loc 4 867 3 view .LVU1267
 3608              	.LBB889:
 3609              	.LBI889:
 3610              		.loc 5 491 27 view .LVU1268
 3611              	.LBB890:
 3612              		.loc 5 493 3 view .LVU1269
 3613 0018 0023     		movs	r3, #0
 3614              		.syntax unified
 3615              	@ 493 "./ChibiOS/os/common/ext/ARM/CMSIS/Core/Include/cmsis_gcc.h" 1
 3616 001a 83F31188 		MSR basepri, r3
 3617              	@ 0 "" 2
 3618              	.LVL156:
 3619              		.loc 5 493 3 is_stmt 0 view .LVU1270
 3620              		.thumb
 3621              		.syntax unified
 3622              	.LBE890:
 3623              	.LBE889:
 3624              	.LBE888:
 3625              	.LBE887:
 3626              	.LBE886:
 3627              		.loc 1 888 1 view .LVU1271
 3628 001e 10BD     		pop	{r4, pc}
 3629              		.loc 1 888 1 view .LVU1272
 3630              		.cfi_endproc
 3631              	.LFE372:
 3632              		.size	chThdSleepUntil, .-chThdSleepUntil
 3633              		.section	.text.chThdSleepUntilWindowed,"ax",%progbits
 3634              		.align	1
 3635              		.p2align 4,,15
 3636              		.global	chThdSleepUntilWindowed
 3637              		.syntax unified
 3638              		.thumb
 3639              		.thumb_func
 3640              		.type	chThdSleepUntilWindowed, %function
 3641              	chThdSleepUntilWindowed:
 3642              	.LVL157:
 3643              	.LFB373:
 3644              		.loc 1 904 67 is_stmt 1 view -0
 3645              		.cfi_startproc
 3646              		@ args = 0, pretend = 0, frame = 0
 3647              		@ frame_needed = 0, uses_anonymous_args = 0
ARM GAS  C:\Users\DEVELO~1\AppData\Local\Temp\ccUBlV4P.s 			page 65


 3648              		.loc 1 905 3 view .LVU1274
 3649              		.loc 1 907 3 view .LVU1275
 3650              	.LBB891:
 3651              	.LBI891:
 3652              		.loc 3 372 20 view .LVU1276
 3653              		.loc 3 374 3 view .LVU1277
 3654              	.LBB892:
 3655              	.LBI892:
 3656              		.loc 4 840 27 view .LVU1278
 3657              		.loc 4 848 3 view .LVU1279
 3658              	.LBB893:
 3659              	.LBI893:
 3660              		.loc 5 491 27 view .LVU1280
 3661              	.LBB894:
 3662              		.loc 5 493 3 view .LVU1281
 3663              	.LBE894:
 3664              	.LBE893:
 3665              	.LBE892:
 3666              	.LBE891:
 3667              		.loc 1 904 67 is_stmt 0 view .LVU1282
 3668 0000 38B5     		push	{r3, r4, r5, lr}
 3669              		.cfi_def_cfa_offset 16
 3670              		.cfi_offset 3, -16
 3671              		.cfi_offset 4, -12
 3672              		.cfi_offset 5, -8
 3673              		.cfi_offset 14, -4
 3674              	.LBB901:
 3675              	.LBB899:
 3676              	.LBB897:
 3677              	.LBB895:
 3678              		.loc 5 493 3 view .LVU1283
 3679 0002 3023     		movs	r3, #48
 3680              	.LBE895:
 3681              	.LBE897:
 3682              	.LBE899:
 3683              	.LBE901:
 3684              		.loc 1 904 67 view .LVU1284
 3685 0004 0446     		mov	r4, r0
 3686 0006 0D46     		mov	r5, r1
 3687              	.LBB902:
 3688              	.LBB900:
 3689              	.LBB898:
 3690              	.LBB896:
 3691              		.loc 5 493 3 view .LVU1285
 3692              		.syntax unified
 3693              	@ 493 "./ChibiOS/os/common/ext/ARM/CMSIS/Core/Include/cmsis_gcc.h" 1
 3694 0008 83F31188 		MSR basepri, r3
 3695              	@ 0 "" 2
 3696              	.LVL158:
 3697              		.loc 5 493 3 view .LVU1286
 3698              		.thumb
 3699              		.syntax unified
 3700              	.LBE896:
 3701              	.LBE898:
 3702              	.LBE900:
 3703              		.loc 3 375 35 is_stmt 1 view .LVU1287
 3704              		.loc 3 376 21 view .LVU1288
ARM GAS  C:\Users\DEVELO~1\AppData\Local\Temp\ccUBlV4P.s 			page 66


 3705              	.LBE902:
 3706              		.loc 1 908 3 view .LVU1289
 3707              	.LBB903:
 3708              	.LBI903:
 3709              		.loc 7 135 25 view .LVU1290
 3710              		.loc 7 140 3 view .LVU1291
 3711              	.LBB904:
 3712              	.LBI904:
 3713              		.loc 8 111 25 view .LVU1292
 3714              	.LBB905:
 3715              		.loc 8 113 3 view .LVU1293
 3716              		.loc 8 113 10 is_stmt 0 view .LVU1294
 3717 000c FFF7FEFF 		bl	stGetCounter
 3718              	.LVL159:
 3719              		.loc 8 113 10 view .LVU1295
 3720              	.LBE905:
 3721              	.LBE904:
 3722              	.LBE903:
 3723              	.LBB906:
 3724              	.LBB907:
 3725              		.loc 9 489 17 view .LVU1296
 3726 0010 2B1B     		subs	r3, r5, r4
 3727              	.LVL160:
 3728              		.loc 9 489 17 view .LVU1297
 3729              	.LBE907:
 3730              	.LBE906:
 3731              		.loc 1 909 3 is_stmt 1 view .LVU1298
 3732              	.LBB909:
 3733              	.LBI906:
 3734              		.loc 9 484 20 view .LVU1299
 3735              	.LBB908:
 3736              		.loc 9 488 3 view .LVU1300
 3737              		.loc 9 488 17 is_stmt 0 view .LVU1301
 3738 0012 041B     		subs	r4, r0, r4
 3739              	.LVL161:
 3740              		.loc 9 488 17 view .LVU1302
 3741              	.LBE908:
 3742              	.LBE909:
 3743              		.loc 1 909 6 view .LVU1303
 3744 0014 A342     		cmp	r3, r4
 3745 0016 03D9     		bls	.L112
 3746              		.loc 1 910 5 is_stmt 1 view .LVU1304
 3747              	.LVL162:
 3748              	.LBB910:
 3749              	.LBI910:
 3750              		.loc 9 461 29 view .LVU1305
 3751              	.LBB911:
 3752              		.loc 9 465 3 view .LVU1306
 3753              		.loc 9 465 3 is_stmt 0 view .LVU1307
 3754              	.LBE911:
 3755              	.LBE910:
 3756              	.LBB912:
 3757              	.LBI912:
 3758              		.loc 6 629 20 is_stmt 1 view .LVU1308
 3759              	.LBB913:
 3760              		.loc 6 631 3 view .LVU1309
 3761              		.loc 6 631 3 view .LVU1310
ARM GAS  C:\Users\DEVELO~1\AppData\Local\Temp\ccUBlV4P.s 			page 67


 3762              		.loc 6 631 3 view .LVU1311
 3763              		.loc 6 633 3 view .LVU1312
 3764              		.loc 6 633 10 is_stmt 0 view .LVU1313
 3765 0018 291A     		subs	r1, r5, r0
 3766              	.LVL163:
 3767              		.loc 6 633 10 view .LVU1314
 3768 001a 0820     		movs	r0, #8
 3769              	.LVL164:
 3770              		.loc 6 633 10 view .LVU1315
 3771 001c FFF7FEFF 		bl	chSchGoSleepTimeoutS
 3772              	.LVL165:
 3773              	.L112:
 3774              		.loc 6 633 10 view .LVU1316
 3775              	.LBE913:
 3776              	.LBE912:
 3777              		.loc 1 912 3 is_stmt 1 view .LVU1317
 3778              	.LBB914:
 3779              	.LBI914:
 3780              		.loc 3 386 20 view .LVU1318
 3781              	.LBB915:
 3782              		.loc 3 388 23 view .LVU1319
 3783              		.loc 3 389 34 view .LVU1320
 3784              		.loc 3 395 3 view .LVU1321
 3785              		.loc 3 395 3 view .LVU1322
 3786              		.loc 3 395 3 view .LVU1323
 3787              		.loc 3 399 3 view .LVU1324
 3788              	.LBB916:
 3789              	.LBI916:
 3790              		.loc 4 864 27 view .LVU1325
 3791              		.loc 4 867 3 view .LVU1326
 3792              	.LBB917:
 3793              	.LBI917:
 3794              		.loc 5 491 27 view .LVU1327
 3795              	.LBB918:
 3796              		.loc 5 493 3 view .LVU1328
 3797 0020 0023     		movs	r3, #0
 3798              		.syntax unified
 3799              	@ 493 "./ChibiOS/os/common/ext/ARM/CMSIS/Core/Include/cmsis_gcc.h" 1
 3800 0022 83F31188 		MSR basepri, r3
 3801              	@ 0 "" 2
 3802              	.LVL166:
 3803              		.loc 5 493 3 is_stmt 0 view .LVU1329
 3804              		.thumb
 3805              		.syntax unified
 3806              	.LBE918:
 3807              	.LBE917:
 3808              	.LBE916:
 3809              	.LBE915:
 3810              	.LBE914:
 3811              		.loc 1 914 3 is_stmt 1 view .LVU1330
 3812              		.loc 1 915 1 is_stmt 0 view .LVU1331
 3813 0026 2846     		mov	r0, r5
 3814 0028 38BD     		pop	{r3, r4, r5, pc}
 3815              		.loc 1 915 1 view .LVU1332
 3816              		.cfi_endproc
 3817              	.LFE373:
 3818              		.size	chThdSleepUntilWindowed, .-chThdSleepUntilWindowed
ARM GAS  C:\Users\DEVELO~1\AppData\Local\Temp\ccUBlV4P.s 			page 68


 3819 002a 00BF     		.section	.text.chThdYield,"ax",%progbits
 3820              		.align	1
 3821              		.p2align 4,,15
 3822              		.global	chThdYield
 3823              		.syntax unified
 3824              		.thumb
 3825              		.thumb_func
 3826              		.type	chThdYield, %function
 3827              	chThdYield:
 3828              	.LFB374:
 3829              		.loc 1 924 23 is_stmt 1 view -0
 3830              		.cfi_startproc
 3831              		@ args = 0, pretend = 0, frame = 0
 3832              		@ frame_needed = 0, uses_anonymous_args = 0
 3833              		.loc 1 926 3 view .LVU1334
 3834              	.LBB919:
 3835              	.LBI919:
 3836              		.loc 3 372 20 view .LVU1335
 3837              		.loc 3 374 3 view .LVU1336
 3838              	.LBB920:
 3839              	.LBI920:
 3840              		.loc 4 840 27 view .LVU1337
 3841              		.loc 4 848 3 view .LVU1338
 3842              	.LVL167:
 3843              	.LBB921:
 3844              	.LBI921:
 3845              		.loc 5 491 27 view .LVU1339
 3846              	.LBB922:
 3847              		.loc 5 493 3 view .LVU1340
 3848              	.LBE922:
 3849              	.LBE921:
 3850              	.LBE920:
 3851              	.LBE919:
 3852              		.loc 1 924 23 is_stmt 0 view .LVU1341
 3853 0000 08B5     		push	{r3, lr}
 3854              		.cfi_def_cfa_offset 8
 3855              		.cfi_offset 3, -8
 3856              		.cfi_offset 14, -4
 3857              	.LBB926:
 3858              	.LBB925:
 3859              	.LBB924:
 3860              	.LBB923:
 3861              		.loc 5 493 3 view .LVU1342
 3862 0002 3023     		movs	r3, #48
 3863              		.syntax unified
 3864              	@ 493 "./ChibiOS/os/common/ext/ARM/CMSIS/Core/Include/cmsis_gcc.h" 1
 3865 0004 83F31188 		MSR basepri, r3
 3866              	@ 0 "" 2
 3867              	.LVL168:
 3868              		.loc 5 493 3 view .LVU1343
 3869              		.thumb
 3870              		.syntax unified
 3871              	.LBE923:
 3872              	.LBE924:
 3873              	.LBE925:
 3874              		.loc 3 375 35 is_stmt 1 view .LVU1344
 3875              		.loc 3 376 21 view .LVU1345
ARM GAS  C:\Users\DEVELO~1\AppData\Local\Temp\ccUBlV4P.s 			page 69


 3876              	.LBE926:
 3877              		.loc 1 927 3 view .LVU1346
 3878 0008 FFF7FEFF 		bl	chSchDoYieldS
 3879              	.LVL169:
 3880              		.loc 1 928 3 view .LVU1347
 3881              	.LBB927:
 3882              	.LBI927:
 3883              		.loc 3 386 20 view .LVU1348
 3884              	.LBB928:
 3885              		.loc 3 388 23 view .LVU1349
 3886              		.loc 3 389 34 view .LVU1350
 3887              		.loc 3 395 3 view .LVU1351
 3888              		.loc 3 395 3 view .LVU1352
 3889              		.loc 3 395 3 view .LVU1353
 3890              		.loc 3 399 3 view .LVU1354
 3891              	.LBB929:
 3892              	.LBI929:
 3893              		.loc 4 864 27 view .LVU1355
 3894              		.loc 4 867 3 view .LVU1356
 3895              	.LBB930:
 3896              	.LBI930:
 3897              		.loc 5 491 27 view .LVU1357
 3898              	.LBB931:
 3899              		.loc 5 493 3 view .LVU1358
 3900 000c 0023     		movs	r3, #0
 3901              		.syntax unified
 3902              	@ 493 "./ChibiOS/os/common/ext/ARM/CMSIS/Core/Include/cmsis_gcc.h" 1
 3903 000e 83F31188 		MSR basepri, r3
 3904              	@ 0 "" 2
 3905              	.LVL170:
 3906              		.loc 5 493 3 is_stmt 0 view .LVU1359
 3907              		.thumb
 3908              		.syntax unified
 3909              	.LBE931:
 3910              	.LBE930:
 3911              	.LBE929:
 3912              	.LBE928:
 3913              	.LBE927:
 3914              		.loc 1 929 1 view .LVU1360
 3915 0012 08BD     		pop	{r3, pc}
 3916              		.cfi_endproc
 3917              	.LFE374:
 3918              		.size	chThdYield, .-chThdYield
 3919              		.section	.text.chThdSuspendS,"ax",%progbits
 3920              		.align	1
 3921              		.p2align 4,,15
 3922              		.global	chThdSuspendS
 3923              		.syntax unified
 3924              		.thumb
 3925              		.thumb_func
 3926              		.type	chThdSuspendS, %function
 3927              	chThdSuspendS:
 3928              	.LVL171:
 3929              	.LFB375:
 3930              		.loc 1 941 46 is_stmt 1 view -0
 3931              		.cfi_startproc
 3932              		@ args = 0, pretend = 0, frame = 0
ARM GAS  C:\Users\DEVELO~1\AppData\Local\Temp\ccUBlV4P.s 			page 70


 3933              		@ frame_needed = 0, uses_anonymous_args = 0
 3934              		.loc 1 942 3 view .LVU1362
 3935              	.LBB932:
 3936              	.LBI932:
 3937              		.loc 6 527 25 view .LVU1363
 3938              	.LBB933:
 3939              		.loc 6 529 3 view .LVU1364
 3940              	.LBE933:
 3941              	.LBE932:
 3942              		.loc 1 941 46 is_stmt 0 view .LVU1365
 3943 0000 10B5     		push	{r4, lr}
 3944              		.cfi_def_cfa_offset 8
 3945              		.cfi_offset 4, -8
 3946              		.cfi_offset 14, -4
 3947              	.LBB936:
 3948              	.LBB934:
 3949              		.loc 6 529 10 view .LVU1366
 3950 0002 054C     		ldr	r4, .L118
 3951              	.LBE934:
 3952              	.LBE936:
 3953              		.loc 1 941 46 view .LVU1367
 3954 0004 0346     		mov	r3, r0
 3955              		.loc 1 948 3 view .LVU1368
 3956 0006 0320     		movs	r0, #3
 3957              	.LVL172:
 3958              	.LBB937:
 3959              	.LBB935:
 3960              		.loc 6 529 10 view .LVU1369
 3961 0008 E268     		ldr	r2, [r4, #12]
 3962              	.LVL173:
 3963              		.loc 6 529 10 view .LVU1370
 3964              	.LBE935:
 3965              	.LBE937:
 3966              		.loc 1 944 3 is_stmt 1 view .LVU1371
 3967              		.loc 1 944 3 view .LVU1372
 3968              		.loc 1 944 3 view .LVU1373
 3969              		.loc 1 946 3 view .LVU1374
 3970              		.loc 1 946 8 is_stmt 0 view .LVU1375
 3971 000a 1A60     		str	r2, [r3]
 3972              		.loc 1 947 3 is_stmt 1 view .LVU1376
 3973              		.loc 1 947 15 is_stmt 0 view .LVU1377
 3974 000c 5363     		str	r3, [r2, #52]
 3975              		.loc 1 948 3 is_stmt 1 view .LVU1378
 3976 000e FFF7FEFF 		bl	chSchGoSleepS
 3977              	.LVL174:
 3978              		.loc 1 950 3 view .LVU1379
 3979              	.LBB938:
 3980              	.LBI938:
 3981              		.loc 6 527 25 view .LVU1380
 3982              	.LBB939:
 3983              		.loc 6 529 3 view .LVU1381
 3984              	.LBE939:
 3985              	.LBE938:
 3986              		.loc 1 950 28 is_stmt 0 view .LVU1382
 3987 0012 E368     		ldr	r3, [r4, #12]
 3988              		.loc 1 951 1 view .LVU1383
 3989 0014 586B     		ldr	r0, [r3, #52]
ARM GAS  C:\Users\DEVELO~1\AppData\Local\Temp\ccUBlV4P.s 			page 71


 3990 0016 10BD     		pop	{r4, pc}
 3991              	.L119:
 3992              		.align	2
 3993              	.L118:
 3994 0018 00000000 		.word	ch0
 3995              		.cfi_endproc
 3996              	.LFE375:
 3997              		.size	chThdSuspendS, .-chThdSuspendS
 3998              		.section	.text.chThdSuspendTimeoutS,"ax",%progbits
 3999              		.align	1
 4000              		.p2align 4,,15
 4001              		.global	chThdSuspendTimeoutS
 4002              		.syntax unified
 4003              		.thumb
 4004              		.thumb_func
 4005              		.type	chThdSuspendTimeoutS, %function
 4006              	chThdSuspendTimeoutS:
 4007              	.LVL175:
 4008              	.LFB376:
 4009              		.loc 1 971 76 is_stmt 1 view -0
 4010              		.cfi_startproc
 4011              		@ args = 0, pretend = 0, frame = 0
 4012              		@ frame_needed = 0, uses_anonymous_args = 0
 4013              		@ link register save eliminated.
 4014              		.loc 1 972 3 view .LVU1385
 4015              	.LBB940:
 4016              	.LBI940:
 4017              		.loc 6 527 25 view .LVU1386
 4018              	.LBB941:
 4019              		.loc 6 529 3 view .LVU1387
 4020              		.loc 6 529 10 is_stmt 0 view .LVU1388
 4021 0000 054A     		ldr	r2, .L122
 4022              	.LBE941:
 4023              	.LBE940:
 4024              		.loc 1 971 76 view .LVU1389
 4025 0002 0346     		mov	r3, r0
 4026              	.LBB943:
 4027              	.LBB942:
 4028              		.loc 6 529 10 view .LVU1390
 4029 0004 D268     		ldr	r2, [r2, #12]
 4030              	.LVL176:
 4031              		.loc 6 529 10 view .LVU1391
 4032              	.LBE942:
 4033              	.LBE943:
 4034              		.loc 1 974 3 is_stmt 1 view .LVU1392
 4035              		.loc 1 974 3 view .LVU1393
 4036              		.loc 1 974 3 view .LVU1394
 4037              		.loc 1 976 3 view .LVU1395
 4038              		.loc 1 976 6 is_stmt 0 view .LVU1396
 4039 0006 21B1     		cbz	r1, .L121
 4040              		.loc 1 980 3 is_stmt 1 view .LVU1397
 4041              		.loc 1 980 8 is_stmt 0 view .LVU1398
 4042 0008 0260     		str	r2, [r0]
 4043              		.loc 1 981 3 is_stmt 1 view .LVU1399
 4044              		.loc 1 983 10 is_stmt 0 view .LVU1400
 4045 000a 0320     		movs	r0, #3
 4046              	.LVL177:
ARM GAS  C:\Users\DEVELO~1\AppData\Local\Temp\ccUBlV4P.s 			page 72


 4047              		.loc 1 981 15 view .LVU1401
 4048 000c 5363     		str	r3, [r2, #52]
 4049              		.loc 1 983 3 is_stmt 1 view .LVU1402
 4050              		.loc 1 983 10 is_stmt 0 view .LVU1403
 4051 000e FFF7FEBF 		b	chSchGoSleepTimeoutS
 4052              	.LVL178:
 4053              	.L121:
 4054              		.loc 1 984 1 view .LVU1404
 4055 0012 4FF0FF30 		mov	r0, #-1
 4056              	.LVL179:
 4057              		.loc 1 984 1 view .LVU1405
 4058 0016 7047     		bx	lr
 4059              	.L123:
 4060              		.align	2
 4061              	.L122:
 4062 0018 00000000 		.word	ch0
 4063              		.cfi_endproc
 4064              	.LFE376:
 4065              		.size	chThdSuspendTimeoutS, .-chThdSuspendTimeoutS
 4066              		.section	.text.chThdResumeI,"ax",%progbits
 4067              		.align	1
 4068              		.p2align 4,,15
 4069              		.global	chThdResumeI
 4070              		.syntax unified
 4071              		.thumb
 4072              		.thumb_func
 4073              		.type	chThdResumeI, %function
 4074              	chThdResumeI:
 4075              	.LVL180:
 4076              	.LFB377:
 4077              		.loc 1 996 55 is_stmt 1 view -0
 4078              		.cfi_startproc
 4079              		@ args = 0, pretend = 0, frame = 0
 4080              		@ frame_needed = 0, uses_anonymous_args = 0
 4081              		@ link register save eliminated.
 4082              		.loc 1 998 3 view .LVU1407
 4083              		.loc 1 996 55 is_stmt 0 view .LVU1408
 4084 0000 0346     		mov	r3, r0
 4085              		.loc 1 998 7 view .LVU1409
 4086 0002 0068     		ldr	r0, [r0]
 4087              	.LVL181:
 4088              		.loc 1 998 6 view .LVU1410
 4089 0004 20B1     		cbz	r0, .L124
 4090              	.LBB944:
 4091              		.loc 1 999 5 is_stmt 1 view .LVU1411
 4092              	.LVL182:
 4093              		.loc 1 1001 5 view .LVU1412
 4094              		.loc 1 1001 5 view .LVU1413
 4095              		.loc 1 1001 5 view .LVU1414
 4096              		.loc 1 1003 5 view .LVU1415
 4097              		.loc 1 1003 10 is_stmt 0 view .LVU1416
 4098 0006 0022     		movs	r2, #0
 4099 0008 1A60     		str	r2, [r3]
 4100              		.loc 1 1004 5 is_stmt 1 view .LVU1417
 4101              		.loc 1 1004 18 is_stmt 0 view .LVU1418
 4102 000a 4163     		str	r1, [r0, #52]
 4103              		.loc 1 1005 5 is_stmt 1 view .LVU1419
ARM GAS  C:\Users\DEVELO~1\AppData\Local\Temp\ccUBlV4P.s 			page 73


 4104              		.loc 1 1005 12 is_stmt 0 view .LVU1420
 4105 000c FFF7FEBF 		b	chSchReadyI
 4106              	.LVL183:
 4107              	.L124:
 4108              		.loc 1 1005 12 view .LVU1421
 4109              	.LBE944:
 4110              		.loc 1 1007 1 view .LVU1422
 4111 0010 7047     		bx	lr
 4112              		.cfi_endproc
 4113              	.LFE377:
 4114              		.size	chThdResumeI, .-chThdResumeI
 4115 0012 00BF     		.section	.text.chThdResumeS,"ax",%progbits
 4116              		.align	1
 4117              		.p2align 4,,15
 4118              		.global	chThdResumeS
 4119              		.syntax unified
 4120              		.thumb
 4121              		.thumb_func
 4122              		.type	chThdResumeS, %function
 4123              	chThdResumeS:
 4124              	.LVL184:
 4125              	.LFB378:
 4126              		.loc 1 1019 55 is_stmt 1 view -0
 4127              		.cfi_startproc
 4128              		@ args = 0, pretend = 0, frame = 0
 4129              		@ frame_needed = 0, uses_anonymous_args = 0
 4130              		@ link register save eliminated.
 4131              		.loc 1 1021 3 view .LVU1424
 4132              		.loc 1 1019 55 is_stmt 0 view .LVU1425
 4133 0000 0346     		mov	r3, r0
 4134              		.loc 1 1021 7 view .LVU1426
 4135 0002 0068     		ldr	r0, [r0]
 4136              	.LVL185:
 4137              		.loc 1 1021 6 view .LVU1427
 4138 0004 18B1     		cbz	r0, .L126
 4139              	.LBB945:
 4140              		.loc 1 1022 5 is_stmt 1 view .LVU1428
 4141              	.LVL186:
 4142              		.loc 1 1024 5 view .LVU1429
 4143              		.loc 1 1024 5 view .LVU1430
 4144              		.loc 1 1024 5 view .LVU1431
 4145              		.loc 1 1026 5 view .LVU1432
 4146              		.loc 1 1026 10 is_stmt 0 view .LVU1433
 4147 0006 0022     		movs	r2, #0
 4148 0008 1A60     		str	r2, [r3]
 4149              		.loc 1 1027 5 is_stmt 1 view .LVU1434
 4150 000a FFF7FEBF 		b	chSchWakeupS
 4151              	.LVL187:
 4152              	.L126:
 4153              		.loc 1 1027 5 is_stmt 0 view .LVU1435
 4154              	.LBE945:
 4155              		.loc 1 1029 1 view .LVU1436
 4156 000e 7047     		bx	lr
 4157              		.cfi_endproc
 4158              	.LFE378:
 4159              		.size	chThdResumeS, .-chThdResumeS
 4160              		.section	.text.chThdResume,"ax",%progbits
ARM GAS  C:\Users\DEVELO~1\AppData\Local\Temp\ccUBlV4P.s 			page 74


 4161              		.align	1
 4162              		.p2align 4,,15
 4163              		.global	chThdResume
 4164              		.syntax unified
 4165              		.thumb
 4166              		.thumb_func
 4167              		.type	chThdResume, %function
 4168              	chThdResume:
 4169              	.LVL188:
 4170              	.LFB379:
 4171              		.loc 1 1041 54 is_stmt 1 view -0
 4172              		.cfi_startproc
 4173              		@ args = 0, pretend = 0, frame = 0
 4174              		@ frame_needed = 0, uses_anonymous_args = 0
 4175              		.loc 1 1041 54 is_stmt 0 view .LVU1438
 4176 0000 08B5     		push	{r3, lr}
 4177              		.cfi_def_cfa_offset 8
 4178              		.cfi_offset 3, -8
 4179              		.cfi_offset 14, -4
 4180              	.LBB946:
 4181              	.LBB947:
 4182              	.LBB948:
 4183              	.LBB949:
 4184              		.loc 5 493 3 view .LVU1439
 4185 0002 3022     		movs	r2, #48
 4186              	.LBE949:
 4187              	.LBE948:
 4188              	.LBE947:
 4189              	.LBE946:
 4190              		.loc 1 1041 54 view .LVU1440
 4191 0004 0346     		mov	r3, r0
 4192              		.loc 1 1043 3 is_stmt 1 view .LVU1441
 4193              	.LBB953:
 4194              	.LBI946:
 4195              		.loc 3 372 20 view .LVU1442
 4196              		.loc 3 374 3 view .LVU1443
 4197              	.LBB952:
 4198              	.LBI947:
 4199              		.loc 4 840 27 view .LVU1444
 4200              		.loc 4 848 3 view .LVU1445
 4201              	.LVL189:
 4202              	.LBB951:
 4203              	.LBI948:
 4204              		.loc 5 491 27 view .LVU1446
 4205              	.LBB950:
 4206              		.loc 5 493 3 view .LVU1447
 4207              		.syntax unified
 4208              	@ 493 "./ChibiOS/os/common/ext/ARM/CMSIS/Core/Include/cmsis_gcc.h" 1
 4209 0006 82F31188 		MSR basepri, r2
 4210              	@ 0 "" 2
 4211              	.LVL190:
 4212              		.loc 5 493 3 is_stmt 0 view .LVU1448
 4213              		.thumb
 4214              		.syntax unified
 4215              	.LBE950:
 4216              	.LBE951:
 4217              	.LBE952:
ARM GAS  C:\Users\DEVELO~1\AppData\Local\Temp\ccUBlV4P.s 			page 75


 4218              		.loc 3 375 35 is_stmt 1 view .LVU1449
 4219              		.loc 3 376 21 view .LVU1450
 4220              	.LBE953:
 4221              		.loc 1 1044 3 view .LVU1451
 4222              	.LBB954:
 4223              	.LBI954:
 4224              		.loc 1 1019 6 view .LVU1452
 4225              	.LBB955:
 4226              		.loc 1 1021 3 view .LVU1453
 4227              		.loc 1 1021 7 is_stmt 0 view .LVU1454
 4228 000a 0068     		ldr	r0, [r0]
 4229              	.LVL191:
 4230              		.loc 1 1021 6 view .LVU1455
 4231 000c 18B1     		cbz	r0, .L129
 4232              	.LBB956:
 4233              		.loc 1 1022 5 is_stmt 1 view .LVU1456
 4234              	.LVL192:
 4235              		.loc 1 1024 5 view .LVU1457
 4236              		.loc 1 1024 5 view .LVU1458
 4237              		.loc 1 1024 5 view .LVU1459
 4238              		.loc 1 1026 5 view .LVU1460
 4239              		.loc 1 1026 10 is_stmt 0 view .LVU1461
 4240 000e 0022     		movs	r2, #0
 4241 0010 1A60     		str	r2, [r3]
 4242              		.loc 1 1027 5 is_stmt 1 view .LVU1462
 4243 0012 FFF7FEFF 		bl	chSchWakeupS
 4244              	.LVL193:
 4245              	.L129:
 4246              		.loc 1 1027 5 is_stmt 0 view .LVU1463
 4247              	.LBE956:
 4248              	.LBE955:
 4249              	.LBE954:
 4250              		.loc 1 1045 3 is_stmt 1 view .LVU1464
 4251              	.LBB957:
 4252              	.LBI957:
 4253              		.loc 3 386 20 view .LVU1465
 4254              	.LBB958:
 4255              		.loc 3 388 23 view .LVU1466
 4256              		.loc 3 389 34 view .LVU1467
 4257              		.loc 3 395 3 view .LVU1468
 4258              		.loc 3 395 3 view .LVU1469
 4259              		.loc 3 395 3 view .LVU1470
 4260              		.loc 3 399 3 view .LVU1471
 4261              	.LBB959:
 4262              	.LBI959:
 4263              		.loc 4 864 27 view .LVU1472
 4264              		.loc 4 867 3 view .LVU1473
 4265              	.LBB960:
 4266              	.LBI960:
 4267              		.loc 5 491 27 view .LVU1474
 4268              	.LBB961:
 4269              		.loc 5 493 3 view .LVU1475
 4270 0016 0023     		movs	r3, #0
 4271              		.syntax unified
 4272              	@ 493 "./ChibiOS/os/common/ext/ARM/CMSIS/Core/Include/cmsis_gcc.h" 1
 4273 0018 83F31188 		MSR basepri, r3
 4274              	@ 0 "" 2
ARM GAS  C:\Users\DEVELO~1\AppData\Local\Temp\ccUBlV4P.s 			page 76


 4275              	.LVL194:
 4276              		.loc 5 493 3 is_stmt 0 view .LVU1476
 4277              		.thumb
 4278              		.syntax unified
 4279              	.LBE961:
 4280              	.LBE960:
 4281              	.LBE959:
 4282              	.LBE958:
 4283              	.LBE957:
 4284              		.loc 1 1046 1 view .LVU1477
 4285 001c 08BD     		pop	{r3, pc}
 4286              		.cfi_endproc
 4287              	.LFE379:
 4288              		.size	chThdResume, .-chThdResume
 4289 001e 00BF     		.section	.text.chThdQueueObjectInit,"ax",%progbits
 4290              		.align	1
 4291              		.p2align 4,,15
 4292              		.global	chThdQueueObjectInit
 4293              		.syntax unified
 4294              		.thumb
 4295              		.thumb_func
 4296              		.type	chThdQueueObjectInit, %function
 4297              	chThdQueueObjectInit:
 4298              	.LVL195:
 4299              	.LFB380:
 4300              		.loc 1 1055 49 is_stmt 1 view -0
 4301              		.cfi_startproc
 4302              		@ args = 0, pretend = 0, frame = 0
 4303              		@ frame_needed = 0, uses_anonymous_args = 0
 4304              		@ link register save eliminated.
 4305              		.loc 1 1057 3 view .LVU1479
 4306              		.loc 1 1057 3 view .LVU1480
 4307              		.loc 1 1057 3 view .LVU1481
 4308              		.loc 1 1059 3 view .LVU1482
 4309              	.LBB962:
 4310              	.LBI962:
 4311              		.loc 2 282 20 view .LVU1483
 4312              	.LBB963:
 4313              		.loc 2 284 3 view .LVU1484
 4314              		.loc 2 285 12 is_stmt 0 view .LVU1485
 4315 0000 C0E90000 		strd	r0, r0, [r0]
 4316              	.LVL196:
 4317              		.loc 2 285 12 view .LVU1486
 4318              	.LBE963:
 4319              	.LBE962:
 4320              		.loc 1 1060 1 view .LVU1487
 4321 0004 7047     		bx	lr
 4322              		.cfi_endproc
 4323              	.LFE380:
 4324              		.size	chThdQueueObjectInit, .-chThdQueueObjectInit
 4325 0006 00BF     		.section	.text.chThdQueueObjectDispose,"ax",%progbits
 4326              		.align	1
 4327              		.p2align 4,,15
 4328              		.global	chThdQueueObjectDispose
 4329              		.syntax unified
 4330              		.thumb
 4331              		.thumb_func
ARM GAS  C:\Users\DEVELO~1\AppData\Local\Temp\ccUBlV4P.s 			page 77


 4332              		.type	chThdQueueObjectDispose, %function
 4333              	chThdQueueObjectDispose:
 4334              	.LFB387:
 4335              		.cfi_startproc
 4336              		@ args = 0, pretend = 0, frame = 0
 4337              		@ frame_needed = 0, uses_anonymous_args = 0
 4338              		@ link register save eliminated.
 4339 0000 7047     		bx	lr
 4340              		.cfi_endproc
 4341              	.LFE387:
 4342              		.size	chThdQueueObjectDispose, .-chThdQueueObjectDispose
 4343 0002 00BF     		.section	.text.chThdEnqueueTimeoutS,"ax",%progbits
 4344              		.align	1
 4345              		.p2align 4,,15
 4346              		.global	chThdEnqueueTimeoutS
 4347              		.syntax unified
 4348              		.thumb
 4349              		.thumb_func
 4350              		.type	chThdEnqueueTimeoutS, %function
 4351              	chThdEnqueueTimeoutS:
 4352              	.LVL197:
 4353              	.LFB382:
 4354              		.loc 1 1110 73 is_stmt 1 view -0
 4355              		.cfi_startproc
 4356              		@ args = 0, pretend = 0, frame = 0
 4357              		@ frame_needed = 0, uses_anonymous_args = 0
 4358              		@ link register save eliminated.
 4359              		.loc 1 1111 3 view .LVU1489
 4360              	.LBB964:
 4361              	.LBI964:
 4362              		.loc 6 527 25 view .LVU1490
 4363              	.LBB965:
 4364              		.loc 6 529 3 view .LVU1491
 4365              		.loc 6 529 10 is_stmt 0 view .LVU1492
 4366 0000 084A     		ldr	r2, .L141
 4367 0002 D268     		ldr	r2, [r2, #12]
 4368              	.LVL198:
 4369              		.loc 6 529 10 view .LVU1493
 4370              	.LBE965:
 4371              	.LBE964:
 4372              		.loc 1 1113 3 is_stmt 1 view .LVU1494
 4373              		.loc 1 1113 6 is_stmt 0 view .LVU1495
 4374 0004 51B1     		cbz	r1, .L137
 4375 0006 0346     		mov	r3, r0
 4376              		.loc 1 1117 3 is_stmt 1 view .LVU1496
 4377              	.LVL199:
 4378              	.LBB966:
 4379              	.LBI966:
 4380              		.loc 2 322 20 view .LVU1497
 4381              	.LBB967:
 4382              		.loc 2 324 3 view .LVU1498
 4383              	.LBE967:
 4384              	.LBE966:
 4385              		.loc 1 1110 73 is_stmt 0 view .LVU1499
 4386 0008 10B4     		push	{r4}
 4387              		.cfi_def_cfa_offset 4
 4388              		.cfi_offset 4, -4
ARM GAS  C:\Users\DEVELO~1\AppData\Local\Temp\ccUBlV4P.s 			page 78


 4389              	.LBB971:
 4390              	.LBB968:
 4391              		.loc 2 325 21 view .LVU1500
 4392 000a 4468     		ldr	r4, [r0, #4]
 4393              		.loc 2 324 17 view .LVU1501
 4394 000c 1060     		str	r0, [r2]
 4395              		.loc 2 325 3 is_stmt 1 view .LVU1502
 4396              	.LBE968:
 4397              	.LBE971:
 4398              		.loc 1 1119 10 is_stmt 0 view .LVU1503
 4399 000e 0420     		movs	r0, #4
 4400              	.LVL200:
 4401              	.LBB972:
 4402              	.LBB969:
 4403              		.loc 2 325 17 view .LVU1504
 4404 0010 5460     		str	r4, [r2, #4]
 4405              		.loc 2 326 3 is_stmt 1 view .LVU1505
 4406              		.loc 2 326 17 is_stmt 0 view .LVU1506
 4407 0012 2260     		str	r2, [r4]
 4408              		.loc 2 327 3 is_stmt 1 view .LVU1507
 4409              	.LBE969:
 4410              	.LBE972:
 4411              		.loc 1 1120 1 is_stmt 0 view .LVU1508
 4412 0014 10BC     		pop	{r4}
 4413              		.cfi_restore 4
 4414              		.cfi_def_cfa_offset 0
 4415              	.LBB973:
 4416              	.LBB970:
 4417              		.loc 2 327 17 view .LVU1509
 4418 0016 5A60     		str	r2, [r3, #4]
 4419              	.LVL201:
 4420              		.loc 2 327 17 view .LVU1510
 4421              	.LBE970:
 4422              	.LBE973:
 4423              		.loc 1 1119 3 is_stmt 1 view .LVU1511
 4424              		.loc 1 1119 10 is_stmt 0 view .LVU1512
 4425 0018 FFF7FEBF 		b	chSchGoSleepTimeoutS
 4426              	.LVL202:
 4427              	.L137:
 4428              		.loc 1 1120 1 view .LVU1513
 4429 001c 4FF0FF30 		mov	r0, #-1
 4430              	.LVL203:
 4431              		.loc 1 1120 1 view .LVU1514
 4432 0020 7047     		bx	lr
 4433              	.L142:
 4434 0022 00BF     		.align	2
 4435              	.L141:
 4436 0024 00000000 		.word	ch0
 4437              		.cfi_endproc
 4438              	.LFE382:
 4439              		.size	chThdEnqueueTimeoutS, .-chThdEnqueueTimeoutS
 4440              		.section	.text.chThdDequeueNextI,"ax",%progbits
 4441              		.align	1
 4442              		.p2align 4,,15
 4443              		.global	chThdDequeueNextI
 4444              		.syntax unified
 4445              		.thumb
ARM GAS  C:\Users\DEVELO~1\AppData\Local\Temp\ccUBlV4P.s 			page 79


 4446              		.thumb_func
 4447              		.type	chThdDequeueNextI, %function
 4448              	chThdDequeueNextI:
 4449              	.LVL204:
 4450              	.LFB383:
 4451              		.loc 1 1131 57 is_stmt 1 view -0
 4452              		.cfi_startproc
 4453              		@ args = 0, pretend = 0, frame = 0
 4454              		@ frame_needed = 0, uses_anonymous_args = 0
 4455              		@ link register save eliminated.
 4456              		.loc 1 1133 3 view .LVU1516
 4457              		.loc 1 1131 57 is_stmt 0 view .LVU1517
 4458 0000 0346     		mov	r3, r0
 4459              	.LVL205:
 4460              	.LBB974:
 4461              	.LBI974:
 4462              		.loc 2 309 20 is_stmt 1 view .LVU1518
 4463              	.LBB975:
 4464              		.loc 2 311 3 view .LVU1519
 4465              		.loc 2 311 19 is_stmt 0 view .LVU1520
 4466 0002 0068     		ldr	r0, [r0]
 4467              	.LVL206:
 4468              		.loc 2 311 19 view .LVU1521
 4469              	.LBE975:
 4470              	.LBE974:
 4471              		.loc 1 1133 6 view .LVU1522
 4472 0004 8342     		cmp	r3, r0
 4473 0006 05D0     		beq	.L143
 4474              		.loc 1 1134 5 is_stmt 1 view .LVU1523
 4475              	.LVL207:
 4476              	.LBB976:
 4477              	.LBI976:
 4478              		.loc 6 664 20 view .LVU1524
 4479              	.LBB977:
 4480              		.loc 6 665 3 view .LVU1525
 4481              		.loc 6 667 3 view .LVU1526
 4482              		.loc 6 667 3 view .LVU1527
 4483              		.loc 6 667 3 view .LVU1528
 4484              		.loc 6 669 3 view .LVU1529
 4485              	.LBB978:
 4486              	.LBI978:
 4487              		.loc 2 340 27 view .LVU1530
 4488              	.LBB979:
 4489              		.loc 2 341 3 view .LVU1531
 4490              		.loc 2 343 3 view .LVU1532
 4491              		.loc 2 343 21 is_stmt 0 view .LVU1533
 4492 0008 0268     		ldr	r2, [r0]
 4493              		.loc 2 343 18 view .LVU1534
 4494 000a 1A60     		str	r2, [r3]
 4495              		.loc 2 344 3 is_stmt 1 view .LVU1535
 4496              		.loc 2 344 18 is_stmt 0 view .LVU1536
 4497 000c 5360     		str	r3, [r2, #4]
 4498              		.loc 2 346 3 is_stmt 1 view .LVU1537
 4499              	.LVL208:
 4500              		.loc 2 346 3 is_stmt 0 view .LVU1538
 4501              	.LBE979:
 4502              	.LBE978:
ARM GAS  C:\Users\DEVELO~1\AppData\Local\Temp\ccUBlV4P.s 			page 80


 4503              		.loc 6 671 3 is_stmt 1 view .LVU1539
 4504              		.loc 6 671 3 view .LVU1540
 4505              		.loc 6 671 3 view .LVU1541
 4506              		.loc 6 673 3 view .LVU1542
 4507              		.loc 6 673 16 is_stmt 0 view .LVU1543
 4508 000e 4163     		str	r1, [r0, #52]
 4509              		.loc 6 674 3 is_stmt 1 view .LVU1544
 4510              		.loc 6 674 10 is_stmt 0 view .LVU1545
 4511 0010 FFF7FEBF 		b	chSchReadyI
 4512              	.LVL209:
 4513              	.L143:
 4514              		.loc 6 674 10 view .LVU1546
 4515              	.LBE977:
 4516              	.LBE976:
 4517              		.loc 1 1136 1 view .LVU1547
 4518 0014 7047     		bx	lr
 4519              		.cfi_endproc
 4520              	.LFE383:
 4521              		.size	chThdDequeueNextI, .-chThdDequeueNextI
 4522 0016 00BF     		.section	.text.chThdDequeueAllI,"ax",%progbits
 4523              		.align	1
 4524              		.p2align 4,,15
 4525              		.global	chThdDequeueAllI
 4526              		.syntax unified
 4527              		.thumb
 4528              		.thumb_func
 4529              		.type	chThdDequeueAllI, %function
 4530              	chThdDequeueAllI:
 4531              	.LVL210:
 4532              	.LFB384:
 4533              		.loc 1 1146 56 is_stmt 1 view -0
 4534              		.cfi_startproc
 4535              		@ args = 0, pretend = 0, frame = 0
 4536              		@ frame_needed = 0, uses_anonymous_args = 0
 4537              		.loc 1 1148 3 view .LVU1549
 4538              		.loc 1 1148 10 view .LVU1550
 4539              		.loc 1 1146 56 is_stmt 0 view .LVU1551
 4540 0000 38B5     		push	{r3, r4, r5, lr}
 4541              		.cfi_def_cfa_offset 16
 4542              		.cfi_offset 3, -16
 4543              		.cfi_offset 4, -12
 4544              		.cfi_offset 5, -8
 4545              		.cfi_offset 14, -4
 4546              		.loc 1 1146 56 view .LVU1552
 4547 0002 0446     		mov	r4, r0
 4548              	.LVL211:
 4549              	.LBB980:
 4550              	.LBI980:
 4551              		.loc 2 309 20 is_stmt 1 view .LVU1553
 4552              	.LBB981:
 4553              		.loc 2 311 3 view .LVU1554
 4554              		.loc 2 311 19 is_stmt 0 view .LVU1555
 4555 0004 0068     		ldr	r0, [r0]
 4556              	.LVL212:
 4557              		.loc 2 311 19 view .LVU1556
 4558              	.LBE981:
 4559              	.LBE980:
ARM GAS  C:\Users\DEVELO~1\AppData\Local\Temp\ccUBlV4P.s 			page 81


 4560              		.loc 1 1148 10 view .LVU1557
 4561 0006 A042     		cmp	r0, r4
 4562 0008 09D0     		beq	.L145
 4563 000a 0D46     		mov	r5, r1
 4564              	.LVL213:
 4565              	.L147:
 4566              		.loc 1 1149 5 is_stmt 1 view .LVU1558
 4567              	.LBB983:
 4568              	.LBI983:
 4569              		.loc 6 664 20 view .LVU1559
 4570              	.LBB984:
 4571              		.loc 6 665 3 view .LVU1560
 4572              		.loc 6 667 3 view .LVU1561
 4573              		.loc 6 667 3 view .LVU1562
 4574              		.loc 6 667 3 view .LVU1563
 4575              		.loc 6 669 3 view .LVU1564
 4576              	.LBB985:
 4577              	.LBI985:
 4578              		.loc 2 340 27 view .LVU1565
 4579              	.LBB986:
 4580              		.loc 2 341 3 view .LVU1566
 4581              		.loc 2 343 3 view .LVU1567
 4582              		.loc 2 343 21 is_stmt 0 view .LVU1568
 4583 000c 0368     		ldr	r3, [r0]
 4584              		.loc 2 343 18 view .LVU1569
 4585 000e 2360     		str	r3, [r4]
 4586              		.loc 2 344 3 is_stmt 1 view .LVU1570
 4587              		.loc 2 344 18 is_stmt 0 view .LVU1571
 4588 0010 5C60     		str	r4, [r3, #4]
 4589              		.loc 2 346 3 is_stmt 1 view .LVU1572
 4590              	.LVL214:
 4591              		.loc 2 346 3 is_stmt 0 view .LVU1573
 4592              	.LBE986:
 4593              	.LBE985:
 4594              		.loc 6 671 3 is_stmt 1 view .LVU1574
 4595              		.loc 6 671 3 view .LVU1575
 4596              		.loc 6 671 3 view .LVU1576
 4597              		.loc 6 673 3 view .LVU1577
 4598              		.loc 6 673 16 is_stmt 0 view .LVU1578
 4599 0012 4563     		str	r5, [r0, #52]
 4600              		.loc 6 674 3 is_stmt 1 view .LVU1579
 4601              		.loc 6 674 10 is_stmt 0 view .LVU1580
 4602 0014 FFF7FEFF 		bl	chSchReadyI
 4603              	.LVL215:
 4604              		.loc 6 674 10 view .LVU1581
 4605              	.LBE984:
 4606              	.LBE983:
 4607              		.loc 1 1148 10 is_stmt 1 view .LVU1582
 4608              	.LBB987:
 4609              		.loc 2 309 20 view .LVU1583
 4610              	.LBB982:
 4611              		.loc 2 311 3 view .LVU1584
 4612              		.loc 2 311 19 is_stmt 0 view .LVU1585
 4613 0018 2068     		ldr	r0, [r4]
 4614              	.LVL216:
 4615              		.loc 2 311 19 view .LVU1586
 4616              	.LBE982:
ARM GAS  C:\Users\DEVELO~1\AppData\Local\Temp\ccUBlV4P.s 			page 82


 4617              	.LBE987:
 4618              		.loc 1 1148 10 view .LVU1587
 4619 001a A042     		cmp	r0, r4
 4620 001c F6D1     		bne	.L147
 4621              	.LVL217:
 4622              	.L145:
 4623              		.loc 1 1151 1 view .LVU1588
 4624 001e 38BD     		pop	{r3, r4, r5, pc}
 4625              		.loc 1 1151 1 view .LVU1589
 4626              		.cfi_endproc
 4627              	.LFE384:
 4628              		.size	chThdDequeueAllI, .-chThdDequeueAllI
 4629              		.text
 4630              	.Letext0:
 4631              		.file 10 "c:\\chibistudio\\tools\\gnu tools arm embedded\\11.3 2022.08\\lib\\gcc\\arm-none-eabi\\1
 4632              		.file 11 "c:\\chibistudio\\tools\\gnu tools arm embedded\\11.3 2022.08\\arm-none-eabi\\include\\ma
 4633              		.file 12 "c:\\chibistudio\\tools\\gnu tools arm embedded\\11.3 2022.08\\arm-none-eabi\\include\\sy
 4634              		.file 13 "./ChibiOS/os/common/ports/ARM-common/include/chtypes.h"
 4635              		.file 14 "./ChibiOS/os/rt/include/chearly.h"
 4636              		.file 15 "./ChibiOS/os/rt/include/chobjects.h"
 4637              		.file 16 "./ChibiOS/os/rt/include/chrfcu.h"
 4638              		.file 17 "./ChibiOS/os/rt/include/chdebug.h"
 4639              		.file 18 "./ChibiOS/os/rt/include/chtrace.h"
 4640              		.file 19 "./ChibiOS/os/rt/include/chsem.h"
 4641              		.file 20 "./ChibiOS/os/rt/include/chmtx.h"
 4642              		.file 21 "./ChibiOS/os/rt/include/chschd.h"
 4643              		.section	.debug_info,"",%progbits
 4644              	.Ldebug_info0:
 4645 0000 CB2E0000 		.4byte	0x2ecb
 4646 0004 0500     		.2byte	0x5
 4647 0006 01       		.byte	0x1
 4648 0007 04       		.byte	0x4
 4649 0008 00000000 		.4byte	.Ldebug_abbrev0
 4650 000c 45       		.uleb128 0x45
 4651 000d 99030000 		.4byte	.LASF209
 4652 0011 1D       		.byte	0x1d
 4653 0012 E4080000 		.4byte	.LASF210
 4654 0016 7A020000 		.4byte	.LASF211
 4655 001a 5B030000 		.4byte	.LLRL235
 4656 001e 00000000 		.4byte	0
 4657 0022 00000000 		.4byte	.Ldebug_line0
 4658 0026 46       		.uleb128 0x46
 4659 0027 04       		.byte	0x4
 4660 0028 05       		.byte	0x5
 4661 0029 696E7400 		.ascii	"int\000"
 4662 002d 04       		.uleb128 0x4
 4663 002e 1A000000 		.4byte	.LASF4
 4664 0032 0A       		.byte	0xa
 4665 0033 D1       		.byte	0xd1
 4666 0034 17       		.byte	0x17
 4667 0035 39000000 		.4byte	0x39
 4668 0039 14       		.uleb128 0x14
 4669 003a 04       		.byte	0x4
 4670 003b 07       		.byte	0x7
 4671 003c 33060000 		.4byte	.LASF0
 4672 0040 14       		.uleb128 0x14
 4673 0041 08       		.byte	0x8
ARM GAS  C:\Users\DEVELO~1\AppData\Local\Temp\ccUBlV4P.s 			page 83


 4674 0042 05       		.byte	0x5
 4675 0043 2F010000 		.4byte	.LASF1
 4676 0047 14       		.uleb128 0x14
 4677 0048 08       		.byte	0x8
 4678 0049 04       		.byte	0x4
 4679 004a 0C080000 		.4byte	.LASF2
 4680 004e 14       		.uleb128 0x14
 4681 004f 01       		.byte	0x1
 4682 0050 06       		.byte	0x6
 4683 0051 3D010000 		.4byte	.LASF3
 4684 0055 04       		.uleb128 0x4
 4685 0056 44000000 		.4byte	.LASF5
 4686 005a 0B       		.byte	0xb
 4687 005b 2B       		.byte	0x2b
 4688 005c 18       		.byte	0x18
 4689 005d 61000000 		.4byte	0x61
 4690 0061 14       		.uleb128 0x14
 4691 0062 01       		.byte	0x1
 4692 0063 08       		.byte	0x8
 4693 0064 F9060000 		.4byte	.LASF6
 4694 0068 14       		.uleb128 0x14
 4695 0069 02       		.byte	0x2
 4696 006a 05       		.byte	0x5
 4697 006b 25020000 		.4byte	.LASF7
 4698 006f 04       		.uleb128 0x4
 4699 0070 45080000 		.4byte	.LASF8
 4700 0074 0B       		.byte	0xb
 4701 0075 39       		.byte	0x39
 4702 0076 19       		.byte	0x19
 4703 0077 7B000000 		.4byte	0x7b
 4704 007b 14       		.uleb128 0x14
 4705 007c 02       		.byte	0x2
 4706 007d 07       		.byte	0x7
 4707 007e 75040000 		.4byte	.LASF9
 4708 0082 04       		.uleb128 0x4
 4709 0083 14050000 		.4byte	.LASF10
 4710 0087 0B       		.byte	0xb
 4711 0088 4D       		.byte	0x4d
 4712 0089 18       		.byte	0x18
 4713 008a 8E000000 		.4byte	0x8e
 4714 008e 14       		.uleb128 0x14
 4715 008f 04       		.byte	0x4
 4716 0090 05       		.byte	0x5
 4717 0091 99000000 		.4byte	.LASF11
 4718 0095 04       		.uleb128 0x4
 4719 0096 F3020000 		.4byte	.LASF12
 4720 009a 0B       		.byte	0xb
 4721 009b 4F       		.byte	0x4f
 4722 009c 19       		.byte	0x19
 4723 009d A1000000 		.4byte	0xa1
 4724 00a1 14       		.uleb128 0x14
 4725 00a2 04       		.byte	0x4
 4726 00a3 07       		.byte	0x7
 4727 00a4 64010000 		.4byte	.LASF13
 4728 00a8 04       		.uleb128 0x4
 4729 00a9 62050000 		.4byte	.LASF14
 4730 00ad 0B       		.byte	0xb
ARM GAS  C:\Users\DEVELO~1\AppData\Local\Temp\ccUBlV4P.s 			page 84


 4731 00ae 69       		.byte	0x69
 4732 00af 19       		.byte	0x19
 4733 00b0 B4000000 		.4byte	0xb4
 4734 00b4 14       		.uleb128 0x14
 4735 00b5 08       		.byte	0x8
 4736 00b6 07       		.byte	0x7
 4737 00b7 8A010000 		.4byte	.LASF15
 4738 00bb 47       		.uleb128 0x47
 4739 00bc 04       		.byte	0x4
 4740 00bd 14       		.uleb128 0x14
 4741 00be 01       		.byte	0x1
 4742 00bf 08       		.byte	0x8
 4743 00c0 1F080000 		.4byte	.LASF16
 4744 00c4 0D       		.uleb128 0xd
 4745 00c5 BD000000 		.4byte	0xbd
 4746 00c9 0B       		.uleb128 0xb
 4747 00ca C4000000 		.4byte	0xc4
 4748 00ce 38       		.uleb128 0x38
 4749 00cf C9000000 		.4byte	0xc9
 4750 00d3 04       		.uleb128 0x4
 4751 00d4 E9090000 		.4byte	.LASF17
 4752 00d8 0C       		.byte	0xc
 4753 00d9 18       		.byte	0x18
 4754 00da 13       		.byte	0x13
 4755 00db 55000000 		.4byte	0x55
 4756 00df 04       		.uleb128 0x4
 4757 00e0 2F020000 		.4byte	.LASF18
 4758 00e4 0C       		.byte	0xc
 4759 00e5 24       		.byte	0x24
 4760 00e6 14       		.byte	0x14
 4761 00e7 6F000000 		.4byte	0x6f
 4762 00eb 04       		.uleb128 0x4
 4763 00ec F1060000 		.4byte	.LASF19
 4764 00f0 0C       		.byte	0xc
 4765 00f1 2C       		.byte	0x2c
 4766 00f2 13       		.byte	0x13
 4767 00f3 82000000 		.4byte	0x82
 4768 00f7 04       		.uleb128 0x4
 4769 00f8 DD070000 		.4byte	.LASF20
 4770 00fc 0C       		.byte	0xc
 4771 00fd 30       		.byte	0x30
 4772 00fe 14       		.byte	0x14
 4773 00ff 95000000 		.4byte	0x95
 4774 0103 04       		.uleb128 0x4
 4775 0104 2A060000 		.4byte	.LASF21
 4776 0108 0C       		.byte	0xc
 4777 0109 3C       		.byte	0x3c
 4778 010a 14       		.byte	0x14
 4779 010b A8000000 		.4byte	0xa8
 4780 010f 38       		.uleb128 0x38
 4781 0110 03010000 		.4byte	0x103
 4782 0114 04       		.uleb128 0x4
 4783 0115 C8000000 		.4byte	.LASF22
 4784 0119 0D       		.byte	0xd
 4785 011a 48       		.byte	0x48
 4786 011b 1D       		.byte	0x1d
 4787 011c 03010000 		.4byte	0x103
ARM GAS  C:\Users\DEVELO~1\AppData\Local\Temp\ccUBlV4P.s 			page 85


 4788 0120 04       		.uleb128 0x4
 4789 0121 D3010000 		.4byte	.LASF23
 4790 0125 0E       		.byte	0xe
 4791 0126 50       		.byte	0x50
 4792 0127 19       		.byte	0x19
 4793 0128 14010000 		.4byte	0x114
 4794 012c 04       		.uleb128 0x4
 4795 012d DB040000 		.4byte	.LASF24
 4796 0131 0E       		.byte	0xe
 4797 0132 53       		.byte	0x53
 4798 0133 19       		.byte	0x19
 4799 0134 D3000000 		.4byte	0xd3
 4800 0138 04       		.uleb128 0x4
 4801 0139 DD010000 		.4byte	.LASF25
 4802 013d 0E       		.byte	0xe
 4803 013e 54       		.byte	0x54
 4804 013f 19       		.byte	0x19
 4805 0140 D3000000 		.4byte	0xd3
 4806 0144 04       		.uleb128 0x4
 4807 0145 AD060000 		.4byte	.LASF26
 4808 0149 0E       		.byte	0xe
 4809 014a 55       		.byte	0x55
 4810 014b 19       		.byte	0x19
 4811 014c D3000000 		.4byte	0xd3
 4812 0150 04       		.uleb128 0x4
 4813 0151 CE060000 		.4byte	.LASF27
 4814 0155 0E       		.byte	0xe
 4815 0156 57       		.byte	0x57
 4816 0157 19       		.byte	0x19
 4817 0158 F7000000 		.4byte	0xf7
 4818 015c 04       		.uleb128 0x4
 4819 015d B7040000 		.4byte	.LASF28
 4820 0161 0E       		.byte	0xe
 4821 0162 58       		.byte	0x58
 4822 0163 19       		.byte	0x19
 4823 0164 EB000000 		.4byte	0xeb
 4824 0168 04       		.uleb128 0x4
 4825 0169 08050000 		.4byte	.LASF29
 4826 016d 0E       		.byte	0xe
 4827 016e 5A       		.byte	0x5a
 4828 016f 19       		.byte	0x19
 4829 0170 F7000000 		.4byte	0xf7
 4830 0174 04       		.uleb128 0x4
 4831 0175 37030000 		.4byte	.LASF30
 4832 0179 0E       		.byte	0xe
 4833 017a 5C       		.byte	0x5c
 4834 017b 19       		.byte	0x19
 4835 017c EB000000 		.4byte	0xeb
 4836 0180 04       		.uleb128 0x4
 4837 0181 A3060000 		.4byte	.LASF31
 4838 0185 0E       		.byte	0xe
 4839 0186 80       		.byte	0x80
 4840 0187 12       		.byte	0x12
 4841 0188 39000000 		.4byte	0x39
 4842 018c 04       		.uleb128 0x4
 4843 018d 69080000 		.4byte	.LASF32
 4844 0191 0E       		.byte	0xe
ARM GAS  C:\Users\DEVELO~1\AppData\Local\Temp\ccUBlV4P.s 			page 86


 4845 0192 85       		.byte	0x85
 4846 0193 1A       		.byte	0x1a
 4847 0194 98010000 		.4byte	0x198
 4848 0198 15       		.uleb128 0x15
 4849 0199 9B040000 		.4byte	.LASF49
 4850 019d 50       		.byte	0x50
 4851 019e 0F       		.byte	0xf
 4852 019f A9       		.byte	0xa9
 4853 01a0 08       		.byte	0x8
 4854 01a1 8F020000 		.4byte	0x28f
 4855 01a5 17       		.uleb128 0x17
 4856 01a6 68647200 		.ascii	"hdr\000"
 4857 01aa 0F       		.byte	0xf
 4858 01ab BA       		.byte	0xba
 4859 01ac 05       		.byte	0x5
 4860 01ad 94070000 		.4byte	0x794
 4861 01b1 00       		.byte	0
 4862 01b2 17       		.uleb128 0x17
 4863 01b3 63747800 		.ascii	"ctx\000"
 4864 01b7 0F       		.byte	0xf
 4865 01b8 BE       		.byte	0xbe
 4866 01b9 21       		.byte	0x21
 4867 01ba B9050000 		.4byte	0x5b9
 4868 01be 0C       		.byte	0xc
 4869 01bf 03       		.uleb128 0x3
 4870 01c0 F7010000 		.4byte	.LASF33
 4871 01c4 0F       		.byte	0xf
 4872 01c5 C2       		.byte	0xc2
 4873 01c6 22       		.byte	0x22
 4874 01c7 98080000 		.4byte	0x898
 4875 01cb 10       		.byte	0x10
 4876 01cc 03       		.uleb128 0x3
 4877 01cd 18080000 		.4byte	.LASF34
 4878 01d1 0F       		.byte	0xf
 4879 01d2 C8       		.byte	0xc8
 4880 01d3 22       		.byte	0x22
 4881 01d4 9D080000 		.4byte	0x89d
 4882 01d8 14       		.byte	0x14
 4883 01d9 03       		.uleb128 0x3
 4884 01da B7090000 		.4byte	.LASF35
 4885 01de 0F       		.byte	0xf
 4886 01df CD       		.byte	0xcd
 4887 01e0 21       		.byte	0x21
 4888 01e1 9D080000 		.4byte	0x89d
 4889 01e5 18       		.byte	0x18
 4890 01e6 03       		.uleb128 0x3
 4891 01e7 CD010000 		.4byte	.LASF36
 4892 01eb 0F       		.byte	0xf
 4893 01ec D1       		.byte	0xd1
 4894 01ed 21       		.byte	0x21
 4895 01ee 38010000 		.4byte	0x138
 4896 01f2 1C       		.byte	0x1c
 4897 01f3 03       		.uleb128 0x3
 4898 01f4 F1090000 		.4byte	.LASF37
 4899 01f8 0F       		.byte	0xf
 4900 01f9 D5       		.byte	0xd5
 4901 01fa 21       		.byte	0x21
ARM GAS  C:\Users\DEVELO~1\AppData\Local\Temp\ccUBlV4P.s 			page 87


 4902 01fb 2C010000 		.4byte	0x12c
 4903 01ff 1D       		.byte	0x1d
 4904 0200 03       		.uleb128 0x3
 4905 0201 BD060000 		.4byte	.LASF38
 4906 0205 0F       		.byte	0xf
 4907 0206 DA       		.byte	0xda
 4908 0207 21       		.byte	0x21
 4909 0208 44010000 		.4byte	0x144
 4910 020c 1E       		.byte	0x1e
 4911 020d 03       		.uleb128 0x3
 4912 020e 4E040000 		.4byte	.LASF39
 4913 0212 0F       		.byte	0xf
 4914 0213 DE       		.byte	0xde
 4915 0214 22       		.byte	0x22
 4916 0215 C9000000 		.4byte	0xc9
 4917 0219 20       		.byte	0x20
 4918 021a 03       		.uleb128 0x3
 4919 021b 73030000 		.4byte	.LASF40
 4920 021f 0F       		.byte	0xf
 4921 0220 E2       		.byte	0xe2
 4922 0221 21       		.byte	0x21
 4923 0222 06060000 		.4byte	0x606
 4924 0226 24       		.byte	0x24
 4925 0227 03       		.uleb128 0x3
 4926 0228 C0000000 		.4byte	.LASF41
 4927 022c 0F       		.byte	0xf
 4928 022d E8       		.byte	0xe8
 4929 022e 21       		.byte	0x21
 4930 022f 78070000 		.4byte	0x778
 4931 0233 2C       		.byte	0x2c
 4932 0234 03       		.uleb128 0x3
 4933 0235 4E000000 		.4byte	.LASF42
 4934 0239 0F       		.byte	0xf
 4935 023a EE       		.byte	0xee
 4936 023b 22       		.byte	0x22
 4937 023c BB000000 		.4byte	0xbb
 4938 0240 30       		.byte	0x30
 4939 0241 16       		.uleb128 0x16
 4940 0242 7500     		.ascii	"u\000"
 4941 0244 0F       		.byte	0xf
 4942 0245 3F01     		.2byte	0x13f
 4943 0247 21       		.byte	0x21
 4944 0248 C1070000 		.4byte	0x7c1
 4945 024c 34       		.byte	0x34
 4946 024d 0C       		.uleb128 0xc
 4947 024e 03030000 		.4byte	.LASF43
 4948 0252 4401     		.2byte	0x144
 4949 0254 21       		.byte	0x21
 4950 0255 DA050000 		.4byte	0x5da
 4951 0259 38       		.byte	0x38
 4952 025a 0C       		.uleb128 0xc
 4953 025b 3D030000 		.4byte	.LASF44
 4954 025f 4A01     		.2byte	0x14a
 4955 0261 21       		.byte	0x21
 4956 0262 06060000 		.4byte	0x606
 4957 0266 3C       		.byte	0x3c
 4958 0267 0C       		.uleb128 0xc
ARM GAS  C:\Users\DEVELO~1\AppData\Local\Temp\ccUBlV4P.s 			page 88


 4959 0268 BD040000 		.4byte	.LASF45
 4960 026c 5001     		.2byte	0x150
 4961 026e 21       		.byte	0x21
 4962 026f 68010000 		.4byte	0x168
 4963 0273 44       		.byte	0x44
 4964 0274 0C       		.uleb128 0xc
 4965 0275 5C0A0000 		.4byte	.LASF46
 4966 0279 5701     		.2byte	0x157
 4967 027b 22       		.byte	0x22
 4968 027c 93080000 		.4byte	0x893
 4969 0280 48       		.byte	0x48
 4970 0281 0C       		.uleb128 0xc
 4971 0282 8C050000 		.4byte	.LASF47
 4972 0286 5B01     		.2byte	0x15b
 4973 0288 21       		.byte	0x21
 4974 0289 50010000 		.4byte	0x150
 4975 028d 4C       		.byte	0x4c
 4976 028e 00       		.byte	0
 4977 028f 04       		.uleb128 0x4
 4978 0290 B7010000 		.4byte	.LASF48
 4979 0294 0E       		.byte	0xe
 4980 0295 8A       		.byte	0x8a
 4981 0296 1F       		.byte	0x1f
 4982 0297 9B020000 		.4byte	0x29b
 4983 029b 48       		.uleb128 0x48
 4984 029c D5080000 		.4byte	.LASF50
 4985 02a0 F008     		.2byte	0x8f0
 4986 02a2 0F       		.byte	0xf
 4987 02a3 9701     		.2byte	0x197
 4988 02a5 08       		.byte	0x8
 4989 02a6 2E030000 		.4byte	0x32e
 4990 02aa 0C       		.uleb128 0xc
 4991 02ab BD090000 		.4byte	.LASF51
 4992 02af 9B01     		.2byte	0x19b
 4993 02b1 21       		.byte	0x21
 4994 02b2 CB080000 		.4byte	0x8cb
 4995 02b6 00       		.byte	0
 4996 02b7 0C       		.uleb128 0xc
 4997 02b8 61000000 		.4byte	.LASF52
 4998 02bc 9F01     		.2byte	0x19f
 4999 02be 21       		.byte	0x21
 5000 02bf 12070000 		.4byte	0x712
 5001 02c3 10       		.byte	0x10
 5002 02c4 0C       		.uleb128 0xc
 5003 02c5 04090000 		.4byte	.LASF53
 5004 02c9 A601     		.2byte	0x1a6
 5005 02cb 21       		.byte	0x21
 5006 02cc 39070000 		.4byte	0x739
 5007 02d0 30       		.byte	0x30
 5008 02d1 0C       		.uleb128 0xc
 5009 02d2 2F030000 		.4byte	.LASF54
 5010 02d6 AB01     		.2byte	0x1ab
 5011 02d8 21       		.byte	0x21
 5012 02d9 80010000 		.4byte	0x180
 5013 02dd 38       		.byte	0x38
 5014 02de 0C       		.uleb128 0xc
 5015 02df 2E000000 		.4byte	.LASF55
ARM GAS  C:\Users\DEVELO~1\AppData\Local\Temp\ccUBlV4P.s 			page 89


 5016 02e3 B101     		.2byte	0x1b1
 5017 02e5 21       		.byte	0x21
 5018 02e6 55030000 		.4byte	0x355
 5019 02ea 3C       		.byte	0x3c
 5020 02eb 0C       		.uleb128 0xc
 5021 02ec 57030000 		.4byte	.LASF56
 5022 02f0 B601     		.2byte	0x1b6
 5023 02f2 22       		.byte	0x22
 5024 02f3 36090000 		.4byte	0x936
 5025 02f7 40       		.byte	0x40
 5026 02f8 0C       		.uleb128 0xc
 5027 02f9 A30A0000 		.4byte	.LASF57
 5028 02fd BA01     		.2byte	0x1ba
 5029 02ff 21       		.byte	0x21
 5030 0300 8C010000 		.4byte	0x18c
 5031 0304 44       		.byte	0x44
 5032 0305 0C       		.uleb128 0xc
 5033 0306 F5000000 		.4byte	.LASF58
 5034 030a BF01     		.2byte	0x1bf
 5035 030c 21       		.byte	0x21
 5036 030d 8C010000 		.4byte	0x18c
 5037 0311 94       		.byte	0x94
 5038 0312 16       		.uleb128 0x16
 5039 0313 64626700 		.ascii	"dbg\000"
 5040 0317 0F       		.byte	0xf
 5041 0318 C401     		.2byte	0x1c4
 5042 031a 21       		.byte	0x21
 5043 031b 7C030000 		.4byte	0x37c
 5044 031f E4       		.byte	0xe4
 5045 0320 0C       		.uleb128 0xc
 5046 0321 2E0A0000 		.4byte	.LASF59
 5047 0325 C901     		.2byte	0x1c9
 5048 0327 21       		.byte	0x21
 5049 0328 27050000 		.4byte	0x527
 5050 032c E8       		.byte	0xe8
 5051 032d 00       		.byte	0
 5052 032e 04       		.uleb128 0x4
 5053 032f AA050000 		.4byte	.LASF60
 5054 0333 10       		.byte	0x10
 5055 0334 3F       		.byte	0x3f
 5056 0335 12       		.byte	0x12
 5057 0336 F7000000 		.4byte	0xf7
 5058 033a 15       		.uleb128 0x15
 5059 033b B5060000 		.4byte	.LASF61
 5060 033f 04       		.byte	0x4
 5061 0340 10       		.byte	0x10
 5062 0341 44       		.byte	0x44
 5063 0342 10       		.byte	0x10
 5064 0343 55030000 		.4byte	0x355
 5065 0347 03       		.uleb128 0x3
 5066 0348 FE020000 		.4byte	.LASF62
 5067 034c 10       		.byte	0x10
 5068 034d 48       		.byte	0x48
 5069 034e 21       		.byte	0x21
 5070 034f 2E030000 		.4byte	0x32e
 5071 0353 00       		.byte	0
 5072 0354 00       		.byte	0
ARM GAS  C:\Users\DEVELO~1\AppData\Local\Temp\ccUBlV4P.s 			page 90


 5073 0355 04       		.uleb128 0x4
 5074 0356 1F070000 		.4byte	.LASF63
 5075 035a 10       		.byte	0x10
 5076 035b 49       		.byte	0x49
 5077 035c 03       		.byte	0x3
 5078 035d 3A030000 		.4byte	0x33a
 5079 0361 15       		.uleb128 0x15
 5080 0362 DB060000 		.4byte	.LASF64
 5081 0366 04       		.byte	0x4
 5082 0367 11       		.byte	0x11
 5083 0368 3E       		.byte	0x3e
 5084 0369 10       		.byte	0x10
 5085 036a 7C030000 		.4byte	0x37c
 5086 036e 03       		.uleb128 0x3
 5087 036f C4080000 		.4byte	.LASF65
 5088 0373 11       		.byte	0x11
 5089 0374 46       		.byte	0x46
 5090 0375 24       		.byte	0x24
 5091 0376 CE000000 		.4byte	0xce
 5092 037a 00       		.byte	0
 5093 037b 00       		.byte	0
 5094 037c 04       		.uleb128 0x4
 5095 037d 5E030000 		.4byte	.LASF66
 5096 0381 11       		.byte	0x11
 5097 0382 51       		.byte	0x51
 5098 0383 03       		.byte	0x3
 5099 0384 61030000 		.4byte	0x361
 5100 0388 04       		.uleb128 0x4
 5101 0389 8C080000 		.4byte	.LASF67
 5102 038d 09       		.byte	0x9
 5103 038e 6D       		.byte	0x6d
 5104 038f 12       		.byte	0x12
 5105 0390 F7000000 		.4byte	0xf7
 5106 0394 04       		.uleb128 0x4
 5107 0395 02020000 		.4byte	.LASF68
 5108 0399 09       		.byte	0x9
 5109 039a 79       		.byte	0x79
 5110 039b 12       		.byte	0x12
 5111 039c F7000000 		.4byte	0xf7
 5112 03a0 0B       		.uleb128 0xb
 5113 03a1 D3000000 		.4byte	0xd3
 5114 03a5 1F       		.uleb128 0x1f
 5115 03a6 08       		.byte	0x8
 5116 03a7 12       		.byte	0x12
 5117 03a8 83       		.byte	0x83
 5118 03a9 05       		.byte	0x5
 5119 03aa C9030000 		.4byte	0x3c9
 5120 03ae 17       		.uleb128 0x17
 5121 03af 6E747000 		.ascii	"ntp\000"
 5122 03b3 12       		.byte	0x12
 5123 03b4 87       		.byte	0x87
 5124 03b5 1E       		.byte	0x1e
 5125 03b6 C9030000 		.4byte	0x3c9
 5126 03ba 00       		.byte	0
 5127 03bb 03       		.uleb128 0x3
 5128 03bc 54070000 		.4byte	.LASF69
 5129 03c0 12       		.byte	0x12
ARM GAS  C:\Users\DEVELO~1\AppData\Local\Temp\ccUBlV4P.s 			page 91


 5130 03c1 8B       		.byte	0x8b
 5131 03c2 1E       		.byte	0x1e
 5132 03c3 BB000000 		.4byte	0xbb
 5133 03c7 04       		.byte	0x4
 5134 03c8 00       		.byte	0
 5135 03c9 0B       		.uleb128 0xb
 5136 03ca 8C010000 		.4byte	0x18c
 5137 03ce 1F       		.uleb128 0x1f
 5138 03cf 08       		.byte	0x8
 5139 03d0 12       		.byte	0x12
 5140 03d1 90       		.byte	0x90
 5141 03d2 05       		.byte	0x5
 5142 03d3 F1030000 		.4byte	0x3f1
 5143 03d7 17       		.uleb128 0x17
 5144 03d8 747000   		.ascii	"tp\000"
 5145 03db 12       		.byte	0x12
 5146 03dc 94       		.byte	0x94
 5147 03dd 1E       		.byte	0x1e
 5148 03de C9030000 		.4byte	0x3c9
 5149 03e2 00       		.byte	0
 5150 03e3 17       		.uleb128 0x17
 5151 03e4 6D736700 		.ascii	"msg\000"
 5152 03e8 12       		.byte	0x12
 5153 03e9 98       		.byte	0x98
 5154 03ea 1D       		.byte	0x1d
 5155 03eb 5C010000 		.4byte	0x15c
 5156 03ef 04       		.byte	0x4
 5157 03f0 00       		.byte	0
 5158 03f1 1F       		.uleb128 0x1f
 5159 03f2 04       		.byte	0x4
 5160 03f3 12       		.byte	0x12
 5161 03f4 9D       		.byte	0x9d
 5162 03f5 05       		.byte	0x5
 5163 03f6 08040000 		.4byte	0x408
 5164 03fa 03       		.uleb128 0x3
 5165 03fb 4E040000 		.4byte	.LASF39
 5166 03ff 12       		.byte	0x12
 5167 0400 A1       		.byte	0xa1
 5168 0401 1E       		.byte	0x1e
 5169 0402 C9000000 		.4byte	0xc9
 5170 0406 00       		.byte	0
 5171 0407 00       		.byte	0
 5172 0408 1F       		.uleb128 0x1f
 5173 0409 04       		.byte	0x4
 5174 040a 12       		.byte	0x12
 5175 040b A6       		.byte	0xa6
 5176 040c 05       		.byte	0x5
 5177 040d 1F040000 		.4byte	0x41f
 5178 0411 03       		.uleb128 0x3
 5179 0412 07070000 		.4byte	.LASF70
 5180 0416 12       		.byte	0x12
 5181 0417 AA       		.byte	0xaa
 5182 0418 1E       		.byte	0x1e
 5183 0419 C9000000 		.4byte	0xc9
 5184 041d 00       		.byte	0
 5185 041e 00       		.byte	0
 5186 041f 1F       		.uleb128 0x1f
ARM GAS  C:\Users\DEVELO~1\AppData\Local\Temp\ccUBlV4P.s 			page 92


 5187 0420 08       		.byte	0x8
 5188 0421 12       		.byte	0x12
 5189 0422 AF       		.byte	0xaf
 5190 0423 05       		.byte	0x5
 5191 0424 43040000 		.4byte	0x443
 5192 0428 17       		.uleb128 0x17
 5193 0429 75703100 		.ascii	"up1\000"
 5194 042d 12       		.byte	0x12
 5195 042e B3       		.byte	0xb3
 5196 042f 1E       		.byte	0x1e
 5197 0430 BB000000 		.4byte	0xbb
 5198 0434 00       		.byte	0
 5199 0435 17       		.uleb128 0x17
 5200 0436 75703200 		.ascii	"up2\000"
 5201 043a 12       		.byte	0x12
 5202 043b B7       		.byte	0xb7
 5203 043c 1E       		.byte	0x1e
 5204 043d BB000000 		.4byte	0xbb
 5205 0441 04       		.byte	0x4
 5206 0442 00       		.byte	0
 5207 0443 39       		.uleb128 0x39
 5208 0444 08       		.byte	0x8
 5209 0445 12       		.byte	0x12
 5210 0446 7F       		.byte	0x7f
 5211 0447 81040000 		.4byte	0x481
 5212 044b 31       		.uleb128 0x31
 5213 044c 737700   		.ascii	"sw\000"
 5214 044f 8C       		.byte	0x8c
 5215 0450 A5030000 		.4byte	0x3a5
 5216 0454 31       		.uleb128 0x31
 5217 0455 72647900 		.ascii	"rdy\000"
 5218 0459 99       		.byte	0x99
 5219 045a CE030000 		.4byte	0x3ce
 5220 045e 31       		.uleb128 0x31
 5221 045f 69737200 		.ascii	"isr\000"
 5222 0463 A2       		.byte	0xa2
 5223 0464 F1030000 		.4byte	0x3f1
 5224 0468 27       		.uleb128 0x27
 5225 0469 BB000000 		.4byte	.LASF71
 5226 046d 12       		.byte	0x12
 5227 046e AB       		.byte	0xab
 5228 046f 07       		.byte	0x7
 5229 0470 08040000 		.4byte	0x408
 5230 0474 27       		.uleb128 0x27
 5231 0475 D6060000 		.4byte	.LASF72
 5232 0479 12       		.byte	0x12
 5233 047a B8       		.byte	0xb8
 5234 047b 07       		.byte	0x7
 5235 047c 1F040000 		.4byte	0x41f
 5236 0480 00       		.byte	0
 5237 0481 1F       		.uleb128 0x1f
 5238 0482 10       		.byte	0x10
 5239 0483 12       		.byte	0x12
 5240 0484 6C       		.byte	0x6c
 5241 0485 09       		.byte	0x9
 5242 0486 C7040000 		.4byte	0x4c7
 5243 048a 32       		.uleb128 0x32
ARM GAS  C:\Users\DEVELO~1\AppData\Local\Temp\ccUBlV4P.s 			page 93


 5244 048b 80000000 		.4byte	.LASF73
 5245 048f 70       		.byte	0x70
 5246 0490 F7000000 		.4byte	0xf7
 5247 0494 03       		.byte	0x3
 5248 0495 00       		.byte	0
 5249 0496 32       		.uleb128 0x32
 5250 0497 CD010000 		.4byte	.LASF36
 5251 049b 74       		.byte	0x74
 5252 049c F7000000 		.4byte	0xf7
 5253 04a0 05       		.byte	0x5
 5254 04a1 03       		.byte	0x3
 5255 04a2 32       		.uleb128 0x32
 5256 04a3 5A050000 		.4byte	.LASF74
 5257 04a7 7A       		.byte	0x7a
 5258 04a8 F7000000 		.4byte	0xf7
 5259 04ac 18       		.byte	0x18
 5260 04ad 08       		.byte	0x8
 5261 04ae 03       		.uleb128 0x3
 5262 04af 5C060000 		.4byte	.LASF75
 5263 04b3 12       		.byte	0x12
 5264 04b4 7E       		.byte	0x7e
 5265 04b5 19       		.byte	0x19
 5266 04b6 88030000 		.4byte	0x388
 5267 04ba 04       		.byte	0x4
 5268 04bb 17       		.uleb128 0x17
 5269 04bc 7500     		.ascii	"u\000"
 5270 04be 12       		.byte	0x12
 5271 04bf B9       		.byte	0xb9
 5272 04c0 05       		.byte	0x5
 5273 04c1 43040000 		.4byte	0x443
 5274 04c5 08       		.byte	0x8
 5275 04c6 00       		.byte	0
 5276 04c7 04       		.uleb128 0x4
 5277 04c8 A2000000 		.4byte	.LASF76
 5278 04cc 12       		.byte	0x12
 5279 04cd BA       		.byte	0xba
 5280 04ce 03       		.byte	0x3
 5281 04cf 81040000 		.4byte	0x481
 5282 04d3 49       		.uleb128 0x49
 5283 04d4 0808     		.2byte	0x808
 5284 04d6 12       		.byte	0x12
 5285 04d7 C0       		.byte	0xc0
 5286 04d8 09       		.byte	0x9
 5287 04d9 12050000 		.4byte	0x512
 5288 04dd 03       		.uleb128 0x3
 5289 04de 0F060000 		.4byte	.LASF77
 5290 04e2 12       		.byte	0x12
 5291 04e3 C4       		.byte	0xc4
 5292 04e4 19       		.byte	0x19
 5293 04e5 DF000000 		.4byte	0xdf
 5294 04e9 00       		.byte	0
 5295 04ea 03       		.uleb128 0x3
 5296 04eb 70040000 		.4byte	.LASF78
 5297 04ef 12       		.byte	0x12
 5298 04f0 C8       		.byte	0xc8
 5299 04f1 19       		.byte	0x19
 5300 04f2 DF000000 		.4byte	0xdf
ARM GAS  C:\Users\DEVELO~1\AppData\Local\Temp\ccUBlV4P.s 			page 94


 5301 04f6 02       		.byte	0x2
 5302 04f7 17       		.uleb128 0x17
 5303 04f8 70747200 		.ascii	"ptr\000"
 5304 04fc 12       		.byte	0x12
 5305 04fd CC       		.byte	0xcc
 5306 04fe 1A       		.byte	0x1a
 5307 04ff 12050000 		.4byte	0x512
 5308 0503 04       		.byte	0x4
 5309 0504 03       		.uleb128 0x3
 5310 0505 96080000 		.4byte	.LASF79
 5311 0509 12       		.byte	0x12
 5312 050a D0       		.byte	0xd0
 5313 050b 19       		.byte	0x19
 5314 050c 17050000 		.4byte	0x517
 5315 0510 08       		.byte	0x8
 5316 0511 00       		.byte	0
 5317 0512 0B       		.uleb128 0xb
 5318 0513 C7040000 		.4byte	0x4c7
 5319 0517 11       		.uleb128 0x11
 5320 0518 C7040000 		.4byte	0x4c7
 5321 051c 27050000 		.4byte	0x527
 5322 0520 12       		.uleb128 0x12
 5323 0521 39000000 		.4byte	0x39
 5324 0525 7F       		.byte	0x7f
 5325 0526 00       		.byte	0
 5326 0527 04       		.uleb128 0x4
 5327 0528 4D020000 		.4byte	.LASF80
 5328 052c 12       		.byte	0x12
 5329 052d D1       		.byte	0xd1
 5330 052e 03       		.byte	0x3
 5331 052f D3040000 		.4byte	0x4d3
 5332 0533 2C       		.uleb128 0x2c
 5333 0534 55000000 		.4byte	.LASF81
 5334 0538 24       		.byte	0x24
 5335 0539 04       		.byte	0x4
 5336 053a 3F02     		.2byte	0x23f
 5337 053c 08       		.byte	0x8
 5338 053d B9050000 		.4byte	0x5b9
 5339 0541 16       		.uleb128 0x16
 5340 0542 723400   		.ascii	"r4\000"
 5341 0545 04       		.byte	0x4
 5342 0546 5202     		.2byte	0x252
 5343 0548 11       		.byte	0x11
 5344 0549 F7000000 		.4byte	0xf7
 5345 054d 00       		.byte	0
 5346 054e 16       		.uleb128 0x16
 5347 054f 723500   		.ascii	"r5\000"
 5348 0552 04       		.byte	0x4
 5349 0553 5302     		.2byte	0x253
 5350 0555 11       		.byte	0x11
 5351 0556 F7000000 		.4byte	0xf7
 5352 055a 04       		.byte	0x4
 5353 055b 16       		.uleb128 0x16
 5354 055c 723600   		.ascii	"r6\000"
 5355 055f 04       		.byte	0x4
 5356 0560 5402     		.2byte	0x254
 5357 0562 11       		.byte	0x11
ARM GAS  C:\Users\DEVELO~1\AppData\Local\Temp\ccUBlV4P.s 			page 95


 5358 0563 F7000000 		.4byte	0xf7
 5359 0567 08       		.byte	0x8
 5360 0568 16       		.uleb128 0x16
 5361 0569 723700   		.ascii	"r7\000"
 5362 056c 04       		.byte	0x4
 5363 056d 5502     		.2byte	0x255
 5364 056f 11       		.byte	0x11
 5365 0570 F7000000 		.4byte	0xf7
 5366 0574 0C       		.byte	0xc
 5367 0575 16       		.uleb128 0x16
 5368 0576 723800   		.ascii	"r8\000"
 5369 0579 04       		.byte	0x4
 5370 057a 5602     		.2byte	0x256
 5371 057c 11       		.byte	0x11
 5372 057d F7000000 		.4byte	0xf7
 5373 0581 10       		.byte	0x10
 5374 0582 16       		.uleb128 0x16
 5375 0583 723900   		.ascii	"r9\000"
 5376 0586 04       		.byte	0x4
 5377 0587 5702     		.2byte	0x257
 5378 0589 11       		.byte	0x11
 5379 058a F7000000 		.4byte	0xf7
 5380 058e 14       		.byte	0x14
 5381 058f 16       		.uleb128 0x16
 5382 0590 72313000 		.ascii	"r10\000"
 5383 0594 04       		.byte	0x4
 5384 0595 5802     		.2byte	0x258
 5385 0597 11       		.byte	0x11
 5386 0598 F7000000 		.4byte	0xf7
 5387 059c 18       		.byte	0x18
 5388 059d 16       		.uleb128 0x16
 5389 059e 72313100 		.ascii	"r11\000"
 5390 05a2 04       		.byte	0x4
 5391 05a3 5902     		.2byte	0x259
 5392 05a5 11       		.byte	0x11
 5393 05a6 F7000000 		.4byte	0xf7
 5394 05aa 1C       		.byte	0x1c
 5395 05ab 16       		.uleb128 0x16
 5396 05ac 6C7200   		.ascii	"lr\000"
 5397 05af 04       		.byte	0x4
 5398 05b0 5A02     		.2byte	0x25a
 5399 05b2 11       		.byte	0x11
 5400 05b3 F7000000 		.4byte	0xf7
 5401 05b7 20       		.byte	0x20
 5402 05b8 00       		.byte	0
 5403 05b9 2C       		.uleb128 0x2c
 5404 05ba 22030000 		.4byte	.LASF82
 5405 05be 04       		.byte	0x4
 5406 05bf 04       		.byte	0x4
 5407 05c0 6302     		.2byte	0x263
 5408 05c2 08       		.byte	0x8
 5409 05c3 D5050000 		.4byte	0x5d5
 5410 05c7 16       		.uleb128 0x16
 5411 05c8 737000   		.ascii	"sp\000"
 5412 05cb 04       		.byte	0x4
 5413 05cc 6402     		.2byte	0x264
 5414 05ce 1A       		.byte	0x1a
ARM GAS  C:\Users\DEVELO~1\AppData\Local\Temp\ccUBlV4P.s 			page 96


 5415 05cf D5050000 		.4byte	0x5d5
 5416 05d3 00       		.byte	0
 5417 05d4 00       		.byte	0
 5418 05d5 0B       		.uleb128 0xb
 5419 05d6 33050000 		.4byte	0x533
 5420 05da 04       		.uleb128 0x4
 5421 05db F4050000 		.4byte	.LASF83
 5422 05df 02       		.byte	0x2
 5423 05e0 32       		.byte	0x32
 5424 05e1 18       		.byte	0x18
 5425 05e2 E6050000 		.4byte	0x5e6
 5426 05e6 15       		.uleb128 0x15
 5427 05e7 F2040000 		.4byte	.LASF84
 5428 05eb 04       		.byte	0x4
 5429 05ec 02       		.byte	0x2
 5430 05ed 38       		.byte	0x38
 5431 05ee 08       		.byte	0x8
 5432 05ef 01060000 		.4byte	0x601
 5433 05f3 03       		.uleb128 0x3
 5434 05f4 0E010000 		.4byte	.LASF85
 5435 05f8 02       		.byte	0x2
 5436 05f9 39       		.byte	0x39
 5437 05fa 1A       		.byte	0x1a
 5438 05fb 01060000 		.4byte	0x601
 5439 05ff 00       		.byte	0
 5440 0600 00       		.byte	0
 5441 0601 0B       		.uleb128 0xb
 5442 0602 DA050000 		.4byte	0x5da
 5443 0606 04       		.uleb128 0x4
 5444 0607 7A030000 		.4byte	.LASF86
 5445 060b 02       		.byte	0x2
 5446 060c 3F       		.byte	0x3f
 5447 060d 19       		.byte	0x19
 5448 060e 17060000 		.4byte	0x617
 5449 0612 0D       		.uleb128 0xd
 5450 0613 06060000 		.4byte	0x606
 5451 0617 15       		.uleb128 0x15
 5452 0618 1C020000 		.4byte	.LASF87
 5453 061c 08       		.byte	0x8
 5454 061d 02       		.byte	0x2
 5455 061e 45       		.byte	0x45
 5456 061f 08       		.byte	0x8
 5457 0620 3F060000 		.4byte	0x63f
 5458 0624 03       		.uleb128 0x3
 5459 0625 0E010000 		.4byte	.LASF85
 5460 0629 02       		.byte	0x2
 5461 062a 46       		.byte	0x46
 5462 062b 1A       		.byte	0x1a
 5463 062c 3F060000 		.4byte	0x63f
 5464 0630 00       		.byte	0
 5465 0631 03       		.uleb128 0x3
 5466 0632 00000000 		.4byte	.LASF88
 5467 0636 02       		.byte	0x2
 5468 0637 47       		.byte	0x47
 5469 0638 1A       		.byte	0x1a
 5470 0639 3F060000 		.4byte	0x63f
 5471 063d 04       		.byte	0x4
ARM GAS  C:\Users\DEVELO~1\AppData\Local\Temp\ccUBlV4P.s 			page 97


 5472 063e 00       		.byte	0
 5473 063f 0B       		.uleb128 0xb
 5474 0640 06060000 		.4byte	0x606
 5475 0644 04       		.uleb128 0x4
 5476 0645 9D080000 		.4byte	.LASF89
 5477 0649 02       		.byte	0x2
 5478 064a 4E       		.byte	0x4e
 5479 064b 22       		.byte	0x22
 5480 064c 50060000 		.4byte	0x650
 5481 0650 15       		.uleb128 0x15
 5482 0651 0C090000 		.4byte	.LASF90
 5483 0655 0C       		.byte	0xc
 5484 0656 02       		.byte	0x2
 5485 0657 55       		.byte	0x55
 5486 0658 08       		.byte	0x8
 5487 0659 85060000 		.4byte	0x685
 5488 065d 03       		.uleb128 0x3
 5489 065e 0E010000 		.4byte	.LASF85
 5490 0662 02       		.byte	0x2
 5491 0663 56       		.byte	0x56
 5492 0664 1A       		.byte	0x1a
 5493 0665 85060000 		.4byte	0x685
 5494 0669 00       		.byte	0
 5495 066a 03       		.uleb128 0x3
 5496 066b 00000000 		.4byte	.LASF88
 5497 066f 02       		.byte	0x2
 5498 0670 57       		.byte	0x57
 5499 0671 1A       		.byte	0x1a
 5500 0672 85060000 		.4byte	0x685
 5501 0676 04       		.byte	0x4
 5502 0677 03       		.uleb128 0x3
 5503 0678 61060000 		.4byte	.LASF91
 5504 067c 02       		.byte	0x2
 5505 067d 58       		.byte	0x58
 5506 067e 19       		.byte	0x19
 5507 067f 50010000 		.4byte	0x150
 5508 0683 08       		.byte	0x8
 5509 0684 00       		.byte	0
 5510 0685 0B       		.uleb128 0xb
 5511 0686 44060000 		.4byte	0x644
 5512 068a 04       		.uleb128 0x4
 5513 068b 65090000 		.4byte	.LASF92
 5514 068f 02       		.byte	0x2
 5515 0690 5F       		.byte	0x5f
 5516 0691 1E       		.byte	0x1e
 5517 0692 96060000 		.4byte	0x696
 5518 0696 15       		.uleb128 0x15
 5519 0697 7C010000 		.4byte	.LASF93
 5520 069b 0C       		.byte	0xc
 5521 069c 02       		.byte	0x2
 5522 069d 64       		.byte	0x64
 5523 069e 08       		.byte	0x8
 5524 069f CB060000 		.4byte	0x6cb
 5525 06a3 03       		.uleb128 0x3
 5526 06a4 0E010000 		.4byte	.LASF85
 5527 06a8 02       		.byte	0x2
 5528 06a9 65       		.byte	0x65
ARM GAS  C:\Users\DEVELO~1\AppData\Local\Temp\ccUBlV4P.s 			page 98


 5529 06aa 1A       		.byte	0x1a
 5530 06ab CB060000 		.4byte	0x6cb
 5531 06af 00       		.byte	0
 5532 06b0 03       		.uleb128 0x3
 5533 06b1 00000000 		.4byte	.LASF88
 5534 06b5 02       		.byte	0x2
 5535 06b6 66       		.byte	0x66
 5536 06b7 1A       		.byte	0x1a
 5537 06b8 CB060000 		.4byte	0x6cb
 5538 06bc 04       		.byte	0x4
 5539 06bd 03       		.uleb128 0x3
 5540 06be 08010000 		.4byte	.LASF94
 5541 06c2 02       		.byte	0x2
 5542 06c3 67       		.byte	0x67
 5543 06c4 19       		.byte	0x19
 5544 06c5 94030000 		.4byte	0x394
 5545 06c9 08       		.byte	0x8
 5546 06ca 00       		.byte	0
 5547 06cb 0B       		.uleb128 0xb
 5548 06cc 8A060000 		.4byte	0x68a
 5549 06d0 15       		.uleb128 0x15
 5550 06d1 C9050000 		.4byte	.LASF95
 5551 06d5 20       		.byte	0x20
 5552 06d6 0F       		.byte	0xf
 5553 06d7 64       		.byte	0x64
 5554 06d8 10       		.byte	0x10
 5555 06d9 12070000 		.4byte	0x712
 5556 06dd 03       		.uleb128 0x3
 5557 06de 86080000 		.4byte	.LASF96
 5558 06e2 0F       		.byte	0xf
 5559 06e3 68       		.byte	0x68
 5560 06e4 21       		.byte	0x21
 5561 06e5 8A060000 		.4byte	0x68a
 5562 06e9 00       		.byte	0
 5563 06ea 03       		.uleb128 0x3
 5564 06eb 4B070000 		.4byte	.LASF97
 5565 06ef 0F       		.byte	0xf
 5566 06f0 73       		.byte	0x73
 5567 06f1 21       		.byte	0x21
 5568 06f2 88030000 		.4byte	0x388
 5569 06f6 0C       		.byte	0xc
 5570 06f7 03       		.uleb128 0x3
 5571 06f8 99060000 		.4byte	.LASF98
 5572 06fc 0F       		.byte	0xf
 5573 06fd 7B       		.byte	0x7b
 5574 06fe 21       		.byte	0x21
 5575 06ff 94030000 		.4byte	0x394
 5576 0703 10       		.byte	0x10
 5577 0704 03       		.uleb128 0x3
 5578 0705 6D050000 		.4byte	.LASF99
 5579 0709 0F       		.byte	0xf
 5580 070a 81       		.byte	0x81
 5581 070b 21       		.byte	0x21
 5582 070c 0F010000 		.4byte	0x10f
 5583 0710 18       		.byte	0x18
 5584 0711 00       		.byte	0
 5585 0712 04       		.uleb128 0x4
ARM GAS  C:\Users\DEVELO~1\AppData\Local\Temp\ccUBlV4P.s 			page 99


 5586 0713 32050000 		.4byte	.LASF100
 5587 0717 0F       		.byte	0xf
 5588 0718 83       		.byte	0x83
 5589 0719 03       		.byte	0x3
 5590 071a D0060000 		.4byte	0x6d0
 5591 071e 15       		.uleb128 0x15
 5592 071f 6E020000 		.4byte	.LASF101
 5593 0723 08       		.byte	0x8
 5594 0724 0F       		.byte	0xf
 5595 0725 88       		.byte	0x88
 5596 0726 10       		.byte	0x10
 5597 0727 39070000 		.4byte	0x739
 5598 072b 03       		.uleb128 0x3
 5599 072c 61040000 		.4byte	.LASF102
 5600 0730 0F       		.byte	0xf
 5601 0731 8C       		.byte	0x8c
 5602 0732 21       		.byte	0x21
 5603 0733 06060000 		.4byte	0x606
 5604 0737 00       		.byte	0
 5605 0738 00       		.byte	0
 5606 0739 04       		.uleb128 0x4
 5607 073a D2070000 		.4byte	.LASF103
 5608 073e 0F       		.byte	0xf
 5609 073f 8D       		.byte	0x8d
 5610 0740 03       		.byte	0x3
 5611 0741 1E070000 		.4byte	0x71e
 5612 0745 04       		.uleb128 0x4
 5613 0746 B6050000 		.4byte	.LASF104
 5614 074a 0F       		.byte	0xf
 5615 074b 92       		.byte	0x92
 5616 074c 14       		.byte	0x14
 5617 074d C9030000 		.4byte	0x3c9
 5618 0751 15       		.uleb128 0x15
 5619 0752 13010000 		.4byte	.LASF105
 5620 0756 08       		.byte	0x8
 5621 0757 0F       		.byte	0xf
 5622 0758 97       		.byte	0x97
 5623 0759 10       		.byte	0x10
 5624 075a 6C070000 		.4byte	0x76c
 5625 075e 03       		.uleb128 0x3
 5626 075f 61040000 		.4byte	.LASF102
 5627 0763 0F       		.byte	0xf
 5628 0764 9B       		.byte	0x9b
 5629 0765 21       		.byte	0x21
 5630 0766 06060000 		.4byte	0x606
 5631 076a 00       		.byte	0
 5632 076b 00       		.byte	0
 5633 076c 04       		.uleb128 0x4
 5634 076d 97070000 		.4byte	.LASF106
 5635 0771 0F       		.byte	0xf
 5636 0772 9C       		.byte	0x9c
 5637 0773 03       		.byte	0x3
 5638 0774 51070000 		.4byte	0x751
 5639 0778 04       		.uleb128 0x4
 5640 0779 FE050000 		.4byte	.LASF107
 5641 077d 0F       		.byte	0xf
 5642 077e A1       		.byte	0xa1
ARM GAS  C:\Users\DEVELO~1\AppData\Local\Temp\ccUBlV4P.s 			page 100


 5643 077f 10       		.byte	0x10
 5644 0780 84070000 		.4byte	0x784
 5645 0784 0B       		.uleb128 0xb
 5646 0785 89070000 		.4byte	0x789
 5647 0789 3A       		.uleb128 0x3a
 5648 078a 94070000 		.4byte	0x794
 5649 078e 1D       		.uleb128 0x1d
 5650 078f C9030000 		.4byte	0x3c9
 5651 0793 00       		.byte	0
 5652 0794 39       		.uleb128 0x39
 5653 0795 0C       		.byte	0xc
 5654 0796 0F       		.byte	0xf
 5655 0797 AD       		.byte	0xad
 5656 0798 C1070000 		.4byte	0x7c1
 5657 079c 27       		.uleb128 0x27
 5658 079d 4D0A0000 		.4byte	.LASF108
 5659 07a1 0F       		.byte	0xf
 5660 07a2 B1       		.byte	0xb1
 5661 07a3 21       		.byte	0x21
 5662 07a4 DA050000 		.4byte	0x5da
 5663 07a8 27       		.uleb128 0x27
 5664 07a9 61040000 		.4byte	.LASF102
 5665 07ad 0F       		.byte	0xf
 5666 07ae B5       		.byte	0xb5
 5667 07af 21       		.byte	0x21
 5668 07b0 06060000 		.4byte	0x606
 5669 07b4 27       		.uleb128 0x27
 5670 07b5 CE080000 		.4byte	.LASF109
 5671 07b9 0F       		.byte	0xf
 5672 07ba B9       		.byte	0xb9
 5673 07bb 21       		.byte	0x21
 5674 07bc 44060000 		.4byte	0x644
 5675 07c0 00       		.byte	0
 5676 07c1 4A       		.uleb128 0x4a
 5677 07c2 04       		.byte	0x4
 5678 07c3 0F       		.byte	0xf
 5679 07c4 0201     		.2byte	0x102
 5680 07c6 03       		.byte	0x3
 5681 07c7 2C080000 		.4byte	0x82c
 5682 07cb 1E       		.uleb128 0x1e
 5683 07cc 21000000 		.4byte	.LASF110
 5684 07d0 0901     		.2byte	0x109
 5685 07d2 21       		.byte	0x21
 5686 07d3 5C010000 		.4byte	0x15c
 5687 07d7 1E       		.uleb128 0x1e
 5688 07d8 D7000000 		.4byte	.LASF111
 5689 07dc 1001     		.2byte	0x110
 5690 07de 21       		.byte	0x21
 5691 07df 5C010000 		.4byte	0x15c
 5692 07e3 1E       		.uleb128 0x1e
 5693 07e4 54070000 		.4byte	.LASF69
 5694 07e8 1701     		.2byte	0x117
 5695 07ea 22       		.byte	0x22
 5696 07eb BB000000 		.4byte	0xbb
 5697 07ef 1E       		.uleb128 0x1e
 5698 07f0 6D030000 		.4byte	.LASF112
 5699 07f4 1E01     		.2byte	0x11e
ARM GAS  C:\Users\DEVELO~1\AppData\Local\Temp\ccUBlV4P.s 			page 101


 5700 07f6 22       		.byte	0x22
 5701 07f7 2C080000 		.4byte	0x82c
 5702 07fb 1E       		.uleb128 0x1e
 5703 07fc 00010000 		.4byte	.LASF113
 5704 0800 2301     		.2byte	0x123
 5705 0802 21       		.byte	0x21
 5706 0803 5C010000 		.4byte	0x15c
 5707 0807 1E       		.uleb128 0x1e
 5708 0808 50030000 		.4byte	.LASF114
 5709 080c 2C01     		.2byte	0x12c
 5710 080e 22       		.byte	0x22
 5711 080f 59080000 		.4byte	0x859
 5712 0813 1E       		.uleb128 0x1e
 5713 0814 E6070000 		.4byte	.LASF115
 5714 0818 3501     		.2byte	0x135
 5715 081a 22       		.byte	0x22
 5716 081b 93080000 		.4byte	0x893
 5717 081f 1E       		.uleb128 0x1e
 5718 0820 5B070000 		.4byte	.LASF116
 5719 0824 3D01     		.2byte	0x13d
 5720 0826 21       		.byte	0x21
 5721 0827 68010000 		.4byte	0x168
 5722 082b 00       		.byte	0
 5723 082c 0B       		.uleb128 0xb
 5724 082d 45070000 		.4byte	0x745
 5725 0831 15       		.uleb128 0x15
 5726 0832 A7070000 		.4byte	.LASF117
 5727 0836 0C       		.byte	0xc
 5728 0837 13       		.byte	0x13
 5729 0838 34       		.byte	0x34
 5730 0839 10       		.byte	0x10
 5731 083a 59080000 		.4byte	0x859
 5732 083e 03       		.uleb128 0x3
 5733 083f 61040000 		.4byte	.LASF102
 5734 0843 13       		.byte	0x13
 5735 0844 35       		.byte	0x35
 5736 0845 19       		.byte	0x19
 5737 0846 06060000 		.4byte	0x606
 5738 084a 00       		.byte	0
 5739 084b 17       		.uleb128 0x17
 5740 084c 636E7400 		.ascii	"cnt\000"
 5741 0850 13       		.byte	0x13
 5742 0851 37       		.byte	0x37
 5743 0852 19       		.byte	0x19
 5744 0853 74010000 		.4byte	0x174
 5745 0857 08       		.byte	0x8
 5746 0858 00       		.byte	0
 5747 0859 0B       		.uleb128 0xb
 5748 085a 31080000 		.4byte	0x831
 5749 085e 15       		.uleb128 0x15
 5750 085f 0A0A0000 		.4byte	.LASF118
 5751 0863 10       		.byte	0x10
 5752 0864 14       		.byte	0x14
 5753 0865 39       		.byte	0x39
 5754 0866 08       		.byte	0x8
 5755 0867 93080000 		.4byte	0x893
 5756 086b 03       		.uleb128 0x3
ARM GAS  C:\Users\DEVELO~1\AppData\Local\Temp\ccUBlV4P.s 			page 102


 5757 086c 61040000 		.4byte	.LASF102
 5758 0870 14       		.byte	0x14
 5759 0871 3A       		.byte	0x3a
 5760 0872 19       		.byte	0x19
 5761 0873 06060000 		.4byte	0x606
 5762 0877 00       		.byte	0
 5763 0878 03       		.uleb128 0x3
 5764 0879 F7010000 		.4byte	.LASF33
 5765 087d 14       		.byte	0x14
 5766 087e 3C       		.byte	0x3c
 5767 087f 1A       		.byte	0x1a
 5768 0880 C9030000 		.4byte	0x3c9
 5769 0884 08       		.byte	0x8
 5770 0885 03       		.uleb128 0x3
 5771 0886 0E010000 		.4byte	.LASF85
 5772 088a 14       		.byte	0x14
 5773 088b 3E       		.byte	0x3e
 5774 088c 1A       		.byte	0x1a
 5775 088d E6090000 		.4byte	0x9e6
 5776 0891 0C       		.byte	0xc
 5777 0892 00       		.byte	0
 5778 0893 0B       		.uleb128 0xb
 5779 0894 5E080000 		.4byte	0x85e
 5780 0898 0B       		.uleb128 0xb
 5781 0899 8F020000 		.4byte	0x28f
 5782 089d 0B       		.uleb128 0xb
 5783 089e 20010000 		.4byte	0x120
 5784 08a2 2C       		.uleb128 0x2c
 5785 08a3 FA040000 		.4byte	.LASF119
 5786 08a7 10       		.byte	0x10
 5787 08a8 0F       		.byte	0xf
 5788 08a9 6C01     		.2byte	0x16c
 5789 08ab 10       		.byte	0x10
 5790 08ac CB080000 		.4byte	0x8cb
 5791 08b0 0C       		.uleb128 0xc
 5792 08b1 CE080000 		.4byte	.LASF109
 5793 08b5 7101     		.2byte	0x171
 5794 08b7 21       		.byte	0x21
 5795 08b8 44060000 		.4byte	0x644
 5796 08bc 00       		.byte	0
 5797 08bd 0C       		.uleb128 0xc
 5798 08be 7F060000 		.4byte	.LASF120
 5799 08c2 7501     		.2byte	0x175
 5800 08c4 22       		.byte	0x22
 5801 08c5 C9030000 		.4byte	0x3c9
 5802 08c9 0C       		.byte	0xc
 5803 08ca 00       		.byte	0
 5804 08cb 3B       		.uleb128 0x3b
 5805 08cc 0D000000 		.4byte	.LASF121
 5806 08d0 7601     		.2byte	0x176
 5807 08d2 A2080000 		.4byte	0x8a2
 5808 08d6 2C       		.uleb128 0x2c
 5809 08d7 40060000 		.4byte	.LASF122
 5810 08db 14       		.byte	0x14
 5811 08dc 0F       		.byte	0xf
 5812 08dd 7B01     		.2byte	0x17b
 5813 08df 10       		.byte	0x10
ARM GAS  C:\Users\DEVELO~1\AppData\Local\Temp\ccUBlV4P.s 			page 103


 5814 08e0 26090000 		.4byte	0x926
 5815 08e4 0C       		.uleb128 0xc
 5816 08e5 4E040000 		.4byte	.LASF39
 5817 08e9 7F01     		.2byte	0x17f
 5818 08eb 22       		.byte	0x22
 5819 08ec C9000000 		.4byte	0xc9
 5820 08f0 00       		.byte	0
 5821 08f1 0C       		.uleb128 0xc
 5822 08f2 19060000 		.4byte	.LASF123
 5823 08f6 8301     		.2byte	0x183
 5824 08f8 22       		.byte	0x22
 5825 08f9 9D080000 		.4byte	0x89d
 5826 08fd 04       		.byte	0x4
 5827 08fe 0C       		.uleb128 0xc
 5828 08ff 24010000 		.4byte	.LASF124
 5829 0903 8701     		.2byte	0x187
 5830 0905 22       		.byte	0x22
 5831 0906 9D080000 		.4byte	0x89d
 5832 090a 08       		.byte	0x8
 5833 090b 0C       		.uleb128 0xc
 5834 090c 0B030000 		.4byte	.LASF125
 5835 0910 8C01     		.2byte	0x18c
 5836 0912 22       		.byte	0x22
 5837 0913 9D080000 		.4byte	0x89d
 5838 0917 0C       		.byte	0xc
 5839 0918 0C       		.uleb128 0xc
 5840 0919 66060000 		.4byte	.LASF126
 5841 091d 9001     		.2byte	0x190
 5842 091f 22       		.byte	0x22
 5843 0920 9D080000 		.4byte	0x89d
 5844 0924 10       		.byte	0x10
 5845 0925 00       		.byte	0
 5846 0926 3B       		.uleb128 0x3b
 5847 0927 82090000 		.4byte	.LASF127
 5848 092b 9201     		.2byte	0x192
 5849 092d D6080000 		.4byte	0x8d6
 5850 0931 0D       		.uleb128 0xd
 5851 0932 26090000 		.4byte	0x926
 5852 0936 0B       		.uleb128 0xb
 5853 0937 31090000 		.4byte	0x931
 5854 093b 4B       		.uleb128 0x4b
 5855 093c 63683000 		.ascii	"ch0\000"
 5856 0940 03       		.byte	0x3
 5857 0941 1F01     		.2byte	0x11f
 5858 0943 16       		.byte	0x16
 5859 0944 8F020000 		.4byte	0x28f
 5860 0948 04       		.uleb128 0x4
 5861 0949 05000000 		.4byte	.LASF128
 5862 094d 06       		.byte	0x6
 5863 094e 34       		.byte	0x34
 5864 094f 10       		.byte	0x10
 5865 0950 54090000 		.4byte	0x954
 5866 0954 0B       		.uleb128 0xb
 5867 0955 59090000 		.4byte	0x959
 5868 0959 3A       		.uleb128 0x3a
 5869 095a 64090000 		.4byte	0x964
 5870 095e 1D       		.uleb128 0x1d
ARM GAS  C:\Users\DEVELO~1\AppData\Local\Temp\ccUBlV4P.s 			page 104


 5871 095f BB000000 		.4byte	0xbb
 5872 0963 00       		.byte	0
 5873 0964 1F       		.uleb128 0x1f
 5874 0965 1C       		.byte	0x1c
 5875 0966 06       		.byte	0x6
 5876 0967 39       		.byte	0x39
 5877 0968 09       		.byte	0x9
 5878 0969 C9090000 		.4byte	0x9c9
 5879 096d 03       		.uleb128 0x3
 5880 096e 4E040000 		.4byte	.LASF39
 5881 0972 06       		.byte	0x6
 5882 0973 3D       		.byte	0x3d
 5883 0974 22       		.byte	0x22
 5884 0975 C9000000 		.4byte	0xc9
 5885 0979 00       		.byte	0
 5886 097a 03       		.uleb128 0x3
 5887 097b 56060000 		.4byte	.LASF129
 5888 097f 06       		.byte	0x6
 5889 0980 41       		.byte	0x41
 5890 0981 22       		.byte	0x22
 5891 0982 9D080000 		.4byte	0x89d
 5892 0986 04       		.byte	0x4
 5893 0987 03       		.uleb128 0x3
 5894 0988 F9070000 		.4byte	.LASF130
 5895 098c 06       		.byte	0x6
 5896 098d 45       		.byte	0x45
 5897 098e 22       		.byte	0x22
 5898 098f 9D080000 		.4byte	0x89d
 5899 0993 08       		.byte	0x8
 5900 0994 03       		.uleb128 0x3
 5901 0995 61060000 		.4byte	.LASF91
 5902 0999 06       		.byte	0x6
 5903 099a 49       		.byte	0x49
 5904 099b 21       		.byte	0x21
 5905 099c 50010000 		.4byte	0x150
 5906 09a0 0C       		.byte	0xc
 5907 09a1 03       		.uleb128 0x3
 5908 09a2 28000000 		.4byte	.LASF131
 5909 09a6 06       		.byte	0x6
 5910 09a7 4D       		.byte	0x4d
 5911 09a8 21       		.byte	0x21
 5912 09a9 48090000 		.4byte	0x948
 5913 09ad 10       		.byte	0x10
 5914 09ae 17       		.uleb128 0x17
 5915 09af 61726700 		.ascii	"arg\000"
 5916 09b3 06       		.byte	0x6
 5917 09b4 51       		.byte	0x51
 5918 09b5 22       		.byte	0x22
 5919 09b6 BB000000 		.4byte	0xbb
 5920 09ba 14       		.byte	0x14
 5921 09bb 03       		.uleb128 0x3
 5922 09bc F7010000 		.4byte	.LASF33
 5923 09c0 06       		.byte	0x6
 5924 09c1 55       		.byte	0x55
 5925 09c2 22       		.byte	0x22
 5926 09c3 98080000 		.4byte	0x898
 5927 09c7 18       		.byte	0x18
ARM GAS  C:\Users\DEVELO~1\AppData\Local\Temp\ccUBlV4P.s 			page 105


 5928 09c8 00       		.byte	0
 5929 09c9 04       		.uleb128 0x4
 5930 09ca 85000000 		.4byte	.LASF132
 5931 09ce 06       		.byte	0x6
 5932 09cf 56       		.byte	0x56
 5933 09d0 03       		.byte	0x3
 5934 09d1 64090000 		.4byte	0x964
 5935 09d5 0D       		.uleb128 0xd
 5936 09d6 C9090000 		.4byte	0x9c9
 5937 09da 04       		.uleb128 0x4
 5938 09db 1A030000 		.4byte	.LASF133
 5939 09df 14       		.byte	0x14
 5940 09e0 34       		.byte	0x34
 5941 09e1 19       		.byte	0x19
 5942 09e2 5E080000 		.4byte	0x85e
 5943 09e6 0B       		.uleb128 0xb
 5944 09e7 DA090000 		.4byte	0x9da
 5945 09eb 14       		.uleb128 0x14
 5946 09ec 01       		.byte	0x1
 5947 09ed 02       		.byte	0x2
 5948 09ee EB060000 		.4byte	.LASF134
 5949 09f2 3C       		.uleb128 0x3c
 5950 09f3 130A0000 		.4byte	.LASF135
 5951 09f7 98       		.byte	0x98
 5952 09f8 4C       		.uleb128 0x4c
 5953 09f9 62070000 		.4byte	.LASF212
 5954 09fd 08       		.byte	0x8
 5955 09fe 3A       		.byte	0x3a
 5956 09ff 0D       		.byte	0xd
 5957 0a00 88030000 		.4byte	0x388
 5958 0a04 3D       		.uleb128 0x3d
 5959 0a05 36070000 		.4byte	.LASF139
 5960 0a09 92       		.byte	0x92
 5961 0a0a 09       		.byte	0x9
 5962 0a0b 5C010000 		.4byte	0x15c
 5963 0a0f 1E0A0000 		.4byte	0xa1e
 5964 0a13 1D       		.uleb128 0x1d
 5965 0a14 38010000 		.4byte	0x138
 5966 0a18 1D       		.uleb128 0x1d
 5967 0a19 94030000 		.4byte	0x394
 5968 0a1d 00       		.byte	0
 5969 0a1e 3C       		.uleb128 0x3c
 5970 0a1f E6010000 		.4byte	.LASF136
 5971 0a23 94       		.byte	0x94
 5972 0a24 3E       		.uleb128 0x3e
 5973 0a25 B4070000 		.4byte	.LASF137
 5974 0a29 91       		.byte	0x91
 5975 0a2a 340A0000 		.4byte	0xa34
 5976 0a2e 1D       		.uleb128 0x1d
 5977 0a2f 38010000 		.4byte	0x138
 5978 0a33 00       		.byte	0
 5979 0a34 3E       		.uleb128 0x3e
 5980 0a35 75090000 		.4byte	.LASF138
 5981 0a39 93       		.byte	0x93
 5982 0a3a 490A0000 		.4byte	0xa49
 5983 0a3e 1D       		.uleb128 0x1d
 5984 0a3f C9030000 		.4byte	0x3c9
ARM GAS  C:\Users\DEVELO~1\AppData\Local\Temp\ccUBlV4P.s 			page 106


 5985 0a43 1D       		.uleb128 0x1d
 5986 0a44 5C010000 		.4byte	0x15c
 5987 0a48 00       		.byte	0
 5988 0a49 3D       		.uleb128 0x3d
 5989 0a4a 5D080000 		.4byte	.LASF140
 5990 0a4e 90       		.byte	0x90
 5991 0a4f 0D       		.byte	0xd
 5992 0a50 C9030000 		.4byte	0x3c9
 5993 0a54 5E0A0000 		.4byte	0xa5e
 5994 0a58 1D       		.uleb128 0x1d
 5995 0a59 C9030000 		.4byte	0x3c9
 5996 0a5d 00       		.byte	0
 5997 0a5e 4D       		.uleb128 0x4d
 5998 0a5f 8F0A0000 		.4byte	.LASF141
 5999 0a63 04       		.byte	0x4
 6000 0a64 0503     		.2byte	0x305
 6001 0a66 08       		.byte	0x8
 6002 0a67 19       		.uleb128 0x19
 6003 0a68 33000000 		.4byte	.LASF142
 6004 0a6c 7A04     		.2byte	0x47a
 6005 0a6e 00000000 		.4byte	.LFB384
 6006 0a72 20000000 		.4byte	.LFE384-.LFB384
 6007 0a76 01       		.uleb128 0x1
 6008 0a77 9C       		.byte	0x9c
 6009 0a78 440B0000 		.4byte	0xb44
 6010 0a7c 0A       		.uleb128 0xa
 6011 0a7d 74717000 		.ascii	"tqp\000"
 6012 0a81 7A04     		.2byte	0x47a
 6013 0a83 28       		.byte	0x28
 6014 0a84 440B0000 		.4byte	0xb44
 6015 0a88 10000000 		.4byte	.LLST226
 6016 0a8c 0C000000 		.4byte	.LVUS226
 6017 0a90 0A       		.uleb128 0xa
 6018 0a91 6D736700 		.ascii	"msg\000"
 6019 0a95 7A04     		.2byte	0x47a
 6020 0a97 33       		.byte	0x33
 6021 0a98 5C010000 		.4byte	0x15c
 6022 0a9c 26000000 		.4byte	.LLST227
 6023 0aa0 20000000 		.4byte	.LVUS227
 6024 0aa4 06       		.uleb128 0x6
 6025 0aa5 C8280000 		.4byte	0x28c8
 6026 0aa9 04000000 		.4byte	.LBI980
 6027 0aad 00       		.byte	.LVU1553
 6028 0aae 4F030000 		.4byte	.LLRL228
 6029 0ab2 7C04     		.2byte	0x47c
 6030 0ab4 0A       		.byte	0xa
 6031 0ab5 C70A0000 		.4byte	0xac7
 6032 0ab9 01       		.uleb128 0x1
 6033 0aba D9280000 		.4byte	0x28d9
 6034 0abe 42000000 		.4byte	.LLST229
 6035 0ac2 3E000000 		.4byte	.LVUS229
 6036 0ac6 00       		.byte	0
 6037 0ac7 02       		.uleb128 0x2
 6038 0ac8 C3270000 		.4byte	0x27c3
 6039 0acc 0C000000 		.4byte	.LBI983
 6040 0ad0 01       		.byte	.LVU1559
 6041 0ad1 0C000000 		.4byte	.LBB983
ARM GAS  C:\Users\DEVELO~1\AppData\Local\Temp\ccUBlV4P.s 			page 107


 6042 0ad5 0C000000 		.4byte	.LBE983-.LBB983
 6043 0ad9 01       		.byte	0x1
 6044 0ada 7D04     		.2byte	0x47d
 6045 0adc 05       		.byte	0x5
 6046 0add 01       		.uleb128 0x1
 6047 0ade DD270000 		.4byte	0x27dd
 6048 0ae2 54000000 		.4byte	.LLST230
 6049 0ae6 52000000 		.4byte	.LVUS230
 6050 0aea 01       		.uleb128 0x1
 6051 0aeb D0270000 		.4byte	0x27d0
 6052 0aef 5F000000 		.4byte	.LLST231
 6053 0af3 5D000000 		.4byte	.LVUS231
 6054 0af7 0F       		.uleb128 0xf
 6055 0af8 EA270000 		.4byte	0x27ea
 6056 0afc 6A000000 		.4byte	.LLST232
 6057 0b00 68000000 		.4byte	.LVUS232
 6058 0b04 08       		.uleb128 0x8
 6059 0b05 7A280000 		.4byte	0x287a
 6060 0b09 0C000000 		.4byte	.LBI985
 6061 0b0d 07       		.byte	.LVU1565
 6062 0b0e 0C000000 		.4byte	.LBB985
 6063 0b12 06000000 		.4byte	.LBE985-.LBB985
 6064 0b16 06       		.byte	0x6
 6065 0b17 9D02     		.2byte	0x29d
 6066 0b19 08       		.byte	0x8
 6067 0b1a 390B0000 		.4byte	0xb39
 6068 0b1e 01       		.uleb128 0x1
 6069 0b1f 8B280000 		.4byte	0x288b
 6070 0b23 75000000 		.4byte	.LLST233
 6071 0b27 73000000 		.4byte	.LVUS233
 6072 0b2b 0F       		.uleb128 0xf
 6073 0b2c 97280000 		.4byte	0x2897
 6074 0b30 80000000 		.4byte	.LLST234
 6075 0b34 7E000000 		.4byte	.LVUS234
 6076 0b38 00       		.byte	0
 6077 0b39 20       		.uleb128 0x20
 6078 0b3a 18000000 		.4byte	.LVL215
 6079 0b3e 490A0000 		.4byte	0xa49
 6080 0b42 00       		.byte	0
 6081 0b43 00       		.byte	0
 6082 0b44 0B       		.uleb128 0xb
 6083 0b45 6C070000 		.4byte	0x76c
 6084 0b49 19       		.uleb128 0x19
 6085 0b4a 5C020000 		.4byte	.LASF143
 6086 0b4e 6B04     		.2byte	0x46b
 6087 0b50 00000000 		.4byte	.LFB383
 6088 0b54 16000000 		.4byte	.LFE383-.LFB383
 6089 0b58 01       		.uleb128 0x1
 6090 0b59 9C       		.byte	0x9c
 6091 0b5a 2B0C0000 		.4byte	0xc2b
 6092 0b5e 0A       		.uleb128 0xa
 6093 0b5f 74717000 		.ascii	"tqp\000"
 6094 0b63 6B04     		.2byte	0x46b
 6095 0b65 29       		.byte	0x29
 6096 0b66 440B0000 		.4byte	0xb44
 6097 0b6a 91000000 		.4byte	.LLST218
 6098 0b6e 89000000 		.4byte	.LVUS218
ARM GAS  C:\Users\DEVELO~1\AppData\Local\Temp\ccUBlV4P.s 			page 108


 6099 0b72 0A       		.uleb128 0xa
 6100 0b73 6D736700 		.ascii	"msg\000"
 6101 0b77 6B04     		.2byte	0x46b
 6102 0b79 34       		.byte	0x34
 6103 0b7a 5C010000 		.4byte	0x15c
 6104 0b7e B4000000 		.4byte	.LLST219
 6105 0b82 AE000000 		.4byte	.LVUS219
 6106 0b86 08       		.uleb128 0x8
 6107 0b87 C8280000 		.4byte	0x28c8
 6108 0b8b 02000000 		.4byte	.LBI974
 6109 0b8f 00       		.byte	.LVU1518
 6110 0b90 02000000 		.4byte	.LBB974
 6111 0b94 02000000 		.4byte	.LBE974-.LBB974
 6112 0b98 01       		.byte	0x1
 6113 0b99 6D04     		.2byte	0x46d
 6114 0b9b 07       		.byte	0x7
 6115 0b9c AE0B0000 		.4byte	0xbae
 6116 0ba0 01       		.uleb128 0x1
 6117 0ba1 D9280000 		.4byte	0x28d9
 6118 0ba5 CE000000 		.4byte	.LLST220
 6119 0ba9 CC000000 		.4byte	.LVUS220
 6120 0bad 00       		.byte	0
 6121 0bae 02       		.uleb128 0x2
 6122 0baf C3270000 		.4byte	0x27c3
 6123 0bb3 08000000 		.4byte	.LBI976
 6124 0bb7 01       		.byte	.LVU1524
 6125 0bb8 08000000 		.4byte	.LBB976
 6126 0bbc 0C000000 		.4byte	.LBE976-.LBB976
 6127 0bc0 01       		.byte	0x1
 6128 0bc1 6E04     		.2byte	0x46e
 6129 0bc3 05       		.byte	0x5
 6130 0bc4 01       		.uleb128 0x1
 6131 0bc5 DD270000 		.4byte	0x27dd
 6132 0bc9 DB000000 		.4byte	.LLST221
 6133 0bcd D7000000 		.4byte	.LVUS221
 6134 0bd1 01       		.uleb128 0x1
 6135 0bd2 D0270000 		.4byte	0x27d0
 6136 0bd6 F2000000 		.4byte	.LLST222
 6137 0bda EE000000 		.4byte	.LVUS222
 6138 0bde 0F       		.uleb128 0xf
 6139 0bdf EA270000 		.4byte	0x27ea
 6140 0be3 07010000 		.4byte	.LLST223
 6141 0be7 05010000 		.4byte	.LVUS223
 6142 0beb 08       		.uleb128 0x8
 6143 0bec 7A280000 		.4byte	0x287a
 6144 0bf0 08000000 		.4byte	.LBI978
 6145 0bf4 07       		.byte	.LVU1530
 6146 0bf5 08000000 		.4byte	.LBB978
 6147 0bf9 06000000 		.4byte	.LBE978-.LBB978
 6148 0bfd 06       		.byte	0x6
 6149 0bfe 9D02     		.2byte	0x29d
 6150 0c00 08       		.byte	0x8
 6151 0c01 200C0000 		.4byte	0xc20
 6152 0c05 01       		.uleb128 0x1
 6153 0c06 8B280000 		.4byte	0x288b
 6154 0c0a 12010000 		.4byte	.LLST224
 6155 0c0e 10010000 		.4byte	.LVUS224
ARM GAS  C:\Users\DEVELO~1\AppData\Local\Temp\ccUBlV4P.s 			page 109


 6156 0c12 0F       		.uleb128 0xf
 6157 0c13 97280000 		.4byte	0x2897
 6158 0c17 1D010000 		.4byte	.LLST225
 6159 0c1b 1B010000 		.4byte	.LVUS225
 6160 0c1f 00       		.byte	0
 6161 0c20 2D       		.uleb128 0x2d
 6162 0c21 14000000 		.4byte	.LVL209
 6163 0c25 490A0000 		.4byte	0xa49
 6164 0c29 00       		.byte	0
 6165 0c2a 00       		.byte	0
 6166 0c2b 10       		.uleb128 0x10
 6167 0c2c 7A0A0000 		.4byte	.LASF151
 6168 0c30 5604     		.2byte	0x456
 6169 0c32 07       		.byte	0x7
 6170 0c33 5C010000 		.4byte	0x15c
 6171 0c37 00000000 		.4byte	.LFB382
 6172 0c3b 28000000 		.4byte	.LFE382-.LFB382
 6173 0c3f 01       		.uleb128 0x1
 6174 0c40 9C       		.byte	0x9c
 6175 0c41 DD0C0000 		.4byte	0xcdd
 6176 0c45 0A       		.uleb128 0xa
 6177 0c46 74717000 		.ascii	"tqp\000"
 6178 0c4a 5604     		.2byte	0x456
 6179 0c4c 2D       		.byte	0x2d
 6180 0c4d 440B0000 		.4byte	0xb44
 6181 0c51 30010000 		.4byte	.LLST212
 6182 0c55 26010000 		.4byte	.LVUS212
 6183 0c59 18       		.uleb128 0x18
 6184 0c5a 91030000 		.4byte	.LASF144
 6185 0c5e 5604     		.2byte	0x456
 6186 0c60 40       		.byte	0x40
 6187 0c61 94030000 		.4byte	0x394
 6188 0c65 5B010000 		.4byte	.LLST213
 6189 0c69 55010000 		.4byte	.LVUS213
 6190 0c6d 1B       		.uleb128 0x1b
 6191 0c6e A5040000 		.4byte	.LASF145
 6192 0c72 5704     		.2byte	0x457
 6193 0c74 0D       		.byte	0xd
 6194 0c75 C9030000 		.4byte	0x3c9
 6195 0c79 77010000 		.4byte	.LLST214
 6196 0c7d 73010000 		.4byte	.LVUS214
 6197 0c81 33       		.uleb128 0x33
 6198 0c82 24280000 		.4byte	0x2824
 6199 0c86 00000000 		.4byte	.LBI964
 6200 0c8a 02       		.byte	.LVU1490
 6201 0c8b 00000000 		.4byte	.LBB964
 6202 0c8f 04000000 		.4byte	.LBE964-.LBB964
 6203 0c93 5704     		.2byte	0x457
 6204 0c95 16       		.byte	0x16
 6205 0c96 06       		.uleb128 0x6
 6206 0c97 A3280000 		.4byte	0x28a3
 6207 0c9b 08000000 		.4byte	.LBI966
 6208 0c9f 01       		.byte	.LVU1497
 6209 0ca0 3D030000 		.4byte	.LLRL215
 6210 0ca4 5D04     		.2byte	0x45d
 6211 0ca6 03       		.byte	0x3
 6212 0ca7 C60C0000 		.4byte	0xcc6
ARM GAS  C:\Users\DEVELO~1\AppData\Local\Temp\ccUBlV4P.s 			page 110


 6213 0cab 01       		.uleb128 0x1
 6214 0cac BC280000 		.4byte	0x28bc
 6215 0cb0 89010000 		.4byte	.LLST216
 6216 0cb4 87010000 		.4byte	.LVUS216
 6217 0cb8 01       		.uleb128 0x1
 6218 0cb9 B0280000 		.4byte	0x28b0
 6219 0cbd 96010000 		.4byte	.LLST217
 6220 0cc1 92010000 		.4byte	.LVUS217
 6221 0cc5 00       		.byte	0
 6222 0cc6 34       		.uleb128 0x34
 6223 0cc7 1C000000 		.4byte	.LVL202
 6224 0ccb 040A0000 		.4byte	0xa04
 6225 0ccf 07       		.uleb128 0x7
 6226 0cd0 01       		.uleb128 0x1
 6227 0cd1 50       		.byte	0x50
 6228 0cd2 01       		.uleb128 0x1
 6229 0cd3 34       		.byte	0x34
 6230 0cd4 07       		.uleb128 0x7
 6231 0cd5 01       		.uleb128 0x1
 6232 0cd6 51       		.byte	0x51
 6233 0cd7 03       		.uleb128 0x3
 6234 0cd8 A3       		.byte	0xa3
 6235 0cd9 01       		.uleb128 0x1
 6236 0cda 51       		.byte	0x51
 6237 0cdb 00       		.byte	0
 6238 0cdc 00       		.byte	0
 6239 0cdd 4E       		.uleb128 0x4e
 6240 0cde C3090000 		.4byte	.LASF213
 6241 0ce2 01       		.byte	0x1
 6242 0ce3 3504     		.2byte	0x435
 6243 0ce5 06       		.byte	0x6
 6244 0ce6 010D0000 		.4byte	0xd01
 6245 0cea 0E       		.uleb128 0xe
 6246 0ceb 74717000 		.ascii	"tqp\000"
 6247 0cef 01       		.byte	0x1
 6248 0cf0 3504     		.2byte	0x435
 6249 0cf2 2F       		.byte	0x2f
 6250 0cf3 440B0000 		.4byte	0xb44
 6251 0cf7 09       		.uleb128 0x9
 6252 0cf8 6F070000 		.4byte	.LASF147
 6253 0cfc 110D0000 		.4byte	0xd11
 6254 0d00 00       		.byte	0
 6255 0d01 11       		.uleb128 0x11
 6256 0d02 C4000000 		.4byte	0xc4
 6257 0d06 110D0000 		.4byte	0xd11
 6258 0d0a 12       		.uleb128 0x12
 6259 0d0b 39000000 		.4byte	0x39
 6260 0d0f 17       		.byte	0x17
 6261 0d10 00       		.byte	0
 6262 0d11 0D       		.uleb128 0xd
 6263 0d12 010D0000 		.4byte	0xd01
 6264 0d16 19       		.uleb128 0x19
 6265 0d17 77050000 		.4byte	.LASF146
 6266 0d1b 1F04     		.2byte	0x41f
 6267 0d1d 00000000 		.4byte	.LFB380
 6268 0d21 06000000 		.4byte	.LFE380-.LFB380
 6269 0d25 01       		.uleb128 0x1
ARM GAS  C:\Users\DEVELO~1\AppData\Local\Temp\ccUBlV4P.s 			page 111


 6270 0d26 9C       		.byte	0x9c
 6271 0d27 670D0000 		.4byte	0xd67
 6272 0d2b 2E       		.uleb128 0x2e
 6273 0d2c 74717000 		.ascii	"tqp\000"
 6274 0d30 1F04     		.2byte	0x41f
 6275 0d32 2C       		.byte	0x2c
 6276 0d33 440B0000 		.4byte	0xb44
 6277 0d37 01       		.uleb128 0x1
 6278 0d38 50       		.byte	0x50
 6279 0d39 09       		.uleb128 0x9
 6280 0d3a 6F070000 		.4byte	.LASF147
 6281 0d3e 770D0000 		.4byte	0xd77
 6282 0d42 02       		.uleb128 0x2
 6283 0d43 EB280000 		.4byte	0x28eb
 6284 0d47 00000000 		.4byte	.LBI962
 6285 0d4b 05       		.byte	.LVU1483
 6286 0d4c 00000000 		.4byte	.LBB962
 6287 0d50 04000000 		.4byte	.LBE962-.LBB962
 6288 0d54 01       		.byte	0x1
 6289 0d55 2304     		.2byte	0x423
 6290 0d57 03       		.byte	0x3
 6291 0d58 01       		.uleb128 0x1
 6292 0d59 F8280000 		.4byte	0x28f8
 6293 0d5d A8010000 		.4byte	.LLST211
 6294 0d61 A6010000 		.4byte	.LVUS211
 6295 0d65 00       		.byte	0
 6296 0d66 00       		.byte	0
 6297 0d67 11       		.uleb128 0x11
 6298 0d68 C4000000 		.4byte	0xc4
 6299 0d6c 770D0000 		.4byte	0xd77
 6300 0d70 12       		.uleb128 0x12
 6301 0d71 39000000 		.4byte	0x39
 6302 0d75 14       		.byte	0x14
 6303 0d76 00       		.byte	0
 6304 0d77 0D       		.uleb128 0xd
 6305 0d78 670D0000 		.4byte	0xd67
 6306 0d7c 19       		.uleb128 0x19
 6307 0d7d ED070000 		.4byte	.LASF148
 6308 0d81 1104     		.2byte	0x411
 6309 0d83 00000000 		.4byte	.LFB379
 6310 0d87 1E000000 		.4byte	.LFE379-.LFB379
 6311 0d8b 01       		.uleb128 0x1
 6312 0d8c 9C       		.byte	0x9c
 6313 0d8d B40E0000 		.4byte	0xeb4
 6314 0d91 0A       		.uleb128 0xa
 6315 0d92 74727000 		.ascii	"trp\000"
 6316 0d96 1104     		.2byte	0x411
 6317 0d98 26       		.byte	0x26
 6318 0d99 2C080000 		.4byte	0x82c
 6319 0d9d B7010000 		.4byte	.LLST203
 6320 0da1 B1010000 		.4byte	.LVUS203
 6321 0da5 0A       		.uleb128 0xa
 6322 0da6 6D736700 		.ascii	"msg\000"
 6323 0daa 1104     		.2byte	0x411
 6324 0dac 31       		.byte	0x31
 6325 0dad 5C010000 		.4byte	0x15c
 6326 0db1 D3010000 		.4byte	.LLST204
ARM GAS  C:\Users\DEVELO~1\AppData\Local\Temp\ccUBlV4P.s 			page 112


 6327 0db5 CF010000 		.4byte	.LVUS204
 6328 0db9 06       		.uleb128 0x6
 6329 0dba 54280000 		.4byte	0x2854
 6330 0dbe 06000000 		.4byte	.LBI946
 6331 0dc2 01       		.byte	.LVU1442
 6332 0dc3 31030000 		.4byte	.LLRL205
 6333 0dc7 1304     		.2byte	0x413
 6334 0dc9 03       		.byte	0x3
 6335 0dca 000E0000 		.4byte	0xe00
 6336 0dce 05       		.uleb128 0x5
 6337 0dcf 95290000 		.4byte	0x2995
 6338 0dd3 06000000 		.4byte	.LBI947
 6339 0dd7 03       		.byte	.LVU1444
 6340 0dd8 31030000 		.4byte	.LLRL205
 6341 0ddc 03       		.byte	0x3
 6342 0ddd 7601     		.2byte	0x176
 6343 0ddf 05       		.uleb128 0x5
 6344 0de0 9E290000 		.4byte	0x299e
 6345 0de4 06000000 		.4byte	.LBI948
 6346 0de8 05       		.byte	.LVU1446
 6347 0de9 31030000 		.4byte	.LLRL205
 6348 0ded 04       		.byte	0x4
 6349 0dee 5003     		.2byte	0x350
 6350 0df0 01       		.uleb128 0x1
 6351 0df1 AB290000 		.4byte	0x29ab
 6352 0df5 E8010000 		.4byte	.LLST206
 6353 0df9 E6010000 		.4byte	.LVUS206
 6354 0dfd 00       		.byte	0
 6355 0dfe 00       		.byte	0
 6356 0dff 00       		.byte	0
 6357 0e00 08       		.uleb128 0x8
 6358 0e01 B40E0000 		.4byte	0xeb4
 6359 0e05 0A000000 		.4byte	.LBI954
 6360 0e09 04       		.byte	.LVU1452
 6361 0e0a 0A000000 		.4byte	.LBB954
 6362 0e0e 0C000000 		.4byte	.LBE954-.LBB954
 6363 0e12 01       		.byte	0x1
 6364 0e13 1404     		.2byte	0x414
 6365 0e15 03       		.byte	0x3
 6366 0e16 610E0000 		.4byte	0xe61
 6367 0e1a 01       		.uleb128 0x1
 6368 0e1b CC0E0000 		.4byte	0xecc
 6369 0e1f F7010000 		.4byte	.LLST207
 6370 0e23 F3010000 		.4byte	.LVUS207
 6371 0e27 01       		.uleb128 0x1
 6372 0e28 BF0E0000 		.4byte	0xebf
 6373 0e2c 10020000 		.4byte	.LLST208
 6374 0e30 0A020000 		.4byte	.LVUS208
 6375 0e34 3F       		.uleb128 0x3f
 6376 0e35 E20E0000 		.4byte	0xee2
 6377 0e39 0E000000 		.4byte	.LBB956
 6378 0e3d 08000000 		.4byte	.LBE956-.LBB956
 6379 0e41 0F       		.uleb128 0xf
 6380 0e42 E30E0000 		.4byte	0xee3
 6381 0e46 2A020000 		.4byte	.LLST209
 6382 0e4a 28020000 		.4byte	.LVUS209
 6383 0e4e 1A       		.uleb128 0x1a
ARM GAS  C:\Users\DEVELO~1\AppData\Local\Temp\ccUBlV4P.s 			page 113


 6384 0e4f 16000000 		.4byte	.LVL193
 6385 0e53 340A0000 		.4byte	0xa34
 6386 0e57 07       		.uleb128 0x7
 6387 0e58 01       		.uleb128 0x1
 6388 0e59 51       		.byte	0x51
 6389 0e5a 03       		.uleb128 0x3
 6390 0e5b A3       		.byte	0xa3
 6391 0e5c 01       		.uleb128 0x1
 6392 0e5d 51       		.byte	0x51
 6393 0e5e 00       		.byte	0
 6394 0e5f 00       		.byte	0
 6395 0e60 00       		.byte	0
 6396 0e61 02       		.uleb128 0x2
 6397 0e62 3D280000 		.4byte	0x283d
 6398 0e66 16000000 		.4byte	.LBI957
 6399 0e6a 02       		.byte	.LVU1465
 6400 0e6b 16000000 		.4byte	.LBB957
 6401 0e6f 06000000 		.4byte	.LBE957-.LBB957
 6402 0e73 01       		.byte	0x1
 6403 0e74 1504     		.2byte	0x415
 6404 0e76 03       		.byte	0x3
 6405 0e77 02       		.uleb128 0x2
 6406 0e78 8C290000 		.4byte	0x298c
 6407 0e7c 16000000 		.4byte	.LBI959
 6408 0e80 09       		.byte	.LVU1472
 6409 0e81 16000000 		.4byte	.LBB959
 6410 0e85 06000000 		.4byte	.LBE959-.LBB959
 6411 0e89 03       		.byte	0x3
 6412 0e8a 8F01     		.2byte	0x18f
 6413 0e8c 03       		.byte	0x3
 6414 0e8d 02       		.uleb128 0x2
 6415 0e8e 9E290000 		.4byte	0x299e
 6416 0e92 16000000 		.4byte	.LBI960
 6417 0e96 0B       		.byte	.LVU1474
 6418 0e97 16000000 		.4byte	.LBB960
 6419 0e9b 06000000 		.4byte	.LBE960-.LBB960
 6420 0e9f 04       		.byte	0x4
 6421 0ea0 6303     		.2byte	0x363
 6422 0ea2 03       		.byte	0x3
 6423 0ea3 01       		.uleb128 0x1
 6424 0ea4 AB290000 		.4byte	0x29ab
 6425 0ea8 35020000 		.4byte	.LLST210
 6426 0eac 33020000 		.4byte	.LVUS210
 6427 0eb0 00       		.byte	0
 6428 0eb1 00       		.byte	0
 6429 0eb2 00       		.byte	0
 6430 0eb3 00       		.byte	0
 6431 0eb4 35       		.uleb128 0x35
 6432 0eb5 44090000 		.4byte	.LASF149
 6433 0eb9 FB03     		.2byte	0x3fb
 6434 0ebb 020F0000 		.4byte	0xf02
 6435 0ebf 0E       		.uleb128 0xe
 6436 0ec0 74727000 		.ascii	"trp\000"
 6437 0ec4 01       		.byte	0x1
 6438 0ec5 FB03     		.2byte	0x3fb
 6439 0ec7 27       		.byte	0x27
 6440 0ec8 2C080000 		.4byte	0x82c
ARM GAS  C:\Users\DEVELO~1\AppData\Local\Temp\ccUBlV4P.s 			page 114


 6441 0ecc 0E       		.uleb128 0xe
 6442 0ecd 6D736700 		.ascii	"msg\000"
 6443 0ed1 01       		.byte	0x1
 6444 0ed2 FB03     		.2byte	0x3fb
 6445 0ed4 32       		.byte	0x32
 6446 0ed5 5C010000 		.4byte	0x15c
 6447 0ed9 09       		.uleb128 0x9
 6448 0eda 6F070000 		.4byte	.LASF147
 6449 0ede 120F0000 		.4byte	0xf12
 6450 0ee2 4F       		.uleb128 0x4f
 6451 0ee3 28       		.uleb128 0x28
 6452 0ee4 747000   		.ascii	"tp\000"
 6453 0ee7 01       		.byte	0x1
 6454 0ee8 FE03     		.2byte	0x3fe
 6455 0eea 0F       		.byte	0xf
 6456 0eeb C9030000 		.4byte	0x3c9
 6457 0eef 34       		.uleb128 0x34
 6458 0ef0 0E000000 		.4byte	.LVL187
 6459 0ef4 340A0000 		.4byte	0xa34
 6460 0ef8 07       		.uleb128 0x7
 6461 0ef9 01       		.uleb128 0x1
 6462 0efa 51       		.byte	0x51
 6463 0efb 03       		.uleb128 0x3
 6464 0efc A3       		.byte	0xa3
 6465 0efd 01       		.uleb128 0x1
 6466 0efe 51       		.byte	0x51
 6467 0eff 00       		.byte	0
 6468 0f00 00       		.byte	0
 6469 0f01 00       		.byte	0
 6470 0f02 11       		.uleb128 0x11
 6471 0f03 C4000000 		.4byte	0xc4
 6472 0f07 120F0000 		.4byte	0xf12
 6473 0f0b 12       		.uleb128 0x12
 6474 0f0c 39000000 		.4byte	0x39
 6475 0f10 0C       		.byte	0xc
 6476 0f11 00       		.byte	0
 6477 0f12 0D       		.uleb128 0xd
 6478 0f13 020F0000 		.4byte	0xf02
 6479 0f17 19       		.uleb128 0x19
 6480 0f18 210A0000 		.4byte	.LASF150
 6481 0f1c E403     		.2byte	0x3e4
 6482 0f1e 00000000 		.4byte	.LFB377
 6483 0f22 12000000 		.4byte	.LFE377-.LFB377
 6484 0f26 01       		.uleb128 0x1
 6485 0f27 9C       		.byte	0x9c
 6486 0f28 840F0000 		.4byte	0xf84
 6487 0f2c 0A       		.uleb128 0xa
 6488 0f2d 74727000 		.ascii	"trp\000"
 6489 0f31 E403     		.2byte	0x3e4
 6490 0f33 27       		.byte	0x27
 6491 0f34 2C080000 		.4byte	0x82c
 6492 0f38 47020000 		.4byte	.LLST197
 6493 0f3c 3F020000 		.4byte	.LVUS197
 6494 0f40 0A       		.uleb128 0xa
 6495 0f41 6D736700 		.ascii	"msg\000"
 6496 0f45 E403     		.2byte	0x3e4
 6497 0f47 32       		.byte	0x32
ARM GAS  C:\Users\DEVELO~1\AppData\Local\Temp\ccUBlV4P.s 			page 115


 6498 0f48 5C010000 		.4byte	0x15c
 6499 0f4c 6A020000 		.4byte	.LLST198
 6500 0f50 64020000 		.4byte	.LVUS198
 6501 0f54 09       		.uleb128 0x9
 6502 0f55 6F070000 		.4byte	.LASF147
 6503 0f59 120F0000 		.4byte	0xf12
 6504 0f5d 50       		.uleb128 0x50
 6505 0f5e 06000000 		.4byte	.LBB944
 6506 0f62 0A000000 		.4byte	.LBE944-.LBB944
 6507 0f66 21       		.uleb128 0x21
 6508 0f67 747000   		.ascii	"tp\000"
 6509 0f6a E703     		.2byte	0x3e7
 6510 0f6c 0F       		.byte	0xf
 6511 0f6d C9030000 		.4byte	0x3c9
 6512 0f71 84020000 		.4byte	.LLST199
 6513 0f75 82020000 		.4byte	.LVUS199
 6514 0f79 2D       		.uleb128 0x2d
 6515 0f7a 10000000 		.4byte	.LVL183
 6516 0f7e 490A0000 		.4byte	0xa49
 6517 0f82 00       		.byte	0
 6518 0f83 00       		.byte	0
 6519 0f84 10       		.uleb128 0x10
 6520 0f85 95050000 		.4byte	.LASF152
 6521 0f89 CB03     		.2byte	0x3cb
 6522 0f8b 07       		.byte	0x7
 6523 0f8c 5C010000 		.4byte	0x15c
 6524 0f90 00000000 		.4byte	.LFB376
 6525 0f94 1C000000 		.4byte	.LFE376-.LFB376
 6526 0f98 01       		.uleb128 0x1
 6527 0f99 9C       		.byte	0x9c
 6528 0f9a 0A100000 		.4byte	0x100a
 6529 0f9e 0A       		.uleb128 0xa
 6530 0f9f 74727000 		.ascii	"trp\000"
 6531 0fa3 CB03     		.2byte	0x3cb
 6532 0fa5 30       		.byte	0x30
 6533 0fa6 2C080000 		.4byte	0x82c
 6534 0faa 97020000 		.4byte	.LLST193
 6535 0fae 8D020000 		.4byte	.LVUS193
 6536 0fb2 18       		.uleb128 0x18
 6537 0fb3 91030000 		.4byte	.LASF144
 6538 0fb7 CB03     		.2byte	0x3cb
 6539 0fb9 43       		.byte	0x43
 6540 0fba 94030000 		.4byte	0x394
 6541 0fbe BF020000 		.4byte	.LLST194
 6542 0fc2 B9020000 		.4byte	.LVUS194
 6543 0fc6 21       		.uleb128 0x21
 6544 0fc7 747000   		.ascii	"tp\000"
 6545 0fca CC03     		.2byte	0x3cc
 6546 0fcc 0D       		.byte	0xd
 6547 0fcd C9030000 		.4byte	0x3c9
 6548 0fd1 DB020000 		.4byte	.LLST195
 6549 0fd5 D7020000 		.4byte	.LVUS195
 6550 0fd9 09       		.uleb128 0x9
 6551 0fda 6F070000 		.4byte	.LASF147
 6552 0fde 770D0000 		.4byte	0xd77
 6553 0fe2 29       		.uleb128 0x29
 6554 0fe3 24280000 		.4byte	0x2824
ARM GAS  C:\Users\DEVELO~1\AppData\Local\Temp\ccUBlV4P.s 			page 116


 6555 0fe7 00000000 		.4byte	.LBI940
 6556 0feb 02       		.byte	.LVU1386
 6557 0fec 25030000 		.4byte	.LLRL196
 6558 0ff0 CC03     		.2byte	0x3cc
 6559 0ff2 12       		.byte	0x12
 6560 0ff3 34       		.uleb128 0x34
 6561 0ff4 12000000 		.4byte	.LVL178
 6562 0ff8 040A0000 		.4byte	0xa04
 6563 0ffc 07       		.uleb128 0x7
 6564 0ffd 01       		.uleb128 0x1
 6565 0ffe 50       		.byte	0x50
 6566 0fff 01       		.uleb128 0x1
 6567 1000 33       		.byte	0x33
 6568 1001 07       		.uleb128 0x7
 6569 1002 01       		.uleb128 0x1
 6570 1003 51       		.byte	0x51
 6571 1004 03       		.uleb128 0x3
 6572 1005 A3       		.byte	0xa3
 6573 1006 01       		.uleb128 0x1
 6574 1007 51       		.byte	0x51
 6575 1008 00       		.byte	0
 6576 1009 00       		.byte	0
 6577 100a 10       		.uleb128 0x10
 6578 100b 53040000 		.4byte	.LASF153
 6579 100f AD03     		.2byte	0x3ad
 6580 1011 07       		.byte	0x7
 6581 1012 5C010000 		.4byte	0x15c
 6582 1016 00000000 		.4byte	.LFB375
 6583 101a 1C000000 		.4byte	.LFE375-.LFB375
 6584 101e 01       		.uleb128 0x1
 6585 101f 9C       		.byte	0x9c
 6586 1020 8A100000 		.4byte	0x108a
 6587 1024 0A       		.uleb128 0xa
 6588 1025 74727000 		.ascii	"trp\000"
 6589 1029 AD03     		.2byte	0x3ad
 6590 102b 29       		.byte	0x29
 6591 102c 2C080000 		.4byte	0x82c
 6592 1030 F1020000 		.4byte	.LLST190
 6593 1034 EB020000 		.4byte	.LVUS190
 6594 1038 21       		.uleb128 0x21
 6595 1039 747000   		.ascii	"tp\000"
 6596 103c AE03     		.2byte	0x3ae
 6597 103e 0D       		.byte	0xd
 6598 103f C9030000 		.4byte	0x3c9
 6599 1043 0B030000 		.4byte	.LLST191
 6600 1047 09030000 		.4byte	.LVUS191
 6601 104b 09       		.uleb128 0x9
 6602 104c 6F070000 		.4byte	.LASF147
 6603 1050 9A100000 		.4byte	0x109a
 6604 1054 29       		.uleb128 0x29
 6605 1055 24280000 		.4byte	0x2824
 6606 1059 00000000 		.4byte	.LBI932
 6607 105d 02       		.byte	.LVU1363
 6608 105e 16030000 		.4byte	.LLRL192
 6609 1062 AE03     		.2byte	0x3ae
 6610 1064 12       		.byte	0x12
 6611 1065 33       		.uleb128 0x33
ARM GAS  C:\Users\DEVELO~1\AppData\Local\Temp\ccUBlV4P.s 			page 117


 6612 1066 24280000 		.4byte	0x2824
 6613 106a 12000000 		.4byte	.LBI938
 6614 106e 01       		.byte	.LVU1380
 6615 106f 12000000 		.4byte	.LBB938
 6616 1073 00000000 		.4byte	.LBE938-.LBB938
 6617 1077 B603     		.2byte	0x3b6
 6618 1079 0A       		.byte	0xa
 6619 107a 1A       		.uleb128 0x1a
 6620 107b 12000000 		.4byte	.LVL174
 6621 107f 240A0000 		.4byte	0xa24
 6622 1083 07       		.uleb128 0x7
 6623 1084 01       		.uleb128 0x1
 6624 1085 50       		.byte	0x50
 6625 1086 01       		.uleb128 0x1
 6626 1087 33       		.byte	0x33
 6627 1088 00       		.byte	0
 6628 1089 00       		.byte	0
 6629 108a 11       		.uleb128 0x11
 6630 108b C4000000 		.4byte	0xc4
 6631 108f 9A100000 		.4byte	0x109a
 6632 1093 12       		.uleb128 0x12
 6633 1094 39000000 		.4byte	0x39
 6634 1098 0D       		.byte	0xd
 6635 1099 00       		.byte	0
 6636 109a 0D       		.uleb128 0xd
 6637 109b 8A100000 		.4byte	0x108a
 6638 109f 19       		.uleb128 0x19
 6639 10a0 AC040000 		.4byte	.LASF154
 6640 10a4 9C03     		.2byte	0x39c
 6641 10a6 00000000 		.4byte	.LFB374
 6642 10aa 14000000 		.4byte	.LFE374-.LFB374
 6643 10ae 01       		.uleb128 0x1
 6644 10af 9C       		.byte	0x9c
 6645 10b0 5B110000 		.4byte	0x115b
 6646 10b4 06       		.uleb128 0x6
 6647 10b5 54280000 		.4byte	0x2854
 6648 10b9 00000000 		.4byte	.LBI919
 6649 10bd 02       		.byte	.LVU1335
 6650 10be 0A030000 		.4byte	.LLRL187
 6651 10c2 9E03     		.2byte	0x39e
 6652 10c4 03       		.byte	0x3
 6653 10c5 FB100000 		.4byte	0x10fb
 6654 10c9 05       		.uleb128 0x5
 6655 10ca 95290000 		.4byte	0x2995
 6656 10ce 00000000 		.4byte	.LBI920
 6657 10d2 04       		.byte	.LVU1337
 6658 10d3 0A030000 		.4byte	.LLRL187
 6659 10d7 03       		.byte	0x3
 6660 10d8 7601     		.2byte	0x176
 6661 10da 05       		.uleb128 0x5
 6662 10db 9E290000 		.4byte	0x299e
 6663 10df 00000000 		.4byte	.LBI921
 6664 10e3 06       		.byte	.LVU1339
 6665 10e4 0A030000 		.4byte	.LLRL187
 6666 10e8 04       		.byte	0x4
 6667 10e9 5003     		.2byte	0x350
 6668 10eb 01       		.uleb128 0x1
ARM GAS  C:\Users\DEVELO~1\AppData\Local\Temp\ccUBlV4P.s 			page 118


 6669 10ec AB290000 		.4byte	0x29ab
 6670 10f0 16030000 		.4byte	.LLST188
 6671 10f4 14030000 		.4byte	.LVUS188
 6672 10f8 00       		.byte	0
 6673 10f9 00       		.byte	0
 6674 10fa 00       		.byte	0
 6675 10fb 08       		.uleb128 0x8
 6676 10fc 3D280000 		.4byte	0x283d
 6677 1100 0C000000 		.4byte	.LBI927
 6678 1104 01       		.byte	.LVU1348
 6679 1105 0C000000 		.4byte	.LBB927
 6680 1109 06000000 		.4byte	.LBE927-.LBB927
 6681 110d 01       		.byte	0x1
 6682 110e A003     		.2byte	0x3a0
 6683 1110 03       		.byte	0x3
 6684 1111 51110000 		.4byte	0x1151
 6685 1115 02       		.uleb128 0x2
 6686 1116 8C290000 		.4byte	0x298c
 6687 111a 0C000000 		.4byte	.LBI929
 6688 111e 08       		.byte	.LVU1355
 6689 111f 0C000000 		.4byte	.LBB929
 6690 1123 06000000 		.4byte	.LBE929-.LBB929
 6691 1127 03       		.byte	0x3
 6692 1128 8F01     		.2byte	0x18f
 6693 112a 03       		.byte	0x3
 6694 112b 02       		.uleb128 0x2
 6695 112c 9E290000 		.4byte	0x299e
 6696 1130 0C000000 		.4byte	.LBI930
 6697 1134 0A       		.byte	.LVU1357
 6698 1135 0C000000 		.4byte	.LBB930
 6699 1139 06000000 		.4byte	.LBE930-.LBB930
 6700 113d 04       		.byte	0x4
 6701 113e 6303     		.2byte	0x363
 6702 1140 03       		.byte	0x3
 6703 1141 01       		.uleb128 0x1
 6704 1142 AB290000 		.4byte	0x29ab
 6705 1146 23030000 		.4byte	.LLST189
 6706 114a 21030000 		.4byte	.LVUS189
 6707 114e 00       		.byte	0
 6708 114f 00       		.byte	0
 6709 1150 00       		.byte	0
 6710 1151 20       		.uleb128 0x20
 6711 1152 0C000000 		.4byte	.LVL169
 6712 1156 F2090000 		.4byte	0x9f2
 6713 115a 00       		.byte	0
 6714 115b 10       		.uleb128 0x10
 6715 115c 68000000 		.4byte	.LASF155
 6716 1160 8803     		.2byte	0x388
 6717 1162 0B       		.byte	0xb
 6718 1163 88030000 		.4byte	0x388
 6719 1167 00000000 		.4byte	.LFB373
 6720 116b 2A000000 		.4byte	.LFE373-.LFB373
 6721 116f 01       		.uleb128 0x1
 6722 1170 9C       		.byte	0x9c
 6723 1171 2C130000 		.4byte	0x132c
 6724 1175 18       		.uleb128 0x18
 6725 1176 00000000 		.4byte	.LASF88
ARM GAS  C:\Users\DEVELO~1\AppData\Local\Temp\ccUBlV4P.s 			page 119


 6726 117a 8803     		.2byte	0x388
 6727 117c 2D       		.byte	0x2d
 6728 117d 88030000 		.4byte	0x388
 6729 1181 33030000 		.4byte	.LLST174
 6730 1185 2D030000 		.4byte	.LVUS174
 6731 1189 18       		.uleb128 0x18
 6732 118a 0E010000 		.4byte	.LASF85
 6733 118e 8803     		.2byte	0x388
 6734 1190 3D       		.byte	0x3d
 6735 1191 88030000 		.4byte	0x388
 6736 1195 4F030000 		.4byte	.LLST175
 6737 1199 4B030000 		.4byte	.LVUS175
 6738 119d 1B       		.uleb128 0x1b
 6739 119e 5C060000 		.4byte	.LASF75
 6740 11a2 8903     		.2byte	0x389
 6741 11a4 0D       		.byte	0xd
 6742 11a5 88030000 		.4byte	0x388
 6743 11a9 61030000 		.4byte	.LLST176
 6744 11ad 5F030000 		.4byte	.LVUS176
 6745 11b1 06       		.uleb128 0x6
 6746 11b2 54280000 		.4byte	0x2854
 6747 11b6 00000000 		.4byte	.LBI891
 6748 11ba 03       		.byte	.LVU1276
 6749 11bb EF020000 		.4byte	.LLRL177
 6750 11bf 8B03     		.2byte	0x38b
 6751 11c1 03       		.byte	0x3
 6752 11c2 F8110000 		.4byte	0x11f8
 6753 11c6 05       		.uleb128 0x5
 6754 11c7 95290000 		.4byte	0x2995
 6755 11cb 00000000 		.4byte	.LBI892
 6756 11cf 05       		.byte	.LVU1278
 6757 11d0 EF020000 		.4byte	.LLRL177
 6758 11d4 03       		.byte	0x3
 6759 11d5 7601     		.2byte	0x176
 6760 11d7 05       		.uleb128 0x5
 6761 11d8 9E290000 		.4byte	0x299e
 6762 11dc 00000000 		.4byte	.LBI893
 6763 11e0 07       		.byte	.LVU1280
 6764 11e1 EF020000 		.4byte	.LLRL177
 6765 11e5 04       		.byte	0x4
 6766 11e6 5003     		.2byte	0x350
 6767 11e8 01       		.uleb128 0x1
 6768 11e9 AB290000 		.4byte	0x29ab
 6769 11ed 6C030000 		.4byte	.LLST178
 6770 11f1 6A030000 		.4byte	.LVUS178
 6771 11f5 00       		.byte	0
 6772 11f6 00       		.byte	0
 6773 11f7 00       		.byte	0
 6774 11f8 08       		.uleb128 0x8
 6775 11f9 32280000 		.4byte	0x2832
 6776 11fd 0C000000 		.4byte	.LBI903
 6777 1201 04       		.byte	.LVU1290
 6778 1202 0C000000 		.4byte	.LBB903
 6779 1206 04000000 		.4byte	.LBE903-.LBB903
 6780 120a 01       		.byte	0x1
 6781 120b 8C03     		.2byte	0x38c
 6782 120d 0A       		.byte	0xa
ARM GAS  C:\Users\DEVELO~1\AppData\Local\Temp\ccUBlV4P.s 			page 120


 6783 120e 30120000 		.4byte	0x1230
 6784 1212 40       		.uleb128 0x40
 6785 1213 81290000 		.4byte	0x2981
 6786 1217 0C000000 		.4byte	.LBI904
 6787 121b 06       		.byte	.LVU1292
 6788 121c 0C000000 		.4byte	.LBB904
 6789 1220 04000000 		.4byte	.LBE904-.LBB904
 6790 1224 8C       		.byte	0x8c
 6791 1225 20       		.uleb128 0x20
 6792 1226 10000000 		.4byte	.LVL159
 6793 122a F8090000 		.4byte	0x9f8
 6794 122e 00       		.byte	0
 6795 122f 00       		.byte	0
 6796 1230 06       		.uleb128 0x6
 6797 1231 B9290000 		.4byte	0x29b9
 6798 1235 12000000 		.4byte	.LBI906
 6799 1239 02       		.byte	.LVU1299
 6800 123a FE020000 		.4byte	.LLRL179
 6801 123e 8D03     		.2byte	0x38d
 6802 1240 07       		.byte	0x7
 6803 1241 6D120000 		.4byte	0x126d
 6804 1245 01       		.uleb128 0x1
 6805 1246 E4290000 		.4byte	0x29e4
 6806 124a 79030000 		.4byte	.LLST180
 6807 124e 77030000 		.4byte	.LVUS180
 6808 1252 01       		.uleb128 0x1
 6809 1253 D7290000 		.4byte	0x29d7
 6810 1257 84030000 		.4byte	.LLST181
 6811 125b 82030000 		.4byte	.LVUS181
 6812 125f 01       		.uleb128 0x1
 6813 1260 CA290000 		.4byte	0x29ca
 6814 1264 8F030000 		.4byte	.LLST182
 6815 1268 8D030000 		.4byte	.LVUS182
 6816 126c 00       		.byte	0
 6817 126d 08       		.uleb128 0x8
 6818 126e F2290000 		.4byte	0x29f2
 6819 1272 18000000 		.4byte	.LBI910
 6820 1276 01       		.byte	.LVU1305
 6821 1277 18000000 		.4byte	.LBB910
 6822 127b 00000000 		.4byte	.LBE910-.LBB910
 6823 127f 01       		.byte	0x1
 6824 1280 8E03     		.2byte	0x38e
 6825 1282 05       		.byte	0x5
 6826 1283 A2120000 		.4byte	0x12a2
 6827 1287 01       		.uleb128 0x1
 6828 1288 102A0000 		.4byte	0x2a10
 6829 128c 9A030000 		.4byte	.LLST183
 6830 1290 98030000 		.4byte	.LVUS183
 6831 1294 01       		.uleb128 0x1
 6832 1295 032A0000 		.4byte	0x2a03
 6833 1299 A5030000 		.4byte	.LLST184
 6834 129d A3030000 		.4byte	.LVUS184
 6835 12a1 00       		.byte	0
 6836 12a2 08       		.uleb128 0x8
 6837 12a3 00280000 		.4byte	0x2800
 6838 12a7 18000000 		.4byte	.LBI912
 6839 12ab 04       		.byte	.LVU1308
ARM GAS  C:\Users\DEVELO~1\AppData\Local\Temp\ccUBlV4P.s 			page 121


 6840 12ac 18000000 		.4byte	.LBB912
 6841 12b0 08000000 		.4byte	.LBE912-.LBB912
 6842 12b4 01       		.byte	0x1
 6843 12b5 8E03     		.2byte	0x38e
 6844 12b7 05       		.byte	0x5
 6845 12b8 D9120000 		.4byte	0x12d9
 6846 12bc 01       		.uleb128 0x1
 6847 12bd 0D280000 		.4byte	0x280d
 6848 12c1 B2030000 		.4byte	.LLST185
 6849 12c5 AE030000 		.4byte	.LVUS185
 6850 12c9 1A       		.uleb128 0x1a
 6851 12ca 20000000 		.4byte	.LVL165
 6852 12ce 040A0000 		.4byte	0xa04
 6853 12d2 07       		.uleb128 0x7
 6854 12d3 01       		.uleb128 0x1
 6855 12d4 50       		.byte	0x50
 6856 12d5 01       		.uleb128 0x1
 6857 12d6 38       		.byte	0x38
 6858 12d7 00       		.byte	0
 6859 12d8 00       		.byte	0
 6860 12d9 02       		.uleb128 0x2
 6861 12da 3D280000 		.4byte	0x283d
 6862 12de 20000000 		.4byte	.LBI914
 6863 12e2 02       		.byte	.LVU1318
 6864 12e3 20000000 		.4byte	.LBB914
 6865 12e7 06000000 		.4byte	.LBE914-.LBB914
 6866 12eb 01       		.byte	0x1
 6867 12ec 9003     		.2byte	0x390
 6868 12ee 03       		.byte	0x3
 6869 12ef 02       		.uleb128 0x2
 6870 12f0 8C290000 		.4byte	0x298c
 6871 12f4 20000000 		.4byte	.LBI916
 6872 12f8 09       		.byte	.LVU1325
 6873 12f9 20000000 		.4byte	.LBB916
 6874 12fd 06000000 		.4byte	.LBE916-.LBB916
 6875 1301 03       		.byte	0x3
 6876 1302 8F01     		.2byte	0x18f
 6877 1304 03       		.byte	0x3
 6878 1305 02       		.uleb128 0x2
 6879 1306 9E290000 		.4byte	0x299e
 6880 130a 20000000 		.4byte	.LBI917
 6881 130e 0B       		.byte	.LVU1327
 6882 130f 20000000 		.4byte	.LBB917
 6883 1313 06000000 		.4byte	.LBE917-.LBB917
 6884 1317 04       		.byte	0x4
 6885 1318 6303     		.2byte	0x363
 6886 131a 03       		.byte	0x3
 6887 131b 01       		.uleb128 0x1
 6888 131c AB290000 		.4byte	0x29ab
 6889 1320 C9030000 		.4byte	.LLST186
 6890 1324 C7030000 		.4byte	.LVUS186
 6891 1328 00       		.byte	0
 6892 1329 00       		.byte	0
 6893 132a 00       		.byte	0
 6894 132b 00       		.byte	0
 6895 132c 19       		.uleb128 0x19
 6896 132d 24080000 		.4byte	.LASF156
ARM GAS  C:\Users\DEVELO~1\AppData\Local\Temp\ccUBlV4P.s 			page 122


 6897 1331 6F03     		.2byte	0x36f
 6898 1333 00000000 		.4byte	.LFB372
 6899 1337 20000000 		.4byte	.LFE372-.LFB372
 6900 133b 01       		.uleb128 0x1
 6901 133c 9C       		.byte	0x9c
 6902 133d A7140000 		.4byte	0x14a7
 6903 1341 18       		.uleb128 0x18
 6904 1342 5C060000 		.4byte	.LASF75
 6905 1346 6F03     		.2byte	0x36f
 6906 1348 20       		.byte	0x20
 6907 1349 88030000 		.4byte	0x388
 6908 134d D7030000 		.4byte	.LLST166
 6909 1351 D3030000 		.4byte	.LVUS166
 6910 1355 1B       		.uleb128 0x1b
 6911 1356 67040000 		.4byte	.LASF157
 6912 135a 7003     		.2byte	0x370
 6913 135c 11       		.byte	0x11
 6914 135d 94030000 		.4byte	0x394
 6915 1361 EB030000 		.4byte	.LLST167
 6916 1365 E7030000 		.4byte	.LVUS167
 6917 1369 06       		.uleb128 0x6
 6918 136a 54280000 		.4byte	0x2854
 6919 136e 00000000 		.4byte	.LBI867
 6920 1372 03       		.byte	.LVU1224
 6921 1373 E0020000 		.4byte	.LLRL168
 6922 1377 7203     		.2byte	0x372
 6923 1379 03       		.byte	0x3
 6924 137a B0130000 		.4byte	0x13b0
 6925 137e 05       		.uleb128 0x5
 6926 137f 95290000 		.4byte	0x2995
 6927 1383 00000000 		.4byte	.LBI868
 6928 1387 05       		.byte	.LVU1226
 6929 1388 E0020000 		.4byte	.LLRL168
 6930 138c 03       		.byte	0x3
 6931 138d 7601     		.2byte	0x176
 6932 138f 05       		.uleb128 0x5
 6933 1390 9E290000 		.4byte	0x299e
 6934 1394 00000000 		.4byte	.LBI869
 6935 1398 07       		.byte	.LVU1228
 6936 1399 E0020000 		.4byte	.LLRL168
 6937 139d 04       		.byte	0x4
 6938 139e 5003     		.2byte	0x350
 6939 13a0 01       		.uleb128 0x1
 6940 13a1 AB290000 		.4byte	0x29ab
 6941 13a5 02040000 		.4byte	.LLST169
 6942 13a9 00040000 		.4byte	.LVUS169
 6943 13ad 00       		.byte	0
 6944 13ae 00       		.byte	0
 6945 13af 00       		.byte	0
 6946 13b0 08       		.uleb128 0x8
 6947 13b1 32280000 		.4byte	0x2832
 6948 13b5 0A000000 		.4byte	.LBI879
 6949 13b9 04       		.byte	.LVU1238
 6950 13ba 0A000000 		.4byte	.LBB879
 6951 13be 04000000 		.4byte	.LBE879-.LBB879
 6952 13c2 01       		.byte	0x1
 6953 13c3 7303     		.2byte	0x373
ARM GAS  C:\Users\DEVELO~1\AppData\Local\Temp\ccUBlV4P.s 			page 123


 6954 13c5 0E       		.byte	0xe
 6955 13c6 E8130000 		.4byte	0x13e8
 6956 13ca 40       		.uleb128 0x40
 6957 13cb 81290000 		.4byte	0x2981
 6958 13cf 0A000000 		.4byte	.LBI880
 6959 13d3 06       		.byte	.LVU1240
 6960 13d4 0A000000 		.4byte	.LBB880
 6961 13d8 04000000 		.4byte	.LBE880-.LBB880
 6962 13dc 8C       		.byte	0x8c
 6963 13dd 20       		.uleb128 0x20
 6964 13de 0E000000 		.4byte	.LVL152
 6965 13e2 F8090000 		.4byte	0x9f8
 6966 13e6 00       		.byte	0
 6967 13e7 00       		.byte	0
 6968 13e8 08       		.uleb128 0x8
 6969 13e9 F2290000 		.4byte	0x29f2
 6970 13ed 0E000000 		.4byte	.LBI882
 6971 13f1 01       		.byte	.LVU1244
 6972 13f2 0E000000 		.4byte	.LBB882
 6973 13f6 00000000 		.4byte	.LBE882-.LBB882
 6974 13fa 01       		.byte	0x1
 6975 13fb 7303     		.2byte	0x373
 6976 13fd 0E       		.byte	0xe
 6977 13fe 1D140000 		.4byte	0x141d
 6978 1402 01       		.uleb128 0x1
 6979 1403 102A0000 		.4byte	0x2a10
 6980 1407 0F040000 		.4byte	.LLST170
 6981 140b 0D040000 		.4byte	.LVUS170
 6982 140f 01       		.uleb128 0x1
 6983 1410 032A0000 		.4byte	0x2a03
 6984 1414 1A040000 		.4byte	.LLST171
 6985 1418 18040000 		.4byte	.LVUS171
 6986 141c 00       		.byte	0
 6987 141d 08       		.uleb128 0x8
 6988 141e 00280000 		.4byte	0x2800
 6989 1422 12000000 		.4byte	.LBI884
 6990 1426 01       		.byte	.LVU1251
 6991 1427 12000000 		.4byte	.LBB884
 6992 142b 06000000 		.4byte	.LBE884-.LBB884
 6993 142f 01       		.byte	0x1
 6994 1430 7503     		.2byte	0x375
 6995 1432 05       		.byte	0x5
 6996 1433 54140000 		.4byte	0x1454
 6997 1437 01       		.uleb128 0x1
 6998 1438 0D280000 		.4byte	0x280d
 6999 143c 25040000 		.4byte	.LLST172
 7000 1440 23040000 		.4byte	.LVUS172
 7001 1444 1A       		.uleb128 0x1a
 7002 1445 18000000 		.4byte	.LVL155
 7003 1449 040A0000 		.4byte	0xa04
 7004 144d 07       		.uleb128 0x7
 7005 144e 01       		.uleb128 0x1
 7006 144f 50       		.byte	0x50
 7007 1450 01       		.uleb128 0x1
 7008 1451 38       		.byte	0x38
 7009 1452 00       		.byte	0
 7010 1453 00       		.byte	0
ARM GAS  C:\Users\DEVELO~1\AppData\Local\Temp\ccUBlV4P.s 			page 124


 7011 1454 02       		.uleb128 0x2
 7012 1455 3D280000 		.4byte	0x283d
 7013 1459 18000000 		.4byte	.LBI886
 7014 145d 02       		.byte	.LVU1259
 7015 145e 18000000 		.4byte	.LBB886
 7016 1462 06000000 		.4byte	.LBE886-.LBB886
 7017 1466 01       		.byte	0x1
 7018 1467 7703     		.2byte	0x377
 7019 1469 03       		.byte	0x3
 7020 146a 02       		.uleb128 0x2
 7021 146b 8C290000 		.4byte	0x298c
 7022 146f 18000000 		.4byte	.LBI888
 7023 1473 09       		.byte	.LVU1266
 7024 1474 18000000 		.4byte	.LBB888
 7025 1478 06000000 		.4byte	.LBE888-.LBB888
 7026 147c 03       		.byte	0x3
 7027 147d 8F01     		.2byte	0x18f
 7028 147f 03       		.byte	0x3
 7029 1480 02       		.uleb128 0x2
 7030 1481 9E290000 		.4byte	0x299e
 7031 1485 18000000 		.4byte	.LBI889
 7032 1489 0B       		.byte	.LVU1268
 7033 148a 18000000 		.4byte	.LBB889
 7034 148e 06000000 		.4byte	.LBE889-.LBB889
 7035 1492 04       		.byte	0x4
 7036 1493 6303     		.2byte	0x363
 7037 1495 03       		.byte	0x3
 7038 1496 01       		.uleb128 0x1
 7039 1497 AB290000 		.4byte	0x29ab
 7040 149b 30040000 		.4byte	.LLST173
 7041 149f 2E040000 		.4byte	.LVUS173
 7042 14a3 00       		.byte	0
 7043 14a4 00       		.byte	0
 7044 14a5 00       		.byte	0
 7045 14a6 00       		.byte	0
 7046 14a7 19       		.uleb128 0x19
 7047 14a8 97090000 		.4byte	.LASF158
 7048 14ac 5B03     		.2byte	0x35b
 7049 14ae 00000000 		.4byte	.LFB371
 7050 14b2 18000000 		.4byte	.LFE371-.LFB371
 7051 14b6 01       		.uleb128 0x1
 7052 14b7 9C       		.byte	0x9c
 7053 14b8 A8150000 		.4byte	0x15a8
 7054 14bc 18       		.uleb128 0x18
 7055 14bd 5C060000 		.4byte	.LASF75
 7056 14c1 5B03     		.2byte	0x35b
 7057 14c3 1F       		.byte	0x1f
 7058 14c4 94030000 		.4byte	0x394
 7059 14c8 40040000 		.4byte	.LLST161
 7060 14cc 3A040000 		.4byte	.LVUS161
 7061 14d0 06       		.uleb128 0x6
 7062 14d1 54280000 		.4byte	0x2854
 7063 14d5 00000000 		.4byte	.LBI852
 7064 14d9 02       		.byte	.LVU1186
 7065 14da D4020000 		.4byte	.LLRL162
 7066 14de 5D03     		.2byte	0x35d
 7067 14e0 03       		.byte	0x3
ARM GAS  C:\Users\DEVELO~1\AppData\Local\Temp\ccUBlV4P.s 			page 125


 7068 14e1 17150000 		.4byte	0x1517
 7069 14e5 05       		.uleb128 0x5
 7070 14e6 95290000 		.4byte	0x2995
 7071 14ea 00000000 		.4byte	.LBI853
 7072 14ee 04       		.byte	.LVU1188
 7073 14ef D4020000 		.4byte	.LLRL162
 7074 14f3 03       		.byte	0x3
 7075 14f4 7601     		.2byte	0x176
 7076 14f6 05       		.uleb128 0x5
 7077 14f7 9E290000 		.4byte	0x299e
 7078 14fb 00000000 		.4byte	.LBI854
 7079 14ff 06       		.byte	.LVU1190
 7080 1500 D4020000 		.4byte	.LLRL162
 7081 1504 04       		.byte	0x4
 7082 1505 5003     		.2byte	0x350
 7083 1507 01       		.uleb128 0x1
 7084 1508 AB290000 		.4byte	0x29ab
 7085 150c 5A040000 		.4byte	.LLST163
 7086 1510 58040000 		.4byte	.LVUS163
 7087 1514 00       		.byte	0
 7088 1515 00       		.byte	0
 7089 1516 00       		.byte	0
 7090 1517 08       		.uleb128 0x8
 7091 1518 00280000 		.4byte	0x2800
 7092 151c 0A000000 		.4byte	.LBI860
 7093 1520 04       		.byte	.LVU1199
 7094 1521 0A000000 		.4byte	.LBB860
 7095 1525 06000000 		.4byte	.LBE860-.LBB860
 7096 1529 01       		.byte	0x1
 7097 152a 5E03     		.2byte	0x35e
 7098 152c 03       		.byte	0x3
 7099 152d 55150000 		.4byte	0x1555
 7100 1531 01       		.uleb128 0x1
 7101 1532 0D280000 		.4byte	0x280d
 7102 1536 6B040000 		.4byte	.LLST164
 7103 153a 65040000 		.4byte	.LVUS164
 7104 153e 1A       		.uleb128 0x1a
 7105 153f 10000000 		.4byte	.LVL148
 7106 1543 040A0000 		.4byte	0xa04
 7107 1547 07       		.uleb128 0x7
 7108 1548 01       		.uleb128 0x1
 7109 1549 50       		.byte	0x50
 7110 154a 01       		.uleb128 0x1
 7111 154b 38       		.byte	0x38
 7112 154c 07       		.uleb128 0x7
 7113 154d 01       		.uleb128 0x1
 7114 154e 51       		.byte	0x51
 7115 154f 03       		.uleb128 0x3
 7116 1550 A3       		.byte	0xa3
 7117 1551 01       		.uleb128 0x1
 7118 1552 50       		.byte	0x50
 7119 1553 00       		.byte	0
 7120 1554 00       		.byte	0
 7121 1555 02       		.uleb128 0x2
 7122 1556 3D280000 		.4byte	0x283d
 7123 155a 10000000 		.4byte	.LBI862
 7124 155e 02       		.byte	.LVU1208
ARM GAS  C:\Users\DEVELO~1\AppData\Local\Temp\ccUBlV4P.s 			page 126


 7125 155f 10000000 		.4byte	.LBB862
 7126 1563 06000000 		.4byte	.LBE862-.LBB862
 7127 1567 01       		.byte	0x1
 7128 1568 5F03     		.2byte	0x35f
 7129 156a 03       		.byte	0x3
 7130 156b 02       		.uleb128 0x2
 7131 156c 8C290000 		.4byte	0x298c
 7132 1570 10000000 		.4byte	.LBI864
 7133 1574 09       		.byte	.LVU1215
 7134 1575 10000000 		.4byte	.LBB864
 7135 1579 06000000 		.4byte	.LBE864-.LBB864
 7136 157d 03       		.byte	0x3
 7137 157e 8F01     		.2byte	0x18f
 7138 1580 03       		.byte	0x3
 7139 1581 02       		.uleb128 0x2
 7140 1582 9E290000 		.4byte	0x299e
 7141 1586 10000000 		.4byte	.LBI865
 7142 158a 0B       		.byte	.LVU1217
 7143 158b 10000000 		.4byte	.LBB865
 7144 158f 06000000 		.4byte	.LBE865-.LBB865
 7145 1593 04       		.byte	0x4
 7146 1594 6303     		.2byte	0x363
 7147 1596 03       		.byte	0x3
 7148 1597 01       		.uleb128 0x1
 7149 1598 AB290000 		.4byte	0x29ab
 7150 159c 85040000 		.4byte	.LLST165
 7151 15a0 83040000 		.4byte	.LVUS165
 7152 15a4 00       		.byte	0
 7153 15a5 00       		.byte	0
 7154 15a6 00       		.byte	0
 7155 15a7 00       		.byte	0
 7156 15a8 19       		.uleb128 0x19
 7157 15a9 E3040000 		.4byte	.LASF159
 7158 15ad 4903     		.2byte	0x349
 7159 15af 00000000 		.4byte	.LFB370
 7160 15b3 16000000 		.4byte	.LFE370-.LFB370
 7161 15b7 01       		.uleb128 0x1
 7162 15b8 9C       		.byte	0x9c
 7163 15b9 6A160000 		.4byte	0x166a
 7164 15bd 2E       		.uleb128 0x2e
 7165 15be 747000   		.ascii	"tp\000"
 7166 15c1 4903     		.2byte	0x349
 7167 15c3 1F       		.byte	0x1f
 7168 15c4 C9030000 		.4byte	0x3c9
 7169 15c8 01       		.uleb128 0x1
 7170 15c9 50       		.byte	0x50
 7171 15ca 08       		.uleb128 0x8
 7172 15cb 54280000 		.4byte	0x2854
 7173 15cf 00000000 		.4byte	.LBI838
 7174 15d3 02       		.byte	.LVU1157
 7175 15d4 00000000 		.4byte	.LBB838
 7176 15d8 06000000 		.4byte	.LBE838-.LBB838
 7177 15dc 01       		.byte	0x1
 7178 15dd 4B03     		.2byte	0x34b
 7179 15df 03       		.byte	0x3
 7180 15e0 20160000 		.4byte	0x1620
 7181 15e4 02       		.uleb128 0x2
ARM GAS  C:\Users\DEVELO~1\AppData\Local\Temp\ccUBlV4P.s 			page 127


 7182 15e5 95290000 		.4byte	0x2995
 7183 15e9 00000000 		.4byte	.LBI839
 7184 15ed 04       		.byte	.LVU1159
 7185 15ee 00000000 		.4byte	.LBB839
 7186 15f2 06000000 		.4byte	.LBE839-.LBB839
 7187 15f6 03       		.byte	0x3
 7188 15f7 7601     		.2byte	0x176
 7189 15f9 03       		.byte	0x3
 7190 15fa 02       		.uleb128 0x2
 7191 15fb 9E290000 		.4byte	0x299e
 7192 15ff 00000000 		.4byte	.LBI840
 7193 1603 06       		.byte	.LVU1161
 7194 1604 00000000 		.4byte	.LBB840
 7195 1608 06000000 		.4byte	.LBE840-.LBB840
 7196 160c 04       		.byte	0x4
 7197 160d 5003     		.2byte	0x350
 7198 160f 03       		.byte	0x3
 7199 1610 01       		.uleb128 0x1
 7200 1611 AB290000 		.4byte	0x29ab
 7201 1615 91040000 		.4byte	.LLST158
 7202 1619 8F040000 		.4byte	.LVUS158
 7203 161d 00       		.byte	0
 7204 161e 00       		.byte	0
 7205 161f 00       		.byte	0
 7206 1620 05       		.uleb128 0x5
 7207 1621 3D280000 		.4byte	0x283d
 7208 1625 10000000 		.4byte	.LBI842
 7209 1629 01       		.byte	.LVU1171
 7210 162a C8020000 		.4byte	.LLRL159
 7211 162e 01       		.byte	0x1
 7212 162f 4D03     		.2byte	0x34d
 7213 1631 13       		.uleb128 0x13
 7214 1632 C8020000 		.4byte	.LLRL159
 7215 1636 05       		.uleb128 0x5
 7216 1637 8C290000 		.4byte	0x298c
 7217 163b 10000000 		.4byte	.LBI844
 7218 163f 08       		.byte	.LVU1178
 7219 1640 C8020000 		.4byte	.LLRL159
 7220 1644 03       		.byte	0x3
 7221 1645 8F01     		.2byte	0x18f
 7222 1647 05       		.uleb128 0x5
 7223 1648 9E290000 		.4byte	0x299e
 7224 164c 10000000 		.4byte	.LBI845
 7225 1650 0A       		.byte	.LVU1180
 7226 1651 C8020000 		.4byte	.LLRL159
 7227 1655 04       		.byte	0x4
 7228 1656 6303     		.2byte	0x363
 7229 1658 01       		.uleb128 0x1
 7230 1659 AB290000 		.4byte	0x29ab
 7231 165d 9E040000 		.4byte	.LLST160
 7232 1661 9C040000 		.4byte	.LVUS160
 7233 1665 00       		.byte	0
 7234 1666 00       		.byte	0
 7235 1667 00       		.byte	0
 7236 1668 00       		.byte	0
 7237 1669 00       		.byte	0
 7238 166a 10       		.uleb128 0x10
ARM GAS  C:\Users\DEVELO~1\AppData\Local\Temp\ccUBlV4P.s 			page 128


 7239 166b C9020000 		.4byte	.LASF160
 7240 166f 2503     		.2byte	0x325
 7241 1671 09       		.byte	0x9
 7242 1672 50010000 		.4byte	0x150
 7243 1676 00000000 		.4byte	.LFB369
 7244 167a 30000000 		.4byte	.LFE369-.LFB369
 7245 167e 01       		.uleb128 0x1
 7246 167f 9C       		.byte	0x9c
 7247 1680 81170000 		.4byte	0x1781
 7248 1684 18       		.uleb128 0x18
 7249 1685 D3040000 		.4byte	.LASF161
 7250 1689 2503     		.2byte	0x325
 7251 168b 22       		.byte	0x22
 7252 168c 50010000 		.4byte	0x150
 7253 1690 AC040000 		.4byte	.LLST151
 7254 1694 A8040000 		.4byte	.LVUS151
 7255 1698 1B       		.uleb128 0x1b
 7256 1699 A5040000 		.4byte	.LASF145
 7257 169d 2603     		.2byte	0x326
 7258 169f 0D       		.byte	0xd
 7259 16a0 C9030000 		.4byte	0x3c9
 7260 16a4 C1040000 		.4byte	.LLST152
 7261 16a8 BF040000 		.4byte	.LVUS152
 7262 16ac 1B       		.uleb128 0x1b
 7263 16ad 2A050000 		.4byte	.LASF162
 7264 16b1 2703     		.2byte	0x327
 7265 16b3 0B       		.byte	0xb
 7266 16b4 50010000 		.4byte	0x150
 7267 16b8 CE040000 		.4byte	.LLST153
 7268 16bc CA040000 		.4byte	.LVUS153
 7269 16c0 09       		.uleb128 0x9
 7270 16c1 6F070000 		.4byte	.LASF147
 7271 16c5 91170000 		.4byte	0x1791
 7272 16c9 29       		.uleb128 0x29
 7273 16ca 24280000 		.4byte	0x2824
 7274 16ce 00000000 		.4byte	.LBI817
 7275 16d2 02       		.byte	.LVU1107
 7276 16d3 AD020000 		.4byte	.LLRL154
 7277 16d7 2603     		.2byte	0x326
 7278 16d9 16       		.byte	0x16
 7279 16da 06       		.uleb128 0x6
 7280 16db 54280000 		.4byte	0x2854
 7281 16df 06000000 		.4byte	.LBI820
 7282 16e3 06       		.byte	.LVU1118
 7283 16e4 B9020000 		.4byte	.LLRL155
 7284 16e8 2B03     		.2byte	0x32b
 7285 16ea 03       		.byte	0x3
 7286 16eb 21170000 		.4byte	0x1721
 7287 16ef 05       		.uleb128 0x5
 7288 16f0 95290000 		.4byte	0x2995
 7289 16f4 06000000 		.4byte	.LBI821
 7290 16f8 08       		.byte	.LVU1120
 7291 16f9 B9020000 		.4byte	.LLRL155
 7292 16fd 03       		.byte	0x3
 7293 16fe 7601     		.2byte	0x176
 7294 1700 05       		.uleb128 0x5
 7295 1701 9E290000 		.4byte	0x299e
ARM GAS  C:\Users\DEVELO~1\AppData\Local\Temp\ccUBlV4P.s 			page 129


 7296 1705 06000000 		.4byte	.LBI822
 7297 1709 0A       		.byte	.LVU1122
 7298 170a B9020000 		.4byte	.LLRL155
 7299 170e 04       		.byte	0x4
 7300 170f 5003     		.2byte	0x350
 7301 1711 01       		.uleb128 0x1
 7302 1712 AB290000 		.4byte	0x29ab
 7303 1716 E0040000 		.4byte	.LLST156
 7304 171a DE040000 		.4byte	.LVUS156
 7305 171e 00       		.byte	0
 7306 171f 00       		.byte	0
 7307 1720 00       		.byte	0
 7308 1721 08       		.uleb128 0x8
 7309 1722 3D280000 		.4byte	0x283d
 7310 1726 20000000 		.4byte	.LBI833
 7311 172a 01       		.byte	.LVU1140
 7312 172b 20000000 		.4byte	.LBB833
 7313 172f 06000000 		.4byte	.LBE833-.LBB833
 7314 1733 01       		.byte	0x1
 7315 1734 3803     		.2byte	0x338
 7316 1736 03       		.byte	0x3
 7317 1737 77170000 		.4byte	0x1777
 7318 173b 02       		.uleb128 0x2
 7319 173c 8C290000 		.4byte	0x298c
 7320 1740 20000000 		.4byte	.LBI835
 7321 1744 08       		.byte	.LVU1147
 7322 1745 20000000 		.4byte	.LBB835
 7323 1749 06000000 		.4byte	.LBE835-.LBB835
 7324 174d 03       		.byte	0x3
 7325 174e 8F01     		.2byte	0x18f
 7326 1750 03       		.byte	0x3
 7327 1751 02       		.uleb128 0x2
 7328 1752 9E290000 		.4byte	0x299e
 7329 1756 20000000 		.4byte	.LBI836
 7330 175a 0A       		.byte	.LVU1149
 7331 175b 20000000 		.4byte	.LBB836
 7332 175f 06000000 		.4byte	.LBE836-.LBB836
 7333 1763 04       		.byte	0x4
 7334 1764 6303     		.2byte	0x363
 7335 1766 03       		.byte	0x3
 7336 1767 01       		.uleb128 0x1
 7337 1768 AB290000 		.4byte	0x29ab
 7338 176c ED040000 		.4byte	.LLST157
 7339 1770 EB040000 		.4byte	.LVUS157
 7340 1774 00       		.byte	0
 7341 1775 00       		.byte	0
 7342 1776 00       		.byte	0
 7343 1777 20       		.uleb128 0x20
 7344 1778 20000000 		.4byte	.LVL138
 7345 177c 1E0A0000 		.4byte	0xa1e
 7346 1780 00       		.byte	0
 7347 1781 11       		.uleb128 0x11
 7348 1782 C4000000 		.4byte	0xc4
 7349 1786 91170000 		.4byte	0x1791
 7350 178a 12       		.uleb128 0x12
 7351 178b 39000000 		.4byte	0x39
 7352 178f 10       		.byte	0x10
ARM GAS  C:\Users\DEVELO~1\AppData\Local\Temp\ccUBlV4P.s 			page 130


 7353 1790 00       		.byte	0
 7354 1791 0D       		.uleb128 0xd
 7355 1792 81170000 		.4byte	0x1781
 7356 1796 10       		.uleb128 0x10
 7357 1797 46030000 		.4byte	.LASF163
 7358 179b FD02     		.2byte	0x2fd
 7359 179d 07       		.byte	0x7
 7360 179e 5C010000 		.4byte	0x15c
 7361 17a2 00000000 		.4byte	.LFB368
 7362 17a6 64000000 		.4byte	.LFE368-.LFB368
 7363 17aa 01       		.uleb128 0x1
 7364 17ab 9C       		.byte	0x9c
 7365 17ac 651A0000 		.4byte	0x1a65
 7366 17b0 0A       		.uleb128 0xa
 7367 17b1 747000   		.ascii	"tp\000"
 7368 17b4 FD02     		.2byte	0x2fd
 7369 17b6 1B       		.byte	0x1b
 7370 17b7 C9030000 		.4byte	0x3c9
 7371 17bb FD040000 		.4byte	.LLST134
 7372 17bf F7040000 		.4byte	.LVUS134
 7373 17c3 1B       		.uleb128 0x1b
 7374 17c4 A5040000 		.4byte	.LASF145
 7375 17c8 FE02     		.2byte	0x2fe
 7376 17ca 0D       		.byte	0xd
 7377 17cb C9030000 		.4byte	0x3c9
 7378 17cf 17050000 		.4byte	.LLST135
 7379 17d3 15050000 		.4byte	.LVUS135
 7380 17d7 21       		.uleb128 0x21
 7381 17d8 6D736700 		.ascii	"msg\000"
 7382 17dc FF02     		.2byte	0x2ff
 7383 17de 09       		.byte	0x9
 7384 17df 5C010000 		.4byte	0x15c
 7385 17e3 24050000 		.4byte	.LLST136
 7386 17e7 20050000 		.4byte	.LVUS136
 7387 17eb 09       		.uleb128 0x9
 7388 17ec 6F070000 		.4byte	.LASF147
 7389 17f0 751A0000 		.4byte	0x1a75
 7390 17f4 29       		.uleb128 0x29
 7391 17f5 24280000 		.4byte	0x2824
 7392 17f9 00000000 		.4byte	.LBI772
 7393 17fd 02       		.byte	.LVU986
 7394 17fe 7A020000 		.4byte	.LLRL137
 7395 1802 FE02     		.2byte	0x2fe
 7396 1804 16       		.byte	0x16
 7397 1805 06       		.uleb128 0x6
 7398 1806 54280000 		.4byte	0x2854
 7399 180a 0A000000 		.4byte	.LBI777
 7400 180e 06       		.byte	.LVU999
 7401 180f 89020000 		.4byte	.LLRL138
 7402 1813 0303     		.2byte	0x303
 7403 1815 03       		.byte	0x3
 7404 1816 4C180000 		.4byte	0x184c
 7405 181a 05       		.uleb128 0x5
 7406 181b 95290000 		.4byte	0x2995
 7407 181f 0A000000 		.4byte	.LBI778
 7408 1823 08       		.byte	.LVU1001
 7409 1824 89020000 		.4byte	.LLRL138
ARM GAS  C:\Users\DEVELO~1\AppData\Local\Temp\ccUBlV4P.s 			page 131


 7410 1828 03       		.byte	0x3
 7411 1829 7601     		.2byte	0x176
 7412 182b 05       		.uleb128 0x5
 7413 182c 9E290000 		.4byte	0x299e
 7414 1830 0A000000 		.4byte	.LBI779
 7415 1834 0A       		.byte	.LVU1003
 7416 1835 89020000 		.4byte	.LLRL138
 7417 1839 04       		.byte	0x4
 7418 183a 5003     		.2byte	0x350
 7419 183c 01       		.uleb128 0x1
 7420 183d AB290000 		.4byte	0x29ab
 7421 1841 36050000 		.4byte	.LLST139
 7422 1845 34050000 		.4byte	.LVUS139
 7423 1849 00       		.byte	0
 7424 184a 00       		.byte	0
 7425 184b 00       		.byte	0
 7426 184c 06       		.uleb128 0x6
 7427 184d 2E290000 		.4byte	0x292e
 7428 1851 14000000 		.4byte	.LBI786
 7429 1855 01       		.byte	.LVU1017
 7430 1856 95020000 		.4byte	.LLRL140
 7431 185a 0A03     		.2byte	0x30a
 7432 185c 05       		.byte	0x5
 7433 185d 7C180000 		.4byte	0x187c
 7434 1861 01       		.uleb128 0x1
 7435 1862 43290000 		.4byte	0x2943
 7436 1866 43050000 		.4byte	.LLST141
 7437 186a 41050000 		.4byte	.LVUS141
 7438 186e 01       		.uleb128 0x1
 7439 186f 38290000 		.4byte	0x2938
 7440 1873 50050000 		.4byte	.LLST142
 7441 1877 4C050000 		.4byte	.LVUS142
 7442 187b 00       		.byte	0
 7443 187c 08       		.uleb128 0x8
 7444 187d 3D280000 		.4byte	0x283d
 7445 1881 22000000 		.4byte	.LBI790
 7446 1885 01       		.byte	.LVU1029
 7447 1886 22000000 		.4byte	.LBB790
 7448 188a 06000000 		.4byte	.LBE790-.LBB790
 7449 188e 01       		.byte	0x1
 7450 188f 0E03     		.2byte	0x30e
 7451 1891 03       		.byte	0x3
 7452 1892 D2180000 		.4byte	0x18d2
 7453 1896 02       		.uleb128 0x2
 7454 1897 8C290000 		.4byte	0x298c
 7455 189b 22000000 		.4byte	.LBI792
 7456 189f 08       		.byte	.LVU1036
 7457 18a0 22000000 		.4byte	.LBB792
 7458 18a4 06000000 		.4byte	.LBE792-.LBB792
 7459 18a8 03       		.byte	0x3
 7460 18a9 8F01     		.2byte	0x18f
 7461 18ab 03       		.byte	0x3
 7462 18ac 02       		.uleb128 0x2
 7463 18ad 9E290000 		.4byte	0x299e
 7464 18b1 22000000 		.4byte	.LBI793
 7465 18b5 0A       		.byte	.LVU1038
 7466 18b6 22000000 		.4byte	.LBB793
ARM GAS  C:\Users\DEVELO~1\AppData\Local\Temp\ccUBlV4P.s 			page 132


 7467 18ba 06000000 		.4byte	.LBE793-.LBB793
 7468 18be 04       		.byte	0x4
 7469 18bf 6303     		.2byte	0x363
 7470 18c1 03       		.byte	0x3
 7471 18c2 01       		.uleb128 0x1
 7472 18c3 AB290000 		.4byte	0x29ab
 7473 18c7 66050000 		.4byte	.LLST143
 7474 18cb 64050000 		.4byte	.LVUS143
 7475 18cf 00       		.byte	0
 7476 18d0 00       		.byte	0
 7477 18d1 00       		.byte	0
 7478 18d2 06       		.uleb128 0x6
 7479 18d3 121C0000 		.4byte	0x1c12
 7480 18d7 28000000 		.4byte	.LBI795
 7481 18db 02       		.byte	.LVU1042
 7482 18dc A1020000 		.4byte	.LLRL144
 7483 18e0 1203     		.2byte	0x312
 7484 18e2 03       		.byte	0x3
 7485 18e3 551A0000 		.4byte	0x1a55
 7486 18e7 01       		.uleb128 0x1
 7487 18e8 1D1C0000 		.4byte	0x1c1d
 7488 18ec 76050000 		.4byte	.LLST145
 7489 18f0 70050000 		.4byte	.LVUS145
 7490 18f4 13       		.uleb128 0x13
 7491 18f5 A1020000 		.4byte	.LLRL144
 7492 18f9 08       		.uleb128 0x8
 7493 18fa 54280000 		.4byte	0x2854
 7494 18fe 28000000 		.4byte	.LBI797
 7495 1902 04       		.byte	.LVU1044
 7496 1903 28000000 		.4byte	.LBB797
 7497 1907 06000000 		.4byte	.LBE797-.LBB797
 7498 190b 01       		.byte	0x1
 7499 190c 8402     		.2byte	0x284
 7500 190e 03       		.byte	0x3
 7501 190f 4F190000 		.4byte	0x194f
 7502 1913 02       		.uleb128 0x2
 7503 1914 95290000 		.4byte	0x2995
 7504 1918 28000000 		.4byte	.LBI798
 7505 191c 06       		.byte	.LVU1046
 7506 191d 28000000 		.4byte	.LBB798
 7507 1921 06000000 		.4byte	.LBE798-.LBB798
 7508 1925 03       		.byte	0x3
 7509 1926 7601     		.2byte	0x176
 7510 1928 03       		.byte	0x3
 7511 1929 02       		.uleb128 0x2
 7512 192a 9E290000 		.4byte	0x299e
 7513 192e 28000000 		.4byte	.LBI799
 7514 1932 08       		.byte	.LVU1048
 7515 1933 28000000 		.4byte	.LBB799
 7516 1937 06000000 		.4byte	.LBE799-.LBB799
 7517 193b 04       		.byte	0x4
 7518 193c 5003     		.2byte	0x350
 7519 193e 03       		.byte	0x3
 7520 193f 01       		.uleb128 0x1
 7521 1940 AB290000 		.4byte	0x29ab
 7522 1944 90050000 		.4byte	.LLST146
 7523 1948 8E050000 		.4byte	.LVUS146
ARM GAS  C:\Users\DEVELO~1\AppData\Local\Temp\ccUBlV4P.s 			page 133


 7524 194c 00       		.byte	0
 7525 194d 00       		.byte	0
 7526 194e 00       		.byte	0
 7527 194f 08       		.uleb128 0x8
 7528 1950 3D280000 		.4byte	0x283d
 7529 1954 3E000000 		.4byte	.LBI801
 7530 1958 01       		.byte	.LVU1062
 7531 1959 3E000000 		.4byte	.LBB801
 7532 195d 04000000 		.4byte	.LBE801-.LBB801
 7533 1961 01       		.byte	0x1
 7534 1962 9A02     		.2byte	0x29a
 7535 1964 03       		.byte	0x3
 7536 1965 A5190000 		.4byte	0x19a5
 7537 1969 02       		.uleb128 0x2
 7538 196a 8C290000 		.4byte	0x298c
 7539 196e 3E000000 		.4byte	.LBI803
 7540 1972 08       		.byte	.LVU1069
 7541 1973 3E000000 		.4byte	.LBB803
 7542 1977 04000000 		.4byte	.LBE803-.LBB803
 7543 197b 03       		.byte	0x3
 7544 197c 8F01     		.2byte	0x18f
 7545 197e 03       		.byte	0x3
 7546 197f 02       		.uleb128 0x2
 7547 1980 9E290000 		.4byte	0x299e
 7548 1984 3E000000 		.4byte	.LBI804
 7549 1988 0A       		.byte	.LVU1071
 7550 1989 3E000000 		.4byte	.LBB804
 7551 198d 04000000 		.4byte	.LBE804-.LBB804
 7552 1991 04       		.byte	0x4
 7553 1992 6303     		.2byte	0x363
 7554 1994 03       		.byte	0x3
 7555 1995 01       		.uleb128 0x1
 7556 1996 AB290000 		.4byte	0x29ab
 7557 199a 9D050000 		.4byte	.LLST147
 7558 199e 9B050000 		.4byte	.LVUS147
 7559 19a2 00       		.byte	0
 7560 19a3 00       		.byte	0
 7561 19a4 00       		.byte	0
 7562 19a5 02       		.uleb128 0x2
 7563 19a6 121C0000 		.4byte	0x1c12
 7564 19aa 46000000 		.4byte	.LBI806
 7565 19ae 00       		.byte	.LVU1076
 7566 19af 46000000 		.4byte	.LBB806
 7567 19b3 16000000 		.4byte	.LBE806-.LBB806
 7568 19b7 01       		.byte	0x1
 7569 19b8 8202     		.2byte	0x282
 7570 19ba 06       		.byte	0x6
 7571 19bb 01       		.uleb128 0x1
 7572 19bc 1D1C0000 		.4byte	0x1c1d
 7573 19c0 AB050000 		.4byte	.LLST148
 7574 19c4 A7050000 		.4byte	.LVUS148
 7575 19c8 08       		.uleb128 0x8
 7576 19c9 5D280000 		.4byte	0x285d
 7577 19cd 46000000 		.4byte	.LBI808
 7578 19d1 02       		.byte	.LVU1078
 7579 19d2 46000000 		.4byte	.LBB808
 7580 19d6 08000000 		.4byte	.LBE808-.LBB808
ARM GAS  C:\Users\DEVELO~1\AppData\Local\Temp\ccUBlV4P.s 			page 134


 7581 19da 01       		.byte	0x1
 7582 19db 8E02     		.2byte	0x28e
 7583 19dd 05       		.byte	0x5
 7584 19de F0190000 		.4byte	0x19f0
 7585 19e2 01       		.uleb128 0x1
 7586 19e3 6E280000 		.4byte	0x286e
 7587 19e7 C0050000 		.4byte	.LLST149
 7588 19eb BE050000 		.4byte	.LVUS149
 7589 19ef 00       		.byte	0
 7590 19f0 08       		.uleb128 0x8
 7591 19f1 3D280000 		.4byte	0x283d
 7592 19f5 4E000000 		.4byte	.LBI810
 7593 19f9 03       		.byte	.LVU1087
 7594 19fa 4E000000 		.4byte	.LBB810
 7595 19fe 04000000 		.4byte	.LBE810-.LBB810
 7596 1a02 01       		.byte	0x1
 7597 1a03 8F02     		.2byte	0x28f
 7598 1a05 05       		.byte	0x5
 7599 1a06 461A0000 		.4byte	0x1a46
 7600 1a0a 02       		.uleb128 0x2
 7601 1a0b 8C290000 		.4byte	0x298c
 7602 1a0f 4E000000 		.4byte	.LBI812
 7603 1a13 0A       		.byte	.LVU1094
 7604 1a14 4E000000 		.4byte	.LBB812
 7605 1a18 04000000 		.4byte	.LBE812-.LBB812
 7606 1a1c 03       		.byte	0x3
 7607 1a1d 8F01     		.2byte	0x18f
 7608 1a1f 03       		.byte	0x3
 7609 1a20 02       		.uleb128 0x2
 7610 1a21 9E290000 		.4byte	0x299e
 7611 1a25 4E000000 		.4byte	.LBI813
 7612 1a29 0C       		.byte	.LVU1096
 7613 1a2a 4E000000 		.4byte	.LBB813
 7614 1a2e 04000000 		.4byte	.LBE813-.LBB813
 7615 1a32 04       		.byte	0x4
 7616 1a33 6303     		.2byte	0x363
 7617 1a35 03       		.byte	0x3
 7618 1a36 01       		.uleb128 0x1
 7619 1a37 AB290000 		.4byte	0x29ab
 7620 1a3b CD050000 		.4byte	.LLST150
 7621 1a3f CB050000 		.4byte	.LVUS150
 7622 1a43 00       		.byte	0
 7623 1a44 00       		.byte	0
 7624 1a45 00       		.byte	0
 7625 1a46 51       		.uleb128 0x51
 7626 1a47 5C000000 		.4byte	.LVL132
 7627 1a4b 07       		.uleb128 0x7
 7628 1a4c 01       		.uleb128 0x1
 7629 1a4d 50       		.byte	0x50
 7630 1a4e 02       		.uleb128 0x2
 7631 1a4f 74       		.byte	0x74
 7632 1a50 00       		.sleb128 0
 7633 1a51 00       		.byte	0
 7634 1a52 00       		.byte	0
 7635 1a53 00       		.byte	0
 7636 1a54 00       		.byte	0
 7637 1a55 1A       		.uleb128 0x1a
ARM GAS  C:\Users\DEVELO~1\AppData\Local\Temp\ccUBlV4P.s 			page 135


 7638 1a56 20000000 		.4byte	.LVL123
 7639 1a5a 240A0000 		.4byte	0xa24
 7640 1a5e 07       		.uleb128 0x7
 7641 1a5f 01       		.uleb128 0x1
 7642 1a60 50       		.byte	0x50
 7643 1a61 01       		.uleb128 0x1
 7644 1a62 39       		.byte	0x39
 7645 1a63 00       		.byte	0
 7646 1a64 00       		.byte	0
 7647 1a65 11       		.uleb128 0x11
 7648 1a66 C4000000 		.4byte	0xc4
 7649 1a6a 751A0000 		.4byte	0x1a75
 7650 1a6e 12       		.uleb128 0x12
 7651 1a6f 39000000 		.4byte	0x39
 7652 1a73 09       		.byte	0x9
 7653 1a74 00       		.byte	0
 7654 1a75 0D       		.uleb128 0xd
 7655 1a76 651A0000 		.4byte	0x1a65
 7656 1a7a 35       		.uleb128 0x35
 7657 1a7b B0000000 		.4byte	.LASF164
 7658 1a7f C402     		.2byte	0x2c4
 7659 1a81 A81A0000 		.4byte	0x1aa8
 7660 1a85 0E       		.uleb128 0xe
 7661 1a86 6D736700 		.ascii	"msg\000"
 7662 1a8a 01       		.byte	0x1
 7663 1a8b C402     		.2byte	0x2c4
 7664 1a8d 17       		.byte	0x17
 7665 1a8e 5C010000 		.4byte	0x15c
 7666 1a92 2F       		.uleb128 0x2f
 7667 1a93 A5040000 		.4byte	.LASF145
 7668 1a97 C502     		.2byte	0x2c5
 7669 1a99 0D       		.byte	0xd
 7670 1a9a C9030000 		.4byte	0x3c9
 7671 1a9e 09       		.uleb128 0x9
 7672 1a9f 6F070000 		.4byte	.LASF147
 7673 1aa3 B81A0000 		.4byte	0x1ab8
 7674 1aa7 00       		.byte	0
 7675 1aa8 11       		.uleb128 0x11
 7676 1aa9 C4000000 		.4byte	0xc4
 7677 1aad B81A0000 		.4byte	0x1ab8
 7678 1ab1 12       		.uleb128 0x12
 7679 1ab2 39000000 		.4byte	0x39
 7680 1ab6 0A       		.byte	0xa
 7681 1ab7 00       		.byte	0
 7682 1ab8 0D       		.uleb128 0xd
 7683 1ab9 A81A0000 		.4byte	0x1aa8
 7684 1abd 19       		.uleb128 0x19
 7685 1abe 5A010000 		.4byte	.LASF165
 7686 1ac2 AC02     		.2byte	0x2ac
 7687 1ac4 00000000 		.4byte	.LFB366
 7688 1ac8 50000000 		.4byte	.LFE366-.LFB366
 7689 1acc 01       		.uleb128 0x1
 7690 1acd 9C       		.byte	0x9c
 7691 1ace 121C0000 		.4byte	0x1c12
 7692 1ad2 0A       		.uleb128 0xa
 7693 1ad3 6D736700 		.ascii	"msg\000"
 7694 1ad7 AC02     		.2byte	0x2ac
ARM GAS  C:\Users\DEVELO~1\AppData\Local\Temp\ccUBlV4P.s 			page 136


 7695 1ad9 16       		.byte	0x16
 7696 1ada 5C010000 		.4byte	0x15c
 7697 1ade DB050000 		.4byte	.LLST113
 7698 1ae2 D7050000 		.4byte	.LVUS113
 7699 1ae6 06       		.uleb128 0x6
 7700 1ae7 54280000 		.4byte	0x2854
 7701 1aeb 00000000 		.4byte	.LBI688
 7702 1aef 02       		.byte	.LVU867
 7703 1af0 20020000 		.4byte	.LLRL114
 7704 1af4 AE02     		.2byte	0x2ae
 7705 1af6 03       		.byte	0x3
 7706 1af7 2D1B0000 		.4byte	0x1b2d
 7707 1afb 05       		.uleb128 0x5
 7708 1afc 95290000 		.4byte	0x2995
 7709 1b00 00000000 		.4byte	.LBI689
 7710 1b04 04       		.byte	.LVU869
 7711 1b05 20020000 		.4byte	.LLRL114
 7712 1b09 03       		.byte	0x3
 7713 1b0a 7601     		.2byte	0x176
 7714 1b0c 05       		.uleb128 0x5
 7715 1b0d 9E290000 		.4byte	0x299e
 7716 1b11 00000000 		.4byte	.LBI690
 7717 1b15 06       		.byte	.LVU871
 7718 1b16 20020000 		.4byte	.LLRL114
 7719 1b1a 04       		.byte	0x4
 7720 1b1b 5003     		.2byte	0x350
 7721 1b1d 01       		.uleb128 0x1
 7722 1b1e AB290000 		.4byte	0x29ab
 7723 1b22 F0050000 		.4byte	.LLST115
 7724 1b26 EE050000 		.4byte	.LVUS115
 7725 1b2a 00       		.byte	0
 7726 1b2b 00       		.byte	0
 7727 1b2c 00       		.byte	0
 7728 1b2d 05       		.uleb128 0x5
 7729 1b2e 7A1A0000 		.4byte	0x1a7a
 7730 1b32 08000000 		.4byte	.LBI696
 7731 1b36 04       		.byte	.LVU879
 7732 1b37 2C020000 		.4byte	.LLRL116
 7733 1b3b 01       		.byte	0x1
 7734 1b3c AF02     		.2byte	0x2af
 7735 1b3e 01       		.uleb128 0x1
 7736 1b3f 851A0000 		.4byte	0x1a85
 7737 1b43 FF050000 		.4byte	.LLST117
 7738 1b47 FB050000 		.4byte	.LVUS117
 7739 1b4b 13       		.uleb128 0x13
 7740 1b4c 2C020000 		.4byte	.LLRL116
 7741 1b50 0F       		.uleb128 0xf
 7742 1b51 921A0000 		.4byte	0x1a92
 7743 1b55 16060000 		.4byte	.LLST118
 7744 1b59 12060000 		.4byte	.LVUS118
 7745 1b5d 33       		.uleb128 0x33
 7746 1b5e 24280000 		.4byte	0x2824
 7747 1b62 08000000 		.4byte	.LBI698
 7748 1b66 06       		.byte	.LVU881
 7749 1b67 08000000 		.4byte	.LBB698
 7750 1b6b 04000000 		.4byte	.LBE698-.LBB698
 7751 1b6f C502     		.2byte	0x2c5
ARM GAS  C:\Users\DEVELO~1\AppData\Local\Temp\ccUBlV4P.s 			page 137


 7752 1b71 16       		.byte	0x16
 7753 1b72 06       		.uleb128 0x6
 7754 1b73 4E290000 		.4byte	0x294e
 7755 1b77 14000000 		.4byte	.LBI700
 7756 1b7b 04       		.byte	.LVU893
 7757 1b7c 38020000 		.4byte	.LLRL119
 7758 1b80 CF02     		.2byte	0x2cf
 7759 1b82 0A       		.byte	0xa
 7760 1b83 951B0000 		.4byte	0x1b95
 7761 1b87 01       		.uleb128 0x1
 7762 1b88 5F290000 		.4byte	0x295f
 7763 1b8c 2A060000 		.4byte	.LLST120
 7764 1b90 26060000 		.4byte	.LVUS120
 7765 1b94 00       		.byte	0
 7766 1b95 06       		.uleb128 0x6
 7767 1b96 05290000 		.4byte	0x2905
 7768 1b9a 26000000 		.4byte	.LBI705
 7769 1b9e 01       		.byte	.LVU903
 7770 1b9f 47020000 		.4byte	.LLRL121
 7771 1ba3 D002     		.2byte	0x2d0
 7772 1ba5 18       		.byte	0x18
 7773 1ba6 CB1B0000 		.4byte	0x1bcb
 7774 1baa 01       		.uleb128 0x1
 7775 1bab 16290000 		.4byte	0x2916
 7776 1baf 3C060000 		.4byte	.LLST122
 7777 1bb3 3A060000 		.4byte	.LVUS122
 7778 1bb7 13       		.uleb128 0x13
 7779 1bb8 47020000 		.4byte	.LLRL121
 7780 1bbc 0F       		.uleb128 0xf
 7781 1bbd 22290000 		.4byte	0x2922
 7782 1bc1 47060000 		.4byte	.LLST123
 7783 1bc5 45060000 		.4byte	.LVUS123
 7784 1bc9 00       		.byte	0
 7785 1bca 00       		.byte	0
 7786 1bcb 08       		.uleb128 0x8
 7787 1bcc 5D280000 		.4byte	0x285d
 7788 1bd0 42000000 		.4byte	.LBI710
 7789 1bd4 01       		.byte	.LVU923
 7790 1bd5 42000000 		.4byte	.LBB710
 7791 1bd9 0E000000 		.4byte	.LBE710-.LBB710
 7792 1bdd 01       		.byte	0x1
 7793 1bde DA02     		.2byte	0x2da
 7794 1be0 07       		.byte	0x7
 7795 1be1 F31B0000 		.4byte	0x1bf3
 7796 1be5 01       		.uleb128 0x1
 7797 1be6 6E280000 		.4byte	0x286e
 7798 1bea 52060000 		.4byte	.LLST124
 7799 1bee 50060000 		.4byte	.LVUS124
 7800 1bf2 00       		.byte	0
 7801 1bf3 41       		.uleb128 0x41
 7802 1bf4 26000000 		.4byte	.LVL102
 7803 1bf8 240A0000 		.4byte	0xa24
 7804 1bfc 061C0000 		.4byte	0x1c06
 7805 1c00 07       		.uleb128 0x7
 7806 1c01 01       		.uleb128 0x1
 7807 1c02 50       		.byte	0x50
 7808 1c03 01       		.uleb128 0x1
ARM GAS  C:\Users\DEVELO~1\AppData\Local\Temp\ccUBlV4P.s 			page 138


 7809 1c04 3F       		.byte	0x3f
 7810 1c05 00       		.byte	0
 7811 1c06 20       		.uleb128 0x20
 7812 1c07 30000000 		.4byte	.LVL104
 7813 1c0b 490A0000 		.4byte	0xa49
 7814 1c0f 00       		.byte	0
 7815 1c10 00       		.byte	0
 7816 1c11 00       		.byte	0
 7817 1c12 35       		.uleb128 0x35
 7818 1c13 82070000 		.4byte	.LASF166
 7819 1c17 8202     		.2byte	0x282
 7820 1c19 331C0000 		.4byte	0x1c33
 7821 1c1d 0E       		.uleb128 0xe
 7822 1c1e 747000   		.ascii	"tp\000"
 7823 1c21 01       		.byte	0x1
 7824 1c22 8202     		.2byte	0x282
 7825 1c24 1D       		.byte	0x1d
 7826 1c25 C9030000 		.4byte	0x3c9
 7827 1c29 09       		.uleb128 0x9
 7828 1c2a 6F070000 		.4byte	.LASF147
 7829 1c2e 120F0000 		.4byte	0xf12
 7830 1c32 00       		.byte	0
 7831 1c33 10       		.uleb128 0x10
 7832 1c34 1E050000 		.4byte	.LASF167
 7833 1c38 6602     		.2byte	0x266
 7834 1c3a 0B       		.byte	0xb
 7835 1c3b C9030000 		.4byte	0x3c9
 7836 1c3f 00000000 		.4byte	.LFB364
 7837 1c43 14000000 		.4byte	.LFE364-.LFB364
 7838 1c47 01       		.uleb128 0x1
 7839 1c48 9C       		.byte	0x9c
 7840 1c49 031D0000 		.4byte	0x1d03
 7841 1c4d 2E       		.uleb128 0x2e
 7842 1c4e 747000   		.ascii	"tp\000"
 7843 1c51 6602     		.2byte	0x266
 7844 1c53 21       		.byte	0x21
 7845 1c54 C9030000 		.4byte	0x3c9
 7846 1c58 01       		.uleb128 0x1
 7847 1c59 50       		.byte	0x50
 7848 1c5a 09       		.uleb128 0x9
 7849 1c5b 6F070000 		.4byte	.LASF147
 7850 1c5f 131D0000 		.4byte	0x1d13
 7851 1c63 08       		.uleb128 0x8
 7852 1c64 54280000 		.4byte	0x2854
 7853 1c68 00000000 		.4byte	.LBI599
 7854 1c6c 02       		.byte	.LVU772
 7855 1c6d 00000000 		.4byte	.LBB599
 7856 1c71 06000000 		.4byte	.LBE599-.LBB599
 7857 1c75 01       		.byte	0x1
 7858 1c76 6802     		.2byte	0x268
 7859 1c78 03       		.byte	0x3
 7860 1c79 B91C0000 		.4byte	0x1cb9
 7861 1c7d 02       		.uleb128 0x2
 7862 1c7e 95290000 		.4byte	0x2995
 7863 1c82 00000000 		.4byte	.LBI600
 7864 1c86 04       		.byte	.LVU774
 7865 1c87 00000000 		.4byte	.LBB600
ARM GAS  C:\Users\DEVELO~1\AppData\Local\Temp\ccUBlV4P.s 			page 139


 7866 1c8b 06000000 		.4byte	.LBE600-.LBB600
 7867 1c8f 03       		.byte	0x3
 7868 1c90 7601     		.2byte	0x176
 7869 1c92 03       		.byte	0x3
 7870 1c93 02       		.uleb128 0x2
 7871 1c94 9E290000 		.4byte	0x299e
 7872 1c98 00000000 		.4byte	.LBI601
 7873 1c9c 06       		.byte	.LVU776
 7874 1c9d 00000000 		.4byte	.LBB601
 7875 1ca1 06000000 		.4byte	.LBE601-.LBB601
 7876 1ca5 04       		.byte	0x4
 7877 1ca6 5003     		.2byte	0x350
 7878 1ca8 03       		.byte	0x3
 7879 1ca9 01       		.uleb128 0x1
 7880 1caa AB290000 		.4byte	0x29ab
 7881 1cae 5F060000 		.4byte	.LLST102
 7882 1cb2 5D060000 		.4byte	.LVUS102
 7883 1cb6 00       		.byte	0
 7884 1cb7 00       		.byte	0
 7885 1cb8 00       		.byte	0
 7886 1cb9 05       		.uleb128 0x5
 7887 1cba 3D280000 		.4byte	0x283d
 7888 1cbe 0E000000 		.4byte	.LBI603
 7889 1cc2 01       		.byte	.LVU789
 7890 1cc3 FC010000 		.4byte	.LLRL103
 7891 1cc7 01       		.byte	0x1
 7892 1cc8 6B02     		.2byte	0x26b
 7893 1cca 13       		.uleb128 0x13
 7894 1ccb FC010000 		.4byte	.LLRL103
 7895 1ccf 05       		.uleb128 0x5
 7896 1cd0 8C290000 		.4byte	0x298c
 7897 1cd4 0E000000 		.4byte	.LBI605
 7898 1cd8 08       		.byte	.LVU796
 7899 1cd9 FC010000 		.4byte	.LLRL103
 7900 1cdd 03       		.byte	0x3
 7901 1cde 8F01     		.2byte	0x18f
 7902 1ce0 05       		.uleb128 0x5
 7903 1ce1 9E290000 		.4byte	0x299e
 7904 1ce5 0E000000 		.4byte	.LBI606
 7905 1ce9 0A       		.byte	.LVU798
 7906 1cea FC010000 		.4byte	.LLRL103
 7907 1cee 04       		.byte	0x4
 7908 1cef 6303     		.2byte	0x363
 7909 1cf1 01       		.uleb128 0x1
 7910 1cf2 AB290000 		.4byte	0x29ab
 7911 1cf6 6C060000 		.4byte	.LLST104
 7912 1cfa 6A060000 		.4byte	.LVUS104
 7913 1cfe 00       		.byte	0
 7914 1cff 00       		.byte	0
 7915 1d00 00       		.byte	0
 7916 1d01 00       		.byte	0
 7917 1d02 00       		.byte	0
 7918 1d03 11       		.uleb128 0x11
 7919 1d04 C4000000 		.4byte	0xc4
 7920 1d08 131D0000 		.4byte	0x1d13
 7921 1d0c 12       		.uleb128 0x12
 7922 1d0d 39000000 		.4byte	0x39
ARM GAS  C:\Users\DEVELO~1\AppData\Local\Temp\ccUBlV4P.s 			page 140


 7923 1d11 0B       		.byte	0xb
 7924 1d12 00       		.byte	0
 7925 1d13 0D       		.uleb128 0xd
 7926 1d14 031D0000 		.4byte	0x1d03
 7927 1d18 10       		.uleb128 0x10
 7928 1d19 74060000 		.4byte	.LASF168
 7929 1d1d 5002     		.2byte	0x250
 7930 1d1f 0B       		.byte	0xb
 7931 1d20 C9030000 		.4byte	0x3c9
 7932 1d24 00000000 		.4byte	.LFB363
 7933 1d28 1A000000 		.4byte	.LFE363-.LFB363
 7934 1d2c 01       		.uleb128 0x1
 7935 1d2d 9C       		.byte	0x9c
 7936 1d2e 011E0000 		.4byte	0x1e01
 7937 1d32 0A       		.uleb128 0xa
 7938 1d33 747000   		.ascii	"tp\000"
 7939 1d36 5002     		.2byte	0x250
 7940 1d38 20       		.byte	0x20
 7941 1d39 C9030000 		.4byte	0x3c9
 7942 1d3d 7A060000 		.4byte	.LLST98
 7943 1d41 76060000 		.4byte	.LVUS98
 7944 1d45 09       		.uleb128 0x9
 7945 1d46 6F070000 		.4byte	.LASF147
 7946 1d4a B81A0000 		.4byte	0x1ab8
 7947 1d4e 06       		.uleb128 0x6
 7948 1d4f 54280000 		.4byte	0x2854
 7949 1d53 00000000 		.4byte	.LBI582
 7950 1d57 02       		.byte	.LVU737
 7951 1d58 ED010000 		.4byte	.LLRL99
 7952 1d5c 5202     		.2byte	0x252
 7953 1d5e 03       		.byte	0x3
 7954 1d5f 951D0000 		.4byte	0x1d95
 7955 1d63 05       		.uleb128 0x5
 7956 1d64 95290000 		.4byte	0x2995
 7957 1d68 00000000 		.4byte	.LBI583
 7958 1d6c 04       		.byte	.LVU739
 7959 1d6d ED010000 		.4byte	.LLRL99
 7960 1d71 03       		.byte	0x3
 7961 1d72 7601     		.2byte	0x176
 7962 1d74 05       		.uleb128 0x5
 7963 1d75 9E290000 		.4byte	0x299e
 7964 1d79 00000000 		.4byte	.LBI584
 7965 1d7d 06       		.byte	.LVU741
 7966 1d7e ED010000 		.4byte	.LLRL99
 7967 1d82 04       		.byte	0x4
 7968 1d83 5003     		.2byte	0x350
 7969 1d85 01       		.uleb128 0x1
 7970 1d86 AB290000 		.4byte	0x29ab
 7971 1d8a 8C060000 		.4byte	.LLST100
 7972 1d8e 8A060000 		.4byte	.LVUS100
 7973 1d92 00       		.byte	0
 7974 1d93 00       		.byte	0
 7975 1d94 00       		.byte	0
 7976 1d95 08       		.uleb128 0x8
 7977 1d96 3D280000 		.4byte	0x283d
 7978 1d9a 10000000 		.4byte	.LBI594
 7979 1d9e 01       		.byte	.LVU755
ARM GAS  C:\Users\DEVELO~1\AppData\Local\Temp\ccUBlV4P.s 			page 141


 7980 1d9f 10000000 		.4byte	.LBB594
 7981 1da3 06000000 		.4byte	.LBE594-.LBB594
 7982 1da7 01       		.byte	0x1
 7983 1da8 5502     		.2byte	0x255
 7984 1daa 03       		.byte	0x3
 7985 1dab EB1D0000 		.4byte	0x1deb
 7986 1daf 02       		.uleb128 0x2
 7987 1db0 8C290000 		.4byte	0x298c
 7988 1db4 10000000 		.4byte	.LBI596
 7989 1db8 08       		.byte	.LVU762
 7990 1db9 10000000 		.4byte	.LBB596
 7991 1dbd 06000000 		.4byte	.LBE596-.LBB596
 7992 1dc1 03       		.byte	0x3
 7993 1dc2 8F01     		.2byte	0x18f
 7994 1dc4 03       		.byte	0x3
 7995 1dc5 02       		.uleb128 0x2
 7996 1dc6 9E290000 		.4byte	0x299e
 7997 1dca 10000000 		.4byte	.LBI597
 7998 1dce 0A       		.byte	.LVU764
 7999 1dcf 10000000 		.4byte	.LBB597
 8000 1dd3 06000000 		.4byte	.LBE597-.LBB597
 8001 1dd7 04       		.byte	0x4
 8002 1dd8 6303     		.2byte	0x363
 8003 1dda 03       		.byte	0x3
 8004 1ddb 01       		.uleb128 0x1
 8005 1ddc AB290000 		.4byte	0x29ab
 8006 1de0 99060000 		.4byte	.LLST101
 8007 1de4 97060000 		.4byte	.LVUS101
 8008 1de8 00       		.byte	0
 8009 1de9 00       		.byte	0
 8010 1dea 00       		.byte	0
 8011 1deb 1A       		.uleb128 0x1a
 8012 1dec 10000000 		.4byte	.LVL82
 8013 1df0 340A0000 		.4byte	0xa34
 8014 1df4 07       		.uleb128 0x7
 8015 1df5 01       		.uleb128 0x1
 8016 1df6 50       		.byte	0x50
 8017 1df7 02       		.uleb128 0x2
 8018 1df8 74       		.byte	0x74
 8019 1df9 00       		.sleb128 0
 8020 1dfa 07       		.uleb128 0x7
 8021 1dfb 01       		.uleb128 0x1
 8022 1dfc 51       		.byte	0x51
 8023 1dfd 01       		.uleb128 0x1
 8024 1dfe 30       		.byte	0x30
 8025 1dff 00       		.byte	0
 8026 1e00 00       		.byte	0
 8027 1e01 10       		.uleb128 0x10
 8028 1e02 48050000 		.4byte	.LASF169
 8029 1e06 1002     		.2byte	0x210
 8030 1e08 0B       		.byte	0xb
 8031 1e09 C9030000 		.4byte	0x3c9
 8032 1e0d 00000000 		.4byte	.LFB362
 8033 1e11 A4000000 		.4byte	.LFE362-.LFB362
 8034 1e15 01       		.uleb128 0x1
 8035 1e16 9C       		.byte	0x9c
 8036 1e17 33200000 		.4byte	0x2033
ARM GAS  C:\Users\DEVELO~1\AppData\Local\Temp\ccUBlV4P.s 			page 142


 8037 1e1b 18       		.uleb128 0x18
 8038 1e1c 56060000 		.4byte	.LASF129
 8039 1e20 1002     		.2byte	0x210
 8040 1e22 28       		.byte	0x28
 8041 1e23 9D080000 		.4byte	0x89d
 8042 1e27 A9060000 		.4byte	.LLST77
 8043 1e2b A3060000 		.4byte	.LVUS77
 8044 1e2f 18       		.uleb128 0x18
 8045 1e30 76010000 		.4byte	.LASF170
 8046 1e34 1002     		.2byte	0x210
 8047 1e36 36       		.byte	0x36
 8048 1e37 2D000000 		.4byte	0x2d
 8049 1e3b CA060000 		.4byte	.LLST78
 8050 1e3f C6060000 		.4byte	.LVUS78
 8051 1e43 18       		.uleb128 0x18
 8052 1e44 61060000 		.4byte	.LASF91
 8053 1e48 1102     		.2byte	0x211
 8054 1e4a 25       		.byte	0x25
 8055 1e4b 50010000 		.4byte	0x150
 8056 1e4f E6060000 		.4byte	.LLST79
 8057 1e53 DE060000 		.4byte	.LVUS79
 8058 1e57 18       		.uleb128 0x18
 8059 1e58 FD010000 		.4byte	.LASF171
 8060 1e5c 1102     		.2byte	0x211
 8061 1e5e 33       		.byte	0x33
 8062 1e5f 48090000 		.4byte	0x948
 8063 1e63 15070000 		.4byte	.LLST80
 8064 1e67 0B070000 		.4byte	.LVUS80
 8065 1e6b 0A       		.uleb128 0xa
 8066 1e6c 61726700 		.ascii	"arg\000"
 8067 1e70 1102     		.2byte	0x211
 8068 1e72 3F       		.byte	0x3f
 8069 1e73 BB000000 		.4byte	0xbb
 8070 1e77 44070000 		.4byte	.LLST81
 8071 1e7b 40070000 		.4byte	.LVUS81
 8072 1e7f 21       		.uleb128 0x21
 8073 1e80 747000   		.ascii	"tp\000"
 8074 1e83 1202     		.2byte	0x212
 8075 1e85 0D       		.byte	0xd
 8076 1e86 C9030000 		.4byte	0x3c9
 8077 1e8a 5D070000 		.4byte	.LLST82
 8078 1e8e 59070000 		.4byte	.LVUS82
 8079 1e92 1B       		.uleb128 0x1b
 8080 1e93 F9070000 		.4byte	.LASF130
 8081 1e97 1302     		.2byte	0x213
 8082 1e99 0C       		.byte	0xc
 8083 1e9a A0030000 		.4byte	0x3a0
 8084 1e9e 72070000 		.4byte	.LLST83
 8085 1ea2 6E070000 		.4byte	.LVUS83
 8086 1ea6 1B       		.uleb128 0x1b
 8087 1ea7 8F070000 		.4byte	.LASF172
 8088 1eab 1302     		.2byte	0x213
 8089 1ead 13       		.byte	0x13
 8090 1eae A0030000 		.4byte	0x3a0
 8091 1eb2 8E070000 		.4byte	.LLST84
 8092 1eb6 88070000 		.4byte	.LVUS84
 8093 1eba 1B       		.uleb128 0x1b
ARM GAS  C:\Users\DEVELO~1\AppData\Local\Temp\ccUBlV4P.s 			page 143


 8094 1ebb 640A0000 		.4byte	.LASF173
 8095 1ebf 1302     		.2byte	0x213
 8096 1ec1 1D       		.byte	0x1d
 8097 1ec2 A0030000 		.4byte	0x3a0
 8098 1ec6 AF070000 		.4byte	.LLST85
 8099 1eca AB070000 		.4byte	.LVUS85
 8100 1ece 09       		.uleb128 0x9
 8101 1ecf 6F070000 		.4byte	.LASF147
 8102 1ed3 43200000 		.4byte	0x2043
 8103 1ed7 2F       		.uleb128 0x2f
 8104 1ed8 25060000 		.4byte	.LASF174
 8105 1edc 3502     		.2byte	0x235
 8106 1ede 03       		.byte	0x3
 8107 1edf C9090000 		.4byte	0x9c9
 8108 1ee3 06       		.uleb128 0x6
 8109 1ee4 7F270000 		.4byte	0x277f
 8110 1ee8 18000000 		.4byte	.LBI541
 8111 1eec 05       		.byte	.LVU631
 8112 1eed 9F010000 		.4byte	.LLRL86
 8113 1ef1 3602     		.2byte	0x236
 8114 1ef3 08       		.byte	0x8
 8115 1ef4 4F1F0000 		.4byte	0x1f4f
 8116 1ef8 01       		.uleb128 0x1
 8117 1ef9 98270000 		.4byte	0x2798
 8118 1efd C2070000 		.4byte	.LLST87
 8119 1f01 C0070000 		.4byte	.LVUS87
 8120 1f05 01       		.uleb128 0x1
 8121 1f06 8D270000 		.4byte	0x278d
 8122 1f0a D2070000 		.4byte	.LLST88
 8123 1f0e D0070000 		.4byte	.LVUS88
 8124 1f12 13       		.uleb128 0x13
 8125 1f13 9F010000 		.4byte	.LLRL86
 8126 1f17 22       		.uleb128 0x22
 8127 1f18 6B290000 		.4byte	0x296b
 8128 1f1c 18000000 		.4byte	.LBI543
 8129 1f20 16       		.byte	.LVU648
 8130 1f21 BA010000 		.4byte	.LLRL89
 8131 1f25 90       		.byte	0x90
 8132 1f26 381F0000 		.4byte	0x1f38
 8133 1f2a 01       		.uleb128 0x1
 8134 1f2b 75290000 		.4byte	0x2975
 8135 1f2f DD070000 		.4byte	.LLST90
 8136 1f33 DB070000 		.4byte	.LVUS90
 8137 1f37 00       		.byte	0
 8138 1f38 23       		.uleb128 0x23
 8139 1f39 EB280000 		.4byte	0x28eb
 8140 1f3d 18000000 		.4byte	.LBI546
 8141 1f41 1F       		.byte	.LVU657
 8142 1f42 C6010000 		.4byte	.LLRL91
 8143 1f46 AB       		.byte	0xab
 8144 1f47 2A       		.uleb128 0x2a
 8145 1f48 F8280000 		.4byte	0x28f8
 8146 1f4c 00       		.byte	0
 8147 1f4d 00       		.byte	0
 8148 1f4e 00       		.byte	0
 8149 1f4f 06       		.uleb128 0x6
 8150 1f50 54280000 		.4byte	0x2854
ARM GAS  C:\Users\DEVELO~1\AppData\Local\Temp\ccUBlV4P.s 			page 144


 8151 1f54 18000000 		.4byte	.LBI559
 8152 1f58 2E       		.byte	.LVU672
 8153 1f59 D2010000 		.4byte	.LLRL92
 8154 1f5d 3B02     		.2byte	0x23b
 8155 1f5f 03       		.byte	0x3
 8156 1f60 961F0000 		.4byte	0x1f96
 8157 1f64 05       		.uleb128 0x5
 8158 1f65 95290000 		.4byte	0x2995
 8159 1f69 18000000 		.4byte	.LBI560
 8160 1f6d 30       		.byte	.LVU674
 8161 1f6e D2010000 		.4byte	.LLRL92
 8162 1f72 03       		.byte	0x3
 8163 1f73 7601     		.2byte	0x176
 8164 1f75 05       		.uleb128 0x5
 8165 1f76 9E290000 		.4byte	0x299e
 8166 1f7a 18000000 		.4byte	.LBI561
 8167 1f7e 32       		.byte	.LVU676
 8168 1f7f D2010000 		.4byte	.LLRL92
 8169 1f83 04       		.byte	0x4
 8170 1f84 5003     		.2byte	0x350
 8171 1f86 01       		.uleb128 0x1
 8172 1f87 AB290000 		.4byte	0x29ab
 8173 1f8b E8070000 		.4byte	.LLST93
 8174 1f8f E6070000 		.4byte	.LVUS93
 8175 1f93 00       		.byte	0
 8176 1f94 00       		.byte	0
 8177 1f95 00       		.byte	0
 8178 1f96 06       		.uleb128 0x6
 8179 1f97 A3280000 		.4byte	0x28a3
 8180 1f9b 74000000 		.4byte	.LBI571
 8181 1f9f 00       		.byte	.LVU705
 8182 1fa0 DE010000 		.4byte	.LLRL94
 8183 1fa4 3E02     		.2byte	0x23e
 8184 1fa6 03       		.byte	0x3
 8185 1fa7 C61F0000 		.4byte	0x1fc6
 8186 1fab 01       		.uleb128 0x1
 8187 1fac BC280000 		.4byte	0x28bc
 8188 1fb0 F5070000 		.4byte	.LLST95
 8189 1fb4 F3070000 		.4byte	.LVUS95
 8190 1fb8 01       		.uleb128 0x1
 8191 1fb9 B0280000 		.4byte	0x28b0
 8192 1fbd 02080000 		.4byte	.LLST96
 8193 1fc1 FE070000 		.4byte	.LVUS96
 8194 1fc5 00       		.byte	0
 8195 1fc6 08       		.uleb128 0x8
 8196 1fc7 3D280000 		.4byte	0x283d
 8197 1fcb 8E000000 		.4byte	.LBI577
 8198 1fcf 01       		.byte	.LVU720
 8199 1fd0 8E000000 		.4byte	.LBB577
 8200 1fd4 04000000 		.4byte	.LBE577-.LBB577
 8201 1fd8 01       		.byte	0x1
 8202 1fd9 4302     		.2byte	0x243
 8203 1fdb 03       		.byte	0x3
 8204 1fdc 1C200000 		.4byte	0x201c
 8205 1fe0 02       		.uleb128 0x2
 8206 1fe1 8C290000 		.4byte	0x298c
 8207 1fe5 8E000000 		.4byte	.LBI579
ARM GAS  C:\Users\DEVELO~1\AppData\Local\Temp\ccUBlV4P.s 			page 145


 8208 1fe9 08       		.byte	.LVU727
 8209 1fea 8E000000 		.4byte	.LBB579
 8210 1fee 04000000 		.4byte	.LBE579-.LBB579
 8211 1ff2 03       		.byte	0x3
 8212 1ff3 8F01     		.2byte	0x18f
 8213 1ff5 03       		.byte	0x3
 8214 1ff6 02       		.uleb128 0x2
 8215 1ff7 9E290000 		.4byte	0x299e
 8216 1ffb 8E000000 		.4byte	.LBI580
 8217 1fff 0A       		.byte	.LVU729
 8218 2000 8E000000 		.4byte	.LBB580
 8219 2004 04000000 		.4byte	.LBE580-.LBB580
 8220 2008 04       		.byte	0x4
 8221 2009 6303     		.2byte	0x363
 8222 200b 03       		.byte	0x3
 8223 200c 01       		.uleb128 0x1
 8224 200d AB290000 		.4byte	0x29ab
 8225 2011 16080000 		.4byte	.LLST97
 8226 2015 14080000 		.4byte	.LVUS97
 8227 2019 00       		.byte	0
 8228 201a 00       		.byte	0
 8229 201b 00       		.byte	0
 8230 201c 1A       		.uleb128 0x1a
 8231 201d 8E000000 		.4byte	.LVL77
 8232 2021 340A0000 		.4byte	0xa34
 8233 2025 07       		.uleb128 0x7
 8234 2026 01       		.uleb128 0x1
 8235 2027 50       		.byte	0x50
 8236 2028 02       		.uleb128 0x2
 8237 2029 76       		.byte	0x76
 8238 202a 00       		.sleb128 0
 8239 202b 07       		.uleb128 0x7
 8240 202c 01       		.uleb128 0x1
 8241 202d 51       		.byte	0x51
 8242 202e 02       		.uleb128 0x2
 8243 202f 75       		.byte	0x75
 8244 2030 00       		.sleb128 0
 8245 2031 00       		.byte	0
 8246 2032 00       		.byte	0
 8247 2033 11       		.uleb128 0x11
 8248 2034 C4000000 		.4byte	0xc4
 8249 2038 43200000 		.4byte	0x2043
 8250 203c 12       		.uleb128 0x12
 8251 203d 39000000 		.4byte	0x39
 8252 2041 11       		.byte	0x11
 8253 2042 00       		.byte	0
 8254 2043 0D       		.uleb128 0xd
 8255 2044 33200000 		.4byte	0x2033
 8256 2048 10       		.uleb128 0x10
 8257 2049 E7020000 		.4byte	.LASF175
 8258 204d E701     		.2byte	0x1e7
 8259 204f 0B       		.byte	0xb
 8260 2050 C9030000 		.4byte	0x3c9
 8261 2054 00000000 		.4byte	.LFB361
 8262 2058 1E000000 		.4byte	.LFE361-.LFB361
 8263 205c 01       		.uleb128 0x1
 8264 205d 9C       		.byte	0x9c
ARM GAS  C:\Users\DEVELO~1\AppData\Local\Temp\ccUBlV4P.s 			page 146


 8265 205e 5A210000 		.4byte	0x215a
 8266 2062 0A       		.uleb128 0xa
 8267 2063 74647000 		.ascii	"tdp\000"
 8268 2067 E701     		.2byte	0x1e7
 8269 2069 32       		.byte	0x32
 8270 206a 5A210000 		.4byte	0x215a
 8271 206e 24080000 		.4byte	.LLST72
 8272 2072 20080000 		.4byte	.LVUS72
 8273 2076 21       		.uleb128 0x21
 8274 2077 747000   		.ascii	"tp\000"
 8275 207a E801     		.2byte	0x1e8
 8276 207c 0D       		.byte	0xd
 8277 207d C9030000 		.4byte	0x3c9
 8278 2081 3B080000 		.4byte	.LLST73
 8279 2085 37080000 		.4byte	.LVUS73
 8280 2089 09       		.uleb128 0x9
 8281 208a 6F070000 		.4byte	.LASF147
 8282 208e 131D0000 		.4byte	0x1d13
 8283 2092 06       		.uleb128 0x6
 8284 2093 54280000 		.4byte	0x2854
 8285 2097 00000000 		.4byte	.LBI511
 8286 209b 06       		.byte	.LVU570
 8287 209c 93010000 		.4byte	.LLRL74
 8288 20a0 F401     		.2byte	0x1f4
 8289 20a2 03       		.byte	0x3
 8290 20a3 D9200000 		.4byte	0x20d9
 8291 20a7 05       		.uleb128 0x5
 8292 20a8 95290000 		.4byte	0x2995
 8293 20ac 00000000 		.4byte	.LBI512
 8294 20b0 08       		.byte	.LVU572
 8295 20b1 93010000 		.4byte	.LLRL74
 8296 20b5 03       		.byte	0x3
 8297 20b6 7601     		.2byte	0x176
 8298 20b8 05       		.uleb128 0x5
 8299 20b9 9E290000 		.4byte	0x299e
 8300 20bd 00000000 		.4byte	.LBI513
 8301 20c1 0A       		.byte	.LVU574
 8302 20c2 93010000 		.4byte	.LLRL74
 8303 20c6 04       		.byte	0x4
 8304 20c7 5003     		.2byte	0x350
 8305 20c9 01       		.uleb128 0x1
 8306 20ca AB290000 		.4byte	0x29ab
 8307 20ce 4D080000 		.4byte	.LLST75
 8308 20d2 4B080000 		.4byte	.LVUS75
 8309 20d6 00       		.byte	0
 8310 20d7 00       		.byte	0
 8311 20d8 00       		.byte	0
 8312 20d9 08       		.uleb128 0x8
 8313 20da 3D280000 		.4byte	0x283d
 8314 20de 14000000 		.4byte	.LBI519
 8315 20e2 01       		.byte	.LVU587
 8316 20e3 14000000 		.4byte	.LBB519
 8317 20e7 06000000 		.4byte	.LBE519-.LBB519
 8318 20eb 01       		.byte	0x1
 8319 20ec F701     		.2byte	0x1f7
 8320 20ee 03       		.byte	0x3
 8321 20ef 2F210000 		.4byte	0x212f
ARM GAS  C:\Users\DEVELO~1\AppData\Local\Temp\ccUBlV4P.s 			page 147


 8322 20f3 02       		.uleb128 0x2
 8323 20f4 8C290000 		.4byte	0x298c
 8324 20f8 14000000 		.4byte	.LBI521
 8325 20fc 08       		.byte	.LVU594
 8326 20fd 14000000 		.4byte	.LBB521
 8327 2101 06000000 		.4byte	.LBE521-.LBB521
 8328 2105 03       		.byte	0x3
 8329 2106 8F01     		.2byte	0x18f
 8330 2108 03       		.byte	0x3
 8331 2109 02       		.uleb128 0x2
 8332 210a 9E290000 		.4byte	0x299e
 8333 210e 14000000 		.4byte	.LBI522
 8334 2112 0A       		.byte	.LVU596
 8335 2113 14000000 		.4byte	.LBB522
 8336 2117 06000000 		.4byte	.LBE522-.LBB522
 8337 211b 04       		.byte	0x4
 8338 211c 6303     		.2byte	0x363
 8339 211e 03       		.byte	0x3
 8340 211f 01       		.uleb128 0x1
 8341 2120 AB290000 		.4byte	0x29ab
 8342 2124 5A080000 		.4byte	.LLST76
 8343 2128 58080000 		.4byte	.LVUS76
 8344 212c 00       		.byte	0
 8345 212d 00       		.byte	0
 8346 212e 00       		.byte	0
 8347 212f 30       		.uleb128 0x30
 8348 2130 0C000000 		.4byte	.LVL60
 8349 2134 78230000 		.4byte	0x2378
 8350 2138 44210000 		.4byte	0x2144
 8351 213c 07       		.uleb128 0x7
 8352 213d 01       		.uleb128 0x1
 8353 213e 50       		.byte	0x50
 8354 213f 03       		.uleb128 0x3
 8355 2140 A3       		.byte	0xa3
 8356 2141 01       		.uleb128 0x1
 8357 2142 50       		.byte	0x50
 8358 2143 00       		.byte	0
 8359 2144 1A       		.uleb128 0x1a
 8360 2145 14000000 		.4byte	.LVL62
 8361 2149 340A0000 		.4byte	0xa34
 8362 214d 07       		.uleb128 0x7
 8363 214e 01       		.uleb128 0x1
 8364 214f 50       		.byte	0x50
 8365 2150 02       		.uleb128 0x2
 8366 2151 74       		.byte	0x74
 8367 2152 00       		.sleb128 0
 8368 2153 07       		.uleb128 0x7
 8369 2154 01       		.uleb128 0x1
 8370 2155 51       		.byte	0x51
 8371 2156 01       		.uleb128 0x1
 8372 2157 30       		.byte	0x30
 8373 2158 00       		.byte	0
 8374 2159 00       		.byte	0
 8375 215a 0B       		.uleb128 0xb
 8376 215b D5090000 		.4byte	0x9d5
 8377 215f 10       		.uleb128 0x10
 8378 2160 DA020000 		.4byte	.LASF176
ARM GAS  C:\Users\DEVELO~1\AppData\Local\Temp\ccUBlV4P.s 			page 148


 8379 2164 D501     		.2byte	0x1d5
 8380 2166 0B       		.byte	0xb
 8381 2167 C9030000 		.4byte	0x3c9
 8382 216b 00000000 		.4byte	.LFB360
 8383 216f 0E000000 		.4byte	.LFE360-.LFB360
 8384 2173 01       		.uleb128 0x1
 8385 2174 9C       		.byte	0x9c
 8386 2175 AC210000 		.4byte	0x21ac
 8387 2179 0A       		.uleb128 0xa
 8388 217a 74647000 		.ascii	"tdp\000"
 8389 217e D501     		.2byte	0x1d5
 8390 2180 33       		.byte	0x33
 8391 2181 5A210000 		.4byte	0x215a
 8392 2185 68080000 		.4byte	.LLST71
 8393 2189 64080000 		.4byte	.LVUS71
 8394 218d 30       		.uleb128 0x30
 8395 218e 06000000 		.4byte	.LVL56
 8396 2192 78230000 		.4byte	0x2378
 8397 2196 A2210000 		.4byte	0x21a2
 8398 219a 07       		.uleb128 0x7
 8399 219b 01       		.uleb128 0x1
 8400 219c 50       		.byte	0x50
 8401 219d 03       		.uleb128 0x3
 8402 219e A3       		.byte	0xa3
 8403 219f 01       		.uleb128 0x1
 8404 21a0 50       		.byte	0x50
 8405 21a1 00       		.byte	0
 8406 21a2 2D       		.uleb128 0x2d
 8407 21a3 0E000000 		.4byte	.LVL57
 8408 21a7 490A0000 		.4byte	0xa49
 8409 21ab 00       		.byte	0
 8410 21ac 10       		.uleb128 0x10
 8411 21ad A2090000 		.4byte	.LASF177
 8412 21b1 B001     		.2byte	0x1b0
 8413 21b3 0B       		.byte	0xb
 8414 21b4 C9030000 		.4byte	0x3c9
 8415 21b8 00000000 		.4byte	.LFB359
 8416 21bc A0000000 		.4byte	.LFE359-.LFB359
 8417 21c0 01       		.uleb128 0x1
 8418 21c1 9C       		.byte	0x9c
 8419 21c2 78230000 		.4byte	0x2378
 8420 21c6 0A       		.uleb128 0xa
 8421 21c7 74647000 		.ascii	"tdp\000"
 8422 21cb B001     		.2byte	0x1b0
 8423 21cd 3B       		.byte	0x3b
 8424 21ce 5A210000 		.4byte	0x215a
 8425 21d2 83080000 		.4byte	.LLST52
 8426 21d6 7B080000 		.4byte	.LVUS52
 8427 21da 21       		.uleb128 0x21
 8428 21db 747000   		.ascii	"tp\000"
 8429 21de B101     		.2byte	0x1b1
 8430 21e0 0D       		.byte	0xd
 8431 21e1 C9030000 		.4byte	0x3c9
 8432 21e5 A5080000 		.4byte	.LLST53
 8433 21e9 A3080000 		.4byte	.LVUS53
 8434 21ed 09       		.uleb128 0x9
 8435 21ee 6F070000 		.4byte	.LASF147
ARM GAS  C:\Users\DEVELO~1\AppData\Local\Temp\ccUBlV4P.s 			page 149


 8436 21f2 770D0000 		.4byte	0xd77
 8437 21f6 06       		.uleb128 0x6
 8438 21f7 54280000 		.4byte	0x2854
 8439 21fb 00000000 		.4byte	.LBI464
 8440 21ff 06       		.byte	.LVU433
 8441 2200 31010000 		.4byte	.LLRL54
 8442 2204 BC01     		.2byte	0x1bc
 8443 2206 03       		.byte	0x3
 8444 2207 3D220000 		.4byte	0x223d
 8445 220b 05       		.uleb128 0x5
 8446 220c 95290000 		.4byte	0x2995
 8447 2210 00000000 		.4byte	.LBI465
 8448 2214 08       		.byte	.LVU435
 8449 2215 31010000 		.4byte	.LLRL54
 8450 2219 03       		.byte	0x3
 8451 221a 7601     		.2byte	0x176
 8452 221c 05       		.uleb128 0x5
 8453 221d 9E290000 		.4byte	0x299e
 8454 2221 00000000 		.4byte	.LBI466
 8455 2225 0A       		.byte	.LVU437
 8456 2226 31010000 		.4byte	.LLRL54
 8457 222a 04       		.byte	0x4
 8458 222b 5003     		.2byte	0x350
 8459 222d 01       		.uleb128 0x1
 8460 222e AB290000 		.4byte	0x29ab
 8461 2232 B0080000 		.4byte	.LLST55
 8462 2236 AE080000 		.4byte	.LVUS55
 8463 223a 00       		.byte	0
 8464 223b 00       		.byte	0
 8465 223c 00       		.byte	0
 8466 223d 06       		.uleb128 0x6
 8467 223e 78230000 		.4byte	0x2378
 8468 2242 0A000000 		.4byte	.LBI472
 8469 2246 04       		.byte	.LVU445
 8470 2247 3D010000 		.4byte	.LLRL56
 8471 224b BD01     		.2byte	0x1bd
 8472 224d 08       		.byte	0x8
 8473 224e 25230000 		.4byte	0x2325
 8474 2252 01       		.uleb128 0x1
 8475 2253 8A230000 		.4byte	0x238a
 8476 2257 C3080000 		.4byte	.LLST57
 8477 225b BB080000 		.4byte	.LVUS57
 8478 225f 13       		.uleb128 0x13
 8479 2260 3D010000 		.4byte	.LLRL56
 8480 2264 0F       		.uleb128 0xf
 8481 2265 97230000 		.4byte	0x2397
 8482 2269 E5080000 		.4byte	.LLST58
 8483 226d E3080000 		.4byte	.LVUS58
 8484 2271 0F       		.uleb128 0xf
 8485 2272 A3230000 		.4byte	0x23a3
 8486 2276 F8080000 		.4byte	.LLST59
 8487 227a EE080000 		.4byte	.LVUS59
 8488 227e 0F       		.uleb128 0xf
 8489 227f AF230000 		.4byte	0x23af
 8490 2283 22090000 		.4byte	.LLST60
 8491 2287 1E090000 		.4byte	.LVUS60
 8492 228b 06       		.uleb128 0x6
ARM GAS  C:\Users\DEVELO~1\AppData\Local\Temp\ccUBlV4P.s 			page 150


 8493 228c 7F270000 		.4byte	0x277f
 8494 2290 1C000000 		.4byte	.LBI474
 8495 2294 04       		.byte	.LVU468
 8496 2295 4C010000 		.4byte	.LLRL61
 8497 2299 9301     		.2byte	0x193
 8498 229b 08       		.byte	0x8
 8499 229c F7220000 		.4byte	0x22f7
 8500 22a0 01       		.uleb128 0x1
 8501 22a1 98270000 		.4byte	0x2798
 8502 22a5 39090000 		.4byte	.LLST62
 8503 22a9 33090000 		.4byte	.LVUS62
 8504 22ad 01       		.uleb128 0x1
 8505 22ae 8D270000 		.4byte	0x278d
 8506 22b2 56090000 		.4byte	.LLST63
 8507 22b6 52090000 		.4byte	.LVUS63
 8508 22ba 13       		.uleb128 0x13
 8509 22bb 4C010000 		.4byte	.LLRL61
 8510 22bf 22       		.uleb128 0x22
 8511 22c0 EB280000 		.4byte	0x28eb
 8512 22c4 82000000 		.4byte	.LBI476
 8513 22c8 0A       		.byte	.LVU516
 8514 22c9 69010000 		.4byte	.LLRL64
 8515 22cd AB       		.byte	0xab
 8516 22ce D8220000 		.4byte	0x22d8
 8517 22d2 2A       		.uleb128 0x2a
 8518 22d3 F8280000 		.4byte	0x28f8
 8519 22d7 00       		.byte	0
 8520 22d8 23       		.uleb128 0x23
 8521 22d9 6B290000 		.4byte	0x296b
 8522 22dd 82000000 		.4byte	.LBI479
 8523 22e1 01       		.byte	.LVU507
 8524 22e2 75010000 		.4byte	.LLRL65
 8525 22e6 90       		.byte	0x90
 8526 22e7 01       		.uleb128 0x1
 8527 22e8 75290000 		.4byte	0x2975
 8528 22ec 69090000 		.4byte	.LLST66
 8529 22f0 67090000 		.4byte	.LVUS66
 8530 22f4 00       		.byte	0
 8531 22f5 00       		.byte	0
 8532 22f6 00       		.byte	0
 8533 22f7 05       		.uleb128 0x5
 8534 22f8 A3280000 		.4byte	0x28a3
 8535 22fc 82000000 		.4byte	.LBI492
 8536 2300 19       		.byte	.LVU531
 8537 2301 81010000 		.4byte	.LLRL67
 8538 2305 01       		.byte	0x1
 8539 2306 9901     		.2byte	0x199
 8540 2308 01       		.uleb128 0x1
 8541 2309 BC280000 		.4byte	0x28bc
 8542 230d 76090000 		.4byte	.LLST68
 8543 2311 74090000 		.4byte	.LVUS68
 8544 2315 01       		.uleb128 0x1
 8545 2316 B0280000 		.4byte	0x28b0
 8546 231a 81090000 		.4byte	.LLST69
 8547 231e 7F090000 		.4byte	.LVUS69
 8548 2322 00       		.byte	0
 8549 2323 00       		.byte	0
ARM GAS  C:\Users\DEVELO~1\AppData\Local\Temp\ccUBlV4P.s 			page 151


 8550 2324 00       		.byte	0
 8551 2325 02       		.uleb128 0x2
 8552 2326 3D280000 		.4byte	0x283d
 8553 232a 8A000000 		.4byte	.LBI505
 8554 232e 04       		.byte	.LVU543
 8555 232f 8A000000 		.4byte	.LBB505
 8556 2333 04000000 		.4byte	.LBE505-.LBB505
 8557 2337 01       		.byte	0x1
 8558 2338 BE01     		.2byte	0x1be
 8559 233a 03       		.byte	0x3
 8560 233b 02       		.uleb128 0x2
 8561 233c 8C290000 		.4byte	0x298c
 8562 2340 8A000000 		.4byte	.LBI507
 8563 2344 0B       		.byte	.LVU550
 8564 2345 8A000000 		.4byte	.LBB507
 8565 2349 04000000 		.4byte	.LBE507-.LBB507
 8566 234d 03       		.byte	0x3
 8567 234e 8F01     		.2byte	0x18f
 8568 2350 03       		.byte	0x3
 8569 2351 02       		.uleb128 0x2
 8570 2352 9E290000 		.4byte	0x299e
 8571 2356 8A000000 		.4byte	.LBI508
 8572 235a 0D       		.byte	.LVU552
 8573 235b 8A000000 		.4byte	.LBB508
 8574 235f 04000000 		.4byte	.LBE508-.LBB508
 8575 2363 04       		.byte	0x4
 8576 2364 6303     		.2byte	0x363
 8577 2366 03       		.byte	0x3
 8578 2367 01       		.uleb128 0x1
 8579 2368 AB290000 		.4byte	0x29ab
 8580 236c 8C090000 		.4byte	.LLST70
 8581 2370 8A090000 		.4byte	.LVUS70
 8582 2374 00       		.byte	0
 8583 2375 00       		.byte	0
 8584 2376 00       		.byte	0
 8585 2377 00       		.byte	0
 8586 2378 52       		.uleb128 0x52
 8587 2379 A1010000 		.4byte	.LASF178
 8588 237d 01       		.byte	0x1
 8589 237e 7A01     		.2byte	0x17a
 8590 2380 0B       		.byte	0xb
 8591 2381 C9030000 		.4byte	0x3c9
 8592 2385 01       		.byte	0x1
 8593 2386 C5230000 		.4byte	0x23c5
 8594 238a 0E       		.uleb128 0xe
 8595 238b 74647000 		.ascii	"tdp\000"
 8596 238f 01       		.byte	0x1
 8597 2390 7A01     		.2byte	0x17a
 8598 2392 3C       		.byte	0x3c
 8599 2393 5A210000 		.4byte	0x215a
 8600 2397 28       		.uleb128 0x28
 8601 2398 747000   		.ascii	"tp\000"
 8602 239b 01       		.byte	0x1
 8603 239c 7B01     		.2byte	0x17b
 8604 239e 0D       		.byte	0xd
 8605 239f C9030000 		.4byte	0x3c9
 8606 23a3 2F       		.uleb128 0x2f
ARM GAS  C:\Users\DEVELO~1\AppData\Local\Temp\ccUBlV4P.s 			page 152


 8607 23a4 8F070000 		.4byte	.LASF172
 8608 23a8 7C01     		.2byte	0x17c
 8609 23aa 0C       		.byte	0xc
 8610 23ab A0030000 		.4byte	0x3a0
 8611 23af 2F       		.uleb128 0x2f
 8612 23b0 640A0000 		.4byte	.LASF173
 8613 23b4 7C01     		.2byte	0x17c
 8614 23b6 16       		.byte	0x16
 8615 23b7 A0030000 		.4byte	0x3a0
 8616 23bb 09       		.uleb128 0x9
 8617 23bc 6F070000 		.4byte	.LASF147
 8618 23c0 D5230000 		.4byte	0x23d5
 8619 23c4 00       		.byte	0
 8620 23c5 11       		.uleb128 0x11
 8621 23c6 C4000000 		.4byte	0xc4
 8622 23ca D5230000 		.4byte	0x23d5
 8623 23ce 12       		.uleb128 0x12
 8624 23cf 39000000 		.4byte	0x39
 8625 23d3 15       		.byte	0x15
 8626 23d4 00       		.byte	0
 8627 23d5 0D       		.uleb128 0xd
 8628 23d6 C5230000 		.4byte	0x23c5
 8629 23da 10       		.uleb128 0x10
 8630 23db 1E090000 		.4byte	.LASF179
 8631 23df 5401     		.2byte	0x154
 8632 23e1 0B       		.byte	0xb
 8633 23e2 C9030000 		.4byte	0x3c9
 8634 23e6 00000000 		.4byte	.LFB357
 8635 23ea 1E000000 		.4byte	.LFE357-.LFB357
 8636 23ee 01       		.uleb128 0x1
 8637 23ef 9C       		.byte	0x9c
 8638 23f0 F2240000 		.4byte	0x24f2
 8639 23f4 0A       		.uleb128 0xa
 8640 23f5 747000   		.ascii	"tp\000"
 8641 23f8 5401     		.2byte	0x154
 8642 23fa 27       		.byte	0x27
 8643 23fb C9030000 		.4byte	0x3c9
 8644 23ff 9E090000 		.4byte	.LLST34
 8645 2403 96090000 		.4byte	.LVUS34
 8646 2407 0A       		.uleb128 0xa
 8647 2408 74647000 		.ascii	"tdp\000"
 8648 240c 5401     		.2byte	0x154
 8649 240e 46       		.byte	0x46
 8650 240f 5A210000 		.4byte	0x215a
 8651 2413 BF090000 		.4byte	.LLST35
 8652 2417 BB090000 		.4byte	.LVUS35
 8653 241b 09       		.uleb128 0x9
 8654 241c 6F070000 		.4byte	.LASF147
 8655 2420 43200000 		.4byte	0x2043
 8656 2424 06       		.uleb128 0x6
 8657 2425 54280000 		.4byte	0x2854
 8658 2429 00000000 		.4byte	.LBI390
 8659 242d 06       		.byte	.LVU294
 8660 242e DB000000 		.4byte	.LLRL36
 8661 2432 5E01     		.2byte	0x15e
 8662 2434 03       		.byte	0x3
 8663 2435 6B240000 		.4byte	0x246b
ARM GAS  C:\Users\DEVELO~1\AppData\Local\Temp\ccUBlV4P.s 			page 153


 8664 2439 05       		.uleb128 0x5
 8665 243a 95290000 		.4byte	0x2995
 8666 243e 00000000 		.4byte	.LBI391
 8667 2442 08       		.byte	.LVU296
 8668 2443 DB000000 		.4byte	.LLRL36
 8669 2447 03       		.byte	0x3
 8670 2448 7601     		.2byte	0x176
 8671 244a 05       		.uleb128 0x5
 8672 244b 9E290000 		.4byte	0x299e
 8673 244f 00000000 		.4byte	.LBI392
 8674 2453 0A       		.byte	.LVU298
 8675 2454 DB000000 		.4byte	.LLRL36
 8676 2458 04       		.byte	0x4
 8677 2459 5003     		.2byte	0x350
 8678 245b 01       		.uleb128 0x1
 8679 245c AB290000 		.4byte	0x29ab
 8680 2460 D4090000 		.4byte	.LLST37
 8681 2464 D2090000 		.4byte	.LVUS37
 8682 2468 00       		.byte	0
 8683 2469 00       		.byte	0
 8684 246a 00       		.byte	0
 8685 246b 08       		.uleb128 0x8
 8686 246c 3D280000 		.4byte	0x283d
 8687 2470 14000000 		.4byte	.LBI398
 8688 2474 01       		.byte	.LVU311
 8689 2475 14000000 		.4byte	.LBB398
 8690 2479 06000000 		.4byte	.LBE398-.LBB398
 8691 247d 01       		.byte	0x1
 8692 247e 6101     		.2byte	0x161
 8693 2480 03       		.byte	0x3
 8694 2481 C1240000 		.4byte	0x24c1
 8695 2485 02       		.uleb128 0x2
 8696 2486 8C290000 		.4byte	0x298c
 8697 248a 14000000 		.4byte	.LBI400
 8698 248e 08       		.byte	.LVU318
 8699 248f 14000000 		.4byte	.LBB400
 8700 2493 06000000 		.4byte	.LBE400-.LBB400
 8701 2497 03       		.byte	0x3
 8702 2498 8F01     		.2byte	0x18f
 8703 249a 03       		.byte	0x3
 8704 249b 02       		.uleb128 0x2
 8705 249c 9E290000 		.4byte	0x299e
 8706 24a0 14000000 		.4byte	.LBI401
 8707 24a4 0A       		.byte	.LVU320
 8708 24a5 14000000 		.4byte	.LBB401
 8709 24a9 06000000 		.4byte	.LBE401-.LBB401
 8710 24ad 04       		.byte	0x4
 8711 24ae 6303     		.2byte	0x363
 8712 24b0 03       		.byte	0x3
 8713 24b1 01       		.uleb128 0x1
 8714 24b2 AB290000 		.4byte	0x29ab
 8715 24b6 E1090000 		.4byte	.LLST38
 8716 24ba DF090000 		.4byte	.LVUS38
 8717 24be 00       		.byte	0
 8718 24bf 00       		.byte	0
 8719 24c0 00       		.byte	0
 8720 24c1 30       		.uleb128 0x30
ARM GAS  C:\Users\DEVELO~1\AppData\Local\Temp\ccUBlV4P.s 			page 154


 8721 24c2 0C000000 		.4byte	.LVL30
 8722 24c6 19270000 		.4byte	0x2719
 8723 24ca DC240000 		.4byte	0x24dc
 8724 24ce 07       		.uleb128 0x7
 8725 24cf 01       		.uleb128 0x1
 8726 24d0 50       		.byte	0x50
 8727 24d1 02       		.uleb128 0x2
 8728 24d2 70       		.byte	0x70
 8729 24d3 00       		.sleb128 0
 8730 24d4 07       		.uleb128 0x7
 8731 24d5 01       		.uleb128 0x1
 8732 24d6 51       		.byte	0x51
 8733 24d7 03       		.uleb128 0x3
 8734 24d8 A3       		.byte	0xa3
 8735 24d9 01       		.uleb128 0x1
 8736 24da 51       		.byte	0x51
 8737 24db 00       		.byte	0
 8738 24dc 1A       		.uleb128 0x1a
 8739 24dd 14000000 		.4byte	.LVL32
 8740 24e1 340A0000 		.4byte	0xa34
 8741 24e5 07       		.uleb128 0x7
 8742 24e6 01       		.uleb128 0x1
 8743 24e7 50       		.byte	0x50
 8744 24e8 02       		.uleb128 0x2
 8745 24e9 74       		.byte	0x74
 8746 24ea 00       		.sleb128 0
 8747 24eb 07       		.uleb128 0x7
 8748 24ec 01       		.uleb128 0x1
 8749 24ed 51       		.byte	0x51
 8750 24ee 01       		.uleb128 0x1
 8751 24ef 30       		.byte	0x30
 8752 24f0 00       		.byte	0
 8753 24f1 00       		.byte	0
 8754 24f2 10       		.uleb128 0x10
 8755 24f3 F7090000 		.4byte	.LASF180
 8756 24f7 4101     		.2byte	0x141
 8757 24f9 0B       		.byte	0xb
 8758 24fa C9030000 		.4byte	0x3c9
 8759 24fe 00000000 		.4byte	.LFB356
 8760 2502 0E000000 		.4byte	.LFE356-.LFB356
 8761 2506 01       		.uleb128 0x1
 8762 2507 9C       		.byte	0x9c
 8763 2508 58250000 		.4byte	0x2558
 8764 250c 0A       		.uleb128 0xa
 8765 250d 747000   		.ascii	"tp\000"
 8766 2510 4101     		.2byte	0x141
 8767 2512 28       		.byte	0x28
 8768 2513 C9030000 		.4byte	0x3c9
 8769 2517 EF090000 		.4byte	.LLST32
 8770 251b EB090000 		.4byte	.LVUS32
 8771 251f 0A       		.uleb128 0xa
 8772 2520 74647000 		.ascii	"tdp\000"
 8773 2524 4101     		.2byte	0x141
 8774 2526 47       		.byte	0x47
 8775 2527 5A210000 		.4byte	0x215a
 8776 252b 060A0000 		.4byte	.LLST33
 8777 252f 020A0000 		.4byte	.LVUS33
ARM GAS  C:\Users\DEVELO~1\AppData\Local\Temp\ccUBlV4P.s 			page 155


 8778 2533 30       		.uleb128 0x30
 8779 2534 06000000 		.4byte	.LVL26
 8780 2538 19270000 		.4byte	0x2719
 8781 253c 4E250000 		.4byte	0x254e
 8782 2540 07       		.uleb128 0x7
 8783 2541 01       		.uleb128 0x1
 8784 2542 50       		.byte	0x50
 8785 2543 02       		.uleb128 0x2
 8786 2544 70       		.byte	0x70
 8787 2545 00       		.sleb128 0
 8788 2546 07       		.uleb128 0x7
 8789 2547 01       		.uleb128 0x1
 8790 2548 51       		.byte	0x51
 8791 2549 03       		.uleb128 0x3
 8792 254a A3       		.byte	0xa3
 8793 254b 01       		.uleb128 0x1
 8794 254c 51       		.byte	0x51
 8795 254d 00       		.byte	0
 8796 254e 2D       		.uleb128 0x2d
 8797 254f 0E000000 		.4byte	.LVL27
 8798 2553 490A0000 		.4byte	0xa49
 8799 2557 00       		.byte	0
 8800 2558 10       		.uleb128 0x10
 8801 2559 51090000 		.4byte	.LASF181
 8802 255d 1F01     		.2byte	0x11f
 8803 255f 0B       		.byte	0xb
 8804 2560 C9030000 		.4byte	0x3c9
 8805 2564 00000000 		.4byte	.LFB355
 8806 2568 7C000000 		.4byte	.LFE355-.LFB355
 8807 256c 01       		.uleb128 0x1
 8808 256d 9C       		.byte	0x9c
 8809 256e 04270000 		.4byte	0x2704
 8810 2572 2E       		.uleb128 0x2e
 8811 2573 747000   		.ascii	"tp\000"
 8812 2576 1F01     		.2byte	0x11f
 8813 2578 29       		.byte	0x29
 8814 2579 C9030000 		.4byte	0x3c9
 8815 257d 01       		.uleb128 0x1
 8816 257e 50       		.byte	0x50
 8817 257f 0A       		.uleb128 0xa
 8818 2580 74647000 		.ascii	"tdp\000"
 8819 2584 2001     		.2byte	0x120
 8820 2586 3A       		.byte	0x3a
 8821 2587 5A210000 		.4byte	0x215a
 8822 258b 1F0A0000 		.4byte	.LLST16
 8823 258f 190A0000 		.4byte	.LVUS16
 8824 2593 09       		.uleb128 0x9
 8825 2594 6F070000 		.4byte	.LASF147
 8826 2598 14270000 		.4byte	0x2714
 8827 259c 06       		.uleb128 0x6
 8828 259d 54280000 		.4byte	0x2854
 8829 25a1 00000000 		.4byte	.LBI349
 8830 25a5 06       		.byte	.LVU169
 8831 25a6 87000000 		.4byte	.LLRL17
 8832 25aa 2901     		.2byte	0x129
 8833 25ac 03       		.byte	0x3
 8834 25ad E3250000 		.4byte	0x25e3
ARM GAS  C:\Users\DEVELO~1\AppData\Local\Temp\ccUBlV4P.s 			page 156


 8835 25b1 05       		.uleb128 0x5
 8836 25b2 95290000 		.4byte	0x2995
 8837 25b6 00000000 		.4byte	.LBI350
 8838 25ba 08       		.byte	.LVU171
 8839 25bb 87000000 		.4byte	.LLRL17
 8840 25bf 03       		.byte	0x3
 8841 25c0 7601     		.2byte	0x176
 8842 25c2 05       		.uleb128 0x5
 8843 25c3 9E290000 		.4byte	0x299e
 8844 25c7 00000000 		.4byte	.LBI351
 8845 25cb 0A       		.byte	.LVU173
 8846 25cc 87000000 		.4byte	.LLRL17
 8847 25d0 04       		.byte	0x4
 8848 25d1 5003     		.2byte	0x350
 8849 25d3 01       		.uleb128 0x1
 8850 25d4 AB290000 		.4byte	0x29ab
 8851 25d8 390A0000 		.4byte	.LLST18
 8852 25dc 370A0000 		.4byte	.LVUS18
 8853 25e0 00       		.byte	0
 8854 25e1 00       		.byte	0
 8855 25e2 00       		.byte	0
 8856 25e3 06       		.uleb128 0x6
 8857 25e4 19270000 		.4byte	0x2719
 8858 25e8 08000000 		.4byte	.LBI357
 8859 25ec 04       		.byte	.LVU181
 8860 25ed 93000000 		.4byte	.LLRL19
 8861 25f1 2A01     		.2byte	0x12a
 8862 25f3 08       		.byte	0x8
 8863 25f4 B1260000 		.4byte	0x26b1
 8864 25f8 01       		.uleb128 0x1
 8865 25f9 32270000 		.4byte	0x2732
 8866 25fd 4A0A0000 		.4byte	.LLST20
 8867 2601 440A0000 		.4byte	.LVUS20
 8868 2605 01       		.uleb128 0x1
 8869 2606 27270000 		.4byte	0x2727
 8870 260a 660A0000 		.4byte	.LLST21
 8871 260e 620A0000 		.4byte	.LVUS21
 8872 2612 13       		.uleb128 0x13
 8873 2613 93000000 		.4byte	.LLRL19
 8874 2617 06       		.uleb128 0x6
 8875 2618 7F270000 		.4byte	0x277f
 8876 261c 08000000 		.4byte	.LBI359
 8877 2620 0F       		.byte	.LVU192
 8878 2621 9F000000 		.4byte	.LLRL22
 8879 2625 0201     		.2byte	0x102
 8880 2627 08       		.byte	0x8
 8881 2628 83260000 		.4byte	0x2683
 8882 262c 01       		.uleb128 0x1
 8883 262d 98270000 		.4byte	0x2798
 8884 2631 7C0A0000 		.4byte	.LLST23
 8885 2635 760A0000 		.4byte	.LVUS23
 8886 2639 01       		.uleb128 0x1
 8887 263a 8D270000 		.4byte	0x278d
 8888 263e 980A0000 		.4byte	.LLST24
 8889 2642 940A0000 		.4byte	.LVUS24
 8890 2646 13       		.uleb128 0x13
 8891 2647 9F000000 		.4byte	.LLRL22
ARM GAS  C:\Users\DEVELO~1\AppData\Local\Temp\ccUBlV4P.s 			page 157


 8892 264b 22       		.uleb128 0x22
 8893 264c EB280000 		.4byte	0x28eb
 8894 2650 4E000000 		.4byte	.LBI361
 8895 2654 0A       		.byte	.LVU237
 8896 2655 B4000000 		.4byte	.LLRL25
 8897 2659 AB       		.byte	0xab
 8898 265a 64260000 		.4byte	0x2664
 8899 265e 2A       		.uleb128 0x2a
 8900 265f F8280000 		.4byte	0x28f8
 8901 2663 00       		.byte	0
 8902 2664 23       		.uleb128 0x23
 8903 2665 6B290000 		.4byte	0x296b
 8904 2669 4E000000 		.4byte	.LBI364
 8905 266d 01       		.byte	.LVU228
 8906 266e C0000000 		.4byte	.LLRL26
 8907 2672 90       		.byte	0x90
 8908 2673 01       		.uleb128 0x1
 8909 2674 75290000 		.4byte	0x2975
 8910 2678 AA0A0000 		.4byte	.LLST27
 8911 267c A80A0000 		.4byte	.LVUS27
 8912 2680 00       		.byte	0
 8913 2681 00       		.byte	0
 8914 2682 00       		.byte	0
 8915 2683 05       		.uleb128 0x5
 8916 2684 A3280000 		.4byte	0x28a3
 8917 2688 5C000000 		.4byte	.LBI373
 8918 268c 02       		.byte	.LVU253
 8919 268d CC000000 		.4byte	.LLRL28
 8920 2691 01       		.byte	0x1
 8921 2692 0901     		.2byte	0x109
 8922 2694 01       		.uleb128 0x1
 8923 2695 BC280000 		.4byte	0x28bc
 8924 2699 B50A0000 		.4byte	.LLST29
 8925 269d B30A0000 		.4byte	.LVUS29
 8926 26a1 01       		.uleb128 0x1
 8927 26a2 B0280000 		.4byte	0x28b0
 8928 26a6 C20A0000 		.4byte	.LLST30
 8929 26aa BE0A0000 		.4byte	.LVUS30
 8930 26ae 00       		.byte	0
 8931 26af 00       		.byte	0
 8932 26b0 00       		.byte	0
 8933 26b1 02       		.uleb128 0x2
 8934 26b2 3D280000 		.4byte	0x283d
 8935 26b6 68000000 		.4byte	.LBI384
 8936 26ba 04       		.byte	.LVU267
 8937 26bb 68000000 		.4byte	.LBB384
 8938 26bf 04000000 		.4byte	.LBE384-.LBB384
 8939 26c3 01       		.byte	0x1
 8940 26c4 2B01     		.2byte	0x12b
 8941 26c6 03       		.byte	0x3
 8942 26c7 02       		.uleb128 0x2
 8943 26c8 8C290000 		.4byte	0x298c
 8944 26cc 68000000 		.4byte	.LBI386
 8945 26d0 0B       		.byte	.LVU274
 8946 26d1 68000000 		.4byte	.LBB386
 8947 26d5 04000000 		.4byte	.LBE386-.LBB386
 8948 26d9 03       		.byte	0x3
ARM GAS  C:\Users\DEVELO~1\AppData\Local\Temp\ccUBlV4P.s 			page 158


 8949 26da 8F01     		.2byte	0x18f
 8950 26dc 03       		.byte	0x3
 8951 26dd 02       		.uleb128 0x2
 8952 26de 9E290000 		.4byte	0x299e
 8953 26e2 68000000 		.4byte	.LBI387
 8954 26e6 0D       		.byte	.LVU276
 8955 26e7 68000000 		.4byte	.LBB387
 8956 26eb 04000000 		.4byte	.LBE387-.LBB387
 8957 26ef 04       		.byte	0x4
 8958 26f0 6303     		.2byte	0x363
 8959 26f2 03       		.byte	0x3
 8960 26f3 01       		.uleb128 0x1
 8961 26f4 AB290000 		.4byte	0x29ab
 8962 26f8 D60A0000 		.4byte	.LLST31
 8963 26fc D40A0000 		.4byte	.LVUS31
 8964 2700 00       		.byte	0
 8965 2701 00       		.byte	0
 8966 2702 00       		.byte	0
 8967 2703 00       		.byte	0
 8968 2704 11       		.uleb128 0x11
 8969 2705 C4000000 		.4byte	0xc4
 8970 2709 14270000 		.4byte	0x2714
 8971 270d 12       		.uleb128 0x12
 8972 270e 39000000 		.4byte	0x39
 8973 2712 13       		.byte	0x13
 8974 2713 00       		.byte	0
 8975 2714 0D       		.uleb128 0xd
 8976 2715 04270000 		.4byte	0x2704
 8977 2719 42       		.uleb128 0x42
 8978 271a E0000000 		.4byte	.LASF182
 8979 271e F4       		.byte	0xf4
 8980 271f C9030000 		.4byte	0x3c9
 8981 2723 48270000 		.4byte	0x2748
 8982 2727 1C       		.uleb128 0x1c
 8983 2728 747000   		.ascii	"tp\000"
 8984 272b 01       		.byte	0x1
 8985 272c F4       		.byte	0xf4
 8986 272d 2A       		.byte	0x2a
 8987 272e C9030000 		.4byte	0x3c9
 8988 2732 1C       		.uleb128 0x1c
 8989 2733 74647000 		.ascii	"tdp\000"
 8990 2737 01       		.byte	0x1
 8991 2738 F5       		.byte	0xf5
 8992 2739 3B       		.byte	0x3b
 8993 273a 5A210000 		.4byte	0x215a
 8994 273e 09       		.uleb128 0x9
 8995 273f 6F070000 		.4byte	.LASF147
 8996 2743 770D0000 		.4byte	0xd77
 8997 2747 00       		.byte	0
 8998 2748 53       		.uleb128 0x53
 8999 2749 B1080000 		.4byte	.LASF183
 9000 274d 01       		.byte	0x1
 9001 274e C8       		.byte	0xc8
 9002 274f 06       		.byte	0x6
 9003 2750 01       		.byte	0x1
 9004 2751 6A270000 		.4byte	0x276a
 9005 2755 1C       		.uleb128 0x1c
ARM GAS  C:\Users\DEVELO~1\AppData\Local\Temp\ccUBlV4P.s 			page 159


 9006 2756 747000   		.ascii	"tp\000"
 9007 2759 01       		.byte	0x1
 9008 275a C8       		.byte	0xc8
 9009 275b 23       		.byte	0x23
 9010 275c C9030000 		.4byte	0x3c9
 9011 2760 09       		.uleb128 0x9
 9012 2761 6F070000 		.4byte	.LASF147
 9013 2765 7A270000 		.4byte	0x277a
 9014 2769 00       		.byte	0
 9015 276a 11       		.uleb128 0x11
 9016 276b C4000000 		.4byte	0xc4
 9017 276f 7A270000 		.4byte	0x277a
 9018 2773 12       		.uleb128 0x12
 9019 2774 39000000 		.4byte	0x39
 9020 2778 12       		.byte	0x12
 9021 2779 00       		.byte	0
 9022 277a 0D       		.uleb128 0xd
 9023 277b 6A270000 		.4byte	0x276a
 9024 277f 42       		.uleb128 0x42
 9025 2780 C2070000 		.4byte	.LASF184
 9026 2784 74       		.byte	0x74
 9027 2785 C9030000 		.4byte	0x3c9
 9028 2789 AE270000 		.4byte	0x27ae
 9029 278d 1C       		.uleb128 0x1c
 9030 278e 747000   		.ascii	"tp\000"
 9031 2791 01       		.byte	0x1
 9032 2792 74       		.byte	0x74
 9033 2793 25       		.byte	0x25
 9034 2794 C9030000 		.4byte	0x3c9
 9035 2798 1C       		.uleb128 0x1c
 9036 2799 74647000 		.ascii	"tdp\000"
 9037 279d 01       		.byte	0x1
 9038 279e 75       		.byte	0x75
 9039 279f 36       		.byte	0x36
 9040 27a0 5A210000 		.4byte	0x215a
 9041 27a4 09       		.uleb128 0x9
 9042 27a5 6F070000 		.4byte	.LASF147
 9043 27a9 BE270000 		.4byte	0x27be
 9044 27ad 00       		.byte	0
 9045 27ae 11       		.uleb128 0x11
 9046 27af C4000000 		.4byte	0xc4
 9047 27b3 BE270000 		.4byte	0x27be
 9048 27b7 12       		.uleb128 0x12
 9049 27b8 39000000 		.4byte	0x39
 9050 27bc 0F       		.byte	0xf
 9051 27bd 00       		.byte	0
 9052 27be 0D       		.uleb128 0xd
 9053 27bf AE270000 		.4byte	0x27ae
 9054 27c3 24       		.uleb128 0x24
 9055 27c4 72080000 		.4byte	.LASF185
 9056 27c8 06       		.byte	0x6
 9057 27c9 9802     		.2byte	0x298
 9058 27cb 14       		.byte	0x14
 9059 27cc 00280000 		.4byte	0x2800
 9060 27d0 0E       		.uleb128 0xe
 9061 27d1 74717000 		.ascii	"tqp\000"
 9062 27d5 06       		.byte	0x6
ARM GAS  C:\Users\DEVELO~1\AppData\Local\Temp\ccUBlV4P.s 			page 160


 9063 27d6 9802     		.2byte	0x298
 9064 27d8 39       		.byte	0x39
 9065 27d9 440B0000 		.4byte	0xb44
 9066 27dd 0E       		.uleb128 0xe
 9067 27de 6D736700 		.ascii	"msg\000"
 9068 27e2 06       		.byte	0x6
 9069 27e3 9802     		.2byte	0x298
 9070 27e5 44       		.byte	0x44
 9071 27e6 5C010000 		.4byte	0x15c
 9072 27ea 28       		.uleb128 0x28
 9073 27eb 747000   		.ascii	"tp\000"
 9074 27ee 06       		.byte	0x6
 9075 27ef 9902     		.2byte	0x299
 9076 27f1 0D       		.byte	0xd
 9077 27f2 C9030000 		.4byte	0x3c9
 9078 27f6 09       		.uleb128 0x9
 9079 27f7 6F070000 		.4byte	.LASF147
 9080 27fb 14270000 		.4byte	0x2714
 9081 27ff 00       		.byte	0
 9082 2800 24       		.uleb128 0x24
 9083 2801 85030000 		.4byte	.LASF186
 9084 2805 06       		.byte	0x6
 9085 2806 7502     		.2byte	0x275
 9086 2808 14       		.byte	0x14
 9087 2809 24280000 		.4byte	0x2824
 9088 280d 2B       		.uleb128 0x2b
 9089 280e E0050000 		.4byte	.LASF187
 9090 2812 06       		.byte	0x6
 9091 2813 7502     		.2byte	0x275
 9092 2815 2E       		.byte	0x2e
 9093 2816 94030000 		.4byte	0x394
 9094 281a 09       		.uleb128 0x9
 9095 281b 6F070000 		.4byte	.LASF147
 9096 281f 131D0000 		.4byte	0x1d13
 9097 2823 00       		.byte	0
 9098 2824 54       		.uleb128 0x54
 9099 2825 DB090000 		.4byte	.LASF188
 9100 2829 06       		.byte	0x6
 9101 282a 0F02     		.2byte	0x20f
 9102 282c 19       		.byte	0x19
 9103 282d C9030000 		.4byte	0x3c9
 9104 2831 03       		.byte	0x3
 9105 2832 43       		.uleb128 0x43
 9106 2833 88040000 		.4byte	.LASF189
 9107 2837 07       		.byte	0x7
 9108 2838 87       		.byte	0x87
 9109 2839 88030000 		.4byte	0x388
 9110 283d 24       		.uleb128 0x24
 9111 283e 3B0A0000 		.4byte	.LASF190
 9112 2842 03       		.byte	0x3
 9113 2843 8201     		.2byte	0x182
 9114 2845 14       		.byte	0x14
 9115 2846 54280000 		.4byte	0x2854
 9116 284a 09       		.uleb128 0x9
 9117 284b 6F070000 		.4byte	.LASF147
 9118 284f 131D0000 		.4byte	0x1d13
 9119 2853 00       		.byte	0
ARM GAS  C:\Users\DEVELO~1\AppData\Local\Temp\ccUBlV4P.s 			page 161


 9120 2854 36       		.uleb128 0x36
 9121 2855 78070000 		.4byte	.LASF201
 9122 2859 03       		.byte	0x3
 9123 285a 7401     		.2byte	0x174
 9124 285c 14       		.byte	0x14
 9125 285d 25       		.uleb128 0x25
 9126 285e 34080000 		.4byte	.LASF191
 9127 2862 02       		.byte	0x2
 9128 2863 7A01     		.2byte	0x17a
 9129 2865 1B       		.byte	0x1b
 9130 2866 3F060000 		.4byte	0x63f
 9131 286a 7A280000 		.4byte	0x287a
 9132 286e 0E       		.uleb128 0xe
 9133 286f 7000     		.ascii	"p\000"
 9134 2871 02       		.byte	0x2
 9135 2872 7A01     		.2byte	0x17a
 9136 2874 38       		.byte	0x38
 9137 2875 3F060000 		.4byte	0x63f
 9138 2879 00       		.byte	0
 9139 287a 25       		.uleb128 0x25
 9140 287b 38020000 		.4byte	.LASF192
 9141 287f 02       		.byte	0x2
 9142 2880 5401     		.2byte	0x154
 9143 2882 1B       		.byte	0x1b
 9144 2883 3F060000 		.4byte	0x63f
 9145 2887 A3280000 		.4byte	0x28a3
 9146 288b 0E       		.uleb128 0xe
 9147 288c 717000   		.ascii	"qp\000"
 9148 288f 02       		.byte	0x2
 9149 2890 5401     		.2byte	0x154
 9150 2892 3C       		.byte	0x3c
 9151 2893 3F060000 		.4byte	0x63f
 9152 2897 28       		.uleb128 0x28
 9153 2898 7000     		.ascii	"p\000"
 9154 289a 02       		.byte	0x2
 9155 289b 5501     		.2byte	0x155
 9156 289d 0F       		.byte	0xf
 9157 289e 3F060000 		.4byte	0x63f
 9158 28a2 00       		.byte	0
 9159 28a3 24       		.uleb128 0x24
 9160 28a4 26070000 		.4byte	.LASF193
 9161 28a8 02       		.byte	0x2
 9162 28a9 4201     		.2byte	0x142
 9163 28ab 14       		.byte	0x14
 9164 28ac C8280000 		.4byte	0x28c8
 9165 28b0 0E       		.uleb128 0xe
 9166 28b1 717000   		.ascii	"qp\000"
 9167 28b4 02       		.byte	0x2
 9168 28b5 4201     		.2byte	0x142
 9169 28b7 30       		.byte	0x30
 9170 28b8 3F060000 		.4byte	0x63f
 9171 28bc 0E       		.uleb128 0xe
 9172 28bd 7000     		.ascii	"p\000"
 9173 28bf 02       		.byte	0x2
 9174 28c0 4201     		.2byte	0x142
 9175 28c2 40       		.byte	0x40
 9176 28c3 3F060000 		.4byte	0x63f
ARM GAS  C:\Users\DEVELO~1\AppData\Local\Temp\ccUBlV4P.s 			page 162


 9177 28c7 00       		.byte	0
 9178 28c8 25       		.uleb128 0x25
 9179 28c9 87060000 		.4byte	.LASF194
 9180 28cd 02       		.byte	0x2
 9181 28ce 3501     		.2byte	0x135
 9182 28d0 14       		.byte	0x14
 9183 28d1 EB090000 		.4byte	0x9eb
 9184 28d5 E6280000 		.4byte	0x28e6
 9185 28d9 0E       		.uleb128 0xe
 9186 28da 717000   		.ascii	"qp\000"
 9187 28dd 02       		.byte	0x2
 9188 28de 3501     		.2byte	0x135
 9189 28e0 38       		.byte	0x38
 9190 28e1 E6280000 		.4byte	0x28e6
 9191 28e5 00       		.byte	0
 9192 28e6 0B       		.uleb128 0xb
 9193 28e7 12060000 		.4byte	0x612
 9194 28eb 24       		.uleb128 0x24
 9195 28ec FE070000 		.4byte	.LASF195
 9196 28f0 02       		.byte	0x2
 9197 28f1 1A01     		.2byte	0x11a
 9198 28f3 14       		.byte	0x14
 9199 28f4 05290000 		.4byte	0x2905
 9200 28f8 0E       		.uleb128 0xe
 9201 28f9 717000   		.ascii	"qp\000"
 9202 28fc 02       		.byte	0x2
 9203 28fd 1A01     		.2byte	0x11a
 9204 28ff 2E       		.byte	0x2e
 9205 2900 3F060000 		.4byte	0x63f
 9206 2904 00       		.byte	0
 9207 2905 25       		.uleb128 0x25
 9208 2906 6B0A0000 		.4byte	.LASF196
 9209 290a 02       		.byte	0x2
 9210 290b 0B01     		.2byte	0x10b
 9211 290d 1A       		.byte	0x1a
 9212 290e 01060000 		.4byte	0x601
 9213 2912 2E290000 		.4byte	0x292e
 9214 2916 0E       		.uleb128 0xe
 9215 2917 6C7000   		.ascii	"lp\000"
 9216 291a 02       		.byte	0x2
 9217 291b 0B01     		.2byte	0x10b
 9218 291d 34       		.byte	0x34
 9219 291e 01060000 		.4byte	0x601
 9220 2922 28       		.uleb128 0x28
 9221 2923 7000     		.ascii	"p\000"
 9222 2925 02       		.byte	0x2
 9223 2926 0D01     		.2byte	0x10d
 9224 2928 0E       		.byte	0xe
 9225 2929 01060000 		.4byte	0x601
 9226 292d 00       		.byte	0
 9227 292e 44       		.uleb128 0x44
 9228 292f C6040000 		.4byte	.LASF197
 9229 2933 FC       		.byte	0xfc
 9230 2934 4E290000 		.4byte	0x294e
 9231 2938 1C       		.uleb128 0x1c
 9232 2939 6C7000   		.ascii	"lp\000"
 9233 293c 02       		.byte	0x2
ARM GAS  C:\Users\DEVELO~1\AppData\Local\Temp\ccUBlV4P.s 			page 163


 9234 293d FC       		.byte	0xfc
 9235 293e 2C       		.byte	0x2c
 9236 293f 01060000 		.4byte	0x601
 9237 2943 1C       		.uleb128 0x1c
 9238 2944 7000     		.ascii	"p\000"
 9239 2946 02       		.byte	0x2
 9240 2947 FC       		.byte	0xfc
 9241 2948 3B       		.byte	0x3b
 9242 2949 01060000 		.4byte	0x601
 9243 294d 00       		.byte	0
 9244 294e 55       		.uleb128 0x55
 9245 294f 0E070000 		.4byte	.LASF198
 9246 2953 02       		.byte	0x2
 9247 2954 EF       		.byte	0xef
 9248 2955 14       		.byte	0x14
 9249 2956 EB090000 		.4byte	0x9eb
 9250 295a 03       		.byte	0x3
 9251 295b 6B290000 		.4byte	0x296b
 9252 295f 1C       		.uleb128 0x1c
 9253 2960 6C7000   		.ascii	"lp\000"
 9254 2963 02       		.byte	0x2
 9255 2964 EF       		.byte	0xef
 9256 2965 30       		.byte	0x30
 9257 2966 01060000 		.4byte	0x601
 9258 296a 00       		.byte	0
 9259 296b 44       		.uleb128 0x44
 9260 296c 50080000 		.4byte	.LASF199
 9261 2970 D5       		.byte	0xd5
 9262 2971 81290000 		.4byte	0x2981
 9263 2975 1C       		.uleb128 0x1c
 9264 2976 6C7000   		.ascii	"lp\000"
 9265 2979 02       		.byte	0x2
 9266 297a D5       		.byte	0xd5
 9267 297b 2C       		.byte	0x2c
 9268 297c 01060000 		.4byte	0x601
 9269 2980 00       		.byte	0
 9270 2981 43       		.uleb128 0x43
 9271 2982 30090000 		.4byte	.LASF200
 9272 2986 08       		.byte	0x8
 9273 2987 6F       		.byte	0x6f
 9274 2988 88030000 		.4byte	0x388
 9275 298c 36       		.uleb128 0x36
 9276 298d 10020000 		.4byte	.LASF202
 9277 2991 04       		.byte	0x4
 9278 2992 6003     		.2byte	0x360
 9279 2994 1B       		.byte	0x1b
 9280 2995 36       		.uleb128 0x36
 9281 2996 520A0000 		.4byte	.LASF203
 9282 299a 04       		.byte	0x4
 9283 299b 4803     		.2byte	0x348
 9284 299d 1B       		.byte	0x1b
 9285 299e 24       		.uleb128 0x24
 9286 299f E6050000 		.4byte	.LASF204
 9287 29a3 05       		.byte	0x5
 9288 29a4 EB01     		.2byte	0x1eb
 9289 29a6 1B       		.byte	0x1b
 9290 29a7 B9290000 		.4byte	0x29b9
ARM GAS  C:\Users\DEVELO~1\AppData\Local\Temp\ccUBlV4P.s 			page 164


 9291 29ab 2B       		.uleb128 0x2b
 9292 29ac C5010000 		.4byte	.LASF205
 9293 29b0 05       		.byte	0x5
 9294 29b1 EB01     		.2byte	0x1eb
 9295 29b3 32       		.byte	0x32
 9296 29b4 F7000000 		.4byte	0xf7
 9297 29b8 00       		.byte	0
 9298 29b9 25       		.uleb128 0x25
 9299 29ba 49010000 		.4byte	.LASF206
 9300 29be 09       		.byte	0x9
 9301 29bf E401     		.2byte	0x1e4
 9302 29c1 14       		.byte	0x14
 9303 29c2 EB090000 		.4byte	0x9eb
 9304 29c6 F2290000 		.4byte	0x29f2
 9305 29ca 2B       		.uleb128 0x2b
 9306 29cb 5C060000 		.4byte	.LASF75
 9307 29cf 09       		.byte	0x9
 9308 29d0 E401     		.2byte	0x1e4
 9309 29d2 2F       		.byte	0x2f
 9310 29d3 88030000 		.4byte	0x388
 9311 29d7 2B       		.uleb128 0x2b
 9312 29d8 470A0000 		.4byte	.LASF207
 9313 29dc 09       		.byte	0x9
 9314 29dd E501     		.2byte	0x1e5
 9315 29df 2F       		.byte	0x2f
 9316 29e0 88030000 		.4byte	0x388
 9317 29e4 0E       		.uleb128 0xe
 9318 29e5 656E6400 		.ascii	"end\000"
 9319 29e9 09       		.byte	0x9
 9320 29ea E601     		.2byte	0x1e6
 9321 29ec 2F       		.byte	0x2f
 9322 29ed 88030000 		.4byte	0x388
 9323 29f1 00       		.byte	0
 9324 29f2 25       		.uleb128 0x25
 9325 29f3 C2060000 		.4byte	.LASF208
 9326 29f7 09       		.byte	0x9
 9327 29f8 CD01     		.2byte	0x1cd
 9328 29fa 1D       		.byte	0x1d
 9329 29fb 94030000 		.4byte	0x394
 9330 29ff 1E2A0000 		.4byte	0x2a1e
 9331 2a03 2B       		.uleb128 0x2b
 9332 2a04 470A0000 		.4byte	.LASF207
 9333 2a08 09       		.byte	0x9
 9334 2a09 CD01     		.2byte	0x1cd
 9335 2a0b 33       		.byte	0x33
 9336 2a0c 88030000 		.4byte	0x388
 9337 2a10 0E       		.uleb128 0xe
 9338 2a11 656E6400 		.ascii	"end\000"
 9339 2a15 09       		.byte	0x9
 9340 2a16 CD01     		.2byte	0x1cd
 9341 2a18 44       		.byte	0x44
 9342 2a19 88030000 		.4byte	0x388
 9343 2a1d 00       		.byte	0
 9344 2a1e 26       		.uleb128 0x26
 9345 2a1f 7F270000 		.4byte	0x277f
 9346 2a23 00000000 		.4byte	.LFB352
 9347 2a27 48000000 		.4byte	.LFE352-.LFB352
ARM GAS  C:\Users\DEVELO~1\AppData\Local\Temp\ccUBlV4P.s 			page 165


 9348 2a2b 01       		.uleb128 0x1
 9349 2a2c 9C       		.byte	0x9c
 9350 2a2d 842A0000 		.4byte	0x2a84
 9351 2a31 37       		.uleb128 0x37
 9352 2a32 8D270000 		.4byte	0x278d
 9353 2a36 01       		.uleb128 0x1
 9354 2a37 50       		.byte	0x50
 9355 2a38 01       		.uleb128 0x1
 9356 2a39 98270000 		.4byte	0x2798
 9357 2a3d E60A0000 		.4byte	.LLST0
 9358 2a41 E00A0000 		.4byte	.LVUS0
 9359 2a45 22       		.uleb128 0x22
 9360 2a46 EB280000 		.4byte	0x28eb
 9361 2a4a 3C000000 		.4byte	.LBI281
 9362 2a4e 07       		.byte	.LVU45
 9363 2a4f 0C000000 		.4byte	.LLRL1
 9364 2a53 AB       		.byte	0xab
 9365 2a54 662A0000 		.4byte	0x2a66
 9366 2a58 01       		.uleb128 0x1
 9367 2a59 F8280000 		.4byte	0x28f8
 9368 2a5d 000B0000 		.4byte	.LLST2
 9369 2a61 FE0A0000 		.4byte	.LVUS2
 9370 2a65 00       		.byte	0
 9371 2a66 23       		.uleb128 0x23
 9372 2a67 6B290000 		.4byte	0x296b
 9373 2a6b 32000000 		.4byte	.LBI286
 9374 2a6f 01       		.byte	.LVU33
 9375 2a70 1B000000 		.4byte	.LLRL3
 9376 2a74 90       		.byte	0x90
 9377 2a75 01       		.uleb128 0x1
 9378 2a76 75290000 		.4byte	0x2975
 9379 2a7a 0D0B0000 		.4byte	.LLST4
 9380 2a7e 090B0000 		.4byte	.LVUS4
 9381 2a82 00       		.byte	0
 9382 2a83 00       		.byte	0
 9383 2a84 26       		.uleb128 0x26
 9384 2a85 48270000 		.4byte	0x2748
 9385 2a89 00000000 		.4byte	.LFB353
 9386 2a8d 02000000 		.4byte	.LFE353-.LFB353
 9387 2a91 01       		.uleb128 0x1
 9388 2a92 9C       		.byte	0x9c
 9389 2a93 9F2A0000 		.4byte	0x2a9f
 9390 2a97 37       		.uleb128 0x37
 9391 2a98 55270000 		.4byte	0x2755
 9392 2a9c 01       		.uleb128 0x1
 9393 2a9d 50       		.byte	0x50
 9394 2a9e 00       		.byte	0
 9395 2a9f 26       		.uleb128 0x26
 9396 2aa0 19270000 		.4byte	0x2719
 9397 2aa4 00000000 		.4byte	.LFB354
 9398 2aa8 70000000 		.4byte	.LFE354-.LFB354
 9399 2aac 01       		.uleb128 0x1
 9400 2aad 9C       		.byte	0x9c
 9401 2aae 5F2B0000 		.4byte	0x2b5f
 9402 2ab2 37       		.uleb128 0x37
 9403 2ab3 27270000 		.4byte	0x2727
 9404 2ab7 01       		.uleb128 0x1
ARM GAS  C:\Users\DEVELO~1\AppData\Local\Temp\ccUBlV4P.s 			page 166


 9405 2ab8 50       		.byte	0x50
 9406 2ab9 01       		.uleb128 0x1
 9407 2aba 32270000 		.4byte	0x2732
 9408 2abe 250B0000 		.4byte	.LLST5
 9409 2ac2 1F0B0000 		.4byte	.LVUS5
 9410 2ac6 06       		.uleb128 0x6
 9411 2ac7 7F270000 		.4byte	0x277f
 9412 2acb 02000000 		.4byte	.LBI301
 9413 2acf 01       		.byte	.LVU86
 9414 2ad0 27000000 		.4byte	.LLRL6
 9415 2ad4 0201     		.2byte	0x102
 9416 2ad6 08       		.byte	0x8
 9417 2ad7 322B0000 		.4byte	0x2b32
 9418 2adb 01       		.uleb128 0x1
 9419 2adc 98270000 		.4byte	0x2798
 9420 2ae0 430B0000 		.4byte	.LLST7
 9421 2ae4 3D0B0000 		.4byte	.LVUS7
 9422 2ae8 01       		.uleb128 0x1
 9423 2ae9 8D270000 		.4byte	0x278d
 9424 2aed 5F0B0000 		.4byte	.LLST8
 9425 2af1 5B0B0000 		.4byte	.LVUS8
 9426 2af5 13       		.uleb128 0x13
 9427 2af6 42000000 		.4byte	.LLRL9
 9428 2afa 22       		.uleb128 0x22
 9429 2afb EB280000 		.4byte	0x28eb
 9430 2aff 42000000 		.4byte	.LBI303
 9431 2b03 07       		.byte	.LVU132
 9432 2b04 60000000 		.4byte	.LLRL10
 9433 2b08 AB       		.byte	0xab
 9434 2b09 132B0000 		.4byte	0x2b13
 9435 2b0d 2A       		.uleb128 0x2a
 9436 2b0e F8280000 		.4byte	0x28f8
 9437 2b12 00       		.byte	0
 9438 2b13 23       		.uleb128 0x23
 9439 2b14 6B290000 		.4byte	0x296b
 9440 2b18 3C000000 		.4byte	.LBI306
 9441 2b1c 01       		.byte	.LVU120
 9442 2b1d 6C000000 		.4byte	.LLRL11
 9443 2b21 90       		.byte	0x90
 9444 2b22 01       		.uleb128 0x1
 9445 2b23 75290000 		.4byte	0x2975
 9446 2b27 710B0000 		.4byte	.LLST12
 9447 2b2b 6F0B0000 		.4byte	.LVUS12
 9448 2b2f 00       		.byte	0
 9449 2b30 00       		.byte	0
 9450 2b31 00       		.byte	0
 9451 2b32 05       		.uleb128 0x5
 9452 2b33 A3280000 		.4byte	0x28a3
 9453 2b37 54000000 		.4byte	.LBI321
 9454 2b3b 02       		.byte	.LVU150
 9455 2b3c 78000000 		.4byte	.LLRL13
 9456 2b40 01       		.byte	0x1
 9457 2b41 0901     		.2byte	0x109
 9458 2b43 01       		.uleb128 0x1
 9459 2b44 BC280000 		.4byte	0x28bc
 9460 2b48 7C0B0000 		.4byte	.LLST14
 9461 2b4c 7A0B0000 		.4byte	.LVUS14
ARM GAS  C:\Users\DEVELO~1\AppData\Local\Temp\ccUBlV4P.s 			page 167


 9462 2b50 01       		.uleb128 0x1
 9463 2b51 B0280000 		.4byte	0x28b0
 9464 2b55 890B0000 		.4byte	.LLST15
 9465 2b59 850B0000 		.4byte	.LVUS15
 9466 2b5d 00       		.byte	0
 9467 2b5e 00       		.byte	0
 9468 2b5f 26       		.uleb128 0x26
 9469 2b60 78230000 		.4byte	0x2378
 9470 2b64 00000000 		.4byte	.LFB358
 9471 2b68 94000000 		.4byte	.LFE358-.LFB358
 9472 2b6c 01       		.uleb128 0x1
 9473 2b6d 9C       		.byte	0x9c
 9474 2b6e 3F2C0000 		.4byte	0x2c3f
 9475 2b72 01       		.uleb128 0x1
 9476 2b73 8A230000 		.4byte	0x238a
 9477 2b77 A30B0000 		.4byte	.LLST39
 9478 2b7b 9B0B0000 		.4byte	.LVUS39
 9479 2b7f 0F       		.uleb128 0xf
 9480 2b80 97230000 		.4byte	0x2397
 9481 2b84 C50B0000 		.4byte	.LLST40
 9482 2b88 C30B0000 		.4byte	.LVUS40
 9483 2b8c 0F       		.uleb128 0xf
 9484 2b8d A3230000 		.4byte	0x23a3
 9485 2b91 D20B0000 		.4byte	.LLST41
 9486 2b95 CE0B0000 		.4byte	.LVUS41
 9487 2b99 0F       		.uleb128 0xf
 9488 2b9a AF230000 		.4byte	0x23af
 9489 2b9e E60B0000 		.4byte	.LLST42
 9490 2ba2 E40B0000 		.4byte	.LVUS42
 9491 2ba6 06       		.uleb128 0x6
 9492 2ba7 7F270000 		.4byte	0x277f
 9493 2bab 0A000000 		.4byte	.LBI413
 9494 2baf 04       		.byte	.LVU346
 9495 2bb0 E7000000 		.4byte	.LLRL43
 9496 2bb4 9301     		.2byte	0x193
 9497 2bb6 08       		.byte	0x8
 9498 2bb7 122C0000 		.4byte	0x2c12
 9499 2bbb 01       		.uleb128 0x1
 9500 2bbc 98270000 		.4byte	0x2798
 9501 2bc0 F60B0000 		.4byte	.LLST44
 9502 2bc4 F00B0000 		.4byte	.LVUS44
 9503 2bc8 01       		.uleb128 0x1
 9504 2bc9 8D270000 		.4byte	0x278d
 9505 2bcd 130C0000 		.4byte	.LLST45
 9506 2bd1 0F0C0000 		.4byte	.LVUS45
 9507 2bd5 13       		.uleb128 0x13
 9508 2bd6 E7000000 		.4byte	.LLRL43
 9509 2bda 22       		.uleb128 0x22
 9510 2bdb EB280000 		.4byte	0x28eb
 9511 2bdf 74000000 		.4byte	.LBI415
 9512 2be3 07       		.byte	.LVU398
 9513 2be4 0A010000 		.4byte	.LLRL46
 9514 2be8 AB       		.byte	0xab
 9515 2be9 F32B0000 		.4byte	0x2bf3
 9516 2bed 2A       		.uleb128 0x2a
 9517 2bee F8280000 		.4byte	0x28f8
 9518 2bf2 00       		.byte	0
ARM GAS  C:\Users\DEVELO~1\AppData\Local\Temp\ccUBlV4P.s 			page 168


 9519 2bf3 23       		.uleb128 0x23
 9520 2bf4 6B290000 		.4byte	0x296b
 9521 2bf8 6A000000 		.4byte	.LBI418
 9522 2bfc 01       		.byte	.LVU386
 9523 2bfd 16010000 		.4byte	.LLRL47
 9524 2c01 90       		.byte	0x90
 9525 2c02 01       		.uleb128 0x1
 9526 2c03 75290000 		.4byte	0x2975
 9527 2c07 260C0000 		.4byte	.LLST48
 9528 2c0b 240C0000 		.4byte	.LVUS48
 9529 2c0f 00       		.byte	0
 9530 2c10 00       		.byte	0
 9531 2c11 00       		.byte	0
 9532 2c12 05       		.uleb128 0x5
 9533 2c13 A3280000 		.4byte	0x28a3
 9534 2c17 74000000 		.4byte	.LBI437
 9535 2c1b 16       		.byte	.LVU413
 9536 2c1c 22010000 		.4byte	.LLRL49
 9537 2c20 01       		.byte	0x1
 9538 2c21 9901     		.2byte	0x199
 9539 2c23 01       		.uleb128 0x1
 9540 2c24 BC280000 		.4byte	0x28bc
 9541 2c28 310C0000 		.4byte	.LLST50
 9542 2c2c 2F0C0000 		.4byte	.LVUS50
 9543 2c30 01       		.uleb128 0x1
 9544 2c31 B0280000 		.4byte	0x28b0
 9545 2c35 3E0C0000 		.4byte	.LLST51
 9546 2c39 3A0C0000 		.4byte	.LVUS51
 9547 2c3d 00       		.byte	0
 9548 2c3e 00       		.byte	0
 9549 2c3f 26       		.uleb128 0x26
 9550 2c40 121C0000 		.4byte	0x1c12
 9551 2c44 00000000 		.4byte	.LFB365
 9552 2c48 36000000 		.4byte	.LFE365-.LFB365
 9553 2c4c 01       		.uleb128 0x1
 9554 2c4d 9C       		.byte	0x9c
 9555 2c4e AD2D0000 		.4byte	0x2dad
 9556 2c52 01       		.uleb128 0x1
 9557 2c53 1D1C0000 		.4byte	0x1c1d
 9558 2c57 540C0000 		.4byte	.LLST105
 9559 2c5b 500C0000 		.4byte	.LVUS105
 9560 2c5f 08       		.uleb128 0x8
 9561 2c60 54280000 		.4byte	0x2854
 9562 2c64 00000000 		.4byte	.LBI649
 9563 2c68 02       		.byte	.LVU805
 9564 2c69 00000000 		.4byte	.LBB649
 9565 2c6d 06000000 		.4byte	.LBE649-.LBB649
 9566 2c71 01       		.byte	0x1
 9567 2c72 8402     		.2byte	0x284
 9568 2c74 03       		.byte	0x3
 9569 2c75 B52C0000 		.4byte	0x2cb5
 9570 2c79 02       		.uleb128 0x2
 9571 2c7a 95290000 		.4byte	0x2995
 9572 2c7e 00000000 		.4byte	.LBI650
 9573 2c82 04       		.byte	.LVU807
 9574 2c83 00000000 		.4byte	.LBB650
 9575 2c87 06000000 		.4byte	.LBE650-.LBB650
ARM GAS  C:\Users\DEVELO~1\AppData\Local\Temp\ccUBlV4P.s 			page 169


 9576 2c8b 03       		.byte	0x3
 9577 2c8c 7601     		.2byte	0x176
 9578 2c8e 03       		.byte	0x3
 9579 2c8f 02       		.uleb128 0x2
 9580 2c90 9E290000 		.4byte	0x299e
 9581 2c94 00000000 		.4byte	.LBI651
 9582 2c98 06       		.byte	.LVU809
 9583 2c99 00000000 		.4byte	.LBB651
 9584 2c9d 06000000 		.4byte	.LBE651-.LBB651
 9585 2ca1 04       		.byte	0x4
 9586 2ca2 5003     		.2byte	0x350
 9587 2ca4 03       		.byte	0x3
 9588 2ca5 01       		.uleb128 0x1
 9589 2ca6 AB290000 		.4byte	0x29ab
 9590 2caa 690C0000 		.4byte	.LLST106
 9591 2cae 670C0000 		.4byte	.LVUS106
 9592 2cb2 00       		.byte	0
 9593 2cb3 00       		.byte	0
 9594 2cb4 00       		.byte	0
 9595 2cb5 08       		.uleb128 0x8
 9596 2cb6 3D280000 		.4byte	0x283d
 9597 2cba 16000000 		.4byte	.LBI653
 9598 2cbe 01       		.byte	.LVU823
 9599 2cbf 16000000 		.4byte	.LBB653
 9600 2cc3 06000000 		.4byte	.LBE653-.LBB653
 9601 2cc7 01       		.byte	0x1
 9602 2cc8 9A02     		.2byte	0x29a
 9603 2cca 03       		.byte	0x3
 9604 2ccb 0B2D0000 		.4byte	0x2d0b
 9605 2ccf 02       		.uleb128 0x2
 9606 2cd0 8C290000 		.4byte	0x298c
 9607 2cd4 16000000 		.4byte	.LBI655
 9608 2cd8 08       		.byte	.LVU830
 9609 2cd9 16000000 		.4byte	.LBB655
 9610 2cdd 06000000 		.4byte	.LBE655-.LBB655
 9611 2ce1 03       		.byte	0x3
 9612 2ce2 8F01     		.2byte	0x18f
 9613 2ce4 03       		.byte	0x3
 9614 2ce5 02       		.uleb128 0x2
 9615 2ce6 9E290000 		.4byte	0x299e
 9616 2cea 16000000 		.4byte	.LBI656
 9617 2cee 0A       		.byte	.LVU832
 9618 2cef 16000000 		.4byte	.LBB656
 9619 2cf3 06000000 		.4byte	.LBE656-.LBB656
 9620 2cf7 04       		.byte	0x4
 9621 2cf8 6303     		.2byte	0x363
 9622 2cfa 03       		.byte	0x3
 9623 2cfb 01       		.uleb128 0x1
 9624 2cfc AB290000 		.4byte	0x29ab
 9625 2d00 760C0000 		.4byte	.LLST107
 9626 2d04 740C0000 		.4byte	.LVUS107
 9627 2d08 00       		.byte	0
 9628 2d09 00       		.byte	0
 9629 2d0a 00       		.byte	0
 9630 2d0b 02       		.uleb128 0x2
 9631 2d0c 121C0000 		.4byte	0x1c12
 9632 2d10 1E000000 		.4byte	.LBI658
ARM GAS  C:\Users\DEVELO~1\AppData\Local\Temp\ccUBlV4P.s 			page 170


 9633 2d14 00       		.byte	.LVU836
 9634 2d15 1E000000 		.4byte	.LBB658
 9635 2d19 18000000 		.4byte	.LBE658-.LBB658
 9636 2d1d 01       		.byte	0x1
 9637 2d1e 8202     		.2byte	0x282
 9638 2d20 06       		.byte	0x6
 9639 2d21 01       		.uleb128 0x1
 9640 2d22 1D1C0000 		.4byte	0x1c1d
 9641 2d26 840C0000 		.4byte	.LLST108
 9642 2d2a 800C0000 		.4byte	.LVUS108
 9643 2d2e 06       		.uleb128 0x6
 9644 2d2f 5D280000 		.4byte	0x285d
 9645 2d33 1E000000 		.4byte	.LBI660
 9646 2d37 02       		.byte	.LVU838
 9647 2d38 08020000 		.4byte	.LLRL109
 9648 2d3c 8E02     		.2byte	0x28e
 9649 2d3e 05       		.byte	0x5
 9650 2d3f 512D0000 		.4byte	0x2d51
 9651 2d43 01       		.uleb128 0x1
 9652 2d44 6E280000 		.4byte	0x286e
 9653 2d48 990C0000 		.4byte	.LLST110
 9654 2d4c 970C0000 		.4byte	.LVUS110
 9655 2d50 00       		.byte	0
 9656 2d51 06       		.uleb128 0x6
 9657 2d52 3D280000 		.4byte	0x283d
 9658 2d56 2A000000 		.4byte	.LBI663
 9659 2d5a 03       		.byte	.LVU848
 9660 2d5b 14020000 		.4byte	.LLRL111
 9661 2d5f 8F02     		.2byte	0x28f
 9662 2d61 05       		.byte	0x5
 9663 2d62 9E2D0000 		.4byte	0x2d9e
 9664 2d66 13       		.uleb128 0x13
 9665 2d67 14020000 		.4byte	.LLRL111
 9666 2d6b 05       		.uleb128 0x5
 9667 2d6c 8C290000 		.4byte	0x298c
 9668 2d70 2A000000 		.4byte	.LBI665
 9669 2d74 0A       		.byte	.LVU855
 9670 2d75 14020000 		.4byte	.LLRL111
 9671 2d79 03       		.byte	0x3
 9672 2d7a 8F01     		.2byte	0x18f
 9673 2d7c 05       		.uleb128 0x5
 9674 2d7d 9E290000 		.4byte	0x299e
 9675 2d81 2A000000 		.4byte	.LBI666
 9676 2d85 0C       		.byte	.LVU857
 9677 2d86 14020000 		.4byte	.LLRL111
 9678 2d8a 04       		.byte	0x4
 9679 2d8b 6303     		.2byte	0x363
 9680 2d8d 01       		.uleb128 0x1
 9681 2d8e AB290000 		.4byte	0x29ab
 9682 2d92 A60C0000 		.4byte	.LLST112
 9683 2d96 A40C0000 		.4byte	.LVUS112
 9684 2d9a 00       		.byte	0
 9685 2d9b 00       		.byte	0
 9686 2d9c 00       		.byte	0
 9687 2d9d 00       		.byte	0
 9688 2d9e 56       		.uleb128 0x56
 9689 2d9f 36000000 		.4byte	.LVL95
ARM GAS  C:\Users\DEVELO~1\AppData\Local\Temp\ccUBlV4P.s 			page 171


 9690 2da3 07       		.uleb128 0x7
 9691 2da4 01       		.uleb128 0x1
 9692 2da5 50       		.byte	0x50
 9693 2da6 03       		.uleb128 0x3
 9694 2da7 A3       		.byte	0xa3
 9695 2da8 01       		.uleb128 0x1
 9696 2da9 50       		.byte	0x50
 9697 2daa 00       		.byte	0
 9698 2dab 00       		.byte	0
 9699 2dac 00       		.byte	0
 9700 2dad 26       		.uleb128 0x26
 9701 2dae 7A1A0000 		.4byte	0x1a7a
 9702 2db2 00000000 		.4byte	.LFB367
 9703 2db6 4C000000 		.4byte	.LFE367-.LFB367
 9704 2dba 01       		.uleb128 0x1
 9705 2dbb 9C       		.byte	0x9c
 9706 2dbc 892E0000 		.4byte	0x2e89
 9707 2dc0 01       		.uleb128 0x1
 9708 2dc1 851A0000 		.4byte	0x1a85
 9709 2dc5 B40C0000 		.4byte	.LLST125
 9710 2dc9 B00C0000 		.4byte	.LVUS125
 9711 2dcd 0F       		.uleb128 0xf
 9712 2dce 921A0000 		.4byte	0x1a92
 9713 2dd2 CB0C0000 		.4byte	.LLST126
 9714 2dd6 C70C0000 		.4byte	.LVUS126
 9715 2dda 29       		.uleb128 0x29
 9716 2ddb 24280000 		.4byte	0x2824
 9717 2ddf 00000000 		.4byte	.LBI714
 9718 2de3 02       		.byte	.LVU933
 9719 2de4 53020000 		.4byte	.LLRL127
 9720 2de8 C502     		.2byte	0x2c5
 9721 2dea 16       		.byte	0x16
 9722 2deb 06       		.uleb128 0x6
 9723 2dec 4E290000 		.4byte	0x294e
 9724 2df0 0E000000 		.4byte	.LBI718
 9725 2df4 04       		.byte	.LVU946
 9726 2df5 5F020000 		.4byte	.LLRL128
 9727 2df9 CF02     		.2byte	0x2cf
 9728 2dfb 0A       		.byte	0xa
 9729 2dfc 0E2E0000 		.4byte	0x2e0e
 9730 2e00 01       		.uleb128 0x1
 9731 2e01 5F290000 		.4byte	0x295f
 9732 2e05 DF0C0000 		.4byte	.LLST129
 9733 2e09 DB0C0000 		.4byte	.LVUS129
 9734 2e0d 00       		.byte	0
 9735 2e0e 06       		.uleb128 0x6
 9736 2e0f 05290000 		.4byte	0x2905
 9737 2e13 20000000 		.4byte	.LBI723
 9738 2e17 01       		.byte	.LVU956
 9739 2e18 6E020000 		.4byte	.LLRL130
 9740 2e1c D002     		.2byte	0x2d0
 9741 2e1e 18       		.byte	0x18
 9742 2e1f 442E0000 		.4byte	0x2e44
 9743 2e23 01       		.uleb128 0x1
 9744 2e24 16290000 		.4byte	0x2916
 9745 2e28 F10C0000 		.4byte	.LLST131
 9746 2e2c EF0C0000 		.4byte	.LVUS131
ARM GAS  C:\Users\DEVELO~1\AppData\Local\Temp\ccUBlV4P.s 			page 172


 9747 2e30 13       		.uleb128 0x13
 9748 2e31 6E020000 		.4byte	.LLRL130
 9749 2e35 0F       		.uleb128 0xf
 9750 2e36 22290000 		.4byte	0x2922
 9751 2e3a FC0C0000 		.4byte	.LLST132
 9752 2e3e FA0C0000 		.4byte	.LVUS132
 9753 2e42 00       		.byte	0
 9754 2e43 00       		.byte	0
 9755 2e44 08       		.uleb128 0x8
 9756 2e45 5D280000 		.4byte	0x285d
 9757 2e49 3C000000 		.4byte	.LBI728
 9758 2e4d 01       		.byte	.LVU976
 9759 2e4e 3C000000 		.4byte	.LBB728
 9760 2e52 10000000 		.4byte	.LBE728-.LBB728
 9761 2e56 01       		.byte	0x1
 9762 2e57 DA02     		.2byte	0x2da
 9763 2e59 07       		.byte	0x7
 9764 2e5a 6C2E0000 		.4byte	0x2e6c
 9765 2e5e 01       		.uleb128 0x1
 9766 2e5f 6E280000 		.4byte	0x286e
 9767 2e63 070D0000 		.4byte	.LLST133
 9768 2e67 050D0000 		.4byte	.LVUS133
 9769 2e6b 00       		.byte	0
 9770 2e6c 41       		.uleb128 0x41
 9771 2e6d 20000000 		.4byte	.LVL112
 9772 2e71 240A0000 		.4byte	0xa24
 9773 2e75 7F2E0000 		.4byte	0x2e7f
 9774 2e79 07       		.uleb128 0x7
 9775 2e7a 01       		.uleb128 0x1
 9776 2e7b 50       		.byte	0x50
 9777 2e7c 01       		.uleb128 0x1
 9778 2e7d 3F       		.byte	0x3f
 9779 2e7e 00       		.byte	0
 9780 2e7f 20       		.uleb128 0x20
 9781 2e80 2A000000 		.4byte	.LVL114
 9782 2e84 490A0000 		.4byte	0xa49
 9783 2e88 00       		.byte	0
 9784 2e89 57       		.uleb128 0x57
 9785 2e8a B40E0000 		.4byte	0xeb4
 9786 2e8e 00000000 		.4byte	.LFB378
 9787 2e92 10000000 		.4byte	.LFE378-.LFB378
 9788 2e96 01       		.uleb128 0x1
 9789 2e97 9C       		.byte	0x9c
 9790 2e98 01       		.uleb128 0x1
 9791 2e99 BF0E0000 		.4byte	0xebf
 9792 2e9d 1A0D0000 		.4byte	.LLST200
 9793 2ea1 120D0000 		.4byte	.LVUS200
 9794 2ea5 01       		.uleb128 0x1
 9795 2ea6 CC0E0000 		.4byte	0xecc
 9796 2eaa 3D0D0000 		.4byte	.LLST201
 9797 2eae 370D0000 		.4byte	.LVUS201
 9798 2eb2 3F       		.uleb128 0x3f
 9799 2eb3 E20E0000 		.4byte	0xee2
 9800 2eb7 06000000 		.4byte	.LBB945
 9801 2ebb 08000000 		.4byte	.LBE945-.LBB945
 9802 2ebf 0F       		.uleb128 0xf
 9803 2ec0 E30E0000 		.4byte	0xee3
ARM GAS  C:\Users\DEVELO~1\AppData\Local\Temp\ccUBlV4P.s 			page 173


 9804 2ec4 570D0000 		.4byte	.LLST202
 9805 2ec8 550D0000 		.4byte	.LVUS202
 9806 2ecc 00       		.byte	0
 9807 2ecd 00       		.byte	0
 9808 2ece 00       		.byte	0
 9809              		.section	.debug_abbrev,"",%progbits
 9810              	.Ldebug_abbrev0:
 9811 0000 01       		.uleb128 0x1
 9812 0001 05       		.uleb128 0x5
 9813 0002 00       		.byte	0
 9814 0003 31       		.uleb128 0x31
 9815 0004 13       		.uleb128 0x13
 9816 0005 02       		.uleb128 0x2
 9817 0006 17       		.uleb128 0x17
 9818 0007 B742     		.uleb128 0x2137
 9819 0009 17       		.uleb128 0x17
 9820 000a 00       		.byte	0
 9821 000b 00       		.byte	0
 9822 000c 02       		.uleb128 0x2
 9823 000d 1D       		.uleb128 0x1d
 9824 000e 01       		.byte	0x1
 9825 000f 31       		.uleb128 0x31
 9826 0010 13       		.uleb128 0x13
 9827 0011 52       		.uleb128 0x52
 9828 0012 01       		.uleb128 0x1
 9829 0013 B842     		.uleb128 0x2138
 9830 0015 0B       		.uleb128 0xb
 9831 0016 11       		.uleb128 0x11
 9832 0017 01       		.uleb128 0x1
 9833 0018 12       		.uleb128 0x12
 9834 0019 06       		.uleb128 0x6
 9835 001a 58       		.uleb128 0x58
 9836 001b 0B       		.uleb128 0xb
 9837 001c 59       		.uleb128 0x59
 9838 001d 05       		.uleb128 0x5
 9839 001e 57       		.uleb128 0x57
 9840 001f 0B       		.uleb128 0xb
 9841 0020 00       		.byte	0
 9842 0021 00       		.byte	0
 9843 0022 03       		.uleb128 0x3
 9844 0023 0D       		.uleb128 0xd
 9845 0024 00       		.byte	0
 9846 0025 03       		.uleb128 0x3
 9847 0026 0E       		.uleb128 0xe
 9848 0027 3A       		.uleb128 0x3a
 9849 0028 0B       		.uleb128 0xb
 9850 0029 3B       		.uleb128 0x3b
 9851 002a 0B       		.uleb128 0xb
 9852 002b 39       		.uleb128 0x39
 9853 002c 0B       		.uleb128 0xb
 9854 002d 49       		.uleb128 0x49
 9855 002e 13       		.uleb128 0x13
 9856 002f 38       		.uleb128 0x38
 9857 0030 0B       		.uleb128 0xb
 9858 0031 00       		.byte	0
 9859 0032 00       		.byte	0
 9860 0033 04       		.uleb128 0x4
ARM GAS  C:\Users\DEVELO~1\AppData\Local\Temp\ccUBlV4P.s 			page 174


 9861 0034 16       		.uleb128 0x16
 9862 0035 00       		.byte	0
 9863 0036 03       		.uleb128 0x3
 9864 0037 0E       		.uleb128 0xe
 9865 0038 3A       		.uleb128 0x3a
 9866 0039 0B       		.uleb128 0xb
 9867 003a 3B       		.uleb128 0x3b
 9868 003b 0B       		.uleb128 0xb
 9869 003c 39       		.uleb128 0x39
 9870 003d 0B       		.uleb128 0xb
 9871 003e 49       		.uleb128 0x49
 9872 003f 13       		.uleb128 0x13
 9873 0040 00       		.byte	0
 9874 0041 00       		.byte	0
 9875 0042 05       		.uleb128 0x5
 9876 0043 1D       		.uleb128 0x1d
 9877 0044 01       		.byte	0x1
 9878 0045 31       		.uleb128 0x31
 9879 0046 13       		.uleb128 0x13
 9880 0047 52       		.uleb128 0x52
 9881 0048 01       		.uleb128 0x1
 9882 0049 B842     		.uleb128 0x2138
 9883 004b 0B       		.uleb128 0xb
 9884 004c 55       		.uleb128 0x55
 9885 004d 17       		.uleb128 0x17
 9886 004e 58       		.uleb128 0x58
 9887 004f 0B       		.uleb128 0xb
 9888 0050 59       		.uleb128 0x59
 9889 0051 05       		.uleb128 0x5
 9890 0052 57       		.uleb128 0x57
 9891 0053 21       		.uleb128 0x21
 9892 0054 03       		.sleb128 3
 9893 0055 00       		.byte	0
 9894 0056 00       		.byte	0
 9895 0057 06       		.uleb128 0x6
 9896 0058 1D       		.uleb128 0x1d
 9897 0059 01       		.byte	0x1
 9898 005a 31       		.uleb128 0x31
 9899 005b 13       		.uleb128 0x13
 9900 005c 52       		.uleb128 0x52
 9901 005d 01       		.uleb128 0x1
 9902 005e B842     		.uleb128 0x2138
 9903 0060 0B       		.uleb128 0xb
 9904 0061 55       		.uleb128 0x55
 9905 0062 17       		.uleb128 0x17
 9906 0063 58       		.uleb128 0x58
 9907 0064 21       		.uleb128 0x21
 9908 0065 01       		.sleb128 1
 9909 0066 59       		.uleb128 0x59
 9910 0067 05       		.uleb128 0x5
 9911 0068 57       		.uleb128 0x57
 9912 0069 0B       		.uleb128 0xb
 9913 006a 01       		.uleb128 0x1
 9914 006b 13       		.uleb128 0x13
 9915 006c 00       		.byte	0
 9916 006d 00       		.byte	0
 9917 006e 07       		.uleb128 0x7
ARM GAS  C:\Users\DEVELO~1\AppData\Local\Temp\ccUBlV4P.s 			page 175


 9918 006f 49       		.uleb128 0x49
 9919 0070 00       		.byte	0
 9920 0071 02       		.uleb128 0x2
 9921 0072 18       		.uleb128 0x18
 9922 0073 7E       		.uleb128 0x7e
 9923 0074 18       		.uleb128 0x18
 9924 0075 00       		.byte	0
 9925 0076 00       		.byte	0
 9926 0077 08       		.uleb128 0x8
 9927 0078 1D       		.uleb128 0x1d
 9928 0079 01       		.byte	0x1
 9929 007a 31       		.uleb128 0x31
 9930 007b 13       		.uleb128 0x13
 9931 007c 52       		.uleb128 0x52
 9932 007d 01       		.uleb128 0x1
 9933 007e B842     		.uleb128 0x2138
 9934 0080 0B       		.uleb128 0xb
 9935 0081 11       		.uleb128 0x11
 9936 0082 01       		.uleb128 0x1
 9937 0083 12       		.uleb128 0x12
 9938 0084 06       		.uleb128 0x6
 9939 0085 58       		.uleb128 0x58
 9940 0086 0B       		.uleb128 0xb
 9941 0087 59       		.uleb128 0x59
 9942 0088 05       		.uleb128 0x5
 9943 0089 57       		.uleb128 0x57
 9944 008a 0B       		.uleb128 0xb
 9945 008b 01       		.uleb128 0x1
 9946 008c 13       		.uleb128 0x13
 9947 008d 00       		.byte	0
 9948 008e 00       		.byte	0
 9949 008f 09       		.uleb128 0x9
 9950 0090 34       		.uleb128 0x34
 9951 0091 00       		.byte	0
 9952 0092 03       		.uleb128 0x3
 9953 0093 0E       		.uleb128 0xe
 9954 0094 49       		.uleb128 0x49
 9955 0095 13       		.uleb128 0x13
 9956 0096 34       		.uleb128 0x34
 9957 0097 19       		.uleb128 0x19
 9958 0098 00       		.byte	0
 9959 0099 00       		.byte	0
 9960 009a 0A       		.uleb128 0xa
 9961 009b 05       		.uleb128 0x5
 9962 009c 00       		.byte	0
 9963 009d 03       		.uleb128 0x3
 9964 009e 08       		.uleb128 0x8
 9965 009f 3A       		.uleb128 0x3a
 9966 00a0 21       		.uleb128 0x21
 9967 00a1 01       		.sleb128 1
 9968 00a2 3B       		.uleb128 0x3b
 9969 00a3 05       		.uleb128 0x5
 9970 00a4 39       		.uleb128 0x39
 9971 00a5 0B       		.uleb128 0xb
 9972 00a6 49       		.uleb128 0x49
 9973 00a7 13       		.uleb128 0x13
 9974 00a8 02       		.uleb128 0x2
ARM GAS  C:\Users\DEVELO~1\AppData\Local\Temp\ccUBlV4P.s 			page 176


 9975 00a9 17       		.uleb128 0x17
 9976 00aa B742     		.uleb128 0x2137
 9977 00ac 17       		.uleb128 0x17
 9978 00ad 00       		.byte	0
 9979 00ae 00       		.byte	0
 9980 00af 0B       		.uleb128 0xb
 9981 00b0 0F       		.uleb128 0xf
 9982 00b1 00       		.byte	0
 9983 00b2 0B       		.uleb128 0xb
 9984 00b3 21       		.uleb128 0x21
 9985 00b4 04       		.sleb128 4
 9986 00b5 49       		.uleb128 0x49
 9987 00b6 13       		.uleb128 0x13
 9988 00b7 00       		.byte	0
 9989 00b8 00       		.byte	0
 9990 00b9 0C       		.uleb128 0xc
 9991 00ba 0D       		.uleb128 0xd
 9992 00bb 00       		.byte	0
 9993 00bc 03       		.uleb128 0x3
 9994 00bd 0E       		.uleb128 0xe
 9995 00be 3A       		.uleb128 0x3a
 9996 00bf 21       		.uleb128 0x21
 9997 00c0 0F       		.sleb128 15
 9998 00c1 3B       		.uleb128 0x3b
 9999 00c2 05       		.uleb128 0x5
 10000 00c3 39       		.uleb128 0x39
 10001 00c4 0B       		.uleb128 0xb
 10002 00c5 49       		.uleb128 0x49
 10003 00c6 13       		.uleb128 0x13
 10004 00c7 38       		.uleb128 0x38
 10005 00c8 0B       		.uleb128 0xb
 10006 00c9 00       		.byte	0
 10007 00ca 00       		.byte	0
 10008 00cb 0D       		.uleb128 0xd
 10009 00cc 26       		.uleb128 0x26
 10010 00cd 00       		.byte	0
 10011 00ce 49       		.uleb128 0x49
 10012 00cf 13       		.uleb128 0x13
 10013 00d0 00       		.byte	0
 10014 00d1 00       		.byte	0
 10015 00d2 0E       		.uleb128 0xe
 10016 00d3 05       		.uleb128 0x5
 10017 00d4 00       		.byte	0
 10018 00d5 03       		.uleb128 0x3
 10019 00d6 08       		.uleb128 0x8
 10020 00d7 3A       		.uleb128 0x3a
 10021 00d8 0B       		.uleb128 0xb
 10022 00d9 3B       		.uleb128 0x3b
 10023 00da 05       		.uleb128 0x5
 10024 00db 39       		.uleb128 0x39
 10025 00dc 0B       		.uleb128 0xb
 10026 00dd 49       		.uleb128 0x49
 10027 00de 13       		.uleb128 0x13
 10028 00df 00       		.byte	0
 10029 00e0 00       		.byte	0
 10030 00e1 0F       		.uleb128 0xf
 10031 00e2 34       		.uleb128 0x34
ARM GAS  C:\Users\DEVELO~1\AppData\Local\Temp\ccUBlV4P.s 			page 177


 10032 00e3 00       		.byte	0
 10033 00e4 31       		.uleb128 0x31
 10034 00e5 13       		.uleb128 0x13
 10035 00e6 02       		.uleb128 0x2
 10036 00e7 17       		.uleb128 0x17
 10037 00e8 B742     		.uleb128 0x2137
 10038 00ea 17       		.uleb128 0x17
 10039 00eb 00       		.byte	0
 10040 00ec 00       		.byte	0
 10041 00ed 10       		.uleb128 0x10
 10042 00ee 2E       		.uleb128 0x2e
 10043 00ef 01       		.byte	0x1
 10044 00f0 3F       		.uleb128 0x3f
 10045 00f1 19       		.uleb128 0x19
 10046 00f2 03       		.uleb128 0x3
 10047 00f3 0E       		.uleb128 0xe
 10048 00f4 3A       		.uleb128 0x3a
 10049 00f5 21       		.uleb128 0x21
 10050 00f6 01       		.sleb128 1
 10051 00f7 3B       		.uleb128 0x3b
 10052 00f8 05       		.uleb128 0x5
 10053 00f9 39       		.uleb128 0x39
 10054 00fa 0B       		.uleb128 0xb
 10055 00fb 27       		.uleb128 0x27
 10056 00fc 19       		.uleb128 0x19
 10057 00fd 49       		.uleb128 0x49
 10058 00fe 13       		.uleb128 0x13
 10059 00ff 11       		.uleb128 0x11
 10060 0100 01       		.uleb128 0x1
 10061 0101 12       		.uleb128 0x12
 10062 0102 06       		.uleb128 0x6
 10063 0103 40       		.uleb128 0x40
 10064 0104 18       		.uleb128 0x18
 10065 0105 7A       		.uleb128 0x7a
 10066 0106 19       		.uleb128 0x19
 10067 0107 01       		.uleb128 0x1
 10068 0108 13       		.uleb128 0x13
 10069 0109 00       		.byte	0
 10070 010a 00       		.byte	0
 10071 010b 11       		.uleb128 0x11
 10072 010c 01       		.uleb128 0x1
 10073 010d 01       		.byte	0x1
 10074 010e 49       		.uleb128 0x49
 10075 010f 13       		.uleb128 0x13
 10076 0110 01       		.uleb128 0x1
 10077 0111 13       		.uleb128 0x13
 10078 0112 00       		.byte	0
 10079 0113 00       		.byte	0
 10080 0114 12       		.uleb128 0x12
 10081 0115 21       		.uleb128 0x21
 10082 0116 00       		.byte	0
 10083 0117 49       		.uleb128 0x49
 10084 0118 13       		.uleb128 0x13
 10085 0119 2F       		.uleb128 0x2f
 10086 011a 0B       		.uleb128 0xb
 10087 011b 00       		.byte	0
 10088 011c 00       		.byte	0
ARM GAS  C:\Users\DEVELO~1\AppData\Local\Temp\ccUBlV4P.s 			page 178


 10089 011d 13       		.uleb128 0x13
 10090 011e 0B       		.uleb128 0xb
 10091 011f 01       		.byte	0x1
 10092 0120 55       		.uleb128 0x55
 10093 0121 17       		.uleb128 0x17
 10094 0122 00       		.byte	0
 10095 0123 00       		.byte	0
 10096 0124 14       		.uleb128 0x14
 10097 0125 24       		.uleb128 0x24
 10098 0126 00       		.byte	0
 10099 0127 0B       		.uleb128 0xb
 10100 0128 0B       		.uleb128 0xb
 10101 0129 3E       		.uleb128 0x3e
 10102 012a 0B       		.uleb128 0xb
 10103 012b 03       		.uleb128 0x3
 10104 012c 0E       		.uleb128 0xe
 10105 012d 00       		.byte	0
 10106 012e 00       		.byte	0
 10107 012f 15       		.uleb128 0x15
 10108 0130 13       		.uleb128 0x13
 10109 0131 01       		.byte	0x1
 10110 0132 03       		.uleb128 0x3
 10111 0133 0E       		.uleb128 0xe
 10112 0134 0B       		.uleb128 0xb
 10113 0135 0B       		.uleb128 0xb
 10114 0136 3A       		.uleb128 0x3a
 10115 0137 0B       		.uleb128 0xb
 10116 0138 3B       		.uleb128 0x3b
 10117 0139 0B       		.uleb128 0xb
 10118 013a 39       		.uleb128 0x39
 10119 013b 0B       		.uleb128 0xb
 10120 013c 01       		.uleb128 0x1
 10121 013d 13       		.uleb128 0x13
 10122 013e 00       		.byte	0
 10123 013f 00       		.byte	0
 10124 0140 16       		.uleb128 0x16
 10125 0141 0D       		.uleb128 0xd
 10126 0142 00       		.byte	0
 10127 0143 03       		.uleb128 0x3
 10128 0144 08       		.uleb128 0x8
 10129 0145 3A       		.uleb128 0x3a
 10130 0146 0B       		.uleb128 0xb
 10131 0147 3B       		.uleb128 0x3b
 10132 0148 05       		.uleb128 0x5
 10133 0149 39       		.uleb128 0x39
 10134 014a 0B       		.uleb128 0xb
 10135 014b 49       		.uleb128 0x49
 10136 014c 13       		.uleb128 0x13
 10137 014d 38       		.uleb128 0x38
 10138 014e 0B       		.uleb128 0xb
 10139 014f 00       		.byte	0
 10140 0150 00       		.byte	0
 10141 0151 17       		.uleb128 0x17
 10142 0152 0D       		.uleb128 0xd
 10143 0153 00       		.byte	0
 10144 0154 03       		.uleb128 0x3
 10145 0155 08       		.uleb128 0x8
ARM GAS  C:\Users\DEVELO~1\AppData\Local\Temp\ccUBlV4P.s 			page 179


 10146 0156 3A       		.uleb128 0x3a
 10147 0157 0B       		.uleb128 0xb
 10148 0158 3B       		.uleb128 0x3b
 10149 0159 0B       		.uleb128 0xb
 10150 015a 39       		.uleb128 0x39
 10151 015b 0B       		.uleb128 0xb
 10152 015c 49       		.uleb128 0x49
 10153 015d 13       		.uleb128 0x13
 10154 015e 38       		.uleb128 0x38
 10155 015f 0B       		.uleb128 0xb
 10156 0160 00       		.byte	0
 10157 0161 00       		.byte	0
 10158 0162 18       		.uleb128 0x18
 10159 0163 05       		.uleb128 0x5
 10160 0164 00       		.byte	0
 10161 0165 03       		.uleb128 0x3
 10162 0166 0E       		.uleb128 0xe
 10163 0167 3A       		.uleb128 0x3a
 10164 0168 21       		.uleb128 0x21
 10165 0169 01       		.sleb128 1
 10166 016a 3B       		.uleb128 0x3b
 10167 016b 05       		.uleb128 0x5
 10168 016c 39       		.uleb128 0x39
 10169 016d 0B       		.uleb128 0xb
 10170 016e 49       		.uleb128 0x49
 10171 016f 13       		.uleb128 0x13
 10172 0170 02       		.uleb128 0x2
 10173 0171 17       		.uleb128 0x17
 10174 0172 B742     		.uleb128 0x2137
 10175 0174 17       		.uleb128 0x17
 10176 0175 00       		.byte	0
 10177 0176 00       		.byte	0
 10178 0177 19       		.uleb128 0x19
 10179 0178 2E       		.uleb128 0x2e
 10180 0179 01       		.byte	0x1
 10181 017a 3F       		.uleb128 0x3f
 10182 017b 19       		.uleb128 0x19
 10183 017c 03       		.uleb128 0x3
 10184 017d 0E       		.uleb128 0xe
 10185 017e 3A       		.uleb128 0x3a
 10186 017f 21       		.uleb128 0x21
 10187 0180 01       		.sleb128 1
 10188 0181 3B       		.uleb128 0x3b
 10189 0182 05       		.uleb128 0x5
 10190 0183 39       		.uleb128 0x39
 10191 0184 21       		.uleb128 0x21
 10192 0185 06       		.sleb128 6
 10193 0186 27       		.uleb128 0x27
 10194 0187 19       		.uleb128 0x19
 10195 0188 11       		.uleb128 0x11
 10196 0189 01       		.uleb128 0x1
 10197 018a 12       		.uleb128 0x12
 10198 018b 06       		.uleb128 0x6
 10199 018c 40       		.uleb128 0x40
 10200 018d 18       		.uleb128 0x18
 10201 018e 7A       		.uleb128 0x7a
 10202 018f 19       		.uleb128 0x19
ARM GAS  C:\Users\DEVELO~1\AppData\Local\Temp\ccUBlV4P.s 			page 180


 10203 0190 01       		.uleb128 0x1
 10204 0191 13       		.uleb128 0x13
 10205 0192 00       		.byte	0
 10206 0193 00       		.byte	0
 10207 0194 1A       		.uleb128 0x1a
 10208 0195 48       		.uleb128 0x48
 10209 0196 01       		.byte	0x1
 10210 0197 7D       		.uleb128 0x7d
 10211 0198 01       		.uleb128 0x1
 10212 0199 7F       		.uleb128 0x7f
 10213 019a 13       		.uleb128 0x13
 10214 019b 00       		.byte	0
 10215 019c 00       		.byte	0
 10216 019d 1B       		.uleb128 0x1b
 10217 019e 34       		.uleb128 0x34
 10218 019f 00       		.byte	0
 10219 01a0 03       		.uleb128 0x3
 10220 01a1 0E       		.uleb128 0xe
 10221 01a2 3A       		.uleb128 0x3a
 10222 01a3 21       		.uleb128 0x21
 10223 01a4 01       		.sleb128 1
 10224 01a5 3B       		.uleb128 0x3b
 10225 01a6 05       		.uleb128 0x5
 10226 01a7 39       		.uleb128 0x39
 10227 01a8 0B       		.uleb128 0xb
 10228 01a9 49       		.uleb128 0x49
 10229 01aa 13       		.uleb128 0x13
 10230 01ab 02       		.uleb128 0x2
 10231 01ac 17       		.uleb128 0x17
 10232 01ad B742     		.uleb128 0x2137
 10233 01af 17       		.uleb128 0x17
 10234 01b0 00       		.byte	0
 10235 01b1 00       		.byte	0
 10236 01b2 1C       		.uleb128 0x1c
 10237 01b3 05       		.uleb128 0x5
 10238 01b4 00       		.byte	0
 10239 01b5 03       		.uleb128 0x3
 10240 01b6 08       		.uleb128 0x8
 10241 01b7 3A       		.uleb128 0x3a
 10242 01b8 0B       		.uleb128 0xb
 10243 01b9 3B       		.uleb128 0x3b
 10244 01ba 0B       		.uleb128 0xb
 10245 01bb 39       		.uleb128 0x39
 10246 01bc 0B       		.uleb128 0xb
 10247 01bd 49       		.uleb128 0x49
 10248 01be 13       		.uleb128 0x13
 10249 01bf 00       		.byte	0
 10250 01c0 00       		.byte	0
 10251 01c1 1D       		.uleb128 0x1d
 10252 01c2 05       		.uleb128 0x5
 10253 01c3 00       		.byte	0
 10254 01c4 49       		.uleb128 0x49
 10255 01c5 13       		.uleb128 0x13
 10256 01c6 00       		.byte	0
 10257 01c7 00       		.byte	0
 10258 01c8 1E       		.uleb128 0x1e
 10259 01c9 0D       		.uleb128 0xd
ARM GAS  C:\Users\DEVELO~1\AppData\Local\Temp\ccUBlV4P.s 			page 181


 10260 01ca 00       		.byte	0
 10261 01cb 03       		.uleb128 0x3
 10262 01cc 0E       		.uleb128 0xe
 10263 01cd 3A       		.uleb128 0x3a
 10264 01ce 21       		.uleb128 0x21
 10265 01cf 0F       		.sleb128 15
 10266 01d0 3B       		.uleb128 0x3b
 10267 01d1 05       		.uleb128 0x5
 10268 01d2 39       		.uleb128 0x39
 10269 01d3 0B       		.uleb128 0xb
 10270 01d4 49       		.uleb128 0x49
 10271 01d5 13       		.uleb128 0x13
 10272 01d6 00       		.byte	0
 10273 01d7 00       		.byte	0
 10274 01d8 1F       		.uleb128 0x1f
 10275 01d9 13       		.uleb128 0x13
 10276 01da 01       		.byte	0x1
 10277 01db 0B       		.uleb128 0xb
 10278 01dc 0B       		.uleb128 0xb
 10279 01dd 3A       		.uleb128 0x3a
 10280 01de 0B       		.uleb128 0xb
 10281 01df 3B       		.uleb128 0x3b
 10282 01e0 0B       		.uleb128 0xb
 10283 01e1 39       		.uleb128 0x39
 10284 01e2 0B       		.uleb128 0xb
 10285 01e3 01       		.uleb128 0x1
 10286 01e4 13       		.uleb128 0x13
 10287 01e5 00       		.byte	0
 10288 01e6 00       		.byte	0
 10289 01e7 20       		.uleb128 0x20
 10290 01e8 48       		.uleb128 0x48
 10291 01e9 00       		.byte	0
 10292 01ea 7D       		.uleb128 0x7d
 10293 01eb 01       		.uleb128 0x1
 10294 01ec 7F       		.uleb128 0x7f
 10295 01ed 13       		.uleb128 0x13
 10296 01ee 00       		.byte	0
 10297 01ef 00       		.byte	0
 10298 01f0 21       		.uleb128 0x21
 10299 01f1 34       		.uleb128 0x34
 10300 01f2 00       		.byte	0
 10301 01f3 03       		.uleb128 0x3
 10302 01f4 08       		.uleb128 0x8
 10303 01f5 3A       		.uleb128 0x3a
 10304 01f6 21       		.uleb128 0x21
 10305 01f7 01       		.sleb128 1
 10306 01f8 3B       		.uleb128 0x3b
 10307 01f9 05       		.uleb128 0x5
 10308 01fa 39       		.uleb128 0x39
 10309 01fb 0B       		.uleb128 0xb
 10310 01fc 49       		.uleb128 0x49
 10311 01fd 13       		.uleb128 0x13
 10312 01fe 02       		.uleb128 0x2
 10313 01ff 17       		.uleb128 0x17
 10314 0200 B742     		.uleb128 0x2137
 10315 0202 17       		.uleb128 0x17
 10316 0203 00       		.byte	0
ARM GAS  C:\Users\DEVELO~1\AppData\Local\Temp\ccUBlV4P.s 			page 182


 10317 0204 00       		.byte	0
 10318 0205 22       		.uleb128 0x22
 10319 0206 1D       		.uleb128 0x1d
 10320 0207 01       		.byte	0x1
 10321 0208 31       		.uleb128 0x31
 10322 0209 13       		.uleb128 0x13
 10323 020a 52       		.uleb128 0x52
 10324 020b 01       		.uleb128 0x1
 10325 020c B842     		.uleb128 0x2138
 10326 020e 0B       		.uleb128 0xb
 10327 020f 55       		.uleb128 0x55
 10328 0210 17       		.uleb128 0x17
 10329 0211 58       		.uleb128 0x58
 10330 0212 21       		.uleb128 0x21
 10331 0213 01       		.sleb128 1
 10332 0214 59       		.uleb128 0x59
 10333 0215 0B       		.uleb128 0xb
 10334 0216 57       		.uleb128 0x57
 10335 0217 21       		.uleb128 0x21
 10336 0218 03       		.sleb128 3
 10337 0219 01       		.uleb128 0x1
 10338 021a 13       		.uleb128 0x13
 10339 021b 00       		.byte	0
 10340 021c 00       		.byte	0
 10341 021d 23       		.uleb128 0x23
 10342 021e 1D       		.uleb128 0x1d
 10343 021f 01       		.byte	0x1
 10344 0220 31       		.uleb128 0x31
 10345 0221 13       		.uleb128 0x13
 10346 0222 52       		.uleb128 0x52
 10347 0223 01       		.uleb128 0x1
 10348 0224 B842     		.uleb128 0x2138
 10349 0226 0B       		.uleb128 0xb
 10350 0227 55       		.uleb128 0x55
 10351 0228 17       		.uleb128 0x17
 10352 0229 58       		.uleb128 0x58
 10353 022a 21       		.uleb128 0x21
 10354 022b 01       		.sleb128 1
 10355 022c 59       		.uleb128 0x59
 10356 022d 0B       		.uleb128 0xb
 10357 022e 57       		.uleb128 0x57
 10358 022f 21       		.uleb128 0x21
 10359 0230 03       		.sleb128 3
 10360 0231 00       		.byte	0
 10361 0232 00       		.byte	0
 10362 0233 24       		.uleb128 0x24
 10363 0234 2E       		.uleb128 0x2e
 10364 0235 01       		.byte	0x1
 10365 0236 03       		.uleb128 0x3
 10366 0237 0E       		.uleb128 0xe
 10367 0238 3A       		.uleb128 0x3a
 10368 0239 0B       		.uleb128 0xb
 10369 023a 3B       		.uleb128 0x3b
 10370 023b 05       		.uleb128 0x5
 10371 023c 39       		.uleb128 0x39
 10372 023d 0B       		.uleb128 0xb
 10373 023e 27       		.uleb128 0x27
ARM GAS  C:\Users\DEVELO~1\AppData\Local\Temp\ccUBlV4P.s 			page 183


 10374 023f 19       		.uleb128 0x19
 10375 0240 20       		.uleb128 0x20
 10376 0241 21       		.uleb128 0x21
 10377 0242 03       		.sleb128 3
 10378 0243 01       		.uleb128 0x1
 10379 0244 13       		.uleb128 0x13
 10380 0245 00       		.byte	0
 10381 0246 00       		.byte	0
 10382 0247 25       		.uleb128 0x25
 10383 0248 2E       		.uleb128 0x2e
 10384 0249 01       		.byte	0x1
 10385 024a 03       		.uleb128 0x3
 10386 024b 0E       		.uleb128 0xe
 10387 024c 3A       		.uleb128 0x3a
 10388 024d 0B       		.uleb128 0xb
 10389 024e 3B       		.uleb128 0x3b
 10390 024f 05       		.uleb128 0x5
 10391 0250 39       		.uleb128 0x39
 10392 0251 0B       		.uleb128 0xb
 10393 0252 27       		.uleb128 0x27
 10394 0253 19       		.uleb128 0x19
 10395 0254 49       		.uleb128 0x49
 10396 0255 13       		.uleb128 0x13
 10397 0256 20       		.uleb128 0x20
 10398 0257 21       		.uleb128 0x21
 10399 0258 03       		.sleb128 3
 10400 0259 01       		.uleb128 0x1
 10401 025a 13       		.uleb128 0x13
 10402 025b 00       		.byte	0
 10403 025c 00       		.byte	0
 10404 025d 26       		.uleb128 0x26
 10405 025e 2E       		.uleb128 0x2e
 10406 025f 01       		.byte	0x1
 10407 0260 31       		.uleb128 0x31
 10408 0261 13       		.uleb128 0x13
 10409 0262 11       		.uleb128 0x11
 10410 0263 01       		.uleb128 0x1
 10411 0264 12       		.uleb128 0x12
 10412 0265 06       		.uleb128 0x6
 10413 0266 40       		.uleb128 0x40
 10414 0267 18       		.uleb128 0x18
 10415 0268 7A       		.uleb128 0x7a
 10416 0269 19       		.uleb128 0x19
 10417 026a 01       		.uleb128 0x1
 10418 026b 13       		.uleb128 0x13
 10419 026c 00       		.byte	0
 10420 026d 00       		.byte	0
 10421 026e 27       		.uleb128 0x27
 10422 026f 0D       		.uleb128 0xd
 10423 0270 00       		.byte	0
 10424 0271 03       		.uleb128 0x3
 10425 0272 0E       		.uleb128 0xe
 10426 0273 3A       		.uleb128 0x3a
 10427 0274 0B       		.uleb128 0xb
 10428 0275 3B       		.uleb128 0x3b
 10429 0276 0B       		.uleb128 0xb
 10430 0277 39       		.uleb128 0x39
ARM GAS  C:\Users\DEVELO~1\AppData\Local\Temp\ccUBlV4P.s 			page 184


 10431 0278 0B       		.uleb128 0xb
 10432 0279 49       		.uleb128 0x49
 10433 027a 13       		.uleb128 0x13
 10434 027b 00       		.byte	0
 10435 027c 00       		.byte	0
 10436 027d 28       		.uleb128 0x28
 10437 027e 34       		.uleb128 0x34
 10438 027f 00       		.byte	0
 10439 0280 03       		.uleb128 0x3
 10440 0281 08       		.uleb128 0x8
 10441 0282 3A       		.uleb128 0x3a
 10442 0283 0B       		.uleb128 0xb
 10443 0284 3B       		.uleb128 0x3b
 10444 0285 05       		.uleb128 0x5
 10445 0286 39       		.uleb128 0x39
 10446 0287 0B       		.uleb128 0xb
 10447 0288 49       		.uleb128 0x49
 10448 0289 13       		.uleb128 0x13
 10449 028a 00       		.byte	0
 10450 028b 00       		.byte	0
 10451 028c 29       		.uleb128 0x29
 10452 028d 1D       		.uleb128 0x1d
 10453 028e 00       		.byte	0
 10454 028f 31       		.uleb128 0x31
 10455 0290 13       		.uleb128 0x13
 10456 0291 52       		.uleb128 0x52
 10457 0292 01       		.uleb128 0x1
 10458 0293 B842     		.uleb128 0x2138
 10459 0295 0B       		.uleb128 0xb
 10460 0296 55       		.uleb128 0x55
 10461 0297 17       		.uleb128 0x17
 10462 0298 58       		.uleb128 0x58
 10463 0299 21       		.uleb128 0x21
 10464 029a 01       		.sleb128 1
 10465 029b 59       		.uleb128 0x59
 10466 029c 05       		.uleb128 0x5
 10467 029d 57       		.uleb128 0x57
 10468 029e 0B       		.uleb128 0xb
 10469 029f 00       		.byte	0
 10470 02a0 00       		.byte	0
 10471 02a1 2A       		.uleb128 0x2a
 10472 02a2 05       		.uleb128 0x5
 10473 02a3 00       		.byte	0
 10474 02a4 31       		.uleb128 0x31
 10475 02a5 13       		.uleb128 0x13
 10476 02a6 00       		.byte	0
 10477 02a7 00       		.byte	0
 10478 02a8 2B       		.uleb128 0x2b
 10479 02a9 05       		.uleb128 0x5
 10480 02aa 00       		.byte	0
 10481 02ab 03       		.uleb128 0x3
 10482 02ac 0E       		.uleb128 0xe
 10483 02ad 3A       		.uleb128 0x3a
 10484 02ae 0B       		.uleb128 0xb
 10485 02af 3B       		.uleb128 0x3b
 10486 02b0 05       		.uleb128 0x5
 10487 02b1 39       		.uleb128 0x39
ARM GAS  C:\Users\DEVELO~1\AppData\Local\Temp\ccUBlV4P.s 			page 185


 10488 02b2 0B       		.uleb128 0xb
 10489 02b3 49       		.uleb128 0x49
 10490 02b4 13       		.uleb128 0x13
 10491 02b5 00       		.byte	0
 10492 02b6 00       		.byte	0
 10493 02b7 2C       		.uleb128 0x2c
 10494 02b8 13       		.uleb128 0x13
 10495 02b9 01       		.byte	0x1
 10496 02ba 03       		.uleb128 0x3
 10497 02bb 0E       		.uleb128 0xe
 10498 02bc 0B       		.uleb128 0xb
 10499 02bd 0B       		.uleb128 0xb
 10500 02be 3A       		.uleb128 0x3a
 10501 02bf 0B       		.uleb128 0xb
 10502 02c0 3B       		.uleb128 0x3b
 10503 02c1 05       		.uleb128 0x5
 10504 02c2 39       		.uleb128 0x39
 10505 02c3 0B       		.uleb128 0xb
 10506 02c4 01       		.uleb128 0x1
 10507 02c5 13       		.uleb128 0x13
 10508 02c6 00       		.byte	0
 10509 02c7 00       		.byte	0
 10510 02c8 2D       		.uleb128 0x2d
 10511 02c9 48       		.uleb128 0x48
 10512 02ca 00       		.byte	0
 10513 02cb 7D       		.uleb128 0x7d
 10514 02cc 01       		.uleb128 0x1
 10515 02cd 8201     		.uleb128 0x82
 10516 02cf 19       		.uleb128 0x19
 10517 02d0 7F       		.uleb128 0x7f
 10518 02d1 13       		.uleb128 0x13
 10519 02d2 00       		.byte	0
 10520 02d3 00       		.byte	0
 10521 02d4 2E       		.uleb128 0x2e
 10522 02d5 05       		.uleb128 0x5
 10523 02d6 00       		.byte	0
 10524 02d7 03       		.uleb128 0x3
 10525 02d8 08       		.uleb128 0x8
 10526 02d9 3A       		.uleb128 0x3a
 10527 02da 21       		.uleb128 0x21
 10528 02db 01       		.sleb128 1
 10529 02dc 3B       		.uleb128 0x3b
 10530 02dd 05       		.uleb128 0x5
 10531 02de 39       		.uleb128 0x39
 10532 02df 0B       		.uleb128 0xb
 10533 02e0 49       		.uleb128 0x49
 10534 02e1 13       		.uleb128 0x13
 10535 02e2 02       		.uleb128 0x2
 10536 02e3 18       		.uleb128 0x18
 10537 02e4 00       		.byte	0
 10538 02e5 00       		.byte	0
 10539 02e6 2F       		.uleb128 0x2f
 10540 02e7 34       		.uleb128 0x34
 10541 02e8 00       		.byte	0
 10542 02e9 03       		.uleb128 0x3
 10543 02ea 0E       		.uleb128 0xe
 10544 02eb 3A       		.uleb128 0x3a
ARM GAS  C:\Users\DEVELO~1\AppData\Local\Temp\ccUBlV4P.s 			page 186


 10545 02ec 21       		.uleb128 0x21
 10546 02ed 01       		.sleb128 1
 10547 02ee 3B       		.uleb128 0x3b
 10548 02ef 05       		.uleb128 0x5
 10549 02f0 39       		.uleb128 0x39
 10550 02f1 0B       		.uleb128 0xb
 10551 02f2 49       		.uleb128 0x49
 10552 02f3 13       		.uleb128 0x13
 10553 02f4 00       		.byte	0
 10554 02f5 00       		.byte	0
 10555 02f6 30       		.uleb128 0x30
 10556 02f7 48       		.uleb128 0x48
 10557 02f8 01       		.byte	0x1
 10558 02f9 7D       		.uleb128 0x7d
 10559 02fa 01       		.uleb128 0x1
 10560 02fb 7F       		.uleb128 0x7f
 10561 02fc 13       		.uleb128 0x13
 10562 02fd 01       		.uleb128 0x1
 10563 02fe 13       		.uleb128 0x13
 10564 02ff 00       		.byte	0
 10565 0300 00       		.byte	0
 10566 0301 31       		.uleb128 0x31
 10567 0302 0D       		.uleb128 0xd
 10568 0303 00       		.byte	0
 10569 0304 03       		.uleb128 0x3
 10570 0305 08       		.uleb128 0x8
 10571 0306 3A       		.uleb128 0x3a
 10572 0307 21       		.uleb128 0x21
 10573 0308 12       		.sleb128 18
 10574 0309 3B       		.uleb128 0x3b
 10575 030a 0B       		.uleb128 0xb
 10576 030b 39       		.uleb128 0x39
 10577 030c 21       		.uleb128 0x21
 10578 030d 07       		.sleb128 7
 10579 030e 49       		.uleb128 0x49
 10580 030f 13       		.uleb128 0x13
 10581 0310 00       		.byte	0
 10582 0311 00       		.byte	0
 10583 0312 32       		.uleb128 0x32
 10584 0313 0D       		.uleb128 0xd
 10585 0314 00       		.byte	0
 10586 0315 03       		.uleb128 0x3
 10587 0316 0E       		.uleb128 0xe
 10588 0317 3A       		.uleb128 0x3a
 10589 0318 21       		.uleb128 0x21
 10590 0319 12       		.sleb128 18
 10591 031a 3B       		.uleb128 0x3b
 10592 031b 0B       		.uleb128 0xb
 10593 031c 39       		.uleb128 0x39
 10594 031d 21       		.uleb128 0x21
 10595 031e 19       		.sleb128 25
 10596 031f 49       		.uleb128 0x49
 10597 0320 13       		.uleb128 0x13
 10598 0321 0D       		.uleb128 0xd
 10599 0322 0B       		.uleb128 0xb
 10600 0323 6B       		.uleb128 0x6b
 10601 0324 0B       		.uleb128 0xb
ARM GAS  C:\Users\DEVELO~1\AppData\Local\Temp\ccUBlV4P.s 			page 187


 10602 0325 00       		.byte	0
 10603 0326 00       		.byte	0
 10604 0327 33       		.uleb128 0x33
 10605 0328 1D       		.uleb128 0x1d
 10606 0329 00       		.byte	0
 10607 032a 31       		.uleb128 0x31
 10608 032b 13       		.uleb128 0x13
 10609 032c 52       		.uleb128 0x52
 10610 032d 01       		.uleb128 0x1
 10611 032e B842     		.uleb128 0x2138
 10612 0330 0B       		.uleb128 0xb
 10613 0331 11       		.uleb128 0x11
 10614 0332 01       		.uleb128 0x1
 10615 0333 12       		.uleb128 0x12
 10616 0334 06       		.uleb128 0x6
 10617 0335 58       		.uleb128 0x58
 10618 0336 21       		.uleb128 0x21
 10619 0337 01       		.sleb128 1
 10620 0338 59       		.uleb128 0x59
 10621 0339 05       		.uleb128 0x5
 10622 033a 57       		.uleb128 0x57
 10623 033b 0B       		.uleb128 0xb
 10624 033c 00       		.byte	0
 10625 033d 00       		.byte	0
 10626 033e 34       		.uleb128 0x34
 10627 033f 48       		.uleb128 0x48
 10628 0340 01       		.byte	0x1
 10629 0341 7D       		.uleb128 0x7d
 10630 0342 01       		.uleb128 0x1
 10631 0343 8201     		.uleb128 0x82
 10632 0345 19       		.uleb128 0x19
 10633 0346 7F       		.uleb128 0x7f
 10634 0347 13       		.uleb128 0x13
 10635 0348 00       		.byte	0
 10636 0349 00       		.byte	0
 10637 034a 35       		.uleb128 0x35
 10638 034b 2E       		.uleb128 0x2e
 10639 034c 01       		.byte	0x1
 10640 034d 3F       		.uleb128 0x3f
 10641 034e 19       		.uleb128 0x19
 10642 034f 03       		.uleb128 0x3
 10643 0350 0E       		.uleb128 0xe
 10644 0351 3A       		.uleb128 0x3a
 10645 0352 21       		.uleb128 0x21
 10646 0353 01       		.sleb128 1
 10647 0354 3B       		.uleb128 0x3b
 10648 0355 05       		.uleb128 0x5
 10649 0356 39       		.uleb128 0x39
 10650 0357 21       		.uleb128 0x21
 10651 0358 06       		.sleb128 6
 10652 0359 27       		.uleb128 0x27
 10653 035a 19       		.uleb128 0x19
 10654 035b 20       		.uleb128 0x20
 10655 035c 21       		.uleb128 0x21
 10656 035d 01       		.sleb128 1
 10657 035e 01       		.uleb128 0x1
 10658 035f 13       		.uleb128 0x13
ARM GAS  C:\Users\DEVELO~1\AppData\Local\Temp\ccUBlV4P.s 			page 188


 10659 0360 00       		.byte	0
 10660 0361 00       		.byte	0
 10661 0362 36       		.uleb128 0x36
 10662 0363 2E       		.uleb128 0x2e
 10663 0364 00       		.byte	0
 10664 0365 03       		.uleb128 0x3
 10665 0366 0E       		.uleb128 0xe
 10666 0367 3A       		.uleb128 0x3a
 10667 0368 0B       		.uleb128 0xb
 10668 0369 3B       		.uleb128 0x3b
 10669 036a 05       		.uleb128 0x5
 10670 036b 39       		.uleb128 0x39
 10671 036c 0B       		.uleb128 0xb
 10672 036d 27       		.uleb128 0x27
 10673 036e 19       		.uleb128 0x19
 10674 036f 20       		.uleb128 0x20
 10675 0370 21       		.uleb128 0x21
 10676 0371 03       		.sleb128 3
 10677 0372 00       		.byte	0
 10678 0373 00       		.byte	0
 10679 0374 37       		.uleb128 0x37
 10680 0375 05       		.uleb128 0x5
 10681 0376 00       		.byte	0
 10682 0377 31       		.uleb128 0x31
 10683 0378 13       		.uleb128 0x13
 10684 0379 02       		.uleb128 0x2
 10685 037a 18       		.uleb128 0x18
 10686 037b 00       		.byte	0
 10687 037c 00       		.byte	0
 10688 037d 38       		.uleb128 0x38
 10689 037e 35       		.uleb128 0x35
 10690 037f 00       		.byte	0
 10691 0380 49       		.uleb128 0x49
 10692 0381 13       		.uleb128 0x13
 10693 0382 00       		.byte	0
 10694 0383 00       		.byte	0
 10695 0384 39       		.uleb128 0x39
 10696 0385 17       		.uleb128 0x17
 10697 0386 01       		.byte	0x1
 10698 0387 0B       		.uleb128 0xb
 10699 0388 0B       		.uleb128 0xb
 10700 0389 3A       		.uleb128 0x3a
 10701 038a 0B       		.uleb128 0xb
 10702 038b 3B       		.uleb128 0x3b
 10703 038c 0B       		.uleb128 0xb
 10704 038d 39       		.uleb128 0x39
 10705 038e 21       		.uleb128 0x21
 10706 038f 03       		.sleb128 3
 10707 0390 01       		.uleb128 0x1
 10708 0391 13       		.uleb128 0x13
 10709 0392 00       		.byte	0
 10710 0393 00       		.byte	0
 10711 0394 3A       		.uleb128 0x3a
 10712 0395 15       		.uleb128 0x15
 10713 0396 01       		.byte	0x1
 10714 0397 27       		.uleb128 0x27
 10715 0398 19       		.uleb128 0x19
ARM GAS  C:\Users\DEVELO~1\AppData\Local\Temp\ccUBlV4P.s 			page 189


 10716 0399 01       		.uleb128 0x1
 10717 039a 13       		.uleb128 0x13
 10718 039b 00       		.byte	0
 10719 039c 00       		.byte	0
 10720 039d 3B       		.uleb128 0x3b
 10721 039e 16       		.uleb128 0x16
 10722 039f 00       		.byte	0
 10723 03a0 03       		.uleb128 0x3
 10724 03a1 0E       		.uleb128 0xe
 10725 03a2 3A       		.uleb128 0x3a
 10726 03a3 21       		.uleb128 0x21
 10727 03a4 0F       		.sleb128 15
 10728 03a5 3B       		.uleb128 0x3b
 10729 03a6 05       		.uleb128 0x5
 10730 03a7 39       		.uleb128 0x39
 10731 03a8 21       		.uleb128 0x21
 10732 03a9 03       		.sleb128 3
 10733 03aa 49       		.uleb128 0x49
 10734 03ab 13       		.uleb128 0x13
 10735 03ac 00       		.byte	0
 10736 03ad 00       		.byte	0
 10737 03ae 3C       		.uleb128 0x3c
 10738 03af 2E       		.uleb128 0x2e
 10739 03b0 00       		.byte	0
 10740 03b1 3F       		.uleb128 0x3f
 10741 03b2 19       		.uleb128 0x19
 10742 03b3 03       		.uleb128 0x3
 10743 03b4 0E       		.uleb128 0xe
 10744 03b5 3A       		.uleb128 0x3a
 10745 03b6 21       		.uleb128 0x21
 10746 03b7 15       		.sleb128 21
 10747 03b8 3B       		.uleb128 0x3b
 10748 03b9 0B       		.uleb128 0xb
 10749 03ba 39       		.uleb128 0x39
 10750 03bb 21       		.uleb128 0x21
 10751 03bc 08       		.sleb128 8
 10752 03bd 27       		.uleb128 0x27
 10753 03be 19       		.uleb128 0x19
 10754 03bf 3C       		.uleb128 0x3c
 10755 03c0 19       		.uleb128 0x19
 10756 03c1 00       		.byte	0
 10757 03c2 00       		.byte	0
 10758 03c3 3D       		.uleb128 0x3d
 10759 03c4 2E       		.uleb128 0x2e
 10760 03c5 01       		.byte	0x1
 10761 03c6 3F       		.uleb128 0x3f
 10762 03c7 19       		.uleb128 0x19
 10763 03c8 03       		.uleb128 0x3
 10764 03c9 0E       		.uleb128 0xe
 10765 03ca 3A       		.uleb128 0x3a
 10766 03cb 21       		.uleb128 0x21
 10767 03cc 15       		.sleb128 21
 10768 03cd 3B       		.uleb128 0x3b
 10769 03ce 0B       		.uleb128 0xb
 10770 03cf 39       		.uleb128 0x39
 10771 03d0 0B       		.uleb128 0xb
 10772 03d1 27       		.uleb128 0x27
ARM GAS  C:\Users\DEVELO~1\AppData\Local\Temp\ccUBlV4P.s 			page 190


 10773 03d2 19       		.uleb128 0x19
 10774 03d3 49       		.uleb128 0x49
 10775 03d4 13       		.uleb128 0x13
 10776 03d5 3C       		.uleb128 0x3c
 10777 03d6 19       		.uleb128 0x19
 10778 03d7 01       		.uleb128 0x1
 10779 03d8 13       		.uleb128 0x13
 10780 03d9 00       		.byte	0
 10781 03da 00       		.byte	0
 10782 03db 3E       		.uleb128 0x3e
 10783 03dc 2E       		.uleb128 0x2e
 10784 03dd 01       		.byte	0x1
 10785 03de 3F       		.uleb128 0x3f
 10786 03df 19       		.uleb128 0x19
 10787 03e0 03       		.uleb128 0x3
 10788 03e1 0E       		.uleb128 0xe
 10789 03e2 3A       		.uleb128 0x3a
 10790 03e3 21       		.uleb128 0x21
 10791 03e4 15       		.sleb128 21
 10792 03e5 3B       		.uleb128 0x3b
 10793 03e6 0B       		.uleb128 0xb
 10794 03e7 39       		.uleb128 0x39
 10795 03e8 21       		.uleb128 0x21
 10796 03e9 08       		.sleb128 8
 10797 03ea 27       		.uleb128 0x27
 10798 03eb 19       		.uleb128 0x19
 10799 03ec 3C       		.uleb128 0x3c
 10800 03ed 19       		.uleb128 0x19
 10801 03ee 01       		.uleb128 0x1
 10802 03ef 13       		.uleb128 0x13
 10803 03f0 00       		.byte	0
 10804 03f1 00       		.byte	0
 10805 03f2 3F       		.uleb128 0x3f
 10806 03f3 0B       		.uleb128 0xb
 10807 03f4 01       		.byte	0x1
 10808 03f5 31       		.uleb128 0x31
 10809 03f6 13       		.uleb128 0x13
 10810 03f7 11       		.uleb128 0x11
 10811 03f8 01       		.uleb128 0x1
 10812 03f9 12       		.uleb128 0x12
 10813 03fa 06       		.uleb128 0x6
 10814 03fb 00       		.byte	0
 10815 03fc 00       		.byte	0
 10816 03fd 40       		.uleb128 0x40
 10817 03fe 1D       		.uleb128 0x1d
 10818 03ff 01       		.byte	0x1
 10819 0400 31       		.uleb128 0x31
 10820 0401 13       		.uleb128 0x13
 10821 0402 52       		.uleb128 0x52
 10822 0403 01       		.uleb128 0x1
 10823 0404 B842     		.uleb128 0x2138
 10824 0406 0B       		.uleb128 0xb
 10825 0407 11       		.uleb128 0x11
 10826 0408 01       		.uleb128 0x1
 10827 0409 12       		.uleb128 0x12
 10828 040a 06       		.uleb128 0x6
 10829 040b 58       		.uleb128 0x58
ARM GAS  C:\Users\DEVELO~1\AppData\Local\Temp\ccUBlV4P.s 			page 191


 10830 040c 21       		.uleb128 0x21
 10831 040d 07       		.sleb128 7
 10832 040e 59       		.uleb128 0x59
 10833 040f 0B       		.uleb128 0xb
 10834 0410 57       		.uleb128 0x57
 10835 0411 21       		.uleb128 0x21
 10836 0412 0A       		.sleb128 10
 10837 0413 00       		.byte	0
 10838 0414 00       		.byte	0
 10839 0415 41       		.uleb128 0x41
 10840 0416 48       		.uleb128 0x48
 10841 0417 01       		.byte	0x1
 10842 0418 7D       		.uleb128 0x7d
 10843 0419 01       		.uleb128 0x1
 10844 041a 8201     		.uleb128 0x82
 10845 041c 19       		.uleb128 0x19
 10846 041d 7F       		.uleb128 0x7f
 10847 041e 13       		.uleb128 0x13
 10848 041f 01       		.uleb128 0x1
 10849 0420 13       		.uleb128 0x13
 10850 0421 00       		.byte	0
 10851 0422 00       		.byte	0
 10852 0423 42       		.uleb128 0x42
 10853 0424 2E       		.uleb128 0x2e
 10854 0425 01       		.byte	0x1
 10855 0426 3F       		.uleb128 0x3f
 10856 0427 19       		.uleb128 0x19
 10857 0428 03       		.uleb128 0x3
 10858 0429 0E       		.uleb128 0xe
 10859 042a 3A       		.uleb128 0x3a
 10860 042b 21       		.uleb128 0x21
 10861 042c 01       		.sleb128 1
 10862 042d 3B       		.uleb128 0x3b
 10863 042e 0B       		.uleb128 0xb
 10864 042f 39       		.uleb128 0x39
 10865 0430 21       		.uleb128 0x21
 10866 0431 0B       		.sleb128 11
 10867 0432 27       		.uleb128 0x27
 10868 0433 19       		.uleb128 0x19
 10869 0434 49       		.uleb128 0x49
 10870 0435 13       		.uleb128 0x13
 10871 0436 20       		.uleb128 0x20
 10872 0437 21       		.uleb128 0x21
 10873 0438 01       		.sleb128 1
 10874 0439 01       		.uleb128 0x1
 10875 043a 13       		.uleb128 0x13
 10876 043b 00       		.byte	0
 10877 043c 00       		.byte	0
 10878 043d 43       		.uleb128 0x43
 10879 043e 2E       		.uleb128 0x2e
 10880 043f 00       		.byte	0
 10881 0440 03       		.uleb128 0x3
 10882 0441 0E       		.uleb128 0xe
 10883 0442 3A       		.uleb128 0x3a
 10884 0443 0B       		.uleb128 0xb
 10885 0444 3B       		.uleb128 0x3b
 10886 0445 0B       		.uleb128 0xb
ARM GAS  C:\Users\DEVELO~1\AppData\Local\Temp\ccUBlV4P.s 			page 192


 10887 0446 39       		.uleb128 0x39
 10888 0447 21       		.uleb128 0x21
 10889 0448 19       		.sleb128 25
 10890 0449 27       		.uleb128 0x27
 10891 044a 19       		.uleb128 0x19
 10892 044b 49       		.uleb128 0x49
 10893 044c 13       		.uleb128 0x13
 10894 044d 20       		.uleb128 0x20
 10895 044e 21       		.uleb128 0x21
 10896 044f 03       		.sleb128 3
 10897 0450 00       		.byte	0
 10898 0451 00       		.byte	0
 10899 0452 44       		.uleb128 0x44
 10900 0453 2E       		.uleb128 0x2e
 10901 0454 01       		.byte	0x1
 10902 0455 03       		.uleb128 0x3
 10903 0456 0E       		.uleb128 0xe
 10904 0457 3A       		.uleb128 0x3a
 10905 0458 21       		.uleb128 0x21
 10906 0459 02       		.sleb128 2
 10907 045a 3B       		.uleb128 0x3b
 10908 045b 0B       		.uleb128 0xb
 10909 045c 39       		.uleb128 0x39
 10910 045d 21       		.uleb128 0x21
 10911 045e 14       		.sleb128 20
 10912 045f 27       		.uleb128 0x27
 10913 0460 19       		.uleb128 0x19
 10914 0461 20       		.uleb128 0x20
 10915 0462 21       		.uleb128 0x21
 10916 0463 03       		.sleb128 3
 10917 0464 01       		.uleb128 0x1
 10918 0465 13       		.uleb128 0x13
 10919 0466 00       		.byte	0
 10920 0467 00       		.byte	0
 10921 0468 45       		.uleb128 0x45
 10922 0469 11       		.uleb128 0x11
 10923 046a 01       		.byte	0x1
 10924 046b 25       		.uleb128 0x25
 10925 046c 0E       		.uleb128 0xe
 10926 046d 13       		.uleb128 0x13
 10927 046e 0B       		.uleb128 0xb
 10928 046f 03       		.uleb128 0x3
 10929 0470 0E       		.uleb128 0xe
 10930 0471 1B       		.uleb128 0x1b
 10931 0472 0E       		.uleb128 0xe
 10932 0473 55       		.uleb128 0x55
 10933 0474 17       		.uleb128 0x17
 10934 0475 11       		.uleb128 0x11
 10935 0476 01       		.uleb128 0x1
 10936 0477 10       		.uleb128 0x10
 10937 0478 17       		.uleb128 0x17
 10938 0479 00       		.byte	0
 10939 047a 00       		.byte	0
 10940 047b 46       		.uleb128 0x46
 10941 047c 24       		.uleb128 0x24
 10942 047d 00       		.byte	0
 10943 047e 0B       		.uleb128 0xb
ARM GAS  C:\Users\DEVELO~1\AppData\Local\Temp\ccUBlV4P.s 			page 193


 10944 047f 0B       		.uleb128 0xb
 10945 0480 3E       		.uleb128 0x3e
 10946 0481 0B       		.uleb128 0xb
 10947 0482 03       		.uleb128 0x3
 10948 0483 08       		.uleb128 0x8
 10949 0484 00       		.byte	0
 10950 0485 00       		.byte	0
 10951 0486 47       		.uleb128 0x47
 10952 0487 0F       		.uleb128 0xf
 10953 0488 00       		.byte	0
 10954 0489 0B       		.uleb128 0xb
 10955 048a 0B       		.uleb128 0xb
 10956 048b 00       		.byte	0
 10957 048c 00       		.byte	0
 10958 048d 48       		.uleb128 0x48
 10959 048e 13       		.uleb128 0x13
 10960 048f 01       		.byte	0x1
 10961 0490 03       		.uleb128 0x3
 10962 0491 0E       		.uleb128 0xe
 10963 0492 0B       		.uleb128 0xb
 10964 0493 05       		.uleb128 0x5
 10965 0494 3A       		.uleb128 0x3a
 10966 0495 0B       		.uleb128 0xb
 10967 0496 3B       		.uleb128 0x3b
 10968 0497 05       		.uleb128 0x5
 10969 0498 39       		.uleb128 0x39
 10970 0499 0B       		.uleb128 0xb
 10971 049a 01       		.uleb128 0x1
 10972 049b 13       		.uleb128 0x13
 10973 049c 00       		.byte	0
 10974 049d 00       		.byte	0
 10975 049e 49       		.uleb128 0x49
 10976 049f 13       		.uleb128 0x13
 10977 04a0 01       		.byte	0x1
 10978 04a1 0B       		.uleb128 0xb
 10979 04a2 05       		.uleb128 0x5
 10980 04a3 3A       		.uleb128 0x3a
 10981 04a4 0B       		.uleb128 0xb
 10982 04a5 3B       		.uleb128 0x3b
 10983 04a6 0B       		.uleb128 0xb
 10984 04a7 39       		.uleb128 0x39
 10985 04a8 0B       		.uleb128 0xb
 10986 04a9 01       		.uleb128 0x1
 10987 04aa 13       		.uleb128 0x13
 10988 04ab 00       		.byte	0
 10989 04ac 00       		.byte	0
 10990 04ad 4A       		.uleb128 0x4a
 10991 04ae 17       		.uleb128 0x17
 10992 04af 01       		.byte	0x1
 10993 04b0 0B       		.uleb128 0xb
 10994 04b1 0B       		.uleb128 0xb
 10995 04b2 3A       		.uleb128 0x3a
 10996 04b3 0B       		.uleb128 0xb
 10997 04b4 3B       		.uleb128 0x3b
 10998 04b5 05       		.uleb128 0x5
 10999 04b6 39       		.uleb128 0x39
 11000 04b7 0B       		.uleb128 0xb
ARM GAS  C:\Users\DEVELO~1\AppData\Local\Temp\ccUBlV4P.s 			page 194


 11001 04b8 01       		.uleb128 0x1
 11002 04b9 13       		.uleb128 0x13
 11003 04ba 00       		.byte	0
 11004 04bb 00       		.byte	0
 11005 04bc 4B       		.uleb128 0x4b
 11006 04bd 34       		.uleb128 0x34
 11007 04be 00       		.byte	0
 11008 04bf 03       		.uleb128 0x3
 11009 04c0 08       		.uleb128 0x8
 11010 04c1 3A       		.uleb128 0x3a
 11011 04c2 0B       		.uleb128 0xb
 11012 04c3 3B       		.uleb128 0x3b
 11013 04c4 05       		.uleb128 0x5
 11014 04c5 39       		.uleb128 0x39
 11015 04c6 0B       		.uleb128 0xb
 11016 04c7 49       		.uleb128 0x49
 11017 04c8 13       		.uleb128 0x13
 11018 04c9 3F       		.uleb128 0x3f
 11019 04ca 19       		.uleb128 0x19
 11020 04cb 3C       		.uleb128 0x3c
 11021 04cc 19       		.uleb128 0x19
 11022 04cd 00       		.byte	0
 11023 04ce 00       		.byte	0
 11024 04cf 4C       		.uleb128 0x4c
 11025 04d0 2E       		.uleb128 0x2e
 11026 04d1 00       		.byte	0
 11027 04d2 3F       		.uleb128 0x3f
 11028 04d3 19       		.uleb128 0x19
 11029 04d4 03       		.uleb128 0x3
 11030 04d5 0E       		.uleb128 0xe
 11031 04d6 3A       		.uleb128 0x3a
 11032 04d7 0B       		.uleb128 0xb
 11033 04d8 3B       		.uleb128 0x3b
 11034 04d9 0B       		.uleb128 0xb
 11035 04da 39       		.uleb128 0x39
 11036 04db 0B       		.uleb128 0xb
 11037 04dc 27       		.uleb128 0x27
 11038 04dd 19       		.uleb128 0x19
 11039 04de 49       		.uleb128 0x49
 11040 04df 13       		.uleb128 0x13
 11041 04e0 3C       		.uleb128 0x3c
 11042 04e1 19       		.uleb128 0x19
 11043 04e2 00       		.byte	0
 11044 04e3 00       		.byte	0
 11045 04e4 4D       		.uleb128 0x4d
 11046 04e5 2E       		.uleb128 0x2e
 11047 04e6 00       		.byte	0
 11048 04e7 3F       		.uleb128 0x3f
 11049 04e8 19       		.uleb128 0x19
 11050 04e9 03       		.uleb128 0x3
 11051 04ea 0E       		.uleb128 0xe
 11052 04eb 3A       		.uleb128 0x3a
 11053 04ec 0B       		.uleb128 0xb
 11054 04ed 3B       		.uleb128 0x3b
 11055 04ee 05       		.uleb128 0x5
 11056 04ef 39       		.uleb128 0x39
 11057 04f0 0B       		.uleb128 0xb
ARM GAS  C:\Users\DEVELO~1\AppData\Local\Temp\ccUBlV4P.s 			page 195


 11058 04f1 27       		.uleb128 0x27
 11059 04f2 19       		.uleb128 0x19
 11060 04f3 3C       		.uleb128 0x3c
 11061 04f4 19       		.uleb128 0x19
 11062 04f5 00       		.byte	0
 11063 04f6 00       		.byte	0
 11064 04f7 4E       		.uleb128 0x4e
 11065 04f8 2E       		.uleb128 0x2e
 11066 04f9 01       		.byte	0x1
 11067 04fa 3F       		.uleb128 0x3f
 11068 04fb 19       		.uleb128 0x19
 11069 04fc 03       		.uleb128 0x3
 11070 04fd 0E       		.uleb128 0xe
 11071 04fe 3A       		.uleb128 0x3a
 11072 04ff 0B       		.uleb128 0xb
 11073 0500 3B       		.uleb128 0x3b
 11074 0501 05       		.uleb128 0x5
 11075 0502 39       		.uleb128 0x39
 11076 0503 0B       		.uleb128 0xb
 11077 0504 27       		.uleb128 0x27
 11078 0505 19       		.uleb128 0x19
 11079 0506 01       		.uleb128 0x1
 11080 0507 13       		.uleb128 0x13
 11081 0508 00       		.byte	0
 11082 0509 00       		.byte	0
 11083 050a 4F       		.uleb128 0x4f
 11084 050b 0B       		.uleb128 0xb
 11085 050c 01       		.byte	0x1
 11086 050d 00       		.byte	0
 11087 050e 00       		.byte	0
 11088 050f 50       		.uleb128 0x50
 11089 0510 0B       		.uleb128 0xb
 11090 0511 01       		.byte	0x1
 11091 0512 11       		.uleb128 0x11
 11092 0513 01       		.uleb128 0x1
 11093 0514 12       		.uleb128 0x12
 11094 0515 06       		.uleb128 0x6
 11095 0516 00       		.byte	0
 11096 0517 00       		.byte	0
 11097 0518 51       		.uleb128 0x51
 11098 0519 48       		.uleb128 0x48
 11099 051a 01       		.byte	0x1
 11100 051b 7D       		.uleb128 0x7d
 11101 051c 01       		.uleb128 0x1
 11102 051d 00       		.byte	0
 11103 051e 00       		.byte	0
 11104 051f 52       		.uleb128 0x52
 11105 0520 2E       		.uleb128 0x2e
 11106 0521 01       		.byte	0x1
 11107 0522 3F       		.uleb128 0x3f
 11108 0523 19       		.uleb128 0x19
 11109 0524 03       		.uleb128 0x3
 11110 0525 0E       		.uleb128 0xe
 11111 0526 3A       		.uleb128 0x3a
 11112 0527 0B       		.uleb128 0xb
 11113 0528 3B       		.uleb128 0x3b
 11114 0529 05       		.uleb128 0x5
ARM GAS  C:\Users\DEVELO~1\AppData\Local\Temp\ccUBlV4P.s 			page 196


 11115 052a 39       		.uleb128 0x39
 11116 052b 0B       		.uleb128 0xb
 11117 052c 27       		.uleb128 0x27
 11118 052d 19       		.uleb128 0x19
 11119 052e 49       		.uleb128 0x49
 11120 052f 13       		.uleb128 0x13
 11121 0530 20       		.uleb128 0x20
 11122 0531 0B       		.uleb128 0xb
 11123 0532 01       		.uleb128 0x1
 11124 0533 13       		.uleb128 0x13
 11125 0534 00       		.byte	0
 11126 0535 00       		.byte	0
 11127 0536 53       		.uleb128 0x53
 11128 0537 2E       		.uleb128 0x2e
 11129 0538 01       		.byte	0x1
 11130 0539 3F       		.uleb128 0x3f
 11131 053a 19       		.uleb128 0x19
 11132 053b 03       		.uleb128 0x3
 11133 053c 0E       		.uleb128 0xe
 11134 053d 3A       		.uleb128 0x3a
 11135 053e 0B       		.uleb128 0xb
 11136 053f 3B       		.uleb128 0x3b
 11137 0540 0B       		.uleb128 0xb
 11138 0541 39       		.uleb128 0x39
 11139 0542 0B       		.uleb128 0xb
 11140 0543 27       		.uleb128 0x27
 11141 0544 19       		.uleb128 0x19
 11142 0545 20       		.uleb128 0x20
 11143 0546 0B       		.uleb128 0xb
 11144 0547 01       		.uleb128 0x1
 11145 0548 13       		.uleb128 0x13
 11146 0549 00       		.byte	0
 11147 054a 00       		.byte	0
 11148 054b 54       		.uleb128 0x54
 11149 054c 2E       		.uleb128 0x2e
 11150 054d 00       		.byte	0
 11151 054e 03       		.uleb128 0x3
 11152 054f 0E       		.uleb128 0xe
 11153 0550 3A       		.uleb128 0x3a
 11154 0551 0B       		.uleb128 0xb
 11155 0552 3B       		.uleb128 0x3b
 11156 0553 05       		.uleb128 0x5
 11157 0554 39       		.uleb128 0x39
 11158 0555 0B       		.uleb128 0xb
 11159 0556 27       		.uleb128 0x27
 11160 0557 19       		.uleb128 0x19
 11161 0558 49       		.uleb128 0x49
 11162 0559 13       		.uleb128 0x13
 11163 055a 20       		.uleb128 0x20
 11164 055b 0B       		.uleb128 0xb
 11165 055c 00       		.byte	0
 11166 055d 00       		.byte	0
 11167 055e 55       		.uleb128 0x55
 11168 055f 2E       		.uleb128 0x2e
 11169 0560 01       		.byte	0x1
 11170 0561 03       		.uleb128 0x3
 11171 0562 0E       		.uleb128 0xe
ARM GAS  C:\Users\DEVELO~1\AppData\Local\Temp\ccUBlV4P.s 			page 197


 11172 0563 3A       		.uleb128 0x3a
 11173 0564 0B       		.uleb128 0xb
 11174 0565 3B       		.uleb128 0x3b
 11175 0566 0B       		.uleb128 0xb
 11176 0567 39       		.uleb128 0x39
 11177 0568 0B       		.uleb128 0xb
 11178 0569 27       		.uleb128 0x27
 11179 056a 19       		.uleb128 0x19
 11180 056b 49       		.uleb128 0x49
 11181 056c 13       		.uleb128 0x13
 11182 056d 20       		.uleb128 0x20
 11183 056e 0B       		.uleb128 0xb
 11184 056f 01       		.uleb128 0x1
 11185 0570 13       		.uleb128 0x13
 11186 0571 00       		.byte	0
 11187 0572 00       		.byte	0
 11188 0573 56       		.uleb128 0x56
 11189 0574 48       		.uleb128 0x48
 11190 0575 01       		.byte	0x1
 11191 0576 7D       		.uleb128 0x7d
 11192 0577 01       		.uleb128 0x1
 11193 0578 8201     		.uleb128 0x82
 11194 057a 19       		.uleb128 0x19
 11195 057b 00       		.byte	0
 11196 057c 00       		.byte	0
 11197 057d 57       		.uleb128 0x57
 11198 057e 2E       		.uleb128 0x2e
 11199 057f 01       		.byte	0x1
 11200 0580 31       		.uleb128 0x31
 11201 0581 13       		.uleb128 0x13
 11202 0582 11       		.uleb128 0x11
 11203 0583 01       		.uleb128 0x1
 11204 0584 12       		.uleb128 0x12
 11205 0585 06       		.uleb128 0x6
 11206 0586 40       		.uleb128 0x40
 11207 0587 18       		.uleb128 0x18
 11208 0588 7A       		.uleb128 0x7a
 11209 0589 19       		.uleb128 0x19
 11210 058a 00       		.byte	0
 11211 058b 00       		.byte	0
 11212 058c 00       		.byte	0
 11213              		.section	.debug_loclists,"",%progbits
 11214 0000 5C0D0000 		.4byte	.Ldebug_loc3-.Ldebug_loc2
 11215              	.Ldebug_loc2:
 11216 0004 0500     		.2byte	0x5
 11217 0006 04       		.byte	0x4
 11218 0007 00       		.byte	0
 11219 0008 00000000 		.4byte	0
 11220              	.Ldebug_loc0:
 11221              	.LVUS226:
 11222 000c 00       		.uleb128 0
 11223 000d 00       		.uleb128 .LVU1556
 11224 000e 00       		.uleb128 .LVU1556
 11225 000f 00       		.uleb128 0
 11226              	.LLST226:
 11227 0010 06       		.byte	0x6
 11228 0011 00000000 		.4byte	.LVL210
ARM GAS  C:\Users\DEVELO~1\AppData\Local\Temp\ccUBlV4P.s 			page 198


 11229 0015 04       		.byte	0x4
 11230 0016 00       		.uleb128 .LVL210-.LVL210
 11231 0017 06       		.uleb128 .LVL212-.LVL210
 11232 0018 01       		.uleb128 0x1
 11233 0019 50       		.byte	0x50
 11234 001a 04       		.byte	0x4
 11235 001b 06       		.uleb128 .LVL212-.LVL210
 11236 001c 20       		.uleb128 .LFE384-.LVL210
 11237 001d 01       		.uleb128 0x1
 11238 001e 54       		.byte	0x54
 11239 001f 00       		.byte	0
 11240              	.LVUS227:
 11241 0020 00       		.uleb128 0
 11242 0021 00       		.uleb128 .LVU1558
 11243 0022 00       		.uleb128 .LVU1558
 11244 0023 00       		.uleb128 .LVU1588
 11245 0024 00       		.uleb128 .LVU1588
 11246 0025 00       		.uleb128 0
 11247              	.LLST227:
 11248 0026 06       		.byte	0x6
 11249 0027 00000000 		.4byte	.LVL210
 11250 002b 04       		.byte	0x4
 11251 002c 00       		.uleb128 .LVL210-.LVL210
 11252 002d 0C       		.uleb128 .LVL213-.LVL210
 11253 002e 01       		.uleb128 0x1
 11254 002f 51       		.byte	0x51
 11255 0030 04       		.byte	0x4
 11256 0031 0C       		.uleb128 .LVL213-.LVL210
 11257 0032 1E       		.uleb128 .LVL217-.LVL210
 11258 0033 01       		.uleb128 0x1
 11259 0034 55       		.byte	0x55
 11260 0035 04       		.byte	0x4
 11261 0036 1E       		.uleb128 .LVL217-.LVL210
 11262 0037 20       		.uleb128 .LFE384-.LVL210
 11263 0038 04       		.uleb128 0x4
 11264 0039 A3       		.byte	0xa3
 11265 003a 01       		.uleb128 0x1
 11266 003b 51       		.byte	0x51
 11267 003c 9F       		.byte	0x9f
 11268 003d 00       		.byte	0
 11269              	.LVUS229:
 11270 003e 00       		.uleb128 .LVU1553
 11271 003f 00       		.uleb128 .LVU1556
 11272 0040 02       		.uleb128 .LVU1583
 11273 0041 00       		.uleb128 .LVU1586
 11274              	.LLST229:
 11275 0042 06       		.byte	0x6
 11276 0043 04000000 		.4byte	.LVL211
 11277 0047 04       		.byte	0x4
 11278 0048 00       		.uleb128 .LVL211-.LVL211
 11279 0049 02       		.uleb128 .LVL212-.LVL211
 11280 004a 01       		.uleb128 0x1
 11281 004b 50       		.byte	0x50
 11282 004c 04       		.byte	0x4
 11283 004d 14       		.uleb128 .LVL215-.LVL211
 11284 004e 16       		.uleb128 .LVL216-.LVL211
 11285 004f 01       		.uleb128 0x1
ARM GAS  C:\Users\DEVELO~1\AppData\Local\Temp\ccUBlV4P.s 			page 199


 11286 0050 54       		.byte	0x54
 11287 0051 00       		.byte	0
 11288              	.LVUS230:
 11289 0052 01       		.uleb128 .LVU1559
 11290 0053 00       		.uleb128 .LVU1581
 11291              	.LLST230:
 11292 0054 08       		.byte	0x8
 11293 0055 0C000000 		.4byte	.LVL213
 11294 0059 0C       		.uleb128 .LVL215-.LVL213
 11295 005a 01       		.uleb128 0x1
 11296 005b 55       		.byte	0x55
 11297 005c 00       		.byte	0
 11298              	.LVUS231:
 11299 005d 01       		.uleb128 .LVU1559
 11300 005e 00       		.uleb128 .LVU1581
 11301              	.LLST231:
 11302 005f 08       		.byte	0x8
 11303 0060 0C000000 		.4byte	.LVL213
 11304 0064 0C       		.uleb128 .LVL215-.LVL213
 11305 0065 01       		.uleb128 0x1
 11306 0066 54       		.byte	0x54
 11307 0067 00       		.byte	0
 11308              	.LVUS232:
 11309 0068 01       		.uleb128 .LVU1573
 11310 0069 00       		.uleb128 .LVU1581
 11311              	.LLST232:
 11312 006a 08       		.byte	0x8
 11313 006b 12000000 		.4byte	.LVL214
 11314 006f 05       		.uleb128 .LVL215-1-.LVL214
 11315 0070 01       		.uleb128 0x1
 11316 0071 50       		.byte	0x50
 11317 0072 00       		.byte	0
 11318              	.LVUS233:
 11319 0073 07       		.uleb128 .LVU1565
 11320 0074 01       		.uleb128 .LVU1573
 11321              	.LLST233:
 11322 0075 08       		.byte	0x8
 11323 0076 0C000000 		.4byte	.LVL213
 11324 007a 06       		.uleb128 .LVL214-.LVL213
 11325 007b 01       		.uleb128 0x1
 11326 007c 54       		.byte	0x54
 11327 007d 00       		.byte	0
 11328              	.LVUS234:
 11329 007e 09       		.uleb128 .LVU1567
 11330 007f 01       		.uleb128 .LVU1573
 11331              	.LLST234:
 11332 0080 08       		.byte	0x8
 11333 0081 0C000000 		.4byte	.LVL213
 11334 0085 06       		.uleb128 .LVL214-.LVL213
 11335 0086 01       		.uleb128 0x1
 11336 0087 50       		.byte	0x50
 11337 0088 00       		.byte	0
 11338              	.LVUS218:
 11339 0089 00       		.uleb128 0
 11340 008a 00       		.uleb128 .LVU1521
 11341 008b 00       		.uleb128 .LVU1521
 11342 008c 00       		.uleb128 .LVU1546
ARM GAS  C:\Users\DEVELO~1\AppData\Local\Temp\ccUBlV4P.s 			page 200


 11343 008d 00       		.uleb128 .LVU1546
 11344 008e 00       		.uleb128 .LVU1546
 11345 008f 00       		.uleb128 .LVU1546
 11346 0090 00       		.uleb128 0
 11347              	.LLST218:
 11348 0091 06       		.byte	0x6
 11349 0092 00000000 		.4byte	.LVL204
 11350 0096 04       		.byte	0x4
 11351 0097 00       		.uleb128 .LVL204-.LVL204
 11352 0098 04       		.uleb128 .LVL206-.LVL204
 11353 0099 01       		.uleb128 0x1
 11354 009a 50       		.byte	0x50
 11355 009b 04       		.byte	0x4
 11356 009c 04       		.uleb128 .LVL206-.LVL204
 11357 009d 13       		.uleb128 .LVL209-1-.LVL204
 11358 009e 01       		.uleb128 0x1
 11359 009f 53       		.byte	0x53
 11360 00a0 04       		.byte	0x4
 11361 00a1 13       		.uleb128 .LVL209-1-.LVL204
 11362 00a2 14       		.uleb128 .LVL209-.LVL204
 11363 00a3 04       		.uleb128 0x4
 11364 00a4 A3       		.byte	0xa3
 11365 00a5 01       		.uleb128 0x1
 11366 00a6 50       		.byte	0x50
 11367 00a7 9F       		.byte	0x9f
 11368 00a8 04       		.byte	0x4
 11369 00a9 14       		.uleb128 .LVL209-.LVL204
 11370 00aa 16       		.uleb128 .LFE383-.LVL204
 11371 00ab 01       		.uleb128 0x1
 11372 00ac 53       		.byte	0x53
 11373 00ad 00       		.byte	0
 11374              	.LVUS219:
 11375 00ae 00       		.uleb128 0
 11376 00af 00       		.uleb128 .LVU1546
 11377 00b0 00       		.uleb128 .LVU1546
 11378 00b1 00       		.uleb128 .LVU1546
 11379 00b2 00       		.uleb128 .LVU1546
 11380 00b3 00       		.uleb128 0
 11381              	.LLST219:
 11382 00b4 06       		.byte	0x6
 11383 00b5 00000000 		.4byte	.LVL204
 11384 00b9 04       		.byte	0x4
 11385 00ba 00       		.uleb128 .LVL204-.LVL204
 11386 00bb 13       		.uleb128 .LVL209-1-.LVL204
 11387 00bc 01       		.uleb128 0x1
 11388 00bd 51       		.byte	0x51
 11389 00be 04       		.byte	0x4
 11390 00bf 13       		.uleb128 .LVL209-1-.LVL204
 11391 00c0 14       		.uleb128 .LVL209-.LVL204
 11392 00c1 04       		.uleb128 0x4
 11393 00c2 A3       		.byte	0xa3
 11394 00c3 01       		.uleb128 0x1
 11395 00c4 51       		.byte	0x51
 11396 00c5 9F       		.byte	0x9f
 11397 00c6 04       		.byte	0x4
 11398 00c7 14       		.uleb128 .LVL209-.LVL204
 11399 00c8 16       		.uleb128 .LFE383-.LVL204
ARM GAS  C:\Users\DEVELO~1\AppData\Local\Temp\ccUBlV4P.s 			page 201


 11400 00c9 01       		.uleb128 0x1
 11401 00ca 51       		.byte	0x51
 11402 00cb 00       		.byte	0
 11403              	.LVUS220:
 11404 00cc 00       		.uleb128 .LVU1518
 11405 00cd 00       		.uleb128 .LVU1521
 11406              	.LLST220:
 11407 00ce 08       		.byte	0x8
 11408 00cf 02000000 		.4byte	.LVL205
 11409 00d3 02       		.uleb128 .LVL206-.LVL205
 11410 00d4 01       		.uleb128 0x1
 11411 00d5 50       		.byte	0x50
 11412 00d6 00       		.byte	0
 11413              	.LVUS221:
 11414 00d7 01       		.uleb128 .LVU1524
 11415 00d8 00       		.uleb128 .LVU1546
 11416 00d9 00       		.uleb128 .LVU1546
 11417 00da 00       		.uleb128 .LVU1546
 11418              	.LLST221:
 11419 00db 06       		.byte	0x6
 11420 00dc 08000000 		.4byte	.LVL207
 11421 00e0 04       		.byte	0x4
 11422 00e1 00       		.uleb128 .LVL207-.LVL207
 11423 00e2 0B       		.uleb128 .LVL209-1-.LVL207
 11424 00e3 01       		.uleb128 0x1
 11425 00e4 51       		.byte	0x51
 11426 00e5 04       		.byte	0x4
 11427 00e6 0B       		.uleb128 .LVL209-1-.LVL207
 11428 00e7 0C       		.uleb128 .LVL209-.LVL207
 11429 00e8 04       		.uleb128 0x4
 11430 00e9 A3       		.byte	0xa3
 11431 00ea 01       		.uleb128 0x1
 11432 00eb 51       		.byte	0x51
 11433 00ec 9F       		.byte	0x9f
 11434 00ed 00       		.byte	0
 11435              	.LVUS222:
 11436 00ee 01       		.uleb128 .LVU1524
 11437 00ef 00       		.uleb128 .LVU1546
 11438 00f0 00       		.uleb128 .LVU1546
 11439 00f1 00       		.uleb128 .LVU1546
 11440              	.LLST222:
 11441 00f2 06       		.byte	0x6
 11442 00f3 08000000 		.4byte	.LVL207
 11443 00f7 04       		.byte	0x4
 11444 00f8 00       		.uleb128 .LVL207-.LVL207
 11445 00f9 0B       		.uleb128 .LVL209-1-.LVL207
 11446 00fa 01       		.uleb128 0x1
 11447 00fb 53       		.byte	0x53
 11448 00fc 04       		.byte	0x4
 11449 00fd 0B       		.uleb128 .LVL209-1-.LVL207
 11450 00fe 0C       		.uleb128 .LVL209-.LVL207
 11451 00ff 04       		.uleb128 0x4
 11452 0100 A3       		.byte	0xa3
 11453 0101 01       		.uleb128 0x1
 11454 0102 50       		.byte	0x50
 11455 0103 9F       		.byte	0x9f
 11456 0104 00       		.byte	0
ARM GAS  C:\Users\DEVELO~1\AppData\Local\Temp\ccUBlV4P.s 			page 202


 11457              	.LVUS223:
 11458 0105 01       		.uleb128 .LVU1538
 11459 0106 00       		.uleb128 .LVU1546
 11460              	.LLST223:
 11461 0107 08       		.byte	0x8
 11462 0108 0E000000 		.4byte	.LVL208
 11463 010c 05       		.uleb128 .LVL209-1-.LVL208
 11464 010d 01       		.uleb128 0x1
 11465 010e 50       		.byte	0x50
 11466 010f 00       		.byte	0
 11467              	.LVUS224:
 11468 0110 07       		.uleb128 .LVU1530
 11469 0111 01       		.uleb128 .LVU1538
 11470              	.LLST224:
 11471 0112 08       		.byte	0x8
 11472 0113 08000000 		.4byte	.LVL207
 11473 0117 06       		.uleb128 .LVL208-.LVL207
 11474 0118 01       		.uleb128 0x1
 11475 0119 53       		.byte	0x53
 11476 011a 00       		.byte	0
 11477              	.LVUS225:
 11478 011b 09       		.uleb128 .LVU1532
 11479 011c 01       		.uleb128 .LVU1538
 11480              	.LLST225:
 11481 011d 08       		.byte	0x8
 11482 011e 08000000 		.4byte	.LVL207
 11483 0122 06       		.uleb128 .LVL208-.LVL207
 11484 0123 01       		.uleb128 0x1
 11485 0124 50       		.byte	0x50
 11486 0125 00       		.byte	0
 11487              	.LVUS212:
 11488 0126 00       		.uleb128 0
 11489 0127 00       		.uleb128 .LVU1504
 11490 0128 00       		.uleb128 .LVU1504
 11491 0129 00       		.uleb128 .LVU1513
 11492 012a 00       		.uleb128 .LVU1513
 11493 012b 00       		.uleb128 .LVU1513
 11494 012c 00       		.uleb128 .LVU1513
 11495 012d 00       		.uleb128 .LVU1514
 11496 012e 00       		.uleb128 .LVU1514
 11497 012f 00       		.uleb128 0
 11498              	.LLST212:
 11499 0130 06       		.byte	0x6
 11500 0131 00000000 		.4byte	.LVL197
 11501 0135 04       		.byte	0x4
 11502 0136 00       		.uleb128 .LVL197-.LVL197
 11503 0137 10       		.uleb128 .LVL200-.LVL197
 11504 0138 01       		.uleb128 0x1
 11505 0139 50       		.byte	0x50
 11506 013a 04       		.byte	0x4
 11507 013b 10       		.uleb128 .LVL200-.LVL197
 11508 013c 1B       		.uleb128 .LVL202-1-.LVL197
 11509 013d 01       		.uleb128 0x1
 11510 013e 53       		.byte	0x53
 11511 013f 04       		.byte	0x4
 11512 0140 1B       		.uleb128 .LVL202-1-.LVL197
 11513 0141 1C       		.uleb128 .LVL202-.LVL197
ARM GAS  C:\Users\DEVELO~1\AppData\Local\Temp\ccUBlV4P.s 			page 203


 11514 0142 04       		.uleb128 0x4
 11515 0143 A3       		.byte	0xa3
 11516 0144 01       		.uleb128 0x1
 11517 0145 50       		.byte	0x50
 11518 0146 9F       		.byte	0x9f
 11519 0147 04       		.byte	0x4
 11520 0148 1C       		.uleb128 .LVL202-.LVL197
 11521 0149 20       		.uleb128 .LVL203-.LVL197
 11522 014a 01       		.uleb128 0x1
 11523 014b 50       		.byte	0x50
 11524 014c 04       		.byte	0x4
 11525 014d 20       		.uleb128 .LVL203-.LVL197
 11526 014e 28       		.uleb128 .LFE382-.LVL197
 11527 014f 04       		.uleb128 0x4
 11528 0150 A3       		.byte	0xa3
 11529 0151 01       		.uleb128 0x1
 11530 0152 50       		.byte	0x50
 11531 0153 9F       		.byte	0x9f
 11532 0154 00       		.byte	0
 11533              	.LVUS213:
 11534 0155 00       		.uleb128 0
 11535 0156 00       		.uleb128 .LVU1513
 11536 0157 00       		.uleb128 .LVU1513
 11537 0158 00       		.uleb128 .LVU1513
 11538 0159 00       		.uleb128 .LVU1513
 11539 015a 00       		.uleb128 0
 11540              	.LLST213:
 11541 015b 06       		.byte	0x6
 11542 015c 00000000 		.4byte	.LVL197
 11543 0160 04       		.byte	0x4
 11544 0161 00       		.uleb128 .LVL197-.LVL197
 11545 0162 1B       		.uleb128 .LVL202-1-.LVL197
 11546 0163 01       		.uleb128 0x1
 11547 0164 51       		.byte	0x51
 11548 0165 04       		.byte	0x4
 11549 0166 1B       		.uleb128 .LVL202-1-.LVL197
 11550 0167 1C       		.uleb128 .LVL202-.LVL197
 11551 0168 04       		.uleb128 0x4
 11552 0169 A3       		.byte	0xa3
 11553 016a 01       		.uleb128 0x1
 11554 016b 51       		.byte	0x51
 11555 016c 9F       		.byte	0x9f
 11556 016d 04       		.byte	0x4
 11557 016e 1C       		.uleb128 .LVL202-.LVL197
 11558 016f 28       		.uleb128 .LFE382-.LVL197
 11559 0170 01       		.uleb128 0x1
 11560 0171 51       		.byte	0x51
 11561 0172 00       		.byte	0
 11562              	.LVUS214:
 11563 0173 00       		.uleb128 .LVU1493
 11564 0174 00       		.uleb128 .LVU1513
 11565 0175 00       		.uleb128 .LVU1513
 11566 0176 00       		.uleb128 0
 11567              	.LLST214:
 11568 0177 06       		.byte	0x6
 11569 0178 04000000 		.4byte	.LVL198
 11570 017c 04       		.byte	0x4
ARM GAS  C:\Users\DEVELO~1\AppData\Local\Temp\ccUBlV4P.s 			page 204


 11571 017d 00       		.uleb128 .LVL198-.LVL198
 11572 017e 17       		.uleb128 .LVL202-1-.LVL198
 11573 017f 01       		.uleb128 0x1
 11574 0180 52       		.byte	0x52
 11575 0181 04       		.byte	0x4
 11576 0182 18       		.uleb128 .LVL202-.LVL198
 11577 0183 24       		.uleb128 .LFE382-.LVL198
 11578 0184 01       		.uleb128 0x1
 11579 0185 52       		.byte	0x52
 11580 0186 00       		.byte	0
 11581              	.LVUS216:
 11582 0187 01       		.uleb128 .LVU1497
 11583 0188 00       		.uleb128 .LVU1510
 11584              	.LLST216:
 11585 0189 08       		.byte	0x8
 11586 018a 08000000 		.4byte	.LVL199
 11587 018e 10       		.uleb128 .LVL201-.LVL199
 11588 018f 01       		.uleb128 0x1
 11589 0190 52       		.byte	0x52
 11590 0191 00       		.byte	0
 11591              	.LVUS217:
 11592 0192 01       		.uleb128 .LVU1497
 11593 0193 00       		.uleb128 .LVU1504
 11594 0194 00       		.uleb128 .LVU1504
 11595 0195 00       		.uleb128 .LVU1510
 11596              	.LLST217:
 11597 0196 06       		.byte	0x6
 11598 0197 08000000 		.4byte	.LVL199
 11599 019b 04       		.byte	0x4
 11600 019c 00       		.uleb128 .LVL199-.LVL199
 11601 019d 08       		.uleb128 .LVL200-.LVL199
 11602 019e 01       		.uleb128 0x1
 11603 019f 50       		.byte	0x50
 11604 01a0 04       		.byte	0x4
 11605 01a1 08       		.uleb128 .LVL200-.LVL199
 11606 01a2 10       		.uleb128 .LVL201-.LVL199
 11607 01a3 01       		.uleb128 0x1
 11608 01a4 53       		.byte	0x53
 11609 01a5 00       		.byte	0
 11610              	.LVUS211:
 11611 01a6 05       		.uleb128 .LVU1483
 11612 01a7 00       		.uleb128 .LVU1486
 11613              	.LLST211:
 11614 01a8 08       		.byte	0x8
 11615 01a9 00000000 		.4byte	.LVL195
 11616 01ad 04       		.uleb128 .LVL196-.LVL195
 11617 01ae 01       		.uleb128 0x1
 11618 01af 50       		.byte	0x50
 11619 01b0 00       		.byte	0
 11620              	.LVUS203:
 11621 01b1 00       		.uleb128 0
 11622 01b2 00       		.uleb128 .LVU1455
 11623 01b3 00       		.uleb128 .LVU1455
 11624 01b4 00       		.uleb128 .LVU1463
 11625 01b5 00       		.uleb128 .LVU1463
 11626 01b6 00       		.uleb128 0
 11627              	.LLST203:
ARM GAS  C:\Users\DEVELO~1\AppData\Local\Temp\ccUBlV4P.s 			page 205


 11628 01b7 06       		.byte	0x6
 11629 01b8 00000000 		.4byte	.LVL188
 11630 01bc 04       		.byte	0x4
 11631 01bd 00       		.uleb128 .LVL188-.LVL188
 11632 01be 0C       		.uleb128 .LVL191-.LVL188
 11633 01bf 01       		.uleb128 0x1
 11634 01c0 50       		.byte	0x50
 11635 01c1 04       		.byte	0x4
 11636 01c2 0C       		.uleb128 .LVL191-.LVL188
 11637 01c3 15       		.uleb128 .LVL193-1-.LVL188
 11638 01c4 01       		.uleb128 0x1
 11639 01c5 53       		.byte	0x53
 11640 01c6 04       		.byte	0x4
 11641 01c7 15       		.uleb128 .LVL193-1-.LVL188
 11642 01c8 1E       		.uleb128 .LFE379-.LVL188
 11643 01c9 04       		.uleb128 0x4
 11644 01ca A3       		.byte	0xa3
 11645 01cb 01       		.uleb128 0x1
 11646 01cc 50       		.byte	0x50
 11647 01cd 9F       		.byte	0x9f
 11648 01ce 00       		.byte	0
 11649              	.LVUS204:
 11650 01cf 00       		.uleb128 0
 11651 01d0 00       		.uleb128 .LVU1463
 11652 01d1 00       		.uleb128 .LVU1463
 11653 01d2 00       		.uleb128 0
 11654              	.LLST204:
 11655 01d3 06       		.byte	0x6
 11656 01d4 00000000 		.4byte	.LVL188
 11657 01d8 04       		.byte	0x4
 11658 01d9 00       		.uleb128 .LVL188-.LVL188
 11659 01da 15       		.uleb128 .LVL193-1-.LVL188
 11660 01db 01       		.uleb128 0x1
 11661 01dc 51       		.byte	0x51
 11662 01dd 04       		.byte	0x4
 11663 01de 15       		.uleb128 .LVL193-1-.LVL188
 11664 01df 1E       		.uleb128 .LFE379-.LVL188
 11665 01e0 04       		.uleb128 0x4
 11666 01e1 A3       		.byte	0xa3
 11667 01e2 01       		.uleb128 0x1
 11668 01e3 51       		.byte	0x51
 11669 01e4 9F       		.byte	0x9f
 11670 01e5 00       		.byte	0
 11671              	.LVUS206:
 11672 01e6 05       		.uleb128 .LVU1446
 11673 01e7 00       		.uleb128 .LVU1448
 11674              	.LLST206:
 11675 01e8 08       		.byte	0x8
 11676 01e9 06000000 		.4byte	.LVL189
 11677 01ed 04       		.uleb128 .LVL190-.LVL189
 11678 01ee 03       		.uleb128 0x3
 11679 01ef 08       		.byte	0x8
 11680 01f0 30       		.byte	0x30
 11681 01f1 9F       		.byte	0x9f
 11682 01f2 00       		.byte	0
 11683              	.LVUS207:
 11684 01f3 04       		.uleb128 .LVU1452
ARM GAS  C:\Users\DEVELO~1\AppData\Local\Temp\ccUBlV4P.s 			page 206


 11685 01f4 00       		.uleb128 .LVU1463
 11686 01f5 00       		.uleb128 .LVU1463
 11687 01f6 00       		.uleb128 .LVU1463
 11688              	.LLST207:
 11689 01f7 06       		.byte	0x6
 11690 01f8 0A000000 		.4byte	.LVL190
 11691 01fc 04       		.byte	0x4
 11692 01fd 00       		.uleb128 .LVL190-.LVL190
 11693 01fe 0B       		.uleb128 .LVL193-1-.LVL190
 11694 01ff 01       		.uleb128 0x1
 11695 0200 51       		.byte	0x51
 11696 0201 04       		.byte	0x4
 11697 0202 0B       		.uleb128 .LVL193-1-.LVL190
 11698 0203 0C       		.uleb128 .LVL193-.LVL190
 11699 0204 04       		.uleb128 0x4
 11700 0205 A3       		.byte	0xa3
 11701 0206 01       		.uleb128 0x1
 11702 0207 51       		.byte	0x51
 11703 0208 9F       		.byte	0x9f
 11704 0209 00       		.byte	0
 11705              	.LVUS208:
 11706 020a 04       		.uleb128 .LVU1452
 11707 020b 00       		.uleb128 .LVU1455
 11708 020c 00       		.uleb128 .LVU1455
 11709 020d 00       		.uleb128 .LVU1463
 11710 020e 00       		.uleb128 .LVU1463
 11711 020f 00       		.uleb128 .LVU1463
 11712              	.LLST208:
 11713 0210 06       		.byte	0x6
 11714 0211 0A000000 		.4byte	.LVL190
 11715 0215 04       		.byte	0x4
 11716 0216 00       		.uleb128 .LVL190-.LVL190
 11717 0217 02       		.uleb128 .LVL191-.LVL190
 11718 0218 01       		.uleb128 0x1
 11719 0219 50       		.byte	0x50
 11720 021a 04       		.byte	0x4
 11721 021b 02       		.uleb128 .LVL191-.LVL190
 11722 021c 0B       		.uleb128 .LVL193-1-.LVL190
 11723 021d 01       		.uleb128 0x1
 11724 021e 53       		.byte	0x53
 11725 021f 04       		.byte	0x4
 11726 0220 0B       		.uleb128 .LVL193-1-.LVL190
 11727 0221 0C       		.uleb128 .LVL193-.LVL190
 11728 0222 04       		.uleb128 0x4
 11729 0223 A3       		.byte	0xa3
 11730 0224 01       		.uleb128 0x1
 11731 0225 50       		.byte	0x50
 11732 0226 9F       		.byte	0x9f
 11733 0227 00       		.byte	0
 11734              	.LVUS209:
 11735 0228 01       		.uleb128 .LVU1457
 11736 0229 00       		.uleb128 .LVU1463
 11737              	.LLST209:
 11738 022a 08       		.byte	0x8
 11739 022b 0E000000 		.4byte	.LVL192
 11740 022f 07       		.uleb128 .LVL193-1-.LVL192
 11741 0230 01       		.uleb128 0x1
ARM GAS  C:\Users\DEVELO~1\AppData\Local\Temp\ccUBlV4P.s 			page 207


 11742 0231 50       		.byte	0x50
 11743 0232 00       		.byte	0
 11744              	.LVUS210:
 11745 0233 0B       		.uleb128 .LVU1474
 11746 0234 00       		.uleb128 .LVU1476
 11747              	.LLST210:
 11748 0235 08       		.byte	0x8
 11749 0236 16000000 		.4byte	.LVL193
 11750 023a 06       		.uleb128 .LVL194-.LVL193
 11751 023b 02       		.uleb128 0x2
 11752 023c 30       		.byte	0x30
 11753 023d 9F       		.byte	0x9f
 11754 023e 00       		.byte	0
 11755              	.LVUS197:
 11756 023f 00       		.uleb128 0
 11757 0240 00       		.uleb128 .LVU1410
 11758 0241 00       		.uleb128 .LVU1410
 11759 0242 00       		.uleb128 .LVU1421
 11760 0243 00       		.uleb128 .LVU1421
 11761 0244 00       		.uleb128 .LVU1421
 11762 0245 00       		.uleb128 .LVU1421
 11763 0246 00       		.uleb128 0
 11764              	.LLST197:
 11765 0247 06       		.byte	0x6
 11766 0248 00000000 		.4byte	.LVL180
 11767 024c 04       		.byte	0x4
 11768 024d 00       		.uleb128 .LVL180-.LVL180
 11769 024e 04       		.uleb128 .LVL181-.LVL180
 11770 024f 01       		.uleb128 0x1
 11771 0250 50       		.byte	0x50
 11772 0251 04       		.byte	0x4
 11773 0252 04       		.uleb128 .LVL181-.LVL180
 11774 0253 0F       		.uleb128 .LVL183-1-.LVL180
 11775 0254 01       		.uleb128 0x1
 11776 0255 53       		.byte	0x53
 11777 0256 04       		.byte	0x4
 11778 0257 0F       		.uleb128 .LVL183-1-.LVL180
 11779 0258 10       		.uleb128 .LVL183-.LVL180
 11780 0259 04       		.uleb128 0x4
 11781 025a A3       		.byte	0xa3
 11782 025b 01       		.uleb128 0x1
 11783 025c 50       		.byte	0x50
 11784 025d 9F       		.byte	0x9f
 11785 025e 04       		.byte	0x4
 11786 025f 10       		.uleb128 .LVL183-.LVL180
 11787 0260 12       		.uleb128 .LFE377-.LVL180
 11788 0261 01       		.uleb128 0x1
 11789 0262 53       		.byte	0x53
 11790 0263 00       		.byte	0
 11791              	.LVUS198:
 11792 0264 00       		.uleb128 0
 11793 0265 00       		.uleb128 .LVU1421
 11794 0266 00       		.uleb128 .LVU1421
 11795 0267 00       		.uleb128 .LVU1421
 11796 0268 00       		.uleb128 .LVU1421
 11797 0269 00       		.uleb128 0
 11798              	.LLST198:
ARM GAS  C:\Users\DEVELO~1\AppData\Local\Temp\ccUBlV4P.s 			page 208


 11799 026a 06       		.byte	0x6
 11800 026b 00000000 		.4byte	.LVL180
 11801 026f 04       		.byte	0x4
 11802 0270 00       		.uleb128 .LVL180-.LVL180
 11803 0271 0F       		.uleb128 .LVL183-1-.LVL180
 11804 0272 01       		.uleb128 0x1
 11805 0273 51       		.byte	0x51
 11806 0274 04       		.byte	0x4
 11807 0275 0F       		.uleb128 .LVL183-1-.LVL180
 11808 0276 10       		.uleb128 .LVL183-.LVL180
 11809 0277 04       		.uleb128 0x4
 11810 0278 A3       		.byte	0xa3
 11811 0279 01       		.uleb128 0x1
 11812 027a 51       		.byte	0x51
 11813 027b 9F       		.byte	0x9f
 11814 027c 04       		.byte	0x4
 11815 027d 10       		.uleb128 .LVL183-.LVL180
 11816 027e 12       		.uleb128 .LFE377-.LVL180
 11817 027f 01       		.uleb128 0x1
 11818 0280 51       		.byte	0x51
 11819 0281 00       		.byte	0
 11820              	.LVUS199:
 11821 0282 01       		.uleb128 .LVU1412
 11822 0283 00       		.uleb128 .LVU1421
 11823              	.LLST199:
 11824 0284 08       		.byte	0x8
 11825 0285 06000000 		.4byte	.LVL182
 11826 0289 09       		.uleb128 .LVL183-1-.LVL182
 11827 028a 01       		.uleb128 0x1
 11828 028b 50       		.byte	0x50
 11829 028c 00       		.byte	0
 11830              	.LVUS193:
 11831 028d 00       		.uleb128 0
 11832 028e 00       		.uleb128 .LVU1401
 11833 028f 00       		.uleb128 .LVU1401
 11834 0290 00       		.uleb128 .LVU1404
 11835 0291 00       		.uleb128 .LVU1404
 11836 0292 00       		.uleb128 .LVU1404
 11837 0293 00       		.uleb128 .LVU1404
 11838 0294 00       		.uleb128 .LVU1405
 11839 0295 00       		.uleb128 .LVU1405
 11840 0296 00       		.uleb128 0
 11841              	.LLST193:
 11842 0297 06       		.byte	0x6
 11843 0298 00000000 		.4byte	.LVL175
 11844 029c 04       		.byte	0x4
 11845 029d 00       		.uleb128 .LVL175-.LVL175
 11846 029e 0C       		.uleb128 .LVL177-.LVL175
 11847 029f 01       		.uleb128 0x1
 11848 02a0 50       		.byte	0x50
 11849 02a1 04       		.byte	0x4
 11850 02a2 0C       		.uleb128 .LVL177-.LVL175
 11851 02a3 11       		.uleb128 .LVL178-1-.LVL175
 11852 02a4 01       		.uleb128 0x1
 11853 02a5 53       		.byte	0x53
 11854 02a6 04       		.byte	0x4
 11855 02a7 11       		.uleb128 .LVL178-1-.LVL175
ARM GAS  C:\Users\DEVELO~1\AppData\Local\Temp\ccUBlV4P.s 			page 209


 11856 02a8 12       		.uleb128 .LVL178-.LVL175
 11857 02a9 04       		.uleb128 0x4
 11858 02aa A3       		.byte	0xa3
 11859 02ab 01       		.uleb128 0x1
 11860 02ac 50       		.byte	0x50
 11861 02ad 9F       		.byte	0x9f
 11862 02ae 04       		.byte	0x4
 11863 02af 12       		.uleb128 .LVL178-.LVL175
 11864 02b0 16       		.uleb128 .LVL179-.LVL175
 11865 02b1 01       		.uleb128 0x1
 11866 02b2 50       		.byte	0x50
 11867 02b3 04       		.byte	0x4
 11868 02b4 16       		.uleb128 .LVL179-.LVL175
 11869 02b5 1C       		.uleb128 .LFE376-.LVL175
 11870 02b6 01       		.uleb128 0x1
 11871 02b7 53       		.byte	0x53
 11872 02b8 00       		.byte	0
 11873              	.LVUS194:
 11874 02b9 00       		.uleb128 0
 11875 02ba 00       		.uleb128 .LVU1404
 11876 02bb 00       		.uleb128 .LVU1404
 11877 02bc 00       		.uleb128 .LVU1404
 11878 02bd 00       		.uleb128 .LVU1404
 11879 02be 00       		.uleb128 0
 11880              	.LLST194:
 11881 02bf 06       		.byte	0x6
 11882 02c0 00000000 		.4byte	.LVL175
 11883 02c4 04       		.byte	0x4
 11884 02c5 00       		.uleb128 .LVL175-.LVL175
 11885 02c6 11       		.uleb128 .LVL178-1-.LVL175
 11886 02c7 01       		.uleb128 0x1
 11887 02c8 51       		.byte	0x51
 11888 02c9 04       		.byte	0x4
 11889 02ca 11       		.uleb128 .LVL178-1-.LVL175
 11890 02cb 12       		.uleb128 .LVL178-.LVL175
 11891 02cc 04       		.uleb128 0x4
 11892 02cd A3       		.byte	0xa3
 11893 02ce 01       		.uleb128 0x1
 11894 02cf 51       		.byte	0x51
 11895 02d0 9F       		.byte	0x9f
 11896 02d1 04       		.byte	0x4
 11897 02d2 12       		.uleb128 .LVL178-.LVL175
 11898 02d3 1C       		.uleb128 .LFE376-.LVL175
 11899 02d4 01       		.uleb128 0x1
 11900 02d5 51       		.byte	0x51
 11901 02d6 00       		.byte	0
 11902              	.LVUS195:
 11903 02d7 00       		.uleb128 .LVU1391
 11904 02d8 00       		.uleb128 .LVU1404
 11905 02d9 00       		.uleb128 .LVU1404
 11906 02da 00       		.uleb128 0
 11907              	.LLST195:
 11908 02db 06       		.byte	0x6
 11909 02dc 06000000 		.4byte	.LVL176
 11910 02e0 04       		.byte	0x4
 11911 02e1 00       		.uleb128 .LVL176-.LVL176
 11912 02e2 0B       		.uleb128 .LVL178-1-.LVL176
ARM GAS  C:\Users\DEVELO~1\AppData\Local\Temp\ccUBlV4P.s 			page 210


 11913 02e3 01       		.uleb128 0x1
 11914 02e4 52       		.byte	0x52
 11915 02e5 04       		.byte	0x4
 11916 02e6 0C       		.uleb128 .LVL178-.LVL176
 11917 02e7 16       		.uleb128 .LFE376-.LVL176
 11918 02e8 01       		.uleb128 0x1
 11919 02e9 52       		.byte	0x52
 11920 02ea 00       		.byte	0
 11921              	.LVUS190:
 11922 02eb 00       		.uleb128 0
 11923 02ec 00       		.uleb128 .LVU1369
 11924 02ed 00       		.uleb128 .LVU1369
 11925 02ee 00       		.uleb128 .LVU1379
 11926 02ef 00       		.uleb128 .LVU1379
 11927 02f0 00       		.uleb128 0
 11928              	.LLST190:
 11929 02f1 06       		.byte	0x6
 11930 02f2 00000000 		.4byte	.LVL171
 11931 02f6 04       		.byte	0x4
 11932 02f7 00       		.uleb128 .LVL171-.LVL171
 11933 02f8 08       		.uleb128 .LVL172-.LVL171
 11934 02f9 01       		.uleb128 0x1
 11935 02fa 50       		.byte	0x50
 11936 02fb 04       		.byte	0x4
 11937 02fc 08       		.uleb128 .LVL172-.LVL171
 11938 02fd 11       		.uleb128 .LVL174-1-.LVL171
 11939 02fe 01       		.uleb128 0x1
 11940 02ff 53       		.byte	0x53
 11941 0300 04       		.byte	0x4
 11942 0301 11       		.uleb128 .LVL174-1-.LVL171
 11943 0302 1C       		.uleb128 .LFE375-.LVL171
 11944 0303 04       		.uleb128 0x4
 11945 0304 A3       		.byte	0xa3
 11946 0305 01       		.uleb128 0x1
 11947 0306 50       		.byte	0x50
 11948 0307 9F       		.byte	0x9f
 11949 0308 00       		.byte	0
 11950              	.LVUS191:
 11951 0309 00       		.uleb128 .LVU1370
 11952 030a 00       		.uleb128 .LVU1379
 11953              	.LLST191:
 11954 030b 08       		.byte	0x8
 11955 030c 0A000000 		.4byte	.LVL173
 11956 0310 07       		.uleb128 .LVL174-1-.LVL173
 11957 0311 01       		.uleb128 0x1
 11958 0312 52       		.byte	0x52
 11959 0313 00       		.byte	0
 11960              	.LVUS188:
 11961 0314 06       		.uleb128 .LVU1339
 11962 0315 00       		.uleb128 .LVU1343
 11963              	.LLST188:
 11964 0316 08       		.byte	0x8
 11965 0317 00000000 		.4byte	.LVL167
 11966 031b 08       		.uleb128 .LVL168-.LVL167
 11967 031c 03       		.uleb128 0x3
 11968 031d 08       		.byte	0x8
 11969 031e 30       		.byte	0x30
ARM GAS  C:\Users\DEVELO~1\AppData\Local\Temp\ccUBlV4P.s 			page 211


 11970 031f 9F       		.byte	0x9f
 11971 0320 00       		.byte	0
 11972              	.LVUS189:
 11973 0321 0A       		.uleb128 .LVU1357
 11974 0322 00       		.uleb128 .LVU1359
 11975              	.LLST189:
 11976 0323 08       		.byte	0x8
 11977 0324 0C000000 		.4byte	.LVL169
 11978 0328 06       		.uleb128 .LVL170-.LVL169
 11979 0329 02       		.uleb128 0x2
 11980 032a 30       		.byte	0x30
 11981 032b 9F       		.byte	0x9f
 11982 032c 00       		.byte	0
 11983              	.LVUS174:
 11984 032d 00       		.uleb128 0
 11985 032e 00       		.uleb128 .LVU1295
 11986 032f 00       		.uleb128 .LVU1295
 11987 0330 00       		.uleb128 .LVU1302
 11988 0331 00       		.uleb128 .LVU1302
 11989 0332 00       		.uleb128 0
 11990              	.LLST174:
 11991 0333 06       		.byte	0x6
 11992 0334 00000000 		.4byte	.LVL157
 11993 0338 04       		.byte	0x4
 11994 0339 00       		.uleb128 .LVL157-.LVL157
 11995 033a 0F       		.uleb128 .LVL159-1-.LVL157
 11996 033b 01       		.uleb128 0x1
 11997 033c 50       		.byte	0x50
 11998 033d 04       		.byte	0x4
 11999 033e 0F       		.uleb128 .LVL159-1-.LVL157
 12000 033f 14       		.uleb128 .LVL161-.LVL157
 12001 0340 01       		.uleb128 0x1
 12002 0341 54       		.byte	0x54
 12003 0342 04       		.byte	0x4
 12004 0343 14       		.uleb128 .LVL161-.LVL157
 12005 0344 2A       		.uleb128 .LFE373-.LVL157
 12006 0345 04       		.uleb128 0x4
 12007 0346 A3       		.byte	0xa3
 12008 0347 01       		.uleb128 0x1
 12009 0348 50       		.byte	0x50
 12010 0349 9F       		.byte	0x9f
 12011 034a 00       		.byte	0
 12012              	.LVUS175:
 12013 034b 00       		.uleb128 0
 12014 034c 00       		.uleb128 .LVU1295
 12015 034d 00       		.uleb128 .LVU1295
 12016 034e 00       		.uleb128 0
 12017              	.LLST175:
 12018 034f 06       		.byte	0x6
 12019 0350 00000000 		.4byte	.LVL157
 12020 0354 04       		.byte	0x4
 12021 0355 00       		.uleb128 .LVL157-.LVL157
 12022 0356 0F       		.uleb128 .LVL159-1-.LVL157
 12023 0357 01       		.uleb128 0x1
 12024 0358 51       		.byte	0x51
 12025 0359 04       		.byte	0x4
 12026 035a 0F       		.uleb128 .LVL159-1-.LVL157
ARM GAS  C:\Users\DEVELO~1\AppData\Local\Temp\ccUBlV4P.s 			page 212


 12027 035b 2A       		.uleb128 .LFE373-.LVL157
 12028 035c 01       		.uleb128 0x1
 12029 035d 55       		.byte	0x55
 12030 035e 00       		.byte	0
 12031              	.LVUS176:
 12032 035f 00       		.uleb128 .LVU1297
 12033 0360 00       		.uleb128 .LVU1315
 12034              	.LLST176:
 12035 0361 08       		.byte	0x8
 12036 0362 12000000 		.4byte	.LVL160
 12037 0366 0A       		.uleb128 .LVL164-.LVL160
 12038 0367 01       		.uleb128 0x1
 12039 0368 50       		.byte	0x50
 12040 0369 00       		.byte	0
 12041              	.LVUS178:
 12042 036a 07       		.uleb128 .LVU1280
 12043 036b 00       		.uleb128 .LVU1286
 12044              	.LLST178:
 12045 036c 08       		.byte	0x8
 12046 036d 00000000 		.4byte	.LVL157
 12047 0371 0C       		.uleb128 .LVL158-.LVL157
 12048 0372 03       		.uleb128 0x3
 12049 0373 08       		.byte	0x8
 12050 0374 30       		.byte	0x30
 12051 0375 9F       		.byte	0x9f
 12052 0376 00       		.byte	0
 12053              	.LVUS180:
 12054 0377 02       		.uleb128 .LVU1299
 12055 0378 04       		.uleb128 .LVU1301
 12056              	.LLST180:
 12057 0379 08       		.byte	0x8
 12058 037a 12000000 		.4byte	.LVL160
 12059 037e 00       		.uleb128 .LVL160-.LVL160
 12060 037f 01       		.uleb128 0x1
 12061 0380 55       		.byte	0x55
 12062 0381 00       		.byte	0
 12063              	.LVUS181:
 12064 0382 02       		.uleb128 .LVU1299
 12065 0383 04       		.uleb128 .LVU1301
 12066              	.LLST181:
 12067 0384 08       		.byte	0x8
 12068 0385 12000000 		.4byte	.LVL160
 12069 0389 00       		.uleb128 .LVL160-.LVL160
 12070 038a 01       		.uleb128 0x1
 12071 038b 54       		.byte	0x54
 12072 038c 00       		.byte	0
 12073              	.LVUS182:
 12074 038d 02       		.uleb128 .LVU1299
 12075 038e 04       		.uleb128 .LVU1301
 12076              	.LLST182:
 12077 038f 08       		.byte	0x8
 12078 0390 12000000 		.4byte	.LVL160
 12079 0394 00       		.uleb128 .LVL160-.LVL160
 12080 0395 01       		.uleb128 0x1
 12081 0396 50       		.byte	0x50
 12082 0397 00       		.byte	0
 12083              	.LVUS183:
ARM GAS  C:\Users\DEVELO~1\AppData\Local\Temp\ccUBlV4P.s 			page 213


 12084 0398 01       		.uleb128 .LVU1305
 12085 0399 03       		.uleb128 .LVU1307
 12086              	.LLST183:
 12087 039a 08       		.byte	0x8
 12088 039b 18000000 		.4byte	.LVL162
 12089 039f 00       		.uleb128 .LVL162-.LVL162
 12090 03a0 01       		.uleb128 0x1
 12091 03a1 55       		.byte	0x55
 12092 03a2 00       		.byte	0
 12093              	.LVUS184:
 12094 03a3 01       		.uleb128 .LVU1305
 12095 03a4 03       		.uleb128 .LVU1307
 12096              	.LLST184:
 12097 03a5 08       		.byte	0x8
 12098 03a6 18000000 		.4byte	.LVL162
 12099 03aa 00       		.uleb128 .LVL162-.LVL162
 12100 03ab 01       		.uleb128 0x1
 12101 03ac 50       		.byte	0x50
 12102 03ad 00       		.byte	0
 12103              	.LVUS185:
 12104 03ae 03       		.uleb128 .LVU1307
 12105 03af 00       		.uleb128 .LVU1314
 12106 03b0 00       		.uleb128 .LVU1314
 12107 03b1 00       		.uleb128 .LVU1316
 12108              	.LLST185:
 12109 03b2 06       		.byte	0x6
 12110 03b3 18000000 		.4byte	.LVL162
 12111 03b7 04       		.byte	0x4
 12112 03b8 00       		.uleb128 .LVL162-.LVL162
 12113 03b9 02       		.uleb128 .LVL163-.LVL162
 12114 03ba 06       		.uleb128 0x6
 12115 03bb 75       		.byte	0x75
 12116 03bc 00       		.sleb128 0
 12117 03bd 70       		.byte	0x70
 12118 03be 00       		.sleb128 0
 12119 03bf 1C       		.byte	0x1c
 12120 03c0 9F       		.byte	0x9f
 12121 03c1 04       		.byte	0x4
 12122 03c2 02       		.uleb128 .LVL163-.LVL162
 12123 03c3 07       		.uleb128 .LVL165-1-.LVL162
 12124 03c4 01       		.uleb128 0x1
 12125 03c5 51       		.byte	0x51
 12126 03c6 00       		.byte	0
 12127              	.LVUS186:
 12128 03c7 0B       		.uleb128 .LVU1327
 12129 03c8 00       		.uleb128 .LVU1329
 12130              	.LLST186:
 12131 03c9 08       		.byte	0x8
 12132 03ca 20000000 		.4byte	.LVL165
 12133 03ce 06       		.uleb128 .LVL166-.LVL165
 12134 03cf 02       		.uleb128 0x2
 12135 03d0 30       		.byte	0x30
 12136 03d1 9F       		.byte	0x9f
 12137 03d2 00       		.byte	0
 12138              	.LVUS166:
 12139 03d3 00       		.uleb128 0
 12140 03d4 00       		.uleb128 .LVU1243
ARM GAS  C:\Users\DEVELO~1\AppData\Local\Temp\ccUBlV4P.s 			page 214


 12141 03d5 00       		.uleb128 .LVU1243
 12142 03d6 00       		.uleb128 0
 12143              	.LLST166:
 12144 03d7 06       		.byte	0x6
 12145 03d8 00000000 		.4byte	.LVL150
 12146 03dc 04       		.byte	0x4
 12147 03dd 00       		.uleb128 .LVL150-.LVL150
 12148 03de 0D       		.uleb128 .LVL152-1-.LVL150
 12149 03df 01       		.uleb128 0x1
 12150 03e0 50       		.byte	0x50
 12151 03e1 04       		.byte	0x4
 12152 03e2 0D       		.uleb128 .LVL152-1-.LVL150
 12153 03e3 20       		.uleb128 .LFE372-.LVL150
 12154 03e4 01       		.uleb128 0x1
 12155 03e5 54       		.byte	0x54
 12156 03e6 00       		.byte	0
 12157              	.LVUS167:
 12158 03e7 03       		.uleb128 .LVU1246
 12159 03e8 00       		.uleb128 .LVU1249
 12160 03e9 00       		.uleb128 .LVU1249
 12161 03ea 00       		.uleb128 .LVU1257
 12162              	.LLST167:
 12163 03eb 06       		.byte	0x6
 12164 03ec 0E000000 		.4byte	.LVL152
 12165 03f0 04       		.byte	0x4
 12166 03f1 00       		.uleb128 .LVL152-.LVL152
 12167 03f2 02       		.uleb128 .LVL153-.LVL152
 12168 03f3 06       		.uleb128 0x6
 12169 03f4 74       		.byte	0x74
 12170 03f5 00       		.sleb128 0
 12171 03f6 70       		.byte	0x70
 12172 03f7 00       		.sleb128 0
 12173 03f8 1C       		.byte	0x1c
 12174 03f9 9F       		.byte	0x9f
 12175 03fa 04       		.byte	0x4
 12176 03fb 02       		.uleb128 .LVL153-.LVL152
 12177 03fc 09       		.uleb128 .LVL155-1-.LVL152
 12178 03fd 01       		.uleb128 0x1
 12179 03fe 51       		.byte	0x51
 12180 03ff 00       		.byte	0
 12181              	.LVUS169:
 12182 0400 07       		.uleb128 .LVU1228
 12183 0401 00       		.uleb128 .LVU1234
 12184              	.LLST169:
 12185 0402 08       		.byte	0x8
 12186 0403 00000000 		.4byte	.LVL150
 12187 0407 0A       		.uleb128 .LVL151-.LVL150
 12188 0408 03       		.uleb128 0x3
 12189 0409 08       		.byte	0x8
 12190 040a 30       		.byte	0x30
 12191 040b 9F       		.byte	0x9f
 12192 040c 00       		.byte	0
 12193              	.LVUS170:
 12194 040d 00       		.uleb128 .LVU1243
 12195 040e 03       		.uleb128 .LVU1246
 12196              	.LLST170:
 12197 040f 08       		.byte	0x8
ARM GAS  C:\Users\DEVELO~1\AppData\Local\Temp\ccUBlV4P.s 			page 215


 12198 0410 0E000000 		.4byte	.LVL152
 12199 0414 00       		.uleb128 .LVL152-.LVL152
 12200 0415 01       		.uleb128 0x1
 12201 0416 54       		.byte	0x54
 12202 0417 00       		.byte	0
 12203              	.LVUS171:
 12204 0418 00       		.uleb128 .LVU1243
 12205 0419 03       		.uleb128 .LVU1246
 12206              	.LLST171:
 12207 041a 08       		.byte	0x8
 12208 041b 0E000000 		.4byte	.LVL152
 12209 041f 00       		.uleb128 .LVL152-.LVL152
 12210 0420 01       		.uleb128 0x1
 12211 0421 50       		.byte	0x50
 12212 0422 00       		.byte	0
 12213              	.LVUS172:
 12214 0423 01       		.uleb128 .LVU1251
 12215 0424 00       		.uleb128 .LVU1257
 12216              	.LLST172:
 12217 0425 08       		.byte	0x8
 12218 0426 12000000 		.4byte	.LVL154
 12219 042a 05       		.uleb128 .LVL155-1-.LVL154
 12220 042b 01       		.uleb128 0x1
 12221 042c 51       		.byte	0x51
 12222 042d 00       		.byte	0
 12223              	.LVUS173:
 12224 042e 0B       		.uleb128 .LVU1268
 12225 042f 00       		.uleb128 .LVU1270
 12226              	.LLST173:
 12227 0430 08       		.byte	0x8
 12228 0431 18000000 		.4byte	.LVL155
 12229 0435 06       		.uleb128 .LVL156-.LVL155
 12230 0436 02       		.uleb128 0x2
 12231 0437 30       		.byte	0x30
 12232 0438 9F       		.byte	0x9f
 12233 0439 00       		.byte	0
 12234              	.LVUS161:
 12235 043a 00       		.uleb128 0
 12236 043b 00       		.uleb128 .LVU1205
 12237 043c 00       		.uleb128 .LVU1205
 12238 043d 00       		.uleb128 .LVU1206
 12239 043e 00       		.uleb128 .LVU1206
 12240 043f 00       		.uleb128 0
 12241              	.LLST161:
 12242 0440 06       		.byte	0x6
 12243 0441 00000000 		.4byte	.LVL145
 12244 0445 04       		.byte	0x4
 12245 0446 00       		.uleb128 .LVL145-.LVL145
 12246 0447 0C       		.uleb128 .LVL147-.LVL145
 12247 0448 01       		.uleb128 0x1
 12248 0449 50       		.byte	0x50
 12249 044a 04       		.byte	0x4
 12250 044b 0C       		.uleb128 .LVL147-.LVL145
 12251 044c 0F       		.uleb128 .LVL148-1-.LVL145
 12252 044d 01       		.uleb128 0x1
 12253 044e 51       		.byte	0x51
 12254 044f 04       		.byte	0x4
ARM GAS  C:\Users\DEVELO~1\AppData\Local\Temp\ccUBlV4P.s 			page 216


 12255 0450 0F       		.uleb128 .LVL148-1-.LVL145
 12256 0451 18       		.uleb128 .LFE371-.LVL145
 12257 0452 04       		.uleb128 0x4
 12258 0453 A3       		.byte	0xa3
 12259 0454 01       		.uleb128 0x1
 12260 0455 50       		.byte	0x50
 12261 0456 9F       		.byte	0x9f
 12262 0457 00       		.byte	0
 12263              	.LVUS163:
 12264 0458 06       		.uleb128 .LVU1190
 12265 0459 00       		.uleb128 .LVU1195
 12266              	.LLST163:
 12267 045a 08       		.byte	0x8
 12268 045b 00000000 		.4byte	.LVL145
 12269 045f 0A       		.uleb128 .LVL146-.LVL145
 12270 0460 03       		.uleb128 0x3
 12271 0461 08       		.byte	0x8
 12272 0462 30       		.byte	0x30
 12273 0463 9F       		.byte	0x9f
 12274 0464 00       		.byte	0
 12275              	.LVUS164:
 12276 0465 04       		.uleb128 .LVU1199
 12277 0466 00       		.uleb128 .LVU1205
 12278 0467 00       		.uleb128 .LVU1205
 12279 0468 00       		.uleb128 .LVU1206
 12280 0469 00       		.uleb128 .LVU1206
 12281 046a 00       		.uleb128 .LVU1206
 12282              	.LLST164:
 12283 046b 06       		.byte	0x6
 12284 046c 0A000000 		.4byte	.LVL146
 12285 0470 04       		.byte	0x4
 12286 0471 00       		.uleb128 .LVL146-.LVL146
 12287 0472 02       		.uleb128 .LVL147-.LVL146
 12288 0473 01       		.uleb128 0x1
 12289 0474 50       		.byte	0x50
 12290 0475 04       		.byte	0x4
 12291 0476 02       		.uleb128 .LVL147-.LVL146
 12292 0477 05       		.uleb128 .LVL148-1-.LVL146
 12293 0478 01       		.uleb128 0x1
 12294 0479 51       		.byte	0x51
 12295 047a 04       		.byte	0x4
 12296 047b 05       		.uleb128 .LVL148-1-.LVL146
 12297 047c 06       		.uleb128 .LVL148-.LVL146
 12298 047d 04       		.uleb128 0x4
 12299 047e A3       		.byte	0xa3
 12300 047f 01       		.uleb128 0x1
 12301 0480 50       		.byte	0x50
 12302 0481 9F       		.byte	0x9f
 12303 0482 00       		.byte	0
 12304              	.LVUS165:
 12305 0483 0B       		.uleb128 .LVU1217
 12306 0484 00       		.uleb128 .LVU1219
 12307              	.LLST165:
 12308 0485 08       		.byte	0x8
 12309 0486 10000000 		.4byte	.LVL148
 12310 048a 06       		.uleb128 .LVL149-.LVL148
 12311 048b 02       		.uleb128 0x2
ARM GAS  C:\Users\DEVELO~1\AppData\Local\Temp\ccUBlV4P.s 			page 217


 12312 048c 30       		.byte	0x30
 12313 048d 9F       		.byte	0x9f
 12314 048e 00       		.byte	0
 12315              	.LVUS158:
 12316 048f 06       		.uleb128 .LVU1161
 12317 0490 00       		.uleb128 .LVU1163
 12318              	.LLST158:
 12319 0491 08       		.byte	0x8
 12320 0492 00000000 		.4byte	.LVL141
 12321 0496 06       		.uleb128 .LVL142-.LVL141
 12322 0497 03       		.uleb128 0x3
 12323 0498 08       		.byte	0x8
 12324 0499 30       		.byte	0x30
 12325 049a 9F       		.byte	0x9f
 12326 049b 00       		.byte	0
 12327              	.LVUS160:
 12328 049c 0A       		.uleb128 .LVU1180
 12329 049d 00       		.uleb128 .LVU1182
 12330              	.LLST160:
 12331 049e 08       		.byte	0x8
 12332 049f 10000000 		.4byte	.LVL143
 12333 04a3 04       		.uleb128 .LVL144-.LVL143
 12334 04a4 02       		.uleb128 0x2
 12335 04a5 30       		.byte	0x30
 12336 04a6 9F       		.byte	0x9f
 12337 04a7 00       		.byte	0
 12338              	.LVUS151:
 12339 04a8 00       		.uleb128 0
 12340 04a9 00       		.uleb128 .LVU1139
 12341 04aa 00       		.uleb128 .LVU1139
 12342 04ab 00       		.uleb128 0
 12343              	.LLST151:
 12344 04ac 06       		.byte	0x6
 12345 04ad 00000000 		.4byte	.LVL134
 12346 04b1 04       		.byte	0x4
 12347 04b2 00       		.uleb128 .LVL134-.LVL134
 12348 04b3 1F       		.uleb128 .LVL138-1-.LVL134
 12349 04b4 01       		.uleb128 0x1
 12350 04b5 50       		.byte	0x50
 12351 04b6 04       		.byte	0x4
 12352 04b7 1F       		.uleb128 .LVL138-1-.LVL134
 12353 04b8 30       		.uleb128 .LFE369-.LVL134
 12354 04b9 04       		.uleb128 0x4
 12355 04ba A3       		.byte	0xa3
 12356 04bb 01       		.uleb128 0x1
 12357 04bc 50       		.byte	0x50
 12358 04bd 9F       		.byte	0x9f
 12359 04be 00       		.byte	0
 12360              	.LVUS152:
 12361 04bf 00       		.uleb128 .LVU1112
 12362 04c0 00       		.uleb128 .LVU1139
 12363              	.LLST152:
 12364 04c1 08       		.byte	0x8
 12365 04c2 06000000 		.4byte	.LVL135
 12366 04c6 19       		.uleb128 .LVL138-1-.LVL135
 12367 04c7 01       		.uleb128 0x1
 12368 04c8 52       		.byte	0x52
ARM GAS  C:\Users\DEVELO~1\AppData\Local\Temp\ccUBlV4P.s 			page 218


 12369 04c9 00       		.byte	0
 12370              	.LVUS153:
 12371 04ca 00       		.uleb128 .LVU1132
 12372 04cb 00       		.uleb128 .LVU1154
 12373 04cc 00       		.uleb128 .LVU1154
 12374 04cd 00       		.uleb128 0
 12375              	.LLST153:
 12376 04ce 06       		.byte	0x6
 12377 04cf 10000000 		.4byte	.LVL137
 12378 04d3 04       		.byte	0x4
 12379 04d4 00       		.uleb128 .LVL137-.LVL137
 12380 04d5 1A       		.uleb128 .LVL140-.LVL137
 12381 04d6 01       		.uleb128 0x1
 12382 04d7 54       		.byte	0x54
 12383 04d8 04       		.byte	0x4
 12384 04d9 1A       		.uleb128 .LVL140-.LVL137
 12385 04da 20       		.uleb128 .LFE369-.LVL137
 12386 04db 01       		.uleb128 0x1
 12387 04dc 50       		.byte	0x50
 12388 04dd 00       		.byte	0
 12389              	.LVUS156:
 12390 04de 0A       		.uleb128 .LVU1122
 12391 04df 00       		.uleb128 .LVU1126
 12392              	.LLST156:
 12393 04e0 08       		.byte	0x8
 12394 04e1 06000000 		.4byte	.LVL135
 12395 04e5 06       		.uleb128 .LVL136-.LVL135
 12396 04e6 03       		.uleb128 0x3
 12397 04e7 08       		.byte	0x8
 12398 04e8 30       		.byte	0x30
 12399 04e9 9F       		.byte	0x9f
 12400 04ea 00       		.byte	0
 12401              	.LVUS157:
 12402 04eb 0A       		.uleb128 .LVU1149
 12403 04ec 00       		.uleb128 .LVU1151
 12404              	.LLST157:
 12405 04ed 08       		.byte	0x8
 12406 04ee 20000000 		.4byte	.LVL138
 12407 04f2 06       		.uleb128 .LVL139-.LVL138
 12408 04f3 02       		.uleb128 0x2
 12409 04f4 30       		.byte	0x30
 12410 04f5 9F       		.byte	0x9f
 12411 04f6 00       		.byte	0
 12412              	.LVUS134:
 12413 04f7 00       		.uleb128 0
 12414 04f8 00       		.uleb128 .LVU1021
 12415 04f9 00       		.uleb128 .LVU1021
 12416 04fa 00       		.uleb128 .LVU1104
 12417 04fb 00       		.uleb128 .LVU1104
 12418 04fc 00       		.uleb128 0
 12419              	.LLST134:
 12420 04fd 06       		.byte	0x6
 12421 04fe 00000000 		.4byte	.LVL117
 12422 0502 04       		.byte	0x4
 12423 0503 00       		.uleb128 .LVL117-.LVL117
 12424 0504 18       		.uleb128 .LVL121-.LVL117
 12425 0505 01       		.uleb128 0x1
ARM GAS  C:\Users\DEVELO~1\AppData\Local\Temp\ccUBlV4P.s 			page 219


 12426 0506 50       		.byte	0x50
 12427 0507 04       		.byte	0x4
 12428 0508 18       		.uleb128 .LVL121-.LVL117
 12429 0509 60       		.uleb128 .LVL133-.LVL117
 12430 050a 01       		.uleb128 0x1
 12431 050b 54       		.byte	0x54
 12432 050c 04       		.byte	0x4
 12433 050d 60       		.uleb128 .LVL133-.LVL117
 12434 050e 64       		.uleb128 .LFE368-.LVL117
 12435 050f 04       		.uleb128 0x4
 12436 0510 A3       		.byte	0xa3
 12437 0511 01       		.uleb128 0x1
 12438 0512 50       		.byte	0x50
 12439 0513 9F       		.byte	0x9f
 12440 0514 00       		.byte	0
 12441              	.LVUS135:
 12442 0515 00       		.uleb128 .LVU993
 12443 0516 00       		.uleb128 .LVU1026
 12444              	.LLST135:
 12445 0517 08       		.byte	0x8
 12446 0518 0A000000 		.4byte	.LVL118
 12447 051c 15       		.uleb128 .LVL123-1-.LVL118
 12448 051d 01       		.uleb128 0x1
 12449 051e 53       		.byte	0x53
 12450 051f 00       		.byte	0
 12451              	.LVUS136:
 12452 0520 00       		.uleb128 .LVU1028
 12453 0521 00       		.uleb128 .LVU1104
 12454 0522 00       		.uleb128 .LVU1104
 12455 0523 00       		.uleb128 0
 12456              	.LLST136:
 12457 0524 06       		.byte	0x6
 12458 0525 22000000 		.4byte	.LVL124
 12459 0529 04       		.byte	0x4
 12460 052a 00       		.uleb128 .LVL124-.LVL124
 12461 052b 3E       		.uleb128 .LVL133-.LVL124
 12462 052c 01       		.uleb128 0x1
 12463 052d 55       		.byte	0x55
 12464 052e 04       		.byte	0x4
 12465 052f 3E       		.uleb128 .LVL133-.LVL124
 12466 0530 42       		.uleb128 .LFE368-.LVL124
 12467 0531 01       		.uleb128 0x1
 12468 0532 50       		.byte	0x50
 12469 0533 00       		.byte	0
 12470              	.LVUS139:
 12471 0534 0A       		.uleb128 .LVU1003
 12472 0535 00       		.uleb128 .LVU1005
 12473              	.LLST139:
 12474 0536 08       		.byte	0x8
 12475 0537 0A000000 		.4byte	.LVL118
 12476 053b 04       		.uleb128 .LVL119-.LVL118
 12477 053c 03       		.uleb128 0x3
 12478 053d 08       		.byte	0x8
 12479 053e 30       		.byte	0x30
 12480 053f 9F       		.byte	0x9f
 12481 0540 00       		.byte	0
 12482              	.LVUS141:
ARM GAS  C:\Users\DEVELO~1\AppData\Local\Temp\ccUBlV4P.s 			page 220


 12483 0541 01       		.uleb128 .LVU1017
 12484 0542 00       		.uleb128 .LVU1024
 12485              	.LLST141:
 12486 0543 08       		.byte	0x8
 12487 0544 14000000 		.4byte	.LVL120
 12488 0548 08       		.uleb128 .LVL122-.LVL120
 12489 0549 01       		.uleb128 0x1
 12490 054a 53       		.byte	0x53
 12491 054b 00       		.byte	0
 12492              	.LVUS142:
 12493 054c 01       		.uleb128 .LVU1017
 12494 054d 00       		.uleb128 .LVU1021
 12495 054e 00       		.uleb128 .LVU1021
 12496 054f 00       		.uleb128 .LVU1024
 12497              	.LLST142:
 12498 0550 06       		.byte	0x6
 12499 0551 14000000 		.4byte	.LVL120
 12500 0555 04       		.byte	0x4
 12501 0556 00       		.uleb128 .LVL120-.LVL120
 12502 0557 04       		.uleb128 .LVL121-.LVL120
 12503 0558 03       		.uleb128 0x3
 12504 0559 70       		.byte	0x70
 12505 055a 38       		.sleb128 56
 12506 055b 9F       		.byte	0x9f
 12507 055c 04       		.byte	0x4
 12508 055d 04       		.uleb128 .LVL121-.LVL120
 12509 055e 08       		.uleb128 .LVL122-.LVL120
 12510 055f 03       		.uleb128 0x3
 12511 0560 74       		.byte	0x74
 12512 0561 38       		.sleb128 56
 12513 0562 9F       		.byte	0x9f
 12514 0563 00       		.byte	0
 12515              	.LVUS143:
 12516 0564 0A       		.uleb128 .LVU1038
 12517 0565 00       		.uleb128 .LVU1040
 12518              	.LLST143:
 12519 0566 08       		.byte	0x8
 12520 0567 22000000 		.4byte	.LVL124
 12521 056b 06       		.uleb128 .LVL125-.LVL124
 12522 056c 02       		.uleb128 0x2
 12523 056d 30       		.byte	0x30
 12524 056e 9F       		.byte	0x9f
 12525 056f 00       		.byte	0
 12526              	.LVUS145:
 12527 0570 02       		.uleb128 .LVU1042
 12528 0571 00       		.uleb128 .LVU1073
 12529 0572 00       		.uleb128 .LVU1076
 12530 0573 00       		.uleb128 .LVU1104
 12531 0574 00       		.uleb128 .LVU1104
 12532 0575 00       		.uleb128 0
 12533              	.LLST145:
 12534 0576 06       		.byte	0x6
 12535 0577 28000000 		.4byte	.LVL125
 12536 057b 04       		.byte	0x4
 12537 057c 00       		.uleb128 .LVL125-.LVL125
 12538 057d 1A       		.uleb128 .LVL128-.LVL125
 12539 057e 01       		.uleb128 0x1
ARM GAS  C:\Users\DEVELO~1\AppData\Local\Temp\ccUBlV4P.s 			page 221


 12540 057f 54       		.byte	0x54
 12541 0580 04       		.byte	0x4
 12542 0581 1E       		.uleb128 .LVL129-.LVL125
 12543 0582 38       		.uleb128 .LVL133-.LVL125
 12544 0583 01       		.uleb128 0x1
 12545 0584 54       		.byte	0x54
 12546 0585 04       		.byte	0x4
 12547 0586 38       		.uleb128 .LVL133-.LVL125
 12548 0587 3C       		.uleb128 .LFE368-.LVL125
 12549 0588 04       		.uleb128 0x4
 12550 0589 A3       		.byte	0xa3
 12551 058a 01       		.uleb128 0x1
 12552 058b 50       		.byte	0x50
 12553 058c 9F       		.byte	0x9f
 12554 058d 00       		.byte	0
 12555              	.LVUS146:
 12556 058e 08       		.uleb128 .LVU1048
 12557 058f 00       		.uleb128 .LVU1050
 12558              	.LLST146:
 12559 0590 08       		.byte	0x8
 12560 0591 28000000 		.4byte	.LVL125
 12561 0595 06       		.uleb128 .LVL126-.LVL125
 12562 0596 03       		.uleb128 0x3
 12563 0597 08       		.byte	0x8
 12564 0598 30       		.byte	0x30
 12565 0599 9F       		.byte	0x9f
 12566 059a 00       		.byte	0
 12567              	.LVUS147:
 12568 059b 0A       		.uleb128 .LVU1071
 12569 059c 00       		.uleb128 .LVU1073
 12570              	.LLST147:
 12571 059d 08       		.byte	0x8
 12572 059e 3E000000 		.4byte	.LVL127
 12573 05a2 04       		.uleb128 .LVL128-.LVL127
 12574 05a3 02       		.uleb128 0x2
 12575 05a4 30       		.byte	0x30
 12576 05a5 9F       		.byte	0x9f
 12577 05a6 00       		.byte	0
 12578              	.LVUS148:
 12579 05a7 00       		.uleb128 .LVU1076
 12580 05a8 00       		.uleb128 .LVU1104
 12581 05a9 00       		.uleb128 .LVU1104
 12582 05aa 00       		.uleb128 0
 12583              	.LLST148:
 12584 05ab 06       		.byte	0x6
 12585 05ac 46000000 		.4byte	.LVL129
 12586 05b0 04       		.byte	0x4
 12587 05b1 00       		.uleb128 .LVL129-.LVL129
 12588 05b2 1A       		.uleb128 .LVL133-.LVL129
 12589 05b3 01       		.uleb128 0x1
 12590 05b4 54       		.byte	0x54
 12591 05b5 04       		.byte	0x4
 12592 05b6 1A       		.uleb128 .LVL133-.LVL129
 12593 05b7 1E       		.uleb128 .LFE368-.LVL129
 12594 05b8 04       		.uleb128 0x4
 12595 05b9 A3       		.byte	0xa3
 12596 05ba 01       		.uleb128 0x1
ARM GAS  C:\Users\DEVELO~1\AppData\Local\Temp\ccUBlV4P.s 			page 222


 12597 05bb 50       		.byte	0x50
 12598 05bc 9F       		.byte	0x9f
 12599 05bd 00       		.byte	0
 12600              	.LVUS149:
 12601 05be 02       		.uleb128 .LVU1078
 12602 05bf 01       		.uleb128 .LVU1085
 12603              	.LLST149:
 12604 05c0 08       		.byte	0x8
 12605 05c1 46000000 		.4byte	.LVL129
 12606 05c5 08       		.uleb128 .LVL130-.LVL129
 12607 05c6 03       		.uleb128 0x3
 12608 05c7 74       		.byte	0x74
 12609 05c8 24       		.sleb128 36
 12610 05c9 9F       		.byte	0x9f
 12611 05ca 00       		.byte	0
 12612              	.LVUS150:
 12613 05cb 0C       		.uleb128 .LVU1096
 12614 05cc 00       		.uleb128 .LVU1098
 12615              	.LLST150:
 12616 05cd 08       		.byte	0x8
 12617 05ce 4E000000 		.4byte	.LVL130
 12618 05d2 04       		.uleb128 .LVL131-.LVL130
 12619 05d3 02       		.uleb128 0x2
 12620 05d4 30       		.byte	0x30
 12621 05d5 9F       		.byte	0x9f
 12622 05d6 00       		.byte	0
 12623              	.LVUS113:
 12624 05d7 00       		.uleb128 0
 12625 05d8 00       		.uleb128 .LVU899
 12626 05d9 00       		.uleb128 .LVU899
 12627 05da 00       		.uleb128 0
 12628              	.LLST113:
 12629 05db 06       		.byte	0x6
 12630 05dc 00000000 		.4byte	.LVL96
 12631 05e0 04       		.byte	0x4
 12632 05e1 00       		.uleb128 .LVL96-.LVL96
 12633 05e2 1C       		.uleb128 .LVL100-.LVL96
 12634 05e3 01       		.uleb128 0x1
 12635 05e4 50       		.byte	0x50
 12636 05e5 04       		.byte	0x4
 12637 05e6 1C       		.uleb128 .LVL100-.LVL96
 12638 05e7 50       		.uleb128 .LFE366-.LVL96
 12639 05e8 04       		.uleb128 0x4
 12640 05e9 A3       		.byte	0xa3
 12641 05ea 01       		.uleb128 0x1
 12642 05eb 50       		.byte	0x50
 12643 05ec 9F       		.byte	0x9f
 12644 05ed 00       		.byte	0
 12645              	.LVUS115:
 12646 05ee 06       		.uleb128 .LVU871
 12647 05ef 00       		.uleb128 .LVU875
 12648              	.LLST115:
 12649 05f0 08       		.byte	0x8
 12650 05f1 00000000 		.4byte	.LVL96
 12651 05f5 08       		.uleb128 .LVL97-.LVL96
 12652 05f6 03       		.uleb128 0x3
 12653 05f7 08       		.byte	0x8
ARM GAS  C:\Users\DEVELO~1\AppData\Local\Temp\ccUBlV4P.s 			page 223


 12654 05f8 30       		.byte	0x30
 12655 05f9 9F       		.byte	0x9f
 12656 05fa 00       		.byte	0
 12657              	.LVUS117:
 12658 05fb 04       		.uleb128 .LVU879
 12659 05fc 00       		.uleb128 .LVU899
 12660 05fd 00       		.uleb128 .LVU899
 12661 05fe 00       		.uleb128 0
 12662              	.LLST117:
 12663 05ff 06       		.byte	0x6
 12664 0600 08000000 		.4byte	.LVL97
 12665 0604 04       		.byte	0x4
 12666 0605 00       		.uleb128 .LVL97-.LVL97
 12667 0606 14       		.uleb128 .LVL100-.LVL97
 12668 0607 01       		.uleb128 0x1
 12669 0608 50       		.byte	0x50
 12670 0609 04       		.byte	0x4
 12671 060a 14       		.uleb128 .LVL100-.LVL97
 12672 060b 48       		.uleb128 .LFE366-.LVL97
 12673 060c 04       		.uleb128 0x4
 12674 060d A3       		.byte	0xa3
 12675 060e 01       		.uleb128 0x1
 12676 060f 50       		.byte	0x50
 12677 0610 9F       		.byte	0x9f
 12678 0611 00       		.byte	0
 12679              	.LVUS118:
 12680 0612 00       		.uleb128 .LVU884
 12681 0613 00       		.uleb128 .LVU901
 12682 0614 00       		.uleb128 .LVU902
 12683 0615 00       		.uleb128 0
 12684              	.LLST118:
 12685 0616 06       		.byte	0x6
 12686 0617 0C000000 		.4byte	.LVL98
 12687 061b 04       		.byte	0x4
 12688 061c 00       		.uleb128 .LVL98-.LVL98
 12689 061d 16       		.uleb128 .LVL101-.LVL98
 12690 061e 01       		.uleb128 0x1
 12691 061f 54       		.byte	0x54
 12692 0620 04       		.byte	0x4
 12693 0621 1A       		.uleb128 .LVL102-.LVL98
 12694 0622 44       		.uleb128 .LFE366-.LVL98
 12695 0623 01       		.uleb128 0x1
 12696 0624 54       		.byte	0x54
 12697 0625 00       		.byte	0
 12698              	.LVUS120:
 12699 0626 04       		.uleb128 .LVU893
 12700 0627 06       		.uleb128 .LVU895
 12701 0628 01       		.uleb128 .LVU913
 12702 0629 00       		.uleb128 .LVU916
 12703              	.LLST120:
 12704 062a 06       		.byte	0x6
 12705 062b 14000000 		.4byte	.LVL99
 12706 062f 04       		.byte	0x4
 12707 0630 00       		.uleb128 .LVL99-.LVL99
 12708 0631 00       		.uleb128 .LVL99-.LVL99
 12709 0632 01       		.uleb128 0x1
 12710 0633 55       		.byte	0x55
ARM GAS  C:\Users\DEVELO~1\AppData\Local\Temp\ccUBlV4P.s 			page 224


 12711 0634 04       		.byte	0x4
 12712 0635 1C       		.uleb128 .LVL104-.LVL99
 12713 0636 1E       		.uleb128 .LVL105-.LVL99
 12714 0637 01       		.uleb128 0x1
 12715 0638 55       		.byte	0x55
 12716 0639 00       		.byte	0
 12717              	.LVUS122:
 12718 063a 01       		.uleb128 .LVU903
 12719 063b 01       		.uleb128 .LVU910
 12720              	.LLST122:
 12721 063c 08       		.byte	0x8
 12722 063d 26000000 		.4byte	.LVL102
 12723 0641 06       		.uleb128 .LVL103-.LVL102
 12724 0642 01       		.uleb128 0x1
 12725 0643 55       		.byte	0x55
 12726 0644 00       		.byte	0
 12727              	.LVUS123:
 12728 0645 03       		.uleb128 .LVU905
 12729 0646 01       		.uleb128 .LVU910
 12730              	.LLST123:
 12731 0647 08       		.byte	0x8
 12732 0648 26000000 		.4byte	.LVL102
 12733 064c 06       		.uleb128 .LVL103-.LVL102
 12734 064d 01       		.uleb128 0x1
 12735 064e 53       		.byte	0x53
 12736 064f 00       		.byte	0
 12737              	.LVUS124:
 12738 0650 01       		.uleb128 .LVU923
 12739 0651 00       		.uleb128 0
 12740              	.LLST124:
 12741 0652 08       		.byte	0x8
 12742 0653 42000000 		.4byte	.LVL106
 12743 0657 0E       		.uleb128 .LFE366-.LVL106
 12744 0658 03       		.uleb128 0x3
 12745 0659 74       		.byte	0x74
 12746 065a 24       		.sleb128 36
 12747 065b 9F       		.byte	0x9f
 12748 065c 00       		.byte	0
 12749              	.LVUS102:
 12750 065d 06       		.uleb128 .LVU776
 12751 065e 00       		.uleb128 .LVU778
 12752              	.LLST102:
 12753 065f 08       		.byte	0x8
 12754 0660 00000000 		.4byte	.LVL84
 12755 0664 06       		.uleb128 .LVL85-.LVL84
 12756 0665 03       		.uleb128 0x3
 12757 0666 08       		.byte	0x8
 12758 0667 30       		.byte	0x30
 12759 0668 9F       		.byte	0x9f
 12760 0669 00       		.byte	0
 12761              	.LVUS104:
 12762 066a 0A       		.uleb128 .LVU798
 12763 066b 00       		.uleb128 .LVU800
 12764              	.LLST104:
 12765 066c 08       		.byte	0x8
 12766 066d 0E000000 		.4byte	.LVL86
 12767 0671 04       		.uleb128 .LVL87-.LVL86
ARM GAS  C:\Users\DEVELO~1\AppData\Local\Temp\ccUBlV4P.s 			page 225


 12768 0672 02       		.uleb128 0x2
 12769 0673 30       		.byte	0x30
 12770 0674 9F       		.byte	0x9f
 12771 0675 00       		.byte	0
 12772              	.LVUS98:
 12773 0676 00       		.uleb128 0
 12774 0677 00       		.uleb128 .LVU754
 12775 0678 00       		.uleb128 .LVU754
 12776 0679 00       		.uleb128 0
 12777              	.LLST98:
 12778 067a 06       		.byte	0x6
 12779 067b 00000000 		.4byte	.LVL80
 12780 067f 04       		.byte	0x4
 12781 0680 00       		.uleb128 .LVL80-.LVL80
 12782 0681 0F       		.uleb128 .LVL82-1-.LVL80
 12783 0682 01       		.uleb128 0x1
 12784 0683 50       		.byte	0x50
 12785 0684 04       		.byte	0x4
 12786 0685 0F       		.uleb128 .LVL82-1-.LVL80
 12787 0686 1A       		.uleb128 .LFE363-.LVL80
 12788 0687 01       		.uleb128 0x1
 12789 0688 54       		.byte	0x54
 12790 0689 00       		.byte	0
 12791              	.LVUS100:
 12792 068a 06       		.uleb128 .LVU741
 12793 068b 00       		.uleb128 .LVU747
 12794              	.LLST100:
 12795 068c 08       		.byte	0x8
 12796 068d 00000000 		.4byte	.LVL80
 12797 0691 0A       		.uleb128 .LVL81-.LVL80
 12798 0692 03       		.uleb128 0x3
 12799 0693 08       		.byte	0x8
 12800 0694 30       		.byte	0x30
 12801 0695 9F       		.byte	0x9f
 12802 0696 00       		.byte	0
 12803              	.LVUS101:
 12804 0697 0A       		.uleb128 .LVU764
 12805 0698 00       		.uleb128 .LVU766
 12806              	.LLST101:
 12807 0699 08       		.byte	0x8
 12808 069a 10000000 		.4byte	.LVL82
 12809 069e 06       		.uleb128 .LVL83-.LVL82
 12810 069f 02       		.uleb128 0x2
 12811 06a0 30       		.byte	0x30
 12812 06a1 9F       		.byte	0x9f
 12813 06a2 00       		.byte	0
 12814              	.LVUS77:
 12815 06a3 00       		.uleb128 0
 12816 06a4 00       		.uleb128 .LVU679
 12817 06a5 00       		.uleb128 .LVU679
 12818 06a6 00       		.uleb128 .LVU719
 12819 06a7 00       		.uleb128 .LVU719
 12820 06a8 00       		.uleb128 0
 12821              	.LLST77:
 12822 06a9 06       		.byte	0x6
 12823 06aa 00000000 		.4byte	.LVL64
 12824 06ae 04       		.byte	0x4
ARM GAS  C:\Users\DEVELO~1\AppData\Local\Temp\ccUBlV4P.s 			page 226


 12825 06af 00       		.uleb128 .LVL64-.LVL64
 12826 06b0 1A       		.uleb128 .LVL68-.LVL64
 12827 06b1 01       		.uleb128 0x1
 12828 06b2 50       		.byte	0x50
 12829 06b3 04       		.byte	0x4
 12830 06b4 1A       		.uleb128 .LVL68-.LVL64
 12831 06b5 8D01     		.uleb128 .LVL77-1-.LVL64
 12832 06b7 03       		.uleb128 0x3
 12833 06b8 74       		.byte	0x74
 12834 06b9 B47F     		.sleb128 -76
 12835 06bb 04       		.byte	0x4
 12836 06bc 8D01     		.uleb128 .LVL77-1-.LVL64
 12837 06be A401     		.uleb128 .LFE362-.LVL64
 12838 06c0 04       		.uleb128 0x4
 12839 06c1 A3       		.byte	0xa3
 12840 06c2 01       		.uleb128 0x1
 12841 06c3 50       		.byte	0x50
 12842 06c4 9F       		.byte	0x9f
 12843 06c5 00       		.byte	0
 12844              	.LVUS78:
 12845 06c6 00       		.uleb128 0
 12846 06c7 00       		.uleb128 .LVU620
 12847 06c8 00       		.uleb128 .LVU620
 12848 06c9 00       		.uleb128 0
 12849              	.LLST78:
 12850 06ca 06       		.byte	0x6
 12851 06cb 00000000 		.4byte	.LVL64
 12852 06cf 04       		.byte	0x4
 12853 06d0 00       		.uleb128 .LVL64-.LVL64
 12854 06d1 06       		.uleb128 .LVL66-.LVL64
 12855 06d2 01       		.uleb128 0x1
 12856 06d3 51       		.byte	0x51
 12857 06d4 04       		.byte	0x4
 12858 06d5 06       		.uleb128 .LVL66-.LVL64
 12859 06d6 A401     		.uleb128 .LFE362-.LVL64
 12860 06d8 04       		.uleb128 0x4
 12861 06d9 A3       		.byte	0xa3
 12862 06da 01       		.uleb128 0x1
 12863 06db 51       		.byte	0x51
 12864 06dc 9F       		.byte	0x9f
 12865 06dd 00       		.byte	0
 12866              	.LVUS79:
 12867 06de 00       		.uleb128 0
 12868 06df 00       		.uleb128 .LVU705
 12869 06e0 00       		.uleb128 .LVU705
 12870 06e1 00       		.uleb128 .LVU715
 12871 06e2 00       		.uleb128 .LVU715
 12872 06e3 00       		.uleb128 .LVU719
 12873 06e4 00       		.uleb128 .LVU719
 12874 06e5 00       		.uleb128 0
 12875              	.LLST79:
 12876 06e6 06       		.byte	0x6
 12877 06e7 00000000 		.4byte	.LVL64
 12878 06eb 04       		.byte	0x4
 12879 06ec 00       		.uleb128 .LVL64-.LVL64
 12880 06ed 74       		.uleb128 .LVL72-.LVL64
 12881 06ee 01       		.uleb128 0x1
ARM GAS  C:\Users\DEVELO~1\AppData\Local\Temp\ccUBlV4P.s 			page 227


 12882 06ef 52       		.byte	0x52
 12883 06f0 04       		.byte	0x4
 12884 06f1 74       		.uleb128 .LVL72-.LVL64
 12885 06f2 8801     		.uleb128 .LVL75-.LVL64
 12886 06f4 03       		.uleb128 0x3
 12887 06f5 74       		.byte	0x74
 12888 06f6 A87F     		.sleb128 -88
 12889 06f8 04       		.byte	0x4
 12890 06f9 8801     		.uleb128 .LVL75-.LVL64
 12891 06fb 8D01     		.uleb128 .LVL77-1-.LVL64
 12892 06fd 02       		.uleb128 0x2
 12893 06fe 74       		.byte	0x74
 12894 06ff 6C       		.sleb128 -20
 12895 0700 04       		.byte	0x4
 12896 0701 8D01     		.uleb128 .LVL77-1-.LVL64
 12897 0703 A401     		.uleb128 .LFE362-.LVL64
 12898 0705 04       		.uleb128 0x4
 12899 0706 A3       		.byte	0xa3
 12900 0707 01       		.uleb128 0x1
 12901 0708 52       		.byte	0x52
 12902 0709 9F       		.byte	0x9f
 12903 070a 00       		.byte	0
 12904              	.LVUS80:
 12905 070b 00       		.uleb128 0
 12906 070c 00       		.uleb128 .LVU683
 12907 070d 00       		.uleb128 .LVU683
 12908 070e 00       		.uleb128 .LVU687
 12909 070f 00       		.uleb128 .LVU687
 12910 0710 00       		.uleb128 .LVU708
 12911 0711 00       		.uleb128 .LVU708
 12912 0712 00       		.uleb128 .LVU719
 12913 0713 00       		.uleb128 .LVU719
 12914 0714 00       		.uleb128 0
 12915              	.LLST80:
 12916 0715 06       		.byte	0x6
 12917 0716 00000000 		.4byte	.LVL64
 12918 071a 04       		.byte	0x4
 12919 071b 00       		.uleb128 .LVL64-.LVL64
 12920 071c 26       		.uleb128 .LVL69-.LVL64
 12921 071d 01       		.uleb128 0x1
 12922 071e 53       		.byte	0x53
 12923 071f 04       		.byte	0x4
 12924 0720 26       		.uleb128 .LVL69-.LVL64
 12925 0721 34       		.uleb128 .LVL70-.LVL64
 12926 0722 03       		.uleb128 0x3
 12927 0723 74       		.byte	0x74
 12928 0724 FC7E     		.sleb128 -132
 12929 0726 04       		.byte	0x4
 12930 0727 34       		.uleb128 .LVL70-.LVL64
 12931 0728 78       		.uleb128 .LVL73-.LVL64
 12932 0729 02       		.uleb128 0x2
 12933 072a 70       		.byte	0x70
 12934 072b 00       		.sleb128 0
 12935 072c 04       		.byte	0x4
 12936 072d 78       		.uleb128 .LVL73-.LVL64
 12937 072e 8D01     		.uleb128 .LVL77-1-.LVL64
 12938 0730 04       		.uleb128 0x4
ARM GAS  C:\Users\DEVELO~1\AppData\Local\Temp\ccUBlV4P.s 			page 228


 12939 0731 74       		.byte	0x74
 12940 0732 AC7F     		.sleb128 -84
 12941 0734 06       		.byte	0x6
 12942 0735 04       		.byte	0x4
 12943 0736 8D01     		.uleb128 .LVL77-1-.LVL64
 12944 0738 A401     		.uleb128 .LFE362-.LVL64
 12945 073a 04       		.uleb128 0x4
 12946 073b A3       		.byte	0xa3
 12947 073c 01       		.uleb128 0x1
 12948 073d 53       		.byte	0x53
 12949 073e 9F       		.byte	0x9f
 12950 073f 00       		.byte	0
 12951              	.LVUS81:
 12952 0740 00       		.uleb128 0
 12953 0741 00       		.uleb128 .LVU734
 12954 0742 00       		.uleb128 .LVU734
 12955 0743 00       		.uleb128 0
 12956              	.LLST81:
 12957 0744 06       		.byte	0x6
 12958 0745 00000000 		.4byte	.LVL64
 12959 0749 04       		.byte	0x4
 12960 074a 00       		.uleb128 .LVL64-.LVL64
 12961 074b 9601     		.uleb128 .LVL79-.LVL64
 12962 074d 02       		.uleb128 0x2
 12963 074e 91       		.byte	0x91
 12964 074f 00       		.sleb128 0
 12965 0750 04       		.byte	0x4
 12966 0751 9601     		.uleb128 .LVL79-.LVL64
 12967 0753 A401     		.uleb128 .LFE362-.LVL64
 12968 0755 02       		.uleb128 0x2
 12969 0756 7D       		.byte	0x7d
 12970 0757 00       		.sleb128 0
 12971 0758 00       		.byte	0
 12972              	.LVUS82:
 12973 0759 26       		.uleb128 .LVU664
 12974 075a 00       		.uleb128 .LVU734
 12975 075b 00       		.uleb128 .LVU734
 12976 075c 00       		.uleb128 0
 12977              	.LLST82:
 12978 075d 06       		.byte	0x6
 12979 075e 18000000 		.4byte	.LVL67
 12980 0762 04       		.byte	0x4
 12981 0763 00       		.uleb128 .LVL67-.LVL67
 12982 0764 7E       		.uleb128 .LVL79-.LVL67
 12983 0765 01       		.uleb128 0x1
 12984 0766 56       		.byte	0x56
 12985 0767 04       		.byte	0x4
 12986 0768 7E       		.uleb128 .LVL79-.LVL67
 12987 0769 8C01     		.uleb128 .LFE362-.LVL67
 12988 076b 01       		.uleb128 0x1
 12989 076c 50       		.byte	0x50
 12990 076d 00       		.byte	0
 12991              	.LVUS83:
 12992 076e 00       		.uleb128 .LVU617
 12993 076f 00       		.uleb128 .LVU734
 12994 0770 00       		.uleb128 .LVU734
 12995 0771 00       		.uleb128 0
ARM GAS  C:\Users\DEVELO~1\AppData\Local\Temp\ccUBlV4P.s 			page 229


 12996              	.LLST83:
 12997 0772 06       		.byte	0x6
 12998 0773 04000000 		.4byte	.LVL65
 12999 0777 04       		.byte	0x4
 13000 0778 00       		.uleb128 .LVL65-.LVL65
 13001 0779 9201     		.uleb128 .LVL79-.LVL65
 13002 077b 01       		.uleb128 0x1
 13003 077c 54       		.byte	0x54
 13004 077d 04       		.byte	0x4
 13005 077e 9201     		.uleb128 .LVL79-.LVL65
 13006 0780 A001     		.uleb128 .LFE362-.LVL65
 13007 0782 04       		.uleb128 0x4
 13008 0783 70       		.byte	0x70
 13009 0784 E000     		.sleb128 96
 13010 0786 9F       		.byte	0x9f
 13011 0787 00       		.byte	0
 13012              	.LVUS84:
 13013 0788 01       		.uleb128 .LVU618
 13014 0789 00       		.uleb128 .LVU679
 13015 078a 00       		.uleb128 .LVU679
 13016 078b 00       		.uleb128 .LVU719
 13017 078c 00       		.uleb128 .LVU719
 13018 078d 00       		.uleb128 0
 13019              	.LLST84:
 13020 078e 06       		.byte	0x6
 13021 078f 04000000 		.4byte	.LVL65
 13022 0793 04       		.byte	0x4
 13023 0794 00       		.uleb128 .LVL65-.LVL65
 13024 0795 16       		.uleb128 .LVL68-.LVL65
 13025 0796 01       		.uleb128 0x1
 13026 0797 50       		.byte	0x50
 13027 0798 04       		.byte	0x4
 13028 0799 16       		.uleb128 .LVL68-.LVL65
 13029 079a 8901     		.uleb128 .LVL77-1-.LVL65
 13030 079c 03       		.uleb128 0x3
 13031 079d 74       		.byte	0x74
 13032 079e B47F     		.sleb128 -76
 13033 07a0 04       		.byte	0x4
 13034 07a1 8901     		.uleb128 .LVL77-1-.LVL65
 13035 07a3 A001     		.uleb128 .LFE362-.LVL65
 13036 07a5 04       		.uleb128 0x4
 13037 07a6 A3       		.byte	0xa3
 13038 07a7 01       		.uleb128 0x1
 13039 07a8 50       		.byte	0x50
 13040 07a9 9F       		.byte	0x9f
 13041 07aa 00       		.byte	0
 13042              	.LVUS85:
 13043 07ab 00       		.uleb128 .LVU626
 13044 07ac 00       		.uleb128 .LVU734
 13045 07ad 00       		.uleb128 .LVU734
 13046 07ae 00       		.uleb128 0
 13047              	.LLST85:
 13048 07af 06       		.byte	0x6
 13049 07b0 18000000 		.4byte	.LVL67
 13050 07b4 04       		.byte	0x4
 13051 07b5 00       		.uleb128 .LVL67-.LVL67
 13052 07b6 7E       		.uleb128 .LVL79-.LVL67
ARM GAS  C:\Users\DEVELO~1\AppData\Local\Temp\ccUBlV4P.s 			page 230


 13053 07b7 01       		.uleb128 0x1
 13054 07b8 56       		.byte	0x56
 13055 07b9 04       		.byte	0x4
 13056 07ba 7E       		.uleb128 .LVL79-.LVL67
 13057 07bb 8C01     		.uleb128 .LFE362-.LVL67
 13058 07bd 01       		.uleb128 0x1
 13059 07be 50       		.byte	0x50
 13060 07bf 00       		.byte	0
 13061              	.LVUS87:
 13062 07c0 05       		.uleb128 .LVU631
 13063 07c1 26       		.uleb128 .LVU664
 13064              	.LLST87:
 13065 07c2 08       		.byte	0x8
 13066 07c3 18000000 		.4byte	.LVL67
 13067 07c7 00       		.uleb128 .LVL67-.LVL67
 13068 07c8 06       		.uleb128 0x6
 13069 07c9 A0       		.byte	0xa0
 13070 07ca D71E0000 		.4byte	.Ldebug_info0+7895
 13071 07ce 00       		.sleb128 0
 13072 07cf 00       		.byte	0
 13073              	.LVUS88:
 13074 07d0 05       		.uleb128 .LVU631
 13075 07d1 26       		.uleb128 .LVU664
 13076              	.LLST88:
 13077 07d2 08       		.byte	0x8
 13078 07d3 18000000 		.4byte	.LVL67
 13079 07d7 00       		.uleb128 .LVL67-.LVL67
 13080 07d8 01       		.uleb128 0x1
 13081 07d9 56       		.byte	0x56
 13082 07da 00       		.byte	0
 13083              	.LVUS90:
 13084 07db 16       		.uleb128 .LVU648
 13085 07dc 18       		.uleb128 .LVU650
 13086              	.LLST90:
 13087 07dd 08       		.byte	0x8
 13088 07de 18000000 		.4byte	.LVL67
 13089 07e2 00       		.uleb128 .LVL67-.LVL67
 13090 07e3 01       		.uleb128 0x1
 13091 07e4 51       		.byte	0x51
 13092 07e5 00       		.byte	0
 13093              	.LVUS93:
 13094 07e6 32       		.uleb128 .LVU676
 13095 07e7 00       		.uleb128 .LVU701
 13096              	.LLST93:
 13097 07e8 08       		.byte	0x8
 13098 07e9 18000000 		.4byte	.LVL67
 13099 07ed 54       		.uleb128 .LVL71-.LVL67
 13100 07ee 03       		.uleb128 0x3
 13101 07ef 08       		.byte	0x8
 13102 07f0 30       		.byte	0x30
 13103 07f1 9F       		.byte	0x9f
 13104 07f2 00       		.byte	0
 13105              	.LVUS95:
 13106 07f3 00       		.uleb128 .LVU705
 13107 07f4 00       		.uleb128 .LVU717
 13108              	.LLST95:
 13109 07f5 08       		.byte	0x8
ARM GAS  C:\Users\DEVELO~1\AppData\Local\Temp\ccUBlV4P.s 			page 231


 13110 07f6 74000000 		.4byte	.LVL72
 13111 07fa 16       		.uleb128 .LVL76-.LVL72
 13112 07fb 01       		.uleb128 0x1
 13113 07fc 52       		.byte	0x52
 13114 07fd 00       		.byte	0
 13115              	.LVUS96:
 13116 07fe 00       		.uleb128 .LVU705
 13117 07ff 00       		.uleb128 .LVU710
 13118 0800 00       		.uleb128 .LVU710
 13119 0801 00       		.uleb128 .LVU717
 13120              	.LLST96:
 13121 0802 06       		.byte	0x6
 13122 0803 74000000 		.4byte	.LVL72
 13123 0807 04       		.byte	0x4
 13124 0808 00       		.uleb128 .LVL72-.LVL72
 13125 0809 0A       		.uleb128 .LVL74-.LVL72
 13126 080a 03       		.uleb128 0x3
 13127 080b 73       		.byte	0x73
 13128 080c 30       		.sleb128 48
 13129 080d 9F       		.byte	0x9f
 13130 080e 04       		.byte	0x4
 13131 080f 0A       		.uleb128 .LVL74-.LVL72
 13132 0810 16       		.uleb128 .LVL76-.LVL72
 13133 0811 01       		.uleb128 0x1
 13134 0812 5C       		.byte	0x5c
 13135 0813 00       		.byte	0
 13136              	.LVUS97:
 13137 0814 0A       		.uleb128 .LVU729
 13138 0815 00       		.uleb128 .LVU731
 13139              	.LLST97:
 13140 0816 08       		.byte	0x8
 13141 0817 8E000000 		.4byte	.LVL77
 13142 081b 04       		.uleb128 .LVL78-.LVL77
 13143 081c 02       		.uleb128 0x2
 13144 081d 30       		.byte	0x30
 13145 081e 9F       		.byte	0x9f
 13146 081f 00       		.byte	0
 13147              	.LVUS72:
 13148 0820 00       		.uleb128 0
 13149 0821 00       		.uleb128 .LVU583
 13150 0822 00       		.uleb128 .LVU583
 13151 0823 00       		.uleb128 0
 13152              	.LLST72:
 13153 0824 06       		.byte	0x6
 13154 0825 00000000 		.4byte	.LVL58
 13155 0829 04       		.byte	0x4
 13156 082a 00       		.uleb128 .LVL58-.LVL58
 13157 082b 0B       		.uleb128 .LVL60-1-.LVL58
 13158 082c 01       		.uleb128 0x1
 13159 082d 50       		.byte	0x50
 13160 082e 04       		.byte	0x4
 13161 082f 0B       		.uleb128 .LVL60-1-.LVL58
 13162 0830 1E       		.uleb128 .LFE361-.LVL58
 13163 0831 04       		.uleb128 0x4
 13164 0832 A3       		.byte	0xa3
 13165 0833 01       		.uleb128 0x1
 13166 0834 50       		.byte	0x50
ARM GAS  C:\Users\DEVELO~1\AppData\Local\Temp\ccUBlV4P.s 			page 232


 13167 0835 9F       		.byte	0x9f
 13168 0836 00       		.byte	0
 13169              	.LVUS73:
 13170 0837 00       		.uleb128 .LVU585
 13171 0838 00       		.uleb128 .LVU586
 13172 0839 00       		.uleb128 .LVU586
 13173 083a 00       		.uleb128 0
 13174              	.LLST73:
 13175 083b 06       		.byte	0x6
 13176 083c 10000000 		.4byte	.LVL61
 13177 0840 04       		.byte	0x4
 13178 0841 00       		.uleb128 .LVL61-.LVL61
 13179 0842 03       		.uleb128 .LVL62-1-.LVL61
 13180 0843 01       		.uleb128 0x1
 13181 0844 50       		.byte	0x50
 13182 0845 04       		.byte	0x4
 13183 0846 03       		.uleb128 .LVL62-1-.LVL61
 13184 0847 0E       		.uleb128 .LFE361-.LVL61
 13185 0848 01       		.uleb128 0x1
 13186 0849 54       		.byte	0x54
 13187 084a 00       		.byte	0
 13188              	.LVUS75:
 13189 084b 0A       		.uleb128 .LVU574
 13190 084c 00       		.uleb128 .LVU578
 13191              	.LLST75:
 13192 084d 08       		.byte	0x8
 13193 084e 00000000 		.4byte	.LVL58
 13194 0852 08       		.uleb128 .LVL59-.LVL58
 13195 0853 03       		.uleb128 0x3
 13196 0854 08       		.byte	0x8
 13197 0855 30       		.byte	0x30
 13198 0856 9F       		.byte	0x9f
 13199 0857 00       		.byte	0
 13200              	.LVUS76:
 13201 0858 0A       		.uleb128 .LVU596
 13202 0859 00       		.uleb128 .LVU598
 13203              	.LLST76:
 13204 085a 08       		.byte	0x8
 13205 085b 14000000 		.4byte	.LVL62
 13206 085f 06       		.uleb128 .LVL63-.LVL62
 13207 0860 02       		.uleb128 0x2
 13208 0861 30       		.byte	0x30
 13209 0862 9F       		.byte	0x9f
 13210 0863 00       		.byte	0
 13211              	.LVUS71:
 13212 0864 00       		.uleb128 0
 13213 0865 00       		.uleb128 .LVU562
 13214 0866 00       		.uleb128 .LVU562
 13215 0867 00       		.uleb128 0
 13216              	.LLST71:
 13217 0868 06       		.byte	0x6
 13218 0869 00000000 		.4byte	.LVL55
 13219 086d 04       		.byte	0x4
 13220 086e 00       		.uleb128 .LVL55-.LVL55
 13221 086f 05       		.uleb128 .LVL56-1-.LVL55
 13222 0870 01       		.uleb128 0x1
 13223 0871 50       		.byte	0x50
ARM GAS  C:\Users\DEVELO~1\AppData\Local\Temp\ccUBlV4P.s 			page 233


 13224 0872 04       		.byte	0x4
 13225 0873 05       		.uleb128 .LVL56-1-.LVL55
 13226 0874 0E       		.uleb128 .LFE360-.LVL55
 13227 0875 04       		.uleb128 0x4
 13228 0876 A3       		.byte	0xa3
 13229 0877 01       		.uleb128 0x1
 13230 0878 50       		.byte	0x50
 13231 0879 9F       		.byte	0x9f
 13232 087a 00       		.byte	0
 13233              	.LVUS52:
 13234 087b 00       		.uleb128 0
 13235 087c 00       		.uleb128 .LVU458
 13236 087d 00       		.uleb128 .LVU458
 13237 087e 00       		.uleb128 .LVU496
 13238 087f 00       		.uleb128 .LVU496
 13239 0880 00       		.uleb128 .LVU557
 13240 0881 00       		.uleb128 .LVU557
 13241 0882 00       		.uleb128 0
 13242              	.LLST52:
 13243 0883 06       		.byte	0x6
 13244 0884 00000000 		.4byte	.LVL44
 13245 0888 04       		.byte	0x4
 13246 0889 00       		.uleb128 .LVL44-.LVL44
 13247 088a 0C       		.uleb128 .LVL46-.LVL44
 13248 088b 01       		.uleb128 0x1
 13249 088c 50       		.byte	0x50
 13250 088d 04       		.byte	0x4
 13251 088e 0C       		.uleb128 .LVL46-.LVL44
 13252 088f 5A       		.uleb128 .LVL50-.LVL44
 13253 0890 01       		.uleb128 0x1
 13254 0891 52       		.byte	0x52
 13255 0892 04       		.byte	0x4
 13256 0893 5A       		.uleb128 .LVL50-.LVL44
 13257 0894 9201     		.uleb128 .LVL54-.LVL44
 13258 0896 04       		.uleb128 0x4
 13259 0897 A3       		.byte	0xa3
 13260 0898 01       		.uleb128 0x1
 13261 0899 50       		.byte	0x50
 13262 089a 9F       		.byte	0x9f
 13263 089b 04       		.byte	0x4
 13264 089c 9201     		.uleb128 .LVL54-.LVL44
 13265 089e A001     		.uleb128 .LFE359-.LVL44
 13266 08a0 01       		.uleb128 0x1
 13267 08a1 52       		.byte	0x52
 13268 08a2 00       		.byte	0
 13269              	.LVUS53:
 13270 08a3 02       		.uleb128 .LVU541
 13271 08a4 00       		.uleb128 .LVU557
 13272              	.LLST53:
 13273 08a5 08       		.byte	0x8
 13274 08a6 8A000000 		.4byte	.LVL52
 13275 08aa 08       		.uleb128 .LVL54-.LVL52
 13276 08ab 01       		.uleb128 0x1
 13277 08ac 50       		.byte	0x50
 13278 08ad 00       		.byte	0
 13279              	.LVUS55:
 13280 08ae 0A       		.uleb128 .LVU437
ARM GAS  C:\Users\DEVELO~1\AppData\Local\Temp\ccUBlV4P.s 			page 234


 13281 08af 00       		.uleb128 .LVU441
 13282              	.LLST55:
 13283 08b0 08       		.byte	0x8
 13284 08b1 00000000 		.4byte	.LVL44
 13285 08b5 0A       		.uleb128 .LVL45-.LVL44
 13286 08b6 03       		.uleb128 0x3
 13287 08b7 08       		.byte	0x8
 13288 08b8 30       		.byte	0x30
 13289 08b9 9F       		.byte	0x9f
 13290 08ba 00       		.byte	0
 13291              	.LVUS57:
 13292 08bb 04       		.uleb128 .LVU445
 13293 08bc 00       		.uleb128 .LVU458
 13294 08bd 00       		.uleb128 .LVU458
 13295 08be 00       		.uleb128 .LVU496
 13296 08bf 00       		.uleb128 .LVU496
 13297 08c0 02       		.uleb128 .LVU541
 13298 08c1 00       		.uleb128 .LVU557
 13299 08c2 00       		.uleb128 0
 13300              	.LLST57:
 13301 08c3 06       		.byte	0x6
 13302 08c4 0A000000 		.4byte	.LVL45
 13303 08c8 04       		.byte	0x4
 13304 08c9 00       		.uleb128 .LVL45-.LVL45
 13305 08ca 02       		.uleb128 .LVL46-.LVL45
 13306 08cb 01       		.uleb128 0x1
 13307 08cc 50       		.byte	0x50
 13308 08cd 04       		.byte	0x4
 13309 08ce 02       		.uleb128 .LVL46-.LVL45
 13310 08cf 50       		.uleb128 .LVL50-.LVL45
 13311 08d0 01       		.uleb128 0x1
 13312 08d1 52       		.byte	0x52
 13313 08d2 04       		.byte	0x4
 13314 08d3 50       		.uleb128 .LVL50-.LVL45
 13315 08d4 8001     		.uleb128 .LVL52-.LVL45
 13316 08d6 04       		.uleb128 0x4
 13317 08d7 A3       		.byte	0xa3
 13318 08d8 01       		.uleb128 0x1
 13319 08d9 50       		.byte	0x50
 13320 08da 9F       		.byte	0x9f
 13321 08db 04       		.byte	0x4
 13322 08dc 8801     		.uleb128 .LVL54-.LVL45
 13323 08de 9601     		.uleb128 .LFE359-.LVL45
 13324 08e0 01       		.uleb128 0x1
 13325 08e1 52       		.byte	0x52
 13326 08e2 00       		.byte	0
 13327              	.LVUS58:
 13328 08e3 11       		.uleb128 .LVU523
 13329 08e4 02       		.uleb128 .LVU541
 13330              	.LLST58:
 13331 08e5 08       		.byte	0x8
 13332 08e6 82000000 		.4byte	.LVL51
 13333 08ea 08       		.uleb128 .LVL52-.LVL51
 13334 08eb 01       		.uleb128 0x1
 13335 08ec 50       		.byte	0x50
 13336 08ed 00       		.byte	0
 13337              	.LVUS59:
ARM GAS  C:\Users\DEVELO~1\AppData\Local\Temp\ccUBlV4P.s 			page 235


 13338 08ee 0F       		.uleb128 .LVU456
 13339 08ef 00       		.uleb128 .LVU458
 13340 08f0 00       		.uleb128 .LVU458
 13341 08f1 00       		.uleb128 .LVU462
 13342 08f2 00       		.uleb128 .LVU462
 13343 08f3 00       		.uleb128 .LVU489
 13344 08f4 00       		.uleb128 .LVU489
 13345 08f5 00       		.uleb128 .LVU557
 13346 08f6 00       		.uleb128 .LVU557
 13347 08f7 00       		.uleb128 0
 13348              	.LLST59:
 13349 08f8 06       		.byte	0x6
 13350 08f9 0A000000 		.4byte	.LVL45
 13351 08fd 04       		.byte	0x4
 13352 08fe 00       		.uleb128 .LVL45-.LVL45
 13353 08ff 02       		.uleb128 .LVL46-.LVL45
 13354 0900 02       		.uleb128 0x2
 13355 0901 70       		.byte	0x70
 13356 0902 04       		.sleb128 4
 13357 0903 04       		.byte	0x4
 13358 0904 02       		.uleb128 .LVL46-.LVL45
 13359 0905 0E       		.uleb128 .LVL47-.LVL45
 13360 0906 02       		.uleb128 0x2
 13361 0907 72       		.byte	0x72
 13362 0908 04       		.sleb128 4
 13363 0909 04       		.byte	0x4
 13364 090a 0E       		.uleb128 .LVL47-.LVL45
 13365 090b 2E       		.uleb128 .LVL49-.LVL45
 13366 090c 01       		.uleb128 0x1
 13367 090d 55       		.byte	0x55
 13368 090e 04       		.byte	0x4
 13369 090f 2E       		.uleb128 .LVL49-.LVL45
 13370 0910 8801     		.uleb128 .LVL54-.LVL45
 13371 0912 03       		.uleb128 0x3
 13372 0913 73       		.byte	0x73
 13373 0914 B47F     		.sleb128 -76
 13374 0916 04       		.byte	0x4
 13375 0917 8801     		.uleb128 .LVL54-.LVL45
 13376 0919 9601     		.uleb128 .LFE359-.LVL45
 13377 091b 01       		.uleb128 0x1
 13378 091c 55       		.byte	0x55
 13379 091d 00       		.byte	0
 13380              	.LVUS60:
 13381 091e 00       		.uleb128 .LVU464
 13382 091f 02       		.uleb128 .LVU541
 13383 0920 00       		.uleb128 .LVU557
 13384 0921 00       		.uleb128 0
 13385              	.LLST60:
 13386 0922 06       		.byte	0x6
 13387 0923 1C000000 		.4byte	.LVL48
 13388 0927 04       		.byte	0x4
 13389 0928 00       		.uleb128 .LVL48-.LVL48
 13390 0929 6E       		.uleb128 .LVL52-.LVL48
 13391 092a 01       		.uleb128 0x1
 13392 092b 50       		.byte	0x50
 13393 092c 04       		.byte	0x4
 13394 092d 76       		.uleb128 .LVL54-.LVL48
ARM GAS  C:\Users\DEVELO~1\AppData\Local\Temp\ccUBlV4P.s 			page 236


 13395 092e 8401     		.uleb128 .LFE359-.LVL48
 13396 0930 01       		.uleb128 0x1
 13397 0931 50       		.byte	0x50
 13398 0932 00       		.byte	0
 13399              	.LVUS62:
 13400 0933 04       		.uleb128 .LVU468
 13401 0934 00       		.uleb128 .LVU496
 13402 0935 00       		.uleb128 .LVU496
 13403 0936 11       		.uleb128 .LVU523
 13404 0937 00       		.uleb128 .LVU557
 13405 0938 00       		.uleb128 0
 13406              	.LLST62:
 13407 0939 06       		.byte	0x6
 13408 093a 1C000000 		.4byte	.LVL48
 13409 093e 04       		.byte	0x4
 13410 093f 00       		.uleb128 .LVL48-.LVL48
 13411 0940 3E       		.uleb128 .LVL50-.LVL48
 13412 0941 01       		.uleb128 0x1
 13413 0942 52       		.byte	0x52
 13414 0943 04       		.byte	0x4
 13415 0944 3E       		.uleb128 .LVL50-.LVL48
 13416 0945 66       		.uleb128 .LVL51-.LVL48
 13417 0946 04       		.uleb128 0x4
 13418 0947 A3       		.byte	0xa3
 13419 0948 01       		.uleb128 0x1
 13420 0949 50       		.byte	0x50
 13421 094a 9F       		.byte	0x9f
 13422 094b 04       		.byte	0x4
 13423 094c 76       		.uleb128 .LVL54-.LVL48
 13424 094d 8401     		.uleb128 .LFE359-.LVL48
 13425 094f 01       		.uleb128 0x1
 13426 0950 52       		.byte	0x52
 13427 0951 00       		.byte	0
 13428              	.LVUS63:
 13429 0952 04       		.uleb128 .LVU468
 13430 0953 11       		.uleb128 .LVU523
 13431 0954 00       		.uleb128 .LVU557
 13432 0955 00       		.uleb128 0
 13433              	.LLST63:
 13434 0956 06       		.byte	0x6
 13435 0957 1C000000 		.4byte	.LVL48
 13436 095b 04       		.byte	0x4
 13437 095c 00       		.uleb128 .LVL48-.LVL48
 13438 095d 66       		.uleb128 .LVL51-.LVL48
 13439 095e 01       		.uleb128 0x1
 13440 095f 50       		.byte	0x50
 13441 0960 04       		.byte	0x4
 13442 0961 76       		.uleb128 .LVL54-.LVL48
 13443 0962 8401     		.uleb128 .LFE359-.LVL48
 13444 0964 01       		.uleb128 0x1
 13445 0965 50       		.byte	0x50
 13446 0966 00       		.byte	0
 13447              	.LVUS66:
 13448 0967 01       		.uleb128 .LVU507
 13449 0968 03       		.uleb128 .LVU509
 13450              	.LLST66:
 13451 0969 08       		.byte	0x8
ARM GAS  C:\Users\DEVELO~1\AppData\Local\Temp\ccUBlV4P.s 			page 237


 13452 096a 82000000 		.4byte	.LVL51
 13453 096e 00       		.uleb128 .LVL51-.LVL51
 13454 096f 03       		.uleb128 0x3
 13455 0970 73       		.byte	0x73
 13456 0971 58       		.sleb128 -40
 13457 0972 9F       		.byte	0x9f
 13458 0973 00       		.byte	0
 13459              	.LVUS68:
 13460 0974 19       		.uleb128 .LVU531
 13461 0975 00       		.uleb128 .LVU539
 13462              	.LLST68:
 13463 0976 08       		.byte	0x8
 13464 0977 82000000 		.4byte	.LVL51
 13465 097b 08       		.uleb128 .LVL52-.LVL51
 13466 097c 01       		.uleb128 0x1
 13467 097d 54       		.byte	0x54
 13468 097e 00       		.byte	0
 13469              	.LVUS69:
 13470 097f 19       		.uleb128 .LVU531
 13471 0980 00       		.uleb128 .LVU539
 13472              	.LLST69:
 13473 0981 08       		.byte	0x8
 13474 0982 82000000 		.4byte	.LVL51
 13475 0986 08       		.uleb128 .LVL52-.LVL51
 13476 0987 01       		.uleb128 0x1
 13477 0988 56       		.byte	0x56
 13478 0989 00       		.byte	0
 13479              	.LVUS70:
 13480 098a 0D       		.uleb128 .LVU552
 13481 098b 00       		.uleb128 .LVU554
 13482              	.LLST70:
 13483 098c 08       		.byte	0x8
 13484 098d 8A000000 		.4byte	.LVL52
 13485 0991 04       		.uleb128 .LVL53-.LVL52
 13486 0992 02       		.uleb128 0x2
 13487 0993 30       		.byte	0x30
 13488 0994 9F       		.byte	0x9f
 13489 0995 00       		.byte	0
 13490              	.LVUS34:
 13491 0996 00       		.uleb128 0
 13492 0997 00       		.uleb128 .LVU307
 13493 0998 00       		.uleb128 .LVU307
 13494 0999 00       		.uleb128 .LVU309
 13495 099a 00       		.uleb128 .LVU309
 13496 099b 00       		.uleb128 .LVU310
 13497 099c 00       		.uleb128 .LVU310
 13498 099d 00       		.uleb128 0
 13499              	.LLST34:
 13500 099e 06       		.byte	0x6
 13501 099f 00000000 		.4byte	.LVL28
 13502 09a3 04       		.byte	0x4
 13503 09a4 00       		.uleb128 .LVL28-.LVL28
 13504 09a5 0C       		.uleb128 .LVL30-.LVL28
 13505 09a6 01       		.uleb128 0x1
 13506 09a7 50       		.byte	0x50
 13507 09a8 04       		.byte	0x4
 13508 09a9 0C       		.uleb128 .LVL30-.LVL28
ARM GAS  C:\Users\DEVELO~1\AppData\Local\Temp\ccUBlV4P.s 			page 238


 13509 09aa 10       		.uleb128 .LVL31-.LVL28
 13510 09ab 04       		.uleb128 0x4
 13511 09ac A3       		.byte	0xa3
 13512 09ad 01       		.uleb128 0x1
 13513 09ae 50       		.byte	0x50
 13514 09af 9F       		.byte	0x9f
 13515 09b0 04       		.byte	0x4
 13516 09b1 10       		.uleb128 .LVL31-.LVL28
 13517 09b2 13       		.uleb128 .LVL32-1-.LVL28
 13518 09b3 01       		.uleb128 0x1
 13519 09b4 50       		.byte	0x50
 13520 09b5 04       		.byte	0x4
 13521 09b6 13       		.uleb128 .LVL32-1-.LVL28
 13522 09b7 1E       		.uleb128 .LFE357-.LVL28
 13523 09b8 01       		.uleb128 0x1
 13524 09b9 54       		.byte	0x54
 13525 09ba 00       		.byte	0
 13526              	.LVUS35:
 13527 09bb 00       		.uleb128 0
 13528 09bc 00       		.uleb128 .LVU307
 13529 09bd 00       		.uleb128 .LVU307
 13530 09be 00       		.uleb128 0
 13531              	.LLST35:
 13532 09bf 06       		.byte	0x6
 13533 09c0 00000000 		.4byte	.LVL28
 13534 09c4 04       		.byte	0x4
 13535 09c5 00       		.uleb128 .LVL28-.LVL28
 13536 09c6 0B       		.uleb128 .LVL30-1-.LVL28
 13537 09c7 01       		.uleb128 0x1
 13538 09c8 51       		.byte	0x51
 13539 09c9 04       		.byte	0x4
 13540 09ca 0B       		.uleb128 .LVL30-1-.LVL28
 13541 09cb 1E       		.uleb128 .LFE357-.LVL28
 13542 09cc 04       		.uleb128 0x4
 13543 09cd A3       		.byte	0xa3
 13544 09ce 01       		.uleb128 0x1
 13545 09cf 51       		.byte	0x51
 13546 09d0 9F       		.byte	0x9f
 13547 09d1 00       		.byte	0
 13548              	.LVUS37:
 13549 09d2 0A       		.uleb128 .LVU298
 13550 09d3 00       		.uleb128 .LVU302
 13551              	.LLST37:
 13552 09d4 08       		.byte	0x8
 13553 09d5 00000000 		.4byte	.LVL28
 13554 09d9 08       		.uleb128 .LVL29-.LVL28
 13555 09da 03       		.uleb128 0x3
 13556 09db 08       		.byte	0x8
 13557 09dc 30       		.byte	0x30
 13558 09dd 9F       		.byte	0x9f
 13559 09de 00       		.byte	0
 13560              	.LVUS38:
 13561 09df 0A       		.uleb128 .LVU320
 13562 09e0 00       		.uleb128 .LVU322
 13563              	.LLST38:
 13564 09e1 08       		.byte	0x8
 13565 09e2 14000000 		.4byte	.LVL32
ARM GAS  C:\Users\DEVELO~1\AppData\Local\Temp\ccUBlV4P.s 			page 239


 13566 09e6 06       		.uleb128 .LVL33-.LVL32
 13567 09e7 02       		.uleb128 0x2
 13568 09e8 30       		.byte	0x30
 13569 09e9 9F       		.byte	0x9f
 13570 09ea 00       		.byte	0
 13571              	.LVUS32:
 13572 09eb 00       		.uleb128 0
 13573 09ec 00       		.uleb128 .LVU286
 13574 09ed 00       		.uleb128 .LVU286
 13575 09ee 00       		.uleb128 0
 13576              	.LLST32:
 13577 09ef 06       		.byte	0x6
 13578 09f0 00000000 		.4byte	.LVL25
 13579 09f4 04       		.byte	0x4
 13580 09f5 00       		.uleb128 .LVL25-.LVL25
 13581 09f6 06       		.uleb128 .LVL26-.LVL25
 13582 09f7 01       		.uleb128 0x1
 13583 09f8 50       		.byte	0x50
 13584 09f9 04       		.byte	0x4
 13585 09fa 06       		.uleb128 .LVL26-.LVL25
 13586 09fb 0E       		.uleb128 .LFE356-.LVL25
 13587 09fc 04       		.uleb128 0x4
 13588 09fd A3       		.byte	0xa3
 13589 09fe 01       		.uleb128 0x1
 13590 09ff 50       		.byte	0x50
 13591 0a00 9F       		.byte	0x9f
 13592 0a01 00       		.byte	0
 13593              	.LVUS33:
 13594 0a02 00       		.uleb128 0
 13595 0a03 00       		.uleb128 .LVU286
 13596 0a04 00       		.uleb128 .LVU286
 13597 0a05 00       		.uleb128 0
 13598              	.LLST33:
 13599 0a06 06       		.byte	0x6
 13600 0a07 00000000 		.4byte	.LVL25
 13601 0a0b 04       		.byte	0x4
 13602 0a0c 00       		.uleb128 .LVL25-.LVL25
 13603 0a0d 05       		.uleb128 .LVL26-1-.LVL25
 13604 0a0e 01       		.uleb128 0x1
 13605 0a0f 51       		.byte	0x51
 13606 0a10 04       		.byte	0x4
 13607 0a11 05       		.uleb128 .LVL26-1-.LVL25
 13608 0a12 0E       		.uleb128 .LFE356-.LVL25
 13609 0a13 04       		.uleb128 0x4
 13610 0a14 A3       		.byte	0xa3
 13611 0a15 01       		.uleb128 0x1
 13612 0a16 51       		.byte	0x51
 13613 0a17 9F       		.byte	0x9f
 13614 0a18 00       		.byte	0
 13615              	.LVUS16:
 13616 0a19 00       		.uleb128 0
 13617 0a1a 00       		.uleb128 .LVU226
 13618 0a1b 00       		.uleb128 .LVU226
 13619 0a1c 00       		.uleb128 .LVU281
 13620 0a1d 00       		.uleb128 .LVU281
 13621 0a1e 00       		.uleb128 0
 13622              	.LLST16:
ARM GAS  C:\Users\DEVELO~1\AppData\Local\Temp\ccUBlV4P.s 			page 240


 13623 0a1f 06       		.byte	0x6
 13624 0a20 00000000 		.4byte	.LVL16
 13625 0a24 04       		.byte	0x4
 13626 0a25 00       		.uleb128 .LVL16-.LVL16
 13627 0a26 4A       		.uleb128 .LVL18-.LVL16
 13628 0a27 01       		.uleb128 0x1
 13629 0a28 51       		.byte	0x51
 13630 0a29 04       		.byte	0x4
 13631 0a2a 4A       		.uleb128 .LVL18-.LVL16
 13632 0a2b 70       		.uleb128 .LVL24-.LVL16
 13633 0a2c 04       		.uleb128 0x4
 13634 0a2d A3       		.byte	0xa3
 13635 0a2e 01       		.uleb128 0x1
 13636 0a2f 51       		.byte	0x51
 13637 0a30 9F       		.byte	0x9f
 13638 0a31 04       		.byte	0x4
 13639 0a32 70       		.uleb128 .LVL24-.LVL16
 13640 0a33 7C       		.uleb128 .LFE355-.LVL16
 13641 0a34 01       		.uleb128 0x1
 13642 0a35 51       		.byte	0x51
 13643 0a36 00       		.byte	0
 13644              	.LVUS18:
 13645 0a37 0A       		.uleb128 .LVU173
 13646 0a38 00       		.uleb128 .LVU177
 13647              	.LLST18:
 13648 0a39 08       		.byte	0x8
 13649 0a3a 00000000 		.4byte	.LVL16
 13650 0a3e 08       		.uleb128 .LVL17-.LVL16
 13651 0a3f 03       		.uleb128 0x3
 13652 0a40 08       		.byte	0x8
 13653 0a41 30       		.byte	0x30
 13654 0a42 9F       		.byte	0x9f
 13655 0a43 00       		.byte	0
 13656              	.LVUS20:
 13657 0a44 04       		.uleb128 .LVU181
 13658 0a45 00       		.uleb128 .LVU226
 13659 0a46 00       		.uleb128 .LVU226
 13660 0a47 02       		.uleb128 .LVU265
 13661 0a48 00       		.uleb128 .LVU281
 13662 0a49 00       		.uleb128 0
 13663              	.LLST20:
 13664 0a4a 06       		.byte	0x6
 13665 0a4b 08000000 		.4byte	.LVL17
 13666 0a4f 04       		.byte	0x4
 13667 0a50 00       		.uleb128 .LVL17-.LVL17
 13668 0a51 42       		.uleb128 .LVL18-.LVL17
 13669 0a52 01       		.uleb128 0x1
 13670 0a53 51       		.byte	0x51
 13671 0a54 04       		.byte	0x4
 13672 0a55 42       		.uleb128 .LVL18-.LVL17
 13673 0a56 60       		.uleb128 .LVL22-.LVL17
 13674 0a57 04       		.uleb128 0x4
 13675 0a58 A3       		.byte	0xa3
 13676 0a59 01       		.uleb128 0x1
 13677 0a5a 51       		.byte	0x51
 13678 0a5b 9F       		.byte	0x9f
 13679 0a5c 04       		.byte	0x4
ARM GAS  C:\Users\DEVELO~1\AppData\Local\Temp\ccUBlV4P.s 			page 241


 13680 0a5d 68       		.uleb128 .LVL24-.LVL17
 13681 0a5e 74       		.uleb128 .LFE355-.LVL17
 13682 0a5f 01       		.uleb128 0x1
 13683 0a60 51       		.byte	0x51
 13684 0a61 00       		.byte	0
 13685              	.LVUS21:
 13686 0a62 04       		.uleb128 .LVU181
 13687 0a63 02       		.uleb128 .LVU265
 13688 0a64 00       		.uleb128 .LVU281
 13689 0a65 00       		.uleb128 0
 13690              	.LLST21:
 13691 0a66 06       		.byte	0x6
 13692 0a67 08000000 		.4byte	.LVL17
 13693 0a6b 04       		.byte	0x4
 13694 0a6c 00       		.uleb128 .LVL17-.LVL17
 13695 0a6d 60       		.uleb128 .LVL22-.LVL17
 13696 0a6e 01       		.uleb128 0x1
 13697 0a6f 50       		.byte	0x50
 13698 0a70 04       		.byte	0x4
 13699 0a71 68       		.uleb128 .LVL24-.LVL17
 13700 0a72 74       		.uleb128 .LFE355-.LVL17
 13701 0a73 01       		.uleb128 0x1
 13702 0a74 50       		.byte	0x50
 13703 0a75 00       		.byte	0
 13704              	.LVUS23:
 13705 0a76 0F       		.uleb128 .LVU192
 13706 0a77 00       		.uleb128 .LVU226
 13707 0a78 00       		.uleb128 .LVU226
 13708 0a79 11       		.uleb128 .LVU244
 13709 0a7a 00       		.uleb128 .LVU281
 13710 0a7b 00       		.uleb128 0
 13711              	.LLST23:
 13712 0a7c 06       		.byte	0x6
 13713 0a7d 08000000 		.4byte	.LVL17
 13714 0a81 04       		.byte	0x4
 13715 0a82 00       		.uleb128 .LVL17-.LVL17
 13716 0a83 42       		.uleb128 .LVL18-.LVL17
 13717 0a84 01       		.uleb128 0x1
 13718 0a85 51       		.byte	0x51
 13719 0a86 04       		.byte	0x4
 13720 0a87 42       		.uleb128 .LVL18-.LVL17
 13721 0a88 46       		.uleb128 .LVL19-.LVL17
 13722 0a89 04       		.uleb128 0x4
 13723 0a8a A3       		.byte	0xa3
 13724 0a8b 01       		.uleb128 0x1
 13725 0a8c 51       		.byte	0x51
 13726 0a8d 9F       		.byte	0x9f
 13727 0a8e 04       		.byte	0x4
 13728 0a8f 68       		.uleb128 .LVL24-.LVL17
 13729 0a90 74       		.uleb128 .LFE355-.LVL17
 13730 0a91 01       		.uleb128 0x1
 13731 0a92 51       		.byte	0x51
 13732 0a93 00       		.byte	0
 13733              	.LVUS24:
 13734 0a94 0F       		.uleb128 .LVU192
 13735 0a95 11       		.uleb128 .LVU244
 13736 0a96 00       		.uleb128 .LVU281
ARM GAS  C:\Users\DEVELO~1\AppData\Local\Temp\ccUBlV4P.s 			page 242


 13737 0a97 00       		.uleb128 0
 13738              	.LLST24:
 13739 0a98 06       		.byte	0x6
 13740 0a99 08000000 		.4byte	.LVL17
 13741 0a9d 04       		.byte	0x4
 13742 0a9e 00       		.uleb128 .LVL17-.LVL17
 13743 0a9f 46       		.uleb128 .LVL19-.LVL17
 13744 0aa0 01       		.uleb128 0x1
 13745 0aa1 50       		.byte	0x50
 13746 0aa2 04       		.byte	0x4
 13747 0aa3 68       		.uleb128 .LVL24-.LVL17
 13748 0aa4 74       		.uleb128 .LFE355-.LVL17
 13749 0aa5 01       		.uleb128 0x1
 13750 0aa6 50       		.byte	0x50
 13751 0aa7 00       		.byte	0
 13752              	.LVUS27:
 13753 0aa8 01       		.uleb128 .LVU228
 13754 0aa9 03       		.uleb128 .LVU230
 13755              	.LLST27:
 13756 0aaa 08       		.byte	0x8
 13757 0aab 4E000000 		.4byte	.LVL19
 13758 0aaf 00       		.uleb128 .LVL19-.LVL19
 13759 0ab0 01       		.uleb128 0x1
 13760 0ab1 5C       		.byte	0x5c
 13761 0ab2 00       		.byte	0
 13762              	.LVUS29:
 13763 0ab3 02       		.uleb128 .LVU253
 13764 0ab4 00       		.uleb128 .LVU263
 13765              	.LLST29:
 13766 0ab5 08       		.byte	0x8
 13767 0ab6 5C000000 		.4byte	.LVL20
 13768 0aba 0C       		.uleb128 .LVL22-.LVL20
 13769 0abb 01       		.uleb128 0x1
 13770 0abc 51       		.byte	0x51
 13771 0abd 00       		.byte	0
 13772              	.LVUS30:
 13773 0abe 02       		.uleb128 .LVU253
 13774 0abf 00       		.uleb128 .LVU256
 13775 0ac0 00       		.uleb128 .LVU256
 13776 0ac1 00       		.uleb128 .LVU263
 13777              	.LLST30:
 13778 0ac2 06       		.byte	0x6
 13779 0ac3 5C000000 		.4byte	.LVL20
 13780 0ac7 04       		.byte	0x4
 13781 0ac8 00       		.uleb128 .LVL20-.LVL20
 13782 0ac9 04       		.uleb128 .LVL21-.LVL20
 13783 0aca 03       		.uleb128 0x3
 13784 0acb 73       		.byte	0x73
 13785 0acc 30       		.sleb128 48
 13786 0acd 9F       		.byte	0x9f
 13787 0ace 04       		.byte	0x4
 13788 0acf 04       		.uleb128 .LVL21-.LVL20
 13789 0ad0 0C       		.uleb128 .LVL22-.LVL20
 13790 0ad1 01       		.uleb128 0x1
 13791 0ad2 54       		.byte	0x54
 13792 0ad3 00       		.byte	0
 13793              	.LVUS31:
ARM GAS  C:\Users\DEVELO~1\AppData\Local\Temp\ccUBlV4P.s 			page 243


 13794 0ad4 0D       		.uleb128 .LVU276
 13795 0ad5 00       		.uleb128 .LVU278
 13796              	.LLST31:
 13797 0ad6 08       		.byte	0x8
 13798 0ad7 68000000 		.4byte	.LVL22
 13799 0adb 04       		.uleb128 .LVL23-.LVL22
 13800 0adc 02       		.uleb128 0x2
 13801 0add 30       		.byte	0x30
 13802 0ade 9F       		.byte	0x9f
 13803 0adf 00       		.byte	0
 13804              	.LVUS0:
 13805 0ae0 00       		.uleb128 0
 13806 0ae1 00       		.uleb128 .LVU27
 13807 0ae2 00       		.uleb128 .LVU27
 13808 0ae3 00       		.uleb128 .LVU53
 13809 0ae4 00       		.uleb128 .LVU53
 13810 0ae5 00       		.uleb128 0
 13811              	.LLST0:
 13812 0ae6 06       		.byte	0x6
 13813 0ae7 00000000 		.4byte	.LVL0
 13814 0aeb 04       		.byte	0x4
 13815 0aec 00       		.uleb128 .LVL0-.LVL0
 13816 0aed 26       		.uleb128 .LVL1-.LVL0
 13817 0aee 01       		.uleb128 0x1
 13818 0aef 51       		.byte	0x51
 13819 0af0 04       		.byte	0x4
 13820 0af1 26       		.uleb128 .LVL1-.LVL0
 13821 0af2 3E       		.uleb128 .LVL5-.LVL0
 13822 0af3 04       		.uleb128 0x4
 13823 0af4 A3       		.byte	0xa3
 13824 0af5 01       		.uleb128 0x1
 13825 0af6 51       		.byte	0x51
 13826 0af7 9F       		.byte	0x9f
 13827 0af8 04       		.byte	0x4
 13828 0af9 3E       		.uleb128 .LVL5-.LVL0
 13829 0afa 48       		.uleb128 .LFE352-.LVL0
 13830 0afb 01       		.uleb128 0x1
 13831 0afc 51       		.byte	0x51
 13832 0afd 00       		.byte	0
 13833              	.LVUS2:
 13834 0afe 07       		.uleb128 .LVU45
 13835 0aff 0A       		.uleb128 .LVU48
 13836              	.LLST2:
 13837 0b00 08       		.byte	0x8
 13838 0b01 3C000000 		.4byte	.LVL4
 13839 0b05 00       		.uleb128 .LVL4-.LVL4
 13840 0b06 01       		.uleb128 0x1
 13841 0b07 52       		.byte	0x52
 13842 0b08 00       		.byte	0
 13843              	.LVUS4:
 13844 0b09 01       		.uleb128 .LVU33
 13845 0b0a 00       		.uleb128 .LVU37
 13846 0b0b 00       		.uleb128 .LVU37
 13847 0b0c 00       		.uleb128 .LVU38
 13848              	.LLST4:
 13849 0b0d 06       		.byte	0x6
 13850 0b0e 32000000 		.4byte	.LVL2
ARM GAS  C:\Users\DEVELO~1\AppData\Local\Temp\ccUBlV4P.s 			page 244


 13851 0b12 04       		.byte	0x4
 13852 0b13 00       		.uleb128 .LVL2-.LVL2
 13853 0b14 08       		.uleb128 .LVL3-.LVL2
 13854 0b15 03       		.uleb128 0x3
 13855 0b16 70       		.byte	0x70
 13856 0b17 38       		.sleb128 56
 13857 0b18 9F       		.byte	0x9f
 13858 0b19 04       		.byte	0x4
 13859 0b1a 08       		.uleb128 .LVL3-.LVL2
 13860 0b1b 0A       		.uleb128 .LVL4-.LVL2
 13861 0b1c 01       		.uleb128 0x1
 13862 0b1d 53       		.byte	0x53
 13863 0b1e 00       		.byte	0
 13864              	.LVUS5:
 13865 0b1f 00       		.uleb128 0
 13866 0b20 00       		.uleb128 .LVU116
 13867 0b21 00       		.uleb128 .LVU116
 13868 0b22 00       		.uleb128 .LVU162
 13869 0b23 00       		.uleb128 .LVU162
 13870 0b24 00       		.uleb128 0
 13871              	.LLST5:
 13872 0b25 06       		.byte	0x6
 13873 0b26 00000000 		.4byte	.LVL7
 13874 0b2a 04       		.byte	0x4
 13875 0b2b 00       		.uleb128 .LVL7-.LVL7
 13876 0b2c 34       		.uleb128 .LVL9-.LVL7
 13877 0b2d 01       		.uleb128 0x1
 13878 0b2e 51       		.byte	0x51
 13879 0b2f 04       		.byte	0x4
 13880 0b30 34       		.uleb128 .LVL9-.LVL7
 13881 0b31 64       		.uleb128 .LVL15-.LVL7
 13882 0b32 04       		.uleb128 0x4
 13883 0b33 A3       		.byte	0xa3
 13884 0b34 01       		.uleb128 0x1
 13885 0b35 51       		.byte	0x51
 13886 0b36 9F       		.byte	0x9f
 13887 0b37 04       		.byte	0x4
 13888 0b38 64       		.uleb128 .LVL15-.LVL7
 13889 0b39 70       		.uleb128 .LFE354-.LVL7
 13890 0b3a 01       		.uleb128 0x1
 13891 0b3b 51       		.byte	0x51
 13892 0b3c 00       		.byte	0
 13893              	.LVUS7:
 13894 0b3d 00       		.uleb128 .LVU85
 13895 0b3e 00       		.uleb128 .LVU116
 13896 0b3f 00       		.uleb128 .LVU116
 13897 0b40 0E       		.uleb128 .LVU139
 13898 0b41 00       		.uleb128 .LVU162
 13899 0b42 00       		.uleb128 0
 13900              	.LLST7:
 13901 0b43 06       		.byte	0x6
 13902 0b44 02000000 		.4byte	.LVL8
 13903 0b48 04       		.byte	0x4
 13904 0b49 00       		.uleb128 .LVL8-.LVL8
 13905 0b4a 32       		.uleb128 .LVL9-.LVL8
 13906 0b4b 01       		.uleb128 0x1
 13907 0b4c 51       		.byte	0x51
ARM GAS  C:\Users\DEVELO~1\AppData\Local\Temp\ccUBlV4P.s 			page 245


 13908 0b4d 04       		.byte	0x4
 13909 0b4e 32       		.uleb128 .LVL9-.LVL8
 13910 0b4f 40       		.uleb128 .LVL11-.LVL8
 13911 0b50 04       		.uleb128 0x4
 13912 0b51 A3       		.byte	0xa3
 13913 0b52 01       		.uleb128 0x1
 13914 0b53 51       		.byte	0x51
 13915 0b54 9F       		.byte	0x9f
 13916 0b55 04       		.byte	0x4
 13917 0b56 62       		.uleb128 .LVL15-.LVL8
 13918 0b57 6E       		.uleb128 .LFE354-.LVL8
 13919 0b58 01       		.uleb128 0x1
 13920 0b59 51       		.byte	0x51
 13921 0b5a 00       		.byte	0
 13922              	.LVUS8:
 13923 0b5b 00       		.uleb128 .LVU85
 13924 0b5c 0E       		.uleb128 .LVU139
 13925 0b5d 00       		.uleb128 .LVU162
 13926 0b5e 00       		.uleb128 0
 13927              	.LLST8:
 13928 0b5f 06       		.byte	0x6
 13929 0b60 02000000 		.4byte	.LVL8
 13930 0b64 04       		.byte	0x4
 13931 0b65 00       		.uleb128 .LVL8-.LVL8
 13932 0b66 40       		.uleb128 .LVL11-.LVL8
 13933 0b67 01       		.uleb128 0x1
 13934 0b68 50       		.byte	0x50
 13935 0b69 04       		.byte	0x4
 13936 0b6a 62       		.uleb128 .LVL15-.LVL8
 13937 0b6b 6E       		.uleb128 .LFE354-.LVL8
 13938 0b6c 01       		.uleb128 0x1
 13939 0b6d 50       		.byte	0x50
 13940 0b6e 00       		.byte	0
 13941              	.LVUS12:
 13942 0b6f 01       		.uleb128 .LVU120
 13943 0b70 00       		.uleb128 .LVU125
 13944              	.LLST12:
 13945 0b71 08       		.byte	0x8
 13946 0b72 3C000000 		.4byte	.LVL10
 13947 0b76 06       		.uleb128 .LVL11-.LVL10
 13948 0b77 01       		.uleb128 0x1
 13949 0b78 57       		.byte	0x57
 13950 0b79 00       		.byte	0
 13951              	.LVUS14:
 13952 0b7a 02       		.uleb128 .LVU150
 13953 0b7b 00       		.uleb128 .LVU159
 13954              	.LLST14:
 13955 0b7c 08       		.byte	0x8
 13956 0b7d 54000000 		.4byte	.LVL12
 13957 0b81 0C       		.uleb128 .LVL14-.LVL12
 13958 0b82 01       		.uleb128 0x1
 13959 0b83 51       		.byte	0x51
 13960 0b84 00       		.byte	0
 13961              	.LVUS15:
 13962 0b85 02       		.uleb128 .LVU150
 13963 0b86 00       		.uleb128 .LVU153
 13964 0b87 00       		.uleb128 .LVU153
ARM GAS  C:\Users\DEVELO~1\AppData\Local\Temp\ccUBlV4P.s 			page 246


 13965 0b88 00       		.uleb128 .LVU159
 13966              	.LLST15:
 13967 0b89 06       		.byte	0x6
 13968 0b8a 54000000 		.4byte	.LVL12
 13969 0b8e 04       		.byte	0x4
 13970 0b8f 00       		.uleb128 .LVL12-.LVL12
 13971 0b90 04       		.uleb128 .LVL13-.LVL12
 13972 0b91 03       		.uleb128 0x3
 13973 0b92 73       		.byte	0x73
 13974 0b93 30       		.sleb128 48
 13975 0b94 9F       		.byte	0x9f
 13976 0b95 04       		.byte	0x4
 13977 0b96 04       		.uleb128 .LVL13-.LVL12
 13978 0b97 0C       		.uleb128 .LVL14-.LVL12
 13979 0b98 01       		.uleb128 0x1
 13980 0b99 52       		.byte	0x52
 13981 0b9a 00       		.byte	0
 13982              	.LVUS39:
 13983 0b9b 00       		.uleb128 0
 13984 0b9c 00       		.uleb128 .LVU342
 13985 0b9d 00       		.uleb128 .LVU342
 13986 0b9e 00       		.uleb128 .LVU378
 13987 0b9f 00       		.uleb128 .LVU378
 13988 0ba0 00       		.uleb128 .LVU426
 13989 0ba1 00       		.uleb128 .LVU426
 13990 0ba2 00       		.uleb128 0
 13991              	.LLST39:
 13992 0ba3 06       		.byte	0x6
 13993 0ba4 00000000 		.4byte	.LVL34
 13994 0ba8 04       		.byte	0x4
 13995 0ba9 00       		.uleb128 .LVL34-.LVL34
 13996 0baa 0A       		.uleb128 .LVL36-.LVL34
 13997 0bab 01       		.uleb128 0x1
 13998 0bac 50       		.byte	0x50
 13999 0bad 04       		.byte	0x4
 14000 0bae 0A       		.uleb128 .LVL36-.LVL34
 14001 0baf 50       		.uleb128 .LVL38-.LVL34
 14002 0bb0 01       		.uleb128 0x1
 14003 0bb1 52       		.byte	0x52
 14004 0bb2 04       		.byte	0x4
 14005 0bb3 50       		.uleb128 .LVL38-.LVL34
 14006 0bb4 8801     		.uleb128 .LVL43-.LVL34
 14007 0bb6 04       		.uleb128 0x4
 14008 0bb7 A3       		.byte	0xa3
 14009 0bb8 01       		.uleb128 0x1
 14010 0bb9 50       		.byte	0x50
 14011 0bba 9F       		.byte	0x9f
 14012 0bbb 04       		.byte	0x4
 14013 0bbc 8801     		.uleb128 .LVL43-.LVL34
 14014 0bbe 9401     		.uleb128 .LFE358-.LVL34
 14015 0bc0 01       		.uleb128 0x1
 14016 0bc1 52       		.byte	0x52
 14017 0bc2 00       		.byte	0
 14018              	.LVUS40:
 14019 0bc3 0E       		.uleb128 .LVU405
 14020 0bc4 00       		.uleb128 .LVU426
 14021              	.LLST40:
ARM GAS  C:\Users\DEVELO~1\AppData\Local\Temp\ccUBlV4P.s 			page 247


 14022 0bc5 08       		.byte	0x8
 14023 0bc6 74000000 		.4byte	.LVL40
 14024 0bca 14       		.uleb128 .LVL43-.LVL40
 14025 0bcb 01       		.uleb128 0x1
 14026 0bcc 50       		.byte	0x50
 14027 0bcd 00       		.byte	0
 14028              	.LVUS41:
 14029 0bce 00       		.uleb128 .LVU338
 14030 0bcf 00       		.uleb128 .LVU342
 14031 0bd0 00       		.uleb128 .LVU342
 14032 0bd1 00       		.uleb128 .LVU361
 14033              	.LLST41:
 14034 0bd2 06       		.byte	0x6
 14035 0bd3 02000000 		.4byte	.LVL35
 14036 0bd7 04       		.byte	0x4
 14037 0bd8 00       		.uleb128 .LVL35-.LVL35
 14038 0bd9 08       		.uleb128 .LVL36-.LVL35
 14039 0bda 02       		.uleb128 0x2
 14040 0bdb 70       		.byte	0x70
 14041 0bdc 04       		.sleb128 4
 14042 0bdd 04       		.byte	0x4
 14043 0bde 08       		.uleb128 .LVL36-.LVL35
 14044 0bdf 18       		.uleb128 .LVL37-.LVL35
 14045 0be0 02       		.uleb128 0x2
 14046 0be1 72       		.byte	0x72
 14047 0be2 04       		.sleb128 4
 14048 0be3 00       		.byte	0
 14049              	.LVUS42:
 14050 0be4 00       		.uleb128 .LVU342
 14051 0be5 00       		.uleb128 0
 14052              	.LLST42:
 14053 0be6 08       		.byte	0x8
 14054 0be7 0A000000 		.4byte	.LVL36
 14055 0beb 8A01     		.uleb128 .LFE358-.LVL36
 14056 0bed 01       		.uleb128 0x1
 14057 0bee 50       		.byte	0x50
 14058 0bef 00       		.byte	0
 14059              	.LVUS44:
 14060 0bf0 04       		.uleb128 .LVU346
 14061 0bf1 00       		.uleb128 .LVU378
 14062 0bf2 00       		.uleb128 .LVU378
 14063 0bf3 0E       		.uleb128 .LVU405
 14064 0bf4 00       		.uleb128 .LVU426
 14065 0bf5 00       		.uleb128 0
 14066              	.LLST44:
 14067 0bf6 06       		.byte	0x6
 14068 0bf7 0A000000 		.4byte	.LVL36
 14069 0bfb 04       		.byte	0x4
 14070 0bfc 00       		.uleb128 .LVL36-.LVL36
 14071 0bfd 46       		.uleb128 .LVL38-.LVL36
 14072 0bfe 01       		.uleb128 0x1
 14073 0bff 52       		.byte	0x52
 14074 0c00 04       		.byte	0x4
 14075 0c01 46       		.uleb128 .LVL38-.LVL36
 14076 0c02 6A       		.uleb128 .LVL40-.LVL36
 14077 0c03 04       		.uleb128 0x4
 14078 0c04 A3       		.byte	0xa3
ARM GAS  C:\Users\DEVELO~1\AppData\Local\Temp\ccUBlV4P.s 			page 248


 14079 0c05 01       		.uleb128 0x1
 14080 0c06 50       		.byte	0x50
 14081 0c07 9F       		.byte	0x9f
 14082 0c08 04       		.byte	0x4
 14083 0c09 7E       		.uleb128 .LVL43-.LVL36
 14084 0c0a 8A01     		.uleb128 .LFE358-.LVL36
 14085 0c0c 01       		.uleb128 0x1
 14086 0c0d 52       		.byte	0x52
 14087 0c0e 00       		.byte	0
 14088              	.LVUS45:
 14089 0c0f 04       		.uleb128 .LVU346
 14090 0c10 0E       		.uleb128 .LVU405
 14091 0c11 00       		.uleb128 .LVU426
 14092 0c12 00       		.uleb128 0
 14093              	.LLST45:
 14094 0c13 06       		.byte	0x6
 14095 0c14 0A000000 		.4byte	.LVL36
 14096 0c18 04       		.byte	0x4
 14097 0c19 00       		.uleb128 .LVL36-.LVL36
 14098 0c1a 6A       		.uleb128 .LVL40-.LVL36
 14099 0c1b 01       		.uleb128 0x1
 14100 0c1c 50       		.byte	0x50
 14101 0c1d 04       		.byte	0x4
 14102 0c1e 7E       		.uleb128 .LVL43-.LVL36
 14103 0c1f 8A01     		.uleb128 .LFE358-.LVL36
 14104 0c21 01       		.uleb128 0x1
 14105 0c22 50       		.byte	0x50
 14106 0c23 00       		.byte	0
 14107              	.LVUS48:
 14108 0c24 01       		.uleb128 .LVU386
 14109 0c25 00       		.uleb128 .LVU391
 14110              	.LLST48:
 14111 0c26 08       		.byte	0x8
 14112 0c27 6A000000 		.4byte	.LVL39
 14113 0c2b 0A       		.uleb128 .LVL40-.LVL39
 14114 0c2c 01       		.uleb128 0x1
 14115 0c2d 55       		.byte	0x55
 14116 0c2e 00       		.byte	0
 14117              	.LVUS50:
 14118 0c2f 16       		.uleb128 .LVU413
 14119 0c30 00       		.uleb128 .LVU423
 14120              	.LLST50:
 14121 0c31 08       		.byte	0x8
 14122 0c32 74000000 		.4byte	.LVL40
 14123 0c36 10       		.uleb128 .LVL42-.LVL40
 14124 0c37 01       		.uleb128 0x1
 14125 0c38 54       		.byte	0x54
 14126 0c39 00       		.byte	0
 14127              	.LVUS51:
 14128 0c3a 16       		.uleb128 .LVU413
 14129 0c3b 00       		.uleb128 .LVU416
 14130 0c3c 00       		.uleb128 .LVU416
 14131 0c3d 00       		.uleb128 .LVU423
 14132              	.LLST51:
 14133 0c3e 06       		.byte	0x6
 14134 0c3f 74000000 		.4byte	.LVL40
 14135 0c43 04       		.byte	0x4
ARM GAS  C:\Users\DEVELO~1\AppData\Local\Temp\ccUBlV4P.s 			page 249


 14136 0c44 00       		.uleb128 .LVL40-.LVL40
 14137 0c45 04       		.uleb128 .LVL41-.LVL40
 14138 0c46 03       		.uleb128 0x3
 14139 0c47 71       		.byte	0x71
 14140 0c48 30       		.sleb128 48
 14141 0c49 9F       		.byte	0x9f
 14142 0c4a 04       		.byte	0x4
 14143 0c4b 04       		.uleb128 .LVL41-.LVL40
 14144 0c4c 10       		.uleb128 .LVL42-.LVL40
 14145 0c4d 01       		.uleb128 0x1
 14146 0c4e 55       		.byte	0x55
 14147 0c4f 00       		.byte	0
 14148              	.LVUS105:
 14149 0c50 00       		.uleb128 0
 14150 0c51 00       		.uleb128 .LVU864
 14151 0c52 00       		.uleb128 .LVU864
 14152 0c53 00       		.uleb128 0
 14153              	.LLST105:
 14154 0c54 06       		.byte	0x6
 14155 0c55 00000000 		.4byte	.LVL88
 14156 0c59 04       		.byte	0x4
 14157 0c5a 00       		.uleb128 .LVL88-.LVL88
 14158 0c5b 35       		.uleb128 .LVL95-1-.LVL88
 14159 0c5c 01       		.uleb128 0x1
 14160 0c5d 50       		.byte	0x50
 14161 0c5e 04       		.byte	0x4
 14162 0c5f 35       		.uleb128 .LVL95-1-.LVL88
 14163 0c60 36       		.uleb128 .LFE365-.LVL88
 14164 0c61 04       		.uleb128 0x4
 14165 0c62 A3       		.byte	0xa3
 14166 0c63 01       		.uleb128 0x1
 14167 0c64 50       		.byte	0x50
 14168 0c65 9F       		.byte	0x9f
 14169 0c66 00       		.byte	0
 14170              	.LVUS106:
 14171 0c67 06       		.uleb128 .LVU809
 14172 0c68 00       		.uleb128 .LVU811
 14173              	.LLST106:
 14174 0c69 08       		.byte	0x8
 14175 0c6a 00000000 		.4byte	.LVL88
 14176 0c6e 06       		.uleb128 .LVL89-.LVL88
 14177 0c6f 03       		.uleb128 0x3
 14178 0c70 08       		.byte	0x8
 14179 0c71 30       		.byte	0x30
 14180 0c72 9F       		.byte	0x9f
 14181 0c73 00       		.byte	0
 14182              	.LVUS107:
 14183 0c74 0A       		.uleb128 .LVU832
 14184 0c75 00       		.uleb128 .LVU834
 14185              	.LLST107:
 14186 0c76 08       		.byte	0x8
 14187 0c77 16000000 		.4byte	.LVL90
 14188 0c7b 06       		.uleb128 .LVL91-.LVL90
 14189 0c7c 02       		.uleb128 0x2
 14190 0c7d 30       		.byte	0x30
 14191 0c7e 9F       		.byte	0x9f
 14192 0c7f 00       		.byte	0
ARM GAS  C:\Users\DEVELO~1\AppData\Local\Temp\ccUBlV4P.s 			page 250


 14193              	.LVUS108:
 14194 0c80 00       		.uleb128 .LVU836
 14195 0c81 00       		.uleb128 .LVU864
 14196 0c82 00       		.uleb128 .LVU864
 14197 0c83 00       		.uleb128 0
 14198              	.LLST108:
 14199 0c84 06       		.byte	0x6
 14200 0c85 1E000000 		.4byte	.LVL92
 14201 0c89 04       		.byte	0x4
 14202 0c8a 00       		.uleb128 .LVL92-.LVL92
 14203 0c8b 17       		.uleb128 .LVL95-1-.LVL92
 14204 0c8c 01       		.uleb128 0x1
 14205 0c8d 50       		.byte	0x50
 14206 0c8e 04       		.byte	0x4
 14207 0c8f 17       		.uleb128 .LVL95-1-.LVL92
 14208 0c90 18       		.uleb128 .LFE365-.LVL92
 14209 0c91 04       		.uleb128 0x4
 14210 0c92 A3       		.byte	0xa3
 14211 0c93 01       		.uleb128 0x1
 14212 0c94 50       		.byte	0x50
 14213 0c95 9F       		.byte	0x9f
 14214 0c96 00       		.byte	0
 14215              	.LVUS110:
 14216 0c97 02       		.uleb128 .LVU838
 14217 0c98 01       		.uleb128 .LVU846
 14218              	.LLST110:
 14219 0c99 08       		.byte	0x8
 14220 0c9a 1E000000 		.4byte	.LVL92
 14221 0c9e 0C       		.uleb128 .LVL93-.LVL92
 14222 0c9f 03       		.uleb128 0x3
 14223 0ca0 70       		.byte	0x70
 14224 0ca1 24       		.sleb128 36
 14225 0ca2 9F       		.byte	0x9f
 14226 0ca3 00       		.byte	0
 14227              	.LVUS112:
 14228 0ca4 0C       		.uleb128 .LVU857
 14229 0ca5 00       		.uleb128 .LVU859
 14230              	.LLST112:
 14231 0ca6 08       		.byte	0x8
 14232 0ca7 2A000000 		.4byte	.LVL93
 14233 0cab 04       		.uleb128 .LVL94-.LVL93
 14234 0cac 02       		.uleb128 0x2
 14235 0cad 30       		.byte	0x30
 14236 0cae 9F       		.byte	0x9f
 14237 0caf 00       		.byte	0
 14238              	.LVUS125:
 14239 0cb0 00       		.uleb128 0
 14240 0cb1 00       		.uleb128 .LVU952
 14241 0cb2 00       		.uleb128 .LVU952
 14242 0cb3 00       		.uleb128 0
 14243              	.LLST125:
 14244 0cb4 06       		.byte	0x6
 14245 0cb5 00000000 		.4byte	.LVL107
 14246 0cb9 04       		.byte	0x4
 14247 0cba 00       		.uleb128 .LVL107-.LVL107
 14248 0cbb 16       		.uleb128 .LVL110-.LVL107
 14249 0cbc 01       		.uleb128 0x1
ARM GAS  C:\Users\DEVELO~1\AppData\Local\Temp\ccUBlV4P.s 			page 251


 14250 0cbd 50       		.byte	0x50
 14251 0cbe 04       		.byte	0x4
 14252 0cbf 16       		.uleb128 .LVL110-.LVL107
 14253 0cc0 4C       		.uleb128 .LFE367-.LVL107
 14254 0cc1 04       		.uleb128 0x4
 14255 0cc2 A3       		.byte	0xa3
 14256 0cc3 01       		.uleb128 0x1
 14257 0cc4 50       		.byte	0x50
 14258 0cc5 9F       		.byte	0x9f
 14259 0cc6 00       		.byte	0
 14260              	.LVUS126:
 14261 0cc7 00       		.uleb128 .LVU937
 14262 0cc8 00       		.uleb128 .LVU954
 14263 0cc9 00       		.uleb128 .LVU955
 14264 0cca 00       		.uleb128 0
 14265              	.LLST126:
 14266 0ccb 06       		.byte	0x6
 14267 0ccc 06000000 		.4byte	.LVL108
 14268 0cd0 04       		.byte	0x4
 14269 0cd1 00       		.uleb128 .LVL108-.LVL108
 14270 0cd2 16       		.uleb128 .LVL111-.LVL108
 14271 0cd3 01       		.uleb128 0x1
 14272 0cd4 54       		.byte	0x54
 14273 0cd5 04       		.byte	0x4
 14274 0cd6 1A       		.uleb128 .LVL112-.LVL108
 14275 0cd7 46       		.uleb128 .LFE367-.LVL108
 14276 0cd8 01       		.uleb128 0x1
 14277 0cd9 54       		.byte	0x54
 14278 0cda 00       		.byte	0
 14279              	.LVUS129:
 14280 0cdb 04       		.uleb128 .LVU946
 14281 0cdc 06       		.uleb128 .LVU948
 14282 0cdd 01       		.uleb128 .LVU966
 14283 0cde 00       		.uleb128 .LVU969
 14284              	.LLST129:
 14285 0cdf 06       		.byte	0x6
 14286 0ce0 0E000000 		.4byte	.LVL109
 14287 0ce4 04       		.byte	0x4
 14288 0ce5 00       		.uleb128 .LVL109-.LVL109
 14289 0ce6 00       		.uleb128 .LVL109-.LVL109
 14290 0ce7 01       		.uleb128 0x1
 14291 0ce8 55       		.byte	0x55
 14292 0ce9 04       		.byte	0x4
 14293 0cea 1C       		.uleb128 .LVL114-.LVL109
 14294 0ceb 1E       		.uleb128 .LVL115-.LVL109
 14295 0cec 01       		.uleb128 0x1
 14296 0ced 55       		.byte	0x55
 14297 0cee 00       		.byte	0
 14298              	.LVUS131:
 14299 0cef 01       		.uleb128 .LVU956
 14300 0cf0 01       		.uleb128 .LVU963
 14301              	.LLST131:
 14302 0cf1 08       		.byte	0x8
 14303 0cf2 20000000 		.4byte	.LVL112
 14304 0cf6 06       		.uleb128 .LVL113-.LVL112
 14305 0cf7 01       		.uleb128 0x1
 14306 0cf8 55       		.byte	0x55
ARM GAS  C:\Users\DEVELO~1\AppData\Local\Temp\ccUBlV4P.s 			page 252


 14307 0cf9 00       		.byte	0
 14308              	.LVUS132:
 14309 0cfa 03       		.uleb128 .LVU958
 14310 0cfb 01       		.uleb128 .LVU963
 14311              	.LLST132:
 14312 0cfc 08       		.byte	0x8
 14313 0cfd 20000000 		.4byte	.LVL112
 14314 0d01 06       		.uleb128 .LVL113-.LVL112
 14315 0d02 01       		.uleb128 0x1
 14316 0d03 53       		.byte	0x53
 14317 0d04 00       		.byte	0
 14318              	.LVUS133:
 14319 0d05 01       		.uleb128 .LVU976
 14320 0d06 00       		.uleb128 0
 14321              	.LLST133:
 14322 0d07 08       		.byte	0x8
 14323 0d08 3C000000 		.4byte	.LVL116
 14324 0d0c 10       		.uleb128 .LFE367-.LVL116
 14325 0d0d 03       		.uleb128 0x3
 14326 0d0e 74       		.byte	0x74
 14327 0d0f 24       		.sleb128 36
 14328 0d10 9F       		.byte	0x9f
 14329 0d11 00       		.byte	0
 14330              	.LVUS200:
 14331 0d12 00       		.uleb128 0
 14332 0d13 00       		.uleb128 .LVU1427
 14333 0d14 00       		.uleb128 .LVU1427
 14334 0d15 00       		.uleb128 .LVU1435
 14335 0d16 00       		.uleb128 .LVU1435
 14336 0d17 00       		.uleb128 .LVU1435
 14337 0d18 00       		.uleb128 .LVU1435
 14338 0d19 00       		.uleb128 0
 14339              	.LLST200:
 14340 0d1a 06       		.byte	0x6
 14341 0d1b 00000000 		.4byte	.LVL184
 14342 0d1f 04       		.byte	0x4
 14343 0d20 00       		.uleb128 .LVL184-.LVL184
 14344 0d21 04       		.uleb128 .LVL185-.LVL184
 14345 0d22 01       		.uleb128 0x1
 14346 0d23 50       		.byte	0x50
 14347 0d24 04       		.byte	0x4
 14348 0d25 04       		.uleb128 .LVL185-.LVL184
 14349 0d26 0D       		.uleb128 .LVL187-1-.LVL184
 14350 0d27 01       		.uleb128 0x1
 14351 0d28 53       		.byte	0x53
 14352 0d29 04       		.byte	0x4
 14353 0d2a 0D       		.uleb128 .LVL187-1-.LVL184
 14354 0d2b 0E       		.uleb128 .LVL187-.LVL184
 14355 0d2c 04       		.uleb128 0x4
 14356 0d2d A3       		.byte	0xa3
 14357 0d2e 01       		.uleb128 0x1
 14358 0d2f 50       		.byte	0x50
 14359 0d30 9F       		.byte	0x9f
 14360 0d31 04       		.byte	0x4
 14361 0d32 0E       		.uleb128 .LVL187-.LVL184
 14362 0d33 10       		.uleb128 .LFE378-.LVL184
 14363 0d34 01       		.uleb128 0x1
ARM GAS  C:\Users\DEVELO~1\AppData\Local\Temp\ccUBlV4P.s 			page 253


 14364 0d35 53       		.byte	0x53
 14365 0d36 00       		.byte	0
 14366              	.LVUS201:
 14367 0d37 00       		.uleb128 0
 14368 0d38 00       		.uleb128 .LVU1435
 14369 0d39 00       		.uleb128 .LVU1435
 14370 0d3a 00       		.uleb128 .LVU1435
 14371 0d3b 00       		.uleb128 .LVU1435
 14372 0d3c 00       		.uleb128 0
 14373              	.LLST201:
 14374 0d3d 06       		.byte	0x6
 14375 0d3e 00000000 		.4byte	.LVL184
 14376 0d42 04       		.byte	0x4
 14377 0d43 00       		.uleb128 .LVL184-.LVL184
 14378 0d44 0D       		.uleb128 .LVL187-1-.LVL184
 14379 0d45 01       		.uleb128 0x1
 14380 0d46 51       		.byte	0x51
 14381 0d47 04       		.byte	0x4
 14382 0d48 0D       		.uleb128 .LVL187-1-.LVL184
 14383 0d49 0E       		.uleb128 .LVL187-.LVL184
 14384 0d4a 04       		.uleb128 0x4
 14385 0d4b A3       		.byte	0xa3
 14386 0d4c 01       		.uleb128 0x1
 14387 0d4d 51       		.byte	0x51
 14388 0d4e 9F       		.byte	0x9f
 14389 0d4f 04       		.byte	0x4
 14390 0d50 0E       		.uleb128 .LVL187-.LVL184
 14391 0d51 10       		.uleb128 .LFE378-.LVL184
 14392 0d52 01       		.uleb128 0x1
 14393 0d53 51       		.byte	0x51
 14394 0d54 00       		.byte	0
 14395              	.LVUS202:
 14396 0d55 01       		.uleb128 .LVU1429
 14397 0d56 00       		.uleb128 .LVU1435
 14398              	.LLST202:
 14399 0d57 08       		.byte	0x8
 14400 0d58 06000000 		.4byte	.LVL186
 14401 0d5c 07       		.uleb128 .LVL187-1-.LVL186
 14402 0d5d 01       		.uleb128 0x1
 14403 0d5e 50       		.byte	0x50
 14404 0d5f 00       		.byte	0
 14405              	.Ldebug_loc3:
 14406              		.section	.debug_aranges,"",%progbits
 14407 0000 14010000 		.4byte	0x114
 14408 0004 0200     		.2byte	0x2
 14409 0006 00000000 		.4byte	.Ldebug_info0
 14410 000a 04       		.byte	0x4
 14411 000b 00       		.byte	0
 14412 000c 0000     		.2byte	0
 14413 000e 0000     		.2byte	0
 14414 0010 00000000 		.4byte	.LFB352
 14415 0014 48000000 		.4byte	.LFE352-.LFB352
 14416 0018 00000000 		.4byte	.LFB353
 14417 001c 02000000 		.4byte	.LFE353-.LFB353
 14418 0020 00000000 		.4byte	.LFB354
 14419 0024 70000000 		.4byte	.LFE354-.LFB354
 14420 0028 00000000 		.4byte	.LFB355
ARM GAS  C:\Users\DEVELO~1\AppData\Local\Temp\ccUBlV4P.s 			page 254


 14421 002c 7C000000 		.4byte	.LFE355-.LFB355
 14422 0030 00000000 		.4byte	.LFB356
 14423 0034 0E000000 		.4byte	.LFE356-.LFB356
 14424 0038 00000000 		.4byte	.LFB357
 14425 003c 1E000000 		.4byte	.LFE357-.LFB357
 14426 0040 00000000 		.4byte	.LFB358
 14427 0044 94000000 		.4byte	.LFE358-.LFB358
 14428 0048 00000000 		.4byte	.LFB359
 14429 004c A0000000 		.4byte	.LFE359-.LFB359
 14430 0050 00000000 		.4byte	.LFB360
 14431 0054 0E000000 		.4byte	.LFE360-.LFB360
 14432 0058 00000000 		.4byte	.LFB361
 14433 005c 1E000000 		.4byte	.LFE361-.LFB361
 14434 0060 00000000 		.4byte	.LFB362
 14435 0064 A4000000 		.4byte	.LFE362-.LFB362
 14436 0068 00000000 		.4byte	.LFB363
 14437 006c 1A000000 		.4byte	.LFE363-.LFB363
 14438 0070 00000000 		.4byte	.LFB364
 14439 0074 14000000 		.4byte	.LFE364-.LFB364
 14440 0078 00000000 		.4byte	.LFB365
 14441 007c 36000000 		.4byte	.LFE365-.LFB365
 14442 0080 00000000 		.4byte	.LFB366
 14443 0084 50000000 		.4byte	.LFE366-.LFB366
 14444 0088 00000000 		.4byte	.LFB367
 14445 008c 4C000000 		.4byte	.LFE367-.LFB367
 14446 0090 00000000 		.4byte	.LFB368
 14447 0094 64000000 		.4byte	.LFE368-.LFB368
 14448 0098 00000000 		.4byte	.LFB369
 14449 009c 30000000 		.4byte	.LFE369-.LFB369
 14450 00a0 00000000 		.4byte	.LFB370
 14451 00a4 16000000 		.4byte	.LFE370-.LFB370
 14452 00a8 00000000 		.4byte	.LFB371
 14453 00ac 18000000 		.4byte	.LFE371-.LFB371
 14454 00b0 00000000 		.4byte	.LFB372
 14455 00b4 20000000 		.4byte	.LFE372-.LFB372
 14456 00b8 00000000 		.4byte	.LFB373
 14457 00bc 2A000000 		.4byte	.LFE373-.LFB373
 14458 00c0 00000000 		.4byte	.LFB374
 14459 00c4 14000000 		.4byte	.LFE374-.LFB374
 14460 00c8 00000000 		.4byte	.LFB375
 14461 00cc 1C000000 		.4byte	.LFE375-.LFB375
 14462 00d0 00000000 		.4byte	.LFB376
 14463 00d4 1C000000 		.4byte	.LFE376-.LFB376
 14464 00d8 00000000 		.4byte	.LFB377
 14465 00dc 12000000 		.4byte	.LFE377-.LFB377
 14466 00e0 00000000 		.4byte	.LFB378
 14467 00e4 10000000 		.4byte	.LFE378-.LFB378
 14468 00e8 00000000 		.4byte	.LFB379
 14469 00ec 1E000000 		.4byte	.LFE379-.LFB379
 14470 00f0 00000000 		.4byte	.LFB380
 14471 00f4 06000000 		.4byte	.LFE380-.LFB380
 14472 00f8 00000000 		.4byte	.LFB382
 14473 00fc 28000000 		.4byte	.LFE382-.LFB382
 14474 0100 00000000 		.4byte	.LFB383
 14475 0104 16000000 		.4byte	.LFE383-.LFB383
 14476 0108 00000000 		.4byte	.LFB384
 14477 010c 20000000 		.4byte	.LFE384-.LFB384
ARM GAS  C:\Users\DEVELO~1\AppData\Local\Temp\ccUBlV4P.s 			page 255


 14478 0110 00000000 		.4byte	0
 14479 0114 00000000 		.4byte	0
 14480              		.section	.debug_rnglists,"",%progbits
 14481              	.Ldebug_ranges0:
 14482 0000 1B040000 		.4byte	.Ldebug_ranges3-.Ldebug_ranges2
 14483              	.Ldebug_ranges2:
 14484 0004 0500     		.2byte	0x5
 14485 0006 04       		.byte	0x4
 14486 0007 00       		.byte	0
 14487 0008 00000000 		.4byte	0
 14488              	.LLRL1:
 14489 000c 05       		.byte	0x5
 14490 000d 28000000 		.4byte	.LBB281
 14491 0011 04       		.byte	0x4
 14492 0012 00       		.uleb128 .LBB281-.LBB281
 14493 0013 02       		.uleb128 .LBE281-.LBB281
 14494 0014 04       		.byte	0x4
 14495 0015 04       		.uleb128 .LBB285-.LBB281
 14496 0016 06       		.uleb128 .LBE285-.LBB281
 14497 0017 04       		.byte	0x4
 14498 0018 14       		.uleb128 .LBB290-.LBB281
 14499 0019 14       		.uleb128 .LBE290-.LBB281
 14500 001a 00       		.byte	0
 14501              	.LLRL3:
 14502 001b 05       		.byte	0x5
 14503 001c 32000000 		.4byte	.LBB286
 14504 0020 04       		.byte	0x4
 14505 0021 00       		.uleb128 .LBB286-.LBB286
 14506 0022 00       		.uleb128 .LBE286-.LBB286
 14507 0023 04       		.byte	0x4
 14508 0024 08       		.uleb128 .LBB289-.LBB286
 14509 0025 0A       		.uleb128 .LBE289-.LBB286
 14510 0026 00       		.byte	0
 14511              	.LLRL6:
 14512 0027 05       		.byte	0x5
 14513 0028 00000000 		.4byte	.LBB301
 14514 002c 04       		.byte	0x4
 14515 002d 00       		.uleb128 .LBB301-.LBB301
 14516 002e 02       		.uleb128 .LBE301-.LBB301
 14517 002f 04       		.byte	0x4
 14518 0030 04       		.uleb128 .LBB318-.LBB301
 14519 0031 2A       		.uleb128 .LBE318-.LBB301
 14520 0032 04       		.byte	0x4
 14521 0033 2E       		.uleb128 .LBB319-.LBB301
 14522 0034 34       		.uleb128 .LBE319-.LBB301
 14523 0035 04       		.byte	0x4
 14524 0036 38       		.uleb128 .LBB320-.LBB301
 14525 0037 3C       		.uleb128 .LBE320-.LBB301
 14526 0038 04       		.byte	0x4
 14527 0039 40       		.uleb128 .LBB325-.LBB301
 14528 003a 42       		.uleb128 .LBE325-.LBB301
 14529 003b 04       		.byte	0x4
 14530 003c 42       		.uleb128 .LBB326-.LBB301
 14531 003d 46       		.uleb128 .LBE326-.LBB301
 14532 003e 04       		.byte	0x4
 14533 003f 64       		.uleb128 .LBB329-.LBB301
 14534 0040 70       		.uleb128 .LBE329-.LBB301
ARM GAS  C:\Users\DEVELO~1\AppData\Local\Temp\ccUBlV4P.s 			page 256


 14535 0041 00       		.byte	0
 14536              	.LLRL9:
 14537 0042 05       		.byte	0x5
 14538 0043 00000000 		.4byte	.LBB302
 14539 0047 04       		.byte	0x4
 14540 0048 00       		.uleb128 .LBB302-.LBB302
 14541 0049 02       		.uleb128 .LBE302-.LBB302
 14542 004a 04       		.byte	0x4
 14543 004b 02       		.uleb128 .LBB311-.LBB302
 14544 004c 02       		.uleb128 .LBE311-.LBB302
 14545 004d 04       		.byte	0x4
 14546 004e 04       		.uleb128 .LBB312-.LBB302
 14547 004f 2A       		.uleb128 .LBE312-.LBB302
 14548 0050 04       		.byte	0x4
 14549 0051 2E       		.uleb128 .LBB313-.LBB302
 14550 0052 34       		.uleb128 .LBE313-.LBB302
 14551 0053 04       		.byte	0x4
 14552 0054 38       		.uleb128 .LBB314-.LBB302
 14553 0055 3C       		.uleb128 .LBE314-.LBB302
 14554 0056 04       		.byte	0x4
 14555 0057 40       		.uleb128 .LBB315-.LBB302
 14556 0058 42       		.uleb128 .LBE315-.LBB302
 14557 0059 04       		.byte	0x4
 14558 005a 42       		.uleb128 .LBB316-.LBB302
 14559 005b 46       		.uleb128 .LBE316-.LBB302
 14560 005c 04       		.byte	0x4
 14561 005d 64       		.uleb128 .LBB317-.LBB302
 14562 005e 70       		.uleb128 .LBE317-.LBB302
 14563 005f 00       		.byte	0
 14564              	.LLRL10:
 14565 0060 05       		.byte	0x5
 14566 0061 2E000000 		.4byte	.LBB303
 14567 0065 04       		.byte	0x4
 14568 0066 00       		.uleb128 .LBB303-.LBB303
 14569 0067 04       		.uleb128 .LBE303-.LBB303
 14570 0068 04       		.byte	0x4
 14571 0069 14       		.uleb128 .LBB310-.LBB303
 14572 006a 14       		.uleb128 .LBE310-.LBB303
 14573 006b 00       		.byte	0
 14574              	.LLRL11:
 14575 006c 05       		.byte	0x5
 14576 006d 3C000000 		.4byte	.LBB306
 14577 0071 04       		.byte	0x4
 14578 0072 00       		.uleb128 .LBB306-.LBB306
 14579 0073 00       		.uleb128 .LBE306-.LBB306
 14580 0074 04       		.byte	0x4
 14581 0075 04       		.uleb128 .LBB309-.LBB306
 14582 0076 06       		.uleb128 .LBE309-.LBB306
 14583 0077 00       		.byte	0
 14584              	.LLRL13:
 14585 0078 05       		.byte	0x5
 14586 0079 3E000000 		.4byte	.LBB321
 14587 007d 04       		.byte	0x4
 14588 007e 00       		.uleb128 .LBB321-.LBB321
 14589 007f 02       		.uleb128 .LBE321-.LBB321
 14590 0080 04       		.byte	0x4
 14591 0081 16       		.uleb128 .LBB327-.LBB321
ARM GAS  C:\Users\DEVELO~1\AppData\Local\Temp\ccUBlV4P.s 			page 257


 14592 0082 16       		.uleb128 .LBE327-.LBB321
 14593 0083 04       		.byte	0x4
 14594 0084 1A       		.uleb128 .LBB328-.LBB321
 14595 0085 22       		.uleb128 .LBE328-.LBB321
 14596 0086 00       		.byte	0
 14597              	.LLRL17:
 14598 0087 05       		.byte	0x5
 14599 0088 00000000 		.4byte	.LBB349
 14600 008c 04       		.byte	0x4
 14601 008d 00       		.uleb128 .LBB349-.LBB349
 14602 008e 02       		.uleb128 .LBE349-.LBB349
 14603 008f 04       		.byte	0x4
 14604 0090 04       		.uleb128 .LBB356-.LBB349
 14605 0091 08       		.uleb128 .LBE356-.LBB349
 14606 0092 00       		.byte	0
 14607              	.LLRL19:
 14608 0093 05       		.byte	0x5
 14609 0094 08000000 		.4byte	.LBB357
 14610 0098 04       		.byte	0x4
 14611 0099 00       		.uleb128 .LBB357-.LBB357
 14612 009a 60       		.uleb128 .LBE357-.LBB357
 14613 009b 04       		.byte	0x4
 14614 009c 68       		.uleb128 .LBB389-.LBB357
 14615 009d 74       		.uleb128 .LBE389-.LBB357
 14616 009e 00       		.byte	0
 14617              	.LLRL22:
 14618 009f 05       		.byte	0x5
 14619 00a0 08000000 		.4byte	.LBB359
 14620 00a4 04       		.byte	0x4
 14621 00a5 00       		.uleb128 .LBB359-.LBB359
 14622 00a6 2C       		.uleb128 .LBE359-.LBB359
 14623 00a7 04       		.byte	0x4
 14624 00a8 38       		.uleb128 .LBB377-.LBB359
 14625 00a9 3E       		.uleb128 .LBE377-.LBB359
 14626 00aa 04       		.byte	0x4
 14627 00ab 42       		.uleb128 .LBB378-.LBB359
 14628 00ac 46       		.uleb128 .LBE378-.LBB359
 14629 00ad 04       		.byte	0x4
 14630 00ae 46       		.uleb128 .LBB379-.LBB359
 14631 00af 4A       		.uleb128 .LBE379-.LBB359
 14632 00b0 04       		.byte	0x4
 14633 00b1 68       		.uleb128 .LBB382-.LBB359
 14634 00b2 74       		.uleb128 .LBE382-.LBB359
 14635 00b3 00       		.byte	0
 14636              	.LLRL25:
 14637 00b4 05       		.byte	0x5
 14638 00b5 30000000 		.4byte	.LBB361
 14639 00b9 04       		.byte	0x4
 14640 00ba 00       		.uleb128 .LBB361-.LBB361
 14641 00bb 04       		.uleb128 .LBE361-.LBB361
 14642 00bc 04       		.byte	0x4
 14643 00bd 1E       		.uleb128 .LBB368-.LBB361
 14644 00be 1E       		.uleb128 .LBE368-.LBB361
 14645 00bf 00       		.byte	0
 14646              	.LLRL26:
 14647 00c0 05       		.byte	0x5
 14648 00c1 42000000 		.4byte	.LBB364
ARM GAS  C:\Users\DEVELO~1\AppData\Local\Temp\ccUBlV4P.s 			page 258


 14649 00c5 04       		.byte	0x4
 14650 00c6 00       		.uleb128 .LBB364-.LBB364
 14651 00c7 04       		.uleb128 .LBE364-.LBB364
 14652 00c8 04       		.byte	0x4
 14653 00c9 0C       		.uleb128 .LBB367-.LBB364
 14654 00ca 0C       		.uleb128 .LBE367-.LBB364
 14655 00cb 00       		.byte	0
 14656              	.LLRL28:
 14657 00cc 05       		.byte	0x5
 14658 00cd 38000000 		.4byte	.LBB373
 14659 00d1 04       		.byte	0x4
 14660 00d2 00       		.uleb128 .LBB373-.LBB373
 14661 00d3 02       		.uleb128 .LBE373-.LBB373
 14662 00d4 04       		.byte	0x4
 14663 00d5 24       		.uleb128 .LBB380-.LBB373
 14664 00d6 24       		.uleb128 .LBE380-.LBB373
 14665 00d7 04       		.byte	0x4
 14666 00d8 28       		.uleb128 .LBB381-.LBB373
 14667 00d9 30       		.uleb128 .LBE381-.LBB373
 14668 00da 00       		.byte	0
 14669              	.LLRL36:
 14670 00db 05       		.byte	0x5
 14671 00dc 00000000 		.4byte	.LBB390
 14672 00e0 04       		.byte	0x4
 14673 00e1 00       		.uleb128 .LBB390-.LBB390
 14674 00e2 00       		.uleb128 .LBE390-.LBB390
 14675 00e3 04       		.byte	0x4
 14676 00e4 02       		.uleb128 .LBB397-.LBB390
 14677 00e5 08       		.uleb128 .LBE397-.LBB390
 14678 00e6 00       		.byte	0
 14679              	.LLRL43:
 14680 00e7 05       		.byte	0x5
 14681 00e8 04000000 		.4byte	.LBB413
 14682 00ec 04       		.byte	0x4
 14683 00ed 00       		.uleb128 .LBB413-.LBB413
 14684 00ee 02       		.uleb128 .LBE413-.LBB413
 14685 00ef 04       		.byte	0x4
 14686 00f0 06       		.uleb128 .LBB431-.LBB413
 14687 00f1 06       		.uleb128 .LBE431-.LBB413
 14688 00f2 04       		.byte	0x4
 14689 00f3 08       		.uleb128 .LBB432-.LBB413
 14690 00f4 28       		.uleb128 .LBE432-.LBB413
 14691 00f5 04       		.byte	0x4
 14692 00f6 2A       		.uleb128 .LBB433-.LBB413
 14693 00f7 40       		.uleb128 .LBE433-.LBB413
 14694 00f8 04       		.byte	0x4
 14695 00f9 50       		.uleb128 .LBB434-.LBB413
 14696 00fa 54       		.uleb128 .LBE434-.LBB413
 14697 00fb 04       		.byte	0x4
 14698 00fc 58       		.uleb128 .LBB435-.LBB413
 14699 00fd 5A       		.uleb128 .LBE435-.LBB413
 14700 00fe 04       		.byte	0x4
 14701 00ff 62       		.uleb128 .LBB436-.LBB413
 14702 0100 6A       		.uleb128 .LBE436-.LBB413
 14703 0101 04       		.byte	0x4
 14704 0102 6C       		.uleb128 .LBB441-.LBB413
 14705 0103 70       		.uleb128 .LBE441-.LBB413
ARM GAS  C:\Users\DEVELO~1\AppData\Local\Temp\ccUBlV4P.s 			page 259


 14706 0104 04       		.byte	0x4
 14707 0105 8401     		.uleb128 .LBB444-.LBB413
 14708 0107 9001     		.uleb128 .LBE444-.LBB413
 14709 0109 00       		.byte	0
 14710              	.LLRL46:
 14711 010a 05       		.byte	0x5
 14712 010b 40000000 		.4byte	.LBB415
 14713 010f 04       		.byte	0x4
 14714 0110 00       		.uleb128 .LBB415-.LBB415
 14715 0111 04       		.uleb128 .LBE415-.LBB415
 14716 0112 04       		.byte	0x4
 14717 0113 34       		.uleb128 .LBB422-.LBB415
 14718 0114 34       		.uleb128 .LBE422-.LBB415
 14719 0115 00       		.byte	0
 14720              	.LLRL47:
 14721 0116 05       		.byte	0x5
 14722 0117 6A000000 		.4byte	.LBB418
 14723 011b 04       		.byte	0x4
 14724 011c 00       		.uleb128 .LBB418-.LBB418
 14725 011d 00       		.uleb128 .LBE418-.LBB418
 14726 011e 04       		.byte	0x4
 14727 011f 06       		.uleb128 .LBB421-.LBB418
 14728 0120 0A       		.uleb128 .LBE421-.LBB418
 14729 0121 00       		.byte	0
 14730              	.LLRL49:
 14731 0122 05       		.byte	0x5
 14732 0123 6E000000 		.4byte	.LBB437
 14733 0127 04       		.byte	0x4
 14734 0128 00       		.uleb128 .LBB437-.LBB437
 14735 0129 02       		.uleb128 .LBE437-.LBB437
 14736 012a 04       		.byte	0x4
 14737 012b 06       		.uleb128 .LBB442-.LBB437
 14738 012c 06       		.uleb128 .LBE442-.LBB437
 14739 012d 04       		.byte	0x4
 14740 012e 0A       		.uleb128 .LBB443-.LBB437
 14741 012f 16       		.uleb128 .LBE443-.LBB437
 14742 0130 00       		.byte	0
 14743              	.LLRL54:
 14744 0131 05       		.byte	0x5
 14745 0132 00000000 		.4byte	.LBB464
 14746 0136 04       		.byte	0x4
 14747 0137 00       		.uleb128 .LBB464-.LBB464
 14748 0138 02       		.uleb128 .LBE464-.LBB464
 14749 0139 04       		.byte	0x4
 14750 013a 06       		.uleb128 .LBB471-.LBB464
 14751 013b 0A       		.uleb128 .LBE471-.LBB464
 14752 013c 00       		.byte	0
 14753              	.LLRL56:
 14754 013d 05       		.byte	0x5
 14755 013e 0A000000 		.4byte	.LBB472
 14756 0142 04       		.byte	0x4
 14757 0143 00       		.uleb128 .LBB472-.LBB472
 14758 0144 8001     		.uleb128 .LBE472-.LBB472
 14759 0146 04       		.byte	0x4
 14760 0147 8801     		.uleb128 .LBB510-.LBB472
 14761 0149 9601     		.uleb128 .LBE510-.LBB472
 14762 014b 00       		.byte	0
ARM GAS  C:\Users\DEVELO~1\AppData\Local\Temp\ccUBlV4P.s 			page 260


 14763              	.LLRL61:
 14764 014c 05       		.byte	0x5
 14765 014d 0A000000 		.4byte	.LBB474
 14766 0151 04       		.byte	0x4
 14767 0152 00       		.uleb128 .LBB474-.LBB474
 14768 0153 0E       		.uleb128 .LBE474-.LBB474
 14769 0154 04       		.byte	0x4
 14770 0155 12       		.uleb128 .LBB490-.LBB474
 14771 0156 2C       		.uleb128 .LBE490-.LBB474
 14772 0157 04       		.byte	0x4
 14773 0158 2E       		.uleb128 .LBB491-.LBB474
 14774 0159 44       		.uleb128 .LBE491-.LBB474
 14775 015a 04       		.byte	0x4
 14776 015b 62       		.uleb128 .LBB497-.LBB474
 14777 015c 68       		.uleb128 .LBE497-.LBB474
 14778 015d 04       		.byte	0x4
 14779 015e 74       		.uleb128 .LBB499-.LBB474
 14780 015f 78       		.uleb128 .LBE499-.LBB474
 14781 0160 04       		.byte	0x4
 14782 0161 78       		.uleb128 .LBB501-.LBB474
 14783 0162 7C       		.uleb128 .LBE501-.LBB474
 14784 0163 04       		.byte	0x4
 14785 0164 8801     		.uleb128 .LBB503-.LBB474
 14786 0166 9601     		.uleb128 .LBE503-.LBB474
 14787 0168 00       		.byte	0
 14788              	.LLRL64:
 14789 0169 05       		.byte	0x5
 14790 016a 4A000000 		.4byte	.LBB476
 14791 016e 04       		.byte	0x4
 14792 016f 00       		.uleb128 .LBB476-.LBB476
 14793 0170 04       		.uleb128 .LBE476-.LBB476
 14794 0171 04       		.byte	0x4
 14795 0172 38       		.uleb128 .LBB483-.LBB476
 14796 0173 38       		.uleb128 .LBE483-.LBB476
 14797 0174 00       		.byte	0
 14798              	.LLRL65:
 14799 0175 05       		.byte	0x5
 14800 0176 6E000000 		.4byte	.LBB479
 14801 017a 04       		.byte	0x4
 14802 017b 00       		.uleb128 .LBB479-.LBB479
 14803 017c 04       		.uleb128 .LBE479-.LBB479
 14804 017d 04       		.byte	0x4
 14805 017e 14       		.uleb128 .LBB482-.LBB479
 14806 017f 14       		.uleb128 .LBE482-.LBB479
 14807 0180 00       		.byte	0
 14808              	.LLRL67:
 14809 0181 05       		.byte	0x5
 14810 0182 66000000 		.4byte	.LBB492
 14811 0186 04       		.byte	0x4
 14812 0187 00       		.uleb128 .LBB492-.LBB492
 14813 0188 02       		.uleb128 .LBE492-.LBB492
 14814 0189 04       		.byte	0x4
 14815 018a 10       		.uleb128 .LBB498-.LBB492
 14816 018b 18       		.uleb128 .LBE498-.LBB492
 14817 018c 04       		.byte	0x4
 14818 018d 1C       		.uleb128 .LBB500-.LBB492
 14819 018e 1C       		.uleb128 .LBE500-.LBB492
ARM GAS  C:\Users\DEVELO~1\AppData\Local\Temp\ccUBlV4P.s 			page 261


 14820 018f 04       		.byte	0x4
 14821 0190 20       		.uleb128 .LBB502-.LBB492
 14822 0191 24       		.uleb128 .LBE502-.LBB492
 14823 0192 00       		.byte	0
 14824              	.LLRL74:
 14825 0193 05       		.byte	0x5
 14826 0194 00000000 		.4byte	.LBB511
 14827 0198 04       		.byte	0x4
 14828 0199 00       		.uleb128 .LBB511-.LBB511
 14829 019a 00       		.uleb128 .LBE511-.LBB511
 14830 019b 04       		.byte	0x4
 14831 019c 02       		.uleb128 .LBB518-.LBB511
 14832 019d 08       		.uleb128 .LBE518-.LBB511
 14833 019e 00       		.byte	0
 14834              	.LLRL86:
 14835 019f 05       		.byte	0x5
 14836 01a0 04000000 		.4byte	.LBB541
 14837 01a4 04       		.byte	0x4
 14838 01a5 00       		.uleb128 .LBB541-.LBB541
 14839 01a6 02       		.uleb128 .LBE541-.LBB541
 14840 01a7 04       		.byte	0x4
 14841 01a8 04       		.uleb128 .LBB557-.LBB541
 14842 01a9 10       		.uleb128 .LBE557-.LBB541
 14843 01aa 04       		.byte	0x4
 14844 01ab 14       		.uleb128 .LBB558-.LBB541
 14845 01ac 14       		.uleb128 .LBE558-.LBB541
 14846 01ad 04       		.byte	0x4
 14847 01ae 1A       		.uleb128 .LBB566-.LBB541
 14848 01af 22       		.uleb128 .LBE566-.LBB541
 14849 01b0 04       		.byte	0x4
 14850 01b1 26       		.uleb128 .LBB567-.LBB541
 14851 01b2 28       		.uleb128 .LBE567-.LBB541
 14852 01b3 04       		.byte	0x4
 14853 01b4 30       		.uleb128 .LBB568-.LBB541
 14854 01b5 4A       		.uleb128 .LBE568-.LBB541
 14855 01b6 04       		.byte	0x4
 14856 01b7 4E       		.uleb128 .LBB569-.LBB541
 14857 01b8 62       		.uleb128 .LBE569-.LBB541
 14858 01b9 00       		.byte	0
 14859              	.LLRL89:
 14860 01ba 05       		.byte	0x5
 14861 01bb 18000000 		.4byte	.LBB543
 14862 01bf 04       		.byte	0x4
 14863 01c0 00       		.uleb128 .LBB543-.LBB543
 14864 01c1 00       		.uleb128 .LBE543-.LBB543
 14865 01c2 04       		.byte	0x4
 14866 01c3 06       		.uleb128 .LBB549-.LBB543
 14867 01c4 0A       		.uleb128 .LBE549-.LBB543
 14868 01c5 00       		.byte	0
 14869              	.LLRL91:
 14870 01c6 05       		.byte	0x5
 14871 01c7 18000000 		.4byte	.LBB546
 14872 01cb 04       		.byte	0x4
 14873 01cc 00       		.uleb128 .LBB546-.LBB546
 14874 01cd 00       		.uleb128 .LBE546-.LBB546
 14875 01ce 04       		.byte	0x4
 14876 01cf 42       		.uleb128 .LBB550-.LBB546
ARM GAS  C:\Users\DEVELO~1\AppData\Local\Temp\ccUBlV4P.s 			page 262


 14877 01d0 46       		.uleb128 .LBE550-.LBB546
 14878 01d1 00       		.byte	0
 14879              	.LLRL92:
 14880 01d2 05       		.byte	0x5
 14881 01d3 18000000 		.4byte	.LBB559
 14882 01d7 04       		.byte	0x4
 14883 01d8 00       		.uleb128 .LBB559-.LBB559
 14884 01d9 00       		.uleb128 .LBE559-.LBB559
 14885 01da 04       		.byte	0x4
 14886 01db 4E       		.uleb128 .LBB570-.LBB559
 14887 01dc 54       		.uleb128 .LBE570-.LBB559
 14888 01dd 00       		.byte	0
 14889              	.LLRL94:
 14890 01de 05       		.byte	0x5
 14891 01df 74000000 		.4byte	.LBB571
 14892 01e3 04       		.byte	0x4
 14893 01e4 00       		.uleb128 .LBB571-.LBB571
 14894 01e5 00       		.uleb128 .LBE571-.LBB571
 14895 01e6 04       		.byte	0x4
 14896 01e7 04       		.uleb128 .LBB575-.LBB571
 14897 01e8 06       		.uleb128 .LBE575-.LBB571
 14898 01e9 04       		.byte	0x4
 14899 01ea 0A       		.uleb128 .LBB576-.LBB571
 14900 01eb 16       		.uleb128 .LBE576-.LBB571
 14901 01ec 00       		.byte	0
 14902              	.LLRL99:
 14903 01ed 05       		.byte	0x5
 14904 01ee 00000000 		.4byte	.LBB582
 14905 01f2 04       		.byte	0x4
 14906 01f3 00       		.uleb128 .LBB582-.LBB582
 14907 01f4 00       		.uleb128 .LBE582-.LBB582
 14908 01f5 04       		.byte	0x4
 14909 01f6 02       		.uleb128 .LBB592-.LBB582
 14910 01f7 04       		.uleb128 .LBE592-.LBB582
 14911 01f8 04       		.byte	0x4
 14912 01f9 06       		.uleb128 .LBB593-.LBB582
 14913 01fa 0A       		.uleb128 .LBE593-.LBB582
 14914 01fb 00       		.byte	0
 14915              	.LLRL103:
 14916 01fc 05       		.byte	0x5
 14917 01fd 08000000 		.4byte	.LBB603
 14918 0201 04       		.byte	0x4
 14919 0202 00       		.uleb128 .LBB603-.LBB603
 14920 0203 02       		.uleb128 .LBE603-.LBB603
 14921 0204 04       		.byte	0x4
 14922 0205 06       		.uleb128 .LBB612-.LBB603
 14923 0206 0A       		.uleb128 .LBE612-.LBB603
 14924 0207 00       		.byte	0
 14925              	.LLRL109:
 14926 0208 05       		.byte	0x5
 14927 0209 1E000000 		.4byte	.LBB660
 14928 020d 04       		.byte	0x4
 14929 020e 00       		.uleb128 .LBB660-.LBB660
 14930 020f 04       		.uleb128 .LBE660-.LBB660
 14931 0210 04       		.byte	0x4
 14932 0211 08       		.uleb128 .LBB672-.LBB660
 14933 0212 0C       		.uleb128 .LBE672-.LBB660
ARM GAS  C:\Users\DEVELO~1\AppData\Local\Temp\ccUBlV4P.s 			page 263


 14934 0213 00       		.byte	0
 14935              	.LLRL111:
 14936 0214 05       		.byte	0x5
 14937 0215 22000000 		.4byte	.LBB663
 14938 0219 04       		.byte	0x4
 14939 021a 00       		.uleb128 .LBB663-.LBB663
 14940 021b 04       		.uleb128 .LBE663-.LBB663
 14941 021c 04       		.byte	0x4
 14942 021d 08       		.uleb128 .LBB673-.LBB663
 14943 021e 0C       		.uleb128 .LBE673-.LBB663
 14944 021f 00       		.byte	0
 14945              	.LLRL114:
 14946 0220 05       		.byte	0x5
 14947 0221 00000000 		.4byte	.LBB688
 14948 0225 04       		.byte	0x4
 14949 0226 00       		.uleb128 .LBB688-.LBB688
 14950 0227 00       		.uleb128 .LBE688-.LBB688
 14951 0228 04       		.byte	0x4
 14952 0229 02       		.uleb128 .LBB695-.LBB688
 14953 022a 08       		.uleb128 .LBE695-.LBB688
 14954 022b 00       		.byte	0
 14955              	.LLRL116:
 14956 022c 05       		.byte	0x5
 14957 022d 08000000 		.4byte	.LBB696
 14958 0231 04       		.byte	0x4
 14959 0232 00       		.uleb128 .LBB696-.LBB696
 14960 0233 16       		.uleb128 .LBE696-.LBB696
 14961 0234 04       		.byte	0x4
 14962 0235 1A       		.uleb128 .LBB713-.LBB696
 14963 0236 48       		.uleb128 .LBE713-.LBB696
 14964 0237 00       		.byte	0
 14965              	.LLRL119:
 14966 0238 05       		.byte	0x5
 14967 0239 10000000 		.4byte	.LBB700
 14968 023d 04       		.byte	0x4
 14969 023e 00       		.uleb128 .LBB700-.LBB700
 14970 023f 02       		.uleb128 .LBE700-.LBB700
 14971 0240 04       		.byte	0x4
 14972 0241 04       		.uleb128 .LBB704-.LBB700
 14973 0242 04       		.uleb128 .LBE704-.LBB700
 14974 0243 04       		.byte	0x4
 14975 0244 20       		.uleb128 .LBB709-.LBB700
 14976 0245 22       		.uleb128 .LBE709-.LBB700
 14977 0246 00       		.byte	0
 14978              	.LLRL121:
 14979 0247 05       		.byte	0x5
 14980 0248 26000000 		.4byte	.LBB705
 14981 024c 04       		.byte	0x4
 14982 024d 00       		.uleb128 .LBB705-.LBB705
 14983 024e 02       		.uleb128 .LBE705-.LBB705
 14984 024f 04       		.byte	0x4
 14985 0250 04       		.uleb128 .LBB708-.LBB705
 14986 0251 06       		.uleb128 .LBE708-.LBB705
 14987 0252 00       		.byte	0
 14988              	.LLRL127:
 14989 0253 05       		.byte	0x5
 14990 0254 00000000 		.4byte	.LBB714
ARM GAS  C:\Users\DEVELO~1\AppData\Local\Temp\ccUBlV4P.s 			page 264


 14991 0258 04       		.byte	0x4
 14992 0259 00       		.uleb128 .LBB714-.LBB714
 14993 025a 00       		.uleb128 .LBE714-.LBB714
 14994 025b 04       		.byte	0x4
 14995 025c 02       		.uleb128 .LBB717-.LBB714
 14996 025d 06       		.uleb128 .LBE717-.LBB714
 14997 025e 00       		.byte	0
 14998              	.LLRL128:
 14999 025f 05       		.byte	0x5
 15000 0260 0A000000 		.4byte	.LBB718
 15001 0264 04       		.byte	0x4
 15002 0265 00       		.uleb128 .LBB718-.LBB718
 15003 0266 02       		.uleb128 .LBE718-.LBB718
 15004 0267 04       		.byte	0x4
 15005 0268 04       		.uleb128 .LBB722-.LBB718
 15006 0269 04       		.uleb128 .LBE722-.LBB718
 15007 026a 04       		.byte	0x4
 15008 026b 20       		.uleb128 .LBB727-.LBB718
 15009 026c 22       		.uleb128 .LBE727-.LBB718
 15010 026d 00       		.byte	0
 15011              	.LLRL130:
 15012 026e 05       		.byte	0x5
 15013 026f 20000000 		.4byte	.LBB723
 15014 0273 04       		.byte	0x4
 15015 0274 00       		.uleb128 .LBB723-.LBB723
 15016 0275 02       		.uleb128 .LBE723-.LBB723
 15017 0276 04       		.byte	0x4
 15018 0277 04       		.uleb128 .LBB726-.LBB723
 15019 0278 06       		.uleb128 .LBE726-.LBB723
 15020 0279 00       		.byte	0
 15021              	.LLRL137:
 15022 027a 05       		.byte	0x5
 15023 027b 00000000 		.4byte	.LBB772
 15024 027f 04       		.byte	0x4
 15025 0280 00       		.uleb128 .LBB772-.LBB772
 15026 0281 00       		.uleb128 .LBE772-.LBB772
 15027 0282 04       		.byte	0x4
 15028 0283 02       		.uleb128 .LBB776-.LBB772
 15029 0284 04       		.uleb128 .LBE776-.LBB772
 15030 0285 04       		.byte	0x4
 15031 0286 08       		.uleb128 .LBB784-.LBB772
 15032 0287 0A       		.uleb128 .LBE784-.LBB772
 15033 0288 00       		.byte	0
 15034              	.LLRL138:
 15035 0289 05       		.byte	0x5
 15036 028a 04000000 		.4byte	.LBB777
 15037 028e 04       		.byte	0x4
 15038 028f 00       		.uleb128 .LBB777-.LBB777
 15039 0290 02       		.uleb128 .LBE777-.LBB777
 15040 0291 04       		.byte	0x4
 15041 0292 06       		.uleb128 .LBB785-.LBB777
 15042 0293 0A       		.uleb128 .LBE785-.LBB777
 15043 0294 00       		.byte	0
 15044              	.LLRL140:
 15045 0295 05       		.byte	0x5
 15046 0296 14000000 		.4byte	.LBB786
 15047 029a 04       		.byte	0x4
ARM GAS  C:\Users\DEVELO~1\AppData\Local\Temp\ccUBlV4P.s 			page 265


 15048 029b 00       		.uleb128 .LBB786-.LBB786
 15049 029c 02       		.uleb128 .LBE786-.LBB786
 15050 029d 04       		.byte	0x4
 15051 029e 04       		.uleb128 .LBB789-.LBB786
 15052 029f 08       		.uleb128 .LBE789-.LBB786
 15053 02a0 00       		.byte	0
 15054              	.LLRL144:
 15055 02a1 05       		.byte	0x5
 15056 02a2 28000000 		.4byte	.LBB795
 15057 02a6 04       		.byte	0x4
 15058 02a7 00       		.uleb128 .LBB795-.LBB795
 15059 02a8 1A       		.uleb128 .LBE795-.LBB795
 15060 02a9 04       		.byte	0x4
 15061 02aa 1E       		.uleb128 .LBB816-.LBB795
 15062 02ab 34       		.uleb128 .LBE816-.LBB795
 15063 02ac 00       		.byte	0
 15064              	.LLRL154:
 15065 02ad 05       		.byte	0x5
 15066 02ae 00000000 		.4byte	.LBB817
 15067 02b2 04       		.byte	0x4
 15068 02b3 00       		.uleb128 .LBB817-.LBB817
 15069 02b4 02       		.uleb128 .LBE817-.LBB817
 15070 02b5 04       		.byte	0x4
 15071 02b6 04       		.uleb128 .LBB830-.LBB817
 15072 02b7 06       		.uleb128 .LBE830-.LBB817
 15073 02b8 00       		.byte	0
 15074              	.LLRL155:
 15075 02b9 05       		.byte	0x5
 15076 02ba 02000000 		.4byte	.LBB820
 15077 02be 04       		.byte	0x4
 15078 02bf 00       		.uleb128 .LBB820-.LBB820
 15079 02c0 02       		.uleb128 .LBE820-.LBB820
 15080 02c1 04       		.byte	0x4
 15081 02c2 04       		.uleb128 .LBB831-.LBB820
 15082 02c3 04       		.uleb128 .LBE831-.LBB820
 15083 02c4 04       		.byte	0x4
 15084 02c5 06       		.uleb128 .LBB832-.LBB820
 15085 02c6 0A       		.uleb128 .LBE832-.LBB820
 15086 02c7 00       		.byte	0
 15087              	.LLRL159:
 15088 02c8 05       		.byte	0x5
 15089 02c9 08000000 		.4byte	.LBB842
 15090 02cd 04       		.byte	0x4
 15091 02ce 00       		.uleb128 .LBB842-.LBB842
 15092 02cf 02       		.uleb128 .LBE842-.LBB842
 15093 02d0 04       		.byte	0x4
 15094 02d1 08       		.uleb128 .LBB851-.LBB842
 15095 02d2 0C       		.uleb128 .LBE851-.LBB842
 15096 02d3 00       		.byte	0
 15097              	.LLRL162:
 15098 02d4 05       		.byte	0x5
 15099 02d5 00000000 		.4byte	.LBB852
 15100 02d9 04       		.byte	0x4
 15101 02da 00       		.uleb128 .LBB852-.LBB852
 15102 02db 00       		.uleb128 .LBE852-.LBB852
 15103 02dc 04       		.byte	0x4
 15104 02dd 04       		.uleb128 .LBB859-.LBB852
ARM GAS  C:\Users\DEVELO~1\AppData\Local\Temp\ccUBlV4P.s 			page 266


 15105 02de 0A       		.uleb128 .LBE859-.LBB852
 15106 02df 00       		.byte	0
 15107              	.LLRL168:
 15108 02e0 05       		.byte	0x5
 15109 02e1 00000000 		.4byte	.LBB867
 15110 02e5 04       		.byte	0x4
 15111 02e6 00       		.uleb128 .LBB867-.LBB867
 15112 02e7 00       		.uleb128 .LBE867-.LBB867
 15113 02e8 04       		.byte	0x4
 15114 02e9 02       		.uleb128 .LBB877-.LBB867
 15115 02ea 04       		.uleb128 .LBE877-.LBB867
 15116 02eb 04       		.byte	0x4
 15117 02ec 06       		.uleb128 .LBB878-.LBB867
 15118 02ed 0A       		.uleb128 .LBE878-.LBB867
 15119 02ee 00       		.byte	0
 15120              	.LLRL177:
 15121 02ef 05       		.byte	0x5
 15122 02f0 00000000 		.4byte	.LBB891
 15123 02f4 04       		.byte	0x4
 15124 02f5 00       		.uleb128 .LBB891-.LBB891
 15125 02f6 00       		.uleb128 .LBE891-.LBB891
 15126 02f7 04       		.byte	0x4
 15127 02f8 02       		.uleb128 .LBB901-.LBB891
 15128 02f9 04       		.uleb128 .LBE901-.LBB891
 15129 02fa 04       		.byte	0x4
 15130 02fb 08       		.uleb128 .LBB902-.LBB891
 15131 02fc 0C       		.uleb128 .LBE902-.LBB891
 15132 02fd 00       		.byte	0
 15133              	.LLRL179:
 15134 02fe 05       		.byte	0x5
 15135 02ff 10000000 		.4byte	.LBB906
 15136 0303 04       		.byte	0x4
 15137 0304 00       		.uleb128 .LBB906-.LBB906
 15138 0305 02       		.uleb128 .LBE906-.LBB906
 15139 0306 04       		.byte	0x4
 15140 0307 02       		.uleb128 .LBB909-.LBB906
 15141 0308 04       		.uleb128 .LBE909-.LBB906
 15142 0309 00       		.byte	0
 15143              	.LLRL187:
 15144 030a 05       		.byte	0x5
 15145 030b 00000000 		.4byte	.LBB919
 15146 030f 04       		.byte	0x4
 15147 0310 00       		.uleb128 .LBB919-.LBB919
 15148 0311 00       		.uleb128 .LBE919-.LBB919
 15149 0312 04       		.byte	0x4
 15150 0313 02       		.uleb128 .LBB926-.LBB919
 15151 0314 08       		.uleb128 .LBE926-.LBB919
 15152 0315 00       		.byte	0
 15153              	.LLRL192:
 15154 0316 05       		.byte	0x5
 15155 0317 00000000 		.4byte	.LBB932
 15156 031b 04       		.byte	0x4
 15157 031c 00       		.uleb128 .LBB932-.LBB932
 15158 031d 00       		.uleb128 .LBE932-.LBB932
 15159 031e 04       		.byte	0x4
 15160 031f 02       		.uleb128 .LBB936-.LBB932
 15161 0320 04       		.uleb128 .LBE936-.LBB932
ARM GAS  C:\Users\DEVELO~1\AppData\Local\Temp\ccUBlV4P.s 			page 267


 15162 0321 04       		.byte	0x4
 15163 0322 08       		.uleb128 .LBB937-.LBB932
 15164 0323 0A       		.uleb128 .LBE937-.LBB932
 15165 0324 00       		.byte	0
 15166              	.LLRL196:
 15167 0325 05       		.byte	0x5
 15168 0326 00000000 		.4byte	.LBB940
 15169 032a 04       		.byte	0x4
 15170 032b 00       		.uleb128 .LBB940-.LBB940
 15171 032c 02       		.uleb128 .LBE940-.LBB940
 15172 032d 04       		.byte	0x4
 15173 032e 04       		.uleb128 .LBB943-.LBB940
 15174 032f 06       		.uleb128 .LBE943-.LBB940
 15175 0330 00       		.byte	0
 15176              	.LLRL205:
 15177 0331 05       		.byte	0x5
 15178 0332 02000000 		.4byte	.LBB946
 15179 0336 04       		.byte	0x4
 15180 0337 00       		.uleb128 .LBB946-.LBB946
 15181 0338 02       		.uleb128 .LBE946-.LBB946
 15182 0339 04       		.byte	0x4
 15183 033a 04       		.uleb128 .LBB953-.LBB946
 15184 033b 08       		.uleb128 .LBE953-.LBB946
 15185 033c 00       		.byte	0
 15186              	.LLRL215:
 15187 033d 05       		.byte	0x5
 15188 033e 08000000 		.4byte	.LBB966
 15189 0342 04       		.byte	0x4
 15190 0343 00       		.uleb128 .LBB966-.LBB966
 15191 0344 00       		.uleb128 .LBE966-.LBB966
 15192 0345 04       		.byte	0x4
 15193 0346 02       		.uleb128 .LBB971-.LBB966
 15194 0347 06       		.uleb128 .LBE971-.LBB966
 15195 0348 04       		.byte	0x4
 15196 0349 08       		.uleb128 .LBB972-.LBB966
 15197 034a 0C       		.uleb128 .LBE972-.LBB966
 15198 034b 04       		.byte	0x4
 15199 034c 0E       		.uleb128 .LBB973-.LBB966
 15200 034d 10       		.uleb128 .LBE973-.LBB966
 15201 034e 00       		.byte	0
 15202              	.LLRL228:
 15203 034f 05       		.byte	0x5
 15204 0350 04000000 		.4byte	.LBB980
 15205 0354 04       		.byte	0x4
 15206 0355 00       		.uleb128 .LBB980-.LBB980
 15207 0356 02       		.uleb128 .LBE980-.LBB980
 15208 0357 04       		.byte	0x4
 15209 0358 14       		.uleb128 .LBB987-.LBB980
 15210 0359 16       		.uleb128 .LBE987-.LBB980
 15211 035a 00       		.byte	0
 15212              	.LLRL235:
 15213 035b 07       		.byte	0x7
 15214 035c 00000000 		.4byte	.LFB352
 15215 0360 48       		.uleb128 .LFE352-.LFB352
 15216 0361 07       		.byte	0x7
 15217 0362 00000000 		.4byte	.LFB353
 15218 0366 02       		.uleb128 .LFE353-.LFB353
ARM GAS  C:\Users\DEVELO~1\AppData\Local\Temp\ccUBlV4P.s 			page 268


 15219 0367 07       		.byte	0x7
 15220 0368 00000000 		.4byte	.LFB354
 15221 036c 70       		.uleb128 .LFE354-.LFB354
 15222 036d 07       		.byte	0x7
 15223 036e 00000000 		.4byte	.LFB355
 15224 0372 7C       		.uleb128 .LFE355-.LFB355
 15225 0373 07       		.byte	0x7
 15226 0374 00000000 		.4byte	.LFB356
 15227 0378 0E       		.uleb128 .LFE356-.LFB356
 15228 0379 07       		.byte	0x7
 15229 037a 00000000 		.4byte	.LFB357
 15230 037e 1E       		.uleb128 .LFE357-.LFB357
 15231 037f 07       		.byte	0x7
 15232 0380 00000000 		.4byte	.LFB358
 15233 0384 9401     		.uleb128 .LFE358-.LFB358
 15234 0386 07       		.byte	0x7
 15235 0387 00000000 		.4byte	.LFB359
 15236 038b A001     		.uleb128 .LFE359-.LFB359
 15237 038d 07       		.byte	0x7
 15238 038e 00000000 		.4byte	.LFB360
 15239 0392 0E       		.uleb128 .LFE360-.LFB360
 15240 0393 07       		.byte	0x7
 15241 0394 00000000 		.4byte	.LFB361
 15242 0398 1E       		.uleb128 .LFE361-.LFB361
 15243 0399 07       		.byte	0x7
 15244 039a 00000000 		.4byte	.LFB362
 15245 039e A401     		.uleb128 .LFE362-.LFB362
 15246 03a0 07       		.byte	0x7
 15247 03a1 00000000 		.4byte	.LFB363
 15248 03a5 1A       		.uleb128 .LFE363-.LFB363
 15249 03a6 07       		.byte	0x7
 15250 03a7 00000000 		.4byte	.LFB364
 15251 03ab 14       		.uleb128 .LFE364-.LFB364
 15252 03ac 07       		.byte	0x7
 15253 03ad 00000000 		.4byte	.LFB365
 15254 03b1 36       		.uleb128 .LFE365-.LFB365
 15255 03b2 07       		.byte	0x7
 15256 03b3 00000000 		.4byte	.LFB366
 15257 03b7 50       		.uleb128 .LFE366-.LFB366
 15258 03b8 07       		.byte	0x7
 15259 03b9 00000000 		.4byte	.LFB367
 15260 03bd 4C       		.uleb128 .LFE367-.LFB367
 15261 03be 07       		.byte	0x7
 15262 03bf 00000000 		.4byte	.LFB368
 15263 03c3 64       		.uleb128 .LFE368-.LFB368
 15264 03c4 07       		.byte	0x7
 15265 03c5 00000000 		.4byte	.LFB369
 15266 03c9 30       		.uleb128 .LFE369-.LFB369
 15267 03ca 07       		.byte	0x7
 15268 03cb 00000000 		.4byte	.LFB370
 15269 03cf 16       		.uleb128 .LFE370-.LFB370
 15270 03d0 07       		.byte	0x7
 15271 03d1 00000000 		.4byte	.LFB371
 15272 03d5 18       		.uleb128 .LFE371-.LFB371
 15273 03d6 07       		.byte	0x7
 15274 03d7 00000000 		.4byte	.LFB372
 15275 03db 20       		.uleb128 .LFE372-.LFB372
ARM GAS  C:\Users\DEVELO~1\AppData\Local\Temp\ccUBlV4P.s 			page 269


 15276 03dc 07       		.byte	0x7
 15277 03dd 00000000 		.4byte	.LFB373
 15278 03e1 2A       		.uleb128 .LFE373-.LFB373
 15279 03e2 07       		.byte	0x7
 15280 03e3 00000000 		.4byte	.LFB374
 15281 03e7 14       		.uleb128 .LFE374-.LFB374
 15282 03e8 07       		.byte	0x7
 15283 03e9 00000000 		.4byte	.LFB375
 15284 03ed 1C       		.uleb128 .LFE375-.LFB375
 15285 03ee 07       		.byte	0x7
 15286 03ef 00000000 		.4byte	.LFB376
 15287 03f3 1C       		.uleb128 .LFE376-.LFB376
 15288 03f4 07       		.byte	0x7
 15289 03f5 00000000 		.4byte	.LFB377
 15290 03f9 12       		.uleb128 .LFE377-.LFB377
 15291 03fa 07       		.byte	0x7
 15292 03fb 00000000 		.4byte	.LFB378
 15293 03ff 10       		.uleb128 .LFE378-.LFB378
 15294 0400 07       		.byte	0x7
 15295 0401 00000000 		.4byte	.LFB379
 15296 0405 1E       		.uleb128 .LFE379-.LFB379
 15297 0406 07       		.byte	0x7
 15298 0407 00000000 		.4byte	.LFB380
 15299 040b 06       		.uleb128 .LFE380-.LFB380
 15300 040c 07       		.byte	0x7
 15301 040d 00000000 		.4byte	.LFB382
 15302 0411 28       		.uleb128 .LFE382-.LFB382
 15303 0412 07       		.byte	0x7
 15304 0413 00000000 		.4byte	.LFB383
 15305 0417 16       		.uleb128 .LFE383-.LFB383
 15306 0418 07       		.byte	0x7
 15307 0419 00000000 		.4byte	.LFB384
 15308 041d 20       		.uleb128 .LFE384-.LFB384
 15309 041e 00       		.byte	0
 15310              	.Ldebug_ranges3:
 15311              		.section	.debug_line,"",%progbits
 15312              	.Ldebug_line0:
 15313 0000 5D1D0000 		.section	.debug_str,"MS",%progbits,1
 15313      0300F902 
 15313      00000201 
 15313      FB0E0D00 
 15313      01010101 
 15314              	.LASF88:
 15315 0000 70726576 		.ascii	"prev\000"
 15315      00
 15316              	.LASF128:
 15317 0005 7466756E 		.ascii	"tfunc_t\000"
 15317      635F7400 
 15318              	.LASF121:
 15319 000d 72656164 		.ascii	"ready_list_t\000"
 15319      795F6C69 
 15319      73745F74 
 15319      00
 15320              	.LASF4:
 15321 001a 73697A65 		.ascii	"size_t\000"
 15321      5F7400
 15322              	.LASF110:
ARM GAS  C:\Users\DEVELO~1\AppData\Local\Temp\ccUBlV4P.s 			page 270


 15323 0021 7264796D 		.ascii	"rdymsg\000"
 15323      736700
 15324              	.LASF131:
 15325 0028 66756E63 		.ascii	"funcp\000"
 15325      7000
 15326              	.LASF55:
 15327 002e 72666375 		.ascii	"rfcu\000"
 15327      00
 15328              	.LASF142:
 15329 0033 63685468 		.ascii	"chThdDequeueAllI\000"
 15329      64446571 
 15329      75657565 
 15329      416C6C49 
 15329      00
 15330              	.LASF5:
 15331 0044 5F5F7569 		.ascii	"__uint8_t\000"
 15331      6E74385F 
 15331      7400
 15332              	.LASF42:
 15333 004e 6F626A65 		.ascii	"object\000"
 15333      637400
 15334              	.LASF81:
 15335 0055 706F7274 		.ascii	"port_intctx\000"
 15335      5F696E74 
 15335      63747800 
 15336              	.LASF52:
 15337 0061 76746C69 		.ascii	"vtlist\000"
 15337      737400
 15338              	.LASF155:
 15339 0068 63685468 		.ascii	"chThdSleepUntilWindowed\000"
 15339      64536C65 
 15339      6570556E 
 15339      74696C57 
 15339      696E646F 
 15340              	.LASF73:
 15341 0080 74797065 		.ascii	"type\000"
 15341      00
 15342              	.LASF132:
 15343 0085 74687265 		.ascii	"thread_descriptor_t\000"
 15343      61645F64 
 15343      65736372 
 15343      6970746F 
 15343      725F7400 
 15344              	.LASF11:
 15345 0099 6C6F6E67 		.ascii	"long int\000"
 15345      20696E74 
 15345      00
 15346              	.LASF76:
 15347 00a2 74726163 		.ascii	"trace_event_t\000"
 15347      655F6576 
 15347      656E745F 
 15347      7400
 15348              	.LASF164:
 15349 00b0 63685468 		.ascii	"chThdExitS\000"
 15349      64457869 
 15349      745300
 15350              	.LASF71:
ARM GAS  C:\Users\DEVELO~1\AppData\Local\Temp\ccUBlV4P.s 			page 271


 15351 00bb 68616C74 		.ascii	"halt\000"
 15351      00
 15352              	.LASF41:
 15353 00c0 64697370 		.ascii	"dispose\000"
 15353      6F736500 
 15354              	.LASF22:
 15355 00c8 706F7274 		.ascii	"port_stkline_t\000"
 15355      5F73746B 
 15355      6C696E65 
 15355      5F7400
 15356              	.LASF111:
 15357 00d7 65786974 		.ascii	"exitcode\000"
 15357      636F6465 
 15357      00
 15358              	.LASF182:
 15359 00e0 63685468 		.ascii	"chThdSpawnSuspendedI\000"
 15359      64537061 
 15359      776E5375 
 15359      7370656E 
 15359      64656449 
 15360              	.LASF58:
 15361 00f5 6D61696E 		.ascii	"mainthread\000"
 15361      74687265 
 15361      616400
 15362              	.LASF113:
 15363 0100 73656E74 		.ascii	"sentmsg\000"
 15363      6D736700 
 15364              	.LASF94:
 15365 0108 64656C74 		.ascii	"delta\000"
 15365      6100
 15366              	.LASF85:
 15367 010e 6E657874 		.ascii	"next\000"
 15367      00
 15368              	.LASF105:
 15369 0113 63685F74 		.ascii	"ch_threads_queue\000"
 15369      68726561 
 15369      64735F71 
 15369      75657565 
 15369      00
 15370              	.LASF124:
 15371 0124 63737461 		.ascii	"cstack_end\000"
 15371      636B5F65 
 15371      6E6400
 15372              	.LASF1:
 15373 012f 6C6F6E67 		.ascii	"long long int\000"
 15373      206C6F6E 
 15373      6720696E 
 15373      7400
 15374              	.LASF3:
 15375 013d 7369676E 		.ascii	"signed char\000"
 15375      65642063 
 15375      68617200 
 15376              	.LASF206:
 15377 0149 63685469 		.ascii	"chTimeIsInRangeX\000"
 15377      6D654973 
 15377      496E5261 
 15377      6E676558 
ARM GAS  C:\Users\DEVELO~1\AppData\Local\Temp\ccUBlV4P.s 			page 272


 15377      00
 15378              	.LASF165:
 15379 015a 63685468 		.ascii	"chThdExit\000"
 15379      64457869 
 15379      7400
 15380              	.LASF13:
 15381 0164 6C6F6E67 		.ascii	"long unsigned int\000"
 15381      20756E73 
 15381      69676E65 
 15381      6420696E 
 15381      7400
 15382              	.LASF170:
 15383 0176 7773697A 		.ascii	"wsize\000"
 15383      6500
 15384              	.LASF93:
 15385 017c 63685F64 		.ascii	"ch_delta_list\000"
 15385      656C7461 
 15385      5F6C6973 
 15385      7400
 15386              	.LASF15:
 15387 018a 6C6F6E67 		.ascii	"long long unsigned int\000"
 15387      206C6F6E 
 15387      6720756E 
 15387      7369676E 
 15387      65642069 
 15388              	.LASF178:
 15389 01a1 63685468 		.ascii	"chThdCreateSuspendedI\000"
 15389      64437265 
 15389      61746553 
 15389      75737065 
 15389      6E646564 
 15390              	.LASF48:
 15391 01b7 6F735F69 		.ascii	"os_instance_t\000"
 15391      6E737461 
 15391      6E63655F 
 15391      7400
 15392              	.LASF205:
 15393 01c5 62617365 		.ascii	"basePri\000"
 15393      50726900 
 15394              	.LASF36:
 15395 01cd 73746174 		.ascii	"state\000"
 15395      6500
 15396              	.LASF23:
 15397 01d3 73746B6C 		.ascii	"stkline_t\000"
 15397      696E655F 
 15397      7400
 15398              	.LASF25:
 15399 01dd 74737461 		.ascii	"tstate_t\000"
 15399      74655F74 
 15399      00
 15400              	.LASF136:
 15401 01e6 63685363 		.ascii	"chSchRescheduleS\000"
 15401      68526573 
 15401      63686564 
 15401      756C6553 
 15401      00
 15402              	.LASF33:
ARM GAS  C:\Users\DEVELO~1\AppData\Local\Temp\ccUBlV4P.s 			page 273


 15403 01f7 6F776E65 		.ascii	"owner\000"
 15403      7200
 15404              	.LASF171:
 15405 01fd 66756E63 		.ascii	"func\000"
 15405      00
 15406              	.LASF68:
 15407 0202 73797369 		.ascii	"sysinterval_t\000"
 15407      6E746572 
 15407      76616C5F 
 15407      7400
 15408              	.LASF202:
 15409 0210 706F7274 		.ascii	"port_unlock\000"
 15409      5F756E6C 
 15409      6F636B00 
 15410              	.LASF87:
 15411 021c 63685F71 		.ascii	"ch_queue\000"
 15411      75657565 
 15411      00
 15412              	.LASF7:
 15413 0225 73686F72 		.ascii	"short int\000"
 15413      7420696E 
 15413      7400
 15414              	.LASF18:
 15415 022f 75696E74 		.ascii	"uint16_t\000"
 15415      31365F74 
 15415      00
 15416              	.LASF192:
 15417 0238 63685F71 		.ascii	"ch_queue_fifo_remove\000"
 15417      75657565 
 15417      5F666966 
 15417      6F5F7265 
 15417      6D6F7665 
 15418              	.LASF80:
 15419 024d 74726163 		.ascii	"trace_buffer_t\000"
 15419      655F6275 
 15419      66666572 
 15419      5F7400
 15420              	.LASF143:
 15421 025c 63685468 		.ascii	"chThdDequeueNextI\000"
 15421      64446571 
 15421      75657565 
 15421      4E657874 
 15421      4900
 15422              	.LASF101:
 15423 026e 63685F72 		.ascii	"ch_registry\000"
 15423      65676973 
 15423      74727900 
 15424              	.LASF211:
 15425 027a 433A5C43 		.ascii	"C:\\ChibiStudio\\chibios2111\\demos\\STM32\\RT-STM3"
 15425      68696269 
 15425      53747564 
 15425      696F5C63 
 15425      68696269 
 15426 02a8 32483734 		.ascii	"2H743ZI_REV_XY-NUCLEO144 - Copie\000"
 15426      335A495F 
 15426      5245565F 
 15426      58592D4E 
ARM GAS  C:\Users\DEVELO~1\AppData\Local\Temp\ccUBlV4P.s 			page 274


 15426      55434C45 
 15427              	.LASF160:
 15428 02c9 63685468 		.ascii	"chThdSetPriority\000"
 15428      64536574 
 15428      5072696F 
 15428      72697479 
 15428      00
 15429              	.LASF176:
 15430 02da 63685468 		.ascii	"chThdCreateI\000"
 15430      64437265 
 15430      61746549 
 15430      00
 15431              	.LASF175:
 15432 02e7 63685468 		.ascii	"chThdCreate\000"
 15432      64437265 
 15432      61746500 
 15433              	.LASF12:
 15434 02f3 5F5F7569 		.ascii	"__uint32_t\000"
 15434      6E743332 
 15434      5F7400
 15435              	.LASF62:
 15436 02fe 6D61736B 		.ascii	"mask\000"
 15436      00
 15437              	.LASF43:
 15438 0303 77616974 		.ascii	"waiting\000"
 15438      696E6700 
 15439              	.LASF125:
 15440 030b 69646C65 		.ascii	"idlestack_base\000"
 15440      73746163 
 15440      6B5F6261 
 15440      736500
 15441              	.LASF133:
 15442 031a 6D757465 		.ascii	"mutex_t\000"
 15442      785F7400 
 15443              	.LASF82:
 15444 0322 706F7274 		.ascii	"port_context\000"
 15444      5F636F6E 
 15444      74657874 
 15444      00
 15445              	.LASF54:
 15446 032f 636F7265 		.ascii	"core_id\000"
 15446      5F696400 
 15447              	.LASF30:
 15448 0337 636E745F 		.ascii	"cnt_t\000"
 15448      7400
 15449              	.LASF44:
 15450 033d 6D736771 		.ascii	"msgqueue\000"
 15450      75657565 
 15450      00
 15451              	.LASF163:
 15452 0346 63685468 		.ascii	"chThdWait\000"
 15452      64576169 
 15452      7400
 15453              	.LASF114:
 15454 0350 77747365 		.ascii	"wtsemp\000"
 15454      6D7000
 15455              	.LASF56:
ARM GAS  C:\Users\DEVELO~1\AppData\Local\Temp\ccUBlV4P.s 			page 275


 15456 0357 636F6E66 		.ascii	"config\000"
 15456      696700
 15457              	.LASF66:
 15458 035e 73797374 		.ascii	"system_debug_t\000"
 15458      656D5F64 
 15458      65627567 
 15458      5F7400
 15459              	.LASF112:
 15460 036d 77747472 		.ascii	"wttrp\000"
 15460      7000
 15461              	.LASF40:
 15462 0373 72717565 		.ascii	"rqueue\000"
 15462      756500
 15463              	.LASF86:
 15464 037a 63685F71 		.ascii	"ch_queue_t\000"
 15464      75657565 
 15464      5F7400
 15465              	.LASF186:
 15466 0385 63685468 		.ascii	"chThdSleepS\000"
 15466      64536C65 
 15466      65705300 
 15467              	.LASF144:
 15468 0391 74696D65 		.ascii	"timeout\000"
 15468      6F757400 
 15469              	.LASF209:
 15470 0399 474E5520 		.ascii	"GNU C17 11.3.1 20220712 -mcpu=cortex-m7 -mthumb -mf"
 15470      43313720 
 15470      31312E33 
 15470      2E312032 
 15470      30323230 
 15471 03cc 6C6F6174 		.ascii	"loat-abi=soft -march=armv7e-m -ggdb -O2 -fomit-fram"
 15471      2D616269 
 15471      3D736F66 
 15471      74202D6D 
 15471      61726368 
 15472 03ff 652D706F 		.ascii	"e-pointer -falign-functions=16 -ffunction-sections "
 15472      696E7465 
 15472      72202D66 
 15472      616C6967 
 15472      6E2D6675 
 15473 0432 2D666461 		.ascii	"-fdata-sections -fno-common\000"
 15473      74612D73 
 15473      65637469 
 15473      6F6E7320 
 15473      2D666E6F 
 15474              	.LASF39:
 15475 044e 6E616D65 		.ascii	"name\000"
 15475      00
 15476              	.LASF153:
 15477 0453 63685468 		.ascii	"chThdSuspendS\000"
 15477      64537573 
 15477      70656E64 
 15477      5300
 15478              	.LASF102:
 15479 0461 71756575 		.ascii	"queue\000"
 15479      6500
 15480              	.LASF157:
ARM GAS  C:\Users\DEVELO~1\AppData\Local\Temp\ccUBlV4P.s 			page 276


 15481 0467 696E7465 		.ascii	"interval\000"
 15481      7276616C 
 15481      00
 15482              	.LASF78:
 15483 0470 73697A65 		.ascii	"size\000"
 15483      00
 15484              	.LASF9:
 15485 0475 73686F72 		.ascii	"short unsigned int\000"
 15485      7420756E 
 15485      7369676E 
 15485      65642069 
 15485      6E7400
 15486              	.LASF189:
 15487 0488 63685654 		.ascii	"chVTGetSystemTimeX\000"
 15487      47657453 
 15487      79737465 
 15487      6D54696D 
 15487      655800
 15488              	.LASF49:
 15489 049b 63685F74 		.ascii	"ch_thread\000"
 15489      68726561 
 15489      6400
 15490              	.LASF145:
 15491 04a5 63757272 		.ascii	"currtp\000"
 15491      747000
 15492              	.LASF154:
 15493 04ac 63685468 		.ascii	"chThdYield\000"
 15493      64596965 
 15493      6C6400
 15494              	.LASF28:
 15495 04b7 6D73675F 		.ascii	"msg_t\000"
 15495      7400
 15496              	.LASF45:
 15497 04bd 6570656E 		.ascii	"epending\000"
 15497      64696E67 
 15497      00
 15498              	.LASF197:
 15499 04c6 63685F6C 		.ascii	"ch_list_link\000"
 15499      6973745F 
 15499      6C696E6B 
 15499      00
 15500              	.LASF161:
 15501 04d3 6E657770 		.ascii	"newprio\000"
 15501      72696F00 
 15502              	.LASF24:
 15503 04db 746D6F64 		.ascii	"tmode_t\000"
 15503      655F7400 
 15504              	.LASF159:
 15505 04e3 63685468 		.ascii	"chThdTerminate\000"
 15505      64546572 
 15505      6D696E61 
 15505      746500
 15506              	.LASF84:
 15507 04f2 63685F6C 		.ascii	"ch_list\000"
 15507      69737400 
 15508              	.LASF119:
 15509 04fa 63685F72 		.ascii	"ch_ready_list\000"
ARM GAS  C:\Users\DEVELO~1\AppData\Local\Temp\ccUBlV4P.s 			page 277


 15509      65616479 
 15509      5F6C6973 
 15509      7400
 15510              	.LASF29:
 15511 0508 6576656E 		.ascii	"eventmask_t\000"
 15511      746D6173 
 15511      6B5F7400 
 15512              	.LASF10:
 15513 0514 5F5F696E 		.ascii	"__int32_t\000"
 15513      7433325F 
 15513      7400
 15514              	.LASF167:
 15515 051e 63685468 		.ascii	"chThdAddRef\000"
 15515      64416464 
 15515      52656600 
 15516              	.LASF162:
 15517 052a 6F6C6470 		.ascii	"oldprio\000"
 15517      72696F00 
 15518              	.LASF100:
 15519 0532 76697274 		.ascii	"virtual_timers_list_t\000"
 15519      75616C5F 
 15519      74696D65 
 15519      72735F6C 
 15519      6973745F 
 15520              	.LASF169:
 15521 0548 63685468 		.ascii	"chThdCreateStatic\000"
 15521      64437265 
 15521      61746553 
 15521      74617469 
 15521      6300
 15522              	.LASF74:
 15523 055a 72747374 		.ascii	"rtstamp\000"
 15523      616D7000 
 15524              	.LASF14:
 15525 0562 5F5F7569 		.ascii	"__uint64_t\000"
 15525      6E743634 
 15525      5F7400
 15526              	.LASF99:
 15527 056d 6C617374 		.ascii	"laststamp\000"
 15527      7374616D 
 15527      7000
 15528              	.LASF146:
 15529 0577 63685468 		.ascii	"chThdQueueObjectInit\000"
 15529      64517565 
 15529      75654F62 
 15529      6A656374 
 15529      496E6974 
 15530              	.LASF47:
 15531 058c 7265616C 		.ascii	"realprio\000"
 15531      7072696F 
 15531      00
 15532              	.LASF152:
 15533 0595 63685468 		.ascii	"chThdSuspendTimeoutS\000"
 15533      64537573 
 15533      70656E64 
 15533      54696D65 
 15533      6F757453 
ARM GAS  C:\Users\DEVELO~1\AppData\Local\Temp\ccUBlV4P.s 			page 278


 15534              	.LASF60:
 15535 05aa 72666375 		.ascii	"rfcu_mask_t\000"
 15535      5F6D6173 
 15535      6B5F7400 
 15536              	.LASF104:
 15537 05b6 74687265 		.ascii	"thread_reference_t\000"
 15537      61645F72 
 15537      65666572 
 15537      656E6365 
 15537      5F7400
 15538              	.LASF95:
 15539 05c9 63685F76 		.ascii	"ch_virtual_timers_list\000"
 15539      69727475 
 15539      616C5F74 
 15539      696D6572 
 15539      735F6C69 
 15540              	.LASF187:
 15541 05e0 7469636B 		.ascii	"ticks\000"
 15541      7300
 15542              	.LASF204:
 15543 05e6 5F5F7365 		.ascii	"__set_BASEPRI\000"
 15543      745F4241 
 15543      53455052 
 15543      4900
 15544              	.LASF83:
 15545 05f4 63685F6C 		.ascii	"ch_list_t\000"
 15545      6973745F 
 15545      7400
 15546              	.LASF107:
 15547 05fe 74687265 		.ascii	"thread_dispose_t\000"
 15547      61645F64 
 15547      6973706F 
 15547      73655F74 
 15547      00
 15548              	.LASF77:
 15549 060f 73757370 		.ascii	"suspended\000"
 15549      656E6465 
 15549      6400
 15550              	.LASF123:
 15551 0619 63737461 		.ascii	"cstack_base\000"
 15551      636B5F62 
 15551      61736500 
 15552              	.LASF174:
 15553 0625 64657363 		.ascii	"desc\000"
 15553      00
 15554              	.LASF21:
 15555 062a 75696E74 		.ascii	"uint64_t\000"
 15555      36345F74 
 15555      00
 15556              	.LASF0:
 15557 0633 756E7369 		.ascii	"unsigned int\000"
 15557      676E6564 
 15557      20696E74 
 15557      00
 15558              	.LASF122:
 15559 0640 63685F6F 		.ascii	"ch_os_instance_config\000"
 15559      735F696E 
ARM GAS  C:\Users\DEVELO~1\AppData\Local\Temp\ccUBlV4P.s 			page 279


 15559      7374616E 
 15559      63655F63 
 15559      6F6E6669 
 15560              	.LASF129:
 15561 0656 77626173 		.ascii	"wbase\000"
 15561      6500
 15562              	.LASF75:
 15563 065c 74696D65 		.ascii	"time\000"
 15563      00
 15564              	.LASF91:
 15565 0661 7072696F 		.ascii	"prio\000"
 15565      00
 15566              	.LASF126:
 15567 0666 69646C65 		.ascii	"idlestack_end\000"
 15567      73746163 
 15567      6B5F656E 
 15567      6400
 15568              	.LASF168:
 15569 0674 63685468 		.ascii	"chThdStart\000"
 15569      64537461 
 15569      727400
 15570              	.LASF120:
 15571 067f 63757272 		.ascii	"current\000"
 15571      656E7400 
 15572              	.LASF194:
 15573 0687 63685F71 		.ascii	"ch_queue_notempty\000"
 15573      75657565 
 15573      5F6E6F74 
 15573      656D7074 
 15573      7900
 15574              	.LASF98:
 15575 0699 6C617374 		.ascii	"lastdelta\000"
 15575      64656C74 
 15575      6100
 15576              	.LASF31:
 15577 06a3 636F7265 		.ascii	"core_id_t\000"
 15577      5F69645F 
 15577      7400
 15578              	.LASF26:
 15579 06ad 74726566 		.ascii	"trefs_t\000"
 15579      735F7400 
 15580              	.LASF61:
 15581 06b5 63685F72 		.ascii	"ch_rfcu\000"
 15581      66637500 
 15582              	.LASF38:
 15583 06bd 72656673 		.ascii	"refs\000"
 15583      00
 15584              	.LASF208:
 15585 06c2 63685469 		.ascii	"chTimeDiffX\000"
 15585      6D654469 
 15585      66665800 
 15586              	.LASF27:
 15587 06ce 74707269 		.ascii	"tprio_t\000"
 15587      6F5F7400 
 15588              	.LASF72:
 15589 06d6 75736572 		.ascii	"user\000"
 15589      00
ARM GAS  C:\Users\DEVELO~1\AppData\Local\Temp\ccUBlV4P.s 			page 280


 15590              	.LASF64:
 15591 06db 63685F73 		.ascii	"ch_system_debug\000"
 15591      79737465 
 15591      6D5F6465 
 15591      62756700 
 15592              	.LASF134:
 15593 06eb 5F426F6F 		.ascii	"_Bool\000"
 15593      6C00
 15594              	.LASF19:
 15595 06f1 696E7433 		.ascii	"int32_t\000"
 15595      325F7400 
 15596              	.LASF6:
 15597 06f9 756E7369 		.ascii	"unsigned char\000"
 15597      676E6564 
 15597      20636861 
 15597      7200
 15598              	.LASF70:
 15599 0707 72656173 		.ascii	"reason\000"
 15599      6F6E00
 15600              	.LASF198:
 15601 070e 63685F6C 		.ascii	"ch_list_notempty\000"
 15601      6973745F 
 15601      6E6F7465 
 15601      6D707479 
 15601      00
 15602              	.LASF63:
 15603 071f 72666375 		.ascii	"rfcu_t\000"
 15603      5F7400
 15604              	.LASF193:
 15605 0726 63685F71 		.ascii	"ch_queue_insert\000"
 15605      75657565 
 15605      5F696E73 
 15605      65727400 
 15606              	.LASF139:
 15607 0736 63685363 		.ascii	"chSchGoSleepTimeoutS\000"
 15607      68476F53 
 15607      6C656570 
 15607      54696D65 
 15607      6F757453 
 15608              	.LASF97:
 15609 074b 6C617374 		.ascii	"lasttime\000"
 15609      74696D65 
 15609      00
 15610              	.LASF69:
 15611 0754 77746F62 		.ascii	"wtobjp\000"
 15611      6A7000
 15612              	.LASF116:
 15613 075b 65776D61 		.ascii	"ewmask\000"
 15613      736B00
 15614              	.LASF212:
 15615 0762 73744765 		.ascii	"stGetCounter\000"
 15615      74436F75 
 15615      6E746572 
 15615      00
 15616              	.LASF147:
 15617 076f 5F5F6675 		.ascii	"__func__\000"
 15617      6E635F5F 
ARM GAS  C:\Users\DEVELO~1\AppData\Local\Temp\ccUBlV4P.s 			page 281


 15617      00
 15618              	.LASF201:
 15619 0778 63685379 		.ascii	"chSysLock\000"
 15619      734C6F63 
 15619      6B00
 15620              	.LASF166:
 15621 0782 63685468 		.ascii	"chThdRelease\000"
 15621      6452656C 
 15621      65617365 
 15621      00
 15622              	.LASF172:
 15623 078f 73746B62 		.ascii	"stkbase\000"
 15623      61736500 
 15624              	.LASF106:
 15625 0797 74687265 		.ascii	"threads_queue_t\000"
 15625      6164735F 
 15625      71756575 
 15625      655F7400 
 15626              	.LASF117:
 15627 07a7 63685F73 		.ascii	"ch_semaphore\000"
 15627      656D6170 
 15627      686F7265 
 15627      00
 15628              	.LASF137:
 15629 07b4 63685363 		.ascii	"chSchGoSleepS\000"
 15629      68476F53 
 15629      6C656570 
 15629      5300
 15630              	.LASF184:
 15631 07c2 63685468 		.ascii	"chThdObjectInit\000"
 15631      644F626A 
 15631      65637449 
 15631      6E697400 
 15632              	.LASF103:
 15633 07d2 72656769 		.ascii	"registry_t\000"
 15633      73747279 
 15633      5F7400
 15634              	.LASF20:
 15635 07dd 75696E74 		.ascii	"uint32_t\000"
 15635      33325F74 
 15635      00
 15636              	.LASF115:
 15637 07e6 77746D74 		.ascii	"wtmtxp\000"
 15637      787000
 15638              	.LASF148:
 15639 07ed 63685468 		.ascii	"chThdResume\000"
 15639      64526573 
 15639      756D6500 
 15640              	.LASF130:
 15641 07f9 77656E64 		.ascii	"wend\000"
 15641      00
 15642              	.LASF195:
 15643 07fe 63685F71 		.ascii	"ch_queue_init\000"
 15643      75657565 
 15643      5F696E69 
 15643      7400
 15644              	.LASF2:
ARM GAS  C:\Users\DEVELO~1\AppData\Local\Temp\ccUBlV4P.s 			page 282


 15645 080c 6C6F6E67 		.ascii	"long double\000"
 15645      20646F75 
 15645      626C6500 
 15646              	.LASF34:
 15647 0818 77616261 		.ascii	"wabase\000"
 15647      736500
 15648              	.LASF16:
 15649 081f 63686172 		.ascii	"char\000"
 15649      00
 15650              	.LASF156:
 15651 0824 63685468 		.ascii	"chThdSleepUntil\000"
 15651      64536C65 
 15651      6570556E 
 15651      74696C00 
 15652              	.LASF191:
 15653 0834 63685F71 		.ascii	"ch_queue_dequeue\000"
 15653      75657565 
 15653      5F646571 
 15653      75657565 
 15653      00
 15654              	.LASF8:
 15655 0845 5F5F7569 		.ascii	"__uint16_t\000"
 15655      6E743136 
 15655      5F7400
 15656              	.LASF199:
 15657 0850 63685F6C 		.ascii	"ch_list_init\000"
 15657      6973745F 
 15657      696E6974 
 15657      00
 15658              	.LASF140:
 15659 085d 63685363 		.ascii	"chSchReadyI\000"
 15659      68526561 
 15659      64794900 
 15660              	.LASF32:
 15661 0869 74687265 		.ascii	"thread_t\000"
 15661      61645F74 
 15661      00
 15662              	.LASF185:
 15663 0872 63685468 		.ascii	"chThdDoDequeueNextI\000"
 15663      64446F44 
 15663      65717565 
 15663      75654E65 
 15663      78744900 
 15664              	.LASF96:
 15665 0886 646C6973 		.ascii	"dlist\000"
 15665      7400
 15666              	.LASF67:
 15667 088c 73797374 		.ascii	"systime_t\000"
 15667      696D655F 
 15667      7400
 15668              	.LASF79:
 15669 0896 62756666 		.ascii	"buffer\000"
 15669      657200
 15670              	.LASF89:
 15671 089d 63685F70 		.ascii	"ch_priority_queue_t\000"
 15671      72696F72 
 15671      6974795F 
ARM GAS  C:\Users\DEVELO~1\AppData\Local\Temp\ccUBlV4P.s 			page 283


 15671      71756575 
 15671      655F7400 
 15672              	.LASF183:
 15673 08b1 63685468 		.ascii	"chThdObjectDispose\000"
 15673      644F626A 
 15673      65637444 
 15673      6973706F 
 15673      736500
 15674              	.LASF65:
 15675 08c4 70616E69 		.ascii	"panic_msg\000"
 15675      635F6D73 
 15675      6700
 15676              	.LASF109:
 15677 08ce 70717565 		.ascii	"pqueue\000"
 15677      756500
 15678              	.LASF50:
 15679 08d5 63685F6F 		.ascii	"ch_os_instance\000"
 15679      735F696E 
 15679      7374616E 
 15679      636500
 15680              	.LASF210:
 15681 08e4 2E2F4368 		.ascii	"./ChibiOS/os/rt/src/chthreads.c\000"
 15681      6962694F 
 15681      532F6F73 
 15681      2F72742F 
 15681      7372632F 
 15682              	.LASF53:
 15683 0904 7265676C 		.ascii	"reglist\000"
 15683      69737400 
 15684              	.LASF90:
 15685 090c 63685F70 		.ascii	"ch_priority_queue\000"
 15685      72696F72 
 15685      6974795F 
 15685      71756575 
 15685      6500
 15686              	.LASF179:
 15687 091e 63685468 		.ascii	"chThdSpawnRunning\000"
 15687      64537061 
 15687      776E5275 
 15687      6E6E696E 
 15687      6700
 15688              	.LASF200:
 15689 0930 706F7274 		.ascii	"port_timer_get_time\000"
 15689      5F74696D 
 15689      65725F67 
 15689      65745F74 
 15689      696D6500 
 15690              	.LASF149:
 15691 0944 63685468 		.ascii	"chThdResumeS\000"
 15691      64526573 
 15691      756D6553 
 15691      00
 15692              	.LASF181:
 15693 0951 63685468 		.ascii	"chThdSpawnSuspended\000"
 15693      64537061 
 15693      776E5375 
 15693      7370656E 
ARM GAS  C:\Users\DEVELO~1\AppData\Local\Temp\ccUBlV4P.s 			page 284


 15693      64656400 
 15694              	.LASF92:
 15695 0965 63685F64 		.ascii	"ch_delta_list_t\000"
 15695      656C7461 
 15695      5F6C6973 
 15695      745F7400 
 15696              	.LASF138:
 15697 0975 63685363 		.ascii	"chSchWakeupS\000"
 15697      6857616B 
 15697      65757053 
 15697      00
 15698              	.LASF127:
 15699 0982 6F735F69 		.ascii	"os_instance_config_t\000"
 15699      6E737461 
 15699      6E63655F 
 15699      636F6E66 
 15699      69675F74 
 15700              	.LASF158:
 15701 0997 63685468 		.ascii	"chThdSleep\000"
 15701      64536C65 
 15701      657000
 15702              	.LASF177:
 15703 09a2 63685468 		.ascii	"chThdCreateSuspended\000"
 15703      64437265 
 15703      61746553 
 15703      75737065 
 15703      6E646564 
 15704              	.LASF35:
 15705 09b7 7761656E 		.ascii	"waend\000"
 15705      6400
 15706              	.LASF51:
 15707 09bd 726C6973 		.ascii	"rlist\000"
 15707      7400
 15708              	.LASF213:
 15709 09c3 63685468 		.ascii	"chThdQueueObjectDispose\000"
 15709      64517565 
 15709      75654F62 
 15709      6A656374 
 15709      44697370 
 15710              	.LASF188:
 15711 09db 63685468 		.ascii	"chThdGetSelfX\000"
 15711      64476574 
 15711      53656C66 
 15711      5800
 15712              	.LASF17:
 15713 09e9 75696E74 		.ascii	"uint8_t\000"
 15713      385F7400 
 15714              	.LASF37:
 15715 09f1 666C6167 		.ascii	"flags\000"
 15715      7300
 15716              	.LASF180:
 15717 09f7 63685468 		.ascii	"chThdSpawnRunningI\000"
 15717      64537061 
 15717      776E5275 
 15717      6E6E696E 
 15717      674900
 15718              	.LASF118:
ARM GAS  C:\Users\DEVELO~1\AppData\Local\Temp\ccUBlV4P.s 			page 285


 15719 0a0a 63685F6D 		.ascii	"ch_mutex\000"
 15719      75746578 
 15719      00
 15720              	.LASF135:
 15721 0a13 63685363 		.ascii	"chSchDoYieldS\000"
 15721      68446F59 
 15721      69656C64 
 15721      5300
 15722              	.LASF150:
 15723 0a21 63685468 		.ascii	"chThdResumeI\000"
 15723      64526573 
 15723      756D6549 
 15723      00
 15724              	.LASF59:
 15725 0a2e 74726163 		.ascii	"trace_buffer\000"
 15725      655F6275 
 15725      66666572 
 15725      00
 15726              	.LASF190:
 15727 0a3b 63685379 		.ascii	"chSysUnlock\000"
 15727      73556E6C 
 15727      6F636B00 
 15728              	.LASF207:
 15729 0a47 73746172 		.ascii	"start\000"
 15729      7400
 15730              	.LASF108:
 15731 0a4d 6C697374 		.ascii	"list\000"
 15731      00
 15732              	.LASF203:
 15733 0a52 706F7274 		.ascii	"port_lock\000"
 15733      5F6C6F63 
 15733      6B00
 15734              	.LASF46:
 15735 0a5c 6D74786C 		.ascii	"mtxlist\000"
 15735      69737400 
 15736              	.LASF173:
 15737 0a64 73746B74 		.ascii	"stktop\000"
 15737      6F7000
 15738              	.LASF196:
 15739 0a6b 63685F6C 		.ascii	"ch_list_unlink\000"
 15739      6973745F 
 15739      756E6C69 
 15739      6E6B00
 15740              	.LASF151:
 15741 0a7a 63685468 		.ascii	"chThdEnqueueTimeoutS\000"
 15741      64456E71 
 15741      75657565 
 15741      54696D65 
 15741      6F757453 
 15742              	.LASF141:
 15743 0a8f 5F5F706F 		.ascii	"__port_thread_start\000"
 15743      72745F74 
 15743      68726561 
 15743      645F7374 
 15743      61727400 
 15744              	.LASF57:
 15745 0aa3 69646C65 		.ascii	"idlethread\000"
ARM GAS  C:\Users\DEVELO~1\AppData\Local\Temp\ccUBlV4P.s 			page 286


 15745      74687265 
 15745      616400
 15746              		.ident	"GCC: (Arm GNU Toolchain 11.3.Rel1) 11.3.1 20220712"
ARM GAS  C:\Users\DEVELO~1\AppData\Local\Temp\ccUBlV4P.s 			page 287


DEFINED SYMBOLS
                            *ABS*:00000000 chthreads.c
C:\Users\DEVELO~1\AppData\Local\Temp\ccUBlV4P.s:18     .text.chThdObjectInit:00000000 $t
C:\Users\DEVELO~1\AppData\Local\Temp\ccUBlV4P.s:25     .text.chThdObjectInit:00000000 chThdObjectInit
C:\Users\DEVELO~1\AppData\Local\Temp\ccUBlV4P.s:153    .text.chThdObjectInit:00000044 $d
C:\Users\DEVELO~1\AppData\Local\Temp\ccUBlV4P.s:158    .text.chThdObjectDispose:00000000 $t
C:\Users\DEVELO~1\AppData\Local\Temp\ccUBlV4P.s:165    .text.chThdObjectDispose:00000000 chThdObjectDispose
C:\Users\DEVELO~1\AppData\Local\Temp\ccUBlV4P.s:196    .text.chThdSpawnSuspendedI:00000000 $t
C:\Users\DEVELO~1\AppData\Local\Temp\ccUBlV4P.s:203    .text.chThdSpawnSuspendedI:00000000 chThdSpawnSuspendedI
C:\Users\DEVELO~1\AppData\Local\Temp\ccUBlV4P.s:423    .text.chThdSpawnSuspendedI:00000068 $d
C:\Users\DEVELO~1\AppData\Local\Temp\ccUBlV4P.s:431    .text.chThdSpawnSuspended:00000000 $t
C:\Users\DEVELO~1\AppData\Local\Temp\ccUBlV4P.s:438    .text.chThdSpawnSuspended:00000000 chThdSpawnSuspended
C:\Users\DEVELO~1\AppData\Local\Temp\ccUBlV4P.s:733    .text.chThdSpawnSuspended:00000074 $d
C:\Users\DEVELO~1\AppData\Local\Temp\ccUBlV4P.s:743    .text.chThdSpawnRunningI:00000000 $t
C:\Users\DEVELO~1\AppData\Local\Temp\ccUBlV4P.s:750    .text.chThdSpawnRunningI:00000000 chThdSpawnRunningI
C:\Users\DEVELO~1\AppData\Local\Temp\ccUBlV4P.s:778    .text.chThdSpawnRunning:00000000 $t
C:\Users\DEVELO~1\AppData\Local\Temp\ccUBlV4P.s:785    .text.chThdSpawnRunning:00000000 chThdSpawnRunning
C:\Users\DEVELO~1\AppData\Local\Temp\ccUBlV4P.s:894    .text.chThdCreateSuspendedI:00000000 $t
C:\Users\DEVELO~1\AppData\Local\Temp\ccUBlV4P.s:901    .text.chThdCreateSuspendedI:00000000 chThdCreateSuspendedI
C:\Users\DEVELO~1\AppData\Local\Temp\ccUBlV4P.s:1142   .text.chThdCreateSuspendedI:0000008c $d
C:\Users\DEVELO~1\AppData\Local\Temp\ccUBlV4P.s:1150   .text.chThdCreateSuspended:00000000 $t
C:\Users\DEVELO~1\AppData\Local\Temp\ccUBlV4P.s:1157   .text.chThdCreateSuspended:00000000 chThdCreateSuspended
C:\Users\DEVELO~1\AppData\Local\Temp\ccUBlV4P.s:1478   .text.chThdCreateSuspended:00000098 $d
C:\Users\DEVELO~1\AppData\Local\Temp\ccUBlV4P.s:1488   .text.chThdCreateI:00000000 $t
C:\Users\DEVELO~1\AppData\Local\Temp\ccUBlV4P.s:1495   .text.chThdCreateI:00000000 chThdCreateI
C:\Users\DEVELO~1\AppData\Local\Temp\ccUBlV4P.s:1523   .text.chThdCreate:00000000 $t
C:\Users\DEVELO~1\AppData\Local\Temp\ccUBlV4P.s:1530   .text.chThdCreate:00000000 chThdCreate
C:\Users\DEVELO~1\AppData\Local\Temp\ccUBlV4P.s:1639   .rodata.chThdCreateStatic.str1.4:00000000 $d
C:\Users\DEVELO~1\AppData\Local\Temp\ccUBlV4P.s:1643   .text.chThdCreateStatic:00000000 $t
C:\Users\DEVELO~1\AppData\Local\Temp\ccUBlV4P.s:1650   .text.chThdCreateStatic:00000000 chThdCreateStatic
C:\Users\DEVELO~1\AppData\Local\Temp\ccUBlV4P.s:1962   .text.chThdCreateStatic:00000098 $d
C:\Users\DEVELO~1\AppData\Local\Temp\ccUBlV4P.s:1969   .text.chThdStart:00000000 $t
C:\Users\DEVELO~1\AppData\Local\Temp\ccUBlV4P.s:1976   .text.chThdStart:00000000 chThdStart
C:\Users\DEVELO~1\AppData\Local\Temp\ccUBlV4P.s:2087   .text.chThdAddRef:00000000 $t
C:\Users\DEVELO~1\AppData\Local\Temp\ccUBlV4P.s:2094   .text.chThdAddRef:00000000 chThdAddRef
C:\Users\DEVELO~1\AppData\Local\Temp\ccUBlV4P.s:2193   .text.chThdRelease:00000000 $t
C:\Users\DEVELO~1\AppData\Local\Temp\ccUBlV4P.s:2200   .text.chThdRelease:00000000 chThdRelease
C:\Users\DEVELO~1\AppData\Local\Temp\ccUBlV4P.s:2379   .text.chThdExit:00000000 $t
C:\Users\DEVELO~1\AppData\Local\Temp\ccUBlV4P.s:2386   .text.chThdExit:00000000 chThdExit
C:\Users\DEVELO~1\AppData\Local\Temp\ccUBlV4P.s:2580   .text.chThdExit:0000004c $d
C:\Users\DEVELO~1\AppData\Local\Temp\ccUBlV4P.s:2589   .text.chThdExitS:00000000 $t
C:\Users\DEVELO~1\AppData\Local\Temp\ccUBlV4P.s:2596   .text.chThdExitS:00000000 chThdExitS
C:\Users\DEVELO~1\AppData\Local\Temp\ccUBlV4P.s:2746   .text.chThdExitS:00000048 $d
C:\Users\DEVELO~1\AppData\Local\Temp\ccUBlV4P.s:2753   .text.chThdWait:00000000 $t
C:\Users\DEVELO~1\AppData\Local\Temp\ccUBlV4P.s:2760   .text.chThdWait:00000000 chThdWait
C:\Users\DEVELO~1\AppData\Local\Temp\ccUBlV4P.s:3089   .text.chThdWait:00000060 $d
C:\Users\DEVELO~1\AppData\Local\Temp\ccUBlV4P.s:3094   .text.chThdSetPriority:00000000 $t
C:\Users\DEVELO~1\AppData\Local\Temp\ccUBlV4P.s:3101   .text.chThdSetPriority:00000000 chThdSetPriority
C:\Users\DEVELO~1\AppData\Local\Temp\ccUBlV4P.s:3248   .text.chThdSetPriority:0000002c $d
C:\Users\DEVELO~1\AppData\Local\Temp\ccUBlV4P.s:3253   .text.chThdTerminate:00000000 $t
C:\Users\DEVELO~1\AppData\Local\Temp\ccUBlV4P.s:3260   .text.chThdTerminate:00000000 chThdTerminate
C:\Users\DEVELO~1\AppData\Local\Temp\ccUBlV4P.s:3355   .text.chThdSleep:00000000 $t
C:\Users\DEVELO~1\AppData\Local\Temp\ccUBlV4P.s:3362   .text.chThdSleep:00000000 chThdSleep
C:\Users\DEVELO~1\AppData\Local\Temp\ccUBlV4P.s:3472   .text.chThdSleepUntil:00000000 $t
C:\Users\DEVELO~1\AppData\Local\Temp\ccUBlV4P.s:3479   .text.chThdSleepUntil:00000000 chThdSleepUntil
C:\Users\DEVELO~1\AppData\Local\Temp\ccUBlV4P.s:3634   .text.chThdSleepUntilWindowed:00000000 $t
C:\Users\DEVELO~1\AppData\Local\Temp\ccUBlV4P.s:3641   .text.chThdSleepUntilWindowed:00000000 chThdSleepUntilWindowed
ARM GAS  C:\Users\DEVELO~1\AppData\Local\Temp\ccUBlV4P.s 			page 288


C:\Users\DEVELO~1\AppData\Local\Temp\ccUBlV4P.s:3820   .text.chThdYield:00000000 $t
C:\Users\DEVELO~1\AppData\Local\Temp\ccUBlV4P.s:3827   .text.chThdYield:00000000 chThdYield
C:\Users\DEVELO~1\AppData\Local\Temp\ccUBlV4P.s:3920   .text.chThdSuspendS:00000000 $t
C:\Users\DEVELO~1\AppData\Local\Temp\ccUBlV4P.s:3927   .text.chThdSuspendS:00000000 chThdSuspendS
C:\Users\DEVELO~1\AppData\Local\Temp\ccUBlV4P.s:3994   .text.chThdSuspendS:00000018 $d
C:\Users\DEVELO~1\AppData\Local\Temp\ccUBlV4P.s:3999   .text.chThdSuspendTimeoutS:00000000 $t
C:\Users\DEVELO~1\AppData\Local\Temp\ccUBlV4P.s:4006   .text.chThdSuspendTimeoutS:00000000 chThdSuspendTimeoutS
C:\Users\DEVELO~1\AppData\Local\Temp\ccUBlV4P.s:4062   .text.chThdSuspendTimeoutS:00000018 $d
C:\Users\DEVELO~1\AppData\Local\Temp\ccUBlV4P.s:4067   .text.chThdResumeI:00000000 $t
C:\Users\DEVELO~1\AppData\Local\Temp\ccUBlV4P.s:4074   .text.chThdResumeI:00000000 chThdResumeI
C:\Users\DEVELO~1\AppData\Local\Temp\ccUBlV4P.s:4116   .text.chThdResumeS:00000000 $t
C:\Users\DEVELO~1\AppData\Local\Temp\ccUBlV4P.s:4123   .text.chThdResumeS:00000000 chThdResumeS
C:\Users\DEVELO~1\AppData\Local\Temp\ccUBlV4P.s:4161   .text.chThdResume:00000000 $t
C:\Users\DEVELO~1\AppData\Local\Temp\ccUBlV4P.s:4168   .text.chThdResume:00000000 chThdResume
C:\Users\DEVELO~1\AppData\Local\Temp\ccUBlV4P.s:4290   .text.chThdQueueObjectInit:00000000 $t
C:\Users\DEVELO~1\AppData\Local\Temp\ccUBlV4P.s:4297   .text.chThdQueueObjectInit:00000000 chThdQueueObjectInit
C:\Users\DEVELO~1\AppData\Local\Temp\ccUBlV4P.s:4326   .text.chThdQueueObjectDispose:00000000 $t
C:\Users\DEVELO~1\AppData\Local\Temp\ccUBlV4P.s:4333   .text.chThdQueueObjectDispose:00000000 chThdQueueObjectDispose
C:\Users\DEVELO~1\AppData\Local\Temp\ccUBlV4P.s:4344   .text.chThdEnqueueTimeoutS:00000000 $t
C:\Users\DEVELO~1\AppData\Local\Temp\ccUBlV4P.s:4351   .text.chThdEnqueueTimeoutS:00000000 chThdEnqueueTimeoutS
C:\Users\DEVELO~1\AppData\Local\Temp\ccUBlV4P.s:4436   .text.chThdEnqueueTimeoutS:00000024 $d
C:\Users\DEVELO~1\AppData\Local\Temp\ccUBlV4P.s:4441   .text.chThdDequeueNextI:00000000 $t
C:\Users\DEVELO~1\AppData\Local\Temp\ccUBlV4P.s:4448   .text.chThdDequeueNextI:00000000 chThdDequeueNextI
C:\Users\DEVELO~1\AppData\Local\Temp\ccUBlV4P.s:4523   .text.chThdDequeueAllI:00000000 $t
C:\Users\DEVELO~1\AppData\Local\Temp\ccUBlV4P.s:4530   .text.chThdDequeueAllI:00000000 chThdDequeueAllI

UNDEFINED SYMBOLS
ch0
__port_thread_start
chSchReadyI
chSchWakeupS
chSchGoSleepS
chSchRescheduleS
chSchGoSleepTimeoutS
stGetCounter
chSchDoYieldS
