ARM GAS  C:\Users\DEVELO~1\AppData\Local\Temp\ccUBlV4P.s 			page 1


   1              		.cpu cortex-m7
   2              		.arch armv7e-m
   3              		.fpu softvfp
   4              		.eabi_attribute 20, 1
   5              		.eabi_attribute 21, 1
   6              		.eabi_attribute 23, 3
   7              		.eabi_attribute 24, 1
   8              		.eabi_attribute 25, 1
   9              		.eabi_attribute 26, 1
  10              		.eabi_attribute 30, 2
  11              		.eabi_attribute 34, 1
  12              		.eabi_attribute 18, 4
  13              		.file	"chthreads.c"
  14              		.text
  15              	.Ltext0:
  16              		.cfi_sections	.debug_frame
  17              		.section	.text.chThdObjectInit,"ax",%progbits
  18              		.align	1
  19              		.p2align 4,,15
  20              		.global	chThdObjectInit
  21              		.syntax unified
  22              		.thumb
  23              		.thumb_func
  24              		.type	chThdObjectInit, %function
  25              	chThdObjectInit:
  26              	.LVL0:
  27              	.LFB352:
  28              		.file 1 "./ChibiOS/os/rt/src/chthreads.c"
  29              		.loc 1 117 59 view -0
  30              		.cfi_startproc
  31              		@ args = 0, pretend = 0, frame = 0
  32              		@ frame_needed = 0, uses_anonymous_args = 0
  33              		@ link register save eliminated.
  34              		.loc 1 119 3 view .LVU1
  35              		.loc 1 119 3 view .LVU2
  36              		.loc 1 119 3 view .LVU3
  37              		.loc 1 120 3 view .LVU4
  38              		.loc 1 120 3 view .LVU5
  39              		.loc 1 120 3 view .LVU6
  40              		.loc 1 123 3 view .LVU7
  41              		.loc 1 128 25 is_stmt 0 view .LVU8
  42 0000 0223     		movs	r3, #2
  43              		.loc 1 117 59 view .LVU9
  44 0002 10B4     		push	{r4}
  45              		.cfi_def_cfa_offset 4
  46              		.cfi_offset 4, -4
  47              		.loc 1 124 14 view .LVU10
  48 0004 D1E90142 		ldrd	r4, r2, [r1, #4]
  49 0008 C0E90542 		strd	r4, r2, [r0, #20]
  50              		.loc 1 127 3 is_stmt 1 view .LVU11
  51              		.loc 1 127 30 is_stmt 0 view .LVU12
  52 000c CC68     		ldr	r4, [r1, #12]
  53              		.loc 1 128 25 view .LVU13
  54 000e 8383     		strh	r3, [r0, #28]	@ movhi
  55              		.loc 1 130 10 view .LVU14
  56 0010 8A69     		ldr	r2, [r1, #24]
  57              		.loc 1 127 25 view .LVU15
ARM GAS  C:\Users\DEVELO~1\AppData\Local\Temp\ccUBlV4P.s 			page 2


  58 0012 8460     		str	r4, [r0, #8]
  59              		.loc 1 128 3 is_stmt 1 view .LVU16
  60              		.loc 1 129 3 view .LVU17
  61              		.loc 1 130 3 view .LVU18
  62              		.loc 1 130 6 is_stmt 0 view .LVU19
  63 0014 9AB1     		cbz	r2, .L6
  64              	.L2:
  65              		.loc 1 137 25 view .LVU20
  66 0016 0023     		movs	r3, #0
  67              		.loc 1 149 25 view .LVU21
  68 0018 C464     		str	r4, [r0, #76]
  69              		.loc 1 165 25 view .LVU22
  70 001a 0124     		movs	r4, #1
  71 001c 0261     		str	r2, [r0, #16]
  72              		.loc 1 137 3 is_stmt 1 view .LVU23
  73              		.loc 1 171 3 is_stmt 0 view .LVU24
  74 001e 00F13C02 		add	r2, r0, #60
  75              		.loc 1 165 25 view .LVU25
  76 0022 8477     		strb	r4, [r0, #30]
  77              		.loc 1 166 25 view .LVU26
  78 0024 0968     		ldr	r1, [r1]
  79              	.LVL1:
  80              		.loc 1 183 1 view .LVU27
  81 0026 10BC     		pop	{r4}
  82              		.cfi_remember_state
  83              		.cfi_restore 4
  84              		.cfi_def_cfa_offset 0
  85              	.LBB281:
  86              	.LBB282:
  87              		.file 2 "./ChibiOS/os/rt/include/chlists.h"
  88              		.loc 2 284 12 view .LVU28
  89 0028 C263     		str	r2, [r0, #60]
  90              	.LBE282:
  91              	.LBE281:
  92              		.loc 1 166 25 view .LVU29
  93 002a 0162     		str	r1, [r0, #32]
  94              	.LBB285:
  95              	.LBB283:
  96              		.loc 2 285 12 view .LVU30
  97 002c 0264     		str	r2, [r0, #64]
  98              	.LBE283:
  99              	.LBE285:
 100              		.loc 1 138 25 view .LVU31
 101 002e C0E90B33 		strd	r3, r3, [r0, #44]
 102              		.loc 1 144 3 is_stmt 1 view .LVU32
 103              	.LVL2:
 104              	.LBB286:
 105              	.LBI286:
 106              		.loc 2 213 20 view .LVU33
 107              	.LBB287:
 108              		.loc 2 215 3 view .LVU34
 109              	.LBE287:
 110              	.LBE286:
 111              		.loc 1 155 25 is_stmt 0 view .LVU35
 112 0032 C0E91133 		strd	r3, r3, [r0, #68]
 113              		.loc 1 144 3 view .LVU36
 114 0036 00F13803 		add	r3, r0, #56
ARM GAS  C:\Users\DEVELO~1\AppData\Local\Temp\ccUBlV4P.s 			page 3


 115              	.LVL3:
 116              	.LBB289:
 117              	.LBB288:
 118              		.loc 2 215 12 view .LVU37
 119 003a 8363     		str	r3, [r0, #56]
 120              	.LVL4:
 121              		.loc 2 215 12 view .LVU38
 122              	.LBE288:
 123              	.LBE289:
 124              		.loc 1 149 3 is_stmt 1 view .LVU39
 125              		.loc 1 150 3 view .LVU40
 126              		.loc 1 155 3 view .LVU41
 127              		.loc 1 165 3 view .LVU42
 128              		.loc 1 166 3 view .LVU43
 129              		.loc 1 171 3 view .LVU44
 130              	.LBB290:
 131              	.LBI281:
 132              		.loc 2 282 20 view .LVU45
 133              	.LBB284:
 134              		.loc 2 284 3 view .LVU46
 135              		.loc 2 285 3 view .LVU47
 136              		.loc 2 285 3 is_stmt 0 view .LVU48
 137              	.LBE284:
 138              	.LBE290:
 139              		.loc 1 180 3 is_stmt 1 view .LVU49
 140              		.loc 1 180 30 view .LVU50
 141              		.loc 1 182 3 view .LVU51
 142              		.loc 1 183 1 is_stmt 0 view .LVU52
 143 003c 7047     		bx	lr
 144              	.LVL5:
 145              	.L6:
 146              		.cfi_restore_state
 147              		.loc 1 134 25 view .LVU53
 148 003e 014A     		ldr	r2, .L7
 149 0040 E9E7     		b	.L2
 150              	.L8:
 151 0042 00BF     		.align	2
 152              	.L7:
 153 0044 00000000 		.word	ch0
 154              		.cfi_endproc
 155              	.LFE352:
 156              		.size	chThdObjectInit, .-chThdObjectInit
 157              		.section	.text.chThdObjectDispose,"ax",%progbits
 158              		.align	1
 159              		.p2align 4,,15
 160              		.global	chThdObjectDispose
 161              		.syntax unified
 162              		.thumb
 163              		.thumb_func
 164              		.type	chThdObjectDispose, %function
 165              	chThdObjectDispose:
 166              	.LVL6:
 167              	.LFB353:
 168              		.loc 1 200 39 is_stmt 1 view -0
 169              		.cfi_startproc
 170              		@ args = 0, pretend = 0, frame = 0
 171              		@ frame_needed = 0, uses_anonymous_args = 0
ARM GAS  C:\Users\DEVELO~1\AppData\Local\Temp\ccUBlV4P.s 			page 4


 172              		@ link register save eliminated.
 173              		.loc 1 202 3 view .LVU55
 174              		.loc 1 202 3 view .LVU56
 175              		.loc 1 202 3 view .LVU57
 176              		.loc 1 204 32 view .LVU58
 177              		.loc 1 205 34 view .LVU59
 178              		.loc 1 208 3 view .LVU60
 179              		.loc 1 208 3 view .LVU61
 180              		.loc 1 208 3 view .LVU62
 181              		.loc 1 211 3 view .LVU63
 182              		.loc 1 211 3 view .LVU64
 183              		.loc 1 211 3 view .LVU65
 184              		.loc 1 214 3 view .LVU66
 185              		.loc 1 214 3 view .LVU67
 186              		.loc 1 214 3 view .LVU68
 187              		.loc 1 217 3 view .LVU69
 188              		.loc 1 217 3 view .LVU70
 189              		.loc 1 217 3 view .LVU71
 190              		.loc 1 223 1 is_stmt 0 view .LVU72
 191 0000 7047     		bx	lr
 192              		.cfi_endproc
 193              	.LFE353:
 194              		.size	chThdObjectDispose, .-chThdObjectDispose
 195 0002 00BF     		.section	.text.chThdSpawnSuspendedI,"ax",%progbits
 196              		.align	1
 197              		.p2align 4,,15
 198              		.global	chThdSpawnSuspendedI
 199              		.syntax unified
 200              		.thumb
 201              		.thumb_func
 202              		.type	chThdSpawnSuspendedI, %function
 203              	chThdSpawnSuspendedI:
 204              	.LVL7:
 205              	.LFB354:
 206              		.loc 1 245 64 is_stmt 1 view -0
 207              		.cfi_startproc
 208              		@ args = 0, pretend = 0, frame = 0
 209              		@ frame_needed = 0, uses_anonymous_args = 0
 210              		@ link register save eliminated.
 211              		.loc 1 247 3 view .LVU74
 212              		.loc 1 247 3 view .LVU75
 213              		.loc 1 247 3 view .LVU76
 214              		.loc 1 248 3 view .LVU77
 215              		.loc 1 248 3 view .LVU78
 216              		.loc 1 248 3 view .LVU79
 217              		.loc 1 251 3 view .LVU80
 218              		.loc 1 251 3 view .LVU81
 219              		.loc 1 251 3 view .LVU82
 220              		.loc 1 258 3 view .LVU83
 221              	.LBB301:
 222              	.LBB302:
 223              		.loc 1 128 25 is_stmt 0 view .LVU84
 224 0000 0223     		movs	r3, #2
 225              	.LVL8:
 226              		.loc 1 128 25 view .LVU85
 227              	.LBE302:
 228              	.LBI301:
ARM GAS  C:\Users\DEVELO~1\AppData\Local\Temp\ccUBlV4P.s 			page 5


 229              		.loc 1 116 11 is_stmt 1 view .LVU86
 230              	.LBB311:
 231              		.loc 1 119 3 view .LVU87
 232              		.loc 1 119 3 view .LVU88
 233              		.loc 1 119 3 view .LVU89
 234              		.loc 1 120 3 view .LVU90
 235              		.loc 1 120 3 view .LVU91
 236              		.loc 1 120 3 view .LVU92
 237              		.loc 1 123 3 view .LVU93
 238              	.LBE311:
 239              	.LBE301:
 240              		.loc 1 245 64 is_stmt 0 view .LVU94
 241 0002 F0B4     		push	{r4, r5, r6, r7}
 242              		.cfi_def_cfa_offset 16
 243              		.cfi_offset 4, -16
 244              		.cfi_offset 5, -12
 245              		.cfi_offset 6, -8
 246              		.cfi_offset 7, -4
 247              	.LBB318:
 248              	.LBB312:
 249              		.loc 1 124 27 view .LVU95
 250 0004 D1E90142 		ldrd	r4, r2, [r1, #4]
 251              		.loc 1 124 14 view .LVU96
 252 0008 C0E90542 		strd	r4, r2, [r0, #20]
 253              		.loc 1 127 3 is_stmt 1 view .LVU97
 254              		.loc 1 127 30 is_stmt 0 view .LVU98
 255 000c CC68     		ldr	r4, [r1, #12]
 256              		.loc 1 128 25 view .LVU99
 257 000e 8383     		strh	r3, [r0, #28]	@ movhi
 258              		.loc 1 130 10 view .LVU100
 259 0010 8B69     		ldr	r3, [r1, #24]
 260              		.loc 1 127 25 view .LVU101
 261 0012 8460     		str	r4, [r0, #8]
 262              		.loc 1 128 3 is_stmt 1 view .LVU102
 263              		.loc 1 129 3 view .LVU103
 264              		.loc 1 130 3 view .LVU104
 265              		.loc 1 130 6 is_stmt 0 view .LVU105
 266 0014 33B3     		cbz	r3, .L14
 267              	.L11:
 268              		.loc 1 149 25 view .LVU106
 269 0016 C464     		str	r4, [r0, #76]
 270              		.loc 1 165 25 view .LVU107
 271 0018 0124     		movs	r4, #1
 272              		.loc 1 144 3 view .LVU108
 273 001a 00F13807 		add	r7, r0, #56
 274 001e 0361     		str	r3, [r0, #16]
 275              		.loc 1 137 3 is_stmt 1 view .LVU109
 276              		.loc 1 165 25 is_stmt 0 view .LVU110
 277 0020 8477     		strb	r4, [r0, #30]
 278              		.loc 1 166 25 view .LVU111
 279 0022 0C68     		ldr	r4, [r1]
 280 0024 0462     		str	r4, [r0, #32]
 281              		.loc 1 171 3 view .LVU112
 282 0026 00F13C04 		add	r4, r0, #60
 283              	.LBE312:
 284              	.LBE318:
 285              		.loc 1 261 3 view .LVU113
ARM GAS  C:\Users\DEVELO~1\AppData\Local\Temp\ccUBlV4P.s 			page 6


 286 002a D1E90465 		ldrd	r6, r5, [r1, #16]
 287              	.LBB319:
 288              	.LBB313:
 289              	.LBB303:
 290              	.LBB304:
 291              		.loc 2 284 12 view .LVU114
 292 002e C0E90F44 		strd	r4, r4, [r0, #60]
 293              	.LBE304:
 294              	.LBE303:
 295              		.loc 1 137 25 view .LVU115
 296 0032 0021     		movs	r1, #0
 297              	.LVL9:
 298              		.loc 1 137 25 view .LVU116
 299              	.LBE313:
 300              	.LBE319:
 301              		.loc 1 261 3 view .LVU117
 302 0034 A2F12404 		sub	r4, r2, #36
 303              	.LBB320:
 304              	.LBB314:
 305              		.loc 1 138 25 view .LVU118
 306 0038 C0E90B11 		strd	r1, r1, [r0, #44]
 307              		.loc 1 144 3 is_stmt 1 view .LVU119
 308              	.LVL10:
 309              	.LBB306:
 310              	.LBI306:
 311              		.loc 2 213 20 view .LVU120
 312              	.LBB307:
 313              		.loc 2 215 3 view .LVU121
 314              	.LBE307:
 315              	.LBE306:
 316              	.LBE314:
 317              	.LBE320:
 318              		.loc 1 261 3 is_stmt 0 view .LVU122
 319 003c C460     		str	r4, [r0, #12]
 320              	.LBB321:
 321              	.LBB322:
 322              		.loc 2 325 21 view .LVU123
 323 003e 5C6B     		ldr	r4, [r3, #52]
 324              	.LBE322:
 325              	.LBE321:
 326              	.LBB325:
 327              	.LBB315:
 328              	.LBB309:
 329              	.LBB308:
 330              		.loc 2 215 12 view .LVU124
 331 0040 8763     		str	r7, [r0, #56]
 332              	.LVL11:
 333              		.loc 2 215 12 view .LVU125
 334              	.LBE308:
 335              	.LBE309:
 336              		.loc 1 149 3 is_stmt 1 view .LVU126
 337              		.loc 1 150 3 view .LVU127
 338              		.loc 1 155 3 view .LVU128
 339              		.loc 1 165 3 view .LVU129
 340              		.loc 1 166 3 view .LVU130
 341              		.loc 1 171 3 view .LVU131
 342              	.LBB310:
ARM GAS  C:\Users\DEVELO~1\AppData\Local\Temp\ccUBlV4P.s 			page 7


 343              	.LBI303:
 344              		.loc 2 282 20 view .LVU132
 345              	.LBB305:
 346              		.loc 2 284 3 view .LVU133
 347              		.loc 2 285 3 view .LVU134
 348              		.loc 2 285 3 is_stmt 0 view .LVU135
 349              	.LBE305:
 350              	.LBE310:
 351              		.loc 1 180 3 is_stmt 1 view .LVU136
 352              		.loc 1 180 30 view .LVU137
 353              		.loc 1 182 3 view .LVU138
 354              		.loc 1 182 3 is_stmt 0 view .LVU139
 355              	.LBE315:
 356              	.LBE325:
 357              		.loc 1 261 3 is_stmt 1 view .LVU140
 358              		.loc 1 261 3 view .LVU141
 359              		.loc 1 261 3 view .LVU142
 360              	.LBB326:
 361              	.LBB316:
 362              		.loc 1 155 25 is_stmt 0 view .LVU143
 363 0042 C0E91111 		strd	r1, r1, [r0, #68]
 364              	.LBE316:
 365              	.LBE326:
 366              		.loc 1 261 3 view .LVU144
 367 0046 42E90965 		strd	r6, r5, [r2, #-36]
 368              		.loc 1 261 3 is_stmt 1 view .LVU145
 369 004a 074D     		ldr	r5, .L15
 370              		.loc 1 265 3 is_stmt 0 view .LVU146
 371 004c 00F12401 		add	r1, r0, #36
 372              		.loc 1 261 3 view .LVU147
 373 0050 42F8045C 		str	r5, [r2, #-4]
 374              		.loc 1 261 3 is_stmt 1 view .LVU148
 375              		.loc 1 265 3 view .LVU149
 376              	.LVL12:
 377              	.LBB327:
 378              	.LBI321:
 379              		.loc 2 322 20 view .LVU150
 380              	.LBB323:
 381              		.loc 2 324 3 view .LVU151
 382              	.LBE323:
 383              	.LBE327:
 384              		.loc 1 265 3 is_stmt 0 view .LVU152
 385 0054 03F13002 		add	r2, r3, #48
 386              	.LVL13:
 387              	.LBB328:
 388              	.LBB324:
 389              		.loc 2 324 17 view .LVU153
 390 0058 C0E90924 		strd	r2, r4, [r0, #36]
 391              		.loc 2 325 3 is_stmt 1 view .LVU154
 392              		.loc 2 326 3 view .LVU155
 393              		.loc 2 326 17 is_stmt 0 view .LVU156
 394 005c 2160     		str	r1, [r4]
 395              		.loc 2 327 3 is_stmt 1 view .LVU157
 396              		.loc 2 327 17 is_stmt 0 view .LVU158
 397 005e 5963     		str	r1, [r3, #52]
 398              	.LVL14:
 399              		.loc 2 327 17 view .LVU159
ARM GAS  C:\Users\DEVELO~1\AppData\Local\Temp\ccUBlV4P.s 			page 8


 400              	.LBE324:
 401              	.LBE328:
 402              		.loc 1 268 3 is_stmt 1 view .LVU160
 403              		.loc 1 269 1 is_stmt 0 view .LVU161
 404 0060 F0BC     		pop	{r4, r5, r6, r7}
 405              		.cfi_remember_state
 406              		.cfi_restore 7
 407              		.cfi_restore 6
 408              		.cfi_restore 5
 409              		.cfi_restore 4
 410              		.cfi_def_cfa_offset 0
 411 0062 7047     		bx	lr
 412              	.LVL15:
 413              	.L14:
 414              		.cfi_restore_state
 415              	.LBB329:
 416              	.LBB317:
 417              		.loc 1 134 25 view .LVU162
 418 0064 014B     		ldr	r3, .L15+4
 419 0066 D6E7     		b	.L11
 420              	.L16:
 421              		.align	2
 422              	.L15:
 423 0068 00000000 		.word	__port_thread_start
 424 006c 00000000 		.word	ch0
 425              	.LBE317:
 426              	.LBE329:
 427              		.cfi_endproc
 428              	.LFE354:
 429              		.size	chThdSpawnSuspendedI, .-chThdSpawnSuspendedI
 430              		.section	.text.chThdSpawnSuspended,"ax",%progbits
 431              		.align	1
 432              		.p2align 4,,15
 433              		.global	chThdSpawnSuspended
 434              		.syntax unified
 435              		.thumb
 436              		.thumb_func
 437              		.type	chThdSpawnSuspended, %function
 438              	chThdSpawnSuspended:
 439              	.LVL16:
 440              	.LFB355:
 441              		.loc 1 288 63 is_stmt 1 view -0
 442              		.cfi_startproc
 443              		@ args = 0, pretend = 0, frame = 0
 444              		@ frame_needed = 0, uses_anonymous_args = 0
 445              		@ link register save eliminated.
 446              		.loc 1 291 3 view .LVU164
 447              		.loc 1 291 3 view .LVU165
 448              		.loc 1 291 3 view .LVU166
 449              		.loc 1 295 17 view .LVU167
 450              		.loc 1 297 3 view .LVU168
 451              	.LBB349:
 452              	.LBI349:
 453              		.file 3 "./ChibiOS/os/rt/include/chsys.h"
 454              		.loc 3 372 20 view .LVU169
 455              		.loc 3 374 3 view .LVU170
 456              	.LBB350:
ARM GAS  C:\Users\DEVELO~1\AppData\Local\Temp\ccUBlV4P.s 			page 9


 457              	.LBI350:
 458              		.file 4 "./ChibiOS/os/common/ports/ARMv7-M/chcore.h"
 459              		.loc 4 840 27 view .LVU171
 460              		.loc 4 848 3 view .LVU172
 461              	.LBB351:
 462              	.LBI351:
 463              		.file 5 "./ChibiOS/os/common/ext/ARM/CMSIS/Core/Include/cmsis_gcc.h"
 464              		.loc 5 491 27 view .LVU173
 465              	.LBB352:
 466              		.loc 5 493 3 view .LVU174
 467 0000 3023     		movs	r3, #48
 468              	.LBE352:
 469              	.LBE351:
 470              	.LBE350:
 471              	.LBE349:
 472              		.loc 1 288 63 is_stmt 0 view .LVU175
 473 0002 F0B4     		push	{r4, r5, r6, r7}
 474              		.cfi_def_cfa_offset 16
 475              		.cfi_offset 4, -16
 476              		.cfi_offset 5, -12
 477              		.cfi_offset 6, -8
 478              		.cfi_offset 7, -4
 479              	.LBB356:
 480              	.LBB355:
 481              	.LBB354:
 482              	.LBB353:
 483              		.loc 5 493 3 view .LVU176
 484              		.syntax unified
 485              	@ 493 "./ChibiOS/os/common/ext/ARM/CMSIS/Core/Include/cmsis_gcc.h" 1
 486 0004 83F31188 		MSR basepri, r3
 487              	@ 0 "" 2
 488              	.LVL17:
 489              		.loc 5 493 3 view .LVU177
 490              		.thumb
 491              		.syntax unified
 492              	.LBE353:
 493              	.LBE354:
 494              	.LBE355:
 495              		.loc 3 375 35 is_stmt 1 view .LVU178
 496              		.loc 3 376 21 view .LVU179
 497              	.LBE356:
 498              		.loc 1 298 3 view .LVU180
 499              	.LBB357:
 500              	.LBI357:
 501              		.loc 1 244 11 view .LVU181
 502              	.LBB358:
 503              		.loc 1 247 3 view .LVU182
 504              		.loc 1 247 3 view .LVU183
 505              		.loc 1 247 3 view .LVU184
 506              		.loc 1 248 3 view .LVU185
 507              		.loc 1 248 3 view .LVU186
 508              		.loc 1 248 3 view .LVU187
 509              		.loc 1 251 3 view .LVU188
 510              		.loc 1 251 3 view .LVU189
 511              		.loc 1 251 3 view .LVU190
 512              		.loc 1 258 3 view .LVU191
 513              	.LBB359:
ARM GAS  C:\Users\DEVELO~1\AppData\Local\Temp\ccUBlV4P.s 			page 10


 514              	.LBI359:
 515              		.loc 1 116 11 view .LVU192
 516              	.LBB360:
 517              		.loc 1 119 3 view .LVU193
 518              		.loc 1 119 3 view .LVU194
 519              		.loc 1 119 3 view .LVU195
 520              		.loc 1 120 3 view .LVU196
 521              		.loc 1 120 3 view .LVU197
 522              		.loc 1 120 3 view .LVU198
 523              		.loc 1 123 3 view .LVU199
 524              		.loc 1 128 25 is_stmt 0 view .LVU200
 525 0008 0223     		movs	r3, #2
 526              		.loc 1 124 27 view .LVU201
 527 000a D1E90124 		ldrd	r2, r4, [r1, #4]
 528              		.loc 1 124 14 view .LVU202
 529 000e C0E90524 		strd	r2, r4, [r0, #20]
 530              		.loc 1 127 3 is_stmt 1 view .LVU203
 531              		.loc 1 127 30 is_stmt 0 view .LVU204
 532 0012 CA68     		ldr	r2, [r1, #12]
 533              		.loc 1 128 25 view .LVU205
 534 0014 8383     		strh	r3, [r0, #28]	@ movhi
 535              		.loc 1 130 10 view .LVU206
 536 0016 8B69     		ldr	r3, [r1, #24]
 537              		.loc 1 127 25 view .LVU207
 538 0018 8260     		str	r2, [r0, #8]
 539              		.loc 1 128 3 is_stmt 1 view .LVU208
 540              		.loc 1 129 3 view .LVU209
 541              		.loc 1 130 3 view .LVU210
 542              		.loc 1 130 6 is_stmt 0 view .LVU211
 543 001a 4BB3     		cbz	r3, .L21
 544              	.L18:
 545              		.loc 1 149 25 view .LVU212
 546 001c C264     		str	r2, [r0, #76]
 547              		.loc 1 165 25 view .LVU213
 548 001e 0122     		movs	r2, #1
 549              		.loc 1 144 3 view .LVU214
 550 0020 00F1380C 		add	ip, r0, #56
 551 0024 0361     		str	r3, [r0, #16]
 552              		.loc 1 137 3 is_stmt 1 view .LVU215
 553              		.loc 1 165 25 is_stmt 0 view .LVU216
 554 0026 8277     		strb	r2, [r0, #30]
 555              		.loc 1 166 25 view .LVU217
 556 0028 0A68     		ldr	r2, [r1]
 557 002a 0262     		str	r2, [r0, #32]
 558              		.loc 1 171 3 view .LVU218
 559 002c 00F13C02 		add	r2, r0, #60
 560              	.LBB361:
 561              	.LBB362:
 562              		.loc 2 284 12 view .LVU219
 563 0030 C0E90F22 		strd	r2, r2, [r0, #60]
 564              	.LBE362:
 565              	.LBE361:
 566              	.LBE360:
 567              	.LBE359:
 568              		.loc 1 261 3 view .LVU220
 569 0034 A4F12402 		sub	r2, r4, #36
 570              	.LBB373:
ARM GAS  C:\Users\DEVELO~1\AppData\Local\Temp\ccUBlV4P.s 			page 11


 571              	.LBB374:
 572              		.loc 2 325 21 view .LVU221
 573 0038 5D6B     		ldr	r5, [r3, #52]
 574              	.LBE374:
 575              	.LBE373:
 576              		.loc 1 261 3 view .LVU222
 577 003a D1E90476 		ldrd	r7, r6, [r1, #16]
 578 003e C260     		str	r2, [r0, #12]
 579              	.LBB377:
 580              	.LBB369:
 581              		.loc 1 137 25 view .LVU223
 582 0040 0022     		movs	r2, #0
 583              	.LBB364:
 584              	.LBB365:
 585              		.loc 2 215 12 view .LVU224
 586 0042 C0F838C0 		str	ip, [r0, #56]
 587              	.LBE365:
 588              	.LBE364:
 589              	.LBE369:
 590              	.LBE377:
 591              		.loc 1 265 3 view .LVU225
 592 0046 00F12401 		add	r1, r0, #36
 593              	.LVL18:
 594              	.LBB378:
 595              	.LBB370:
 596              		.loc 1 138 25 view .LVU226
 597 004a C0E90B22 		strd	r2, r2, [r0, #44]
 598              		.loc 1 144 3 is_stmt 1 view .LVU227
 599              	.LVL19:
 600              	.LBB367:
 601              	.LBI364:
 602              		.loc 2 213 20 view .LVU228
 603              	.LBB366:
 604              		.loc 2 215 3 view .LVU229
 605              		.loc 2 215 3 is_stmt 0 view .LVU230
 606              	.LBE366:
 607              	.LBE367:
 608              		.loc 1 149 3 is_stmt 1 view .LVU231
 609              		.loc 1 150 3 view .LVU232
 610              		.loc 1 155 3 view .LVU233
 611              		.loc 1 165 3 view .LVU234
 612              		.loc 1 166 3 view .LVU235
 613              		.loc 1 171 3 view .LVU236
 614              	.LBB368:
 615              	.LBI361:
 616              		.loc 2 282 20 view .LVU237
 617              	.LBB363:
 618              		.loc 2 284 3 view .LVU238
 619              		.loc 2 285 3 view .LVU239
 620              		.loc 2 285 3 is_stmt 0 view .LVU240
 621              	.LBE363:
 622              	.LBE368:
 623              		.loc 1 180 3 is_stmt 1 view .LVU241
 624              		.loc 1 180 30 view .LVU242
 625              		.loc 1 182 3 view .LVU243
 626              		.loc 1 182 3 is_stmt 0 view .LVU244
 627              	.LBE370:
ARM GAS  C:\Users\DEVELO~1\AppData\Local\Temp\ccUBlV4P.s 			page 12


 628              	.LBE378:
 629              		.loc 1 261 3 is_stmt 1 view .LVU245
 630              		.loc 1 261 3 view .LVU246
 631              		.loc 1 261 3 view .LVU247
 632              	.LBB379:
 633              	.LBB371:
 634              		.loc 1 155 25 is_stmt 0 view .LVU248
 635 004e C0E91122 		strd	r2, r2, [r0, #68]
 636              	.LBE371:
 637              	.LBE379:
 638              		.loc 1 261 3 view .LVU249
 639 0052 44E90976 		strd	r7, r6, [r4, #-36]
 640              		.loc 1 261 3 is_stmt 1 view .LVU250
 641 0056 074E     		ldr	r6, .L22
 642 0058 44F8046C 		str	r6, [r4, #-4]
 643              		.loc 1 261 3 view .LVU251
 644              		.loc 1 265 3 view .LVU252
 645              	.LVL20:
 646              	.LBB380:
 647              	.LBI373:
 648              		.loc 2 322 20 view .LVU253
 649              	.LBB375:
 650              		.loc 2 324 3 view .LVU254
 651              	.LBE375:
 652              	.LBE380:
 653              		.loc 1 265 3 is_stmt 0 view .LVU255
 654 005c 03F13004 		add	r4, r3, #48
 655              	.LVL21:
 656              	.LBB381:
 657              	.LBB376:
 658              		.loc 2 325 17 view .LVU256
 659 0060 8562     		str	r5, [r0, #40]
 660              		.loc 2 324 17 view .LVU257
 661 0062 4462     		str	r4, [r0, #36]
 662              		.loc 2 325 3 is_stmt 1 view .LVU258
 663              		.loc 2 326 3 view .LVU259
 664              		.loc 2 326 17 is_stmt 0 view .LVU260
 665 0064 2960     		str	r1, [r5]
 666              		.loc 2 327 3 is_stmt 1 view .LVU261
 667              		.loc 2 327 17 is_stmt 0 view .LVU262
 668 0066 5963     		str	r1, [r3, #52]
 669              	.LVL22:
 670              		.loc 2 327 17 view .LVU263
 671              	.LBE376:
 672              	.LBE381:
 673              		.loc 1 268 3 is_stmt 1 view .LVU264
 674              		.loc 1 268 3 is_stmt 0 view .LVU265
 675              	.LBE358:
 676              	.LBE357:
 677              		.loc 1 299 3 is_stmt 1 view .LVU266
 678              	.LBB384:
 679              	.LBI384:
 680              		.loc 3 386 20 view .LVU267
 681              	.LBB385:
 682              		.loc 3 388 23 view .LVU268
 683              		.loc 3 389 34 view .LVU269
 684              		.loc 3 395 3 view .LVU270
ARM GAS  C:\Users\DEVELO~1\AppData\Local\Temp\ccUBlV4P.s 			page 13


 685              		.loc 3 395 3 view .LVU271
 686              		.loc 3 395 3 view .LVU272
 687              		.loc 3 399 3 view .LVU273
 688              	.LBB386:
 689              	.LBI386:
 690              		.loc 4 864 27 view .LVU274
 691              		.loc 4 867 3 view .LVU275
 692              	.LBB387:
 693              	.LBI387:
 694              		.loc 5 491 27 view .LVU276
 695              	.LBB388:
 696              		.loc 5 493 3 view .LVU277
 697              		.syntax unified
 698              	@ 493 "./ChibiOS/os/common/ext/ARM/CMSIS/Core/Include/cmsis_gcc.h" 1
 699 0068 82F31188 		MSR basepri, r2
 700              	@ 0 "" 2
 701              	.LVL23:
 702              		.loc 5 493 3 is_stmt 0 view .LVU278
 703              		.thumb
 704              		.syntax unified
 705              	.LBE388:
 706              	.LBE387:
 707              	.LBE386:
 708              	.LBE385:
 709              	.LBE384:
 710              		.loc 1 301 3 is_stmt 1 view .LVU279
 711              		.loc 1 302 1 is_stmt 0 view .LVU280
 712 006c F0BC     		pop	{r4, r5, r6, r7}
 713              		.cfi_remember_state
 714              		.cfi_restore 7
 715              		.cfi_restore 6
 716              		.cfi_restore 5
 717              		.cfi_restore 4
 718              		.cfi_def_cfa_offset 0
 719 006e 7047     		bx	lr
 720              	.LVL24:
 721              	.L21:
 722              		.cfi_restore_state
 723              	.LBB389:
 724              	.LBB383:
 725              	.LBB382:
 726              	.LBB372:
 727              		.loc 1 134 25 view .LVU281
 728 0070 014B     		ldr	r3, .L22+4
 729 0072 D3E7     		b	.L18
 730              	.L23:
 731              		.align	2
 732              	.L22:
 733 0074 00000000 		.word	__port_thread_start
 734 0078 00000000 		.word	ch0
 735              	.LBE372:
 736              	.LBE382:
 737              	.LBE383:
 738              	.LBE389:
 739              		.cfi_endproc
 740              	.LFE355:
 741              		.size	chThdSpawnSuspended, .-chThdSpawnSuspended
ARM GAS  C:\Users\DEVELO~1\AppData\Local\Temp\ccUBlV4P.s 			page 14


 742              		.section	.text.chThdSpawnRunningI,"ax",%progbits
 743              		.align	1
 744              		.p2align 4,,15
 745              		.global	chThdSpawnRunningI
 746              		.syntax unified
 747              		.thumb
 748              		.thumb_func
 749              		.type	chThdSpawnRunningI, %function
 750              	chThdSpawnRunningI:
 751              	.LVL25:
 752              	.LFB356:
 753              		.loc 1 321 76 is_stmt 1 view -0
 754              		.cfi_startproc
 755              		@ args = 0, pretend = 0, frame = 0
 756              		@ frame_needed = 0, uses_anonymous_args = 0
 757              		.loc 1 323 3 view .LVU283
 758              		.loc 1 321 76 is_stmt 0 view .LVU284
 759 0000 08B5     		push	{r3, lr}
 760              		.cfi_def_cfa_offset 8
 761              		.cfi_offset 3, -8
 762              		.cfi_offset 14, -4
 763              		.loc 1 323 10 view .LVU285
 764 0002 FFF7FEFF 		bl	chThdSpawnSuspendedI
 765              	.LVL26:
 766              		.loc 1 324 1 view .LVU286
 767 0006 BDE80840 		pop	{r3, lr}
 768              		.cfi_restore 14
 769              		.cfi_restore 3
 770              		.cfi_def_cfa_offset 0
 771              		.loc 1 323 10 view .LVU287
 772 000a FFF7FEBF 		b	chSchReadyI
 773              	.LVL27:
 774              		.cfi_endproc
 775              	.LFE356:
 776              		.size	chThdSpawnRunningI, .-chThdSpawnRunningI
 777 000e 00BF     		.section	.text.chThdSpawnRunning,"ax",%progbits
 778              		.align	1
 779              		.p2align 4,,15
 780              		.global	chThdSpawnRunning
 781              		.syntax unified
 782              		.thumb
 783              		.thumb_func
 784              		.type	chThdSpawnRunning, %function
 785              	chThdSpawnRunning:
 786              	.LVL28:
 787              	.LFB357:
 788              		.loc 1 340 75 is_stmt 1 view -0
 789              		.cfi_startproc
 790              		@ args = 0, pretend = 0, frame = 0
 791              		@ frame_needed = 0, uses_anonymous_args = 0
 792              		.loc 1 344 3 view .LVU289
 793              		.loc 1 344 3 view .LVU290
 794              		.loc 1 344 3 view .LVU291
 795              		.loc 1 348 17 view .LVU292
 796              		.loc 1 350 3 view .LVU293
 797              	.LBB390:
 798              	.LBI390:
ARM GAS  C:\Users\DEVELO~1\AppData\Local\Temp\ccUBlV4P.s 			page 15


 799              		.loc 3 372 20 view .LVU294
 800              		.loc 3 374 3 view .LVU295
 801              	.LBB391:
 802              	.LBI391:
 803              		.loc 4 840 27 view .LVU296
 804              		.loc 4 848 3 view .LVU297
 805              	.LBB392:
 806              	.LBI392:
 807              		.loc 5 491 27 view .LVU298
 808              	.LBB393:
 809              		.loc 5 493 3 view .LVU299
 810              	.LBE393:
 811              	.LBE392:
 812              	.LBE391:
 813              	.LBE390:
 814              		.loc 1 340 75 is_stmt 0 view .LVU300
 815 0000 10B5     		push	{r4, lr}
 816              		.cfi_def_cfa_offset 8
 817              		.cfi_offset 4, -8
 818              		.cfi_offset 14, -4
 819              	.LBB397:
 820              	.LBB396:
 821              	.LBB395:
 822              	.LBB394:
 823              		.loc 5 493 3 view .LVU301
 824 0002 3023     		movs	r3, #48
 825              		.syntax unified
 826              	@ 493 "./ChibiOS/os/common/ext/ARM/CMSIS/Core/Include/cmsis_gcc.h" 1
 827 0004 83F31188 		MSR basepri, r3
 828              	@ 0 "" 2
 829              	.LVL29:
 830              		.loc 5 493 3 view .LVU302
 831              		.thumb
 832              		.syntax unified
 833              	.LBE394:
 834              	.LBE395:
 835              	.LBE396:
 836              		.loc 3 375 35 is_stmt 1 view .LVU303
 837              		.loc 3 376 21 view .LVU304
 838              	.LBE397:
 839              		.loc 1 351 3 view .LVU305
 840              		.loc 1 351 8 is_stmt 0 view .LVU306
 841 0008 FFF7FEFF 		bl	chThdSpawnSuspendedI
 842              	.LVL30:
 843              		.loc 1 352 3 view .LVU307
 844 000c 0021     		movs	r1, #0
 845              		.loc 1 351 8 view .LVU308
 846 000e 0446     		mov	r4, r0
 847              	.LVL31:
 848              		.loc 1 352 3 is_stmt 1 view .LVU309
 849 0010 FFF7FEFF 		bl	chSchWakeupS
 850              	.LVL32:
 851              		.loc 1 353 3 view .LVU310
 852              	.LBB398:
 853              	.LBI398:
 854              		.loc 3 386 20 view .LVU311
 855              	.LBB399:
ARM GAS  C:\Users\DEVELO~1\AppData\Local\Temp\ccUBlV4P.s 			page 16


 856              		.loc 3 388 23 view .LVU312
 857              		.loc 3 389 34 view .LVU313
 858              		.loc 3 395 3 view .LVU314
 859              		.loc 3 395 3 view .LVU315
 860              		.loc 3 395 3 view .LVU316
 861              		.loc 3 399 3 view .LVU317
 862              	.LBB400:
 863              	.LBI400:
 864              		.loc 4 864 27 view .LVU318
 865              		.loc 4 867 3 view .LVU319
 866              	.LBB401:
 867              	.LBI401:
 868              		.loc 5 491 27 view .LVU320
 869              	.LBB402:
 870              		.loc 5 493 3 view .LVU321
 871 0014 0023     		movs	r3, #0
 872              		.syntax unified
 873              	@ 493 "./ChibiOS/os/common/ext/ARM/CMSIS/Core/Include/cmsis_gcc.h" 1
 874 0016 83F31188 		MSR basepri, r3
 875              	@ 0 "" 2
 876              	.LVL33:
 877              		.loc 5 493 3 is_stmt 0 view .LVU322
 878              		.thumb
 879              		.syntax unified
 880              	.LBE402:
 881              	.LBE401:
 882              	.LBE400:
 883              	.LBE399:
 884              	.LBE398:
 885              		.loc 1 355 3 is_stmt 1 view .LVU323
 886              		.loc 1 356 1 is_stmt 0 view .LVU324
 887 001a 2046     		mov	r0, r4
 888 001c 10BD     		pop	{r4, pc}
 889              		.loc 1 356 1 view .LVU325
 890              		.cfi_endproc
 891              	.LFE357:
 892              		.size	chThdSpawnRunning, .-chThdSpawnRunning
 893 001e 00BF     		.section	.text.chThdCreateSuspendedI,"ax",%progbits
 894              		.align	1
 895              		.p2align 4,,15
 896              		.global	chThdCreateSuspendedI
 897              		.syntax unified
 898              		.thumb
 899              		.thumb_func
 900              		.type	chThdCreateSuspendedI, %function
 901              	chThdCreateSuspendedI:
 902              	.LVL34:
 903              	.LFB358:
 904              		.loc 1 378 65 is_stmt 1 view -0
 905              		.cfi_startproc
 906              		@ args = 0, pretend = 0, frame = 0
 907              		@ frame_needed = 0, uses_anonymous_args = 0
 908              		@ link register save eliminated.
 909              		.loc 1 379 3 view .LVU327
 910              		.loc 1 380 3 view .LVU328
 911              		.loc 1 382 21 view .LVU329
 912              		.loc 1 385 3 view .LVU330
ARM GAS  C:\Users\DEVELO~1\AppData\Local\Temp\ccUBlV4P.s 			page 17


 913              		.loc 1 385 3 view .LVU331
 914              		.loc 1 385 3 view .LVU332
 915              		.loc 1 390 3 view .LVU333
 916              		.loc 1 390 3 view .LVU334
 917              		.loc 1 390 3 view .LVU335
 918              		.loc 1 396 3 view .LVU336
 919              		.loc 1 378 65 is_stmt 0 view .LVU337
 920 0000 0246     		mov	r2, r0
 921              	.LVL35:
 922              		.loc 1 397 3 is_stmt 1 view .LVU338
 923              		.loc 1 397 27 is_stmt 0 view .LVU339
 924 0002 8368     		ldr	r3, [r0, #8]
 925              	.LBB413:
 926              	.LBB414:
 927              		.loc 1 129 25 view .LVU340
 928 0004 0021     		movs	r1, #0
 929              	.LBE414:
 930              	.LBE413:
 931              		.loc 1 397 11 view .LVU341
 932 0006 A3F16000 		sub	r0, r3, #96
 933              	.LVL36:
 934              		.loc 1 399 3 is_stmt 1 view .LVU342
 935              		.loc 1 399 3 view .LVU343
 936              		.loc 1 399 3 view .LVU344
 937              		.loc 1 403 3 view .LVU345
 938              	.LBB431:
 939              	.LBI413:
 940              		.loc 1 116 11 view .LVU346
 941              	.LBB423:
 942              		.loc 1 119 3 view .LVU347
 943              		.loc 1 119 3 view .LVU348
 944              		.loc 1 119 3 view .LVU349
 945              		.loc 1 120 3 view .LVU350
 946              		.loc 1 120 3 view .LVU351
 947              		.loc 1 120 3 view .LVU352
 948              		.loc 1 123 3 view .LVU353
 949              	.LBE423:
 950              	.LBE431:
 951              		.loc 1 378 65 is_stmt 0 view .LVU354
 952 000a 30B4     		push	{r4, r5}
 953              		.cfi_def_cfa_offset 8
 954              		.cfi_offset 4, -8
 955              		.cfi_offset 5, -4
 956              	.LBB432:
 957              	.LBB424:
 958              		.loc 1 123 14 view .LVU355
 959 000c 5468     		ldr	r4, [r2, #4]
 960              		.loc 1 128 25 view .LVU356
 961 000e 0225     		movs	r5, #2
 962              		.loc 1 124 14 view .LVU357
 963 0010 43E91343 		strd	r4, r3, [r3, #-76]
 964              		.loc 1 127 3 is_stmt 1 view .LVU358
 965              		.loc 1 127 30 is_stmt 0 view .LVU359
 966 0014 D468     		ldr	r4, [r2, #12]
 967              		.loc 1 128 25 view .LVU360
 968 0016 03F8445C 		strb	r5, [r3, #-68]
 969              	.LVL37:
ARM GAS  C:\Users\DEVELO~1\AppData\Local\Temp\ccUBlV4P.s 			page 18


 970              		.loc 1 129 25 view .LVU361
 971 001a 03F8431C 		strb	r1, [r3, #-67]
 972              		.loc 1 130 10 view .LVU362
 973 001e 9169     		ldr	r1, [r2, #24]
 974              		.loc 1 127 25 view .LVU363
 975 0020 43F8584C 		str	r4, [r3, #-88]
 976              		.loc 1 128 3 is_stmt 1 view .LVU364
 977              		.loc 1 129 3 view .LVU365
 978              		.loc 1 130 3 view .LVU366
 979              		.loc 1 130 6 is_stmt 0 view .LVU367
 980 0024 81B3     		cbz	r1, .L32
 981              	.L29:
 982              		.loc 1 149 25 view .LVU368
 983 0026 43F8144C 		str	r4, [r3, #-20]
 984              		.loc 1 165 25 view .LVU369
 985 002a 0124     		movs	r4, #1
 986              	.LBE424:
 987              	.LBE432:
 988              		.loc 1 406 3 view .LVU370
 989 002c 174D     		ldr	r5, .L33
 990              	.LBB433:
 991              	.LBB425:
 992              		.loc 1 165 25 view .LVU371
 993 002e 03F8424C 		strb	r4, [r3, #-66]
 994              		.loc 1 166 25 view .LVU372
 995 0032 1468     		ldr	r4, [r2]
 996 0034 43F8501C 		str	r1, [r3, #-80]
 997              		.loc 1 137 3 is_stmt 1 view .LVU373
 998              		.loc 1 166 25 is_stmt 0 view .LVU374
 999 0038 43F8404C 		str	r4, [r3, #-64]
 1000              		.loc 1 171 3 view .LVU375
 1001 003c A3F12404 		sub	r4, r3, #36
 1002              	.LBB415:
 1003              	.LBB416:
 1004              		.loc 2 284 12 view .LVU376
 1005 0040 43E90944 		strd	r4, r4, [r3, #-36]
 1006              	.LBE416:
 1007              	.LBE415:
 1008              	.LBE425:
 1009              	.LBE433:
 1010              		.loc 1 406 3 view .LVU377
 1011 0044 A3F18404 		sub	r4, r3, #132
 1012 0048 43F8544C 		str	r4, [r3, #-84]
 1013 004c D2E90442 		ldrd	r4, r2, [r2, #16]
 1014              	.LVL38:
 1015              		.loc 1 406 3 view .LVU378
 1016 0050 43F8645C 		str	r5, [r3, #-100]
 1017              	.LBB434:
 1018              	.LBB426:
 1019              		.loc 1 144 3 view .LVU379
 1020 0054 A3F12805 		sub	r5, r3, #40
 1021              	.LBE426:
 1022              	.LBE434:
 1023              		.loc 1 406 3 view .LVU380
 1024 0058 43F8802C 		str	r2, [r3, #-128]
 1025              	.LBB435:
 1026              	.LBB427:
ARM GAS  C:\Users\DEVELO~1\AppData\Local\Temp\ccUBlV4P.s 			page 19


 1027              		.loc 1 137 25 view .LVU381
 1028 005c 0022     		movs	r2, #0
 1029              	.LBE427:
 1030              	.LBE435:
 1031              		.loc 1 406 3 view .LVU382
 1032 005e 43F8844C 		str	r4, [r3, #-132]
 1033              		.loc 1 409 3 view .LVU383
 1034 0062 A3F13C04 		sub	r4, r3, #60
 1035              	.LBB436:
 1036              	.LBB428:
 1037              		.loc 1 138 25 view .LVU384
 1038 0066 43E90D22 		strd	r2, r2, [r3, #-52]
 1039              		.loc 1 144 3 is_stmt 1 view .LVU385
 1040              	.LVL39:
 1041              	.LBB418:
 1042              	.LBI418:
 1043              		.loc 2 213 20 view .LVU386
 1044              	.LBB419:
 1045              		.loc 2 215 3 view .LVU387
 1046              	.LBE419:
 1047              	.LBE418:
 1048              		.loc 1 155 25 is_stmt 0 view .LVU388
 1049 006a 43E90722 		strd	r2, r2, [r3, #-28]
 1050              	.LBE428:
 1051              	.LBE436:
 1052              	.LBB437:
 1053              	.LBB438:
 1054              		.loc 2 325 21 view .LVU389
 1055 006e 4A6B     		ldr	r2, [r1, #52]
 1056              	.LBE438:
 1057              	.LBE437:
 1058              	.LBB441:
 1059              	.LBB429:
 1060              	.LBB421:
 1061              	.LBB420:
 1062              		.loc 2 215 12 view .LVU390
 1063 0070 43F8285C 		str	r5, [r3, #-40]
 1064              	.LVL40:
 1065              		.loc 2 215 12 view .LVU391
 1066              	.LBE420:
 1067              	.LBE421:
 1068              		.loc 1 149 3 is_stmt 1 view .LVU392
 1069              		.loc 1 150 3 view .LVU393
 1070              		.loc 1 155 3 view .LVU394
 1071              		.loc 1 165 3 view .LVU395
 1072              		.loc 1 166 3 view .LVU396
 1073              		.loc 1 171 3 view .LVU397
 1074              	.LBB422:
 1075              	.LBI415:
 1076              		.loc 2 282 20 view .LVU398
 1077              	.LBB417:
 1078              		.loc 2 284 3 view .LVU399
 1079              		.loc 2 285 3 view .LVU400
 1080              		.loc 2 285 3 is_stmt 0 view .LVU401
 1081              	.LBE417:
 1082              	.LBE422:
 1083              		.loc 1 180 3 is_stmt 1 view .LVU402
ARM GAS  C:\Users\DEVELO~1\AppData\Local\Temp\ccUBlV4P.s 			page 20


 1084              		.loc 1 180 30 view .LVU403
 1085              		.loc 1 182 3 view .LVU404
 1086              		.loc 1 182 3 is_stmt 0 view .LVU405
 1087              	.LBE429:
 1088              	.LBE441:
 1089              		.loc 1 406 3 is_stmt 1 view .LVU406
 1090              		.loc 1 406 3 view .LVU407
 1091              		.loc 1 406 3 view .LVU408
 1092              		.loc 1 406 3 view .LVU409
 1093              		.loc 1 406 3 view .LVU410
 1094              		.loc 1 406 3 view .LVU411
 1095              		.loc 1 409 3 view .LVU412
 1096              	.LBB442:
 1097              	.LBI437:
 1098              		.loc 2 322 20 view .LVU413
 1099              	.LBB439:
 1100              		.loc 2 324 3 view .LVU414
 1101              	.LBE439:
 1102              	.LBE442:
 1103              		.loc 1 409 3 is_stmt 0 view .LVU415
 1104 0074 01F13005 		add	r5, r1, #48
 1105              	.LVL41:
 1106              	.LBB443:
 1107              	.LBB440:
 1108              		.loc 2 325 17 view .LVU416
 1109 0078 43F8382C 		str	r2, [r3, #-56]
 1110              		.loc 2 324 17 view .LVU417
 1111 007c 43F83C5C 		str	r5, [r3, #-60]
 1112              		.loc 2 325 3 is_stmt 1 view .LVU418
 1113              		.loc 2 326 3 view .LVU419
 1114              		.loc 2 326 17 is_stmt 0 view .LVU420
 1115 0080 1460     		str	r4, [r2]
 1116              		.loc 2 327 3 is_stmt 1 view .LVU421
 1117              		.loc 2 327 17 is_stmt 0 view .LVU422
 1118 0082 4C63     		str	r4, [r1, #52]
 1119              	.LVL42:
 1120              		.loc 2 327 17 view .LVU423
 1121              	.LBE440:
 1122              	.LBE443:
 1123              		.loc 1 412 3 is_stmt 1 view .LVU424
 1124              		.loc 1 413 1 is_stmt 0 view .LVU425
 1125 0084 30BC     		pop	{r4, r5}
 1126              		.cfi_remember_state
 1127              		.cfi_restore 5
 1128              		.cfi_restore 4
 1129              		.cfi_def_cfa_offset 0
 1130 0086 7047     		bx	lr
 1131              	.LVL43:
 1132              	.L32:
 1133              		.cfi_restore_state
 1134              	.LBB444:
 1135              	.LBB430:
 1136              		.loc 1 134 25 view .LVU426
 1137 0088 0149     		ldr	r1, .L33+4
 1138 008a CCE7     		b	.L29
 1139              	.L34:
 1140              		.align	2
ARM GAS  C:\Users\DEVELO~1\AppData\Local\Temp\ccUBlV4P.s 			page 21


 1141              	.L33:
 1142 008c 00000000 		.word	__port_thread_start
 1143 0090 00000000 		.word	ch0
 1144              	.LBE430:
 1145              	.LBE444:
 1146              		.cfi_endproc
 1147              	.LFE358:
 1148              		.size	chThdCreateSuspendedI, .-chThdCreateSuspendedI
 1149              		.section	.text.chThdCreateSuspended,"ax",%progbits
 1150              		.align	1
 1151              		.p2align 4,,15
 1152              		.global	chThdCreateSuspended
 1153              		.syntax unified
 1154              		.thumb
 1155              		.thumb_func
 1156              		.type	chThdCreateSuspended, %function
 1157              	chThdCreateSuspended:
 1158              	.LVL44:
 1159              	.LFB359:
 1160              		.loc 1 432 64 is_stmt 1 view -0
 1161              		.cfi_startproc
 1162              		@ args = 0, pretend = 0, frame = 0
 1163              		@ frame_needed = 0, uses_anonymous_args = 0
 1164              		@ link register save eliminated.
 1165              		.loc 1 433 3 view .LVU428
 1166              		.loc 1 436 3 view .LVU429
 1167              		.loc 1 436 3 view .LVU430
 1168              		.loc 1 436 3 view .LVU431
 1169              		.loc 1 444 3 view .LVU432
 1170              	.LBB464:
 1171              	.LBI464:
 1172              		.loc 3 372 20 view .LVU433
 1173              		.loc 3 374 3 view .LVU434
 1174              	.LBB465:
 1175              	.LBI465:
 1176              		.loc 4 840 27 view .LVU435
 1177              		.loc 4 848 3 view .LVU436
 1178              	.LBB466:
 1179              	.LBI466:
 1180              		.loc 5 491 27 view .LVU437
 1181              	.LBB467:
 1182              		.loc 5 493 3 view .LVU438
 1183 0000 3023     		movs	r3, #48
 1184              	.LBE467:
 1185              	.LBE466:
 1186              	.LBE465:
 1187              	.LBE464:
 1188              		.loc 1 432 64 is_stmt 0 view .LVU439
 1189 0002 0246     		mov	r2, r0
 1190 0004 70B4     		push	{r4, r5, r6}
 1191              		.cfi_def_cfa_offset 12
 1192              		.cfi_offset 4, -12
 1193              		.cfi_offset 5, -8
 1194              		.cfi_offset 6, -4
 1195              	.LBB471:
 1196              	.LBB470:
 1197              	.LBB469:
ARM GAS  C:\Users\DEVELO~1\AppData\Local\Temp\ccUBlV4P.s 			page 22


 1198              	.LBB468:
 1199              		.loc 5 493 3 view .LVU440
 1200              		.syntax unified
 1201              	@ 493 "./ChibiOS/os/common/ext/ARM/CMSIS/Core/Include/cmsis_gcc.h" 1
 1202 0006 83F31188 		MSR basepri, r3
 1203              	@ 0 "" 2
 1204              	.LVL45:
 1205              		.loc 5 493 3 view .LVU441
 1206              		.thumb
 1207              		.syntax unified
 1208              	.LBE468:
 1209              	.LBE469:
 1210              	.LBE470:
 1211              		.loc 3 375 35 is_stmt 1 view .LVU442
 1212              		.loc 3 376 21 view .LVU443
 1213              	.LBE471:
 1214              		.loc 1 445 3 view .LVU444
 1215              	.LBB472:
 1216              	.LBI472:
 1217              		.loc 1 378 11 view .LVU445
 1218              	.LBB473:
 1219              		.loc 1 379 3 view .LVU446
 1220              		.loc 1 380 3 view .LVU447
 1221              		.loc 1 382 21 view .LVU448
 1222              		.loc 1 385 3 view .LVU449
 1223              		.loc 1 385 3 view .LVU450
 1224              		.loc 1 385 3 view .LVU451
 1225              		.loc 1 390 3 view .LVU452
 1226              		.loc 1 390 3 view .LVU453
 1227              		.loc 1 390 3 view .LVU454
 1228              		.loc 1 396 3 view .LVU455
 1229              		.loc 1 397 3 view .LVU456
 1230              	.LBB474:
 1231              	.LBB475:
 1232              		.loc 1 128 25 is_stmt 0 view .LVU457
 1233 000a 0220     		movs	r0, #2
 1234              	.LVL46:
 1235              		.loc 1 129 25 view .LVU458
 1236 000c 0021     		movs	r1, #0
 1237              		.loc 1 127 30 view .LVU459
 1238 000e D468     		ldr	r4, [r2, #12]
 1239              		.loc 1 123 14 view .LVU460
 1240 0010 D2E90153 		ldrd	r5, r3, [r2, #4]
 1241              		.loc 1 128 25 view .LVU461
 1242 0014 03F8440C 		strb	r0, [r3, #-68]
 1243              	.LVL47:
 1244              		.loc 1 128 25 view .LVU462
 1245              	.LBE475:
 1246              	.LBE474:
 1247              		.loc 1 397 11 view .LVU463
 1248 0018 A3F16000 		sub	r0, r3, #96
 1249              	.LVL48:
 1250              		.loc 1 399 3 is_stmt 1 view .LVU464
 1251              		.loc 1 399 3 view .LVU465
 1252              		.loc 1 399 3 view .LVU466
 1253              		.loc 1 403 3 view .LVU467
 1254              	.LBB490:
ARM GAS  C:\Users\DEVELO~1\AppData\Local\Temp\ccUBlV4P.s 			page 23


 1255              	.LBI474:
 1256              		.loc 1 116 11 view .LVU468
 1257              	.LBB484:
 1258              		.loc 1 119 3 view .LVU469
 1259              		.loc 1 119 3 view .LVU470
 1260              		.loc 1 119 3 view .LVU471
 1261              		.loc 1 120 3 view .LVU472
 1262              		.loc 1 120 3 view .LVU473
 1263              		.loc 1 120 3 view .LVU474
 1264              		.loc 1 123 3 view .LVU475
 1265              		.loc 1 129 25 is_stmt 0 view .LVU476
 1266 001c 03F8431C 		strb	r1, [r3, #-67]
 1267              		.loc 1 130 10 view .LVU477
 1268 0020 9169     		ldr	r1, [r2, #24]
 1269              		.loc 1 127 25 view .LVU478
 1270 0022 43F8584C 		str	r4, [r3, #-88]
 1271              		.loc 1 124 14 view .LVU479
 1272 0026 43E91353 		strd	r5, r3, [r3, #-76]
 1273              		.loc 1 127 3 is_stmt 1 view .LVU480
 1274              		.loc 1 128 3 view .LVU481
 1275              		.loc 1 129 3 view .LVU482
 1276              		.loc 1 130 3 view .LVU483
 1277              		.loc 1 130 6 is_stmt 0 view .LVU484
 1278 002a 91B3     		cbz	r1, .L39
 1279              	.L36:
 1280              		.loc 1 149 25 view .LVU485
 1281 002c 43F8144C 		str	r4, [r3, #-20]
 1282              		.loc 1 165 25 view .LVU486
 1283 0030 0124     		movs	r4, #1
 1284              		.loc 1 144 3 view .LVU487
 1285 0032 A3F12806 		sub	r6, r3, #40
 1286              	.LBE484:
 1287              	.LBE490:
 1288              		.loc 1 406 3 view .LVU488
 1289 0036 184D     		ldr	r5, .L40
 1290              	.LVL49:
 1291              	.LBB491:
 1292              	.LBB485:
 1293              		.loc 1 165 25 view .LVU489
 1294 0038 03F8424C 		strb	r4, [r3, #-66]
 1295              		.loc 1 166 25 view .LVU490
 1296 003c 1468     		ldr	r4, [r2]
 1297 003e 43F8501C 		str	r1, [r3, #-80]
 1298              		.loc 1 137 3 is_stmt 1 view .LVU491
 1299              		.loc 1 166 25 is_stmt 0 view .LVU492
 1300 0042 43F8404C 		str	r4, [r3, #-64]
 1301              		.loc 1 171 3 view .LVU493
 1302 0046 A3F12404 		sub	r4, r3, #36
 1303              	.LBB476:
 1304              	.LBB477:
 1305              		.loc 2 284 12 view .LVU494
 1306 004a 43E90944 		strd	r4, r4, [r3, #-36]
 1307              	.LBE477:
 1308              	.LBE476:
 1309              	.LBE485:
 1310              	.LBE491:
 1311              		.loc 1 406 3 view .LVU495
ARM GAS  C:\Users\DEVELO~1\AppData\Local\Temp\ccUBlV4P.s 			page 24


 1312 004e A3F18404 		sub	r4, r3, #132
 1313 0052 43F8544C 		str	r4, [r3, #-84]
 1314 0056 D2E90442 		ldrd	r4, r2, [r2, #16]
 1315              	.LVL50:
 1316              		.loc 1 406 3 view .LVU496
 1317 005a 43F8645C 		str	r5, [r3, #-100]
 1318 005e 43F8844C 		str	r4, [r3, #-132]
 1319              		.loc 1 409 3 view .LVU497
 1320 0062 A3F13C04 		sub	r4, r3, #60
 1321              	.LBB492:
 1322              	.LBB493:
 1323              		.loc 2 325 21 view .LVU498
 1324 0066 4D6B     		ldr	r5, [r1, #52]
 1325              	.LBE493:
 1326              	.LBE492:
 1327              		.loc 1 406 3 view .LVU499
 1328 0068 43F8802C 		str	r2, [r3, #-128]
 1329              	.LBB497:
 1330              	.LBB486:
 1331              		.loc 1 137 25 view .LVU500
 1332 006c 0022     		movs	r2, #0
 1333              	.LBB479:
 1334              	.LBB480:
 1335              		.loc 2 215 12 view .LVU501
 1336 006e 43F8286C 		str	r6, [r3, #-40]
 1337              	.LBE480:
 1338              	.LBE479:
 1339              	.LBE486:
 1340              	.LBE497:
 1341              		.loc 1 409 3 view .LVU502
 1342 0072 01F13006 		add	r6, r1, #48
 1343              	.LBB498:
 1344              	.LBB494:
 1345              		.loc 2 325 17 view .LVU503
 1346 0076 43F8385C 		str	r5, [r3, #-56]
 1347              		.loc 2 324 17 view .LVU504
 1348 007a 43F83C6C 		str	r6, [r3, #-60]
 1349              	.LBE494:
 1350              	.LBE498:
 1351              	.LBB499:
 1352              	.LBB487:
 1353              		.loc 1 138 25 view .LVU505
 1354 007e 43E90D22 		strd	r2, r2, [r3, #-52]
 1355              		.loc 1 144 3 is_stmt 1 view .LVU506
 1356              	.LVL51:
 1357              	.LBB482:
 1358              	.LBI479:
 1359              		.loc 2 213 20 view .LVU507
 1360              	.LBB481:
 1361              		.loc 2 215 3 view .LVU508
 1362              		.loc 2 215 3 is_stmt 0 view .LVU509
 1363              	.LBE481:
 1364              	.LBE482:
 1365              		.loc 1 149 3 is_stmt 1 view .LVU510
 1366              		.loc 1 150 3 view .LVU511
 1367              		.loc 1 155 3 view .LVU512
 1368              		.loc 1 165 3 view .LVU513
ARM GAS  C:\Users\DEVELO~1\AppData\Local\Temp\ccUBlV4P.s 			page 25


 1369              		.loc 1 166 3 view .LVU514
 1370              		.loc 1 171 3 view .LVU515
 1371              	.LBB483:
 1372              	.LBI476:
 1373              		.loc 2 282 20 view .LVU516
 1374              	.LBB478:
 1375              		.loc 2 284 3 view .LVU517
 1376              		.loc 2 285 3 view .LVU518
 1377              		.loc 2 285 3 is_stmt 0 view .LVU519
 1378              	.LBE478:
 1379              	.LBE483:
 1380              		.loc 1 180 3 is_stmt 1 view .LVU520
 1381              		.loc 1 180 30 view .LVU521
 1382              		.loc 1 182 3 view .LVU522
 1383              		.loc 1 182 3 is_stmt 0 view .LVU523
 1384              	.LBE487:
 1385              	.LBE499:
 1386              		.loc 1 406 3 is_stmt 1 view .LVU524
 1387              		.loc 1 406 3 view .LVU525
 1388              		.loc 1 406 3 view .LVU526
 1389              		.loc 1 406 3 view .LVU527
 1390              		.loc 1 406 3 view .LVU528
 1391              		.loc 1 406 3 view .LVU529
 1392              		.loc 1 409 3 view .LVU530
 1393              	.LBB500:
 1394              	.LBI492:
 1395              		.loc 2 322 20 view .LVU531
 1396              	.LBB495:
 1397              		.loc 2 324 3 view .LVU532
 1398              		.loc 2 325 3 view .LVU533
 1399              		.loc 2 326 3 view .LVU534
 1400              	.LBE495:
 1401              	.LBE500:
 1402              	.LBB501:
 1403              	.LBB488:
 1404              		.loc 1 155 25 is_stmt 0 view .LVU535
 1405 0082 43E90722 		strd	r2, r2, [r3, #-28]
 1406              	.LBE488:
 1407              	.LBE501:
 1408              	.LBB502:
 1409              	.LBB496:
 1410              		.loc 2 326 17 view .LVU536
 1411 0086 2C60     		str	r4, [r5]
 1412              		.loc 2 327 3 is_stmt 1 view .LVU537
 1413              		.loc 2 327 17 is_stmt 0 view .LVU538
 1414 0088 4C63     		str	r4, [r1, #52]
 1415              	.LVL52:
 1416              		.loc 2 327 17 view .LVU539
 1417              	.LBE496:
 1418              	.LBE502:
 1419              		.loc 1 412 3 is_stmt 1 view .LVU540
 1420              		.loc 1 412 3 is_stmt 0 view .LVU541
 1421              	.LBE473:
 1422              	.LBE472:
 1423              		.loc 1 446 3 is_stmt 1 view .LVU542
 1424              	.LBB505:
 1425              	.LBI505:
ARM GAS  C:\Users\DEVELO~1\AppData\Local\Temp\ccUBlV4P.s 			page 26


 1426              		.loc 3 386 20 view .LVU543
 1427              	.LBB506:
 1428              		.loc 3 388 23 view .LVU544
 1429              		.loc 3 389 34 view .LVU545
 1430              		.loc 3 395 3 view .LVU546
 1431              		.loc 3 395 3 view .LVU547
 1432              		.loc 3 395 3 view .LVU548
 1433              		.loc 3 399 3 view .LVU549
 1434              	.LBB507:
 1435              	.LBI507:
 1436              		.loc 4 864 27 view .LVU550
 1437              		.loc 4 867 3 view .LVU551
 1438              	.LBB508:
 1439              	.LBI508:
 1440              		.loc 5 491 27 view .LVU552
 1441              	.LBB509:
 1442              		.loc 5 493 3 view .LVU553
 1443              		.syntax unified
 1444              	@ 493 "./ChibiOS/os/common/ext/ARM/CMSIS/Core/Include/cmsis_gcc.h" 1
 1445 008a 82F31188 		MSR basepri, r2
 1446              	@ 0 "" 2
 1447              	.LVL53:
 1448              		.loc 5 493 3 is_stmt 0 view .LVU554
 1449              		.thumb
 1450              		.syntax unified
 1451              	.LBE509:
 1452              	.LBE508:
 1453              	.LBE507:
 1454              	.LBE506:
 1455              	.LBE505:
 1456              		.loc 1 448 3 is_stmt 1 view .LVU555
 1457              		.loc 1 449 1 is_stmt 0 view .LVU556
 1458 008e 70BC     		pop	{r4, r5, r6}
 1459              		.cfi_remember_state
 1460              		.cfi_restore 6
 1461              		.cfi_restore 5
 1462              		.cfi_restore 4
 1463              		.cfi_def_cfa_offset 0
 1464 0090 7047     		bx	lr
 1465              	.LVL54:
 1466              	.L39:
 1467              		.cfi_restore_state
 1468              	.LBB510:
 1469              	.LBB504:
 1470              	.LBB503:
 1471              	.LBB489:
 1472              		.loc 1 134 25 view .LVU557
 1473 0092 0249     		ldr	r1, .L40+4
 1474 0094 CAE7     		b	.L36
 1475              	.L41:
 1476 0096 00BF     		.align	2
 1477              	.L40:
 1478 0098 00000000 		.word	__port_thread_start
 1479 009c 00000000 		.word	ch0
 1480              	.LBE489:
 1481              	.LBE503:
 1482              	.LBE504:
ARM GAS  C:\Users\DEVELO~1\AppData\Local\Temp\ccUBlV4P.s 			page 27


 1483              	.LBE510:
 1484              		.cfi_endproc
 1485              	.LFE359:
 1486              		.size	chThdCreateSuspended, .-chThdCreateSuspended
 1487              		.section	.text.chThdCreateI,"ax",%progbits
 1488              		.align	1
 1489              		.p2align 4,,15
 1490              		.global	chThdCreateI
 1491              		.syntax unified
 1492              		.thumb
 1493              		.thumb_func
 1494              		.type	chThdCreateI, %function
 1495              	chThdCreateI:
 1496              	.LVL55:
 1497              	.LFB360:
 1498              		.loc 1 469 56 is_stmt 1 view -0
 1499              		.cfi_startproc
 1500              		@ args = 0, pretend = 0, frame = 0
 1501              		@ frame_needed = 0, uses_anonymous_args = 0
 1502              		.loc 1 471 3 view .LVU559
 1503              		.loc 1 469 56 is_stmt 0 view .LVU560
 1504 0000 08B5     		push	{r3, lr}
 1505              		.cfi_def_cfa_offset 8
 1506              		.cfi_offset 3, -8
 1507              		.cfi_offset 14, -4
 1508              		.loc 1 471 10 view .LVU561
 1509 0002 FFF7FEFF 		bl	chThdCreateSuspendedI
 1510              	.LVL56:
 1511              		.loc 1 472 1 view .LVU562
 1512 0006 BDE80840 		pop	{r3, lr}
 1513              		.cfi_restore 14
 1514              		.cfi_restore 3
 1515              		.cfi_def_cfa_offset 0
 1516              		.loc 1 471 10 view .LVU563
 1517 000a FFF7FEBF 		b	chSchReadyI
 1518              	.LVL57:
 1519              		.cfi_endproc
 1520              	.LFE360:
 1521              		.size	chThdCreateI, .-chThdCreateI
 1522 000e 00BF     		.section	.text.chThdCreate,"ax",%progbits
 1523              		.align	1
 1524              		.p2align 4,,15
 1525              		.global	chThdCreate
 1526              		.syntax unified
 1527              		.thumb
 1528              		.thumb_func
 1529              		.type	chThdCreate, %function
 1530              	chThdCreate:
 1531              	.LVL58:
 1532              	.LFB361:
 1533              		.loc 1 487 55 is_stmt 1 view -0
 1534              		.cfi_startproc
 1535              		@ args = 0, pretend = 0, frame = 0
 1536              		@ frame_needed = 0, uses_anonymous_args = 0
 1537              		.loc 1 488 3 view .LVU565
 1538              		.loc 1 492 3 view .LVU566
 1539              		.loc 1 492 3 view .LVU567
ARM GAS  C:\Users\DEVELO~1\AppData\Local\Temp\ccUBlV4P.s 			page 28


 1540              		.loc 1 492 3 view .LVU568
 1541              		.loc 1 500 3 view .LVU569
 1542              	.LBB511:
 1543              	.LBI511:
 1544              		.loc 3 372 20 view .LVU570
 1545              		.loc 3 374 3 view .LVU571
 1546              	.LBB512:
 1547              	.LBI512:
 1548              		.loc 4 840 27 view .LVU572
 1549              		.loc 4 848 3 view .LVU573
 1550              	.LBB513:
 1551              	.LBI513:
 1552              		.loc 5 491 27 view .LVU574
 1553              	.LBB514:
 1554              		.loc 5 493 3 view .LVU575
 1555              	.LBE514:
 1556              	.LBE513:
 1557              	.LBE512:
 1558              	.LBE511:
 1559              		.loc 1 487 55 is_stmt 0 view .LVU576
 1560 0000 10B5     		push	{r4, lr}
 1561              		.cfi_def_cfa_offset 8
 1562              		.cfi_offset 4, -8
 1563              		.cfi_offset 14, -4
 1564              	.LBB518:
 1565              	.LBB517:
 1566              	.LBB516:
 1567              	.LBB515:
 1568              		.loc 5 493 3 view .LVU577
 1569 0002 3023     		movs	r3, #48
 1570              		.syntax unified
 1571              	@ 493 "./ChibiOS/os/common/ext/ARM/CMSIS/Core/Include/cmsis_gcc.h" 1
 1572 0004 83F31188 		MSR basepri, r3
 1573              	@ 0 "" 2
 1574              	.LVL59:
 1575              		.loc 5 493 3 view .LVU578
 1576              		.thumb
 1577              		.syntax unified
 1578              	.LBE515:
 1579              	.LBE516:
 1580              	.LBE517:
 1581              		.loc 3 375 35 is_stmt 1 view .LVU579
 1582              		.loc 3 376 21 view .LVU580
 1583              	.LBE518:
 1584              		.loc 1 501 3 view .LVU581
 1585              		.loc 1 501 8 is_stmt 0 view .LVU582
 1586 0008 FFF7FEFF 		bl	chThdCreateSuspendedI
 1587              	.LVL60:
 1588              		.loc 1 502 3 view .LVU583
 1589 000c 0021     		movs	r1, #0
 1590              		.loc 1 501 8 view .LVU584
 1591 000e 0446     		mov	r4, r0
 1592              	.LVL61:
 1593              		.loc 1 502 3 is_stmt 1 view .LVU585
 1594 0010 FFF7FEFF 		bl	chSchWakeupS
 1595              	.LVL62:
 1596              		.loc 1 503 3 view .LVU586
ARM GAS  C:\Users\DEVELO~1\AppData\Local\Temp\ccUBlV4P.s 			page 29


 1597              	.LBB519:
 1598              	.LBI519:
 1599              		.loc 3 386 20 view .LVU587
 1600              	.LBB520:
 1601              		.loc 3 388 23 view .LVU588
 1602              		.loc 3 389 34 view .LVU589
 1603              		.loc 3 395 3 view .LVU590
 1604              		.loc 3 395 3 view .LVU591
 1605              		.loc 3 395 3 view .LVU592
 1606              		.loc 3 399 3 view .LVU593
 1607              	.LBB521:
 1608              	.LBI521:
 1609              		.loc 4 864 27 view .LVU594
 1610              		.loc 4 867 3 view .LVU595
 1611              	.LBB522:
 1612              	.LBI522:
 1613              		.loc 5 491 27 view .LVU596
 1614              	.LBB523:
 1615              		.loc 5 493 3 view .LVU597
 1616 0014 0023     		movs	r3, #0
 1617              		.syntax unified
 1618              	@ 493 "./ChibiOS/os/common/ext/ARM/CMSIS/Core/Include/cmsis_gcc.h" 1
 1619 0016 83F31188 		MSR basepri, r3
 1620              	@ 0 "" 2
 1621              	.LVL63:
 1622              		.loc 5 493 3 is_stmt 0 view .LVU598
 1623              		.thumb
 1624              		.syntax unified
 1625              	.LBE523:
 1626              	.LBE522:
 1627              	.LBE521:
 1628              	.LBE520:
 1629              	.LBE519:
 1630              		.loc 1 505 3 is_stmt 1 view .LVU599
 1631              		.loc 1 506 1 is_stmt 0 view .LVU600
 1632 001a 2046     		mov	r0, r4
 1633 001c 10BD     		pop	{r4, pc}
 1634              		.loc 1 506 1 view .LVU601
 1635              		.cfi_endproc
 1636              	.LFE361:
 1637              		.size	chThdCreate, .-chThdCreate
 1638 001e 00BF     		.section	.rodata.chThdCreateStatic.str1.4,"aMS",%progbits,1
 1639              		.align	2
 1640              	.LC0:
 1641 0000 6E6F6E61 		.ascii	"noname\000"
 1641      6D6500
 1642              		.section	.text.chThdCreateStatic,"ax",%progbits
 1643              		.align	1
 1644              		.p2align 4,,15
 1645              		.global	chThdCreateStatic
 1646              		.syntax unified
 1647              		.thumb
 1648              		.thumb_func
 1649              		.type	chThdCreateStatic, %function
 1650              	chThdCreateStatic:
 1651              	.LVL64:
 1652              	.LFB362:
ARM GAS  C:\Users\DEVELO~1\AppData\Local\Temp\ccUBlV4P.s 			page 30


 1653              		.loc 1 529 68 is_stmt 1 view -0
 1654              		.cfi_startproc
 1655              		@ args = 4, pretend = 0, frame = 0
 1656              		@ frame_needed = 0, uses_anonymous_args = 0
 1657              		.loc 1 530 3 view .LVU603
 1658              		.loc 1 531 3 view .LVU604
 1659              		.loc 1 534 3 view .LVU605
 1660              		.loc 1 534 3 view .LVU606
 1661              		.loc 1 534 3 view .LVU607
 1662              		.loc 1 538 3 view .LVU608
 1663              		.loc 1 538 3 view .LVU609
 1664              		.loc 1 538 3 view .LVU610
 1665              		.loc 1 543 3 view .LVU611
 1666              		.loc 1 543 3 view .LVU612
 1667              		.loc 1 543 3 view .LVU613
 1668              		.loc 1 548 3 view .LVU614
 1669              		.loc 1 529 68 is_stmt 0 view .LVU615
 1670 0000 F8B5     		push	{r3, r4, r5, r6, r7, lr}
 1671              		.cfi_def_cfa_offset 24
 1672              		.cfi_offset 3, -24
 1673              		.cfi_offset 4, -20
 1674              		.cfi_offset 5, -16
 1675              		.cfi_offset 6, -12
 1676              		.cfi_offset 7, -8
 1677              		.cfi_offset 14, -4
 1678              		.loc 1 548 8 view .LVU616
 1679 0002 4418     		adds	r4, r0, r1
 1680              	.LVL65:
 1681              		.loc 1 554 3 is_stmt 1 view .LVU617
 1682              		.loc 1 555 3 view .LVU618
 1683              	.LBB541:
 1684              	.LBB542:
 1685              		.loc 1 128 25 is_stmt 0 view .LVU619
 1686 0004 0221     		movs	r1, #2
 1687              	.LVL66:
 1688              		.loc 1 128 25 view .LVU620
 1689              	.LBE542:
 1690              	.LBE541:
 1691              		.loc 1 529 68 view .LVU621
 1692 0006 069D     		ldr	r5, [sp, #24]
 1693              	.LBB557:
 1694              	.LBB551:
 1695              		.loc 1 128 25 view .LVU622
 1696 0008 04F8441C 		strb	r1, [r4, #-68]
 1697              		.loc 1 144 3 view .LVU623
 1698 000c A4F12801 		sub	r1, r4, #40
 1699              		.loc 1 123 14 view .LVU624
 1700 0010 44F84C0C 		str	r0, [r4, #-76]
 1701              	.LBE551:
 1702              	.LBE557:
 1703              		.loc 1 555 11 view .LVU625
 1704 0014 A4F16006 		sub	r6, r4, #96
 1705              	.LVL67:
 1706              		.loc 1 556 3 is_stmt 1 view .LVU626
 1707              		.loc 1 556 3 view .LVU627
 1708              		.loc 1 556 3 view .LVU628
 1709              		.loc 1 565 3 view .LVU629
ARM GAS  C:\Users\DEVELO~1\AppData\Local\Temp\ccUBlV4P.s 			page 31


 1710              		.loc 1 566 3 view .LVU630
 1711              	.LBB558:
 1712              	.LBI541:
 1713              		.loc 1 116 11 view .LVU631
 1714              	.LBB552:
 1715              		.loc 1 119 3 view .LVU632
 1716              		.loc 1 119 3 view .LVU633
 1717              		.loc 1 119 3 view .LVU634
 1718              		.loc 1 120 3 view .LVU635
 1719              		.loc 1 120 3 view .LVU636
 1720              		.loc 1 120 3 view .LVU637
 1721              		.loc 1 123 3 view .LVU638
 1722              		.loc 1 124 3 view .LVU639
 1723              		.loc 1 127 3 view .LVU640
 1724              		.loc 1 128 3 view .LVU641
 1725              		.loc 1 129 3 view .LVU642
 1726              		.loc 1 130 3 view .LVU643
 1727              		.loc 1 131 5 view .LVU644
 1728              		.loc 1 137 3 view .LVU645
 1729              		.loc 1 138 3 view .LVU646
 1730              		.loc 1 144 3 view .LVU647
 1731              	.LBB543:
 1732              	.LBI543:
 1733              		.loc 2 213 20 view .LVU648
 1734              	.LBB544:
 1735              		.loc 2 215 3 view .LVU649
 1736              		.loc 2 215 3 is_stmt 0 view .LVU650
 1737              	.LBE544:
 1738              	.LBE543:
 1739              		.loc 1 149 3 is_stmt 1 view .LVU651
 1740              		.loc 1 150 3 view .LVU652
 1741              		.loc 1 155 3 view .LVU653
 1742              		.loc 1 165 3 view .LVU654
 1743              		.loc 1 166 3 view .LVU655
 1744              		.loc 1 171 3 view .LVU656
 1745              	.LBB546:
 1746              	.LBI546:
 1747              		.loc 2 282 20 view .LVU657
 1748              	.LBB547:
 1749              		.loc 2 284 3 view .LVU658
 1750              		.loc 2 285 3 view .LVU659
 1751              		.loc 2 285 3 is_stmt 0 view .LVU660
 1752              	.LBE547:
 1753              	.LBE546:
 1754              		.loc 1 180 3 is_stmt 1 view .LVU661
 1755              		.loc 1 180 30 view .LVU662
 1756              		.loc 1 182 3 view .LVU663
 1757              		.loc 1 182 3 is_stmt 0 view .LVU664
 1758              	.LBE552:
 1759              	.LBE558:
 1760              		.loc 1 569 3 is_stmt 1 view .LVU665
 1761              		.loc 1 569 3 view .LVU666
 1762              		.loc 1 569 3 view .LVU667
 1763              		.loc 1 569 3 view .LVU668
 1764              		.loc 1 569 3 view .LVU669
 1765              		.loc 1 569 3 view .LVU670
 1766              		.loc 1 571 3 view .LVU671
ARM GAS  C:\Users\DEVELO~1\AppData\Local\Temp\ccUBlV4P.s 			page 32


 1767              	.LBB559:
 1768              	.LBI559:
 1769              		.loc 3 372 20 view .LVU672
 1770              		.loc 3 374 3 view .LVU673
 1771              	.LBB560:
 1772              	.LBI560:
 1773              		.loc 4 840 27 view .LVU674
 1774              		.loc 4 848 3 view .LVU675
 1775              	.LBB561:
 1776              	.LBI561:
 1777              		.loc 5 491 27 view .LVU676
 1778              	.LBB562:
 1779              		.loc 5 493 3 view .LVU677
 1780              	.LBE562:
 1781              	.LBE561:
 1782              	.LBE560:
 1783              	.LBE559:
 1784              		.loc 1 569 3 is_stmt 0 view .LVU678
 1785 0018 1F48     		ldr	r0, .L48
 1786              	.LVL68:
 1787              		.loc 1 569 3 view .LVU679
 1788 001a 44F8843C 		str	r3, [r4, #-132]
 1789              	.LBB566:
 1790              	.LBB553:
 1791              	.LBB549:
 1792              	.LBB545:
 1793              		.loc 2 215 12 view .LVU680
 1794 001e 44F8281C 		str	r1, [r4, #-40]
 1795              	.LBE545:
 1796              	.LBE549:
 1797              		.loc 1 165 25 view .LVU681
 1798 0022 0121     		movs	r1, #1
 1799              		.loc 1 131 25 view .LVU682
 1800 0024 1D4B     		ldr	r3, .L48+4
 1801              	.LVL69:
 1802              		.loc 1 131 25 view .LVU683
 1803              	.LBE553:
 1804              	.LBE566:
 1805              		.loc 1 569 3 view .LVU684
 1806 0026 44F8805C 		str	r5, [r4, #-128]
 1807              	.LBB567:
 1808              	.LBB554:
 1809              		.loc 1 129 25 view .LVU685
 1810 002a 0025     		movs	r5, #0
 1811              	.LBE554:
 1812              	.LBE567:
 1813              		.loc 1 569 3 view .LVU686
 1814 002c 44F8640C 		str	r0, [r4, #-100]
 1815 0030 A4F18400 		sub	r0, r4, #132
 1816              	.LVL70:
 1817              	.LBB568:
 1818              	.LBB555:
 1819              		.loc 1 131 25 view .LVU687
 1820 0034 44F8503C 		str	r3, [r4, #-80]
 1821              		.loc 1 171 3 view .LVU688
 1822 0038 A4F12403 		sub	r3, r4, #36
 1823              		.loc 1 165 25 view .LVU689
ARM GAS  C:\Users\DEVELO~1\AppData\Local\Temp\ccUBlV4P.s 			page 33


 1824 003c 04F8421C 		strb	r1, [r4, #-66]
 1825              		.loc 1 166 25 view .LVU690
 1826 0040 1749     		ldr	r1, .L48+8
 1827              		.loc 1 124 14 view .LVU691
 1828 0042 44F8484C 		str	r4, [r4, #-72]
 1829              		.loc 1 127 25 view .LVU692
 1830 0046 44F8582C 		str	r2, [r4, #-88]
 1831              		.loc 1 129 25 view .LVU693
 1832 004a 04F8435C 		strb	r5, [r4, #-67]
 1833              	.LBE555:
 1834              	.LBE568:
 1835              		.loc 1 569 3 view .LVU694
 1836 004e 44F8540C 		str	r0, [r4, #-84]
 1837              	.LBB569:
 1838              	.LBB556:
 1839              		.loc 1 155 25 view .LVU695
 1840 0052 44F81C5C 		str	r5, [r4, #-28]
 1841              		.loc 1 166 25 view .LVU696
 1842 0056 44F8401C 		str	r1, [r4, #-64]
 1843              	.LBB550:
 1844              	.LBB548:
 1845              		.loc 2 285 12 view .LVU697
 1846 005a 44E90933 		strd	r3, r3, [r4, #-36]
 1847              	.LBE548:
 1848              	.LBE550:
 1849              		.loc 1 138 25 view .LVU698
 1850 005e 44E90D55 		strd	r5, r5, [r4, #-52]
 1851              		.loc 1 150 25 view .LVU699
 1852 0062 44E90652 		strd	r5, r2, [r4, #-24]
 1853              	.LBE556:
 1854              	.LBE569:
 1855              	.LBB570:
 1856              	.LBB565:
 1857              	.LBB564:
 1858              	.LBB563:
 1859              		.loc 5 493 3 view .LVU700
 1860 0066 3023     		movs	r3, #48
 1861              		.syntax unified
 1862              	@ 493 "./ChibiOS/os/common/ext/ARM/CMSIS/Core/Include/cmsis_gcc.h" 1
 1863 0068 83F31188 		MSR basepri, r3
 1864              	@ 0 "" 2
 1865              	.LVL71:
 1866              		.loc 5 493 3 view .LVU701
 1867              		.thumb
 1868              		.syntax unified
 1869              	.LBE563:
 1870              	.LBE564:
 1871              	.LBE565:
 1872              		.loc 3 375 35 is_stmt 1 view .LVU702
 1873              		.loc 3 376 21 view .LVU703
 1874              	.LBE570:
 1875              		.loc 1 574 3 view .LVU704
 1876 006c 54F8503C 		ldr	r3, [r4, #-80]
 1877 0070 A4F13C02 		sub	r2, r4, #60
 1878              	.LVL72:
 1879              	.LBB571:
 1880              	.LBI571:
ARM GAS  C:\Users\DEVELO~1\AppData\Local\Temp\ccUBlV4P.s 			page 34


 1881              		.loc 2 322 20 view .LVU705
 1882              	.LBB572:
 1883              		.loc 2 324 3 view .LVU706
 1884              	.LBE572:
 1885              	.LBE571:
 1886              		.loc 1 578 3 is_stmt 0 view .LVU707
 1887 0074 2946     		mov	r1, r5
 1888 0076 3046     		mov	r0, r6
 1889              	.LVL73:
 1890              	.LBB575:
 1891              	.LBB573:
 1892              		.loc 2 325 21 view .LVU708
 1893 0078 5F6B     		ldr	r7, [r3, #52]
 1894              	.LBE573:
 1895              	.LBE575:
 1896              		.loc 1 574 3 view .LVU709
 1897 007a 03F1300C 		add	ip, r3, #48
 1898              	.LVL74:
 1899              	.LBB576:
 1900              	.LBB574:
 1901              		.loc 2 325 17 view .LVU710
 1902 007e 44F8387C 		str	r7, [r4, #-56]
 1903              		.loc 2 324 17 view .LVU711
 1904 0082 44F83CCC 		str	ip, [r4, #-60]
 1905              		.loc 2 325 3 is_stmt 1 view .LVU712
 1906              		.loc 2 326 3 view .LVU713
 1907              		.loc 2 326 17 is_stmt 0 view .LVU714
 1908 0086 3A60     		str	r2, [r7]
 1909              	.LVL75:
 1910              		.loc 2 327 3 is_stmt 1 view .LVU715
 1911              		.loc 2 327 17 is_stmt 0 view .LVU716
 1912 0088 5A63     		str	r2, [r3, #52]
 1913              	.LVL76:
 1914              		.loc 2 327 17 view .LVU717
 1915              	.LBE574:
 1916              	.LBE576:
 1917              		.loc 1 578 3 is_stmt 1 view .LVU718
 1918 008a FFF7FEFF 		bl	chSchWakeupS
 1919              	.LVL77:
 1920              		.loc 1 579 3 view .LVU719
 1921              	.LBB577:
 1922              	.LBI577:
 1923              		.loc 3 386 20 view .LVU720
 1924              	.LBB578:
 1925              		.loc 3 388 23 view .LVU721
 1926              		.loc 3 389 34 view .LVU722
 1927              		.loc 3 395 3 view .LVU723
 1928              		.loc 3 395 3 view .LVU724
 1929              		.loc 3 395 3 view .LVU725
 1930              		.loc 3 399 3 view .LVU726
 1931              	.LBB579:
 1932              	.LBI579:
 1933              		.loc 4 864 27 view .LVU727
 1934              		.loc 4 867 3 view .LVU728
 1935              	.LBB580:
 1936              	.LBI580:
 1937              		.loc 5 491 27 view .LVU729
ARM GAS  C:\Users\DEVELO~1\AppData\Local\Temp\ccUBlV4P.s 			page 35


 1938              	.LBB581:
 1939              		.loc 5 493 3 view .LVU730
 1940              		.syntax unified
 1941              	@ 493 "./ChibiOS/os/common/ext/ARM/CMSIS/Core/Include/cmsis_gcc.h" 1
 1942 008e 85F31188 		MSR basepri, r5
 1943              	@ 0 "" 2
 1944              	.LVL78:
 1945              		.loc 5 493 3 is_stmt 0 view .LVU731
 1946              		.thumb
 1947              		.syntax unified
 1948              	.LBE581:
 1949              	.LBE580:
 1950              	.LBE579:
 1951              	.LBE578:
 1952              	.LBE577:
 1953              		.loc 1 581 3 is_stmt 1 view .LVU732
 1954              		.loc 1 582 1 is_stmt 0 view .LVU733
 1955 0092 3046     		mov	r0, r6
 1956 0094 F8BD     		pop	{r3, r4, r5, r6, r7, pc}
 1957              	.LVL79:
 1958              	.L49:
 1959              		.loc 1 582 1 view .LVU734
 1960 0096 00BF     		.align	2
 1961              	.L48:
 1962 0098 00000000 		.word	__port_thread_start
 1963 009c 00000000 		.word	ch0
 1964 00a0 00000000 		.word	.LC0
 1965              		.cfi_endproc
 1966              	.LFE362:
 1967              		.size	chThdCreateStatic, .-chThdCreateStatic
 1968              		.section	.text.chThdStart,"ax",%progbits
 1969              		.align	1
 1970              		.p2align 4,,15
 1971              		.global	chThdStart
 1972              		.syntax unified
 1973              		.thumb
 1974              		.thumb_func
 1975              		.type	chThdStart, %function
 1976              	chThdStart:
 1977              	.LVL80:
 1978              	.LFB363:
 1979              		.loc 1 592 36 is_stmt 1 view -0
 1980              		.cfi_startproc
 1981              		@ args = 0, pretend = 0, frame = 0
 1982              		@ frame_needed = 0, uses_anonymous_args = 0
 1983              		.loc 1 594 3 view .LVU736
 1984              	.LBB582:
 1985              	.LBI582:
 1986              		.loc 3 372 20 view .LVU737
 1987              		.loc 3 374 3 view .LVU738
 1988              	.LBB583:
 1989              	.LBI583:
 1990              		.loc 4 840 27 view .LVU739
 1991              		.loc 4 848 3 view .LVU740
 1992              	.LBB584:
 1993              	.LBI584:
 1994              		.loc 5 491 27 view .LVU741
ARM GAS  C:\Users\DEVELO~1\AppData\Local\Temp\ccUBlV4P.s 			page 36


 1995              	.LBB585:
 1996              		.loc 5 493 3 view .LVU742
 1997              	.LBE585:
 1998              	.LBE584:
 1999              	.LBE583:
 2000              	.LBE582:
 2001              		.loc 1 592 36 is_stmt 0 view .LVU743
 2002 0000 10B5     		push	{r4, lr}
 2003              		.cfi_def_cfa_offset 8
 2004              		.cfi_offset 4, -8
 2005              		.cfi_offset 14, -4
 2006              	.LBB592:
 2007              	.LBB590:
 2008              	.LBB588:
 2009              	.LBB586:
 2010              		.loc 5 493 3 view .LVU744
 2011 0002 3023     		movs	r3, #48
 2012              	.LBE586:
 2013              	.LBE588:
 2014              	.LBE590:
 2015              	.LBE592:
 2016              		.loc 1 592 36 view .LVU745
 2017 0004 0446     		mov	r4, r0
 2018              	.LBB593:
 2019              	.LBB591:
 2020              	.LBB589:
 2021              	.LBB587:
 2022              		.loc 5 493 3 view .LVU746
 2023              		.syntax unified
 2024              	@ 493 "./ChibiOS/os/common/ext/ARM/CMSIS/Core/Include/cmsis_gcc.h" 1
 2025 0006 83F31188 		MSR basepri, r3
 2026              	@ 0 "" 2
 2027              	.LVL81:
 2028              		.loc 5 493 3 view .LVU747
 2029              		.thumb
 2030              		.syntax unified
 2031              	.LBE587:
 2032              	.LBE589:
 2033              	.LBE591:
 2034              		.loc 3 375 35 is_stmt 1 view .LVU748
 2035              		.loc 3 376 21 view .LVU749
 2036              	.LBE593:
 2037              		.loc 1 595 3 view .LVU750
 2038              		.loc 1 595 3 view .LVU751
 2039              		.loc 1 595 3 view .LVU752
 2040              		.loc 1 596 3 view .LVU753
 2041 000a 0021     		movs	r1, #0
 2042 000c FFF7FEFF 		bl	chSchWakeupS
 2043              	.LVL82:
 2044              		.loc 1 597 3 view .LVU754
 2045              	.LBB594:
 2046              	.LBI594:
 2047              		.loc 3 386 20 view .LVU755
 2048              	.LBB595:
 2049              		.loc 3 388 23 view .LVU756
 2050              		.loc 3 389 34 view .LVU757
 2051              		.loc 3 395 3 view .LVU758
ARM GAS  C:\Users\DEVELO~1\AppData\Local\Temp\ccUBlV4P.s 			page 37


 2052              		.loc 3 395 3 view .LVU759
 2053              		.loc 3 395 3 view .LVU760
 2054              		.loc 3 399 3 view .LVU761
 2055              	.LBB596:
 2056              	.LBI596:
 2057              		.loc 4 864 27 view .LVU762
 2058              		.loc 4 867 3 view .LVU763
 2059              	.LBB597:
 2060              	.LBI597:
 2061              		.loc 5 491 27 view .LVU764
 2062              	.LBB598:
 2063              		.loc 5 493 3 view .LVU765
 2064 0010 0023     		movs	r3, #0
 2065              		.syntax unified
 2066              	@ 493 "./ChibiOS/os/common/ext/ARM/CMSIS/Core/Include/cmsis_gcc.h" 1
 2067 0012 83F31188 		MSR basepri, r3
 2068              	@ 0 "" 2
 2069              	.LVL83:
 2070              		.loc 5 493 3 is_stmt 0 view .LVU766
 2071              		.thumb
 2072              		.syntax unified
 2073              	.LBE598:
 2074              	.LBE597:
 2075              	.LBE596:
 2076              	.LBE595:
 2077              	.LBE594:
 2078              		.loc 1 599 3 is_stmt 1 view .LVU767
 2079              		.loc 1 600 1 is_stmt 0 view .LVU768
 2080 0016 2046     		mov	r0, r4
 2081 0018 10BD     		pop	{r4, pc}
 2082              		.loc 1 600 1 view .LVU769
 2083              		.cfi_endproc
 2084              	.LFE363:
 2085              		.size	chThdStart, .-chThdStart
 2086 001a 00BF     		.section	.text.chThdAddRef,"ax",%progbits
 2087              		.align	1
 2088              		.p2align 4,,15
 2089              		.global	chThdAddRef
 2090              		.syntax unified
 2091              		.thumb
 2092              		.thumb_func
 2093              		.type	chThdAddRef, %function
 2094              	chThdAddRef:
 2095              	.LVL84:
 2096              	.LFB364:
 2097              		.loc 1 614 37 is_stmt 1 view -0
 2098              		.cfi_startproc
 2099              		@ args = 0, pretend = 0, frame = 0
 2100              		@ frame_needed = 0, uses_anonymous_args = 0
 2101              		@ link register save eliminated.
 2102              		.loc 1 616 3 view .LVU771
 2103              	.LBB599:
 2104              	.LBI599:
 2105              		.loc 3 372 20 view .LVU772
 2106              		.loc 3 374 3 view .LVU773
 2107              	.LBB600:
 2108              	.LBI600:
ARM GAS  C:\Users\DEVELO~1\AppData\Local\Temp\ccUBlV4P.s 			page 38


 2109              		.loc 4 840 27 view .LVU774
 2110              		.loc 4 848 3 view .LVU775
 2111              	.LBB601:
 2112              	.LBI601:
 2113              		.loc 5 491 27 view .LVU776
 2114              	.LBB602:
 2115              		.loc 5 493 3 view .LVU777
 2116 0000 3022     		movs	r2, #48
 2117              		.syntax unified
 2118              	@ 493 "./ChibiOS/os/common/ext/ARM/CMSIS/Core/Include/cmsis_gcc.h" 1
 2119 0002 82F31188 		MSR basepri, r2
 2120              	@ 0 "" 2
 2121              	.LVL85:
 2122              		.loc 5 493 3 is_stmt 0 view .LVU778
 2123              		.thumb
 2124              		.syntax unified
 2125              	.LBE602:
 2126              	.LBE601:
 2127              	.LBE600:
 2128              		.loc 3 375 35 is_stmt 1 view .LVU779
 2129              		.loc 3 376 21 view .LVU780
 2130              	.LBE599:
 2131              		.loc 1 617 3 view .LVU781
 2132              		.loc 1 617 3 view .LVU782
 2133              		.loc 1 617 3 view .LVU783
 2134              		.loc 1 618 3 view .LVU784
 2135              		.loc 1 618 11 is_stmt 0 view .LVU785
 2136 0006 827F     		ldrb	r2, [r0, #30]	@ zero_extendqisi2
 2137              	.LBB603:
 2138              	.LBB604:
 2139              	.LBB605:
 2140              	.LBB606:
 2141              	.LBB607:
 2142              		.loc 5 493 3 view .LVU786
 2143 0008 0021     		movs	r1, #0
 2144              	.LBE607:
 2145              	.LBE606:
 2146              	.LBE605:
 2147              	.LBE604:
 2148              	.LBE603:
 2149              		.loc 1 618 11 view .LVU787
 2150 000a 0132     		adds	r2, r2, #1
 2151 000c 8277     		strb	r2, [r0, #30]
 2152              		.loc 1 619 3 is_stmt 1 view .LVU788
 2153              	.LBB612:
 2154              	.LBI603:
 2155              		.loc 3 386 20 view .LVU789
 2156              	.LBB611:
 2157              		.loc 3 388 23 view .LVU790
 2158              		.loc 3 389 34 view .LVU791
 2159              		.loc 3 395 3 view .LVU792
 2160              		.loc 3 395 3 view .LVU793
 2161              		.loc 3 395 3 view .LVU794
 2162              		.loc 3 399 3 view .LVU795
 2163              	.LBB610:
 2164              	.LBI605:
 2165              		.loc 4 864 27 view .LVU796
ARM GAS  C:\Users\DEVELO~1\AppData\Local\Temp\ccUBlV4P.s 			page 39


 2166              		.loc 4 867 3 view .LVU797
 2167              	.LVL86:
 2168              	.LBB609:
 2169              	.LBI606:
 2170              		.loc 5 491 27 view .LVU798
 2171              	.LBB608:
 2172              		.loc 5 493 3 view .LVU799
 2173              		.syntax unified
 2174              	@ 493 "./ChibiOS/os/common/ext/ARM/CMSIS/Core/Include/cmsis_gcc.h" 1
 2175 000e 81F31188 		MSR basepri, r1
 2176              	@ 0 "" 2
 2177              	.LVL87:
 2178              		.loc 5 493 3 is_stmt 0 view .LVU800
 2179              		.thumb
 2180              		.syntax unified
 2181              	.LBE608:
 2182              	.LBE609:
 2183              	.LBE610:
 2184              	.LBE611:
 2185              	.LBE612:
 2186              		.loc 1 621 3 is_stmt 1 view .LVU801
 2187              		.loc 1 622 1 is_stmt 0 view .LVU802
 2188 0012 7047     		bx	lr
 2189              		.cfi_endproc
 2190              	.LFE364:
 2191              		.size	chThdAddRef, .-chThdAddRef
 2192              		.section	.text.chThdRelease,"ax",%progbits
 2193              		.align	1
 2194              		.p2align 4,,15
 2195              		.global	chThdRelease
 2196              		.syntax unified
 2197              		.thumb
 2198              		.thumb_func
 2199              		.type	chThdRelease, %function
 2200              	chThdRelease:
 2201              	.LVL88:
 2202              	.LFB365:
 2203              		.loc 1 642 33 is_stmt 1 view -0
 2204              		.cfi_startproc
 2205              		@ args = 0, pretend = 0, frame = 0
 2206              		@ frame_needed = 0, uses_anonymous_args = 0
 2207              		@ link register save eliminated.
 2208              		.loc 1 644 3 view .LVU804
 2209              	.LBB649:
 2210              	.LBI649:
 2211              		.loc 3 372 20 view .LVU805
 2212              		.loc 3 374 3 view .LVU806
 2213              	.LBB650:
 2214              	.LBI650:
 2215              		.loc 4 840 27 view .LVU807
 2216              		.loc 4 848 3 view .LVU808
 2217              	.LBB651:
 2218              	.LBI651:
 2219              		.loc 5 491 27 view .LVU809
 2220              	.LBB652:
 2221              		.loc 5 493 3 view .LVU810
 2222 0000 3022     		movs	r2, #48
ARM GAS  C:\Users\DEVELO~1\AppData\Local\Temp\ccUBlV4P.s 			page 40


 2223              		.syntax unified
 2224              	@ 493 "./ChibiOS/os/common/ext/ARM/CMSIS/Core/Include/cmsis_gcc.h" 1
 2225 0002 82F31188 		MSR basepri, r2
 2226              	@ 0 "" 2
 2227              	.LVL89:
 2228              		.loc 5 493 3 is_stmt 0 view .LVU811
 2229              		.thumb
 2230              		.syntax unified
 2231              	.LBE652:
 2232              	.LBE651:
 2233              	.LBE650:
 2234              		.loc 3 375 35 is_stmt 1 view .LVU812
 2235              		.loc 3 376 21 view .LVU813
 2236              	.LBE649:
 2237              		.loc 1 645 3 view .LVU814
 2238              		.loc 1 645 3 view .LVU815
 2239              		.loc 1 645 3 view .LVU816
 2240              		.loc 1 646 3 view .LVU817
 2241              		.loc 1 646 11 is_stmt 0 view .LVU818
 2242 0006 827F     		ldrb	r2, [r0, #30]	@ zero_extendqisi2
 2243 0008 013A     		subs	r2, r2, #1
 2244 000a 8277     		strb	r2, [r0, #30]
 2245              		.loc 1 651 3 is_stmt 1 view .LVU819
 2246              		.loc 1 651 32 is_stmt 0 view .LVU820
 2247 000c C269     		ldr	r2, [r0, #28]
 2248 000e 02F0FF12 		and	r2, r2, #16711935
 2249              		.loc 1 651 6 view .LVU821
 2250 0012 0F2A     		cmp	r2, #15
 2251 0014 03D0     		beq	.L59
 2252              		.loc 1 666 3 is_stmt 1 view .LVU822
 2253              	.LBB653:
 2254              	.LBI653:
 2255              		.loc 3 386 20 view .LVU823
 2256              	.LBB654:
 2257              		.loc 3 388 23 view .LVU824
 2258              		.loc 3 389 34 view .LVU825
 2259              		.loc 3 395 3 view .LVU826
 2260              		.loc 3 395 3 view .LVU827
 2261              		.loc 3 395 3 view .LVU828
 2262              		.loc 3 399 3 view .LVU829
 2263              	.LBB655:
 2264              	.LBI655:
 2265              		.loc 4 864 27 view .LVU830
 2266              		.loc 4 867 3 view .LVU831
 2267              	.LVL90:
 2268              	.LBB656:
 2269              	.LBI656:
 2270              		.loc 5 491 27 view .LVU832
 2271              	.LBB657:
 2272              		.loc 5 493 3 view .LVU833
 2273 0016 0023     		movs	r3, #0
 2274              		.syntax unified
 2275              	@ 493 "./ChibiOS/os/common/ext/ARM/CMSIS/Core/Include/cmsis_gcc.h" 1
 2276 0018 83F31188 		MSR basepri, r3
 2277              	@ 0 "" 2
 2278              	.LVL91:
 2279              		.thumb
ARM GAS  C:\Users\DEVELO~1\AppData\Local\Temp\ccUBlV4P.s 			page 41


 2280              		.syntax unified
 2281              	.L53:
 2282              		.loc 5 493 3 is_stmt 0 view .LVU834
 2283              	.LBE657:
 2284              	.LBE656:
 2285              	.LBE655:
 2286              	.LBE654:
 2287              	.LBE653:
 2288              		.loc 1 667 1 view .LVU835
 2289 001c 7047     		bx	lr
 2290              	.L59:
 2291              	.LVL92:
 2292              	.LBB658:
 2293              	.LBI658:
 2294              		.loc 1 642 6 is_stmt 1 view .LVU836
 2295              	.LBB659:
 2296              		.loc 1 654 5 view .LVU837
 2297              	.LBB660:
 2298              	.LBI660:
 2299              		.loc 2 378 27 view .LVU838
 2300              	.LBB661:
 2301              		.loc 2 380 3 view .LVU839
 2302              		.loc 2 380 20 is_stmt 0 view .LVU840
 2303 001e D0E90921 		ldrd	r2, r1, [r0, #36]
 2304              	.LBE661:
 2305              	.LBE660:
 2306              	.LBB663:
 2307              	.LBB664:
 2308              	.LBB665:
 2309              	.LBB666:
 2310              	.LBB667:
 2311              		.loc 5 493 3 view .LVU841
 2312 0022 4FF0000C 		mov	ip, #0
 2313              	.LBE667:
 2314              	.LBE666:
 2315              	.LBE665:
 2316              	.LBE664:
 2317              	.LBE663:
 2318              	.LBB672:
 2319              	.LBB662:
 2320              		.loc 2 380 17 view .LVU842
 2321 0026 0A60     		str	r2, [r1]
 2322              		.loc 2 381 3 is_stmt 1 view .LVU843
 2323              		.loc 2 381 17 is_stmt 0 view .LVU844
 2324 0028 5160     		str	r1, [r2, #4]
 2325              		.loc 2 383 3 is_stmt 1 view .LVU845
 2326              	.LVL93:
 2327              		.loc 2 383 3 is_stmt 0 view .LVU846
 2328              	.LBE662:
 2329              	.LBE672:
 2330              		.loc 1 655 5 is_stmt 1 view .LVU847
 2331              	.LBB673:
 2332              	.LBI663:
 2333              		.loc 3 386 20 view .LVU848
 2334              	.LBB671:
 2335              		.loc 3 388 23 view .LVU849
 2336              		.loc 3 389 34 view .LVU850
ARM GAS  C:\Users\DEVELO~1\AppData\Local\Temp\ccUBlV4P.s 			page 42


 2337              		.loc 3 395 3 view .LVU851
 2338              		.loc 3 395 3 view .LVU852
 2339              		.loc 3 395 3 view .LVU853
 2340              		.loc 3 399 3 view .LVU854
 2341              	.LBB670:
 2342              	.LBI665:
 2343              		.loc 4 864 27 view .LVU855
 2344              		.loc 4 867 3 view .LVU856
 2345              	.LBB669:
 2346              	.LBI666:
 2347              		.loc 5 491 27 view .LVU857
 2348              	.LBB668:
 2349              		.loc 5 493 3 view .LVU858
 2350              		.syntax unified
 2351              	@ 493 "./ChibiOS/os/common/ext/ARM/CMSIS/Core/Include/cmsis_gcc.h" 1
 2352 002a 8CF31188 		MSR basepri, ip
 2353              	@ 0 "" 2
 2354              	.LVL94:
 2355              		.loc 5 493 3 is_stmt 0 view .LVU859
 2356              		.thumb
 2357              		.syntax unified
 2358              	.LBE668:
 2359              	.LBE669:
 2360              	.LBE670:
 2361              	.LBE671:
 2362              	.LBE673:
 2363              		.loc 1 659 5 is_stmt 1 view .LVU860
 2364              		.loc 1 659 11 is_stmt 0 view .LVU861
 2365 002e C36A     		ldr	r3, [r0, #44]
 2366              		.loc 1 659 8 view .LVU862
 2367 0030 002B     		cmp	r3, #0
 2368 0032 F3D0     		beq	.L53
 2369              		.loc 1 660 7 is_stmt 1 view .LVU863
 2370 0034 1847     		bx	r3	@ indirect register sibling call
 2371              	.LVL95:
 2372              		.loc 1 660 7 is_stmt 0 view .LVU864
 2373              	.LBE659:
 2374              	.LBE658:
 2375              		.cfi_endproc
 2376              	.LFE365:
 2377              		.size	chThdRelease, .-chThdRelease
 2378 0036 00BF     		.section	.text.chThdExit,"ax",%progbits
 2379              		.align	1
 2380              		.p2align 4,,15
 2381              		.global	chThdExit
 2382              		.syntax unified
 2383              		.thumb
 2384              		.thumb_func
 2385              		.type	chThdExit, %function
 2386              	chThdExit:
 2387              	.LVL96:
 2388              	.LFB366:
 2389              		.loc 1 684 27 is_stmt 1 view -0
 2390              		.cfi_startproc
 2391              		@ args = 0, pretend = 0, frame = 0
 2392              		@ frame_needed = 0, uses_anonymous_args = 0
 2393              		.loc 1 686 3 view .LVU866
ARM GAS  C:\Users\DEVELO~1\AppData\Local\Temp\ccUBlV4P.s 			page 43


 2394              	.LBB688:
 2395              	.LBI688:
 2396              		.loc 3 372 20 view .LVU867
 2397              		.loc 3 374 3 view .LVU868
 2398              	.LBB689:
 2399              	.LBI689:
 2400              		.loc 4 840 27 view .LVU869
 2401              		.loc 4 848 3 view .LVU870
 2402              	.LBB690:
 2403              	.LBI690:
 2404              		.loc 5 491 27 view .LVU871
 2405              	.LBB691:
 2406              		.loc 5 493 3 view .LVU872
 2407              	.LBE691:
 2408              	.LBE690:
 2409              	.LBE689:
 2410              	.LBE688:
 2411              		.loc 1 684 27 is_stmt 0 view .LVU873
 2412 0000 38B5     		push	{r3, r4, r5, lr}
 2413              		.cfi_def_cfa_offset 16
 2414              		.cfi_offset 3, -16
 2415              		.cfi_offset 4, -12
 2416              		.cfi_offset 5, -8
 2417              		.cfi_offset 14, -4
 2418              	.LBB695:
 2419              	.LBB694:
 2420              	.LBB693:
 2421              	.LBB692:
 2422              		.loc 5 493 3 view .LVU874
 2423 0002 3023     		movs	r3, #48
 2424              		.syntax unified
 2425              	@ 493 "./ChibiOS/os/common/ext/ARM/CMSIS/Core/Include/cmsis_gcc.h" 1
 2426 0004 83F31188 		MSR basepri, r3
 2427              	@ 0 "" 2
 2428              	.LVL97:
 2429              		.loc 5 493 3 view .LVU875
 2430              		.thumb
 2431              		.syntax unified
 2432              	.LBE692:
 2433              	.LBE693:
 2434              	.LBE694:
 2435              		.loc 3 375 35 is_stmt 1 view .LVU876
 2436              		.loc 3 376 21 view .LVU877
 2437              	.LBE695:
 2438              		.loc 1 687 3 view .LVU878
 2439              	.LBB696:
 2440              	.LBI696:
 2441              		.loc 1 708 6 view .LVU879
 2442              	.LBB697:
 2443              		.loc 1 709 3 view .LVU880
 2444              	.LBB698:
 2445              	.LBI698:
 2446              		.file 6 "./ChibiOS/os/rt/include/chthreads.h"
 2447              		.loc 6 527 25 view .LVU881
 2448              	.LBB699:
 2449              		.loc 6 529 3 view .LVU882
 2450              		.loc 6 529 10 is_stmt 0 view .LVU883
ARM GAS  C:\Users\DEVELO~1\AppData\Local\Temp\ccUBlV4P.s 			page 44


 2451 0008 104B     		ldr	r3, .L67
 2452 000a DC68     		ldr	r4, [r3, #12]
 2453              	.LVL98:
 2454              		.loc 6 529 10 view .LVU884
 2455              	.LBE699:
 2456              	.LBE698:
 2457              		.loc 1 712 3 is_stmt 1 view .LVU885
 2458              		.loc 1 719 10 is_stmt 0 view .LVU886
 2459 000c 04F13805 		add	r5, r4, #56
 2460              	.LBB700:
 2461              	.LBB701:
 2462              		.loc 2 241 19 view .LVU887
 2463 0010 A36B     		ldr	r3, [r4, #56]
 2464              	.LBE701:
 2465              	.LBE700:
 2466              		.loc 1 712 22 view .LVU888
 2467 0012 6063     		str	r0, [r4, #52]
 2468              		.loc 1 715 3 is_stmt 1 view .LVU889
 2469              		.loc 1 715 34 view .LVU890
 2470              		.loc 1 719 3 view .LVU891
 2471              		.loc 1 719 10 view .LVU892
 2472              	.LVL99:
 2473              	.LBB704:
 2474              	.LBI700:
 2475              		.loc 2 239 20 view .LVU893
 2476              	.LBB702:
 2477              		.loc 2 241 3 view .LVU894
 2478              		.loc 2 241 3 is_stmt 0 view .LVU895
 2479              	.LBE702:
 2480              	.LBE704:
 2481              		.loc 1 719 10 view .LVU896
 2482 0014 9D42     		cmp	r5, r3
 2483 0016 06D1     		bne	.L62
 2484              		.loc 1 725 3 is_stmt 1 view .LVU897
 2485              		.loc 1 725 6 is_stmt 0 view .LVU898
 2486 0018 A37F     		ldrb	r3, [r4, #30]	@ zero_extendqisi2
 2487 001a 7BB1     		cbz	r3, .L66
 2488              	.LVL100:
 2489              	.L63:
 2490              		.loc 1 739 3 is_stmt 1 view .LVU899
 2491 001c 0F20     		movs	r0, #15
 2492              	.LBE697:
 2493              	.LBE696:
 2494              		.loc 1 689 1 is_stmt 0 view .LVU900
 2495 001e BDE83840 		pop	{r3, r4, r5, lr}
 2496              		.cfi_remember_state
 2497              		.cfi_restore 14
 2498              		.cfi_restore 5
 2499              		.cfi_restore 4
 2500              		.cfi_restore 3
 2501              		.cfi_def_cfa_offset 0
 2502              	.LVL101:
 2503              	.LBB713:
 2504              	.LBB712:
 2505              		.loc 1 739 3 view .LVU901
 2506 0022 FFF7FEBF 		b	chSchGoSleepS
 2507              	.LVL102:
ARM GAS  C:\Users\DEVELO~1\AppData\Local\Temp\ccUBlV4P.s 			page 45


 2508              	.L62:
 2509              		.cfi_restore_state
 2510              		.loc 1 720 5 is_stmt 1 view .LVU902
 2511              	.LBB705:
 2512              	.LBI705:
 2513              		.loc 2 267 26 view .LVU903
 2514              	.LBB706:
 2515              		.loc 2 269 3 view .LVU904
 2516              		.loc 2 270 3 view .LVU905
 2517              		.loc 2 270 15 is_stmt 0 view .LVU906
 2518 0026 1A68     		ldr	r2, [r3]
 2519              	.LBE706:
 2520              	.LBE705:
 2521              		.loc 1 720 12 view .LVU907
 2522 0028 1846     		mov	r0, r3
 2523              	.LBB708:
 2524              	.LBB707:
 2525              		.loc 2 270 12 view .LVU908
 2526 002a A263     		str	r2, [r4, #56]
 2527              		.loc 2 272 3 is_stmt 1 view .LVU909
 2528              	.LVL103:
 2529              		.loc 2 272 3 is_stmt 0 view .LVU910
 2530              	.LBE707:
 2531              	.LBE708:
 2532              		.loc 1 720 12 view .LVU911
 2533 002c FFF7FEFF 		bl	chSchReadyI
 2534              	.LVL104:
 2535              		.loc 1 719 10 is_stmt 1 view .LVU912
 2536              	.LBB709:
 2537              		.loc 2 239 20 view .LVU913
 2538              	.LBB703:
 2539              		.loc 2 241 3 view .LVU914
 2540              		.loc 2 241 19 is_stmt 0 view .LVU915
 2541 0030 A36B     		ldr	r3, [r4, #56]
 2542              	.LVL105:
 2543              		.loc 2 241 19 view .LVU916
 2544              	.LBE703:
 2545              	.LBE709:
 2546              		.loc 1 719 10 view .LVU917
 2547 0032 AB42     		cmp	r3, r5
 2548 0034 F7D1     		bne	.L62
 2549              		.loc 1 725 3 is_stmt 1 view .LVU918
 2550              		.loc 1 725 6 is_stmt 0 view .LVU919
 2551 0036 A37F     		ldrb	r3, [r4, #30]	@ zero_extendqisi2
 2552 0038 002B     		cmp	r3, #0
 2553 003a EFD1     		bne	.L63
 2554              	.L66:
 2555              		.loc 1 729 5 is_stmt 1 view .LVU920
 2556              		.loc 1 729 8 is_stmt 0 view .LVU921
 2557 003c E36A     		ldr	r3, [r4, #44]
 2558 003e 002B     		cmp	r3, #0
 2559 0040 ECD1     		bne	.L63
 2560              		.loc 1 730 7 is_stmt 1 view .LVU922
 2561              	.LVL106:
 2562              	.LBB710:
 2563              	.LBI710:
 2564              		.loc 2 378 27 view .LVU923
ARM GAS  C:\Users\DEVELO~1\AppData\Local\Temp\ccUBlV4P.s 			page 46


 2565              	.LBB711:
 2566              		.loc 2 380 3 view .LVU924
 2567              		.loc 2 380 20 is_stmt 0 view .LVU925
 2568 0042 D4E90932 		ldrd	r3, r2, [r4, #36]
 2569              		.loc 2 380 17 view .LVU926
 2570 0046 1360     		str	r3, [r2]
 2571              		.loc 2 381 3 is_stmt 1 view .LVU927
 2572              		.loc 2 381 17 is_stmt 0 view .LVU928
 2573 0048 5A60     		str	r2, [r3, #4]
 2574              		.loc 2 383 3 is_stmt 1 view .LVU929
 2575              		.loc 2 383 10 is_stmt 0 view .LVU930
 2576 004a E7E7     		b	.L63
 2577              	.L68:
 2578              		.align	2
 2579              	.L67:
 2580 004c 00000000 		.word	ch0
 2581              	.LBE711:
 2582              	.LBE710:
 2583              	.LBE712:
 2584              	.LBE713:
 2585              		.cfi_endproc
 2586              	.LFE366:
 2587              		.size	chThdExit, .-chThdExit
 2588              		.section	.text.chThdExitS,"ax",%progbits
 2589              		.align	1
 2590              		.p2align 4,,15
 2591              		.global	chThdExitS
 2592              		.syntax unified
 2593              		.thumb
 2594              		.thumb_func
 2595              		.type	chThdExitS, %function
 2596              	chThdExitS:
 2597              	.LVL107:
 2598              	.LFB367:
 2599              		.loc 1 708 28 is_stmt 1 view -0
 2600              		.cfi_startproc
 2601              		@ args = 0, pretend = 0, frame = 0
 2602              		@ frame_needed = 0, uses_anonymous_args = 0
 2603              		.loc 1 709 3 view .LVU932
 2604              	.LBB714:
 2605              	.LBI714:
 2606              		.loc 6 527 25 view .LVU933
 2607              	.LBB715:
 2608              		.loc 6 529 3 view .LVU934
 2609              	.LBE715:
 2610              	.LBE714:
 2611              		.loc 1 708 28 is_stmt 0 view .LVU935
 2612 0000 38B5     		push	{r3, r4, r5, lr}
 2613              		.cfi_def_cfa_offset 16
 2614              		.cfi_offset 3, -16
 2615              		.cfi_offset 4, -12
 2616              		.cfi_offset 5, -8
 2617              		.cfi_offset 14, -4
 2618              	.LBB717:
 2619              	.LBB716:
 2620              		.loc 6 529 10 view .LVU936
 2621 0002 114B     		ldr	r3, .L76
ARM GAS  C:\Users\DEVELO~1\AppData\Local\Temp\ccUBlV4P.s 			page 47


 2622 0004 DC68     		ldr	r4, [r3, #12]
 2623              	.LVL108:
 2624              		.loc 6 529 10 view .LVU937
 2625              	.LBE716:
 2626              	.LBE717:
 2627              		.loc 1 712 3 is_stmt 1 view .LVU938
 2628              		.loc 1 719 10 is_stmt 0 view .LVU939
 2629 0006 04F13805 		add	r5, r4, #56
 2630              	.LBB718:
 2631              	.LBB719:
 2632              		.loc 2 241 19 view .LVU940
 2633 000a A36B     		ldr	r3, [r4, #56]
 2634              	.LBE719:
 2635              	.LBE718:
 2636              		.loc 1 712 22 view .LVU941
 2637 000c 6063     		str	r0, [r4, #52]
 2638              		.loc 1 715 3 is_stmt 1 view .LVU942
 2639              		.loc 1 715 34 view .LVU943
 2640              		.loc 1 719 3 view .LVU944
 2641              		.loc 1 719 10 view .LVU945
 2642              	.LVL109:
 2643              	.LBB722:
 2644              	.LBI718:
 2645              		.loc 2 239 20 view .LVU946
 2646              	.LBB720:
 2647              		.loc 2 241 3 view .LVU947
 2648              		.loc 2 241 3 is_stmt 0 view .LVU948
 2649              	.LBE720:
 2650              	.LBE722:
 2651              		.loc 1 719 10 view .LVU949
 2652 000e 9D42     		cmp	r5, r3
 2653 0010 06D1     		bne	.L71
 2654              		.loc 1 725 3 is_stmt 1 view .LVU950
 2655              		.loc 1 725 6 is_stmt 0 view .LVU951
 2656 0012 A37F     		ldrb	r3, [r4, #30]	@ zero_extendqisi2
 2657 0014 7BB1     		cbz	r3, .L75
 2658              	.LVL110:
 2659              	.L72:
 2660              		.loc 1 739 3 is_stmt 1 view .LVU952
 2661 0016 0F20     		movs	r0, #15
 2662              		.loc 1 743 1 is_stmt 0 view .LVU953
 2663 0018 BDE83840 		pop	{r3, r4, r5, lr}
 2664              		.cfi_remember_state
 2665              		.cfi_restore 14
 2666              		.cfi_restore 5
 2667              		.cfi_restore 4
 2668              		.cfi_restore 3
 2669              		.cfi_def_cfa_offset 0
 2670              	.LVL111:
 2671              		.loc 1 739 3 view .LVU954
 2672 001c FFF7FEBF 		b	chSchGoSleepS
 2673              	.LVL112:
 2674              	.L71:
 2675              		.cfi_restore_state
 2676              		.loc 1 720 5 is_stmt 1 view .LVU955
 2677              	.LBB723:
 2678              	.LBI723:
ARM GAS  C:\Users\DEVELO~1\AppData\Local\Temp\ccUBlV4P.s 			page 48


 2679              		.loc 2 267 26 view .LVU956
 2680              	.LBB724:
 2681              		.loc 2 269 3 view .LVU957
 2682              		.loc 2 270 3 view .LVU958
 2683              		.loc 2 270 15 is_stmt 0 view .LVU959
 2684 0020 1A68     		ldr	r2, [r3]
 2685              	.LBE724:
 2686              	.LBE723:
 2687              		.loc 1 720 12 view .LVU960
 2688 0022 1846     		mov	r0, r3
 2689              	.LBB726:
 2690              	.LBB725:
 2691              		.loc 2 270 12 view .LVU961
 2692 0024 A263     		str	r2, [r4, #56]
 2693              		.loc 2 272 3 is_stmt 1 view .LVU962
 2694              	.LVL113:
 2695              		.loc 2 272 3 is_stmt 0 view .LVU963
 2696              	.LBE725:
 2697              	.LBE726:
 2698              		.loc 1 720 12 view .LVU964
 2699 0026 FFF7FEFF 		bl	chSchReadyI
 2700              	.LVL114:
 2701              		.loc 1 719 10 is_stmt 1 view .LVU965
 2702              	.LBB727:
 2703              		.loc 2 239 20 view .LVU966
 2704              	.LBB721:
 2705              		.loc 2 241 3 view .LVU967
 2706              		.loc 2 241 19 is_stmt 0 view .LVU968
 2707 002a A36B     		ldr	r3, [r4, #56]
 2708              	.LVL115:
 2709              		.loc 2 241 19 view .LVU969
 2710              	.LBE721:
 2711              	.LBE727:
 2712              		.loc 1 719 10 view .LVU970
 2713 002c 9D42     		cmp	r5, r3
 2714 002e F7D1     		bne	.L71
 2715              		.loc 1 725 3 is_stmt 1 view .LVU971
 2716              		.loc 1 725 6 is_stmt 0 view .LVU972
 2717 0030 A37F     		ldrb	r3, [r4, #30]	@ zero_extendqisi2
 2718 0032 002B     		cmp	r3, #0
 2719 0034 EFD1     		bne	.L72
 2720              	.L75:
 2721              		.loc 1 729 5 is_stmt 1 view .LVU973
 2722              		.loc 1 729 8 is_stmt 0 view .LVU974
 2723 0036 E36A     		ldr	r3, [r4, #44]
 2724 0038 002B     		cmp	r3, #0
 2725 003a ECD1     		bne	.L72
 2726              		.loc 1 730 7 is_stmt 1 view .LVU975
 2727              	.LVL116:
 2728              	.LBB728:
 2729              	.LBI728:
 2730              		.loc 2 378 27 view .LVU976
 2731              	.LBB729:
 2732              		.loc 2 380 3 view .LVU977
 2733              		.loc 2 380 20 is_stmt 0 view .LVU978
 2734 003c D4E90932 		ldrd	r3, r2, [r4, #36]
 2735              		.loc 2 380 17 view .LVU979
ARM GAS  C:\Users\DEVELO~1\AppData\Local\Temp\ccUBlV4P.s 			page 49


 2736 0040 1360     		str	r3, [r2]
 2737              		.loc 2 381 3 is_stmt 1 view .LVU980
 2738              		.loc 2 381 17 is_stmt 0 view .LVU981
 2739 0042 5A60     		str	r2, [r3, #4]
 2740              		.loc 2 383 3 is_stmt 1 view .LVU982
 2741              		.loc 2 383 10 is_stmt 0 view .LVU983
 2742 0044 E7E7     		b	.L72
 2743              	.L77:
 2744 0046 00BF     		.align	2
 2745              	.L76:
 2746 0048 00000000 		.word	ch0
 2747              	.LBE729:
 2748              	.LBE728:
 2749              		.cfi_endproc
 2750              	.LFE367:
 2751              		.size	chThdExitS, .-chThdExitS
 2752              		.section	.text.chThdWait,"ax",%progbits
 2753              		.align	1
 2754              		.p2align 4,,15
 2755              		.global	chThdWait
 2756              		.syntax unified
 2757              		.thumb
 2758              		.thumb_func
 2759              		.type	chThdWait, %function
 2760              	chThdWait:
 2761              	.LVL117:
 2762              	.LFB368:
 2763              		.loc 1 765 31 is_stmt 1 view -0
 2764              		.cfi_startproc
 2765              		@ args = 0, pretend = 0, frame = 0
 2766              		@ frame_needed = 0, uses_anonymous_args = 0
 2767              		.loc 1 766 3 view .LVU985
 2768              	.LBB772:
 2769              	.LBI772:
 2770              		.loc 6 527 25 view .LVU986
 2771              	.LBB773:
 2772              		.loc 6 529 3 view .LVU987
 2773              	.LBE773:
 2774              	.LBE772:
 2775              		.loc 1 765 31 is_stmt 0 view .LVU988
 2776 0000 38B5     		push	{r3, r4, r5, lr}
 2777              		.cfi_def_cfa_offset 16
 2778              		.cfi_offset 3, -16
 2779              		.cfi_offset 4, -12
 2780              		.cfi_offset 5, -8
 2781              		.cfi_offset 14, -4
 2782              	.LBB776:
 2783              	.LBB774:
 2784              		.loc 6 529 10 view .LVU989
 2785 0002 174B     		ldr	r3, .L90
 2786              	.LBE774:
 2787              	.LBE776:
 2788              	.LBB777:
 2789              	.LBB778:
 2790              	.LBB779:
 2791              	.LBB780:
 2792              		.loc 5 493 3 view .LVU990
ARM GAS  C:\Users\DEVELO~1\AppData\Local\Temp\ccUBlV4P.s 			page 50


 2793 0004 3022     		movs	r2, #48
 2794              	.LBE780:
 2795              	.LBE779:
 2796              	.LBE778:
 2797              	.LBE777:
 2798              		.loc 1 765 31 view .LVU991
 2799 0006 0446     		mov	r4, r0
 2800              	.LBB784:
 2801              	.LBB775:
 2802              		.loc 6 529 10 view .LVU992
 2803 0008 DB68     		ldr	r3, [r3, #12]
 2804              	.LVL118:
 2805              		.loc 6 529 10 view .LVU993
 2806              	.LBE775:
 2807              	.LBE784:
 2808              		.loc 1 767 3 is_stmt 1 view .LVU994
 2809              		.loc 1 769 3 view .LVU995
 2810              		.loc 1 769 3 view .LVU996
 2811              		.loc 1 769 3 view .LVU997
 2812              		.loc 1 771 3 view .LVU998
 2813              	.LBB785:
 2814              	.LBI777:
 2815              		.loc 3 372 20 view .LVU999
 2816              		.loc 3 374 3 view .LVU1000
 2817              	.LBB783:
 2818              	.LBI778:
 2819              		.loc 4 840 27 view .LVU1001
 2820              		.loc 4 848 3 view .LVU1002
 2821              	.LBB782:
 2822              	.LBI779:
 2823              		.loc 5 491 27 view .LVU1003
 2824              	.LBB781:
 2825              		.loc 5 493 3 view .LVU1004
 2826              		.syntax unified
 2827              	@ 493 "./ChibiOS/os/common/ext/ARM/CMSIS/Core/Include/cmsis_gcc.h" 1
 2828 000a 82F31188 		MSR basepri, r2
 2829              	@ 0 "" 2
 2830              	.LVL119:
 2831              		.loc 5 493 3 is_stmt 0 view .LVU1005
 2832              		.thumb
 2833              		.syntax unified
 2834              	.LBE781:
 2835              	.LBE782:
 2836              	.LBE783:
 2837              		.loc 3 375 35 is_stmt 1 view .LVU1006
 2838              		.loc 3 376 21 view .LVU1007
 2839              	.LBE785:
 2840              		.loc 1 772 3 view .LVU1008
 2841              		.loc 1 772 3 view .LVU1009
 2842              		.loc 1 772 3 view .LVU1010
 2843              		.loc 1 774 3 view .LVU1011
 2844              		.loc 1 774 3 view .LVU1012
 2845              		.loc 1 774 3 view .LVU1013
 2846              		.loc 1 777 3 view .LVU1014
 2847              		.loc 1 777 6 is_stmt 0 view .LVU1015
 2848 000e 027F     		ldrb	r2, [r0, #28]	@ zero_extendqisi2
 2849 0010 0F2A     		cmp	r2, #15
ARM GAS  C:\Users\DEVELO~1\AppData\Local\Temp\ccUBlV4P.s 			page 51


 2850 0012 05D0     		beq	.L79
 2851              		.loc 1 778 5 is_stmt 1 view .LVU1016
 2852              	.LVL120:
 2853              	.LBB786:
 2854              	.LBI786:
 2855              		.loc 2 252 20 view .LVU1017
 2856              	.LBB787:
 2857              		.loc 2 254 3 view .LVU1018
 2858              		.loc 2 254 15 is_stmt 0 view .LVU1019
 2859 0014 826B     		ldr	r2, [r0, #56]
 2860              	.LBE787:
 2861              	.LBE786:
 2862              		.loc 1 779 5 view .LVU1020
 2863 0016 0920     		movs	r0, #9
 2864              	.LVL121:
 2865              	.LBB789:
 2866              	.LBB788:
 2867              		.loc 2 254 11 view .LVU1021
 2868 0018 1A60     		str	r2, [r3]
 2869              		.loc 2 255 3 is_stmt 1 view .LVU1022
 2870              		.loc 2 255 12 is_stmt 0 view .LVU1023
 2871 001a A363     		str	r3, [r4, #56]
 2872              	.LVL122:
 2873              		.loc 2 255 12 view .LVU1024
 2874              	.LBE788:
 2875              	.LBE789:
 2876              		.loc 1 779 5 is_stmt 1 view .LVU1025
 2877 001c FFF7FEFF 		bl	chSchGoSleepS
 2878              	.LVL123:
 2879              	.L79:
 2880              		.loc 1 781 3 view .LVU1026
 2881              		.loc 1 781 7 is_stmt 0 view .LVU1027
 2882 0020 656B     		ldr	r5, [r4, #52]
 2883              	.LVL124:
 2884              		.loc 1 782 3 is_stmt 1 view .LVU1028
 2885              	.LBB790:
 2886              	.LBI790:
 2887              		.loc 3 386 20 view .LVU1029
 2888              	.LBB791:
 2889              		.loc 3 388 23 view .LVU1030
 2890              		.loc 3 389 34 view .LVU1031
 2891              		.loc 3 395 3 view .LVU1032
 2892              		.loc 3 395 3 view .LVU1033
 2893              		.loc 3 395 3 view .LVU1034
 2894              		.loc 3 399 3 view .LVU1035
 2895              	.LBB792:
 2896              	.LBI792:
 2897              		.loc 4 864 27 view .LVU1036
 2898              		.loc 4 867 3 view .LVU1037
 2899              	.LBB793:
 2900              	.LBI793:
 2901              		.loc 5 491 27 view .LVU1038
 2902              	.LBB794:
 2903              		.loc 5 493 3 view .LVU1039
 2904 0022 0022     		movs	r2, #0
 2905              		.syntax unified
 2906              	@ 493 "./ChibiOS/os/common/ext/ARM/CMSIS/Core/Include/cmsis_gcc.h" 1
ARM GAS  C:\Users\DEVELO~1\AppData\Local\Temp\ccUBlV4P.s 			page 52


 2907 0024 82F31188 		MSR basepri, r2
 2908              	@ 0 "" 2
 2909              	.LVL125:
 2910              		.loc 5 493 3 is_stmt 0 view .LVU1040
 2911              		.thumb
 2912              		.syntax unified
 2913              	.LBE794:
 2914              	.LBE793:
 2915              	.LBE792:
 2916              	.LBE791:
 2917              	.LBE790:
 2918              		.loc 1 786 3 is_stmt 1 view .LVU1041
 2919              	.LBB795:
 2920              	.LBI795:
 2921              		.loc 1 642 6 view .LVU1042
 2922              	.LBB796:
 2923              		.loc 1 644 3 view .LVU1043
 2924              	.LBB797:
 2925              	.LBI797:
 2926              		.loc 3 372 20 view .LVU1044
 2927              		.loc 3 374 3 view .LVU1045
 2928              	.LBB798:
 2929              	.LBI798:
 2930              		.loc 4 840 27 view .LVU1046
 2931              		.loc 4 848 3 view .LVU1047
 2932              	.LBB799:
 2933              	.LBI799:
 2934              		.loc 5 491 27 view .LVU1048
 2935              	.LBB800:
 2936              		.loc 5 493 3 view .LVU1049
 2937 0028 3023     		movs	r3, #48
 2938              		.syntax unified
 2939              	@ 493 "./ChibiOS/os/common/ext/ARM/CMSIS/Core/Include/cmsis_gcc.h" 1
 2940 002a 83F31188 		MSR basepri, r3
 2941              	@ 0 "" 2
 2942              	.LVL126:
 2943              		.loc 5 493 3 is_stmt 0 view .LVU1050
 2944              		.thumb
 2945              		.syntax unified
 2946              	.LBE800:
 2947              	.LBE799:
 2948              	.LBE798:
 2949              		.loc 3 375 35 is_stmt 1 view .LVU1051
 2950              		.loc 3 376 21 view .LVU1052
 2951              	.LBE797:
 2952              		.loc 1 645 3 view .LVU1053
 2953              		.loc 1 645 3 view .LVU1054
 2954              		.loc 1 645 3 view .LVU1055
 2955              		.loc 1 646 3 view .LVU1056
 2956              		.loc 1 646 11 is_stmt 0 view .LVU1057
 2957 002e A37F     		ldrb	r3, [r4, #30]	@ zero_extendqisi2
 2958 0030 013B     		subs	r3, r3, #1
 2959 0032 A377     		strb	r3, [r4, #30]
 2960              		.loc 1 651 3 is_stmt 1 view .LVU1058
 2961              		.loc 1 651 32 is_stmt 0 view .LVU1059
 2962 0034 E369     		ldr	r3, [r4, #28]
 2963 0036 03F0FF13 		and	r3, r3, #16711935
ARM GAS  C:\Users\DEVELO~1\AppData\Local\Temp\ccUBlV4P.s 			page 53


 2964              		.loc 1 651 6 view .LVU1060
 2965 003a 0F2B     		cmp	r3, #15
 2966 003c 03D0     		beq	.L89
 2967              		.loc 1 666 3 is_stmt 1 view .LVU1061
 2968              	.LBB801:
 2969              	.LBI801:
 2970              		.loc 3 386 20 view .LVU1062
 2971              	.LBB802:
 2972              		.loc 3 388 23 view .LVU1063
 2973              		.loc 3 389 34 view .LVU1064
 2974              		.loc 3 395 3 view .LVU1065
 2975              		.loc 3 395 3 view .LVU1066
 2976              		.loc 3 395 3 view .LVU1067
 2977              		.loc 3 399 3 view .LVU1068
 2978              	.LBB803:
 2979              	.LBI803:
 2980              		.loc 4 864 27 view .LVU1069
 2981              		.loc 4 867 3 view .LVU1070
 2982              	.LVL127:
 2983              	.LBB804:
 2984              	.LBI804:
 2985              		.loc 5 491 27 view .LVU1071
 2986              	.LBB805:
 2987              		.loc 5 493 3 view .LVU1072
 2988              		.syntax unified
 2989              	@ 493 "./ChibiOS/os/common/ext/ARM/CMSIS/Core/Include/cmsis_gcc.h" 1
 2990 003e 82F31188 		MSR basepri, r2
 2991              	@ 0 "" 2
 2992              	.LVL128:
 2993              		.loc 5 493 3 is_stmt 0 view .LVU1073
 2994              		.thumb
 2995              		.syntax unified
 2996              	.LBE805:
 2997              	.LBE804:
 2998              	.LBE803:
 2999              	.LBE802:
 3000              	.LBE801:
 3001              	.LBE796:
 3002              	.LBE795:
 3003              		.loc 1 789 3 is_stmt 1 view .LVU1074
 3004              	.L78:
 3005              		.loc 1 790 1 is_stmt 0 view .LVU1075
 3006 0042 2846     		mov	r0, r5
 3007 0044 38BD     		pop	{r3, r4, r5, pc}
 3008              	.LVL129:
 3009              	.L89:
 3010              	.LBB816:
 3011              	.LBB815:
 3012              	.LBB806:
 3013              	.LBI806:
 3014              		.loc 1 642 6 is_stmt 1 view .LVU1076
 3015              	.LBB807:
 3016              		.loc 1 654 5 view .LVU1077
 3017              	.LBB808:
 3018              	.LBI808:
 3019              		.loc 2 378 27 view .LVU1078
 3020              	.LBB809:
ARM GAS  C:\Users\DEVELO~1\AppData\Local\Temp\ccUBlV4P.s 			page 54


 3021              		.loc 2 380 3 view .LVU1079
 3022              		.loc 2 380 20 is_stmt 0 view .LVU1080
 3023 0046 D4E90931 		ldrd	r3, r1, [r4, #36]
 3024              		.loc 2 380 17 view .LVU1081
 3025 004a 0B60     		str	r3, [r1]
 3026              		.loc 2 381 3 is_stmt 1 view .LVU1082
 3027              		.loc 2 381 17 is_stmt 0 view .LVU1083
 3028 004c 5960     		str	r1, [r3, #4]
 3029              		.loc 2 383 3 is_stmt 1 view .LVU1084
 3030              	.LVL130:
 3031              		.loc 2 383 3 is_stmt 0 view .LVU1085
 3032              	.LBE809:
 3033              	.LBE808:
 3034              		.loc 1 655 5 is_stmt 1 view .LVU1086
 3035              	.LBB810:
 3036              	.LBI810:
 3037              		.loc 3 386 20 view .LVU1087
 3038              	.LBB811:
 3039              		.loc 3 388 23 view .LVU1088
 3040              		.loc 3 389 34 view .LVU1089
 3041              		.loc 3 395 3 view .LVU1090
 3042              		.loc 3 395 3 view .LVU1091
 3043              		.loc 3 395 3 view .LVU1092
 3044              		.loc 3 399 3 view .LVU1093
 3045              	.LBB812:
 3046              	.LBI812:
 3047              		.loc 4 864 27 view .LVU1094
 3048              		.loc 4 867 3 view .LVU1095
 3049              	.LBB813:
 3050              	.LBI813:
 3051              		.loc 5 491 27 view .LVU1096
 3052              	.LBB814:
 3053              		.loc 5 493 3 view .LVU1097
 3054              		.syntax unified
 3055              	@ 493 "./ChibiOS/os/common/ext/ARM/CMSIS/Core/Include/cmsis_gcc.h" 1
 3056 004e 82F31188 		MSR basepri, r2
 3057              	@ 0 "" 2
 3058              	.LVL131:
 3059              		.loc 5 493 3 is_stmt 0 view .LVU1098
 3060              		.thumb
 3061              		.syntax unified
 3062              	.LBE814:
 3063              	.LBE813:
 3064              	.LBE812:
 3065              	.LBE811:
 3066              	.LBE810:
 3067              		.loc 1 659 5 is_stmt 1 view .LVU1099
 3068              		.loc 1 659 11 is_stmt 0 view .LVU1100
 3069 0052 E36A     		ldr	r3, [r4, #44]
 3070              		.loc 1 659 8 view .LVU1101
 3071 0054 002B     		cmp	r3, #0
 3072 0056 F4D0     		beq	.L78
 3073              		.loc 1 660 7 is_stmt 1 view .LVU1102
 3074 0058 2046     		mov	r0, r4
 3075 005a 9847     		blx	r3
 3076              	.LVL132:
 3077              	.LBE807:
ARM GAS  C:\Users\DEVELO~1\AppData\Local\Temp\ccUBlV4P.s 			page 55


 3078              	.LBE806:
 3079              	.LBE815:
 3080              	.LBE816:
 3081              		.loc 1 790 1 is_stmt 0 view .LVU1103
 3082 005c 2846     		mov	r0, r5
 3083 005e 38BD     		pop	{r3, r4, r5, pc}
 3084              	.LVL133:
 3085              	.L91:
 3086              		.loc 1 790 1 view .LVU1104
 3087              		.align	2
 3088              	.L90:
 3089 0060 00000000 		.word	ch0
 3090              		.cfi_endproc
 3091              	.LFE368:
 3092              		.size	chThdWait, .-chThdWait
 3093              		.section	.text.chThdSetPriority,"ax",%progbits
 3094              		.align	1
 3095              		.p2align 4,,15
 3096              		.global	chThdSetPriority
 3097              		.syntax unified
 3098              		.thumb
 3099              		.thumb_func
 3100              		.type	chThdSetPriority, %function
 3101              	chThdSetPriority:
 3102              	.LVL134:
 3103              	.LFB369:
 3104              		.loc 1 805 43 is_stmt 1 view -0
 3105              		.cfi_startproc
 3106              		@ args = 0, pretend = 0, frame = 0
 3107              		@ frame_needed = 0, uses_anonymous_args = 0
 3108              		.loc 1 806 3 view .LVU1106
 3109              	.LBB817:
 3110              	.LBI817:
 3111              		.loc 6 527 25 view .LVU1107
 3112              	.LBB818:
 3113              		.loc 6 529 3 view .LVU1108
 3114              		.loc 6 529 10 is_stmt 0 view .LVU1109
 3115 0000 0A4A     		ldr	r2, .L100
 3116              	.LBE818:
 3117              	.LBE817:
 3118              	.LBB820:
 3119              	.LBB821:
 3120              	.LBB822:
 3121              	.LBB823:
 3122              		.loc 5 493 3 view .LVU1110
 3123 0002 3021     		movs	r1, #48
 3124              	.LBE823:
 3125              	.LBE822:
 3126              	.LBE821:
 3127              	.LBE820:
 3128              	.LBB830:
 3129              	.LBB819:
 3130              		.loc 6 529 10 view .LVU1111
 3131 0004 D268     		ldr	r2, [r2, #12]
 3132              	.LVL135:
 3133              		.loc 6 529 10 view .LVU1112
 3134              	.LBE819:
ARM GAS  C:\Users\DEVELO~1\AppData\Local\Temp\ccUBlV4P.s 			page 56


 3135              	.LBE830:
 3136              		.loc 1 807 3 is_stmt 1 view .LVU1113
 3137              		.loc 1 809 3 view .LVU1114
 3138              		.loc 1 809 3 view .LVU1115
 3139              		.loc 1 809 3 view .LVU1116
 3140              		.loc 1 811 3 view .LVU1117
 3141              	.LBB831:
 3142              	.LBI820:
 3143              		.loc 3 372 20 view .LVU1118
 3144              		.loc 3 374 3 view .LVU1119
 3145              	.LBB828:
 3146              	.LBI821:
 3147              		.loc 4 840 27 view .LVU1120
 3148              		.loc 4 848 3 view .LVU1121
 3149              	.LBB826:
 3150              	.LBI822:
 3151              		.loc 5 491 27 view .LVU1122
 3152              	.LBB824:
 3153              		.loc 5 493 3 view .LVU1123
 3154              	.LBE824:
 3155              	.LBE826:
 3156              	.LBE828:
 3157              	.LBE831:
 3158              		.loc 1 805 43 is_stmt 0 view .LVU1124
 3159 0006 10B5     		push	{r4, lr}
 3160              		.cfi_def_cfa_offset 8
 3161              		.cfi_offset 4, -8
 3162              		.cfi_offset 14, -4
 3163              	.LBB832:
 3164              	.LBB829:
 3165              	.LBB827:
 3166              	.LBB825:
 3167              		.loc 5 493 3 view .LVU1125
 3168              		.syntax unified
 3169              	@ 493 "./ChibiOS/os/common/ext/ARM/CMSIS/Core/Include/cmsis_gcc.h" 1
 3170 0008 81F31188 		MSR basepri, r1
 3171              	@ 0 "" 2
 3172              	.LVL136:
 3173              		.loc 5 493 3 view .LVU1126
 3174              		.thumb
 3175              		.syntax unified
 3176              	.LBE825:
 3177              	.LBE827:
 3178              	.LBE829:
 3179              		.loc 3 375 35 is_stmt 1 view .LVU1127
 3180              		.loc 3 376 21 view .LVU1128
 3181              	.LBE832:
 3182              		.loc 1 813 3 view .LVU1129
 3183              		.loc 1 814 26 is_stmt 0 view .LVU1130
 3184 000c 9168     		ldr	r1, [r2, #8]
 3185              		.loc 1 813 11 view .LVU1131
 3186 000e D46C     		ldr	r4, [r2, #76]
 3187              	.LVL137:
 3188              		.loc 1 814 3 is_stmt 1 view .LVU1132
 3189              		.loc 1 814 53 is_stmt 0 view .LVU1133
 3190 0010 8142     		cmp	r1, r0
 3191 0012 01D3     		bcc	.L95
ARM GAS  C:\Users\DEVELO~1\AppData\Local\Temp\ccUBlV4P.s 			page 57


 3192 0014 A142     		cmp	r1, r4
 3193 0016 00D1     		bne	.L93
 3194              	.L95:
 3195              		.loc 1 816 5 is_stmt 1 view .LVU1134
 3196              		.loc 1 816 29 is_stmt 0 view .LVU1135
 3197 0018 9060     		str	r0, [r2, #8]
 3198              	.L93:
 3199              		.loc 1 818 3 is_stmt 1 view .LVU1136
 3200              		.loc 1 818 20 is_stmt 0 view .LVU1137
 3201 001a D064     		str	r0, [r2, #76]
 3202              		.loc 1 823 3 is_stmt 1 view .LVU1138
 3203 001c FFF7FEFF 		bl	chSchRescheduleS
 3204              	.LVL138:
 3205              		.loc 1 824 3 view .LVU1139
 3206              	.LBB833:
 3207              	.LBI833:
 3208              		.loc 3 386 20 view .LVU1140
 3209              	.LBB834:
 3210              		.loc 3 388 23 view .LVU1141
 3211              		.loc 3 389 34 view .LVU1142
 3212              		.loc 3 395 3 view .LVU1143
 3213              		.loc 3 395 3 view .LVU1144
 3214              		.loc 3 395 3 view .LVU1145
 3215              		.loc 3 399 3 view .LVU1146
 3216              	.LBB835:
 3217              	.LBI835:
 3218              		.loc 4 864 27 view .LVU1147
 3219              		.loc 4 867 3 view .LVU1148
 3220              	.LBB836:
 3221              	.LBI836:
 3222              		.loc 5 491 27 view .LVU1149
 3223              	.LBB837:
 3224              		.loc 5 493 3 view .LVU1150
 3225 0020 0023     		movs	r3, #0
 3226              		.syntax unified
 3227              	@ 493 "./ChibiOS/os/common/ext/ARM/CMSIS/Core/Include/cmsis_gcc.h" 1
 3228 0022 83F31188 		MSR basepri, r3
 3229              	@ 0 "" 2
 3230              	.LVL139:
 3231              		.loc 5 493 3 is_stmt 0 view .LVU1151
 3232              		.thumb
 3233              		.syntax unified
 3234              	.LBE837:
 3235              	.LBE836:
 3236              	.LBE835:
 3237              	.LBE834:
 3238              	.LBE833:
 3239              		.loc 1 826 3 is_stmt 1 view .LVU1152
 3240              		.loc 1 827 1 is_stmt 0 view .LVU1153
 3241 0026 2046     		mov	r0, r4
 3242 0028 10BD     		pop	{r4, pc}
 3243              	.LVL140:
 3244              	.L101:
 3245              		.loc 1 827 1 view .LVU1154
 3246 002a 00BF     		.align	2
 3247              	.L100:
 3248 002c 00000000 		.word	ch0
ARM GAS  C:\Users\DEVELO~1\AppData\Local\Temp\ccUBlV4P.s 			page 58


 3249              		.cfi_endproc
 3250              	.LFE369:
 3251              		.size	chThdSetPriority, .-chThdSetPriority
 3252              		.section	.text.chThdTerminate,"ax",%progbits
 3253              		.align	1
 3254              		.p2align 4,,15
 3255              		.global	chThdTerminate
 3256              		.syntax unified
 3257              		.thumb
 3258              		.thumb_func
 3259              		.type	chThdTerminate, %function
 3260              	chThdTerminate:
 3261              	.LVL141:
 3262              	.LFB370:
 3263              		.loc 1 841 35 is_stmt 1 view -0
 3264              		.cfi_startproc
 3265              		@ args = 0, pretend = 0, frame = 0
 3266              		@ frame_needed = 0, uses_anonymous_args = 0
 3267              		@ link register save eliminated.
 3268              		.loc 1 843 3 view .LVU1156
 3269              	.LBB838:
 3270              	.LBI838:
 3271              		.loc 3 372 20 view .LVU1157
 3272              		.loc 3 374 3 view .LVU1158
 3273              	.LBB839:
 3274              	.LBI839:
 3275              		.loc 4 840 27 view .LVU1159
 3276              		.loc 4 848 3 view .LVU1160
 3277              	.LBB840:
 3278              	.LBI840:
 3279              		.loc 5 491 27 view .LVU1161
 3280              	.LBB841:
 3281              		.loc 5 493 3 view .LVU1162
 3282 0000 3023     		movs	r3, #48
 3283              		.syntax unified
 3284              	@ 493 "./ChibiOS/os/common/ext/ARM/CMSIS/Core/Include/cmsis_gcc.h" 1
 3285 0002 83F31188 		MSR basepri, r3
 3286              	@ 0 "" 2
 3287              	.LVL142:
 3288              		.loc 5 493 3 is_stmt 0 view .LVU1163
 3289              		.thumb
 3290              		.syntax unified
 3291              	.LBE841:
 3292              	.LBE840:
 3293              	.LBE839:
 3294              		.loc 3 375 35 is_stmt 1 view .LVU1164
 3295              		.loc 3 376 21 view .LVU1165
 3296              	.LBE838:
 3297              		.loc 1 844 3 view .LVU1166
 3298              		.loc 1 844 13 is_stmt 0 view .LVU1167
 3299 0006 437F     		ldrb	r3, [r0, #29]	@ zero_extendqisi2
 3300              	.LBB842:
 3301              	.LBB843:
 3302              	.LBB844:
 3303              	.LBB845:
 3304              	.LBB846:
 3305              		.loc 5 493 3 view .LVU1168
ARM GAS  C:\Users\DEVELO~1\AppData\Local\Temp\ccUBlV4P.s 			page 59


 3306 0008 0022     		movs	r2, #0
 3307              	.LBE846:
 3308              	.LBE845:
 3309              	.LBE844:
 3310              	.LBE843:
 3311              	.LBE842:
 3312              		.loc 1 844 13 view .LVU1169
 3313 000a 63F07F03 		orn	r3, r3, #127
 3314 000e 4377     		strb	r3, [r0, #29]
 3315              		.loc 1 845 3 is_stmt 1 view .LVU1170
 3316              	.LBB851:
 3317              	.LBI842:
 3318              		.loc 3 386 20 view .LVU1171
 3319              	.LBB850:
 3320              		.loc 3 388 23 view .LVU1172
 3321              		.loc 3 389 34 view .LVU1173
 3322              		.loc 3 395 3 view .LVU1174
 3323              		.loc 3 395 3 view .LVU1175
 3324              		.loc 3 395 3 view .LVU1176
 3325              		.loc 3 399 3 view .LVU1177
 3326              	.LBB849:
 3327              	.LBI844:
 3328              		.loc 4 864 27 view .LVU1178
 3329              		.loc 4 867 3 view .LVU1179
 3330              	.LVL143:
 3331              	.LBB848:
 3332              	.LBI845:
 3333              		.loc 5 491 27 view .LVU1180
 3334              	.LBB847:
 3335              		.loc 5 493 3 view .LVU1181
 3336              		.syntax unified
 3337              	@ 493 "./ChibiOS/os/common/ext/ARM/CMSIS/Core/Include/cmsis_gcc.h" 1
 3338 0010 82F31188 		MSR basepri, r2
 3339              	@ 0 "" 2
 3340              	.LVL144:
 3341              		.loc 5 493 3 is_stmt 0 view .LVU1182
 3342              		.thumb
 3343              		.syntax unified
 3344              	.LBE847:
 3345              	.LBE848:
 3346              	.LBE849:
 3347              	.LBE850:
 3348              	.LBE851:
 3349              		.loc 1 846 1 view .LVU1183
 3350 0014 7047     		bx	lr
 3351              		.cfi_endproc
 3352              	.LFE370:
 3353              		.size	chThdTerminate, .-chThdTerminate
 3354 0016 00BF     		.section	.text.chThdSleep,"ax",%progbits
 3355              		.align	1
 3356              		.p2align 4,,15
 3357              		.global	chThdSleep
 3358              		.syntax unified
 3359              		.thumb
 3360              		.thumb_func
 3361              		.type	chThdSleep, %function
 3362              	chThdSleep:
ARM GAS  C:\Users\DEVELO~1\AppData\Local\Temp\ccUBlV4P.s 			page 60


 3363              	.LVL145:
 3364              	.LFB371:
 3365              		.loc 1 859 37 is_stmt 1 view -0
 3366              		.cfi_startproc
 3367              		@ args = 0, pretend = 0, frame = 0
 3368              		@ frame_needed = 0, uses_anonymous_args = 0
 3369              		.loc 1 861 3 view .LVU1185
 3370              	.LBB852:
 3371              	.LBI852:
 3372              		.loc 3 372 20 view .LVU1186
 3373              		.loc 3 374 3 view .LVU1187
 3374              	.LBB853:
 3375              	.LBI853:
 3376              		.loc 4 840 27 view .LVU1188
 3377              		.loc 4 848 3 view .LVU1189
 3378              	.LBB854:
 3379              	.LBI854:
 3380              		.loc 5 491 27 view .LVU1190
 3381              	.LBB855:
 3382              		.loc 5 493 3 view .LVU1191
 3383              	.LBE855:
 3384              	.LBE854:
 3385              	.LBE853:
 3386              	.LBE852:
 3387              		.loc 1 859 37 is_stmt 0 view .LVU1192
 3388 0000 08B5     		push	{r3, lr}
 3389              		.cfi_def_cfa_offset 8
 3390              		.cfi_offset 3, -8
 3391              		.cfi_offset 14, -4
 3392              		.loc 1 859 37 view .LVU1193
 3393 0002 0146     		mov	r1, r0
 3394              	.LBB859:
 3395              	.LBB858:
 3396              	.LBB857:
 3397              	.LBB856:
 3398              		.loc 5 493 3 view .LVU1194
 3399 0004 3023     		movs	r3, #48
 3400              		.syntax unified
 3401              	@ 493 "./ChibiOS/os/common/ext/ARM/CMSIS/Core/Include/cmsis_gcc.h" 1
 3402 0006 83F31188 		MSR basepri, r3
 3403              	@ 0 "" 2
 3404              	.LVL146:
 3405              		.loc 5 493 3 view .LVU1195
 3406              		.thumb
 3407              		.syntax unified
 3408              	.LBE856:
 3409              	.LBE857:
 3410              	.LBE858:
 3411              		.loc 3 375 35 is_stmt 1 view .LVU1196
 3412              		.loc 3 376 21 view .LVU1197
 3413              	.LBE859:
 3414              		.loc 1 862 3 view .LVU1198
 3415              	.LBB860:
 3416              	.LBI860:
 3417              		.loc 6 629 20 view .LVU1199
 3418              	.LBB861:
 3419              		.loc 6 631 3 view .LVU1200
ARM GAS  C:\Users\DEVELO~1\AppData\Local\Temp\ccUBlV4P.s 			page 61


 3420              		.loc 6 631 3 view .LVU1201
 3421              		.loc 6 631 3 view .LVU1202
 3422              		.loc 6 633 3 view .LVU1203
 3423              		.loc 6 633 10 is_stmt 0 view .LVU1204
 3424 000a 0820     		movs	r0, #8
 3425              	.LVL147:
 3426              		.loc 6 633 10 view .LVU1205
 3427 000c FFF7FEFF 		bl	chSchGoSleepTimeoutS
 3428              	.LVL148:
 3429              		.loc 6 633 10 view .LVU1206
 3430              	.LBE861:
 3431              	.LBE860:
 3432              		.loc 1 863 3 is_stmt 1 view .LVU1207
 3433              	.LBB862:
 3434              	.LBI862:
 3435              		.loc 3 386 20 view .LVU1208
 3436              	.LBB863:
 3437              		.loc 3 388 23 view .LVU1209
 3438              		.loc 3 389 34 view .LVU1210
 3439              		.loc 3 395 3 view .LVU1211
 3440              		.loc 3 395 3 view .LVU1212
 3441              		.loc 3 395 3 view .LVU1213
 3442              		.loc 3 399 3 view .LVU1214
 3443              	.LBB864:
 3444              	.LBI864:
 3445              		.loc 4 864 27 view .LVU1215
 3446              		.loc 4 867 3 view .LVU1216
 3447              	.LBB865:
 3448              	.LBI865:
 3449              		.loc 5 491 27 view .LVU1217
 3450              	.LBB866:
 3451              		.loc 5 493 3 view .LVU1218
 3452 0010 0023     		movs	r3, #0
 3453              		.syntax unified
 3454              	@ 493 "./ChibiOS/os/common/ext/ARM/CMSIS/Core/Include/cmsis_gcc.h" 1
 3455 0012 83F31188 		MSR basepri, r3
 3456              	@ 0 "" 2
 3457              	.LVL149:
 3458              		.loc 5 493 3 is_stmt 0 view .LVU1219
 3459              		.thumb
 3460              		.syntax unified
 3461              	.LBE866:
 3462              	.LBE865:
 3463              	.LBE864:
 3464              	.LBE863:
 3465              	.LBE862:
 3466              		.loc 1 864 1 view .LVU1220
 3467 0016 08BD     		pop	{r3, pc}
 3468              		.cfi_endproc
 3469              	.LFE371:
 3470              		.size	chThdSleep, .-chThdSleep
 3471              		.section	.text.chThdSleepUntil,"ax",%progbits
 3472              		.align	1
 3473              		.p2align 4,,15
 3474              		.global	chThdSleepUntil
 3475              		.syntax unified
 3476              		.thumb
ARM GAS  C:\Users\DEVELO~1\AppData\Local\Temp\ccUBlV4P.s 			page 62


 3477              		.thumb_func
 3478              		.type	chThdSleepUntil, %function
 3479              	chThdSleepUntil:
 3480              	.LVL150:
 3481              	.LFB372:
 3482              		.loc 1 879 38 is_stmt 1 view -0
 3483              		.cfi_startproc
 3484              		@ args = 0, pretend = 0, frame = 0
 3485              		@ frame_needed = 0, uses_anonymous_args = 0
 3486              		.loc 1 880 3 view .LVU1222
 3487              		.loc 1 882 3 view .LVU1223
 3488              	.LBB867:
 3489              	.LBI867:
 3490              		.loc 3 372 20 view .LVU1224
 3491              		.loc 3 374 3 view .LVU1225
 3492              	.LBB868:
 3493              	.LBI868:
 3494              		.loc 4 840 27 view .LVU1226
 3495              		.loc 4 848 3 view .LVU1227
 3496              	.LBB869:
 3497              	.LBI869:
 3498              		.loc 5 491 27 view .LVU1228
 3499              	.LBB870:
 3500              		.loc 5 493 3 view .LVU1229
 3501              	.LBE870:
 3502              	.LBE869:
 3503              	.LBE868:
 3504              	.LBE867:
 3505              		.loc 1 879 38 is_stmt 0 view .LVU1230
 3506 0000 10B5     		push	{r4, lr}
 3507              		.cfi_def_cfa_offset 8
 3508              		.cfi_offset 4, -8
 3509              		.cfi_offset 14, -4
 3510              	.LBB877:
 3511              	.LBB875:
 3512              	.LBB873:
 3513              	.LBB871:
 3514              		.loc 5 493 3 view .LVU1231
 3515 0002 3023     		movs	r3, #48
 3516              	.LBE871:
 3517              	.LBE873:
 3518              	.LBE875:
 3519              	.LBE877:
 3520              		.loc 1 879 38 view .LVU1232
 3521 0004 0446     		mov	r4, r0
 3522              	.LBB878:
 3523              	.LBB876:
 3524              	.LBB874:
 3525              	.LBB872:
 3526              		.loc 5 493 3 view .LVU1233
 3527              		.syntax unified
 3528              	@ 493 "./ChibiOS/os/common/ext/ARM/CMSIS/Core/Include/cmsis_gcc.h" 1
 3529 0006 83F31188 		MSR basepri, r3
 3530              	@ 0 "" 2
 3531              	.LVL151:
 3532              		.loc 5 493 3 view .LVU1234
 3533              		.thumb
ARM GAS  C:\Users\DEVELO~1\AppData\Local\Temp\ccUBlV4P.s 			page 63


 3534              		.syntax unified
 3535              	.LBE872:
 3536              	.LBE874:
 3537              	.LBE876:
 3538              		.loc 3 375 35 is_stmt 1 view .LVU1235
 3539              		.loc 3 376 21 view .LVU1236
 3540              	.LBE878:
 3541              		.loc 1 883 3 view .LVU1237
 3542              	.LBB879:
 3543              	.LBI879:
 3544              		.file 7 "./ChibiOS/os/rt/include/chvt.h"
 3545              		.loc 7 135 25 view .LVU1238
 3546              		.loc 7 140 3 view .LVU1239
 3547              	.LBB880:
 3548              	.LBI880:
 3549              		.file 8 "./ChibiOS/os/hal/osal/rt-nil/chcore_timer.h"
 3550              		.loc 8 111 25 view .LVU1240
 3551              	.LBB881:
 3552              		.loc 8 113 3 view .LVU1241
 3553              		.loc 8 113 10 is_stmt 0 view .LVU1242
 3554 000a FFF7FEFF 		bl	stGetCounter
 3555              	.LVL152:
 3556              		.loc 8 113 10 view .LVU1243
 3557              	.LBE881:
 3558              	.LBE880:
 3559              	.LBE879:
 3560              	.LBB882:
 3561              	.LBI882:
 3562              		.file 9 "./ChibiOS/os/rt/include/chtime.h"
 3563              		.loc 9 461 29 is_stmt 1 view .LVU1244
 3564              	.LBB883:
 3565              		.loc 9 465 3 view .LVU1245
 3566              		.loc 9 465 3 is_stmt 0 view .LVU1246
 3567              	.LBE883:
 3568              	.LBE882:
 3569              		.loc 1 884 3 is_stmt 1 view .LVU1247
 3570              		.loc 1 884 6 is_stmt 0 view .LVU1248
 3571 000e 211A     		subs	r1, r4, r0
 3572              	.LVL153:
 3573              		.loc 1 884 6 view .LVU1249
 3574 0010 02D0     		beq	.L106
 3575              		.loc 1 885 5 is_stmt 1 view .LVU1250
 3576              	.LVL154:
 3577              	.LBB884:
 3578              	.LBI884:
 3579              		.loc 6 629 20 view .LVU1251
 3580              	.LBB885:
 3581              		.loc 6 631 3 view .LVU1252
 3582              		.loc 6 631 3 view .LVU1253
 3583              		.loc 6 631 3 view .LVU1254
 3584              		.loc 6 633 3 view .LVU1255
 3585              		.loc 6 633 10 is_stmt 0 view .LVU1256
 3586 0012 0820     		movs	r0, #8
 3587 0014 FFF7FEFF 		bl	chSchGoSleepTimeoutS
 3588              	.LVL155:
 3589              	.L106:
 3590              		.loc 6 633 10 view .LVU1257
ARM GAS  C:\Users\DEVELO~1\AppData\Local\Temp\ccUBlV4P.s 			page 64


 3591              	.LBE885:
 3592              	.LBE884:
 3593              		.loc 1 887 3 is_stmt 1 view .LVU1258
 3594              	.LBB886:
 3595              	.LBI886:
 3596              		.loc 3 386 20 view .LVU1259
 3597              	.LBB887:
 3598              		.loc 3 388 23 view .LVU1260
 3599              		.loc 3 389 34 view .LVU1261
 3600              		.loc 3 395 3 view .LVU1262
 3601              		.loc 3 395 3 view .LVU1263
 3602              		.loc 3 395 3 view .LVU1264
 3603              		.loc 3 399 3 view .LVU1265
 3604              	.LBB888:
 3605              	.LBI888:
 3606              		.loc 4 864 27 view .LVU1266
 3607              		.loc 4 867 3 view .LVU1267
 3608              	.LBB889:
 3609              	.LBI889:
 3610              		.loc 5 491 27 view .LVU1268
 3611              	.LBB890:
 3612              		.loc 5 493 3 view .LVU1269
 3613 0018 0023     		movs	r3, #0
 3614              		.syntax unified
 3615              	@ 493 "./ChibiOS/os/common/ext/ARM/CMSIS/Core/Include/cmsis_gcc.h" 1
 3616 001a 83F31188 		MSR basepri, r3
 3617              	@ 0 "" 2
 3618              	.LVL156:
 3619              		.loc 5 493 3 is_stmt 0 view .LVU1270
 3620              		.thumb
 3621              		.syntax unified
 3622              	.LBE890:
 3623              	.LBE889:
 3624              	.LBE888:
 3625              	.LBE887:
 3626              	.LBE886:
 3627              		.loc 1 888 1 view .LVU1271
 3628 001e 10BD     		pop	{r4, pc}
 3629              		.loc 1 888 1 view .LVU1272
 3630              		.cfi_endproc
 3631              	.LFE372:
 3632              		.size	chThdSleepUntil, .-chThdSleepUntil
 3633              		.section	.text.chThdSleepUntilWindowed,"ax",%progbits
 3634              		.align	1
 3635              		.p2align 4,,15
 3636              		.global	chThdSleepUntilWindowed
 3637              		.syntax unified
 3638              		.thumb
 3639              		.thumb_func
 3640              		.type	chThdSleepUntilWindowed, %function
 3641              	chThdSleepUntilWindowed:
 3642              	.LVL157:
 3643              	.LFB373:
 3644              		.loc 1 904 67 is_stmt 1 view -0
 3645              		.cfi_startproc
 3646              		@ args = 0, pretend = 0, frame = 0
 3647              		@ frame_needed = 0, uses_anonymous_args = 0
ARM GAS  C:\Users\DEVELO~1\AppData\Local\Temp\ccUBlV4P.s 			page 65


 3648              		.loc 1 905 3 view .LVU1274
 3649              		.loc 1 907 3 view .LVU1275
 3650              	.LBB891:
 3651              	.LBI891:
 3652              		.loc 3 372 20 view .LVU1276
 3653              		.loc 3 374 3 view .LVU1277
 3654              	.LBB892:
 3655              	.LBI892:
 3656              		.loc 4 840 27 view .LVU1278
 3657              		.loc 4 848 3 view .LVU1279
 3658              	.LBB893:
 3659              	.LBI893:
 3660              		.loc 5 491 27 view .LVU1280
 3661              	.LBB894:
 3662              		.loc 5 493 3 view .LVU1281
 3663              	.LBE894:
 3664              	.LBE893:
 3665              	.LBE892:
 3666              	.LBE891:
 3667              		.loc 1 904 67 is_stmt 0 view .LVU1282
 3668 0000 38B5     		push	{r3, r4, r5, lr}
 3669              		.cfi_def_cfa_offset 16
 3670              		.cfi_offset 3, -16
 3671              		.cfi_offset 4, -12
 3672              		.cfi_offset 5, -8
 3673              		.cfi_offset 14, -4
 3674              	.LBB901:
 3675              	.LBB899:
 3676              	.LBB897:
 3677              	.LBB895:
 3678              		.loc 5 493 3 view .LVU1283
 3679 0002 3023     		movs	r3, #48
 3680              	.LBE895:
 3681              	.LBE897:
 3682              	.LBE899:
 3683              	.LBE901:
 3684              		.loc 1 904 67 view .LVU1284
 3685 0004 0446     		mov	r4, r0
 3686 0006 0D46     		mov	r5, r1
 3687              	.LBB902:
 3688              	.LBB900:
 3689              	.LBB898:
 3690              	.LBB896:
 3691              		.loc 5 493 3 view .LVU1285
 3692              		.syntax unified
 3693              	@ 493 "./ChibiOS/os/common/ext/ARM/CMSIS/Core/Include/cmsis_gcc.h" 1
 3694 0008 83F31188 		MSR basepri, r3
 3695              	@ 0 "" 2
 3696              	.LVL158:
 3697              		.loc 5 493 3 view .LVU1286
 3698              		.thumb
 3699              		.syntax unified
 3700              	.LBE896:
 3701              	.LBE898:
 3702              	.LBE900:
 3703              		.loc 3 375 35 is_stmt 1 view .LVU1287
 3704              		.loc 3 376 21 view .LVU1288
ARM GAS  C:\Users\DEVELO~1\AppData\Local\Temp\ccUBlV4P.s 			page 66


 3705              	.LBE902:
 3706              		.loc 1 908 3 view .LVU1289
 3707              	.LBB903:
 3708              	.LBI903:
 3709              		.loc 7 135 25 view .LVU1290
 3710              		.loc 7 140 3 view .LVU1291
 3711              	.LBB904:
 3712              	.LBI904:
 3713              		.loc 8 111 25 view .LVU1292
 3714              	.LBB905:
 3715              		.loc 8 113 3 view .LVU1293
 3716              		.loc 8 113 10 is_stmt 0 view .LVU1294
 3717 000c FFF7FEFF 		bl	stGetCounter
 3718              	.LVL159:
 3719              		.loc 8 113 10 view .LVU1295
 3720              	.LBE905:
 3721              	.LBE904:
 3722              	.LBE903:
 3723              	.LBB906:
 3724              	.LBB907:
 3725              		.loc 9 489 17 view .LVU1296
 3726 0010 2B1B     		subs	r3, r5, r4
 3727              	.LVL160:
 3728              		.loc 9 489 17 view .LVU1297
 3729              	.LBE907:
 3730              	.LBE906:
 3731              		.loc 1 909 3 is_stmt 1 view .LVU1298
 3732              	.LBB909:
 3733              	.LBI906:
 3734              		.loc 9 484 20 view .LVU1299
 3735              	.LBB908:
 3736              		.loc 9 488 3 view .LVU1300
 3737              		.loc 9 488 17 is_stmt 0 view .LVU1301
 3738 0012 041B     		subs	r4, r0, r4
 3739              	.LVL161:
 3740              		.loc 9 488 17 view .LVU1302
 3741              	.LBE908:
 3742              	.LBE909:
 3743              		.loc 1 909 6 view .LVU1303
 3744 0014 A342     		cmp	r3, r4
 3745 0016 03D9     		bls	.L112
 3746              		.loc 1 910 5 is_stmt 1 view .LVU1304
 3747              	.LVL162:
 3748              	.LBB910:
 3749              	.LBI910:
 3750              		.loc 9 461 29 view .LVU1305
 3751              	.LBB911:
 3752              		.loc 9 465 3 view .LVU1306
 3753              		.loc 9 465 3 is_stmt 0 view .LVU1307
 3754              	.LBE911:
 3755              	.LBE910:
 3756              	.LBB912:
 3757              	.LBI912:
 3758              		.loc 6 629 20 is_stmt 1 view .LVU1308
 3759              	.LBB913:
 3760              		.loc 6 631 3 view .LVU1309
 3761              		.loc 6 631 3 view .LVU1310
ARM GAS  C:\Users\DEVELO~1\AppData\Local\Temp\ccUBlV4P.s 			page 67


 3762              		.loc 6 631 3 view .LVU1311
 3763              		.loc 6 633 3 view .LVU1312
 3764              		.loc 6 633 10 is_stmt 0 view .LVU1313
 3765 0018 291A     		subs	r1, r5, r0
 3766              	.LVL163:
 3767              		.loc 6 633 10 view .LVU1314
 3768 001a 0820     		movs	r0, #8
 3769              	.LVL164:
 3770              		.loc 6 633 10 view .LVU1315
 3771 001c FFF7FEFF 		bl	chSchGoSleepTimeoutS
 3772              	.LVL165:
 3773              	.L112:
 3774              		.loc 6 633 10 view .LVU1316
 3775              	.LBE913:
 3776              	.LBE912:
 3777              		.loc 1 912 3 is_stmt 1 view .LVU1317
 3778              	.LBB914:
 3779              	.LBI914:
 3780              		.loc 3 386 20 view .LVU1318
 3781              	.LBB915:
 3782              		.loc 3 388 23 view .LVU1319
 3783              		.loc 3 389 34 view .LVU1320
 3784              		.loc 3 395 3 view .LVU1321
 3785              		.loc 3 395 3 view .LVU1322
 3786              		.loc 3 395 3 view .LVU1323
 3787              		.loc 3 399 3 view .LVU1324
 3788              	.LBB916:
 3789              	.LBI916:
 3790              		.loc 4 864 27 view .LVU1325
 3791              		.loc 4 867 3 view .LVU1326
 3792              	.LBB917:
 3793              	.LBI917:
 3794              		.loc 5 491 27 view .LVU1327
 3795              	.LBB918:
 3796              		.loc 5 493 3 view .LVU1328
 3797 0020 0023     		movs	r3, #0
 3798              		.syntax unified
 3799              	@ 493 "./ChibiOS/os/common/ext/ARM/CMSIS/Core/Include/cmsis_gcc.h" 1
 3800 0022 83F31188 		MSR basepri, r3
 3801              	@ 0 "" 2
 3802              	.LVL166:
 3803              		.loc 5 493 3 is_stmt 0 view .LVU1329
 3804              		.thumb
 3805              		.syntax unified
 3806              	.LBE918:
 3807              	.LBE917:
 3808              	.LBE916:
 3809              	.LBE915:
 3810              	.LBE914:
 3811              		.loc 1 914 3 is_stmt 1 view .LVU1330
 3812              		.loc 1 915 1 is_stmt 0 view .LVU1331
 3813 0026 2846     		mov	r0, r5
 3814 0028 38BD     		pop	{r3, r4, r5, pc}
 3815              		.loc 1 915 1 view .LVU1332
 3816              		.cfi_endproc
 3817              	.LFE373:
 3818              		.size	chThdSleepUntilWindowed, .-chThdSleepUntilWindowed
ARM GAS  C:\Users\DEVELO~1\AppData\Local\Temp\ccUBlV4P.s 			page 68


 3819 002a 00BF     		.section	.text.chThdYield,"ax",%progbits
 3820              		.align	1
 3821              		.p2align 4,,15
 3822              		.global	chThdYield
 3823              		.syntax unified
 3824              		.thumb
 3825              		.thumb_func
 3826              		.type	chThdYield, %function
 3827              	chThdYield:
 3828              	.LFB374:
 3829              		.loc 1 924 23 is_stmt 1 view -0
 3830              		.cfi_startproc
 3831              		@ args = 0, pretend = 0, frame = 0
 3832              		@ frame_needed = 0, uses_anonymous_args = 0
 3833              		.loc 1 926 3 view .LVU1334
 3834              	.LBB919:
 3835              	.LBI919:
 3836              		.loc 3 372 20 view .LVU1335
 3837              		.loc 3 374 3 view .LVU1336
 3838              	.LBB920:
 3839              	.LBI920:
 3840              		.loc 4 840 27 view .LVU1337
 3841              		.loc 4 848 3 view .LVU1338
 3842              	.LVL167:
 3843              	.LBB921:
 3844              	.LBI921:
 3845              		.loc 5 491 27 view .LVU1339
 3846              	.LBB922:
 3847              		.loc 5 493 3 view .LVU1340
 3848              	.LBE922:
 3849              	.LBE921:
 3850              	.LBE920:
 3851              	.LBE919:
 3852              		.loc 1 924 23 is_stmt 0 view .LVU1341
 3853 0000 08B5     		push	{r3, lr}
 3854              		.cfi_def_cfa_offset 8
 3855              		.cfi_offset 3, -8
 3856              		.cfi_offset 14, -4
 3857              	.LBB926:
 3858              	.LBB925:
 3859              	.LBB924:
 3860              	.LBB923:
 3861              		.loc 5 493 3 view .LVU1342
 3862 0002 3023     		movs	r3, #48
 3863              		.syntax unified
 3864              	@ 493 "./ChibiOS/os/common/ext/ARM/CMSIS/Core/Include/cmsis_gcc.h" 1
 3865 0004 83F31188 		MSR basepri, r3
 3866              	@ 0 "" 2
 3867              	.LVL168:
 3868              		.loc 5 493 3 view .LVU1343
 3869              		.thumb
 3870              		.syntax unified
 3871              	.LBE923:
 3872              	.LBE924:
 3873              	.LBE925:
 3874              		.loc 3 375 35 is_stmt 1 view .LVU1344
 3875              		.loc 3 376 21 view .LVU1345
ARM GAS  C:\Users\DEVELO~1\AppData\Local\Temp\ccUBlV4P.s 			page 69


 3876              	.LBE926:
 3877              		.loc 1 927 3 view .LVU1346
 3878 0008 FFF7FEFF 		bl	chSchDoYieldS
 3879              	.LVL169:
 3880              		.loc 1 928 3 view .LVU1347
 3881              	.LBB927:
 3882              	.LBI927:
 3883              		.loc 3 386 20 view .LVU1348
 3884              	.LBB928:
 3885              		.loc 3 388 23 view .LVU1349
 3886              		.loc 3 389 34 view .LVU1350
 3887              		.loc 3 395 3 view .LVU1351
 3888              		.loc 3 395 3 view .LVU1352
 3889              		.loc 3 395 3 view .LVU1353
 3890              		.loc 3 399 3 view .LVU1354
 3891              	.LBB929:
 3892              	.LBI929:
 3893              		.loc 4 864 27 view .LVU1355
 3894              		.loc 4 867 3 view .LVU1356
 3895              	.LBB930:
 3896              	.LBI930:
 3897              		.loc 5 491 27 view .LVU1357
 3898              	.LBB931:
 3899              		.loc 5 493 3 view .LVU1358
 3900 000c 0023     		movs	r3, #0
 3901              		.syntax unified
 3902              	@ 493 "./ChibiOS/os/common/ext/ARM/CMSIS/Core/Include/cmsis_gcc.h" 1
 3903 000e 83F31188 		MSR basepri, r3
 3904              	@ 0 "" 2
 3905              	.LVL170:
 3906              		.loc 5 493 3 is_stmt 0 view .LVU1359
 3907              		.thumb
 3908              		.syntax unified
 3909              	.LBE931:
 3910              	.LBE930:
 3911              	.LBE929:
 3912              	.LBE928:
 3913              	.LBE927:
 3914              		.loc 1 929 1 view .LVU1360
 3915 0012 08BD     		pop	{r3, pc}
 3916              		.cfi_endproc
 3917              	.LFE374:
 3918              		.size	chThdYield, .-chThdYield
 3919              		.section	.text.chThdSuspendS,"ax",%progbits
 3920              		.align	1
 3921              		.p2align 4,,15
 3922              		.global	chThdSuspendS
 3923              		.syntax unified
 3924              		.thumb
 3925              		.thumb_func
 3926              		.type	chThdSuspendS, %function
 3927              	chThdSuspendS:
 3928              	.LVL171:
 3929              	.LFB375:
 3930              		.loc 1 941 46 is_stmt 1 view -0
 3931              		.cfi_startproc
 3932              		@ args = 0, pretend = 0, frame = 0
ARM GAS  C:\Users\DEVELO~1\AppData\Local\Temp\ccUBlV4P.s 			page 70


 3933              		@ frame_needed = 0, uses_anonymous_args = 0
 3934              		.loc 1 942 3 view .LVU1362
 3935              	.LBB932:
 3936              	.LBI932:
 3937              		.loc 6 527 25 view .LVU1363
 3938              	.LBB933:
 3939              		.loc 6 529 3 view .LVU1364
 3940              	.LBE933:
 3941              	.LBE932:
 3942              		.loc 1 941 46 is_stmt 0 view .LVU1365
 3943 0000 10B5     		push	{r4, lr}
 3944              		.cfi_def_cfa_offset 8
 3945              		.cfi_offset 4, -8
 3946              		.cfi_offset 14, -4
 3947              	.LBB936:
 3948              	.LBB934:
 3949              		.loc 6 529 10 view .LVU1366
 3950 0002 054C     		ldr	r4, .L118
 3951              	.LBE934:
 3952              	.LBE936:
 3953              		.loc 1 941 46 view .LVU1367
 3954 0004 0346     		mov	r3, r0
 3955              		.loc 1 948 3 view .LVU1368
 3956 0006 0320     		movs	r0, #3
 3957              	.LVL172:
 3958              	.LBB937:
 3959              	.LBB935:
 3960              		.loc 6 529 10 view .LVU1369
 3961 0008 E268     		ldr	r2, [r4, #12]
 3962              	.LVL173:
 3963              		.loc 6 529 10 view .LVU1370
 3964              	.LBE935:
 3965              	.LBE937:
 3966              		.loc 1 944 3 is_stmt 1 view .LVU1371
 3967              		.loc 1 944 3 view .LVU1372
 3968              		.loc 1 944 3 view .LVU1373
 3969              		.loc 1 946 3 view .LVU1374
 3970              		.loc 1 946 8 is_stmt 0 view .LVU1375
 3971 000a 1A60     		str	r2, [r3]
 3972              		.loc 1 947 3 is_stmt 1 view .LVU1376
 3973              		.loc 1 947 15 is_stmt 0 view .LVU1377
 3974 000c 5363     		str	r3, [r2, #52]
 3975              		.loc 1 948 3 is_stmt 1 view .LVU1378
 3976 000e FFF7FEFF 		bl	chSchGoSleepS
 3977              	.LVL174:
 3978              		.loc 1 950 3 view .LVU1379
 3979              	.LBB938:
 3980              	.LBI938:
 3981              		.loc 6 527 25 view .LVU1380
 3982              	.LBB939:
 3983              		.loc 6 529 3 view .LVU1381
 3984              	.LBE939:
 3985              	.LBE938:
 3986              		.loc 1 950 28 is_stmt 0 view .LVU1382
 3987 0012 E368     		ldr	r3, [r4, #12]
 3988              		.loc 1 951 1 view .LVU1383
 3989 0014 586B     		ldr	r0, [r3, #52]
ARM GAS  C:\Users\DEVELO~1\AppData\Local\Temp\ccUBlV4P.s 			page 71


 3990 0016 10BD     		pop	{r4, pc}
 3991              	.L119:
 3992              		.align	2
 3993              	.L118:
 3994 0018 00000000 		.word	ch0
 3995              		.cfi_endproc
 3996              	.LFE375:
 3997              		.size	chThdSuspendS, .-chThdSuspendS
 3998              		.section	.text.chThdSuspendTimeoutS,"ax",%progbits
 3999              		.align	1
 4000              		.p2align 4,,15
 4001              		.global	chThdSuspendTimeoutS
 4002              		.syntax unified
 4003              		.thumb
 4004              		.thumb_func
 4005              		.type	chThdSuspendTimeoutS, %function
 4006              	chThdSuspendTimeoutS:
 4007              	.LVL175:
 4008              	.LFB376:
 4009              		.loc 1 971 76 is_stmt 1 view -0
 4010              		.cfi_startproc
 4011              		@ args = 0, pretend = 0, frame = 0
 4012              		@ frame_needed = 0, uses_anonymous_args = 0
 4013              		@ link register save eliminated.
 4014              		.loc 1 972 3 view .LVU1385
 4015              	.LBB940:
 4016              	.LBI940:
 4017              		.loc 6 527 25 view .LVU1386
 4018              	.LBB941:
 4019              		.loc 6 529 3 view .LVU1387
 4020              		.loc 6 529 10 is_stmt 0 view .LVU1388
 4021 0000 054A     		ldr	r2, .L122
 4022              	.LBE941:
 4023              	.LBE940:
 4024              		.loc 1 971 76 view .LVU1389
 4025 0002 0346     		mov	r3, r0
 4026              	.LBB943:
 4027              	.LBB942:
 4028              		.loc 6 529 10 view .LVU1390
 4029 0004 D268     		ldr	r2, [r2, #12]
 4030              	.LVL176:
 4031              		.loc 6 529 10 view .LVU1391
 4032              	.LBE942:
 4033              	.LBE943:
 4034              		.loc 1 974 3 is_stmt 1 view .LVU1392
 4035              		.loc 1 974 3 view .LVU1393
 4036              		.loc 1 974 3 view .LVU1394
 4037              		.loc 1 976 3 view .LVU1395
 4038              		.loc 1 976 6 is_stmt 0 view .LVU1396
 4039 0006 21B1     		cbz	r1, .L121
 4040              		.loc 1 980 3 is_stmt 1 view .LVU1397
 4041              		.loc 1 980 8 is_stmt 0 view .LVU1398
 4042 0008 0260     		str	r2, [r0]
 4043              		.loc 1 981 3 is_stmt 1 view .LVU1399
 4044              		.loc 1 983 10 is_stmt 0 view .LVU1400
 4045 000a 0320     		movs	r0, #3
 4046              	.LVL177:
ARM GAS  C:\Users\DEVELO~1\AppData\Local\Temp\ccUBlV4P.s 			page 72


 4047              		.loc 1 981 15 view .LVU1401
 4048 000c 5363     		str	r3, [r2, #52]
 4049              		.loc 1 983 3 is_stmt 1 view .LVU1402
 4050              		.loc 1 983 10 is_stmt 0 view .LVU1403
 4051 000e FFF7FEBF 		b	chSchGoSleepTimeoutS
 4052              	.LVL178:
 4053              	.L121:
 4054              		.loc 1 984 1 view .LVU1404
 4055 0012 4FF0FF30 		mov	r0, #-1
 4056              	.LVL179:
 4057              		.loc 1 984 1 view .LVU1405
 4058 0016 7047     		bx	lr
 4059              	.L123:
 4060              		.align	2
 4061              	.L122:
 4062 0018 00000000 		.word	ch0
 4063              		.cfi_endproc
 4064              	.LFE376:
 4065              		.size	chThdSuspendTimeoutS, .-chThdSuspendTimeoutS
 4066              		.section	.text.chThdResumeI,"ax",%progbits
 4067              		.align	1
 4068              		.p2align 4,,15
 4069              		.global	chThdResumeI
 4070              		.syntax unified
 4071              		.thumb
 4072              		.thumb_func
 4073              		.type	chThdResumeI, %function
 4074              	chThdResumeI:
 4075              	.LVL180:
 4076              	.LFB377:
 4077              		.loc 1 996 55 is_stmt 1 view -0
 4078              		.cfi_startproc
 4079              		@ args = 0, pretend = 0, frame = 0
 4080              		@ frame_needed = 0, uses_anonymous_args = 0
 4081              		@ link register save eliminated.
 4082              		.loc 1 998 3 view .LVU1407
 4083              		.loc 1 996 55 is_stmt 0 view .LVU1408
 4084 0000 0346     		mov	r3, r0
 4085              		.loc 1 998 7 view .LVU1409
 4086 0002 0068     		ldr	r0, [r0]
 4087              	.LVL181:
 4088              		.loc 1 998 6 view .LVU1410
 4089 0004 20B1     		cbz	r0, .L124
 4090              	.LBB944:
 4091              		.loc 1 999 5 is_stmt 1 view .LVU1411
 4092              	.LVL182:
 4093              		.loc 1 1001 5 view .LVU1412
 4094              		.loc 1 1001 5 view .LVU1413
 4095              		.loc 1 1001 5 view .LVU1414
 4096              		.loc 1 1003 5 view .LVU1415
 4097              		.loc 1 1003 10 is_stmt 0 view .LVU1416
 4098 0006 0022     		movs	r2, #0
 4099 0008 1A60     		str	r2, [r3]
 4100              		.loc 1 1004 5 is_stmt 1 view .LVU1417
 4101              		.loc 1 1004 18 is_stmt 0 view .LVU1418
 4102 000a 4163     		str	r1, [r0, #52]
 4103              		.loc 1 1005 5 is_stmt 1 view .LVU1419
ARM GAS  C:\Users\DEVELO~1\AppData\Local\Temp\ccUBlV4P.s 			page 73


 4104              		.loc 1 1005 12 is_stmt 0 view .LVU1420
 4105 000c FFF7FEBF 		b	chSchReadyI
 4106              	.LVL183:
 4107              	.L124:
 4108              		.loc 1 1005 12 view .LVU1421
 4109              	.LBE944:
 4110              		.loc 1 1007 1 view .LVU1422
 4111 0010 7047     		bx	lr
 4112              		.cfi_endproc
 4113              	.LFE377:
 4114              		.size	chThdResumeI, .-chThdResumeI
 4115 0012 00BF     		.section	.text.chThdResumeS,"ax",%progbits
 4116              		.align	1
 4117              		.p2align 4,,15
 4118              		.global	chThdResumeS
 4119              		.syntax unified
 4120              		.thumb
 4121              		.thumb_func
 4122              		.type	chThdResumeS, %function
 4123              	chThdResumeS:
 4124              	.LVL184:
 4125              	.LFB378:
 4126              		.loc 1 1019 55 is_stmt 1 view -0
 4127              		.cfi_startproc
 4128              		@ args = 0, pretend = 0, frame = 0
 4129              		@ frame_needed = 0, uses_anonymous_args = 0
 4130              		@ link register save eliminated.
 4131              		.loc 1 1021 3 view .LVU1424
 4132              		.loc 1 1019 55 is_stmt 0 view .LVU1425
 4133 0000 0346     		mov	r3, r0
 4134              		.loc 1 1021 7 view .LVU1426
 4135 0002 0068     		ldr	r0, [r0]
 4136              	.LVL185:
 4137              		.loc 1 1021 6 view .LVU1427
 4138 0004 18B1     		cbz	r0, .L126
 4139              	.LBB945:
 4140              		.loc 1 1022 5 is_stmt 1 view .LVU1428
 4141              	.LVL186:
 4142              		.loc 1 1024 5 view .LVU1429
 4143              		.loc 1 1024 5 view .LVU1430
 4144              		.loc 1 1024 5 view .LVU1431
 4145              		.loc 1 1026 5 view .LVU1432
 4146              		.loc 1 1026 10 is_stmt 0 view .LVU1433
 4147 0006 0022     		movs	r2, #0
 4148 0008 1A60     		str	r2, [r3]
 4149              		.loc 1 1027 5 is_stmt 1 view .LVU1434
 4150 000a FFF7FEBF 		b	chSchWakeupS
 4151              	.LVL187:
 4152              	.L126:
 4153              		.loc 1 1027 5 is_stmt 0 view .LVU1435
 4154              	.LBE945:
 4155              		.loc 1 1029 1 view .LVU1436
 4156 000e 7047     		bx	lr
 4157              		.cfi_endproc
 4158              	.LFE378:
 4159              		.size	chThdResumeS, .-chThdResumeS
 4160              		.section	.text.chThdResume,"ax",%progbits
ARM GAS  C:\Users\DEVELO~1\AppData\Local\Temp\ccUBlV4P.s 			page 74


 4161              		.align	1
 4162              		.p2align 4,,15
 4163              		.global	chThdResume
 4164              		.syntax unified
 4165              		.thumb
 4166              		.thumb_func
 4167              		.type	chThdResume, %function
 4168              	chThdResume:
 4169              	.LVL188:
 4170              	.LFB379:
 4171              		.loc 1 1041 54 is_stmt 1 view -0
 4172              		.cfi_startproc
 4173              		@ args = 0, pretend = 0, frame = 0
 4174              		@ frame_needed = 0, uses_anonymous_args = 0
 4175              		.loc 1 1041 54 is_stmt 0 view .LVU1438
 4176 0000 08B5     		push	{r3, lr}
 4177              		.cfi_def_cfa_offset 8
 4178              		.cfi_offset 3, -8
 4179              		.cfi_offset 14, -4
 4180              	.LBB946:
 4181              	.LBB947:
 4182              	.LBB948:
 4183              	.LBB949:
 4184              		.loc 5 493 3 view .LVU1439
 4185 0002 3022     		movs	r2, #48
 4186              	.LBE949:
 4187              	.LBE948:
 4188              	.LBE947:
 4189              	.LBE946:
 4190              		.loc 1 1041 54 view .LVU1440
 4191 0004 0346     		mov	r3, r0
 4192              		.loc 1 1043 3 is_stmt 1 view .LVU1441
 4193              	.LBB953:
 4194              	.LBI946:
 4195              		.loc 3 372 20 view .LVU1442
 4196              		.loc 3 374 3 view .LVU1443
 4197              	.LBB952:
 4198              	.LBI947:
 4199              		.loc 4 840 27 view .LVU1444
 4200              		.loc 4 848 3 view .LVU1445
 4201              	.LVL189:
 4202              	.LBB951:
 4203              	.LBI948:
 4204              		.loc 5 491 27 view .LVU1446
 4205              	.LBB950:
 4206              		.loc 5 493 3 view .LVU1447
 4207              		.syntax unified
 4208              	@ 493 "./ChibiOS/os/common/ext/ARM/CMSIS/Core/Include/cmsis_gcc.h" 1
 4209 0006 82F31188 		MSR basepri, r2
 4210              	@ 0 "" 2
 4211              	.LVL190:
 4212              		.loc 5 493 3 is_stmt 0 view .LVU1448
 4213              		.thumb
 4214              		.syntax unified
 4215              	.LBE950:
 4216              	.LBE951:
 4217              	.LBE952:
ARM GAS  C:\Users\DEVELO~1\AppData\Local\Temp\ccUBlV4P.s 			page 75


 4218              		.loc 3 375 35 is_stmt 1 view .LVU1449
 4219              		.loc 3 376 21 view .LVU1450
 4220              	.LBE953:
 4221              		.loc 1 1044 3 view .LVU1451
 4222              	.LBB954:
 4223              	.LBI954:
 4224              		.loc 1 1019 6 view .LVU1452
 4225              	.LBB955:
 4226              		.loc 1 1021 3 view .LVU1453
 4227              		.loc 1 1021 7 is_stmt 0 view .LVU1454
 4228 000a 0068     		ldr	r0, [r0]
 4229              	.LVL191:
 4230              		.loc 1 1021 6 view .LVU1455
 4231 000c 18B1     		cbz	r0, .L129
 4232              	.LBB956:
 4233              		.loc 1 1022 5 is_stmt 1 view .LVU1456
 4234              	.LVL192:
 4235              		.loc 1 1024 5 view .LVU1457
 4236              		.loc 1 1024 5 view .LVU1458
 4237              		.loc 1 1024 5 view .LVU1459
 4238              		.loc 1 1026 5 view .LVU1460
 4239              		.loc 1 1026 10 is_stmt 0 view .LVU1461
 4240 000e 0022     		movs	r2, #0
 4241 0010 1A60     		str	r2, [r3]
 4242              		.loc 1 1027 5 is_stmt 1 view .LVU1462
 4243 0012 FFF7FEFF 		bl	chSchWakeupS
 4244              	.LVL193:
 4245              	.L129:
 4246              		.loc 1 1027 5 is_stmt 0 view .LVU1463
 4247              	.LBE956:
 4248              	.LBE955:
 4249              	.LBE954:
 4250              		.loc 1 1045 3 is_stmt 1 view .LVU1464
 4251              	.LBB957:
 4252              	.LBI957:
 4253              		.loc 3 386 20 view .LVU1465
 4254              	.LBB958:
 4255              		.loc 3 388 23 view .LVU1466
 4256              		.loc 3 389 34 view .LVU1467
 4257              		.loc 3 395 3 view .LVU1468
 4258              		.loc 3 395 3 view .LVU1469
 4259              		.loc 3 395 3 view .LVU1470
 4260              		.loc 3 399 3 view .LVU1471
 4261              	.LBB959:
 4262              	.LBI959:
 4263              		.loc 4 864 27 view .LVU1472
 4264              		.loc 4 867 3 view .LVU1473
 4265              	.LBB960:
 4266              	.LBI960:
 4267              		.loc 5 491 27 view .LVU1474
 4268              	.LBB961:
 4269              		.loc 5 493 3 view .LVU1475
 4270 0016 0023     		movs	r3, #0
 4271              		.syntax unified
 4272              	@ 493 "./ChibiOS/os/common/ext/ARM/CMSIS/Core/Include/cmsis_gcc.h" 1
 4273 0018 83F31188 		MSR basepri, r3
 4274              	@ 0 "" 2
ARM GAS  C:\Users\DEVELO~1\AppData\Local\Temp\ccUBlV4P.s 			page 76


 4275              	.LVL194:
 4276              		.loc 5 493 3 is_stmt 0 view .LVU1476
 4277              		.thumb
 4278              		.syntax unified
 4279              	.LBE961:
 4280              	.LBE960:
 4281              	.LBE959:
 4282              	.LBE958:
 4283              	.LBE957:
 4284              		.loc 1 1046 1 view .LVU1477
 4285 001c 08BD     		pop	{r3, pc}
 4286              		.cfi_endproc
 4287              	.LFE379:
 4288              		.size	chThdResume, .-chThdResume
 4289 001e 00BF     		.section	.text.chThdQueueObjectInit,"ax",%progbits
 4290              		.align	1
 4291              		.p2align 4,,15
 4292              		.global	chThdQueueObjectInit
 4293              		.syntax unified
 4294              		.thumb
 4295              		.thumb_func
 4296              		.type	chThdQueueObjectInit, %function
 4297              	chThdQueueObjectInit:
 4298              	.LVL195:
 4299              	.LFB380:
 4300              		.loc 1 1055 49 is_stmt 1 view -0
 4301              		.cfi_startproc
 4302              		@ args = 0, pretend = 0, frame = 0
 4303              		@ frame_needed = 0, uses_anonymous_args = 0
 4304              		@ link register save eliminated.
 4305              		.loc 1 1057 3 view .LVU1479
 4306              		.loc 1 1057 3 view .LVU1480
 4307              		.loc 1 1057 3 view .LVU1481
 4308              		.loc 1 1059 3 view .LVU1482
 4309              	.LBB962:
 4310              	.LBI962:
 4311              		.loc 2 282 20 view .LVU1483
 4312              	.LBB963:
 4313              		.loc 2 284 3 view .LVU1484
 4314              		.loc 2 285 12 is_stmt 0 view .LVU1485
 4315 0000 C0E90000 		strd	r0, r0, [r0]
 4316              	.LVL196:
 4317              		.loc 2 285 12 view .LVU1486
 4318              	.LBE963:
 4319              	.LBE962:
 4320              		.loc 1 1060 1 view .LVU1487
 4321 0004 7047     		bx	lr
 4322              		.cfi_endproc
 4323              	.LFE380:
 4324              		.size	chThdQueueObjectInit, .-chThdQueueObjectInit
 4325 0006 00BF     		.section	.text.chThdQueueObjectDispose,"ax",%progbits
 4326              		.align	1
 4327              		.p2align 4,,15
 4328              		.global	chThdQueueObjectDispose
 4329              		.syntax unified
 4330              		.thumb
 4331              		.thumb_func
ARM GAS  C:\Users\DEVELO~1\AppData\Local\Temp\ccUBlV4P.s 			page 77


 4332              		.type	chThdQueueObjectDispose, %function
 4333              	chThdQueueObjectDispose:
 4334              	.LFB387:
 4335              		.cfi_startproc
 4336              		@ args = 0, pretend = 0, frame = 0
 4337              		@ frame_needed = 0, uses_anonymous_args = 0
 4338              		@ link register save eliminated.
 4339 0000 7047     		bx	lr
 4340              		.cfi_endproc
 4341              	.LFE387:
 4342              		.size	chThdQueueObjectDispose, .-chThdQueueObjectDispose
 4343 0002 00BF     		.section	.text.chThdEnqueueTimeoutS,"ax",%progbits
 4344              		.align	1
 4345              		.p2align 4,,15
 4346              		.global	chThdEnqueueTimeoutS
 4347              		.syntax unified
 4348              		.thumb
 4349              		.thumb_func
 4350              		.type	chThdEnqueueTimeoutS, %function
 4351              	chThdEnqueueTimeoutS:
 4352              	.LVL197:
 4353              	.LFB382:
 4354              		.loc 1 1110 73 is_stmt 1 view -0
 4355              		.cfi_startproc
 4356              		@ args = 0, pretend = 0, frame = 0
 4357              		@ frame_needed = 0, uses_anonymous_args = 0
 4358              		@ link register save eliminated.
 4359              		.loc 1 1111 3 view .LVU1489
 4360              	.LBB964:
 4361              	.LBI964:
 4362              		.loc 6 527 25 view .LVU1490
 4363              	.LBB965:
 4364              		.loc 6 529 3 view .LVU1491
 4365              		.loc 6 529 10 is_stmt 0 view .LVU1492
 4366 0000 084A     		ldr	r2, .L141
 4367 0002 D268     		ldr	r2, [r2, #12]
 4368              	.LVL198:
 4369              		.loc 6 529 10 view .LVU1493
 4370              	.LBE965:
 4371              	.LBE964:
 4372              		.loc 1 1113 3 is_stmt 1 view .LVU1494
 4373              		.loc 1 1113 6 is_stmt 0 view .LVU1495
 4374 0004 51B1     		cbz	r1, .L137
 4375 0006 0346     		mov	r3, r0
 4376              		.loc 1 1117 3 is_stmt 1 view .LVU1496
 4377              	.LVL199:
 4378              	.LBB966:
 4379              	.LBI966:
 4380              		.loc 2 322 20 view .LVU1497
 4381              	.LBB967:
 4382              		.loc 2 324 3 view .LVU1498
 4383              	.LBE967:
 4384              	.LBE966:
 4385              		.loc 1 1110 73 is_stmt 0 view .LVU1499
 4386 0008 10B4     		push	{r4}
 4387              		.cfi_def_cfa_offset 4
 4388              		.cfi_offset 4, -4
ARM GAS  C:\Users\DEVELO~1\AppData\Local\Temp\ccUBlV4P.s 			page 78


 4389              	.LBB971:
 4390              	.LBB968:
 4391              		.loc 2 325 21 view .LVU1500
 4392 000a 4468     		ldr	r4, [r0, #4]
 4393              		.loc 2 324 17 view .LVU1501
 4394 000c 1060     		str	r0, [r2]
 4395              		.loc 2 325 3 is_stmt 1 view .LVU1502
 4396              	.LBE968:
 4397              	.LBE971:
 4398              		.loc 1 1119 10 is_stmt 0 view .LVU1503
 4399 000e 0420     		movs	r0, #4
 4400              	.LVL200:
 4401              	.LBB972:
 4402              	.LBB969:
 4403              		.loc 2 325 17 view .LVU1504
 4404 0010 5460     		str	r4, [r2, #4]
 4405              		.loc 2 326 3 is_stmt 1 view .LVU1505
 4406              		.loc 2 326 17 is_stmt 0 view .LVU1506
 4407 0012 2260     		str	r2, [r4]
 4408              		.loc 2 327 3 is_stmt 1 view .LVU1507
 4409              	.LBE969:
 4410              	.LBE972:
 4411              		.loc 1 1120 1 is_stmt 0 view .LVU1508
 4412 0014 10BC     		pop	{r4}
 4413              		.cfi_restore 4
 4414              		.cfi_def_cfa_offset 0
 4415              	.LBB973:
 4416              	.LBB970:
 4417              		.loc 2 327 17 view .LVU1509
 4418 0016 5A60     		str	r2, [r3, #4]
 4419              	.LVL201:
 4420              		.loc 2 327 17 view .LVU1510
 4421              	.LBE970:
 4422              	.LBE973:
 4423              		.loc 1 1119 3 is_stmt 1 view .LVU1511
 4424              		.loc 1 1119 10 is_stmt 0 view .LVU1512
 4425 0018 FFF7FEBF 		b	chSchGoSleepTimeoutS
 4426              	.LVL202:
 4427              	.L137:
 4428              		.loc 1 1120 1 view .LVU1513
 4429 001c 4FF0FF30 		mov	r0, #-1
 4430              	.LVL203:
 4431              		.loc 1 1120 1 view .LVU1514
 4432 0020 7047     		bx	lr
 4433              	.L142:
 4434 0022 00BF     		.align	2
 4435              	.L141:
 4436 0024 00000000 		.word	ch0
 4437              		.cfi_endproc
 4438              	.LFE382:
 4439              		.size	chThdEnqueueTimeoutS, .-chThdEnqueueTimeoutS
 4440              		.section	.text.chThdDequeueNextI,"ax",%progbits
 4441              		.align	1
 4442              		.p2align 4,,15
 4443              		.global	chThdDequeueNextI
 4444              		.syntax unified
 4445              		.thumb
ARM GAS  C:\Users\DEVELO~1\AppData\Local\Temp\ccUBlV4P.s 			page 79


 4446              		.thumb_func
 4447              		.type	chThdDequeueNextI, %function
 4448              	chThdDequeueNextI:
 4449              	.LVL204:
 4450              	.LFB383:
 4451              		.loc 1 1131 57 is_stmt 1 view -0
 4452              		.cfi_startproc
 4453              		@ args = 0, pretend = 0, frame = 0
 4454              		@ frame_needed = 0, uses_anonymous_args = 0
 4455              		@ link register save eliminated.
 4456              		.loc 1 1133 3 view .LVU1516
 4457              		.loc 1 1131 57 is_stmt 0 view .LVU1517
 4458 0000 0346     		mov	r3, r0
 4459              	.LVL205:
 4460              	.LBB974:
 4461              	.LBI974:
 4462              		.loc 2 309 20 is_stmt 1 view .LVU1518
 4463              	.LBB975:
 4464              		.loc 2 311 3 view .LVU1519
 4465              		.loc 2 311 19 is_stmt 0 view .LVU1520
 4466 0002 0068     		ldr	r0, [r0]
 4467              	.LVL206:
 4468              		.loc 2 311 19 view .LVU1521
 4469              	.LBE975:
 4470              	.LBE974:
 4471              		.loc 1 1133 6 view .LVU1522
 4472 0004 8342     		cmp	r3, r0
 4473 0006 05D0     		beq	.L143
 4474              		.loc 1 1134 5 is_stmt 1 view .LVU1523
 4475              	.LVL207:
 4476              	.LBB976:
 4477              	.LBI976:
 4478              		.loc 6 664 20 view .LVU1524
 4479              	.LBB977:
 4480              		.loc 6 665 3 view .LVU1525
 4481              		.loc 6 667 3 view .LVU1526
 4482              		.loc 6 667 3 view .LVU1527
 4483              		.loc 6 667 3 view .LVU1528
 4484              		.loc 6 669 3 view .LVU1529
 4485              	.LBB978:
 4486              	.LBI978:
 4487              		.loc 2 340 27 view .LVU1530
 4488              	.LBB979:
 4489              		.loc 2 341 3 view .LVU1531
 4490              		.loc 2 343 3 view .LVU1532
 4491              		.loc 2 343 21 is_stmt 0 view .LVU1533
 4492 0008 0268     		ldr	r2, [r0]
 4493              		.loc 2 343 18 view .LVU1534
 4494 000a 1A60     		str	r2, [r3]
 4495              		.loc 2 344 3 is_stmt 1 view .LVU1535
 4496              		.loc 2 344 18 is_stmt 0 view .LVU1536
 4497 000c 5360     		str	r3, [r2, #4]
 4498              		.loc 2 346 3 is_stmt 1 view .LVU1537
 4499              	.LVL208:
 4500              		.loc 2 346 3 is_stmt 0 view .LVU1538
 4501              	.LBE979:
 4502              	.LBE978:
ARM GAS  C:\Users\DEVELO~1\AppData\Local\Temp\ccUBlV4P.s 			page 80


 4503              		.loc 6 671 3 is_stmt 1 view .LVU1539
 4504              		.loc 6 671 3 view .LVU1540
 4505              		.loc 6 671 3 view .LVU1541
 4506              		.loc 6 673 3 view .LVU1542
 4507              		.loc 6 673 16 is_stmt 0 view .LVU1543
 4508 000e 4163     		str	r1, [r0, #52]
 4509              		.loc 6 674 3 is_stmt 1 view .LVU1544
 4510              		.loc 6 674 10 is_stmt 0 view .LVU1545
 4511 0010 FFF7FEBF 		b	chSchReadyI
 4512              	.LVL209:
 4513              	.L143:
 4514              		.loc 6 674 10 view .LVU1546
 4515              	.LBE977:
 4516              	.LBE976:
 4517              		.loc 1 1136 1 view .LVU1547
 4518 0014 7047     		bx	lr
 4519              		.cfi_endproc
 4520              	.LFE383:
 4521              		.size	chThdDequeueNextI, .-chThdDequeueNextI
 4522 0016 00BF     		.section	.text.chThdDequeueAllI,"ax",%progbits
 4523              		.align	1
 4524              		.p2align 4,,15
 4525              		.global	chThdDequeueAllI
 4526              		.syntax unified
 4527              		.thumb
 4528              		.thumb_func
 4529              		.type	chThdDequeueAllI, %function
 4530              	chThdDequeueAllI:
 4531              	.LVL210:
 4532              	.LFB384:
 4533              		.loc 1 1146 56 is_stmt 1 view -0
 4534              		.cfi_startproc
 4535              		@ args = 0, pretend = 0, frame = 0
 4536              		@ frame_needed = 0, uses_anonymous_args = 0
 4537              		.loc 1 1148 3 view .LVU1549
 4538              		.loc 1 1148 10 view .LVU1550
 4539              		.loc 1 1146 56 is_stmt 0 view .LVU1551
 4540 0000 38B5     		push	{r3, r4, r5, lr}
 4541              		.cfi_def_cfa_offset 16
 4542              		.cfi_offset 3, -16
 4543              		.cfi_offset 4, -12
 4544              		.cfi_offset 5, -8
 4545              		.cfi_offset 14, -4
 4546              		.loc 1 1146 56 view .LVU1552
 4547 0002 0446     		mov	r4, r0
 4548              	.LVL211:
 4549              	.LBB980:
 4550              	.LBI980:
 4551              		.loc 2 309 20 is_stmt 1 view .LVU1553
 4552              	.LBB981:
 4553              		.loc 2 311 3 view .LVU1554
 4554              		.loc 2 311 19 is_stmt 0 view .LVU1555
 4555 0004 0068     		ldr	r0, [r0]
 4556              	.LVL212:
 4557              		.loc 2 311 19 view .LVU1556
 4558              	.LBE981:
 4559              	.LBE980:
ARM GAS  C:\Users\DEVELO~1\AppData\Local\Temp\ccUBlV4P.s 			page 81


 4560              		.loc 1 1148 10 view .LVU1557
 4561 0006 A042     		cmp	r0, r4
 4562 0008 09D0     		beq	.L145
 4563 000a 0D46     		mov	r5, r1
 4564              	.LVL213:
 4565              	.L147:
 4566              		.loc 1 1149 5 is_stmt 1 view .LVU1558
 4567              	.LBB983:
 4568              	.LBI983:
 4569              		.loc 6 664 20 view .LVU1559
 4570              	.LBB984:
 4571              		.loc 6 665 3 view .LVU1560
 4572              		.loc 6 667 3 view .LVU1561
 4573              		.loc 6 667 3 view .LVU1562
 4574              		.loc 6 667 3 view .LVU1563
 4575              		.loc 6 669 3 view .LVU1564
 4576              	.LBB985:
 4577              	.LBI985:
 4578              		.loc 2 340 27 view .LVU1565
 4579              	.LBB986:
 4580              		.loc 2 341 3 view .LVU1566
 4581              		.loc 2 343 3 view .LVU1567
 4582              		.loc 2 343 21 is_stmt 0 view .LVU1568
 4583 000c 0368     		ldr	r3, [r0]
 4584              		.loc 2 343 18 view .LVU1569
 4585 000e 2360     		str	r3, [r4]
 4586              		.loc 2 344 3 is_stmt 1 view .LVU1570
 4587              		.loc 2 344 18 is_stmt 0 view .LVU1571
 4588 0010 5C60     		str	r4, [r3, #4]
 4589              		.loc 2 346 3 is_stmt 1 view .LVU1572
 4590              	.LVL214:
 4591              		.loc 2 346 3 is_stmt 0 view .LVU1573
 4592              	.LBE986:
 4593              	.LBE985:
 4594              		.loc 6 671 3 is_stmt 1 view .LVU1574
 4595              		.loc 6 671 3 view .LVU1575
 4596              		.loc 6 671 3 view .LVU1576
 4597              		.loc 6 673 3 view .LVU1577
 4598              		.loc 6 673 16 is_stmt 0 view .LVU1578
 4599 0012 4563     		str	r5, [r0, #52]
 4600              		.loc 6 674 3 is_stmt 1 view .LVU1579
 4601              		.loc 6 674 10 is_stmt 0 view .LVU1580
 4602 0014 FFF7FEFF 		bl	chSchReadyI
 4603              	.LVL215:
 4604              		.loc 6 674 10 view .LVU1581
 4605              	.LBE984:
 4606              	.LBE983:
 4607              		.loc 1 1148 10 is_stmt 1 view .LVU1582
 4608              	.LBB987:
 4609              		.loc 2 309 20 view .LVU1583
 4610              	.LBB982:
 4611              		.loc 2 311 3 view .LVU1584
 4612              		.loc 2 311 19 is_stmt 0 view .LVU1585
 4613 0018 2068     		ldr	r0, [r4]
 4614              	.LVL216:
 4615              		.loc 2 311 19 view .LVU1586
 4616              	.LBE982:
ARM GAS  C:\Users\DEVELO~1\AppData\Local\Temp\ccUBlV4P.s 			page 82


 4617              	.LBE987:
 4618              		.loc 1 1148 10 view .LVU1587
 4619 001a A042     		cmp	r0, r4
 4620 001c F6D1     		bne	.L147
 4621              	.LVL217:
 4622              	.L145:
 4623              		.loc 1 1151 1 view .LVU1588
 4624 001e 38BD     		pop	{r3, r4, r5, pc}
 4625              		.loc 1 1151 1 view .LVU1589
 4626              		.cfi_endproc
 4627              	.LFE384:
 4628              		.size	chThdDequeueAllI, .-chThdDequeueAllI
 4629              		.text
 4630              	.Letext0:
 4631              		.file 10 "c:\\chibistudio\\tools\\gnu tools arm embedded\\11.3 2022.08\\lib\\gcc\\arm-none-eabi\\1
 4632              		.file 11 "c:\\chibistudio\\tools\\gnu tools arm embedded\\11.3 2022.08\\arm-none-eabi\\include\\ma
 4633              		.file 12 "c:\\chibistudio\\tools\\gnu tools arm embedded\\11.3 2022.08\\arm-none-eabi\\include\\sy
 4634              		.file 13 "./ChibiOS/os/common/ports/ARM-common/include/chtypes.h"
 4635              		.file 14 "./ChibiOS/os/rt/include/chearly.h"
 4636              		.file 15 "./ChibiOS/os/rt/include/chobjects.h"
 4637              		.file 16 "./ChibiOS/os/rt/include/chrfcu.h"
 4638              		.file 17 "./ChibiOS/os/rt/include/chdebug.h"
 4639              		.file 18 "./ChibiOS/os/rt/include/chtrace.h"
 4640              		.file 19 "./ChibiOS/os/rt/include/chsem.h"
 4641              		.file 20 "./ChibiOS/os/rt/include/chmtx.h"
 4642              		.file 21 "./ChibiOS/os/rt/include/chschd.h"