ARM GAS  C:\Users\DEVELO~1\AppData\Local\Temp\ccUfc5lX.s 			page 1


   1              		.cpu cortex-m7
   2              		.arch armv7e-m
   3              		.fpu softvfp
   4              		.eabi_attribute 20, 1
   5              		.eabi_attribute 21, 1
   6              		.eabi_attribute 23, 3
   7              		.eabi_attribute 24, 1
   8              		.eabi_attribute 25, 1
   9              		.eabi_attribute 26, 1
  10              		.eabi_attribute 30, 2
  11              		.eabi_attribute 34, 1
  12              		.eabi_attribute 18, 4
  13              		.file	"chtm.c"
  14              		.text
  15              	.Ltext0:
  16              		.cfi_sections	.debug_frame
  17              		.section	.text.chTMObjectInit,"ax",%progbits
  18              		.align	1
  19              		.p2align 4,,15
  20              		.global	chTMObjectInit
  21              		.syntax unified
  22              		.thumb
  23              		.thumb_func
  24              		.type	chTMObjectInit, %function
  25              	chTMObjectInit:
  26              	.LVL0:
  27              	.LFB353:
  28              		.file 1 "./ChibiOS/os/rt/src/chtm.c"
  29              		.loc 1 81 46 view -0
  30              		.cfi_startproc
  31              		@ args = 0, pretend = 0, frame = 0
  32              		@ frame_needed = 0, uses_anonymous_args = 0
  33              		@ link register save eliminated.
  34              		.loc 1 83 3 view .LVU1
  35              		.loc 1 81 46 is_stmt 0 view .LVU2
  36 0000 30B4     		push	{r4, r5}
  37              		.cfi_def_cfa_offset 8
  38              		.cfi_offset 4, -8
  39              		.cfi_offset 5, -4
  40              		.loc 1 84 19 view .LVU3
  41 0002 0023     		movs	r3, #0
  42              		.loc 1 87 19 view .LVU4
  43 0004 0024     		movs	r4, #0
  44 0006 0025     		movs	r5, #0
  45              		.loc 1 83 19 view .LVU5
  46 0008 4FF0FF32 		mov	r2, #-1
  47              		.loc 1 87 19 view .LVU6
  48 000c C0E90445 		strd	r4, [r0, #16]
  49              		.loc 1 84 19 view .LVU7
  50 0010 C0E90023 		strd	r2, r3, [r0]
  51              		.loc 1 85 3 is_stmt 1 view .LVU8
  52              		.loc 1 88 1 is_stmt 0 view .LVU9
  53 0014 30BC     		pop	{r4, r5}
  54              		.cfi_restore 5
  55              		.cfi_restore 4
  56              		.cfi_def_cfa_offset 0
  57              		.loc 1 86 19 view .LVU10
ARM GAS  C:\Users\DEVELO~1\AppData\Local\Temp\ccUfc5lX.s 			page 2


  58 0016 C0E90233 		strd	r3, r3, [r0, #8]
  59              		.loc 1 87 3 is_stmt 1 view .LVU11
  60              		.loc 1 88 1 is_stmt 0 view .LVU12
  61 001a 7047     		bx	lr
  62              		.cfi_endproc
  63              	.LFE353:
  64              		.size	chTMObjectInit, .-chTMObjectInit
  65              		.section	.text.chTMObjectDispose,"ax",%progbits
  66              		.align	1
  67              		.p2align 4,,15
  68              		.global	chTMObjectDispose
  69              		.syntax unified
  70              		.thumb
  71              		.thumb_func
  72              		.type	chTMObjectDispose, %function
  73              	chTMObjectDispose:
  74              	.LVL1:
  75              	.LFB354:
  76              		.loc 1 105 49 is_stmt 1 view -0
  77              		.cfi_startproc
  78              		@ args = 0, pretend = 0, frame = 0
  79              		@ frame_needed = 0, uses_anonymous_args = 0
  80              		@ link register save eliminated.
  81              		.loc 1 107 3 view .LVU14
  82              		.loc 1 107 3 view .LVU15
  83              		.loc 1 107 3 view .LVU16
  84              		.loc 1 112 1 is_stmt 0 view .LVU17
  85 0000 7047     		bx	lr
  86              		.cfi_endproc
  87              	.LFE354:
  88              		.size	chTMObjectDispose, .-chTMObjectDispose
  89 0002 00BF     		.section	.text.chTMStartMeasurementX,"ax",%progbits
  90              		.align	1
  91              		.p2align 4,,15
  92              		.global	chTMStartMeasurementX
  93              		.syntax unified
  94              		.thumb
  95              		.thumb_func
  96              		.type	chTMStartMeasurementX, %function
  97              	chTMStartMeasurementX:
  98              	.LVL2:
  99              	.LFB355:
 100              		.loc 1 122 62 is_stmt 1 view -0
 101              		.cfi_startproc
 102              		@ args = 0, pretend = 0, frame = 0
 103              		@ frame_needed = 0, uses_anonymous_args = 0
 104              		@ link register save eliminated.
 105              		.loc 1 124 3 view .LVU19
 106              	.LBB8:
 107              	.LBI8:
 108              		.file 2 "./ChibiOS/os/common/ports/ARMv7-M/chcore.h"
 109              		.loc 2 952 30 view .LVU20
 110              	.LBB9:
 111              		.loc 2 954 3 view .LVU21
 112              		.loc 2 954 13 is_stmt 0 view .LVU22
 113 0000 014B     		ldr	r3, .L6
 114 0002 5B68     		ldr	r3, [r3, #4]
ARM GAS  C:\Users\DEVELO~1\AppData\Local\Temp\ccUfc5lX.s 			page 3


 115              	.LBE9:
 116              	.LBE8:
 117              		.loc 1 124 13 view .LVU23
 118 0004 8360     		str	r3, [r0, #8]
 119              		.loc 1 125 1 view .LVU24
 120 0006 7047     		bx	lr
 121              	.L7:
 122              		.align	2
 123              	.L6:
 124 0008 001000E0 		.word	-536866816
 125              		.cfi_endproc
 126              	.LFE355:
 127              		.size	chTMStartMeasurementX, .-chTMStartMeasurementX
 128              		.section	.text.chTMStopMeasurementX,"ax",%progbits
 129              		.align	1
 130              		.p2align 4,,15
 131              		.global	chTMStopMeasurementX
 132              		.syntax unified
 133              		.thumb
 134              		.thumb_func
 135              		.type	chTMStopMeasurementX, %function
 136              	chTMStopMeasurementX:
 137              	.LVL3:
 138              	.LFB356:
 139              		.loc 1 135 61 is_stmt 1 view -0
 140              		.cfi_startproc
 141              		@ args = 0, pretend = 0, frame = 0
 142              		@ frame_needed = 0, uses_anonymous_args = 0
 143              		@ link register save eliminated.
 144              		.loc 1 137 3 view .LVU26
 145              	.LBB14:
 146              	.LBI14:
 147              		.loc 2 952 30 view .LVU27
 148              	.LBB15:
 149              		.loc 2 954 3 view .LVU28
 150              	.LBE15:
 151              	.LBE14:
 152              		.loc 1 137 3 is_stmt 0 view .LVU29
 153 0000 0E4A     		ldr	r2, .L12
 154              	.LBB18:
 155              	.LBB16:
 156              		.loc 2 954 13 view .LVU30
 157 0002 0F4B     		ldr	r3, .L12+4
 158              	.LBE16:
 159              	.LBE18:
 160              	.LBB19:
 161              	.LBB20:
 162              		.loc 1 60 33 view .LVU31
 163 0004 8168     		ldr	r1, [r0, #8]
 164              	.LBE20:
 165              	.LBE19:
 166              	.LBB22:
 167              	.LBB17:
 168              		.loc 2 954 13 view .LVU32
 169 0006 5B68     		ldr	r3, [r3, #4]
 170              	.LBE17:
 171              	.LBE22:
ARM GAS  C:\Users\DEVELO~1\AppData\Local\Temp\ccUfc5lX.s 			page 4


 172              		.loc 1 135 61 view .LVU33
 173 0008 10B4     		push	{r4}
 174              		.cfi_def_cfa_offset 4
 175              		.cfi_offset 4, -4
 176              		.loc 1 137 3 view .LVU34
 177 000a 9468     		ldr	r4, [r2, #8]
 178              	.LVL4:
 179              	.LBB23:
 180              	.LBI19:
 181              		.loc 1 55 20 is_stmt 1 view .LVU35
 182              	.LBB21:
 183              		.loc 1 59 3 view .LVU36
 184              		.loc 1 61 19 is_stmt 0 view .LVU37
 185 000c 0269     		ldr	r2, [r0, #16]
 186              		.loc 1 60 33 view .LVU38
 187 000e 1B1B     		subs	r3, r3, r4
 188              	.LVL5:
 189              		.loc 1 59 9 view .LVU39
 190 0010 C468     		ldr	r4, [r0, #12]
 191              	.LVL6:
 192              		.loc 1 60 33 view .LVU40
 193 0012 5B1A     		subs	r3, r3, r1
 194              		.loc 1 61 19 view .LVU41
 195 0014 4169     		ldr	r1, [r0, #20]
 196              		.loc 1 59 9 view .LVU42
 197 0016 0134     		adds	r4, r4, #1
 198              		.loc 1 61 19 view .LVU43
 199 0018 D218     		adds	r2, r2, r3
 200 001a 0261     		str	r2, [r0, #16]
 201 001c 41F10001 		adc	r1, r1, #0
 202              		.loc 1 62 6 view .LVU44
 203 0020 4268     		ldr	r2, [r0, #4]
 204              		.loc 1 61 19 view .LVU45
 205 0022 4161     		str	r1, [r0, #20]
 206              		.loc 1 62 6 view .LVU46
 207 0024 9342     		cmp	r3, r2
 208              		.loc 1 65 6 view .LVU47
 209 0026 0268     		ldr	r2, [r0]
 210              		.loc 1 63 16 view .LVU48
 211 0028 88BF     		it	hi
 212 002a 4360     		strhi	r3, [r0, #4]
 213              		.loc 1 65 6 view .LVU49
 214 002c 9342     		cmp	r3, r2
 215              		.loc 1 59 9 view .LVU50
 216 002e C0E90234 		strd	r3, r4, [r0, #8]
 217              		.loc 1 60 3 is_stmt 1 view .LVU51
 218              		.loc 1 61 3 view .LVU52
 219              		.loc 1 62 3 view .LVU53
 220              		.loc 1 63 5 view .LVU54
 221              		.loc 1 65 3 view .LVU55
 222              		.loc 1 66 5 view .LVU56
 223              		.loc 1 66 15 is_stmt 0 view .LVU57
 224 0032 38BF     		it	cc
 225 0034 0360     		strcc	r3, [r0]
 226              	.LVL7:
 227              		.loc 1 66 15 view .LVU58
 228              	.LBE21:
ARM GAS  C:\Users\DEVELO~1\AppData\Local\Temp\ccUfc5lX.s 			page 5


 229              	.LBE23:
 230              		.loc 1 138 1 view .LVU59
 231 0036 10BC     		pop	{r4}
 232              		.cfi_restore 4
 233              		.cfi_def_cfa_offset 0
 234 0038 7047     		bx	lr
 235              	.L13:
 236 003a 00BF     		.align	2
 237              	.L12:
 238 003c 00000000 		.word	ch_system
 239 0040 001000E0 		.word	-536866816
 240              		.cfi_endproc
 241              	.LFE356:
 242              		.size	chTMStopMeasurementX, .-chTMStopMeasurementX
 243              		.section	.text.chTMChainMeasurementToX,"ax",%progbits
 244              		.align	1
 245              		.p2align 4,,15
 246              		.global	chTMChainMeasurementToX
 247              		.syntax unified
 248              		.thumb
 249              		.thumb_func
 250              		.type	chTMChainMeasurementToX, %function
 251              	chTMChainMeasurementToX:
 252              	.LVL8:
 253              	.LFB357:
 254              		.loc 1 153 65 is_stmt 1 view -0
 255              		.cfi_startproc
 256              		@ args = 0, pretend = 0, frame = 0
 257              		@ frame_needed = 0, uses_anonymous_args = 0
 258              		@ link register save eliminated.
 259              		.loc 1 156 3 view .LVU61
 260              	.LBB28:
 261              	.LBI28:
 262              		.loc 2 952 30 view .LVU62
 263              	.LBB29:
 264              		.loc 2 954 3 view .LVU63
 265              		.loc 2 954 13 is_stmt 0 view .LVU64
 266 0000 0D4B     		ldr	r3, .L18
 267              	.LBE29:
 268              	.LBE28:
 269              		.loc 1 153 65 view .LVU65
 270 0002 30B4     		push	{r4, r5}
 271              		.cfi_def_cfa_offset 8
 272              		.cfi_offset 4, -8
 273              		.cfi_offset 5, -4
 274              	.LBB31:
 275              	.LBB30:
 276              		.loc 2 954 13 view .LVU66
 277 0004 5D68     		ldr	r5, [r3, #4]
 278              	.LVL9:
 279              		.loc 2 954 13 view .LVU67
 280              	.LBE30:
 281              	.LBE31:
 282              		.loc 1 160 3 is_stmt 1 view .LVU68
 283              	.LBB32:
 284              	.LBI32:
 285              		.loc 1 55 20 view .LVU69
ARM GAS  C:\Users\DEVELO~1\AppData\Local\Temp\ccUfc5lX.s 			page 6


 286              	.LBB33:
 287              		.loc 1 59 3 view .LVU70
 288              		.loc 1 60 20 is_stmt 0 view .LVU71
 289 0006 8368     		ldr	r3, [r0, #8]
 290              		.loc 1 59 9 view .LVU72
 291 0008 D0E90342 		ldrd	r4, r2, [r0, #12]
 292              		.loc 1 60 20 view .LVU73
 293 000c EB1A     		subs	r3, r5, r3
 294              		.loc 1 59 9 view .LVU74
 295 000e 0134     		adds	r4, r4, #1
 296              		.loc 1 61 19 view .LVU75
 297 0010 D218     		adds	r2, r2, r3
 298              		.loc 1 60 13 view .LVU76
 299 0012 8360     		str	r3, [r0, #8]
 300              		.loc 1 59 9 view .LVU77
 301 0014 C460     		str	r4, [r0, #12]
 302              		.loc 1 60 3 is_stmt 1 view .LVU78
 303              		.loc 1 61 3 view .LVU79
 304              		.loc 1 61 19 is_stmt 0 view .LVU80
 305 0016 0261     		str	r2, [r0, #16]
 306 0018 4269     		ldr	r2, [r0, #20]
 307              		.loc 1 62 6 view .LVU81
 308 001a 4468     		ldr	r4, [r0, #4]
 309              		.loc 1 61 19 view .LVU82
 310 001c 42F10002 		adc	r2, r2, #0
 311              		.loc 1 62 6 view .LVU83
 312 0020 A342     		cmp	r3, r4
 313              		.loc 1 61 19 view .LVU84
 314 0022 4261     		str	r2, [r0, #20]
 315              		.loc 1 62 3 is_stmt 1 view .LVU85
 316              		.loc 1 63 5 view .LVU86
 317              		.loc 1 65 6 is_stmt 0 view .LVU87
 318 0024 0268     		ldr	r2, [r0]
 319              		.loc 1 63 16 view .LVU88
 320 0026 88BF     		it	hi
 321 0028 4360     		strhi	r3, [r0, #4]
 322              		.loc 1 65 3 is_stmt 1 view .LVU89
 323              		.loc 1 65 6 is_stmt 0 view .LVU90
 324 002a 9342     		cmp	r3, r2
 325              		.loc 1 66 5 is_stmt 1 view .LVU91
 326              		.loc 1 66 15 is_stmt 0 view .LVU92
 327 002c 38BF     		it	cc
 328 002e 0360     		strcc	r3, [r0]
 329              	.LVL10:
 330              		.loc 1 66 15 view .LVU93
 331              	.LBE33:
 332              	.LBE32:
 333              		.loc 1 161 3 is_stmt 1 view .LVU94
 334              		.loc 1 161 14 is_stmt 0 view .LVU95
 335 0030 8D60     		str	r5, [r1, #8]
 336              		.loc 1 162 1 view .LVU96
 337 0032 30BC     		pop	{r4, r5}
 338              		.cfi_restore 5
 339              		.cfi_restore 4
 340              		.cfi_def_cfa_offset 0
 341              	.LVL11:
 342              		.loc 1 162 1 view .LVU97
ARM GAS  C:\Users\DEVELO~1\AppData\Local\Temp\ccUfc5lX.s 			page 7


 343 0034 7047     		bx	lr
 344              	.L19:
 345 0036 00BF     		.align	2
 346              	.L18:
 347 0038 001000E0 		.word	-536866816
 348              		.cfi_endproc
 349              	.LFE357:
 350              		.size	chTMChainMeasurementToX, .-chTMChainMeasurementToX
 351              		.text
 352              	.Letext0:
 353              		.file 3 "c:\\chibistudio\\tools\\gnu tools arm embedded\\11.3 2022.08\\arm-none-eabi\\include\\mac
 354              		.file 4 "c:\\chibistudio\\tools\\gnu tools arm embedded\\11.3 2022.08\\arm-none-eabi\\include\\sys
 355              		.file 5 "./ChibiOS/os/common/ports/ARM-common/include/chtypes.h"
 356              		.file 6 "./ChibiOS/os/rt/include/chearly.h"
 357              		.file 7 "./ChibiOS/os/rt/include/chobjects.h"
 358              		.file 8 "./ChibiOS/os/rt/include/chrfcu.h"
 359              		.file 9 "./ChibiOS/os/rt/include/chdebug.h"
 360              		.file 10 "./ChibiOS/os/rt/include/chtime.h"
 361              		.file 11 "./ChibiOS/os/rt/include/chtrace.h"
 362              		.file 12 "./ChibiOS/os/common/ext/ARM/CMSIS/Core/Include/core_cm7.h"
 363              		.file 13 "./ChibiOS/os/rt/include/chlists.h"
 364              		.file 14 "./ChibiOS/os/rt/include/chtm.h"
 365              		.file 15 "./ChibiOS/os/rt/include/chsem.h"
 366              		.file 16 "./ChibiOS/os/rt/include/chmtx.h"
 367              		.file 17 "./ChibiOS/os/rt/include/chsys.h"
 368              		.section	.debug_info,"",%progbits
 369              	.Ldebug_info0:
 370 0000 FF0D0000 		.4byte	0xdff
 371 0004 0500     		.2byte	0x5
 372 0006 01       		.byte	0x1
 373 0007 04       		.byte	0x4
 374 0008 00000000 		.4byte	.Ldebug_abbrev0
 375 000c 1D       		.uleb128 0x1d
 376 000d F0020000 		.4byte	.LASF179
 377 0011 1D       		.byte	0x1d
 378 0012 51050000 		.4byte	.LASF180
 379 0016 D1010000 		.4byte	.LASF181
 380 001a 33000000 		.4byte	.LLRL10
 381 001e 00000000 		.4byte	0
 382 0022 00000000 		.4byte	.Ldebug_line0
 383 0026 1E       		.uleb128 0x1e
 384 0027 04       		.byte	0x4
 385 0028 05       		.byte	0x5
 386 0029 696E7400 		.ascii	"int\000"
 387 002d 06       		.uleb128 0x6
 388 002e 04       		.byte	0x4
 389 002f 07       		.byte	0x7
 390 0030 21050000 		.4byte	.LASF0
 391 0034 06       		.uleb128 0x6
 392 0035 08       		.byte	0x8
 393 0036 05       		.byte	0x5
 394 0037 19010000 		.4byte	.LASF1
 395 003b 06       		.uleb128 0x6
 396 003c 08       		.byte	0x8
 397 003d 04       		.byte	0x4
 398 003e D0060000 		.4byte	.LASF2
 399 0042 06       		.uleb128 0x6
ARM GAS  C:\Users\DEVELO~1\AppData\Local\Temp\ccUfc5lX.s 			page 8


 400 0043 01       		.byte	0x1
 401 0044 06       		.byte	0x6
 402 0045 27010000 		.4byte	.LASF3
 403 0049 02       		.uleb128 0x2
 404 004a 35000000 		.4byte	.LASF6
 405 004e 03       		.byte	0x3
 406 004f 2B       		.byte	0x2b
 407 0050 18       		.byte	0x18
 408 0051 55000000 		.4byte	0x55
 409 0055 06       		.uleb128 0x6
 410 0056 01       		.byte	0x1
 411 0057 08       		.byte	0x8
 412 0058 0E060000 		.4byte	.LASF4
 413 005c 06       		.uleb128 0x6
 414 005d 02       		.byte	0x2
 415 005e 05       		.byte	0x5
 416 005f 44060000 		.4byte	.LASF5
 417 0063 02       		.uleb128 0x2
 418 0064 FD060000 		.4byte	.LASF7
 419 0068 03       		.byte	0x3
 420 0069 39       		.byte	0x39
 421 006a 19       		.byte	0x19
 422 006b 6F000000 		.4byte	0x6f
 423 006f 06       		.uleb128 0x6
 424 0070 02       		.byte	0x2
 425 0071 07       		.byte	0x7
 426 0072 C6030000 		.4byte	.LASF8
 427 0076 02       		.uleb128 0x2
 428 0077 3B040000 		.4byte	.LASF9
 429 007b 03       		.byte	0x3
 430 007c 4D       		.byte	0x4d
 431 007d 18       		.byte	0x18
 432 007e 82000000 		.4byte	0x82
 433 0082 06       		.uleb128 0x6
 434 0083 04       		.byte	0x4
 435 0084 05       		.byte	0x5
 436 0085 57000000 		.4byte	.LASF10
 437 0089 02       		.uleb128 0x2
 438 008a 20020000 		.4byte	.LASF11
 439 008e 03       		.byte	0x3
 440 008f 4F       		.byte	0x4f
 441 0090 19       		.byte	0x19
 442 0091 95000000 		.4byte	0x95
 443 0095 06       		.uleb128 0x6
 444 0096 04       		.byte	0x4
 445 0097 07       		.byte	0x7
 446 0098 CC020000 		.4byte	.LASF12
 447 009c 02       		.uleb128 0x2
 448 009d 98050000 		.4byte	.LASF13
 449 00a1 03       		.byte	0x3
 450 00a2 69       		.byte	0x69
 451 00a3 19       		.byte	0x19
 452 00a4 A8000000 		.4byte	0xa8
 453 00a8 06       		.uleb128 0x6
 454 00a9 08       		.byte	0x8
 455 00aa 07       		.byte	0x7
 456 00ab 96010000 		.4byte	.LASF14
ARM GAS  C:\Users\DEVELO~1\AppData\Local\Temp\ccUfc5lX.s 			page 9


 457 00af 1F       		.uleb128 0x1f
 458 00b0 04       		.byte	0x4
 459 00b1 06       		.uleb128 0x6
 460 00b2 01       		.byte	0x1
 461 00b3 08       		.byte	0x8
 462 00b4 E3060000 		.4byte	.LASF15
 463 00b8 10       		.uleb128 0x10
 464 00b9 B1000000 		.4byte	0xb1
 465 00bd 04       		.uleb128 0x4
 466 00be B8000000 		.4byte	0xb8
 467 00c2 11       		.uleb128 0x11
 468 00c3 BD000000 		.4byte	0xbd
 469 00c7 02       		.uleb128 0x2
 470 00c8 DC070000 		.4byte	.LASF16
 471 00cc 04       		.byte	0x4
 472 00cd 18       		.byte	0x18
 473 00ce 13       		.byte	0x13
 474 00cf 49000000 		.4byte	0x49
 475 00d3 02       		.uleb128 0x2
 476 00d4 8D010000 		.4byte	.LASF17
 477 00d8 04       		.byte	0x4
 478 00d9 24       		.byte	0x24
 479 00da 14       		.byte	0x14
 480 00db 63000000 		.4byte	0x63
 481 00df 02       		.uleb128 0x2
 482 00e0 06060000 		.4byte	.LASF18
 483 00e4 04       		.byte	0x4
 484 00e5 2C       		.byte	0x2c
 485 00e6 13       		.byte	0x13
 486 00e7 76000000 		.4byte	0x76
 487 00eb 02       		.uleb128 0x2
 488 00ec A8060000 		.4byte	.LASF19
 489 00f0 04       		.byte	0x4
 490 00f1 30       		.byte	0x30
 491 00f2 14       		.byte	0x14
 492 00f3 89000000 		.4byte	0x89
 493 00f7 11       		.uleb128 0x11
 494 00f8 EB000000 		.4byte	0xeb
 495 00fc 10       		.uleb128 0x10
 496 00fd F7000000 		.4byte	0xf7
 497 0101 02       		.uleb128 0x2
 498 0102 18050000 		.4byte	.LASF20
 499 0106 04       		.byte	0x4
 500 0107 3C       		.byte	0x3c
 501 0108 14       		.byte	0x14
 502 0109 9C000000 		.4byte	0x9c
 503 010d 11       		.uleb128 0x11
 504 010e 01010000 		.4byte	0x101
 505 0112 02       		.uleb128 0x2
 506 0113 0B050000 		.4byte	.LASF21
 507 0117 05       		.byte	0x5
 508 0118 36       		.byte	0x36
 509 0119 1D       		.byte	0x1d
 510 011a EB000000 		.4byte	0xeb
 511 011e 02       		.uleb128 0x2
 512 011f EA070000 		.4byte	.LASF22
 513 0123 05       		.byte	0x5
ARM GAS  C:\Users\DEVELO~1\AppData\Local\Temp\ccUfc5lX.s 			page 10


 514 0124 3B       		.byte	0x3b
 515 0125 1D       		.byte	0x1d
 516 0126 01010000 		.4byte	0x101
 517 012a 02       		.uleb128 0x2
 518 012b B8000000 		.4byte	.LASF23
 519 012f 05       		.byte	0x5
 520 0130 48       		.byte	0x48
 521 0131 1D       		.byte	0x1d
 522 0132 01010000 		.4byte	0x101
 523 0136 02       		.uleb128 0x2
 524 0137 A8040000 		.4byte	.LASF24
 525 013b 06       		.byte	0x6
 526 013c 4D       		.byte	0x4d
 527 013d 19       		.byte	0x19
 528 013e 12010000 		.4byte	0x112
 529 0142 02       		.uleb128 0x2
 530 0143 05000000 		.4byte	.LASF25
 531 0147 06       		.byte	0x6
 532 0148 4E       		.byte	0x4e
 533 0149 19       		.byte	0x19
 534 014a 1E010000 		.4byte	0x11e
 535 014e 02       		.uleb128 0x2
 536 014f 69010000 		.4byte	.LASF26
 537 0153 06       		.byte	0x6
 538 0154 50       		.byte	0x50
 539 0155 19       		.byte	0x19
 540 0156 2A010000 		.4byte	0x12a
 541 015a 02       		.uleb128 0x2
 542 015b 11040000 		.4byte	.LASF27
 543 015f 06       		.byte	0x6
 544 0160 53       		.byte	0x53
 545 0161 19       		.byte	0x19
 546 0162 C7000000 		.4byte	0xc7
 547 0166 02       		.uleb128 0x2
 548 0167 73010000 		.4byte	.LASF28
 549 016b 06       		.byte	0x6
 550 016c 54       		.byte	0x54
 551 016d 19       		.byte	0x19
 552 016e C7000000 		.4byte	0xc7
 553 0172 02       		.uleb128 0x2
 554 0173 C2050000 		.4byte	.LASF29
 555 0177 06       		.byte	0x6
 556 0178 55       		.byte	0x55
 557 0179 19       		.byte	0x19
 558 017a C7000000 		.4byte	0xc7
 559 017e 02       		.uleb128 0x2
 560 017f F2050000 		.4byte	.LASF30
 561 0183 06       		.byte	0x6
 562 0184 57       		.byte	0x57
 563 0185 19       		.byte	0x19
 564 0186 EB000000 		.4byte	0xeb
 565 018a 02       		.uleb128 0x2
 566 018b EA030000 		.4byte	.LASF31
 567 018f 06       		.byte	0x6
 568 0190 58       		.byte	0x58
 569 0191 19       		.byte	0x19
 570 0192 DF000000 		.4byte	0xdf
ARM GAS  C:\Users\DEVELO~1\AppData\Local\Temp\ccUfc5lX.s 			page 11


 571 0196 02       		.uleb128 0x2
 572 0197 2F040000 		.4byte	.LASF32
 573 019b 06       		.byte	0x6
 574 019c 5A       		.byte	0x5a
 575 019d 19       		.byte	0x19
 576 019e EB000000 		.4byte	0xeb
 577 01a2 02       		.uleb128 0x2
 578 01a3 75020000 		.4byte	.LASF33
 579 01a7 06       		.byte	0x6
 580 01a8 5C       		.byte	0x5c
 581 01a9 19       		.byte	0x19
 582 01aa DF000000 		.4byte	0xdf
 583 01ae 02       		.uleb128 0x2
 584 01af F5030000 		.4byte	.LASF34
 585 01b3 06       		.byte	0x6
 586 01b4 5D       		.byte	0x5d
 587 01b5 19       		.byte	0x19
 588 01b6 EB000000 		.4byte	0xeb
 589 01ba 02       		.uleb128 0x2
 590 01bb B8050000 		.4byte	.LASF35
 591 01bf 06       		.byte	0x6
 592 01c0 80       		.byte	0x80
 593 01c1 12       		.byte	0x12
 594 01c2 2D000000 		.4byte	0x2d
 595 01c6 02       		.uleb128 0x2
 596 01c7 10070000 		.4byte	.LASF36
 597 01cb 06       		.byte	0x6
 598 01cc 85       		.byte	0x85
 599 01cd 1A       		.byte	0x1a
 600 01ce D2010000 		.4byte	0x1d2
 601 01d2 07       		.uleb128 0x7
 602 01d3 D9030000 		.4byte	.LASF53
 603 01d7 50       		.byte	0x50
 604 01d8 07       		.byte	0x7
 605 01d9 A9       		.byte	0xa9
 606 01da 08       		.byte	0x8
 607 01db CE020000 		.4byte	0x2ce
 608 01df 08       		.uleb128 0x8
 609 01e0 68647200 		.ascii	"hdr\000"
 610 01e4 07       		.byte	0x7
 611 01e5 BA       		.byte	0xba
 612 01e6 05       		.byte	0x5
 613 01e7 FE090000 		.4byte	0x9fe
 614 01eb 00       		.byte	0
 615 01ec 08       		.uleb128 0x8
 616 01ed 63747800 		.ascii	"ctx\000"
 617 01f1 07       		.byte	0x7
 618 01f2 BE       		.byte	0xbe
 619 01f3 21       		.byte	0x21
 620 01f4 9F070000 		.4byte	0x79f
 621 01f8 0C       		.byte	0xc
 622 01f9 03       		.uleb128 0x3
 623 01fa CA060000 		.4byte	.LASF37
 624 01fe 07       		.byte	0x7
 625 01ff C2       		.byte	0xc2
 626 0200 22       		.byte	0x22
 627 0201 020B0000 		.4byte	0xb02
ARM GAS  C:\Users\DEVELO~1\AppData\Local\Temp\ccUfc5lX.s 			page 12


 628 0205 10       		.byte	0x10
 629 0206 03       		.uleb128 0x3
 630 0207 DC060000 		.4byte	.LASF38
 631 020b 07       		.byte	0x7
 632 020c C8       		.byte	0xc8
 633 020d 22       		.byte	0x22
 634 020e 070B0000 		.4byte	0xb07
 635 0212 14       		.byte	0x14
 636 0213 03       		.uleb128 0x3
 637 0214 D0070000 		.4byte	.LASF39
 638 0218 07       		.byte	0x7
 639 0219 CD       		.byte	0xcd
 640 021a 21       		.byte	0x21
 641 021b 070B0000 		.4byte	0xb07
 642 021f 18       		.byte	0x18
 643 0220 03       		.uleb128 0x3
 644 0221 4E010000 		.4byte	.LASF40
 645 0225 07       		.byte	0x7
 646 0226 D1       		.byte	0xd1
 647 0227 21       		.byte	0x21
 648 0228 66010000 		.4byte	0x166
 649 022c 1C       		.byte	0x1c
 650 022d 03       		.uleb128 0x3
 651 022e E4070000 		.4byte	.LASF41
 652 0232 07       		.byte	0x7
 653 0233 D5       		.byte	0xd5
 654 0234 21       		.byte	0x21
 655 0235 5A010000 		.4byte	0x15a
 656 0239 1D       		.byte	0x1d
 657 023a 03       		.uleb128 0x3
 658 023b E8050000 		.4byte	.LASF42
 659 023f 07       		.byte	0x7
 660 0240 DA       		.byte	0xda
 661 0241 21       		.byte	0x21
 662 0242 72010000 		.4byte	0x172
 663 0246 1E       		.byte	0x1e
 664 0247 03       		.uleb128 0x3
 665 0248 A5030000 		.4byte	.LASF43
 666 024c 07       		.byte	0x7
 667 024d DE       		.byte	0xde
 668 024e 22       		.byte	0x22
 669 024f BD000000 		.4byte	0xbd
 670 0253 20       		.byte	0x20
 671 0254 03       		.uleb128 0x3
 672 0255 DE020000 		.4byte	.LASF44
 673 0259 07       		.byte	0x7
 674 025a E2       		.byte	0xe2
 675 025b 21       		.byte	0x21
 676 025c EC070000 		.4byte	0x7ec
 677 0260 24       		.byte	0x24
 678 0261 03       		.uleb128 0x3
 679 0262 A1000000 		.4byte	.LASF45
 680 0266 07       		.byte	0x7
 681 0267 E8       		.byte	0xe8
 682 0268 21       		.byte	0x21
 683 0269 E2090000 		.4byte	0x9e2
 684 026d 2C       		.byte	0x2c
ARM GAS  C:\Users\DEVELO~1\AppData\Local\Temp\ccUfc5lX.s 			page 13


 685 026e 03       		.uleb128 0x3
 686 026f FD000000 		.4byte	.LASF46
 687 0273 07       		.byte	0x7
 688 0274 EE       		.byte	0xee
 689 0275 22       		.byte	0x22
 690 0276 AF000000 		.4byte	0xaf
 691 027a 30       		.byte	0x30
 692 027b 05       		.uleb128 0x5
 693 027c 7500     		.ascii	"u\000"
 694 027e 07       		.byte	0x7
 695 027f 3F01     		.2byte	0x13f
 696 0281 21       		.byte	0x21
 697 0282 2B0A0000 		.4byte	0xa2b
 698 0286 34       		.byte	0x34
 699 0287 01       		.uleb128 0x1
 700 0288 40020000 		.4byte	.LASF47
 701 028c 07       		.byte	0x7
 702 028d 4401     		.2byte	0x144
 703 028f 21       		.byte	0x21
 704 0290 C0070000 		.4byte	0x7c0
 705 0294 38       		.byte	0x38
 706 0295 01       		.uleb128 0x1
 707 0296 7B020000 		.4byte	.LASF48
 708 029a 07       		.byte	0x7
 709 029b 4A01     		.2byte	0x14a
 710 029d 21       		.byte	0x21
 711 029e EC070000 		.4byte	0x7ec
 712 02a2 3C       		.byte	0x3c
 713 02a3 01       		.uleb128 0x1
 714 02a4 FC030000 		.4byte	.LASF49
 715 02a8 07       		.byte	0x7
 716 02a9 5001     		.2byte	0x150
 717 02ab 21       		.byte	0x21
 718 02ac 96010000 		.4byte	0x196
 719 02b0 44       		.byte	0x44
 720 02b1 01       		.uleb128 0x1
 721 02b2 4F080000 		.4byte	.LASF50
 722 02b6 07       		.byte	0x7
 723 02b7 5701     		.2byte	0x157
 724 02b9 22       		.byte	0x22
 725 02ba FD0A0000 		.4byte	0xafd
 726 02be 48       		.byte	0x48
 727 02bf 01       		.uleb128 0x1
 728 02c0 93040000 		.4byte	.LASF51
 729 02c4 07       		.byte	0x7
 730 02c5 5B01     		.2byte	0x15b
 731 02c7 21       		.byte	0x21
 732 02c8 7E010000 		.4byte	0x17e
 733 02cc 4C       		.byte	0x4c
 734 02cd 00       		.byte	0
 735 02ce 02       		.uleb128 0x2
 736 02cf 70070000 		.4byte	.LASF52
 737 02d3 06       		.byte	0x6
 738 02d4 8A       		.byte	0x8a
 739 02d5 1F       		.byte	0x1f
 740 02d6 DA020000 		.4byte	0x2da
 741 02da 20       		.uleb128 0x20
ARM GAS  C:\Users\DEVELO~1\AppData\Local\Temp\ccUfc5lX.s 			page 14


 742 02db 5A070000 		.4byte	.LASF54
 743 02df F008     		.2byte	0x8f0
 744 02e1 07       		.byte	0x7
 745 02e2 9701     		.2byte	0x197
 746 02e4 08       		.byte	0x8
 747 02e5 76030000 		.4byte	0x376
 748 02e9 01       		.uleb128 0x1
 749 02ea D6070000 		.4byte	.LASF55
 750 02ee 07       		.byte	0x7
 751 02ef 9B01     		.2byte	0x19b
 752 02f1 21       		.byte	0x21
 753 02f2 370B0000 		.4byte	0xb37
 754 02f6 00       		.byte	0
 755 02f7 01       		.uleb128 0x1
 756 02f8 4B000000 		.4byte	.LASF56
 757 02fc 07       		.byte	0x7
 758 02fd 9F01     		.2byte	0x19f
 759 02ff 21       		.byte	0x21
 760 0300 A3090000 		.4byte	0x9a3
 761 0304 10       		.byte	0x10
 762 0305 01       		.uleb128 0x1
 763 0306 7E070000 		.4byte	.LASF57
 764 030a 07       		.byte	0x7
 765 030b A601     		.2byte	0x1a6
 766 030d 21       		.byte	0x21
 767 030e CA090000 		.4byte	0x9ca
 768 0312 30       		.byte	0x30
 769 0313 01       		.uleb128 0x1
 770 0314 6D020000 		.4byte	.LASF58
 771 0318 07       		.byte	0x7
 772 0319 AB01     		.2byte	0x1ab
 773 031b 21       		.byte	0x21
 774 031c BA010000 		.4byte	0x1ba
 775 0320 38       		.byte	0x38
 776 0321 01       		.uleb128 0x1
 777 0322 30000000 		.4byte	.LASF59
 778 0326 07       		.byte	0x7
 779 0327 B101     		.2byte	0x1b1
 780 0329 21       		.byte	0x21
 781 032a 9D030000 		.4byte	0x39d
 782 032e 3C       		.byte	0x3c
 783 032f 01       		.uleb128 0x1
 784 0330 F6060000 		.4byte	.LASF60
 785 0334 07       		.byte	0x7
 786 0335 B601     		.2byte	0x1b6
 787 0337 22       		.byte	0x22
 788 0338 A90B0000 		.4byte	0xba9
 789 033c 40       		.byte	0x40
 790 033d 01       		.uleb128 0x1
 791 033e 57080000 		.4byte	.LASF61
 792 0342 07       		.byte	0x7
 793 0343 BA01     		.2byte	0x1ba
 794 0345 21       		.byte	0x21
 795 0346 C6010000 		.4byte	0x1c6
 796 034a 44       		.byte	0x44
 797 034b 01       		.uleb128 0x1
 798 034c D0000000 		.4byte	.LASF62
ARM GAS  C:\Users\DEVELO~1\AppData\Local\Temp\ccUfc5lX.s 			page 15


 799 0350 07       		.byte	0x7
 800 0351 BF01     		.2byte	0x1bf
 801 0353 21       		.byte	0x21
 802 0354 C6010000 		.4byte	0x1c6
 803 0358 94       		.byte	0x94
 804 0359 05       		.uleb128 0x5
 805 035a 64626700 		.ascii	"dbg\000"
 806 035e 07       		.byte	0x7
 807 035f C401     		.2byte	0x1c4
 808 0361 21       		.byte	0x21
 809 0362 C4030000 		.4byte	0x3c4
 810 0366 E4       		.byte	0xe4
 811 0367 01       		.uleb128 0x1
 812 0368 20080000 		.4byte	.LASF63
 813 036c 07       		.byte	0x7
 814 036d C901     		.2byte	0x1c9
 815 036f 21       		.byte	0x21
 816 0370 6A050000 		.4byte	0x56a
 817 0374 E8       		.byte	0xe8
 818 0375 00       		.byte	0
 819 0376 02       		.uleb128 0x2
 820 0377 9C040000 		.4byte	.LASF64
 821 037b 08       		.byte	0x8
 822 037c 3F       		.byte	0x3f
 823 037d 12       		.byte	0x12
 824 037e EB000000 		.4byte	0xeb
 825 0382 07       		.uleb128 0x7
 826 0383 7C010000 		.4byte	.LASF65
 827 0387 04       		.byte	0x4
 828 0388 08       		.byte	0x8
 829 0389 44       		.byte	0x44
 830 038a 10       		.byte	0x10
 831 038b 9D030000 		.4byte	0x39d
 832 038f 03       		.uleb128 0x3
 833 0390 2B020000 		.4byte	.LASF66
 834 0394 08       		.byte	0x8
 835 0395 48       		.byte	0x48
 836 0396 21       		.byte	0x21
 837 0397 76030000 		.4byte	0x376
 838 039b 00       		.byte	0
 839 039c 00       		.byte	0
 840 039d 02       		.uleb128 0x2
 841 039e 45040000 		.4byte	.LASF67
 842 03a2 08       		.byte	0x8
 843 03a3 49       		.byte	0x49
 844 03a4 03       		.byte	0x3
 845 03a5 82030000 		.4byte	0x382
 846 03a9 07       		.uleb128 0x7
 847 03aa 30020000 		.4byte	.LASF68
 848 03ae 04       		.byte	0x4
 849 03af 09       		.byte	0x9
 850 03b0 3E       		.byte	0x3e
 851 03b1 10       		.byte	0x10
 852 03b2 C4030000 		.4byte	0x3c4
 853 03b6 03       		.uleb128 0x3
 854 03b7 49070000 		.4byte	.LASF69
 855 03bb 09       		.byte	0x9
ARM GAS  C:\Users\DEVELO~1\AppData\Local\Temp\ccUfc5lX.s 			page 16


 856 03bc 46       		.byte	0x46
 857 03bd 24       		.byte	0x24
 858 03be C2000000 		.4byte	0xc2
 859 03c2 00       		.byte	0
 860 03c3 00       		.byte	0
 861 03c4 02       		.uleb128 0x2
 862 03c5 BD020000 		.4byte	.LASF70
 863 03c9 09       		.byte	0x9
 864 03ca 51       		.byte	0x51
 865 03cb 03       		.byte	0x3
 866 03cc A9030000 		.4byte	0x3a9
 867 03d0 02       		.uleb128 0x2
 868 03d1 24070000 		.4byte	.LASF71
 869 03d5 0A       		.byte	0xa
 870 03d6 6D       		.byte	0x6d
 871 03d7 12       		.byte	0x12
 872 03d8 EB000000 		.4byte	0xeb
 873 03dc 02       		.uleb128 0x2
 874 03dd 5F020000 		.4byte	.LASF72
 875 03e1 0A       		.byte	0xa
 876 03e2 79       		.byte	0x79
 877 03e3 12       		.byte	0x12
 878 03e4 EB000000 		.4byte	0xeb
 879 03e8 09       		.uleb128 0x9
 880 03e9 08       		.byte	0x8
 881 03ea 0B       		.byte	0xb
 882 03eb 83       		.byte	0x83
 883 03ec 05       		.byte	0x5
 884 03ed 0C040000 		.4byte	0x40c
 885 03f1 08       		.uleb128 0x8
 886 03f2 6E747000 		.ascii	"ntp\000"
 887 03f6 0B       		.byte	0xb
 888 03f7 87       		.byte	0x87
 889 03f8 1E       		.byte	0x1e
 890 03f9 0C040000 		.4byte	0x40c
 891 03fd 00       		.byte	0
 892 03fe 03       		.uleb128 0x3
 893 03ff 57060000 		.4byte	.LASF73
 894 0403 0B       		.byte	0xb
 895 0404 8B       		.byte	0x8b
 896 0405 1E       		.byte	0x1e
 897 0406 AF000000 		.4byte	0xaf
 898 040a 04       		.byte	0x4
 899 040b 00       		.byte	0
 900 040c 04       		.uleb128 0x4
 901 040d C6010000 		.4byte	0x1c6
 902 0411 09       		.uleb128 0x9
 903 0412 08       		.byte	0x8
 904 0413 0B       		.byte	0xb
 905 0414 90       		.byte	0x90
 906 0415 05       		.byte	0x5
 907 0416 34040000 		.4byte	0x434
 908 041a 08       		.uleb128 0x8
 909 041b 747000   		.ascii	"tp\000"
 910 041e 0B       		.byte	0xb
 911 041f 94       		.byte	0x94
 912 0420 1E       		.byte	0x1e
ARM GAS  C:\Users\DEVELO~1\AppData\Local\Temp\ccUfc5lX.s 			page 17


 913 0421 0C040000 		.4byte	0x40c
 914 0425 00       		.byte	0
 915 0426 08       		.uleb128 0x8
 916 0427 6D736700 		.ascii	"msg\000"
 917 042b 0B       		.byte	0xb
 918 042c 98       		.byte	0x98
 919 042d 1D       		.byte	0x1d
 920 042e 8A010000 		.4byte	0x18a
 921 0432 04       		.byte	0x4
 922 0433 00       		.byte	0
 923 0434 09       		.uleb128 0x9
 924 0435 04       		.byte	0x4
 925 0436 0B       		.byte	0xb
 926 0437 9D       		.byte	0x9d
 927 0438 05       		.byte	0x5
 928 0439 4B040000 		.4byte	0x44b
 929 043d 03       		.uleb128 0x3
 930 043e A5030000 		.4byte	.LASF43
 931 0442 0B       		.byte	0xb
 932 0443 A1       		.byte	0xa1
 933 0444 1E       		.byte	0x1e
 934 0445 BD000000 		.4byte	0xbd
 935 0449 00       		.byte	0
 936 044a 00       		.byte	0
 937 044b 09       		.uleb128 0x9
 938 044c 04       		.byte	0x4
 939 044d 0B       		.byte	0xb
 940 044e A6       		.byte	0xa6
 941 044f 05       		.byte	0x5
 942 0450 62040000 		.4byte	0x462
 943 0454 03       		.uleb128 0x3
 944 0455 78060000 		.4byte	.LASF74
 945 0459 0B       		.byte	0xb
 946 045a AA       		.byte	0xaa
 947 045b 1E       		.byte	0x1e
 948 045c BD000000 		.4byte	0xbd
 949 0460 00       		.byte	0
 950 0461 00       		.byte	0
 951 0462 09       		.uleb128 0x9
 952 0463 08       		.byte	0x8
 953 0464 0B       		.byte	0xb
 954 0465 AF       		.byte	0xaf
 955 0466 05       		.byte	0x5
 956 0467 86040000 		.4byte	0x486
 957 046b 08       		.uleb128 0x8
 958 046c 75703100 		.ascii	"up1\000"
 959 0470 0B       		.byte	0xb
 960 0471 B3       		.byte	0xb3
 961 0472 1E       		.byte	0x1e
 962 0473 AF000000 		.4byte	0xaf
 963 0477 00       		.byte	0
 964 0478 08       		.uleb128 0x8
 965 0479 75703200 		.ascii	"up2\000"
 966 047d 0B       		.byte	0xb
 967 047e B7       		.byte	0xb7
 968 047f 1E       		.byte	0x1e
 969 0480 AF000000 		.4byte	0xaf
ARM GAS  C:\Users\DEVELO~1\AppData\Local\Temp\ccUfc5lX.s 			page 18


 970 0484 04       		.byte	0x4
 971 0485 00       		.byte	0
 972 0486 18       		.uleb128 0x18
 973 0487 08       		.byte	0x8
 974 0488 0B       		.byte	0xb
 975 0489 7F       		.byte	0x7f
 976 048a C4040000 		.4byte	0x4c4
 977 048e 16       		.uleb128 0x16
 978 048f 737700   		.ascii	"sw\000"
 979 0492 8C       		.byte	0x8c
 980 0493 E8030000 		.4byte	0x3e8
 981 0497 16       		.uleb128 0x16
 982 0498 72647900 		.ascii	"rdy\000"
 983 049c 99       		.byte	0x99
 984 049d 11040000 		.4byte	0x411
 985 04a1 16       		.uleb128 0x16
 986 04a2 69737200 		.ascii	"isr\000"
 987 04a6 A2       		.byte	0xa2
 988 04a7 34040000 		.4byte	0x434
 989 04ab 0C       		.uleb128 0xc
 990 04ac 9C000000 		.4byte	.LASF75
 991 04b0 0B       		.byte	0xb
 992 04b1 AB       		.byte	0xab
 993 04b2 07       		.byte	0x7
 994 04b3 4B040000 		.4byte	0x44b
 995 04b7 0C       		.uleb128 0xc
 996 04b8 ED050000 		.4byte	.LASF76
 997 04bc 0B       		.byte	0xb
 998 04bd B8       		.byte	0xb8
 999 04be 07       		.byte	0x7
 1000 04bf 62040000 		.4byte	0x462
 1001 04c3 00       		.byte	0
 1002 04c4 09       		.uleb128 0x9
 1003 04c5 10       		.byte	0x10
 1004 04c6 0B       		.byte	0xb
 1005 04c7 6C       		.byte	0x6c
 1006 04c8 09       		.byte	0x9
 1007 04c9 0A050000 		.4byte	0x50a
 1008 04cd 17       		.uleb128 0x17
 1009 04ce 52000000 		.4byte	.LASF77
 1010 04d2 70       		.byte	0x70
 1011 04d3 EB000000 		.4byte	0xeb
 1012 04d7 03       		.byte	0x3
 1013 04d8 00       		.byte	0
 1014 04d9 17       		.uleb128 0x17
 1015 04da 4E010000 		.4byte	.LASF40
 1016 04de 74       		.byte	0x74
 1017 04df EB000000 		.4byte	0xeb
 1018 04e3 05       		.byte	0x5
 1019 04e4 03       		.byte	0x3
 1020 04e5 17       		.uleb128 0x17
 1021 04e6 7A040000 		.4byte	.LASF78
 1022 04ea 7A       		.byte	0x7a
 1023 04eb EB000000 		.4byte	0xeb
 1024 04ef 18       		.byte	0x18
 1025 04f0 08       		.byte	0x8
 1026 04f1 03       		.uleb128 0x3
ARM GAS  C:\Users\DEVELO~1\AppData\Local\Temp\ccUfc5lX.s 			page 19


 1027 04f2 78050000 		.4byte	.LASF79
 1028 04f6 0B       		.byte	0xb
 1029 04f7 7E       		.byte	0x7e
 1030 04f8 19       		.byte	0x19
 1031 04f9 D0030000 		.4byte	0x3d0
 1032 04fd 04       		.byte	0x4
 1033 04fe 08       		.uleb128 0x8
 1034 04ff 7500     		.ascii	"u\000"
 1035 0501 0B       		.byte	0xb
 1036 0502 B9       		.byte	0xb9
 1037 0503 05       		.byte	0x5
 1038 0504 86040000 		.4byte	0x486
 1039 0508 08       		.byte	0x8
 1040 0509 00       		.byte	0
 1041 050a 02       		.uleb128 0x2
 1042 050b 60000000 		.4byte	.LASF80
 1043 050f 0B       		.byte	0xb
 1044 0510 BA       		.byte	0xba
 1045 0511 03       		.byte	0x3
 1046 0512 C4040000 		.4byte	0x4c4
 1047 0516 21       		.uleb128 0x21
 1048 0517 0808     		.2byte	0x808
 1049 0519 0B       		.byte	0xb
 1050 051a C0       		.byte	0xc0
 1051 051b 09       		.byte	0x9
 1052 051c 55050000 		.4byte	0x555
 1053 0520 03       		.uleb128 0x3
 1054 0521 E4040000 		.4byte	.LASF81
 1055 0525 0B       		.byte	0xb
 1056 0526 C4       		.byte	0xc4
 1057 0527 19       		.byte	0x19
 1058 0528 D3000000 		.4byte	0xd3
 1059 052c 00       		.byte	0
 1060 052d 03       		.uleb128 0x3
 1061 052e C1030000 		.4byte	.LASF82
 1062 0532 0B       		.byte	0xb
 1063 0533 C8       		.byte	0xc8
 1064 0534 19       		.byte	0x19
 1065 0535 D3000000 		.4byte	0xd3
 1066 0539 02       		.byte	0x2
 1067 053a 08       		.uleb128 0x8
 1068 053b 70747200 		.ascii	"ptr\000"
 1069 053f 0B       		.byte	0xb
 1070 0540 CC       		.byte	0xcc
 1071 0541 1A       		.byte	0x1a
 1072 0542 55050000 		.4byte	0x555
 1073 0546 04       		.byte	0x4
 1074 0547 03       		.uleb128 0x3
 1075 0548 2E070000 		.4byte	.LASF83
 1076 054c 0B       		.byte	0xb
 1077 054d D0       		.byte	0xd0
 1078 054e 19       		.byte	0x19
 1079 054f 5A050000 		.4byte	0x55a
 1080 0553 08       		.byte	0x8
 1081 0554 00       		.byte	0
 1082 0555 04       		.uleb128 0x4
 1083 0556 0A050000 		.4byte	0x50a
ARM GAS  C:\Users\DEVELO~1\AppData\Local\Temp\ccUfc5lX.s 			page 20


 1084 055a 0D       		.uleb128 0xd
 1085 055b 0A050000 		.4byte	0x50a
 1086 055f 6A050000 		.4byte	0x56a
 1087 0563 12       		.uleb128 0x12
 1088 0564 2D000000 		.4byte	0x2d
 1089 0568 7F       		.byte	0x7f
 1090 0569 00       		.byte	0
 1091 056a 02       		.uleb128 0x2
 1092 056b AD010000 		.4byte	.LASF84
 1093 056f 0B       		.byte	0xb
 1094 0570 D1       		.byte	0xd1
 1095 0571 03       		.byte	0x3
 1096 0572 16050000 		.4byte	0x516
 1097 0576 0D       		.uleb128 0xd
 1098 0577 EB000000 		.4byte	0xeb
 1099 057b 86050000 		.4byte	0x586
 1100 057f 12       		.uleb128 0x12
 1101 0580 2D000000 		.4byte	0x2d
 1102 0584 00       		.byte	0
 1103 0585 00       		.byte	0
 1104 0586 22       		.uleb128 0x22
 1105 0587 B80F     		.2byte	0xfb8
 1106 0589 0C       		.byte	0xc
 1107 058a 5C04     		.2byte	0x45c
 1108 058c 09       		.byte	0x9
 1109 058d FC060000 		.4byte	0x6fc
 1110 0591 01       		.uleb128 0x1
 1111 0592 A1070000 		.4byte	.LASF85
 1112 0596 0C       		.byte	0xc
 1113 0597 5E04     		.2byte	0x45e
 1114 0599 12       		.byte	0x12
 1115 059a F7000000 		.4byte	0xf7
 1116 059e 00       		.byte	0
 1117 059f 01       		.uleb128 0x1
 1118 05a0 8C040000 		.4byte	.LASF86
 1119 05a4 0C       		.byte	0xc
 1120 05a5 5F04     		.2byte	0x45f
 1121 05a7 12       		.byte	0x12
 1122 05a8 F7000000 		.4byte	0xf7
 1123 05ac 04       		.byte	0x4
 1124 05ad 01       		.uleb128 0x1
 1125 05ae 41010000 		.4byte	.LASF87
 1126 05b2 0C       		.byte	0xc
 1127 05b3 6004     		.2byte	0x460
 1128 05b5 12       		.byte	0x12
 1129 05b6 F7000000 		.4byte	0xf7
 1130 05ba 08       		.byte	0x8
 1131 05bb 01       		.uleb128 0x1
 1132 05bc E3030000 		.4byte	.LASF88
 1133 05c0 0C       		.byte	0xc
 1134 05c1 6104     		.2byte	0x461
 1135 05c3 12       		.byte	0x12
 1136 05c4 F7000000 		.4byte	0xf7
 1137 05c8 0C       		.byte	0xc
 1138 05c9 01       		.uleb128 0x1
 1139 05ca BC010000 		.4byte	.LASF89
 1140 05ce 0C       		.byte	0xc
ARM GAS  C:\Users\DEVELO~1\AppData\Local\Temp\ccUfc5lX.s 			page 21


 1141 05cf 6204     		.2byte	0x462
 1142 05d1 12       		.byte	0x12
 1143 05d2 F7000000 		.4byte	0xf7
 1144 05d6 10       		.byte	0x10
 1145 05d7 01       		.uleb128 0x1
 1146 05d8 A1060000 		.4byte	.LASF90
 1147 05dc 0C       		.byte	0xc
 1148 05dd 6304     		.2byte	0x463
 1149 05df 12       		.byte	0x12
 1150 05e0 F7000000 		.4byte	0xf7
 1151 05e4 14       		.byte	0x14
 1152 05e5 01       		.uleb128 0x1
 1153 05e6 0E000000 		.4byte	.LASF91
 1154 05ea 0C       		.byte	0xc
 1155 05eb 6404     		.2byte	0x464
 1156 05ed 12       		.byte	0x12
 1157 05ee F7000000 		.4byte	0xf7
 1158 05f2 18       		.byte	0x18
 1159 05f3 01       		.uleb128 0x1
 1160 05f4 F8070000 		.4byte	.LASF92
 1161 05f8 0C       		.byte	0xc
 1162 05f9 6504     		.2byte	0x465
 1163 05fb 12       		.byte	0x12
 1164 05fc FC000000 		.4byte	0xfc
 1165 0600 1C       		.byte	0x1c
 1166 0601 01       		.uleb128 0x1
 1167 0602 B6070000 		.4byte	.LASF93
 1168 0606 0C       		.byte	0xc
 1169 0607 6604     		.2byte	0x466
 1170 0609 12       		.byte	0x12
 1171 060a F7000000 		.4byte	0xf7
 1172 060e 20       		.byte	0x20
 1173 060f 01       		.uleb128 0x1
 1174 0610 FA050000 		.4byte	.LASF94
 1175 0614 0C       		.byte	0xc
 1176 0615 6704     		.2byte	0x467
 1177 0617 12       		.byte	0x12
 1178 0618 F7000000 		.4byte	0xf7
 1179 061c 24       		.byte	0x24
 1180 061d 01       		.uleb128 0x1
 1181 061e 1C060000 		.4byte	.LASF95
 1182 0622 0C       		.byte	0xc
 1183 0623 6804     		.2byte	0x468
 1184 0625 12       		.byte	0x12
 1185 0626 F7000000 		.4byte	0xf7
 1186 062a 28       		.byte	0x28
 1187 062b 01       		.uleb128 0x1
 1188 062c CA050000 		.4byte	.LASF96
 1189 0630 0C       		.byte	0xc
 1190 0631 6904     		.2byte	0x469
 1191 0633 12       		.byte	0x12
 1192 0634 76050000 		.4byte	0x576
 1193 0638 2C       		.byte	0x2c
 1194 0639 01       		.uleb128 0x1
 1195 063a 48010000 		.4byte	.LASF97
 1196 063e 0C       		.byte	0xc
 1197 063f 6A04     		.2byte	0x46a
ARM GAS  C:\Users\DEVELO~1\AppData\Local\Temp\ccUfc5lX.s 			page 22


 1198 0641 12       		.byte	0x12
 1199 0642 F7000000 		.4byte	0xf7
 1200 0646 30       		.byte	0x30
 1201 0647 01       		.uleb128 0x1
 1202 0648 9A020000 		.4byte	.LASF98
 1203 064c 0C       		.byte	0xc
 1204 064d 6B04     		.2byte	0x46b
 1205 064f 12       		.byte	0x12
 1206 0650 F7000000 		.4byte	0xf7
 1207 0654 34       		.byte	0x34
 1208 0655 01       		.uleb128 0x1
 1209 0656 26060000 		.4byte	.LASF99
 1210 065a 0C       		.byte	0xc
 1211 065b 6C04     		.2byte	0x46c
 1212 065d 12       		.byte	0x12
 1213 065e F7000000 		.4byte	0xf7
 1214 0662 38       		.byte	0x38
 1215 0663 01       		.uleb128 0x1
 1216 0664 D4050000 		.4byte	.LASF100
 1217 0668 0C       		.byte	0xc
 1218 0669 6D04     		.2byte	0x46d
 1219 066b 12       		.byte	0x12
 1220 066c 76050000 		.4byte	0x576
 1221 0670 3C       		.byte	0x3c
 1222 0671 01       		.uleb128 0x1
 1223 0672 6C050000 		.4byte	.LASF101
 1224 0676 0C       		.byte	0xc
 1225 0677 6E04     		.2byte	0x46e
 1226 0679 12       		.byte	0x12
 1227 067a F7000000 		.4byte	0xf7
 1228 067e 40       		.byte	0x40
 1229 067f 01       		.uleb128 0x1
 1230 0680 A0020000 		.4byte	.LASF102
 1231 0684 0C       		.byte	0xc
 1232 0685 6F04     		.2byte	0x46f
 1233 0687 12       		.byte	0x12
 1234 0688 F7000000 		.4byte	0xf7
 1235 068c 44       		.byte	0x44
 1236 068d 01       		.uleb128 0x1
 1237 068e 30060000 		.4byte	.LASF103
 1238 0692 0C       		.byte	0xc
 1239 0693 7004     		.2byte	0x470
 1240 0695 12       		.byte	0x12
 1241 0696 F7000000 		.4byte	0xf7
 1242 069a 48       		.byte	0x48
 1243 069b 01       		.uleb128 0x1
 1244 069c DE050000 		.4byte	.LASF104
 1245 06a0 0C       		.byte	0xc
 1246 06a1 7104     		.2byte	0x471
 1247 06a3 12       		.byte	0x12
 1248 06a4 76050000 		.4byte	0x576
 1249 06a8 4C       		.byte	0x4c
 1250 06a9 01       		.uleb128 0x1
 1251 06aa 72050000 		.4byte	.LASF105
 1252 06ae 0C       		.byte	0xc
 1253 06af 7204     		.2byte	0x472
 1254 06b1 12       		.byte	0x12
ARM GAS  C:\Users\DEVELO~1\AppData\Local\Temp\ccUfc5lX.s 			page 23


 1255 06b2 F7000000 		.4byte	0xf7
 1256 06b6 50       		.byte	0x50
 1257 06b7 01       		.uleb128 0x1
 1258 06b8 B0020000 		.4byte	.LASF106
 1259 06bc 0C       		.byte	0xc
 1260 06bd 7304     		.2byte	0x473
 1261 06bf 12       		.byte	0x12
 1262 06c0 F7000000 		.4byte	0xf7
 1263 06c4 54       		.byte	0x54
 1264 06c5 01       		.uleb128 0x1
 1265 06c6 3A060000 		.4byte	.LASF107
 1266 06ca 0C       		.byte	0xc
 1267 06cb 7404     		.2byte	0x474
 1268 06cd 12       		.byte	0x12
 1269 06ce F7000000 		.4byte	0xf7
 1270 06d2 58       		.byte	0x58
 1271 06d3 01       		.uleb128 0x1
 1272 06d4 8C060000 		.4byte	.LASF108
 1273 06d8 0C       		.byte	0xc
 1274 06d9 7504     		.2byte	0x475
 1275 06db 12       		.byte	0x12
 1276 06dc FC060000 		.4byte	0x6fc
 1277 06e0 5C       		.byte	0x5c
 1278 06e1 19       		.uleb128 0x19
 1279 06e2 4C415200 		.ascii	"LAR\000"
 1280 06e6 7604     		.2byte	0x476
 1281 06e8 F7000000 		.4byte	0xf7
 1282 06ec B00F     		.2byte	0xfb0
 1283 06ee 19       		.uleb128 0x19
 1284 06ef 4C535200 		.ascii	"LSR\000"
 1285 06f3 7704     		.2byte	0x477
 1286 06f5 FC000000 		.4byte	0xfc
 1287 06f9 B40F     		.2byte	0xfb4
 1288 06fb 00       		.byte	0
 1289 06fc 0D       		.uleb128 0xd
 1290 06fd EB000000 		.4byte	0xeb
 1291 0701 0D070000 		.4byte	0x70d
 1292 0705 23       		.uleb128 0x23
 1293 0706 2D000000 		.4byte	0x2d
 1294 070a D403     		.2byte	0x3d4
 1295 070c 00       		.byte	0
 1296 070d 13       		.uleb128 0x13
 1297 070e 86070000 		.4byte	.LASF109
 1298 0712 0C       		.byte	0xc
 1299 0713 7804     		.2byte	0x478
 1300 0715 86050000 		.4byte	0x586
 1301 0719 0E       		.uleb128 0xe
 1302 071a 3F000000 		.4byte	.LASF110
 1303 071e 24       		.byte	0x24
 1304 071f 02       		.byte	0x2
 1305 0720 3F02     		.2byte	0x23f
 1306 0722 08       		.byte	0x8
 1307 0723 9F070000 		.4byte	0x79f
 1308 0727 05       		.uleb128 0x5
 1309 0728 723400   		.ascii	"r4\000"
 1310 072b 02       		.byte	0x2
 1311 072c 5202     		.2byte	0x252
ARM GAS  C:\Users\DEVELO~1\AppData\Local\Temp\ccUfc5lX.s 			page 24


 1312 072e 11       		.byte	0x11
 1313 072f EB000000 		.4byte	0xeb
 1314 0733 00       		.byte	0
 1315 0734 05       		.uleb128 0x5
 1316 0735 723500   		.ascii	"r5\000"
 1317 0738 02       		.byte	0x2
 1318 0739 5302     		.2byte	0x253
 1319 073b 11       		.byte	0x11
 1320 073c EB000000 		.4byte	0xeb
 1321 0740 04       		.byte	0x4
 1322 0741 05       		.uleb128 0x5
 1323 0742 723600   		.ascii	"r6\000"
 1324 0745 02       		.byte	0x2
 1325 0746 5402     		.2byte	0x254
 1326 0748 11       		.byte	0x11
 1327 0749 EB000000 		.4byte	0xeb
 1328 074d 08       		.byte	0x8
 1329 074e 05       		.uleb128 0x5
 1330 074f 723700   		.ascii	"r7\000"
 1331 0752 02       		.byte	0x2
 1332 0753 5502     		.2byte	0x255
 1333 0755 11       		.byte	0x11
 1334 0756 EB000000 		.4byte	0xeb
 1335 075a 0C       		.byte	0xc
 1336 075b 05       		.uleb128 0x5
 1337 075c 723800   		.ascii	"r8\000"
 1338 075f 02       		.byte	0x2
 1339 0760 5602     		.2byte	0x256
 1340 0762 11       		.byte	0x11
 1341 0763 EB000000 		.4byte	0xeb
 1342 0767 10       		.byte	0x10
 1343 0768 05       		.uleb128 0x5
 1344 0769 723900   		.ascii	"r9\000"
 1345 076c 02       		.byte	0x2
 1346 076d 5702     		.2byte	0x257
 1347 076f 11       		.byte	0x11
 1348 0770 EB000000 		.4byte	0xeb
 1349 0774 14       		.byte	0x14
 1350 0775 05       		.uleb128 0x5
 1351 0776 72313000 		.ascii	"r10\000"
 1352 077a 02       		.byte	0x2
 1353 077b 5802     		.2byte	0x258
 1354 077d 11       		.byte	0x11
 1355 077e EB000000 		.4byte	0xeb
 1356 0782 18       		.byte	0x18
 1357 0783 05       		.uleb128 0x5
 1358 0784 72313100 		.ascii	"r11\000"
 1359 0788 02       		.byte	0x2
 1360 0789 5902     		.2byte	0x259
 1361 078b 11       		.byte	0x11
 1362 078c EB000000 		.4byte	0xeb
 1363 0790 1C       		.byte	0x1c
 1364 0791 05       		.uleb128 0x5
 1365 0792 6C7200   		.ascii	"lr\000"
 1366 0795 02       		.byte	0x2
 1367 0796 5A02     		.2byte	0x25a
 1368 0798 11       		.byte	0x11
ARM GAS  C:\Users\DEVELO~1\AppData\Local\Temp\ccUfc5lX.s 			page 25


 1369 0799 EB000000 		.4byte	0xeb
 1370 079d 20       		.byte	0x20
 1371 079e 00       		.byte	0
 1372 079f 0E       		.uleb128 0xe
 1373 07a0 44050000 		.4byte	.LASF111
 1374 07a4 04       		.byte	0x4
 1375 07a5 02       		.byte	0x2
 1376 07a6 6302     		.2byte	0x263
 1377 07a8 08       		.byte	0x8
 1378 07a9 BB070000 		.4byte	0x7bb
 1379 07ad 05       		.uleb128 0x5
 1380 07ae 737000   		.ascii	"sp\000"
 1381 07b1 02       		.byte	0x2
 1382 07b2 6402     		.2byte	0x264
 1383 07b4 1A       		.byte	0x1a
 1384 07b5 BB070000 		.4byte	0x7bb
 1385 07b9 00       		.byte	0
 1386 07ba 00       		.byte	0
 1387 07bb 04       		.uleb128 0x4
 1388 07bc 19070000 		.4byte	0x719
 1389 07c0 02       		.uleb128 0x2
 1390 07c1 DA040000 		.4byte	.LASF112
 1391 07c5 0D       		.byte	0xd
 1392 07c6 32       		.byte	0x32
 1393 07c7 18       		.byte	0x18
 1394 07c8 CC070000 		.4byte	0x7cc
 1395 07cc 07       		.uleb128 0x7
 1396 07cd 19040000 		.4byte	.LASF113
 1397 07d1 04       		.byte	0x4
 1398 07d2 0D       		.byte	0xd
 1399 07d3 38       		.byte	0x38
 1400 07d4 08       		.byte	0x8
 1401 07d5 E7070000 		.4byte	0x7e7
 1402 07d9 03       		.uleb128 0x3
 1403 07da F8000000 		.4byte	.LASF114
 1404 07de 0D       		.byte	0xd
 1405 07df 39       		.byte	0x39
 1406 07e0 1A       		.byte	0x1a
 1407 07e1 E7070000 		.4byte	0x7e7
 1408 07e5 00       		.byte	0
 1409 07e6 00       		.byte	0
 1410 07e7 04       		.uleb128 0x4
 1411 07e8 C0070000 		.4byte	0x7c0
 1412 07ec 02       		.uleb128 0x2
 1413 07ed E5020000 		.4byte	.LASF115
 1414 07f1 0D       		.byte	0xd
 1415 07f2 3F       		.byte	0x3f
 1416 07f3 19       		.byte	0x19
 1417 07f4 F8070000 		.4byte	0x7f8
 1418 07f8 07       		.uleb128 0x7
 1419 07f9 84010000 		.4byte	.LASF116
 1420 07fd 08       		.byte	0x8
 1421 07fe 0D       		.byte	0xd
 1422 07ff 45       		.byte	0x45
 1423 0800 08       		.byte	0x8
 1424 0801 20080000 		.4byte	0x820
 1425 0805 03       		.uleb128 0x3
ARM GAS  C:\Users\DEVELO~1\AppData\Local\Temp\ccUfc5lX.s 			page 26


 1426 0806 F8000000 		.4byte	.LASF114
 1427 080a 0D       		.byte	0xd
 1428 080b 46       		.byte	0x46
 1429 080c 1A       		.byte	0x1a
 1430 080d 20080000 		.4byte	0x820
 1431 0811 00       		.byte	0
 1432 0812 03       		.uleb128 0x3
 1433 0813 00000000 		.4byte	.LASF117
 1434 0817 0D       		.byte	0xd
 1435 0818 47       		.byte	0x47
 1436 0819 1A       		.byte	0x1a
 1437 081a 20080000 		.4byte	0x820
 1438 081e 04       		.byte	0x4
 1439 081f 00       		.byte	0
 1440 0820 04       		.uleb128 0x4
 1441 0821 EC070000 		.4byte	0x7ec
 1442 0825 02       		.uleb128 0x2
 1443 0826 35070000 		.4byte	.LASF118
 1444 082a 0D       		.byte	0xd
 1445 082b 4E       		.byte	0x4e
 1446 082c 22       		.byte	0x22
 1447 082d 31080000 		.4byte	0x831
 1448 0831 07       		.uleb128 0x7
 1449 0832 8F070000 		.4byte	.LASF119
 1450 0836 0C       		.byte	0xc
 1451 0837 0D       		.byte	0xd
 1452 0838 55       		.byte	0x55
 1453 0839 08       		.byte	0x8
 1454 083a 66080000 		.4byte	0x866
 1455 083e 03       		.uleb128 0x3
 1456 083f F8000000 		.4byte	.LASF114
 1457 0843 0D       		.byte	0xd
 1458 0844 56       		.byte	0x56
 1459 0845 1A       		.byte	0x1a
 1460 0846 66080000 		.4byte	0x866
 1461 084a 00       		.byte	0
 1462 084b 03       		.uleb128 0x3
 1463 084c 00000000 		.4byte	.LASF117
 1464 0850 0D       		.byte	0xd
 1465 0851 57       		.byte	0x57
 1466 0852 1A       		.byte	0x1a
 1467 0853 66080000 		.4byte	0x866
 1468 0857 04       		.byte	0x4
 1469 0858 03       		.uleb128 0x3
 1470 0859 7D050000 		.4byte	.LASF120
 1471 085d 0D       		.byte	0xd
 1472 085e 58       		.byte	0x58
 1473 085f 19       		.byte	0x19
 1474 0860 7E010000 		.4byte	0x17e
 1475 0864 08       		.byte	0x8
 1476 0865 00       		.byte	0
 1477 0866 04       		.uleb128 0x4
 1478 0867 25080000 		.4byte	0x825
 1479 086b 02       		.uleb128 0x2
 1480 086c A6070000 		.4byte	.LASF121
 1481 0870 0D       		.byte	0xd
 1482 0871 5F       		.byte	0x5f
ARM GAS  C:\Users\DEVELO~1\AppData\Local\Temp\ccUfc5lX.s 			page 27


 1483 0872 1E       		.byte	0x1e
 1484 0873 77080000 		.4byte	0x877
 1485 0877 07       		.uleb128 0x7
 1486 0878 33010000 		.4byte	.LASF122
 1487 087c 0C       		.byte	0xc
 1488 087d 0D       		.byte	0xd
 1489 087e 64       		.byte	0x64
 1490 087f 08       		.byte	0x8
 1491 0880 AC080000 		.4byte	0x8ac
 1492 0884 03       		.uleb128 0x3
 1493 0885 F8000000 		.4byte	.LASF114
 1494 0889 0D       		.byte	0xd
 1495 088a 65       		.byte	0x65
 1496 088b 1A       		.byte	0x1a
 1497 088c AC080000 		.4byte	0x8ac
 1498 0890 00       		.byte	0
 1499 0891 03       		.uleb128 0x3
 1500 0892 00000000 		.4byte	.LASF117
 1501 0896 0D       		.byte	0xd
 1502 0897 66       		.byte	0x66
 1503 0898 1A       		.byte	0x1a
 1504 0899 AC080000 		.4byte	0x8ac
 1505 089d 04       		.byte	0x4
 1506 089e 03       		.uleb128 0x3
 1507 089f E3000000 		.4byte	.LASF123
 1508 08a3 0D       		.byte	0xd
 1509 08a4 67       		.byte	0x67
 1510 08a5 19       		.byte	0x19
 1511 08a6 DC030000 		.4byte	0x3dc
 1512 08aa 08       		.byte	0x8
 1513 08ab 00       		.byte	0
 1514 08ac 04       		.uleb128 0x4
 1515 08ad 6B080000 		.4byte	0x86b
 1516 08b1 09       		.uleb128 0x9
 1517 08b2 04       		.byte	0x4
 1518 08b3 0E       		.byte	0xe
 1519 08b4 3F       		.byte	0x3f
 1520 08b5 09       		.byte	0x9
 1521 08b6 C8080000 		.4byte	0x8c8
 1522 08ba 03       		.uleb128 0x3
 1523 08bb 69070000 		.4byte	.LASF124
 1524 08bf 0E       		.byte	0xe
 1525 08c0 43       		.byte	0x43
 1526 08c1 19       		.byte	0x19
 1527 08c2 36010000 		.4byte	0x136
 1528 08c6 00       		.byte	0
 1529 08c7 00       		.byte	0
 1530 08c8 02       		.uleb128 0x2
 1531 08c9 FA040000 		.4byte	.LASF125
 1532 08cd 0E       		.byte	0xe
 1533 08ce 44       		.byte	0x44
 1534 08cf 03       		.byte	0x3
 1535 08d0 B1080000 		.4byte	0x8b1
 1536 08d4 09       		.uleb128 0x9
 1537 08d5 18       		.byte	0x18
 1538 08d6 0E       		.byte	0xe
 1539 08d7 4F       		.byte	0x4f
ARM GAS  C:\Users\DEVELO~1\AppData\Local\Temp\ccUfc5lX.s 			page 28


 1540 08d8 09       		.byte	0x9
 1541 08d9 1D090000 		.4byte	0x91d
 1542 08dd 03       		.uleb128 0x3
 1543 08de 19070000 		.4byte	.LASF126
 1544 08e2 0E       		.byte	0xe
 1545 08e3 50       		.byte	0x50
 1546 08e4 19       		.byte	0x19
 1547 08e5 36010000 		.4byte	0x136
 1548 08e9 00       		.byte	0
 1549 08ea 03       		.uleb128 0x3
 1550 08eb 83000000 		.4byte	.LASF127
 1551 08ef 0E       		.byte	0xe
 1552 08f0 51       		.byte	0x51
 1553 08f1 19       		.byte	0x19
 1554 08f2 36010000 		.4byte	0x136
 1555 08f6 04       		.byte	0x4
 1556 08f7 03       		.uleb128 0x3
 1557 08f8 F0030000 		.4byte	.LASF128
 1558 08fc 0E       		.byte	0xe
 1559 08fd 52       		.byte	0x52
 1560 08fe 19       		.byte	0x19
 1561 08ff 36010000 		.4byte	0x136
 1562 0903 08       		.byte	0x8
 1563 0904 08       		.uleb128 0x8
 1564 0905 6E00     		.ascii	"n\000"
 1565 0907 0E       		.byte	0xe
 1566 0908 53       		.byte	0x53
 1567 0909 19       		.byte	0x19
 1568 090a AE010000 		.4byte	0x1ae
 1569 090e 0C       		.byte	0xc
 1570 090f 03       		.uleb128 0x3
 1571 0910 A3050000 		.4byte	.LASF129
 1572 0914 0E       		.byte	0xe
 1573 0915 54       		.byte	0x54
 1574 0916 19       		.byte	0x19
 1575 0917 42010000 		.4byte	0x142
 1576 091b 10       		.byte	0x10
 1577 091c 00       		.byte	0
 1578 091d 02       		.uleb128 0x2
 1579 091e 89000000 		.4byte	.LASF130
 1580 0922 0E       		.byte	0xe
 1581 0923 55       		.byte	0x55
 1582 0924 03       		.byte	0x3
 1583 0925 D4080000 		.4byte	0x8d4
 1584 0929 24       		.uleb128 0x24
 1585 092a 07       		.byte	0x7
 1586 092b 01       		.byte	0x1
 1587 092c 55000000 		.4byte	0x55
 1588 0930 07       		.byte	0x7
 1589 0931 32       		.byte	0x32
 1590 0932 0E       		.byte	0xe
 1591 0933 50090000 		.4byte	0x950
 1592 0937 14       		.uleb128 0x14
 1593 0938 E8060000 		.4byte	.LASF131
 1594 093c 00       		.byte	0
 1595 093d 14       		.uleb128 0x14
 1596 093e BC070000 		.4byte	.LASF132
ARM GAS  C:\Users\DEVELO~1\AppData\Local\Temp\ccUfc5lX.s 			page 29


 1597 0942 01       		.byte	0x1
 1598 0943 14       		.uleb128 0x14
 1599 0944 A9000000 		.4byte	.LASF133
 1600 0948 02       		.byte	0x2
 1601 0949 14       		.uleb128 0x14
 1602 094a 2D080000 		.4byte	.LASF134
 1603 094e 03       		.byte	0x3
 1604 094f 00       		.byte	0
 1605 0950 02       		.uleb128 0x2
 1606 0951 40080000 		.4byte	.LASF135
 1607 0955 07       		.byte	0x7
 1608 0956 37       		.byte	0x37
 1609 0957 03       		.byte	0x3
 1610 0958 29090000 		.4byte	0x929
 1611 095c 11       		.uleb128 0x11
 1612 095d 50090000 		.4byte	0x950
 1613 0961 07       		.uleb128 0x7
 1614 0962 C3040000 		.4byte	.LASF136
 1615 0966 20       		.byte	0x20
 1616 0967 07       		.byte	0x7
 1617 0968 64       		.byte	0x64
 1618 0969 10       		.byte	0x10
 1619 096a A3090000 		.4byte	0x9a3
 1620 096e 03       		.uleb128 0x3
 1621 096f 1E070000 		.4byte	.LASF137
 1622 0973 07       		.byte	0x7
 1623 0974 68       		.byte	0x68
 1624 0975 21       		.byte	0x21
 1625 0976 6B080000 		.4byte	0x86b
 1626 097a 00       		.byte	0
 1627 097b 03       		.uleb128 0x3
 1628 097c 4E060000 		.4byte	.LASF138
 1629 0980 07       		.byte	0x7
 1630 0981 73       		.byte	0x73
 1631 0982 21       		.byte	0x21
 1632 0983 D0030000 		.4byte	0x3d0
 1633 0987 0C       		.byte	0xc
 1634 0988 03       		.uleb128 0x3
 1635 0989 AE050000 		.4byte	.LASF139
 1636 098d 07       		.byte	0x7
 1637 098e 7B       		.byte	0x7b
 1638 098f 21       		.byte	0x21
 1639 0990 DC030000 		.4byte	0x3dc
 1640 0994 10       		.byte	0x10
 1641 0995 03       		.uleb128 0x3
 1642 0996 82040000 		.4byte	.LASF140
 1643 099a 07       		.byte	0x7
 1644 099b 81       		.byte	0x81
 1645 099c 21       		.byte	0x21
 1646 099d 0D010000 		.4byte	0x10d
 1647 09a1 18       		.byte	0x18
 1648 09a2 00       		.byte	0
 1649 09a3 02       		.uleb128 0x2
 1650 09a4 4C040000 		.4byte	.LASF141
 1651 09a8 07       		.byte	0x7
 1652 09a9 83       		.byte	0x83
 1653 09aa 03       		.byte	0x3
ARM GAS  C:\Users\DEVELO~1\AppData\Local\Temp\ccUfc5lX.s 			page 30


 1654 09ab 61090000 		.4byte	0x961
 1655 09af 07       		.uleb128 0x7
 1656 09b0 C5010000 		.4byte	.LASF142
 1657 09b4 08       		.byte	0x8
 1658 09b5 07       		.byte	0x7
 1659 09b6 88       		.byte	0x88
 1660 09b7 10       		.byte	0x10
 1661 09b8 CA090000 		.4byte	0x9ca
 1662 09bc 03       		.uleb128 0x3
 1663 09bd BB030000 		.4byte	.LASF143
 1664 09c1 07       		.byte	0x7
 1665 09c2 8C       		.byte	0x8c
 1666 09c3 21       		.byte	0x21
 1667 09c4 EC070000 		.4byte	0x7ec
 1668 09c8 00       		.byte	0
 1669 09c9 00       		.byte	0
 1670 09ca 02       		.uleb128 0x2
 1671 09cb 96060000 		.4byte	.LASF144
 1672 09cf 07       		.byte	0x7
 1673 09d0 8D       		.byte	0x8d
 1674 09d1 03       		.byte	0x3
 1675 09d2 AF090000 		.4byte	0x9af
 1676 09d6 02       		.uleb128 0x2
 1677 09d7 B0040000 		.4byte	.LASF145
 1678 09db 07       		.byte	0x7
 1679 09dc 92       		.byte	0x92
 1680 09dd 14       		.byte	0x14
 1681 09de 0C040000 		.4byte	0x40c
 1682 09e2 02       		.uleb128 0x2
 1683 09e3 AA030000 		.4byte	.LASF146
 1684 09e7 07       		.byte	0x7
 1685 09e8 A1       		.byte	0xa1
 1686 09e9 10       		.byte	0x10
 1687 09ea EE090000 		.4byte	0x9ee
 1688 09ee 04       		.uleb128 0x4
 1689 09ef F3090000 		.4byte	0x9f3
 1690 09f3 25       		.uleb128 0x25
 1691 09f4 FE090000 		.4byte	0x9fe
 1692 09f8 26       		.uleb128 0x26
 1693 09f9 0C040000 		.4byte	0x40c
 1694 09fd 00       		.byte	0
 1695 09fe 18       		.uleb128 0x18
 1696 09ff 0C       		.byte	0xc
 1697 0a00 07       		.byte	0x7
 1698 0a01 AD       		.byte	0xad
 1699 0a02 2B0A0000 		.4byte	0xa2b
 1700 0a06 0C       		.uleb128 0xc
 1701 0a07 3B080000 		.4byte	.LASF147
 1702 0a0b 07       		.byte	0x7
 1703 0a0c B1       		.byte	0xb1
 1704 0a0d 21       		.byte	0x21
 1705 0a0e C0070000 		.4byte	0x7c0
 1706 0a12 0C       		.uleb128 0xc
 1707 0a13 BB030000 		.4byte	.LASF143
 1708 0a17 07       		.byte	0x7
 1709 0a18 B5       		.byte	0xb5
 1710 0a19 21       		.byte	0x21
ARM GAS  C:\Users\DEVELO~1\AppData\Local\Temp\ccUfc5lX.s 			page 31


 1711 0a1a EC070000 		.4byte	0x7ec
 1712 0a1e 0C       		.uleb128 0xc
 1713 0a1f 53070000 		.4byte	.LASF148
 1714 0a23 07       		.byte	0x7
 1715 0a24 B9       		.byte	0xb9
 1716 0a25 21       		.byte	0x21
 1717 0a26 25080000 		.4byte	0x825
 1718 0a2a 00       		.byte	0
 1719 0a2b 27       		.uleb128 0x27
 1720 0a2c 04       		.byte	0x4
 1721 0a2d 07       		.byte	0x7
 1722 0a2e 0201     		.2byte	0x102
 1723 0a30 03       		.byte	0x3
 1724 0a31 960A0000 		.4byte	0xa96
 1725 0a35 0A       		.uleb128 0xa
 1726 0a36 29000000 		.4byte	.LASF149
 1727 0a3a 0901     		.2byte	0x109
 1728 0a3c 21       		.byte	0x21
 1729 0a3d 8A010000 		.4byte	0x18a
 1730 0a41 0A       		.uleb128 0xa
 1731 0a42 C7000000 		.4byte	.LASF150
 1732 0a46 1001     		.2byte	0x110
 1733 0a48 21       		.byte	0x21
 1734 0a49 8A010000 		.4byte	0x18a
 1735 0a4d 0A       		.uleb128 0xa
 1736 0a4e 57060000 		.4byte	.LASF73
 1737 0a52 1701     		.2byte	0x117
 1738 0a54 22       		.byte	0x22
 1739 0a55 AF000000 		.4byte	0xaf
 1740 0a59 0A       		.uleb128 0xa
 1741 0a5a 23000000 		.4byte	.LASF151
 1742 0a5e 1E01     		.2byte	0x11e
 1743 0a60 22       		.byte	0x22
 1744 0a61 960A0000 		.4byte	0xa96
 1745 0a65 0A       		.uleb128 0xa
 1746 0a66 DB000000 		.4byte	.LASF152
 1747 0a6a 2301     		.2byte	0x123
 1748 0a6c 21       		.byte	0x21
 1749 0a6d 8A010000 		.4byte	0x18a
 1750 0a71 0A       		.uleb128 0xa
 1751 0a72 B6020000 		.4byte	.LASF153
 1752 0a76 2C01     		.2byte	0x12c
 1753 0a78 22       		.byte	0x22
 1754 0a79 C30A0000 		.4byte	0xac3
 1755 0a7d 0A       		.uleb128 0xa
 1756 0a7e B1060000 		.4byte	.LASF154
 1757 0a82 3501     		.2byte	0x135
 1758 0a84 22       		.byte	0x22
 1759 0a85 FD0A0000 		.4byte	0xafd
 1760 0a89 0A       		.uleb128 0xa
 1761 0a8a 5E060000 		.4byte	.LASF155
 1762 0a8e 3D01     		.2byte	0x13d
 1763 0a90 21       		.byte	0x21
 1764 0a91 96010000 		.4byte	0x196
 1765 0a95 00       		.byte	0
 1766 0a96 04       		.uleb128 0x4
 1767 0a97 D6090000 		.4byte	0x9d6
ARM GAS  C:\Users\DEVELO~1\AppData\Local\Temp\ccUfc5lX.s 			page 32


 1768 0a9b 07       		.uleb128 0x7
 1769 0a9c 7F060000 		.4byte	.LASF156
 1770 0aa0 0C       		.byte	0xc
 1771 0aa1 0F       		.byte	0xf
 1772 0aa2 34       		.byte	0x34
 1773 0aa3 10       		.byte	0x10
 1774 0aa4 C30A0000 		.4byte	0xac3
 1775 0aa8 03       		.uleb128 0x3
 1776 0aa9 BB030000 		.4byte	.LASF143
 1777 0aad 0F       		.byte	0xf
 1778 0aae 35       		.byte	0x35
 1779 0aaf 19       		.byte	0x19
 1780 0ab0 EC070000 		.4byte	0x7ec
 1781 0ab4 00       		.byte	0
 1782 0ab5 08       		.uleb128 0x8
 1783 0ab6 636E7400 		.ascii	"cnt\000"
 1784 0aba 0F       		.byte	0xf
 1785 0abb 37       		.byte	0x37
 1786 0abc 19       		.byte	0x19
 1787 0abd A2010000 		.4byte	0x1a2
 1788 0ac1 08       		.byte	0x8
 1789 0ac2 00       		.byte	0
 1790 0ac3 04       		.uleb128 0x4
 1791 0ac4 9B0A0000 		.4byte	0xa9b
 1792 0ac8 07       		.uleb128 0x7
 1793 0ac9 FD070000 		.4byte	.LASF157
 1794 0acd 10       		.byte	0x10
 1795 0ace 10       		.byte	0x10
 1796 0acf 39       		.byte	0x39
 1797 0ad0 08       		.byte	0x8
 1798 0ad1 FD0A0000 		.4byte	0xafd
 1799 0ad5 03       		.uleb128 0x3
 1800 0ad6 BB030000 		.4byte	.LASF143
 1801 0ada 10       		.byte	0x10
 1802 0adb 3A       		.byte	0x3a
 1803 0adc 19       		.byte	0x19
 1804 0add EC070000 		.4byte	0x7ec
 1805 0ae1 00       		.byte	0
 1806 0ae2 03       		.uleb128 0x3
 1807 0ae3 CA060000 		.4byte	.LASF37
 1808 0ae7 10       		.byte	0x10
 1809 0ae8 3C       		.byte	0x3c
 1810 0ae9 1A       		.byte	0x1a
 1811 0aea 0C040000 		.4byte	0x40c
 1812 0aee 08       		.byte	0x8
 1813 0aef 03       		.uleb128 0x3
 1814 0af0 F8000000 		.4byte	.LASF114
 1815 0af4 10       		.byte	0x10
 1816 0af5 3E       		.byte	0x3e
 1817 0af6 1A       		.byte	0x1a
 1818 0af7 1C0C0000 		.4byte	0xc1c
 1819 0afb 0C       		.byte	0xc
 1820 0afc 00       		.byte	0
 1821 0afd 04       		.uleb128 0x4
 1822 0afe C80A0000 		.4byte	0xac8
 1823 0b02 04       		.uleb128 0x4
 1824 0b03 CE020000 		.4byte	0x2ce
ARM GAS  C:\Users\DEVELO~1\AppData\Local\Temp\ccUfc5lX.s 			page 33


 1825 0b07 04       		.uleb128 0x4
 1826 0b08 4E010000 		.4byte	0x14e
 1827 0b0c 0E       		.uleb128 0xe
 1828 0b0d 21040000 		.4byte	.LASF158
 1829 0b11 10       		.byte	0x10
 1830 0b12 07       		.byte	0x7
 1831 0b13 6C01     		.2byte	0x16c
 1832 0b15 10       		.byte	0x10
 1833 0b16 370B0000 		.4byte	0xb37
 1834 0b1a 01       		.uleb128 0x1
 1835 0b1b 53070000 		.4byte	.LASF148
 1836 0b1f 07       		.byte	0x7
 1837 0b20 7101     		.2byte	0x171
 1838 0b22 21       		.byte	0x21
 1839 0b23 25080000 		.4byte	0x825
 1840 0b27 00       		.byte	0
 1841 0b28 01       		.uleb128 0x1
 1842 0b29 90050000 		.4byte	.LASF159
 1843 0b2d 07       		.byte	0x7
 1844 0b2e 7501     		.2byte	0x175
 1845 0b30 22       		.byte	0x22
 1846 0b31 0C040000 		.4byte	0x40c
 1847 0b35 0C       		.byte	0xc
 1848 0b36 00       		.byte	0
 1849 0b37 13       		.uleb128 0x13
 1850 0b38 16000000 		.4byte	.LASF160
 1851 0b3c 07       		.byte	0x7
 1852 0b3d 7601     		.2byte	0x176
 1853 0b3f 0C0B0000 		.4byte	0xb0c
 1854 0b43 0E       		.uleb128 0xe
 1855 0b44 2E050000 		.4byte	.LASF161
 1856 0b48 14       		.byte	0x14
 1857 0b49 07       		.byte	0x7
 1858 0b4a 7B01     		.2byte	0x17b
 1859 0b4c 10       		.byte	0x10
 1860 0b4d 980B0000 		.4byte	0xb98
 1861 0b51 01       		.uleb128 0x1
 1862 0b52 A5030000 		.4byte	.LASF43
 1863 0b56 07       		.byte	0x7
 1864 0b57 7F01     		.2byte	0x17f
 1865 0b59 22       		.byte	0x22
 1866 0b5a BD000000 		.4byte	0xbd
 1867 0b5e 00       		.byte	0
 1868 0b5f 01       		.uleb128 0x1
 1869 0b60 EE040000 		.4byte	.LASF162
 1870 0b64 07       		.byte	0x7
 1871 0b65 8301     		.2byte	0x183
 1872 0b67 22       		.byte	0x22
 1873 0b68 070B0000 		.4byte	0xb07
 1874 0b6c 04       		.byte	0x4
 1875 0b6d 01       		.uleb128 0x1
 1876 0b6e 0E010000 		.4byte	.LASF163
 1877 0b72 07       		.byte	0x7
 1878 0b73 8701     		.2byte	0x187
 1879 0b75 22       		.byte	0x22
 1880 0b76 070B0000 		.4byte	0xb07
 1881 0b7a 08       		.byte	0x8
ARM GAS  C:\Users\DEVELO~1\AppData\Local\Temp\ccUfc5lX.s 			page 34


 1882 0b7b 01       		.uleb128 0x1
 1883 0b7c 48020000 		.4byte	.LASF164
 1884 0b80 07       		.byte	0x7
 1885 0b81 8C01     		.2byte	0x18c
 1886 0b83 22       		.byte	0x22
 1887 0b84 070B0000 		.4byte	0xb07
 1888 0b88 0C       		.byte	0xc
 1889 0b89 01       		.uleb128 0x1
 1890 0b8a 82050000 		.4byte	.LASF165
 1891 0b8e 07       		.byte	0x7
 1892 0b8f 9001     		.2byte	0x190
 1893 0b91 22       		.byte	0x22
 1894 0b92 070B0000 		.4byte	0xb07
 1895 0b96 10       		.byte	0x10
 1896 0b97 00       		.byte	0
 1897 0b98 13       		.uleb128 0x13
 1898 0b99 6E000000 		.4byte	.LASF166
 1899 0b9d 07       		.byte	0x7
 1900 0b9e 9201     		.2byte	0x192
 1901 0ba0 430B0000 		.4byte	0xb43
 1902 0ba4 10       		.uleb128 0x10
 1903 0ba5 980B0000 		.4byte	0xb98
 1904 0ba9 04       		.uleb128 0x4
 1905 0baa A40B0000 		.4byte	0xba4
 1906 0bae 0E       		.uleb128 0xe
 1907 0baf 65060000 		.4byte	.LASF167
 1908 0bb3 0C       		.byte	0xc
 1909 0bb4 07       		.byte	0x7
 1910 0bb5 DC01     		.2byte	0x1dc
 1911 0bb7 10       		.byte	0x10
 1912 0bb8 E70B0000 		.4byte	0xbe7
 1913 0bbc 01       		.uleb128 0x1
 1914 0bbd 4E010000 		.4byte	.LASF40
 1915 0bc1 07       		.byte	0x7
 1916 0bc2 E001     		.2byte	0x1e0
 1917 0bc4 21       		.byte	0x21
 1918 0bc5 5C090000 		.4byte	0x95c
 1919 0bc9 00       		.byte	0
 1920 0bca 01       		.uleb128 0x1
 1921 0bcb A6020000 		.4byte	.LASF168
 1922 0bcf 07       		.byte	0x7
 1923 0bd0 E401     		.2byte	0x1e4
 1924 0bd2 22       		.byte	0x22
 1925 0bd3 E70B0000 		.4byte	0xbe7
 1926 0bd7 04       		.byte	0x4
 1927 0bd8 05       		.uleb128 0x5
 1928 0bd9 746D6300 		.ascii	"tmc\000"
 1929 0bdd 07       		.byte	0x7
 1930 0bde E901     		.2byte	0x1e9
 1931 0be0 21       		.byte	0x21
 1932 0be1 C8080000 		.4byte	0x8c8
 1933 0be5 08       		.byte	0x8
 1934 0be6 00       		.byte	0
 1935 0be7 0D       		.uleb128 0xd
 1936 0be8 020B0000 		.4byte	0xb02
 1937 0bec F70B0000 		.4byte	0xbf7
 1938 0bf0 12       		.uleb128 0x12
ARM GAS  C:\Users\DEVELO~1\AppData\Local\Temp\ccUfc5lX.s 			page 35


 1939 0bf1 2D000000 		.4byte	0x2d
 1940 0bf5 00       		.byte	0
 1941 0bf6 00       		.byte	0
 1942 0bf7 13       		.uleb128 0x13
 1943 0bf8 05040000 		.4byte	.LASF169
 1944 0bfc 07       		.byte	0x7
 1945 0bfd 0002     		.2byte	0x200
 1946 0bff AE0B0000 		.4byte	0xbae
 1947 0c03 28       		.uleb128 0x28
 1948 0c04 65060000 		.4byte	.LASF167
 1949 0c08 11       		.byte	0x11
 1950 0c09 1C01     		.2byte	0x11c
 1951 0c0b 14       		.byte	0x14
 1952 0c0c F70B0000 		.4byte	0xbf7
 1953 0c10 02       		.uleb128 0x2
 1954 0c11 57020000 		.4byte	.LASF170
 1955 0c15 10       		.byte	0x10
 1956 0c16 34       		.byte	0x34
 1957 0c17 19       		.byte	0x19
 1958 0c18 C80A0000 		.4byte	0xac8
 1959 0c1c 04       		.uleb128 0x4
 1960 0c1d 100C0000 		.4byte	0xc10
 1961 0c21 06       		.uleb128 0x6
 1962 0c22 01       		.byte	0x1
 1963 0c23 02       		.byte	0x2
 1964 0c24 00060000 		.4byte	.LASF171
 1965 0c28 0F       		.uleb128 0xf
 1966 0c29 62040000 		.4byte	.LASF174
 1967 0c2d 98       		.byte	0x98
 1968 0c2e 0F       		.byte	0xf
 1969 0c2f 00000000 		.4byte	.LFB357
 1970 0c33 3C000000 		.4byte	.LFE357-.LFB357
 1971 0c37 01       		.uleb128 0x1
 1972 0c38 9C       		.byte	0x9c
 1973 0c39 B70C0000 		.4byte	0xcb7
 1974 0c3d 1A       		.uleb128 0x1a
 1975 0c3e 04010000 		.4byte	.LASF172
 1976 0c42 98       		.byte	0x98
 1977 0c43 B70C0000 		.4byte	0xcb7
 1978 0c47 01       		.uleb128 0x1
 1979 0c48 50       		.byte	0x50
 1980 0c49 1A       		.uleb128 0x1a
 1981 0c4a 09010000 		.4byte	.LASF173
 1982 0c4e 99       		.byte	0x99
 1983 0c4f B70C0000 		.4byte	0xcb7
 1984 0c53 01       		.uleb128 0x1
 1985 0c54 51       		.byte	0x51
 1986 0c55 29       		.uleb128 0x29
 1987 0c56 6E6F7700 		.ascii	"now\000"
 1988 0c5a 01       		.byte	0x1
 1989 0c5b 9C       		.byte	0x9c
 1990 0c5c 0B       		.byte	0xb
 1991 0c5d 36010000 		.4byte	0x136
 1992 0c61 10000000 		.4byte	.LLST5
 1993 0c65 0C000000 		.4byte	.LVUS5
 1994 0c69 1B       		.uleb128 0x1b
 1995 0c6a F40D0000 		.4byte	0xdf4
ARM GAS  C:\Users\DEVELO~1\AppData\Local\Temp\ccUfc5lX.s 			page 36


 1996 0c6e 00000000 		.4byte	.LBI28
 1997 0c72 02       		.byte	.LVU62
 1998 0c73 27000000 		.4byte	.LLRL6
 1999 0c77 9C       		.byte	0x9c
 2000 0c78 11       		.byte	0x11
 2001 0c79 2A       		.uleb128 0x2a
 2002 0c7a C40D0000 		.4byte	0xdc4
 2003 0c7e 06000000 		.4byte	.LBI32
 2004 0c82 02       		.byte	.LVU69
 2005 0c83 06000000 		.4byte	.LBB32
 2006 0c87 2A000000 		.4byte	.LBE32-.LBB32
 2007 0c8b 01       		.byte	0x1
 2008 0c8c A0       		.byte	0xa0
 2009 0c8d 03       		.byte	0x3
 2010 0c8e 0B       		.uleb128 0xb
 2011 0c8f E70D0000 		.4byte	0xde7
 2012 0c93 23000000 		.4byte	.LLST7
 2013 0c97 21000000 		.4byte	.LVUS7
 2014 0c9b 0B       		.uleb128 0xb
 2015 0c9c DC0D0000 		.4byte	0xddc
 2016 0ca0 2F000000 		.4byte	.LLST8
 2017 0ca4 2D000000 		.4byte	.LVUS8
 2018 0ca8 0B       		.uleb128 0xb
 2019 0ca9 D10D0000 		.4byte	0xdd1
 2020 0cad 3A000000 		.4byte	.LLST9
 2021 0cb1 38000000 		.4byte	.LVUS9
 2022 0cb5 00       		.byte	0
 2023 0cb6 00       		.byte	0
 2024 0cb7 04       		.uleb128 0x4
 2025 0cb8 1D090000 		.4byte	0x91d
 2026 0cbc 0F       		.uleb128 0xf
 2027 0cbd 54010000 		.4byte	.LASF175
 2028 0cc1 87       		.byte	0x87
 2029 0cc2 0F       		.byte	0xf
 2030 0cc3 00000000 		.4byte	.LFB356
 2031 0cc7 44000000 		.4byte	.LFE356-.LFB356
 2032 0ccb 01       		.uleb128 0x1
 2033 0ccc 9C       		.byte	0x9c
 2034 0ccd 280D0000 		.4byte	0xd28
 2035 0cd1 15       		.uleb128 0x15
 2036 0cd2 746D7000 		.ascii	"tmp\000"
 2037 0cd6 87       		.byte	0x87
 2038 0cd7 38       		.byte	0x38
 2039 0cd8 B70C0000 		.4byte	0xcb7
 2040 0cdc 01       		.uleb128 0x1
 2041 0cdd 50       		.byte	0x50
 2042 0cde 1B       		.uleb128 0x1b
 2043 0cdf F40D0000 		.4byte	0xdf4
 2044 0ce3 00000000 		.4byte	.LBI14
 2045 0ce7 02       		.byte	.LVU27
 2046 0ce8 0C000000 		.4byte	.LLRL0
 2047 0cec 89       		.byte	0x89
 2048 0ced 10       		.byte	0x10
 2049 0cee 2B       		.uleb128 0x2b
 2050 0cef C40D0000 		.4byte	0xdc4
 2051 0cf3 0C000000 		.4byte	.LBI19
 2052 0cf7 00       		.byte	.LVU35
ARM GAS  C:\Users\DEVELO~1\AppData\Local\Temp\ccUfc5lX.s 			page 37


 2053 0cf8 1B000000 		.4byte	.LLRL1
 2054 0cfc 01       		.byte	0x1
 2055 0cfd 89       		.byte	0x89
 2056 0cfe 03       		.byte	0x3
 2057 0cff 0B       		.uleb128 0xb
 2058 0d00 E70D0000 		.4byte	0xde7
 2059 0d04 45000000 		.4byte	.LLST2
 2060 0d08 43000000 		.4byte	.LVUS2
 2061 0d0c 0B       		.uleb128 0xb
 2062 0d0d DC0D0000 		.4byte	0xddc
 2063 0d11 50000000 		.4byte	.LLST3
 2064 0d15 4E000000 		.4byte	.LVUS3
 2065 0d19 0B       		.uleb128 0xb
 2066 0d1a D10D0000 		.4byte	0xdd1
 2067 0d1e 5B000000 		.4byte	.LLST4
 2068 0d22 59000000 		.4byte	.LVUS4
 2069 0d26 00       		.byte	0
 2070 0d27 00       		.byte	0
 2071 0d28 0F       		.uleb128 0xf
 2072 0d29 84020000 		.4byte	.LASF176
 2073 0d2d 7A       		.byte	0x7a
 2074 0d2e 0F       		.byte	0xf
 2075 0d2f 00000000 		.4byte	.LFB355
 2076 0d33 0C000000 		.4byte	.LFE355-.LFB355
 2077 0d37 01       		.uleb128 0x1
 2078 0d38 9C       		.byte	0x9c
 2079 0d39 600D0000 		.4byte	0xd60
 2080 0d3d 15       		.uleb128 0x15
 2081 0d3e 746D7000 		.ascii	"tmp\000"
 2082 0d42 7A       		.byte	0x7a
 2083 0d43 39       		.byte	0x39
 2084 0d44 B70C0000 		.4byte	0xcb7
 2085 0d48 01       		.uleb128 0x1
 2086 0d49 50       		.byte	0x50
 2087 0d4a 2C       		.uleb128 0x2c
 2088 0d4b F40D0000 		.4byte	0xdf4
 2089 0d4f 00000000 		.4byte	.LBI8
 2090 0d53 02       		.byte	.LVU20
 2091 0d54 00000000 		.4byte	.LBB8
 2092 0d58 04000000 		.4byte	.LBE8-.LBB8
 2093 0d5c 01       		.byte	0x1
 2094 0d5d 7C       		.byte	0x7c
 2095 0d5e 0F       		.byte	0xf
 2096 0d5f 00       		.byte	0
 2097 0d60 0F       		.uleb128 0xf
 2098 0d61 B8060000 		.4byte	.LASF177
 2099 0d65 69       		.byte	0x69
 2100 0d66 06       		.byte	0x6
 2101 0d67 00000000 		.4byte	.LFB354
 2102 0d6b 02000000 		.4byte	.LFE354-.LFB354
 2103 0d6f 01       		.uleb128 0x1
 2104 0d70 9C       		.byte	0x9c
 2105 0d71 8C0D0000 		.4byte	0xd8c
 2106 0d75 15       		.uleb128 0x15
 2107 0d76 746D7000 		.ascii	"tmp\000"
 2108 0d7a 69       		.byte	0x69
 2109 0d7b 2C       		.byte	0x2c
ARM GAS  C:\Users\DEVELO~1\AppData\Local\Temp\ccUfc5lX.s 			page 38


 2110 0d7c B70C0000 		.4byte	0xcb7
 2111 0d80 01       		.uleb128 0x1
 2112 0d81 50       		.byte	0x50
 2113 0d82 2D       		.uleb128 0x2d
 2114 0d83 6F060000 		.4byte	.LASF182
 2115 0d87 9C0D0000 		.4byte	0xd9c
 2116 0d8b 00       		.byte	0
 2117 0d8c 0D       		.uleb128 0xd
 2118 0d8d B8000000 		.4byte	0xb8
 2119 0d91 9C0D0000 		.4byte	0xd9c
 2120 0d95 12       		.uleb128 0x12
 2121 0d96 2D000000 		.4byte	0x2d
 2122 0d9a 11       		.byte	0x11
 2123 0d9b 00       		.byte	0
 2124 0d9c 10       		.uleb128 0x10
 2125 0d9d 8C0D0000 		.4byte	0xd8c
 2126 0da1 0F       		.uleb128 0xf
 2127 0da2 E9000000 		.4byte	.LASF178
 2128 0da6 51       		.byte	0x51
 2129 0da7 06       		.byte	0x6
 2130 0da8 00000000 		.4byte	.LFB353
 2131 0dac 1C000000 		.4byte	.LFE353-.LFB353
 2132 0db0 01       		.uleb128 0x1
 2133 0db1 9C       		.byte	0x9c
 2134 0db2 C40D0000 		.4byte	0xdc4
 2135 0db6 15       		.uleb128 0x15
 2136 0db7 746D7000 		.ascii	"tmp\000"
 2137 0dbb 51       		.byte	0x51
 2138 0dbc 29       		.byte	0x29
 2139 0dbd B70C0000 		.4byte	0xcb7
 2140 0dc1 01       		.uleb128 0x1
 2141 0dc2 50       		.byte	0x50
 2142 0dc3 00       		.byte	0
 2143 0dc4 2E       		.uleb128 0x2e
 2144 0dc5 08070000 		.4byte	.LASF183
 2145 0dc9 01       		.byte	0x1
 2146 0dca 37       		.byte	0x37
 2147 0dcb 14       		.byte	0x14
 2148 0dcc 03       		.byte	0x3
 2149 0dcd F40D0000 		.4byte	0xdf4
 2150 0dd1 1C       		.uleb128 0x1c
 2151 0dd2 746D7000 		.ascii	"tmp\000"
 2152 0dd6 37       		.byte	0x37
 2153 0dd7 30       		.byte	0x30
 2154 0dd8 B70C0000 		.4byte	0xcb7
 2155 0ddc 1C       		.uleb128 0x1c
 2156 0ddd 6E6F7700 		.ascii	"now\000"
 2157 0de1 38       		.byte	0x38
 2158 0de2 24       		.byte	0x24
 2159 0de3 36010000 		.4byte	0x136
 2160 0de7 2F       		.uleb128 0x2f
 2161 0de8 69070000 		.4byte	.LASF124
 2162 0dec 01       		.byte	0x1
 2163 0ded 39       		.byte	0x39
 2164 0dee 24       		.byte	0x24
 2165 0def 36010000 		.4byte	0x136
 2166 0df3 00       		.byte	0
ARM GAS  C:\Users\DEVELO~1\AppData\Local\Temp\ccUfc5lX.s 			page 39


 2167 0df4 30       		.uleb128 0x30
 2168 0df5 06080000 		.4byte	.LASF184
 2169 0df9 02       		.byte	0x2
 2170 0dfa B803     		.2byte	0x3b8
 2171 0dfc 1E       		.byte	0x1e
 2172 0dfd 36010000 		.4byte	0x136
 2173 0e01 03       		.byte	0x3
 2174 0e02 00       		.byte	0
 2175              		.section	.debug_abbrev,"",%progbits
 2176              	.Ldebug_abbrev0:
 2177 0000 01       		.uleb128 0x1
 2178 0001 0D       		.uleb128 0xd
 2179 0002 00       		.byte	0
 2180 0003 03       		.uleb128 0x3
 2181 0004 0E       		.uleb128 0xe
 2182 0005 3A       		.uleb128 0x3a
 2183 0006 0B       		.uleb128 0xb
 2184 0007 3B       		.uleb128 0x3b
 2185 0008 05       		.uleb128 0x5
 2186 0009 39       		.uleb128 0x39
 2187 000a 0B       		.uleb128 0xb
 2188 000b 49       		.uleb128 0x49
 2189 000c 13       		.uleb128 0x13
 2190 000d 38       		.uleb128 0x38
 2191 000e 0B       		.uleb128 0xb
 2192 000f 00       		.byte	0
 2193 0010 00       		.byte	0
 2194 0011 02       		.uleb128 0x2
 2195 0012 16       		.uleb128 0x16
 2196 0013 00       		.byte	0
 2197 0014 03       		.uleb128 0x3
 2198 0015 0E       		.uleb128 0xe
 2199 0016 3A       		.uleb128 0x3a
 2200 0017 0B       		.uleb128 0xb
 2201 0018 3B       		.uleb128 0x3b
 2202 0019 0B       		.uleb128 0xb
 2203 001a 39       		.uleb128 0x39
 2204 001b 0B       		.uleb128 0xb
 2205 001c 49       		.uleb128 0x49
 2206 001d 13       		.uleb128 0x13
 2207 001e 00       		.byte	0
 2208 001f 00       		.byte	0
 2209 0020 03       		.uleb128 0x3
 2210 0021 0D       		.uleb128 0xd
 2211 0022 00       		.byte	0
 2212 0023 03       		.uleb128 0x3
 2213 0024 0E       		.uleb128 0xe
 2214 0025 3A       		.uleb128 0x3a
 2215 0026 0B       		.uleb128 0xb
 2216 0027 3B       		.uleb128 0x3b
 2217 0028 0B       		.uleb128 0xb
 2218 0029 39       		.uleb128 0x39
 2219 002a 0B       		.uleb128 0xb
 2220 002b 49       		.uleb128 0x49
 2221 002c 13       		.uleb128 0x13
 2222 002d 38       		.uleb128 0x38
 2223 002e 0B       		.uleb128 0xb
ARM GAS  C:\Users\DEVELO~1\AppData\Local\Temp\ccUfc5lX.s 			page 40


 2224 002f 00       		.byte	0
 2225 0030 00       		.byte	0
 2226 0031 04       		.uleb128 0x4
 2227 0032 0F       		.uleb128 0xf
 2228 0033 00       		.byte	0
 2229 0034 0B       		.uleb128 0xb
 2230 0035 21       		.uleb128 0x21
 2231 0036 04       		.sleb128 4
 2232 0037 49       		.uleb128 0x49
 2233 0038 13       		.uleb128 0x13
 2234 0039 00       		.byte	0
 2235 003a 00       		.byte	0
 2236 003b 05       		.uleb128 0x5
 2237 003c 0D       		.uleb128 0xd
 2238 003d 00       		.byte	0
 2239 003e 03       		.uleb128 0x3
 2240 003f 08       		.uleb128 0x8
 2241 0040 3A       		.uleb128 0x3a
 2242 0041 0B       		.uleb128 0xb
 2243 0042 3B       		.uleb128 0x3b
 2244 0043 05       		.uleb128 0x5
 2245 0044 39       		.uleb128 0x39
 2246 0045 0B       		.uleb128 0xb
 2247 0046 49       		.uleb128 0x49
 2248 0047 13       		.uleb128 0x13
 2249 0048 38       		.uleb128 0x38
 2250 0049 0B       		.uleb128 0xb
 2251 004a 00       		.byte	0
 2252 004b 00       		.byte	0
 2253 004c 06       		.uleb128 0x6
 2254 004d 24       		.uleb128 0x24
 2255 004e 00       		.byte	0
 2256 004f 0B       		.uleb128 0xb
 2257 0050 0B       		.uleb128 0xb
 2258 0051 3E       		.uleb128 0x3e
 2259 0052 0B       		.uleb128 0xb
 2260 0053 03       		.uleb128 0x3
 2261 0054 0E       		.uleb128 0xe
 2262 0055 00       		.byte	0
 2263 0056 00       		.byte	0
 2264 0057 07       		.uleb128 0x7
 2265 0058 13       		.uleb128 0x13
 2266 0059 01       		.byte	0x1
 2267 005a 03       		.uleb128 0x3
 2268 005b 0E       		.uleb128 0xe
 2269 005c 0B       		.uleb128 0xb
 2270 005d 0B       		.uleb128 0xb
 2271 005e 3A       		.uleb128 0x3a
 2272 005f 0B       		.uleb128 0xb
 2273 0060 3B       		.uleb128 0x3b
 2274 0061 0B       		.uleb128 0xb
 2275 0062 39       		.uleb128 0x39
 2276 0063 0B       		.uleb128 0xb
 2277 0064 01       		.uleb128 0x1
 2278 0065 13       		.uleb128 0x13
 2279 0066 00       		.byte	0
 2280 0067 00       		.byte	0
ARM GAS  C:\Users\DEVELO~1\AppData\Local\Temp\ccUfc5lX.s 			page 41


 2281 0068 08       		.uleb128 0x8
 2282 0069 0D       		.uleb128 0xd
 2283 006a 00       		.byte	0
 2284 006b 03       		.uleb128 0x3
 2285 006c 08       		.uleb128 0x8
 2286 006d 3A       		.uleb128 0x3a
 2287 006e 0B       		.uleb128 0xb
 2288 006f 3B       		.uleb128 0x3b
 2289 0070 0B       		.uleb128 0xb
 2290 0071 39       		.uleb128 0x39
 2291 0072 0B       		.uleb128 0xb
 2292 0073 49       		.uleb128 0x49
 2293 0074 13       		.uleb128 0x13
 2294 0075 38       		.uleb128 0x38
 2295 0076 0B       		.uleb128 0xb
 2296 0077 00       		.byte	0
 2297 0078 00       		.byte	0
 2298 0079 09       		.uleb128 0x9
 2299 007a 13       		.uleb128 0x13
 2300 007b 01       		.byte	0x1
 2301 007c 0B       		.uleb128 0xb
 2302 007d 0B       		.uleb128 0xb
 2303 007e 3A       		.uleb128 0x3a
 2304 007f 0B       		.uleb128 0xb
 2305 0080 3B       		.uleb128 0x3b
 2306 0081 0B       		.uleb128 0xb
 2307 0082 39       		.uleb128 0x39
 2308 0083 0B       		.uleb128 0xb
 2309 0084 01       		.uleb128 0x1
 2310 0085 13       		.uleb128 0x13
 2311 0086 00       		.byte	0
 2312 0087 00       		.byte	0
 2313 0088 0A       		.uleb128 0xa
 2314 0089 0D       		.uleb128 0xd
 2315 008a 00       		.byte	0
 2316 008b 03       		.uleb128 0x3
 2317 008c 0E       		.uleb128 0xe
 2318 008d 3A       		.uleb128 0x3a
 2319 008e 21       		.uleb128 0x21
 2320 008f 07       		.sleb128 7
 2321 0090 3B       		.uleb128 0x3b
 2322 0091 05       		.uleb128 0x5
 2323 0092 39       		.uleb128 0x39
 2324 0093 0B       		.uleb128 0xb
 2325 0094 49       		.uleb128 0x49
 2326 0095 13       		.uleb128 0x13
 2327 0096 00       		.byte	0
 2328 0097 00       		.byte	0
 2329 0098 0B       		.uleb128 0xb
 2330 0099 05       		.uleb128 0x5
 2331 009a 00       		.byte	0
 2332 009b 31       		.uleb128 0x31
 2333 009c 13       		.uleb128 0x13
 2334 009d 02       		.uleb128 0x2
 2335 009e 17       		.uleb128 0x17
 2336 009f B742     		.uleb128 0x2137
 2337 00a1 17       		.uleb128 0x17
ARM GAS  C:\Users\DEVELO~1\AppData\Local\Temp\ccUfc5lX.s 			page 42


 2338 00a2 00       		.byte	0
 2339 00a3 00       		.byte	0
 2340 00a4 0C       		.uleb128 0xc
 2341 00a5 0D       		.uleb128 0xd
 2342 00a6 00       		.byte	0
 2343 00a7 03       		.uleb128 0x3
 2344 00a8 0E       		.uleb128 0xe
 2345 00a9 3A       		.uleb128 0x3a
 2346 00aa 0B       		.uleb128 0xb
 2347 00ab 3B       		.uleb128 0x3b
 2348 00ac 0B       		.uleb128 0xb
 2349 00ad 39       		.uleb128 0x39
 2350 00ae 0B       		.uleb128 0xb
 2351 00af 49       		.uleb128 0x49
 2352 00b0 13       		.uleb128 0x13
 2353 00b1 00       		.byte	0
 2354 00b2 00       		.byte	0
 2355 00b3 0D       		.uleb128 0xd
 2356 00b4 01       		.uleb128 0x1
 2357 00b5 01       		.byte	0x1
 2358 00b6 49       		.uleb128 0x49
 2359 00b7 13       		.uleb128 0x13
 2360 00b8 01       		.uleb128 0x1
 2361 00b9 13       		.uleb128 0x13
 2362 00ba 00       		.byte	0
 2363 00bb 00       		.byte	0
 2364 00bc 0E       		.uleb128 0xe
 2365 00bd 13       		.uleb128 0x13
 2366 00be 01       		.byte	0x1
 2367 00bf 03       		.uleb128 0x3
 2368 00c0 0E       		.uleb128 0xe
 2369 00c1 0B       		.uleb128 0xb
 2370 00c2 0B       		.uleb128 0xb
 2371 00c3 3A       		.uleb128 0x3a
 2372 00c4 0B       		.uleb128 0xb
 2373 00c5 3B       		.uleb128 0x3b
 2374 00c6 05       		.uleb128 0x5
 2375 00c7 39       		.uleb128 0x39
 2376 00c8 0B       		.uleb128 0xb
 2377 00c9 01       		.uleb128 0x1
 2378 00ca 13       		.uleb128 0x13
 2379 00cb 00       		.byte	0
 2380 00cc 00       		.byte	0
 2381 00cd 0F       		.uleb128 0xf
 2382 00ce 2E       		.uleb128 0x2e
 2383 00cf 01       		.byte	0x1
 2384 00d0 3F       		.uleb128 0x3f
 2385 00d1 19       		.uleb128 0x19
 2386 00d2 03       		.uleb128 0x3
 2387 00d3 0E       		.uleb128 0xe
 2388 00d4 3A       		.uleb128 0x3a
 2389 00d5 21       		.uleb128 0x21
 2390 00d6 01       		.sleb128 1
 2391 00d7 3B       		.uleb128 0x3b
 2392 00d8 0B       		.uleb128 0xb
 2393 00d9 39       		.uleb128 0x39
 2394 00da 0B       		.uleb128 0xb
ARM GAS  C:\Users\DEVELO~1\AppData\Local\Temp\ccUfc5lX.s 			page 43


 2395 00db 27       		.uleb128 0x27
 2396 00dc 19       		.uleb128 0x19
 2397 00dd 11       		.uleb128 0x11
 2398 00de 01       		.uleb128 0x1
 2399 00df 12       		.uleb128 0x12
 2400 00e0 06       		.uleb128 0x6
 2401 00e1 40       		.uleb128 0x40
 2402 00e2 18       		.uleb128 0x18
 2403 00e3 7A       		.uleb128 0x7a
 2404 00e4 19       		.uleb128 0x19
 2405 00e5 01       		.uleb128 0x1
 2406 00e6 13       		.uleb128 0x13
 2407 00e7 00       		.byte	0
 2408 00e8 00       		.byte	0
 2409 00e9 10       		.uleb128 0x10
 2410 00ea 26       		.uleb128 0x26
 2411 00eb 00       		.byte	0
 2412 00ec 49       		.uleb128 0x49
 2413 00ed 13       		.uleb128 0x13
 2414 00ee 00       		.byte	0
 2415 00ef 00       		.byte	0
 2416 00f0 11       		.uleb128 0x11
 2417 00f1 35       		.uleb128 0x35
 2418 00f2 00       		.byte	0
 2419 00f3 49       		.uleb128 0x49
 2420 00f4 13       		.uleb128 0x13
 2421 00f5 00       		.byte	0
 2422 00f6 00       		.byte	0
 2423 00f7 12       		.uleb128 0x12
 2424 00f8 21       		.uleb128 0x21
 2425 00f9 00       		.byte	0
 2426 00fa 49       		.uleb128 0x49
 2427 00fb 13       		.uleb128 0x13
 2428 00fc 2F       		.uleb128 0x2f
 2429 00fd 0B       		.uleb128 0xb
 2430 00fe 00       		.byte	0
 2431 00ff 00       		.byte	0
 2432 0100 13       		.uleb128 0x13
 2433 0101 16       		.uleb128 0x16
 2434 0102 00       		.byte	0
 2435 0103 03       		.uleb128 0x3
 2436 0104 0E       		.uleb128 0xe
 2437 0105 3A       		.uleb128 0x3a
 2438 0106 0B       		.uleb128 0xb
 2439 0107 3B       		.uleb128 0x3b
 2440 0108 05       		.uleb128 0x5
 2441 0109 39       		.uleb128 0x39
 2442 010a 21       		.uleb128 0x21
 2443 010b 03       		.sleb128 3
 2444 010c 49       		.uleb128 0x49
 2445 010d 13       		.uleb128 0x13
 2446 010e 00       		.byte	0
 2447 010f 00       		.byte	0
 2448 0110 14       		.uleb128 0x14
 2449 0111 28       		.uleb128 0x28
 2450 0112 00       		.byte	0
 2451 0113 03       		.uleb128 0x3
ARM GAS  C:\Users\DEVELO~1\AppData\Local\Temp\ccUfc5lX.s 			page 44


 2452 0114 0E       		.uleb128 0xe
 2453 0115 1C       		.uleb128 0x1c
 2454 0116 0B       		.uleb128 0xb
 2455 0117 00       		.byte	0
 2456 0118 00       		.byte	0
 2457 0119 15       		.uleb128 0x15
 2458 011a 05       		.uleb128 0x5
 2459 011b 00       		.byte	0
 2460 011c 03       		.uleb128 0x3
 2461 011d 08       		.uleb128 0x8
 2462 011e 3A       		.uleb128 0x3a
 2463 011f 21       		.uleb128 0x21
 2464 0120 01       		.sleb128 1
 2465 0121 3B       		.uleb128 0x3b
 2466 0122 0B       		.uleb128 0xb
 2467 0123 39       		.uleb128 0x39
 2468 0124 0B       		.uleb128 0xb
 2469 0125 49       		.uleb128 0x49
 2470 0126 13       		.uleb128 0x13
 2471 0127 02       		.uleb128 0x2
 2472 0128 18       		.uleb128 0x18
 2473 0129 00       		.byte	0
 2474 012a 00       		.byte	0
 2475 012b 16       		.uleb128 0x16
 2476 012c 0D       		.uleb128 0xd
 2477 012d 00       		.byte	0
 2478 012e 03       		.uleb128 0x3
 2479 012f 08       		.uleb128 0x8
 2480 0130 3A       		.uleb128 0x3a
 2481 0131 21       		.uleb128 0x21
 2482 0132 0B       		.sleb128 11
 2483 0133 3B       		.uleb128 0x3b
 2484 0134 0B       		.uleb128 0xb
 2485 0135 39       		.uleb128 0x39
 2486 0136 21       		.uleb128 0x21
 2487 0137 07       		.sleb128 7
 2488 0138 49       		.uleb128 0x49
 2489 0139 13       		.uleb128 0x13
 2490 013a 00       		.byte	0
 2491 013b 00       		.byte	0
 2492 013c 17       		.uleb128 0x17
 2493 013d 0D       		.uleb128 0xd
 2494 013e 00       		.byte	0
 2495 013f 03       		.uleb128 0x3
 2496 0140 0E       		.uleb128 0xe
 2497 0141 3A       		.uleb128 0x3a
 2498 0142 21       		.uleb128 0x21
 2499 0143 0B       		.sleb128 11
 2500 0144 3B       		.uleb128 0x3b
 2501 0145 0B       		.uleb128 0xb
 2502 0146 39       		.uleb128 0x39
 2503 0147 21       		.uleb128 0x21
 2504 0148 19       		.sleb128 25
 2505 0149 49       		.uleb128 0x49
 2506 014a 13       		.uleb128 0x13
 2507 014b 0D       		.uleb128 0xd
 2508 014c 0B       		.uleb128 0xb
ARM GAS  C:\Users\DEVELO~1\AppData\Local\Temp\ccUfc5lX.s 			page 45


 2509 014d 6B       		.uleb128 0x6b
 2510 014e 0B       		.uleb128 0xb
 2511 014f 00       		.byte	0
 2512 0150 00       		.byte	0
 2513 0151 18       		.uleb128 0x18
 2514 0152 17       		.uleb128 0x17
 2515 0153 01       		.byte	0x1
 2516 0154 0B       		.uleb128 0xb
 2517 0155 0B       		.uleb128 0xb
 2518 0156 3A       		.uleb128 0x3a
 2519 0157 0B       		.uleb128 0xb
 2520 0158 3B       		.uleb128 0x3b
 2521 0159 0B       		.uleb128 0xb
 2522 015a 39       		.uleb128 0x39
 2523 015b 21       		.uleb128 0x21
 2524 015c 03       		.sleb128 3
 2525 015d 01       		.uleb128 0x1
 2526 015e 13       		.uleb128 0x13
 2527 015f 00       		.byte	0
 2528 0160 00       		.byte	0
 2529 0161 19       		.uleb128 0x19
 2530 0162 0D       		.uleb128 0xd
 2531 0163 00       		.byte	0
 2532 0164 03       		.uleb128 0x3
 2533 0165 08       		.uleb128 0x8
 2534 0166 3A       		.uleb128 0x3a
 2535 0167 21       		.uleb128 0x21
 2536 0168 0C       		.sleb128 12
 2537 0169 3B       		.uleb128 0x3b
 2538 016a 05       		.uleb128 0x5
 2539 016b 39       		.uleb128 0x39
 2540 016c 21       		.uleb128 0x21
 2541 016d 12       		.sleb128 18
 2542 016e 49       		.uleb128 0x49
 2543 016f 13       		.uleb128 0x13
 2544 0170 38       		.uleb128 0x38
 2545 0171 05       		.uleb128 0x5
 2546 0172 00       		.byte	0
 2547 0173 00       		.byte	0
 2548 0174 1A       		.uleb128 0x1a
 2549 0175 05       		.uleb128 0x5
 2550 0176 00       		.byte	0
 2551 0177 03       		.uleb128 0x3
 2552 0178 0E       		.uleb128 0xe
 2553 0179 3A       		.uleb128 0x3a
 2554 017a 21       		.uleb128 0x21
 2555 017b 01       		.sleb128 1
 2556 017c 3B       		.uleb128 0x3b
 2557 017d 0B       		.uleb128 0xb
 2558 017e 39       		.uleb128 0x39
 2559 017f 21       		.uleb128 0x21
 2560 0180 3B       		.sleb128 59
 2561 0181 49       		.uleb128 0x49
 2562 0182 13       		.uleb128 0x13
 2563 0183 02       		.uleb128 0x2
 2564 0184 18       		.uleb128 0x18
 2565 0185 00       		.byte	0
ARM GAS  C:\Users\DEVELO~1\AppData\Local\Temp\ccUfc5lX.s 			page 46


 2566 0186 00       		.byte	0
 2567 0187 1B       		.uleb128 0x1b
 2568 0188 1D       		.uleb128 0x1d
 2569 0189 00       		.byte	0
 2570 018a 31       		.uleb128 0x31
 2571 018b 13       		.uleb128 0x13
 2572 018c 52       		.uleb128 0x52
 2573 018d 01       		.uleb128 0x1
 2574 018e B842     		.uleb128 0x2138
 2575 0190 0B       		.uleb128 0xb
 2576 0191 55       		.uleb128 0x55
 2577 0192 17       		.uleb128 0x17
 2578 0193 58       		.uleb128 0x58
 2579 0194 21       		.uleb128 0x21
 2580 0195 01       		.sleb128 1
 2581 0196 59       		.uleb128 0x59
 2582 0197 0B       		.uleb128 0xb
 2583 0198 57       		.uleb128 0x57
 2584 0199 0B       		.uleb128 0xb
 2585 019a 00       		.byte	0
 2586 019b 00       		.byte	0
 2587 019c 1C       		.uleb128 0x1c
 2588 019d 05       		.uleb128 0x5
 2589 019e 00       		.byte	0
 2590 019f 03       		.uleb128 0x3
 2591 01a0 08       		.uleb128 0x8
 2592 01a1 3A       		.uleb128 0x3a
 2593 01a2 21       		.uleb128 0x21
 2594 01a3 01       		.sleb128 1
 2595 01a4 3B       		.uleb128 0x3b
 2596 01a5 0B       		.uleb128 0xb
 2597 01a6 39       		.uleb128 0x39
 2598 01a7 0B       		.uleb128 0xb
 2599 01a8 49       		.uleb128 0x49
 2600 01a9 13       		.uleb128 0x13
 2601 01aa 00       		.byte	0
 2602 01ab 00       		.byte	0
 2603 01ac 1D       		.uleb128 0x1d
 2604 01ad 11       		.uleb128 0x11
 2605 01ae 01       		.byte	0x1
 2606 01af 25       		.uleb128 0x25
 2607 01b0 0E       		.uleb128 0xe
 2608 01b1 13       		.uleb128 0x13
 2609 01b2 0B       		.uleb128 0xb
 2610 01b3 03       		.uleb128 0x3
 2611 01b4 0E       		.uleb128 0xe
 2612 01b5 1B       		.uleb128 0x1b
 2613 01b6 0E       		.uleb128 0xe
 2614 01b7 55       		.uleb128 0x55
 2615 01b8 17       		.uleb128 0x17
 2616 01b9 11       		.uleb128 0x11
 2617 01ba 01       		.uleb128 0x1
 2618 01bb 10       		.uleb128 0x10
 2619 01bc 17       		.uleb128 0x17
 2620 01bd 00       		.byte	0
 2621 01be 00       		.byte	0
 2622 01bf 1E       		.uleb128 0x1e
ARM GAS  C:\Users\DEVELO~1\AppData\Local\Temp\ccUfc5lX.s 			page 47


 2623 01c0 24       		.uleb128 0x24
 2624 01c1 00       		.byte	0
 2625 01c2 0B       		.uleb128 0xb
 2626 01c3 0B       		.uleb128 0xb
 2627 01c4 3E       		.uleb128 0x3e
 2628 01c5 0B       		.uleb128 0xb
 2629 01c6 03       		.uleb128 0x3
 2630 01c7 08       		.uleb128 0x8
 2631 01c8 00       		.byte	0
 2632 01c9 00       		.byte	0
 2633 01ca 1F       		.uleb128 0x1f
 2634 01cb 0F       		.uleb128 0xf
 2635 01cc 00       		.byte	0
 2636 01cd 0B       		.uleb128 0xb
 2637 01ce 0B       		.uleb128 0xb
 2638 01cf 00       		.byte	0
 2639 01d0 00       		.byte	0
 2640 01d1 20       		.uleb128 0x20
 2641 01d2 13       		.uleb128 0x13
 2642 01d3 01       		.byte	0x1
 2643 01d4 03       		.uleb128 0x3
 2644 01d5 0E       		.uleb128 0xe
 2645 01d6 0B       		.uleb128 0xb
 2646 01d7 05       		.uleb128 0x5
 2647 01d8 3A       		.uleb128 0x3a
 2648 01d9 0B       		.uleb128 0xb
 2649 01da 3B       		.uleb128 0x3b
 2650 01db 05       		.uleb128 0x5
 2651 01dc 39       		.uleb128 0x39
 2652 01dd 0B       		.uleb128 0xb
 2653 01de 01       		.uleb128 0x1
 2654 01df 13       		.uleb128 0x13
 2655 01e0 00       		.byte	0
 2656 01e1 00       		.byte	0
 2657 01e2 21       		.uleb128 0x21
 2658 01e3 13       		.uleb128 0x13
 2659 01e4 01       		.byte	0x1
 2660 01e5 0B       		.uleb128 0xb
 2661 01e6 05       		.uleb128 0x5
 2662 01e7 3A       		.uleb128 0x3a
 2663 01e8 0B       		.uleb128 0xb
 2664 01e9 3B       		.uleb128 0x3b
 2665 01ea 0B       		.uleb128 0xb
 2666 01eb 39       		.uleb128 0x39
 2667 01ec 0B       		.uleb128 0xb
 2668 01ed 01       		.uleb128 0x1
 2669 01ee 13       		.uleb128 0x13
 2670 01ef 00       		.byte	0
 2671 01f0 00       		.byte	0
 2672 01f1 22       		.uleb128 0x22
 2673 01f2 13       		.uleb128 0x13
 2674 01f3 01       		.byte	0x1
 2675 01f4 0B       		.uleb128 0xb
 2676 01f5 05       		.uleb128 0x5
 2677 01f6 3A       		.uleb128 0x3a
 2678 01f7 0B       		.uleb128 0xb
 2679 01f8 3B       		.uleb128 0x3b
ARM GAS  C:\Users\DEVELO~1\AppData\Local\Temp\ccUfc5lX.s 			page 48


 2680 01f9 05       		.uleb128 0x5
 2681 01fa 39       		.uleb128 0x39
 2682 01fb 0B       		.uleb128 0xb
 2683 01fc 01       		.uleb128 0x1
 2684 01fd 13       		.uleb128 0x13
 2685 01fe 00       		.byte	0
 2686 01ff 00       		.byte	0
 2687 0200 23       		.uleb128 0x23
 2688 0201 21       		.uleb128 0x21
 2689 0202 00       		.byte	0
 2690 0203 49       		.uleb128 0x49
 2691 0204 13       		.uleb128 0x13
 2692 0205 2F       		.uleb128 0x2f
 2693 0206 05       		.uleb128 0x5
 2694 0207 00       		.byte	0
 2695 0208 00       		.byte	0
 2696 0209 24       		.uleb128 0x24
 2697 020a 04       		.uleb128 0x4
 2698 020b 01       		.byte	0x1
 2699 020c 3E       		.uleb128 0x3e
 2700 020d 0B       		.uleb128 0xb
 2701 020e 0B       		.uleb128 0xb
 2702 020f 0B       		.uleb128 0xb
 2703 0210 49       		.uleb128 0x49
 2704 0211 13       		.uleb128 0x13
 2705 0212 3A       		.uleb128 0x3a
 2706 0213 0B       		.uleb128 0xb
 2707 0214 3B       		.uleb128 0x3b
 2708 0215 0B       		.uleb128 0xb
 2709 0216 39       		.uleb128 0x39
 2710 0217 0B       		.uleb128 0xb
 2711 0218 01       		.uleb128 0x1
 2712 0219 13       		.uleb128 0x13
 2713 021a 00       		.byte	0
 2714 021b 00       		.byte	0
 2715 021c 25       		.uleb128 0x25
 2716 021d 15       		.uleb128 0x15
 2717 021e 01       		.byte	0x1
 2718 021f 27       		.uleb128 0x27
 2719 0220 19       		.uleb128 0x19
 2720 0221 01       		.uleb128 0x1
 2721 0222 13       		.uleb128 0x13
 2722 0223 00       		.byte	0
 2723 0224 00       		.byte	0
 2724 0225 26       		.uleb128 0x26
 2725 0226 05       		.uleb128 0x5
 2726 0227 00       		.byte	0
 2727 0228 49       		.uleb128 0x49
 2728 0229 13       		.uleb128 0x13
 2729 022a 00       		.byte	0
 2730 022b 00       		.byte	0
 2731 022c 27       		.uleb128 0x27
 2732 022d 17       		.uleb128 0x17
 2733 022e 01       		.byte	0x1
 2734 022f 0B       		.uleb128 0xb
 2735 0230 0B       		.uleb128 0xb
 2736 0231 3A       		.uleb128 0x3a
ARM GAS  C:\Users\DEVELO~1\AppData\Local\Temp\ccUfc5lX.s 			page 49


 2737 0232 0B       		.uleb128 0xb
 2738 0233 3B       		.uleb128 0x3b
 2739 0234 05       		.uleb128 0x5
 2740 0235 39       		.uleb128 0x39
 2741 0236 0B       		.uleb128 0xb
 2742 0237 01       		.uleb128 0x1
 2743 0238 13       		.uleb128 0x13
 2744 0239 00       		.byte	0
 2745 023a 00       		.byte	0
 2746 023b 28       		.uleb128 0x28
 2747 023c 34       		.uleb128 0x34
 2748 023d 00       		.byte	0
 2749 023e 03       		.uleb128 0x3
 2750 023f 0E       		.uleb128 0xe
 2751 0240 3A       		.uleb128 0x3a
 2752 0241 0B       		.uleb128 0xb
 2753 0242 3B       		.uleb128 0x3b
 2754 0243 05       		.uleb128 0x5
 2755 0244 39       		.uleb128 0x39
 2756 0245 0B       		.uleb128 0xb
 2757 0246 49       		.uleb128 0x49
 2758 0247 13       		.uleb128 0x13
 2759 0248 3F       		.uleb128 0x3f
 2760 0249 19       		.uleb128 0x19
 2761 024a 3C       		.uleb128 0x3c
 2762 024b 19       		.uleb128 0x19
 2763 024c 00       		.byte	0
 2764 024d 00       		.byte	0
 2765 024e 29       		.uleb128 0x29
 2766 024f 34       		.uleb128 0x34
 2767 0250 00       		.byte	0
 2768 0251 03       		.uleb128 0x3
 2769 0252 08       		.uleb128 0x8
 2770 0253 3A       		.uleb128 0x3a
 2771 0254 0B       		.uleb128 0xb
 2772 0255 3B       		.uleb128 0x3b
 2773 0256 0B       		.uleb128 0xb
 2774 0257 39       		.uleb128 0x39
 2775 0258 0B       		.uleb128 0xb
 2776 0259 49       		.uleb128 0x49
 2777 025a 13       		.uleb128 0x13
 2778 025b 02       		.uleb128 0x2
 2779 025c 17       		.uleb128 0x17
 2780 025d B742     		.uleb128 0x2137
 2781 025f 17       		.uleb128 0x17
 2782 0260 00       		.byte	0
 2783 0261 00       		.byte	0
 2784 0262 2A       		.uleb128 0x2a
 2785 0263 1D       		.uleb128 0x1d
 2786 0264 01       		.byte	0x1
 2787 0265 31       		.uleb128 0x31
 2788 0266 13       		.uleb128 0x13
 2789 0267 52       		.uleb128 0x52
 2790 0268 01       		.uleb128 0x1
 2791 0269 B842     		.uleb128 0x2138
 2792 026b 0B       		.uleb128 0xb
 2793 026c 11       		.uleb128 0x11
ARM GAS  C:\Users\DEVELO~1\AppData\Local\Temp\ccUfc5lX.s 			page 50


 2794 026d 01       		.uleb128 0x1
 2795 026e 12       		.uleb128 0x12
 2796 026f 06       		.uleb128 0x6
 2797 0270 58       		.uleb128 0x58
 2798 0271 0B       		.uleb128 0xb
 2799 0272 59       		.uleb128 0x59
 2800 0273 0B       		.uleb128 0xb
 2801 0274 57       		.uleb128 0x57
 2802 0275 0B       		.uleb128 0xb
 2803 0276 00       		.byte	0
 2804 0277 00       		.byte	0
 2805 0278 2B       		.uleb128 0x2b
 2806 0279 1D       		.uleb128 0x1d
 2807 027a 01       		.byte	0x1
 2808 027b 31       		.uleb128 0x31
 2809 027c 13       		.uleb128 0x13
 2810 027d 52       		.uleb128 0x52
 2811 027e 01       		.uleb128 0x1
 2812 027f B842     		.uleb128 0x2138
 2813 0281 0B       		.uleb128 0xb
 2814 0282 55       		.uleb128 0x55
 2815 0283 17       		.uleb128 0x17
 2816 0284 58       		.uleb128 0x58
 2817 0285 0B       		.uleb128 0xb
 2818 0286 59       		.uleb128 0x59
 2819 0287 0B       		.uleb128 0xb
 2820 0288 57       		.uleb128 0x57
 2821 0289 0B       		.uleb128 0xb
 2822 028a 00       		.byte	0
 2823 028b 00       		.byte	0
 2824 028c 2C       		.uleb128 0x2c
 2825 028d 1D       		.uleb128 0x1d
 2826 028e 00       		.byte	0
 2827 028f 31       		.uleb128 0x31
 2828 0290 13       		.uleb128 0x13
 2829 0291 52       		.uleb128 0x52
 2830 0292 01       		.uleb128 0x1
 2831 0293 B842     		.uleb128 0x2138
 2832 0295 0B       		.uleb128 0xb
 2833 0296 11       		.uleb128 0x11
 2834 0297 01       		.uleb128 0x1
 2835 0298 12       		.uleb128 0x12
 2836 0299 06       		.uleb128 0x6
 2837 029a 58       		.uleb128 0x58
 2838 029b 0B       		.uleb128 0xb
 2839 029c 59       		.uleb128 0x59
 2840 029d 0B       		.uleb128 0xb
 2841 029e 57       		.uleb128 0x57
 2842 029f 0B       		.uleb128 0xb
 2843 02a0 00       		.byte	0
 2844 02a1 00       		.byte	0
 2845 02a2 2D       		.uleb128 0x2d
 2846 02a3 34       		.uleb128 0x34
 2847 02a4 00       		.byte	0
 2848 02a5 03       		.uleb128 0x3
 2849 02a6 0E       		.uleb128 0xe
 2850 02a7 49       		.uleb128 0x49
ARM GAS  C:\Users\DEVELO~1\AppData\Local\Temp\ccUfc5lX.s 			page 51


 2851 02a8 13       		.uleb128 0x13
 2852 02a9 34       		.uleb128 0x34
 2853 02aa 19       		.uleb128 0x19
 2854 02ab 00       		.byte	0
 2855 02ac 00       		.byte	0
 2856 02ad 2E       		.uleb128 0x2e
 2857 02ae 2E       		.uleb128 0x2e
 2858 02af 01       		.byte	0x1
 2859 02b0 03       		.uleb128 0x3
 2860 02b1 0E       		.uleb128 0xe
 2861 02b2 3A       		.uleb128 0x3a
 2862 02b3 0B       		.uleb128 0xb
 2863 02b4 3B       		.uleb128 0x3b
 2864 02b5 0B       		.uleb128 0xb
 2865 02b6 39       		.uleb128 0x39
 2866 02b7 0B       		.uleb128 0xb
 2867 02b8 27       		.uleb128 0x27
 2868 02b9 19       		.uleb128 0x19
 2869 02ba 20       		.uleb128 0x20
 2870 02bb 0B       		.uleb128 0xb
 2871 02bc 01       		.uleb128 0x1
 2872 02bd 13       		.uleb128 0x13
 2873 02be 00       		.byte	0
 2874 02bf 00       		.byte	0
 2875 02c0 2F       		.uleb128 0x2f
 2876 02c1 05       		.uleb128 0x5
 2877 02c2 00       		.byte	0
 2878 02c3 03       		.uleb128 0x3
 2879 02c4 0E       		.uleb128 0xe
 2880 02c5 3A       		.uleb128 0x3a
 2881 02c6 0B       		.uleb128 0xb
 2882 02c7 3B       		.uleb128 0x3b
 2883 02c8 0B       		.uleb128 0xb
 2884 02c9 39       		.uleb128 0x39
 2885 02ca 0B       		.uleb128 0xb
 2886 02cb 49       		.uleb128 0x49
 2887 02cc 13       		.uleb128 0x13
 2888 02cd 00       		.byte	0
 2889 02ce 00       		.byte	0
 2890 02cf 30       		.uleb128 0x30
 2891 02d0 2E       		.uleb128 0x2e
 2892 02d1 00       		.byte	0
 2893 02d2 03       		.uleb128 0x3
 2894 02d3 0E       		.uleb128 0xe
 2895 02d4 3A       		.uleb128 0x3a
 2896 02d5 0B       		.uleb128 0xb
 2897 02d6 3B       		.uleb128 0x3b
 2898 02d7 05       		.uleb128 0x5
 2899 02d8 39       		.uleb128 0x39
 2900 02d9 0B       		.uleb128 0xb
 2901 02da 27       		.uleb128 0x27
 2902 02db 19       		.uleb128 0x19
 2903 02dc 49       		.uleb128 0x49
 2904 02dd 13       		.uleb128 0x13
 2905 02de 20       		.uleb128 0x20
 2906 02df 0B       		.uleb128 0xb
 2907 02e0 00       		.byte	0
ARM GAS  C:\Users\DEVELO~1\AppData\Local\Temp\ccUfc5lX.s 			page 52


 2908 02e1 00       		.byte	0
 2909 02e2 00       		.byte	0
 2910              		.section	.debug_loclists,"",%progbits
 2911 0000 60000000 		.4byte	.Ldebug_loc3-.Ldebug_loc2
 2912              	.Ldebug_loc2:
 2913 0004 0500     		.2byte	0x5
 2914 0006 04       		.byte	0x4
 2915 0007 00       		.byte	0
 2916 0008 00000000 		.4byte	0
 2917              	.Ldebug_loc0:
 2918              	.LVUS5:
 2919 000c 00       		.uleb128 .LVU67
 2920 000d 00       		.uleb128 .LVU97
 2921 000e 00       		.uleb128 .LVU97
 2922 000f 00       		.uleb128 0
 2923              	.LLST5:
 2924 0010 06       		.byte	0x6
 2925 0011 06000000 		.4byte	.LVL9
 2926 0015 04       		.byte	0x4
 2927 0016 00       		.uleb128 .LVL9-.LVL9
 2928 0017 2E       		.uleb128 .LVL11-.LVL9
 2929 0018 01       		.uleb128 0x1
 2930 0019 55       		.byte	0x55
 2931 001a 04       		.byte	0x4
 2932 001b 2E       		.uleb128 .LVL11-.LVL9
 2933 001c 36       		.uleb128 .LFE357-.LVL9
 2934 001d 02       		.uleb128 0x2
 2935 001e 71       		.byte	0x71
 2936 001f 08       		.sleb128 8
 2937 0020 00       		.byte	0
 2938              	.LVUS7:
 2939 0021 02       		.uleb128 .LVU69
 2940 0022 00       		.uleb128 .LVU93
 2941              	.LLST7:
 2942 0023 08       		.byte	0x8
 2943 0024 06000000 		.4byte	.LVL9
 2944 0028 2A       		.uleb128 .LVL10-.LVL9
 2945 0029 02       		.uleb128 0x2
 2946 002a 30       		.byte	0x30
 2947 002b 9F       		.byte	0x9f
 2948 002c 00       		.byte	0
 2949              	.LVUS8:
 2950 002d 02       		.uleb128 .LVU69
 2951 002e 00       		.uleb128 .LVU93
 2952              	.LLST8:
 2953 002f 08       		.byte	0x8
 2954 0030 06000000 		.4byte	.LVL9
 2955 0034 2A       		.uleb128 .LVL10-.LVL9
 2956 0035 01       		.uleb128 0x1
 2957 0036 55       		.byte	0x55
 2958 0037 00       		.byte	0
 2959              	.LVUS9:
 2960 0038 02       		.uleb128 .LVU69
 2961 0039 00       		.uleb128 .LVU93
 2962              	.LLST9:
 2963 003a 08       		.byte	0x8
 2964 003b 06000000 		.4byte	.LVL9
ARM GAS  C:\Users\DEVELO~1\AppData\Local\Temp\ccUfc5lX.s 			page 53


 2965 003f 2A       		.uleb128 .LVL10-.LVL9
 2966 0040 01       		.uleb128 0x1
 2967 0041 50       		.byte	0x50
 2968 0042 00       		.byte	0
 2969              	.LVUS2:
 2970 0043 00       		.uleb128 .LVU35
 2971 0044 00       		.uleb128 .LVU40
 2972              	.LLST2:
 2973 0045 08       		.byte	0x8
 2974 0046 0C000000 		.4byte	.LVL4
 2975 004a 06       		.uleb128 .LVL6-.LVL4
 2976 004b 01       		.uleb128 0x1
 2977 004c 54       		.byte	0x54
 2978 004d 00       		.byte	0
 2979              	.LVUS3:
 2980 004e 00       		.uleb128 .LVU35
 2981 004f 00       		.uleb128 .LVU39
 2982              	.LLST3:
 2983 0050 08       		.byte	0x8
 2984 0051 0C000000 		.4byte	.LVL4
 2985 0055 04       		.uleb128 .LVL5-.LVL4
 2986 0056 01       		.uleb128 0x1
 2987 0057 53       		.byte	0x53
 2988 0058 00       		.byte	0
 2989              	.LVUS4:
 2990 0059 00       		.uleb128 .LVU35
 2991 005a 00       		.uleb128 .LVU58
 2992              	.LLST4:
 2993 005b 08       		.byte	0x8
 2994 005c 0C000000 		.4byte	.LVL4
 2995 0060 2A       		.uleb128 .LVL7-.LVL4
 2996 0061 01       		.uleb128 0x1
 2997 0062 50       		.byte	0x50
 2998 0063 00       		.byte	0
 2999              	.Ldebug_loc3:
 3000              		.section	.debug_aranges,"",%progbits
 3001 0000 3C000000 		.4byte	0x3c
 3002 0004 0200     		.2byte	0x2
 3003 0006 00000000 		.4byte	.Ldebug_info0
 3004 000a 04       		.byte	0x4
 3005 000b 00       		.byte	0
 3006 000c 0000     		.2byte	0
 3007 000e 0000     		.2byte	0
 3008 0010 00000000 		.4byte	.LFB353
 3009 0014 1C000000 		.4byte	.LFE353-.LFB353
 3010 0018 00000000 		.4byte	.LFB354
 3011 001c 02000000 		.4byte	.LFE354-.LFB354
 3012 0020 00000000 		.4byte	.LFB355
 3013 0024 0C000000 		.4byte	.LFE355-.LFB355
 3014 0028 00000000 		.4byte	.LFB356
 3015 002c 44000000 		.4byte	.LFE356-.LFB356
 3016 0030 00000000 		.4byte	.LFB357
 3017 0034 3C000000 		.4byte	.LFE357-.LFB357
 3018 0038 00000000 		.4byte	0
 3019 003c 00000000 		.4byte	0
 3020              		.section	.debug_rnglists,"",%progbits
 3021              	.Ldebug_ranges0:
ARM GAS  C:\Users\DEVELO~1\AppData\Local\Temp\ccUfc5lX.s 			page 54


 3022 0000 4E000000 		.4byte	.Ldebug_ranges3-.Ldebug_ranges2
 3023              	.Ldebug_ranges2:
 3024 0004 0500     		.2byte	0x5
 3025 0006 04       		.byte	0x4
 3026 0007 00       		.byte	0
 3027 0008 00000000 		.4byte	0
 3028              	.LLRL0:
 3029 000c 05       		.byte	0x5
 3030 000d 00000000 		.4byte	.LBB14
 3031 0011 04       		.byte	0x4
 3032 0012 00       		.uleb128 .LBB14-.LBB14
 3033 0013 00       		.uleb128 .LBE14-.LBB14
 3034 0014 04       		.byte	0x4
 3035 0015 02       		.uleb128 .LBB18-.LBB14
 3036 0016 04       		.uleb128 .LBE18-.LBB14
 3037 0017 04       		.byte	0x4
 3038 0018 06       		.uleb128 .LBB22-.LBB14
 3039 0019 08       		.uleb128 .LBE22-.LBB14
 3040 001a 00       		.byte	0
 3041              	.LLRL1:
 3042 001b 05       		.byte	0x5
 3043 001c 04000000 		.4byte	.LBB19
 3044 0020 04       		.byte	0x4
 3045 0021 00       		.uleb128 .LBB19-.LBB19
 3046 0022 02       		.uleb128 .LBE19-.LBB19
 3047 0023 04       		.byte	0x4
 3048 0024 08       		.uleb128 .LBB23-.LBB19
 3049 0025 32       		.uleb128 .LBE23-.LBB19
 3050 0026 00       		.byte	0
 3051              	.LLRL6:
 3052 0027 05       		.byte	0x5
 3053 0028 00000000 		.4byte	.LBB28
 3054 002c 04       		.byte	0x4
 3055 002d 00       		.uleb128 .LBB28-.LBB28
 3056 002e 02       		.uleb128 .LBE28-.LBB28
 3057 002f 04       		.byte	0x4
 3058 0030 04       		.uleb128 .LBB31-.LBB28
 3059 0031 06       		.uleb128 .LBE31-.LBB28
 3060 0032 00       		.byte	0
 3061              	.LLRL10:
 3062 0033 07       		.byte	0x7
 3063 0034 00000000 		.4byte	.LFB353
 3064 0038 1C       		.uleb128 .LFE353-.LFB353
 3065 0039 07       		.byte	0x7
 3066 003a 00000000 		.4byte	.LFB354
 3067 003e 02       		.uleb128 .LFE354-.LFB354
 3068 003f 07       		.byte	0x7
 3069 0040 00000000 		.4byte	.LFB355
 3070 0044 0C       		.uleb128 .LFE355-.LFB355
 3071 0045 07       		.byte	0x7
 3072 0046 00000000 		.4byte	.LFB356
 3073 004a 44       		.uleb128 .LFE356-.LFB356
 3074 004b 07       		.byte	0x7
 3075 004c 00000000 		.4byte	.LFB357
 3076 0050 3C       		.uleb128 .LFE357-.LFB357
 3077 0051 00       		.byte	0
 3078              	.Ldebug_ranges3:
ARM GAS  C:\Users\DEVELO~1\AppData\Local\Temp\ccUfc5lX.s 			page 55


 3079              		.section	.debug_line,"",%progbits
 3080              	.Ldebug_line0:
 3081 0000 F9030000 		.section	.debug_str,"MS",%progbits,1
 3081      03003F02 
 3081      00000201 
 3081      FB0E0D00 
 3081      01010101 
 3082              	.LASF117:
 3083 0000 70726576 		.ascii	"prev\000"
 3083      00
 3084              	.LASF25:
 3085 0005 72747469 		.ascii	"rttime_t\000"
 3085      6D655F74 
 3085      00
 3086              	.LASF91:
 3087 000e 464F4C44 		.ascii	"FOLDCNT\000"
 3087      434E5400 
 3088              	.LASF160:
 3089 0016 72656164 		.ascii	"ready_list_t\000"
 3089      795F6C69 
 3089      73745F74 
 3089      00
 3090              	.LASF151:
 3091 0023 77747472 		.ascii	"wttrp\000"
 3091      7000
 3092              	.LASF149:
 3093 0029 7264796D 		.ascii	"rdymsg\000"
 3093      736700
 3094              	.LASF59:
 3095 0030 72666375 		.ascii	"rfcu\000"
 3095      00
 3096              	.LASF6:
 3097 0035 5F5F7569 		.ascii	"__uint8_t\000"
 3097      6E74385F 
 3097      7400
 3098              	.LASF110:
 3099 003f 706F7274 		.ascii	"port_intctx\000"
 3099      5F696E74 
 3099      63747800 
 3100              	.LASF56:
 3101 004b 76746C69 		.ascii	"vtlist\000"
 3101      737400
 3102              	.LASF77:
 3103 0052 74797065 		.ascii	"type\000"
 3103      00
 3104              	.LASF10:
 3105 0057 6C6F6E67 		.ascii	"long int\000"
 3105      20696E74 
 3105      00
 3106              	.LASF80:
 3107 0060 74726163 		.ascii	"trace_event_t\000"
 3107      655F6576 
 3107      656E745F 
 3107      7400
 3108              	.LASF166:
 3109 006e 6F735F69 		.ascii	"os_instance_config_t\000"
 3109      6E737461 
ARM GAS  C:\Users\DEVELO~1\AppData\Local\Temp\ccUfc5lX.s 			page 56


 3109      6E63655F 
 3109      636F6E66 
 3109      69675F74 
 3110              	.LASF127:
 3111 0083 776F7273 		.ascii	"worst\000"
 3111      7400
 3112              	.LASF130:
 3113 0089 74696D65 		.ascii	"time_measurement_t\000"
 3113      5F6D6561 
 3113      73757265 
 3113      6D656E74 
 3113      5F7400
 3114              	.LASF75:
 3115 009c 68616C74 		.ascii	"halt\000"
 3115      00
 3116              	.LASF45:
 3117 00a1 64697370 		.ascii	"dispose\000"
 3117      6F736500 
 3118              	.LASF133:
 3119 00a9 63685F73 		.ascii	"ch_sys_running\000"
 3119      79735F72 
 3119      756E6E69 
 3119      6E6700
 3120              	.LASF23:
 3121 00b8 706F7274 		.ascii	"port_stkline_t\000"
 3121      5F73746B 
 3121      6C696E65 
 3121      5F7400
 3122              	.LASF150:
 3123 00c7 65786974 		.ascii	"exitcode\000"
 3123      636F6465 
 3123      00
 3124              	.LASF62:
 3125 00d0 6D61696E 		.ascii	"mainthread\000"
 3125      74687265 
 3125      616400
 3126              	.LASF152:
 3127 00db 73656E74 		.ascii	"sentmsg\000"
 3127      6D736700 
 3128              	.LASF123:
 3129 00e3 64656C74 		.ascii	"delta\000"
 3129      6100
 3130              	.LASF178:
 3131 00e9 6368544D 		.ascii	"chTMObjectInit\000"
 3131      4F626A65 
 3131      6374496E 
 3131      697400
 3132              	.LASF114:
 3133 00f8 6E657874 		.ascii	"next\000"
 3133      00
 3134              	.LASF46:
 3135 00fd 6F626A65 		.ascii	"object\000"
 3135      637400
 3136              	.LASF172:
 3137 0104 746D7031 		.ascii	"tmp1\000"
 3137      00
 3138              	.LASF173:
ARM GAS  C:\Users\DEVELO~1\AppData\Local\Temp\ccUfc5lX.s 			page 57


 3139 0109 746D7032 		.ascii	"tmp2\000"
 3139      00
 3140              	.LASF163:
 3141 010e 63737461 		.ascii	"cstack_end\000"
 3141      636B5F65 
 3141      6E6400
 3142              	.LASF1:
 3143 0119 6C6F6E67 		.ascii	"long long int\000"
 3143      206C6F6E 
 3143      6720696E 
 3143      7400
 3144              	.LASF3:
 3145 0127 7369676E 		.ascii	"signed char\000"
 3145      65642063 
 3145      68617200 
 3146              	.LASF122:
 3147 0133 63685F64 		.ascii	"ch_delta_list\000"
 3147      656C7461 
 3147      5F6C6973 
 3147      7400
 3148              	.LASF87:
 3149 0141 43504943 		.ascii	"CPICNT\000"
 3149      4E5400
 3150              	.LASF97:
 3151 0148 434F4D50 		.ascii	"COMP1\000"
 3151      3100
 3152              	.LASF40:
 3153 014e 73746174 		.ascii	"state\000"
 3153      6500
 3154              	.LASF175:
 3155 0154 6368544D 		.ascii	"chTMStopMeasurementX\000"
 3155      53746F70 
 3155      4D656173 
 3155      7572656D 
 3155      656E7458 
 3156              	.LASF26:
 3157 0169 73746B6C 		.ascii	"stkline_t\000"
 3157      696E655F 
 3157      7400
 3158              	.LASF28:
 3159 0173 74737461 		.ascii	"tstate_t\000"
 3159      74655F74 
 3159      00
 3160              	.LASF65:
 3161 017c 63685F72 		.ascii	"ch_rfcu\000"
 3161      66637500 
 3162              	.LASF116:
 3163 0184 63685F71 		.ascii	"ch_queue\000"
 3163      75657565 
 3163      00
 3164              	.LASF17:
 3165 018d 75696E74 		.ascii	"uint16_t\000"
 3165      31365F74 
 3165      00
 3166              	.LASF14:
 3167 0196 6C6F6E67 		.ascii	"long long unsigned int\000"
 3167      206C6F6E 
ARM GAS  C:\Users\DEVELO~1\AppData\Local\Temp\ccUfc5lX.s 			page 58


 3167      6720756E 
 3167      7369676E 
 3167      65642069 
 3168              	.LASF84:
 3169 01ad 74726163 		.ascii	"trace_buffer_t\000"
 3169      655F6275 
 3169      66666572 
 3169      5F7400
 3170              	.LASF89:
 3171 01bc 534C4545 		.ascii	"SLEEPCNT\000"
 3171      50434E54 
 3171      00
 3172              	.LASF142:
 3173 01c5 63685F72 		.ascii	"ch_registry\000"
 3173      65676973 
 3173      74727900 
 3174              	.LASF181:
 3175 01d1 433A5C43 		.ascii	"C:\\ChibiStudio\\chibios2111\\demos\\STM32\\RT-STM3"
 3175      68696269 
 3175      53747564 
 3175      696F5C63 
 3175      68696269 
 3176 01ff 32483734 		.ascii	"2H743ZI_REV_XY-NUCLEO144 - Copie\000"
 3176      335A495F 
 3176      5245565F 
 3176      58592D4E 
 3176      55434C45 
 3177              	.LASF11:
 3178 0220 5F5F7569 		.ascii	"__uint32_t\000"
 3178      6E743332 
 3178      5F7400
 3179              	.LASF66:
 3180 022b 6D61736B 		.ascii	"mask\000"
 3180      00
 3181              	.LASF68:
 3182 0230 63685F73 		.ascii	"ch_system_debug\000"
 3182      79737465 
 3182      6D5F6465 
 3182      62756700 
 3183              	.LASF47:
 3184 0240 77616974 		.ascii	"waiting\000"
 3184      696E6700 
 3185              	.LASF164:
 3186 0248 69646C65 		.ascii	"idlestack_base\000"
 3186      73746163 
 3186      6B5F6261 
 3186      736500
 3187              	.LASF170:
 3188 0257 6D757465 		.ascii	"mutex_t\000"
 3188      785F7400 
 3189              	.LASF72:
 3190 025f 73797369 		.ascii	"sysinterval_t\000"
 3190      6E746572 
 3190      76616C5F 
 3190      7400
 3191              	.LASF58:
 3192 026d 636F7265 		.ascii	"core_id\000"
ARM GAS  C:\Users\DEVELO~1\AppData\Local\Temp\ccUfc5lX.s 			page 59


 3192      5F696400 
 3193              	.LASF33:
 3194 0275 636E745F 		.ascii	"cnt_t\000"
 3194      7400
 3195              	.LASF48:
 3196 027b 6D736771 		.ascii	"msgqueue\000"
 3196      75657565 
 3196      00
 3197              	.LASF176:
 3198 0284 6368544D 		.ascii	"chTMStartMeasurementX\000"
 3198      53746172 
 3198      744D6561 
 3198      73757265 
 3198      6D656E74 
 3199              	.LASF98:
 3200 029a 4D41534B 		.ascii	"MASK1\000"
 3200      3100
 3201              	.LASF102:
 3202 02a0 4D41534B 		.ascii	"MASK2\000"
 3202      3200
 3203              	.LASF168:
 3204 02a6 696E7374 		.ascii	"instances\000"
 3204      616E6365 
 3204      7300
 3205              	.LASF106:
 3206 02b0 4D41534B 		.ascii	"MASK3\000"
 3206      3300
 3207              	.LASF153:
 3208 02b6 77747365 		.ascii	"wtsemp\000"
 3208      6D7000
 3209              	.LASF70:
 3210 02bd 73797374 		.ascii	"system_debug_t\000"
 3210      656D5F64 
 3210      65627567 
 3210      5F7400
 3211              	.LASF12:
 3212 02cc 6C6F6E67 		.ascii	"long unsigned int\000"
 3212      20756E73 
 3212      69676E65 
 3212      6420696E 
 3212      7400
 3213              	.LASF44:
 3214 02de 72717565 		.ascii	"rqueue\000"
 3214      756500
 3215              	.LASF115:
 3216 02e5 63685F71 		.ascii	"ch_queue_t\000"
 3216      75657565 
 3216      5F7400
 3217              	.LASF179:
 3218 02f0 474E5520 		.ascii	"GNU C17 11.3.1 20220712 -mcpu=cortex-m7 -mthumb -mf"
 3218      43313720 
 3218      31312E33 
 3218      2E312032 
 3218      30323230 
 3219 0323 6C6F6174 		.ascii	"loat-abi=soft -march=armv7e-m -ggdb -O2 -fomit-fram"
 3219      2D616269 
 3219      3D736F66 
ARM GAS  C:\Users\DEVELO~1\AppData\Local\Temp\ccUfc5lX.s 			page 60


 3219      74202D6D 
 3219      61726368 
 3220 0356 652D706F 		.ascii	"e-pointer -falign-functions=16 -ffunction-sections "
 3220      696E7465 
 3220      72202D66 
 3220      616C6967 
 3220      6E2D6675 
 3221 0389 2D666461 		.ascii	"-fdata-sections -fno-common\000"
 3221      74612D73 
 3221      65637469 
 3221      6F6E7320 
 3221      2D666E6F 
 3222              	.LASF43:
 3223 03a5 6E616D65 		.ascii	"name\000"
 3223      00
 3224              	.LASF146:
 3225 03aa 74687265 		.ascii	"thread_dispose_t\000"
 3225      61645F64 
 3225      6973706F 
 3225      73655F74 
 3225      00
 3226              	.LASF143:
 3227 03bb 71756575 		.ascii	"queue\000"
 3227      6500
 3228              	.LASF82:
 3229 03c1 73697A65 		.ascii	"size\000"
 3229      00
 3230              	.LASF8:
 3231 03c6 73686F72 		.ascii	"short unsigned int\000"
 3231      7420756E 
 3231      7369676E 
 3231      65642069 
 3231      6E7400
 3232              	.LASF53:
 3233 03d9 63685F74 		.ascii	"ch_thread\000"
 3233      68726561 
 3233      6400
 3234              	.LASF88:
 3235 03e3 45584343 		.ascii	"EXCCNT\000"
 3235      4E5400
 3236              	.LASF31:
 3237 03ea 6D73675F 		.ascii	"msg_t\000"
 3237      7400
 3238              	.LASF128:
 3239 03f0 6C617374 		.ascii	"last\000"
 3239      00
 3240              	.LASF34:
 3241 03f5 75636E74 		.ascii	"ucnt_t\000"
 3241      5F7400
 3242              	.LASF49:
 3243 03fc 6570656E 		.ascii	"epending\000"
 3243      64696E67 
 3243      00
 3244              	.LASF169:
 3245 0405 63685F73 		.ascii	"ch_system_t\000"
 3245      79737465 
 3245      6D5F7400 
ARM GAS  C:\Users\DEVELO~1\AppData\Local\Temp\ccUfc5lX.s 			page 61


 3246              	.LASF27:
 3247 0411 746D6F64 		.ascii	"tmode_t\000"
 3247      655F7400 
 3248              	.LASF113:
 3249 0419 63685F6C 		.ascii	"ch_list\000"
 3249      69737400 
 3250              	.LASF158:
 3251 0421 63685F72 		.ascii	"ch_ready_list\000"
 3251      65616479 
 3251      5F6C6973 
 3251      7400
 3252              	.LASF32:
 3253 042f 6576656E 		.ascii	"eventmask_t\000"
 3253      746D6173 
 3253      6B5F7400 
 3254              	.LASF9:
 3255 043b 5F5F696E 		.ascii	"__int32_t\000"
 3255      7433325F 
 3255      7400
 3256              	.LASF67:
 3257 0445 72666375 		.ascii	"rfcu_t\000"
 3257      5F7400
 3258              	.LASF141:
 3259 044c 76697274 		.ascii	"virtual_timers_list_t\000"
 3259      75616C5F 
 3259      74696D65 
 3259      72735F6C 
 3259      6973745F 
 3260              	.LASF174:
 3261 0462 6368544D 		.ascii	"chTMChainMeasurementToX\000"
 3261      43686169 
 3261      6E4D6561 
 3261      73757265 
 3261      6D656E74 
 3262              	.LASF78:
 3263 047a 72747374 		.ascii	"rtstamp\000"
 3263      616D7000 
 3264              	.LASF140:
 3265 0482 6C617374 		.ascii	"laststamp\000"
 3265      7374616D 
 3265      7000
 3266              	.LASF86:
 3267 048c 43594343 		.ascii	"CYCCNT\000"
 3267      4E5400
 3268              	.LASF51:
 3269 0493 7265616C 		.ascii	"realprio\000"
 3269      7072696F 
 3269      00
 3270              	.LASF64:
 3271 049c 72666375 		.ascii	"rfcu_mask_t\000"
 3271      5F6D6173 
 3271      6B5F7400 
 3272              	.LASF24:
 3273 04a8 7274636E 		.ascii	"rtcnt_t\000"
 3273      745F7400 
 3274              	.LASF145:
 3275 04b0 74687265 		.ascii	"thread_reference_t\000"
ARM GAS  C:\Users\DEVELO~1\AppData\Local\Temp\ccUfc5lX.s 			page 62


 3275      61645F72 
 3275      65666572 
 3275      656E6365 
 3275      5F7400
 3276              	.LASF136:
 3277 04c3 63685F76 		.ascii	"ch_virtual_timers_list\000"
 3277      69727475 
 3277      616C5F74 
 3277      696D6572 
 3277      735F6C69 
 3278              	.LASF112:
 3279 04da 63685F6C 		.ascii	"ch_list_t\000"
 3279      6973745F 
 3279      7400
 3280              	.LASF81:
 3281 04e4 73757370 		.ascii	"suspended\000"
 3281      656E6465 
 3281      6400
 3282              	.LASF162:
 3283 04ee 63737461 		.ascii	"cstack_base\000"
 3283      636B5F62 
 3283      61736500 
 3284              	.LASF125:
 3285 04fa 746D5F63 		.ascii	"tm_calibration_t\000"
 3285      616C6962 
 3285      72617469 
 3285      6F6E5F74 
 3285      00
 3286              	.LASF21:
 3287 050b 706F7274 		.ascii	"port_rtcnt_t\000"
 3287      5F727463 
 3287      6E745F74 
 3287      00
 3288              	.LASF20:
 3289 0518 75696E74 		.ascii	"uint64_t\000"
 3289      36345F74 
 3289      00
 3290              	.LASF0:
 3291 0521 756E7369 		.ascii	"unsigned int\000"
 3291      676E6564 
 3291      20696E74 
 3291      00
 3292              	.LASF161:
 3293 052e 63685F6F 		.ascii	"ch_os_instance_config\000"
 3293      735F696E 
 3293      7374616E 
 3293      63655F63 
 3293      6F6E6669 
 3294              	.LASF111:
 3295 0544 706F7274 		.ascii	"port_context\000"
 3295      5F636F6E 
 3295      74657874 
 3295      00
 3296              	.LASF180:
 3297 0551 2E2F4368 		.ascii	"./ChibiOS/os/rt/src/chtm.c\000"
 3297      6962694F 
 3297      532F6F73 
ARM GAS  C:\Users\DEVELO~1\AppData\Local\Temp\ccUfc5lX.s 			page 63


 3297      2F72742F 
 3297      7372632F 
 3298              	.LASF101:
 3299 056c 434F4D50 		.ascii	"COMP2\000"
 3299      3200
 3300              	.LASF105:
 3301 0572 434F4D50 		.ascii	"COMP3\000"
 3301      3300
 3302              	.LASF79:
 3303 0578 74696D65 		.ascii	"time\000"
 3303      00
 3304              	.LASF120:
 3305 057d 7072696F 		.ascii	"prio\000"
 3305      00
 3306              	.LASF165:
 3307 0582 69646C65 		.ascii	"idlestack_end\000"
 3307      73746163 
 3307      6B5F656E 
 3307      6400
 3308              	.LASF159:
 3309 0590 63757272 		.ascii	"current\000"
 3309      656E7400 
 3310              	.LASF13:
 3311 0598 5F5F7569 		.ascii	"__uint64_t\000"
 3311      6E743634 
 3311      5F7400
 3312              	.LASF129:
 3313 05a3 63756D75 		.ascii	"cumulative\000"
 3313      6C617469 
 3313      766500
 3314              	.LASF139:
 3315 05ae 6C617374 		.ascii	"lastdelta\000"
 3315      64656C74 
 3315      6100
 3316              	.LASF35:
 3317 05b8 636F7265 		.ascii	"core_id_t\000"
 3317      5F69645F 
 3317      7400
 3318              	.LASF29:
 3319 05c2 74726566 		.ascii	"trefs_t\000"
 3319      735F7400 
 3320              	.LASF96:
 3321 05ca 52455345 		.ascii	"RESERVED0\000"
 3321      52564544 
 3321      3000
 3322              	.LASF100:
 3323 05d4 52455345 		.ascii	"RESERVED1\000"
 3323      52564544 
 3323      3100
 3324              	.LASF104:
 3325 05de 52455345 		.ascii	"RESERVED2\000"
 3325      52564544 
 3325      3200
 3326              	.LASF42:
 3327 05e8 72656673 		.ascii	"refs\000"
 3327      00
 3328              	.LASF76:
ARM GAS  C:\Users\DEVELO~1\AppData\Local\Temp\ccUfc5lX.s 			page 64


 3329 05ed 75736572 		.ascii	"user\000"
 3329      00
 3330              	.LASF30:
 3331 05f2 74707269 		.ascii	"tprio_t\000"
 3331      6F5F7400 
 3332              	.LASF94:
 3333 05fa 4D41534B 		.ascii	"MASK0\000"
 3333      3000
 3334              	.LASF171:
 3335 0600 5F426F6F 		.ascii	"_Bool\000"
 3335      6C00
 3336              	.LASF18:
 3337 0606 696E7433 		.ascii	"int32_t\000"
 3337      325F7400 
 3338              	.LASF4:
 3339 060e 756E7369 		.ascii	"unsigned char\000"
 3339      676E6564 
 3339      20636861 
 3339      7200
 3340              	.LASF95:
 3341 061c 46554E43 		.ascii	"FUNCTION0\000"
 3341      54494F4E 
 3341      3000
 3342              	.LASF99:
 3343 0626 46554E43 		.ascii	"FUNCTION1\000"
 3343      54494F4E 
 3343      3100
 3344              	.LASF103:
 3345 0630 46554E43 		.ascii	"FUNCTION2\000"
 3345      54494F4E 
 3345      3200
 3346              	.LASF107:
 3347 063a 46554E43 		.ascii	"FUNCTION3\000"
 3347      54494F4E 
 3347      3300
 3348              	.LASF5:
 3349 0644 73686F72 		.ascii	"short int\000"
 3349      7420696E 
 3349      7400
 3350              	.LASF138:
 3351 064e 6C617374 		.ascii	"lasttime\000"
 3351      74696D65 
 3351      00
 3352              	.LASF73:
 3353 0657 77746F62 		.ascii	"wtobjp\000"
 3353      6A7000
 3354              	.LASF155:
 3355 065e 65776D61 		.ascii	"ewmask\000"
 3355      736B00
 3356              	.LASF167:
 3357 0665 63685F73 		.ascii	"ch_system\000"
 3357      79737465 
 3357      6D00
 3358              	.LASF182:
 3359 066f 5F5F6675 		.ascii	"__func__\000"
 3359      6E635F5F 
 3359      00
ARM GAS  C:\Users\DEVELO~1\AppData\Local\Temp\ccUfc5lX.s 			page 65


 3360              	.LASF74:
 3361 0678 72656173 		.ascii	"reason\000"
 3361      6F6E00
 3362              	.LASF156:
 3363 067f 63685F73 		.ascii	"ch_semaphore\000"
 3363      656D6170 
 3363      686F7265 
 3363      00
 3364              	.LASF108:
 3365 068c 52455345 		.ascii	"RESERVED3\000"
 3365      52564544 
 3365      3300
 3366              	.LASF144:
 3367 0696 72656769 		.ascii	"registry_t\000"
 3367      73747279 
 3367      5F7400
 3368              	.LASF90:
 3369 06a1 4C535543 		.ascii	"LSUCNT\000"
 3369      4E5400
 3370              	.LASF19:
 3371 06a8 75696E74 		.ascii	"uint32_t\000"
 3371      33325F74 
 3371      00
 3372              	.LASF154:
 3373 06b1 77746D74 		.ascii	"wtmtxp\000"
 3373      787000
 3374              	.LASF177:
 3375 06b8 6368544D 		.ascii	"chTMObjectDispose\000"
 3375      4F626A65 
 3375      63744469 
 3375      73706F73 
 3375      6500
 3376              	.LASF37:
 3377 06ca 6F776E65 		.ascii	"owner\000"
 3377      7200
 3378              	.LASF2:
 3379 06d0 6C6F6E67 		.ascii	"long double\000"
 3379      20646F75 
 3379      626C6500 
 3380              	.LASF38:
 3381 06dc 77616261 		.ascii	"wabase\000"
 3381      736500
 3382              	.LASF15:
 3383 06e3 63686172 		.ascii	"char\000"
 3383      00
 3384              	.LASF131:
 3385 06e8 63685F73 		.ascii	"ch_sys_uninit\000"
 3385      79735F75 
 3385      6E696E69 
 3385      7400
 3386              	.LASF60:
 3387 06f6 636F6E66 		.ascii	"config\000"
 3387      696700
 3388              	.LASF7:
 3389 06fd 5F5F7569 		.ascii	"__uint16_t\000"
 3389      6E743136 
 3389      5F7400
ARM GAS  C:\Users\DEVELO~1\AppData\Local\Temp\ccUfc5lX.s 			page 66


 3390              	.LASF183:
 3391 0708 746D5F73 		.ascii	"tm_stop\000"
 3391      746F7000 
 3392              	.LASF36:
 3393 0710 74687265 		.ascii	"thread_t\000"
 3393      61645F74 
 3393      00
 3394              	.LASF126:
 3395 0719 62657374 		.ascii	"best\000"
 3395      00
 3396              	.LASF137:
 3397 071e 646C6973 		.ascii	"dlist\000"
 3397      7400
 3398              	.LASF71:
 3399 0724 73797374 		.ascii	"systime_t\000"
 3399      696D655F 
 3399      7400
 3400              	.LASF83:
 3401 072e 62756666 		.ascii	"buffer\000"
 3401      657200
 3402              	.LASF118:
 3403 0735 63685F70 		.ascii	"ch_priority_queue_t\000"
 3403      72696F72 
 3403      6974795F 
 3403      71756575 
 3403      655F7400 
 3404              	.LASF69:
 3405 0749 70616E69 		.ascii	"panic_msg\000"
 3405      635F6D73 
 3405      6700
 3406              	.LASF148:
 3407 0753 70717565 		.ascii	"pqueue\000"
 3407      756500
 3408              	.LASF54:
 3409 075a 63685F6F 		.ascii	"ch_os_instance\000"
 3409      735F696E 
 3409      7374616E 
 3409      636500
 3410              	.LASF124:
 3411 0769 6F666673 		.ascii	"offset\000"
 3411      657400
 3412              	.LASF52:
 3413 0770 6F735F69 		.ascii	"os_instance_t\000"
 3413      6E737461 
 3413      6E63655F 
 3413      7400
 3414              	.LASF57:
 3415 077e 7265676C 		.ascii	"reglist\000"
 3415      69737400 
 3416              	.LASF109:
 3417 0786 4457545F 		.ascii	"DWT_Type\000"
 3417      54797065 
 3417      00
 3418              	.LASF119:
 3419 078f 63685F70 		.ascii	"ch_priority_queue\000"
 3419      72696F72 
 3419      6974795F 
ARM GAS  C:\Users\DEVELO~1\AppData\Local\Temp\ccUfc5lX.s 			page 67


 3419      71756575 
 3419      6500
 3420              	.LASF85:
 3421 07a1 4354524C 		.ascii	"CTRL\000"
 3421      00
 3422              	.LASF121:
 3423 07a6 63685F64 		.ascii	"ch_delta_list_t\000"
 3423      656C7461 
 3423      5F6C6973 
 3423      745F7400 
 3424              	.LASF93:
 3425 07b6 434F4D50 		.ascii	"COMP0\000"
 3425      3000
 3426              	.LASF132:
 3427 07bc 63685F73 		.ascii	"ch_sys_initializing\000"
 3427      79735F69 
 3427      6E697469 
 3427      616C697A 
 3427      696E6700 
 3428              	.LASF39:
 3429 07d0 7761656E 		.ascii	"waend\000"
 3429      6400
 3430              	.LASF55:
 3431 07d6 726C6973 		.ascii	"rlist\000"
 3431      7400
 3432              	.LASF16:
 3433 07dc 75696E74 		.ascii	"uint8_t\000"
 3433      385F7400 
 3434              	.LASF41:
 3435 07e4 666C6167 		.ascii	"flags\000"
 3435      7300
 3436              	.LASF22:
 3437 07ea 706F7274 		.ascii	"port_rttime_t\000"
 3437      5F727474 
 3437      696D655F 
 3437      7400
 3438              	.LASF92:
 3439 07f8 50435352 		.ascii	"PCSR\000"
 3439      00
 3440              	.LASF157:
 3441 07fd 63685F6D 		.ascii	"ch_mutex\000"
 3441      75746578 
 3441      00
 3442              	.LASF184:
 3443 0806 706F7274 		.ascii	"port_rt_get_counter_value\000"
 3443      5F72745F 
 3443      6765745F 
 3443      636F756E 
 3443      7465725F 
 3444              	.LASF63:
 3445 0820 74726163 		.ascii	"trace_buffer\000"
 3445      655F6275 
 3445      66666572 
 3445      00
 3446              	.LASF134:
 3447 082d 63685F73 		.ascii	"ch_sys_halted\000"
 3447      79735F68 
ARM GAS  C:\Users\DEVELO~1\AppData\Local\Temp\ccUfc5lX.s 			page 68


 3447      616C7465 
 3447      6400
 3448              	.LASF147:
 3449 083b 6C697374 		.ascii	"list\000"
 3449      00
 3450              	.LASF135:
 3451 0840 73797374 		.ascii	"system_state_t\000"
 3451      656D5F73 
 3451      74617465 
 3451      5F7400
 3452              	.LASF50:
 3453 084f 6D74786C 		.ascii	"mtxlist\000"
 3453      69737400 
 3454              	.LASF61:
 3455 0857 69646C65 		.ascii	"idlethread\000"
 3455      74687265 
 3455      616400
 3456              		.ident	"GCC: (Arm GNU Toolchain 11.3.Rel1) 11.3.1 20220712"
ARM GAS  C:\Users\DEVELO~1\AppData\Local\Temp\ccUfc5lX.s 			page 69


DEFINED SYMBOLS
                            *ABS*:00000000 chtm.c
C:\Users\DEVELO~1\AppData\Local\Temp\ccUfc5lX.s:18     .text.chTMObjectInit:00000000 $t
C:\Users\DEVELO~1\AppData\Local\Temp\ccUfc5lX.s:25     .text.chTMObjectInit:00000000 chTMObjectInit
C:\Users\DEVELO~1\AppData\Local\Temp\ccUfc5lX.s:66     .text.chTMObjectDispose:00000000 $t
C:\Users\DEVELO~1\AppData\Local\Temp\ccUfc5lX.s:73     .text.chTMObjectDispose:00000000 chTMObjectDispose
C:\Users\DEVELO~1\AppData\Local\Temp\ccUfc5lX.s:90     .text.chTMStartMeasurementX:00000000 $t
C:\Users\DEVELO~1\AppData\Local\Temp\ccUfc5lX.s:97     .text.chTMStartMeasurementX:00000000 chTMStartMeasurementX
C:\Users\DEVELO~1\AppData\Local\Temp\ccUfc5lX.s:124    .text.chTMStartMeasurementX:00000008 $d
C:\Users\DEVELO~1\AppData\Local\Temp\ccUfc5lX.s:129    .text.chTMStopMeasurementX:00000000 $t
C:\Users\DEVELO~1\AppData\Local\Temp\ccUfc5lX.s:136    .text.chTMStopMeasurementX:00000000 chTMStopMeasurementX
C:\Users\DEVELO~1\AppData\Local\Temp\ccUfc5lX.s:238    .text.chTMStopMeasurementX:0000003c $d
C:\Users\DEVELO~1\AppData\Local\Temp\ccUfc5lX.s:244    .text.chTMChainMeasurementToX:00000000 $t
C:\Users\DEVELO~1\AppData\Local\Temp\ccUfc5lX.s:251    .text.chTMChainMeasurementToX:00000000 chTMChainMeasurementToX
C:\Users\DEVELO~1\AppData\Local\Temp\ccUfc5lX.s:347    .text.chTMChainMeasurementToX:00000038 $d

UNDEFINED SYMBOLS
ch_system
