ARM GAS  C:\Users\DEVELO~1\AppData\Local\Temp\ccdoOenO.s 			page 1


   1              		.cpu cortex-m7
   2              		.arch armv7e-m
   3              		.fpu softvfp
   4              		.eabi_attribute 20, 1
   5              		.eabi_attribute 21, 1
   6              		.eabi_attribute 23, 3
   7              		.eabi_attribute 24, 1
   8              		.eabi_attribute 25, 1
   9              		.eabi_attribute 26, 1
  10              		.eabi_attribute 30, 2
  11              		.eabi_attribute 34, 1
  12              		.eabi_attribute 18, 4
  13              		.file	"chtm.c"
  14              		.text
  15              	.Ltext0:
  16              		.cfi_sections	.debug_frame
  17              		.section	.text.chTMObjectInit,"ax",%progbits
  18              		.align	1
  19              		.p2align 4,,15
  20              		.global	chTMObjectInit
  21              		.syntax unified
  22              		.thumb
  23              		.thumb_func
  24              		.type	chTMObjectInit, %function
  25              	chTMObjectInit:
  26              	.LVL0:
  27              	.LFB347:
  28              		.file 1 "../../../os/rt/src/chtm.c"
  29              		.loc 1 79 46 view -0
  30              		.cfi_startproc
  31              		@ args = 0, pretend = 0, frame = 0
  32              		@ frame_needed = 0, uses_anonymous_args = 0
  33              		@ link register save eliminated.
  34              		.loc 1 81 3 view .LVU1
  35              		.loc 1 79 46 is_stmt 0 view .LVU2
  36 0000 30B4     		push	{r4, r5}
  37              		.cfi_def_cfa_offset 8
  38              		.cfi_offset 4, -8
  39              		.cfi_offset 5, -4
  40              		.loc 1 82 19 view .LVU3
  41 0002 0023     		movs	r3, #0
  42              		.loc 1 85 19 view .LVU4
  43 0004 0024     		movs	r4, #0
  44 0006 0025     		movs	r5, #0
  45              		.loc 1 81 19 view .LVU5
  46 0008 4FF0FF32 		mov	r2, #-1
  47              		.loc 1 85 19 view .LVU6
  48 000c C0E90445 		strd	r4, [r0, #16]
  49              		.loc 1 82 19 view .LVU7
  50 0010 C0E90023 		strd	r2, r3, [r0]
  51              		.loc 1 83 3 is_stmt 1 view .LVU8
  52              		.loc 1 86 1 is_stmt 0 view .LVU9
  53 0014 30BC     		pop	{r4, r5}
  54              		.cfi_restore 5
  55              		.cfi_restore 4
  56              		.cfi_def_cfa_offset 0
  57              		.loc 1 84 19 view .LVU10
ARM GAS  C:\Users\DEVELO~1\AppData\Local\Temp\ccdoOenO.s 			page 2


  58 0016 C0E90233 		strd	r3, r3, [r0, #8]
  59              		.loc 1 85 3 is_stmt 1 view .LVU11
  60              		.loc 1 86 1 is_stmt 0 view .LVU12
  61 001a 7047     		bx	lr
  62              		.cfi_endproc
  63              	.LFE347:
  64              		.size	chTMObjectInit, .-chTMObjectInit
  65              		.section	.text.chTMStartMeasurementX,"ax",%progbits
  66              		.align	1
  67              		.p2align 4,,15
  68              		.global	chTMStartMeasurementX
  69              		.syntax unified
  70              		.thumb
  71              		.thumb_func
  72              		.type	chTMStartMeasurementX, %function
  73              	chTMStartMeasurementX:
  74              	.LVL1:
  75              	.LFB348:
  76              		.loc 1 96 62 is_stmt 1 view -0
  77              		.cfi_startproc
  78              		@ args = 0, pretend = 0, frame = 0
  79              		@ frame_needed = 0, uses_anonymous_args = 0
  80              		@ link register save eliminated.
  81              		.loc 1 98 3 view .LVU14
  82              	.LBB8:
  83              	.LBI8:
  84              		.file 2 "../../../os/common/ports/ARMv7-M/chcore.h"
  85              		.loc 2 918 30 view .LVU15
  86              	.LBB9:
  87              		.loc 2 920 3 view .LVU16
  88              		.loc 2 920 13 is_stmt 0 view .LVU17
  89 0000 014B     		ldr	r3, .L5
  90 0002 5B68     		ldr	r3, [r3, #4]
  91              	.LBE9:
  92              	.LBE8:
  93              		.loc 1 98 13 view .LVU18
  94 0004 8360     		str	r3, [r0, #8]
  95              		.loc 1 99 1 view .LVU19
  96 0006 7047     		bx	lr
  97              	.L6:
  98              		.align	2
  99              	.L5:
 100 0008 001000E0 		.word	-536866816
 101              		.cfi_endproc
 102              	.LFE348:
 103              		.size	chTMStartMeasurementX, .-chTMStartMeasurementX
 104              		.section	.text.chTMStopMeasurementX,"ax",%progbits
 105              		.align	1
 106              		.p2align 4,,15
 107              		.global	chTMStopMeasurementX
 108              		.syntax unified
 109              		.thumb
 110              		.thumb_func
 111              		.type	chTMStopMeasurementX, %function
 112              	chTMStopMeasurementX:
 113              	.LVL2:
 114              	.LFB349:
ARM GAS  C:\Users\DEVELO~1\AppData\Local\Temp\ccdoOenO.s 			page 3


 115              		.loc 1 109 61 is_stmt 1 view -0
 116              		.cfi_startproc
 117              		@ args = 0, pretend = 0, frame = 0
 118              		@ frame_needed = 0, uses_anonymous_args = 0
 119              		@ link register save eliminated.
 120              		.loc 1 111 3 view .LVU21
 121              	.LBB14:
 122              	.LBI14:
 123              		.loc 2 918 30 view .LVU22
 124              	.LBB15:
 125              		.loc 2 920 3 view .LVU23
 126              	.LBE15:
 127              	.LBE14:
 128              		.loc 1 111 3 is_stmt 0 view .LVU24
 129 0000 0E4A     		ldr	r2, .L11
 130              	.LBB18:
 131              	.LBB16:
 132              		.loc 2 920 13 view .LVU25
 133 0002 0F4B     		ldr	r3, .L11+4
 134              	.LBE16:
 135              	.LBE18:
 136              	.LBB19:
 137              	.LBB20:
 138              		.loc 1 58 33 view .LVU26
 139 0004 8168     		ldr	r1, [r0, #8]
 140              	.LBE20:
 141              	.LBE19:
 142              	.LBB22:
 143              	.LBB17:
 144              		.loc 2 920 13 view .LVU27
 145 0006 5B68     		ldr	r3, [r3, #4]
 146              	.LBE17:
 147              	.LBE22:
 148              		.loc 1 109 61 view .LVU28
 149 0008 10B4     		push	{r4}
 150              		.cfi_def_cfa_offset 4
 151              		.cfi_offset 4, -4
 152              		.loc 1 111 3 view .LVU29
 153 000a 9468     		ldr	r4, [r2, #8]
 154              	.LVL3:
 155              	.LBB23:
 156              	.LBI19:
 157              		.loc 1 53 20 is_stmt 1 view .LVU30
 158              	.LBB21:
 159              		.loc 1 57 3 view .LVU31
 160              		.loc 1 59 19 is_stmt 0 view .LVU32
 161 000c 0269     		ldr	r2, [r0, #16]
 162              		.loc 1 58 33 view .LVU33
 163 000e 1B1B     		subs	r3, r3, r4
 164              	.LVL4:
 165              		.loc 1 57 9 view .LVU34
 166 0010 C468     		ldr	r4, [r0, #12]
 167              	.LVL5:
 168              		.loc 1 58 33 view .LVU35
 169 0012 5B1A     		subs	r3, r3, r1
 170              		.loc 1 59 19 view .LVU36
 171 0014 4169     		ldr	r1, [r0, #20]
ARM GAS  C:\Users\DEVELO~1\AppData\Local\Temp\ccdoOenO.s 			page 4


 172              		.loc 1 57 9 view .LVU37
 173 0016 0134     		adds	r4, r4, #1
 174              		.loc 1 59 19 view .LVU38
 175 0018 D218     		adds	r2, r2, r3
 176 001a 0261     		str	r2, [r0, #16]
 177 001c 41F10001 		adc	r1, r1, #0
 178              		.loc 1 60 6 view .LVU39
 179 0020 4268     		ldr	r2, [r0, #4]
 180              		.loc 1 59 19 view .LVU40
 181 0022 4161     		str	r1, [r0, #20]
 182              		.loc 1 60 6 view .LVU41
 183 0024 9342     		cmp	r3, r2
 184              		.loc 1 63 6 view .LVU42
 185 0026 0268     		ldr	r2, [r0]
 186              		.loc 1 61 16 view .LVU43
 187 0028 88BF     		it	hi
 188 002a 4360     		strhi	r3, [r0, #4]
 189              		.loc 1 63 6 view .LVU44
 190 002c 9342     		cmp	r3, r2
 191              		.loc 1 57 9 view .LVU45
 192 002e C0E90234 		strd	r3, r4, [r0, #8]
 193              		.loc 1 58 3 is_stmt 1 view .LVU46
 194              		.loc 1 59 3 view .LVU47
 195              		.loc 1 60 3 view .LVU48
 196              		.loc 1 61 5 view .LVU49
 197              		.loc 1 63 3 view .LVU50
 198              		.loc 1 64 5 view .LVU51
 199              		.loc 1 64 15 is_stmt 0 view .LVU52
 200 0032 38BF     		it	cc
 201 0034 0360     		strcc	r3, [r0]
 202              	.LVL6:
 203              		.loc 1 64 15 view .LVU53
 204              	.LBE21:
 205              	.LBE23:
 206              		.loc 1 112 1 view .LVU54
 207 0036 10BC     		pop	{r4}
 208              		.cfi_restore 4
 209              		.cfi_def_cfa_offset 0
 210 0038 7047     		bx	lr
 211              	.L12:
 212 003a 00BF     		.align	2
 213              	.L11:
 214 003c 00000000 		.word	ch_system
 215 0040 001000E0 		.word	-536866816
 216              		.cfi_endproc
 217              	.LFE349:
 218              		.size	chTMStopMeasurementX, .-chTMStopMeasurementX
 219              		.section	.text.chTMChainMeasurementToX,"ax",%progbits
 220              		.align	1
 221              		.p2align 4,,15
 222              		.global	chTMChainMeasurementToX
 223              		.syntax unified
 224              		.thumb
 225              		.thumb_func
 226              		.type	chTMChainMeasurementToX, %function
 227              	chTMChainMeasurementToX:
 228              	.LVL7:
ARM GAS  C:\Users\DEVELO~1\AppData\Local\Temp\ccdoOenO.s 			page 5


 229              	.LFB350:
 230              		.loc 1 127 65 is_stmt 1 view -0
 231              		.cfi_startproc
 232              		@ args = 0, pretend = 0, frame = 0
 233              		@ frame_needed = 0, uses_anonymous_args = 0
 234              		@ link register save eliminated.
 235              		.loc 1 130 3 view .LVU56
 236              	.LBB28:
 237              	.LBI28:
 238              		.loc 2 918 30 view .LVU57
 239              	.LBB29:
 240              		.loc 2 920 3 view .LVU58
 241              		.loc 2 920 13 is_stmt 0 view .LVU59
 242 0000 0D4B     		ldr	r3, .L17
 243 0002 5B68     		ldr	r3, [r3, #4]
 244              	.LBE29:
 245              	.LBE28:
 246              		.loc 1 127 65 view .LVU60
 247 0004 10B4     		push	{r4}
 248              		.cfi_def_cfa_offset 4
 249              		.cfi_offset 4, -4
 250              		.loc 1 130 14 view .LVU61
 251 0006 8B60     		str	r3, [r1, #8]
 252              		.loc 1 133 3 is_stmt 1 view .LVU62
 253              	.LVL8:
 254              	.LBB30:
 255              	.LBI30:
 256              		.loc 1 53 20 view .LVU63
 257              	.LBB31:
 258              		.loc 1 57 3 view .LVU64
 259              		.loc 1 58 20 is_stmt 0 view .LVU65
 260 0008 8168     		ldr	r1, [r0, #8]
 261              	.LVL9:
 262              		.loc 1 57 9 view .LVU66
 263 000a D0E90342 		ldrd	r4, r2, [r0, #12]
 264              		.loc 1 58 20 view .LVU67
 265 000e 5B1A     		subs	r3, r3, r1
 266              	.LVL10:
 267              		.loc 1 59 19 view .LVU68
 268 0010 4169     		ldr	r1, [r0, #20]
 269              		.loc 1 57 9 view .LVU69
 270 0012 0134     		adds	r4, r4, #1
 271              		.loc 1 59 19 view .LVU70
 272 0014 D218     		adds	r2, r2, r3
 273 0016 0261     		str	r2, [r0, #16]
 274 0018 41F10001 		adc	r1, r1, #0
 275              		.loc 1 60 6 view .LVU71
 276 001c 4268     		ldr	r2, [r0, #4]
 277              		.loc 1 59 19 view .LVU72
 278 001e 4161     		str	r1, [r0, #20]
 279              		.loc 1 60 6 view .LVU73
 280 0020 9342     		cmp	r3, r2
 281              		.loc 1 63 6 view .LVU74
 282 0022 0268     		ldr	r2, [r0]
 283              		.loc 1 61 16 view .LVU75
 284 0024 88BF     		it	hi
 285 0026 4360     		strhi	r3, [r0, #4]
ARM GAS  C:\Users\DEVELO~1\AppData\Local\Temp\ccdoOenO.s 			page 6


 286              		.loc 1 63 6 view .LVU76
 287 0028 9342     		cmp	r3, r2
 288              		.loc 1 57 9 view .LVU77
 289 002a C0E90234 		strd	r3, r4, [r0, #8]
 290              	.LVL11:
 291              		.loc 1 58 3 is_stmt 1 view .LVU78
 292              		.loc 1 59 3 view .LVU79
 293              		.loc 1 60 3 view .LVU80
 294              		.loc 1 61 5 view .LVU81
 295              		.loc 1 63 3 view .LVU82
 296              		.loc 1 64 5 view .LVU83
 297              		.loc 1 64 15 is_stmt 0 view .LVU84
 298 002e 38BF     		it	cc
 299 0030 0360     		strcc	r3, [r0]
 300              	.LVL12:
 301              		.loc 1 64 15 view .LVU85
 302              	.LBE31:
 303              	.LBE30:
 304              		.loc 1 134 1 view .LVU86
 305 0032 10BC     		pop	{r4}
 306              		.cfi_restore 4
 307              		.cfi_def_cfa_offset 0
 308 0034 7047     		bx	lr
 309              	.L18:
 310 0036 00BF     		.align	2
 311              	.L17:
 312 0038 001000E0 		.word	-536866816
 313              		.cfi_endproc
 314              	.LFE350:
 315              		.size	chTMChainMeasurementToX, .-chTMChainMeasurementToX
 316              		.text
 317              	.Letext0:
 318              		.file 3 "c:\\chibistudio\\tools\\gnu tools arm embedded\\11.3 2022.08\\arm-none-eabi\\include\\mac
 319              		.file 4 "c:\\chibistudio\\tools\\gnu tools arm embedded\\11.3 2022.08\\arm-none-eabi\\include\\sys
 320              		.file 5 "../../../os/common/ports/ARM-common/chtypes.h"
 321              		.file 6 "../../../os/rt/include/chearly.h"
 322              		.file 7 "../../../os/rt/include/chobjects.h"
 323              		.file 8 "../../../os/rt/include/chrfcu.h"
 324              		.file 9 "../../../os/rt/include/chdebug.h"
 325              		.file 10 "../../../os/rt/include/chtime.h"
 326              		.file 11 "../../../os/rt/include/chlists.h"
 327              		.file 12 "../../../os/rt/include/chtrace.h"
 328              		.file 13 "../../../os/common/ext/ARM/CMSIS/Core/Include/core_cm7.h"
 329              		.file 14 "../../../os/rt/include/chtm.h"
 330              		.file 15 "../../../os/rt/include/chsem.h"
 331              		.file 16 "../../../os/rt/include/chmtx.h"
 332              		.file 17 "../../../os/rt/include/chsys.h"
 333              		.section	.debug_info,"",%progbits
 334              	.Ldebug_info0:
 335 0000 6F0D0000 		.4byte	0xd6f
 336 0004 0500     		.2byte	0x5
 337 0006 01       		.byte	0x1
 338 0007 04       		.byte	0x4
 339 0008 00000000 		.4byte	.Ldebug_abbrev0
 340 000c 1C       		.uleb128 0x1c
 341 000d D1020000 		.4byte	.LASF174
 342 0011 1D       		.byte	0x1d
ARM GAS  C:\Users\DEVELO~1\AppData\Local\Temp\ccdoOenO.s 			page 7


 343 0012 B7020000 		.4byte	.LASF175
 344 0016 9F010000 		.4byte	.LASF176
 345 001a 27000000 		.4byte	.LLRL9
 346 001e 00000000 		.4byte	0
 347 0022 00000000 		.4byte	.Ldebug_line0
 348 0026 1D       		.uleb128 0x1d
 349 0027 04       		.byte	0x4
 350 0028 05       		.byte	0x5
 351 0029 696E7400 		.ascii	"int\000"
 352 002d 05       		.uleb128 0x5
 353 002e 04       		.byte	0x4
 354 002f 07       		.byte	0x7
 355 0030 00050000 		.4byte	.LASF0
 356 0034 05       		.uleb128 0x5
 357 0035 08       		.byte	0x8
 358 0036 05       		.byte	0x5
 359 0037 F7000000 		.4byte	.LASF1
 360 003b 05       		.uleb128 0x5
 361 003c 08       		.byte	0x8
 362 003d 04       		.byte	0x4
 363 003e 85060000 		.4byte	.LASF2
 364 0042 05       		.uleb128 0x5
 365 0043 01       		.byte	0x1
 366 0044 06       		.byte	0x6
 367 0045 05010000 		.4byte	.LASF3
 368 0049 02       		.uleb128 0x2
 369 004a 3C000000 		.4byte	.LASF6
 370 004e 03       		.byte	0x3
 371 004f 2B       		.byte	0x2b
 372 0050 18       		.byte	0x18
 373 0051 55000000 		.4byte	0x55
 374 0055 05       		.uleb128 0x5
 375 0056 01       		.byte	0x1
 376 0057 08       		.byte	0x8
 377 0058 C6050000 		.4byte	.LASF4
 378 005c 05       		.uleb128 0x5
 379 005d 02       		.byte	0x2
 380 005e 05       		.byte	0x5
 381 005f FC050000 		.4byte	.LASF5
 382 0063 02       		.uleb128 0x2
 383 0064 B2060000 		.4byte	.LASF7
 384 0068 03       		.byte	0x3
 385 0069 39       		.byte	0x39
 386 006a 19       		.byte	0x19
 387 006b 6F000000 		.4byte	0x6f
 388 006f 05       		.uleb128 0x5
 389 0070 02       		.byte	0x2
 390 0071 07       		.byte	0x7
 391 0072 96030000 		.4byte	.LASF8
 392 0076 02       		.uleb128 0x2
 393 0077 0B040000 		.4byte	.LASF9
 394 007b 03       		.byte	0x3
 395 007c 4D       		.byte	0x4d
 396 007d 18       		.byte	0x18
 397 007e 82000000 		.4byte	0x82
 398 0082 05       		.uleb128 0x5
 399 0083 04       		.byte	0x4
ARM GAS  C:\Users\DEVELO~1\AppData\Local\Temp\ccdoOenO.s 			page 8


 400 0084 05       		.byte	0x5
 401 0085 41010000 		.4byte	.LASF10
 402 0089 02       		.uleb128 0x2
 403 008a EE010000 		.4byte	.LASF11
 404 008e 03       		.byte	0x3
 405 008f 4F       		.byte	0x4f
 406 0090 19       		.byte	0x19
 407 0091 95000000 		.4byte	0x95
 408 0095 05       		.uleb128 0x5
 409 0096 04       		.byte	0x4
 410 0097 07       		.byte	0x7
 411 0098 93020000 		.4byte	.LASF12
 412 009c 02       		.uleb128 0x2
 413 009d 54050000 		.4byte	.LASF13
 414 00a1 03       		.byte	0x3
 415 00a2 69       		.byte	0x69
 416 00a3 19       		.byte	0x19
 417 00a4 A8000000 		.4byte	0xa8
 418 00a8 05       		.uleb128 0x5
 419 00a9 08       		.byte	0x8
 420 00aa 07       		.byte	0x7
 421 00ab 15040000 		.4byte	.LASF14
 422 00af 02       		.uleb128 0x2
 423 00b0 A0070000 		.4byte	.LASF15
 424 00b4 04       		.byte	0x4
 425 00b5 18       		.byte	0x18
 426 00b6 13       		.byte	0x13
 427 00b7 49000000 		.4byte	0x49
 428 00bb 02       		.uleb128 0x2
 429 00bc 64010000 		.4byte	.LASF16
 430 00c0 04       		.byte	0x4
 431 00c1 24       		.byte	0x24
 432 00c2 14       		.byte	0x14
 433 00c3 63000000 		.4byte	0x63
 434 00c7 02       		.uleb128 0x2
 435 00c8 BE050000 		.4byte	.LASF17
 436 00cc 04       		.byte	0x4
 437 00cd 2C       		.byte	0x2c
 438 00ce 13       		.byte	0x13
 439 00cf 76000000 		.4byte	0x76
 440 00d3 02       		.uleb128 0x2
 441 00d4 5F060000 		.4byte	.LASF18
 442 00d8 04       		.byte	0x4
 443 00d9 30       		.byte	0x30
 444 00da 14       		.byte	0x14
 445 00db 89000000 		.4byte	0x89
 446 00df 12       		.uleb128 0x12
 447 00e0 D3000000 		.4byte	0xd3
 448 00e4 13       		.uleb128 0x13
 449 00e5 DF000000 		.4byte	0xdf
 450 00e9 02       		.uleb128 0x2
 451 00ea F7040000 		.4byte	.LASF19
 452 00ee 04       		.byte	0x4
 453 00ef 3C       		.byte	0x3c
 454 00f0 14       		.byte	0x14
 455 00f1 9C000000 		.4byte	0x9c
 456 00f5 12       		.uleb128 0x12
ARM GAS  C:\Users\DEVELO~1\AppData\Local\Temp\ccdoOenO.s 			page 9


 457 00f6 E9000000 		.4byte	0xe9
 458 00fa 02       		.uleb128 0x2
 459 00fb EA040000 		.4byte	.LASF20
 460 00ff 05       		.byte	0x5
 461 0100 36       		.byte	0x36
 462 0101 1D       		.byte	0x1d
 463 0102 D3000000 		.4byte	0xd3
 464 0106 02       		.uleb128 0x2
 465 0107 AE070000 		.4byte	.LASF21
 466 010b 05       		.byte	0x5
 467 010c 3B       		.byte	0x3b
 468 010d 1D       		.byte	0x1d
 469 010e E9000000 		.4byte	0xe9
 470 0112 02       		.uleb128 0x2
 471 0113 6F060000 		.4byte	.LASF22
 472 0117 05       		.byte	0x5
 473 0118 48       		.byte	0x48
 474 0119 1D       		.byte	0x1d
 475 011a E9000000 		.4byte	0xe9
 476 011e 02       		.uleb128 0x2
 477 011f 93040000 		.4byte	.LASF23
 478 0123 06       		.byte	0x6
 479 0124 4D       		.byte	0x4d
 480 0125 19       		.byte	0x19
 481 0126 FA000000 		.4byte	0xfa
 482 012a 02       		.uleb128 0x2
 483 012b E4000000 		.4byte	.LASF24
 484 012f 06       		.byte	0x6
 485 0130 4E       		.byte	0x4e
 486 0131 19       		.byte	0x19
 487 0132 06010000 		.4byte	0x106
 488 0136 02       		.uleb128 0x2
 489 0137 5A040000 		.4byte	.LASF25
 490 013b 06       		.byte	0x6
 491 013c 50       		.byte	0x50
 492 013d 19       		.byte	0x19
 493 013e 12010000 		.4byte	0x112
 494 0142 02       		.uleb128 0x2
 495 0143 E1030000 		.4byte	.LASF26
 496 0147 06       		.byte	0x6
 497 0148 53       		.byte	0x53
 498 0149 19       		.byte	0x19
 499 014a AF000000 		.4byte	0xaf
 500 014e 02       		.uleb128 0x2
 501 014f 4A010000 		.4byte	.LASF27
 502 0153 06       		.byte	0x6
 503 0154 54       		.byte	0x54
 504 0155 19       		.byte	0x19
 505 0156 AF000000 		.4byte	0xaf
 506 015a 02       		.uleb128 0x2
 507 015b 7A050000 		.4byte	.LASF28
 508 015f 06       		.byte	0x6
 509 0160 55       		.byte	0x55
 510 0161 19       		.byte	0x19
 511 0162 AF000000 		.4byte	0xaf
 512 0166 02       		.uleb128 0x2
 513 0167 AA050000 		.4byte	.LASF29
ARM GAS  C:\Users\DEVELO~1\AppData\Local\Temp\ccdoOenO.s 			page 10


 514 016b 06       		.byte	0x6
 515 016c 57       		.byte	0x57
 516 016d 19       		.byte	0x19
 517 016e D3000000 		.4byte	0xd3
 518 0172 02       		.uleb128 0x2
 519 0173 BA030000 		.4byte	.LASF30
 520 0177 06       		.byte	0x6
 521 0178 58       		.byte	0x58
 522 0179 19       		.byte	0x19
 523 017a C7000000 		.4byte	0xc7
 524 017e 02       		.uleb128 0x2
 525 017f FF030000 		.4byte	.LASF31
 526 0183 06       		.byte	0x6
 527 0184 5A       		.byte	0x5a
 528 0185 19       		.byte	0x19
 529 0186 D3000000 		.4byte	0xd3
 530 018a 02       		.uleb128 0x2
 531 018b 3C020000 		.4byte	.LASF32
 532 018f 06       		.byte	0x6
 533 0190 5C       		.byte	0x5c
 534 0191 19       		.byte	0x19
 535 0192 C7000000 		.4byte	0xc7
 536 0196 02       		.uleb128 0x2
 537 0197 C5030000 		.4byte	.LASF33
 538 019b 06       		.byte	0x6
 539 019c 5D       		.byte	0x5d
 540 019d 19       		.byte	0x19
 541 019e D3000000 		.4byte	0xd3
 542 01a2 02       		.uleb128 0x2
 543 01a3 70050000 		.4byte	.LASF34
 544 01a7 06       		.byte	0x6
 545 01a8 80       		.byte	0x80
 546 01a9 12       		.byte	0x12
 547 01aa 2D000000 		.4byte	0x2d
 548 01ae 02       		.uleb128 0x2
 549 01af C5060000 		.4byte	.LASF35
 550 01b3 06       		.byte	0x6
 551 01b4 85       		.byte	0x85
 552 01b5 1A       		.byte	0x1a
 553 01b6 BA010000 		.4byte	0x1ba
 554 01ba 07       		.uleb128 0x7
 555 01bb A9030000 		.4byte	.LASF50
 556 01bf 48       		.byte	0x48
 557 01c0 07       		.byte	0x7
 558 01c1 9C       		.byte	0x9c
 559 01c2 08       		.byte	0x8
 560 01c3 9D020000 		.4byte	0x29d
 561 01c7 08       		.uleb128 0x8
 562 01c8 68647200 		.ascii	"hdr\000"
 563 01cc 07       		.byte	0x7
 564 01cd AD       		.byte	0xad
 565 01ce 05       		.byte	0x5
 566 01cf B7090000 		.4byte	0x9b7
 567 01d3 00       		.byte	0
 568 01d4 08       		.uleb128 0x8
 569 01d5 63747800 		.ascii	"ctx\000"
 570 01d9 07       		.byte	0x7
ARM GAS  C:\Users\DEVELO~1\AppData\Local\Temp\ccdoOenO.s 			page 11


 571 01da B1       		.byte	0xb1
 572 01db 21       		.byte	0x21
 573 01dc 77080000 		.4byte	0x877
 574 01e0 0C       		.byte	0xc
 575 01e1 03       		.uleb128 0x3
 576 01e2 A5020000 		.4byte	.LASF36
 577 01e6 07       		.byte	0x7
 578 01e7 B6       		.byte	0xb6
 579 01e8 21       		.byte	0x21
 580 01e9 EB030000 		.4byte	0x3eb
 581 01ed 10       		.byte	0x10
 582 01ee 03       		.uleb128 0x3
 583 01ef 7F060000 		.4byte	.LASF37
 584 01f3 07       		.byte	0x7
 585 01f4 BB       		.byte	0xbb
 586 01f5 22       		.byte	0x22
 587 01f6 B90A0000 		.4byte	0xab9
 588 01fa 18       		.byte	0x18
 589 01fb 03       		.uleb128 0x3
 590 01fc 86030000 		.4byte	.LASF38
 591 0200 07       		.byte	0x7
 592 0201 C0       		.byte	0xc0
 593 0202 22       		.byte	0x22
 594 0203 85030000 		.4byte	0x385
 595 0207 1C       		.byte	0x1c
 596 0208 03       		.uleb128 0x3
 597 0209 91060000 		.4byte	.LASF39
 598 020d 07       		.byte	0x7
 599 020e C9       		.byte	0xc9
 600 020f 22       		.byte	0x22
 601 0210 BE0A0000 		.4byte	0xabe
 602 0214 20       		.byte	0x20
 603 0215 03       		.uleb128 0x3
 604 0216 26010000 		.4byte	.LASF40
 605 021a 07       		.byte	0x7
 606 021b CE       		.byte	0xce
 607 021c 21       		.byte	0x21
 608 021d 4E010000 		.4byte	0x14e
 609 0221 24       		.byte	0x24
 610 0222 03       		.uleb128 0x3
 611 0223 A8070000 		.4byte	.LASF41
 612 0227 07       		.byte	0x7
 613 0228 D2       		.byte	0xd2
 614 0229 21       		.byte	0x21
 615 022a 42010000 		.4byte	0x142
 616 022e 25       		.byte	0x25
 617 022f 03       		.uleb128 0x3
 618 0230 A0050000 		.4byte	.LASF42
 619 0234 07       		.byte	0x7
 620 0235 D7       		.byte	0xd7
 621 0236 21       		.byte	0x21
 622 0237 5A010000 		.4byte	0x15a
 623 023b 26       		.byte	0x26
 624 023c 06       		.uleb128 0x6
 625 023d 7500     		.ascii	"u\000"
 626 023f 07       		.byte	0x7
 627 0240 2801     		.2byte	0x128
ARM GAS  C:\Users\DEVELO~1\AppData\Local\Temp\ccdoOenO.s 			page 12


 628 0242 21       		.byte	0x21
 629 0243 E4090000 		.4byte	0x9e4
 630 0247 28       		.byte	0x28
 631 0248 01       		.uleb128 0x1
 632 0249 0E020000 		.4byte	.LASF43
 633 024d 07       		.byte	0x7
 634 024e 2D01     		.2byte	0x12d
 635 0250 21       		.byte	0x21
 636 0251 BF030000 		.4byte	0x3bf
 637 0255 2C       		.byte	0x2c
 638 0256 01       		.uleb128 0x1
 639 0257 42020000 		.4byte	.LASF44
 640 025b 07       		.byte	0x7
 641 025c 3301     		.2byte	0x133
 642 025e 21       		.byte	0x21
 643 025f EB030000 		.4byte	0x3eb
 644 0263 30       		.byte	0x30
 645 0264 01       		.uleb128 0x1
 646 0265 CC030000 		.4byte	.LASF45
 647 0269 07       		.byte	0x7
 648 026a 3901     		.2byte	0x139
 649 026c 21       		.byte	0x21
 650 026d 7E010000 		.4byte	0x17e
 651 0271 38       		.byte	0x38
 652 0272 01       		.uleb128 0x1
 653 0273 22080000 		.4byte	.LASF46
 654 0277 07       		.byte	0x7
 655 0278 4001     		.2byte	0x140
 656 027a 22       		.byte	0x22
 657 027b B40A0000 		.4byte	0xab4
 658 027f 3C       		.byte	0x3c
 659 0280 01       		.uleb128 0x1
 660 0281 7E040000 		.4byte	.LASF47
 661 0285 07       		.byte	0x7
 662 0286 4401     		.2byte	0x144
 663 0288 21       		.byte	0x21
 664 0289 66010000 		.4byte	0x166
 665 028d 40       		.byte	0x40
 666 028e 01       		.uleb128 0x1
 667 028f 80070000 		.4byte	.LASF48
 668 0293 07       		.byte	0x7
 669 0294 4B01     		.2byte	0x14b
 670 0296 22       		.byte	0x22
 671 0297 D9040000 		.4byte	0x4d9
 672 029b 44       		.byte	0x44
 673 029c 00       		.byte	0
 674 029d 02       		.uleb128 0x2
 675 029e 25070000 		.4byte	.LASF49
 676 02a2 06       		.byte	0x6
 677 02a3 8A       		.byte	0x8a
 678 02a4 1F       		.byte	0x1f
 679 02a5 A9020000 		.4byte	0x2a9
 680 02a9 1E       		.uleb128 0x1e
 681 02aa 0F070000 		.4byte	.LASF51
 682 02ae 9008     		.2byte	0x890
 683 02b0 07       		.byte	0x7
 684 02b1 8A01     		.2byte	0x18a
ARM GAS  C:\Users\DEVELO~1\AppData\Local\Temp\ccdoOenO.s 			page 13


 685 02b3 08       		.byte	0x8
 686 02b4 37030000 		.4byte	0x337
 687 02b8 01       		.uleb128 0x1
 688 02b9 9A070000 		.4byte	.LASF52
 689 02bd 07       		.byte	0x7
 690 02be 8E01     		.2byte	0x18e
 691 02c0 21       		.byte	0x21
 692 02c1 EE0A0000 		.4byte	0xaee
 693 02c5 00       		.byte	0
 694 02c6 01       		.uleb128 0x1
 695 02c7 52000000 		.4byte	.LASF53
 696 02cb 07       		.byte	0x7
 697 02cc 9201     		.2byte	0x192
 698 02ce 21       		.byte	0x21
 699 02cf 78090000 		.4byte	0x978
 700 02d3 10       		.byte	0x10
 701 02d4 01       		.uleb128 0x1
 702 02d5 33070000 		.4byte	.LASF54
 703 02d9 07       		.byte	0x7
 704 02da 9901     		.2byte	0x199
 705 02dc 21       		.byte	0x21
 706 02dd 9F090000 		.4byte	0x99f
 707 02e1 28       		.byte	0x28
 708 02e2 01       		.uleb128 0x1
 709 02e3 27060000 		.4byte	.LASF55
 710 02e7 07       		.byte	0x7
 711 02e8 9E01     		.2byte	0x19e
 712 02ea 21       		.byte	0x21
 713 02eb A2010000 		.4byte	0x1a2
 714 02ef 30       		.byte	0x30
 715 02f0 01       		.uleb128 0x1
 716 02f1 27000000 		.4byte	.LASF56
 717 02f5 07       		.byte	0x7
 718 02f6 A401     		.2byte	0x1a4
 719 02f8 21       		.byte	0x21
 720 02f9 5E030000 		.4byte	0x35e
 721 02fd 34       		.byte	0x34
 722 02fe 01       		.uleb128 0x1
 723 02ff AB060000 		.4byte	.LASF57
 724 0303 07       		.byte	0x7
 725 0304 A901     		.2byte	0x1a9
 726 0306 22       		.byte	0x22
 727 0307 600B0000 		.4byte	0xb60
 728 030b 38       		.byte	0x38
 729 030c 01       		.uleb128 0x1
 730 030d B7000000 		.4byte	.LASF58
 731 0311 07       		.byte	0x7
 732 0312 AD01     		.2byte	0x1ad
 733 0314 21       		.byte	0x21
 734 0315 AE010000 		.4byte	0x1ae
 735 0319 3C       		.byte	0x3c
 736 031a 06       		.uleb128 0x6
 737 031b 64626700 		.ascii	"dbg\000"
 738 031f 07       		.byte	0x7
 739 0320 B101     		.2byte	0x1b1
 740 0322 21       		.byte	0x21
 741 0323 9B030000 		.4byte	0x39b
ARM GAS  C:\Users\DEVELO~1\AppData\Local\Temp\ccdoOenO.s 			page 14


 742 0327 84       		.byte	0x84
 743 0328 01       		.uleb128 0x1
 744 0329 E4070000 		.4byte	.LASF59
 745 032d 07       		.byte	0x7
 746 032e B601     		.2byte	0x1b6
 747 0330 21       		.byte	0x21
 748 0331 34060000 		.4byte	0x634
 749 0335 88       		.byte	0x88
 750 0336 00       		.byte	0
 751 0337 02       		.uleb128 0x2
 752 0338 87040000 		.4byte	.LASF60
 753 033c 08       		.byte	0x8
 754 033d 3F       		.byte	0x3f
 755 033e 12       		.byte	0x12
 756 033f D3000000 		.4byte	0xd3
 757 0343 07       		.uleb128 0x7
 758 0344 53010000 		.4byte	.LASF61
 759 0348 04       		.byte	0x4
 760 0349 08       		.byte	0x8
 761 034a 44       		.byte	0x44
 762 034b 10       		.byte	0x10
 763 034c 5E030000 		.4byte	0x35e
 764 0350 03       		.uleb128 0x3
 765 0351 F9010000 		.4byte	.LASF62
 766 0355 08       		.byte	0x8
 767 0356 48       		.byte	0x48
 768 0357 21       		.byte	0x21
 769 0358 37030000 		.4byte	0x337
 770 035c 00       		.byte	0
 771 035d 00       		.byte	0
 772 035e 02       		.uleb128 0x2
 773 035f 98010000 		.4byte	.LASF63
 774 0363 08       		.byte	0x8
 775 0364 49       		.byte	0x49
 776 0365 03       		.byte	0x3
 777 0366 43030000 		.4byte	0x343
 778 036a 07       		.uleb128 0x7
 779 036b FE010000 		.4byte	.LASF64
 780 036f 04       		.byte	0x4
 781 0370 09       		.byte	0x9
 782 0371 3E       		.byte	0x3e
 783 0372 10       		.byte	0x10
 784 0373 85030000 		.4byte	0x385
 785 0377 03       		.uleb128 0x3
 786 0378 FE060000 		.4byte	.LASF65
 787 037c 09       		.byte	0x9
 788 037d 46       		.byte	0x46
 789 037e 24       		.byte	0x24
 790 037f 8A030000 		.4byte	0x38a
 791 0383 00       		.byte	0
 792 0384 00       		.byte	0
 793 0385 04       		.uleb128 0x4
 794 0386 96030000 		.4byte	0x396
 795 038a 12       		.uleb128 0x12
 796 038b 85030000 		.4byte	0x385
 797 038f 05       		.uleb128 0x5
 798 0390 01       		.byte	0x1
ARM GAS  C:\Users\DEVELO~1\AppData\Local\Temp\ccdoOenO.s 			page 15


 799 0391 08       		.byte	0x8
 800 0392 98060000 		.4byte	.LASF66
 801 0396 13       		.uleb128 0x13
 802 0397 8F030000 		.4byte	0x38f
 803 039b 02       		.uleb128 0x2
 804 039c 84020000 		.4byte	.LASF67
 805 03a0 09       		.byte	0x9
 806 03a1 51       		.byte	0x51
 807 03a2 03       		.byte	0x3
 808 03a3 6A030000 		.4byte	0x36a
 809 03a7 02       		.uleb128 0x2
 810 03a8 D9060000 		.4byte	.LASF68
 811 03ac 0A       		.byte	0xa
 812 03ad 6D       		.byte	0x6d
 813 03ae 12       		.byte	0x12
 814 03af D3000000 		.4byte	0xd3
 815 03b3 02       		.uleb128 0x2
 816 03b4 2E020000 		.4byte	.LASF69
 817 03b8 0A       		.byte	0xa
 818 03b9 79       		.byte	0x79
 819 03ba 12       		.byte	0x12
 820 03bb D3000000 		.4byte	0xd3
 821 03bf 02       		.uleb128 0x2
 822 03c0 C5040000 		.4byte	.LASF70
 823 03c4 0B       		.byte	0xb
 824 03c5 32       		.byte	0x32
 825 03c6 18       		.byte	0x18
 826 03c7 CB030000 		.4byte	0x3cb
 827 03cb 07       		.uleb128 0x7
 828 03cc E9030000 		.4byte	.LASF71
 829 03d0 04       		.byte	0x4
 830 03d1 0B       		.byte	0xb
 831 03d2 38       		.byte	0x38
 832 03d3 08       		.byte	0x8
 833 03d4 E6030000 		.4byte	0x3e6
 834 03d8 03       		.uleb128 0x3
 835 03d9 DF000000 		.4byte	.LASF72
 836 03dd 0B       		.byte	0xb
 837 03de 39       		.byte	0x39
 838 03df 1A       		.byte	0x1a
 839 03e0 E6030000 		.4byte	0x3e6
 840 03e4 00       		.byte	0
 841 03e5 00       		.byte	0
 842 03e6 04       		.uleb128 0x4
 843 03e7 BF030000 		.4byte	0x3bf
 844 03eb 02       		.uleb128 0x2
 845 03ec AC020000 		.4byte	.LASF73
 846 03f0 0B       		.byte	0xb
 847 03f1 3F       		.byte	0x3f
 848 03f2 19       		.byte	0x19
 849 03f3 F7030000 		.4byte	0x3f7
 850 03f7 07       		.uleb128 0x7
 851 03f8 5B010000 		.4byte	.LASF74
 852 03fc 08       		.byte	0x8
 853 03fd 0B       		.byte	0xb
 854 03fe 45       		.byte	0x45
 855 03ff 08       		.byte	0x8
ARM GAS  C:\Users\DEVELO~1\AppData\Local\Temp\ccdoOenO.s 			page 16


 856 0400 1F040000 		.4byte	0x41f
 857 0404 03       		.uleb128 0x3
 858 0405 DF000000 		.4byte	.LASF72
 859 0409 0B       		.byte	0xb
 860 040a 46       		.byte	0x46
 861 040b 1A       		.byte	0x1a
 862 040c 1F040000 		.4byte	0x41f
 863 0410 00       		.byte	0
 864 0411 03       		.uleb128 0x3
 865 0412 00000000 		.4byte	.LASF75
 866 0416 0B       		.byte	0xb
 867 0417 47       		.byte	0x47
 868 0418 1A       		.byte	0x1a
 869 0419 1F040000 		.4byte	0x41f
 870 041d 04       		.byte	0x4
 871 041e 00       		.byte	0
 872 041f 04       		.uleb128 0x4
 873 0420 EB030000 		.4byte	0x3eb
 874 0424 02       		.uleb128 0x2
 875 0425 EA060000 		.4byte	.LASF76
 876 0429 0B       		.byte	0xb
 877 042a 4E       		.byte	0x4e
 878 042b 22       		.byte	0x22
 879 042c 30040000 		.4byte	0x430
 880 0430 07       		.uleb128 0x7
 881 0431 44070000 		.4byte	.LASF77
 882 0435 0C       		.byte	0xc
 883 0436 0B       		.byte	0xb
 884 0437 55       		.byte	0x55
 885 0438 08       		.byte	0x8
 886 0439 65040000 		.4byte	0x465
 887 043d 03       		.uleb128 0x3
 888 043e DF000000 		.4byte	.LASF72
 889 0442 0B       		.byte	0xb
 890 0443 56       		.byte	0x56
 891 0444 1A       		.byte	0x1a
 892 0445 65040000 		.4byte	0x465
 893 0449 00       		.byte	0
 894 044a 03       		.uleb128 0x3
 895 044b 00000000 		.4byte	.LASF75
 896 044f 0B       		.byte	0xb
 897 0450 57       		.byte	0x57
 898 0451 1A       		.byte	0x1a
 899 0452 65040000 		.4byte	0x465
 900 0456 04       		.byte	0x4
 901 0457 03       		.uleb128 0x3
 902 0458 47050000 		.4byte	.LASF78
 903 045c 0B       		.byte	0xb
 904 045d 58       		.byte	0x58
 905 045e 19       		.byte	0x19
 906 045f 66010000 		.4byte	0x166
 907 0463 08       		.byte	0x8
 908 0464 00       		.byte	0
 909 0465 04       		.uleb128 0x4
 910 0466 24040000 		.4byte	0x424
 911 046a 02       		.uleb128 0x2
 912 046b 5B070000 		.4byte	.LASF79
ARM GAS  C:\Users\DEVELO~1\AppData\Local\Temp\ccdoOenO.s 			page 17


 913 046f 0B       		.byte	0xb
 914 0470 5F       		.byte	0x5f
 915 0471 1E       		.byte	0x1e
 916 0472 76040000 		.4byte	0x476
 917 0476 07       		.uleb128 0x7
 918 0477 11010000 		.4byte	.LASF80
 919 047b 0C       		.byte	0xc
 920 047c 0B       		.byte	0xb
 921 047d 64       		.byte	0x64
 922 047e 08       		.byte	0x8
 923 047f AB040000 		.4byte	0x4ab
 924 0483 03       		.uleb128 0x3
 925 0484 DF000000 		.4byte	.LASF72
 926 0488 0B       		.byte	0xb
 927 0489 65       		.byte	0x65
 928 048a 1A       		.byte	0x1a
 929 048b AB040000 		.4byte	0x4ab
 930 048f 00       		.byte	0
 931 0490 03       		.uleb128 0x3
 932 0491 00000000 		.4byte	.LASF75
 933 0495 0B       		.byte	0xb
 934 0496 66       		.byte	0x66
 935 0497 1A       		.byte	0x1a
 936 0498 AB040000 		.4byte	0x4ab
 937 049c 04       		.byte	0x4
 938 049d 03       		.uleb128 0x3
 939 049e CA000000 		.4byte	.LASF81
 940 04a2 0B       		.byte	0xb
 941 04a3 67       		.byte	0x67
 942 04a4 19       		.byte	0x19
 943 04a5 B3030000 		.4byte	0x3b3
 944 04a9 08       		.byte	0x8
 945 04aa 00       		.byte	0
 946 04ab 04       		.uleb128 0x4
 947 04ac 6A040000 		.4byte	0x46a
 948 04b0 09       		.uleb128 0x9
 949 04b1 08       		.byte	0x8
 950 04b2 0C       		.byte	0xc
 951 04b3 83       		.byte	0x83
 952 04b4 05       		.byte	0x5
 953 04b5 D4040000 		.4byte	0x4d4
 954 04b9 08       		.uleb128 0x8
 955 04ba 6E747000 		.ascii	"ntp\000"
 956 04be 0C       		.byte	0xc
 957 04bf 87       		.byte	0x87
 958 04c0 1E       		.byte	0x1e
 959 04c1 D4040000 		.4byte	0x4d4
 960 04c5 00       		.byte	0
 961 04c6 03       		.uleb128 0x3
 962 04c7 0F060000 		.4byte	.LASF82
 963 04cb 0C       		.byte	0xc
 964 04cc 8B       		.byte	0x8b
 965 04cd 1E       		.byte	0x1e
 966 04ce D9040000 		.4byte	0x4d9
 967 04d2 04       		.byte	0x4
 968 04d3 00       		.byte	0
 969 04d4 04       		.uleb128 0x4
ARM GAS  C:\Users\DEVELO~1\AppData\Local\Temp\ccdoOenO.s 			page 18


 970 04d5 AE010000 		.4byte	0x1ae
 971 04d9 1F       		.uleb128 0x1f
 972 04da 04       		.byte	0x4
 973 04db 09       		.uleb128 0x9
 974 04dc 08       		.byte	0x8
 975 04dd 0C       		.byte	0xc
 976 04de 90       		.byte	0x90
 977 04df 05       		.byte	0x5
 978 04e0 FE040000 		.4byte	0x4fe
 979 04e4 08       		.uleb128 0x8
 980 04e5 747000   		.ascii	"tp\000"
 981 04e8 0C       		.byte	0xc
 982 04e9 94       		.byte	0x94
 983 04ea 1E       		.byte	0x1e
 984 04eb D4040000 		.4byte	0x4d4
 985 04ef 00       		.byte	0
 986 04f0 08       		.uleb128 0x8
 987 04f1 6D736700 		.ascii	"msg\000"
 988 04f5 0C       		.byte	0xc
 989 04f6 98       		.byte	0x98
 990 04f7 1D       		.byte	0x1d
 991 04f8 72010000 		.4byte	0x172
 992 04fc 04       		.byte	0x4
 993 04fd 00       		.byte	0
 994 04fe 09       		.uleb128 0x9
 995 04ff 04       		.byte	0x4
 996 0500 0C       		.byte	0xc
 997 0501 9D       		.byte	0x9d
 998 0502 05       		.byte	0x5
 999 0503 15050000 		.4byte	0x515
 1000 0507 03       		.uleb128 0x3
 1001 0508 86030000 		.4byte	.LASF38
 1002 050c 0C       		.byte	0xc
 1003 050d A1       		.byte	0xa1
 1004 050e 1E       		.byte	0x1e
 1005 050f 85030000 		.4byte	0x385
 1006 0513 00       		.byte	0
 1007 0514 00       		.byte	0
 1008 0515 09       		.uleb128 0x9
 1009 0516 04       		.byte	0x4
 1010 0517 0C       		.byte	0xc
 1011 0518 A6       		.byte	0xa6
 1012 0519 05       		.byte	0x5
 1013 051a 2C050000 		.4byte	0x52c
 1014 051e 03       		.uleb128 0x3
 1015 051f 2F060000 		.4byte	.LASF83
 1016 0523 0C       		.byte	0xc
 1017 0524 AA       		.byte	0xaa
 1018 0525 1E       		.byte	0x1e
 1019 0526 85030000 		.4byte	0x385
 1020 052a 00       		.byte	0
 1021 052b 00       		.byte	0
 1022 052c 09       		.uleb128 0x9
 1023 052d 08       		.byte	0x8
 1024 052e 0C       		.byte	0xc
 1025 052f AF       		.byte	0xaf
 1026 0530 05       		.byte	0x5
ARM GAS  C:\Users\DEVELO~1\AppData\Local\Temp\ccdoOenO.s 			page 19


 1027 0531 50050000 		.4byte	0x550
 1028 0535 08       		.uleb128 0x8
 1029 0536 75703100 		.ascii	"up1\000"
 1030 053a 0C       		.byte	0xc
 1031 053b B3       		.byte	0xb3
 1032 053c 1E       		.byte	0x1e
 1033 053d D9040000 		.4byte	0x4d9
 1034 0541 00       		.byte	0
 1035 0542 08       		.uleb128 0x8
 1036 0543 75703200 		.ascii	"up2\000"
 1037 0547 0C       		.byte	0xc
 1038 0548 B7       		.byte	0xb7
 1039 0549 1E       		.byte	0x1e
 1040 054a D9040000 		.4byte	0x4d9
 1041 054e 04       		.byte	0x4
 1042 054f 00       		.byte	0
 1043 0550 14       		.uleb128 0x14
 1044 0551 08       		.byte	0x8
 1045 0552 0C       		.byte	0xc
 1046 0553 7F       		.byte	0x7f
 1047 0554 8E050000 		.4byte	0x58e
 1048 0558 15       		.uleb128 0x15
 1049 0559 737700   		.ascii	"sw\000"
 1050 055c 8C       		.byte	0x8c
 1051 055d B0040000 		.4byte	0x4b0
 1052 0561 15       		.uleb128 0x15
 1053 0562 72647900 		.ascii	"rdy\000"
 1054 0566 99       		.byte	0x99
 1055 0567 DB040000 		.4byte	0x4db
 1056 056b 15       		.uleb128 0x15
 1057 056c 69737200 		.ascii	"isr\000"
 1058 0570 A2       		.byte	0xa2
 1059 0571 FE040000 		.4byte	0x4fe
 1060 0575 0A       		.uleb128 0xa
 1061 0576 9A000000 		.4byte	.LASF84
 1062 057a 0C       		.byte	0xc
 1063 057b AB       		.byte	0xab
 1064 057c 07       		.byte	0x7
 1065 057d 15050000 		.4byte	0x515
 1066 0581 0A       		.uleb128 0xa
 1067 0582 A5050000 		.4byte	.LASF85
 1068 0586 0C       		.byte	0xc
 1069 0587 B8       		.byte	0xb8
 1070 0588 07       		.byte	0x7
 1071 0589 2C050000 		.4byte	0x52c
 1072 058d 00       		.byte	0
 1073 058e 09       		.uleb128 0x9
 1074 058f 10       		.byte	0x10
 1075 0590 0C       		.byte	0xc
 1076 0591 6C       		.byte	0x6c
 1077 0592 09       		.byte	0x9
 1078 0593 D4050000 		.4byte	0x5d4
 1079 0597 16       		.uleb128 0x16
 1080 0598 59000000 		.4byte	.LASF86
 1081 059c 70       		.byte	0x70
 1082 059d D3000000 		.4byte	0xd3
 1083 05a1 03       		.byte	0x3
ARM GAS  C:\Users\DEVELO~1\AppData\Local\Temp\ccdoOenO.s 			page 20


 1084 05a2 00       		.byte	0
 1085 05a3 16       		.uleb128 0x16
 1086 05a4 26010000 		.4byte	.LASF40
 1087 05a8 74       		.byte	0x74
 1088 05a9 D3000000 		.4byte	0xd3
 1089 05ad 05       		.byte	0x5
 1090 05ae 03       		.byte	0x3
 1091 05af 16       		.uleb128 0x16
 1092 05b0 65040000 		.4byte	.LASF87
 1093 05b4 7A       		.byte	0x7a
 1094 05b5 D3000000 		.4byte	0xd3
 1095 05b9 18       		.byte	0x18
 1096 05ba 08       		.byte	0x8
 1097 05bb 03       		.uleb128 0x3
 1098 05bc 42050000 		.4byte	.LASF88
 1099 05c0 0C       		.byte	0xc
 1100 05c1 7E       		.byte	0x7e
 1101 05c2 19       		.byte	0x19
 1102 05c3 A7030000 		.4byte	0x3a7
 1103 05c7 04       		.byte	0x4
 1104 05c8 08       		.uleb128 0x8
 1105 05c9 7500     		.ascii	"u\000"
 1106 05cb 0C       		.byte	0xc
 1107 05cc B9       		.byte	0xb9
 1108 05cd 05       		.byte	0x5
 1109 05ce 50050000 		.4byte	0x550
 1110 05d2 08       		.byte	0x8
 1111 05d3 00       		.byte	0
 1112 05d4 02       		.uleb128 0x2
 1113 05d5 5E000000 		.4byte	.LASF89
 1114 05d9 0C       		.byte	0xc
 1115 05da BA       		.byte	0xba
 1116 05db 03       		.byte	0x3
 1117 05dc 8E050000 		.4byte	0x58e
 1118 05e0 20       		.uleb128 0x20
 1119 05e1 0808     		.2byte	0x808
 1120 05e3 0C       		.byte	0xc
 1121 05e4 C0       		.byte	0xc0
 1122 05e5 09       		.byte	0x9
 1123 05e6 1F060000 		.4byte	0x61f
 1124 05ea 03       		.uleb128 0x3
 1125 05eb CF040000 		.4byte	.LASF90
 1126 05ef 0C       		.byte	0xc
 1127 05f0 C4       		.byte	0xc4
 1128 05f1 19       		.byte	0x19
 1129 05f2 BB000000 		.4byte	0xbb
 1130 05f6 00       		.byte	0
 1131 05f7 03       		.uleb128 0x3
 1132 05f8 91030000 		.4byte	.LASF91
 1133 05fc 0C       		.byte	0xc
 1134 05fd C8       		.byte	0xc8
 1135 05fe 19       		.byte	0x19
 1136 05ff BB000000 		.4byte	0xbb
 1137 0603 02       		.byte	0x2
 1138 0604 08       		.uleb128 0x8
 1139 0605 70747200 		.ascii	"ptr\000"
 1140 0609 0C       		.byte	0xc
ARM GAS  C:\Users\DEVELO~1\AppData\Local\Temp\ccdoOenO.s 			page 21


 1141 060a CC       		.byte	0xcc
 1142 060b 1A       		.byte	0x1a
 1143 060c 1F060000 		.4byte	0x61f
 1144 0610 04       		.byte	0x4
 1145 0611 03       		.uleb128 0x3
 1146 0612 E3060000 		.4byte	.LASF92
 1147 0616 0C       		.byte	0xc
 1148 0617 D0       		.byte	0xd0
 1149 0618 19       		.byte	0x19
 1150 0619 24060000 		.4byte	0x624
 1151 061d 08       		.byte	0x8
 1152 061e 00       		.byte	0
 1153 061f 04       		.uleb128 0x4
 1154 0620 D4050000 		.4byte	0x5d4
 1155 0624 0E       		.uleb128 0xe
 1156 0625 D4050000 		.4byte	0x5d4
 1157 0629 34060000 		.4byte	0x634
 1158 062d 17       		.uleb128 0x17
 1159 062e 2D000000 		.4byte	0x2d
 1160 0632 7F       		.byte	0x7f
 1161 0633 00       		.byte	0
 1162 0634 02       		.uleb128 0x2
 1163 0635 74010000 		.4byte	.LASF93
 1164 0639 0C       		.byte	0xc
 1165 063a D1       		.byte	0xd1
 1166 063b 03       		.byte	0x3
 1167 063c E0050000 		.4byte	0x5e0
 1168 0640 0E       		.uleb128 0xe
 1169 0641 D3000000 		.4byte	0xd3
 1170 0645 50060000 		.4byte	0x650
 1171 0649 17       		.uleb128 0x17
 1172 064a 2D000000 		.4byte	0x2d
 1173 064e 00       		.byte	0
 1174 064f 00       		.byte	0
 1175 0650 21       		.uleb128 0x21
 1176 0651 B80F     		.2byte	0xfb8
 1177 0653 0D       		.byte	0xd
 1178 0654 5C04     		.2byte	0x45c
 1179 0656 09       		.byte	0x9
 1180 0657 C6070000 		.4byte	0x7c6
 1181 065b 01       		.uleb128 0x1
 1182 065c 56070000 		.4byte	.LASF94
 1183 0660 0D       		.byte	0xd
 1184 0661 5E04     		.2byte	0x45e
 1185 0663 12       		.byte	0x12
 1186 0664 DF000000 		.4byte	0xdf
 1187 0668 00       		.byte	0
 1188 0669 01       		.uleb128 0x1
 1189 066a 77040000 		.4byte	.LASF95
 1190 066e 0D       		.byte	0xd
 1191 066f 5F04     		.2byte	0x45f
 1192 0671 12       		.byte	0x12
 1193 0672 DF000000 		.4byte	0xdf
 1194 0676 04       		.byte	0x4
 1195 0677 01       		.uleb128 0x1
 1196 0678 1F010000 		.4byte	.LASF96
 1197 067c 0D       		.byte	0xd
ARM GAS  C:\Users\DEVELO~1\AppData\Local\Temp\ccdoOenO.s 			page 22


 1198 067d 6004     		.2byte	0x460
 1199 067f 12       		.byte	0x12
 1200 0680 DF000000 		.4byte	0xdf
 1201 0684 08       		.byte	0x8
 1202 0685 01       		.uleb128 0x1
 1203 0686 B3030000 		.4byte	.LASF97
 1204 068a 0D       		.byte	0xd
 1205 068b 6104     		.2byte	0x461
 1206 068d 12       		.byte	0x12
 1207 068e DF000000 		.4byte	0xdf
 1208 0692 0C       		.byte	0xc
 1209 0693 01       		.uleb128 0x1
 1210 0694 83010000 		.4byte	.LASF98
 1211 0698 0D       		.byte	0xd
 1212 0699 6204     		.2byte	0x462
 1213 069b 12       		.byte	0x12
 1214 069c DF000000 		.4byte	0xdf
 1215 06a0 10       		.byte	0x10
 1216 06a1 01       		.uleb128 0x1
 1217 06a2 58060000 		.4byte	.LASF99
 1218 06a6 0D       		.byte	0xd
 1219 06a7 6304     		.2byte	0x463
 1220 06a9 12       		.byte	0x12
 1221 06aa DF000000 		.4byte	0xdf
 1222 06ae 14       		.byte	0x14
 1223 06af 01       		.uleb128 0x1
 1224 06b0 05000000 		.4byte	.LASF100
 1225 06b4 0D       		.byte	0xd
 1226 06b5 6404     		.2byte	0x464
 1227 06b7 12       		.byte	0x12
 1228 06b8 DF000000 		.4byte	0xdf
 1229 06bc 18       		.byte	0x18
 1230 06bd 01       		.uleb128 0x1
 1231 06be BC070000 		.4byte	.LASF101
 1232 06c2 0D       		.byte	0xd
 1233 06c3 6504     		.2byte	0x465
 1234 06c5 12       		.byte	0x12
 1235 06c6 E4000000 		.4byte	0xe4
 1236 06ca 1C       		.byte	0x1c
 1237 06cb 01       		.uleb128 0x1
 1238 06cc 7A070000 		.4byte	.LASF102
 1239 06d0 0D       		.byte	0xd
 1240 06d1 6604     		.2byte	0x466
 1241 06d3 12       		.byte	0x12
 1242 06d4 DF000000 		.4byte	0xdf
 1243 06d8 20       		.byte	0x20
 1244 06d9 01       		.uleb128 0x1
 1245 06da B2050000 		.4byte	.LASF103
 1246 06de 0D       		.byte	0xd
 1247 06df 6704     		.2byte	0x467
 1248 06e1 12       		.byte	0x12
 1249 06e2 DF000000 		.4byte	0xdf
 1250 06e6 24       		.byte	0x24
 1251 06e7 01       		.uleb128 0x1
 1252 06e8 D4050000 		.4byte	.LASF104
 1253 06ec 0D       		.byte	0xd
 1254 06ed 6804     		.2byte	0x468
ARM GAS  C:\Users\DEVELO~1\AppData\Local\Temp\ccdoOenO.s 			page 23


 1255 06ef 12       		.byte	0x12
 1256 06f0 DF000000 		.4byte	0xdf
 1257 06f4 28       		.byte	0x28
 1258 06f5 01       		.uleb128 0x1
 1259 06f6 82050000 		.4byte	.LASF105
 1260 06fa 0D       		.byte	0xd
 1261 06fb 6904     		.2byte	0x469
 1262 06fd 12       		.byte	0x12
 1263 06fe 40060000 		.4byte	0x640
 1264 0702 2C       		.byte	0x2c
 1265 0703 01       		.uleb128 0x1
 1266 0704 30050000 		.4byte	.LASF106
 1267 0708 0D       		.byte	0xd
 1268 0709 6A04     		.2byte	0x46a
 1269 070b 12       		.byte	0x12
 1270 070c DF000000 		.4byte	0xdf
 1271 0710 30       		.byte	0x30
 1272 0711 01       		.uleb128 0x1
 1273 0712 61020000 		.4byte	.LASF107
 1274 0716 0D       		.byte	0xd
 1275 0717 6B04     		.2byte	0x46b
 1276 0719 12       		.byte	0x12
 1277 071a DF000000 		.4byte	0xdf
 1278 071e 34       		.byte	0x34
 1279 071f 01       		.uleb128 0x1
 1280 0720 DE050000 		.4byte	.LASF108
 1281 0724 0D       		.byte	0xd
 1282 0725 6C04     		.2byte	0x46c
 1283 0727 12       		.byte	0x12
 1284 0728 DF000000 		.4byte	0xdf
 1285 072c 38       		.byte	0x38
 1286 072d 01       		.uleb128 0x1
 1287 072e 8C050000 		.4byte	.LASF109
 1288 0732 0D       		.byte	0xd
 1289 0733 6D04     		.2byte	0x46d
 1290 0735 12       		.byte	0x12
 1291 0736 40060000 		.4byte	0x640
 1292 073a 3C       		.byte	0x3c
 1293 073b 01       		.uleb128 0x1
 1294 073c 36050000 		.4byte	.LASF110
 1295 0740 0D       		.byte	0xd
 1296 0741 6E04     		.2byte	0x46e
 1297 0743 12       		.byte	0x12
 1298 0744 DF000000 		.4byte	0xdf
 1299 0748 40       		.byte	0x40
 1300 0749 01       		.uleb128 0x1
 1301 074a 67020000 		.4byte	.LASF111
 1302 074e 0D       		.byte	0xd
 1303 074f 6F04     		.2byte	0x46f
 1304 0751 12       		.byte	0x12
 1305 0752 DF000000 		.4byte	0xdf
 1306 0756 44       		.byte	0x44
 1307 0757 01       		.uleb128 0x1
 1308 0758 E8050000 		.4byte	.LASF112
 1309 075c 0D       		.byte	0xd
 1310 075d 7004     		.2byte	0x470
 1311 075f 12       		.byte	0x12
ARM GAS  C:\Users\DEVELO~1\AppData\Local\Temp\ccdoOenO.s 			page 24


 1312 0760 DF000000 		.4byte	0xdf
 1313 0764 48       		.byte	0x48
 1314 0765 01       		.uleb128 0x1
 1315 0766 96050000 		.4byte	.LASF113
 1316 076a 0D       		.byte	0xd
 1317 076b 7104     		.2byte	0x471
 1318 076d 12       		.byte	0x12
 1319 076e 40060000 		.4byte	0x640
 1320 0772 4C       		.byte	0x4c
 1321 0773 01       		.uleb128 0x1
 1322 0774 3C050000 		.4byte	.LASF114
 1323 0778 0D       		.byte	0xd
 1324 0779 7204     		.2byte	0x472
 1325 077b 12       		.byte	0x12
 1326 077c DF000000 		.4byte	0xdf
 1327 0780 50       		.byte	0x50
 1328 0781 01       		.uleb128 0x1
 1329 0782 77020000 		.4byte	.LASF115
 1330 0786 0D       		.byte	0xd
 1331 0787 7304     		.2byte	0x473
 1332 0789 12       		.byte	0x12
 1333 078a DF000000 		.4byte	0xdf
 1334 078e 54       		.byte	0x54
 1335 078f 01       		.uleb128 0x1
 1336 0790 F2050000 		.4byte	.LASF116
 1337 0794 0D       		.byte	0xd
 1338 0795 7404     		.2byte	0x474
 1339 0797 12       		.byte	0x12
 1340 0798 DF000000 		.4byte	0xdf
 1341 079c 58       		.byte	0x58
 1342 079d 01       		.uleb128 0x1
 1343 079e 43060000 		.4byte	.LASF117
 1344 07a2 0D       		.byte	0xd
 1345 07a3 7504     		.2byte	0x475
 1346 07a5 12       		.byte	0x12
 1347 07a6 C6070000 		.4byte	0x7c6
 1348 07aa 5C       		.byte	0x5c
 1349 07ab 19       		.uleb128 0x19
 1350 07ac 4C415200 		.ascii	"LAR\000"
 1351 07b0 7604     		.2byte	0x476
 1352 07b2 DF000000 		.4byte	0xdf
 1353 07b6 B00F     		.2byte	0xfb0
 1354 07b8 19       		.uleb128 0x19
 1355 07b9 4C535200 		.ascii	"LSR\000"
 1356 07bd 7704     		.2byte	0x477
 1357 07bf E4000000 		.4byte	0xe4
 1358 07c3 B40F     		.2byte	0xfb4
 1359 07c5 00       		.byte	0
 1360 07c6 0E       		.uleb128 0xe
 1361 07c7 D3000000 		.4byte	0xd3
 1362 07cb D7070000 		.4byte	0x7d7
 1363 07cf 22       		.uleb128 0x22
 1364 07d0 2D000000 		.4byte	0x2d
 1365 07d4 D403     		.2byte	0x3d4
 1366 07d6 00       		.byte	0
 1367 07d7 0F       		.uleb128 0xf
 1368 07d8 3B070000 		.4byte	.LASF118
ARM GAS  C:\Users\DEVELO~1\AppData\Local\Temp\ccdoOenO.s 			page 25


 1369 07dc 0D       		.byte	0xd
 1370 07dd 7804     		.2byte	0x478
 1371 07df 50060000 		.4byte	0x650
 1372 07e3 05       		.uleb128 0x5
 1373 07e4 04       		.byte	0x4
 1374 07e5 04       		.byte	0x4
 1375 07e6 6A050000 		.4byte	.LASF119
 1376 07ea 05       		.uleb128 0x5
 1377 07eb 08       		.byte	0x8
 1378 07ec 04       		.byte	0x4
 1379 07ed 6D010000 		.4byte	.LASF120
 1380 07f1 0D       		.uleb128 0xd
 1381 07f2 46000000 		.4byte	.LASF121
 1382 07f6 24       		.byte	0x24
 1383 07f7 02       		.byte	0x2
 1384 07f8 E001     		.2byte	0x1e0
 1385 07fa 08       		.byte	0x8
 1386 07fb 77080000 		.4byte	0x877
 1387 07ff 06       		.uleb128 0x6
 1388 0800 723400   		.ascii	"r4\000"
 1389 0803 02       		.byte	0x2
 1390 0804 F901     		.2byte	0x1f9
 1391 0806 11       		.byte	0x11
 1392 0807 D3000000 		.4byte	0xd3
 1393 080b 00       		.byte	0
 1394 080c 06       		.uleb128 0x6
 1395 080d 723500   		.ascii	"r5\000"
 1396 0810 02       		.byte	0x2
 1397 0811 FA01     		.2byte	0x1fa
 1398 0813 11       		.byte	0x11
 1399 0814 D3000000 		.4byte	0xd3
 1400 0818 04       		.byte	0x4
 1401 0819 06       		.uleb128 0x6
 1402 081a 723600   		.ascii	"r6\000"
 1403 081d 02       		.byte	0x2
 1404 081e FB01     		.2byte	0x1fb
 1405 0820 11       		.byte	0x11
 1406 0821 D3000000 		.4byte	0xd3
 1407 0825 08       		.byte	0x8
 1408 0826 06       		.uleb128 0x6
 1409 0827 723700   		.ascii	"r7\000"
 1410 082a 02       		.byte	0x2
 1411 082b FC01     		.2byte	0x1fc
 1412 082d 11       		.byte	0x11
 1413 082e D3000000 		.4byte	0xd3
 1414 0832 0C       		.byte	0xc
 1415 0833 06       		.uleb128 0x6
 1416 0834 723800   		.ascii	"r8\000"
 1417 0837 02       		.byte	0x2
 1418 0838 FD01     		.2byte	0x1fd
 1419 083a 11       		.byte	0x11
 1420 083b D3000000 		.4byte	0xd3
 1421 083f 10       		.byte	0x10
 1422 0840 06       		.uleb128 0x6
 1423 0841 723900   		.ascii	"r9\000"
 1424 0844 02       		.byte	0x2
 1425 0845 FE01     		.2byte	0x1fe
ARM GAS  C:\Users\DEVELO~1\AppData\Local\Temp\ccdoOenO.s 			page 26


 1426 0847 11       		.byte	0x11
 1427 0848 D3000000 		.4byte	0xd3
 1428 084c 14       		.byte	0x14
 1429 084d 06       		.uleb128 0x6
 1430 084e 72313000 		.ascii	"r10\000"
 1431 0852 02       		.byte	0x2
 1432 0853 FF01     		.2byte	0x1ff
 1433 0855 11       		.byte	0x11
 1434 0856 D3000000 		.4byte	0xd3
 1435 085a 18       		.byte	0x18
 1436 085b 06       		.uleb128 0x6
 1437 085c 72313100 		.ascii	"r11\000"
 1438 0860 02       		.byte	0x2
 1439 0861 0002     		.2byte	0x200
 1440 0863 11       		.byte	0x11
 1441 0864 D3000000 		.4byte	0xd3
 1442 0868 1C       		.byte	0x1c
 1443 0869 06       		.uleb128 0x6
 1444 086a 6C7200   		.ascii	"lr\000"
 1445 086d 02       		.byte	0x2
 1446 086e 0102     		.2byte	0x201
 1447 0870 11       		.byte	0x11
 1448 0871 D3000000 		.4byte	0xd3
 1449 0875 20       		.byte	0x20
 1450 0876 00       		.byte	0
 1451 0877 0D       		.uleb128 0xd
 1452 0878 23050000 		.4byte	.LASF122
 1453 087c 04       		.byte	0x4
 1454 087d 02       		.byte	0x2
 1455 087e 0A02     		.2byte	0x20a
 1456 0880 08       		.byte	0x8
 1457 0881 93080000 		.4byte	0x893
 1458 0885 06       		.uleb128 0x6
 1459 0886 737000   		.ascii	"sp\000"
 1460 0889 02       		.byte	0x2
 1461 088a 0B02     		.2byte	0x20b
 1462 088c 1A       		.byte	0x1a
 1463 088d 93080000 		.4byte	0x893
 1464 0891 00       		.byte	0
 1465 0892 00       		.byte	0
 1466 0893 04       		.uleb128 0x4
 1467 0894 F1070000 		.4byte	0x7f1
 1468 0898 09       		.uleb128 0x9
 1469 0899 04       		.byte	0x4
 1470 089a 0E       		.byte	0xe
 1471 089b 3F       		.byte	0x3f
 1472 089c 09       		.byte	0x9
 1473 089d AF080000 		.4byte	0x8af
 1474 08a1 03       		.uleb128 0x3
 1475 08a2 1E070000 		.4byte	.LASF123
 1476 08a6 0E       		.byte	0xe
 1477 08a7 43       		.byte	0x43
 1478 08a8 19       		.byte	0x19
 1479 08a9 1E010000 		.4byte	0x11e
 1480 08ad 00       		.byte	0
 1481 08ae 00       		.byte	0
 1482 08af 02       		.uleb128 0x2
ARM GAS  C:\Users\DEVELO~1\AppData\Local\Temp\ccdoOenO.s 			page 27


 1483 08b0 D9040000 		.4byte	.LASF124
 1484 08b4 0E       		.byte	0xe
 1485 08b5 44       		.byte	0x44
 1486 08b6 03       		.byte	0x3
 1487 08b7 98080000 		.4byte	0x898
 1488 08bb 09       		.uleb128 0x9
 1489 08bc 18       		.byte	0x18
 1490 08bd 0E       		.byte	0xe
 1491 08be 4F       		.byte	0x4f
 1492 08bf 09       		.byte	0x9
 1493 08c0 04090000 		.4byte	0x904
 1494 08c4 03       		.uleb128 0x3
 1495 08c5 CE060000 		.4byte	.LASF125
 1496 08c9 0E       		.byte	0xe
 1497 08ca 50       		.byte	0x50
 1498 08cb 19       		.byte	0x19
 1499 08cc 1E010000 		.4byte	0x11e
 1500 08d0 00       		.byte	0
 1501 08d1 03       		.uleb128 0x3
 1502 08d2 81000000 		.4byte	.LASF126
 1503 08d6 0E       		.byte	0xe
 1504 08d7 51       		.byte	0x51
 1505 08d8 19       		.byte	0x19
 1506 08d9 1E010000 		.4byte	0x11e
 1507 08dd 04       		.byte	0x4
 1508 08de 03       		.uleb128 0x3
 1509 08df C0030000 		.4byte	.LASF127
 1510 08e3 0E       		.byte	0xe
 1511 08e4 52       		.byte	0x52
 1512 08e5 19       		.byte	0x19
 1513 08e6 1E010000 		.4byte	0x11e
 1514 08ea 08       		.byte	0x8
 1515 08eb 08       		.uleb128 0x8
 1516 08ec 6E00     		.ascii	"n\000"
 1517 08ee 0E       		.byte	0xe
 1518 08ef 53       		.byte	0x53
 1519 08f0 19       		.byte	0x19
 1520 08f1 96010000 		.4byte	0x196
 1521 08f5 0C       		.byte	0xc
 1522 08f6 03       		.uleb128 0x3
 1523 08f7 5F050000 		.4byte	.LASF128
 1524 08fb 0E       		.byte	0xe
 1525 08fc 54       		.byte	0x54
 1526 08fd 19       		.byte	0x19
 1527 08fe 2A010000 		.4byte	0x12a
 1528 0902 10       		.byte	0x10
 1529 0903 00       		.byte	0
 1530 0904 02       		.uleb128 0x2
 1531 0905 87000000 		.4byte	.LASF129
 1532 0909 0E       		.byte	0xe
 1533 090a 55       		.byte	0x55
 1534 090b 03       		.byte	0x3
 1535 090c BB080000 		.4byte	0x8bb
 1536 0910 23       		.uleb128 0x23
 1537 0911 07       		.byte	0x7
 1538 0912 01       		.byte	0x1
 1539 0913 55000000 		.4byte	0x55
ARM GAS  C:\Users\DEVELO~1\AppData\Local\Temp\ccdoOenO.s 			page 28


 1540 0917 07       		.byte	0x7
 1541 0918 32       		.byte	0x32
 1542 0919 0E       		.byte	0xe
 1543 091a 37090000 		.4byte	0x937
 1544 091e 10       		.uleb128 0x10
 1545 091f 9D060000 		.4byte	.LASF130
 1546 0923 00       		.byte	0
 1547 0924 10       		.uleb128 0x10
 1548 0925 86070000 		.4byte	.LASF131
 1549 0929 01       		.byte	0x1
 1550 092a 10       		.uleb128 0x10
 1551 092b 9F000000 		.4byte	.LASF132
 1552 092f 02       		.byte	0x2
 1553 0930 10       		.uleb128 0x10
 1554 0931 F1070000 		.4byte	.LASF133
 1555 0935 03       		.byte	0x3
 1556 0936 00       		.byte	0
 1557 0937 02       		.uleb128 0x2
 1558 0938 04080000 		.4byte	.LASF134
 1559 093c 07       		.byte	0x7
 1560 093d 37       		.byte	0x37
 1561 093e 03       		.byte	0x3
 1562 093f 10090000 		.4byte	0x910
 1563 0943 07       		.uleb128 0x7
 1564 0944 AE040000 		.4byte	.LASF135
 1565 0948 18       		.byte	0x18
 1566 0949 07       		.byte	0x7
 1567 094a 64       		.byte	0x64
 1568 094b 10       		.byte	0x10
 1569 094c 78090000 		.4byte	0x978
 1570 0950 03       		.uleb128 0x3
 1571 0951 D3060000 		.4byte	.LASF136
 1572 0955 07       		.byte	0x7
 1573 0956 68       		.byte	0x68
 1574 0957 21       		.byte	0x21
 1575 0958 6A040000 		.4byte	0x46a
 1576 095c 00       		.byte	0
 1577 095d 03       		.uleb128 0x3
 1578 095e 06060000 		.4byte	.LASF137
 1579 0962 07       		.byte	0x7
 1580 0963 73       		.byte	0x73
 1581 0964 21       		.byte	0x21
 1582 0965 A7030000 		.4byte	0x3a7
 1583 0969 0C       		.byte	0xc
 1584 096a 03       		.uleb128 0x3
 1585 096b 6D040000 		.4byte	.LASF138
 1586 096f 07       		.byte	0x7
 1587 0970 79       		.byte	0x79
 1588 0971 21       		.byte	0x21
 1589 0972 F5000000 		.4byte	0xf5
 1590 0976 10       		.byte	0x10
 1591 0977 00       		.byte	0
 1592 0978 02       		.uleb128 0x2
 1593 0979 2C040000 		.4byte	.LASF139
 1594 097d 07       		.byte	0x7
 1595 097e 7B       		.byte	0x7b
 1596 097f 03       		.byte	0x3
ARM GAS  C:\Users\DEVELO~1\AppData\Local\Temp\ccdoOenO.s 			page 29


 1597 0980 43090000 		.4byte	0x943
 1598 0984 07       		.uleb128 0x7
 1599 0985 8C010000 		.4byte	.LASF140
 1600 0989 08       		.byte	0x8
 1601 098a 07       		.byte	0x7
 1602 098b 80       		.byte	0x80
 1603 098c 10       		.byte	0x10
 1604 098d 9F090000 		.4byte	0x99f
 1605 0991 03       		.uleb128 0x3
 1606 0992 8B030000 		.4byte	.LASF141
 1607 0996 07       		.byte	0x7
 1608 0997 84       		.byte	0x84
 1609 0998 21       		.byte	0x21
 1610 0999 EB030000 		.4byte	0x3eb
 1611 099d 00       		.byte	0
 1612 099e 00       		.byte	0
 1613 099f 02       		.uleb128 0x2
 1614 09a0 4D060000 		.4byte	.LASF142
 1615 09a4 07       		.byte	0x7
 1616 09a5 85       		.byte	0x85
 1617 09a6 03       		.byte	0x3
 1618 09a7 84090000 		.4byte	0x984
 1619 09ab 02       		.uleb128 0x2
 1620 09ac 9B040000 		.4byte	.LASF143
 1621 09b0 07       		.byte	0x7
 1622 09b1 8A       		.byte	0x8a
 1623 09b2 14       		.byte	0x14
 1624 09b3 D4040000 		.4byte	0x4d4
 1625 09b7 14       		.uleb128 0x14
 1626 09b8 0C       		.byte	0xc
 1627 09b9 07       		.byte	0x7
 1628 09ba A0       		.byte	0xa0
 1629 09bb E4090000 		.4byte	0x9e4
 1630 09bf 0A       		.uleb128 0xa
 1631 09c0 FF070000 		.4byte	.LASF144
 1632 09c4 07       		.byte	0x7
 1633 09c5 A4       		.byte	0xa4
 1634 09c6 21       		.byte	0x21
 1635 09c7 BF030000 		.4byte	0x3bf
 1636 09cb 0A       		.uleb128 0xa
 1637 09cc 8B030000 		.4byte	.LASF141
 1638 09d0 07       		.byte	0x7
 1639 09d1 A8       		.byte	0xa8
 1640 09d2 21       		.byte	0x21
 1641 09d3 EB030000 		.4byte	0x3eb
 1642 09d7 0A       		.uleb128 0xa
 1643 09d8 08070000 		.4byte	.LASF145
 1644 09dc 07       		.byte	0x7
 1645 09dd AC       		.byte	0xac
 1646 09de 21       		.byte	0x21
 1647 09df 24040000 		.4byte	0x424
 1648 09e3 00       		.byte	0
 1649 09e4 14       		.uleb128 0x14
 1650 09e5 04       		.byte	0x4
 1651 09e6 07       		.byte	0x7
 1652 09e7 EB       		.byte	0xeb
 1653 09e8 4D0A0000 		.4byte	0xa4d
ARM GAS  C:\Users\DEVELO~1\AppData\Local\Temp\ccdoOenO.s 			page 30


 1654 09ec 0A       		.uleb128 0xa
 1655 09ed 20000000 		.4byte	.LASF146
 1656 09f1 07       		.byte	0x7
 1657 09f2 F2       		.byte	0xf2
 1658 09f3 21       		.byte	0x21
 1659 09f4 72010000 		.4byte	0x172
 1660 09f8 0A       		.uleb128 0xa
 1661 09f9 AE000000 		.4byte	.LASF147
 1662 09fd 07       		.byte	0x7
 1663 09fe F9       		.byte	0xf9
 1664 09ff 21       		.byte	0x21
 1665 0a00 72010000 		.4byte	0x172
 1666 0a04 0B       		.uleb128 0xb
 1667 0a05 0F060000 		.4byte	.LASF82
 1668 0a09 0001     		.2byte	0x100
 1669 0a0b 22       		.byte	0x22
 1670 0a0c D9040000 		.4byte	0x4d9
 1671 0a10 0B       		.uleb128 0xb
 1672 0a11 1A000000 		.4byte	.LASF148
 1673 0a15 0701     		.2byte	0x107
 1674 0a17 22       		.byte	0x22
 1675 0a18 4D0A0000 		.4byte	0xa4d
 1676 0a1c 0B       		.uleb128 0xb
 1677 0a1d C2000000 		.4byte	.LASF149
 1678 0a21 0C01     		.2byte	0x10c
 1679 0a23 21       		.byte	0x21
 1680 0a24 72010000 		.4byte	0x172
 1681 0a28 0B       		.uleb128 0xb
 1682 0a29 7D020000 		.4byte	.LASF150
 1683 0a2d 1501     		.2byte	0x115
 1684 0a2f 22       		.byte	0x22
 1685 0a30 7A0A0000 		.4byte	0xa7a
 1686 0a34 0B       		.uleb128 0xb
 1687 0a35 68060000 		.4byte	.LASF151
 1688 0a39 1E01     		.2byte	0x11e
 1689 0a3b 22       		.byte	0x22
 1690 0a3c B40A0000 		.4byte	0xab4
 1691 0a40 0B       		.uleb128 0xb
 1692 0a41 16060000 		.4byte	.LASF152
 1693 0a45 2601     		.2byte	0x126
 1694 0a47 21       		.byte	0x21
 1695 0a48 7E010000 		.4byte	0x17e
 1696 0a4c 00       		.byte	0
 1697 0a4d 04       		.uleb128 0x4
 1698 0a4e AB090000 		.4byte	0x9ab
 1699 0a52 07       		.uleb128 0x7
 1700 0a53 36060000 		.4byte	.LASF153
 1701 0a57 0C       		.byte	0xc
 1702 0a58 0F       		.byte	0xf
 1703 0a59 34       		.byte	0x34
 1704 0a5a 10       		.byte	0x10
 1705 0a5b 7A0A0000 		.4byte	0xa7a
 1706 0a5f 03       		.uleb128 0x3
 1707 0a60 8B030000 		.4byte	.LASF141
 1708 0a64 0F       		.byte	0xf
 1709 0a65 35       		.byte	0x35
 1710 0a66 19       		.byte	0x19
ARM GAS  C:\Users\DEVELO~1\AppData\Local\Temp\ccdoOenO.s 			page 31


 1711 0a67 EB030000 		.4byte	0x3eb
 1712 0a6b 00       		.byte	0
 1713 0a6c 08       		.uleb128 0x8
 1714 0a6d 636E7400 		.ascii	"cnt\000"
 1715 0a71 0F       		.byte	0xf
 1716 0a72 37       		.byte	0x37
 1717 0a73 19       		.byte	0x19
 1718 0a74 8A010000 		.4byte	0x18a
 1719 0a78 08       		.byte	0x8
 1720 0a79 00       		.byte	0
 1721 0a7a 04       		.uleb128 0x4
 1722 0a7b 520A0000 		.4byte	0xa52
 1723 0a7f 07       		.uleb128 0x7
 1724 0a80 C1070000 		.4byte	.LASF154
 1725 0a84 10       		.byte	0x10
 1726 0a85 10       		.byte	0x10
 1727 0a86 39       		.byte	0x39
 1728 0a87 08       		.byte	0x8
 1729 0a88 B40A0000 		.4byte	0xab4
 1730 0a8c 03       		.uleb128 0x3
 1731 0a8d 8B030000 		.4byte	.LASF141
 1732 0a91 10       		.byte	0x10
 1733 0a92 3A       		.byte	0x3a
 1734 0a93 19       		.byte	0x19
 1735 0a94 EB030000 		.4byte	0x3eb
 1736 0a98 00       		.byte	0
 1737 0a99 03       		.uleb128 0x3
 1738 0a9a 7F060000 		.4byte	.LASF37
 1739 0a9e 10       		.byte	0x10
 1740 0a9f 3C       		.byte	0x3c
 1741 0aa0 1A       		.byte	0x1a
 1742 0aa1 D4040000 		.4byte	0x4d4
 1743 0aa5 08       		.byte	0x8
 1744 0aa6 03       		.uleb128 0x3
 1745 0aa7 DF000000 		.4byte	.LASF72
 1746 0aab 10       		.byte	0x10
 1747 0aac 3E       		.byte	0x3e
 1748 0aad 1A       		.byte	0x1a
 1749 0aae D30B0000 		.4byte	0xbd3
 1750 0ab2 0C       		.byte	0xc
 1751 0ab3 00       		.byte	0
 1752 0ab4 04       		.uleb128 0x4
 1753 0ab5 7F0A0000 		.4byte	0xa7f
 1754 0ab9 04       		.uleb128 0x4
 1755 0aba 9D020000 		.4byte	0x29d
 1756 0abe 04       		.uleb128 0x4
 1757 0abf 36010000 		.4byte	0x136
 1758 0ac3 0D       		.uleb128 0xd
 1759 0ac4 F1030000 		.4byte	.LASF155
 1760 0ac8 10       		.byte	0x10
 1761 0ac9 07       		.byte	0x7
 1762 0aca 5C01     		.2byte	0x15c
 1763 0acc 10       		.byte	0x10
 1764 0acd EE0A0000 		.4byte	0xaee
 1765 0ad1 01       		.uleb128 0x1
 1766 0ad2 08070000 		.4byte	.LASF145
 1767 0ad6 07       		.byte	0x7
ARM GAS  C:\Users\DEVELO~1\AppData\Local\Temp\ccdoOenO.s 			page 32


 1768 0ad7 6101     		.2byte	0x161
 1769 0ad9 21       		.byte	0x21
 1770 0ada 24040000 		.4byte	0x424
 1771 0ade 00       		.byte	0
 1772 0adf 01       		.uleb128 0x1
 1773 0ae0 4C050000 		.4byte	.LASF156
 1774 0ae4 07       		.byte	0x7
 1775 0ae5 6501     		.2byte	0x165
 1776 0ae7 22       		.byte	0x22
 1777 0ae8 D4040000 		.4byte	0x4d4
 1778 0aec 0C       		.byte	0xc
 1779 0aed 00       		.byte	0
 1780 0aee 0F       		.uleb128 0xf
 1781 0aef 0D000000 		.4byte	.LASF157
 1782 0af3 07       		.byte	0x7
 1783 0af4 6601     		.2byte	0x166
 1784 0af6 C30A0000 		.4byte	0xac3
 1785 0afa 0D       		.uleb128 0xd
 1786 0afb 0D050000 		.4byte	.LASF158
 1787 0aff 14       		.byte	0x14
 1788 0b00 07       		.byte	0x7
 1789 0b01 6B01     		.2byte	0x16b
 1790 0b03 10       		.byte	0x10
 1791 0b04 4F0B0000 		.4byte	0xb4f
 1792 0b08 01       		.uleb128 0x1
 1793 0b09 86030000 		.4byte	.LASF38
 1794 0b0d 07       		.byte	0x7
 1795 0b0e 6F01     		.2byte	0x16f
 1796 0b10 22       		.byte	0x22
 1797 0b11 85030000 		.4byte	0x385
 1798 0b15 00       		.byte	0
 1799 0b16 01       		.uleb128 0x1
 1800 0b17 16020000 		.4byte	.LASF159
 1801 0b1b 07       		.byte	0x7
 1802 0b1c 7501     		.2byte	0x175
 1803 0b1e 22       		.byte	0x22
 1804 0b1f BE0A0000 		.4byte	0xabe
 1805 0b23 04       		.byte	0x4
 1806 0b24 01       		.uleb128 0x1
 1807 0b25 6B070000 		.4byte	.LASF160
 1808 0b29 07       		.byte	0x7
 1809 0b2a 7901     		.2byte	0x179
 1810 0b2c 22       		.byte	0x22
 1811 0b2d BE0A0000 		.4byte	0xabe
 1812 0b31 08       		.byte	0x8
 1813 0b32 01       		.uleb128 0x1
 1814 0b33 2C000000 		.4byte	.LASF161
 1815 0b37 07       		.byte	0x7
 1816 0b38 7F01     		.2byte	0x17f
 1817 0b3a 22       		.byte	0x22
 1818 0b3b BE0A0000 		.4byte	0xabe
 1819 0b3f 0C       		.byte	0xc
 1820 0b40 01       		.uleb128 0x1
 1821 0b41 13080000 		.4byte	.LASF162
 1822 0b45 07       		.byte	0x7
 1823 0b46 8301     		.2byte	0x183
 1824 0b48 22       		.byte	0x22
ARM GAS  C:\Users\DEVELO~1\AppData\Local\Temp\ccdoOenO.s 			page 33


 1825 0b49 BE0A0000 		.4byte	0xabe
 1826 0b4d 10       		.byte	0x10
 1827 0b4e 00       		.byte	0
 1828 0b4f 0F       		.uleb128 0xf
 1829 0b50 6C000000 		.4byte	.LASF163
 1830 0b54 07       		.byte	0x7
 1831 0b55 8501     		.2byte	0x185
 1832 0b57 FA0A0000 		.4byte	0xafa
 1833 0b5b 13       		.uleb128 0x13
 1834 0b5c 4F0B0000 		.4byte	0xb4f
 1835 0b60 04       		.uleb128 0x4
 1836 0b61 5B0B0000 		.4byte	0xb5b
 1837 0b65 0D       		.uleb128 0xd
 1838 0b66 1D060000 		.4byte	.LASF164
 1839 0b6a 0C       		.byte	0xc
 1840 0b6b 07       		.byte	0x7
 1841 0b6c C901     		.2byte	0x1c9
 1842 0b6e 10       		.byte	0x10
 1843 0b6f 9E0B0000 		.4byte	0xb9e
 1844 0b73 01       		.uleb128 0x1
 1845 0b74 26010000 		.4byte	.LASF40
 1846 0b78 07       		.byte	0x7
 1847 0b79 CD01     		.2byte	0x1cd
 1848 0b7b 21       		.byte	0x21
 1849 0b7c 37090000 		.4byte	0x937
 1850 0b80 00       		.byte	0
 1851 0b81 01       		.uleb128 0x1
 1852 0b82 6D020000 		.4byte	.LASF165
 1853 0b86 07       		.byte	0x7
 1854 0b87 D101     		.2byte	0x1d1
 1855 0b89 22       		.byte	0x22
 1856 0b8a 9E0B0000 		.4byte	0xb9e
 1857 0b8e 04       		.byte	0x4
 1858 0b8f 06       		.uleb128 0x6
 1859 0b90 746D6300 		.ascii	"tmc\000"
 1860 0b94 07       		.byte	0x7
 1861 0b95 D601     		.2byte	0x1d6
 1862 0b97 21       		.byte	0x21
 1863 0b98 AF080000 		.4byte	0x8af
 1864 0b9c 08       		.byte	0x8
 1865 0b9d 00       		.byte	0
 1866 0b9e 0E       		.uleb128 0xe
 1867 0b9f B90A0000 		.4byte	0xab9
 1868 0ba3 AE0B0000 		.4byte	0xbae
 1869 0ba7 17       		.uleb128 0x17
 1870 0ba8 2D000000 		.4byte	0x2d
 1871 0bac 00       		.byte	0
 1872 0bad 00       		.byte	0
 1873 0bae 0F       		.uleb128 0xf
 1874 0baf D5030000 		.4byte	.LASF166
 1875 0bb3 07       		.byte	0x7
 1876 0bb4 ED01     		.2byte	0x1ed
 1877 0bb6 650B0000 		.4byte	0xb65
 1878 0bba 24       		.uleb128 0x24
 1879 0bbb 1D060000 		.4byte	.LASF164
 1880 0bbf 11       		.byte	0x11
 1881 0bc0 3E01     		.2byte	0x13e
ARM GAS  C:\Users\DEVELO~1\AppData\Local\Temp\ccdoOenO.s 			page 34


 1882 0bc2 14       		.byte	0x14
 1883 0bc3 AE0B0000 		.4byte	0xbae
 1884 0bc7 02       		.uleb128 0x2
 1885 0bc8 26020000 		.4byte	.LASF167
 1886 0bcc 10       		.byte	0x10
 1887 0bcd 34       		.byte	0x34
 1888 0bce 19       		.byte	0x19
 1889 0bcf 7F0A0000 		.4byte	0xa7f
 1890 0bd3 04       		.uleb128 0x4
 1891 0bd4 C70B0000 		.4byte	0xbc7
 1892 0bd8 05       		.uleb128 0x5
 1893 0bd9 01       		.byte	0x1
 1894 0bda 02       		.byte	0x2
 1895 0bdb B8050000 		.4byte	.LASF168
 1896 0bdf 11       		.uleb128 0x11
 1897 0be0 42040000 		.4byte	.LASF169
 1898 0be4 7E       		.byte	0x7e
 1899 0be5 0F       		.byte	0xf
 1900 0be6 00000000 		.4byte	.LFB350
 1901 0bea 3C000000 		.4byte	.LFE350-.LFB350
 1902 0bee 01       		.uleb128 0x1
 1903 0bef 9C       		.byte	0x9c
 1904 0bf0 680C0000 		.4byte	0xc68
 1905 0bf4 25       		.uleb128 0x25
 1906 0bf5 ED000000 		.4byte	.LASF171
 1907 0bf9 01       		.byte	0x1
 1908 0bfa 7E       		.byte	0x7e
 1909 0bfb 3B       		.byte	0x3b
 1910 0bfc 680C0000 		.4byte	0xc68
 1911 0c00 01       		.uleb128 0x1
 1912 0c01 50       		.byte	0x50
 1913 0c02 26       		.uleb128 0x26
 1914 0c03 F2000000 		.4byte	.LASF177
 1915 0c07 01       		.byte	0x1
 1916 0c08 7F       		.byte	0x7f
 1917 0c09 3B       		.byte	0x3b
 1918 0c0a 680C0000 		.4byte	0xc68
 1919 0c0e 10000000 		.4byte	.LLST5
 1920 0c12 0C000000 		.4byte	.LVUS5
 1921 0c16 1A       		.uleb128 0x1a
 1922 0c17 640D0000 		.4byte	0xd64
 1923 0c1b 00000000 		.4byte	.LBI28
 1924 0c1f 02       		.byte	.LVU57
 1925 0c20 00000000 		.4byte	.LBB28
 1926 0c24 04000000 		.4byte	.LBE28-.LBB28
 1927 0c28 82       		.byte	0x82
 1928 0c29 10       		.byte	0x10
 1929 0c2a 27       		.uleb128 0x27
 1930 0c2b 340D0000 		.4byte	0xd34
 1931 0c2f 08000000 		.4byte	.LBI30
 1932 0c33 01       		.byte	.LVU63
 1933 0c34 08000000 		.4byte	.LBB30
 1934 0c38 2A000000 		.4byte	.LBE30-.LBB30
 1935 0c3c 01       		.byte	0x1
 1936 0c3d 85       		.byte	0x85
 1937 0c3e 03       		.byte	0x3
 1938 0c3f 0C       		.uleb128 0xc
ARM GAS  C:\Users\DEVELO~1\AppData\Local\Temp\ccdoOenO.s 			page 35


 1939 0c40 570D0000 		.4byte	0xd57
 1940 0c44 25000000 		.4byte	.LLST6
 1941 0c48 23000000 		.4byte	.LVUS6
 1942 0c4c 0C       		.uleb128 0xc
 1943 0c4d 4C0D0000 		.4byte	0xd4c
 1944 0c51 33000000 		.4byte	.LLST7
 1945 0c55 2F000000 		.4byte	.LVUS7
 1946 0c59 0C       		.uleb128 0xc
 1947 0c5a 410D0000 		.4byte	0xd41
 1948 0c5e 49000000 		.4byte	.LLST8
 1949 0c62 47000000 		.4byte	.LVUS8
 1950 0c66 00       		.byte	0
 1951 0c67 00       		.byte	0
 1952 0c68 04       		.uleb128 0x4
 1953 0c69 04090000 		.4byte	0x904
 1954 0c6d 11       		.uleb128 0x11
 1955 0c6e 2C010000 		.4byte	.LASF170
 1956 0c72 6D       		.byte	0x6d
 1957 0c73 0F       		.byte	0xf
 1958 0c74 00000000 		.4byte	.LFB349
 1959 0c78 44000000 		.4byte	.LFE349-.LFB349
 1960 0c7c 01       		.uleb128 0x1
 1961 0c7d 9C       		.byte	0x9c
 1962 0c7e DA0C0000 		.4byte	0xcda
 1963 0c82 18       		.uleb128 0x18
 1964 0c83 746D7000 		.ascii	"tmp\000"
 1965 0c87 6D       		.byte	0x6d
 1966 0c88 38       		.byte	0x38
 1967 0c89 680C0000 		.4byte	0xc68
 1968 0c8d 01       		.uleb128 0x1
 1969 0c8e 50       		.byte	0x50
 1970 0c8f 28       		.uleb128 0x28
 1971 0c90 640D0000 		.4byte	0xd64
 1972 0c94 00000000 		.4byte	.LBI14
 1973 0c98 02       		.byte	.LVU22
 1974 0c99 0C000000 		.4byte	.LLRL0
 1975 0c9d 01       		.byte	0x1
 1976 0c9e 6F       		.byte	0x6f
 1977 0c9f 10       		.byte	0x10
 1978 0ca0 29       		.uleb128 0x29
 1979 0ca1 340D0000 		.4byte	0xd34
 1980 0ca5 0C000000 		.4byte	.LBI19
 1981 0ca9 00       		.byte	.LVU30
 1982 0caa 1B000000 		.4byte	.LLRL1
 1983 0cae 01       		.byte	0x1
 1984 0caf 6F       		.byte	0x6f
 1985 0cb0 03       		.byte	0x3
 1986 0cb1 0C       		.uleb128 0xc
 1987 0cb2 570D0000 		.4byte	0xd57
 1988 0cb6 54000000 		.4byte	.LLST2
 1989 0cba 52000000 		.4byte	.LVUS2
 1990 0cbe 0C       		.uleb128 0xc
 1991 0cbf 4C0D0000 		.4byte	0xd4c
 1992 0cc3 5F000000 		.4byte	.LLST3
 1993 0cc7 5D000000 		.4byte	.LVUS3
 1994 0ccb 0C       		.uleb128 0xc
 1995 0ccc 410D0000 		.4byte	0xd41
ARM GAS  C:\Users\DEVELO~1\AppData\Local\Temp\ccdoOenO.s 			page 36


 1996 0cd0 6A000000 		.4byte	.LLST4
 1997 0cd4 68000000 		.4byte	.LVUS4
 1998 0cd8 00       		.byte	0
 1999 0cd9 00       		.byte	0
 2000 0cda 11       		.uleb128 0x11
 2001 0cdb 4B020000 		.4byte	.LASF172
 2002 0cdf 60       		.byte	0x60
 2003 0ce0 0F       		.byte	0xf
 2004 0ce1 00000000 		.4byte	.LFB348
 2005 0ce5 0C000000 		.4byte	.LFE348-.LFB348
 2006 0ce9 01       		.uleb128 0x1
 2007 0cea 9C       		.byte	0x9c
 2008 0ceb 110D0000 		.4byte	0xd11
 2009 0cef 18       		.uleb128 0x18
 2010 0cf0 746D7000 		.ascii	"tmp\000"
 2011 0cf4 60       		.byte	0x60
 2012 0cf5 39       		.byte	0x39
 2013 0cf6 680C0000 		.4byte	0xc68
 2014 0cfa 01       		.uleb128 0x1
 2015 0cfb 50       		.byte	0x50
 2016 0cfc 1A       		.uleb128 0x1a
 2017 0cfd 640D0000 		.4byte	0xd64
 2018 0d01 00000000 		.4byte	.LBI8
 2019 0d05 02       		.byte	.LVU15
 2020 0d06 00000000 		.4byte	.LBB8
 2021 0d0a 04000000 		.4byte	.LBE8-.LBB8
 2022 0d0e 62       		.byte	0x62
 2023 0d0f 0F       		.byte	0xf
 2024 0d10 00       		.byte	0
 2025 0d11 11       		.uleb128 0x11
 2026 0d12 D0000000 		.4byte	.LASF173
 2027 0d16 4F       		.byte	0x4f
 2028 0d17 06       		.byte	0x6
 2029 0d18 00000000 		.4byte	.LFB347
 2030 0d1c 1C000000 		.4byte	.LFE347-.LFB347
 2031 0d20 01       		.uleb128 0x1
 2032 0d21 9C       		.byte	0x9c
 2033 0d22 340D0000 		.4byte	0xd34
 2034 0d26 18       		.uleb128 0x18
 2035 0d27 746D7000 		.ascii	"tmp\000"
 2036 0d2b 4F       		.byte	0x4f
 2037 0d2c 29       		.byte	0x29
 2038 0d2d 680C0000 		.4byte	0xc68
 2039 0d31 01       		.uleb128 0x1
 2040 0d32 50       		.byte	0x50
 2041 0d33 00       		.byte	0
 2042 0d34 2A       		.uleb128 0x2a
 2043 0d35 BD060000 		.4byte	.LASF178
 2044 0d39 01       		.byte	0x1
 2045 0d3a 35       		.byte	0x35
 2046 0d3b 14       		.byte	0x14
 2047 0d3c 03       		.byte	0x3
 2048 0d3d 640D0000 		.4byte	0xd64
 2049 0d41 1B       		.uleb128 0x1b
 2050 0d42 746D7000 		.ascii	"tmp\000"
 2051 0d46 35       		.byte	0x35
 2052 0d47 30       		.byte	0x30
ARM GAS  C:\Users\DEVELO~1\AppData\Local\Temp\ccdoOenO.s 			page 37


 2053 0d48 680C0000 		.4byte	0xc68
 2054 0d4c 1B       		.uleb128 0x1b
 2055 0d4d 6E6F7700 		.ascii	"now\000"
 2056 0d51 36       		.byte	0x36
 2057 0d52 24       		.byte	0x24
 2058 0d53 1E010000 		.4byte	0x11e
 2059 0d57 2B       		.uleb128 0x2b
 2060 0d58 1E070000 		.4byte	.LASF123
 2061 0d5c 01       		.byte	0x1
 2062 0d5d 37       		.byte	0x37
 2063 0d5e 24       		.byte	0x24
 2064 0d5f 1E010000 		.4byte	0x11e
 2065 0d63 00       		.byte	0
 2066 0d64 2C       		.uleb128 0x2c
 2067 0d65 CA070000 		.4byte	.LASF179
 2068 0d69 02       		.byte	0x2
 2069 0d6a 9603     		.2byte	0x396
 2070 0d6c 1E       		.byte	0x1e
 2071 0d6d 1E010000 		.4byte	0x11e
 2072 0d71 03       		.byte	0x3
 2073 0d72 00       		.byte	0
 2074              		.section	.debug_abbrev,"",%progbits
 2075              	.Ldebug_abbrev0:
 2076 0000 01       		.uleb128 0x1
 2077 0001 0D       		.uleb128 0xd
 2078 0002 00       		.byte	0
 2079 0003 03       		.uleb128 0x3
 2080 0004 0E       		.uleb128 0xe
 2081 0005 3A       		.uleb128 0x3a
 2082 0006 0B       		.uleb128 0xb
 2083 0007 3B       		.uleb128 0x3b
 2084 0008 05       		.uleb128 0x5
 2085 0009 39       		.uleb128 0x39
 2086 000a 0B       		.uleb128 0xb
 2087 000b 49       		.uleb128 0x49
 2088 000c 13       		.uleb128 0x13
 2089 000d 38       		.uleb128 0x38
 2090 000e 0B       		.uleb128 0xb
 2091 000f 00       		.byte	0
 2092 0010 00       		.byte	0
 2093 0011 02       		.uleb128 0x2
 2094 0012 16       		.uleb128 0x16
 2095 0013 00       		.byte	0
 2096 0014 03       		.uleb128 0x3
 2097 0015 0E       		.uleb128 0xe
 2098 0016 3A       		.uleb128 0x3a
 2099 0017 0B       		.uleb128 0xb
 2100 0018 3B       		.uleb128 0x3b
 2101 0019 0B       		.uleb128 0xb
 2102 001a 39       		.uleb128 0x39
 2103 001b 0B       		.uleb128 0xb
 2104 001c 49       		.uleb128 0x49
 2105 001d 13       		.uleb128 0x13
 2106 001e 00       		.byte	0
 2107 001f 00       		.byte	0
 2108 0020 03       		.uleb128 0x3
 2109 0021 0D       		.uleb128 0xd
ARM GAS  C:\Users\DEVELO~1\AppData\Local\Temp\ccdoOenO.s 			page 38


 2110 0022 00       		.byte	0
 2111 0023 03       		.uleb128 0x3
 2112 0024 0E       		.uleb128 0xe
 2113 0025 3A       		.uleb128 0x3a
 2114 0026 0B       		.uleb128 0xb
 2115 0027 3B       		.uleb128 0x3b
 2116 0028 0B       		.uleb128 0xb
 2117 0029 39       		.uleb128 0x39
 2118 002a 0B       		.uleb128 0xb
 2119 002b 49       		.uleb128 0x49
 2120 002c 13       		.uleb128 0x13
 2121 002d 38       		.uleb128 0x38
 2122 002e 0B       		.uleb128 0xb
 2123 002f 00       		.byte	0
 2124 0030 00       		.byte	0
 2125 0031 04       		.uleb128 0x4
 2126 0032 0F       		.uleb128 0xf
 2127 0033 00       		.byte	0
 2128 0034 0B       		.uleb128 0xb
 2129 0035 21       		.uleb128 0x21
 2130 0036 04       		.sleb128 4
 2131 0037 49       		.uleb128 0x49
 2132 0038 13       		.uleb128 0x13
 2133 0039 00       		.byte	0
 2134 003a 00       		.byte	0
 2135 003b 05       		.uleb128 0x5
 2136 003c 24       		.uleb128 0x24
 2137 003d 00       		.byte	0
 2138 003e 0B       		.uleb128 0xb
 2139 003f 0B       		.uleb128 0xb
 2140 0040 3E       		.uleb128 0x3e
 2141 0041 0B       		.uleb128 0xb
 2142 0042 03       		.uleb128 0x3
 2143 0043 0E       		.uleb128 0xe
 2144 0044 00       		.byte	0
 2145 0045 00       		.byte	0
 2146 0046 06       		.uleb128 0x6
 2147 0047 0D       		.uleb128 0xd
 2148 0048 00       		.byte	0
 2149 0049 03       		.uleb128 0x3
 2150 004a 08       		.uleb128 0x8
 2151 004b 3A       		.uleb128 0x3a
 2152 004c 0B       		.uleb128 0xb
 2153 004d 3B       		.uleb128 0x3b
 2154 004e 05       		.uleb128 0x5
 2155 004f 39       		.uleb128 0x39
 2156 0050 0B       		.uleb128 0xb
 2157 0051 49       		.uleb128 0x49
 2158 0052 13       		.uleb128 0x13
 2159 0053 38       		.uleb128 0x38
 2160 0054 0B       		.uleb128 0xb
 2161 0055 00       		.byte	0
 2162 0056 00       		.byte	0
 2163 0057 07       		.uleb128 0x7
 2164 0058 13       		.uleb128 0x13
 2165 0059 01       		.byte	0x1
 2166 005a 03       		.uleb128 0x3
ARM GAS  C:\Users\DEVELO~1\AppData\Local\Temp\ccdoOenO.s 			page 39


 2167 005b 0E       		.uleb128 0xe
 2168 005c 0B       		.uleb128 0xb
 2169 005d 0B       		.uleb128 0xb
 2170 005e 3A       		.uleb128 0x3a
 2171 005f 0B       		.uleb128 0xb
 2172 0060 3B       		.uleb128 0x3b
 2173 0061 0B       		.uleb128 0xb
 2174 0062 39       		.uleb128 0x39
 2175 0063 0B       		.uleb128 0xb
 2176 0064 01       		.uleb128 0x1
 2177 0065 13       		.uleb128 0x13
 2178 0066 00       		.byte	0
 2179 0067 00       		.byte	0
 2180 0068 08       		.uleb128 0x8
 2181 0069 0D       		.uleb128 0xd
 2182 006a 00       		.byte	0
 2183 006b 03       		.uleb128 0x3
 2184 006c 08       		.uleb128 0x8
 2185 006d 3A       		.uleb128 0x3a
 2186 006e 0B       		.uleb128 0xb
 2187 006f 3B       		.uleb128 0x3b
 2188 0070 0B       		.uleb128 0xb
 2189 0071 39       		.uleb128 0x39
 2190 0072 0B       		.uleb128 0xb
 2191 0073 49       		.uleb128 0x49
 2192 0074 13       		.uleb128 0x13
 2193 0075 38       		.uleb128 0x38
 2194 0076 0B       		.uleb128 0xb
 2195 0077 00       		.byte	0
 2196 0078 00       		.byte	0
 2197 0079 09       		.uleb128 0x9
 2198 007a 13       		.uleb128 0x13
 2199 007b 01       		.byte	0x1
 2200 007c 0B       		.uleb128 0xb
 2201 007d 0B       		.uleb128 0xb
 2202 007e 3A       		.uleb128 0x3a
 2203 007f 0B       		.uleb128 0xb
 2204 0080 3B       		.uleb128 0x3b
 2205 0081 0B       		.uleb128 0xb
 2206 0082 39       		.uleb128 0x39
 2207 0083 0B       		.uleb128 0xb
 2208 0084 01       		.uleb128 0x1
 2209 0085 13       		.uleb128 0x13
 2210 0086 00       		.byte	0
 2211 0087 00       		.byte	0
 2212 0088 0A       		.uleb128 0xa
 2213 0089 0D       		.uleb128 0xd
 2214 008a 00       		.byte	0
 2215 008b 03       		.uleb128 0x3
 2216 008c 0E       		.uleb128 0xe
 2217 008d 3A       		.uleb128 0x3a
 2218 008e 0B       		.uleb128 0xb
 2219 008f 3B       		.uleb128 0x3b
 2220 0090 0B       		.uleb128 0xb
 2221 0091 39       		.uleb128 0x39
 2222 0092 0B       		.uleb128 0xb
 2223 0093 49       		.uleb128 0x49
ARM GAS  C:\Users\DEVELO~1\AppData\Local\Temp\ccdoOenO.s 			page 40


 2224 0094 13       		.uleb128 0x13
 2225 0095 00       		.byte	0
 2226 0096 00       		.byte	0
 2227 0097 0B       		.uleb128 0xb
 2228 0098 0D       		.uleb128 0xd
 2229 0099 00       		.byte	0
 2230 009a 03       		.uleb128 0x3
 2231 009b 0E       		.uleb128 0xe
 2232 009c 3A       		.uleb128 0x3a
 2233 009d 21       		.uleb128 0x21
 2234 009e 07       		.sleb128 7
 2235 009f 3B       		.uleb128 0x3b
 2236 00a0 05       		.uleb128 0x5
 2237 00a1 39       		.uleb128 0x39
 2238 00a2 0B       		.uleb128 0xb
 2239 00a3 49       		.uleb128 0x49
 2240 00a4 13       		.uleb128 0x13
 2241 00a5 00       		.byte	0
 2242 00a6 00       		.byte	0
 2243 00a7 0C       		.uleb128 0xc
 2244 00a8 05       		.uleb128 0x5
 2245 00a9 00       		.byte	0
 2246 00aa 31       		.uleb128 0x31
 2247 00ab 13       		.uleb128 0x13
 2248 00ac 02       		.uleb128 0x2
 2249 00ad 17       		.uleb128 0x17
 2250 00ae B742     		.uleb128 0x2137
 2251 00b0 17       		.uleb128 0x17
 2252 00b1 00       		.byte	0
 2253 00b2 00       		.byte	0
 2254 00b3 0D       		.uleb128 0xd
 2255 00b4 13       		.uleb128 0x13
 2256 00b5 01       		.byte	0x1
 2257 00b6 03       		.uleb128 0x3
 2258 00b7 0E       		.uleb128 0xe
 2259 00b8 0B       		.uleb128 0xb
 2260 00b9 0B       		.uleb128 0xb
 2261 00ba 3A       		.uleb128 0x3a
 2262 00bb 0B       		.uleb128 0xb
 2263 00bc 3B       		.uleb128 0x3b
 2264 00bd 05       		.uleb128 0x5
 2265 00be 39       		.uleb128 0x39
 2266 00bf 0B       		.uleb128 0xb
 2267 00c0 01       		.uleb128 0x1
 2268 00c1 13       		.uleb128 0x13
 2269 00c2 00       		.byte	0
 2270 00c3 00       		.byte	0
 2271 00c4 0E       		.uleb128 0xe
 2272 00c5 01       		.uleb128 0x1
 2273 00c6 01       		.byte	0x1
 2274 00c7 49       		.uleb128 0x49
 2275 00c8 13       		.uleb128 0x13
 2276 00c9 01       		.uleb128 0x1
 2277 00ca 13       		.uleb128 0x13
 2278 00cb 00       		.byte	0
 2279 00cc 00       		.byte	0
 2280 00cd 0F       		.uleb128 0xf
ARM GAS  C:\Users\DEVELO~1\AppData\Local\Temp\ccdoOenO.s 			page 41


 2281 00ce 16       		.uleb128 0x16
 2282 00cf 00       		.byte	0
 2283 00d0 03       		.uleb128 0x3
 2284 00d1 0E       		.uleb128 0xe
 2285 00d2 3A       		.uleb128 0x3a
 2286 00d3 0B       		.uleb128 0xb
 2287 00d4 3B       		.uleb128 0x3b
 2288 00d5 05       		.uleb128 0x5
 2289 00d6 39       		.uleb128 0x39
 2290 00d7 21       		.uleb128 0x21
 2291 00d8 03       		.sleb128 3
 2292 00d9 49       		.uleb128 0x49
 2293 00da 13       		.uleb128 0x13
 2294 00db 00       		.byte	0
 2295 00dc 00       		.byte	0
 2296 00dd 10       		.uleb128 0x10
 2297 00de 28       		.uleb128 0x28
 2298 00df 00       		.byte	0
 2299 00e0 03       		.uleb128 0x3
 2300 00e1 0E       		.uleb128 0xe
 2301 00e2 1C       		.uleb128 0x1c
 2302 00e3 0B       		.uleb128 0xb
 2303 00e4 00       		.byte	0
 2304 00e5 00       		.byte	0
 2305 00e6 11       		.uleb128 0x11
 2306 00e7 2E       		.uleb128 0x2e
 2307 00e8 01       		.byte	0x1
 2308 00e9 3F       		.uleb128 0x3f
 2309 00ea 19       		.uleb128 0x19
 2310 00eb 03       		.uleb128 0x3
 2311 00ec 0E       		.uleb128 0xe
 2312 00ed 3A       		.uleb128 0x3a
 2313 00ee 21       		.uleb128 0x21
 2314 00ef 01       		.sleb128 1
 2315 00f0 3B       		.uleb128 0x3b
 2316 00f1 0B       		.uleb128 0xb
 2317 00f2 39       		.uleb128 0x39
 2318 00f3 0B       		.uleb128 0xb
 2319 00f4 27       		.uleb128 0x27
 2320 00f5 19       		.uleb128 0x19
 2321 00f6 11       		.uleb128 0x11
 2322 00f7 01       		.uleb128 0x1
 2323 00f8 12       		.uleb128 0x12
 2324 00f9 06       		.uleb128 0x6
 2325 00fa 40       		.uleb128 0x40
 2326 00fb 18       		.uleb128 0x18
 2327 00fc 7A       		.uleb128 0x7a
 2328 00fd 19       		.uleb128 0x19
 2329 00fe 01       		.uleb128 0x1
 2330 00ff 13       		.uleb128 0x13
 2331 0100 00       		.byte	0
 2332 0101 00       		.byte	0
 2333 0102 12       		.uleb128 0x12
 2334 0103 35       		.uleb128 0x35
 2335 0104 00       		.byte	0
 2336 0105 49       		.uleb128 0x49
 2337 0106 13       		.uleb128 0x13
ARM GAS  C:\Users\DEVELO~1\AppData\Local\Temp\ccdoOenO.s 			page 42


 2338 0107 00       		.byte	0
 2339 0108 00       		.byte	0
 2340 0109 13       		.uleb128 0x13
 2341 010a 26       		.uleb128 0x26
 2342 010b 00       		.byte	0
 2343 010c 49       		.uleb128 0x49
 2344 010d 13       		.uleb128 0x13
 2345 010e 00       		.byte	0
 2346 010f 00       		.byte	0
 2347 0110 14       		.uleb128 0x14
 2348 0111 17       		.uleb128 0x17
 2349 0112 01       		.byte	0x1
 2350 0113 0B       		.uleb128 0xb
 2351 0114 0B       		.uleb128 0xb
 2352 0115 3A       		.uleb128 0x3a
 2353 0116 0B       		.uleb128 0xb
 2354 0117 3B       		.uleb128 0x3b
 2355 0118 0B       		.uleb128 0xb
 2356 0119 39       		.uleb128 0x39
 2357 011a 21       		.uleb128 0x21
 2358 011b 03       		.sleb128 3
 2359 011c 01       		.uleb128 0x1
 2360 011d 13       		.uleb128 0x13
 2361 011e 00       		.byte	0
 2362 011f 00       		.byte	0
 2363 0120 15       		.uleb128 0x15
 2364 0121 0D       		.uleb128 0xd
 2365 0122 00       		.byte	0
 2366 0123 03       		.uleb128 0x3
 2367 0124 08       		.uleb128 0x8
 2368 0125 3A       		.uleb128 0x3a
 2369 0126 21       		.uleb128 0x21
 2370 0127 0C       		.sleb128 12
 2371 0128 3B       		.uleb128 0x3b
 2372 0129 0B       		.uleb128 0xb
 2373 012a 39       		.uleb128 0x39
 2374 012b 21       		.uleb128 0x21
 2375 012c 07       		.sleb128 7
 2376 012d 49       		.uleb128 0x49
 2377 012e 13       		.uleb128 0x13
 2378 012f 00       		.byte	0
 2379 0130 00       		.byte	0
 2380 0131 16       		.uleb128 0x16
 2381 0132 0D       		.uleb128 0xd
 2382 0133 00       		.byte	0
 2383 0134 03       		.uleb128 0x3
 2384 0135 0E       		.uleb128 0xe
 2385 0136 3A       		.uleb128 0x3a
 2386 0137 21       		.uleb128 0x21
 2387 0138 0C       		.sleb128 12
 2388 0139 3B       		.uleb128 0x3b
 2389 013a 0B       		.uleb128 0xb
 2390 013b 39       		.uleb128 0x39
 2391 013c 21       		.uleb128 0x21
 2392 013d 19       		.sleb128 25
 2393 013e 49       		.uleb128 0x49
 2394 013f 13       		.uleb128 0x13
ARM GAS  C:\Users\DEVELO~1\AppData\Local\Temp\ccdoOenO.s 			page 43


 2395 0140 0D       		.uleb128 0xd
 2396 0141 0B       		.uleb128 0xb
 2397 0142 6B       		.uleb128 0x6b
 2398 0143 0B       		.uleb128 0xb
 2399 0144 00       		.byte	0
 2400 0145 00       		.byte	0
 2401 0146 17       		.uleb128 0x17
 2402 0147 21       		.uleb128 0x21
 2403 0148 00       		.byte	0
 2404 0149 49       		.uleb128 0x49
 2405 014a 13       		.uleb128 0x13
 2406 014b 2F       		.uleb128 0x2f
 2407 014c 0B       		.uleb128 0xb
 2408 014d 00       		.byte	0
 2409 014e 00       		.byte	0
 2410 014f 18       		.uleb128 0x18
 2411 0150 05       		.uleb128 0x5
 2412 0151 00       		.byte	0
 2413 0152 03       		.uleb128 0x3
 2414 0153 08       		.uleb128 0x8
 2415 0154 3A       		.uleb128 0x3a
 2416 0155 21       		.uleb128 0x21
 2417 0156 01       		.sleb128 1
 2418 0157 3B       		.uleb128 0x3b
 2419 0158 0B       		.uleb128 0xb
 2420 0159 39       		.uleb128 0x39
 2421 015a 0B       		.uleb128 0xb
 2422 015b 49       		.uleb128 0x49
 2423 015c 13       		.uleb128 0x13
 2424 015d 02       		.uleb128 0x2
 2425 015e 18       		.uleb128 0x18
 2426 015f 00       		.byte	0
 2427 0160 00       		.byte	0
 2428 0161 19       		.uleb128 0x19
 2429 0162 0D       		.uleb128 0xd
 2430 0163 00       		.byte	0
 2431 0164 03       		.uleb128 0x3
 2432 0165 08       		.uleb128 0x8
 2433 0166 3A       		.uleb128 0x3a
 2434 0167 21       		.uleb128 0x21
 2435 0168 0D       		.sleb128 13
 2436 0169 3B       		.uleb128 0x3b
 2437 016a 05       		.uleb128 0x5
 2438 016b 39       		.uleb128 0x39
 2439 016c 21       		.uleb128 0x21
 2440 016d 12       		.sleb128 18
 2441 016e 49       		.uleb128 0x49
 2442 016f 13       		.uleb128 0x13
 2443 0170 38       		.uleb128 0x38
 2444 0171 05       		.uleb128 0x5
 2445 0172 00       		.byte	0
 2446 0173 00       		.byte	0
 2447 0174 1A       		.uleb128 0x1a
 2448 0175 1D       		.uleb128 0x1d
 2449 0176 00       		.byte	0
 2450 0177 31       		.uleb128 0x31
 2451 0178 13       		.uleb128 0x13
ARM GAS  C:\Users\DEVELO~1\AppData\Local\Temp\ccdoOenO.s 			page 44


 2452 0179 52       		.uleb128 0x52
 2453 017a 01       		.uleb128 0x1
 2454 017b B842     		.uleb128 0x2138
 2455 017d 0B       		.uleb128 0xb
 2456 017e 11       		.uleb128 0x11
 2457 017f 01       		.uleb128 0x1
 2458 0180 12       		.uleb128 0x12
 2459 0181 06       		.uleb128 0x6
 2460 0182 58       		.uleb128 0x58
 2461 0183 21       		.uleb128 0x21
 2462 0184 01       		.sleb128 1
 2463 0185 59       		.uleb128 0x59
 2464 0186 0B       		.uleb128 0xb
 2465 0187 57       		.uleb128 0x57
 2466 0188 0B       		.uleb128 0xb
 2467 0189 00       		.byte	0
 2468 018a 00       		.byte	0
 2469 018b 1B       		.uleb128 0x1b
 2470 018c 05       		.uleb128 0x5
 2471 018d 00       		.byte	0
 2472 018e 03       		.uleb128 0x3
 2473 018f 08       		.uleb128 0x8
 2474 0190 3A       		.uleb128 0x3a
 2475 0191 21       		.uleb128 0x21
 2476 0192 01       		.sleb128 1
 2477 0193 3B       		.uleb128 0x3b
 2478 0194 0B       		.uleb128 0xb
 2479 0195 39       		.uleb128 0x39
 2480 0196 0B       		.uleb128 0xb
 2481 0197 49       		.uleb128 0x49
 2482 0198 13       		.uleb128 0x13
 2483 0199 00       		.byte	0
 2484 019a 00       		.byte	0
 2485 019b 1C       		.uleb128 0x1c
 2486 019c 11       		.uleb128 0x11
 2487 019d 01       		.byte	0x1
 2488 019e 25       		.uleb128 0x25
 2489 019f 0E       		.uleb128 0xe
 2490 01a0 13       		.uleb128 0x13
 2491 01a1 0B       		.uleb128 0xb
 2492 01a2 03       		.uleb128 0x3
 2493 01a3 0E       		.uleb128 0xe
 2494 01a4 1B       		.uleb128 0x1b
 2495 01a5 0E       		.uleb128 0xe
 2496 01a6 55       		.uleb128 0x55
 2497 01a7 17       		.uleb128 0x17
 2498 01a8 11       		.uleb128 0x11
 2499 01a9 01       		.uleb128 0x1
 2500 01aa 10       		.uleb128 0x10
 2501 01ab 17       		.uleb128 0x17
 2502 01ac 00       		.byte	0
 2503 01ad 00       		.byte	0
 2504 01ae 1D       		.uleb128 0x1d
 2505 01af 24       		.uleb128 0x24
 2506 01b0 00       		.byte	0
 2507 01b1 0B       		.uleb128 0xb
 2508 01b2 0B       		.uleb128 0xb
ARM GAS  C:\Users\DEVELO~1\AppData\Local\Temp\ccdoOenO.s 			page 45


 2509 01b3 3E       		.uleb128 0x3e
 2510 01b4 0B       		.uleb128 0xb
 2511 01b5 03       		.uleb128 0x3
 2512 01b6 08       		.uleb128 0x8
 2513 01b7 00       		.byte	0
 2514 01b8 00       		.byte	0
 2515 01b9 1E       		.uleb128 0x1e
 2516 01ba 13       		.uleb128 0x13
 2517 01bb 01       		.byte	0x1
 2518 01bc 03       		.uleb128 0x3
 2519 01bd 0E       		.uleb128 0xe
 2520 01be 0B       		.uleb128 0xb
 2521 01bf 05       		.uleb128 0x5
 2522 01c0 3A       		.uleb128 0x3a
 2523 01c1 0B       		.uleb128 0xb
 2524 01c2 3B       		.uleb128 0x3b
 2525 01c3 05       		.uleb128 0x5
 2526 01c4 39       		.uleb128 0x39
 2527 01c5 0B       		.uleb128 0xb
 2528 01c6 01       		.uleb128 0x1
 2529 01c7 13       		.uleb128 0x13
 2530 01c8 00       		.byte	0
 2531 01c9 00       		.byte	0
 2532 01ca 1F       		.uleb128 0x1f
 2533 01cb 0F       		.uleb128 0xf
 2534 01cc 00       		.byte	0
 2535 01cd 0B       		.uleb128 0xb
 2536 01ce 0B       		.uleb128 0xb
 2537 01cf 00       		.byte	0
 2538 01d0 00       		.byte	0
 2539 01d1 20       		.uleb128 0x20
 2540 01d2 13       		.uleb128 0x13
 2541 01d3 01       		.byte	0x1
 2542 01d4 0B       		.uleb128 0xb
 2543 01d5 05       		.uleb128 0x5
 2544 01d6 3A       		.uleb128 0x3a
 2545 01d7 0B       		.uleb128 0xb
 2546 01d8 3B       		.uleb128 0x3b
 2547 01d9 0B       		.uleb128 0xb
 2548 01da 39       		.uleb128 0x39
 2549 01db 0B       		.uleb128 0xb
 2550 01dc 01       		.uleb128 0x1
 2551 01dd 13       		.uleb128 0x13
 2552 01de 00       		.byte	0
 2553 01df 00       		.byte	0
 2554 01e0 21       		.uleb128 0x21
 2555 01e1 13       		.uleb128 0x13
 2556 01e2 01       		.byte	0x1
 2557 01e3 0B       		.uleb128 0xb
 2558 01e4 05       		.uleb128 0x5
 2559 01e5 3A       		.uleb128 0x3a
 2560 01e6 0B       		.uleb128 0xb
 2561 01e7 3B       		.uleb128 0x3b
 2562 01e8 05       		.uleb128 0x5
 2563 01e9 39       		.uleb128 0x39
 2564 01ea 0B       		.uleb128 0xb
 2565 01eb 01       		.uleb128 0x1
ARM GAS  C:\Users\DEVELO~1\AppData\Local\Temp\ccdoOenO.s 			page 46


 2566 01ec 13       		.uleb128 0x13
 2567 01ed 00       		.byte	0
 2568 01ee 00       		.byte	0
 2569 01ef 22       		.uleb128 0x22
 2570 01f0 21       		.uleb128 0x21
 2571 01f1 00       		.byte	0
 2572 01f2 49       		.uleb128 0x49
 2573 01f3 13       		.uleb128 0x13
 2574 01f4 2F       		.uleb128 0x2f
 2575 01f5 05       		.uleb128 0x5
 2576 01f6 00       		.byte	0
 2577 01f7 00       		.byte	0
 2578 01f8 23       		.uleb128 0x23
 2579 01f9 04       		.uleb128 0x4
 2580 01fa 01       		.byte	0x1
 2581 01fb 3E       		.uleb128 0x3e
 2582 01fc 0B       		.uleb128 0xb
 2583 01fd 0B       		.uleb128 0xb
 2584 01fe 0B       		.uleb128 0xb
 2585 01ff 49       		.uleb128 0x49
 2586 0200 13       		.uleb128 0x13
 2587 0201 3A       		.uleb128 0x3a
 2588 0202 0B       		.uleb128 0xb
 2589 0203 3B       		.uleb128 0x3b
 2590 0204 0B       		.uleb128 0xb
 2591 0205 39       		.uleb128 0x39
 2592 0206 0B       		.uleb128 0xb
 2593 0207 01       		.uleb128 0x1
 2594 0208 13       		.uleb128 0x13
 2595 0209 00       		.byte	0
 2596 020a 00       		.byte	0
 2597 020b 24       		.uleb128 0x24
 2598 020c 34       		.uleb128 0x34
 2599 020d 00       		.byte	0
 2600 020e 03       		.uleb128 0x3
 2601 020f 0E       		.uleb128 0xe
 2602 0210 3A       		.uleb128 0x3a
 2603 0211 0B       		.uleb128 0xb
 2604 0212 3B       		.uleb128 0x3b
 2605 0213 05       		.uleb128 0x5
 2606 0214 39       		.uleb128 0x39
 2607 0215 0B       		.uleb128 0xb
 2608 0216 49       		.uleb128 0x49
 2609 0217 13       		.uleb128 0x13
 2610 0218 3F       		.uleb128 0x3f
 2611 0219 19       		.uleb128 0x19
 2612 021a 3C       		.uleb128 0x3c
 2613 021b 19       		.uleb128 0x19
 2614 021c 00       		.byte	0
 2615 021d 00       		.byte	0
 2616 021e 25       		.uleb128 0x25
 2617 021f 05       		.uleb128 0x5
 2618 0220 00       		.byte	0
 2619 0221 03       		.uleb128 0x3
 2620 0222 0E       		.uleb128 0xe
 2621 0223 3A       		.uleb128 0x3a
 2622 0224 0B       		.uleb128 0xb
ARM GAS  C:\Users\DEVELO~1\AppData\Local\Temp\ccdoOenO.s 			page 47


 2623 0225 3B       		.uleb128 0x3b
 2624 0226 0B       		.uleb128 0xb
 2625 0227 39       		.uleb128 0x39
 2626 0228 0B       		.uleb128 0xb
 2627 0229 49       		.uleb128 0x49
 2628 022a 13       		.uleb128 0x13
 2629 022b 02       		.uleb128 0x2
 2630 022c 18       		.uleb128 0x18
 2631 022d 00       		.byte	0
 2632 022e 00       		.byte	0
 2633 022f 26       		.uleb128 0x26
 2634 0230 05       		.uleb128 0x5
 2635 0231 00       		.byte	0
 2636 0232 03       		.uleb128 0x3
 2637 0233 0E       		.uleb128 0xe
 2638 0234 3A       		.uleb128 0x3a
 2639 0235 0B       		.uleb128 0xb
 2640 0236 3B       		.uleb128 0x3b
 2641 0237 0B       		.uleb128 0xb
 2642 0238 39       		.uleb128 0x39
 2643 0239 0B       		.uleb128 0xb
 2644 023a 49       		.uleb128 0x49
 2645 023b 13       		.uleb128 0x13
 2646 023c 02       		.uleb128 0x2
 2647 023d 17       		.uleb128 0x17
 2648 023e B742     		.uleb128 0x2137
 2649 0240 17       		.uleb128 0x17
 2650 0241 00       		.byte	0
 2651 0242 00       		.byte	0
 2652 0243 27       		.uleb128 0x27
 2653 0244 1D       		.uleb128 0x1d
 2654 0245 01       		.byte	0x1
 2655 0246 31       		.uleb128 0x31
 2656 0247 13       		.uleb128 0x13
 2657 0248 52       		.uleb128 0x52
 2658 0249 01       		.uleb128 0x1
 2659 024a B842     		.uleb128 0x2138
 2660 024c 0B       		.uleb128 0xb
 2661 024d 11       		.uleb128 0x11
 2662 024e 01       		.uleb128 0x1
 2663 024f 12       		.uleb128 0x12
 2664 0250 06       		.uleb128 0x6
 2665 0251 58       		.uleb128 0x58
 2666 0252 0B       		.uleb128 0xb
 2667 0253 59       		.uleb128 0x59
 2668 0254 0B       		.uleb128 0xb
 2669 0255 57       		.uleb128 0x57
 2670 0256 0B       		.uleb128 0xb
 2671 0257 00       		.byte	0
 2672 0258 00       		.byte	0
 2673 0259 28       		.uleb128 0x28
 2674 025a 1D       		.uleb128 0x1d
 2675 025b 00       		.byte	0
 2676 025c 31       		.uleb128 0x31
 2677 025d 13       		.uleb128 0x13
 2678 025e 52       		.uleb128 0x52
 2679 025f 01       		.uleb128 0x1
ARM GAS  C:\Users\DEVELO~1\AppData\Local\Temp\ccdoOenO.s 			page 48


 2680 0260 B842     		.uleb128 0x2138
 2681 0262 0B       		.uleb128 0xb
 2682 0263 55       		.uleb128 0x55
 2683 0264 17       		.uleb128 0x17
 2684 0265 58       		.uleb128 0x58
 2685 0266 0B       		.uleb128 0xb
 2686 0267 59       		.uleb128 0x59
 2687 0268 0B       		.uleb128 0xb
 2688 0269 57       		.uleb128 0x57
 2689 026a 0B       		.uleb128 0xb
 2690 026b 00       		.byte	0
 2691 026c 00       		.byte	0
 2692 026d 29       		.uleb128 0x29
 2693 026e 1D       		.uleb128 0x1d
 2694 026f 01       		.byte	0x1
 2695 0270 31       		.uleb128 0x31
 2696 0271 13       		.uleb128 0x13
 2697 0272 52       		.uleb128 0x52
 2698 0273 01       		.uleb128 0x1
 2699 0274 B842     		.uleb128 0x2138
 2700 0276 0B       		.uleb128 0xb
 2701 0277 55       		.uleb128 0x55
 2702 0278 17       		.uleb128 0x17
 2703 0279 58       		.uleb128 0x58
 2704 027a 0B       		.uleb128 0xb
 2705 027b 59       		.uleb128 0x59
 2706 027c 0B       		.uleb128 0xb
 2707 027d 57       		.uleb128 0x57
 2708 027e 0B       		.uleb128 0xb
 2709 027f 00       		.byte	0
 2710 0280 00       		.byte	0
 2711 0281 2A       		.uleb128 0x2a
 2712 0282 2E       		.uleb128 0x2e
 2713 0283 01       		.byte	0x1
 2714 0284 03       		.uleb128 0x3
 2715 0285 0E       		.uleb128 0xe
 2716 0286 3A       		.uleb128 0x3a
 2717 0287 0B       		.uleb128 0xb
 2718 0288 3B       		.uleb128 0x3b
 2719 0289 0B       		.uleb128 0xb
 2720 028a 39       		.uleb128 0x39
 2721 028b 0B       		.uleb128 0xb
 2722 028c 27       		.uleb128 0x27
 2723 028d 19       		.uleb128 0x19
 2724 028e 20       		.uleb128 0x20
 2725 028f 0B       		.uleb128 0xb
 2726 0290 01       		.uleb128 0x1
 2727 0291 13       		.uleb128 0x13
 2728 0292 00       		.byte	0
 2729 0293 00       		.byte	0
 2730 0294 2B       		.uleb128 0x2b
 2731 0295 05       		.uleb128 0x5
 2732 0296 00       		.byte	0
 2733 0297 03       		.uleb128 0x3
 2734 0298 0E       		.uleb128 0xe
 2735 0299 3A       		.uleb128 0x3a
 2736 029a 0B       		.uleb128 0xb
ARM GAS  C:\Users\DEVELO~1\AppData\Local\Temp\ccdoOenO.s 			page 49


 2737 029b 3B       		.uleb128 0x3b
 2738 029c 0B       		.uleb128 0xb
 2739 029d 39       		.uleb128 0x39
 2740 029e 0B       		.uleb128 0xb
 2741 029f 49       		.uleb128 0x49
 2742 02a0 13       		.uleb128 0x13
 2743 02a1 00       		.byte	0
 2744 02a2 00       		.byte	0
 2745 02a3 2C       		.uleb128 0x2c
 2746 02a4 2E       		.uleb128 0x2e
 2747 02a5 00       		.byte	0
 2748 02a6 03       		.uleb128 0x3
 2749 02a7 0E       		.uleb128 0xe
 2750 02a8 3A       		.uleb128 0x3a
 2751 02a9 0B       		.uleb128 0xb
 2752 02aa 3B       		.uleb128 0x3b
 2753 02ab 05       		.uleb128 0x5
 2754 02ac 39       		.uleb128 0x39
 2755 02ad 0B       		.uleb128 0xb
 2756 02ae 27       		.uleb128 0x27
 2757 02af 19       		.uleb128 0x19
 2758 02b0 49       		.uleb128 0x49
 2759 02b1 13       		.uleb128 0x13
 2760 02b2 20       		.uleb128 0x20
 2761 02b3 0B       		.uleb128 0xb
 2762 02b4 00       		.byte	0
 2763 02b5 00       		.byte	0
 2764 02b6 00       		.byte	0
 2765              		.section	.debug_loclists,"",%progbits
 2766 0000 6F000000 		.4byte	.Ldebug_loc3-.Ldebug_loc2
 2767              	.Ldebug_loc2:
 2768 0004 0500     		.2byte	0x5
 2769 0006 04       		.byte	0x4
 2770 0007 00       		.byte	0
 2771 0008 00000000 		.4byte	0
 2772              	.Ldebug_loc0:
 2773              	.LVUS5:
 2774 000c 00       		.uleb128 0
 2775 000d 00       		.uleb128 .LVU66
 2776 000e 00       		.uleb128 .LVU66
 2777 000f 00       		.uleb128 0
 2778              	.LLST5:
 2779 0010 06       		.byte	0x6
 2780 0011 00000000 		.4byte	.LVL7
 2781 0015 04       		.byte	0x4
 2782 0016 00       		.uleb128 .LVL7-.LVL7
 2783 0017 0A       		.uleb128 .LVL9-.LVL7
 2784 0018 01       		.uleb128 0x1
 2785 0019 51       		.byte	0x51
 2786 001a 04       		.byte	0x4
 2787 001b 0A       		.uleb128 .LVL9-.LVL7
 2788 001c 3C       		.uleb128 .LFE350-.LVL7
 2789 001d 04       		.uleb128 0x4
 2790 001e A3       		.byte	0xa3
 2791 001f 01       		.uleb128 0x1
 2792 0020 51       		.byte	0x51
 2793 0021 9F       		.byte	0x9f
ARM GAS  C:\Users\DEVELO~1\AppData\Local\Temp\ccdoOenO.s 			page 50


 2794 0022 00       		.byte	0
 2795              	.LVUS6:
 2796 0023 01       		.uleb128 .LVU63
 2797 0024 00       		.uleb128 .LVU85
 2798              	.LLST6:
 2799 0025 08       		.byte	0x8
 2800 0026 08000000 		.4byte	.LVL8
 2801 002a 2A       		.uleb128 .LVL12-.LVL8
 2802 002b 02       		.uleb128 0x2
 2803 002c 30       		.byte	0x30
 2804 002d 9F       		.byte	0x9f
 2805 002e 00       		.byte	0
 2806              	.LVUS7:
 2807 002f 01       		.uleb128 .LVU63
 2808 0030 00       		.uleb128 .LVU68
 2809 0031 00       		.uleb128 .LVU68
 2810 0032 00       		.uleb128 .LVU78
 2811              	.LLST7:
 2812 0033 06       		.byte	0x6
 2813 0034 08000000 		.4byte	.LVL8
 2814 0038 04       		.byte	0x4
 2815 0039 00       		.uleb128 .LVL8-.LVL8
 2816 003a 08       		.uleb128 .LVL10-.LVL8
 2817 003b 01       		.uleb128 0x1
 2818 003c 53       		.byte	0x53
 2819 003d 04       		.byte	0x4
 2820 003e 08       		.uleb128 .LVL10-.LVL8
 2821 003f 26       		.uleb128 .LVL11-.LVL8
 2822 0040 05       		.uleb128 0x5
 2823 0041 A3       		.byte	0xa3
 2824 0042 01       		.uleb128 0x1
 2825 0043 51       		.byte	0x51
 2826 0044 23       		.byte	0x23
 2827 0045 08       		.uleb128 0x8
 2828 0046 00       		.byte	0
 2829              	.LVUS8:
 2830 0047 01       		.uleb128 .LVU63
 2831 0048 00       		.uleb128 .LVU85
 2832              	.LLST8:
 2833 0049 08       		.byte	0x8
 2834 004a 08000000 		.4byte	.LVL8
 2835 004e 2A       		.uleb128 .LVL12-.LVL8
 2836 004f 01       		.uleb128 0x1
 2837 0050 50       		.byte	0x50
 2838 0051 00       		.byte	0
 2839              	.LVUS2:
 2840 0052 00       		.uleb128 .LVU30
 2841 0053 00       		.uleb128 .LVU35
 2842              	.LLST2:
 2843 0054 08       		.byte	0x8
 2844 0055 0C000000 		.4byte	.LVL3
 2845 0059 06       		.uleb128 .LVL5-.LVL3
 2846 005a 01       		.uleb128 0x1
 2847 005b 54       		.byte	0x54
 2848 005c 00       		.byte	0
 2849              	.LVUS3:
 2850 005d 00       		.uleb128 .LVU30
ARM GAS  C:\Users\DEVELO~1\AppData\Local\Temp\ccdoOenO.s 			page 51


 2851 005e 00       		.uleb128 .LVU34
 2852              	.LLST3:
 2853 005f 08       		.byte	0x8
 2854 0060 0C000000 		.4byte	.LVL3
 2855 0064 04       		.uleb128 .LVL4-.LVL3
 2856 0065 01       		.uleb128 0x1
 2857 0066 53       		.byte	0x53
 2858 0067 00       		.byte	0
 2859              	.LVUS4:
 2860 0068 00       		.uleb128 .LVU30
 2861 0069 00       		.uleb128 .LVU53
 2862              	.LLST4:
 2863 006a 08       		.byte	0x8
 2864 006b 0C000000 		.4byte	.LVL3
 2865 006f 2A       		.uleb128 .LVL6-.LVL3
 2866 0070 01       		.uleb128 0x1
 2867 0071 50       		.byte	0x50
 2868 0072 00       		.byte	0
 2869              	.Ldebug_loc3:
 2870              		.section	.debug_aranges,"",%progbits
 2871 0000 34000000 		.4byte	0x34
 2872 0004 0200     		.2byte	0x2
 2873 0006 00000000 		.4byte	.Ldebug_info0
 2874 000a 04       		.byte	0x4
 2875 000b 00       		.byte	0
 2876 000c 0000     		.2byte	0
 2877 000e 0000     		.2byte	0
 2878 0010 00000000 		.4byte	.LFB347
 2879 0014 1C000000 		.4byte	.LFE347-.LFB347
 2880 0018 00000000 		.4byte	.LFB348
 2881 001c 0C000000 		.4byte	.LFE348-.LFB348
 2882 0020 00000000 		.4byte	.LFB349
 2883 0024 44000000 		.4byte	.LFE349-.LFB349
 2884 0028 00000000 		.4byte	.LFB350
 2885 002c 3C000000 		.4byte	.LFE350-.LFB350
 2886 0030 00000000 		.4byte	0
 2887 0034 00000000 		.4byte	0
 2888              		.section	.debug_rnglists,"",%progbits
 2889              	.Ldebug_ranges0:
 2890 0000 3C000000 		.4byte	.Ldebug_ranges3-.Ldebug_ranges2
 2891              	.Ldebug_ranges2:
 2892 0004 0500     		.2byte	0x5
 2893 0006 04       		.byte	0x4
 2894 0007 00       		.byte	0
 2895 0008 00000000 		.4byte	0
 2896              	.LLRL0:
 2897 000c 05       		.byte	0x5
 2898 000d 00000000 		.4byte	.LBB14
 2899 0011 04       		.byte	0x4
 2900 0012 00       		.uleb128 .LBB14-.LBB14
 2901 0013 00       		.uleb128 .LBE14-.LBB14
 2902 0014 04       		.byte	0x4
 2903 0015 02       		.uleb128 .LBB18-.LBB14
 2904 0016 04       		.uleb128 .LBE18-.LBB14
 2905 0017 04       		.byte	0x4
 2906 0018 06       		.uleb128 .LBB22-.LBB14
 2907 0019 08       		.uleb128 .LBE22-.LBB14
ARM GAS  C:\Users\DEVELO~1\AppData\Local\Temp\ccdoOenO.s 			page 52


 2908 001a 00       		.byte	0
 2909              	.LLRL1:
 2910 001b 05       		.byte	0x5
 2911 001c 04000000 		.4byte	.LBB19
 2912 0020 04       		.byte	0x4
 2913 0021 00       		.uleb128 .LBB19-.LBB19
 2914 0022 02       		.uleb128 .LBE19-.LBB19
 2915 0023 04       		.byte	0x4
 2916 0024 08       		.uleb128 .LBB23-.LBB19
 2917 0025 32       		.uleb128 .LBE23-.LBB19
 2918 0026 00       		.byte	0
 2919              	.LLRL9:
 2920 0027 07       		.byte	0x7
 2921 0028 00000000 		.4byte	.LFB347
 2922 002c 1C       		.uleb128 .LFE347-.LFB347
 2923 002d 07       		.byte	0x7
 2924 002e 00000000 		.4byte	.LFB348
 2925 0032 0C       		.uleb128 .LFE348-.LFB348
 2926 0033 07       		.byte	0x7
 2927 0034 00000000 		.4byte	.LFB349
 2928 0038 44       		.uleb128 .LFE349-.LFB349
 2929 0039 07       		.byte	0x7
 2930 003a 00000000 		.4byte	.LFB350
 2931 003e 3C       		.uleb128 .LFE350-.LFB350
 2932 003f 00       		.byte	0
 2933              	.Ldebug_ranges3:
 2934              		.section	.debug_line,"",%progbits
 2935              	.Ldebug_line0:
 2936 0000 AD030000 		.section	.debug_str,"MS",%progbits,1
 2936      03003202 
 2936      00000201 
 2936      FB0E0D00 
 2936      01010101 
 2937              	.LASF75:
 2938 0000 70726576 		.ascii	"prev\000"
 2938      00
 2939              	.LASF100:
 2940 0005 464F4C44 		.ascii	"FOLDCNT\000"
 2940      434E5400 
 2941              	.LASF157:
 2942 000d 72656164 		.ascii	"ready_list_t\000"
 2942      795F6C69 
 2942      73745F74 
 2942      00
 2943              	.LASF148:
 2944 001a 77747472 		.ascii	"wttrp\000"
 2944      7000
 2945              	.LASF146:
 2946 0020 7264796D 		.ascii	"rdymsg\000"
 2946      736700
 2947              	.LASF56:
 2948 0027 72666375 		.ascii	"rfcu\000"
 2948      00
 2949              	.LASF161:
 2950 002c 69646C65 		.ascii	"idlethread_base\000"
 2950      74687265 
 2950      61645F62 
ARM GAS  C:\Users\DEVELO~1\AppData\Local\Temp\ccdoOenO.s 			page 53


 2950      61736500 
 2951              	.LASF6:
 2952 003c 5F5F7569 		.ascii	"__uint8_t\000"
 2952      6E74385F 
 2952      7400
 2953              	.LASF121:
 2954 0046 706F7274 		.ascii	"port_intctx\000"
 2954      5F696E74 
 2954      63747800 
 2955              	.LASF53:
 2956 0052 76746C69 		.ascii	"vtlist\000"
 2956      737400
 2957              	.LASF86:
 2958 0059 74797065 		.ascii	"type\000"
 2958      00
 2959              	.LASF89:
 2960 005e 74726163 		.ascii	"trace_event_t\000"
 2960      655F6576 
 2960      656E745F 
 2960      7400
 2961              	.LASF163:
 2962 006c 6F735F69 		.ascii	"os_instance_config_t\000"
 2962      6E737461 
 2962      6E63655F 
 2962      636F6E66 
 2962      69675F74 
 2963              	.LASF126:
 2964 0081 776F7273 		.ascii	"worst\000"
 2964      7400
 2965              	.LASF129:
 2966 0087 74696D65 		.ascii	"time_measurement_t\000"
 2966      5F6D6561 
 2966      73757265 
 2966      6D656E74 
 2966      5F7400
 2967              	.LASF84:
 2968 009a 68616C74 		.ascii	"halt\000"
 2968      00
 2969              	.LASF132:
 2970 009f 63685F73 		.ascii	"ch_sys_running\000"
 2970      79735F72 
 2970      756E6E69 
 2970      6E6700
 2971              	.LASF147:
 2972 00ae 65786974 		.ascii	"exitcode\000"
 2972      636F6465 
 2972      00
 2973              	.LASF58:
 2974 00b7 6D61696E 		.ascii	"mainthread\000"
 2974      74687265 
 2974      616400
 2975              	.LASF149:
 2976 00c2 73656E74 		.ascii	"sentmsg\000"
 2976      6D736700 
 2977              	.LASF81:
 2978 00ca 64656C74 		.ascii	"delta\000"
 2978      6100
ARM GAS  C:\Users\DEVELO~1\AppData\Local\Temp\ccdoOenO.s 			page 54


 2979              	.LASF173:
 2980 00d0 6368544D 		.ascii	"chTMObjectInit\000"
 2980      4F626A65 
 2980      6374496E 
 2980      697400
 2981              	.LASF72:
 2982 00df 6E657874 		.ascii	"next\000"
 2982      00
 2983              	.LASF24:
 2984 00e4 72747469 		.ascii	"rttime_t\000"
 2984      6D655F74 
 2984      00
 2985              	.LASF171:
 2986 00ed 746D7031 		.ascii	"tmp1\000"
 2986      00
 2987              	.LASF177:
 2988 00f2 746D7032 		.ascii	"tmp2\000"
 2988      00
 2989              	.LASF1:
 2990 00f7 6C6F6E67 		.ascii	"long long int\000"
 2990      206C6F6E 
 2990      6720696E 
 2990      7400
 2991              	.LASF3:
 2992 0105 7369676E 		.ascii	"signed char\000"
 2992      65642063 
 2992      68617200 
 2993              	.LASF80:
 2994 0111 63685F64 		.ascii	"ch_delta_list\000"
 2994      656C7461 
 2994      5F6C6973 
 2994      7400
 2995              	.LASF96:
 2996 011f 43504943 		.ascii	"CPICNT\000"
 2996      4E5400
 2997              	.LASF40:
 2998 0126 73746174 		.ascii	"state\000"
 2998      6500
 2999              	.LASF170:
 3000 012c 6368544D 		.ascii	"chTMStopMeasurementX\000"
 3000      53746F70 
 3000      4D656173 
 3000      7572656D 
 3000      656E7458 
 3001              	.LASF10:
 3002 0141 6C6F6E67 		.ascii	"long int\000"
 3002      20696E74 
 3002      00
 3003              	.LASF27:
 3004 014a 74737461 		.ascii	"tstate_t\000"
 3004      74655F74 
 3004      00
 3005              	.LASF61:
 3006 0153 63685F72 		.ascii	"ch_rfcu\000"
 3006      66637500 
 3007              	.LASF74:
 3008 015b 63685F71 		.ascii	"ch_queue\000"
ARM GAS  C:\Users\DEVELO~1\AppData\Local\Temp\ccdoOenO.s 			page 55


 3008      75657565 
 3008      00
 3009              	.LASF16:
 3010 0164 75696E74 		.ascii	"uint16_t\000"
 3010      31365F74 
 3010      00
 3011              	.LASF120:
 3012 016d 646F7562 		.ascii	"double\000"
 3012      6C6500
 3013              	.LASF93:
 3014 0174 74726163 		.ascii	"trace_buffer_t\000"
 3014      655F6275 
 3014      66666572 
 3014      5F7400
 3015              	.LASF98:
 3016 0183 534C4545 		.ascii	"SLEEPCNT\000"
 3016      50434E54 
 3016      00
 3017              	.LASF140:
 3018 018c 63685F72 		.ascii	"ch_registry\000"
 3018      65676973 
 3018      74727900 
 3019              	.LASF63:
 3020 0198 72666375 		.ascii	"rfcu_t\000"
 3020      5F7400
 3021              	.LASF176:
 3022 019f 433A5C43 		.ascii	"C:\\ChibiStudio\\chibios2111\\demos\\STM32\\RT-STM3"
 3022      68696269 
 3022      53747564 
 3022      696F5C63 
 3022      68696269 
 3023 01cd 32483734 		.ascii	"2H743ZI_REV_XY-NUCLEO144 - Copie\000"
 3023      335A495F 
 3023      5245565F 
 3023      58592D4E 
 3023      55434C45 
 3024              	.LASF11:
 3025 01ee 5F5F7569 		.ascii	"__uint32_t\000"
 3025      6E743332 
 3025      5F7400
 3026              	.LASF62:
 3027 01f9 6D61736B 		.ascii	"mask\000"
 3027      00
 3028              	.LASF64:
 3029 01fe 63685F73 		.ascii	"ch_system_debug\000"
 3029      79737465 
 3029      6D5F6465 
 3029      62756700 
 3030              	.LASF43:
 3031 020e 77616974 		.ascii	"waiting\000"
 3031      696E6700 
 3032              	.LASF159:
 3033 0216 6D61696E 		.ascii	"mainthread_base\000"
 3033      74687265 
 3033      61645F62 
 3033      61736500 
 3034              	.LASF167:
ARM GAS  C:\Users\DEVELO~1\AppData\Local\Temp\ccdoOenO.s 			page 56


 3035 0226 6D757465 		.ascii	"mutex_t\000"
 3035      785F7400 
 3036              	.LASF69:
 3037 022e 73797369 		.ascii	"sysinterval_t\000"
 3037      6E746572 
 3037      76616C5F 
 3037      7400
 3038              	.LASF32:
 3039 023c 636E745F 		.ascii	"cnt_t\000"
 3039      7400
 3040              	.LASF44:
 3041 0242 6D736771 		.ascii	"msgqueue\000"
 3041      75657565 
 3041      00
 3042              	.LASF172:
 3043 024b 6368544D 		.ascii	"chTMStartMeasurementX\000"
 3043      53746172 
 3043      744D6561 
 3043      73757265 
 3043      6D656E74 
 3044              	.LASF107:
 3045 0261 4D41534B 		.ascii	"MASK1\000"
 3045      3100
 3046              	.LASF111:
 3047 0267 4D41534B 		.ascii	"MASK2\000"
 3047      3200
 3048              	.LASF165:
 3049 026d 696E7374 		.ascii	"instances\000"
 3049      616E6365 
 3049      7300
 3050              	.LASF115:
 3051 0277 4D41534B 		.ascii	"MASK3\000"
 3051      3300
 3052              	.LASF150:
 3053 027d 77747365 		.ascii	"wtsemp\000"
 3053      6D7000
 3054              	.LASF67:
 3055 0284 73797374 		.ascii	"system_debug_t\000"
 3055      656D5F64 
 3055      65627567 
 3055      5F7400
 3056              	.LASF12:
 3057 0293 6C6F6E67 		.ascii	"long unsigned int\000"
 3057      20756E73 
 3057      69676E65 
 3057      6420696E 
 3057      7400
 3058              	.LASF36:
 3059 02a5 72717565 		.ascii	"rqueue\000"
 3059      756500
 3060              	.LASF73:
 3061 02ac 63685F71 		.ascii	"ch_queue_t\000"
 3061      75657565 
 3061      5F7400
 3062              	.LASF175:
 3063 02b7 2E2E2F2E 		.ascii	"../../../os/rt/src/chtm.c\000"
 3063      2E2F2E2E 
ARM GAS  C:\Users\DEVELO~1\AppData\Local\Temp\ccdoOenO.s 			page 57


 3063      2F6F732F 
 3063      72742F73 
 3063      72632F63 
 3064              	.LASF174:
 3065 02d1 474E5520 		.ascii	"GNU C17 11.3.1 20220712 -mcpu=cortex-m7 -mthumb -mf"
 3065      43313720 
 3065      31312E33 
 3065      2E312032 
 3065      30323230 
 3066 0304 6C6F6174 		.ascii	"loat-abi=soft -march=armv7e-m -ggdb -O2 -fomit-fram"
 3066      2D616269 
 3066      3D736F66 
 3066      74202D6D 
 3066      61726368 
 3067 0337 652D706F 		.ascii	"e-pointer -falign-functions=16 -ffunction-sections "
 3067      696E7465 
 3067      72202D66 
 3067      616C6967 
 3067      6E2D6675 
 3068 036a 2D666461 		.ascii	"-fdata-sections -fno-common\000"
 3068      74612D73 
 3068      65637469 
 3068      6F6E7320 
 3068      2D666E6F 
 3069              	.LASF38:
 3070 0386 6E616D65 		.ascii	"name\000"
 3070      00
 3071              	.LASF141:
 3072 038b 71756575 		.ascii	"queue\000"
 3072      6500
 3073              	.LASF91:
 3074 0391 73697A65 		.ascii	"size\000"
 3074      00
 3075              	.LASF8:
 3076 0396 73686F72 		.ascii	"short unsigned int\000"
 3076      7420756E 
 3076      7369676E 
 3076      65642069 
 3076      6E7400
 3077              	.LASF50:
 3078 03a9 63685F74 		.ascii	"ch_thread\000"
 3078      68726561 
 3078      6400
 3079              	.LASF97:
 3080 03b3 45584343 		.ascii	"EXCCNT\000"
 3080      4E5400
 3081              	.LASF30:
 3082 03ba 6D73675F 		.ascii	"msg_t\000"
 3082      7400
 3083              	.LASF127:
 3084 03c0 6C617374 		.ascii	"last\000"
 3084      00
 3085              	.LASF33:
 3086 03c5 75636E74 		.ascii	"ucnt_t\000"
 3086      5F7400
 3087              	.LASF45:
 3088 03cc 6570656E 		.ascii	"epending\000"
ARM GAS  C:\Users\DEVELO~1\AppData\Local\Temp\ccdoOenO.s 			page 58


 3088      64696E67 
 3088      00
 3089              	.LASF166:
 3090 03d5 63685F73 		.ascii	"ch_system_t\000"
 3090      79737465 
 3090      6D5F7400 
 3091              	.LASF26:
 3092 03e1 746D6F64 		.ascii	"tmode_t\000"
 3092      655F7400 
 3093              	.LASF71:
 3094 03e9 63685F6C 		.ascii	"ch_list\000"
 3094      69737400 
 3095              	.LASF155:
 3096 03f1 63685F72 		.ascii	"ch_ready_list\000"
 3096      65616479 
 3096      5F6C6973 
 3096      7400
 3097              	.LASF31:
 3098 03ff 6576656E 		.ascii	"eventmask_t\000"
 3098      746D6173 
 3098      6B5F7400 
 3099              	.LASF9:
 3100 040b 5F5F696E 		.ascii	"__int32_t\000"
 3100      7433325F 
 3100      7400
 3101              	.LASF14:
 3102 0415 6C6F6E67 		.ascii	"long long unsigned int\000"
 3102      206C6F6E 
 3102      6720756E 
 3102      7369676E 
 3102      65642069 
 3103              	.LASF139:
 3104 042c 76697274 		.ascii	"virtual_timers_list_t\000"
 3104      75616C5F 
 3104      74696D65 
 3104      72735F6C 
 3104      6973745F 
 3105              	.LASF169:
 3106 0442 6368544D 		.ascii	"chTMChainMeasurementToX\000"
 3106      43686169 
 3106      6E4D6561 
 3106      73757265 
 3106      6D656E74 
 3107              	.LASF25:
 3108 045a 73746B61 		.ascii	"stkalign_t\000"
 3108      6C69676E 
 3108      5F7400
 3109              	.LASF87:
 3110 0465 72747374 		.ascii	"rtstamp\000"
 3110      616D7000 
 3111              	.LASF138:
 3112 046d 6C617374 		.ascii	"laststamp\000"
 3112      7374616D 
 3112      7000
 3113              	.LASF95:
 3114 0477 43594343 		.ascii	"CYCCNT\000"
 3114      4E5400
ARM GAS  C:\Users\DEVELO~1\AppData\Local\Temp\ccdoOenO.s 			page 59


 3115              	.LASF47:
 3116 047e 7265616C 		.ascii	"realprio\000"
 3116      7072696F 
 3116      00
 3117              	.LASF60:
 3118 0487 72666375 		.ascii	"rfcu_mask_t\000"
 3118      5F6D6173 
 3118      6B5F7400 
 3119              	.LASF23:
 3120 0493 7274636E 		.ascii	"rtcnt_t\000"
 3120      745F7400 
 3121              	.LASF143:
 3122 049b 74687265 		.ascii	"thread_reference_t\000"
 3122      61645F72 
 3122      65666572 
 3122      656E6365 
 3122      5F7400
 3123              	.LASF135:
 3124 04ae 63685F76 		.ascii	"ch_virtual_timers_list\000"
 3124      69727475 
 3124      616C5F74 
 3124      696D6572 
 3124      735F6C69 
 3125              	.LASF70:
 3126 04c5 63685F6C 		.ascii	"ch_list_t\000"
 3126      6973745F 
 3126      7400
 3127              	.LASF90:
 3128 04cf 73757370 		.ascii	"suspended\000"
 3128      656E6465 
 3128      6400
 3129              	.LASF124:
 3130 04d9 746D5F63 		.ascii	"tm_calibration_t\000"
 3130      616C6962 
 3130      72617469 
 3130      6F6E5F74 
 3130      00
 3131              	.LASF20:
 3132 04ea 706F7274 		.ascii	"port_rtcnt_t\000"
 3132      5F727463 
 3132      6E745F74 
 3132      00
 3133              	.LASF19:
 3134 04f7 75696E74 		.ascii	"uint64_t\000"
 3134      36345F74 
 3134      00
 3135              	.LASF0:
 3136 0500 756E7369 		.ascii	"unsigned int\000"
 3136      676E6564 
 3136      20696E74 
 3136      00
 3137              	.LASF158:
 3138 050d 63685F6F 		.ascii	"ch_os_instance_config\000"
 3138      735F696E 
 3138      7374616E 
 3138      63655F63 
 3138      6F6E6669 
ARM GAS  C:\Users\DEVELO~1\AppData\Local\Temp\ccdoOenO.s 			page 60


 3139              	.LASF122:
 3140 0523 706F7274 		.ascii	"port_context\000"
 3140      5F636F6E 
 3140      74657874 
 3140      00
 3141              	.LASF106:
 3142 0530 434F4D50 		.ascii	"COMP1\000"
 3142      3100
 3143              	.LASF110:
 3144 0536 434F4D50 		.ascii	"COMP2\000"
 3144      3200
 3145              	.LASF114:
 3146 053c 434F4D50 		.ascii	"COMP3\000"
 3146      3300
 3147              	.LASF88:
 3148 0542 74696D65 		.ascii	"time\000"
 3148      00
 3149              	.LASF78:
 3150 0547 7072696F 		.ascii	"prio\000"
 3150      00
 3151              	.LASF156:
 3152 054c 63757272 		.ascii	"current\000"
 3152      656E7400 
 3153              	.LASF13:
 3154 0554 5F5F7569 		.ascii	"__uint64_t\000"
 3154      6E743634 
 3154      5F7400
 3155              	.LASF128:
 3156 055f 63756D75 		.ascii	"cumulative\000"
 3156      6C617469 
 3156      766500
 3157              	.LASF119:
 3158 056a 666C6F61 		.ascii	"float\000"
 3158      7400
 3159              	.LASF34:
 3160 0570 636F7265 		.ascii	"core_id_t\000"
 3160      5F69645F 
 3160      7400
 3161              	.LASF28:
 3162 057a 74726566 		.ascii	"trefs_t\000"
 3162      735F7400 
 3163              	.LASF105:
 3164 0582 52455345 		.ascii	"RESERVED0\000"
 3164      52564544 
 3164      3000
 3165              	.LASF109:
 3166 058c 52455345 		.ascii	"RESERVED1\000"
 3166      52564544 
 3166      3100
 3167              	.LASF113:
 3168 0596 52455345 		.ascii	"RESERVED2\000"
 3168      52564544 
 3168      3200
 3169              	.LASF42:
 3170 05a0 72656673 		.ascii	"refs\000"
 3170      00
 3171              	.LASF85:
ARM GAS  C:\Users\DEVELO~1\AppData\Local\Temp\ccdoOenO.s 			page 61


 3172 05a5 75736572 		.ascii	"user\000"
 3172      00
 3173              	.LASF29:
 3174 05aa 74707269 		.ascii	"tprio_t\000"
 3174      6F5F7400 
 3175              	.LASF103:
 3176 05b2 4D41534B 		.ascii	"MASK0\000"
 3176      3000
 3177              	.LASF168:
 3178 05b8 5F426F6F 		.ascii	"_Bool\000"
 3178      6C00
 3179              	.LASF17:
 3180 05be 696E7433 		.ascii	"int32_t\000"
 3180      325F7400 
 3181              	.LASF4:
 3182 05c6 756E7369 		.ascii	"unsigned char\000"
 3182      676E6564 
 3182      20636861 
 3182      7200
 3183              	.LASF104:
 3184 05d4 46554E43 		.ascii	"FUNCTION0\000"
 3184      54494F4E 
 3184      3000
 3185              	.LASF108:
 3186 05de 46554E43 		.ascii	"FUNCTION1\000"
 3186      54494F4E 
 3186      3100
 3187              	.LASF112:
 3188 05e8 46554E43 		.ascii	"FUNCTION2\000"
 3188      54494F4E 
 3188      3200
 3189              	.LASF116:
 3190 05f2 46554E43 		.ascii	"FUNCTION3\000"
 3190      54494F4E 
 3190      3300
 3191              	.LASF5:
 3192 05fc 73686F72 		.ascii	"short int\000"
 3192      7420696E 
 3192      7400
 3193              	.LASF137:
 3194 0606 6C617374 		.ascii	"lasttime\000"
 3194      74696D65 
 3194      00
 3195              	.LASF82:
 3196 060f 77746F62 		.ascii	"wtobjp\000"
 3196      6A7000
 3197              	.LASF152:
 3198 0616 65776D61 		.ascii	"ewmask\000"
 3198      736B00
 3199              	.LASF164:
 3200 061d 63685F73 		.ascii	"ch_system\000"
 3200      79737465 
 3200      6D00
 3201              	.LASF55:
 3202 0627 636F7265 		.ascii	"core_id\000"
 3202      5F696400 
 3203              	.LASF83:
ARM GAS  C:\Users\DEVELO~1\AppData\Local\Temp\ccdoOenO.s 			page 62


 3204 062f 72656173 		.ascii	"reason\000"
 3204      6F6E00
 3205              	.LASF153:
 3206 0636 63685F73 		.ascii	"ch_semaphore\000"
 3206      656D6170 
 3206      686F7265 
 3206      00
 3207              	.LASF117:
 3208 0643 52455345 		.ascii	"RESERVED3\000"
 3208      52564544 
 3208      3300
 3209              	.LASF142:
 3210 064d 72656769 		.ascii	"registry_t\000"
 3210      73747279 
 3210      5F7400
 3211              	.LASF99:
 3212 0658 4C535543 		.ascii	"LSUCNT\000"
 3212      4E5400
 3213              	.LASF18:
 3214 065f 75696E74 		.ascii	"uint32_t\000"
 3214      33325F74 
 3214      00
 3215              	.LASF151:
 3216 0668 77746D74 		.ascii	"wtmtxp\000"
 3216      787000
 3217              	.LASF22:
 3218 066f 706F7274 		.ascii	"port_stkalign_t\000"
 3218      5F73746B 
 3218      616C6967 
 3218      6E5F7400 
 3219              	.LASF37:
 3220 067f 6F776E65 		.ascii	"owner\000"
 3220      7200
 3221              	.LASF2:
 3222 0685 6C6F6E67 		.ascii	"long double\000"
 3222      20646F75 
 3222      626C6500 
 3223              	.LASF39:
 3224 0691 77616261 		.ascii	"wabase\000"
 3224      736500
 3225              	.LASF66:
 3226 0698 63686172 		.ascii	"char\000"
 3226      00
 3227              	.LASF130:
 3228 069d 63685F73 		.ascii	"ch_sys_uninit\000"
 3228      79735F75 
 3228      6E696E69 
 3228      7400
 3229              	.LASF57:
 3230 06ab 636F6E66 		.ascii	"config\000"
 3230      696700
 3231              	.LASF7:
 3232 06b2 5F5F7569 		.ascii	"__uint16_t\000"
 3232      6E743136 
 3232      5F7400
 3233              	.LASF178:
 3234 06bd 746D5F73 		.ascii	"tm_stop\000"
ARM GAS  C:\Users\DEVELO~1\AppData\Local\Temp\ccdoOenO.s 			page 63


 3234      746F7000 
 3235              	.LASF35:
 3236 06c5 74687265 		.ascii	"thread_t\000"
 3236      61645F74 
 3236      00
 3237              	.LASF125:
 3238 06ce 62657374 		.ascii	"best\000"
 3238      00
 3239              	.LASF136:
 3240 06d3 646C6973 		.ascii	"dlist\000"
 3240      7400
 3241              	.LASF68:
 3242 06d9 73797374 		.ascii	"systime_t\000"
 3242      696D655F 
 3242      7400
 3243              	.LASF92:
 3244 06e3 62756666 		.ascii	"buffer\000"
 3244      657200
 3245              	.LASF76:
 3246 06ea 63685F70 		.ascii	"ch_priority_queue_t\000"
 3246      72696F72 
 3246      6974795F 
 3246      71756575 
 3246      655F7400 
 3247              	.LASF65:
 3248 06fe 70616E69 		.ascii	"panic_msg\000"
 3248      635F6D73 
 3248      6700
 3249              	.LASF145:
 3250 0708 70717565 		.ascii	"pqueue\000"
 3250      756500
 3251              	.LASF51:
 3252 070f 63685F6F 		.ascii	"ch_os_instance\000"
 3252      735F696E 
 3252      7374616E 
 3252      636500
 3253              	.LASF123:
 3254 071e 6F666673 		.ascii	"offset\000"
 3254      657400
 3255              	.LASF49:
 3256 0725 6F735F69 		.ascii	"os_instance_t\000"
 3256      6E737461 
 3256      6E63655F 
 3256      7400
 3257              	.LASF54:
 3258 0733 7265676C 		.ascii	"reglist\000"
 3258      69737400 
 3259              	.LASF118:
 3260 073b 4457545F 		.ascii	"DWT_Type\000"
 3260      54797065 
 3260      00
 3261              	.LASF77:
 3262 0744 63685F70 		.ascii	"ch_priority_queue\000"
 3262      72696F72 
 3262      6974795F 
 3262      71756575 
 3262      6500
ARM GAS  C:\Users\DEVELO~1\AppData\Local\Temp\ccdoOenO.s 			page 64


 3263              	.LASF94:
 3264 0756 4354524C 		.ascii	"CTRL\000"
 3264      00
 3265              	.LASF79:
 3266 075b 63685F64 		.ascii	"ch_delta_list_t\000"
 3266      656C7461 
 3266      5F6C6973 
 3266      745F7400 
 3267              	.LASF160:
 3268 076b 6D61696E 		.ascii	"mainthread_end\000"
 3268      74687265 
 3268      61645F65 
 3268      6E6400
 3269              	.LASF102:
 3270 077a 434F4D50 		.ascii	"COMP0\000"
 3270      3000
 3271              	.LASF48:
 3272 0780 6D706F6F 		.ascii	"mpool\000"
 3272      6C00
 3273              	.LASF131:
 3274 0786 63685F73 		.ascii	"ch_sys_initializing\000"
 3274      79735F69 
 3274      6E697469 
 3274      616C697A 
 3274      696E6700 
 3275              	.LASF52:
 3276 079a 726C6973 		.ascii	"rlist\000"
 3276      7400
 3277              	.LASF15:
 3278 07a0 75696E74 		.ascii	"uint8_t\000"
 3278      385F7400 
 3279              	.LASF41:
 3280 07a8 666C6167 		.ascii	"flags\000"
 3280      7300
 3281              	.LASF21:
 3282 07ae 706F7274 		.ascii	"port_rttime_t\000"
 3282      5F727474 
 3282      696D655F 
 3282      7400
 3283              	.LASF101:
 3284 07bc 50435352 		.ascii	"PCSR\000"
 3284      00
 3285              	.LASF154:
 3286 07c1 63685F6D 		.ascii	"ch_mutex\000"
 3286      75746578 
 3286      00
 3287              	.LASF179:
 3288 07ca 706F7274 		.ascii	"port_rt_get_counter_value\000"
 3288      5F72745F 
 3288      6765745F 
 3288      636F756E 
 3288      7465725F 
 3289              	.LASF59:
 3290 07e4 74726163 		.ascii	"trace_buffer\000"
 3290      655F6275 
 3290      66666572 
 3290      00
ARM GAS  C:\Users\DEVELO~1\AppData\Local\Temp\ccdoOenO.s 			page 65


 3291              	.LASF133:
 3292 07f1 63685F73 		.ascii	"ch_sys_halted\000"
 3292      79735F68 
 3292      616C7465 
 3292      6400
 3293              	.LASF144:
 3294 07ff 6C697374 		.ascii	"list\000"
 3294      00
 3295              	.LASF134:
 3296 0804 73797374 		.ascii	"system_state_t\000"
 3296      656D5F73 
 3296      74617465 
 3296      5F7400
 3297              	.LASF162:
 3298 0813 69646C65 		.ascii	"idlethread_end\000"
 3298      74687265 
 3298      61645F65 
 3298      6E6400
 3299              	.LASF46:
 3300 0822 6D74786C 		.ascii	"mtxlist\000"
 3300      69737400 
 3301              		.ident	"GCC: (Arm GNU Toolchain 11.3.Rel1) 11.3.1 20220712"
ARM GAS  C:\Users\DEVELO~1\AppData\Local\Temp\ccdoOenO.s 			page 66


DEFINED SYMBOLS
                            *ABS*:00000000 chtm.c
C:\Users\DEVELO~1\AppData\Local\Temp\ccdoOenO.s:18     .text.chTMObjectInit:00000000 $t
C:\Users\DEVELO~1\AppData\Local\Temp\ccdoOenO.s:25     .text.chTMObjectInit:00000000 chTMObjectInit
C:\Users\DEVELO~1\AppData\Local\Temp\ccdoOenO.s:66     .text.chTMStartMeasurementX:00000000 $t
C:\Users\DEVELO~1\AppData\Local\Temp\ccdoOenO.s:73     .text.chTMStartMeasurementX:00000000 chTMStartMeasurementX
C:\Users\DEVELO~1\AppData\Local\Temp\ccdoOenO.s:100    .text.chTMStartMeasurementX:00000008 $d
C:\Users\DEVELO~1\AppData\Local\Temp\ccdoOenO.s:105    .text.chTMStopMeasurementX:00000000 $t
C:\Users\DEVELO~1\AppData\Local\Temp\ccdoOenO.s:112    .text.chTMStopMeasurementX:00000000 chTMStopMeasurementX
C:\Users\DEVELO~1\AppData\Local\Temp\ccdoOenO.s:214    .text.chTMStopMeasurementX:0000003c $d
C:\Users\DEVELO~1\AppData\Local\Temp\ccdoOenO.s:220    .text.chTMChainMeasurementToX:00000000 $t
C:\Users\DEVELO~1\AppData\Local\Temp\ccdoOenO.s:227    .text.chTMChainMeasurementToX:00000000 chTMChainMeasurementToX
C:\Users\DEVELO~1\AppData\Local\Temp\ccdoOenO.s:312    .text.chTMChainMeasurementToX:00000038 $d

UNDEFINED SYMBOLS
ch_system
