ARM GAS  C:\Users\DEVELO~1\AppData\Local\Temp\cc1sxxVb.s 			page 1


   1              		.cpu cortex-m7
   2              		.arch armv7e-m
   3              		.fpu softvfp
   4              		.eabi_attribute 20, 1
   5              		.eabi_attribute 21, 1
   6              		.eabi_attribute 23, 3
   7              		.eabi_attribute 24, 1
   8              		.eabi_attribute 25, 1
   9              		.eabi_attribute 26, 1
  10              		.eabi_attribute 30, 2
  11              		.eabi_attribute 34, 1
  12              		.eabi_attribute 18, 4
  13              		.file	"drv_display.c"
  14              		.text
  15              	.Ltext0:
  16              		.cfi_sections	.debug_frame
  17              		.section	.text.drv_display_get_buffer,"ax",%progbits
  18              		.align	1
  19              		.p2align 4,,15
  20              		.global	drv_display_get_buffer
  21              		.syntax unified
  22              		.thumb
  23              		.thumb_func
  24              		.type	drv_display_get_buffer, %function
  25              	drv_display_get_buffer:
  26              	.LFB438:
  27              		.file 1 "drivers/drv_display.c"
  28              		.loc 1 108 39 view -0
  29              		.cfi_startproc
  30              		@ args = 0, pretend = 0, frame = 0
  31              		@ frame_needed = 0, uses_anonymous_args = 0
  32              		@ link register save eliminated.
  33              		.loc 1 109 5 view .LVU1
  34              		.loc 1 110 1 is_stmt 0 view .LVU2
  35 0000 0048     		ldr	r0, .L3
  36 0002 7047     		bx	lr
  37              	.L4:
  38              		.align	2
  39              	.L3:
  40 0004 00000000 		.word	.LANCHOR0
  41              		.cfi_endproc
  42              	.LFE438:
  43              		.size	drv_display_get_buffer, .-drv_display_get_buffer
  44              		.section	.text.drv_display_init,"ax",%progbits
  45              		.align	1
  46              		.p2align 4,,15
  47              		.global	drv_display_init
  48              		.syntax unified
  49              		.thumb
  50              		.thumb_func
  51              		.type	drv_display_init, %function
  52              	drv_display_init:
  53              	.LFB440:
  54              		.loc 1 131 29 is_stmt 1 view -0
  55              		.cfi_startproc
  56              		@ args = 0, pretend = 0, frame = 0
  57              		@ frame_needed = 0, uses_anonymous_args = 0
ARM GAS  C:\Users\DEVELO~1\AppData\Local\Temp\cc1sxxVb.s 			page 2


  58              		.loc 1 133 5 view .LVU4
  59              		.loc 1 131 29 is_stmt 0 view .LVU5
  60 0000 2DE9F843 		push	{r3, r4, r5, r6, r7, r8, r9, lr}
  61              		.cfi_def_cfa_offset 32
  62              		.cfi_offset 3, -32
  63              		.cfi_offset 4, -28
  64              		.cfi_offset 5, -24
  65              		.cfi_offset 6, -20
  66              		.cfi_offset 7, -16
  67              		.cfi_offset 8, -12
  68              		.cfi_offset 9, -8
  69              		.cfi_offset 14, -4
  70              	.LBB52:
  71              	.LBB53:
  72              		.loc 1 15 5 view .LVU6
  73 0004 934D     		ldr	r5, .L7
  74              	.LBE53:
  75              	.LBE52:
  76              		.loc 1 133 5 view .LVU7
  77 0006 FFF7FEFF 		bl	spi5_bus_init
  78              	.LVL0:
  79              		.loc 1 134 5 is_stmt 1 view .LVU8
  80              	.LBB56:
  81              	.LBI52:
  82              		.loc 1 13 13 view .LVU9
  83              	.LBB54:
  84              		.loc 1 15 5 view .LVU10
  85 000a 40F29A22 		movw	r2, #666
  86 000e 8021     		movs	r1, #128
  87 0010 2846     		mov	r0, r5
  88              	.LBE54:
  89              	.LBE56:
  90              		.loc 1 137 5 is_stmt 0 view .LVU11
  91 0012 914C     		ldr	r4, .L7+4
  92              	.LBB57:
  93              	.LBB55:
  94              		.loc 1 15 5 view .LVU12
  95 0014 FFF7FEFF 		bl	_pal_lld_setgroupmode
  96              	.LVL1:
  97              		.loc 1 16 5 is_stmt 1 view .LVU13
  98 0018 2846     		mov	r0, r5
  99 001a 40F29A22 		movw	r2, #666
 100 001e 4FF48071 		mov	r1, #256
 101 0022 FFF7FEFF 		bl	_pal_lld_setgroupmode
 102              	.LVL2:
 103              		.loc 1 17 5 view .LVU14
 104 0026 2846     		mov	r0, r5
 105 0028 40F29A22 		movw	r2, #666
 106 002c 4FF40071 		mov	r1, #512
 107 0030 FFF7FEFF 		bl	_pal_lld_setgroupmode
 108              	.LVL3:
 109              	.LBE55:
 110              	.LBE57:
 111              		.loc 1 137 5 view .LVU15
 112 0034 4021     		movs	r1, #64
 113 0036 0122     		movs	r2, #1
 114 0038 2046     		mov	r0, r4
ARM GAS  C:\Users\DEVELO~1\AppData\Local\Temp\cc1sxxVb.s 			page 3


 115              		.loc 1 141 5 is_stmt 0 view .LVU16
 116 003a 0D46     		mov	r5, r1
 117              		.loc 1 142 5 view .LVU17
 118 003c 2027     		movs	r7, #32
 119              		.loc 1 145 5 view .LVU18
 120 003e DFF81C82 		ldr	r8, .L7+8
 121              		.loc 1 137 5 view .LVU19
 122 0042 FFF7FEFF 		bl	_pal_lld_setgroupmode
 123              	.LVL4:
 124              		.loc 1 138 5 is_stmt 1 view .LVU20
 125 0046 0122     		movs	r2, #1
 126 0048 2021     		movs	r1, #32
 127 004a 2046     		mov	r0, r4
 128              		.loc 1 148 5 is_stmt 0 view .LVU21
 129 004c 4FF01009 		mov	r9, #16
 130              		.loc 1 138 5 view .LVU22
 131 0050 FFF7FEFF 		bl	_pal_lld_setgroupmode
 132              	.LVL5:
 133              		.loc 1 139 5 is_stmt 1 view .LVU23
 134 0054 0122     		movs	r2, #1
 135 0056 1021     		movs	r1, #16
 136 0058 2046     		mov	r0, r4
 137 005a FFF7FEFF 		bl	_pal_lld_setgroupmode
 138              	.LVL6:
 139              		.loc 1 141 5 view .LVU24
 140              		.loc 1 145 5 is_stmt 0 view .LVU25
 141 005e 8049     		ldr	r1, .L7+12
 142              		.loc 1 141 5 view .LVU26
 143 0060 2583     		strh	r5, [r4, #24]	@ movhi
 144              		.loc 1 142 5 is_stmt 1 view .LVU27
 145              		.loc 1 145 5 is_stmt 0 view .LVU28
 146 0062 4046     		mov	r0, r8
 147              		.loc 1 142 5 view .LVU29
 148 0064 2783     		strh	r7, [r4, #24]	@ movhi
 149              		.loc 1 145 5 is_stmt 1 view .LVU30
 150              	.LBB58:
 151              	.LBB59:
 152              		.loc 1 77 5 is_stmt 0 view .LVU31
 153 0066 7F4E     		ldr	r6, .L7+16
 154              	.LBE59:
 155              	.LBE58:
 156              		.loc 1 145 5 view .LVU32
 157 0068 FFF7FEFF 		bl	spiStart
 158              	.LVL7:
 159              		.loc 1 148 5 is_stmt 1 view .LVU33
 160              		.loc 1 149 5 is_stmt 0 view .LVU34
 161 006c 4FF4FA70 		mov	r0, #500
 162              		.loc 1 148 5 view .LVU35
 163 0070 A4F81A90 		strh	r9, [r4, #26]	@ movhi
 164              		.loc 1 149 5 is_stmt 1 view .LVU36
 165 0074 FFF7FEFF 		bl	chThdSleep
 166              	.LVL8:
 167              		.loc 1 150 5 view .LVU37
 168              		.loc 1 151 5 is_stmt 0 view .LVU38
 169 0078 4FF4FA70 		mov	r0, #500
 170              		.loc 1 150 5 view .LVU39
 171 007c A4F81890 		strh	r9, [r4, #24]	@ movhi
ARM GAS  C:\Users\DEVELO~1\AppData\Local\Temp\cc1sxxVb.s 			page 4


 172              		.loc 1 151 5 is_stmt 1 view .LVU40
 173 0080 FFF7FEFF 		bl	chThdSleep
 174              	.LVL9:
 175              		.loc 1 154 5 view .LVU41
 176              	.LBB61:
 177              	.LBI58:
 178              		.loc 1 76 13 view .LVU42
 179              	.LBB60:
 180              		.loc 1 77 5 view .LVU43
 181 0084 3046     		mov	r0, r6
 182 0086 FFF7FEFF 		bl	chMtxLock
 183              	.LVL10:
 184              		.loc 1 80 5 view .LVU44
 185              		.loc 1 83 5 is_stmt 0 view .LVU45
 186 008a AE21     		movs	r1, #174
 187              		.loc 1 80 5 view .LVU46
 188 008c 6783     		strh	r7, [r4, #26]	@ movhi
 189              		.loc 1 82 5 is_stmt 1 view .LVU47
 190              		.loc 1 83 5 is_stmt 0 view .LVU48
 191 008e 4046     		mov	r0, r8
 192              		.loc 1 82 5 view .LVU49
 193 0090 6583     		strh	r5, [r4, #26]	@ movhi
 194              		.loc 1 83 5 is_stmt 1 view .LVU50
 195 0092 FFF7FEFF 		bl	spi_lld_polled_exchange
 196              	.LVL11:
 197              		.loc 1 84 5 view .LVU51
 198              		.loc 1 86 5 is_stmt 0 view .LVU52
 199 0096 3046     		mov	r0, r6
 200              		.loc 1 84 5 view .LVU53
 201 0098 2583     		strh	r5, [r4, #24]	@ movhi
 202              		.loc 1 86 5 is_stmt 1 view .LVU54
 203 009a FFF7FEFF 		bl	chMtxUnlock
 204              	.LVL12:
 205              		.loc 1 86 5 is_stmt 0 view .LVU55
 206              	.LBE60:
 207              	.LBE61:
 208              		.loc 1 155 5 is_stmt 1 view .LVU56
 209              	.LBB62:
 210              	.LBI62:
 211              		.loc 1 76 13 view .LVU57
 212              	.LBB63:
 213              		.loc 1 77 5 view .LVU58
 214 009e 3046     		mov	r0, r6
 215 00a0 FFF7FEFF 		bl	chMtxLock
 216              	.LVL13:
 217              		.loc 1 80 5 view .LVU59
 218              		.loc 1 83 5 is_stmt 0 view .LVU60
 219 00a4 D521     		movs	r1, #213
 220              		.loc 1 80 5 view .LVU61
 221 00a6 6783     		strh	r7, [r4, #26]	@ movhi
 222              		.loc 1 82 5 is_stmt 1 view .LVU62
 223              		.loc 1 83 5 is_stmt 0 view .LVU63
 224 00a8 4046     		mov	r0, r8
 225              		.loc 1 82 5 view .LVU64
 226 00aa 6583     		strh	r5, [r4, #26]	@ movhi
 227              		.loc 1 83 5 is_stmt 1 view .LVU65
 228 00ac FFF7FEFF 		bl	spi_lld_polled_exchange
ARM GAS  C:\Users\DEVELO~1\AppData\Local\Temp\cc1sxxVb.s 			page 5


 229              	.LVL14:
 230              		.loc 1 84 5 view .LVU66
 231              		.loc 1 86 5 is_stmt 0 view .LVU67
 232 00b0 3046     		mov	r0, r6
 233              		.loc 1 84 5 view .LVU68
 234 00b2 2583     		strh	r5, [r4, #24]	@ movhi
 235              		.loc 1 86 5 is_stmt 1 view .LVU69
 236 00b4 FFF7FEFF 		bl	chMtxUnlock
 237              	.LVL15:
 238              		.loc 1 86 5 is_stmt 0 view .LVU70
 239              	.LBE63:
 240              	.LBE62:
 241              		.loc 1 155 21 is_stmt 1 view .LVU71
 242              	.LBB64:
 243              	.LBI64:
 244              		.loc 1 76 13 view .LVU72
 245              	.LBB65:
 246              		.loc 1 77 5 view .LVU73
 247 00b8 3046     		mov	r0, r6
 248 00ba FFF7FEFF 		bl	chMtxLock
 249              	.LVL16:
 250              		.loc 1 80 5 view .LVU74
 251              		.loc 1 83 5 is_stmt 0 view .LVU75
 252 00be 8021     		movs	r1, #128
 253              		.loc 1 80 5 view .LVU76
 254 00c0 6783     		strh	r7, [r4, #26]	@ movhi
 255              		.loc 1 82 5 is_stmt 1 view .LVU77
 256              		.loc 1 83 5 is_stmt 0 view .LVU78
 257 00c2 4046     		mov	r0, r8
 258              		.loc 1 82 5 view .LVU79
 259 00c4 6583     		strh	r5, [r4, #26]	@ movhi
 260              		.loc 1 83 5 is_stmt 1 view .LVU80
 261 00c6 FFF7FEFF 		bl	spi_lld_polled_exchange
 262              	.LVL17:
 263              		.loc 1 84 5 view .LVU81
 264              		.loc 1 86 5 is_stmt 0 view .LVU82
 265 00ca 3046     		mov	r0, r6
 266              		.loc 1 84 5 view .LVU83
 267 00cc 2583     		strh	r5, [r4, #24]	@ movhi
 268              		.loc 1 86 5 is_stmt 1 view .LVU84
 269 00ce FFF7FEFF 		bl	chMtxUnlock
 270              	.LVL18:
 271              		.loc 1 86 5 is_stmt 0 view .LVU85
 272              	.LBE65:
 273              	.LBE64:
 274              		.loc 1 156 5 is_stmt 1 view .LVU86
 275              	.LBB66:
 276              	.LBI66:
 277              		.loc 1 76 13 view .LVU87
 278              	.LBB67:
 279              		.loc 1 77 5 view .LVU88
 280 00d2 3046     		mov	r0, r6
 281 00d4 FFF7FEFF 		bl	chMtxLock
 282              	.LVL19:
 283              		.loc 1 80 5 view .LVU89
 284              		.loc 1 83 5 is_stmt 0 view .LVU90
 285 00d8 A821     		movs	r1, #168
ARM GAS  C:\Users\DEVELO~1\AppData\Local\Temp\cc1sxxVb.s 			page 6


 286              		.loc 1 80 5 view .LVU91
 287 00da 6783     		strh	r7, [r4, #26]	@ movhi
 288              		.loc 1 82 5 is_stmt 1 view .LVU92
 289              		.loc 1 83 5 is_stmt 0 view .LVU93
 290 00dc 4046     		mov	r0, r8
 291              		.loc 1 82 5 view .LVU94
 292 00de 6583     		strh	r5, [r4, #26]	@ movhi
 293              		.loc 1 83 5 is_stmt 1 view .LVU95
 294 00e0 FFF7FEFF 		bl	spi_lld_polled_exchange
 295              	.LVL20:
 296              		.loc 1 84 5 view .LVU96
 297              		.loc 1 86 5 is_stmt 0 view .LVU97
 298 00e4 3046     		mov	r0, r6
 299              		.loc 1 84 5 view .LVU98
 300 00e6 2583     		strh	r5, [r4, #24]	@ movhi
 301              		.loc 1 86 5 is_stmt 1 view .LVU99
 302 00e8 FFF7FEFF 		bl	chMtxUnlock
 303              	.LVL21:
 304              		.loc 1 86 5 is_stmt 0 view .LVU100
 305              	.LBE67:
 306              	.LBE66:
 307              		.loc 1 156 21 is_stmt 1 view .LVU101
 308              	.LBB68:
 309              	.LBI68:
 310              		.loc 1 76 13 view .LVU102
 311              	.LBB69:
 312              		.loc 1 77 5 view .LVU103
 313 00ec 3046     		mov	r0, r6
 314 00ee FFF7FEFF 		bl	chMtxLock
 315              	.LVL22:
 316              		.loc 1 80 5 view .LVU104
 317              		.loc 1 83 5 is_stmt 0 view .LVU105
 318 00f2 3F21     		movs	r1, #63
 319              		.loc 1 80 5 view .LVU106
 320 00f4 6783     		strh	r7, [r4, #26]	@ movhi
 321              		.loc 1 82 5 is_stmt 1 view .LVU107
 322              		.loc 1 83 5 is_stmt 0 view .LVU108
 323 00f6 4046     		mov	r0, r8
 324              		.loc 1 82 5 view .LVU109
 325 00f8 6583     		strh	r5, [r4, #26]	@ movhi
 326              		.loc 1 83 5 is_stmt 1 view .LVU110
 327 00fa FFF7FEFF 		bl	spi_lld_polled_exchange
 328              	.LVL23:
 329              		.loc 1 84 5 view .LVU111
 330              		.loc 1 86 5 is_stmt 0 view .LVU112
 331 00fe 3046     		mov	r0, r6
 332              		.loc 1 84 5 view .LVU113
 333 0100 2583     		strh	r5, [r4, #24]	@ movhi
 334              		.loc 1 86 5 is_stmt 1 view .LVU114
 335 0102 FFF7FEFF 		bl	chMtxUnlock
 336              	.LVL24:
 337              		.loc 1 86 5 is_stmt 0 view .LVU115
 338              	.LBE69:
 339              	.LBE68:
 340              		.loc 1 157 5 is_stmt 1 view .LVU116
 341              	.LBB70:
 342              	.LBI70:
ARM GAS  C:\Users\DEVELO~1\AppData\Local\Temp\cc1sxxVb.s 			page 7


 343              		.loc 1 76 13 view .LVU117
 344              	.LBB71:
 345              		.loc 1 77 5 view .LVU118
 346 0106 3046     		mov	r0, r6
 347 0108 FFF7FEFF 		bl	chMtxLock
 348              	.LVL25:
 349              		.loc 1 80 5 view .LVU119
 350              		.loc 1 83 5 is_stmt 0 view .LVU120
 351 010c D321     		movs	r1, #211
 352              		.loc 1 80 5 view .LVU121
 353 010e 6783     		strh	r7, [r4, #26]	@ movhi
 354              		.loc 1 82 5 is_stmt 1 view .LVU122
 355              		.loc 1 83 5 is_stmt 0 view .LVU123
 356 0110 4046     		mov	r0, r8
 357              		.loc 1 82 5 view .LVU124
 358 0112 6583     		strh	r5, [r4, #26]	@ movhi
 359              		.loc 1 83 5 is_stmt 1 view .LVU125
 360 0114 FFF7FEFF 		bl	spi_lld_polled_exchange
 361              	.LVL26:
 362              		.loc 1 84 5 view .LVU126
 363              		.loc 1 86 5 is_stmt 0 view .LVU127
 364 0118 3046     		mov	r0, r6
 365              		.loc 1 84 5 view .LVU128
 366 011a 2583     		strh	r5, [r4, #24]	@ movhi
 367              		.loc 1 86 5 is_stmt 1 view .LVU129
 368 011c FFF7FEFF 		bl	chMtxUnlock
 369              	.LVL27:
 370              		.loc 1 86 5 is_stmt 0 view .LVU130
 371              	.LBE71:
 372              	.LBE70:
 373              		.loc 1 157 21 is_stmt 1 view .LVU131
 374              	.LBB72:
 375              	.LBI72:
 376              		.loc 1 76 13 view .LVU132
 377              	.LBB73:
 378              		.loc 1 77 5 view .LVU133
 379 0120 3046     		mov	r0, r6
 380 0122 FFF7FEFF 		bl	chMtxLock
 381              	.LVL28:
 382              		.loc 1 80 5 view .LVU134
 383              		.loc 1 83 5 is_stmt 0 view .LVU135
 384 0126 0021     		movs	r1, #0
 385              		.loc 1 80 5 view .LVU136
 386 0128 6783     		strh	r7, [r4, #26]	@ movhi
 387              		.loc 1 82 5 is_stmt 1 view .LVU137
 388              		.loc 1 83 5 is_stmt 0 view .LVU138
 389 012a 4046     		mov	r0, r8
 390              		.loc 1 82 5 view .LVU139
 391 012c 6583     		strh	r5, [r4, #26]	@ movhi
 392              		.loc 1 83 5 is_stmt 1 view .LVU140
 393 012e FFF7FEFF 		bl	spi_lld_polled_exchange
 394              	.LVL29:
 395              		.loc 1 84 5 view .LVU141
 396              		.loc 1 86 5 is_stmt 0 view .LVU142
 397 0132 3046     		mov	r0, r6
 398              		.loc 1 84 5 view .LVU143
 399 0134 2583     		strh	r5, [r4, #24]	@ movhi
ARM GAS  C:\Users\DEVELO~1\AppData\Local\Temp\cc1sxxVb.s 			page 8


 400              		.loc 1 86 5 is_stmt 1 view .LVU144
 401 0136 FFF7FEFF 		bl	chMtxUnlock
 402              	.LVL30:
 403              		.loc 1 86 5 is_stmt 0 view .LVU145
 404              	.LBE73:
 405              	.LBE72:
 406              		.loc 1 158 5 is_stmt 1 view .LVU146
 407              	.LBB74:
 408              	.LBI74:
 409              		.loc 1 76 13 view .LVU147
 410              	.LBB75:
 411              		.loc 1 77 5 view .LVU148
 412 013a 3046     		mov	r0, r6
 413 013c FFF7FEFF 		bl	chMtxLock
 414              	.LVL31:
 415              		.loc 1 80 5 view .LVU149
 416              		.loc 1 83 5 is_stmt 0 view .LVU150
 417 0140 2946     		mov	r1, r5
 418              		.loc 1 80 5 view .LVU151
 419 0142 6783     		strh	r7, [r4, #26]	@ movhi
 420              		.loc 1 82 5 is_stmt 1 view .LVU152
 421              		.loc 1 83 5 is_stmt 0 view .LVU153
 422 0144 4046     		mov	r0, r8
 423              		.loc 1 82 5 view .LVU154
 424 0146 6583     		strh	r5, [r4, #26]	@ movhi
 425              		.loc 1 83 5 is_stmt 1 view .LVU155
 426 0148 FFF7FEFF 		bl	spi_lld_polled_exchange
 427              	.LVL32:
 428              		.loc 1 84 5 view .LVU156
 429              		.loc 1 86 5 is_stmt 0 view .LVU157
 430 014c 3046     		mov	r0, r6
 431              		.loc 1 84 5 view .LVU158
 432 014e 2583     		strh	r5, [r4, #24]	@ movhi
 433              		.loc 1 86 5 is_stmt 1 view .LVU159
 434 0150 FFF7FEFF 		bl	chMtxUnlock
 435              	.LVL33:
 436              		.loc 1 86 5 is_stmt 0 view .LVU160
 437              	.LBE75:
 438              	.LBE74:
 439              		.loc 1 159 5 is_stmt 1 view .LVU161
 440              	.LBB76:
 441              	.LBI76:
 442              		.loc 1 76 13 view .LVU162
 443              	.LBB77:
 444              		.loc 1 77 5 view .LVU163
 445 0154 3046     		mov	r0, r6
 446 0156 FFF7FEFF 		bl	chMtxLock
 447              	.LVL34:
 448              		.loc 1 80 5 view .LVU164
 449              		.loc 1 83 5 is_stmt 0 view .LVU165
 450 015a 8D21     		movs	r1, #141
 451              		.loc 1 80 5 view .LVU166
 452 015c 6783     		strh	r7, [r4, #26]	@ movhi
 453              		.loc 1 82 5 is_stmt 1 view .LVU167
 454              		.loc 1 83 5 is_stmt 0 view .LVU168
 455 015e 4046     		mov	r0, r8
 456              		.loc 1 82 5 view .LVU169
ARM GAS  C:\Users\DEVELO~1\AppData\Local\Temp\cc1sxxVb.s 			page 9


 457 0160 6583     		strh	r5, [r4, #26]	@ movhi
 458              		.loc 1 83 5 is_stmt 1 view .LVU170
 459 0162 FFF7FEFF 		bl	spi_lld_polled_exchange
 460              	.LVL35:
 461              		.loc 1 84 5 view .LVU171
 462              		.loc 1 86 5 is_stmt 0 view .LVU172
 463 0166 3046     		mov	r0, r6
 464              		.loc 1 84 5 view .LVU173
 465 0168 2583     		strh	r5, [r4, #24]	@ movhi
 466              		.loc 1 86 5 is_stmt 1 view .LVU174
 467 016a FFF7FEFF 		bl	chMtxUnlock
 468              	.LVL36:
 469              		.loc 1 86 5 is_stmt 0 view .LVU175
 470              	.LBE77:
 471              	.LBE76:
 472              		.loc 1 159 21 is_stmt 1 view .LVU176
 473              	.LBB78:
 474              	.LBI78:
 475              		.loc 1 76 13 view .LVU177
 476              	.LBB79:
 477              		.loc 1 77 5 view .LVU178
 478 016e 3046     		mov	r0, r6
 479 0170 FFF7FEFF 		bl	chMtxLock
 480              	.LVL37:
 481              		.loc 1 80 5 view .LVU179
 482              		.loc 1 83 5 is_stmt 0 view .LVU180
 483 0174 1421     		movs	r1, #20
 484              		.loc 1 80 5 view .LVU181
 485 0176 6783     		strh	r7, [r4, #26]	@ movhi
 486              		.loc 1 82 5 is_stmt 1 view .LVU182
 487              		.loc 1 83 5 is_stmt 0 view .LVU183
 488 0178 4046     		mov	r0, r8
 489              		.loc 1 82 5 view .LVU184
 490 017a 6583     		strh	r5, [r4, #26]	@ movhi
 491              		.loc 1 83 5 is_stmt 1 view .LVU185
 492 017c FFF7FEFF 		bl	spi_lld_polled_exchange
 493              	.LVL38:
 494              		.loc 1 84 5 view .LVU186
 495              		.loc 1 86 5 is_stmt 0 view .LVU187
 496 0180 3046     		mov	r0, r6
 497              		.loc 1 84 5 view .LVU188
 498 0182 2583     		strh	r5, [r4, #24]	@ movhi
 499              		.loc 1 86 5 is_stmt 1 view .LVU189
 500 0184 FFF7FEFF 		bl	chMtxUnlock
 501              	.LVL39:
 502              		.loc 1 86 5 is_stmt 0 view .LVU190
 503              	.LBE79:
 504              	.LBE78:
 505              		.loc 1 160 5 is_stmt 1 view .LVU191
 506              	.LBB80:
 507              	.LBI80:
 508              		.loc 1 76 13 view .LVU192
 509              	.LBB81:
 510              		.loc 1 77 5 view .LVU193
 511 0188 3046     		mov	r0, r6
 512 018a FFF7FEFF 		bl	chMtxLock
 513              	.LVL40:
ARM GAS  C:\Users\DEVELO~1\AppData\Local\Temp\cc1sxxVb.s 			page 10


 514              		.loc 1 80 5 view .LVU194
 515              		.loc 1 83 5 is_stmt 0 view .LVU195
 516 018e 3946     		mov	r1, r7
 517              		.loc 1 80 5 view .LVU196
 518 0190 6783     		strh	r7, [r4, #26]	@ movhi
 519              		.loc 1 82 5 is_stmt 1 view .LVU197
 520              		.loc 1 83 5 is_stmt 0 view .LVU198
 521 0192 4046     		mov	r0, r8
 522              		.loc 1 82 5 view .LVU199
 523 0194 6583     		strh	r5, [r4, #26]	@ movhi
 524              		.loc 1 83 5 is_stmt 1 view .LVU200
 525 0196 FFF7FEFF 		bl	spi_lld_polled_exchange
 526              	.LVL41:
 527              		.loc 1 84 5 view .LVU201
 528              		.loc 1 86 5 is_stmt 0 view .LVU202
 529 019a 3046     		mov	r0, r6
 530              		.loc 1 84 5 view .LVU203
 531 019c 2583     		strh	r5, [r4, #24]	@ movhi
 532              		.loc 1 86 5 is_stmt 1 view .LVU204
 533 019e FFF7FEFF 		bl	chMtxUnlock
 534              	.LVL42:
 535              		.loc 1 86 5 is_stmt 0 view .LVU205
 536              	.LBE81:
 537              	.LBE80:
 538              		.loc 1 160 21 is_stmt 1 view .LVU206
 539              	.LBB82:
 540              	.LBI82:
 541              		.loc 1 76 13 view .LVU207
 542              	.LBB83:
 543              		.loc 1 77 5 view .LVU208
 544 01a2 3046     		mov	r0, r6
 545 01a4 FFF7FEFF 		bl	chMtxLock
 546              	.LVL43:
 547              		.loc 1 80 5 view .LVU209
 548              		.loc 1 83 5 is_stmt 0 view .LVU210
 549 01a8 0021     		movs	r1, #0
 550              		.loc 1 80 5 view .LVU211
 551 01aa 6783     		strh	r7, [r4, #26]	@ movhi
 552              		.loc 1 82 5 is_stmt 1 view .LVU212
 553              		.loc 1 83 5 is_stmt 0 view .LVU213
 554 01ac 4046     		mov	r0, r8
 555              		.loc 1 82 5 view .LVU214
 556 01ae 6583     		strh	r5, [r4, #26]	@ movhi
 557              		.loc 1 83 5 is_stmt 1 view .LVU215
 558 01b0 FFF7FEFF 		bl	spi_lld_polled_exchange
 559              	.LVL44:
 560              		.loc 1 84 5 view .LVU216
 561              		.loc 1 86 5 is_stmt 0 view .LVU217
 562 01b4 3046     		mov	r0, r6
 563              		.loc 1 84 5 view .LVU218
 564 01b6 2583     		strh	r5, [r4, #24]	@ movhi
 565              		.loc 1 86 5 is_stmt 1 view .LVU219
 566 01b8 FFF7FEFF 		bl	chMtxUnlock
 567              	.LVL45:
 568              		.loc 1 86 5 is_stmt 0 view .LVU220
 569              	.LBE83:
 570              	.LBE82:
ARM GAS  C:\Users\DEVELO~1\AppData\Local\Temp\cc1sxxVb.s 			page 11


 571              		.loc 1 161 5 is_stmt 1 view .LVU221
 572              	.LBB84:
 573              	.LBI84:
 574              		.loc 1 76 13 view .LVU222
 575              	.LBB85:
 576              		.loc 1 77 5 view .LVU223
 577 01bc 3046     		mov	r0, r6
 578 01be FFF7FEFF 		bl	chMtxLock
 579              	.LVL46:
 580              		.loc 1 80 5 view .LVU224
 581              		.loc 1 83 5 is_stmt 0 view .LVU225
 582 01c2 A121     		movs	r1, #161
 583              		.loc 1 80 5 view .LVU226
 584 01c4 6783     		strh	r7, [r4, #26]	@ movhi
 585              		.loc 1 82 5 is_stmt 1 view .LVU227
 586              		.loc 1 83 5 is_stmt 0 view .LVU228
 587 01c6 4046     		mov	r0, r8
 588              		.loc 1 82 5 view .LVU229
 589 01c8 6583     		strh	r5, [r4, #26]	@ movhi
 590              		.loc 1 83 5 is_stmt 1 view .LVU230
 591 01ca FFF7FEFF 		bl	spi_lld_polled_exchange
 592              	.LVL47:
 593              		.loc 1 84 5 view .LVU231
 594              		.loc 1 86 5 is_stmt 0 view .LVU232
 595 01ce 3046     		mov	r0, r6
 596              		.loc 1 84 5 view .LVU233
 597 01d0 2583     		strh	r5, [r4, #24]	@ movhi
 598              		.loc 1 86 5 is_stmt 1 view .LVU234
 599 01d2 FFF7FEFF 		bl	chMtxUnlock
 600              	.LVL48:
 601              		.loc 1 86 5 is_stmt 0 view .LVU235
 602              	.LBE85:
 603              	.LBE84:
 604              		.loc 1 162 5 is_stmt 1 view .LVU236
 605              	.LBB86:
 606              	.LBI86:
 607              		.loc 1 76 13 view .LVU237
 608              	.LBB87:
 609              		.loc 1 77 5 view .LVU238
 610 01d6 3046     		mov	r0, r6
 611 01d8 FFF7FEFF 		bl	chMtxLock
 612              	.LVL49:
 613              		.loc 1 80 5 view .LVU239
 614              		.loc 1 83 5 is_stmt 0 view .LVU240
 615 01dc C821     		movs	r1, #200
 616              		.loc 1 80 5 view .LVU241
 617 01de 6783     		strh	r7, [r4, #26]	@ movhi
 618              		.loc 1 82 5 is_stmt 1 view .LVU242
 619              		.loc 1 83 5 is_stmt 0 view .LVU243
 620 01e0 4046     		mov	r0, r8
 621              		.loc 1 82 5 view .LVU244
 622 01e2 6583     		strh	r5, [r4, #26]	@ movhi
 623              		.loc 1 83 5 is_stmt 1 view .LVU245
 624 01e4 FFF7FEFF 		bl	spi_lld_polled_exchange
 625              	.LVL50:
 626              		.loc 1 84 5 view .LVU246
 627              		.loc 1 86 5 is_stmt 0 view .LVU247
ARM GAS  C:\Users\DEVELO~1\AppData\Local\Temp\cc1sxxVb.s 			page 12


 628 01e8 3046     		mov	r0, r6
 629              		.loc 1 84 5 view .LVU248
 630 01ea 2583     		strh	r5, [r4, #24]	@ movhi
 631              		.loc 1 86 5 is_stmt 1 view .LVU249
 632 01ec FFF7FEFF 		bl	chMtxUnlock
 633              	.LVL51:
 634              		.loc 1 86 5 is_stmt 0 view .LVU250
 635              	.LBE87:
 636              	.LBE86:
 637              		.loc 1 163 5 is_stmt 1 view .LVU251
 638              	.LBB88:
 639              	.LBI88:
 640              		.loc 1 76 13 view .LVU252
 641              	.LBB89:
 642              		.loc 1 77 5 view .LVU253
 643 01f0 3046     		mov	r0, r6
 644 01f2 FFF7FEFF 		bl	chMtxLock
 645              	.LVL52:
 646              		.loc 1 80 5 view .LVU254
 647              		.loc 1 83 5 is_stmt 0 view .LVU255
 648 01f6 DA21     		movs	r1, #218
 649              		.loc 1 80 5 view .LVU256
 650 01f8 6783     		strh	r7, [r4, #26]	@ movhi
 651              		.loc 1 82 5 is_stmt 1 view .LVU257
 652              		.loc 1 83 5 is_stmt 0 view .LVU258
 653 01fa 4046     		mov	r0, r8
 654              		.loc 1 82 5 view .LVU259
 655 01fc 6583     		strh	r5, [r4, #26]	@ movhi
 656              		.loc 1 83 5 is_stmt 1 view .LVU260
 657 01fe FFF7FEFF 		bl	spi_lld_polled_exchange
 658              	.LVL53:
 659              		.loc 1 84 5 view .LVU261
 660              		.loc 1 86 5 is_stmt 0 view .LVU262
 661 0202 3046     		mov	r0, r6
 662              		.loc 1 84 5 view .LVU263
 663 0204 2583     		strh	r5, [r4, #24]	@ movhi
 664              		.loc 1 86 5 is_stmt 1 view .LVU264
 665 0206 FFF7FEFF 		bl	chMtxUnlock
 666              	.LVL54:
 667              		.loc 1 86 5 is_stmt 0 view .LVU265
 668              	.LBE89:
 669              	.LBE88:
 670              		.loc 1 163 21 is_stmt 1 view .LVU266
 671              	.LBB90:
 672              	.LBI90:
 673              		.loc 1 76 13 view .LVU267
 674              	.LBB91:
 675              		.loc 1 77 5 view .LVU268
 676 020a 3046     		mov	r0, r6
 677 020c FFF7FEFF 		bl	chMtxLock
 678              	.LVL55:
 679              		.loc 1 80 5 view .LVU269
 680              		.loc 1 83 5 is_stmt 0 view .LVU270
 681 0210 1221     		movs	r1, #18
 682              		.loc 1 80 5 view .LVU271
 683 0212 6783     		strh	r7, [r4, #26]	@ movhi
 684              		.loc 1 82 5 is_stmt 1 view .LVU272
ARM GAS  C:\Users\DEVELO~1\AppData\Local\Temp\cc1sxxVb.s 			page 13


 685              		.loc 1 83 5 is_stmt 0 view .LVU273
 686 0214 4046     		mov	r0, r8
 687              		.loc 1 82 5 view .LVU274
 688 0216 6583     		strh	r5, [r4, #26]	@ movhi
 689              		.loc 1 83 5 is_stmt 1 view .LVU275
 690 0218 FFF7FEFF 		bl	spi_lld_polled_exchange
 691              	.LVL56:
 692              		.loc 1 84 5 view .LVU276
 693              		.loc 1 86 5 is_stmt 0 view .LVU277
 694 021c 3046     		mov	r0, r6
 695              		.loc 1 84 5 view .LVU278
 696 021e 2583     		strh	r5, [r4, #24]	@ movhi
 697              		.loc 1 86 5 is_stmt 1 view .LVU279
 698 0220 FFF7FEFF 		bl	chMtxUnlock
 699              	.LVL57:
 700              		.loc 1 86 5 is_stmt 0 view .LVU280
 701              	.LBE91:
 702              	.LBE90:
 703              		.loc 1 164 5 is_stmt 1 view .LVU281
 704              	.LBB92:
 705              	.LBI92:
 706              		.loc 1 76 13 view .LVU282
 707              	.LBB93:
 708              		.loc 1 77 5 view .LVU283
 709 0224 3046     		mov	r0, r6
 710 0226 FFF7FEFF 		bl	chMtxLock
 711              	.LVL58:
 712              		.loc 1 80 5 view .LVU284
 713              		.loc 1 83 5 is_stmt 0 view .LVU285
 714 022a AF21     		movs	r1, #175
 715              		.loc 1 80 5 view .LVU286
 716 022c 6783     		strh	r7, [r4, #26]	@ movhi
 717              		.loc 1 82 5 is_stmt 1 view .LVU287
 718              		.loc 1 83 5 is_stmt 0 view .LVU288
 719 022e 4046     		mov	r0, r8
 720              		.loc 1 82 5 view .LVU289
 721 0230 6583     		strh	r5, [r4, #26]	@ movhi
 722              		.loc 1 83 5 is_stmt 1 view .LVU290
 723 0232 FFF7FEFF 		bl	spi_lld_polled_exchange
 724              	.LVL59:
 725              		.loc 1 84 5 view .LVU291
 726              		.loc 1 86 5 is_stmt 0 view .LVU292
 727 0236 3046     		mov	r0, r6
 728              		.loc 1 84 5 view .LVU293
 729 0238 2583     		strh	r5, [r4, #24]	@ movhi
 730              		.loc 1 86 5 is_stmt 1 view .LVU294
 731 023a FFF7FEFF 		bl	chMtxUnlock
 732              	.LVL60:
 733              		.loc 1 86 5 is_stmt 0 view .LVU295
 734              	.LBE93:
 735              	.LBE92:
 736              		.loc 1 166 5 is_stmt 1 view .LVU296
 737              	.LBB94:
 738              	.LBI94:
 739              		.loc 1 176 6 view .LVU297
 740              	.LBB95:
 741              		.loc 1 177 5 view .LVU298
ARM GAS  C:\Users\DEVELO~1\AppData\Local\Temp\cc1sxxVb.s 			page 14


 742 023e 4FF48062 		mov	r2, #1024
 743 0242 0021     		movs	r1, #0
 744 0244 0848     		ldr	r0, .L7+20
 745 0246 FFF7FEFF 		bl	memset
 746              	.LVL61:
 747              	.LBE95:
 748              	.LBE94:
 749              		.loc 1 168 5 view .LVU299
 750              		.loc 1 169 5 view .LVU300
 751              		.loc 1 169 18 is_stmt 0 view .LVU301
 752 024a 084B     		ldr	r3, .L7+24
 753 024c 084A     		ldr	r2, .L7+28
 754 024e 1A60     		str	r2, [r3]
 755              		.loc 1 170 1 view .LVU302
 756 0250 BDE8F883 		pop	{r3, r4, r5, r6, r7, r8, r9, pc}
 757              	.L8:
 758              		.align	2
 759              	.L7:
 760 0254 00140258 		.word	1476531200
 761 0258 00200258 		.word	1476534272
 762 025c 00000000 		.word	SPID5
 763 0260 00000000 		.word	.LANCHOR1
 764 0264 00000000 		.word	spi5_mutex
 765 0268 00000000 		.word	.LANCHOR0
 766 026c 00000000 		.word	.LANCHOR2
 767 0270 00000000 		.word	FONT_5X7
 768              		.cfi_endproc
 769              	.LFE440:
 770              		.size	drv_display_init, .-drv_display_init
 771              		.section	.text.drv_display_clear,"ax",%progbits
 772              		.align	1
 773              		.p2align 4,,15
 774              		.global	drv_display_clear
 775              		.syntax unified
 776              		.thumb
 777              		.thumb_func
 778              		.type	drv_display_clear, %function
 779              	drv_display_clear:
 780              	.LFB441:
 781              		.loc 1 176 30 is_stmt 1 view -0
 782              		.cfi_startproc
 783              		@ args = 0, pretend = 0, frame = 0
 784              		@ frame_needed = 0, uses_anonymous_args = 0
 785              		@ link register save eliminated.
 786              		.loc 1 177 5 view .LVU304
 787 0000 4FF48062 		mov	r2, #1024
 788 0004 0021     		movs	r1, #0
 789 0006 0148     		ldr	r0, .L10
 790 0008 FFF7FEBF 		b	memset
 791              	.LVL62:
 792              	.L11:
 793              		.align	2
 794              	.L10:
 795 000c 00000000 		.word	.LANCHOR0
 796              		.cfi_endproc
 797              	.LFE441:
 798              		.size	drv_display_clear, .-drv_display_clear
ARM GAS  C:\Users\DEVELO~1\AppData\Local\Temp\cc1sxxVb.s 			page 15


 799              		.section	.text.drv_display_update,"ax",%progbits
 800              		.align	1
 801              		.p2align 4,,15
 802              		.global	drv_display_update
 803              		.syntax unified
 804              		.thumb
 805              		.thumb_func
 806              		.type	drv_display_update, %function
 807              	drv_display_update:
 808              	.LFB442:
 809              		.loc 1 184 31 view -0
 810              		.cfi_startproc
 811              		@ args = 0, pretend = 0, frame = 8
 812              		@ frame_needed = 0, uses_anonymous_args = 0
 813              		.loc 1 185 5 view .LVU306
 814              	.LBB107:
 815              		.loc 1 185 10 view .LVU307
 816              	.LVL63:
 817              		.loc 1 185 33 view .LVU308
 818              	.LBE107:
 819              		.loc 1 184 31 is_stmt 0 view .LVU309
 820 0000 2DE9F04F 		push	{r4, r5, r6, r7, r8, r9, r10, fp, lr}
 821              		.cfi_def_cfa_offset 36
 822              		.cfi_offset 4, -36
 823              		.cfi_offset 5, -32
 824              		.cfi_offset 6, -28
 825              		.cfi_offset 7, -24
 826              		.cfi_offset 8, -20
 827              		.cfi_offset 9, -16
 828              		.cfi_offset 10, -12
 829              		.cfi_offset 11, -8
 830              		.cfi_offset 14, -4
 831 0004 B023     		movs	r3, #176
 832 0006 83B0     		sub	sp, sp, #12
 833              		.cfi_def_cfa_offset 48
 834 0008 284F     		ldr	r7, .L18
 835              	.LBB128:
 836              	.LBB108:
 837              	.LBB109:
 838              		.loc 1 77 5 view .LVU310
 839 000a DFF8A490 		ldr	r9, .L18+4
 840              		.loc 1 80 5 view .LVU311
 841 000e 294C     		ldr	r4, .L18+8
 842              		.loc 1 83 5 view .LVU312
 843 0010 294E     		ldr	r6, .L18+12
 844              	.LBE109:
 845              	.LBE108:
 846              	.LBE128:
 847              		.loc 1 184 31 view .LVU313
 848 0012 0193     		str	r3, [sp, #4]
 849              	.LVL64:
 850              	.L14:
 851              	.LBB129:
 852              		.loc 1 186 9 is_stmt 1 discriminator 3 view .LVU314
 853              	.LBB112:
 854              	.LBI108:
 855              		.loc 1 76 13 discriminator 3 view .LVU315
ARM GAS  C:\Users\DEVELO~1\AppData\Local\Temp\cc1sxxVb.s 			page 16


 856              	.LBB110:
 857              		.loc 1 77 5 discriminator 3 view .LVU316
 858              		.loc 1 82 5 is_stmt 0 discriminator 3 view .LVU317
 859 0014 4025     		movs	r5, #64
 860              		.loc 1 80 5 discriminator 3 view .LVU318
 861 0016 4FF0200A 		mov	r10, #32
 862              		.loc 1 77 5 discriminator 3 view .LVU319
 863 001a 4846     		mov	r0, r9
 864 001c A7F1800B 		sub	fp, r7, #128
 865 0020 FFF7FEFF 		bl	chMtxLock
 866              	.LVL65:
 867              		.loc 1 80 5 is_stmt 1 discriminator 3 view .LVU320
 868              		.loc 1 83 5 is_stmt 0 discriminator 3 view .LVU321
 869 0024 0199     		ldr	r1, [sp, #4]
 870 0026 3046     		mov	r0, r6
 871              		.loc 1 80 5 discriminator 3 view .LVU322
 872 0028 A4F81AA0 		strh	r10, [r4, #26]	@ movhi
 873              		.loc 1 82 5 is_stmt 1 discriminator 3 view .LVU323
 874 002c 6583     		strh	r5, [r4, #26]	@ movhi
 875              		.loc 1 83 5 discriminator 3 view .LVU324
 876              	.LBE110:
 877              	.LBE112:
 878              	.LBB113:
 879              	.LBB114:
 880              	.LBB115:
 881              		.loc 1 96 9 is_stmt 0 discriminator 3 view .LVU325
 882 002e A846     		mov	r8, r5	@ movhi
 883              	.LBE115:
 884              	.LBE114:
 885              	.LBE113:
 886              	.LBB120:
 887              	.LBB111:
 888              		.loc 1 83 5 discriminator 3 view .LVU326
 889 0030 FFF7FEFF 		bl	spi_lld_polled_exchange
 890              	.LVL66:
 891              		.loc 1 84 5 is_stmt 1 discriminator 3 view .LVU327
 892              		.loc 1 86 5 is_stmt 0 discriminator 3 view .LVU328
 893 0034 4846     		mov	r0, r9
 894              		.loc 1 84 5 discriminator 3 view .LVU329
 895 0036 2583     		strh	r5, [r4, #24]	@ movhi
 896              		.loc 1 86 5 is_stmt 1 discriminator 3 view .LVU330
 897 0038 FFF7FEFF 		bl	chMtxUnlock
 898              	.LVL67:
 899              		.loc 1 86 5 is_stmt 0 discriminator 3 view .LVU331
 900              	.LBE111:
 901              	.LBE120:
 902              		.loc 1 187 9 is_stmt 1 discriminator 3 view .LVU332
 903              	.LBB121:
 904              	.LBI121:
 905              		.loc 1 76 13 discriminator 3 view .LVU333
 906              	.LBB122:
 907              		.loc 1 77 5 discriminator 3 view .LVU334
 908 003c 4846     		mov	r0, r9
 909 003e FFF7FEFF 		bl	chMtxLock
 910              	.LVL68:
 911              		.loc 1 80 5 discriminator 3 view .LVU335
 912              		.loc 1 83 5 is_stmt 0 discriminator 3 view .LVU336
ARM GAS  C:\Users\DEVELO~1\AppData\Local\Temp\cc1sxxVb.s 			page 17


 913 0042 0021     		movs	r1, #0
 914              		.loc 1 80 5 discriminator 3 view .LVU337
 915 0044 A4F81AA0 		strh	r10, [r4, #26]	@ movhi
 916              		.loc 1 82 5 is_stmt 1 discriminator 3 view .LVU338
 917              		.loc 1 83 5 is_stmt 0 discriminator 3 view .LVU339
 918 0048 3046     		mov	r0, r6
 919              		.loc 1 82 5 discriminator 3 view .LVU340
 920 004a 6583     		strh	r5, [r4, #26]	@ movhi
 921              		.loc 1 83 5 is_stmt 1 discriminator 3 view .LVU341
 922 004c FFF7FEFF 		bl	spi_lld_polled_exchange
 923              	.LVL69:
 924              		.loc 1 84 5 discriminator 3 view .LVU342
 925              		.loc 1 86 5 is_stmt 0 discriminator 3 view .LVU343
 926 0050 4846     		mov	r0, r9
 927              		.loc 1 84 5 discriminator 3 view .LVU344
 928 0052 2583     		strh	r5, [r4, #24]	@ movhi
 929              		.loc 1 86 5 is_stmt 1 discriminator 3 view .LVU345
 930 0054 FFF7FEFF 		bl	chMtxUnlock
 931              	.LVL70:
 932              		.loc 1 86 5 is_stmt 0 discriminator 3 view .LVU346
 933              	.LBE122:
 934              	.LBE121:
 935              		.loc 1 188 9 is_stmt 1 discriminator 3 view .LVU347
 936              	.LBB123:
 937              	.LBI123:
 938              		.loc 1 76 13 discriminator 3 view .LVU348
 939              	.LBB124:
 940              		.loc 1 77 5 discriminator 3 view .LVU349
 941 0058 4846     		mov	r0, r9
 942 005a FFF7FEFF 		bl	chMtxLock
 943              	.LVL71:
 944              		.loc 1 80 5 discriminator 3 view .LVU350
 945              		.loc 1 83 5 is_stmt 0 discriminator 3 view .LVU351
 946 005e 1021     		movs	r1, #16
 947              		.loc 1 80 5 discriminator 3 view .LVU352
 948 0060 A4F81AA0 		strh	r10, [r4, #26]	@ movhi
 949              		.loc 1 82 5 is_stmt 1 discriminator 3 view .LVU353
 950              		.loc 1 83 5 is_stmt 0 discriminator 3 view .LVU354
 951 0064 3046     		mov	r0, r6
 952              		.loc 1 82 5 discriminator 3 view .LVU355
 953 0066 6583     		strh	r5, [r4, #26]	@ movhi
 954              		.loc 1 83 5 is_stmt 1 discriminator 3 view .LVU356
 955 0068 FFF7FEFF 		bl	spi_lld_polled_exchange
 956              	.LVL72:
 957              		.loc 1 84 5 discriminator 3 view .LVU357
 958              		.loc 1 86 5 is_stmt 0 discriminator 3 view .LVU358
 959 006c 4846     		mov	r0, r9
 960              		.loc 1 84 5 discriminator 3 view .LVU359
 961 006e 2583     		strh	r5, [r4, #24]	@ movhi
 962              		.loc 1 86 5 is_stmt 1 discriminator 3 view .LVU360
 963 0070 FFF7FEFF 		bl	chMtxUnlock
 964              	.LVL73:
 965              		.loc 1 86 5 is_stmt 0 discriminator 3 view .LVU361
 966              	.LBE124:
 967              	.LBE123:
 968              		.loc 1 189 9 is_stmt 1 discriminator 3 view .LVU362
 969              	.LBB125:
ARM GAS  C:\Users\DEVELO~1\AppData\Local\Temp\cc1sxxVb.s 			page 18


 970              	.LBI113:
 971              		.loc 1 89 13 discriminator 3 view .LVU363
 972              	.LBB117:
 973              		.loc 1 90 5 discriminator 3 view .LVU364
 974 0074 4846     		mov	r0, r9
 975 0076 FFF7FEFF 		bl	chMtxLock
 976              	.LVL74:
 977              		.loc 1 93 5 discriminator 3 view .LVU365
 978 007a A4F818A0 		strh	r10, [r4, #24]	@ movhi
 979              		.loc 1 95 5 discriminator 3 view .LVU366
 980              	.LBB116:
 981              		.loc 1 95 10 discriminator 3 view .LVU367
 982              	.LVL75:
 983              		.loc 1 95 26 discriminator 3 view .LVU368
 984              	.L13:
 985              		.loc 1 96 9 view .LVU369
 986 007e A4F81A80 		strh	r8, [r4, #26]	@ movhi
 987              		.loc 1 97 9 view .LVU370
 988 0082 3046     		mov	r0, r6
 989 0084 1BF8011F 		ldrb	r1, [fp, #1]!	@ zero_extendqisi2
 990              	.LVL76:
 991              		.loc 1 97 9 is_stmt 0 view .LVU371
 992 0088 FFF7FEFF 		bl	spi_lld_polled_exchange
 993              	.LVL77:
 994              		.loc 1 98 9 is_stmt 1 view .LVU372
 995 008c 2583     		strh	r5, [r4, #24]	@ movhi
 996              		.loc 1 95 34 view .LVU373
 997              	.LVL78:
 998              		.loc 1 95 26 view .LVU374
 999 008e BB45     		cmp	fp, r7
 1000 0090 F5D1     		bne	.L13
 1001              	.LBE116:
 1002              		.loc 1 101 5 view .LVU375
 1003              	.LBE117:
 1004              	.LBE125:
 1005              		.loc 1 185 33 is_stmt 0 view .LVU376
 1006 0092 019D     		ldr	r5, [sp, #4]
 1007              	.LBB126:
 1008              	.LBB118:
 1009              		.loc 1 101 5 view .LVU377
 1010 0094 4846     		mov	r0, r9
 1011              	.LBE118:
 1012              	.LBE126:
 1013              		.loc 1 185 33 view .LVU378
 1014 0096 0BF18007 		add	r7, fp, #128
 1015              	.LVL79:
 1016              		.loc 1 185 33 view .LVU379
 1017 009a 0135     		adds	r5, r5, #1
 1018 009c 0195     		str	r5, [sp, #4]
 1019              	.LVL80:
 1020              	.LBB127:
 1021              	.LBB119:
 1022              		.loc 1 101 5 view .LVU380
 1023 009e FFF7FEFF 		bl	chMtxUnlock
 1024              	.LVL81:
 1025              		.loc 1 101 5 view .LVU381
 1026              	.LBE119:
ARM GAS  C:\Users\DEVELO~1\AppData\Local\Temp\cc1sxxVb.s 			page 19


 1027              	.LBE127:
 1028              		.loc 1 185 42 is_stmt 1 view .LVU382
 1029              		.loc 1 185 33 view .LVU383
 1030 00a2 B82D     		cmp	r5, #184
 1031 00a4 B6D1     		bne	.L14
 1032              	.LBE129:
 1033              		.loc 1 191 1 is_stmt 0 view .LVU384
 1034 00a6 03B0     		add	sp, sp, #12
 1035              		.cfi_def_cfa_offset 36
 1036              		@ sp needed
 1037 00a8 BDE8F08F 		pop	{r4, r5, r6, r7, r8, r9, r10, fp, pc}
 1038              	.L19:
 1039              		.align	2
 1040              	.L18:
 1041 00ac 7F000000 		.word	.LANCHOR0+127
 1042 00b0 00000000 		.word	spi5_mutex
 1043 00b4 00200258 		.word	1476534272
 1044 00b8 00000000 		.word	SPID5
 1045              		.cfi_endproc
 1046              	.LFE442:
 1047              		.size	drv_display_update, .-drv_display_update
 1048              		.section	.rodata.displayThread.str1.4,"aMS",%progbits,1
 1049              		.align	2
 1050              	.LC0:
 1051 0000 44697370 		.ascii	"Display\000"
 1051      6C617900 
 1052              		.section	.text.displayThread,"ax",%progbits
 1053              		.align	1
 1054              		.p2align 4,,15
 1055              		.syntax unified
 1056              		.thumb
 1057              		.thumb_func
 1058              		.type	displayThread, %function
 1059              	displayThread:
 1060              	.LVL82:
 1061              	.LFB446:
 1062              		.loc 1 233 41 is_stmt 1 view -0
 1063              		.cfi_startproc
 1064              		@ args = 0, pretend = 0, frame = 0
 1065              		@ frame_needed = 0, uses_anonymous_args = 0
 1066              		.loc 1 234 5 view .LVU386
 1067              		.loc 1 235 5 view .LVU387
 1068              	.LBB130:
 1069              	.LBI130:
 1070              		.file 2 "../../../os/rt/include/chregistry.h"
 1071              		.loc 2 165 20 view .LVU388
 1072              	.LBB131:
 1073              		.loc 2 168 3 view .LVU389
 1074              	.LBE131:
 1075              	.LBE130:
 1076              		.loc 1 233 41 is_stmt 0 view .LVU390
 1077 0000 10B5     		push	{r4, lr}
 1078              		.cfi_def_cfa_offset 8
 1079              		.cfi_offset 4, -8
 1080              		.cfi_offset 14, -4
 1081              	.LBB134:
 1082              	.LBB132:
ARM GAS  C:\Users\DEVELO~1\AppData\Local\Temp\cc1sxxVb.s 			page 20


 1083              		.loc 2 168 3 view .LVU391
 1084 0002 0A4C     		ldr	r4, .L26
 1085              		.loc 2 168 32 view .LVU392
 1086 0004 0A49     		ldr	r1, .L26+4
 1087              		.loc 2 168 3 view .LVU393
 1088 0006 E368     		ldr	r3, [r4, #12]
 1089              	.LBE132:
 1090              	.LBE134:
 1091              		.loc 1 237 12 view .LVU394
 1092 0008 93F82520 		ldrb	r2, [r3, #37]	@ zero_extendqisi2
 1093              	.LBB135:
 1094              	.LBB133:
 1095              		.loc 2 168 32 view .LVU395
 1096 000c D961     		str	r1, [r3, #28]
 1097              	.LVL83:
 1098              		.loc 2 168 32 view .LVU396
 1099              	.LBE133:
 1100              	.LBE135:
 1101              		.loc 1 237 12 is_stmt 1 view .LVU397
 1102              	.LBB136:
 1103              	.LBI136:
 1104              		.file 3 "../../../os/rt/include/chthreads.h"
 1105              		.loc 3 414 20 view .LVU398
 1106              	.LBB137:
 1107              		.loc 3 416 3 view .LVU399
 1108              	.LBB138:
 1109              	.LBI138:
 1110              		.loc 3 341 25 view .LVU400
 1111              	.LBB139:
 1112              		.loc 3 343 3 view .LVU401
 1113              	.LBE139:
 1114              	.LBE138:
 1115              	.LBE137:
 1116              	.LBE136:
 1117              		.loc 1 237 12 is_stmt 0 view .LVU402
 1118 000e 5207     		lsls	r2, r2, #29
 1119 0010 0AD4     		bmi	.L20
 1120              	.LVL84:
 1121              	.L22:
 1122              		.loc 1 238 9 is_stmt 1 view .LVU403
 1123 0012 FFF7FEFF 		bl	drv_display_update
 1124              	.LVL85:
 1125              		.loc 1 239 9 view .LVU404
 1126 0016 4FF4A570 		mov	r0, #330
 1127 001a FFF7FEFF 		bl	chThdSleep
 1128              	.LVL86:
 1129              		.loc 1 237 12 view .LVU405
 1130              	.LBB143:
 1131              		.loc 3 414 20 view .LVU406
 1132              	.LBB142:
 1133              		.loc 3 416 3 view .LVU407
 1134              	.LBB141:
 1135              		.loc 3 341 25 view .LVU408
 1136              	.LBB140:
 1137              		.loc 3 343 3 view .LVU409
 1138              	.LBE140:
 1139              	.LBE141:
ARM GAS  C:\Users\DEVELO~1\AppData\Local\Temp\cc1sxxVb.s 			page 21


 1140              		.loc 3 416 33 is_stmt 0 view .LVU410
 1141 001e E368     		ldr	r3, [r4, #12]
 1142              	.LBE142:
 1143              	.LBE143:
 1144              		.loc 1 237 12 view .LVU411
 1145 0020 93F82530 		ldrb	r3, [r3, #37]	@ zero_extendqisi2
 1146 0024 5B07     		lsls	r3, r3, #29
 1147 0026 F4D5     		bpl	.L22
 1148              	.L20:
 1149              		.loc 1 241 1 view .LVU412
 1150 0028 10BD     		pop	{r4, pc}
 1151              	.L27:
 1152 002a 00BF     		.align	2
 1153              	.L26:
 1154 002c 00000000 		.word	ch0
 1155 0030 00000000 		.word	.LC0
 1156              		.cfi_endproc
 1157              	.LFE446:
 1158              		.size	displayThread, .-displayThread
 1159              		.section	.text.drv_display_set_font,"ax",%progbits
 1160              		.align	1
 1161              		.p2align 4,,15
 1162              		.global	drv_display_set_font
 1163              		.syntax unified
 1164              		.thumb
 1165              		.thumb_func
 1166              		.type	drv_display_set_font, %function
 1167              	drv_display_set_font:
 1168              	.LVL87:
 1169              	.LFB443:
 1170              		.loc 1 197 47 is_stmt 1 view -0
 1171              		.cfi_startproc
 1172              		@ args = 0, pretend = 0, frame = 0
 1173              		@ frame_needed = 0, uses_anonymous_args = 0
 1174              		@ link register save eliminated.
 1175              		.loc 1 198 5 view .LVU414
 1176              		.loc 1 198 18 is_stmt 0 view .LVU415
 1177 0000 014B     		ldr	r3, .L29
 1178 0002 1860     		str	r0, [r3]
 1179              		.loc 1 199 1 view .LVU416
 1180 0004 7047     		bx	lr
 1181              	.L30:
 1182 0006 00BF     		.align	2
 1183              	.L29:
 1184 0008 00000000 		.word	.LANCHOR2
 1185              		.cfi_endproc
 1186              	.LFE443:
 1187              		.size	drv_display_set_font, .-drv_display_set_font
 1188              		.section	.text.drv_display_draw_char,"ax",%progbits
 1189              		.align	1
 1190              		.p2align 4,,15
 1191              		.global	drv_display_draw_char
 1192              		.syntax unified
 1193              		.thumb
 1194              		.thumb_func
 1195              		.type	drv_display_draw_char, %function
 1196              	drv_display_draw_char:
ARM GAS  C:\Users\DEVELO~1\AppData\Local\Temp\cc1sxxVb.s 			page 22


 1197              	.LVL88:
 1198              	.LFB444:
 1199              		.loc 1 201 58 is_stmt 1 view -0
 1200              		.cfi_startproc
 1201              		@ args = 0, pretend = 0, frame = 8
 1202              		@ frame_needed = 0, uses_anonymous_args = 0
 1203              		.loc 1 202 5 view .LVU418
 1204              		.loc 1 201 58 is_stmt 0 view .LVU419
 1205 0000 2DE9F04F 		push	{r4, r5, r6, r7, r8, r9, r10, fp, lr}
 1206              		.cfi_def_cfa_offset 36
 1207              		.cfi_offset 4, -36
 1208              		.cfi_offset 5, -32
 1209              		.cfi_offset 6, -28
 1210              		.cfi_offset 7, -24
 1211              		.cfi_offset 8, -20
 1212              		.cfi_offset 9, -16
 1213              		.cfi_offset 10, -12
 1214              		.cfi_offset 11, -8
 1215              		.cfi_offset 14, -4
 1216              		.loc 1 202 9 view .LVU420
 1217 0004 2E4F     		ldr	r7, .L50
 1218              		.loc 1 201 58 view .LVU421
 1219 0006 83B0     		sub	sp, sp, #12
 1220              		.cfi_def_cfa_offset 48
 1221              		.loc 1 202 9 view .LVU422
 1222 0008 D7F800B0 		ldr	fp, [r7]
 1223              		.loc 1 201 58 view .LVU423
 1224 000c 0190     		str	r0, [sp, #4]
 1225              		.loc 1 202 8 view .LVU424
 1226 000e BBF1000F 		cmp	fp, #0
 1227 0012 4FD0     		beq	.L31
 1228              		.loc 1 204 8 view .LVU425
 1229 0014 9BF80630 		ldrb	r3, [fp, #6]	@ zero_extendqisi2
 1230 0018 0D46     		mov	r5, r1
 1231 001a 9146     		mov	r9, r2
 1232              		.loc 1 204 5 is_stmt 1 view .LVU426
 1233              		.loc 1 204 8 is_stmt 0 view .LVU427
 1234 001c 9342     		cmp	r3, r2
 1235 001e 4CD8     		bhi	.L40
 1236              		.loc 1 204 42 discriminator 1 view .LVU428
 1237 0020 9BF80730 		ldrb	r3, [fp, #7]	@ zero_extendqisi2
 1238              		.loc 1 205 11 discriminator 1 view .LVU429
 1239 0024 9342     		cmp	r3, r2
 1240 0026 38BF     		it	cc
 1241 0028 4FF03F09 		movcc	r9, #63
 1242              	.L33:
 1243              	.LVL89:
 1244              		.loc 1 207 5 is_stmt 1 view .LVU430
 1245              	.LBB149:
 1246              		.loc 1 207 10 view .LVU431
 1247              		.loc 1 207 31 view .LVU432
 1248 002c 9BF80430 		ldrb	r3, [fp, #4]	@ zero_extendqisi2
 1249 0030 002B     		cmp	r3, #0
 1250 0032 3FD0     		beq	.L31
 1251 0034 0024     		movs	r4, #0
 1252 0036 AA46     		mov	r10, r5
 1253              	.LBB150:
ARM GAS  C:\Users\DEVELO~1\AppData\Local\Temp\cc1sxxVb.s 			page 23


 1254              	.LBB151:
 1255              	.LBB152:
 1256              	.LBB153:
 1257              		.loc 1 123 27 is_stmt 0 view .LVU433
 1258 0038 224E     		ldr	r6, .L50+4
 1259              		.loc 1 121 25 view .LVU434
 1260 003a 4FF00108 		mov	r8, #1
 1261 003e 2146     		mov	r1, r4
 1262              	.LVL90:
 1263              		.loc 1 121 25 view .LVU435
 1264 0040 2546     		mov	r5, r4
 1265              	.LVL91:
 1266              	.L36:
 1267              		.loc 1 121 25 view .LVU436
 1268              	.LBE153:
 1269              	.LBE152:
 1270              	.LBE151:
 1271              		.loc 1 208 9 is_stmt 1 view .LVU437
 1272              		.loc 1 208 24 is_stmt 0 view .LVU438
 1273 0042 DBF80C30 		ldr	r3, [fp, #12]
 1274 0046 4846     		mov	r0, r9
 1275 0048 0091     		str	r1, [sp]
 1276 004a 9847     		blx	r3
 1277              	.LVL92:
 1278              	.LBB160:
 1279              		.loc 1 209 49 view .LVU439
 1280 004c D7F800B0 		ldr	fp, [r7]
 1281              	.LVL93:
 1282              		.loc 1 209 49 view .LVU440
 1283              	.LBE160:
 1284              		.loc 1 209 9 is_stmt 1 view .LVU441
 1285              	.LBB161:
 1286              		.loc 1 209 14 view .LVU442
 1287              		.loc 1 209 35 view .LVU443
 1288 0050 0099     		ldr	r1, [sp]
 1289 0052 9BF80540 		ldrb	r4, [fp, #5]	@ zero_extendqisi2
 1290 0056 3CB3     		cbz	r4, .L39
 1291              		.loc 1 211 17 is_stmt 0 view .LVU444
 1292 0058 019B     		ldr	r3, [sp, #4]
 1293              		.loc 1 210 17 view .LVU445
 1294 005a 0022     		movs	r2, #0
 1295              		.loc 1 211 17 view .LVU446
 1296 005c 1944     		add	r1, r1, r3
 1297 005e 1346     		mov	r3, r2
 1298 0060 02E0     		b	.L38
 1299              	.LVL94:
 1300              	.L37:
 1301              		.loc 1 209 35 discriminator 2 view .LVU447
 1302 0062 D3B2     		uxtb	r3, r2
 1303 0064 9C42     		cmp	r4, r3
 1304 0066 1FD9     		bls	.L39
 1305              	.L38:
 1306              	.LVL95:
 1307              		.loc 1 210 13 is_stmt 1 view .LVU448
 1308              		.loc 1 209 62 view .LVU449
 1309              		.loc 1 209 35 view .LVU450
 1310              		.loc 1 210 17 is_stmt 0 view .LVU451
ARM GAS  C:\Users\DEVELO~1\AppData\Local\Temp\cc1sxxVb.s 			page 24


 1311 0068 20FA03FC 		lsr	ip, r0, r3
 1312              		.loc 1 209 35 view .LVU452
 1313 006c 0132     		adds	r2, r2, #1
 1314              	.LVL96:
 1315              		.loc 1 210 16 view .LVU453
 1316 006e 1CF0010F 		tst	ip, #1
 1317 0072 F6D0     		beq	.L37
 1318              		.loc 1 211 17 is_stmt 1 view .LVU454
 1319              	.LBB157:
 1320              	.LBB154:
 1321              		.loc 1 120 5 view .LVU455
 1322              		.loc 1 121 5 view .LVU456
 1323              	.LBE154:
 1324              	.LBE157:
 1325              		.loc 1 211 17 is_stmt 0 view .LVU457
 1326 0074 5344     		add	r3, r3, r10
 1327              	.LVL97:
 1328              	.LBB158:
 1329              	.LBI152:
 1330              		.loc 1 116 20 is_stmt 1 view .LVU458
 1331              	.LBB155:
 1332              		.loc 1 117 5 view .LVU459
 1333              		.loc 1 123 5 view .LVU460
 1334              		.loc 1 123 13 view .LVU461
 1335              		.loc 1 117 49 is_stmt 0 view .LVU462
 1336 0076 7F29     		cmp	r1, #127
 1337              		.loc 1 120 29 view .LVU463
 1338 0078 4FEAE30C 		asr	ip, r3, #3
 1339              		.loc 1 121 31 view .LVU464
 1340 007c 03F0070E 		and	lr, r3, #7
 1341              		.loc 1 117 49 view .LVU465
 1342 0080 EFD8     		bhi	.L37
 1343              		.loc 1 120 14 view .LVU466
 1344 0082 01EBCC1C 		add	ip, r1, ip, lsl #7
 1345              		.loc 1 117 49 view .LVU467
 1346 0086 3F2B     		cmp	r3, #63
 1347              		.loc 1 121 25 view .LVU468
 1348 0088 08FA0EFE 		lsl	lr, r8, lr
 1349              		.loc 1 123 27 view .LVU469
 1350 008c 1FFA8CFC 		uxth	ip, ip
 1351              		.loc 1 117 49 view .LVU470
 1352 0090 E7DC     		bgt	.L37
 1353              		.loc 1 123 27 view .LVU471
 1354 0092 16F80C30 		ldrb	r3, [r6, ip]	@ zero_extendqisi2
 1355              	.LVL98:
 1356              		.loc 1 123 27 view .LVU472
 1357 0096 4EEA030E 		orr	lr, lr, r3
 1358              	.LBE155:
 1359              	.LBE158:
 1360              		.loc 1 209 35 view .LVU473
 1361 009a D3B2     		uxtb	r3, r2
 1362              	.LBB159:
 1363              	.LBB156:
 1364              		.loc 1 123 27 view .LVU474
 1365 009c 06F80CE0 		strb	lr, [r6, ip]
 1366 00a0 9BF80540 		ldrb	r4, [fp, #5]	@ zero_extendqisi2
 1367              	.LBE156:
ARM GAS  C:\Users\DEVELO~1\AppData\Local\Temp\cc1sxxVb.s 			page 25


 1368              	.LBE159:
 1369              		.loc 1 209 35 view .LVU475
 1370 00a4 9C42     		cmp	r4, r3
 1371 00a6 DFD8     		bhi	.L38
 1372              	.LVL99:
 1373              	.L39:
 1374              		.loc 1 209 35 view .LVU476
 1375              	.LBE161:
 1376              	.LBE150:
 1377              		.loc 1 207 57 is_stmt 1 view .LVU477
 1378              		.loc 1 207 31 view .LVU478
 1379 00a8 0135     		adds	r5, r5, #1
 1380              	.LVL100:
 1381              		.loc 1 207 31 is_stmt 0 view .LVU479
 1382 00aa 9BF80430 		ldrb	r3, [fp, #4]	@ zero_extendqisi2
 1383 00ae E9B2     		uxtb	r1, r5
 1384 00b0 8B42     		cmp	r3, r1
 1385 00b2 C6D8     		bhi	.L36
 1386              	.LVL101:
 1387              	.L31:
 1388              		.loc 1 207 31 view .LVU480
 1389              	.LBE149:
 1390              		.loc 1 214 1 view .LVU481
 1391 00b4 03B0     		add	sp, sp, #12
 1392              		.cfi_remember_state
 1393              		.cfi_def_cfa_offset 36
 1394              		@ sp needed
 1395 00b6 BDE8F08F 		pop	{r4, r5, r6, r7, r8, r9, r10, fp, pc}
 1396              	.LVL102:
 1397              	.L40:
 1398              		.cfi_restore_state
 1399              		.loc 1 205 11 view .LVU482
 1400 00ba 4FF03F09 		mov	r9, #63
 1401 00be B5E7     		b	.L33
 1402              	.L51:
 1403              		.align	2
 1404              	.L50:
 1405 00c0 00000000 		.word	.LANCHOR2
 1406 00c4 00000000 		.word	.LANCHOR0
 1407              		.cfi_endproc
 1408              	.LFE444:
 1409              		.size	drv_display_draw_char, .-drv_display_draw_char
 1410              		.section	.text.drv_display_draw_text,"ax",%progbits
 1411              		.align	1
 1412              		.p2align 4,,15
 1413              		.global	drv_display_draw_text
 1414              		.syntax unified
 1415              		.thumb
 1416              		.thumb_func
 1417              		.type	drv_display_draw_text, %function
 1418              	drv_display_draw_text:
 1419              	.LVL103:
 1420              	.LFB445:
 1421              		.loc 1 216 67 is_stmt 1 view -0
 1422              		.cfi_startproc
 1423              		@ args = 0, pretend = 0, frame = 0
 1424              		@ frame_needed = 0, uses_anonymous_args = 0
ARM GAS  C:\Users\DEVELO~1\AppData\Local\Temp\cc1sxxVb.s 			page 26


 1425              		.loc 1 217 5 view .LVU484
 1426              		.loc 1 216 67 is_stmt 0 view .LVU485
 1427 0000 F8B5     		push	{r3, r4, r5, r6, r7, lr}
 1428              		.cfi_def_cfa_offset 24
 1429              		.cfi_offset 3, -24
 1430              		.cfi_offset 4, -20
 1431              		.cfi_offset 5, -16
 1432              		.cfi_offset 6, -12
 1433              		.cfi_offset 7, -8
 1434              		.cfi_offset 14, -4
 1435              		.loc 1 217 9 view .LVU486
 1436 0002 0D4B     		ldr	r3, .L65
 1437 0004 1B68     		ldr	r3, [r3]
 1438              		.loc 1 217 23 view .LVU487
 1439 0006 AAB1     		cbz	r2, .L52
 1440 0008 A3B1     		cbz	r3, .L52
 1441              		.loc 1 219 5 is_stmt 1 view .LVU488
 1442              		.loc 1 219 13 is_stmt 0 view .LVU489
 1443 000a 1E79     		ldrb	r6, [r3, #4]	@ zero_extendqisi2
 1444 000c 1546     		mov	r5, r2
 1445 000e 1B7A     		ldrb	r3, [r3, #8]	@ zero_extendqisi2
 1446              		.loc 1 221 12 view .LVU490
 1447 0010 1278     		ldrb	r2, [r2]	@ zero_extendqisi2
 1448              	.LVL104:
 1449              		.loc 1 219 13 view .LVU491
 1450 0012 1E44     		add	r6, r6, r3
 1451 0014 F6B2     		uxtb	r6, r6
 1452              	.LVL105:
 1453              		.loc 1 221 5 is_stmt 1 view .LVU492
 1454              		.loc 1 221 17 view .LVU493
 1455 0016 6AB1     		cbz	r2, .L52
 1456 0018 0446     		mov	r4, r0
 1457 001a 0F46     		mov	r7, r1
 1458 001c 08E0     		b	.L63
 1459              	.LVL106:
 1460              	.L64:
 1461              		.loc 1 222 9 view .LVU494
 1462              		.loc 1 222 9 is_stmt 0 view .LVU495
 1463 001e 2046     		mov	r0, r4
 1464 0020 3946     		mov	r1, r7
 1465              		.loc 1 223 11 view .LVU496
 1466 0022 3444     		add	r4, r4, r6
 1467              	.LVL107:
 1468              		.loc 1 222 9 view .LVU497
 1469 0024 FFF7FEFF 		bl	drv_display_draw_char
 1470              	.LVL108:
 1471              		.loc 1 223 9 is_stmt 1 view .LVU498
 1472              		.loc 1 221 12 is_stmt 0 view .LVU499
 1473 0028 15F8012F 		ldrb	r2, [r5, #1]!	@ zero_extendqisi2
 1474              	.LVL109:
 1475              		.loc 1 223 11 view .LVU500
 1476 002c E4B2     		uxtb	r4, r4
 1477              	.LVL110:
 1478              		.loc 1 221 17 is_stmt 1 view .LVU501
 1479 002e 0AB1     		cbz	r2, .L52
 1480              	.LVL111:
 1481              	.L63:
ARM GAS  C:\Users\DEVELO~1\AppData\Local\Temp\cc1sxxVb.s 			page 27


 1482              		.loc 1 221 17 is_stmt 0 view .LVU502
 1483 0030 2306     		lsls	r3, r4, #24
 1484 0032 F4D5     		bpl	.L64
 1485              	.LVL112:
 1486              	.L52:
 1487              		.loc 1 225 1 view .LVU503
 1488 0034 F8BD     		pop	{r3, r4, r5, r6, r7, pc}
 1489              	.L66:
 1490 0036 00BF     		.align	2
 1491              	.L65:
 1492 0038 00000000 		.word	.LANCHOR2
 1493              		.cfi_endproc
 1494              	.LFE445:
 1495              		.size	drv_display_draw_text, .-drv_display_draw_text
 1496              		.section	.text.drv_display_start,"ax",%progbits
 1497              		.align	1
 1498              		.p2align 4,,15
 1499              		.global	drv_display_start
 1500              		.syntax unified
 1501              		.thumb
 1502              		.thumb_func
 1503              		.type	drv_display_start, %function
 1504              	drv_display_start:
 1505              	.LFB447:
 1506              		.loc 1 243 30 is_stmt 1 view -0
 1507              		.cfi_startproc
 1508              		@ args = 0, pretend = 0, frame = 0
 1509              		@ frame_needed = 0, uses_anonymous_args = 0
 1510              		.loc 1 244 5 view .LVU505
 1511              		.loc 1 243 30 is_stmt 0 view .LVU506
 1512 0000 30B5     		push	{r4, r5, lr}
 1513              		.cfi_def_cfa_offset 12
 1514              		.cfi_offset 4, -12
 1515              		.cfi_offset 5, -8
 1516              		.cfi_offset 14, -4
 1517              		.loc 1 244 20 view .LVU507
 1518 0002 0D4D     		ldr	r5, .L71
 1519              		.loc 1 243 30 view .LVU508
 1520 0004 83B0     		sub	sp, sp, #12
 1521              		.cfi_def_cfa_offset 24
 1522              		.loc 1 244 8 view .LVU509
 1523 0006 2C68     		ldr	r4, [r5]
 1524 0008 0CB1     		cbz	r4, .L70
 1525              		.loc 1 258 1 view .LVU510
 1526 000a 03B0     		add	sp, sp, #12
 1527              		.cfi_remember_state
 1528              		.cfi_def_cfa_offset 12
 1529              		@ sp needed
 1530 000c 30BD     		pop	{r4, r5, pc}
 1531              	.L70:
 1532              		.cfi_restore_state
 1533              		.loc 1 247 5 is_stmt 1 view .LVU511
 1534 000e FFF7FEFF 		bl	drv_display_init
 1535              	.LVL113:
 1536              		.loc 1 248 5 view .LVU512
 1537              	.LBB162:
 1538              	.LBI162:
ARM GAS  C:\Users\DEVELO~1\AppData\Local\Temp\cc1sxxVb.s 			page 28


 1539              		.loc 1 176 6 view .LVU513
 1540              	.LBB163:
 1541              		.loc 1 177 5 view .LVU514
 1542 0012 2146     		mov	r1, r4
 1543 0014 4FF48062 		mov	r2, #1024
 1544 0018 0848     		ldr	r0, .L71+4
 1545 001a FFF7FEFF 		bl	memset
 1546              	.LVL114:
 1547              	.LBE163:
 1548              	.LBE162:
 1549              		.loc 1 249 5 view .LVU515
 1550 001e FFF7FEFF 		bl	drv_display_update
 1551              	.LVL115:
 1552              		.loc 1 251 5 view .LVU516
 1553              		.loc 1 251 18 is_stmt 0 view .LVU517
 1554 0022 074B     		ldr	r3, .L71+8
 1555 0024 8022     		movs	r2, #128
 1556 0026 4FF43C71 		mov	r1, #752
 1557 002a 0094     		str	r4, [sp]
 1558 002c 0548     		ldr	r0, .L71+12
 1559 002e FFF7FEFF 		bl	chThdCreateStatic
 1560              	.LVL116:
 1561              		.loc 1 251 16 view .LVU518
 1562 0032 2860     		str	r0, [r5]
 1563              		.loc 1 258 1 view .LVU519
 1564 0034 03B0     		add	sp, sp, #12
 1565              		.cfi_def_cfa_offset 12
 1566              		@ sp needed
 1567 0036 30BD     		pop	{r4, r5, pc}
 1568              	.L72:
 1569              		.align	2
 1570              	.L71:
 1571 0038 00000000 		.word	.LANCHOR3
 1572 003c 00000000 		.word	.LANCHOR0
 1573 0040 00000000 		.word	displayThread
 1574 0044 00000000 		.word	.LANCHOR4
 1575              		.cfi_endproc
 1576              	.LFE447:
 1577              		.size	drv_display_start, .-drv_display_start
 1578              		.section	.text.drv_display_stop,"ax",%progbits
 1579              		.align	1
 1580              		.p2align 4,,15
 1581              		.global	drv_display_stop
 1582              		.syntax unified
 1583              		.thumb
 1584              		.thumb_func
 1585              		.type	drv_display_stop, %function
 1586              	drv_display_stop:
 1587              	.LFB448:
 1588              		.loc 1 260 29 is_stmt 1 view -0
 1589              		.cfi_startproc
 1590              		@ args = 0, pretend = 0, frame = 0
 1591              		@ frame_needed = 0, uses_anonymous_args = 0
 1592              		.loc 1 261 5 view .LVU521
 1593              		.loc 1 260 29 is_stmt 0 view .LVU522
 1594 0000 10B5     		push	{r4, lr}
 1595              		.cfi_def_cfa_offset 8
ARM GAS  C:\Users\DEVELO~1\AppData\Local\Temp\cc1sxxVb.s 			page 29


 1596              		.cfi_offset 4, -8
 1597              		.cfi_offset 14, -4
 1598              		.loc 1 261 9 view .LVU523
 1599 0002 054C     		ldr	r4, .L79
 1600 0004 2068     		ldr	r0, [r4]
 1601              		.loc 1 261 8 view .LVU524
 1602 0006 30B1     		cbz	r0, .L73
 1603              		.loc 1 264 5 is_stmt 1 view .LVU525
 1604 0008 FFF7FEFF 		bl	chThdTerminate
 1605              	.LVL117:
 1606              		.loc 1 265 5 view .LVU526
 1607 000c 2068     		ldr	r0, [r4]
 1608 000e FFF7FEFF 		bl	chThdWait
 1609              	.LVL118:
 1610              		.loc 1 266 5 view .LVU527
 1611              		.loc 1 266 16 is_stmt 0 view .LVU528
 1612 0012 0023     		movs	r3, #0
 1613 0014 2360     		str	r3, [r4]
 1614              	.L73:
 1615              		.loc 1 267 1 view .LVU529
 1616 0016 10BD     		pop	{r4, pc}
 1617              	.L80:
 1618              		.align	2
 1619              	.L79:
 1620 0018 00000000 		.word	.LANCHOR3
 1621              		.cfi_endproc
 1622              	.LFE448:
 1623              		.size	drv_display_stop, .-drv_display_stop
 1624              		.section	.bss.buffer,"aw",%nobits
 1625              		.align	2
 1626              		.set	.LANCHOR0,. + 0
 1627              		.type	buffer, %object
 1628              		.size	buffer, 1024
 1629              	buffer:
 1630 0000 00000000 		.space	1024
 1630      00000000 
 1630      00000000 
 1630      00000000 
 1630      00000000 
 1631              		.section	.bss.current_font,"aw",%nobits
 1632              		.align	2
 1633              		.set	.LANCHOR2,. + 0
 1634              		.type	current_font, %object
 1635              		.size	current_font, 4
 1636              	current_font:
 1637 0000 00000000 		.space	4
 1638              		.section	.bss.display_tp,"aw",%nobits
 1639              		.align	2
 1640              		.set	.LANCHOR3,. + 0
 1641              		.type	display_tp, %object
 1642              		.size	display_tp, 4
 1643              	display_tp:
 1644 0000 00000000 		.space	4
 1645              		.section	.bss.waDisplay,"aw",%nobits
 1646              		.align	3
 1647              		.set	.LANCHOR4,. + 0
 1648              		.type	waDisplay, %object
ARM GAS  C:\Users\DEVELO~1\AppData\Local\Temp\cc1sxxVb.s 			page 30


 1649              		.size	waDisplay, 752
 1650              	waDisplay:
 1651 0000 00000000 		.space	752
 1651      00000000 
 1651      00000000 
 1651      00000000 
 1651      00000000 
 1652              		.section	.rodata.spicfg,"a"
 1653              		.align	2
 1654              		.set	.LANCHOR1,. + 0
 1655              		.type	spicfg, %object
 1656              		.size	spicfg, 28
 1657              	spicfg:
 1658 0000 00       		.byte	0
 1659 0001 00       		.byte	0
 1660 0002 0000     		.space	2
 1661 0004 00000000 		.word	0
 1662 0008 00000000 		.word	0
 1663 000c 00000000 		.space	8
 1663      00000000 
 1664 0014 07000040 		.word	1073741831
 1665 0018 00004004 		.word	71303168
 1666              		.text
 1667              	.Letext0:
 1668              		.file 4 "c:\\chibistudio\\tools\\gnu tools arm embedded\\11.3 2022.08\\lib\\gcc\\arm-none-eabi\\11
 1669              		.file 5 "c:\\chibistudio\\tools\\gnu tools arm embedded\\11.3 2022.08\\arm-none-eabi\\include\\mac
 1670              		.file 6 "c:\\chibistudio\\tools\\gnu tools arm embedded\\11.3 2022.08\\arm-none-eabi\\include\\sys
 1671              		.file 7 "c:\\chibistudio\\tools\\gnu tools arm embedded\\11.3 2022.08\\arm-none-eabi\\include\\std
 1672              		.file 8 "../../../os/common/ports/ARM-common/chtypes.h"
 1673              		.file 9 "../../../os/rt/include/chearly.h"
 1674              		.file 10 "../../../os/rt/include/chobjects.h"
 1675              		.file 11 "../../../os/rt/include/chrfcu.h"
 1676              		.file 12 "../../../os/rt/include/chdebug.h"
 1677              		.file 13 "../../../os/rt/include/chtime.h"
 1678              		.file 14 "../../../os/rt/include/chlists.h"
 1679              		.file 15 "../../../os/rt/include/chtrace.h"
 1680              		.file 16 "../../../os/common/ext/ST/STM32H7xx/stm32h743xx.h"
 1681              		.file 17 "../../../os/common/ports/ARMv7-M/chcore.h"
 1682              		.file 18 "../../../os/rt/include/chsem.h"
 1683              		.file 19 "../../../os/rt/include/chmtx.h"
 1684              		.file 20 "../../../os/hal/ports/STM32/LLD/DMAv2/stm32_dma.h"
 1685              		.file 21 "../../../os/hal/ports/STM32/LLD/BDMAv1/stm32_bdma.h"
 1686              		.file 22 "../../../os/hal/ports/STM32/LLD/GPIOv2/stm32_gpio.h"
 1687              		.file 23 "../../../os/hal/ports/STM32/LLD/GPIOv2/hal_pal_lld.h"
 1688              		.file 24 "../../../os/hal/include/hal_spi_v2.h"
 1689              		.file 25 "ui/font.h"
 1690              		.file 26 "../../../os/hal/ports/STM32/LLD/SPIv3/hal_spi_v2_lld.h"
 1691              		.file 27 "drivers/spi5_bus.h"
 1692              		.file 28 "c:\\chibistudio\\tools\\gnu tools arm embedded\\11.3 2022.08\\arm-none-eabi\\include\\st
 1693              		.file 29 "../../../os/rt/include/chsys.h"
 1694              		.file 30 "<built-in>"