ARM GAS  C:\Users\DEVELO~1\AppData\Local\Temp\ccuPdkMV.s 			page 1


   1              		.cpu cortex-m7
   2              		.arch armv7e-m
   3              		.fpu softvfp
   4              		.eabi_attribute 20, 1
   5              		.eabi_attribute 21, 1
   6              		.eabi_attribute 23, 3
   7              		.eabi_attribute 24, 1
   8              		.eabi_attribute 25, 1
   9              		.eabi_attribute 26, 1
  10              		.eabi_attribute 30, 2
  11              		.eabi_attribute 34, 1
  12              		.eabi_attribute 18, 4
  13              		.file	"font.c"
  14              		.text
  15              	.Ltext0:
  16              		.cfi_sections	.debug_frame
  17              		.section	.text.get_col_5x7,"ax",%progbits
  18              		.align	1
  19              		.p2align 4,,15
  20              		.syntax unified
  21              		.thumb
  22              		.thumb_func
  23              		.type	get_col_5x7, %function
  24              	get_col_5x7:
  25              	.LVL0:
  26              	.LFB0:
  27              		.file 1 "ui/font.c"
  28              		.loc 1 37 49 view -0
  29              		.cfi_startproc
  30              		@ args = 0, pretend = 0, frame = 0
  31              		@ frame_needed = 0, uses_anonymous_args = 0
  32              		@ link register save eliminated.
  33              		.loc 1 38 5 view .LVU1
  34              		.loc 1 39 5 view .LVU2
  35              		.loc 1 38 16 is_stmt 0 view .LVU3
  36 0000 2038     		subs	r0, r0, #32
  37              	.LVL1:
  38              		.loc 1 38 8 view .LVU4
  39 0002 C3B2     		uxtb	r3, r0
  40              		.loc 1 39 8 view .LVU5
  41 0004 5E2B     		cmp	r3, #94
  42 0006 07D8     		bhi	.L3
  43 0008 0429     		cmp	r1, #4
  44 000a 05D8     		bhi	.L3
  45              		.loc 1 40 5 is_stmt 1 view .LVU6
  46              		.loc 1 40 36 is_stmt 0 view .LVU7
  47 000c 00EB8000 		add	r0, r0, r0, lsl #2
  48 0010 024B     		ldr	r3, .L5
  49 0012 0344     		add	r3, r3, r0
  50 0014 585C     		ldrb	r0, [r3, r1]	@ zero_extendqisi2
  51 0016 7047     		bx	lr
  52              	.L3:
  53              		.loc 1 39 26 view .LVU8
  54 0018 0020     		movs	r0, #0
  55              		.loc 1 41 1 view .LVU9
  56 001a 7047     		bx	lr
  57              	.L6:
ARM GAS  C:\Users\DEVELO~1\AppData\Local\Temp\ccuPdkMV.s 			page 2


  58              		.align	2
  59              	.L5:
  60 001c 00000000 		.word	font5x7
  61              		.cfi_endproc
  62              	.LFE0:
  63              		.size	get_col_5x7, .-get_col_5x7
  64              		.section	.text.get_col_5x8_elektron,"ax",%progbits
  65              		.align	1
  66              		.p2align 4,,15
  67              		.syntax unified
  68              		.thumb
  69              		.thumb_func
  70              		.type	get_col_5x8_elektron, %function
  71              	get_col_5x8_elektron:
  72              	.LVL2:
  73              	.LFB1:
  74              		.loc 1 55 58 is_stmt 1 view -0
  75              		.cfi_startproc
  76              		@ args = 0, pretend = 0, frame = 0
  77              		@ frame_needed = 0, uses_anonymous_args = 0
  78              		@ link register save eliminated.
  79              		.loc 1 56 5 view .LVU11
  80              		.loc 1 57 5 view .LVU12
  81              		.loc 1 56 41 is_stmt 0 view .LVU13
  82 0000 2038     		subs	r0, r0, #32
  83              	.LVL3:
  84              		.loc 1 56 8 view .LVU14
  85 0002 C3B2     		uxtb	r3, r0
  86              		.loc 1 57 8 view .LVU15
  87 0004 5E2B     		cmp	r3, #94
  88 0006 08D8     		bhi	.L9
  89 0008 0429     		cmp	r1, #4
  90 000a 06D8     		bhi	.L9
  91              		.loc 1 58 5 is_stmt 1 view .LVU16
  92              		.loc 1 58 61 is_stmt 0 view .LVU17
  93 000c 00EB4000 		add	r0, r0, r0, lsl #1
  94 0010 034B     		ldr	r3, .L10
  95 0012 03EB4003 		add	r3, r3, r0, lsl #1
  96 0016 585C     		ldrb	r0, [r3, r1]	@ zero_extendqisi2
  97 0018 7047     		bx	lr
  98              	.L9:
  99              		.loc 1 57 26 view .LVU18
 100 001a 0020     		movs	r0, #0
 101              		.loc 1 59 1 view .LVU19
 102 001c 7047     		bx	lr
 103              	.L11:
 104 001e 00BF     		.align	2
 105              	.L10:
 106 0020 00000000 		.word	font5x8_elektron
 107              		.cfi_endproc
 108              	.LFE1:
 109              		.size	get_col_5x8_elektron, .-get_col_5x8_elektron
 110              		.section	.text.get_col_4x6,"ax",%progbits
 111              		.align	1
 112              		.p2align 4,,15
 113              		.syntax unified
 114              		.thumb
ARM GAS  C:\Users\DEVELO~1\AppData\Local\Temp\ccuPdkMV.s 			page 3


 115              		.thumb_func
 116              		.type	get_col_4x6, %function
 117              	get_col_4x6:
 118              	.LVL4:
 119              	.LFB3:
 120              		.loc 1 92 49 is_stmt 1 view -0
 121              		.cfi_startproc
 122              		@ args = 0, pretend = 0, frame = 0
 123              		@ frame_needed = 0, uses_anonymous_args = 0
 124              		.loc 1 93 5 view .LVU21
 125              		.loc 1 94 5 view .LVU22
 126              		.loc 1 92 49 is_stmt 0 view .LVU23
 127 0000 2DE9F04F 		push	{r4, r5, r6, r7, r8, r9, r10, fp, lr}
 128              		.cfi_def_cfa_offset 36
 129              		.cfi_offset 4, -36
 130              		.cfi_offset 5, -32
 131              		.cfi_offset 6, -28
 132              		.cfi_offset 7, -24
 133              		.cfi_offset 8, -20
 134              		.cfi_offset 9, -16
 135              		.cfi_offset 10, -12
 136              		.cfi_offset 11, -8
 137              		.cfi_offset 14, -4
 138              		.loc 1 93 16 view .LVU24
 139 0004 A0F12007 		sub	r7, r0, #32
 140              		.loc 1 93 8 view .LVU25
 141 0008 FBB2     		uxtb	r3, r7
 142              		.loc 1 94 8 view .LVU26
 143 000a 5E2B     		cmp	r3, #94
 144 000c 0FD8     		bhi	.L21
 145 000e 0329     		cmp	r1, #3
 146 0010 8846     		mov	r8, r1
 147 0012 0CD8     		bhi	.L21
 148              	.LVL5:
 149              	.LBB12:
 150              	.LBI12:
 151              		.loc 1 92 16 is_stmt 1 view .LVU27
 152              	.LBB13:
 153              		.loc 1 95 5 view .LVU28
 154              		.loc 1 95 9 is_stmt 0 view .LVU29
 155 0014 DFF87CA0 		ldr	r10, .L31
 156 0018 DFF87C90 		ldr	r9, .L31+4
 157              		.loc 1 95 8 view .LVU30
 158 001c 9AF80030 		ldrb	r3, [r10]	@ zero_extendqisi2
 159 0020 43B1     		cbz	r3, .L29
 160              	.LVL6:
 161              	.L14:
 162              		.loc 1 96 5 is_stmt 1 view .LVU31
 163              		.loc 1 96 45 is_stmt 0 view .LVU32
 164 0022 09EB8709 		add	r9, r9, r7, lsl #2
 165 0026 19F80800 		ldrb	r0, [r9, r8]	@ zero_extendqisi2
 166              	.LVL7:
 167              		.loc 1 96 45 view .LVU33
 168              	.LBE13:
 169              	.LBE12:
 170              		.loc 1 97 1 view .LVU34
 171 002a BDE8F08F 		pop	{r4, r5, r6, r7, r8, r9, r10, fp, pc}
ARM GAS  C:\Users\DEVELO~1\AppData\Local\Temp\ccuPdkMV.s 			page 4


 172              	.LVL8:
 173              	.L21:
 174              		.loc 1 94 26 view .LVU35
 175 002e 0020     		movs	r0, #0
 176              	.LVL9:
 177              		.loc 1 97 1 view .LVU36
 178 0030 BDE8F08F 		pop	{r4, r5, r6, r7, r8, r9, r10, fp, pc}
 179              	.LVL10:
 180              	.L29:
 181              		.loc 1 97 1 view .LVU37
 182 0034 4946     		mov	r1, r9
 183              	.LVL11:
 184              		.loc 1 97 1 view .LVU38
 185 0036 194C     		ldr	r4, .L31+8
 186 0038 09F5BE76 		add	r6, r9, #380
 187              	.LBB33:
 188              	.LBB32:
 189              	.LBB14:
 190              	.LBB15:
 191              	.LBB16:
 192              	.LBB17:
 193              	.LBB18:
 194              	.LBB19:
 195              	.LBB20:
 196              	.LBB21:
 197              		.loc 1 78 58 view .LVU39
 198 003c 0125     		movs	r5, #1
 199              	.LVL12:
 200              	.L20:
 201              		.loc 1 78 58 view .LVU40
 202              	.LBE21:
 203              	.LBE20:
 204              	.LBE19:
 205              	.LBE18:
 206              		.loc 1 68 9 is_stmt 1 view .LVU41
 207              		.loc 1 69 9 view .LVU42
 208              	.LBB30:
 209              		.loc 1 69 14 view .LVU43
 210              		.loc 1 69 35 view .LVU44
 211              	.LBE30:
 212              		.loc 1 68 24 is_stmt 0 view .LVU45
 213 003e 0023     		movs	r3, #0
 214              	.LVL13:
 215              	.L19:
 216              	.LBB31:
 217              	.LBB29:
 218              		.loc 1 70 13 is_stmt 1 view .LVU46
 219              		.loc 1 70 36 is_stmt 0 view .LVU47
 220 0040 C3F34602 		ubfx	r2, r3, #1, #7
 221              	.LBB26:
 222              	.LBB22:
 223              		.loc 1 76 39 view .LVU48
 224 0044 8E46     		mov	lr, r1
 225 0046 0020     		movs	r0, #0
 226              	.LBE22:
 227              	.LBE26:
 228              		.loc 1 70 21 view .LVU49
ARM GAS  C:\Users\DEVELO~1\AppData\Local\Temp\ccuPdkMV.s 			page 5


 229 0048 14F802C0 		ldrb	ip, [r4, r2]	@ zero_extendqisi2
 230              	.LVL14:
 231              		.loc 1 71 13 is_stmt 1 view .LVU50
 232              		.loc 1 71 21 is_stmt 0 view .LVU51
 233 004c DA07     		lsls	r2, r3, #31
 234              	.LBB27:
 235              	.LBB23:
 236              		.loc 1 78 58 view .LVU52
 237 004e 05FA03F2 		lsl	r2, r5, r3
 238              	.LBE23:
 239              	.LBE27:
 240              		.loc 1 71 21 view .LVU53
 241 0052 4CBF     		ite	mi
 242 0054 0CF00F0C 		andmi	ip, ip, #15
 243              	.LVL15:
 244              		.loc 1 71 21 view .LVU54
 245 0058 4FEA1C1C 		lsrpl	ip, ip, #4
 246              	.LVL16:
 247              		.loc 1 75 13 is_stmt 1 view .LVU55
 248              	.LBB28:
 249              		.loc 1 75 18 view .LVU56
 250              		.loc 1 75 39 view .LVU57
 251              	.LBB24:
 252              		.loc 1 78 51 is_stmt 0 view .LVU58
 253 005c D2B2     		uxtb	r2, r2
 254              	.LVL17:
 255              	.L18:
 256              		.loc 1 76 17 is_stmt 1 view .LVU59
 257              		.loc 1 77 17 view .LVU60
 258              		.loc 1 78 21 view .LVU61
 259              	.LBE24:
 260              		.loc 1 75 47 view .LVU62
 261              		.loc 1 75 39 view .LVU63
 262              	.LBB25:
 263              		.loc 1 76 39 is_stmt 0 view .LVU64
 264 005e 4CFA00FB 		asr	fp, ip, r0
 265              		.loc 1 77 20 view .LVU65
 266 0062 0130     		adds	r0, r0, #1
 267              	.LVL18:
 268              		.loc 1 77 20 view .LVU66
 269 0064 1BF0010F 		tst	fp, #1
 270 0068 05D0     		beq	.L17
 271              		.loc 1 78 51 view .LVU67
 272 006a 9EF800B0 		ldrb	fp, [lr]	@ zero_extendqisi2
 273 006e 42EA0B0B 		orr	fp, r2, fp
 274 0072 8EF800B0 		strb	fp, [lr]
 275              	.L17:
 276              	.LBE25:
 277              		.loc 1 75 39 view .LVU68
 278 0076 0428     		cmp	r0, #4
 279 0078 0EF1010E 		add	lr, lr, #1
 280 007c EFD1     		bne	.L18
 281              	.LBE28:
 282              	.LBE29:
 283              		.loc 1 69 43 is_stmt 1 view .LVU69
 284              	.LVL19:
 285              		.loc 1 69 35 view .LVU70
ARM GAS  C:\Users\DEVELO~1\AppData\Local\Temp\ccuPdkMV.s 			page 6


 286 007e 0133     		adds	r3, r3, #1
 287              	.LVL20:
 288              		.loc 1 69 35 is_stmt 0 view .LVU71
 289 0080 062B     		cmp	r3, #6
 290 0082 DDD1     		bne	.L19
 291              	.LBE31:
 292              	.LBE17:
 293              		.loc 1 67 33 is_stmt 1 view .LVU72
 294              		.loc 1 67 24 view .LVU73
 295 0084 0431     		adds	r1, r1, #4
 296 0086 0334     		adds	r4, r4, #3
 297              	.LVL21:
 298              		.loc 1 67 24 is_stmt 0 view .LVU74
 299 0088 B142     		cmp	r1, r6
 300 008a D8D1     		bne	.L20
 301              	.LBE16:
 302              		.loc 1 82 5 is_stmt 1 view .LVU75
 303              		.loc 1 82 19 is_stmt 0 view .LVU76
 304 008c 0123     		movs	r3, #1
 305              	.LVL22:
 306              		.loc 1 82 19 view .LVU77
 307 008e 8AF80030 		strb	r3, [r10]
 308              		.loc 1 83 1 view .LVU78
 309 0092 C6E7     		b	.L14
 310              	.L32:
 311              		.align	2
 312              	.L31:
 313 0094 00000000 		.word	.LANCHOR0
 314 0098 00000000 		.word	.LANCHOR1
 315 009c 60000000 		.word	font4x6+96
 316              	.LBE15:
 317              	.LBE14:
 318              	.LBE32:
 319              	.LBE33:
 320              		.cfi_endproc
 321              	.LFE3:
 322              		.size	get_col_4x6, .-get_col_4x6
 323              		.global	FONT_5X8_ELEKTRON
 324              		.section	.rodata.str1.4,"aMS",%progbits,1
 325              		.align	2
 326              	.LC0:
 327 0000 3578385F 		.ascii	"5x8_elektron\000"
 327      656C656B 
 327      74726F6E 
 327      00
 328              		.global	FONT_4X6
 329 000d 000000   		.align	2
 330              	.LC1:
 331 0010 34783600 		.ascii	"4x6\000"
 332              		.global	FONT_5X7
 333              		.align	2
 334              	.LC2:
 335 0014 35783700 		.ascii	"5x7\000"
 336              		.section	.bss.font4x6_expanded,"aw",%nobits
 337              		.align	2
 338              		.set	.LANCHOR1,. + 0
 339              		.type	font4x6_expanded, %object
ARM GAS  C:\Users\DEVELO~1\AppData\Local\Temp\ccuPdkMV.s 			page 7


 340              		.size	font4x6_expanded, 380
 341              	font4x6_expanded:
 342 0000 00000000 		.space	380
 342      00000000 
 342      00000000 
 342      00000000 
 342      00000000 
 343              		.section	.bss.font4x6_ready,"aw",%nobits
 344              		.set	.LANCHOR0,. + 0
 345              		.type	font4x6_ready, %object
 346              		.size	font4x6_ready, 1
 347              	font4x6_ready:
 348 0000 00       		.space	1
 349              		.section	.rodata.FONT_4X6,"a"
 350              		.align	2
 351              		.type	FONT_4X6, %object
 352              		.size	FONT_4X6, 16
 353              	FONT_4X6:
 354 0000 10000000 		.word	.LC1
 355 0004 04       		.byte	4
 356 0005 06       		.byte	6
 357 0006 20       		.byte	32
 358 0007 7E       		.byte	126
 359 0008 00       		.byte	0
 360 0009 000000   		.space	3
 361 000c 00000000 		.word	get_col_4x6
 362              		.section	.rodata.FONT_5X7,"a"
 363              		.align	2
 364              		.type	FONT_5X7, %object
 365              		.size	FONT_5X7, 16
 366              	FONT_5X7:
 367 0000 14000000 		.word	.LC2
 368 0004 05       		.byte	5
 369 0005 07       		.byte	7
 370 0006 20       		.byte	32
 371 0007 7E       		.byte	126
 372 0008 01       		.byte	1
 373 0009 000000   		.space	3
 374 000c 00000000 		.word	get_col_5x7
 375              		.section	.rodata.FONT_5X8_ELEKTRON,"a"
 376              		.align	2
 377              		.type	FONT_5X8_ELEKTRON, %object
 378              		.size	FONT_5X8_ELEKTRON, 16
 379              	FONT_5X8_ELEKTRON:
 380 0000 00000000 		.word	.LC0
 381 0004 05       		.byte	5
 382 0005 08       		.byte	8
 383 0006 20       		.byte	32
 384 0007 7F       		.byte	127
 385 0008 01       		.byte	1
 386 0009 000000   		.space	3
 387 000c 00000000 		.word	get_col_5x8_elektron
 388              		.text
 389              	.Letext0:
 390              		.file 2 "c:\\chibistudio\\tools\\gnu tools arm embedded\\11.3 2022.08\\arm-none-eabi\\include\\mac
 391              		.file 3 "c:\\chibistudio\\tools\\gnu tools arm embedded\\11.3 2022.08\\arm-none-eabi\\include\\sys
 392              		.file 4 "ui/font.h"
ARM GAS  C:\Users\DEVELO~1\AppData\Local\Temp\ccuPdkMV.s 			page 8


 393              		.file 5 "ui/font5x7.h"
 394              		.file 6 "ui/font4x6.h"
 395              		.file 7 "ui/font5x8_elektron.h"
 396              		.section	.debug_info,"",%progbits
 397              	.Ldebug_info0:
 398 0000 12040000 		.4byte	0x412
 399 0004 0500     		.2byte	0x5
 400 0006 01       		.byte	0x1
 401 0007 04       		.byte	0x4
 402 0008 00000000 		.4byte	.Ldebug_abbrev0
 403 000c 17       		.uleb128 0x17
 404 000d 98010000 		.4byte	.LASF33
 405 0011 1D       		.byte	0x1d
 406 0012 8D000000 		.4byte	.LASF34
 407 0016 41010000 		.4byte	.LASF35
 408 001a 5B000000 		.4byte	.LLRL17
 409 001e 00000000 		.4byte	0
 410 0022 00000000 		.4byte	.Ldebug_line0
 411 0026 01       		.uleb128 0x1
 412 0027 01       		.byte	0x1
 413 0028 06       		.byte	0x6
 414 0029 70020000 		.4byte	.LASF0
 415 002d 0C       		.uleb128 0xc
 416 002e 22000000 		.4byte	.LASF9
 417 0032 02       		.byte	0x2
 418 0033 2B       		.byte	0x2b
 419 0034 18       		.byte	0x18
 420 0035 39000000 		.4byte	0x39
 421 0039 01       		.uleb128 0x1
 422 003a 01       		.byte	0x1
 423 003b 08       		.byte	0x8
 424 003c 5A000000 		.4byte	.LASF1
 425 0040 01       		.uleb128 0x1
 426 0041 02       		.byte	0x2
 427 0042 05       		.byte	0x5
 428 0043 37010000 		.4byte	.LASF2
 429 0047 01       		.uleb128 0x1
 430 0048 02       		.byte	0x2
 431 0049 07       		.byte	0x7
 432 004a 7A000000 		.4byte	.LASF3
 433 004e 01       		.uleb128 0x1
 434 004f 04       		.byte	0x4
 435 0050 05       		.byte	0x5
 436 0051 4D020000 		.4byte	.LASF4
 437 0055 01       		.uleb128 0x1
 438 0056 04       		.byte	0x4
 439 0057 07       		.byte	0x7
 440 0058 68000000 		.4byte	.LASF5
 441 005c 01       		.uleb128 0x1
 442 005d 08       		.byte	0x8
 443 005e 05       		.byte	0x5
 444 005f 09010000 		.4byte	.LASF6
 445 0063 01       		.uleb128 0x1
 446 0064 08       		.byte	0x8
 447 0065 07       		.byte	0x7
 448 0066 D0000000 		.4byte	.LASF7
 449 006a 18       		.uleb128 0x18
ARM GAS  C:\Users\DEVELO~1\AppData\Local\Temp\ccuPdkMV.s 			page 9


 450 006b 04       		.byte	0x4
 451 006c 05       		.byte	0x5
 452 006d 696E7400 		.ascii	"int\000"
 453 0071 01       		.uleb128 0x1
 454 0072 04       		.byte	0x4
 455 0073 07       		.byte	0x7
 456 0074 C3000000 		.4byte	.LASF8
 457 0078 0C       		.uleb128 0xc
 458 0079 E7000000 		.4byte	.LASF10
 459 007d 03       		.byte	0x3
 460 007e 18       		.byte	0x18
 461 007f 13       		.byte	0x13
 462 0080 2D000000 		.4byte	0x2d
 463 0084 04       		.uleb128 0x4
 464 0085 78000000 		.4byte	0x78
 465 0089 19       		.uleb128 0x19
 466 008a 2C000000 		.4byte	.LASF36
 467 008e 10       		.byte	0x10
 468 008f 04       		.byte	0x4
 469 0090 24       		.byte	0x24
 470 0091 10       		.byte	0x10
 471 0092 EB000000 		.4byte	0xeb
 472 0096 02       		.uleb128 0x2
 473 0097 17010000 		.4byte	.LASF11
 474 009b 25       		.byte	0x25
 475 009c 11       		.byte	0x11
 476 009d EB000000 		.4byte	0xeb
 477 00a1 00       		.byte	0
 478 00a2 02       		.uleb128 0x2
 479 00a3 31010000 		.4byte	.LASF12
 480 00a7 26       		.byte	0x26
 481 00a8 0D       		.byte	0xd
 482 00a9 78000000 		.4byte	0x78
 483 00ad 04       		.byte	0x4
 484 00ae 02       		.uleb128 0x2
 485 00af 9F000000 		.4byte	.LASF13
 486 00b3 27       		.byte	0x27
 487 00b4 0D       		.byte	0xd
 488 00b5 78000000 		.4byte	0x78
 489 00b9 05       		.byte	0x5
 490 00ba 02       		.uleb128 0x2
 491 00bb 4F000000 		.4byte	.LASF14
 492 00bf 28       		.byte	0x28
 493 00c0 0D       		.byte	0xd
 494 00c1 78000000 		.4byte	0x78
 495 00c5 06       		.byte	0x6
 496 00c6 02       		.uleb128 0x2
 497 00c7 7C020000 		.4byte	.LASF15
 498 00cb 29       		.byte	0x29
 499 00cc 0D       		.byte	0xd
 500 00cd 78000000 		.4byte	0x78
 501 00d1 07       		.byte	0x7
 502 00d2 02       		.uleb128 0x2
 503 00d3 EF000000 		.4byte	.LASF16
 504 00d7 2A       		.byte	0x2a
 505 00d8 0D       		.byte	0xd
 506 00d9 78000000 		.4byte	0x78
ARM GAS  C:\Users\DEVELO~1\AppData\Local\Temp\ccuPdkMV.s 			page 10


 507 00dd 08       		.byte	0x8
 508 00de 02       		.uleb128 0x2
 509 00df 97000000 		.4byte	.LASF17
 510 00e3 31       		.byte	0x31
 511 00e4 0F       		.byte	0xf
 512 00e5 10010000 		.4byte	0x110
 513 00e9 0C       		.byte	0xc
 514 00ea 00       		.byte	0
 515 00eb 0D       		.uleb128 0xd
 516 00ec F7000000 		.4byte	0xf7
 517 00f0 01       		.uleb128 0x1
 518 00f1 01       		.byte	0x1
 519 00f2 08       		.byte	0x8
 520 00f3 56020000 		.4byte	.LASF18
 521 00f7 04       		.uleb128 0x4
 522 00f8 F0000000 		.4byte	0xf0
 523 00fc 1A       		.uleb128 0x1a
 524 00fd 78000000 		.4byte	0x78
 525 0101 10010000 		.4byte	0x110
 526 0105 0F       		.uleb128 0xf
 527 0106 F0000000 		.4byte	0xf0
 528 010a 0F       		.uleb128 0xf
 529 010b 78000000 		.4byte	0x78
 530 010f 00       		.byte	0
 531 0110 0D       		.uleb128 0xd
 532 0111 FC000000 		.4byte	0xfc
 533 0115 0C       		.uleb128 0xc
 534 0116 33000000 		.4byte	.LASF19
 535 011a 04       		.byte	0x4
 536 011b 32       		.byte	0x32
 537 011c 03       		.byte	0x3
 538 011d 89000000 		.4byte	0x89
 539 0121 04       		.uleb128 0x4
 540 0122 15010000 		.4byte	0x115
 541 0126 05       		.uleb128 0x5
 542 0127 5B020000 		.4byte	.LASF20
 543 012b 04       		.byte	0x4
 544 012c 39       		.byte	0x39
 545 012d 15       		.byte	0x15
 546 012e 21010000 		.4byte	0x121
 547 0132 05       		.uleb128 0x5
 548 0133 BA000000 		.4byte	.LASF21
 549 0137 04       		.byte	0x4
 550 0138 40       		.byte	0x40
 551 0139 15       		.byte	0x15
 552 013a 21010000 		.4byte	0x121
 553 013e 05       		.uleb128 0x5
 554 013f F7000000 		.4byte	.LASF22
 555 0143 04       		.byte	0x4
 556 0144 41       		.byte	0x41
 557 0145 15       		.byte	0x15
 558 0146 21010000 		.4byte	0x121
 559 014a 09       		.uleb128 0x9
 560 014b 84000000 		.4byte	0x84
 561 014f 60010000 		.4byte	0x160
 562 0153 03       		.uleb128 0x3
 563 0154 71000000 		.4byte	0x71
ARM GAS  C:\Users\DEVELO~1\AppData\Local\Temp\ccuPdkMV.s 			page 11


 564 0158 5E       		.byte	0x5e
 565 0159 03       		.uleb128 0x3
 566 015a 71000000 		.4byte	0x71
 567 015e 04       		.byte	0x4
 568 015f 00       		.byte	0
 569 0160 04       		.uleb128 0x4
 570 0161 4A010000 		.4byte	0x14a
 571 0165 05       		.uleb128 0x5
 572 0166 90010000 		.4byte	.LASF23
 573 016a 05       		.byte	0x5
 574 016b 24       		.byte	0x24
 575 016c 16       		.byte	0x16
 576 016d 60010000 		.4byte	0x160
 577 0171 09       		.uleb128 0x9
 578 0172 84000000 		.4byte	0x84
 579 0176 82010000 		.4byte	0x182
 580 017a 1B       		.uleb128 0x1b
 581 017b 03       		.uleb128 0x3
 582 017c 71000000 		.4byte	0x71
 583 0180 02       		.byte	0x2
 584 0181 00       		.byte	0
 585 0182 04       		.uleb128 0x4
 586 0183 71010000 		.4byte	0x171
 587 0187 05       		.uleb128 0x5
 588 0188 A6000000 		.4byte	.LASF24
 589 018c 06       		.byte	0x6
 590 018d 1D       		.byte	0x1d
 591 018e 16       		.byte	0x16
 592 018f 82010000 		.4byte	0x182
 593 0193 09       		.uleb128 0x9
 594 0194 84000000 		.4byte	0x84
 595 0198 A9010000 		.4byte	0x1a9
 596 019c 03       		.uleb128 0x3
 597 019d 71000000 		.4byte	0x71
 598 01a1 5F       		.byte	0x5f
 599 01a2 03       		.uleb128 0x3
 600 01a3 71000000 		.4byte	0x71
 601 01a7 05       		.byte	0x5
 602 01a8 00       		.byte	0
 603 01a9 04       		.uleb128 0x4
 604 01aa 93010000 		.4byte	0x193
 605 01ae 05       		.uleb128 0x5
 606 01af 00000000 		.4byte	.LASF25
 607 01b3 07       		.byte	0x7
 608 01b4 2F       		.byte	0x2f
 609 01b5 16       		.byte	0x16
 610 01b6 A9010000 		.4byte	0x1a9
 611 01ba 09       		.uleb128 0x9
 612 01bb 78000000 		.4byte	0x78
 613 01bf D0010000 		.4byte	0x1d0
 614 01c3 03       		.uleb128 0x3
 615 01c4 71000000 		.4byte	0x71
 616 01c8 5E       		.byte	0x5e
 617 01c9 03       		.uleb128 0x3
 618 01ca 71000000 		.4byte	0x71
 619 01ce 03       		.byte	0x3
 620 01cf 00       		.byte	0
ARM GAS  C:\Users\DEVELO~1\AppData\Local\Temp\ccuPdkMV.s 			page 12


 621 01d0 10       		.uleb128 0x10
 622 01d1 11000000 		.4byte	.LASF26
 623 01d5 34       		.byte	0x34
 624 01d6 10       		.byte	0x10
 625 01d7 BA010000 		.4byte	0x1ba
 626 01db 05       		.uleb128 0x5
 627 01dc 03       		.byte	0x3
 628 01dd 00000000 		.4byte	font4x6_expanded
 629 01e1 10       		.uleb128 0x10
 630 01e2 81020000 		.4byte	.LASF27
 631 01e6 35       		.byte	0x35
 632 01e7 0D       		.byte	0xd
 633 01e8 F2010000 		.4byte	0x1f2
 634 01ec 05       		.uleb128 0x5
 635 01ed 03       		.byte	0x3
 636 01ee 00000000 		.4byte	font4x6_ready
 637 01f2 01       		.uleb128 0x1
 638 01f3 01       		.byte	0x1
 639 01f4 02       		.byte	0x2
 640 01f5 3A000000 		.4byte	.LASF28
 641 01f9 0E       		.uleb128 0xe
 642 01fa 26010000 		.4byte	0x126
 643 01fe 68       		.byte	0x68
 644 01ff 05       		.uleb128 0x5
 645 0200 03       		.byte	0x3
 646 0201 00000000 		.4byte	FONT_5X7
 647 0205 0E       		.uleb128 0xe
 648 0206 32010000 		.4byte	0x132
 649 020a 73       		.byte	0x73
 650 020b 05       		.uleb128 0x5
 651 020c 03       		.byte	0x3
 652 020d 00000000 		.4byte	FONT_4X6
 653 0211 0E       		.uleb128 0xe
 654 0212 3E010000 		.4byte	0x13e
 655 0216 7E       		.byte	0x7e
 656 0217 05       		.uleb128 0x5
 657 0218 03       		.byte	0x3
 658 0219 00000000 		.4byte	FONT_5X8_ELEKTRON
 659 021d 1C       		.uleb128 0x1c
 660 021e AE000000 		.4byte	.LASF37
 661 0222 01       		.byte	0x1
 662 0223 5C       		.byte	0x5c
 663 0224 10       		.byte	0x10
 664 0225 78000000 		.4byte	0x78
 665 0229 01       		.byte	0x1
 666 022a 43020000 		.4byte	0x243
 667 022e 11       		.uleb128 0x11
 668 022f 6300     		.ascii	"c\000"
 669 0231 5C       		.byte	0x5c
 670 0232 21       		.byte	0x21
 671 0233 F0000000 		.4byte	0xf0
 672 0237 11       		.uleb128 0x11
 673 0238 636F6C00 		.ascii	"col\000"
 674 023c 5C       		.byte	0x5c
 675 023d 2C       		.byte	0x2c
 676 023e 78000000 		.4byte	0x78
 677 0242 00       		.byte	0
ARM GAS  C:\Users\DEVELO~1\AppData\Local\Temp\ccuPdkMV.s 			page 13


 678 0243 1D       		.uleb128 0x1d
 679 0244 40000000 		.4byte	.LASF38
 680 0248 01       		.byte	0x1
 681 0249 42       		.byte	0x42
 682 024a 0D       		.byte	0xd
 683 024b 01       		.byte	0x1
 684 024c A4020000 		.4byte	0x2a4
 685 0250 06       		.uleb128 0x6
 686 0251 08       		.uleb128 0x8
 687 0252 6300     		.ascii	"c\000"
 688 0254 43       		.byte	0x43
 689 0255 0E       		.byte	0xe
 690 0256 6A000000 		.4byte	0x6a
 691 025a 06       		.uleb128 0x6
 692 025b 08       		.uleb128 0x8
 693 025c 6700     		.ascii	"g\000"
 694 025e 44       		.byte	0x44
 695 025f 18       		.byte	0x18
 696 0260 A4020000 		.4byte	0x2a4
 697 0264 06       		.uleb128 0x6
 698 0265 08       		.uleb128 0x8
 699 0266 726F7700 		.ascii	"row\000"
 700 026a 45       		.byte	0x45
 701 026b 16       		.byte	0x16
 702 026c 78000000 		.4byte	0x78
 703 0270 06       		.uleb128 0x6
 704 0271 12       		.uleb128 0x12
 705 0272 55000000 		.4byte	.LASF29
 706 0276 46       		.byte	0x46
 707 0277 78000000 		.4byte	0x78
 708 027b 12       		.uleb128 0x12
 709 027c 8F020000 		.4byte	.LASF30
 710 0280 47       		.byte	0x47
 711 0281 78000000 		.4byte	0x78
 712 0285 06       		.uleb128 0x6
 713 0286 08       		.uleb128 0x8
 714 0287 636F6C00 		.ascii	"col\000"
 715 028b 4B       		.byte	0x4b
 716 028c 1A       		.byte	0x1a
 717 028d 78000000 		.4byte	0x78
 718 0291 06       		.uleb128 0x6
 719 0292 08       		.uleb128 0x8
 720 0293 62697400 		.ascii	"bit\000"
 721 0297 4C       		.byte	0x4c
 722 0298 19       		.byte	0x19
 723 0299 78000000 		.4byte	0x78
 724 029d 00       		.byte	0
 725 029e 00       		.byte	0
 726 029f 00       		.byte	0
 727 02a0 00       		.byte	0
 728 02a1 00       		.byte	0
 729 02a2 00       		.byte	0
 730 02a3 00       		.byte	0
 731 02a4 0D       		.uleb128 0xd
 732 02a5 84000000 		.4byte	0x84
 733 02a9 13       		.uleb128 0x13
 734 02aa 1C010000 		.4byte	.LASF31
ARM GAS  C:\Users\DEVELO~1\AppData\Local\Temp\ccuPdkMV.s 			page 14


 735 02ae 37       		.byte	0x37
 736 02af 78000000 		.4byte	0x78
 737 02b3 00000000 		.4byte	.LFB1
 738 02b7 24000000 		.4byte	.LFE1-.LFB1
 739 02bb 01       		.uleb128 0x1
 740 02bc 9C       		.byte	0x9c
 741 02bd E0020000 		.4byte	0x2e0
 742 02c1 14       		.uleb128 0x14
 743 02c2 6300     		.ascii	"c\000"
 744 02c4 37       		.byte	0x37
 745 02c5 2A       		.byte	0x2a
 746 02c6 F0000000 		.4byte	0xf0
 747 02ca 10000000 		.4byte	.LLST1
 748 02ce 0C000000 		.4byte	.LVUS1
 749 02d2 15       		.uleb128 0x15
 750 02d3 636F6C00 		.ascii	"col\000"
 751 02d7 37       		.byte	0x37
 752 02d8 35       		.byte	0x35
 753 02d9 78000000 		.4byte	0x78
 754 02dd 01       		.uleb128 0x1
 755 02de 51       		.byte	0x51
 756 02df 00       		.byte	0
 757 02e0 13       		.uleb128 0x13
 758 02e1 64020000 		.4byte	.LASF32
 759 02e5 25       		.byte	0x25
 760 02e6 78000000 		.4byte	0x78
 761 02ea 00000000 		.4byte	.LFB0
 762 02ee 20000000 		.4byte	.LFE0-.LFB0
 763 02f2 01       		.uleb128 0x1
 764 02f3 9C       		.byte	0x9c
 765 02f4 17030000 		.4byte	0x317
 766 02f8 14       		.uleb128 0x14
 767 02f9 6300     		.ascii	"c\000"
 768 02fb 25       		.byte	0x25
 769 02fc 21       		.byte	0x21
 770 02fd F0000000 		.4byte	0xf0
 771 0301 27000000 		.4byte	.LLST0
 772 0305 23000000 		.4byte	.LVUS0
 773 0309 15       		.uleb128 0x15
 774 030a 636F6C00 		.ascii	"col\000"
 775 030e 25       		.byte	0x25
 776 030f 2C       		.byte	0x2c
 777 0310 78000000 		.4byte	0x78
 778 0314 01       		.uleb128 0x1
 779 0315 51       		.byte	0x51
 780 0316 00       		.byte	0
 781 0317 1E       		.uleb128 0x1e
 782 0318 1D020000 		.4byte	0x21d
 783 031c 00000000 		.4byte	.LFB3
 784 0320 A0000000 		.4byte	.LFE3-.LFB3
 785 0324 01       		.uleb128 0x1
 786 0325 9C       		.byte	0x9c
 787 0326 0A       		.uleb128 0xa
 788 0327 2E020000 		.4byte	0x22e
 789 032b 46000000 		.4byte	.LLST2
 790 032f 3A000000 		.4byte	.LVUS2
 791 0333 0A       		.uleb128 0xa
ARM GAS  C:\Users\DEVELO~1\AppData\Local\Temp\ccuPdkMV.s 			page 15


 792 0334 37020000 		.4byte	0x237
 793 0338 7C000000 		.4byte	.LLST3
 794 033c 74000000 		.4byte	.LVUS3
 795 0340 1F       		.uleb128 0x1f
 796 0341 1D020000 		.4byte	0x21d
 797 0345 14000000 		.4byte	.LBI12
 798 0349 00       		.byte	.LVU27
 799 034a 0C000000 		.4byte	.LLRL4
 800 034e 01       		.byte	0x1
 801 034f 5C       		.byte	0x5c
 802 0350 10       		.byte	0x10
 803 0351 0A       		.uleb128 0xa
 804 0352 37020000 		.4byte	0x237
 805 0356 A1000000 		.4byte	.LLST5
 806 035a 9D000000 		.4byte	.LVUS5
 807 035e 0A       		.uleb128 0xa
 808 035f 2E020000 		.4byte	0x22e
 809 0363 BA000000 		.4byte	.LLST6
 810 0367 B2000000 		.4byte	.LVUS6
 811 036b 20       		.uleb128 0x20
 812 036c 43020000 		.4byte	0x243
 813 0370 3C000000 		.4byte	.LBB14
 814 0374 64000000 		.4byte	.LBE14-.LBB14
 815 0378 01       		.byte	0x1
 816 0379 5F       		.byte	0x5f
 817 037a 19       		.byte	0x19
 818 037b 16       		.uleb128 0x16
 819 037c 50020000 		.4byte	0x250
 820 0380 3C000000 		.4byte	.LBB16
 821 0384 50000000 		.4byte	.LBE16-.LBB16
 822 0388 21       		.uleb128 0x21
 823 0389 51020000 		.4byte	0x251
 824 038d 16       		.uleb128 0x16
 825 038e 5A020000 		.4byte	0x25a
 826 0392 3C000000 		.4byte	.LBB17
 827 0396 48000000 		.4byte	.LBE17-.LBB17
 828 039a 07       		.uleb128 0x7
 829 039b 5B020000 		.4byte	0x25b
 830 039f DD000000 		.4byte	.LLST7
 831 03a3 D9000000 		.4byte	.LVUS7
 832 03a7 0B       		.uleb128 0xb
 833 03a8 64020000 		.4byte	0x264
 834 03ac 19000000 		.4byte	.LLRL8
 835 03b0 07       		.uleb128 0x7
 836 03b1 65020000 		.4byte	0x265
 837 03b5 F5000000 		.4byte	.LLST9
 838 03b9 EF000000 		.4byte	.LVUS9
 839 03bd 0B       		.uleb128 0xb
 840 03be 70020000 		.4byte	0x270
 841 03c2 28000000 		.4byte	.LLRL10
 842 03c6 07       		.uleb128 0x7
 843 03c7 71020000 		.4byte	0x271
 844 03cb 15010000 		.4byte	.LLST11
 845 03cf 0D010000 		.4byte	.LVUS11
 846 03d3 07       		.uleb128 0x7
 847 03d4 7B020000 		.4byte	0x27b
 848 03d8 BC010000 		.4byte	.LLST12
ARM GAS  C:\Users\DEVELO~1\AppData\Local\Temp\ccuPdkMV.s 			page 16


 849 03dc BA010000 		.4byte	.LVUS12
 850 03e0 0B       		.uleb128 0xb
 851 03e1 85020000 		.4byte	0x285
 852 03e5 34000000 		.4byte	.LLRL13
 853 03e9 07       		.uleb128 0x7
 854 03ea 86020000 		.4byte	0x286
 855 03ee CB010000 		.4byte	.LLST14
 856 03f2 C5010000 		.4byte	.LVUS14
 857 03f6 0B       		.uleb128 0xb
 858 03f7 91020000 		.4byte	0x291
 859 03fb 46000000 		.4byte	.LLRL15
 860 03ff 07       		.uleb128 0x7
 861 0400 92020000 		.4byte	0x292
 862 0404 E7010000 		.4byte	.LLST16
 863 0408 E3010000 		.4byte	.LVUS16
 864 040c 00       		.byte	0
 865 040d 00       		.byte	0
 866 040e 00       		.byte	0
 867 040f 00       		.byte	0
 868 0410 00       		.byte	0
 869 0411 00       		.byte	0
 870 0412 00       		.byte	0
 871 0413 00       		.byte	0
 872 0414 00       		.byte	0
 873 0415 00       		.byte	0
 874              		.section	.debug_abbrev,"",%progbits
 875              	.Ldebug_abbrev0:
 876 0000 01       		.uleb128 0x1
 877 0001 24       		.uleb128 0x24
 878 0002 00       		.byte	0
 879 0003 0B       		.uleb128 0xb
 880 0004 0B       		.uleb128 0xb
 881 0005 3E       		.uleb128 0x3e
 882 0006 0B       		.uleb128 0xb
 883 0007 03       		.uleb128 0x3
 884 0008 0E       		.uleb128 0xe
 885 0009 00       		.byte	0
 886 000a 00       		.byte	0
 887 000b 02       		.uleb128 0x2
 888 000c 0D       		.uleb128 0xd
 889 000d 00       		.byte	0
 890 000e 03       		.uleb128 0x3
 891 000f 0E       		.uleb128 0xe
 892 0010 3A       		.uleb128 0x3a
 893 0011 21       		.uleb128 0x21
 894 0012 04       		.sleb128 4
 895 0013 3B       		.uleb128 0x3b
 896 0014 0B       		.uleb128 0xb
 897 0015 39       		.uleb128 0x39
 898 0016 0B       		.uleb128 0xb
 899 0017 49       		.uleb128 0x49
 900 0018 13       		.uleb128 0x13
 901 0019 38       		.uleb128 0x38
 902 001a 0B       		.uleb128 0xb
 903 001b 00       		.byte	0
 904 001c 00       		.byte	0
 905 001d 03       		.uleb128 0x3
ARM GAS  C:\Users\DEVELO~1\AppData\Local\Temp\ccuPdkMV.s 			page 17


 906 001e 21       		.uleb128 0x21
 907 001f 00       		.byte	0
 908 0020 49       		.uleb128 0x49
 909 0021 13       		.uleb128 0x13
 910 0022 2F       		.uleb128 0x2f
 911 0023 0B       		.uleb128 0xb
 912 0024 00       		.byte	0
 913 0025 00       		.byte	0
 914 0026 04       		.uleb128 0x4
 915 0027 26       		.uleb128 0x26
 916 0028 00       		.byte	0
 917 0029 49       		.uleb128 0x49
 918 002a 13       		.uleb128 0x13
 919 002b 00       		.byte	0
 920 002c 00       		.byte	0
 921 002d 05       		.uleb128 0x5
 922 002e 34       		.uleb128 0x34
 923 002f 00       		.byte	0
 924 0030 03       		.uleb128 0x3
 925 0031 0E       		.uleb128 0xe
 926 0032 3A       		.uleb128 0x3a
 927 0033 0B       		.uleb128 0xb
 928 0034 3B       		.uleb128 0x3b
 929 0035 0B       		.uleb128 0xb
 930 0036 39       		.uleb128 0x39
 931 0037 0B       		.uleb128 0xb
 932 0038 49       		.uleb128 0x49
 933 0039 13       		.uleb128 0x13
 934 003a 3F       		.uleb128 0x3f
 935 003b 19       		.uleb128 0x19
 936 003c 3C       		.uleb128 0x3c
 937 003d 19       		.uleb128 0x19
 938 003e 00       		.byte	0
 939 003f 00       		.byte	0
 940 0040 06       		.uleb128 0x6
 941 0041 0B       		.uleb128 0xb
 942 0042 01       		.byte	0x1
 943 0043 00       		.byte	0
 944 0044 00       		.byte	0
 945 0045 07       		.uleb128 0x7
 946 0046 34       		.uleb128 0x34
 947 0047 00       		.byte	0
 948 0048 31       		.uleb128 0x31
 949 0049 13       		.uleb128 0x13
 950 004a 02       		.uleb128 0x2
 951 004b 17       		.uleb128 0x17
 952 004c B742     		.uleb128 0x2137
 953 004e 17       		.uleb128 0x17
 954 004f 00       		.byte	0
 955 0050 00       		.byte	0
 956 0051 08       		.uleb128 0x8
 957 0052 34       		.uleb128 0x34
 958 0053 00       		.byte	0
 959 0054 03       		.uleb128 0x3
 960 0055 08       		.uleb128 0x8
 961 0056 3A       		.uleb128 0x3a
 962 0057 21       		.uleb128 0x21
ARM GAS  C:\Users\DEVELO~1\AppData\Local\Temp\ccuPdkMV.s 			page 18


 963 0058 01       		.sleb128 1
 964 0059 3B       		.uleb128 0x3b
 965 005a 0B       		.uleb128 0xb
 966 005b 39       		.uleb128 0x39
 967 005c 0B       		.uleb128 0xb
 968 005d 49       		.uleb128 0x49
 969 005e 13       		.uleb128 0x13
 970 005f 00       		.byte	0
 971 0060 00       		.byte	0
 972 0061 09       		.uleb128 0x9
 973 0062 01       		.uleb128 0x1
 974 0063 01       		.byte	0x1
 975 0064 49       		.uleb128 0x49
 976 0065 13       		.uleb128 0x13
 977 0066 01       		.uleb128 0x1
 978 0067 13       		.uleb128 0x13
 979 0068 00       		.byte	0
 980 0069 00       		.byte	0
 981 006a 0A       		.uleb128 0xa
 982 006b 05       		.uleb128 0x5
 983 006c 00       		.byte	0
 984 006d 31       		.uleb128 0x31
 985 006e 13       		.uleb128 0x13
 986 006f 02       		.uleb128 0x2
 987 0070 17       		.uleb128 0x17
 988 0071 B742     		.uleb128 0x2137
 989 0073 17       		.uleb128 0x17
 990 0074 00       		.byte	0
 991 0075 00       		.byte	0
 992 0076 0B       		.uleb128 0xb
 993 0077 0B       		.uleb128 0xb
 994 0078 01       		.byte	0x1
 995 0079 31       		.uleb128 0x31
 996 007a 13       		.uleb128 0x13
 997 007b 55       		.uleb128 0x55
 998 007c 17       		.uleb128 0x17
 999 007d 00       		.byte	0
 1000 007e 00       		.byte	0
 1001 007f 0C       		.uleb128 0xc
 1002 0080 16       		.uleb128 0x16
 1003 0081 00       		.byte	0
 1004 0082 03       		.uleb128 0x3
 1005 0083 0E       		.uleb128 0xe
 1006 0084 3A       		.uleb128 0x3a
 1007 0085 0B       		.uleb128 0xb
 1008 0086 3B       		.uleb128 0x3b
 1009 0087 0B       		.uleb128 0xb
 1010 0088 39       		.uleb128 0x39
 1011 0089 0B       		.uleb128 0xb
 1012 008a 49       		.uleb128 0x49
 1013 008b 13       		.uleb128 0x13
 1014 008c 00       		.byte	0
 1015 008d 00       		.byte	0
 1016 008e 0D       		.uleb128 0xd
 1017 008f 0F       		.uleb128 0xf
 1018 0090 00       		.byte	0
 1019 0091 0B       		.uleb128 0xb
ARM GAS  C:\Users\DEVELO~1\AppData\Local\Temp\ccuPdkMV.s 			page 19


 1020 0092 21       		.uleb128 0x21
 1021 0093 04       		.sleb128 4
 1022 0094 49       		.uleb128 0x49
 1023 0095 13       		.uleb128 0x13
 1024 0096 00       		.byte	0
 1025 0097 00       		.byte	0
 1026 0098 0E       		.uleb128 0xe
 1027 0099 34       		.uleb128 0x34
 1028 009a 00       		.byte	0
 1029 009b 47       		.uleb128 0x47
 1030 009c 13       		.uleb128 0x13
 1031 009d 3A       		.uleb128 0x3a
 1032 009e 21       		.uleb128 0x21
 1033 009f 01       		.sleb128 1
 1034 00a0 3B       		.uleb128 0x3b
 1035 00a1 0B       		.uleb128 0xb
 1036 00a2 39       		.uleb128 0x39
 1037 00a3 21       		.uleb128 0x21
 1038 00a4 0E       		.sleb128 14
 1039 00a5 02       		.uleb128 0x2
 1040 00a6 18       		.uleb128 0x18
 1041 00a7 00       		.byte	0
 1042 00a8 00       		.byte	0
 1043 00a9 0F       		.uleb128 0xf
 1044 00aa 05       		.uleb128 0x5
 1045 00ab 00       		.byte	0
 1046 00ac 49       		.uleb128 0x49
 1047 00ad 13       		.uleb128 0x13
 1048 00ae 00       		.byte	0
 1049 00af 00       		.byte	0
 1050 00b0 10       		.uleb128 0x10
 1051 00b1 34       		.uleb128 0x34
 1052 00b2 00       		.byte	0
 1053 00b3 03       		.uleb128 0x3
 1054 00b4 0E       		.uleb128 0xe
 1055 00b5 3A       		.uleb128 0x3a
 1056 00b6 21       		.uleb128 0x21
 1057 00b7 01       		.sleb128 1
 1058 00b8 3B       		.uleb128 0x3b
 1059 00b9 0B       		.uleb128 0xb
 1060 00ba 39       		.uleb128 0x39
 1061 00bb 0B       		.uleb128 0xb
 1062 00bc 49       		.uleb128 0x49
 1063 00bd 13       		.uleb128 0x13
 1064 00be 02       		.uleb128 0x2
 1065 00bf 18       		.uleb128 0x18
 1066 00c0 00       		.byte	0
 1067 00c1 00       		.byte	0
 1068 00c2 11       		.uleb128 0x11
 1069 00c3 05       		.uleb128 0x5
 1070 00c4 00       		.byte	0
 1071 00c5 03       		.uleb128 0x3
 1072 00c6 08       		.uleb128 0x8
 1073 00c7 3A       		.uleb128 0x3a
 1074 00c8 21       		.uleb128 0x21
 1075 00c9 01       		.sleb128 1
 1076 00ca 3B       		.uleb128 0x3b
ARM GAS  C:\Users\DEVELO~1\AppData\Local\Temp\ccuPdkMV.s 			page 20


 1077 00cb 0B       		.uleb128 0xb
 1078 00cc 39       		.uleb128 0x39
 1079 00cd 0B       		.uleb128 0xb
 1080 00ce 49       		.uleb128 0x49
 1081 00cf 13       		.uleb128 0x13
 1082 00d0 00       		.byte	0
 1083 00d1 00       		.byte	0
 1084 00d2 12       		.uleb128 0x12
 1085 00d3 34       		.uleb128 0x34
 1086 00d4 00       		.byte	0
 1087 00d5 03       		.uleb128 0x3
 1088 00d6 0E       		.uleb128 0xe
 1089 00d7 3A       		.uleb128 0x3a
 1090 00d8 21       		.uleb128 0x21
 1091 00d9 01       		.sleb128 1
 1092 00da 3B       		.uleb128 0x3b
 1093 00db 0B       		.uleb128 0xb
 1094 00dc 39       		.uleb128 0x39
 1095 00dd 21       		.uleb128 0x21
 1096 00de 15       		.sleb128 21
 1097 00df 49       		.uleb128 0x49
 1098 00e0 13       		.uleb128 0x13
 1099 00e1 00       		.byte	0
 1100 00e2 00       		.byte	0
 1101 00e3 13       		.uleb128 0x13
 1102 00e4 2E       		.uleb128 0x2e
 1103 00e5 01       		.byte	0x1
 1104 00e6 03       		.uleb128 0x3
 1105 00e7 0E       		.uleb128 0xe
 1106 00e8 3A       		.uleb128 0x3a
 1107 00e9 21       		.uleb128 0x21
 1108 00ea 01       		.sleb128 1
 1109 00eb 3B       		.uleb128 0x3b
 1110 00ec 0B       		.uleb128 0xb
 1111 00ed 39       		.uleb128 0x39
 1112 00ee 21       		.uleb128 0x21
 1113 00ef 10       		.sleb128 16
 1114 00f0 27       		.uleb128 0x27
 1115 00f1 19       		.uleb128 0x19
 1116 00f2 49       		.uleb128 0x49
 1117 00f3 13       		.uleb128 0x13
 1118 00f4 11       		.uleb128 0x11
 1119 00f5 01       		.uleb128 0x1
 1120 00f6 12       		.uleb128 0x12
 1121 00f7 06       		.uleb128 0x6
 1122 00f8 40       		.uleb128 0x40
 1123 00f9 18       		.uleb128 0x18
 1124 00fa 7A       		.uleb128 0x7a
 1125 00fb 19       		.uleb128 0x19
 1126 00fc 01       		.uleb128 0x1
 1127 00fd 13       		.uleb128 0x13
 1128 00fe 00       		.byte	0
 1129 00ff 00       		.byte	0
 1130 0100 14       		.uleb128 0x14
 1131 0101 05       		.uleb128 0x5
 1132 0102 00       		.byte	0
 1133 0103 03       		.uleb128 0x3
ARM GAS  C:\Users\DEVELO~1\AppData\Local\Temp\ccuPdkMV.s 			page 21


 1134 0104 08       		.uleb128 0x8
 1135 0105 3A       		.uleb128 0x3a
 1136 0106 21       		.uleb128 0x21
 1137 0107 01       		.sleb128 1
 1138 0108 3B       		.uleb128 0x3b
 1139 0109 0B       		.uleb128 0xb
 1140 010a 39       		.uleb128 0x39
 1141 010b 0B       		.uleb128 0xb
 1142 010c 49       		.uleb128 0x49
 1143 010d 13       		.uleb128 0x13
 1144 010e 02       		.uleb128 0x2
 1145 010f 17       		.uleb128 0x17
 1146 0110 B742     		.uleb128 0x2137
 1147 0112 17       		.uleb128 0x17
 1148 0113 00       		.byte	0
 1149 0114 00       		.byte	0
 1150 0115 15       		.uleb128 0x15
 1151 0116 05       		.uleb128 0x5
 1152 0117 00       		.byte	0
 1153 0118 03       		.uleb128 0x3
 1154 0119 08       		.uleb128 0x8
 1155 011a 3A       		.uleb128 0x3a
 1156 011b 21       		.uleb128 0x21
 1157 011c 01       		.sleb128 1
 1158 011d 3B       		.uleb128 0x3b
 1159 011e 0B       		.uleb128 0xb
 1160 011f 39       		.uleb128 0x39
 1161 0120 0B       		.uleb128 0xb
 1162 0121 49       		.uleb128 0x49
 1163 0122 13       		.uleb128 0x13
 1164 0123 02       		.uleb128 0x2
 1165 0124 18       		.uleb128 0x18
 1166 0125 00       		.byte	0
 1167 0126 00       		.byte	0
 1168 0127 16       		.uleb128 0x16
 1169 0128 0B       		.uleb128 0xb
 1170 0129 01       		.byte	0x1
 1171 012a 31       		.uleb128 0x31
 1172 012b 13       		.uleb128 0x13
 1173 012c 11       		.uleb128 0x11
 1174 012d 01       		.uleb128 0x1
 1175 012e 12       		.uleb128 0x12
 1176 012f 06       		.uleb128 0x6
 1177 0130 00       		.byte	0
 1178 0131 00       		.byte	0
 1179 0132 17       		.uleb128 0x17
 1180 0133 11       		.uleb128 0x11
 1181 0134 01       		.byte	0x1
 1182 0135 25       		.uleb128 0x25
 1183 0136 0E       		.uleb128 0xe
 1184 0137 13       		.uleb128 0x13
 1185 0138 0B       		.uleb128 0xb
 1186 0139 03       		.uleb128 0x3
 1187 013a 0E       		.uleb128 0xe
 1188 013b 1B       		.uleb128 0x1b
 1189 013c 0E       		.uleb128 0xe
 1190 013d 55       		.uleb128 0x55
ARM GAS  C:\Users\DEVELO~1\AppData\Local\Temp\ccuPdkMV.s 			page 22


 1191 013e 17       		.uleb128 0x17
 1192 013f 11       		.uleb128 0x11
 1193 0140 01       		.uleb128 0x1
 1194 0141 10       		.uleb128 0x10
 1195 0142 17       		.uleb128 0x17
 1196 0143 00       		.byte	0
 1197 0144 00       		.byte	0
 1198 0145 18       		.uleb128 0x18
 1199 0146 24       		.uleb128 0x24
 1200 0147 00       		.byte	0
 1201 0148 0B       		.uleb128 0xb
 1202 0149 0B       		.uleb128 0xb
 1203 014a 3E       		.uleb128 0x3e
 1204 014b 0B       		.uleb128 0xb
 1205 014c 03       		.uleb128 0x3
 1206 014d 08       		.uleb128 0x8
 1207 014e 00       		.byte	0
 1208 014f 00       		.byte	0
 1209 0150 19       		.uleb128 0x19
 1210 0151 13       		.uleb128 0x13
 1211 0152 01       		.byte	0x1
 1212 0153 03       		.uleb128 0x3
 1213 0154 0E       		.uleb128 0xe
 1214 0155 0B       		.uleb128 0xb
 1215 0156 0B       		.uleb128 0xb
 1216 0157 3A       		.uleb128 0x3a
 1217 0158 0B       		.uleb128 0xb
 1218 0159 3B       		.uleb128 0x3b
 1219 015a 0B       		.uleb128 0xb
 1220 015b 39       		.uleb128 0x39
 1221 015c 0B       		.uleb128 0xb
 1222 015d 01       		.uleb128 0x1
 1223 015e 13       		.uleb128 0x13
 1224 015f 00       		.byte	0
 1225 0160 00       		.byte	0
 1226 0161 1A       		.uleb128 0x1a
 1227 0162 15       		.uleb128 0x15
 1228 0163 01       		.byte	0x1
 1229 0164 27       		.uleb128 0x27
 1230 0165 19       		.uleb128 0x19
 1231 0166 49       		.uleb128 0x49
 1232 0167 13       		.uleb128 0x13
 1233 0168 01       		.uleb128 0x1
 1234 0169 13       		.uleb128 0x13
 1235 016a 00       		.byte	0
 1236 016b 00       		.byte	0
 1237 016c 1B       		.uleb128 0x1b
 1238 016d 21       		.uleb128 0x21
 1239 016e 00       		.byte	0
 1240 016f 00       		.byte	0
 1241 0170 00       		.byte	0
 1242 0171 1C       		.uleb128 0x1c
 1243 0172 2E       		.uleb128 0x2e
 1244 0173 01       		.byte	0x1
 1245 0174 03       		.uleb128 0x3
 1246 0175 0E       		.uleb128 0xe
 1247 0176 3A       		.uleb128 0x3a
ARM GAS  C:\Users\DEVELO~1\AppData\Local\Temp\ccuPdkMV.s 			page 23


 1248 0177 0B       		.uleb128 0xb
 1249 0178 3B       		.uleb128 0x3b
 1250 0179 0B       		.uleb128 0xb
 1251 017a 39       		.uleb128 0x39
 1252 017b 0B       		.uleb128 0xb
 1253 017c 27       		.uleb128 0x27
 1254 017d 19       		.uleb128 0x19
 1255 017e 49       		.uleb128 0x49
 1256 017f 13       		.uleb128 0x13
 1257 0180 20       		.uleb128 0x20
 1258 0181 0B       		.uleb128 0xb
 1259 0182 01       		.uleb128 0x1
 1260 0183 13       		.uleb128 0x13
 1261 0184 00       		.byte	0
 1262 0185 00       		.byte	0
 1263 0186 1D       		.uleb128 0x1d
 1264 0187 2E       		.uleb128 0x2e
 1265 0188 01       		.byte	0x1
 1266 0189 03       		.uleb128 0x3
 1267 018a 0E       		.uleb128 0xe
 1268 018b 3A       		.uleb128 0x3a
 1269 018c 0B       		.uleb128 0xb
 1270 018d 3B       		.uleb128 0x3b
 1271 018e 0B       		.uleb128 0xb
 1272 018f 39       		.uleb128 0x39
 1273 0190 0B       		.uleb128 0xb
 1274 0191 27       		.uleb128 0x27
 1275 0192 19       		.uleb128 0x19
 1276 0193 20       		.uleb128 0x20
 1277 0194 0B       		.uleb128 0xb
 1278 0195 01       		.uleb128 0x1
 1279 0196 13       		.uleb128 0x13
 1280 0197 00       		.byte	0
 1281 0198 00       		.byte	0
 1282 0199 1E       		.uleb128 0x1e
 1283 019a 2E       		.uleb128 0x2e
 1284 019b 01       		.byte	0x1
 1285 019c 31       		.uleb128 0x31
 1286 019d 13       		.uleb128 0x13
 1287 019e 11       		.uleb128 0x11
 1288 019f 01       		.uleb128 0x1
 1289 01a0 12       		.uleb128 0x12
 1290 01a1 06       		.uleb128 0x6
 1291 01a2 40       		.uleb128 0x40
 1292 01a3 18       		.uleb128 0x18
 1293 01a4 7A       		.uleb128 0x7a
 1294 01a5 19       		.uleb128 0x19
 1295 01a6 00       		.byte	0
 1296 01a7 00       		.byte	0
 1297 01a8 1F       		.uleb128 0x1f
 1298 01a9 1D       		.uleb128 0x1d
 1299 01aa 01       		.byte	0x1
 1300 01ab 31       		.uleb128 0x31
 1301 01ac 13       		.uleb128 0x13
 1302 01ad 52       		.uleb128 0x52
 1303 01ae 01       		.uleb128 0x1
 1304 01af B842     		.uleb128 0x2138
ARM GAS  C:\Users\DEVELO~1\AppData\Local\Temp\ccuPdkMV.s 			page 24


 1305 01b1 0B       		.uleb128 0xb
 1306 01b2 55       		.uleb128 0x55
 1307 01b3 17       		.uleb128 0x17
 1308 01b4 58       		.uleb128 0x58
 1309 01b5 0B       		.uleb128 0xb
 1310 01b6 59       		.uleb128 0x59
 1311 01b7 0B       		.uleb128 0xb
 1312 01b8 57       		.uleb128 0x57
 1313 01b9 0B       		.uleb128 0xb
 1314 01ba 00       		.byte	0
 1315 01bb 00       		.byte	0
 1316 01bc 20       		.uleb128 0x20
 1317 01bd 1D       		.uleb128 0x1d
 1318 01be 01       		.byte	0x1
 1319 01bf 31       		.uleb128 0x31
 1320 01c0 13       		.uleb128 0x13
 1321 01c1 11       		.uleb128 0x11
 1322 01c2 01       		.uleb128 0x1
 1323 01c3 12       		.uleb128 0x12
 1324 01c4 06       		.uleb128 0x6
 1325 01c5 58       		.uleb128 0x58
 1326 01c6 0B       		.uleb128 0xb
 1327 01c7 59       		.uleb128 0x59
 1328 01c8 0B       		.uleb128 0xb
 1329 01c9 57       		.uleb128 0x57
 1330 01ca 0B       		.uleb128 0xb
 1331 01cb 00       		.byte	0
 1332 01cc 00       		.byte	0
 1333 01cd 21       		.uleb128 0x21
 1334 01ce 34       		.uleb128 0x34
 1335 01cf 00       		.byte	0
 1336 01d0 31       		.uleb128 0x31
 1337 01d1 13       		.uleb128 0x13
 1338 01d2 00       		.byte	0
 1339 01d3 00       		.byte	0
 1340 01d4 00       		.byte	0
 1341              		.section	.debug_loclists,"",%progbits
 1342 0000 01020000 		.4byte	.Ldebug_loc3-.Ldebug_loc2
 1343              	.Ldebug_loc2:
 1344 0004 0500     		.2byte	0x5
 1345 0006 04       		.byte	0x4
 1346 0007 00       		.byte	0
 1347 0008 00000000 		.4byte	0
 1348              	.Ldebug_loc0:
 1349              	.LVUS1:
 1350 000c 00       		.uleb128 0
 1351 000d 00       		.uleb128 .LVU14
 1352 000e 00       		.uleb128 .LVU14
 1353 000f 00       		.uleb128 0
 1354              	.LLST1:
 1355 0010 06       		.byte	0x6
 1356 0011 00000000 		.4byte	.LVL2
 1357 0015 04       		.byte	0x4
 1358 0016 00       		.uleb128 .LVL2-.LVL2
 1359 0017 02       		.uleb128 .LVL3-.LVL2
 1360 0018 01       		.uleb128 0x1
 1361 0019 50       		.byte	0x50
ARM GAS  C:\Users\DEVELO~1\AppData\Local\Temp\ccuPdkMV.s 			page 25


 1362 001a 04       		.byte	0x4
 1363 001b 02       		.uleb128 .LVL3-.LVL2
 1364 001c 24       		.uleb128 .LFE1-.LVL2
 1365 001d 04       		.uleb128 0x4
 1366 001e A3       		.byte	0xa3
 1367 001f 01       		.uleb128 0x1
 1368 0020 50       		.byte	0x50
 1369 0021 9F       		.byte	0x9f
 1370 0022 00       		.byte	0
 1371              	.LVUS0:
 1372 0023 00       		.uleb128 0
 1373 0024 00       		.uleb128 .LVU4
 1374 0025 00       		.uleb128 .LVU4
 1375 0026 00       		.uleb128 0
 1376              	.LLST0:
 1377 0027 06       		.byte	0x6
 1378 0028 00000000 		.4byte	.LVL0
 1379 002c 04       		.byte	0x4
 1380 002d 00       		.uleb128 .LVL0-.LVL0
 1381 002e 02       		.uleb128 .LVL1-.LVL0
 1382 002f 01       		.uleb128 0x1
 1383 0030 50       		.byte	0x50
 1384 0031 04       		.byte	0x4
 1385 0032 02       		.uleb128 .LVL1-.LVL0
 1386 0033 20       		.uleb128 .LFE0-.LVL0
 1387 0034 04       		.uleb128 0x4
 1388 0035 A3       		.byte	0xa3
 1389 0036 01       		.uleb128 0x1
 1390 0037 50       		.byte	0x50
 1391 0038 9F       		.byte	0x9f
 1392 0039 00       		.byte	0
 1393              	.LVUS2:
 1394 003a 00       		.uleb128 0
 1395 003b 00       		.uleb128 .LVU31
 1396 003c 00       		.uleb128 .LVU31
 1397 003d 00       		.uleb128 .LVU35
 1398 003e 00       		.uleb128 .LVU35
 1399 003f 00       		.uleb128 .LVU36
 1400 0040 00       		.uleb128 .LVU36
 1401 0041 00       		.uleb128 .LVU37
 1402 0042 00       		.uleb128 .LVU37
 1403 0043 00       		.uleb128 .LVU40
 1404 0044 00       		.uleb128 .LVU40
 1405 0045 00       		.uleb128 0
 1406              	.LLST2:
 1407 0046 06       		.byte	0x6
 1408 0047 00000000 		.4byte	.LVL4
 1409 004b 04       		.byte	0x4
 1410 004c 00       		.uleb128 .LVL4-.LVL4
 1411 004d 22       		.uleb128 .LVL6-.LVL4
 1412 004e 01       		.uleb128 0x1
 1413 004f 50       		.byte	0x50
 1414 0050 04       		.byte	0x4
 1415 0051 22       		.uleb128 .LVL6-.LVL4
 1416 0052 2E       		.uleb128 .LVL8-.LVL4
 1417 0053 04       		.uleb128 0x4
 1418 0054 A3       		.byte	0xa3
ARM GAS  C:\Users\DEVELO~1\AppData\Local\Temp\ccuPdkMV.s 			page 26


 1419 0055 01       		.uleb128 0x1
 1420 0056 50       		.byte	0x50
 1421 0057 9F       		.byte	0x9f
 1422 0058 04       		.byte	0x4
 1423 0059 2E       		.uleb128 .LVL8-.LVL4
 1424 005a 30       		.uleb128 .LVL9-.LVL4
 1425 005b 01       		.uleb128 0x1
 1426 005c 50       		.byte	0x50
 1427 005d 04       		.byte	0x4
 1428 005e 30       		.uleb128 .LVL9-.LVL4
 1429 005f 34       		.uleb128 .LVL10-.LVL4
 1430 0060 04       		.uleb128 0x4
 1431 0061 A3       		.byte	0xa3
 1432 0062 01       		.uleb128 0x1
 1433 0063 50       		.byte	0x50
 1434 0064 9F       		.byte	0x9f
 1435 0065 04       		.byte	0x4
 1436 0066 34       		.uleb128 .LVL10-.LVL4
 1437 0067 3E       		.uleb128 .LVL12-.LVL4
 1438 0068 01       		.uleb128 0x1
 1439 0069 50       		.byte	0x50
 1440 006a 04       		.byte	0x4
 1441 006b 3E       		.uleb128 .LVL12-.LVL4
 1442 006c A001     		.uleb128 .LFE3-.LVL4
 1443 006e 04       		.uleb128 0x4
 1444 006f A3       		.byte	0xa3
 1445 0070 01       		.uleb128 0x1
 1446 0071 50       		.byte	0x50
 1447 0072 9F       		.byte	0x9f
 1448 0073 00       		.byte	0
 1449              	.LVUS3:
 1450 0074 00       		.uleb128 0
 1451 0075 00       		.uleb128 .LVU31
 1452 0076 00       		.uleb128 .LVU31
 1453 0077 00       		.uleb128 .LVU35
 1454 0078 00       		.uleb128 .LVU35
 1455 0079 00       		.uleb128 .LVU38
 1456 007a 00       		.uleb128 .LVU38
 1457 007b 00       		.uleb128 0
 1458              	.LLST3:
 1459 007c 06       		.byte	0x6
 1460 007d 00000000 		.4byte	.LVL4
 1461 0081 04       		.byte	0x4
 1462 0082 00       		.uleb128 .LVL4-.LVL4
 1463 0083 22       		.uleb128 .LVL6-.LVL4
 1464 0084 01       		.uleb128 0x1
 1465 0085 51       		.byte	0x51
 1466 0086 04       		.byte	0x4
 1467 0087 22       		.uleb128 .LVL6-.LVL4
 1468 0088 2E       		.uleb128 .LVL8-.LVL4
 1469 0089 04       		.uleb128 0x4
 1470 008a A3       		.byte	0xa3
 1471 008b 01       		.uleb128 0x1
 1472 008c 51       		.byte	0x51
 1473 008d 9F       		.byte	0x9f
 1474 008e 04       		.byte	0x4
 1475 008f 2E       		.uleb128 .LVL8-.LVL4
ARM GAS  C:\Users\DEVELO~1\AppData\Local\Temp\ccuPdkMV.s 			page 27


 1476 0090 36       		.uleb128 .LVL11-.LVL4
 1477 0091 01       		.uleb128 0x1
 1478 0092 51       		.byte	0x51
 1479 0093 04       		.byte	0x4
 1480 0094 36       		.uleb128 .LVL11-.LVL4
 1481 0095 A001     		.uleb128 .LFE3-.LVL4
 1482 0097 04       		.uleb128 0x4
 1483 0098 A3       		.byte	0xa3
 1484 0099 01       		.uleb128 0x1
 1485 009a 51       		.byte	0x51
 1486 009b 9F       		.byte	0x9f
 1487 009c 00       		.byte	0
 1488              	.LVUS5:
 1489 009d 00       		.uleb128 .LVU27
 1490 009e 00       		.uleb128 .LVU33
 1491 009f 00       		.uleb128 .LVU37
 1492 00a0 00       		.uleb128 0
 1493              	.LLST5:
 1494 00a1 06       		.byte	0x6
 1495 00a2 14000000 		.4byte	.LVL5
 1496 00a6 04       		.byte	0x4
 1497 00a7 00       		.uleb128 .LVL5-.LVL5
 1498 00a8 16       		.uleb128 .LVL7-.LVL5
 1499 00a9 01       		.uleb128 0x1
 1500 00aa 58       		.byte	0x58
 1501 00ab 04       		.byte	0x4
 1502 00ac 20       		.uleb128 .LVL10-.LVL5
 1503 00ad 8C01     		.uleb128 .LFE3-.LVL5
 1504 00af 01       		.uleb128 0x1
 1505 00b0 58       		.byte	0x58
 1506 00b1 00       		.byte	0
 1507              	.LVUS6:
 1508 00b2 00       		.uleb128 .LVU27
 1509 00b3 00       		.uleb128 .LVU31
 1510 00b4 00       		.uleb128 .LVU31
 1511 00b5 00       		.uleb128 .LVU33
 1512 00b6 00       		.uleb128 .LVU37
 1513 00b7 00       		.uleb128 .LVU40
 1514 00b8 00       		.uleb128 .LVU40
 1515 00b9 00       		.uleb128 0
 1516              	.LLST6:
 1517 00ba 06       		.byte	0x6
 1518 00bb 14000000 		.4byte	.LVL5
 1519 00bf 04       		.byte	0x4
 1520 00c0 00       		.uleb128 .LVL5-.LVL5
 1521 00c1 0E       		.uleb128 .LVL6-.LVL5
 1522 00c2 01       		.uleb128 0x1
 1523 00c3 50       		.byte	0x50
 1524 00c4 04       		.byte	0x4
 1525 00c5 0E       		.uleb128 .LVL6-.LVL5
 1526 00c6 16       		.uleb128 .LVL7-.LVL5
 1527 00c7 03       		.uleb128 0x3
 1528 00c8 77       		.byte	0x77
 1529 00c9 20       		.sleb128 32
 1530 00ca 9F       		.byte	0x9f
 1531 00cb 04       		.byte	0x4
 1532 00cc 20       		.uleb128 .LVL10-.LVL5
ARM GAS  C:\Users\DEVELO~1\AppData\Local\Temp\ccuPdkMV.s 			page 28


 1533 00cd 2A       		.uleb128 .LVL12-.LVL5
 1534 00ce 01       		.uleb128 0x1
 1535 00cf 50       		.byte	0x50
 1536 00d0 04       		.byte	0x4
 1537 00d1 2A       		.uleb128 .LVL12-.LVL5
 1538 00d2 8C01     		.uleb128 .LFE3-.LVL5
 1539 00d4 03       		.uleb128 0x3
 1540 00d5 77       		.byte	0x77
 1541 00d6 20       		.sleb128 32
 1542 00d7 9F       		.byte	0x9f
 1543 00d8 00       		.byte	0
 1544              	.LVUS7:
 1545 00d9 02       		.uleb128 .LVU42
 1546 00da 00       		.uleb128 .LVU74
 1547 00db 00       		.uleb128 .LVU74
 1548 00dc 00       		.uleb128 0
 1549              	.LLST7:
 1550 00dd 06       		.byte	0x6
 1551 00de 3E000000 		.4byte	.LVL12
 1552 00e2 04       		.byte	0x4
 1553 00e3 00       		.uleb128 .LVL12-.LVL12
 1554 00e4 4A       		.uleb128 .LVL21-.LVL12
 1555 00e5 01       		.uleb128 0x1
 1556 00e6 54       		.byte	0x54
 1557 00e7 04       		.byte	0x4
 1558 00e8 4A       		.uleb128 .LVL21-.LVL12
 1559 00e9 62       		.uleb128 .LFE3-.LVL12
 1560 00ea 03       		.uleb128 0x3
 1561 00eb 74       		.byte	0x74
 1562 00ec 7D       		.sleb128 -3
 1563 00ed 9F       		.byte	0x9f
 1564 00ee 00       		.byte	0
 1565              	.LVUS9:
 1566 00ef 04       		.uleb128 .LVU44
 1567 00f0 00       		.uleb128 .LVU46
 1568 00f1 00       		.uleb128 .LVU46
 1569 00f2 01       		.uleb128 .LVU70
 1570 00f3 01       		.uleb128 .LVU70
 1571 00f4 00       		.uleb128 .LVU71
 1572              	.LLST9:
 1573 00f5 06       		.byte	0x6
 1574 00f6 3E000000 		.4byte	.LVL12
 1575 00fa 04       		.byte	0x4
 1576 00fb 00       		.uleb128 .LVL12-.LVL12
 1577 00fc 02       		.uleb128 .LVL13-.LVL12
 1578 00fd 02       		.uleb128 0x2
 1579 00fe 30       		.byte	0x30
 1580 00ff 9F       		.byte	0x9f
 1581 0100 04       		.byte	0x4
 1582 0101 02       		.uleb128 .LVL13-.LVL12
 1583 0102 40       		.uleb128 .LVL19-.LVL12
 1584 0103 01       		.uleb128 0x1
 1585 0104 53       		.byte	0x53
 1586 0105 04       		.byte	0x4
 1587 0106 40       		.uleb128 .LVL19-.LVL12
 1588 0107 42       		.uleb128 .LVL20-.LVL12
 1589 0108 03       		.uleb128 0x3
ARM GAS  C:\Users\DEVELO~1\AppData\Local\Temp\ccuPdkMV.s 			page 29


 1590 0109 73       		.byte	0x73
 1591 010a 01       		.sleb128 1
 1592 010b 9F       		.byte	0x9f
 1593 010c 00       		.byte	0
 1594              	.LVUS11:
 1595 010d 00       		.uleb128 .LVU50
 1596 010e 00       		.uleb128 .LVU55
 1597 010f 00       		.uleb128 .LVU59
 1598 0110 00       		.uleb128 .LVU71
 1599 0111 00       		.uleb128 .LVU71
 1600 0112 00       		.uleb128 .LVU74
 1601 0113 00       		.uleb128 .LVU74
 1602 0114 00       		.uleb128 .LVU77
 1603              	.LLST11:
 1604 0115 06       		.byte	0x6
 1605 0116 4C000000 		.4byte	.LVL14
 1606 011a 04       		.byte	0x4
 1607 011b 00       		.uleb128 .LVL14-.LVL14
 1608 011c 10       		.uleb128 .LVL16-.LVL14
 1609 011d 01       		.uleb128 0x1
 1610 011e 5C       		.byte	0x5c
 1611 011f 04       		.byte	0x4
 1612 0120 12       		.uleb128 .LVL17-.LVL14
 1613 0121 34       		.uleb128 .LVL20-.LVL14
 1614 0122 2E       		.uleb128 0x2e
 1615 0123 73       		.byte	0x73
 1616 0124 00       		.sleb128 0
 1617 0125 09       		.byte	0x9
 1618 0126 FC       		.byte	0xfc
 1619 0127 24       		.byte	0x24
 1620 0128 09       		.byte	0x9
 1621 0129 FD       		.byte	0xfd
 1622 012a 25       		.byte	0x25
 1623 012b 74       		.byte	0x74
 1624 012c 00       		.sleb128 0
 1625 012d 22       		.byte	0x22
 1626 012e 94       		.byte	0x94
 1627 012f 01       		.byte	0x1
 1628 0130 3F       		.byte	0x3f
 1629 0131 1A       		.byte	0x1a
 1630 0132 08       		.byte	0x8
 1631 0133 FF       		.byte	0xff
 1632 0134 1A       		.byte	0x1a
 1633 0135 73       		.byte	0x73
 1634 0136 00       		.sleb128 0
 1635 0137 09       		.byte	0x9
 1636 0138 FC       		.byte	0xfc
 1637 0139 24       		.byte	0x24
 1638 013a 09       		.byte	0x9
 1639 013b FD       		.byte	0xfd
 1640 013c 25       		.byte	0x25
 1641 013d 74       		.byte	0x74
 1642 013e 00       		.sleb128 0
 1643 013f 22       		.byte	0x22
 1644 0140 94       		.byte	0x94
 1645 0141 01       		.byte	0x1
 1646 0142 08       		.byte	0x8
ARM GAS  C:\Users\DEVELO~1\AppData\Local\Temp\ccuPdkMV.s 			page 30


 1647 0143 FF       		.byte	0xff
 1648 0144 1A       		.byte	0x1a
 1649 0145 73       		.byte	0x73
 1650 0146 00       		.sleb128 0
 1651 0147 4F       		.byte	0x4f
 1652 0148 24       		.byte	0x24
 1653 0149 30       		.byte	0x30
 1654 014a 2D       		.byte	0x2d
 1655 014b 28       		.byte	0x28
 1656 014c 0100     		.2byte	0x1
 1657 014e 16       		.byte	0x16
 1658 014f 13       		.byte	0x13
 1659 0150 9F       		.byte	0x9f
 1660 0151 04       		.byte	0x4
 1661 0152 34       		.uleb128 .LVL20-.LVL14
 1662 0153 3C       		.uleb128 .LVL21-.LVL14
 1663 0154 2E       		.uleb128 0x2e
 1664 0155 73       		.byte	0x73
 1665 0156 7F       		.sleb128 -1
 1666 0157 09       		.byte	0x9
 1667 0158 FC       		.byte	0xfc
 1668 0159 24       		.byte	0x24
 1669 015a 09       		.byte	0x9
 1670 015b FD       		.byte	0xfd
 1671 015c 25       		.byte	0x25
 1672 015d 74       		.byte	0x74
 1673 015e 00       		.sleb128 0
 1674 015f 22       		.byte	0x22
 1675 0160 94       		.byte	0x94
 1676 0161 01       		.byte	0x1
 1677 0162 3F       		.byte	0x3f
 1678 0163 1A       		.byte	0x1a
 1679 0164 08       		.byte	0x8
 1680 0165 FF       		.byte	0xff
 1681 0166 1A       		.byte	0x1a
 1682 0167 73       		.byte	0x73
 1683 0168 7F       		.sleb128 -1
 1684 0169 09       		.byte	0x9
 1685 016a FC       		.byte	0xfc
 1686 016b 24       		.byte	0x24
 1687 016c 09       		.byte	0x9
 1688 016d FD       		.byte	0xfd
 1689 016e 25       		.byte	0x25
 1690 016f 74       		.byte	0x74
 1691 0170 00       		.sleb128 0
 1692 0171 22       		.byte	0x22
 1693 0172 94       		.byte	0x94
 1694 0173 01       		.byte	0x1
 1695 0174 08       		.byte	0x8
 1696 0175 FF       		.byte	0xff
 1697 0176 1A       		.byte	0x1a
 1698 0177 73       		.byte	0x73
 1699 0178 7F       		.sleb128 -1
 1700 0179 4F       		.byte	0x4f
 1701 017a 24       		.byte	0x24
 1702 017b 30       		.byte	0x30
 1703 017c 2D       		.byte	0x2d
ARM GAS  C:\Users\DEVELO~1\AppData\Local\Temp\ccuPdkMV.s 			page 31


 1704 017d 28       		.byte	0x28
 1705 017e 0100     		.2byte	0x1
 1706 0180 16       		.byte	0x16
 1707 0181 13       		.byte	0x13
 1708 0182 9F       		.byte	0x9f
 1709 0183 04       		.byte	0x4
 1710 0184 3C       		.uleb128 .LVL21-.LVL14
 1711 0185 42       		.uleb128 .LVL22-.LVL14
 1712 0186 32       		.uleb128 0x32
 1713 0187 73       		.byte	0x73
 1714 0188 7F       		.sleb128 -1
 1715 0189 09       		.byte	0x9
 1716 018a FC       		.byte	0xfc
 1717 018b 24       		.byte	0x24
 1718 018c 09       		.byte	0x9
 1719 018d FD       		.byte	0xfd
 1720 018e 25       		.byte	0x25
 1721 018f 74       		.byte	0x74
 1722 0190 00       		.sleb128 0
 1723 0191 22       		.byte	0x22
 1724 0192 33       		.byte	0x33
 1725 0193 1C       		.byte	0x1c
 1726 0194 94       		.byte	0x94
 1727 0195 01       		.byte	0x1
 1728 0196 3F       		.byte	0x3f
 1729 0197 1A       		.byte	0x1a
 1730 0198 08       		.byte	0x8
 1731 0199 FF       		.byte	0xff
 1732 019a 1A       		.byte	0x1a
 1733 019b 73       		.byte	0x73
 1734 019c 7F       		.sleb128 -1
 1735 019d 09       		.byte	0x9
 1736 019e FC       		.byte	0xfc
 1737 019f 24       		.byte	0x24
 1738 01a0 09       		.byte	0x9
 1739 01a1 FD       		.byte	0xfd
 1740 01a2 25       		.byte	0x25
 1741 01a3 74       		.byte	0x74
 1742 01a4 00       		.sleb128 0
 1743 01a5 22       		.byte	0x22
 1744 01a6 33       		.byte	0x33
 1745 01a7 1C       		.byte	0x1c
 1746 01a8 94       		.byte	0x94
 1747 01a9 01       		.byte	0x1
 1748 01aa 08       		.byte	0x8
 1749 01ab FF       		.byte	0xff
 1750 01ac 1A       		.byte	0x1a
 1751 01ad 73       		.byte	0x73
 1752 01ae 7F       		.sleb128 -1
 1753 01af 4F       		.byte	0x4f
 1754 01b0 24       		.byte	0x24
 1755 01b1 30       		.byte	0x30
 1756 01b2 2D       		.byte	0x2d
 1757 01b3 28       		.byte	0x28
 1758 01b4 0100     		.2byte	0x1
 1759 01b6 16       		.byte	0x16
 1760 01b7 13       		.byte	0x13
ARM GAS  C:\Users\DEVELO~1\AppData\Local\Temp\ccuPdkMV.s 			page 32


 1761 01b8 9F       		.byte	0x9f
 1762 01b9 00       		.byte	0
 1763              	.LVUS12:
 1764 01ba 00       		.uleb128 .LVU55
 1765 01bb 00       		.uleb128 0
 1766              	.LLST12:
 1767 01bc 08       		.byte	0x8
 1768 01bd 5C000000 		.4byte	.LVL16
 1769 01c1 44       		.uleb128 .LFE3-.LVL16
 1770 01c2 01       		.uleb128 0x1
 1771 01c3 5C       		.byte	0x5c
 1772 01c4 00       		.byte	0
 1773              	.LVUS14:
 1774 01c5 02       		.uleb128 .LVU57
 1775 01c6 00       		.uleb128 .LVU59
 1776 01c7 00       		.uleb128 .LVU59
 1777 01c8 04       		.uleb128 .LVU63
 1778 01c9 04       		.uleb128 .LVU63
 1779 01ca 00       		.uleb128 .LVU66
 1780              	.LLST14:
 1781 01cb 06       		.byte	0x6
 1782 01cc 5C000000 		.4byte	.LVL16
 1783 01d0 04       		.byte	0x4
 1784 01d1 00       		.uleb128 .LVL16-.LVL16
 1785 01d2 02       		.uleb128 .LVL17-.LVL16
 1786 01d3 02       		.uleb128 0x2
 1787 01d4 30       		.byte	0x30
 1788 01d5 9F       		.byte	0x9f
 1789 01d6 04       		.byte	0x4
 1790 01d7 02       		.uleb128 .LVL17-.LVL16
 1791 01d8 02       		.uleb128 .LVL17-.LVL16
 1792 01d9 01       		.uleb128 0x1
 1793 01da 50       		.byte	0x50
 1794 01db 04       		.byte	0x4
 1795 01dc 02       		.uleb128 .LVL17-.LVL16
 1796 01dd 08       		.uleb128 .LVL18-.LVL16
 1797 01de 03       		.uleb128 0x3
 1798 01df 70       		.byte	0x70
 1799 01e0 01       		.sleb128 1
 1800 01e1 9F       		.byte	0x9f
 1801 01e2 00       		.byte	0
 1802              	.LVUS16:
 1803 01e3 01       		.uleb128 .LVU60
 1804 01e4 00       		.uleb128 .LVU66
 1805 01e5 00       		.uleb128 .LVU66
 1806 01e6 00       		.uleb128 0
 1807              	.LLST16:
 1808 01e7 06       		.byte	0x6
 1809 01e8 5E000000 		.4byte	.LVL17
 1810 01ec 04       		.byte	0x4
 1811 01ed 00       		.uleb128 .LVL17-.LVL17
 1812 01ee 06       		.uleb128 .LVL18-.LVL17
 1813 01ef 08       		.uleb128 0x8
 1814 01f0 7C       		.byte	0x7c
 1815 01f1 00       		.sleb128 0
 1816 01f2 70       		.byte	0x70
 1817 01f3 00       		.sleb128 0
ARM GAS  C:\Users\DEVELO~1\AppData\Local\Temp\ccuPdkMV.s 			page 33


 1818 01f4 26       		.byte	0x26
 1819 01f5 31       		.byte	0x31
 1820 01f6 1A       		.byte	0x1a
 1821 01f7 9F       		.byte	0x9f
 1822 01f8 04       		.byte	0x4
 1823 01f9 06       		.uleb128 .LVL18-.LVL17
 1824 01fa 42       		.uleb128 .LFE3-.LVL17
 1825 01fb 08       		.uleb128 0x8
 1826 01fc 7C       		.byte	0x7c
 1827 01fd 00       		.sleb128 0
 1828 01fe 70       		.byte	0x70
 1829 01ff 7F       		.sleb128 -1
 1830 0200 26       		.byte	0x26
 1831 0201 31       		.byte	0x31
 1832 0202 1A       		.byte	0x1a
 1833 0203 9F       		.byte	0x9f
 1834 0204 00       		.byte	0
 1835              	.Ldebug_loc3:
 1836              		.section	.debug_aranges,"",%progbits
 1837 0000 2C000000 		.4byte	0x2c
 1838 0004 0200     		.2byte	0x2
 1839 0006 00000000 		.4byte	.Ldebug_info0
 1840 000a 04       		.byte	0x4
 1841 000b 00       		.byte	0
 1842 000c 0000     		.2byte	0
 1843 000e 0000     		.2byte	0
 1844 0010 00000000 		.4byte	.LFB0
 1845 0014 20000000 		.4byte	.LFE0-.LFB0
 1846 0018 00000000 		.4byte	.LFB1
 1847 001c 24000000 		.4byte	.LFE1-.LFB1
 1848 0020 00000000 		.4byte	.LFB3
 1849 0024 A0000000 		.4byte	.LFE3-.LFB3
 1850 0028 00000000 		.4byte	0
 1851 002c 00000000 		.4byte	0
 1852              		.section	.debug_rnglists,"",%progbits
 1853              	.Ldebug_ranges0:
 1854 0000 6B000000 		.4byte	.Ldebug_ranges3-.Ldebug_ranges2
 1855              	.Ldebug_ranges2:
 1856 0004 0500     		.2byte	0x5
 1857 0006 04       		.byte	0x4
 1858 0007 00       		.byte	0
 1859 0008 00000000 		.4byte	0
 1860              	.LLRL4:
 1861 000c 05       		.byte	0x5
 1862 000d 14000000 		.4byte	.LBB12
 1863 0011 04       		.byte	0x4
 1864 0012 00       		.uleb128 .LBB12-.LBB12
 1865 0013 16       		.uleb128 .LBE12-.LBB12
 1866 0014 04       		.byte	0x4
 1867 0015 28       		.uleb128 .LBB33-.LBB12
 1868 0016 8C01     		.uleb128 .LBE33-.LBB12
 1869 0018 00       		.byte	0
 1870              	.LLRL8:
 1871 0019 05       		.byte	0x5
 1872 001a 3C000000 		.4byte	.LBB18
 1873 001e 04       		.byte	0x4
 1874 001f 00       		.uleb128 .LBB18-.LBB18
ARM GAS  C:\Users\DEVELO~1\AppData\Local\Temp\ccuPdkMV.s 			page 34


 1875 0020 02       		.uleb128 .LBE18-.LBB18
 1876 0021 04       		.byte	0x4
 1877 0022 02       		.uleb128 .LBB30-.LBB18
 1878 0023 02       		.uleb128 .LBE30-.LBB18
 1879 0024 04       		.byte	0x4
 1880 0025 04       		.uleb128 .LBB31-.LBB18
 1881 0026 48       		.uleb128 .LBE31-.LBB18
 1882 0027 00       		.byte	0
 1883              	.LLRL10:
 1884 0028 05       		.byte	0x5
 1885 0029 3C000000 		.4byte	.LBB19
 1886 002d 04       		.byte	0x4
 1887 002e 00       		.uleb128 .LBB19-.LBB19
 1888 002f 02       		.uleb128 .LBE19-.LBB19
 1889 0030 04       		.byte	0x4
 1890 0031 04       		.uleb128 .LBB29-.LBB19
 1891 0032 42       		.uleb128 .LBE29-.LBB19
 1892 0033 00       		.byte	0
 1893              	.LLRL13:
 1894 0034 05       		.byte	0x5
 1895 0035 3C000000 		.4byte	.LBB20
 1896 0039 04       		.byte	0x4
 1897 003a 00       		.uleb128 .LBB20-.LBB20
 1898 003b 02       		.uleb128 .LBE20-.LBB20
 1899 003c 04       		.byte	0x4
 1900 003d 08       		.uleb128 .LBB26-.LBB20
 1901 003e 0C       		.uleb128 .LBE26-.LBB20
 1902 003f 04       		.byte	0x4
 1903 0040 12       		.uleb128 .LBB27-.LBB20
 1904 0041 16       		.uleb128 .LBE27-.LBB20
 1905 0042 04       		.byte	0x4
 1906 0043 20       		.uleb128 .LBB28-.LBB20
 1907 0044 42       		.uleb128 .LBE28-.LBB20
 1908 0045 00       		.byte	0
 1909              	.LLRL15:
 1910 0046 05       		.byte	0x5
 1911 0047 3C000000 		.4byte	.LBB21
 1912 004b 04       		.byte	0x4
 1913 004c 00       		.uleb128 .LBB21-.LBB21
 1914 004d 02       		.uleb128 .LBE21-.LBB21
 1915 004e 04       		.byte	0x4
 1916 004f 08       		.uleb128 .LBB22-.LBB21
 1917 0050 0C       		.uleb128 .LBE22-.LBB21
 1918 0051 04       		.byte	0x4
 1919 0052 12       		.uleb128 .LBB23-.LBB21
 1920 0053 16       		.uleb128 .LBE23-.LBB21
 1921 0054 04       		.byte	0x4
 1922 0055 20       		.uleb128 .LBB24-.LBB21
 1923 0056 22       		.uleb128 .LBE24-.LBB21
 1924 0057 04       		.byte	0x4
 1925 0058 22       		.uleb128 .LBB25-.LBB21
 1926 0059 3A       		.uleb128 .LBE25-.LBB21
 1927 005a 00       		.byte	0
 1928              	.LLRL17:
 1929 005b 07       		.byte	0x7
 1930 005c 00000000 		.4byte	.LFB0
 1931 0060 20       		.uleb128 .LFE0-.LFB0
ARM GAS  C:\Users\DEVELO~1\AppData\Local\Temp\ccuPdkMV.s 			page 35


 1932 0061 07       		.byte	0x7
 1933 0062 00000000 		.4byte	.LFB1
 1934 0066 24       		.uleb128 .LFE1-.LFB1
 1935 0067 07       		.byte	0x7
 1936 0068 00000000 		.4byte	.LFB3
 1937 006c A001     		.uleb128 .LFE3-.LFB3
 1938 006e 00       		.byte	0
 1939              	.Ldebug_ranges3:
 1940              		.section	.debug_line,"",%progbits
 1941              	.Ldebug_line0:
 1942 0000 52020000 		.section	.debug_str,"MS",%progbits,1
 1942      03003101 
 1942      00000201 
 1942      FB0E0D00 
 1942      01010101 
 1943              	.LASF25:
 1944 0000 666F6E74 		.ascii	"font5x8_elektron\000"
 1944      3578385F 
 1944      656C656B 
 1944      74726F6E 
 1944      00
 1945              	.LASF26:
 1946 0011 666F6E74 		.ascii	"font4x6_expanded\000"
 1946      3478365F 
 1946      65787061 
 1946      6E646564 
 1946      00
 1947              	.LASF9:
 1948 0022 5F5F7569 		.ascii	"__uint8_t\000"
 1948      6E74385F 
 1948      7400
 1949              	.LASF36:
 1950 002c 666F6E74 		.ascii	"font_s\000"
 1950      5F7300
 1951              	.LASF19:
 1952 0033 666F6E74 		.ascii	"font_t\000"
 1952      5F7400
 1953              	.LASF28:
 1954 003a 5F426F6F 		.ascii	"_Bool\000"
 1954      6C00
 1955              	.LASF38:
 1956 0040 65787061 		.ascii	"expand_font4x6\000"
 1956      6E645F66 
 1956      6F6E7434 
 1956      783600
 1957              	.LASF14:
 1958 004f 66697273 		.ascii	"first\000"
 1958      7400
 1959              	.LASF29:
 1960 0055 62797465 		.ascii	"byte\000"
 1960      00
 1961              	.LASF1:
 1962 005a 756E7369 		.ascii	"unsigned char\000"
 1962      676E6564 
 1962      20636861 
 1962      7200
 1963              	.LASF5:
ARM GAS  C:\Users\DEVELO~1\AppData\Local\Temp\ccuPdkMV.s 			page 36


 1964 0068 6C6F6E67 		.ascii	"long unsigned int\000"
 1964      20756E73 
 1964      69676E65 
 1964      6420696E 
 1964      7400
 1965              	.LASF3:
 1966 007a 73686F72 		.ascii	"short unsigned int\000"
 1966      7420756E 
 1966      7369676E 
 1966      65642069 
 1966      6E7400
 1967              	.LASF34:
 1968 008d 75692F66 		.ascii	"ui/font.c\000"
 1968      6F6E742E 
 1968      6300
 1969              	.LASF17:
 1970 0097 6765745F 		.ascii	"get_col\000"
 1970      636F6C00 
 1971              	.LASF13:
 1972 009f 68656967 		.ascii	"height\000"
 1972      687400
 1973              	.LASF24:
 1974 00a6 666F6E74 		.ascii	"font4x6\000"
 1974      34783600 
 1975              	.LASF37:
 1976 00ae 6765745F 		.ascii	"get_col_4x6\000"
 1976      636F6C5F 
 1976      34783600 
 1977              	.LASF21:
 1978 00ba 464F4E54 		.ascii	"FONT_4X6\000"
 1978      5F345836 
 1978      00
 1979              	.LASF8:
 1980 00c3 756E7369 		.ascii	"unsigned int\000"
 1980      676E6564 
 1980      20696E74 
 1980      00
 1981              	.LASF7:
 1982 00d0 6C6F6E67 		.ascii	"long long unsigned int\000"
 1982      206C6F6E 
 1982      6720756E 
 1982      7369676E 
 1982      65642069 
 1983              	.LASF10:
 1984 00e7 75696E74 		.ascii	"uint8_t\000"
 1984      385F7400 
 1985              	.LASF16:
 1986 00ef 73706163 		.ascii	"spacing\000"
 1986      696E6700 
 1987              	.LASF22:
 1988 00f7 464F4E54 		.ascii	"FONT_5X8_ELEKTRON\000"
 1988      5F355838 
 1988      5F454C45 
 1988      4B54524F 
 1988      4E00
 1989              	.LASF6:
 1990 0109 6C6F6E67 		.ascii	"long long int\000"
ARM GAS  C:\Users\DEVELO~1\AppData\Local\Temp\ccuPdkMV.s 			page 37


 1990      206C6F6E 
 1990      6720696E 
 1990      7400
 1991              	.LASF11:
 1992 0117 6E616D65 		.ascii	"name\000"
 1992      00
 1993              	.LASF31:
 1994 011c 6765745F 		.ascii	"get_col_5x8_elektron\000"
 1994      636F6C5F 
 1994      3578385F 
 1994      656C656B 
 1994      74726F6E 
 1995              	.LASF12:
 1996 0131 77696474 		.ascii	"width\000"
 1996      6800
 1997              	.LASF2:
 1998 0137 73686F72 		.ascii	"short int\000"
 1998      7420696E 
 1998      7400
 1999              	.LASF35:
 2000 0141 433A5C43 		.ascii	"C:\\ChibiStudio\\chibios2111\\demos\\STM32\\RT-STM3"
 2000      68696269 
 2000      53747564 
 2000      696F5C63 
 2000      68696269 
 2001 016f 32483734 		.ascii	"2H743ZI_REV_XY-NUCLEO144 - Copie\000"
 2001      335A495F 
 2001      5245565F 
 2001      58592D4E 
 2001      55434C45 
 2002              	.LASF23:
 2003 0190 666F6E74 		.ascii	"font5x7\000"
 2003      35783700 
 2004              	.LASF33:
 2005 0198 474E5520 		.ascii	"GNU C17 11.3.1 20220712 -mcpu=cortex-m7 -mthumb -mf"
 2005      43313720 
 2005      31312E33 
 2005      2E312032 
 2005      30323230 
 2006 01cb 6C6F6174 		.ascii	"loat-abi=soft -march=armv7e-m -ggdb -O2 -fomit-fram"
 2006      2D616269 
 2006      3D736F66 
 2006      74202D6D 
 2006      61726368 
 2007 01fe 652D706F 		.ascii	"e-pointer -falign-functions=16 -ffunction-sections "
 2007      696E7465 
 2007      72202D66 
 2007      616C6967 
 2007      6E2D6675 
 2008 0231 2D666461 		.ascii	"-fdata-sections -fno-common\000"
 2008      74612D73 
 2008      65637469 
 2008      6F6E7320 
 2008      2D666E6F 
 2009              	.LASF4:
 2010 024d 6C6F6E67 		.ascii	"long int\000"
 2010      20696E74 
ARM GAS  C:\Users\DEVELO~1\AppData\Local\Temp\ccuPdkMV.s 			page 38


 2010      00
 2011              	.LASF18:
 2012 0256 63686172 		.ascii	"char\000"
 2012      00
 2013              	.LASF20:
 2014 025b 464F4E54 		.ascii	"FONT_5X7\000"
 2014      5F355837 
 2014      00
 2015              	.LASF32:
 2016 0264 6765745F 		.ascii	"get_col_5x7\000"
 2016      636F6C5F 
 2016      35783700 
 2017              	.LASF0:
 2018 0270 7369676E 		.ascii	"signed char\000"
 2018      65642063 
 2018      68617200 
 2019              	.LASF15:
 2020 027c 6C617374 		.ascii	"last\000"
 2020      00
 2021              	.LASF27:
 2022 0281 666F6E74 		.ascii	"font4x6_ready\000"
 2022      3478365F 
 2022      72656164 
 2022      7900
 2023              	.LASF30:
 2024 028f 6E696262 		.ascii	"nibble\000"
 2024      6C6500
 2025              		.ident	"GCC: (Arm GNU Toolchain 11.3.Rel1) 11.3.1 20220712"
ARM GAS  C:\Users\DEVELO~1\AppData\Local\Temp\ccuPdkMV.s 			page 39


DEFINED SYMBOLS
                            *ABS*:00000000 font.c
C:\Users\DEVELO~1\AppData\Local\Temp\ccuPdkMV.s:18     .text.get_col_5x7:00000000 $t
C:\Users\DEVELO~1\AppData\Local\Temp\ccuPdkMV.s:24     .text.get_col_5x7:00000000 get_col_5x7
C:\Users\DEVELO~1\AppData\Local\Temp\ccuPdkMV.s:60     .text.get_col_5x7:0000001c $d
C:\Users\DEVELO~1\AppData\Local\Temp\ccuPdkMV.s:65     .text.get_col_5x8_elektron:00000000 $t
C:\Users\DEVELO~1\AppData\Local\Temp\ccuPdkMV.s:71     .text.get_col_5x8_elektron:00000000 get_col_5x8_elektron
C:\Users\DEVELO~1\AppData\Local\Temp\ccuPdkMV.s:106    .text.get_col_5x8_elektron:00000020 $d
C:\Users\DEVELO~1\AppData\Local\Temp\ccuPdkMV.s:111    .text.get_col_4x6:00000000 $t
C:\Users\DEVELO~1\AppData\Local\Temp\ccuPdkMV.s:117    .text.get_col_4x6:00000000 get_col_4x6
C:\Users\DEVELO~1\AppData\Local\Temp\ccuPdkMV.s:313    .text.get_col_4x6:00000094 $d
C:\Users\DEVELO~1\AppData\Local\Temp\ccuPdkMV.s:379    .rodata.FONT_5X8_ELEKTRON:00000000 FONT_5X8_ELEKTRON
C:\Users\DEVELO~1\AppData\Local\Temp\ccuPdkMV.s:325    .rodata.str1.4:00000000 $d
C:\Users\DEVELO~1\AppData\Local\Temp\ccuPdkMV.s:353    .rodata.FONT_4X6:00000000 FONT_4X6
C:\Users\DEVELO~1\AppData\Local\Temp\ccuPdkMV.s:366    .rodata.FONT_5X7:00000000 FONT_5X7
C:\Users\DEVELO~1\AppData\Local\Temp\ccuPdkMV.s:337    .bss.font4x6_expanded:00000000 $d
C:\Users\DEVELO~1\AppData\Local\Temp\ccuPdkMV.s:341    .bss.font4x6_expanded:00000000 font4x6_expanded
C:\Users\DEVELO~1\AppData\Local\Temp\ccuPdkMV.s:347    .bss.font4x6_ready:00000000 font4x6_ready
C:\Users\DEVELO~1\AppData\Local\Temp\ccuPdkMV.s:348    .bss.font4x6_ready:00000000 $d
C:\Users\DEVELO~1\AppData\Local\Temp\ccuPdkMV.s:350    .rodata.FONT_4X6:00000000 $d
C:\Users\DEVELO~1\AppData\Local\Temp\ccuPdkMV.s:363    .rodata.FONT_5X7:00000000 $d
C:\Users\DEVELO~1\AppData\Local\Temp\ccuPdkMV.s:376    .rodata.FONT_5X8_ELEKTRON:00000000 $d

UNDEFINED SYMBOLS
font5x7
font5x8_elektron
font4x6
