ARM GAS  C:\Users\DEVELO~1\AppData\Local\Temp\cc553B5P.s 			page 1


   1              		.cpu cortex-m7
   2              		.arch armv7e-m
   3              		.fpu softvfp
   4              		.eabi_attribute 20, 1
   5              		.eabi_attribute 21, 1
   6              		.eabi_attribute 23, 3
   7              		.eabi_attribute 24, 1
   8              		.eabi_attribute 25, 1
   9              		.eabi_attribute 26, 1
  10              		.eabi_attribute 30, 2
  11              		.eabi_attribute 34, 1
  12              		.eabi_attribute 18, 4
  13              		.file	"hal_lld.c"
  14              		.text
  15              	.Ltext0:
  16              		.cfi_sections	.debug_frame
  17              		.section	.text.hal_lld_init,"ax",%progbits
  18              		.align	1
  19              		.p2align 4,,15
  20              		.global	hal_lld_init
  21              		.syntax unified
  22              		.thumb
  23              		.thumb_func
  24              		.type	hal_lld_init, %function
  25              	hal_lld_init:
  26              	.LFB450:
  27              		.file 1 "./ChibiOS/os/hal/ports/STM32/STM32H7xx/hal_lld.c"
  28              		.loc 1 150 25 view -0
  29              		.cfi_startproc
  30              		@ args = 0, pretend = 0, frame = 0
  31              		@ frame_needed = 0, uses_anonymous_args = 0
  32              		.loc 1 160 3 view .LVU1
  33              	.LVL0:
  34              	.LBB29:
  35              	.LBI29:
  36              		.file 2 "./ChibiOS/os/hal/ports/STM32/STM32H7xx/stm32_rcc.h"
  37              		.loc 2 97 22 view .LVU2
  38              	.LBB30:
  39              		.loc 2 100 3 view .LVU3
  40              	.LBE30:
  41              	.LBE29:
  42              		.loc 1 150 25 is_stmt 0 view .LVU4
  43 0000 38B5     		push	{r3, r4, r5, lr}
  44              		.cfi_def_cfa_offset 16
  45              		.cfi_offset 3, -16
  46              		.cfi_offset 4, -12
  47              		.cfi_offset 5, -8
  48              		.cfi_offset 14, -4
  49              	.LBB34:
  50              	.LBB31:
  51              		.loc 2 100 17 view .LVU5
  52 0002 354B     		ldr	r3, .L4
  53              	.LBE31:
  54              	.LBE34:
  55              	.LBB35:
  56              	.LBB36:
  57              		.loc 2 108 17 view .LVU6
ARM GAS  C:\Users\DEVELO~1\AppData\Local\Temp\cc553B5P.s 			page 2


  58 0004 4FF0FF31 		mov	r1, #-1
  59              		.loc 2 109 17 view .LVU7
  60 0008 0022     		movs	r2, #0
  61              	.LBE36:
  62              	.LBE35:
  63              	.LBB38:
  64              	.LBB39:
  65              		.loc 2 116 17 view .LVU8
  66 000a 344C     		ldr	r4, .L4+4
  67              	.LBE39:
  68              	.LBE38:
  69              	.LBB43:
  70              	.LBB32:
  71              		.loc 2 100 17 view .LVU9
  72 000c D3F88000 		ldr	r0, [r3, #128]
  73              	.LBE32:
  74              	.LBE43:
  75              	.LBB44:
  76              	.LBB40:
  77              		.loc 2 117 17 view .LVU10
  78 0010 334D     		ldr	r5, .L4+8
  79              	.LBE40:
  80              	.LBE44:
  81              	.LBB45:
  82              	.LBB33:
  83              		.loc 2 100 17 view .LVU11
  84 0012 60F00040 		orn	r0, r0, #-2147483648
  85 0016 C3F88000 		str	r0, [r3, #128]
  86              		.loc 2 101 3 is_stmt 1 view .LVU12
  87              		.loc 2 101 17 is_stmt 0 view .LVU13
  88 001a D3F88000 		ldr	r0, [r3, #128]
  89 001e 00F00040 		and	r0, r0, #-2147483648
  90 0022 C3F88000 		str	r0, [r3, #128]
  91              		.loc 2 102 3 is_stmt 1 view .LVU14
  92 0026 D3F88000 		ldr	r0, [r3, #128]
  93              	.LVL1:
  94              		.loc 2 102 3 is_stmt 0 view .LVU15
  95              	.LBE33:
  96              	.LBE45:
  97              		.loc 1 161 3 is_stmt 1 view .LVU16
  98              	.LBB46:
  99              	.LBI35:
 100              		.loc 2 105 22 view .LVU17
 101              	.LBB37:
 102              		.loc 2 108 3 view .LVU18
 103              		.loc 2 108 17 is_stmt 0 view .LVU19
 104 002a D3F88400 		ldr	r0, [r3, #132]
 105 002e C3F88410 		str	r1, [r3, #132]
 106              		.loc 2 109 3 is_stmt 1 view .LVU20
 107              		.loc 2 109 17 is_stmt 0 view .LVU21
 108 0032 D3F88400 		ldr	r0, [r3, #132]
 109 0036 C3F88420 		str	r2, [r3, #132]
 110              		.loc 2 110 3 is_stmt 1 view .LVU22
 111 003a D3F88400 		ldr	r0, [r3, #132]
 112              	.LVL2:
 113              		.loc 2 110 3 is_stmt 0 view .LVU23
 114              	.LBE37:
ARM GAS  C:\Users\DEVELO~1\AppData\Local\Temp\cc553B5P.s 			page 3


 115              	.LBE46:
 116              		.loc 1 162 3 is_stmt 1 view .LVU24
 117              	.LBB47:
 118              	.LBI38:
 119              		.loc 2 113 22 view .LVU25
 120              	.LBB41:
 121              		.loc 2 116 3 view .LVU26
 122              		.loc 2 116 17 is_stmt 0 view .LVU27
 123 003e D86F     		ldr	r0, [r3, #124]
 124 0040 2043     		orrs	r0, r0, r4
 125 0042 D867     		str	r0, [r3, #124]
 126              		.loc 2 117 3 is_stmt 1 view .LVU28
 127              		.loc 2 117 17 is_stmt 0 view .LVU29
 128 0044 DC6F     		ldr	r4, [r3, #124]
 129              	.LBE41:
 130              	.LBE47:
 131              	.LBB48:
 132              	.LBB49:
 133              		.loc 2 124 17 view .LVU30
 134 0046 2748     		ldr	r0, .L4+12
 135              	.LBE49:
 136              	.LBE48:
 137              	.LBB51:
 138              	.LBB42:
 139              		.loc 2 117 17 view .LVU31
 140 0048 2C40     		ands	r4, r4, r5
 141 004a DC67     		str	r4, [r3, #124]
 142              		.loc 2 118 3 is_stmt 1 view .LVU32
 143 004c DC6F     		ldr	r4, [r3, #124]
 144              	.LVL3:
 145              		.loc 2 118 3 is_stmt 0 view .LVU33
 146              	.LBE42:
 147              	.LBE51:
 148              		.loc 1 177 3 is_stmt 1 view .LVU34
 149              	.LBB52:
 150              	.LBI48:
 151              		.loc 2 121 22 view .LVU35
 152              	.LBB50:
 153              		.loc 2 124 3 view .LVU36
 154              		.loc 2 124 17 is_stmt 0 view .LVU37
 155 004e D3F88840 		ldr	r4, [r3, #136]
 156 0052 2043     		orrs	r0, r0, r4
 157 0054 C3F88800 		str	r0, [r3, #136]
 158              		.loc 2 125 3 is_stmt 1 view .LVU38
 159              		.loc 2 125 17 is_stmt 0 view .LVU39
 160 0058 D3F88800 		ldr	r0, [r3, #136]
 161 005c C0F30A00 		ubfx	r0, r0, #0, #11
 162 0060 C3F88800 		str	r0, [r3, #136]
 163              		.loc 2 126 3 is_stmt 1 view .LVU40
 164 0064 D3F88800 		ldr	r0, [r3, #136]
 165              	.LVL4:
 166              		.loc 2 126 3 is_stmt 0 view .LVU41
 167              	.LBE50:
 168              	.LBE52:
 169              		.loc 1 178 3 is_stmt 1 view .LVU42
 170              	.LBB53:
 171              	.LBI53:
ARM GAS  C:\Users\DEVELO~1\AppData\Local\Temp\cc553B5P.s 			page 4


 172              		.loc 2 57 22 view .LVU43
 173              	.LBB54:
 174              		.loc 2 60 3 view .LVU44
 175              		.loc 2 60 18 is_stmt 0 view .LVU45
 176 0068 D3F89000 		ldr	r0, [r3, #144]
 177 006c C3F89010 		str	r1, [r3, #144]
 178              		.loc 2 61 3 is_stmt 1 view .LVU46
 179              		.loc 2 61 18 is_stmt 0 view .LVU47
 180 0070 D3F89000 		ldr	r0, [r3, #144]
 181 0074 C3F89020 		str	r2, [r3, #144]
 182              		.loc 2 62 3 is_stmt 1 view .LVU48
 183 0078 D3F89000 		ldr	r0, [r3, #144]
 184              	.LVL5:
 185              		.loc 2 62 3 is_stmt 0 view .LVU49
 186              	.LBE54:
 187              	.LBE53:
 188              		.loc 1 179 3 is_stmt 1 view .LVU50
 189              	.LBB55:
 190              	.LBI55:
 191              		.loc 2 65 22 view .LVU51
 192              	.LBB56:
 193              		.loc 2 68 3 view .LVU52
 194              		.loc 2 68 18 is_stmt 0 view .LVU53
 195 007c D3F89400 		ldr	r0, [r3, #148]
 196 0080 C3F89410 		str	r1, [r3, #148]
 197              		.loc 2 69 3 is_stmt 1 view .LVU54
 198              		.loc 2 69 18 is_stmt 0 view .LVU55
 199 0084 D3F89400 		ldr	r0, [r3, #148]
 200 0088 C3F89420 		str	r2, [r3, #148]
 201              		.loc 2 70 3 is_stmt 1 view .LVU56
 202 008c D3F89400 		ldr	r0, [r3, #148]
 203              	.LVL6:
 204              		.loc 2 70 3 is_stmt 0 view .LVU57
 205              	.LBE56:
 206              	.LBE55:
 207              		.loc 1 180 3 is_stmt 1 view .LVU58
 208              	.LBB57:
 209              	.LBI57:
 210              		.loc 2 73 22 view .LVU59
 211              	.LBB58:
 212              		.loc 2 76 3 view .LVU60
 213              		.loc 2 76 17 is_stmt 0 view .LVU61
 214 0090 D3F89800 		ldr	r0, [r3, #152]
 215 0094 C3F89810 		str	r1, [r3, #152]
 216              		.loc 2 77 3 is_stmt 1 view .LVU62
 217              		.loc 2 77 17 is_stmt 0 view .LVU63
 218 0098 D3F89800 		ldr	r0, [r3, #152]
 219 009c C3F89820 		str	r2, [r3, #152]
 220              		.loc 2 78 3 is_stmt 1 view .LVU64
 221 00a0 D3F89800 		ldr	r0, [r3, #152]
 222              	.LVL7:
 223              		.loc 2 78 3 is_stmt 0 view .LVU65
 224              	.LBE58:
 225              	.LBE57:
 226              		.loc 1 181 3 is_stmt 1 view .LVU66
 227              	.LBB59:
 228              	.LBI59:
ARM GAS  C:\Users\DEVELO~1\AppData\Local\Temp\cc553B5P.s 			page 5


 229              		.loc 2 81 22 view .LVU67
 230              	.LBB60:
 231              		.loc 2 84 3 view .LVU68
 232              		.loc 2 84 17 is_stmt 0 view .LVU69
 233 00a4 D3F88C00 		ldr	r0, [r3, #140]
 234 00a8 C3F88C10 		str	r1, [r3, #140]
 235              		.loc 2 85 3 is_stmt 1 view .LVU70
 236              		.loc 2 85 17 is_stmt 0 view .LVU71
 237 00ac D3F88C00 		ldr	r0, [r3, #140]
 238 00b0 C3F88C20 		str	r2, [r3, #140]
 239              		.loc 2 86 3 is_stmt 1 view .LVU72
 240 00b4 D3F88C00 		ldr	r0, [r3, #140]
 241              	.LVL8:
 242              		.loc 2 86 3 is_stmt 0 view .LVU73
 243              	.LBE60:
 244              	.LBE59:
 245              		.loc 1 182 3 is_stmt 1 view .LVU74
 246              	.LBB61:
 247              	.LBI61:
 248              		.loc 2 89 22 view .LVU75
 249              	.LBB62:
 250              		.loc 2 92 3 view .LVU76
 251              		.loc 2 92 17 is_stmt 0 view .LVU77
 252 00b8 D3F89C00 		ldr	r0, [r3, #156]
 253 00bc C3F89C10 		str	r1, [r3, #156]
 254              		.loc 2 93 3 is_stmt 1 view .LVU78
 255              		.loc 2 93 17 is_stmt 0 view .LVU79
 256 00c0 D3F89C10 		ldr	r1, [r3, #156]
 257 00c4 C3F89C20 		str	r2, [r3, #156]
 258              		.loc 2 94 3 is_stmt 1 view .LVU80
 259 00c8 D3F89C30 		ldr	r3, [r3, #156]
 260              	.LVL9:
 261              		.loc 2 94 3 is_stmt 0 view .LVU81
 262              	.LBE62:
 263              	.LBE61:
 264              		.loc 1 190 3 is_stmt 1 view .LVU82
 265 00cc FFF7FEFF 		bl	dmaInit
 266              	.LVL10:
 267              		.loc 1 197 3 view .LVU83
 268              		.loc 1 218 1 is_stmt 0 view .LVU84
 269 00d0 BDE83840 		pop	{r3, r4, r5, lr}
 270              		.cfi_restore 14
 271              		.cfi_restore 5
 272              		.cfi_restore 4
 273              		.cfi_restore 3
 274              		.cfi_def_cfa_offset 0
 275              		.loc 1 197 3 view .LVU85
 276 00d4 FFF7FEBF 		b	irqInit
 277              	.LVL11:
 278              	.L5:
 279              		.align	2
 280              	.L4:
 281 00d8 00440258 		.word	1476543488
 282 00dc FFEFFF7F 		.word	2147479551
 283 00e0 00100080 		.word	-2147479552
 284 00e4 00F8FFFF 		.word	-2048
 285              		.cfi_endproc
ARM GAS  C:\Users\DEVELO~1\AppData\Local\Temp\cc553B5P.s 			page 6


 286              	.LFE450:
 287              		.size	hal_lld_init, .-hal_lld_init
 288              		.section	.text.stm32_clock_init,"ax",%progbits
 289              		.align	1
 290              		.p2align 4,,15
 291              		.global	stm32_clock_init
 292              		.syntax unified
 293              		.thumb
 294              		.thumb_func
 295              		.type	stm32_clock_init, %function
 296              	stm32_clock_init:
 297              	.LFB451:
 298              		.loc 1 227 29 is_stmt 1 view -0
 299              		.cfi_startproc
 300              		@ args = 0, pretend = 0, frame = 0
 301              		@ frame_needed = 0, uses_anonymous_args = 0
 302              		@ link register save eliminated.
 303              		.loc 1 229 3 view .LVU87
 304              		.loc 1 245 3 view .LVU88
 305              	.LVL12:
 306              	.LBB76:
 307              	.LBI76:
 308              		.loc 2 497 22 view .LVU89
 309              	.LBB77:
 310              		.loc 2 501 3 view .LVU90
 311              		.loc 2 501 19 is_stmt 0 view .LVU91
 312 0000 6F4B     		ldr	r3, .L44
 313              	.LBE77:
 314              	.LBE76:
 315              	.LBB80:
 316              	.LBB81:
 317              		.loc 1 106 14 view .LVU92
 318 0002 0220     		movs	r0, #2
 319 0004 6F4A     		ldr	r2, .L44+4
 320              	.LBE81:
 321              	.LBE80:
 322              	.LBB83:
 323              	.LBB78:
 324              		.loc 2 501 19 view .LVU93
 325 0006 D3F8F410 		ldr	r1, [r3, #244]
 326 000a 0143     		orrs	r1, r1, r0
 327              	.LBE78:
 328              	.LBE83:
 329              		.loc 1 227 29 view .LVU94
 330 000c 10B4     		push	{r4}
 331              		.cfi_def_cfa_offset 4
 332              		.cfi_offset 4, -4
 333              	.LBB84:
 334              	.LBB79:
 335              		.loc 2 501 19 view .LVU95
 336 000e C3F8F410 		str	r1, [r3, #244]
 337              		.loc 2 502 3 is_stmt 1 view .LVU96
 338              		.loc 2 503 5 view .LVU97
 339              		.loc 2 503 23 is_stmt 0 view .LVU98
 340 0012 D3F81C11 		ldr	r1, [r3, #284]
 341 0016 0143     		orrs	r1, r1, r0
 342 0018 C3F81C11 		str	r1, [r3, #284]
ARM GAS  C:\Users\DEVELO~1\AppData\Local\Temp\cc553B5P.s 			page 7


 343              		.loc 2 508 3 is_stmt 1 view .LVU99
 344 001c D3F81C31 		ldr	r3, [r3, #284]
 345              	.LVL13:
 346              		.loc 2 508 3 is_stmt 0 view .LVU100
 347              	.LBE79:
 348              	.LBE84:
 349              		.loc 1 248 3 is_stmt 1 view .LVU101
 350              	.LBB85:
 351              	.LBI80:
 352              		.loc 1 98 20 view .LVU102
 353              	.LBB82:
 354              		.loc 1 106 3 view .LVU103
 355              		.loc 1 106 14 is_stmt 0 view .LVU104
 356 0020 D060     		str	r0, [r2, #12]
 357              		.loc 1 107 3 is_stmt 1 view .LVU105
 358              	.L7:
 359              		.loc 1 107 43 view .LVU106
 360              		.loc 1 107 14 is_stmt 0 view .LVU107
 361 0022 5368     		ldr	r3, [r2, #4]
 362              		.loc 1 107 43 view .LVU108
 363 0024 9C04     		lsls	r4, r3, #18
 364 0026 FCD5     		bpl	.L7
 365              		.loc 1 110 3 is_stmt 1 view .LVU109
 366              		.loc 1 110 14 is_stmt 0 view .LVU110
 367 0028 6748     		ldr	r0, .L44+8
 368              		.loc 1 113 14 view .LVU111
 369 002a 0023     		movs	r3, #0
 370              		.loc 1 111 14 view .LVU112
 371 002c 0121     		movs	r1, #1
 372              		.loc 1 112 14 view .LVU113
 373 002e 674C     		ldr	r4, .L44+12
 374              		.loc 1 110 14 view .LVU114
 375 0030 1060     		str	r0, [r2]
 376              		.loc 1 111 3 is_stmt 1 view .LVU115
 377              		.loc 1 117 14 is_stmt 0 view .LVU116
 378 0032 4FF44040 		mov	r0, #49152
 379              		.loc 1 111 14 view .LVU117
 380 0036 9160     		str	r1, [r2, #8]
 381              		.loc 1 112 3 is_stmt 1 view .LVU118
 382              		.loc 1 112 14 is_stmt 0 view .LVU119
 383 0038 D460     		str	r4, [r2, #12]
 384              		.loc 1 113 3 is_stmt 1 view .LVU120
 385              		.loc 1 121 17 is_stmt 0 view .LVU121
 386 003a 6549     		ldr	r1, .L44+16
 387              		.loc 1 113 14 view .LVU122
 388 003c 1361     		str	r3, [r2, #16]
 389              		.loc 1 117 3 is_stmt 1 view .LVU123
 390              		.loc 1 117 14 is_stmt 0 view .LVU124
 391 003e 9061     		str	r0, [r2, #24]
 392              		.loc 1 121 3 is_stmt 1 view .LVU125
 393              		.loc 1 127 14 is_stmt 0 view .LVU126
 394 0040 604A     		ldr	r2, .L44+4
 395              		.loc 1 121 17 view .LVU127
 396 0042 CB62     		str	r3, [r1, #44]
 397              		.loc 1 127 3 is_stmt 1 view .LVU128
 398              	.L8:
 399              		.loc 1 127 40 view .LVU129
ARM GAS  C:\Users\DEVELO~1\AppData\Local\Temp\cc553B5P.s 			page 8


 400              		.loc 1 127 14 is_stmt 0 view .LVU130
 401 0044 9369     		ldr	r3, [r2, #24]
 402              		.loc 1 127 40 view .LVU131
 403 0046 9804     		lsls	r0, r3, #18
 404 0048 FCD5     		bpl	.L8
 405              	.LBE82:
 406              	.LBE85:
 407              		.loc 1 251 3 is_stmt 1 view .LVU132
 408              	.LBB86:
 409              	.LBI86:
 410              		.loc 1 58 20 view .LVU133
 411              	.LBB87:
 412              		.loc 1 61 3 view .LVU134
 413              		.loc 1 61 12 is_stmt 0 view .LVU135
 414 004a 1368     		ldr	r3, [r2]
 415              		.loc 1 64 11 view .LVU136
 416 004c 5C49     		ldr	r1, .L44
 417              		.loc 1 61 12 view .LVU137
 418 004e 43F48073 		orr	r3, r3, #256
 419 0052 1360     		str	r3, [r2]
 420              		.loc 1 64 3 is_stmt 1 view .LVU138
 421              		.loc 1 64 11 is_stmt 0 view .LVU139
 422 0054 0B6F     		ldr	r3, [r1, #112]
 423              		.loc 1 64 18 view .LVU140
 424 0056 03F44073 		and	r3, r3, #768
 425              		.loc 1 64 6 view .LVU141
 426 005a B3F5807F 		cmp	r3, #256
 427 005e 04D0     		beq	.L9
 428              		.loc 1 66 5 is_stmt 1 view .LVU142
 429              		.loc 1 66 15 is_stmt 0 view .LVU143
 430 0060 4FF48032 		mov	r2, #65536
 431              		.loc 1 67 15 view .LVU144
 432 0064 0023     		movs	r3, #0
 433              		.loc 1 66 15 view .LVU145
 434 0066 0A67     		str	r2, [r1, #112]
 435              		.loc 1 67 5 is_stmt 1 view .LVU146
 436              		.loc 1 67 15 is_stmt 0 view .LVU147
 437 0068 0B67     		str	r3, [r1, #112]
 438              	.L9:
 439              		.loc 1 76 3 is_stmt 1 view .LVU148
 440              		.loc 1 76 13 is_stmt 0 view .LVU149
 441 006a 554A     		ldr	r2, .L44
 442 006c 136F     		ldr	r3, [r2, #112]
 443 006e 43F01903 		orr	r3, r3, #25
 444 0072 1367     		str	r3, [r2, #112]
 445              		.loc 1 78 3 is_stmt 1 view .LVU150
 446              	.L10:
 447              		.loc 1 78 40 view .LVU151
 448              		.loc 1 78 14 is_stmt 0 view .LVU152
 449 0074 136F     		ldr	r3, [r2, #112]
 450              		.loc 1 78 40 view .LVU153
 451 0076 9907     		lsls	r1, r3, #30
 452 0078 FCD5     		bpl	.L10
 453              	.LBE87:
 454              	.LBE86:
 455              		.loc 1 255 3 is_stmt 1 view .LVU154
 456              		.loc 1 255 11 is_stmt 0 view .LVU155
ARM GAS  C:\Users\DEVELO~1\AppData\Local\Temp\cc553B5P.s 			page 9


 457 007a 1368     		ldr	r3, [r2]
 458              		.loc 1 256 15 view .LVU156
 459 007c 5049     		ldr	r1, .L44
 460              		.loc 1 255 11 view .LVU157
 461 007e 43F00103 		orr	r3, r3, #1
 462 0082 1360     		str	r3, [r2]
 463              		.loc 1 256 3 is_stmt 1 view .LVU158
 464              	.L11:
 465              		.loc 1 256 10 discriminator 1 view .LVU159
 466              		.loc 1 256 15 is_stmt 0 discriminator 1 view .LVU160
 467 0084 0B68     		ldr	r3, [r1]
 468              		.loc 1 256 10 discriminator 1 view .LVU161
 469 0086 5B07     		lsls	r3, r3, #29
 470 0088 FCD5     		bpl	.L11
 471              		.loc 1 262 3 is_stmt 1 view .LVU162
 472              		.loc 1 262 16 is_stmt 0 view .LVU163
 473 008a 0023     		movs	r3, #0
 474              		.loc 1 263 14 view .LVU164
 475 008c 4C4A     		ldr	r2, .L44
 476              		.loc 1 262 16 view .LVU165
 477 008e 0B61     		str	r3, [r1, #16]
 478              		.loc 1 263 3 is_stmt 1 view .LVU166
 479              	.L12:
 480              		.loc 1 263 37 discriminator 1 view .LVU167
 481              		.loc 1 263 14 is_stmt 0 discriminator 1 view .LVU168
 482 0090 1369     		ldr	r3, [r2, #16]
 483              		.loc 1 263 37 discriminator 1 view .LVU169
 484 0092 13F03803 		ands	r3, r3, #56
 485 0096 FBD1     		bne	.L12
 486              		.loc 1 267 3 is_stmt 1 view .LVU170
 487              		.loc 1 267 16 is_stmt 0 view .LVU171
 488 0098 0120     		movs	r0, #1
 489              		.loc 1 268 16 view .LVU172
 490 009a 4FF08041 		mov	r1, #1073741824
 491              		.loc 1 270 16 view .LVU173
 492 009e 4FF00054 		mov	r4, #536870912
 493              		.loc 1 267 16 view .LVU174
 494 00a2 1060     		str	r0, [r2]
 495              		.loc 1 268 3 is_stmt 1 view .LVU175
 496              		.loc 1 268 16 is_stmt 0 view .LVU176
 497 00a4 5160     		str	r1, [r2, #4]
 498              		.loc 1 270 3 is_stmt 1 view .LVU177
 499              		.loc 1 273 16 is_stmt 0 view .LVU178
 500 00a6 4B48     		ldr	r0, .L44+20
 501              		.loc 1 287 13 view .LVU179
 502 00a8 4B49     		ldr	r1, .L44+24
 503              		.loc 1 270 16 view .LVU180
 504 00aa D460     		str	r4, [r2, #12]
 505              		.loc 1 272 3 is_stmt 1 view .LVU181
 506              		.loc 1 272 16 is_stmt 0 view .LVU182
 507 00ac 5367     		str	r3, [r2, #116]
 508              		.loc 1 273 3 is_stmt 1 view .LVU183
 509              		.loc 1 273 16 is_stmt 0 view .LVU184
 510 00ae D062     		str	r0, [r2, #44]
 511              		.loc 1 277 3 is_stmt 1 view .LVU185
 512              	.LVL14:
 513              		.loc 1 282 3 view .LVU186
ARM GAS  C:\Users\DEVELO~1\AppData\Local\Temp\cc553B5P.s 			page 10


 514              		.loc 1 285 3 view .LVU187
 515              		.loc 1 287 3 view .LVU188
 516              		.loc 1 287 13 is_stmt 0 view .LVU189
 517 00b0 1161     		str	r1, [r2, #16]
 518              		.loc 1 292 3 is_stmt 1 view .LVU190
 519              		.loc 1 292 11 is_stmt 0 view .LVU191
 520 00b2 1368     		ldr	r3, [r2]
 521              		.loc 1 296 14 view .LVU192
 522 00b4 4248     		ldr	r0, .L44
 523              		.loc 1 292 11 view .LVU193
 524 00b6 43F4A023 		orr	r3, r3, #327680
 525 00ba 1360     		str	r3, [r2]
 526              		.loc 1 296 3 is_stmt 1 view .LVU194
 527              	.L13:
 528              		.loc 1 296 36 discriminator 1 view .LVU195
 529              		.loc 1 296 14 is_stmt 0 discriminator 1 view .LVU196
 530 00bc 0368     		ldr	r3, [r0]
 531              		.loc 1 296 36 discriminator 1 view .LVU197
 532 00be 9C03     		lsls	r4, r3, #14
 533 00c0 FCD5     		bpl	.L13
 534              		.loc 1 302 3 is_stmt 1 view .LVU198
 535              		.loc 1 302 11 is_stmt 0 view .LVU199
 536 00c2 0368     		ldr	r3, [r0]
 537              		.loc 1 303 14 view .LVU200
 538 00c4 3E49     		ldr	r1, .L44
 539              		.loc 1 302 11 view .LVU201
 540 00c6 43F48053 		orr	r3, r3, #4096
 541 00ca 0360     		str	r3, [r0]
 542              		.loc 1 303 3 is_stmt 1 view .LVU202
 543              	.L14:
 544              		.loc 1 303 38 discriminator 1 view .LVU203
 545              		.loc 1 303 14 is_stmt 0 discriminator 1 view .LVU204
 546 00cc 0B68     		ldr	r3, [r1]
 547              		.loc 1 303 38 discriminator 1 view .LVU205
 548 00ce 9804     		lsls	r0, r3, #18
 549 00d0 FCD5     		bpl	.L14
 550              		.loc 1 310 3 is_stmt 1 view .LVU206
 551              		.loc 1 310 11 is_stmt 0 view .LVU207
 552 00d2 0B68     		ldr	r3, [r1]
 553              		.loc 1 311 14 view .LVU208
 554 00d4 3A4A     		ldr	r2, .L44
 555              		.loc 1 310 11 view .LVU209
 556 00d6 43F08003 		orr	r3, r3, #128
 557 00da 0B60     		str	r3, [r1]
 558              		.loc 1 311 3 is_stmt 1 view .LVU210
 559              	.L15:
 560              		.loc 1 311 36 discriminator 1 view .LVU211
 561              		.loc 1 311 14 is_stmt 0 discriminator 1 view .LVU212
 562 00dc 1368     		ldr	r3, [r2]
 563              		.loc 1 311 36 discriminator 1 view .LVU213
 564 00de D905     		lsls	r1, r3, #23
 565 00e0 FCD5     		bpl	.L15
 566              		.loc 1 317 3 is_stmt 1 view .LVU214
 567              		.loc 1 317 12 is_stmt 0 view .LVU215
 568 00e2 516F     		ldr	r1, [r2, #116]
 569              		.loc 1 318 14 view .LVU216
 570 00e4 364B     		ldr	r3, .L44
ARM GAS  C:\Users\DEVELO~1\AppData\Local\Temp\cc553B5P.s 			page 11


 571              		.loc 1 317 12 view .LVU217
 572 00e6 41F00101 		orr	r1, r1, #1
 573 00ea 5167     		str	r1, [r2, #116]
 574              		.loc 1 318 3 is_stmt 1 view .LVU218
 575              	.L16:
 576              		.loc 1 318 38 discriminator 1 view .LVU219
 577              		.loc 1 318 14 is_stmt 0 discriminator 1 view .LVU220
 578 00ec 5A6F     		ldr	r2, [r3, #116]
 579              		.loc 1 318 38 discriminator 1 view .LVU221
 580 00ee 9207     		lsls	r2, r2, #30
 581 00f0 FCD5     		bpl	.L16
 582              	.LBB88:
 583              		.loc 1 328 5 is_stmt 1 view .LVU222
 584              	.LVL15:
 585              		.loc 1 329 5 view .LVU223
 586              		.loc 1 330 5 view .LVU224
 587              		.loc 1 332 5 view .LVU225
 588              		.loc 1 342 20 is_stmt 0 view .LVU226
 589 00f2 0022     		movs	r2, #0
 590              		.loc 1 332 20 view .LVU227
 591 00f4 3948     		ldr	r0, .L44+28
 592              		.loc 1 343 20 view .LVU228
 593 00f6 3A49     		ldr	r1, .L44+32
 594              		.loc 1 332 20 view .LVU229
 595 00f8 9862     		str	r0, [r3, #40]
 596              		.loc 1 337 5 is_stmt 1 view .LVU230
 597              	.LVL16:
 598              		.loc 1 342 5 view .LVU231
 599              		.loc 1 360 20 is_stmt 0 view .LVU232
 600 00fa 3A4C     		ldr	r4, .L44+36
 601              		.loc 1 342 20 view .LVU233
 602 00fc 5A63     		str	r2, [r3, #52]
 603              		.loc 1 343 5 is_stmt 1 view .LVU234
 604              		.loc 1 377 20 is_stmt 0 view .LVU235
 605 00fe 3A48     		ldr	r0, .L44+40
 606              		.loc 1 343 20 view .LVU236
 607 0100 1963     		str	r1, [r3, #48]
 608              		.loc 1 345 5 is_stmt 1 view .LVU237
 609              	.LVL17:
 610              		.loc 1 346 5 view .LVU238
 611              		.loc 1 348 5 view .LVU239
 612              		.loc 1 351 5 view .LVU240
 613              		.loc 1 354 5 view .LVU241
 614              		.loc 1 359 5 view .LVU242
 615              		.loc 1 393 18 is_stmt 0 view .LVU243
 616 0102 3A49     		ldr	r1, .L44+44
 617              		.loc 1 359 20 view .LVU244
 618 0104 DA63     		str	r2, [r3, #60]
 619              		.loc 1 360 5 is_stmt 1 view .LVU245
 620              		.loc 1 360 20 is_stmt 0 view .LVU246
 621 0106 9C63     		str	r4, [r3, #56]
 622              		.loc 1 362 5 is_stmt 1 view .LVU247
 623              	.LVL18:
 624              		.loc 1 363 5 view .LVU248
 625              		.loc 1 365 5 view .LVU249
 626              		.loc 1 368 5 view .LVU250
 627              		.loc 1 371 5 view .LVU251
ARM GAS  C:\Users\DEVELO~1\AppData\Local\Temp\cc553B5P.s 			page 12


 628              		.loc 1 376 5 view .LVU252
 629              		.loc 1 376 20 is_stmt 0 view .LVU253
 630 0108 5A64     		str	r2, [r3, #68]
 631              		.loc 1 377 5 is_stmt 1 view .LVU254
 632              		.loc 1 377 20 is_stmt 0 view .LVU255
 633 010a 1864     		str	r0, [r3, #64]
 634              		.loc 1 379 5 is_stmt 1 view .LVU256
 635              	.LVL19:
 636              		.loc 1 380 5 view .LVU257
 637              		.loc 1 382 5 view .LVU258
 638              		.loc 1 385 5 view .LVU259
 639              		.loc 1 388 5 view .LVU260
 640              		.loc 1 393 5 view .LVU261
 641              		.loc 1 393 18 is_stmt 0 view .LVU262
 642 010c D962     		str	r1, [r3, #44]
 643              		.loc 1 394 5 is_stmt 1 view .LVU263
 644              		.loc 1 394 17 is_stmt 0 view .LVU264
 645 010e 1968     		ldr	r1, [r3]
 646              		.loc 1 395 16 view .LVU265
 647 0110 2B4A     		ldr	r2, .L44
 648              		.loc 1 394 17 view .LVU266
 649 0112 41F0A851 		orr	r1, r1, #352321536
 650 0116 1960     		str	r1, [r3]
 651              		.loc 1 395 5 is_stmt 1 view .LVU267
 652              	.L17:
 653              		.loc 1 395 32 discriminator 1 view .LVU268
 654              		.loc 1 395 16 is_stmt 0 discriminator 1 view .LVU269
 655 0118 1368     		ldr	r3, [r2]
 656              		.loc 1 395 21 discriminator 1 view .LVU270
 657 011a 03F02853 		and	r3, r3, #704643072
 658              		.loc 1 395 32 discriminator 1 view .LVU271
 659 011e B3F1285F 		cmp	r3, #704643072
 660 0122 F9D1     		bne	.L17
 661              	.LBE88:
 662              		.loc 1 406 3 is_stmt 1 view .LVU272
 663              		.loc 1 406 15 is_stmt 0 view .LVU273
 664 0124 4824     		movs	r4, #72
 665              		.loc 1 407 15 view .LVU274
 666 0126 4FF48861 		mov	r1, #1088
 667              		.loc 1 408 15 view .LVU275
 668 012a 4020     		movs	r0, #64
 669              		.loc 1 415 17 view .LVU276
 670 012c 0023     		movs	r3, #0
 671              		.loc 1 406 15 view .LVU277
 672 012e 9461     		str	r4, [r2, #24]
 673              		.loc 1 407 3 is_stmt 1 view .LVU278
 674              		.loc 1 418 17 is_stmt 0 view .LVU279
 675 0130 4FF48014 		mov	r4, #1048576
 676              		.loc 1 407 15 view .LVU280
 677 0134 D161     		str	r1, [r2, #28]
 678              		.loc 1 408 3 is_stmt 1 view .LVU281
 679              		.loc 1 413 17 is_stmt 0 view .LVU282
 680 0136 4FF00051 		mov	r1, #536870912
 681              		.loc 1 408 15 view .LVU283
 682 013a 1062     		str	r0, [r2, #32]
 683              		.loc 1 413 3 is_stmt 1 view .LVU284
 684              		.loc 1 452 14 is_stmt 0 view .LVU285
ARM GAS  C:\Users\DEVELO~1\AppData\Local\Temp\cc553B5P.s 			page 13


 685 013c 3220     		movs	r0, #50
 686              		.loc 1 413 17 view .LVU286
 687 013e D164     		str	r1, [r2, #76]
 688              		.loc 1 415 3 is_stmt 1 view .LVU287
 689              		.loc 1 452 14 is_stmt 0 view .LVU288
 690 0140 2B49     		ldr	r1, .L44+48
 691              		.loc 1 415 17 view .LVU289
 692 0142 1365     		str	r3, [r2, #80]
 693              		.loc 1 418 3 is_stmt 1 view .LVU290
 694              		.loc 1 418 17 is_stmt 0 view .LVU291
 695 0144 5465     		str	r4, [r2, #84]
 696              		.loc 1 421 3 is_stmt 1 view .LVU292
 697              		.loc 1 421 17 is_stmt 0 view .LVU293
 698 0146 9365     		str	r3, [r2, #88]
 699              		.loc 1 452 3 is_stmt 1 view .LVU294
 700              		.loc 1 452 14 is_stmt 0 view .LVU295
 701 0148 0860     		str	r0, [r1]
 702              		.loc 1 454 3 is_stmt 1 view .LVU296
 703              	.L18:
 704              		.loc 1 456 3 discriminator 1 view .LVU297
 705              		.loc 1 454 43 discriminator 1 view .LVU298
 706              		.loc 1 454 16 is_stmt 0 discriminator 1 view .LVU299
 707 014a 0B68     		ldr	r3, [r1]
 708              		.loc 1 454 22 discriminator 1 view .LVU300
 709 014c 03F00F03 		and	r3, r3, #15
 710              		.loc 1 454 43 discriminator 1 view .LVU301
 711 0150 022B     		cmp	r3, #2
 712 0152 FAD1     		bne	.L18
 713              		.loc 1 461 3 is_stmt 1 view .LVU302
 714              		.loc 1 461 13 is_stmt 0 view .LVU303
 715 0154 1A4A     		ldr	r2, .L44
 716 0156 1369     		ldr	r3, [r2, #16]
 717 0158 43F00303 		orr	r3, r3, #3
 718 015c 1361     		str	r3, [r2, #16]
 719              		.loc 1 462 3 is_stmt 1 view .LVU304
 720              	.L19:
 721              		.loc 1 462 41 discriminator 1 view .LVU305
 722              		.loc 1 462 14 is_stmt 0 discriminator 1 view .LVU306
 723 015e 1369     		ldr	r3, [r2, #16]
 724              		.loc 1 462 21 discriminator 1 view .LVU307
 725 0160 03F03803 		and	r3, r3, #56
 726              		.loc 1 462 41 discriminator 1 view .LVU308
 727 0164 182B     		cmp	r3, #24
 728 0166 FAD1     		bne	.L19
 729              		.loc 1 477 3 is_stmt 1 view .LVU309
 730              	.LVL20:
 731              	.LBB89:
 732              	.LBI89:
 733              		.loc 2 675 22 view .LVU310
 734              	.LBB90:
 735              		.loc 2 679 3 view .LVU311
 736              		.loc 2 679 19 is_stmt 0 view .LVU312
 737 0168 D2F8DC30 		ldr	r3, [r2, #220]
 738              	.LBE90:
 739              	.LBE89:
 740              		.loc 1 483 1 view .LVU313
 741 016c 10BC     		pop	{r4}
ARM GAS  C:\Users\DEVELO~1\AppData\Local\Temp\cc553B5P.s 			page 14


 742              		.cfi_restore 4
 743              		.cfi_def_cfa_offset 0
 744              	.LBB92:
 745              	.LBB91:
 746              		.loc 2 679 19 view .LVU314
 747 016e 43F00053 		orr	r3, r3, #536870912
 748 0172 C2F8DC30 		str	r3, [r2, #220]
 749              		.loc 2 680 3 is_stmt 1 view .LVU315
 750              		.loc 2 681 5 view .LVU316
 751              		.loc 2 681 23 is_stmt 0 view .LVU317
 752 0176 D2F80431 		ldr	r3, [r2, #260]
 753 017a 43F00053 		orr	r3, r3, #536870912
 754 017e C2F80431 		str	r3, [r2, #260]
 755              		.loc 2 686 3 is_stmt 1 view .LVU318
 756 0182 D2F80431 		ldr	r3, [r2, #260]
 757              	.LVL21:
 758              		.loc 2 686 3 is_stmt 0 view .LVU319
 759              	.LBE91:
 760              	.LBE92:
 761              		.loc 1 478 3 is_stmt 1 view .LVU320
 762              	.LBB93:
 763              	.LBI93:
 764              		.loc 2 675 22 view .LVU321
 765              	.LBB94:
 766              		.loc 2 679 3 view .LVU322
 767              		.loc 2 679 19 is_stmt 0 view .LVU323
 768 0186 D2F8DC30 		ldr	r3, [r2, #220]
 769 018a 43F08043 		orr	r3, r3, #1073741824
 770 018e C2F8DC30 		str	r3, [r2, #220]
 771              		.loc 2 680 3 is_stmt 1 view .LVU324
 772              		.loc 2 681 5 view .LVU325
 773              		.loc 2 681 23 is_stmt 0 view .LVU326
 774 0192 D2F80431 		ldr	r3, [r2, #260]
 775 0196 43F08043 		orr	r3, r3, #1073741824
 776 019a C2F80431 		str	r3, [r2, #260]
 777              		.loc 2 686 3 is_stmt 1 view .LVU327
 778 019e D2F80431 		ldr	r3, [r2, #260]
 779              	.LVL22:
 780              		.loc 2 686 3 is_stmt 0 view .LVU328
 781              	.LBE94:
 782              	.LBE93:
 783              		.loc 1 480 3 is_stmt 1 view .LVU329
 784              	.LBB95:
 785              	.LBI95:
 786              		.loc 2 675 22 view .LVU330
 787              	.LBB96:
 788              		.loc 2 679 3 view .LVU331
 789              		.loc 2 679 19 is_stmt 0 view .LVU332
 790 01a2 D2F8DC30 		ldr	r3, [r2, #220]
 791 01a6 43F00043 		orr	r3, r3, #-2147483648
 792 01aa C2F8DC30 		str	r3, [r2, #220]
 793              		.loc 2 680 3 is_stmt 1 view .LVU333
 794              		.loc 2 681 5 view .LVU334
 795              		.loc 2 681 23 is_stmt 0 view .LVU335
 796 01ae D2F80431 		ldr	r3, [r2, #260]
 797 01b2 43F00043 		orr	r3, r3, #-2147483648
 798 01b6 C2F80431 		str	r3, [r2, #260]
ARM GAS  C:\Users\DEVELO~1\AppData\Local\Temp\cc553B5P.s 			page 15


 799              		.loc 2 686 3 is_stmt 1 view .LVU336
 800 01ba D2F80431 		ldr	r3, [r2, #260]
 801              	.LVL23:
 802              		.loc 2 686 3 is_stmt 0 view .LVU337
 803              	.LBE96:
 804              	.LBE95:
 805              		.loc 1 483 1 view .LVU338
 806 01be 7047     		bx	lr
 807              	.L45:
 808              		.align	2
 809              	.L44:
 810 01c0 00440258 		.word	1476543488
 811 01c4 00480258 		.word	1476544512
 812 01c8 00C000F0 		.word	-268386304
 813 01cc 02000001 		.word	16777218
 814 01d0 00040058 		.word	1476396032
 815 01d4 0000FF01 		.word	33488896
 816 01d8 00881008 		.word	135301120
 817 01dc 42404000 		.word	4210754
 818 01e0 8F030F07 		.word	118424463
 819 01e4 8F4F0707 		.word	117919631
 820 01e8 8F0F0707 		.word	117903247
 821 01ec 5505FF01 		.word	33490261
 822 01f0 00200052 		.word	1375739904
 823              		.cfi_endproc
 824              	.LFE451:
 825              		.size	stm32_clock_init, .-stm32_clock_init
 826              		.global	SystemCoreClock
 827              		.section	.data.SystemCoreClock,"aw"
 828              		.align	2
 829              		.type	SystemCoreClock, %object
 830              		.size	SystemCoreClock, 4
 831              	SystemCoreClock:
 832 0000 0084D717 		.word	400000000
 833              		.text
 834              	.Letext0:
 835              		.file 3 "c:\\chibistudio\\tools\\gnu tools arm embedded\\11.3 2022.08\\arm-none-eabi\\include\\mac
 836              		.file 4 "c:\\chibistudio\\tools\\gnu tools arm embedded\\11.3 2022.08\\arm-none-eabi\\include\\sys
 837              		.file 5 "./ChibiOS/os/common/ext/ST/STM32H7xx/stm32h743xx.h"
 838              		.file 6 "./ChibiOS/os/hal/ports/STM32/STM32H7xx/stm32_isr.h"
 839              		.file 7 "./ChibiOS/os/hal/ports/STM32/LLD/DMAv2/stm32_dma.h"
 840              		.file 8 "./ChibiOS/os/common/ext/ST/STM32H7xx/system_stm32h7xx.h"
 841              		.section	.debug_info,"",%progbits
 842              	.Ldebug_info0:
 843 0000 200D0000 		.4byte	0xd20
 844 0004 0500     		.2byte	0x5
 845 0006 01       		.byte	0x1
 846 0007 04       		.byte	0x4
 847 0008 00000000 		.4byte	.Ldebug_abbrev0
 848 000c 18       		.uleb128 0x18
 849 000d 9D020000 		.4byte	.LASF156
 850 0011 1D       		.byte	0x1d
 851 0012 0C010000 		.4byte	.LASF157
 852 0016 AA010000 		.4byte	.LASF158
 853 001a 6F000000 		.4byte	.LLRL28
 854 001e 00000000 		.4byte	0
 855 0022 00000000 		.4byte	.Ldebug_line0
ARM GAS  C:\Users\DEVELO~1\AppData\Local\Temp\cc553B5P.s 			page 16


 856 0026 19       		.uleb128 0x19
 857 0027 04       		.byte	0x4
 858 0028 05       		.byte	0x5
 859 0029 696E7400 		.ascii	"int\000"
 860 002d 04       		.uleb128 0x4
 861 002e 04       		.byte	0x4
 862 002f 07       		.byte	0x7
 863 0030 54020000 		.4byte	.LASF0
 864 0034 04       		.uleb128 0x4
 865 0035 08       		.byte	0x8
 866 0036 05       		.byte	0x5
 867 0037 71010000 		.4byte	.LASF1
 868 003b 04       		.uleb128 0x4
 869 003c 08       		.byte	0x8
 870 003d 04       		.byte	0x4
 871 003e B7050000 		.4byte	.LASF2
 872 0042 04       		.uleb128 0x4
 873 0043 01       		.byte	0x1
 874 0044 06       		.byte	0x6
 875 0045 1D000000 		.4byte	.LASF3
 876 0049 04       		.uleb128 0x4
 877 004a 01       		.byte	0x1
 878 004b 08       		.byte	0x8
 879 004c 1D050000 		.4byte	.LASF4
 880 0050 04       		.uleb128 0x4
 881 0051 02       		.byte	0x2
 882 0052 05       		.byte	0x5
 883 0053 2B050000 		.4byte	.LASF5
 884 0057 04       		.uleb128 0x4
 885 0058 02       		.byte	0x2
 886 0059 07       		.byte	0x7
 887 005a 5B030000 		.4byte	.LASF6
 888 005e 04       		.uleb128 0x4
 889 005f 04       		.byte	0x4
 890 0060 05       		.byte	0x5
 891 0061 34000000 		.4byte	.LASF7
 892 0065 10       		.uleb128 0x10
 893 0066 12020000 		.4byte	.LASF10
 894 006a 03       		.byte	0x3
 895 006b 4F       		.byte	0x4f
 896 006c 19       		.byte	0x19
 897 006d 71000000 		.4byte	0x71
 898 0071 04       		.uleb128 0x4
 899 0072 04       		.byte	0x4
 900 0073 07       		.byte	0x7
 901 0074 79020000 		.4byte	.LASF8
 902 0078 04       		.uleb128 0x4
 903 0079 08       		.byte	0x8
 904 007a 07       		.byte	0x7
 905 007b C3000000 		.4byte	.LASF9
 906 007f 10       		.uleb128 0x10
 907 0080 90050000 		.4byte	.LASF11
 908 0084 04       		.byte	0x4
 909 0085 30       		.byte	0x30
 910 0086 14       		.byte	0x14
 911 0087 65000000 		.4byte	0x65
 912 008b 11       		.uleb128 0x11
ARM GAS  C:\Users\DEVELO~1\AppData\Local\Temp\cc553B5P.s 			page 17


 913 008c 7F000000 		.4byte	0x7f
 914 0090 04       		.uleb128 0x4
 915 0091 01       		.byte	0x1
 916 0092 08       		.byte	0x8
 917 0093 C3050000 		.4byte	.LASF12
 918 0097 09       		.uleb128 0x9
 919 0098 7F000000 		.4byte	0x7f
 920 009c A7000000 		.4byte	0xa7
 921 00a0 0A       		.uleb128 0xa
 922 00a1 2D000000 		.4byte	0x2d
 923 00a5 01       		.byte	0x1
 924 00a6 00       		.byte	0
 925 00a7 1A       		.uleb128 0x1a
 926 00a8 69020000 		.4byte	.LASF136
 927 00ac 08       		.byte	0x8
 928 00ad 39       		.byte	0x39
 929 00ae 11       		.byte	0x11
 930 00af 7F000000 		.4byte	0x7f
 931 00b3 09       		.uleb128 0x9
 932 00b4 7F000000 		.4byte	0x7f
 933 00b8 C3000000 		.4byte	0xc3
 934 00bc 0A       		.uleb128 0xa
 935 00bd 2D000000 		.4byte	0x2d
 936 00c1 03       		.byte	0x3
 937 00c2 00       		.byte	0
 938 00c3 09       		.uleb128 0x9
 939 00c4 8B000000 		.4byte	0x8b
 940 00c8 D3000000 		.4byte	0xd3
 941 00cc 0A       		.uleb128 0xa
 942 00cd 2D000000 		.4byte	0x2d
 943 00d1 03       		.byte	0x3
 944 00d2 00       		.byte	0
 945 00d3 11       		.uleb128 0x11
 946 00d4 C3000000 		.4byte	0xc3
 947 00d8 09       		.uleb128 0x9
 948 00d9 7F000000 		.4byte	0x7f
 949 00dd E8000000 		.4byte	0xe8
 950 00e1 0A       		.uleb128 0xa
 951 00e2 2D000000 		.4byte	0x2d
 952 00e6 08       		.byte	0x8
 953 00e7 00       		.byte	0
 954 00e8 0E       		.uleb128 0xe
 955 00e9 6401     		.2byte	0x164
 956 00eb 9303     		.2byte	0x393
 957 00ed 33030000 		.4byte	0x333
 958 00f1 06       		.uleb128 0x6
 959 00f2 41435200 		.ascii	"ACR\000"
 960 00f6 9503     		.2byte	0x395
 961 00f8 11       		.byte	0x11
 962 00f9 8B000000 		.4byte	0x8b
 963 00fd 00       		.byte	0
 964 00fe 01       		.uleb128 0x1
 965 00ff EB050000 		.4byte	.LASF13
 966 0103 9603     		.2byte	0x396
 967 0105 11       		.byte	0x11
 968 0106 8B000000 		.4byte	0x8b
 969 010a 04       		.byte	0x4
ARM GAS  C:\Users\DEVELO~1\AppData\Local\Temp\cc553B5P.s 			page 18


 970 010b 01       		.uleb128 0x1
 971 010c 7F010000 		.4byte	.LASF14
 972 0110 9703     		.2byte	0x397
 973 0112 11       		.byte	0x11
 974 0113 8B000000 		.4byte	0x8b
 975 0117 08       		.byte	0x8
 976 0118 06       		.uleb128 0x6
 977 0119 43523100 		.ascii	"CR1\000"
 978 011d 9803     		.2byte	0x398
 979 011f 11       		.byte	0x11
 980 0120 8B000000 		.4byte	0x8b
 981 0124 0C       		.byte	0xc
 982 0125 06       		.uleb128 0x6
 983 0126 53523100 		.ascii	"SR1\000"
 984 012a 9903     		.2byte	0x399
 985 012c 11       		.byte	0x11
 986 012d 8B000000 		.4byte	0x8b
 987 0131 10       		.byte	0x10
 988 0132 01       		.uleb128 0x1
 989 0133 55060000 		.4byte	.LASF15
 990 0137 9A03     		.2byte	0x39a
 991 0139 11       		.byte	0x11
 992 013a 8B000000 		.4byte	0x8b
 993 013e 14       		.byte	0x14
 994 013f 01       		.uleb128 0x1
 995 0140 3D000000 		.4byte	.LASF16
 996 0144 9B03     		.2byte	0x39b
 997 0146 11       		.byte	0x11
 998 0147 8B000000 		.4byte	0x8b
 999 014b 18       		.byte	0x18
 1000 014c 01       		.uleb128 0x1
 1001 014d 64040000 		.4byte	.LASF17
 1002 0151 9C03     		.2byte	0x39c
 1003 0153 11       		.byte	0x11
 1004 0154 8B000000 		.4byte	0x8b
 1005 0158 1C       		.byte	0x1c
 1006 0159 01       		.uleb128 0x1
 1007 015a C8050000 		.4byte	.LASF18
 1008 015e 9D03     		.2byte	0x39d
 1009 0160 11       		.byte	0x11
 1010 0161 8B000000 		.4byte	0x8b
 1011 0165 20       		.byte	0x20
 1012 0166 01       		.uleb128 0x1
 1013 0167 E4000000 		.4byte	.LASF19
 1014 016b 9E03     		.2byte	0x39e
 1015 016d 11       		.byte	0x11
 1016 016e 8B000000 		.4byte	0x8b
 1017 0172 24       		.byte	0x24
 1018 0173 01       		.uleb128 0x1
 1019 0174 9B030000 		.4byte	.LASF20
 1020 0178 9F03     		.2byte	0x39f
 1021 017a 11       		.byte	0x11
 1022 017b 8B000000 		.4byte	0x8b
 1023 017f 28       		.byte	0x28
 1024 0180 01       		.uleb128 0x1
 1025 0181 43000000 		.4byte	.LASF21
 1026 0185 A003     		.2byte	0x3a0
ARM GAS  C:\Users\DEVELO~1\AppData\Local\Temp\cc553B5P.s 			page 19


 1027 0187 11       		.byte	0x11
 1028 0188 8B000000 		.4byte	0x8b
 1029 018c 2C       		.byte	0x2c
 1030 018d 01       		.uleb128 0x1
 1031 018e 87010000 		.4byte	.LASF22
 1032 0192 A103     		.2byte	0x3a1
 1033 0194 11       		.byte	0x11
 1034 0195 8B000000 		.4byte	0x8b
 1035 0199 30       		.byte	0x30
 1036 019a 01       		.uleb128 0x1
 1037 019b E2030000 		.4byte	.LASF23
 1038 019f A203     		.2byte	0x3a2
 1039 01a1 11       		.byte	0x11
 1040 01a2 8B000000 		.4byte	0x8b
 1041 01a6 34       		.byte	0x34
 1042 01a7 01       		.uleb128 0x1
 1043 01a8 36060000 		.4byte	.LASF24
 1044 01ac A303     		.2byte	0x3a3
 1045 01ae 11       		.byte	0x11
 1046 01af 8B000000 		.4byte	0x8b
 1047 01b3 38       		.byte	0x38
 1048 01b4 01       		.uleb128 0x1
 1049 01b5 11040000 		.4byte	.LASF25
 1050 01b9 A403     		.2byte	0x3a4
 1051 01bb 11       		.byte	0x11
 1052 01bc 8B000000 		.4byte	0x8b
 1053 01c0 3C       		.byte	0x3c
 1054 01c1 01       		.uleb128 0x1
 1055 01c2 9E000000 		.4byte	.LASF26
 1056 01c6 A503     		.2byte	0x3a5
 1057 01c8 11       		.byte	0x11
 1058 01c9 8B000000 		.4byte	0x8b
 1059 01cd 40       		.byte	0x40
 1060 01ce 01       		.uleb128 0x1
 1061 01cf 52030000 		.4byte	.LASF27
 1062 01d3 A603     		.2byte	0x3a6
 1063 01d5 11       		.byte	0x11
 1064 01d6 8B000000 		.4byte	0x8b
 1065 01da 44       		.byte	0x44
 1066 01db 01       		.uleb128 0x1
 1067 01dc BB040000 		.4byte	.LASF28
 1068 01e0 A703     		.2byte	0x3a7
 1069 01e2 11       		.byte	0x11
 1070 01e3 97000000 		.4byte	0x97
 1071 01e7 48       		.byte	0x48
 1072 01e8 01       		.uleb128 0x1
 1073 01e9 56040000 		.4byte	.LASF29
 1074 01ed A803     		.2byte	0x3a8
 1075 01ef 11       		.byte	0x11
 1076 01f0 8B000000 		.4byte	0x8b
 1077 01f4 50       		.byte	0x50
 1078 01f5 01       		.uleb128 0x1
 1079 01f6 8C060000 		.4byte	.LASF30
 1080 01fa A903     		.2byte	0x3a9
 1081 01fc 11       		.byte	0x11
 1082 01fd 8B000000 		.4byte	0x8b
 1083 0201 54       		.byte	0x54
ARM GAS  C:\Users\DEVELO~1\AppData\Local\Temp\cc553B5P.s 			page 20


 1084 0202 01       		.uleb128 0x1
 1085 0203 25040000 		.4byte	.LASF31
 1086 0207 AA03     		.2byte	0x3aa
 1087 0209 11       		.byte	0x11
 1088 020a 8B000000 		.4byte	0x8b
 1089 020e 58       		.byte	0x58
 1090 020f 01       		.uleb128 0x1
 1091 0210 69010000 		.4byte	.LASF32
 1092 0214 AB03     		.2byte	0x3ab
 1093 0216 11       		.byte	0x11
 1094 0217 8B000000 		.4byte	0x8b
 1095 021b 5C       		.byte	0x5c
 1096 021c 01       		.uleb128 0x1
 1097 021d 49050000 		.4byte	.LASF33
 1098 0221 AC03     		.2byte	0x3ac
 1099 0223 11       		.byte	0x11
 1100 0224 8B000000 		.4byte	0x8b
 1101 0228 60       		.byte	0x60
 1102 0229 01       		.uleb128 0x1
 1103 022a C5040000 		.4byte	.LASF34
 1104 022e AD03     		.2byte	0x3ad
 1105 0230 11       		.byte	0x11
 1106 0231 33030000 		.4byte	0x333
 1107 0235 64       		.byte	0x64
 1108 0236 02       		.uleb128 0x2
 1109 0237 DB050000 		.4byte	.LASF35
 1110 023b AE03     		.2byte	0x3ae
 1111 023d 11       		.byte	0x11
 1112 023e 8B000000 		.4byte	0x8b
 1113 0242 0401     		.2byte	0x104
 1114 0244 02       		.uleb128 0x2
 1115 0245 CF040000 		.4byte	.LASF36
 1116 0249 AF03     		.2byte	0x3af
 1117 024b 11       		.byte	0x11
 1118 024c 7F000000 		.4byte	0x7f
 1119 0250 0801     		.2byte	0x108
 1120 0252 05       		.uleb128 0x5
 1121 0253 43523200 		.ascii	"CR2\000"
 1122 0257 B003     		.2byte	0x3b0
 1123 0259 11       		.byte	0x11
 1124 025a 8B000000 		.4byte	0x8b
 1125 025e 0C01     		.2byte	0x10c
 1126 0260 05       		.uleb128 0x5
 1127 0261 53523200 		.ascii	"SR2\000"
 1128 0265 B103     		.2byte	0x3b1
 1129 0267 11       		.byte	0x11
 1130 0268 8B000000 		.4byte	0x8b
 1131 026c 1001     		.2byte	0x110
 1132 026e 02       		.uleb128 0x2
 1133 026f 5A060000 		.4byte	.LASF37
 1134 0273 B203     		.2byte	0x3b2
 1135 0275 11       		.byte	0x11
 1136 0276 8B000000 		.4byte	0x8b
 1137 027a 1401     		.2byte	0x114
 1138 027c 02       		.uleb128 0x2
 1139 027d D9040000 		.4byte	.LASF38
 1140 0281 B303     		.2byte	0x3b3
ARM GAS  C:\Users\DEVELO~1\AppData\Local\Temp\cc553B5P.s 			page 21


 1141 0283 11       		.byte	0x11
 1142 0284 B3000000 		.4byte	0xb3
 1143 0288 1801     		.2byte	0x118
 1144 028a 02       		.uleb128 0x2
 1145 028b A5030000 		.4byte	.LASF39
 1146 028f B403     		.2byte	0x3b4
 1147 0291 11       		.byte	0x11
 1148 0292 8B000000 		.4byte	0x8b
 1149 0296 2801     		.2byte	0x128
 1150 0298 02       		.uleb128 0x2
 1151 0299 4D000000 		.4byte	.LASF40
 1152 029d B503     		.2byte	0x3b5
 1153 029f 11       		.byte	0x11
 1154 02a0 8B000000 		.4byte	0x8b
 1155 02a4 2C01     		.2byte	0x12c
 1156 02a6 02       		.uleb128 0x2
 1157 02a7 99010000 		.4byte	.LASF41
 1158 02ab B603     		.2byte	0x3b6
 1159 02ad 11       		.byte	0x11
 1160 02ae 8B000000 		.4byte	0x8b
 1161 02b2 3001     		.2byte	0x130
 1162 02b4 02       		.uleb128 0x2
 1163 02b5 EC030000 		.4byte	.LASF42
 1164 02b9 B703     		.2byte	0x3b7
 1165 02bb 11       		.byte	0x11
 1166 02bc 8B000000 		.4byte	0x8b
 1167 02c0 3401     		.2byte	0x134
 1168 02c2 02       		.uleb128 0x2
 1169 02c3 40060000 		.4byte	.LASF43
 1170 02c7 B803     		.2byte	0x3b8
 1171 02c9 11       		.byte	0x11
 1172 02ca 8B000000 		.4byte	0x8b
 1173 02ce 3801     		.2byte	0x138
 1174 02d0 02       		.uleb128 0x2
 1175 02d1 1B040000 		.4byte	.LASF44
 1176 02d5 B903     		.2byte	0x3b9
 1177 02d7 11       		.byte	0x11
 1178 02d8 8B000000 		.4byte	0x8b
 1179 02dc 3C01     		.2byte	0x13c
 1180 02de 02       		.uleb128 0x2
 1181 02df 86050000 		.4byte	.LASF45
 1182 02e3 BA03     		.2byte	0x3ba
 1183 02e5 11       		.byte	0x11
 1184 02e6 B3000000 		.4byte	0xb3
 1185 02ea 4001     		.2byte	0x140
 1186 02ec 02       		.uleb128 0x2
 1187 02ed 5D040000 		.4byte	.LASF46
 1188 02f1 BB03     		.2byte	0x3bb
 1189 02f3 11       		.byte	0x11
 1190 02f4 8B000000 		.4byte	0x8b
 1191 02f8 5001     		.2byte	0x150
 1192 02fa 02       		.uleb128 0x2
 1193 02fb 95060000 		.4byte	.LASF47
 1194 02ff BC03     		.2byte	0x3bc
 1195 0301 11       		.byte	0x11
 1196 0302 8B000000 		.4byte	0x8b
 1197 0306 5401     		.2byte	0x154
ARM GAS  C:\Users\DEVELO~1\AppData\Local\Temp\cc553B5P.s 			page 22


 1198 0308 02       		.uleb128 0x2
 1199 0309 B0060000 		.4byte	.LASF48
 1200 030d BD03     		.2byte	0x3bd
 1201 030f 11       		.byte	0x11
 1202 0310 8B000000 		.4byte	0x8b
 1203 0314 5801     		.2byte	0x158
 1204 0316 02       		.uleb128 0x2
 1205 0317 3D010000 		.4byte	.LASF49
 1206 031b BE03     		.2byte	0x3be
 1207 031d 11       		.byte	0x11
 1208 031e 8B000000 		.4byte	0x8b
 1209 0322 5C01     		.2byte	0x15c
 1210 0324 02       		.uleb128 0x2
 1211 0325 51050000 		.4byte	.LASF50
 1212 0329 BF03     		.2byte	0x3bf
 1213 032b 11       		.byte	0x11
 1214 032c 8B000000 		.4byte	0x8b
 1215 0330 6001     		.2byte	0x160
 1216 0332 00       		.byte	0
 1217 0333 09       		.uleb128 0x9
 1218 0334 7F000000 		.4byte	0x7f
 1219 0338 43030000 		.4byte	0x343
 1220 033c 0A       		.uleb128 0xa
 1221 033d 2D000000 		.4byte	0x2d
 1222 0341 27       		.byte	0x27
 1223 0342 00       		.byte	0
 1224 0343 0D       		.uleb128 0xd
 1225 0344 B5000000 		.4byte	.LASF51
 1226 0348 C003     		.2byte	0x3c0
 1227 034a E8000000 		.4byte	0xe8
 1228 034e 0E       		.uleb128 0xe
 1229 034f 4803     		.2byte	0x348
 1230 0351 1E04     		.2byte	0x41e
 1231 0353 F2040000 		.4byte	0x4f2
 1232 0357 01       		.uleb128 0x1
 1233 0358 C5040000 		.4byte	.LASF34
 1234 035c 2004     		.2byte	0x420
 1235 035e 0B       		.byte	0xb
 1236 035f 7F000000 		.4byte	0x7f
 1237 0363 00       		.byte	0
 1238 0364 01       		.uleb128 0x1
 1239 0365 72050000 		.4byte	.LASF52
 1240 0369 2104     		.2byte	0x421
 1241 036b 10       		.byte	0x10
 1242 036c 8B000000 		.4byte	0x8b
 1243 0370 04       		.byte	0x4
 1244 0371 01       		.uleb128 0x1
 1245 0372 E1060000 		.4byte	.LASF53
 1246 0376 2204     		.2byte	0x422
 1247 0378 10       		.byte	0x10
 1248 0379 D3000000 		.4byte	0xd3
 1249 037d 08       		.byte	0x8
 1250 037e 01       		.uleb128 0x1
 1251 037f AB060000 		.4byte	.LASF54
 1252 0383 2304     		.2byte	0x423
 1253 0385 10       		.byte	0x10
 1254 0386 8B000000 		.4byte	0x8b
ARM GAS  C:\Users\DEVELO~1\AppData\Local\Temp\cc553B5P.s 			page 23


 1255 038a 18       		.byte	0x18
 1256 038b 01       		.uleb128 0x1
 1257 038c CF040000 		.4byte	.LASF36
 1258 0390 2404     		.2byte	0x424
 1259 0392 0B       		.byte	0xb
 1260 0393 7F000000 		.4byte	0x7f
 1261 0397 1C       		.byte	0x1c
 1262 0398 01       		.uleb128 0x1
 1263 0399 98000000 		.4byte	.LASF55
 1264 039d 2504     		.2byte	0x425
 1265 039f 10       		.byte	0x10
 1266 03a0 8B000000 		.4byte	0x8b
 1267 03a4 20       		.byte	0x20
 1268 03a5 01       		.uleb128 0x1
 1269 03a6 04020000 		.4byte	.LASF56
 1270 03aa 2604     		.2byte	0x426
 1271 03ac 10       		.byte	0x10
 1272 03ad 8B000000 		.4byte	0x8b
 1273 03b1 24       		.byte	0x24
 1274 03b2 01       		.uleb128 0x1
 1275 03b3 B9060000 		.4byte	.LASF57
 1276 03b7 2704     		.2byte	0x427
 1277 03b9 10       		.byte	0x10
 1278 03ba 8B000000 		.4byte	0x8b
 1279 03be 28       		.byte	0x28
 1280 03bf 01       		.uleb128 0x1
 1281 03c0 33020000 		.4byte	.LASF58
 1282 03c4 2804     		.2byte	0x428
 1283 03c6 10       		.byte	0x10
 1284 03c7 8B000000 		.4byte	0x8b
 1285 03cb 2C       		.byte	0x2c
 1286 03cc 01       		.uleb128 0x1
 1287 03cd D9040000 		.4byte	.LASF38
 1288 03d1 2904     		.2byte	0x429
 1289 03d3 10       		.byte	0x10
 1290 03d4 F2040000 		.4byte	0x4f2
 1291 03d8 30       		.byte	0x30
 1292 03d9 02       		.uleb128 0x2
 1293 03da B6040000 		.4byte	.LASF59
 1294 03de 2A04     		.2byte	0x42a
 1295 03e0 11       		.byte	0x11
 1296 03e1 8B000000 		.4byte	0x8b
 1297 03e5 2401     		.2byte	0x124
 1298 03e7 02       		.uleb128 0x2
 1299 03e8 86050000 		.4byte	.LASF45
 1300 03ec 2B04     		.2byte	0x42b
 1301 03ee 10       		.byte	0x10
 1302 03ef 02050000 		.4byte	0x502
 1303 03f3 2801     		.2byte	0x128
 1304 03f5 05       		.uleb128 0x5
 1305 03f6 55523000 		.ascii	"UR0\000"
 1306 03fa 2C04     		.2byte	0x42c
 1307 03fc 10       		.byte	0x10
 1308 03fd 8B000000 		.4byte	0x8b
 1309 0401 0003     		.2byte	0x300
 1310 0403 05       		.uleb128 0x5
 1311 0404 55523100 		.ascii	"UR1\000"
ARM GAS  C:\Users\DEVELO~1\AppData\Local\Temp\cc553B5P.s 			page 24


 1312 0408 2D04     		.2byte	0x42d
 1313 040a 10       		.byte	0x10
 1314 040b 8B000000 		.4byte	0x8b
 1315 040f 0403     		.2byte	0x304
 1316 0411 05       		.uleb128 0x5
 1317 0412 55523200 		.ascii	"UR2\000"
 1318 0416 2E04     		.2byte	0x42e
 1319 0418 10       		.byte	0x10
 1320 0419 8B000000 		.4byte	0x8b
 1321 041d 0803     		.2byte	0x308
 1322 041f 05       		.uleb128 0x5
 1323 0420 55523300 		.ascii	"UR3\000"
 1324 0424 2F04     		.2byte	0x42f
 1325 0426 10       		.byte	0x10
 1326 0427 8B000000 		.4byte	0x8b
 1327 042b 0C03     		.2byte	0x30c
 1328 042d 05       		.uleb128 0x5
 1329 042e 55523400 		.ascii	"UR4\000"
 1330 0432 3004     		.2byte	0x430
 1331 0434 10       		.byte	0x10
 1332 0435 8B000000 		.4byte	0x8b
 1333 0439 1003     		.2byte	0x310
 1334 043b 05       		.uleb128 0x5
 1335 043c 55523500 		.ascii	"UR5\000"
 1336 0440 3104     		.2byte	0x431
 1337 0442 10       		.byte	0x10
 1338 0443 8B000000 		.4byte	0x8b
 1339 0447 1403     		.2byte	0x314
 1340 0449 05       		.uleb128 0x5
 1341 044a 55523600 		.ascii	"UR6\000"
 1342 044e 3204     		.2byte	0x432
 1343 0450 10       		.byte	0x10
 1344 0451 8B000000 		.4byte	0x8b
 1345 0455 1803     		.2byte	0x318
 1346 0457 05       		.uleb128 0x5
 1347 0458 55523700 		.ascii	"UR7\000"
 1348 045c 3304     		.2byte	0x433
 1349 045e 10       		.byte	0x10
 1350 045f 8B000000 		.4byte	0x8b
 1351 0463 1C03     		.2byte	0x31c
 1352 0465 05       		.uleb128 0x5
 1353 0466 55523800 		.ascii	"UR8\000"
 1354 046a 3404     		.2byte	0x434
 1355 046c 10       		.byte	0x10
 1356 046d 8B000000 		.4byte	0x8b
 1357 0471 2003     		.2byte	0x320
 1358 0473 05       		.uleb128 0x5
 1359 0474 55523900 		.ascii	"UR9\000"
 1360 0478 3504     		.2byte	0x435
 1361 047a 10       		.byte	0x10
 1362 047b 8B000000 		.4byte	0x8b
 1363 047f 2403     		.2byte	0x324
 1364 0481 02       		.uleb128 0x2
 1365 0482 7B000000 		.4byte	.LASF60
 1366 0486 3604     		.2byte	0x436
 1367 0488 10       		.byte	0x10
 1368 0489 8B000000 		.4byte	0x8b
ARM GAS  C:\Users\DEVELO~1\AppData\Local\Temp\cc553B5P.s 			page 25


 1369 048d 2803     		.2byte	0x328
 1370 048f 02       		.uleb128 0x2
 1371 0490 F6030000 		.4byte	.LASF61
 1372 0494 3704     		.2byte	0x437
 1373 0496 10       		.byte	0x10
 1374 0497 8B000000 		.4byte	0x8b
 1375 049b 2C03     		.2byte	0x32c
 1376 049d 02       		.uleb128 0x2
 1377 049e 0F060000 		.4byte	.LASF62
 1378 04a2 3804     		.2byte	0x438
 1379 04a4 10       		.byte	0x10
 1380 04a5 8B000000 		.4byte	0x8b
 1381 04a9 3003     		.2byte	0x330
 1382 04ab 02       		.uleb128 0x2
 1383 04ac 14060000 		.4byte	.LASF63
 1384 04b0 3904     		.2byte	0x439
 1385 04b2 10       		.byte	0x10
 1386 04b3 8B000000 		.4byte	0x8b
 1387 04b7 3403     		.2byte	0x334
 1388 04b9 02       		.uleb128 0x2
 1389 04ba 19060000 		.4byte	.LASF64
 1390 04be 3A04     		.2byte	0x43a
 1391 04c0 10       		.byte	0x10
 1392 04c1 8B000000 		.4byte	0x8b
 1393 04c5 3803     		.2byte	0x338
 1394 04c7 02       		.uleb128 0x2
 1395 04c8 1E060000 		.4byte	.LASF65
 1396 04cc 3B04     		.2byte	0x43b
 1397 04ce 10       		.byte	0x10
 1398 04cf 8B000000 		.4byte	0x8b
 1399 04d3 3C03     		.2byte	0x33c
 1400 04d5 02       		.uleb128 0x2
 1401 04d6 23060000 		.4byte	.LASF66
 1402 04da 3C04     		.2byte	0x43c
 1403 04dc 10       		.byte	0x10
 1404 04dd 8B000000 		.4byte	0x8b
 1405 04e1 4003     		.2byte	0x340
 1406 04e3 02       		.uleb128 0x2
 1407 04e4 28060000 		.4byte	.LASF67
 1408 04e8 3D04     		.2byte	0x43d
 1409 04ea 10       		.byte	0x10
 1410 04eb 8B000000 		.4byte	0x8b
 1411 04ef 4403     		.2byte	0x344
 1412 04f1 00       		.byte	0
 1413 04f2 09       		.uleb128 0x9
 1414 04f3 7F000000 		.4byte	0x7f
 1415 04f7 02050000 		.4byte	0x502
 1416 04fb 0A       		.uleb128 0xa
 1417 04fc 2D000000 		.4byte	0x2d
 1418 0500 3C       		.byte	0x3c
 1419 0501 00       		.byte	0
 1420 0502 09       		.uleb128 0x9
 1421 0503 7F000000 		.4byte	0x7f
 1422 0507 12050000 		.4byte	0x512
 1423 050b 0A       		.uleb128 0xa
 1424 050c 2D000000 		.4byte	0x2d
 1425 0510 75       		.byte	0x75
ARM GAS  C:\Users\DEVELO~1\AppData\Local\Temp\cc553B5P.s 			page 26


 1426 0511 00       		.byte	0
 1427 0512 0D       		.uleb128 0xd
 1428 0513 0E050000 		.4byte	.LASF68
 1429 0517 3F04     		.2byte	0x43f
 1430 0519 4E030000 		.4byte	0x34e
 1431 051d 1B       		.uleb128 0x1b
 1432 051e 2C       		.byte	0x2c
 1433 051f 05       		.byte	0x5
 1434 0520 BB04     		.2byte	0x4bb
 1435 0522 09       		.byte	0x9
 1436 0523 B7050000 		.4byte	0x5b7
 1437 0527 06       		.uleb128 0x6
 1438 0528 43523100 		.ascii	"CR1\000"
 1439 052c BD04     		.2byte	0x4bd
 1440 052e 11       		.byte	0x11
 1441 052f 8B000000 		.4byte	0x8b
 1442 0533 00       		.byte	0
 1443 0534 01       		.uleb128 0x1
 1444 0535 C7060000 		.4byte	.LASF69
 1445 0539 BE04     		.2byte	0x4be
 1446 053b 11       		.byte	0x11
 1447 053c 8B000000 		.4byte	0x8b
 1448 0540 04       		.byte	0x4
 1449 0541 06       		.uleb128 0x6
 1450 0542 43523200 		.ascii	"CR2\000"
 1451 0546 BF04     		.2byte	0x4bf
 1452 0548 11       		.byte	0x11
 1453 0549 8B000000 		.4byte	0x8b
 1454 054d 08       		.byte	0x8
 1455 054e 06       		.uleb128 0x6
 1456 054f 43523300 		.ascii	"CR3\000"
 1457 0553 C004     		.2byte	0x4c0
 1458 0555 11       		.byte	0x11
 1459 0556 8B000000 		.4byte	0x8b
 1460 055a 0C       		.byte	0xc
 1461 055b 01       		.uleb128 0x1
 1462 055c 8B020000 		.4byte	.LASF70
 1463 0560 C104     		.2byte	0x4c1
 1464 0562 11       		.byte	0x11
 1465 0563 8B000000 		.4byte	0x8b
 1466 0567 10       		.byte	0x10
 1467 0568 01       		.uleb128 0x1
 1468 0569 BB040000 		.4byte	.LASF28
 1469 056d C204     		.2byte	0x4c2
 1470 056f 11       		.byte	0x11
 1471 0570 7F000000 		.4byte	0x7f
 1472 0574 14       		.byte	0x14
 1473 0575 01       		.uleb128 0x1
 1474 0576 99050000 		.4byte	.LASF71
 1475 057a C304     		.2byte	0x4c3
 1476 057c 11       		.byte	0x11
 1477 057d 8B000000 		.4byte	0x8b
 1478 0581 18       		.byte	0x18
 1479 0582 01       		.uleb128 0x1
 1480 0583 C5040000 		.4byte	.LASF34
 1481 0587 C404     		.2byte	0x4c4
 1482 0589 11       		.byte	0x11
ARM GAS  C:\Users\DEVELO~1\AppData\Local\Temp\cc553B5P.s 			page 27


 1483 058a 7F000000 		.4byte	0x7f
 1484 058e 1C       		.byte	0x1c
 1485 058f 01       		.uleb128 0x1
 1486 0590 A7000000 		.4byte	.LASF72
 1487 0594 C504     		.2byte	0x4c5
 1488 0596 11       		.byte	0x11
 1489 0597 8B000000 		.4byte	0x8b
 1490 059b 20       		.byte	0x20
 1491 059c 01       		.uleb128 0x1
 1492 059d 16000000 		.4byte	.LASF73
 1493 05a1 C604     		.2byte	0x4c6
 1494 05a3 11       		.byte	0x11
 1495 05a4 8B000000 		.4byte	0x8b
 1496 05a8 24       		.byte	0x24
 1497 05a9 01       		.uleb128 0x1
 1498 05aa 61020000 		.4byte	.LASF74
 1499 05ae C704     		.2byte	0x4c7
 1500 05b0 11       		.byte	0x11
 1501 05b1 8B000000 		.4byte	0x8b
 1502 05b5 28       		.byte	0x28
 1503 05b6 00       		.byte	0
 1504 05b7 0D       		.uleb128 0xd
 1505 05b8 D6030000 		.4byte	.LASF75
 1506 05bc C804     		.2byte	0x4c8
 1507 05be 1D050000 		.4byte	0x51d
 1508 05c2 0E       		.uleb128 0xe
 1509 05c3 3001     		.2byte	0x130
 1510 05c5 CE04     		.2byte	0x4ce
 1511 05c7 21090000 		.4byte	0x921
 1512 05cb 06       		.uleb128 0x6
 1513 05cc 435200   		.ascii	"CR\000"
 1514 05cf D004     		.2byte	0x4d0
 1515 05d1 10       		.byte	0x10
 1516 05d2 8B000000 		.4byte	0x8b
 1517 05d6 00       		.byte	0
 1518 05d7 01       		.uleb128 0x1
 1519 05d8 78030000 		.4byte	.LASF76
 1520 05dc D104     		.2byte	0x4d1
 1521 05de 10       		.byte	0x10
 1522 05df 8B000000 		.4byte	0x8b
 1523 05e3 04       		.byte	0x4
 1524 05e4 01       		.uleb128 0x1
 1525 05e5 F9010000 		.4byte	.LASF77
 1526 05e9 D204     		.2byte	0x4d2
 1527 05eb 10       		.byte	0x10
 1528 05ec 8B000000 		.4byte	0x8b
 1529 05f0 08       		.byte	0x8
 1530 05f1 01       		.uleb128 0x1
 1531 05f2 07060000 		.4byte	.LASF78
 1532 05f6 D304     		.2byte	0x4d3
 1533 05f8 10       		.byte	0x10
 1534 05f9 8B000000 		.4byte	0x8b
 1535 05fd 0C       		.byte	0xc
 1536 05fe 01       		.uleb128 0x1
 1537 05ff AB060000 		.4byte	.LASF54
 1538 0603 D404     		.2byte	0x4d4
 1539 0605 10       		.byte	0x10
ARM GAS  C:\Users\DEVELO~1\AppData\Local\Temp\cc553B5P.s 			page 28


 1540 0606 8B000000 		.4byte	0x8b
 1541 060a 10       		.byte	0x10
 1542 060b 01       		.uleb128 0x1
 1543 060c C5040000 		.4byte	.LASF34
 1544 0610 D504     		.2byte	0x4d5
 1545 0612 0F       		.byte	0xf
 1546 0613 7F000000 		.4byte	0x7f
 1547 0617 14       		.byte	0x14
 1548 0618 01       		.uleb128 0x1
 1549 0619 DA060000 		.4byte	.LASF79
 1550 061d D604     		.2byte	0x4d6
 1551 061f 10       		.byte	0x10
 1552 0620 8B000000 		.4byte	0x8b
 1553 0624 18       		.byte	0x18
 1554 0625 01       		.uleb128 0x1
 1555 0626 E3040000 		.4byte	.LASF80
 1556 062a D704     		.2byte	0x4d7
 1557 062c 10       		.byte	0x10
 1558 062d 8B000000 		.4byte	0x8b
 1559 0631 1C       		.byte	0x1c
 1560 0632 01       		.uleb128 0x1
 1561 0633 A3010000 		.4byte	.LASF81
 1562 0637 D804     		.2byte	0x4d8
 1563 0639 10       		.byte	0x10
 1564 063a 8B000000 		.4byte	0x8b
 1565 063e 20       		.byte	0x20
 1566 063f 01       		.uleb128 0x1
 1567 0640 CF040000 		.4byte	.LASF36
 1568 0644 D904     		.2byte	0x4d9
 1569 0646 0F       		.byte	0xf
 1570 0647 7F000000 		.4byte	0x7f
 1571 064b 24       		.byte	0x24
 1572 064c 01       		.uleb128 0x1
 1573 064d 6E030000 		.4byte	.LASF82
 1574 0651 DA04     		.2byte	0x4da
 1575 0653 10       		.byte	0x10
 1576 0654 8B000000 		.4byte	0x8b
 1577 0658 28       		.byte	0x28
 1578 0659 01       		.uleb128 0x1
 1579 065a 64060000 		.4byte	.LASF83
 1580 065e DB04     		.2byte	0x4db
 1581 0660 10       		.byte	0x10
 1582 0661 8B000000 		.4byte	0x8b
 1583 0665 2C       		.byte	0x2c
 1584 0666 01       		.uleb128 0x1
 1585 0667 0D000000 		.4byte	.LASF84
 1586 066b DC04     		.2byte	0x4dc
 1587 066d 10       		.byte	0x10
 1588 066e 8B000000 		.4byte	0x8b
 1589 0672 30       		.byte	0x30
 1590 0673 01       		.uleb128 0x1
 1591 0674 46010000 		.4byte	.LASF85
 1592 0678 DD04     		.2byte	0x4dd
 1593 067a 10       		.byte	0x10
 1594 067b 8B000000 		.4byte	0x8b
 1595 067f 34       		.byte	0x34
 1596 0680 01       		.uleb128 0x1
ARM GAS  C:\Users\DEVELO~1\AppData\Local\Temp\cc553B5P.s 			page 29


 1597 0681 61050000 		.4byte	.LASF86
 1598 0685 DE04     		.2byte	0x4de
 1599 0687 10       		.byte	0x10
 1600 0688 8B000000 		.4byte	0x8b
 1601 068c 38       		.byte	0x38
 1602 068d 01       		.uleb128 0x1
 1603 068e 4A020000 		.4byte	.LASF87
 1604 0692 DF04     		.2byte	0x4df
 1605 0694 10       		.byte	0x10
 1606 0695 8B000000 		.4byte	0x8b
 1607 0699 3C       		.byte	0x3c
 1608 069a 01       		.uleb128 0x1
 1609 069b 09020000 		.4byte	.LASF88
 1610 069f E004     		.2byte	0x4e0
 1611 06a1 10       		.byte	0x10
 1612 06a2 8B000000 		.4byte	0x8b
 1613 06a6 40       		.byte	0x40
 1614 06a7 01       		.uleb128 0x1
 1615 06a8 C3030000 		.4byte	.LASF89
 1616 06ac E104     		.2byte	0x4e1
 1617 06ae 10       		.byte	0x10
 1618 06af 8B000000 		.4byte	0x8b
 1619 06b3 44       		.byte	0x44
 1620 06b4 01       		.uleb128 0x1
 1621 06b5 D9040000 		.4byte	.LASF38
 1622 06b9 E204     		.2byte	0x4e2
 1623 06bb 10       		.byte	0x10
 1624 06bc 7F000000 		.4byte	0x7f
 1625 06c0 48       		.byte	0x48
 1626 06c1 01       		.uleb128 0x1
 1627 06c2 A7050000 		.4byte	.LASF90
 1628 06c6 E304     		.2byte	0x4e3
 1629 06c8 11       		.byte	0x11
 1630 06c9 8B000000 		.4byte	0x8b
 1631 06cd 4C       		.byte	0x4c
 1632 06ce 01       		.uleb128 0x1
 1633 06cf 22020000 		.4byte	.LASF91
 1634 06d3 E404     		.2byte	0x4e4
 1635 06d5 11       		.byte	0x11
 1636 06d6 8B000000 		.4byte	0x8b
 1637 06da 50       		.byte	0x50
 1638 06db 01       		.uleb128 0x1
 1639 06dc 92030000 		.4byte	.LASF92
 1640 06e0 E504     		.2byte	0x4e5
 1641 06e2 11       		.byte	0x11
 1642 06e3 8B000000 		.4byte	0x8b
 1643 06e7 54       		.byte	0x54
 1644 06e8 01       		.uleb128 0x1
 1645 06e9 2B020000 		.4byte	.LASF93
 1646 06ed E604     		.2byte	0x4e6
 1647 06ef 11       		.byte	0x11
 1648 06f0 8B000000 		.4byte	0x8b
 1649 06f4 58       		.byte	0x58
 1650 06f5 01       		.uleb128 0x1
 1651 06f6 86050000 		.4byte	.LASF45
 1652 06fa E704     		.2byte	0x4e7
 1653 06fc 10       		.byte	0x10
ARM GAS  C:\Users\DEVELO~1\AppData\Local\Temp\cc553B5P.s 			page 30


 1654 06fd 7F000000 		.4byte	0x7f
 1655 0701 5C       		.byte	0x5c
 1656 0702 01       		.uleb128 0x1
 1657 0703 8A000000 		.4byte	.LASF94
 1658 0707 E804     		.2byte	0x4e8
 1659 0709 11       		.byte	0x11
 1660 070a 8B000000 		.4byte	0x8b
 1661 070e 60       		.byte	0x60
 1662 070f 01       		.uleb128 0x1
 1663 0710 FF010000 		.4byte	.LASF95
 1664 0714 E904     		.2byte	0x4e9
 1665 0716 11       		.byte	0x11
 1666 0717 8B000000 		.4byte	0x8b
 1667 071b 64       		.byte	0x64
 1668 071c 01       		.uleb128 0x1
 1669 071d 5F060000 		.4byte	.LASF96
 1670 0721 EA04     		.2byte	0x4ea
 1671 0723 11       		.byte	0x11
 1672 0724 8B000000 		.4byte	0x8b
 1673 0728 68       		.byte	0x68
 1674 0729 01       		.uleb128 0x1
 1675 072a EA040000 		.4byte	.LASF97
 1676 072e EB04     		.2byte	0x4eb
 1677 0730 0F       		.byte	0xf
 1678 0731 7F000000 		.4byte	0x7f
 1679 0735 6C       		.byte	0x6c
 1680 0736 01       		.uleb128 0x1
 1681 0737 F1050000 		.4byte	.LASF98
 1682 073b EC04     		.2byte	0x4ec
 1683 073d 11       		.byte	0x11
 1684 073e 8B000000 		.4byte	0x8b
 1685 0742 70       		.byte	0x70
 1686 0743 06       		.uleb128 0x6
 1687 0744 43535200 		.ascii	"CSR\000"
 1688 0748 ED04     		.2byte	0x4ed
 1689 074a 11       		.byte	0x11
 1690 074b 8B000000 		.4byte	0x8b
 1691 074f 74       		.byte	0x74
 1692 0750 01       		.uleb128 0x1
 1693 0751 F4040000 		.4byte	.LASF99
 1694 0755 EE04     		.2byte	0x4ee
 1695 0757 0F       		.byte	0xf
 1696 0758 7F000000 		.4byte	0x7f
 1697 075c 78       		.byte	0x78
 1698 075d 01       		.uleb128 0x1
 1699 075e 80030000 		.4byte	.LASF100
 1700 0762 EF04     		.2byte	0x4ef
 1701 0764 10       		.byte	0x10
 1702 0765 8B000000 		.4byte	0x8b
 1703 0769 7C       		.byte	0x7c
 1704 076a 01       		.uleb128 0x1
 1705 076b 2D060000 		.4byte	.LASF101
 1706 076f F004     		.2byte	0x4f0
 1707 0771 10       		.byte	0x10
 1708 0772 8B000000 		.4byte	0x8b
 1709 0776 80       		.byte	0x80
 1710 0777 01       		.uleb128 0x1
ARM GAS  C:\Users\DEVELO~1\AppData\Local\Temp\cc553B5P.s 			page 31


 1711 0778 D2050000 		.4byte	.LASF102
 1712 077c F104     		.2byte	0x4f1
 1713 077e 10       		.byte	0x10
 1714 077f 8B000000 		.4byte	0x8b
 1715 0783 84       		.byte	0x84
 1716 0784 01       		.uleb128 0x1
 1717 0785 8F000000 		.4byte	.LASF103
 1718 0789 F204     		.2byte	0x4f2
 1719 078b 10       		.byte	0x10
 1720 078c 8B000000 		.4byte	0x8b
 1721 0790 88       		.byte	0x88
 1722 0791 01       		.uleb128 0x1
 1723 0792 FE050000 		.4byte	.LASF104
 1724 0796 F304     		.2byte	0x4f3
 1725 0798 10       		.byte	0x10
 1726 0799 8B000000 		.4byte	0x8b
 1727 079d 8C       		.byte	0x8c
 1728 079e 01       		.uleb128 0x1
 1729 079f AF030000 		.4byte	.LASF105
 1730 07a3 F404     		.2byte	0x4f4
 1731 07a5 10       		.byte	0x10
 1732 07a6 8B000000 		.4byte	0x8b
 1733 07aa 90       		.byte	0x90
 1734 07ab 01       		.uleb128 0x1
 1735 07ac 4C040000 		.4byte	.LASF106
 1736 07b0 F504     		.2byte	0x4f5
 1737 07b2 10       		.byte	0x10
 1738 07b3 8B000000 		.4byte	0x8b
 1739 07b7 94       		.byte	0x94
 1740 07b8 01       		.uleb128 0x1
 1741 07b9 50010000 		.4byte	.LASF107
 1742 07bd F604     		.2byte	0x4f6
 1743 07bf 10       		.byte	0x10
 1744 07c0 8B000000 		.4byte	0x8b
 1745 07c4 98       		.byte	0x98
 1746 07c5 01       		.uleb128 0x1
 1747 07c6 CD030000 		.4byte	.LASF108
 1748 07ca F704     		.2byte	0x4f7
 1749 07cc 10       		.byte	0x10
 1750 07cd 8B000000 		.4byte	0x8b
 1751 07d1 9C       		.byte	0x9c
 1752 07d2 06       		.uleb128 0x6
 1753 07d3 47435200 		.ascii	"GCR\000"
 1754 07d7 F804     		.2byte	0x4f8
 1755 07d9 10       		.byte	0x10
 1756 07da 8B000000 		.4byte	0x8b
 1757 07de A0       		.byte	0xa0
 1758 07df 01       		.uleb128 0x1
 1759 07e0 FE040000 		.4byte	.LASF109
 1760 07e4 F904     		.2byte	0x4f9
 1761 07e6 0F       		.byte	0xf
 1762 07e7 7F000000 		.4byte	0x7f
 1763 07eb A4       		.byte	0xa4
 1764 07ec 01       		.uleb128 0x1
 1765 07ed 66000000 		.4byte	.LASF110
 1766 07f1 FA04     		.2byte	0x4fa
 1767 07f3 10       		.byte	0x10
ARM GAS  C:\Users\DEVELO~1\AppData\Local\Temp\cc553B5P.s 			page 32


 1768 07f4 8B000000 		.4byte	0x8b
 1769 07f8 A8       		.byte	0xa8
 1770 07f9 01       		.uleb128 0x1
 1771 07fa EB000000 		.4byte	.LASF111
 1772 07fe FB04     		.2byte	0x4fb
 1773 0800 0F       		.byte	0xf
 1774 0801 D8000000 		.4byte	0xd8
 1775 0805 AC       		.byte	0xac
 1776 0806 06       		.uleb128 0x6
 1777 0807 52535200 		.ascii	"RSR\000"
 1778 080b FC04     		.2byte	0x4fc
 1779 080d 10       		.byte	0x10
 1780 080e 8B000000 		.4byte	0x8b
 1781 0812 D0       		.byte	0xd0
 1782 0813 01       		.uleb128 0x1
 1783 0814 6A050000 		.4byte	.LASF112
 1784 0818 FD04     		.2byte	0x4fd
 1785 081a 10       		.byte	0x10
 1786 081b 8B000000 		.4byte	0x8b
 1787 081f D4       		.byte	0xd4
 1788 0820 01       		.uleb128 0x1
 1789 0821 A3060000 		.4byte	.LASF113
 1790 0825 FE04     		.2byte	0x4fe
 1791 0827 10       		.byte	0x10
 1792 0828 8B000000 		.4byte	0x8b
 1793 082c D8       		.byte	0xd8
 1794 082d 01       		.uleb128 0x1
 1795 082e F6050000 		.4byte	.LASF114
 1796 0832 FF04     		.2byte	0x4ff
 1797 0834 10       		.byte	0x10
 1798 0835 8B000000 		.4byte	0x8b
 1799 0839 DC       		.byte	0xdc
 1800 083a 01       		.uleb128 0x1
 1801 083b AE040000 		.4byte	.LASF115
 1802 083f 0005     		.2byte	0x500
 1803 0841 10       		.byte	0x10
 1804 0842 8B000000 		.4byte	0x8b
 1805 0846 E0       		.byte	0xe0
 1806 0847 01       		.uleb128 0x1
 1807 0848 9E040000 		.4byte	.LASF116
 1808 084c 0105     		.2byte	0x501
 1809 084e 10       		.byte	0x10
 1810 084f 8B000000 		.4byte	0x8b
 1811 0853 E4       		.byte	0xe4
 1812 0854 01       		.uleb128 0x1
 1813 0855 BE060000 		.4byte	.LASF117
 1814 0859 0205     		.2byte	0x502
 1815 085b 10       		.byte	0x10
 1816 085c 8B000000 		.4byte	0x8b
 1817 0860 E8       		.byte	0xe8
 1818 0861 01       		.uleb128 0x1
 1819 0862 89030000 		.4byte	.LASF118
 1820 0866 0305     		.2byte	0x503
 1821 0868 10       		.byte	0x10
 1822 0869 8B000000 		.4byte	0x8b
 1823 086d EC       		.byte	0xec
 1824 086e 01       		.uleb128 0x1
ARM GAS  C:\Users\DEVELO~1\AppData\Local\Temp\cc553B5P.s 			page 33


 1825 086f 59050000 		.4byte	.LASF119
 1826 0873 0405     		.2byte	0x504
 1827 0875 10       		.byte	0x10
 1828 0876 8B000000 		.4byte	0x8b
 1829 087a F0       		.byte	0xf0
 1830 087b 01       		.uleb128 0x1
 1831 087c FB030000 		.4byte	.LASF120
 1832 0880 0505     		.2byte	0x505
 1833 0882 10       		.byte	0x10
 1834 0883 8B000000 		.4byte	0x8b
 1835 0887 F4       		.byte	0xf4
 1836 0888 01       		.uleb128 0x1
 1837 0889 F6000000 		.4byte	.LASF121
 1838 088d 0605     		.2byte	0x506
 1839 088f 10       		.byte	0x10
 1840 0890 7F000000 		.4byte	0x7f
 1841 0894 F8       		.byte	0xf8
 1842 0895 01       		.uleb128 0x1
 1843 0896 35050000 		.4byte	.LASF122
 1844 089a 0705     		.2byte	0x507
 1845 089c 10       		.byte	0x10
 1846 089d 8B000000 		.4byte	0x8b
 1847 08a1 FC       		.byte	0xfc
 1848 08a2 02       		.uleb128 0x2
 1849 08a3 80000000 		.4byte	.LASF123
 1850 08a7 0805     		.2byte	0x508
 1851 08a9 10       		.byte	0x10
 1852 08aa 8B000000 		.4byte	0x8b
 1853 08ae 0001     		.2byte	0x100
 1854 08b0 02       		.uleb128 0x2
 1855 08b1 8C040000 		.4byte	.LASF124
 1856 08b5 0905     		.2byte	0x509
 1857 08b7 10       		.byte	0x10
 1858 08b8 8B000000 		.4byte	0x8b
 1859 08bc 0401     		.2byte	0x104
 1860 08be 02       		.uleb128 0x2
 1861 08bf E1050000 		.4byte	.LASF125
 1862 08c3 0A05     		.2byte	0x50a
 1863 08c5 10       		.byte	0x10
 1864 08c6 8B000000 		.4byte	0x8b
 1865 08ca 0801     		.2byte	0x108
 1866 08cc 02       		.uleb128 0x2
 1867 08cd DA000000 		.4byte	.LASF126
 1868 08d1 0B05     		.2byte	0x50b
 1869 08d3 10       		.byte	0x10
 1870 08d4 8B000000 		.4byte	0x8b
 1871 08d8 0C01     		.2byte	0x10c
 1872 08da 02       		.uleb128 0x2
 1873 08db 4A060000 		.4byte	.LASF127
 1874 08df 0C05     		.2byte	0x50c
 1875 08e1 10       		.byte	0x10
 1876 08e2 8B000000 		.4byte	0x8b
 1877 08e6 1001     		.2byte	0x110
 1878 08e8 02       		.uleb128 0x2
 1879 08e9 29000000 		.4byte	.LASF128
 1880 08ed 0D05     		.2byte	0x50d
 1881 08ef 10       		.byte	0x10
ARM GAS  C:\Users\DEVELO~1\AppData\Local\Temp\cc553B5P.s 			page 34


 1882 08f0 8B000000 		.4byte	0x8b
 1883 08f4 1401     		.2byte	0x114
 1884 08f6 02       		.uleb128 0x2
 1885 08f7 B9030000 		.4byte	.LASF129
 1886 08fb 0E05     		.2byte	0x50e
 1887 08fd 10       		.byte	0x10
 1888 08fe 8B000000 		.4byte	0x8b
 1889 0902 1801     		.2byte	0x118
 1890 0904 02       		.uleb128 0x2
 1891 0905 3F050000 		.4byte	.LASF130
 1892 0909 0F05     		.2byte	0x50f
 1893 090b 10       		.byte	0x10
 1894 090c 8B000000 		.4byte	0x8b
 1895 0910 1C01     		.2byte	0x11c
 1896 0912 02       		.uleb128 0x2
 1897 0913 01010000 		.4byte	.LASF131
 1898 0917 1005     		.2byte	0x510
 1899 0919 0F       		.byte	0xf
 1900 091a B3000000 		.4byte	0xb3
 1901 091e 2001     		.2byte	0x120
 1902 0920 00       		.byte	0
 1903 0921 0D       		.uleb128 0xd
 1904 0922 91020000 		.4byte	.LASF132
 1905 0926 1205     		.2byte	0x512
 1906 0928 C2050000 		.4byte	0x5c2
 1907 092c 04       		.uleb128 0x4
 1908 092d 01       		.byte	0x1
 1909 092e 02       		.byte	0x2
 1910 092f 08050000 		.4byte	.LASF133
 1911 0933 1C       		.uleb128 0x1c
 1912 0934 A7000000 		.4byte	0xa7
 1913 0938 01       		.byte	0x1
 1914 0939 2B       		.byte	0x2b
 1915 093a 0A       		.byte	0xa
 1916 093b 05       		.uleb128 0x5
 1917 093c 03       		.byte	0x3
 1918 093d 00000000 		.4byte	SystemCoreClock
 1919 0941 12       		.uleb128 0x12
 1920 0942 A6040000 		.4byte	.LASF134
 1921 0946 06       		.byte	0x6
 1922 0947 8F01     		.2byte	0x18f
 1923 0949 12       		.uleb128 0x12
 1924 094a AF050000 		.4byte	.LASF135
 1925 094e 07       		.byte	0x7
 1926 094f 9B02     		.2byte	0x29b
 1927 0951 13       		.uleb128 0x13
 1928 0952 39020000 		.4byte	.LASF141
 1929 0956 E3       		.byte	0xe3
 1930 0957 00000000 		.4byte	.LFB451
 1931 095b F4010000 		.4byte	.LFE451-.LFB451
 1932 095f 01       		.uleb128 0x1
 1933 0960 9C       		.byte	0x9c
 1934 0961 AC0A0000 		.4byte	0xaac
 1935 0965 1D       		.uleb128 0x1d
 1936 0966 9E060000 		.4byte	.LASF137
 1937 096a 01       		.byte	0x1
 1938 096b E5       		.byte	0xe5
ARM GAS  C:\Users\DEVELO~1\AppData\Local\Temp\cc553B5P.s 			page 35


 1939 096c 0C       		.byte	0xc
 1940 096d 7F000000 		.4byte	0x7f
 1941 0971 10000000 		.4byte	.LLST13
 1942 0975 0C000000 		.4byte	.LVUS13
 1943 0979 1E       		.uleb128 0x1e
 1944 097a F2000000 		.4byte	.LBB88
 1945 097e 32000000 		.4byte	.LBE88-.LBB88
 1946 0982 C0090000 		.4byte	0x9c0
 1947 0986 0F       		.uleb128 0xf
 1948 0987 AE000000 		.4byte	.LASF138
 1949 098b 4801     		.2byte	0x148
 1950 098d 7F000000 		.4byte	0x7f
 1951 0991 33000000 		.4byte	.LLST18
 1952 0995 2B000000 		.4byte	.LVUS18
 1953 0999 0F       		.uleb128 0xf
 1954 099a 96040000 		.4byte	.LASF139
 1955 099e 4901     		.2byte	0x149
 1956 09a0 7F000000 		.4byte	0x7f
 1957 09a4 60000000 		.4byte	.LLST19
 1958 09a8 58000000 		.4byte	.LVUS19
 1959 09ac 0F       		.uleb128 0xf
 1960 09ad 91010000 		.4byte	.LASF140
 1961 09b1 4A01     		.2byte	0x14a
 1962 09b3 7F000000 		.4byte	0x7f
 1963 09b7 9B000000 		.4byte	.LLST20
 1964 09bb 85000000 		.4byte	.LVUS20
 1965 09bf 00       		.byte	0
 1966 09c0 0B       		.uleb128 0xb
 1967 09c1 3D0C0000 		.4byte	0xc3d
 1968 09c5 00000000 		.4byte	.LBI76
 1969 09c9 03       		.byte	.LVU89
 1970 09ca 48000000 		.4byte	.LLRL14
 1971 09ce F5       		.byte	0xf5
 1972 09cf EE090000 		.4byte	0x9ee
 1973 09d3 03       		.uleb128 0x3
 1974 09d4 530C0000 		.4byte	0xc53
 1975 09d8 0C010000 		.4byte	.LLST15
 1976 09dc 0A010000 		.4byte	.LVUS15
 1977 09e0 03       		.uleb128 0x3
 1978 09e1 480C0000 		.4byte	0xc48
 1979 09e5 18010000 		.4byte	.LLST16
 1980 09e9 16010000 		.4byte	.LVUS16
 1981 09ed 00       		.byte	0
 1982 09ee 1F       		.uleb128 0x1f
 1983 09ef 100C0000 		.4byte	0xc10
 1984 09f3 20000000 		.4byte	.LBI80
 1985 09f7 02       		.byte	.LVU102
 1986 09f8 57000000 		.4byte	.LLRL17
 1987 09fc 01       		.byte	0x1
 1988 09fd F8       		.byte	0xf8
 1989 09fe 03       		.byte	0x3
 1990 09ff 20       		.uleb128 0x20
 1991 0a00 160C0000 		.4byte	0xc16
 1992 0a04 4A000000 		.4byte	.LBI86
 1993 0a08 01       		.byte	.LVU133
 1994 0a09 4A000000 		.4byte	.LBB86
 1995 0a0d 30000000 		.4byte	.LBE86-.LBB86
ARM GAS  C:\Users\DEVELO~1\AppData\Local\Temp\cc553B5P.s 			page 36


 1996 0a11 01       		.byte	0x1
 1997 0a12 FB       		.byte	0xfb
 1998 0a13 03       		.byte	0x3
 1999 0a14 21       		.uleb128 0x21
 2000 0a15 1C0C0000 		.4byte	0xc1c
 2001 0a19 68010000 		.4byte	.LBI89
 2002 0a1d 01       		.byte	.LVU310
 2003 0a1e 63000000 		.4byte	.LLRL21
 2004 0a22 01       		.byte	0x1
 2005 0a23 DD01     		.2byte	0x1dd
 2006 0a25 03       		.byte	0x3
 2007 0a26 450A0000 		.4byte	0xa45
 2008 0a2a 03       		.uleb128 0x3
 2009 0a2b 320C0000 		.4byte	0xc32
 2010 0a2f 24010000 		.4byte	.LLST22
 2011 0a33 22010000 		.4byte	.LVUS22
 2012 0a37 03       		.uleb128 0x3
 2013 0a38 270C0000 		.4byte	0xc27
 2014 0a3c 30010000 		.4byte	.LLST23
 2015 0a40 2E010000 		.4byte	.LVUS23
 2016 0a44 00       		.byte	0
 2017 0a45 22       		.uleb128 0x22
 2018 0a46 1C0C0000 		.4byte	0xc1c
 2019 0a4a 86010000 		.4byte	.LBI93
 2020 0a4e 02       		.byte	.LVU321
 2021 0a4f 86010000 		.4byte	.LBB93
 2022 0a53 1C000000 		.4byte	.LBE93-.LBB93
 2023 0a57 01       		.byte	0x1
 2024 0a58 DE01     		.2byte	0x1de
 2025 0a5a 03       		.byte	0x3
 2026 0a5b 7A0A0000 		.4byte	0xa7a
 2027 0a5f 03       		.uleb128 0x3
 2028 0a60 320C0000 		.4byte	0xc32
 2029 0a64 3E010000 		.4byte	.LLST24
 2030 0a68 3C010000 		.4byte	.LVUS24
 2031 0a6c 03       		.uleb128 0x3
 2032 0a6d 270C0000 		.4byte	0xc27
 2033 0a71 4A010000 		.4byte	.LLST25
 2034 0a75 48010000 		.4byte	.LVUS25
 2035 0a79 00       		.byte	0
 2036 0a7a 23       		.uleb128 0x23
 2037 0a7b 1C0C0000 		.4byte	0xc1c
 2038 0a7f A2010000 		.4byte	.LBI95
 2039 0a83 02       		.byte	.LVU330
 2040 0a84 A2010000 		.4byte	.LBB95
 2041 0a88 1C000000 		.4byte	.LBE95-.LBB95
 2042 0a8c 01       		.byte	0x1
 2043 0a8d E001     		.2byte	0x1e0
 2044 0a8f 03       		.byte	0x3
 2045 0a90 03       		.uleb128 0x3
 2046 0a91 320C0000 		.4byte	0xc32
 2047 0a95 58010000 		.4byte	.LLST26
 2048 0a99 56010000 		.4byte	.LVUS26
 2049 0a9d 03       		.uleb128 0x3
 2050 0a9e 270C0000 		.4byte	0xc27
 2051 0aa2 64010000 		.4byte	.LLST27
 2052 0aa6 62010000 		.4byte	.LVUS27
ARM GAS  C:\Users\DEVELO~1\AppData\Local\Temp\cc553B5P.s 			page 37


 2053 0aaa 00       		.byte	0
 2054 0aab 00       		.byte	0
 2055 0aac 13       		.uleb128 0x13
 2056 0aad 00000000 		.4byte	.LASF142
 2057 0ab1 96       		.byte	0x96
 2058 0ab2 00000000 		.4byte	.LFB450
 2059 0ab6 E8000000 		.4byte	.LFE450-.LFB450
 2060 0aba 01       		.uleb128 0x1
 2061 0abb 9C       		.byte	0x9c
 2062 0abc 100C0000 		.4byte	0xc10
 2063 0ac0 0B       		.uleb128 0xb
 2064 0ac1 A00C0000 		.4byte	0xca0
 2065 0ac5 00000000 		.4byte	.LBI29
 2066 0ac9 02       		.byte	.LVU2
 2067 0aca 0C000000 		.4byte	.LLRL0
 2068 0ace A0       		.byte	0xa0
 2069 0acf E10A0000 		.4byte	0xae1
 2070 0ad3 03       		.uleb128 0x3
 2071 0ad4 AA0C0000 		.4byte	0xcaa
 2072 0ad8 73010000 		.4byte	.LLST1
 2073 0adc 71010000 		.4byte	.LVUS1
 2074 0ae0 00       		.byte	0
 2075 0ae1 0B       		.uleb128 0xb
 2076 0ae2 8A0C0000 		.4byte	0xc8a
 2077 0ae6 2A000000 		.4byte	.LBI35
 2078 0aea 02       		.byte	.LVU17
 2079 0aeb 1E000000 		.4byte	.LLRL2
 2080 0aef A1       		.byte	0xa1
 2081 0af0 020B0000 		.4byte	0xb02
 2082 0af4 03       		.uleb128 0x3
 2083 0af5 940C0000 		.4byte	0xc94
 2084 0af9 83010000 		.4byte	.LLST3
 2085 0afd 81010000 		.4byte	.LVUS3
 2086 0b01 00       		.byte	0
 2087 0b02 0B       		.uleb128 0xb
 2088 0b03 740C0000 		.4byte	0xc74
 2089 0b07 3E000000 		.4byte	.LBI38
 2090 0b0b 02       		.byte	.LVU25
 2091 0b0c 2A000000 		.4byte	.LLRL4
 2092 0b10 A2       		.byte	0xa2
 2093 0b11 230B0000 		.4byte	0xb23
 2094 0b15 03       		.uleb128 0x3
 2095 0b16 7E0C0000 		.4byte	0xc7e
 2096 0b1a 90010000 		.4byte	.LLST5
 2097 0b1e 8E010000 		.4byte	.LVUS5
 2098 0b22 00       		.byte	0
 2099 0b23 0B       		.uleb128 0xb
 2100 0b24 5E0C0000 		.4byte	0xc5e
 2101 0b28 4E000000 		.4byte	.LBI48
 2102 0b2c 02       		.byte	.LVU35
 2103 0b2d 3C000000 		.4byte	.LLRL6
 2104 0b31 B1       		.byte	0xb1
 2105 0b32 440B0000 		.4byte	0xb44
 2106 0b36 03       		.uleb128 0x3
 2107 0b37 680C0000 		.4byte	0xc68
 2108 0b3b A0010000 		.4byte	.LLST7
 2109 0b3f 9E010000 		.4byte	.LVUS7
ARM GAS  C:\Users\DEVELO~1\AppData\Local\Temp\cc553B5P.s 			page 38


 2110 0b43 00       		.byte	0
 2111 0b44 0C       		.uleb128 0xc
 2112 0b45 0E0D0000 		.4byte	0xd0e
 2113 0b49 68000000 		.4byte	.LBI53
 2114 0b4d 02       		.byte	.LVU43
 2115 0b4e 68000000 		.4byte	.LBB53
 2116 0b52 14000000 		.4byte	.LBE53-.LBB53
 2117 0b56 B2       		.byte	0xb2
 2118 0b57 690B0000 		.4byte	0xb69
 2119 0b5b 03       		.uleb128 0x3
 2120 0b5c 170D0000 		.4byte	0xd17
 2121 0b60 AE010000 		.4byte	.LLST8
 2122 0b64 AC010000 		.4byte	.LVUS8
 2123 0b68 00       		.byte	0
 2124 0b69 0C       		.uleb128 0xc
 2125 0b6a F80C0000 		.4byte	0xcf8
 2126 0b6e 7C000000 		.4byte	.LBI55
 2127 0b72 02       		.byte	.LVU51
 2128 0b73 7C000000 		.4byte	.LBB55
 2129 0b77 14000000 		.4byte	.LBE55-.LBB55
 2130 0b7b B3       		.byte	0xb3
 2131 0b7c 8E0B0000 		.4byte	0xb8e
 2132 0b80 03       		.uleb128 0x3
 2133 0b81 020D0000 		.4byte	0xd02
 2134 0b85 BB010000 		.4byte	.LLST9
 2135 0b89 B9010000 		.4byte	.LVUS9
 2136 0b8d 00       		.byte	0
 2137 0b8e 0C       		.uleb128 0xc
 2138 0b8f E20C0000 		.4byte	0xce2
 2139 0b93 90000000 		.4byte	.LBI57
 2140 0b97 02       		.byte	.LVU59
 2141 0b98 90000000 		.4byte	.LBB57
 2142 0b9c 14000000 		.4byte	.LBE57-.LBB57
 2143 0ba0 B4       		.byte	0xb4
 2144 0ba1 B30B0000 		.4byte	0xbb3
 2145 0ba5 03       		.uleb128 0x3
 2146 0ba6 EC0C0000 		.4byte	0xcec
 2147 0baa C8010000 		.4byte	.LLST10
 2148 0bae C6010000 		.4byte	.LVUS10
 2149 0bb2 00       		.byte	0
 2150 0bb3 0C       		.uleb128 0xc
 2151 0bb4 CC0C0000 		.4byte	0xccc
 2152 0bb8 A4000000 		.4byte	.LBI59
 2153 0bbc 02       		.byte	.LVU67
 2154 0bbd A4000000 		.4byte	.LBB59
 2155 0bc1 14000000 		.4byte	.LBE59-.LBB59
 2156 0bc5 B5       		.byte	0xb5
 2157 0bc6 D80B0000 		.4byte	0xbd8
 2158 0bca 03       		.uleb128 0x3
 2159 0bcb D60C0000 		.4byte	0xcd6
 2160 0bcf D5010000 		.4byte	.LLST11
 2161 0bd3 D3010000 		.4byte	.LVUS11
 2162 0bd7 00       		.byte	0
 2163 0bd8 0C       		.uleb128 0xc
 2164 0bd9 B60C0000 		.4byte	0xcb6
 2165 0bdd B8000000 		.4byte	.LBI61
 2166 0be1 02       		.byte	.LVU75
ARM GAS  C:\Users\DEVELO~1\AppData\Local\Temp\cc553B5P.s 			page 39


 2167 0be2 B8000000 		.4byte	.LBB61
 2168 0be6 14000000 		.4byte	.LBE61-.LBB61
 2169 0bea B6       		.byte	0xb6
 2170 0beb FD0B0000 		.4byte	0xbfd
 2171 0bef 03       		.uleb128 0x3
 2172 0bf0 C00C0000 		.4byte	0xcc0
 2173 0bf4 E2010000 		.4byte	.LLST12
 2174 0bf8 E0010000 		.4byte	.LVUS12
 2175 0bfc 00       		.byte	0
 2176 0bfd 24       		.uleb128 0x24
 2177 0bfe D0000000 		.4byte	.LVL10
 2178 0c02 49090000 		.4byte	0x949
 2179 0c06 25       		.uleb128 0x25
 2180 0c07 D8000000 		.4byte	.LVL11
 2181 0c0b 41090000 		.4byte	0x941
 2182 0c0f 00       		.byte	0
 2183 0c10 14       		.uleb128 0x14
 2184 0c11 9E050000 		.4byte	.LASF143
 2185 0c15 62       		.byte	0x62
 2186 0c16 14       		.uleb128 0x14
 2187 0c17 59010000 		.4byte	.LASF144
 2188 0c1b 3A       		.byte	0x3a
 2189 0c1c 15       		.uleb128 0x15
 2190 0c1d CC060000 		.4byte	.LASF146
 2191 0c21 A302     		.2byte	0x2a3
 2192 0c23 3D0C0000 		.4byte	0xc3d
 2193 0c27 16       		.uleb128 0x16
 2194 0c28 1D020000 		.4byte	.LASF145
 2195 0c2c A302     		.2byte	0x2a3
 2196 0c2e 7F000000 		.4byte	0x7f
 2197 0c32 17       		.uleb128 0x17
 2198 0c33 6C7000   		.ascii	"lp\000"
 2199 0c36 A302     		.2byte	0x2a3
 2200 0c38 2C090000 		.4byte	0x92c
 2201 0c3c 00       		.byte	0
 2202 0c3d 15       		.uleb128 0x15
 2203 0c3e 03040000 		.4byte	.LASF147
 2204 0c42 F101     		.2byte	0x1f1
 2205 0c44 5E0C0000 		.4byte	0xc5e
 2206 0c48 16       		.uleb128 0x16
 2207 0c49 1D020000 		.4byte	.LASF145
 2208 0c4d F101     		.2byte	0x1f1
 2209 0c4f 7F000000 		.4byte	0x7f
 2210 0c53 17       		.uleb128 0x17
 2211 0c54 6C7000   		.ascii	"lp\000"
 2212 0c57 F101     		.2byte	0x1f1
 2213 0c59 2C090000 		.4byte	0x92c
 2214 0c5d 00       		.byte	0
 2215 0c5e 08       		.uleb128 0x8
 2216 0c5f 3D040000 		.4byte	.LASF148
 2217 0c63 79       		.byte	0x79
 2218 0c64 740C0000 		.4byte	0xc74
 2219 0c68 07       		.uleb128 0x7
 2220 0c69 1D020000 		.4byte	.LASF145
 2221 0c6d 79       		.byte	0x79
 2222 0c6e 2E       		.byte	0x2e
 2223 0c6f 7F000000 		.4byte	0x7f
ARM GAS  C:\Users\DEVELO~1\AppData\Local\Temp\cc553B5P.s 			page 40


 2224 0c73 00       		.byte	0
 2225 0c74 08       		.uleb128 0x8
 2226 0c75 2E040000 		.4byte	.LASF149
 2227 0c79 71       		.byte	0x71
 2228 0c7a 8A0C0000 		.4byte	0xc8a
 2229 0c7e 07       		.uleb128 0x7
 2230 0c7f 1D020000 		.4byte	.LASF145
 2231 0c83 71       		.byte	0x71
 2232 0c84 2E       		.byte	0x2e
 2233 0c85 7F000000 		.4byte	0x7f
 2234 0c89 00       		.byte	0
 2235 0c8a 08       		.uleb128 0x8
 2236 0c8b 7D040000 		.4byte	.LASF150
 2237 0c8f 69       		.byte	0x69
 2238 0c90 A00C0000 		.4byte	0xca0
 2239 0c94 07       		.uleb128 0x7
 2240 0c95 1D020000 		.4byte	.LASF145
 2241 0c99 69       		.byte	0x69
 2242 0c9a 2E       		.byte	0x2e
 2243 0c9b 7F000000 		.4byte	0x7f
 2244 0c9f 00       		.byte	0
 2245 0ca0 08       		.uleb128 0x8
 2246 0ca1 6E040000 		.4byte	.LASF151
 2247 0ca5 61       		.byte	0x61
 2248 0ca6 B60C0000 		.4byte	0xcb6
 2249 0caa 07       		.uleb128 0x7
 2250 0cab 1D020000 		.4byte	.LASF145
 2251 0caf 61       		.byte	0x61
 2252 0cb0 2E       		.byte	0x2e
 2253 0cb1 7F000000 		.4byte	0x7f
 2254 0cb5 00       		.byte	0
 2255 0cb6 08       		.uleb128 0x8
 2256 0cb7 6C000000 		.4byte	.LASF152
 2257 0cbb 59       		.byte	0x59
 2258 0cbc CC0C0000 		.4byte	0xccc
 2259 0cc0 07       		.uleb128 0x7
 2260 0cc1 1D020000 		.4byte	.LASF145
 2261 0cc5 59       		.byte	0x59
 2262 0cc6 2E       		.byte	0x2e
 2263 0cc7 7F000000 		.4byte	0x7f
 2264 0ccb 00       		.byte	0
 2265 0ccc 08       		.uleb128 0x8
 2266 0ccd 77050000 		.4byte	.LASF153
 2267 0cd1 51       		.byte	0x51
 2268 0cd2 E20C0000 		.4byte	0xce2
 2269 0cd6 07       		.uleb128 0x7
 2270 0cd7 1D020000 		.4byte	.LASF145
 2271 0cdb 51       		.byte	0x51
 2272 0cdc 2E       		.byte	0x2e
 2273 0cdd 7F000000 		.4byte	0x7f
 2274 0ce1 00       		.byte	0
 2275 0ce2 08       		.uleb128 0x8
 2276 0ce3 57000000 		.4byte	.LASF154
 2277 0ce7 49       		.byte	0x49
 2278 0ce8 F80C0000 		.4byte	0xcf8
 2279 0cec 07       		.uleb128 0x7
 2280 0ced 1D020000 		.4byte	.LASF145
ARM GAS  C:\Users\DEVELO~1\AppData\Local\Temp\cc553B5P.s 			page 41


 2281 0cf1 49       		.byte	0x49
 2282 0cf2 2E       		.byte	0x2e
 2283 0cf3 7F000000 		.4byte	0x7f
 2284 0cf7 00       		.byte	0
 2285 0cf8 08       		.uleb128 0x8
 2286 0cf9 6C060000 		.4byte	.LASF155
 2287 0cfd 41       		.byte	0x41
 2288 0cfe 0E0D0000 		.4byte	0xd0e
 2289 0d02 07       		.uleb128 0x7
 2290 0d03 1D020000 		.4byte	.LASF145
 2291 0d07 41       		.byte	0x41
 2292 0d08 2F       		.byte	0x2f
 2293 0d09 7F000000 		.4byte	0x7f
 2294 0d0d 00       		.byte	0
 2295 0d0e 26       		.uleb128 0x26
 2296 0d0f 7C060000 		.4byte	.LASF159
 2297 0d13 02       		.byte	0x2
 2298 0d14 39       		.byte	0x39
 2299 0d15 16       		.byte	0x16
 2300 0d16 03       		.byte	0x3
 2301 0d17 07       		.uleb128 0x7
 2302 0d18 1D020000 		.4byte	.LASF145
 2303 0d1c 39       		.byte	0x39
 2304 0d1d 2F       		.byte	0x2f
 2305 0d1e 7F000000 		.4byte	0x7f
 2306 0d22 00       		.byte	0
 2307 0d23 00       		.byte	0
 2308              		.section	.debug_abbrev,"",%progbits
 2309              	.Ldebug_abbrev0:
 2310 0000 01       		.uleb128 0x1
 2311 0001 0D       		.uleb128 0xd
 2312 0002 00       		.byte	0
 2313 0003 03       		.uleb128 0x3
 2314 0004 0E       		.uleb128 0xe
 2315 0005 3A       		.uleb128 0x3a
 2316 0006 21       		.uleb128 0x21
 2317 0007 05       		.sleb128 5
 2318 0008 3B       		.uleb128 0x3b
 2319 0009 05       		.uleb128 0x5
 2320 000a 39       		.uleb128 0x39
 2321 000b 0B       		.uleb128 0xb
 2322 000c 49       		.uleb128 0x49
 2323 000d 13       		.uleb128 0x13
 2324 000e 38       		.uleb128 0x38
 2325 000f 0B       		.uleb128 0xb
 2326 0010 00       		.byte	0
 2327 0011 00       		.byte	0
 2328 0012 02       		.uleb128 0x2
 2329 0013 0D       		.uleb128 0xd
 2330 0014 00       		.byte	0
 2331 0015 03       		.uleb128 0x3
 2332 0016 0E       		.uleb128 0xe
 2333 0017 3A       		.uleb128 0x3a
 2334 0018 21       		.uleb128 0x21
 2335 0019 05       		.sleb128 5
 2336 001a 3B       		.uleb128 0x3b
 2337 001b 05       		.uleb128 0x5
ARM GAS  C:\Users\DEVELO~1\AppData\Local\Temp\cc553B5P.s 			page 42


 2338 001c 39       		.uleb128 0x39
 2339 001d 0B       		.uleb128 0xb
 2340 001e 49       		.uleb128 0x49
 2341 001f 13       		.uleb128 0x13
 2342 0020 38       		.uleb128 0x38
 2343 0021 05       		.uleb128 0x5
 2344 0022 00       		.byte	0
 2345 0023 00       		.byte	0
 2346 0024 03       		.uleb128 0x3
 2347 0025 05       		.uleb128 0x5
 2348 0026 00       		.byte	0
 2349 0027 31       		.uleb128 0x31
 2350 0028 13       		.uleb128 0x13
 2351 0029 02       		.uleb128 0x2
 2352 002a 17       		.uleb128 0x17
 2353 002b B742     		.uleb128 0x2137
 2354 002d 17       		.uleb128 0x17
 2355 002e 00       		.byte	0
 2356 002f 00       		.byte	0
 2357 0030 04       		.uleb128 0x4
 2358 0031 24       		.uleb128 0x24
 2359 0032 00       		.byte	0
 2360 0033 0B       		.uleb128 0xb
 2361 0034 0B       		.uleb128 0xb
 2362 0035 3E       		.uleb128 0x3e
 2363 0036 0B       		.uleb128 0xb
 2364 0037 03       		.uleb128 0x3
 2365 0038 0E       		.uleb128 0xe
 2366 0039 00       		.byte	0
 2367 003a 00       		.byte	0
 2368 003b 05       		.uleb128 0x5
 2369 003c 0D       		.uleb128 0xd
 2370 003d 00       		.byte	0
 2371 003e 03       		.uleb128 0x3
 2372 003f 08       		.uleb128 0x8
 2373 0040 3A       		.uleb128 0x3a
 2374 0041 21       		.uleb128 0x21
 2375 0042 05       		.sleb128 5
 2376 0043 3B       		.uleb128 0x3b
 2377 0044 05       		.uleb128 0x5
 2378 0045 39       		.uleb128 0x39
 2379 0046 0B       		.uleb128 0xb
 2380 0047 49       		.uleb128 0x49
 2381 0048 13       		.uleb128 0x13
 2382 0049 38       		.uleb128 0x38
 2383 004a 05       		.uleb128 0x5
 2384 004b 00       		.byte	0
 2385 004c 00       		.byte	0
 2386 004d 06       		.uleb128 0x6
 2387 004e 0D       		.uleb128 0xd
 2388 004f 00       		.byte	0
 2389 0050 03       		.uleb128 0x3
 2390 0051 08       		.uleb128 0x8
 2391 0052 3A       		.uleb128 0x3a
 2392 0053 21       		.uleb128 0x21
 2393 0054 05       		.sleb128 5
 2394 0055 3B       		.uleb128 0x3b
ARM GAS  C:\Users\DEVELO~1\AppData\Local\Temp\cc553B5P.s 			page 43


 2395 0056 05       		.uleb128 0x5
 2396 0057 39       		.uleb128 0x39
 2397 0058 0B       		.uleb128 0xb
 2398 0059 49       		.uleb128 0x49
 2399 005a 13       		.uleb128 0x13
 2400 005b 38       		.uleb128 0x38
 2401 005c 0B       		.uleb128 0xb
 2402 005d 00       		.byte	0
 2403 005e 00       		.byte	0
 2404 005f 07       		.uleb128 0x7
 2405 0060 05       		.uleb128 0x5
 2406 0061 00       		.byte	0
 2407 0062 03       		.uleb128 0x3
 2408 0063 0E       		.uleb128 0xe
 2409 0064 3A       		.uleb128 0x3a
 2410 0065 21       		.uleb128 0x21
 2411 0066 02       		.sleb128 2
 2412 0067 3B       		.uleb128 0x3b
 2413 0068 0B       		.uleb128 0xb
 2414 0069 39       		.uleb128 0x39
 2415 006a 0B       		.uleb128 0xb
 2416 006b 49       		.uleb128 0x49
 2417 006c 13       		.uleb128 0x13
 2418 006d 00       		.byte	0
 2419 006e 00       		.byte	0
 2420 006f 08       		.uleb128 0x8
 2421 0070 2E       		.uleb128 0x2e
 2422 0071 01       		.byte	0x1
 2423 0072 03       		.uleb128 0x3
 2424 0073 0E       		.uleb128 0xe
 2425 0074 3A       		.uleb128 0x3a
 2426 0075 21       		.uleb128 0x21
 2427 0076 02       		.sleb128 2
 2428 0077 3B       		.uleb128 0x3b
 2429 0078 0B       		.uleb128 0xb
 2430 0079 39       		.uleb128 0x39
 2431 007a 21       		.uleb128 0x21
 2432 007b 16       		.sleb128 22
 2433 007c 27       		.uleb128 0x27
 2434 007d 19       		.uleb128 0x19
 2435 007e 20       		.uleb128 0x20
 2436 007f 21       		.uleb128 0x21
 2437 0080 03       		.sleb128 3
 2438 0081 01       		.uleb128 0x1
 2439 0082 13       		.uleb128 0x13
 2440 0083 00       		.byte	0
 2441 0084 00       		.byte	0
 2442 0085 09       		.uleb128 0x9
 2443 0086 01       		.uleb128 0x1
 2444 0087 01       		.byte	0x1
 2445 0088 49       		.uleb128 0x49
 2446 0089 13       		.uleb128 0x13
 2447 008a 01       		.uleb128 0x1
 2448 008b 13       		.uleb128 0x13
 2449 008c 00       		.byte	0
 2450 008d 00       		.byte	0
 2451 008e 0A       		.uleb128 0xa
ARM GAS  C:\Users\DEVELO~1\AppData\Local\Temp\cc553B5P.s 			page 44


 2452 008f 21       		.uleb128 0x21
 2453 0090 00       		.byte	0
 2454 0091 49       		.uleb128 0x49
 2455 0092 13       		.uleb128 0x13
 2456 0093 2F       		.uleb128 0x2f
 2457 0094 0B       		.uleb128 0xb
 2458 0095 00       		.byte	0
 2459 0096 00       		.byte	0
 2460 0097 0B       		.uleb128 0xb
 2461 0098 1D       		.uleb128 0x1d
 2462 0099 01       		.byte	0x1
 2463 009a 31       		.uleb128 0x31
 2464 009b 13       		.uleb128 0x13
 2465 009c 52       		.uleb128 0x52
 2466 009d 01       		.uleb128 0x1
 2467 009e B842     		.uleb128 0x2138
 2468 00a0 0B       		.uleb128 0xb
 2469 00a1 55       		.uleb128 0x55
 2470 00a2 17       		.uleb128 0x17
 2471 00a3 58       		.uleb128 0x58
 2472 00a4 21       		.uleb128 0x21
 2473 00a5 01       		.sleb128 1
 2474 00a6 59       		.uleb128 0x59
 2475 00a7 0B       		.uleb128 0xb
 2476 00a8 57       		.uleb128 0x57
 2477 00a9 21       		.uleb128 0x21
 2478 00aa 03       		.sleb128 3
 2479 00ab 01       		.uleb128 0x1
 2480 00ac 13       		.uleb128 0x13
 2481 00ad 00       		.byte	0
 2482 00ae 00       		.byte	0
 2483 00af 0C       		.uleb128 0xc
 2484 00b0 1D       		.uleb128 0x1d
 2485 00b1 01       		.byte	0x1
 2486 00b2 31       		.uleb128 0x31
 2487 00b3 13       		.uleb128 0x13
 2488 00b4 52       		.uleb128 0x52
 2489 00b5 01       		.uleb128 0x1
 2490 00b6 B842     		.uleb128 0x2138
 2491 00b8 0B       		.uleb128 0xb
 2492 00b9 11       		.uleb128 0x11
 2493 00ba 01       		.uleb128 0x1
 2494 00bb 12       		.uleb128 0x12
 2495 00bc 06       		.uleb128 0x6
 2496 00bd 58       		.uleb128 0x58
 2497 00be 21       		.uleb128 0x21
 2498 00bf 01       		.sleb128 1
 2499 00c0 59       		.uleb128 0x59
 2500 00c1 0B       		.uleb128 0xb
 2501 00c2 57       		.uleb128 0x57
 2502 00c3 21       		.uleb128 0x21
 2503 00c4 03       		.sleb128 3
 2504 00c5 01       		.uleb128 0x1
 2505 00c6 13       		.uleb128 0x13
 2506 00c7 00       		.byte	0
 2507 00c8 00       		.byte	0
 2508 00c9 0D       		.uleb128 0xd
ARM GAS  C:\Users\DEVELO~1\AppData\Local\Temp\cc553B5P.s 			page 45


 2509 00ca 16       		.uleb128 0x16
 2510 00cb 00       		.byte	0
 2511 00cc 03       		.uleb128 0x3
 2512 00cd 0E       		.uleb128 0xe
 2513 00ce 3A       		.uleb128 0x3a
 2514 00cf 21       		.uleb128 0x21
 2515 00d0 05       		.sleb128 5
 2516 00d1 3B       		.uleb128 0x3b
 2517 00d2 05       		.uleb128 0x5
 2518 00d3 39       		.uleb128 0x39
 2519 00d4 21       		.uleb128 0x21
 2520 00d5 03       		.sleb128 3
 2521 00d6 49       		.uleb128 0x49
 2522 00d7 13       		.uleb128 0x13
 2523 00d8 00       		.byte	0
 2524 00d9 00       		.byte	0
 2525 00da 0E       		.uleb128 0xe
 2526 00db 13       		.uleb128 0x13
 2527 00dc 01       		.byte	0x1
 2528 00dd 0B       		.uleb128 0xb
 2529 00de 05       		.uleb128 0x5
 2530 00df 3A       		.uleb128 0x3a
 2531 00e0 21       		.uleb128 0x21
 2532 00e1 05       		.sleb128 5
 2533 00e2 3B       		.uleb128 0x3b
 2534 00e3 05       		.uleb128 0x5
 2535 00e4 39       		.uleb128 0x39
 2536 00e5 21       		.uleb128 0x21
 2537 00e6 09       		.sleb128 9
 2538 00e7 01       		.uleb128 0x1
 2539 00e8 13       		.uleb128 0x13
 2540 00e9 00       		.byte	0
 2541 00ea 00       		.byte	0
 2542 00eb 0F       		.uleb128 0xf
 2543 00ec 34       		.uleb128 0x34
 2544 00ed 00       		.byte	0
 2545 00ee 03       		.uleb128 0x3
 2546 00ef 0E       		.uleb128 0xe
 2547 00f0 3A       		.uleb128 0x3a
 2548 00f1 21       		.uleb128 0x21
 2549 00f2 01       		.sleb128 1
 2550 00f3 3B       		.uleb128 0x3b
 2551 00f4 05       		.uleb128 0x5
 2552 00f5 39       		.uleb128 0x39
 2553 00f6 21       		.uleb128 0x21
 2554 00f7 0E       		.sleb128 14
 2555 00f8 49       		.uleb128 0x49
 2556 00f9 13       		.uleb128 0x13
 2557 00fa 02       		.uleb128 0x2
 2558 00fb 17       		.uleb128 0x17
 2559 00fc B742     		.uleb128 0x2137
 2560 00fe 17       		.uleb128 0x17
 2561 00ff 00       		.byte	0
 2562 0100 00       		.byte	0
 2563 0101 10       		.uleb128 0x10
 2564 0102 16       		.uleb128 0x16
 2565 0103 00       		.byte	0
ARM GAS  C:\Users\DEVELO~1\AppData\Local\Temp\cc553B5P.s 			page 46


 2566 0104 03       		.uleb128 0x3
 2567 0105 0E       		.uleb128 0xe
 2568 0106 3A       		.uleb128 0x3a
 2569 0107 0B       		.uleb128 0xb
 2570 0108 3B       		.uleb128 0x3b
 2571 0109 0B       		.uleb128 0xb
 2572 010a 39       		.uleb128 0x39
 2573 010b 0B       		.uleb128 0xb
 2574 010c 49       		.uleb128 0x49
 2575 010d 13       		.uleb128 0x13
 2576 010e 00       		.byte	0
 2577 010f 00       		.byte	0
 2578 0110 11       		.uleb128 0x11
 2579 0111 35       		.uleb128 0x35
 2580 0112 00       		.byte	0
 2581 0113 49       		.uleb128 0x49
 2582 0114 13       		.uleb128 0x13
 2583 0115 00       		.byte	0
 2584 0116 00       		.byte	0
 2585 0117 12       		.uleb128 0x12
 2586 0118 2E       		.uleb128 0x2e
 2587 0119 00       		.byte	0
 2588 011a 3F       		.uleb128 0x3f
 2589 011b 19       		.uleb128 0x19
 2590 011c 03       		.uleb128 0x3
 2591 011d 0E       		.uleb128 0xe
 2592 011e 3A       		.uleb128 0x3a
 2593 011f 0B       		.uleb128 0xb
 2594 0120 3B       		.uleb128 0x3b
 2595 0121 05       		.uleb128 0x5
 2596 0122 39       		.uleb128 0x39
 2597 0123 21       		.uleb128 0x21
 2598 0124 08       		.sleb128 8
 2599 0125 27       		.uleb128 0x27
 2600 0126 19       		.uleb128 0x19
 2601 0127 3C       		.uleb128 0x3c
 2602 0128 19       		.uleb128 0x19
 2603 0129 00       		.byte	0
 2604 012a 00       		.byte	0
 2605 012b 13       		.uleb128 0x13
 2606 012c 2E       		.uleb128 0x2e
 2607 012d 01       		.byte	0x1
 2608 012e 3F       		.uleb128 0x3f
 2609 012f 19       		.uleb128 0x19
 2610 0130 03       		.uleb128 0x3
 2611 0131 0E       		.uleb128 0xe
 2612 0132 3A       		.uleb128 0x3a
 2613 0133 21       		.uleb128 0x21
 2614 0134 01       		.sleb128 1
 2615 0135 3B       		.uleb128 0x3b
 2616 0136 0B       		.uleb128 0xb
 2617 0137 39       		.uleb128 0x39
 2618 0138 21       		.uleb128 0x21
 2619 0139 06       		.sleb128 6
 2620 013a 27       		.uleb128 0x27
 2621 013b 19       		.uleb128 0x19
 2622 013c 11       		.uleb128 0x11
ARM GAS  C:\Users\DEVELO~1\AppData\Local\Temp\cc553B5P.s 			page 47


 2623 013d 01       		.uleb128 0x1
 2624 013e 12       		.uleb128 0x12
 2625 013f 06       		.uleb128 0x6
 2626 0140 40       		.uleb128 0x40
 2627 0141 18       		.uleb128 0x18
 2628 0142 7A       		.uleb128 0x7a
 2629 0143 19       		.uleb128 0x19
 2630 0144 01       		.uleb128 0x1
 2631 0145 13       		.uleb128 0x13
 2632 0146 00       		.byte	0
 2633 0147 00       		.byte	0
 2634 0148 14       		.uleb128 0x14
 2635 0149 2E       		.uleb128 0x2e
 2636 014a 00       		.byte	0
 2637 014b 03       		.uleb128 0x3
 2638 014c 0E       		.uleb128 0xe
 2639 014d 3A       		.uleb128 0x3a
 2640 014e 21       		.uleb128 0x21
 2641 014f 01       		.sleb128 1
 2642 0150 3B       		.uleb128 0x3b
 2643 0151 0B       		.uleb128 0xb
 2644 0152 39       		.uleb128 0x39
 2645 0153 21       		.uleb128 0x21
 2646 0154 14       		.sleb128 20
 2647 0155 27       		.uleb128 0x27
 2648 0156 19       		.uleb128 0x19
 2649 0157 20       		.uleb128 0x20
 2650 0158 21       		.uleb128 0x21
 2651 0159 03       		.sleb128 3
 2652 015a 00       		.byte	0
 2653 015b 00       		.byte	0
 2654 015c 15       		.uleb128 0x15
 2655 015d 2E       		.uleb128 0x2e
 2656 015e 01       		.byte	0x1
 2657 015f 03       		.uleb128 0x3
 2658 0160 0E       		.uleb128 0xe
 2659 0161 3A       		.uleb128 0x3a
 2660 0162 21       		.uleb128 0x21
 2661 0163 02       		.sleb128 2
 2662 0164 3B       		.uleb128 0x3b
 2663 0165 05       		.uleb128 0x5
 2664 0166 39       		.uleb128 0x39
 2665 0167 21       		.uleb128 0x21
 2666 0168 16       		.sleb128 22
 2667 0169 27       		.uleb128 0x27
 2668 016a 19       		.uleb128 0x19
 2669 016b 20       		.uleb128 0x20
 2670 016c 21       		.uleb128 0x21
 2671 016d 03       		.sleb128 3
 2672 016e 01       		.uleb128 0x1
 2673 016f 13       		.uleb128 0x13
 2674 0170 00       		.byte	0
 2675 0171 00       		.byte	0
 2676 0172 16       		.uleb128 0x16
 2677 0173 05       		.uleb128 0x5
 2678 0174 00       		.byte	0
 2679 0175 03       		.uleb128 0x3
ARM GAS  C:\Users\DEVELO~1\AppData\Local\Temp\cc553B5P.s 			page 48


 2680 0176 0E       		.uleb128 0xe
 2681 0177 3A       		.uleb128 0x3a
 2682 0178 21       		.uleb128 0x21
 2683 0179 02       		.sleb128 2
 2684 017a 3B       		.uleb128 0x3b
 2685 017b 05       		.uleb128 0x5
 2686 017c 39       		.uleb128 0x39
 2687 017d 21       		.uleb128 0x21
 2688 017e 2D       		.sleb128 45
 2689 017f 49       		.uleb128 0x49
 2690 0180 13       		.uleb128 0x13
 2691 0181 00       		.byte	0
 2692 0182 00       		.byte	0
 2693 0183 17       		.uleb128 0x17
 2694 0184 05       		.uleb128 0x5
 2695 0185 00       		.byte	0
 2696 0186 03       		.uleb128 0x3
 2697 0187 08       		.uleb128 0x8
 2698 0188 3A       		.uleb128 0x3a
 2699 0189 21       		.uleb128 0x21
 2700 018a 02       		.sleb128 2
 2701 018b 3B       		.uleb128 0x3b
 2702 018c 05       		.uleb128 0x5
 2703 018d 39       		.uleb128 0x39
 2704 018e 21       		.uleb128 0x21
 2705 018f 38       		.sleb128 56
 2706 0190 49       		.uleb128 0x49
 2707 0191 13       		.uleb128 0x13
 2708 0192 00       		.byte	0
 2709 0193 00       		.byte	0
 2710 0194 18       		.uleb128 0x18
 2711 0195 11       		.uleb128 0x11
 2712 0196 01       		.byte	0x1
 2713 0197 25       		.uleb128 0x25
 2714 0198 0E       		.uleb128 0xe
 2715 0199 13       		.uleb128 0x13
 2716 019a 0B       		.uleb128 0xb
 2717 019b 03       		.uleb128 0x3
 2718 019c 0E       		.uleb128 0xe
 2719 019d 1B       		.uleb128 0x1b
 2720 019e 0E       		.uleb128 0xe
 2721 019f 55       		.uleb128 0x55
 2722 01a0 17       		.uleb128 0x17
 2723 01a1 11       		.uleb128 0x11
 2724 01a2 01       		.uleb128 0x1
 2725 01a3 10       		.uleb128 0x10
 2726 01a4 17       		.uleb128 0x17
 2727 01a5 00       		.byte	0
 2728 01a6 00       		.byte	0
 2729 01a7 19       		.uleb128 0x19
 2730 01a8 24       		.uleb128 0x24
 2731 01a9 00       		.byte	0
 2732 01aa 0B       		.uleb128 0xb
 2733 01ab 0B       		.uleb128 0xb
 2734 01ac 3E       		.uleb128 0x3e
 2735 01ad 0B       		.uleb128 0xb
 2736 01ae 03       		.uleb128 0x3
ARM GAS  C:\Users\DEVELO~1\AppData\Local\Temp\cc553B5P.s 			page 49


 2737 01af 08       		.uleb128 0x8
 2738 01b0 00       		.byte	0
 2739 01b1 00       		.byte	0
 2740 01b2 1A       		.uleb128 0x1a
 2741 01b3 34       		.uleb128 0x34
 2742 01b4 00       		.byte	0
 2743 01b5 03       		.uleb128 0x3
 2744 01b6 0E       		.uleb128 0xe
 2745 01b7 3A       		.uleb128 0x3a
 2746 01b8 0B       		.uleb128 0xb
 2747 01b9 3B       		.uleb128 0x3b
 2748 01ba 0B       		.uleb128 0xb
 2749 01bb 39       		.uleb128 0x39
 2750 01bc 0B       		.uleb128 0xb
 2751 01bd 49       		.uleb128 0x49
 2752 01be 13       		.uleb128 0x13
 2753 01bf 3F       		.uleb128 0x3f
 2754 01c0 19       		.uleb128 0x19
 2755 01c1 3C       		.uleb128 0x3c
 2756 01c2 19       		.uleb128 0x19
 2757 01c3 00       		.byte	0
 2758 01c4 00       		.byte	0
 2759 01c5 1B       		.uleb128 0x1b
 2760 01c6 13       		.uleb128 0x13
 2761 01c7 01       		.byte	0x1
 2762 01c8 0B       		.uleb128 0xb
 2763 01c9 0B       		.uleb128 0xb
 2764 01ca 3A       		.uleb128 0x3a
 2765 01cb 0B       		.uleb128 0xb
 2766 01cc 3B       		.uleb128 0x3b
 2767 01cd 05       		.uleb128 0x5
 2768 01ce 39       		.uleb128 0x39
 2769 01cf 0B       		.uleb128 0xb
 2770 01d0 01       		.uleb128 0x1
 2771 01d1 13       		.uleb128 0x13
 2772 01d2 00       		.byte	0
 2773 01d3 00       		.byte	0
 2774 01d4 1C       		.uleb128 0x1c
 2775 01d5 34       		.uleb128 0x34
 2776 01d6 00       		.byte	0
 2777 01d7 47       		.uleb128 0x47
 2778 01d8 13       		.uleb128 0x13
 2779 01d9 3A       		.uleb128 0x3a
 2780 01da 0B       		.uleb128 0xb
 2781 01db 3B       		.uleb128 0x3b
 2782 01dc 0B       		.uleb128 0xb
 2783 01dd 39       		.uleb128 0x39
 2784 01de 0B       		.uleb128 0xb
 2785 01df 02       		.uleb128 0x2
 2786 01e0 18       		.uleb128 0x18
 2787 01e1 00       		.byte	0
 2788 01e2 00       		.byte	0
 2789 01e3 1D       		.uleb128 0x1d
 2790 01e4 34       		.uleb128 0x34
 2791 01e5 00       		.byte	0
 2792 01e6 03       		.uleb128 0x3
 2793 01e7 0E       		.uleb128 0xe
ARM GAS  C:\Users\DEVELO~1\AppData\Local\Temp\cc553B5P.s 			page 50


 2794 01e8 3A       		.uleb128 0x3a
 2795 01e9 0B       		.uleb128 0xb
 2796 01ea 3B       		.uleb128 0x3b
 2797 01eb 0B       		.uleb128 0xb
 2798 01ec 39       		.uleb128 0x39
 2799 01ed 0B       		.uleb128 0xb
 2800 01ee 49       		.uleb128 0x49
 2801 01ef 13       		.uleb128 0x13
 2802 01f0 02       		.uleb128 0x2
 2803 01f1 17       		.uleb128 0x17
 2804 01f2 B742     		.uleb128 0x2137
 2805 01f4 17       		.uleb128 0x17
 2806 01f5 00       		.byte	0
 2807 01f6 00       		.byte	0
 2808 01f7 1E       		.uleb128 0x1e
 2809 01f8 0B       		.uleb128 0xb
 2810 01f9 01       		.byte	0x1
 2811 01fa 11       		.uleb128 0x11
 2812 01fb 01       		.uleb128 0x1
 2813 01fc 12       		.uleb128 0x12
 2814 01fd 06       		.uleb128 0x6
 2815 01fe 01       		.uleb128 0x1
 2816 01ff 13       		.uleb128 0x13
 2817 0200 00       		.byte	0
 2818 0201 00       		.byte	0
 2819 0202 1F       		.uleb128 0x1f
 2820 0203 1D       		.uleb128 0x1d
 2821 0204 00       		.byte	0
 2822 0205 31       		.uleb128 0x31
 2823 0206 13       		.uleb128 0x13
 2824 0207 52       		.uleb128 0x52
 2825 0208 01       		.uleb128 0x1
 2826 0209 B842     		.uleb128 0x2138
 2827 020b 0B       		.uleb128 0xb
 2828 020c 55       		.uleb128 0x55
 2829 020d 17       		.uleb128 0x17
 2830 020e 58       		.uleb128 0x58
 2831 020f 0B       		.uleb128 0xb
 2832 0210 59       		.uleb128 0x59
 2833 0211 0B       		.uleb128 0xb
 2834 0212 57       		.uleb128 0x57
 2835 0213 0B       		.uleb128 0xb
 2836 0214 00       		.byte	0
 2837 0215 00       		.byte	0
 2838 0216 20       		.uleb128 0x20
 2839 0217 1D       		.uleb128 0x1d
 2840 0218 00       		.byte	0
 2841 0219 31       		.uleb128 0x31
 2842 021a 13       		.uleb128 0x13
 2843 021b 52       		.uleb128 0x52
 2844 021c 01       		.uleb128 0x1
 2845 021d B842     		.uleb128 0x2138
 2846 021f 0B       		.uleb128 0xb
 2847 0220 11       		.uleb128 0x11
 2848 0221 01       		.uleb128 0x1
 2849 0222 12       		.uleb128 0x12
 2850 0223 06       		.uleb128 0x6
ARM GAS  C:\Users\DEVELO~1\AppData\Local\Temp\cc553B5P.s 			page 51


 2851 0224 58       		.uleb128 0x58
 2852 0225 0B       		.uleb128 0xb
 2853 0226 59       		.uleb128 0x59
 2854 0227 0B       		.uleb128 0xb
 2855 0228 57       		.uleb128 0x57
 2856 0229 0B       		.uleb128 0xb
 2857 022a 00       		.byte	0
 2858 022b 00       		.byte	0
 2859 022c 21       		.uleb128 0x21
 2860 022d 1D       		.uleb128 0x1d
 2861 022e 01       		.byte	0x1
 2862 022f 31       		.uleb128 0x31
 2863 0230 13       		.uleb128 0x13
 2864 0231 52       		.uleb128 0x52
 2865 0232 01       		.uleb128 0x1
 2866 0233 B842     		.uleb128 0x2138
 2867 0235 0B       		.uleb128 0xb
 2868 0236 55       		.uleb128 0x55
 2869 0237 17       		.uleb128 0x17
 2870 0238 58       		.uleb128 0x58
 2871 0239 0B       		.uleb128 0xb
 2872 023a 59       		.uleb128 0x59
 2873 023b 05       		.uleb128 0x5
 2874 023c 57       		.uleb128 0x57
 2875 023d 0B       		.uleb128 0xb
 2876 023e 01       		.uleb128 0x1
 2877 023f 13       		.uleb128 0x13
 2878 0240 00       		.byte	0
 2879 0241 00       		.byte	0
 2880 0242 22       		.uleb128 0x22
 2881 0243 1D       		.uleb128 0x1d
 2882 0244 01       		.byte	0x1
 2883 0245 31       		.uleb128 0x31
 2884 0246 13       		.uleb128 0x13
 2885 0247 52       		.uleb128 0x52
 2886 0248 01       		.uleb128 0x1
 2887 0249 B842     		.uleb128 0x2138
 2888 024b 0B       		.uleb128 0xb
 2889 024c 11       		.uleb128 0x11
 2890 024d 01       		.uleb128 0x1
 2891 024e 12       		.uleb128 0x12
 2892 024f 06       		.uleb128 0x6
 2893 0250 58       		.uleb128 0x58
 2894 0251 0B       		.uleb128 0xb
 2895 0252 59       		.uleb128 0x59
 2896 0253 05       		.uleb128 0x5
 2897 0254 57       		.uleb128 0x57
 2898 0255 0B       		.uleb128 0xb
 2899 0256 01       		.uleb128 0x1
 2900 0257 13       		.uleb128 0x13
 2901 0258 00       		.byte	0
 2902 0259 00       		.byte	0
 2903 025a 23       		.uleb128 0x23
 2904 025b 1D       		.uleb128 0x1d
 2905 025c 01       		.byte	0x1
 2906 025d 31       		.uleb128 0x31
 2907 025e 13       		.uleb128 0x13
ARM GAS  C:\Users\DEVELO~1\AppData\Local\Temp\cc553B5P.s 			page 52


 2908 025f 52       		.uleb128 0x52
 2909 0260 01       		.uleb128 0x1
 2910 0261 B842     		.uleb128 0x2138
 2911 0263 0B       		.uleb128 0xb
 2912 0264 11       		.uleb128 0x11
 2913 0265 01       		.uleb128 0x1
 2914 0266 12       		.uleb128 0x12
 2915 0267 06       		.uleb128 0x6
 2916 0268 58       		.uleb128 0x58
 2917 0269 0B       		.uleb128 0xb
 2918 026a 59       		.uleb128 0x59
 2919 026b 05       		.uleb128 0x5
 2920 026c 57       		.uleb128 0x57
 2921 026d 0B       		.uleb128 0xb
 2922 026e 00       		.byte	0
 2923 026f 00       		.byte	0
 2924 0270 24       		.uleb128 0x24
 2925 0271 48       		.uleb128 0x48
 2926 0272 00       		.byte	0
 2927 0273 7D       		.uleb128 0x7d
 2928 0274 01       		.uleb128 0x1
 2929 0275 7F       		.uleb128 0x7f
 2930 0276 13       		.uleb128 0x13
 2931 0277 00       		.byte	0
 2932 0278 00       		.byte	0
 2933 0279 25       		.uleb128 0x25
 2934 027a 48       		.uleb128 0x48
 2935 027b 00       		.byte	0
 2936 027c 7D       		.uleb128 0x7d
 2937 027d 01       		.uleb128 0x1
 2938 027e 8201     		.uleb128 0x82
 2939 0280 19       		.uleb128 0x19
 2940 0281 7F       		.uleb128 0x7f
 2941 0282 13       		.uleb128 0x13
 2942 0283 00       		.byte	0
 2943 0284 00       		.byte	0
 2944 0285 26       		.uleb128 0x26
 2945 0286 2E       		.uleb128 0x2e
 2946 0287 01       		.byte	0x1
 2947 0288 03       		.uleb128 0x3
 2948 0289 0E       		.uleb128 0xe
 2949 028a 3A       		.uleb128 0x3a
 2950 028b 0B       		.uleb128 0xb
 2951 028c 3B       		.uleb128 0x3b
 2952 028d 0B       		.uleb128 0xb
 2953 028e 39       		.uleb128 0x39
 2954 028f 0B       		.uleb128 0xb
 2955 0290 27       		.uleb128 0x27
 2956 0291 19       		.uleb128 0x19
 2957 0292 20       		.uleb128 0x20
 2958 0293 0B       		.uleb128 0xb
 2959 0294 00       		.byte	0
 2960 0295 00       		.byte	0
 2961 0296 00       		.byte	0
 2962              		.section	.debug_loclists,"",%progbits
 2963 0000 E9010000 		.4byte	.Ldebug_loc3-.Ldebug_loc2
 2964              	.Ldebug_loc2:
ARM GAS  C:\Users\DEVELO~1\AppData\Local\Temp\cc553B5P.s 			page 53


 2965 0004 0500     		.2byte	0x5
 2966 0006 04       		.byte	0x4
 2967 0007 00       		.byte	0
 2968 0008 00000000 		.4byte	0
 2969              	.Ldebug_loc0:
 2970              	.LVUS13:
 2971 000c 01       		.uleb128 .LVU186
 2972 000d 03       		.uleb128 .LVU188
 2973 000e 03       		.uleb128 .LVU188
 2974 000f 00       		.uleb128 0
 2975              	.LLST13:
 2976 0010 06       		.byte	0x6
 2977 0011 B0000000 		.4byte	.LVL14
 2978 0015 04       		.byte	0x4
 2979 0016 00       		.uleb128 .LVL14-.LVL14
 2980 0017 00       		.uleb128 .LVL14-.LVL14
 2981 0018 06       		.uleb128 0x6
 2982 0019 0C       		.byte	0xc
 2983 001a 00081008 		.4byte	0x8100800
 2984 001e 9F       		.byte	0x9f
 2985 001f 04       		.byte	0x4
 2986 0020 00       		.uleb128 .LVL14-.LVL14
 2987 0021 C402     		.uleb128 .LFE451-.LVL14
 2988 0023 06       		.uleb128 0x6
 2989 0024 0C       		.byte	0xc
 2990 0025 00881008 		.4byte	0x8108800
 2991 0029 9F       		.byte	0x9f
 2992 002a 00       		.byte	0
 2993              	.LVUS18:
 2994 002b 01       		.uleb128 .LVU223
 2995 002c 01       		.uleb128 .LVU238
 2996 002d 01       		.uleb128 .LVU238
 2997 002e 01       		.uleb128 .LVU248
 2998 002f 01       		.uleb128 .LVU248
 2999 0030 01       		.uleb128 .LVU257
 3000 0031 01       		.uleb128 .LVU257
 3001 0032 00       		.uleb128 0
 3002              	.LLST18:
 3003 0033 06       		.byte	0x6
 3004 0034 F2000000 		.4byte	.LVL15
 3005 0038 04       		.byte	0x4
 3006 0039 00       		.uleb128 .LVL15-.LVL15
 3007 003a 10       		.uleb128 .LVL17-.LVL15
 3008 003b 02       		.uleb128 0x2
 3009 003c 30       		.byte	0x30
 3010 003d 9F       		.byte	0x9f
 3011 003e 04       		.byte	0x4
 3012 003f 10       		.uleb128 .LVL17-.LVL15
 3013 0040 16       		.uleb128 .LVL18-.LVL15
 3014 0041 04       		.uleb128 0x4
 3015 0042 40       		.byte	0x40
 3016 0043 44       		.byte	0x44
 3017 0044 24       		.byte	0x24
 3018 0045 9F       		.byte	0x9f
 3019 0046 04       		.byte	0x4
 3020 0047 16       		.uleb128 .LVL18-.LVL15
 3021 0048 1A       		.uleb128 .LVL19-.LVL15
ARM GAS  C:\Users\DEVELO~1\AppData\Local\Temp\cc553B5P.s 			page 54


 3022 0049 04       		.uleb128 0x4
 3023 004a 44       		.byte	0x44
 3024 004b 46       		.byte	0x46
 3025 004c 24       		.byte	0x24
 3026 004d 9F       		.byte	0x9f
 3027 004e 04       		.byte	0x4
 3028 004f 1A       		.uleb128 .LVL19-.LVL15
 3029 0050 8202     		.uleb128 .LFE451-.LVL15
 3030 0052 04       		.uleb128 0x4
 3031 0053 45       		.byte	0x45
 3032 0054 48       		.byte	0x48
 3033 0055 24       		.byte	0x24
 3034 0056 9F       		.byte	0x9f
 3035 0057 00       		.byte	0
 3036              	.LVUS19:
 3037 0058 02       		.uleb128 .LVU224
 3038 0059 02       		.uleb128 .LVU239
 3039 005a 02       		.uleb128 .LVU239
 3040 005b 02       		.uleb128 .LVU249
 3041 005c 02       		.uleb128 .LVU249
 3042 005d 02       		.uleb128 .LVU258
 3043 005e 02       		.uleb128 .LVU258
 3044 005f 00       		.uleb128 0
 3045              	.LLST19:
 3046 0060 06       		.byte	0x6
 3047 0061 F2000000 		.4byte	.LVL15
 3048 0065 04       		.byte	0x4
 3049 0066 00       		.uleb128 .LVL15-.LVL15
 3050 0067 10       		.uleb128 .LVL17-.LVL15
 3051 0068 02       		.uleb128 0x2
 3052 0069 30       		.byte	0x30
 3053 006a 9F       		.byte	0x9f
 3054 006b 04       		.byte	0x4
 3055 006c 10       		.uleb128 .LVL17-.LVL15
 3056 006d 16       		.uleb128 .LVL18-.LVL15
 3057 006e 04       		.uleb128 0x4
 3058 006f 40       		.byte	0x40
 3059 0070 45       		.byte	0x45
 3060 0071 24       		.byte	0x24
 3061 0072 9F       		.byte	0x9f
 3062 0073 04       		.byte	0x4
 3063 0074 16       		.uleb128 .LVL18-.LVL15
 3064 0075 1A       		.uleb128 .LVL19-.LVL15
 3065 0076 04       		.uleb128 0x4
 3066 0077 44       		.byte	0x44
 3067 0078 47       		.byte	0x47
 3068 0079 24       		.byte	0x24
 3069 007a 9F       		.byte	0x9f
 3070 007b 04       		.byte	0x4
 3071 007c 1A       		.uleb128 .LVL19-.LVL15
 3072 007d 8202     		.uleb128 .LFE451-.LVL15
 3073 007f 04       		.uleb128 0x4
 3074 0080 45       		.byte	0x45
 3075 0081 49       		.byte	0x49
 3076 0082 24       		.byte	0x24
 3077 0083 9F       		.byte	0x9f
 3078 0084 00       		.byte	0
ARM GAS  C:\Users\DEVELO~1\AppData\Local\Temp\cc553B5P.s 			page 55


 3079              	.LVUS20:
 3080 0085 03       		.uleb128 .LVU225
 3081 0086 01       		.uleb128 .LVU231
 3082 0087 01       		.uleb128 .LVU231
 3083 0088 03       		.uleb128 .LVU240
 3084 0089 03       		.uleb128 .LVU240
 3085 008a 04       		.uleb128 .LVU241
 3086 008b 04       		.uleb128 .LVU241
 3087 008c 05       		.uleb128 .LVU242
 3088 008d 05       		.uleb128 .LVU242
 3089 008e 03       		.uleb128 .LVU250
 3090 008f 03       		.uleb128 .LVU250
 3091 0090 04       		.uleb128 .LVU251
 3092 0091 04       		.uleb128 .LVU251
 3093 0092 05       		.uleb128 .LVU252
 3094 0093 05       		.uleb128 .LVU252
 3095 0094 03       		.uleb128 .LVU259
 3096 0095 03       		.uleb128 .LVU259
 3097 0096 04       		.uleb128 .LVU260
 3098 0097 04       		.uleb128 .LVU260
 3099 0098 05       		.uleb128 .LVU261
 3100 0099 05       		.uleb128 .LVU261
 3101 009a 00       		.uleb128 0
 3102              	.LLST20:
 3103 009b 06       		.byte	0x6
 3104 009c F2000000 		.4byte	.LVL15
 3105 00a0 04       		.byte	0x4
 3106 00a1 00       		.uleb128 .LVL15-.LVL15
 3107 00a2 08       		.uleb128 .LVL16-.LVL15
 3108 00a3 02       		.uleb128 0x2
 3109 00a4 30       		.byte	0x30
 3110 00a5 9F       		.byte	0x9f
 3111 00a6 04       		.byte	0x4
 3112 00a7 08       		.uleb128 .LVL16-.LVL15
 3113 00a8 10       		.uleb128 .LVL17-.LVL15
 3114 00a9 04       		.uleb128 0x4
 3115 00aa 0A       		.byte	0xa
 3116 00ab 5505     		.2byte	0x555
 3117 00ad 9F       		.byte	0x9f
 3118 00ae 04       		.byte	0x4
 3119 00af 10       		.uleb128 .LVL17-.LVL15
 3120 00b0 10       		.uleb128 .LVL17-.LVL15
 3121 00b1 06       		.uleb128 0x6
 3122 00b2 0C       		.byte	0xc
 3123 00b3 55050100 		.4byte	0x10555
 3124 00b7 9F       		.byte	0x9f
 3125 00b8 04       		.byte	0x4
 3126 00b9 10       		.uleb128 .LVL17-.LVL15
 3127 00ba 10       		.uleb128 .LVL17-.LVL15
 3128 00bb 06       		.uleb128 0x6
 3129 00bc 0C       		.byte	0xc
 3130 00bd 55050300 		.4byte	0x30555
 3131 00c1 9F       		.byte	0x9f
 3132 00c2 04       		.byte	0x4
 3133 00c3 10       		.uleb128 .LVL17-.LVL15
 3134 00c4 16       		.uleb128 .LVL18-.LVL15
 3135 00c5 06       		.uleb128 0x6
ARM GAS  C:\Users\DEVELO~1\AppData\Local\Temp\cc553B5P.s 			page 56


 3136 00c6 0C       		.byte	0xc
 3137 00c7 55050700 		.4byte	0x70555
 3138 00cb 9F       		.byte	0x9f
 3139 00cc 04       		.byte	0x4
 3140 00cd 16       		.uleb128 .LVL18-.LVL15
 3141 00ce 16       		.uleb128 .LVL18-.LVL15
 3142 00cf 06       		.uleb128 0x6
 3143 00d0 0C       		.byte	0xc
 3144 00d1 55050F00 		.4byte	0xf0555
 3145 00d5 9F       		.byte	0x9f
 3146 00d6 04       		.byte	0x4
 3147 00d7 16       		.uleb128 .LVL18-.LVL15
 3148 00d8 16       		.uleb128 .LVL18-.LVL15
 3149 00d9 06       		.uleb128 0x6
 3150 00da 0C       		.byte	0xc
 3151 00db 55051F00 		.4byte	0x1f0555
 3152 00df 9F       		.byte	0x9f
 3153 00e0 04       		.byte	0x4
 3154 00e1 16       		.uleb128 .LVL18-.LVL15
 3155 00e2 1A       		.uleb128 .LVL19-.LVL15
 3156 00e3 06       		.uleb128 0x6
 3157 00e4 0C       		.byte	0xc
 3158 00e5 55053F00 		.4byte	0x3f0555
 3159 00e9 9F       		.byte	0x9f
 3160 00ea 04       		.byte	0x4
 3161 00eb 1A       		.uleb128 .LVL19-.LVL15
 3162 00ec 1A       		.uleb128 .LVL19-.LVL15
 3163 00ed 06       		.uleb128 0x6
 3164 00ee 0C       		.byte	0xc
 3165 00ef 55057F00 		.4byte	0x7f0555
 3166 00f3 9F       		.byte	0x9f
 3167 00f4 04       		.byte	0x4
 3168 00f5 1A       		.uleb128 .LVL19-.LVL15
 3169 00f6 1A       		.uleb128 .LVL19-.LVL15
 3170 00f7 06       		.uleb128 0x6
 3171 00f8 0C       		.byte	0xc
 3172 00f9 5505FF00 		.4byte	0xff0555
 3173 00fd 9F       		.byte	0x9f
 3174 00fe 04       		.byte	0x4
 3175 00ff 1A       		.uleb128 .LVL19-.LVL15
 3176 0100 8202     		.uleb128 .LFE451-.LVL15
 3177 0102 06       		.uleb128 0x6
 3178 0103 0C       		.byte	0xc
 3179 0104 5505FF01 		.4byte	0x1ff0555
 3180 0108 9F       		.byte	0x9f
 3181 0109 00       		.byte	0
 3182              	.LVUS15:
 3183 010a 03       		.uleb128 .LVU89
 3184 010b 00       		.uleb128 .LVU100
 3185              	.LLST15:
 3186 010c 08       		.byte	0x8
 3187 010d 00000000 		.4byte	.LVL12
 3188 0111 20       		.uleb128 .LVL13-.LVL12
 3189 0112 02       		.uleb128 0x2
 3190 0113 31       		.byte	0x31
 3191 0114 9F       		.byte	0x9f
 3192 0115 00       		.byte	0
ARM GAS  C:\Users\DEVELO~1\AppData\Local\Temp\cc553B5P.s 			page 57


 3193              	.LVUS16:
 3194 0116 03       		.uleb128 .LVU89
 3195 0117 00       		.uleb128 .LVU100
 3196              	.LLST16:
 3197 0118 08       		.byte	0x8
 3198 0119 00000000 		.4byte	.LVL12
 3199 011d 20       		.uleb128 .LVL13-.LVL12
 3200 011e 02       		.uleb128 0x2
 3201 011f 32       		.byte	0x32
 3202 0120 9F       		.byte	0x9f
 3203 0121 00       		.byte	0
 3204              	.LVUS22:
 3205 0122 01       		.uleb128 .LVU310
 3206 0123 00       		.uleb128 .LVU319
 3207              	.LLST22:
 3208 0124 08       		.byte	0x8
 3209 0125 68010000 		.4byte	.LVL20
 3210 0129 1E       		.uleb128 .LVL21-.LVL20
 3211 012a 02       		.uleb128 0x2
 3212 012b 31       		.byte	0x31
 3213 012c 9F       		.byte	0x9f
 3214 012d 00       		.byte	0
 3215              	.LVUS23:
 3216 012e 01       		.uleb128 .LVU310
 3217 012f 00       		.uleb128 .LVU319
 3218              	.LLST23:
 3219 0130 08       		.byte	0x8
 3220 0131 68010000 		.4byte	.LVL20
 3221 0135 1E       		.uleb128 .LVL21-.LVL20
 3222 0136 04       		.uleb128 0x4
 3223 0137 40       		.byte	0x40
 3224 0138 49       		.byte	0x49
 3225 0139 24       		.byte	0x24
 3226 013a 9F       		.byte	0x9f
 3227 013b 00       		.byte	0
 3228              	.LVUS24:
 3229 013c 02       		.uleb128 .LVU321
 3230 013d 00       		.uleb128 .LVU328
 3231              	.LLST24:
 3232 013e 08       		.byte	0x8
 3233 013f 86010000 		.4byte	.LVL21
 3234 0143 1C       		.uleb128 .LVL22-.LVL21
 3235 0144 02       		.uleb128 0x2
 3236 0145 31       		.byte	0x31
 3237 0146 9F       		.byte	0x9f
 3238 0147 00       		.byte	0
 3239              	.LVUS25:
 3240 0148 02       		.uleb128 .LVU321
 3241 0149 00       		.uleb128 .LVU328
 3242              	.LLST25:
 3243 014a 08       		.byte	0x8
 3244 014b 86010000 		.4byte	.LVL21
 3245 014f 1C       		.uleb128 .LVL22-.LVL21
 3246 0150 04       		.uleb128 0x4
 3247 0151 40       		.byte	0x40
 3248 0152 4A       		.byte	0x4a
 3249 0153 24       		.byte	0x24
ARM GAS  C:\Users\DEVELO~1\AppData\Local\Temp\cc553B5P.s 			page 58


 3250 0154 9F       		.byte	0x9f
 3251 0155 00       		.byte	0
 3252              	.LVUS26:
 3253 0156 02       		.uleb128 .LVU330
 3254 0157 00       		.uleb128 .LVU337
 3255              	.LLST26:
 3256 0158 08       		.byte	0x8
 3257 0159 A2010000 		.4byte	.LVL22
 3258 015d 1C       		.uleb128 .LVL23-.LVL22
 3259 015e 02       		.uleb128 0x2
 3260 015f 31       		.byte	0x31
 3261 0160 9F       		.byte	0x9f
 3262 0161 00       		.byte	0
 3263              	.LVUS27:
 3264 0162 02       		.uleb128 .LVU330
 3265 0163 00       		.uleb128 .LVU337
 3266              	.LLST27:
 3267 0164 08       		.byte	0x8
 3268 0165 A2010000 		.4byte	.LVL22
 3269 0169 1C       		.uleb128 .LVL23-.LVL22
 3270 016a 05       		.uleb128 0x5
 3271 016b 40       		.byte	0x40
 3272 016c 4B       		.byte	0x4b
 3273 016d 24       		.byte	0x24
 3274 016e 1F       		.byte	0x1f
 3275 016f 9F       		.byte	0x9f
 3276 0170 00       		.byte	0
 3277              	.LVUS1:
 3278 0171 02       		.uleb128 .LVU2
 3279 0172 00       		.uleb128 .LVU15
 3280              	.LLST1:
 3281 0173 08       		.byte	0x8
 3282 0174 00000000 		.4byte	.LVL0
 3283 0178 2A       		.uleb128 .LVL1-.LVL0
 3284 0179 06       		.uleb128 0x6
 3285 017a 0C       		.byte	0xc
 3286 017b FFFFFF7F 		.4byte	0x7fffffff
 3287 017f 9F       		.byte	0x9f
 3288 0180 00       		.byte	0
 3289              	.LVUS3:
 3290 0181 02       		.uleb128 .LVU17
 3291 0182 00       		.uleb128 .LVU23
 3292              	.LLST3:
 3293 0183 08       		.byte	0x8
 3294 0184 2A000000 		.4byte	.LVL1
 3295 0188 14       		.uleb128 .LVL2-.LVL1
 3296 0189 03       		.uleb128 0x3
 3297 018a 09       		.byte	0x9
 3298 018b FF       		.byte	0xff
 3299 018c 9F       		.byte	0x9f
 3300 018d 00       		.byte	0
 3301              	.LVUS5:
 3302 018e 02       		.uleb128 .LVU25
 3303 018f 00       		.uleb128 .LVU33
 3304              	.LLST5:
 3305 0190 08       		.byte	0x8
 3306 0191 3E000000 		.4byte	.LVL2
ARM GAS  C:\Users\DEVELO~1\AppData\Local\Temp\cc553B5P.s 			page 59


 3307 0195 10       		.uleb128 .LVL3-.LVL2
 3308 0196 06       		.uleb128 0x6
 3309 0197 0C       		.byte	0xc
 3310 0198 FFEFFF7F 		.4byte	0x7fffefff
 3311 019c 9F       		.byte	0x9f
 3312 019d 00       		.byte	0
 3313              	.LVUS7:
 3314 019e 02       		.uleb128 .LVU35
 3315 019f 00       		.uleb128 .LVU41
 3316              	.LLST7:
 3317 01a0 08       		.byte	0x8
 3318 01a1 4E000000 		.4byte	.LVL3
 3319 01a5 1A       		.uleb128 .LVL4-.LVL3
 3320 01a6 04       		.uleb128 0x4
 3321 01a7 0B       		.byte	0xb
 3322 01a8 00F8     		.2byte	0xf800
 3323 01aa 9F       		.byte	0x9f
 3324 01ab 00       		.byte	0
 3325              	.LVUS8:
 3326 01ac 02       		.uleb128 .LVU43
 3327 01ad 00       		.uleb128 .LVU49
 3328              	.LLST8:
 3329 01ae 08       		.byte	0x8
 3330 01af 68000000 		.4byte	.LVL4
 3331 01b3 14       		.uleb128 .LVL5-.LVL4
 3332 01b4 03       		.uleb128 0x3
 3333 01b5 09       		.byte	0x9
 3334 01b6 FF       		.byte	0xff
 3335 01b7 9F       		.byte	0x9f
 3336 01b8 00       		.byte	0
 3337              	.LVUS9:
 3338 01b9 02       		.uleb128 .LVU51
 3339 01ba 00       		.uleb128 .LVU57
 3340              	.LLST9:
 3341 01bb 08       		.byte	0x8
 3342 01bc 7C000000 		.4byte	.LVL5
 3343 01c0 14       		.uleb128 .LVL6-.LVL5
 3344 01c1 03       		.uleb128 0x3
 3345 01c2 09       		.byte	0x9
 3346 01c3 FF       		.byte	0xff
 3347 01c4 9F       		.byte	0x9f
 3348 01c5 00       		.byte	0
 3349              	.LVUS10:
 3350 01c6 02       		.uleb128 .LVU59
 3351 01c7 00       		.uleb128 .LVU65
 3352              	.LLST10:
 3353 01c8 08       		.byte	0x8
 3354 01c9 90000000 		.4byte	.LVL6
 3355 01cd 14       		.uleb128 .LVL7-.LVL6
 3356 01ce 03       		.uleb128 0x3
 3357 01cf 09       		.byte	0x9
 3358 01d0 FF       		.byte	0xff
 3359 01d1 9F       		.byte	0x9f
 3360 01d2 00       		.byte	0
 3361              	.LVUS11:
 3362 01d3 02       		.uleb128 .LVU67
 3363 01d4 00       		.uleb128 .LVU73
ARM GAS  C:\Users\DEVELO~1\AppData\Local\Temp\cc553B5P.s 			page 60


 3364              	.LLST11:
 3365 01d5 08       		.byte	0x8
 3366 01d6 A4000000 		.4byte	.LVL7
 3367 01da 14       		.uleb128 .LVL8-.LVL7
 3368 01db 03       		.uleb128 0x3
 3369 01dc 09       		.byte	0x9
 3370 01dd FF       		.byte	0xff
 3371 01de 9F       		.byte	0x9f
 3372 01df 00       		.byte	0
 3373              	.LVUS12:
 3374 01e0 02       		.uleb128 .LVU75
 3375 01e1 00       		.uleb128 .LVU81
 3376              	.LLST12:
 3377 01e2 08       		.byte	0x8
 3378 01e3 B8000000 		.4byte	.LVL8
 3379 01e7 14       		.uleb128 .LVL9-.LVL8
 3380 01e8 03       		.uleb128 0x3
 3381 01e9 09       		.byte	0x9
 3382 01ea FF       		.byte	0xff
 3383 01eb 9F       		.byte	0x9f
 3384 01ec 00       		.byte	0
 3385              	.Ldebug_loc3:
 3386              		.section	.debug_aranges,"",%progbits
 3387 0000 24000000 		.4byte	0x24
 3388 0004 0200     		.2byte	0x2
 3389 0006 00000000 		.4byte	.Ldebug_info0
 3390 000a 04       		.byte	0x4
 3391 000b 00       		.byte	0
 3392 000c 0000     		.2byte	0
 3393 000e 0000     		.2byte	0
 3394 0010 00000000 		.4byte	.LFB450
 3395 0014 E8000000 		.4byte	.LFE450-.LFB450
 3396 0018 00000000 		.4byte	.LFB451
 3397 001c F4010000 		.4byte	.LFE451-.LFB451
 3398 0020 00000000 		.4byte	0
 3399 0024 00000000 		.4byte	0
 3400              		.section	.debug_rnglists,"",%progbits
 3401              	.Ldebug_ranges0:
 3402 0000 7A000000 		.4byte	.Ldebug_ranges3-.Ldebug_ranges2
 3403              	.Ldebug_ranges2:
 3404 0004 0500     		.2byte	0x5
 3405 0006 04       		.byte	0x4
 3406 0007 00       		.byte	0
 3407 0008 00000000 		.4byte	0
 3408              	.LLRL0:
 3409 000c 05       		.byte	0x5
 3410 000d 00000000 		.4byte	.LBB29
 3411 0011 04       		.byte	0x4
 3412 0012 00       		.uleb128 .LBB29-.LBB29
 3413 0013 00       		.uleb128 .LBE29-.LBB29
 3414 0014 04       		.byte	0x4
 3415 0015 02       		.uleb128 .LBB34-.LBB29
 3416 0016 04       		.uleb128 .LBE34-.LBB29
 3417 0017 04       		.byte	0x4
 3418 0018 0C       		.uleb128 .LBB43-.LBB29
 3419 0019 10       		.uleb128 .LBE43-.LBB29
 3420 001a 04       		.byte	0x4
ARM GAS  C:\Users\DEVELO~1\AppData\Local\Temp\cc553B5P.s 			page 61


 3421 001b 12       		.uleb128 .LBB45-.LBB29
 3422 001c 2A       		.uleb128 .LBE45-.LBB29
 3423 001d 00       		.byte	0
 3424              	.LLRL2:
 3425 001e 05       		.byte	0x5
 3426 001f 04000000 		.4byte	.LBB35
 3427 0023 04       		.byte	0x4
 3428 0024 00       		.uleb128 .LBB35-.LBB35
 3429 0025 06       		.uleb128 .LBE35-.LBB35
 3430 0026 04       		.byte	0x4
 3431 0027 26       		.uleb128 .LBB46-.LBB35
 3432 0028 3A       		.uleb128 .LBE46-.LBB35
 3433 0029 00       		.byte	0
 3434              	.LLRL4:
 3435 002a 05       		.byte	0x5
 3436 002b 0A000000 		.4byte	.LBB38
 3437 002f 04       		.byte	0x4
 3438 0030 00       		.uleb128 .LBB38-.LBB38
 3439 0031 02       		.uleb128 .LBE38-.LBB38
 3440 0032 04       		.byte	0x4
 3441 0033 06       		.uleb128 .LBB44-.LBB38
 3442 0034 08       		.uleb128 .LBE44-.LBB38
 3443 0035 04       		.byte	0x4
 3444 0036 34       		.uleb128 .LBB47-.LBB38
 3445 0037 3C       		.uleb128 .LBE47-.LBB38
 3446 0038 04       		.byte	0x4
 3447 0039 3E       		.uleb128 .LBB51-.LBB38
 3448 003a 44       		.uleb128 .LBE51-.LBB38
 3449 003b 00       		.byte	0
 3450              	.LLRL6:
 3451 003c 05       		.byte	0x5
 3452 003d 46000000 		.4byte	.LBB48
 3453 0041 04       		.byte	0x4
 3454 0042 00       		.uleb128 .LBB48-.LBB48
 3455 0043 02       		.uleb128 .LBE48-.LBB48
 3456 0044 04       		.byte	0x4
 3457 0045 08       		.uleb128 .LBB52-.LBB48
 3458 0046 22       		.uleb128 .LBE52-.LBB48
 3459 0047 00       		.byte	0
 3460              	.LLRL14:
 3461 0048 05       		.byte	0x5
 3462 0049 00000000 		.4byte	.LBB76
 3463 004d 04       		.byte	0x4
 3464 004e 00       		.uleb128 .LBB76-.LBB76
 3465 004f 02       		.uleb128 .LBE76-.LBB76
 3466 0050 04       		.byte	0x4
 3467 0051 06       		.uleb128 .LBB83-.LBB76
 3468 0052 0C       		.uleb128 .LBE83-.LBB76
 3469 0053 04       		.byte	0x4
 3470 0054 0E       		.uleb128 .LBB84-.LBB76
 3471 0055 20       		.uleb128 .LBE84-.LBB76
 3472 0056 00       		.byte	0
 3473              	.LLRL17:
 3474 0057 05       		.byte	0x5
 3475 0058 02000000 		.4byte	.LBB80
 3476 005c 04       		.byte	0x4
 3477 005d 00       		.uleb128 .LBB80-.LBB80
ARM GAS  C:\Users\DEVELO~1\AppData\Local\Temp\cc553B5P.s 			page 62


 3478 005e 04       		.uleb128 .LBE80-.LBB80
 3479 005f 04       		.byte	0x4
 3480 0060 1E       		.uleb128 .LBB85-.LBB80
 3481 0061 48       		.uleb128 .LBE85-.LBB80
 3482 0062 00       		.byte	0
 3483              	.LLRL21:
 3484 0063 05       		.byte	0x5
 3485 0064 68010000 		.4byte	.LBB89
 3486 0068 04       		.byte	0x4
 3487 0069 00       		.uleb128 .LBB89-.LBB89
 3488 006a 04       		.uleb128 .LBE89-.LBB89
 3489 006b 04       		.byte	0x4
 3490 006c 06       		.uleb128 .LBB92-.LBB89
 3491 006d 1E       		.uleb128 .LBE92-.LBB89
 3492 006e 00       		.byte	0
 3493              	.LLRL28:
 3494 006f 07       		.byte	0x7
 3495 0070 00000000 		.4byte	.LFB450
 3496 0074 E801     		.uleb128 .LFE450-.LFB450
 3497 0076 07       		.byte	0x7
 3498 0077 00000000 		.4byte	.LFB451
 3499 007b F403     		.uleb128 .LFE451-.LFB451
 3500 007d 00       		.byte	0
 3501              	.Ldebug_ranges3:
 3502              		.section	.debug_line,"",%progbits
 3503              	.Ldebug_line0:
 3504 0000 61070000 		.section	.debug_str,"MS",%progbits,1
 3504      0300B201 
 3504      00000201 
 3504      FB0E0D00 
 3504      01010101 
 3505              	.LASF142:
 3506 0000 68616C5F 		.ascii	"hal_lld_init\000"
 3506      6C6C645F 
 3506      696E6974 
 3506      00
 3507              	.LASF84:
 3508 000d 504C4C31 		.ascii	"PLL1DIVR\000"
 3508      44495652 
 3508      00
 3509              	.LASF73:
 3510 0016 574B5550 		.ascii	"WKUPFR\000"
 3510      465200
 3511              	.LASF3:
 3512 001d 7369676E 		.ascii	"signed char\000"
 3512      65642063 
 3512      68617200 
 3513              	.LASF128:
 3514 0029 41504231 		.ascii	"APB1HLPENR\000"
 3514      484C5045 
 3514      4E5200
 3515              	.LASF7:
 3516 0034 6C6F6E67 		.ascii	"long int\000"
 3516      20696E74 
 3516      00
 3517              	.LASF16:
 3518 003d 4F505443 		.ascii	"OPTCR\000"
ARM GAS  C:\Users\DEVELO~1\AppData\Local\Temp\cc553B5P.s 			page 63


 3518      5200
 3519              	.LASF21:
 3520 0043 50524152 		.ascii	"PRAR_PRG1\000"
 3520      5F505247 
 3520      3100
 3521              	.LASF40:
 3522 004d 50524152 		.ascii	"PRAR_PRG2\000"
 3522      5F505247 
 3522      3200
 3523              	.LASF154:
 3524 0057 5F5F7263 		.ascii	"__rccResetAPB2\000"
 3524      63526573 
 3524      65744150 
 3524      423200
 3525              	.LASF110:
 3526 0066 4433414D 		.ascii	"D3AMR\000"
 3526      5200
 3527              	.LASF152:
 3528 006c 5F5F7263 		.ascii	"__rccResetAPB4\000"
 3528      63526573 
 3528      65744150 
 3528      423400
 3529              	.LASF60:
 3530 007b 55523130 		.ascii	"UR10\000"
 3530      00
 3531              	.LASF123:
 3532 0080 41484231 		.ascii	"AHB1LPENR\000"
 3532      4C50454E 
 3532      5200
 3533              	.LASF94:
 3534 008a 43494552 		.ascii	"CIER\000"
 3534      00
 3535              	.LASF103:
 3536 008f 41484234 		.ascii	"AHB4RSTR\000"
 3536      52535452 
 3536      00
 3537              	.LASF55:
 3538 0098 43434353 		.ascii	"CCCSR\000"
 3538      5200
 3539              	.LASF26:
 3540 009e 424F4F54 		.ascii	"BOOT_CUR\000"
 3540      5F435552 
 3540      00
 3541              	.LASF72:
 3542 00a7 574B5550 		.ascii	"WKUPCR\000"
 3542      435200
 3543              	.LASF138:
 3544 00ae 6F6E6D61 		.ascii	"onmask\000"
 3544      736B00
 3545              	.LASF51:
 3546 00b5 464C4153 		.ascii	"FLASH_TypeDef\000"
 3546      485F5479 
 3546      70654465 
 3546      6600
 3547              	.LASF9:
 3548 00c3 6C6F6E67 		.ascii	"long long unsigned int\000"
 3548      206C6F6E 
ARM GAS  C:\Users\DEVELO~1\AppData\Local\Temp\cc553B5P.s 			page 64


 3548      6720756E 
 3548      7369676E 
 3548      65642069 
 3549              	.LASF126:
 3550 00da 41504233 		.ascii	"APB3LPENR\000"
 3550      4C50454E 
 3550      5200
 3551              	.LASF19:
 3552 00e4 4F505443 		.ascii	"OPTCCR\000"
 3552      435200
 3553              	.LASF111:
 3554 00eb 52455345 		.ascii	"RESERVED11\000"
 3554      52564544 
 3554      313100
 3555              	.LASF121:
 3556 00f6 52455345 		.ascii	"RESERVED12\000"
 3556      52564544 
 3556      313200
 3557              	.LASF131:
 3558 0101 52455345 		.ascii	"RESERVED13\000"
 3558      52564544 
 3558      313300
 3559              	.LASF157:
 3560 010c 2E2F4368 		.ascii	"./ChibiOS/os/hal/ports/STM32/STM32H7xx/hal_lld.c\000"
 3560      6962694F 
 3560      532F6F73 
 3560      2F68616C 
 3560      2F706F72 
 3561              	.LASF49:
 3562 013d 43524344 		.ascii	"CRCDATA2\000"
 3562      41544132 
 3562      00
 3563              	.LASF85:
 3564 0146 504C4C31 		.ascii	"PLL1FRACR\000"
 3564      46524143 
 3564      5200
 3565              	.LASF107:
 3566 0150 41504232 		.ascii	"APB2RSTR\000"
 3566      52535452 
 3566      00
 3567              	.LASF144:
 3568 0159 696E6974 		.ascii	"init_bkp_domain\000"
 3568      5F626B70 
 3568      5F646F6D 
 3568      61696E00 
 3569              	.LASF32:
 3570 0169 43524344 		.ascii	"CRCDATA\000"
 3570      41544100 
 3571              	.LASF1:
 3572 0171 6C6F6E67 		.ascii	"long long int\000"
 3572      206C6F6E 
 3572      6720696E 
 3572      7400
 3573              	.LASF14:
 3574 017f 4F50544B 		.ascii	"OPTKEYR\000"
 3574      45595200 
 3575              	.LASF22:
ARM GAS  C:\Users\DEVELO~1\AppData\Local\Temp\cc553B5P.s 			page 65


 3576 0187 53434152 		.ascii	"SCAR_CUR1\000"
 3576      5F435552 
 3576      3100
 3577              	.LASF140:
 3578 0191 6366676D 		.ascii	"cfgmask\000"
 3578      61736B00 
 3579              	.LASF41:
 3580 0199 53434152 		.ascii	"SCAR_CUR2\000"
 3580      5F435552 
 3580      3200
 3581              	.LASF81:
 3582 01a3 44334346 		.ascii	"D3CFGR\000"
 3582      475200
 3583              	.LASF158:
 3584 01aa 433A5C43 		.ascii	"C:\\ChibiStudio\\chibios2111\\demos\\STM32\\RT-STM3"
 3584      68696269 
 3584      53747564 
 3584      696F5C63 
 3584      68696269 
 3585 01d8 32483734 		.ascii	"2H743ZI_REV_XY-NUCLEO144 - Copie\000"
 3585      335A495F 
 3585      5245565F 
 3585      58592D4E 
 3585      55434C45 
 3586              	.LASF77:
 3587 01f9 43525243 		.ascii	"CRRCR\000"
 3587      5200
 3588              	.LASF95:
 3589 01ff 43494652 		.ascii	"CIFR\000"
 3589      00
 3590              	.LASF56:
 3591 0204 43435652 		.ascii	"CCVR\000"
 3591      00
 3592              	.LASF88:
 3593 0209 504C4C33 		.ascii	"PLL3DIVR\000"
 3593      44495652 
 3593      00
 3594              	.LASF10:
 3595 0212 5F5F7569 		.ascii	"__uint32_t\000"
 3595      6E743332 
 3595      5F7400
 3596              	.LASF145:
 3597 021d 6D61736B 		.ascii	"mask\000"
 3597      00
 3598              	.LASF91:
 3599 0222 44324343 		.ascii	"D2CCIP1R\000"
 3599      49503152 
 3599      00
 3600              	.LASF93:
 3601 022b 44334343 		.ascii	"D3CCIPR\000"
 3601      49505200 
 3602              	.LASF58:
 3603 0233 50575243 		.ascii	"PWRCR\000"
 3603      5200
 3604              	.LASF141:
 3605 0239 73746D33 		.ascii	"stm32_clock_init\000"
 3605      325F636C 
ARM GAS  C:\Users\DEVELO~1\AppData\Local\Temp\cc553B5P.s 			page 66


 3605      6F636B5F 
 3605      696E6974 
 3605      00
 3606              	.LASF87:
 3607 024a 504C4C32 		.ascii	"PLL2FRACR\000"
 3607      46524143 
 3607      5200
 3608              	.LASF0:
 3609 0254 756E7369 		.ascii	"unsigned int\000"
 3609      676E6564 
 3609      20696E74 
 3609      00
 3610              	.LASF74:
 3611 0261 574B5550 		.ascii	"WKUPEPR\000"
 3611      45505200 
 3612              	.LASF136:
 3613 0269 53797374 		.ascii	"SystemCoreClock\000"
 3613      656D436F 
 3613      7265436C 
 3613      6F636B00 
 3614              	.LASF8:
 3615 0279 6C6F6E67 		.ascii	"long unsigned int\000"
 3615      20756E73 
 3615      69676E65 
 3615      6420696E 
 3615      7400
 3616              	.LASF70:
 3617 028b 43505543 		.ascii	"CPUCR\000"
 3617      5200
 3618              	.LASF132:
 3619 0291 5243435F 		.ascii	"RCC_TypeDef\000"
 3619      54797065 
 3619      44656600 
 3620              	.LASF156:
 3621 029d 474E5520 		.ascii	"GNU C17 11.3.1 20220712 -mcpu=cortex-m7 -mthumb -mf"
 3621      43313720 
 3621      31312E33 
 3621      2E312032 
 3621      30323230 
 3622 02d0 6C6F6174 		.ascii	"loat-abi=soft -march=armv7e-m -ggdb -O2 -fomit-fram"
 3622      2D616269 
 3622      3D736F66 
 3622      74202D6D 
 3622      61726368 
 3623 0303 652D706F 		.ascii	"e-pointer -falign-functions=16 -ffunction-sections "
 3623      696E7465 
 3623      72202D66 
 3623      616C6967 
 3623      6E2D6675 
 3624 0336 2D666461 		.ascii	"-fdata-sections -fno-common\000"
 3624      74612D73 
 3624      65637469 
 3624      6F6E7320 
 3624      2D666E6F 
 3625              	.LASF27:
 3626 0352 424F4F54 		.ascii	"BOOT_PRG\000"
 3626      5F505247 
ARM GAS  C:\Users\DEVELO~1\AppData\Local\Temp\cc553B5P.s 			page 67


 3626      00
 3627              	.LASF6:
 3628 035b 73686F72 		.ascii	"short unsigned int\000"
 3628      7420756E 
 3628      7369676E 
 3628      65642069 
 3628      6E7400
 3629              	.LASF82:
 3630 036e 504C4C43 		.ascii	"PLLCKSELR\000"
 3630      4B53454C 
 3630      5200
 3631              	.LASF76:
 3632 0378 48534943 		.ascii	"HSICFGR\000"
 3632      46475200 
 3633              	.LASF100:
 3634 0380 41484233 		.ascii	"AHB3RSTR\000"
 3634      52535452 
 3634      00
 3635              	.LASF118:
 3636 0389 41504231 		.ascii	"APB1HENR\000"
 3636      48454E52 
 3636      00
 3637              	.LASF92:
 3638 0392 44324343 		.ascii	"D2CCIP2R\000"
 3638      49503252 
 3638      00
 3639              	.LASF20:
 3640 039b 50524152 		.ascii	"PRAR_CUR1\000"
 3640      5F435552 
 3640      3100
 3641              	.LASF39:
 3642 03a5 50524152 		.ascii	"PRAR_CUR2\000"
 3642      5F435552 
 3642      3200
 3643              	.LASF105:
 3644 03af 41504231 		.ascii	"APB1LRSTR\000"
 3644      4C525354 
 3644      5200
 3645              	.LASF129:
 3646 03b9 41504232 		.ascii	"APB2LPENR\000"
 3646      4C50454E 
 3646      5200
 3647              	.LASF89:
 3648 03c3 504C4C33 		.ascii	"PLL3FRACR\000"
 3648      46524143 
 3648      5200
 3649              	.LASF108:
 3650 03cd 41504234 		.ascii	"APB4RSTR\000"
 3650      52535452 
 3650      00
 3651              	.LASF75:
 3652 03d6 5057525F 		.ascii	"PWR_TypeDef\000"
 3652      54797065 
 3652      44656600 
 3653              	.LASF23:
 3654 03e2 53434152 		.ascii	"SCAR_PRG1\000"
 3654      5F505247 
ARM GAS  C:\Users\DEVELO~1\AppData\Local\Temp\cc553B5P.s 			page 68


 3654      3100
 3655              	.LASF42:
 3656 03ec 53434152 		.ascii	"SCAR_PRG2\000"
 3656      5F505247 
 3656      3200
 3657              	.LASF61:
 3658 03f6 55523131 		.ascii	"UR11\000"
 3658      00
 3659              	.LASF120:
 3660 03fb 41504234 		.ascii	"APB4ENR\000"
 3660      454E5200 
 3661              	.LASF147:
 3662 0403 72636345 		.ascii	"rccEnableAPB4\000"
 3662      6E61626C 
 3662      65415042 
 3662      3400
 3663              	.LASF25:
 3664 0411 5750534E 		.ascii	"WPSN_PRG1\000"
 3664      5F505247 
 3664      3100
 3665              	.LASF44:
 3666 041b 5750534E 		.ascii	"WPSN_PRG2\000"
 3666      5F505247 
 3666      3200
 3667              	.LASF31:
 3668 0425 43524345 		.ascii	"CRCEADD1\000"
 3668      41444431 
 3668      00
 3669              	.LASF149:
 3670 042e 5F5F7263 		.ascii	"__rccResetAHB3\000"
 3670      63526573 
 3670      65744148 
 3670      423300
 3671              	.LASF148:
 3672 043d 5F5F7263 		.ascii	"__rccResetAHB4\000"
 3672      63526573 
 3672      65744148 
 3672      423400
 3673              	.LASF106:
 3674 044c 41504231 		.ascii	"APB1HRSTR\000"
 3674      48525354 
 3674      5200
 3675              	.LASF29:
 3676 0456 43524343 		.ascii	"CRCCR1\000"
 3676      523100
 3677              	.LASF46:
 3678 045d 43524343 		.ascii	"CRCCR2\000"
 3678      523200
 3679              	.LASF17:
 3680 0464 4F505453 		.ascii	"OPTSR_CUR\000"
 3680      525F4355 
 3680      5200
 3681              	.LASF151:
 3682 046e 5F5F7263 		.ascii	"__rccResetAHB1\000"
 3682      63526573 
 3682      65744148 
 3682      423100
ARM GAS  C:\Users\DEVELO~1\AppData\Local\Temp\cc553B5P.s 			page 69


 3683              	.LASF150:
 3684 047d 5F5F7263 		.ascii	"__rccResetAHB2\000"
 3684      63526573 
 3684      65744148 
 3684      423200
 3685              	.LASF124:
 3686 048c 41484232 		.ascii	"AHB2LPENR\000"
 3686      4C50454E 
 3686      5200
 3687              	.LASF139:
 3688 0496 7264796D 		.ascii	"rdymask\000"
 3688      61736B00 
 3689              	.LASF116:
 3690 049e 41504233 		.ascii	"APB3ENR\000"
 3690      454E5200 
 3691              	.LASF134:
 3692 04a6 69727149 		.ascii	"irqInit\000"
 3692      6E697400 
 3693              	.LASF115:
 3694 04ae 41484234 		.ascii	"AHB4ENR\000"
 3694      454E5200 
 3695              	.LASF59:
 3696 04b6 504B4752 		.ascii	"PKGR\000"
 3696      00
 3697              	.LASF28:
 3698 04bb 52455345 		.ascii	"RESERVED0\000"
 3698      52564544 
 3698      3000
 3699              	.LASF34:
 3700 04c5 52455345 		.ascii	"RESERVED1\000"
 3700      52564544 
 3700      3100
 3701              	.LASF36:
 3702 04cf 52455345 		.ascii	"RESERVED2\000"
 3702      52564544 
 3702      3200
 3703              	.LASF38:
 3704 04d9 52455345 		.ascii	"RESERVED3\000"
 3704      52564544 
 3704      3300
 3705              	.LASF80:
 3706 04e3 44324346 		.ascii	"D2CFGR\000"
 3706      475200
 3707              	.LASF97:
 3708 04ea 52455345 		.ascii	"RESERVED5\000"
 3708      52564544 
 3708      3500
 3709              	.LASF99:
 3710 04f4 52455345 		.ascii	"RESERVED6\000"
 3710      52564544 
 3710      3600
 3711              	.LASF109:
 3712 04fe 52455345 		.ascii	"RESERVED8\000"
 3712      52564544 
 3712      3800
 3713              	.LASF133:
 3714 0508 5F426F6F 		.ascii	"_Bool\000"
ARM GAS  C:\Users\DEVELO~1\AppData\Local\Temp\cc553B5P.s 			page 70


 3714      6C00
 3715              	.LASF68:
 3716 050e 53595343 		.ascii	"SYSCFG_TypeDef\000"
 3716      46475F54 
 3716      79706544 
 3716      656600
 3717              	.LASF4:
 3718 051d 756E7369 		.ascii	"unsigned char\000"
 3718      676E6564 
 3718      20636861 
 3718      7200
 3719              	.LASF5:
 3720 052b 73686F72 		.ascii	"short int\000"
 3720      7420696E 
 3720      7400
 3721              	.LASF122:
 3722 0535 41484233 		.ascii	"AHB3LPENR\000"
 3722      4C50454E 
 3722      5200
 3723              	.LASF130:
 3724 053f 41504234 		.ascii	"APB4LPENR\000"
 3724      4C50454E 
 3724      5200
 3725              	.LASF33:
 3726 0549 4543435F 		.ascii	"ECC_FA1\000"
 3726      46413100 
 3727              	.LASF50:
 3728 0551 4543435F 		.ascii	"ECC_FA2\000"
 3728      46413200 
 3729              	.LASF119:
 3730 0559 41504232 		.ascii	"APB2ENR\000"
 3730      454E5200 
 3731              	.LASF86:
 3732 0561 504C4C32 		.ascii	"PLL2DIVR\000"
 3732      44495652 
 3732      00
 3733              	.LASF112:
 3734 056a 41484233 		.ascii	"AHB3ENR\000"
 3734      454E5200 
 3735              	.LASF52:
 3736 0572 504D4352 		.ascii	"PMCR\000"
 3736      00
 3737              	.LASF153:
 3738 0577 5F5F7263 		.ascii	"__rccResetAPB3\000"
 3738      63526573 
 3738      65744150 
 3738      423300
 3739              	.LASF45:
 3740 0586 52455345 		.ascii	"RESERVED4\000"
 3740      52564544 
 3740      3400
 3741              	.LASF11:
 3742 0590 75696E74 		.ascii	"uint32_t\000"
 3742      33325F74 
 3742      00
 3743              	.LASF71:
 3744 0599 44334352 		.ascii	"D3CR\000"
ARM GAS  C:\Users\DEVELO~1\AppData\Local\Temp\cc553B5P.s 			page 71


 3744      00
 3745              	.LASF143:
 3746 059e 696E6974 		.ascii	"init_pwr\000"
 3746      5F707772 
 3746      00
 3747              	.LASF90:
 3748 05a7 44314343 		.ascii	"D1CCIPR\000"
 3748      49505200 
 3749              	.LASF135:
 3750 05af 646D6149 		.ascii	"dmaInit\000"
 3750      6E697400 
 3751              	.LASF2:
 3752 05b7 6C6F6E67 		.ascii	"long double\000"
 3752      20646F75 
 3752      626C6500 
 3753              	.LASF12:
 3754 05c3 63686172 		.ascii	"char\000"
 3754      00
 3755              	.LASF18:
 3756 05c8 4F505453 		.ascii	"OPTSR_PRG\000"
 3756      525F5052 
 3756      4700
 3757              	.LASF102:
 3758 05d2 41484232 		.ascii	"AHB2RSTR\000"
 3758      52535452 
 3758      00
 3759              	.LASF35:
 3760 05db 4B455952 		.ascii	"KEYR2\000"
 3760      3200
 3761              	.LASF125:
 3762 05e1 41484234 		.ascii	"AHB4LPENR\000"
 3762      4C50454E 
 3762      5200
 3763              	.LASF13:
 3764 05eb 4B455952 		.ascii	"KEYR1\000"
 3764      3100
 3765              	.LASF98:
 3766 05f1 42444352 		.ascii	"BDCR\000"
 3766      00
 3767              	.LASF114:
 3768 05f6 41484232 		.ascii	"AHB2ENR\000"
 3768      454E5200 
 3769              	.LASF104:
 3770 05fe 41504233 		.ascii	"APB3RSTR\000"
 3770      52535452 
 3770      00
 3771              	.LASF78:
 3772 0607 43534943 		.ascii	"CSICFGR\000"
 3772      46475200 
 3773              	.LASF62:
 3774 060f 55523132 		.ascii	"UR12\000"
 3774      00
 3775              	.LASF63:
 3776 0614 55523133 		.ascii	"UR13\000"
 3776      00
 3777              	.LASF64:
 3778 0619 55523134 		.ascii	"UR14\000"
ARM GAS  C:\Users\DEVELO~1\AppData\Local\Temp\cc553B5P.s 			page 72


 3778      00
 3779              	.LASF65:
 3780 061e 55523135 		.ascii	"UR15\000"
 3780      00
 3781              	.LASF66:
 3782 0623 55523136 		.ascii	"UR16\000"
 3782      00
 3783              	.LASF67:
 3784 0628 55523137 		.ascii	"UR17\000"
 3784      00
 3785              	.LASF101:
 3786 062d 41484231 		.ascii	"AHB1RSTR\000"
 3786      52535452 
 3786      00
 3787              	.LASF24:
 3788 0636 5750534E 		.ascii	"WPSN_CUR1\000"
 3788      5F435552 
 3788      3100
 3789              	.LASF43:
 3790 0640 5750534E 		.ascii	"WPSN_CUR2\000"
 3790      5F435552 
 3790      3200
 3791              	.LASF127:
 3792 064a 41504231 		.ascii	"APB1LLPENR\000"
 3792      4C4C5045 
 3792      4E5200
 3793              	.LASF15:
 3794 0655 43435231 		.ascii	"CCR1\000"
 3794      00
 3795              	.LASF37:
 3796 065a 43435232 		.ascii	"CCR2\000"
 3796      00
 3797              	.LASF96:
 3798 065f 43494352 		.ascii	"CICR\000"
 3798      00
 3799              	.LASF83:
 3800 0664 504C4C43 		.ascii	"PLLCFGR\000"
 3800      46475200 
 3801              	.LASF155:
 3802 066c 5F5F7263 		.ascii	"__rccResetAPB1H\000"
 3802      63526573 
 3802      65744150 
 3802      42314800 
 3803              	.LASF159:
 3804 067c 5F5F7263 		.ascii	"__rccResetAPB1L\000"
 3804      63526573 
 3804      65744150 
 3804      42314C00 
 3805              	.LASF30:
 3806 068c 43524353 		.ascii	"CRCSADD1\000"
 3806      41444431 
 3806      00
 3807              	.LASF47:
 3808 0695 43524353 		.ascii	"CRCSADD2\000"
 3808      41444432 
 3808      00
 3809              	.LASF137:
ARM GAS  C:\Users\DEVELO~1\AppData\Local\Temp\cc553B5P.s 			page 73


 3810 069e 63666772 		.ascii	"cfgr\000"
 3810      00
 3811              	.LASF113:
 3812 06a3 41484231 		.ascii	"AHB1ENR\000"
 3812      454E5200 
 3813              	.LASF54:
 3814 06ab 43464752 		.ascii	"CFGR\000"
 3814      00
 3815              	.LASF48:
 3816 06b0 43524345 		.ascii	"CRCEADD2\000"
 3816      41444432 
 3816      00
 3817              	.LASF57:
 3818 06b9 43434352 		.ascii	"CCCR\000"
 3818      00
 3819              	.LASF117:
 3820 06be 41504231 		.ascii	"APB1LENR\000"
 3820      4C454E52 
 3820      00
 3821              	.LASF69:
 3822 06c7 43535231 		.ascii	"CSR1\000"
 3822      00
 3823              	.LASF146:
 3824 06cc 72636345 		.ascii	"rccEnableAHB2\000"
 3824      6E61626C 
 3824      65414842 
 3824      3200
 3825              	.LASF79:
 3826 06da 44314346 		.ascii	"D1CFGR\000"
 3826      475200
 3827              	.LASF53:
 3828 06e1 45585449 		.ascii	"EXTICR\000"
 3828      435200
 3829              		.ident	"GCC: (Arm GNU Toolchain 11.3.Rel1) 11.3.1 20220712"
ARM GAS  C:\Users\DEVELO~1\AppData\Local\Temp\cc553B5P.s 			page 74


DEFINED SYMBOLS
                            *ABS*:00000000 hal_lld.c
C:\Users\DEVELO~1\AppData\Local\Temp\cc553B5P.s:18     .text.hal_lld_init:00000000 $t
C:\Users\DEVELO~1\AppData\Local\Temp\cc553B5P.s:25     .text.hal_lld_init:00000000 hal_lld_init
C:\Users\DEVELO~1\AppData\Local\Temp\cc553B5P.s:281    .text.hal_lld_init:000000d8 $d
C:\Users\DEVELO~1\AppData\Local\Temp\cc553B5P.s:289    .text.stm32_clock_init:00000000 $t
C:\Users\DEVELO~1\AppData\Local\Temp\cc553B5P.s:296    .text.stm32_clock_init:00000000 stm32_clock_init
C:\Users\DEVELO~1\AppData\Local\Temp\cc553B5P.s:810    .text.stm32_clock_init:000001c0 $d
C:\Users\DEVELO~1\AppData\Local\Temp\cc553B5P.s:831    .data.SystemCoreClock:00000000 SystemCoreClock
C:\Users\DEVELO~1\AppData\Local\Temp\cc553B5P.s:828    .data.SystemCoreClock:00000000 $d

UNDEFINED SYMBOLS
dmaInit
irqInit
