ARM GAS  C:\Users\DEVELO~1\AppData\Local\Temp\ccijDB21.s 			page 1


   1              		.cpu cortex-m7
   2              		.arch armv7e-m
   3              		.fpu softvfp
   4              		.eabi_attribute 20, 1
   5              		.eabi_attribute 21, 1
   6              		.eabi_attribute 23, 3
   7              		.eabi_attribute 24, 1
   8              		.eabi_attribute 25, 1
   9              		.eabi_attribute 26, 1
  10              		.eabi_attribute 30, 2
  11              		.eabi_attribute 34, 1
  12              		.eabi_attribute 18, 4
  13              		.file	"hal_buffered_serial.c"
  14              		.text
  15              	.Ltext0:
  16              		.cfi_sections	.debug_frame
  17              		.section	.text.bsIncomingDataI,"ax",%progbits
  18              		.align	1
  19              		.p2align 4,,15
  20              		.global	bsIncomingDataI
  21              		.syntax unified
  22              		.thumb
  23              		.thumb_func
  24              		.type	bsIncomingDataI, %function
  25              	bsIncomingDataI:
  26              	.LVL0:
  27              	.LFB448:
  28              		.file 1 "./ChibiOS/os/hal/src/hal_buffered_serial.c"
  29              		.loc 1 60 54 view -0
  30              		.cfi_startproc
  31              		@ args = 0, pretend = 0, frame = 0
  32              		@ frame_needed = 0, uses_anonymous_args = 0
  33              		.loc 1 62 23 view .LVU1
  34              		.loc 1 63 3 view .LVU2
  35              		.loc 1 63 3 view .LVU3
  36              		.loc 1 63 3 view .LVU4
  37              		.loc 1 65 3 view .LVU5
  38              		.loc 1 60 54 is_stmt 0 view .LVU6
  39 0000 38B5     		push	{r3, r4, r5, lr}
  40              		.cfi_def_cfa_offset 16
  41              		.cfi_offset 3, -16
  42              		.cfi_offset 4, -12
  43              		.cfi_offset 5, -8
  44              		.cfi_offset 14, -4
  45              		.loc 1 65 7 view .LVU7
  46 0002 4369     		ldr	r3, [r0, #20]
  47              		.loc 1 60 54 view .LVU8
  48 0004 0446     		mov	r4, r0
  49 0006 0D46     		mov	r5, r1
  50              		.loc 1 65 6 view .LVU9
  51 0008 3BB1     		cbz	r3, .L6
  52              		.loc 1 66 43 is_stmt 1 discriminator 1 view .LVU10
  53              		.loc 1 69 3 discriminator 1 view .LVU11
  54              		.loc 1 69 7 is_stmt 0 discriminator 1 view .LVU12
  55 000a 2946     		mov	r1, r5
  56              	.LVL1:
  57              		.loc 1 69 7 discriminator 1 view .LVU13
ARM GAS  C:\Users\DEVELO~1\AppData\Local\Temp\ccijDB21.s 			page 2


  58 000c 04F10C00 		add	r0, r4, #12
  59              	.LVL2:
  60              		.loc 1 69 7 discriminator 1 view .LVU14
  61 0010 FFF7FEFF 		bl	iqPutI
  62              	.LVL3:
  63              		.loc 1 69 6 discriminator 1 view .LVU15
  64 0014 0028     		cmp	r0, #0
  65 0016 0BDB     		blt	.L7
  66              	.L1:
  67              		.loc 1 72 1 view .LVU16
  68 0018 38BD     		pop	{r3, r4, r5, pc}
  69              	.LVL4:
  70              	.L6:
  71              		.loc 1 66 5 is_stmt 1 view .LVU17
  72              	.LBB8:
  73              	.LBI8:
  74              		.file 2 "./ChibiOS/os/hal/osal/rt-nil/osal.h"
  75              		.loc 2 956 20 view .LVU18
  76              	.LBB9:
  77              		.loc 2 959 3 view .LVU19
  78 001a 0421     		movs	r1, #4
  79              	.LVL5:
  80              		.loc 2 959 3 is_stmt 0 view .LVU20
  81 001c 0844     		add	r0, r0, r1
  82              	.LVL6:
  83              		.loc 2 959 3 view .LVU21
  84 001e FFF7FEFF 		bl	chEvtBroadcastFlagsI
  85              	.LVL7:
  86              		.loc 2 959 3 view .LVU22
  87              	.LBE9:
  88              	.LBE8:
  89              		.loc 1 66 43 is_stmt 1 view .LVU23
  90              		.loc 1 69 3 view .LVU24
  91              		.loc 1 69 7 is_stmt 0 view .LVU25
  92 0022 2946     		mov	r1, r5
  93 0024 04F10C00 		add	r0, r4, #12
  94 0028 FFF7FEFF 		bl	iqPutI
  95              	.LVL8:
  96              		.loc 1 69 6 view .LVU26
  97 002c 0028     		cmp	r0, #0
  98 002e F3DA     		bge	.L1
  99              	.L7:
 100              		.loc 1 70 5 is_stmt 1 view .LVU27
 101              	.LVL9:
 102              	.LBB10:
 103              	.LBI10:
 104              		.loc 2 956 20 view .LVU28
 105              	.LBB11:
 106              		.loc 2 959 3 view .LVU29
 107 0030 201D     		adds	r0, r4, #4
 108              	.LVL10:
 109              		.loc 2 959 3 is_stmt 0 view .LVU30
 110 0032 4FF40061 		mov	r1, #2048
 111              	.LBE11:
 112              	.LBE10:
 113              		.loc 1 72 1 view .LVU31
 114 0036 BDE83840 		pop	{r3, r4, r5, lr}
ARM GAS  C:\Users\DEVELO~1\AppData\Local\Temp\ccijDB21.s 			page 3


 115              		.cfi_restore 14
 116              		.cfi_restore 5
 117              		.cfi_restore 4
 118              		.cfi_restore 3
 119              		.cfi_def_cfa_offset 0
 120              	.LVL11:
 121              	.LBB13:
 122              	.LBB12:
 123              		.loc 2 959 3 view .LVU32
 124 003a FFF7FEBF 		b	chEvtBroadcastFlagsI
 125              	.LVL12:
 126              		.loc 2 959 3 view .LVU33
 127              	.LBE12:
 128              	.LBE13:
 129              		.cfi_endproc
 130              	.LFE448:
 131              		.size	bsIncomingDataI, .-bsIncomingDataI
 132 003e 00BF     		.section	.text.bsRequestDataI,"ax",%progbits
 133              		.align	1
 134              		.p2align 4,,15
 135              		.global	bsRequestDataI
 136              		.syntax unified
 137              		.thumb
 138              		.thumb_func
 139              		.type	bsRequestDataI, %function
 140              	bsRequestDataI:
 141              	.LVL13:
 142              	.LFB449:
 143              		.loc 1 88 43 is_stmt 1 view -0
 144              		.cfi_startproc
 145              		@ args = 0, pretend = 0, frame = 0
 146              		@ frame_needed = 0, uses_anonymous_args = 0
 147              		.loc 1 89 3 view .LVU35
 148              		.loc 1 91 23 view .LVU36
 149              		.loc 1 92 3 view .LVU37
 150              		.loc 1 92 3 view .LVU38
 151              		.loc 1 92 3 view .LVU39
 152              		.loc 1 94 3 view .LVU40
 153              		.loc 1 88 43 is_stmt 0 view .LVU41
 154 0000 38B5     		push	{r3, r4, r5, lr}
 155              		.cfi_def_cfa_offset 16
 156              		.cfi_offset 3, -16
 157              		.cfi_offset 4, -12
 158              		.cfi_offset 5, -8
 159              		.cfi_offset 14, -4
 160              		.loc 1 88 43 view .LVU42
 161 0002 0546     		mov	r5, r0
 162              		.loc 1 94 7 view .LVU43
 163 0004 3030     		adds	r0, r0, #48
 164              	.LVL14:
 165              		.loc 1 94 7 view .LVU44
 166 0006 FFF7FEFF 		bl	oqGetI
 167              	.LVL15:
 168              		.loc 1 95 3 is_stmt 1 view .LVU45
 169              		.loc 1 95 6 is_stmt 0 view .LVU46
 170 000a 041E     		subs	r4, r0, #0
 171 000c 01DB     		blt	.L11
ARM GAS  C:\Users\DEVELO~1\AppData\Local\Temp\ccijDB21.s 			page 4


 172              		.loc 1 100 1 view .LVU47
 173 000e 2046     		mov	r0, r4
 174              		.loc 1 100 1 view .LVU48
 175 0010 38BD     		pop	{r3, r4, r5, pc}
 176              	.LVL16:
 177              	.L11:
 178              		.loc 1 96 5 is_stmt 1 view .LVU49
 179              	.LBB14:
 180              	.LBI14:
 181              		.loc 2 956 20 view .LVU50
 182              	.LBB15:
 183              		.loc 2 959 3 view .LVU51
 184 0012 281D     		adds	r0, r5, #4
 185              	.LVL17:
 186              		.loc 2 959 3 is_stmt 0 view .LVU52
 187 0014 0821     		movs	r1, #8
 188 0016 FFF7FEFF 		bl	chEvtBroadcastFlagsI
 189              	.LVL18:
 190              		.loc 2 959 3 view .LVU53
 191              	.LBE15:
 192              	.LBE14:
 193              		.loc 1 96 40 is_stmt 1 view .LVU54
 194              		.loc 1 99 3 view .LVU55
 195              		.loc 1 100 1 is_stmt 0 view .LVU56
 196 001a 2046     		mov	r0, r4
 197 001c 38BD     		pop	{r3, r4, r5, pc}
 198              		.loc 1 100 1 view .LVU57
 199              		.cfi_endproc
 200              	.LFE449:
 201              		.size	bsRequestDataI, .-bsRequestDataI
 202 001e 00BF     		.text
 203              	.Letext0:
 204              		.file 3 "c:\\chibistudio\\tools\\gnu tools arm embedded\\11.3 2022.08\\lib\\gcc\\arm-none-eabi\\11
 205              		.file 4 "c:\\chibistudio\\tools\\gnu tools arm embedded\\11.3 2022.08\\arm-none-eabi\\include\\mac
 206              		.file 5 "c:\\chibistudio\\tools\\gnu tools arm embedded\\11.3 2022.08\\arm-none-eabi\\include\\sys
 207              		.file 6 "./ChibiOS/os/common/ports/ARM-common/include/chtypes.h"
 208              		.file 7 "./ChibiOS/os/rt/include/chearly.h"
 209              		.file 8 "./ChibiOS/os/rt/include/chobjects.h"
 210              		.file 9 "./ChibiOS/os/rt/include/chrfcu.h"
 211              		.file 10 "./ChibiOS/os/rt/include/chdebug.h"
 212              		.file 11 "./ChibiOS/os/rt/include/chtime.h"
 213              		.file 12 "./ChibiOS/os/rt/include/chtrace.h"
 214              		.file 13 "./ChibiOS/os/common/ports/ARMv7-M/chcore.h"
 215              		.file 14 "./ChibiOS/os/rt/include/chlists.h"
 216              		.file 15 "./ChibiOS/os/rt/include/chsem.h"
 217              		.file 16 "./ChibiOS/os/rt/include/chmtx.h"
 218              		.file 17 "./ChibiOS/os/rt/include/chevents.h"
 219              		.file 18 "./ChibiOS/os/hal/include/hal_queues.h"
 220              		.file 19 "./ChibiOS/os/hal/include/hal_buffered_serial.h"
 221              		.section	.debug_info,"",%progbits
 222              	.Ldebug_info0:
 223 0000 100F0000 		.4byte	0xf10
 224 0004 0500     		.2byte	0x5
 225 0006 01       		.byte	0x1
 226 0007 04       		.byte	0x4
 227 0008 00000000 		.4byte	.Ldebug_abbrev0
 228 000c 20       		.uleb128 0x20
ARM GAS  C:\Users\DEVELO~1\AppData\Local\Temp\ccijDB21.s 			page 5


 229 000d 73010000 		.4byte	.LASF171
 230 0011 1D       		.byte	0x1d
 231 0012 A7070000 		.4byte	.LASF172
 232 0016 7A020000 		.4byte	.LASF173
 233 001a 18000000 		.4byte	.LLRL10
 234 001e 00000000 		.4byte	0
 235 0022 00000000 		.4byte	.Ldebug_line0
 236 0026 21       		.uleb128 0x21
 237 0027 04       		.byte	0x4
 238 0028 05       		.byte	0x5
 239 0029 696E7400 		.ascii	"int\000"
 240 002d 02       		.uleb128 0x2
 241 002e 21000000 		.4byte	.LASF4
 242 0032 03       		.byte	0x3
 243 0033 D1       		.byte	0xd1
 244 0034 17       		.byte	0x17
 245 0035 3E000000 		.4byte	0x3e
 246 0039 13       		.uleb128 0x13
 247 003a 2D000000 		.4byte	0x2d
 248 003e 08       		.uleb128 0x8
 249 003f 04       		.byte	0x4
 250 0040 07       		.byte	0x7
 251 0041 2D030000 		.4byte	.LASF0
 252 0045 08       		.uleb128 0x8
 253 0046 08       		.byte	0x8
 254 0047 05       		.byte	0x5
 255 0048 F9000000 		.4byte	.LASF1
 256 004c 08       		.uleb128 0x8
 257 004d 08       		.byte	0x8
 258 004e 04       		.byte	0x4
 259 004f 78060000 		.4byte	.LASF2
 260 0053 08       		.uleb128 0x8
 261 0054 01       		.byte	0x1
 262 0055 06       		.byte	0x6
 263 0056 07010000 		.4byte	.LASF3
 264 005a 02       		.uleb128 0x2
 265 005b 3A000000 		.4byte	.LASF5
 266 005f 04       		.byte	0x4
 267 0060 2B       		.byte	0x2b
 268 0061 18       		.byte	0x18
 269 0062 66000000 		.4byte	0x66
 270 0066 08       		.uleb128 0x8
 271 0067 01       		.byte	0x1
 272 0068 08       		.byte	0x8
 273 0069 B9050000 		.4byte	.LASF6
 274 006d 08       		.uleb128 0x8
 275 006e 02       		.byte	0x2
 276 006f 05       		.byte	0x5
 277 0070 CE050000 		.4byte	.LASF7
 278 0074 02       		.uleb128 0x2
 279 0075 97060000 		.4byte	.LASF8
 280 0079 04       		.byte	0x4
 281 007a 39       		.byte	0x39
 282 007b 19       		.byte	0x19
 283 007c 80000000 		.4byte	0x80
 284 0080 08       		.uleb128 0x8
 285 0081 02       		.byte	0x2
ARM GAS  C:\Users\DEVELO~1\AppData\Local\Temp\ccijDB21.s 			page 6


 286 0082 07       		.byte	0x7
 287 0083 B4030000 		.4byte	.LASF9
 288 0087 02       		.uleb128 0x2
 289 0088 1F040000 		.4byte	.LASF10
 290 008c 04       		.byte	0x4
 291 008d 4D       		.byte	0x4d
 292 008e 18       		.byte	0x18
 293 008f 93000000 		.4byte	0x93
 294 0093 08       		.uleb128 0x8
 295 0094 04       		.byte	0x4
 296 0095 05       		.byte	0x5
 297 0096 63000000 		.4byte	.LASF11
 298 009a 02       		.uleb128 0x2
 299 009b C9020000 		.4byte	.LASF12
 300 009f 04       		.byte	0x4
 301 00a0 4F       		.byte	0x4f
 302 00a1 19       		.byte	0x19
 303 00a2 A6000000 		.4byte	0xa6
 304 00a6 08       		.uleb128 0x8
 305 00a7 04       		.byte	0x4
 306 00a8 07       		.byte	0x7
 307 00a9 13010000 		.4byte	.LASF13
 308 00ad 02       		.uleb128 0x2
 309 00ae 55050000 		.4byte	.LASF14
 310 00b2 04       		.byte	0x4
 311 00b3 69       		.byte	0x69
 312 00b4 19       		.byte	0x19
 313 00b5 B9000000 		.4byte	0xb9
 314 00b9 08       		.uleb128 0x8
 315 00ba 08       		.byte	0x8
 316 00bb 07       		.byte	0x7
 317 00bc 33010000 		.4byte	.LASF15
 318 00c0 02       		.uleb128 0x2
 319 00c1 8C070000 		.4byte	.LASF16
 320 00c5 05       		.byte	0x5
 321 00c6 18       		.byte	0x18
 322 00c7 13       		.byte	0x13
 323 00c8 5A000000 		.4byte	0x5a
 324 00cc 0D       		.uleb128 0xd
 325 00cd C0000000 		.4byte	0xc0
 326 00d1 02       		.uleb128 0x2
 327 00d2 3A020000 		.4byte	.LASF17
 328 00d6 05       		.byte	0x5
 329 00d7 24       		.byte	0x24
 330 00d8 14       		.byte	0x14
 331 00d9 74000000 		.4byte	0x74
 332 00dd 02       		.uleb128 0x2
 333 00de B1050000 		.4byte	.LASF18
 334 00e2 05       		.byte	0x5
 335 00e3 2C       		.byte	0x2c
 336 00e4 13       		.byte	0x13
 337 00e5 87000000 		.4byte	0x87
 338 00e9 02       		.uleb128 0x2
 339 00ea 40060000 		.4byte	.LASF19
 340 00ee 05       		.byte	0x5
 341 00ef 30       		.byte	0x30
 342 00f0 14       		.byte	0x14
ARM GAS  C:\Users\DEVELO~1\AppData\Local\Temp\ccijDB21.s 			page 7


 343 00f1 9A000000 		.4byte	0x9a
 344 00f5 02       		.uleb128 0x2
 345 00f6 DE040000 		.4byte	.LASF20
 346 00fa 05       		.byte	0x5
 347 00fb 3C       		.byte	0x3c
 348 00fc 14       		.byte	0x14
 349 00fd AD000000 		.4byte	0xad
 350 0101 13       		.uleb128 0x13
 351 0102 F5000000 		.4byte	0xf5
 352 0106 02       		.uleb128 0x2
 353 0107 87000000 		.4byte	.LASF21
 354 010b 06       		.byte	0x6
 355 010c 48       		.byte	0x48
 356 010d 1D       		.byte	0x1d
 357 010e F5000000 		.4byte	0xf5
 358 0112 02       		.uleb128 0x2
 359 0113 58010000 		.4byte	.LASF22
 360 0117 07       		.byte	0x7
 361 0118 50       		.byte	0x50
 362 0119 19       		.byte	0x19
 363 011a 06010000 		.4byte	0x106
 364 011e 02       		.uleb128 0x2
 365 011f F4030000 		.4byte	.LASF23
 366 0123 07       		.byte	0x7
 367 0124 53       		.byte	0x53
 368 0125 19       		.byte	0x19
 369 0126 C0000000 		.4byte	0xc0
 370 012a 02       		.uleb128 0x2
 371 012b 62010000 		.4byte	.LASF24
 372 012f 07       		.byte	0x7
 373 0130 54       		.byte	0x54
 374 0131 19       		.byte	0x19
 375 0132 C0000000 		.4byte	0xc0
 376 0136 02       		.uleb128 0x2
 377 0137 74050000 		.4byte	.LASF25
 378 013b 07       		.byte	0x7
 379 013c 55       		.byte	0x55
 380 013d 19       		.byte	0x19
 381 013e C0000000 		.4byte	0xc0
 382 0142 02       		.uleb128 0x2
 383 0143 8B050000 		.4byte	.LASF26
 384 0147 07       		.byte	0x7
 385 0148 57       		.byte	0x57
 386 0149 19       		.byte	0x19
 387 014a E9000000 		.4byte	0xe9
 388 014e 02       		.uleb128 0x2
 389 014f DE030000 		.4byte	.LASF27
 390 0153 07       		.byte	0x7
 391 0154 58       		.byte	0x58
 392 0155 19       		.byte	0x19
 393 0156 DD000000 		.4byte	0xdd
 394 015a 02       		.uleb128 0x2
 395 015b 13040000 		.4byte	.LASF28
 396 015f 07       		.byte	0x7
 397 0160 5A       		.byte	0x5a
 398 0161 19       		.byte	0x19
 399 0162 E9000000 		.4byte	0xe9
ARM GAS  C:\Users\DEVELO~1\AppData\Local\Temp\ccijDB21.s 			page 8


 400 0166 02       		.uleb128 0x2
 401 0167 D1030000 		.4byte	.LASF29
 402 016b 07       		.byte	0x7
 403 016c 5B       		.byte	0x5b
 404 016d 19       		.byte	0x19
 405 016e E9000000 		.4byte	0xe9
 406 0172 02       		.uleb128 0x2
 407 0173 1E030000 		.4byte	.LASF30
 408 0177 07       		.byte	0x7
 409 0178 5C       		.byte	0x5c
 410 0179 19       		.byte	0x19
 411 017a DD000000 		.4byte	0xdd
 412 017e 02       		.uleb128 0x2
 413 017f 6A050000 		.4byte	.LASF31
 414 0183 07       		.byte	0x7
 415 0184 80       		.byte	0x80
 416 0185 12       		.byte	0x12
 417 0186 3E000000 		.4byte	0x3e
 418 018a 02       		.uleb128 0x2
 419 018b A2060000 		.4byte	.LASF32
 420 018f 07       		.byte	0x7
 421 0190 85       		.byte	0x85
 422 0191 1A       		.byte	0x1a
 423 0192 96010000 		.4byte	0x196
 424 0196 06       		.uleb128 0x6
 425 0197 C7030000 		.4byte	.LASF49
 426 019b 50       		.byte	0x50
 427 019c 08       		.byte	0x8
 428 019d A9       		.byte	0xa9
 429 019e 08       		.byte	0x8
 430 019f 8D020000 		.4byte	0x28d
 431 01a3 07       		.uleb128 0x7
 432 01a4 68647200 		.ascii	"hdr\000"
 433 01a8 08       		.byte	0x8
 434 01a9 BA       		.byte	0xba
 435 01aa 05       		.byte	0x5
 436 01ab 9F070000 		.4byte	0x79f
 437 01af 00       		.byte	0
 438 01b0 07       		.uleb128 0x7
 439 01b1 63747800 		.ascii	"ctx\000"
 440 01b5 08       		.byte	0x8
 441 01b6 BE       		.byte	0xbe
 442 01b7 21       		.byte	0x21
 443 01b8 C9050000 		.4byte	0x5c9
 444 01bc 0C       		.byte	0xc
 445 01bd 01       		.uleb128 0x1
 446 01be 69060000 		.4byte	.LASF33
 447 01c2 08       		.byte	0x8
 448 01c3 C2       		.byte	0xc2
 449 01c4 22       		.byte	0x22
 450 01c5 A3080000 		.4byte	0x8a3
 451 01c9 10       		.byte	0x10
 452 01ca 01       		.uleb128 0x1
 453 01cb 84060000 		.4byte	.LASF34
 454 01cf 08       		.byte	0x8
 455 01d0 C8       		.byte	0xc8
 456 01d1 22       		.byte	0x22
ARM GAS  C:\Users\DEVELO~1\AppData\Local\Temp\ccijDB21.s 			page 9


 457 01d2 A8080000 		.4byte	0x8a8
 458 01d6 14       		.byte	0x14
 459 01d7 01       		.uleb128 0x1
 460 01d8 6A070000 		.4byte	.LASF35
 461 01dc 08       		.byte	0x8
 462 01dd CD       		.byte	0xcd
 463 01de 21       		.byte	0x21
 464 01df A8080000 		.4byte	0x8a8
 465 01e3 18       		.byte	0x18
 466 01e4 01       		.uleb128 0x1
 467 01e5 52010000 		.4byte	.LASF36
 468 01e9 08       		.byte	0x8
 469 01ea D1       		.byte	0xd1
 470 01eb 21       		.byte	0x21
 471 01ec 2A010000 		.4byte	0x12a
 472 01f0 1C       		.byte	0x1c
 473 01f1 01       		.uleb128 0x1
 474 01f2 9C070000 		.4byte	.LASF37
 475 01f6 08       		.byte	0x8
 476 01f7 D5       		.byte	0xd5
 477 01f8 21       		.byte	0x21
 478 01f9 1E010000 		.4byte	0x11e
 479 01fd 1D       		.byte	0x1d
 480 01fe 01       		.uleb128 0x1
 481 01ff DF000000 		.4byte	.LASF38
 482 0203 08       		.byte	0x8
 483 0204 DA       		.byte	0xda
 484 0205 21       		.byte	0x21
 485 0206 36010000 		.4byte	0x136
 486 020a 1E       		.byte	0x1e
 487 020b 01       		.uleb128 0x1
 488 020c 85030000 		.4byte	.LASF39
 489 0210 08       		.byte	0x8
 490 0211 DE       		.byte	0xde
 491 0212 22       		.byte	0x22
 492 0213 7A030000 		.4byte	0x37a
 493 0217 20       		.byte	0x20
 494 0218 01       		.uleb128 0x1
 495 0219 64030000 		.4byte	.LASF40
 496 021d 08       		.byte	0x8
 497 021e E2       		.byte	0xe2
 498 021f 21       		.byte	0x21
 499 0220 16060000 		.4byte	0x616
 500 0224 24       		.byte	0x24
 501 0225 01       		.uleb128 0x1
 502 0226 7F000000 		.4byte	.LASF41
 503 022a 08       		.byte	0x8
 504 022b E8       		.byte	0xe8
 505 022c 21       		.byte	0x21
 506 022d 83070000 		.4byte	0x783
 507 0231 2C       		.byte	0x2c
 508 0232 01       		.uleb128 0x1
 509 0233 44000000 		.4byte	.LASF42
 510 0237 08       		.byte	0x8
 511 0238 EE       		.byte	0xee
 512 0239 22       		.byte	0x22
 513 023a E1030000 		.4byte	0x3e1
ARM GAS  C:\Users\DEVELO~1\AppData\Local\Temp\ccijDB21.s 			page 10


 514 023e 30       		.byte	0x30
 515 023f 09       		.uleb128 0x9
 516 0240 7500     		.ascii	"u\000"
 517 0242 08       		.byte	0x8
 518 0243 3F01     		.2byte	0x13f
 519 0245 21       		.byte	0x21
 520 0246 CC070000 		.4byte	0x7cc
 521 024a 34       		.byte	0x34
 522 024b 05       		.uleb128 0x5
 523 024c D9020000 		.4byte	.LASF43
 524 0250 4401     		.2byte	0x144
 525 0252 21       		.byte	0x21
 526 0253 EA050000 		.4byte	0x5ea
 527 0257 38       		.byte	0x38
 528 0258 05       		.uleb128 0x5
 529 0259 24030000 		.4byte	.LASF44
 530 025d 4A01     		.2byte	0x14a
 531 025f 21       		.byte	0x21
 532 0260 16060000 		.4byte	0x616
 533 0264 3C       		.byte	0x3c
 534 0265 05       		.uleb128 0x5
 535 0266 E4030000 		.4byte	.LASF45
 536 026a 5001     		.2byte	0x150
 537 026c 21       		.byte	0x21
 538 026d 5A010000 		.4byte	0x15a
 539 0271 44       		.byte	0x44
 540 0272 05       		.uleb128 0x5
 541 0273 0A080000 		.4byte	.LASF46
 542 0277 5701     		.2byte	0x157
 543 0279 22       		.byte	0x22
 544 027a 9E080000 		.4byte	0x89e
 545 027e 48       		.byte	0x48
 546 027f 05       		.uleb128 0x5
 547 0280 6F060000 		.4byte	.LASF47
 548 0284 5B01     		.2byte	0x15b
 549 0286 21       		.byte	0x21
 550 0287 42010000 		.4byte	0x142
 551 028b 4C       		.byte	0x4c
 552 028c 00       		.byte	0
 553 028d 02       		.uleb128 0x2
 554 028e F6060000 		.4byte	.LASF48
 555 0292 07       		.byte	0x7
 556 0293 8A       		.byte	0x8a
 557 0294 1F       		.byte	0x1f
 558 0295 99020000 		.4byte	0x299
 559 0299 22       		.uleb128 0x22
 560 029a E7060000 		.4byte	.LASF50
 561 029e F008     		.2byte	0x8f0
 562 02a0 08       		.byte	0x8
 563 02a1 9701     		.2byte	0x197
 564 02a3 08       		.byte	0x8
 565 02a4 2C030000 		.4byte	0x32c
 566 02a8 05       		.uleb128 0x5
 567 02a9 79070000 		.4byte	.LASF51
 568 02ad 9B01     		.2byte	0x19b
 569 02af 21       		.byte	0x21
 570 02b0 D6080000 		.4byte	0x8d6
ARM GAS  C:\Users\DEVELO~1\AppData\Local\Temp\ccijDB21.s 			page 11


 571 02b4 00       		.byte	0
 572 02b5 05       		.uleb128 0x5
 573 02b6 57000000 		.4byte	.LASF52
 574 02ba 9F01     		.2byte	0x19f
 575 02bc 21       		.byte	0x21
 576 02bd 1D070000 		.4byte	0x71d
 577 02c1 10       		.byte	0x10
 578 02c2 05       		.uleb128 0x5
 579 02c3 04070000 		.4byte	.LASF53
 580 02c7 A601     		.2byte	0x1a6
 581 02c9 21       		.byte	0x21
 582 02ca 44070000 		.4byte	0x744
 583 02ce 30       		.byte	0x30
 584 02cf 05       		.uleb128 0x5
 585 02d0 A1030000 		.4byte	.LASF54
 586 02d4 AB01     		.2byte	0x1ab
 587 02d6 21       		.byte	0x21
 588 02d7 7E010000 		.4byte	0x17e
 589 02db 38       		.byte	0x38
 590 02dc 05       		.uleb128 0x5
 591 02dd 2F000000 		.4byte	.LASF55
 592 02e1 B101     		.2byte	0x1b1
 593 02e3 21       		.byte	0x21
 594 02e4 53030000 		.4byte	0x353
 595 02e8 3C       		.byte	0x3c
 596 02e9 05       		.uleb128 0x5
 597 02ea 90060000 		.4byte	.LASF56
 598 02ee B601     		.2byte	0x1b6
 599 02f0 22       		.byte	0x22
 600 02f1 41090000 		.4byte	0x941
 601 02f5 40       		.byte	0x40
 602 02f6 05       		.uleb128 0x5
 603 02f7 31080000 		.4byte	.LASF57
 604 02fb BA01     		.2byte	0x1ba
 605 02fd 21       		.byte	0x21
 606 02fe 8A010000 		.4byte	0x18a
 607 0302 44       		.byte	0x44
 608 0303 05       		.uleb128 0x5
 609 0304 9F000000 		.4byte	.LASF58
 610 0308 BF01     		.2byte	0x1bf
 611 030a 21       		.byte	0x21
 612 030b 8A010000 		.4byte	0x18a
 613 030f 94       		.byte	0x94
 614 0310 09       		.uleb128 0x9
 615 0311 64626700 		.ascii	"dbg\000"
 616 0315 08       		.byte	0x8
 617 0316 C401     		.2byte	0x1c4
 618 0318 21       		.byte	0x21
 619 0319 90030000 		.4byte	0x390
 620 031d E4       		.byte	0xe4
 621 031e 05       		.uleb128 0x5
 622 031f D2070000 		.4byte	.LASF59
 623 0323 C901     		.2byte	0x1c9
 624 0325 21       		.byte	0x21
 625 0326 37050000 		.4byte	0x537
 626 032a E8       		.byte	0xe8
 627 032b 00       		.byte	0
ARM GAS  C:\Users\DEVELO~1\AppData\Local\Temp\ccijDB21.s 			page 12


 628 032c 02       		.uleb128 0x2
 629 032d 75040000 		.4byte	.LASF60
 630 0331 09       		.byte	0x9
 631 0332 3F       		.byte	0x3f
 632 0333 12       		.byte	0x12
 633 0334 E9000000 		.4byte	0xe9
 634 0338 06       		.uleb128 0x6
 635 0339 6B010000 		.4byte	.LASF61
 636 033d 04       		.byte	0x4
 637 033e 09       		.byte	0x9
 638 033f 44       		.byte	0x44
 639 0340 10       		.byte	0x10
 640 0341 53030000 		.4byte	0x353
 641 0345 01       		.uleb128 0x1
 642 0346 D4020000 		.4byte	.LASF62
 643 034a 09       		.byte	0x9
 644 034b 48       		.byte	0x48
 645 034c 21       		.byte	0x21
 646 034d 2C030000 		.4byte	0x32c
 647 0351 00       		.byte	0
 648 0352 00       		.byte	0
 649 0353 02       		.uleb128 0x2
 650 0354 C7050000 		.4byte	.LASF63
 651 0358 09       		.byte	0x9
 652 0359 49       		.byte	0x49
 653 035a 03       		.byte	0x3
 654 035b 38030000 		.4byte	0x338
 655 035f 06       		.uleb128 0x6
 656 0360 9B050000 		.4byte	.LASF64
 657 0364 04       		.byte	0x4
 658 0365 0A       		.byte	0xa
 659 0366 3E       		.byte	0x3e
 660 0367 10       		.byte	0x10
 661 0368 7A030000 		.4byte	0x37a
 662 036c 01       		.uleb128 0x1
 663 036d D6060000 		.4byte	.LASF65
 664 0371 0A       		.byte	0xa
 665 0372 46       		.byte	0x46
 666 0373 24       		.byte	0x24
 667 0374 7F030000 		.4byte	0x37f
 668 0378 00       		.byte	0
 669 0379 00       		.byte	0
 670 037a 03       		.uleb128 0x3
 671 037b 8B030000 		.4byte	0x38b
 672 037f 13       		.uleb128 0x13
 673 0380 7A030000 		.4byte	0x37a
 674 0384 08       		.uleb128 0x8
 675 0385 01       		.byte	0x1
 676 0386 08       		.byte	0x8
 677 0387 8B060000 		.4byte	.LASF66
 678 038b 0D       		.uleb128 0xd
 679 038c 84030000 		.4byte	0x384
 680 0390 02       		.uleb128 0x2
 681 0391 48030000 		.4byte	.LASF67
 682 0395 0A       		.byte	0xa
 683 0396 51       		.byte	0x51
 684 0397 03       		.byte	0x3
ARM GAS  C:\Users\DEVELO~1\AppData\Local\Temp\ccijDB21.s 			page 13


 685 0398 5F030000 		.4byte	0x35f
 686 039c 02       		.uleb128 0x2
 687 039d B1060000 		.4byte	.LASF68
 688 03a1 0B       		.byte	0xb
 689 03a2 6D       		.byte	0x6d
 690 03a3 12       		.byte	0x12
 691 03a4 E9000000 		.4byte	0xe9
 692 03a8 02       		.uleb128 0x2
 693 03a9 10030000 		.4byte	.LASF69
 694 03ad 0B       		.byte	0xb
 695 03ae 79       		.byte	0x79
 696 03af 12       		.byte	0x12
 697 03b0 E9000000 		.4byte	0xe9
 698 03b4 03       		.uleb128 0x3
 699 03b5 C0000000 		.4byte	0xc0
 700 03b9 0E       		.uleb128 0xe
 701 03ba 08       		.byte	0x8
 702 03bb 83       		.byte	0x83
 703 03bc 05       		.byte	0x5
 704 03bd DC030000 		.4byte	0x3dc
 705 03c1 07       		.uleb128 0x7
 706 03c2 6E747000 		.ascii	"ntp\000"
 707 03c6 0C       		.byte	0xc
 708 03c7 87       		.byte	0x87
 709 03c8 1E       		.byte	0x1e
 710 03c9 DC030000 		.4byte	0x3dc
 711 03cd 00       		.byte	0
 712 03ce 01       		.uleb128 0x1
 713 03cf D8050000 		.4byte	.LASF70
 714 03d3 0C       		.byte	0xc
 715 03d4 8B       		.byte	0x8b
 716 03d5 1E       		.byte	0x1e
 717 03d6 E1030000 		.4byte	0x3e1
 718 03da 04       		.byte	0x4
 719 03db 00       		.byte	0
 720 03dc 03       		.uleb128 0x3
 721 03dd 8A010000 		.4byte	0x18a
 722 03e1 23       		.uleb128 0x23
 723 03e2 04       		.byte	0x4
 724 03e3 0E       		.uleb128 0xe
 725 03e4 08       		.byte	0x8
 726 03e5 90       		.byte	0x90
 727 03e6 05       		.byte	0x5
 728 03e7 05040000 		.4byte	0x405
 729 03eb 07       		.uleb128 0x7
 730 03ec 747000   		.ascii	"tp\000"
 731 03ef 0C       		.byte	0xc
 732 03f0 94       		.byte	0x94
 733 03f1 1E       		.byte	0x1e
 734 03f2 DC030000 		.4byte	0x3dc
 735 03f6 00       		.byte	0
 736 03f7 07       		.uleb128 0x7
 737 03f8 6D736700 		.ascii	"msg\000"
 738 03fc 0C       		.byte	0xc
 739 03fd 98       		.byte	0x98
 740 03fe 1D       		.byte	0x1d
 741 03ff 4E010000 		.4byte	0x14e
ARM GAS  C:\Users\DEVELO~1\AppData\Local\Temp\ccijDB21.s 			page 14


 742 0403 04       		.byte	0x4
 743 0404 00       		.byte	0
 744 0405 0E       		.uleb128 0xe
 745 0406 04       		.byte	0x4
 746 0407 9D       		.byte	0x9d
 747 0408 05       		.byte	0x5
 748 0409 1B040000 		.4byte	0x41b
 749 040d 01       		.uleb128 0x1
 750 040e 85030000 		.4byte	.LASF39
 751 0412 0C       		.byte	0xc
 752 0413 A1       		.byte	0xa1
 753 0414 1E       		.byte	0x1e
 754 0415 7A030000 		.4byte	0x37a
 755 0419 00       		.byte	0
 756 041a 00       		.byte	0
 757 041b 0E       		.uleb128 0xe
 758 041c 04       		.byte	0x4
 759 041d A6       		.byte	0xa6
 760 041e 05       		.byte	0x5
 761 041f 31040000 		.4byte	0x431
 762 0423 01       		.uleb128 0x1
 763 0424 0A060000 		.4byte	.LASF71
 764 0428 0C       		.byte	0xc
 765 0429 AA       		.byte	0xaa
 766 042a 1E       		.byte	0x1e
 767 042b 7A030000 		.4byte	0x37a
 768 042f 00       		.byte	0
 769 0430 00       		.byte	0
 770 0431 0E       		.uleb128 0xe
 771 0432 08       		.byte	0x8
 772 0433 AF       		.byte	0xaf
 773 0434 05       		.byte	0x5
 774 0435 54040000 		.4byte	0x454
 775 0439 07       		.uleb128 0x7
 776 043a 75703100 		.ascii	"up1\000"
 777 043e 0C       		.byte	0xc
 778 043f B3       		.byte	0xb3
 779 0440 1E       		.byte	0x1e
 780 0441 E1030000 		.4byte	0x3e1
 781 0445 00       		.byte	0
 782 0446 07       		.uleb128 0x7
 783 0447 75703200 		.ascii	"up2\000"
 784 044b 0C       		.byte	0xc
 785 044c B7       		.byte	0xb7
 786 044d 1E       		.byte	0x1e
 787 044e E1030000 		.4byte	0x3e1
 788 0452 04       		.byte	0x4
 789 0453 00       		.byte	0
 790 0454 1A       		.uleb128 0x1a
 791 0455 08       		.byte	0x8
 792 0456 0C       		.byte	0xc
 793 0457 7F       		.byte	0x7f
 794 0458 92040000 		.4byte	0x492
 795 045c 14       		.uleb128 0x14
 796 045d 737700   		.ascii	"sw\000"
 797 0460 8C       		.byte	0x8c
 798 0461 B9030000 		.4byte	0x3b9
ARM GAS  C:\Users\DEVELO~1\AppData\Local\Temp\ccijDB21.s 			page 15


 799 0465 14       		.uleb128 0x14
 800 0466 72647900 		.ascii	"rdy\000"
 801 046a 99       		.byte	0x99
 802 046b E3030000 		.4byte	0x3e3
 803 046f 14       		.uleb128 0x14
 804 0470 69737200 		.ascii	"isr\000"
 805 0474 A2       		.byte	0xa2
 806 0475 05040000 		.4byte	0x405
 807 0479 0F       		.uleb128 0xf
 808 047a 7A000000 		.4byte	.LASF72
 809 047e 0C       		.byte	0xc
 810 047f AB       		.byte	0xab
 811 0480 07       		.byte	0x7
 812 0481 1B040000 		.4byte	0x41b
 813 0485 0F       		.uleb128 0xf
 814 0486 86050000 		.4byte	.LASF73
 815 048a 0C       		.byte	0xc
 816 048b B8       		.byte	0xb8
 817 048c 07       		.byte	0x7
 818 048d 31040000 		.4byte	0x431
 819 0491 00       		.byte	0
 820 0492 0E       		.uleb128 0xe
 821 0493 10       		.byte	0x10
 822 0494 6C       		.byte	0x6c
 823 0495 09       		.byte	0x9
 824 0496 D7040000 		.4byte	0x4d7
 825 049a 15       		.uleb128 0x15
 826 049b 5E000000 		.4byte	.LASF74
 827 049f 70       		.byte	0x70
 828 04a0 E9000000 		.4byte	0xe9
 829 04a4 03       		.byte	0x3
 830 04a5 00       		.byte	0
 831 04a6 15       		.uleb128 0x15
 832 04a7 52010000 		.4byte	.LASF36
 833 04ab 74       		.byte	0x74
 834 04ac E9000000 		.4byte	0xe9
 835 04b0 05       		.byte	0x5
 836 04b1 03       		.byte	0x3
 837 04b2 15       		.uleb128 0x15
 838 04b3 3F040000 		.4byte	.LASF75
 839 04b7 7A       		.byte	0x7a
 840 04b8 E9000000 		.4byte	0xe9
 841 04bc 18       		.byte	0x18
 842 04bd 08       		.byte	0x8
 843 04be 01       		.uleb128 0x1
 844 04bf 35050000 		.4byte	.LASF76
 845 04c3 0C       		.byte	0xc
 846 04c4 7E       		.byte	0x7e
 847 04c5 19       		.byte	0x19
 848 04c6 9C030000 		.4byte	0x39c
 849 04ca 04       		.byte	0x4
 850 04cb 07       		.uleb128 0x7
 851 04cc 7500     		.ascii	"u\000"
 852 04ce 0C       		.byte	0xc
 853 04cf B9       		.byte	0xb9
 854 04d0 05       		.byte	0x5
 855 04d1 54040000 		.4byte	0x454
ARM GAS  C:\Users\DEVELO~1\AppData\Local\Temp\ccijDB21.s 			page 16


 856 04d5 08       		.byte	0x8
 857 04d6 00       		.byte	0
 858 04d7 02       		.uleb128 0x2
 859 04d8 6C000000 		.4byte	.LASF77
 860 04dc 0C       		.byte	0xc
 861 04dd BA       		.byte	0xba
 862 04de 03       		.byte	0x3
 863 04df 92040000 		.4byte	0x492
 864 04e3 24       		.uleb128 0x24
 865 04e4 0808     		.2byte	0x808
 866 04e6 0C       		.byte	0xc
 867 04e7 C0       		.byte	0xc0
 868 04e8 09       		.byte	0x9
 869 04e9 22050000 		.4byte	0x522
 870 04ed 01       		.uleb128 0x1
 871 04ee C8040000 		.4byte	.LASF78
 872 04f2 0C       		.byte	0xc
 873 04f3 C4       		.byte	0xc4
 874 04f4 19       		.byte	0x19
 875 04f5 D1000000 		.4byte	0xd1
 876 04f9 00       		.byte	0
 877 04fa 01       		.uleb128 0x1
 878 04fb AF030000 		.4byte	.LASF79
 879 04ff 0C       		.byte	0xc
 880 0500 C8       		.byte	0xc8
 881 0501 19       		.byte	0x19
 882 0502 D1000000 		.4byte	0xd1
 883 0506 02       		.byte	0x2
 884 0507 07       		.uleb128 0x7
 885 0508 70747200 		.ascii	"ptr\000"
 886 050c 0C       		.byte	0xc
 887 050d CC       		.byte	0xcc
 888 050e 1A       		.byte	0x1a
 889 050f 22050000 		.4byte	0x522
 890 0513 04       		.byte	0x4
 891 0514 01       		.uleb128 0x1
 892 0515 BB060000 		.4byte	.LASF80
 893 0519 0C       		.byte	0xc
 894 051a D0       		.byte	0xd0
 895 051b 19       		.byte	0x19
 896 051c 27050000 		.4byte	0x527
 897 0520 08       		.byte	0x8
 898 0521 00       		.byte	0
 899 0522 03       		.uleb128 0x3
 900 0523 D7040000 		.4byte	0x4d7
 901 0527 16       		.uleb128 0x16
 902 0528 D7040000 		.4byte	0x4d7
 903 052c 37050000 		.4byte	0x537
 904 0530 17       		.uleb128 0x17
 905 0531 3E000000 		.4byte	0x3e
 906 0535 7F       		.byte	0x7f
 907 0536 00       		.byte	0
 908 0537 02       		.uleb128 0x2
 909 0538 43020000 		.4byte	.LASF81
 910 053c 0C       		.byte	0xc
 911 053d D1       		.byte	0xd1
 912 053e 03       		.byte	0x3
ARM GAS  C:\Users\DEVELO~1\AppData\Local\Temp\ccijDB21.s 			page 17


 913 053f E3040000 		.4byte	0x4e3
 914 0543 11       		.uleb128 0x11
 915 0544 4B000000 		.4byte	.LASF82
 916 0548 24       		.byte	0x24
 917 0549 0D       		.byte	0xd
 918 054a 3F02     		.2byte	0x23f
 919 054c 08       		.byte	0x8
 920 054d C9050000 		.4byte	0x5c9
 921 0551 09       		.uleb128 0x9
 922 0552 723400   		.ascii	"r4\000"
 923 0555 0D       		.byte	0xd
 924 0556 5202     		.2byte	0x252
 925 0558 11       		.byte	0x11
 926 0559 E9000000 		.4byte	0xe9
 927 055d 00       		.byte	0
 928 055e 09       		.uleb128 0x9
 929 055f 723500   		.ascii	"r5\000"
 930 0562 0D       		.byte	0xd
 931 0563 5302     		.2byte	0x253
 932 0565 11       		.byte	0x11
 933 0566 E9000000 		.4byte	0xe9
 934 056a 04       		.byte	0x4
 935 056b 09       		.uleb128 0x9
 936 056c 723600   		.ascii	"r6\000"
 937 056f 0D       		.byte	0xd
 938 0570 5402     		.2byte	0x254
 939 0572 11       		.byte	0x11
 940 0573 E9000000 		.4byte	0xe9
 941 0577 08       		.byte	0x8
 942 0578 09       		.uleb128 0x9
 943 0579 723700   		.ascii	"r7\000"
 944 057c 0D       		.byte	0xd
 945 057d 5502     		.2byte	0x255
 946 057f 11       		.byte	0x11
 947 0580 E9000000 		.4byte	0xe9
 948 0584 0C       		.byte	0xc
 949 0585 09       		.uleb128 0x9
 950 0586 723800   		.ascii	"r8\000"
 951 0589 0D       		.byte	0xd
 952 058a 5602     		.2byte	0x256
 953 058c 11       		.byte	0x11
 954 058d E9000000 		.4byte	0xe9
 955 0591 10       		.byte	0x10
 956 0592 09       		.uleb128 0x9
 957 0593 723900   		.ascii	"r9\000"
 958 0596 0D       		.byte	0xd
 959 0597 5702     		.2byte	0x257
 960 0599 11       		.byte	0x11
 961 059a E9000000 		.4byte	0xe9
 962 059e 14       		.byte	0x14
 963 059f 09       		.uleb128 0x9
 964 05a0 72313000 		.ascii	"r10\000"
 965 05a4 0D       		.byte	0xd
 966 05a5 5802     		.2byte	0x258
 967 05a7 11       		.byte	0x11
 968 05a8 E9000000 		.4byte	0xe9
 969 05ac 18       		.byte	0x18
ARM GAS  C:\Users\DEVELO~1\AppData\Local\Temp\ccijDB21.s 			page 18


 970 05ad 09       		.uleb128 0x9
 971 05ae 72313100 		.ascii	"r11\000"
 972 05b2 0D       		.byte	0xd
 973 05b3 5902     		.2byte	0x259
 974 05b5 11       		.byte	0x11
 975 05b6 E9000000 		.4byte	0xe9
 976 05ba 1C       		.byte	0x1c
 977 05bb 09       		.uleb128 0x9
 978 05bc 6C7200   		.ascii	"lr\000"
 979 05bf 0D       		.byte	0xd
 980 05c0 5A02     		.2byte	0x25a
 981 05c2 11       		.byte	0x11
 982 05c3 E9000000 		.4byte	0xe9
 983 05c7 20       		.byte	0x20
 984 05c8 00       		.byte	0
 985 05c9 11       		.uleb128 0x11
 986 05ca 21050000 		.4byte	.LASF83
 987 05ce 04       		.byte	0x4
 988 05cf 0D       		.byte	0xd
 989 05d0 6302     		.2byte	0x263
 990 05d2 08       		.byte	0x8
 991 05d3 E5050000 		.4byte	0x5e5
 992 05d7 09       		.uleb128 0x9
 993 05d8 737000   		.ascii	"sp\000"
 994 05db 0D       		.byte	0xd
 995 05dc 6402     		.2byte	0x264
 996 05de 1A       		.byte	0x1a
 997 05df E5050000 		.4byte	0x5e5
 998 05e3 00       		.byte	0
 999 05e4 00       		.byte	0
 1000 05e5 03       		.uleb128 0x3
 1001 05e6 43050000 		.4byte	0x543
 1002 05ea 02       		.uleb128 0x2
 1003 05eb BE040000 		.4byte	.LASF84
 1004 05ef 0E       		.byte	0xe
 1005 05f0 32       		.byte	0x32
 1006 05f1 18       		.byte	0x18
 1007 05f2 F6050000 		.4byte	0x5f6
 1008 05f6 06       		.uleb128 0x6
 1009 05f7 4A010000 		.4byte	.LASF85
 1010 05fb 04       		.byte	0x4
 1011 05fc 0E       		.byte	0xe
 1012 05fd 38       		.byte	0x38
 1013 05fe 08       		.byte	0x8
 1014 05ff 11060000 		.4byte	0x611
 1015 0603 01       		.uleb128 0x1
 1016 0604 C3000000 		.4byte	.LASF86
 1017 0608 0E       		.byte	0xe
 1018 0609 39       		.byte	0x39
 1019 060a 1A       		.byte	0x1a
 1020 060b 11060000 		.4byte	0x611
 1021 060f 00       		.byte	0
 1022 0610 00       		.byte	0
 1023 0611 03       		.uleb128 0x3
 1024 0612 EA050000 		.4byte	0x5ea
 1025 0616 02       		.uleb128 0x2
 1026 0617 6B030000 		.4byte	.LASF87
ARM GAS  C:\Users\DEVELO~1\AppData\Local\Temp\ccijDB21.s 			page 19


 1027 061b 0E       		.byte	0xe
 1028 061c 3F       		.byte	0x3f
 1029 061d 19       		.byte	0x19
 1030 061e 22060000 		.4byte	0x622
 1031 0622 06       		.uleb128 0x6
 1032 0623 28020000 		.4byte	.LASF88
 1033 0627 08       		.byte	0x8
 1034 0628 0E       		.byte	0xe
 1035 0629 45       		.byte	0x45
 1036 062a 08       		.byte	0x8
 1037 062b 4A060000 		.4byte	0x64a
 1038 062f 01       		.uleb128 0x1
 1039 0630 C3000000 		.4byte	.LASF86
 1040 0634 0E       		.byte	0xe
 1041 0635 46       		.byte	0x46
 1042 0636 1A       		.byte	0x1a
 1043 0637 4A060000 		.4byte	0x64a
 1044 063b 00       		.byte	0
 1045 063c 01       		.uleb128 0x1
 1046 063d 00000000 		.4byte	.LASF89
 1047 0641 0E       		.byte	0xe
 1048 0642 47       		.byte	0x47
 1049 0643 1A       		.byte	0x1a
 1050 0644 4A060000 		.4byte	0x64a
 1051 0648 04       		.byte	0x4
 1052 0649 00       		.byte	0
 1053 064a 03       		.uleb128 0x3
 1054 064b 16060000 		.4byte	0x616
 1055 064f 02       		.uleb128 0x2
 1056 0650 C2060000 		.4byte	.LASF90
 1057 0654 0E       		.byte	0xe
 1058 0655 4E       		.byte	0x4e
 1059 0656 22       		.byte	0x22
 1060 0657 5B060000 		.4byte	0x65b
 1061 065b 06       		.uleb128 0x6
 1062 065c 0C070000 		.4byte	.LASF91
 1063 0660 0C       		.byte	0xc
 1064 0661 0E       		.byte	0xe
 1065 0662 55       		.byte	0x55
 1066 0663 08       		.byte	0x8
 1067 0664 90060000 		.4byte	0x690
 1068 0668 01       		.uleb128 0x1
 1069 0669 C3000000 		.4byte	.LASF86
 1070 066d 0E       		.byte	0xe
 1071 066e 56       		.byte	0x56
 1072 066f 1A       		.byte	0x1a
 1073 0670 90060000 		.4byte	0x690
 1074 0674 00       		.byte	0
 1075 0675 01       		.uleb128 0x1
 1076 0676 00000000 		.4byte	.LASF89
 1077 067a 0E       		.byte	0xe
 1078 067b 57       		.byte	0x57
 1079 067c 1A       		.byte	0x1a
 1080 067d 90060000 		.4byte	0x690
 1081 0681 04       		.byte	0x4
 1082 0682 01       		.uleb128 0x1
 1083 0683 3A050000 		.4byte	.LASF92
ARM GAS  C:\Users\DEVELO~1\AppData\Local\Temp\ccijDB21.s 			page 20


 1084 0687 0E       		.byte	0xe
 1085 0688 58       		.byte	0x58
 1086 0689 19       		.byte	0x19
 1087 068a 42010000 		.4byte	0x142
 1088 068e 08       		.byte	0x8
 1089 068f 00       		.byte	0
 1090 0690 03       		.uleb128 0x3
 1091 0691 4F060000 		.4byte	0x64f
 1092 0695 02       		.uleb128 0x2
 1093 0696 1E070000 		.4byte	.LASF93
 1094 069a 0E       		.byte	0xe
 1095 069b 5F       		.byte	0x5f
 1096 069c 1E       		.byte	0x1e
 1097 069d A1060000 		.4byte	0x6a1
 1098 06a1 06       		.uleb128 0x6
 1099 06a2 25010000 		.4byte	.LASF94
 1100 06a6 0C       		.byte	0xc
 1101 06a7 0E       		.byte	0xe
 1102 06a8 64       		.byte	0x64
 1103 06a9 08       		.byte	0x8
 1104 06aa D6060000 		.4byte	0x6d6
 1105 06ae 01       		.uleb128 0x1
 1106 06af C3000000 		.4byte	.LASF86
 1107 06b3 0E       		.byte	0xe
 1108 06b4 65       		.byte	0x65
 1109 06b5 1A       		.byte	0x1a
 1110 06b6 D6060000 		.4byte	0x6d6
 1111 06ba 00       		.byte	0
 1112 06bb 01       		.uleb128 0x1
 1113 06bc 00000000 		.4byte	.LASF89
 1114 06c0 0E       		.byte	0xe
 1115 06c1 66       		.byte	0x66
 1116 06c2 1A       		.byte	0x1a
 1117 06c3 D6060000 		.4byte	0x6d6
 1118 06c7 04       		.byte	0x4
 1119 06c8 01       		.uleb128 0x1
 1120 06c9 B2000000 		.4byte	.LASF95
 1121 06cd 0E       		.byte	0xe
 1122 06ce 67       		.byte	0x67
 1123 06cf 19       		.byte	0x19
 1124 06d0 A8030000 		.4byte	0x3a8
 1125 06d4 08       		.byte	0x8
 1126 06d5 00       		.byte	0
 1127 06d6 03       		.uleb128 0x3
 1128 06d7 95060000 		.4byte	0x695
 1129 06db 06       		.uleb128 0x6
 1130 06dc 9D040000 		.4byte	.LASF96
 1131 06e0 20       		.byte	0x20
 1132 06e1 08       		.byte	0x8
 1133 06e2 64       		.byte	0x64
 1134 06e3 10       		.byte	0x10
 1135 06e4 1D070000 		.4byte	0x71d
 1136 06e8 01       		.uleb128 0x1
 1137 06e9 AB060000 		.4byte	.LASF97
 1138 06ed 08       		.byte	0x8
 1139 06ee 68       		.byte	0x68
 1140 06ef 21       		.byte	0x21
ARM GAS  C:\Users\DEVELO~1\AppData\Local\Temp\ccijDB21.s 			page 21


 1141 06f0 95060000 		.4byte	0x695
 1142 06f4 00       		.byte	0
 1143 06f5 01       		.uleb128 0x1
 1144 06f6 61070000 		.4byte	.LASF98
 1145 06fa 08       		.byte	0x8
 1146 06fb 73       		.byte	0x73
 1147 06fc 21       		.byte	0x21
 1148 06fd 9C030000 		.4byte	0x39c
 1149 0701 0C       		.byte	0xc
 1150 0702 01       		.uleb128 0x1
 1151 0703 60050000 		.4byte	.LASF99
 1152 0707 08       		.byte	0x8
 1153 0708 7B       		.byte	0x7b
 1154 0709 21       		.byte	0x21
 1155 070a A8030000 		.4byte	0x3a8
 1156 070e 10       		.byte	0x10
 1157 070f 01       		.uleb128 0x1
 1158 0710 47040000 		.4byte	.LASF100
 1159 0714 08       		.byte	0x8
 1160 0715 81       		.byte	0x81
 1161 0716 21       		.byte	0x21
 1162 0717 01010000 		.4byte	0x101
 1163 071b 18       		.byte	0x18
 1164 071c 00       		.byte	0
 1165 071d 02       		.uleb128 0x2
 1166 071e 29040000 		.4byte	.LASF101
 1167 0722 08       		.byte	0x8
 1168 0723 83       		.byte	0x83
 1169 0724 03       		.byte	0x3
 1170 0725 DB060000 		.4byte	0x6db
 1171 0729 06       		.uleb128 0x6
 1172 072a 67020000 		.4byte	.LASF102
 1173 072e 08       		.byte	0x8
 1174 072f 08       		.byte	0x8
 1175 0730 88       		.byte	0x88
 1176 0731 10       		.byte	0x10
 1177 0732 44070000 		.4byte	0x744
 1178 0736 01       		.uleb128 0x1
 1179 0737 9B030000 		.4byte	.LASF103
 1180 073b 08       		.byte	0x8
 1181 073c 8C       		.byte	0x8c
 1182 073d 21       		.byte	0x21
 1183 073e 16060000 		.4byte	0x616
 1184 0742 00       		.byte	0
 1185 0743 00       		.byte	0
 1186 0744 02       		.uleb128 0x2
 1187 0745 2E060000 		.4byte	.LASF104
 1188 0749 08       		.byte	0x8
 1189 074a 8D       		.byte	0x8d
 1190 074b 03       		.byte	0x3
 1191 074c 29070000 		.4byte	0x729
 1192 0750 02       		.uleb128 0x2
 1193 0751 81040000 		.4byte	.LASF105
 1194 0755 08       		.byte	0x8
 1195 0756 92       		.byte	0x92
 1196 0757 14       		.byte	0x14
 1197 0758 DC030000 		.4byte	0x3dc
ARM GAS  C:\Users\DEVELO~1\AppData\Local\Temp\ccijDB21.s 			page 22


 1198 075c 06       		.uleb128 0x6
 1199 075d C8000000 		.4byte	.LASF106
 1200 0761 08       		.byte	0x8
 1201 0762 08       		.byte	0x8
 1202 0763 97       		.byte	0x97
 1203 0764 10       		.byte	0x10
 1204 0765 77070000 		.4byte	0x777
 1205 0769 01       		.uleb128 0x1
 1206 076a 9B030000 		.4byte	.LASF103
 1207 076e 08       		.byte	0x8
 1208 076f 9B       		.byte	0x9b
 1209 0770 21       		.byte	0x21
 1210 0771 16060000 		.4byte	0x616
 1211 0775 00       		.byte	0
 1212 0776 00       		.byte	0
 1213 0777 02       		.uleb128 0x2
 1214 0778 11060000 		.4byte	.LASF107
 1215 077c 08       		.byte	0x8
 1216 077d 9C       		.byte	0x9c
 1217 077e 03       		.byte	0x3
 1218 077f 5C070000 		.4byte	0x75c
 1219 0783 02       		.uleb128 0x2
 1220 0784 8A030000 		.4byte	.LASF108
 1221 0788 08       		.byte	0x8
 1222 0789 A1       		.byte	0xa1
 1223 078a 10       		.byte	0x10
 1224 078b 8F070000 		.4byte	0x78f
 1225 078f 03       		.uleb128 0x3
 1226 0790 94070000 		.4byte	0x794
 1227 0794 1B       		.uleb128 0x1b
 1228 0795 9F070000 		.4byte	0x79f
 1229 0799 04       		.uleb128 0x4
 1230 079a DC030000 		.4byte	0x3dc
 1231 079e 00       		.byte	0
 1232 079f 1A       		.uleb128 0x1a
 1233 07a0 0C       		.byte	0xc
 1234 07a1 08       		.byte	0x8
 1235 07a2 AD       		.byte	0xad
 1236 07a3 CC070000 		.4byte	0x7cc
 1237 07a7 0F       		.uleb128 0xf
 1238 07a8 EF070000 		.4byte	.LASF109
 1239 07ac 08       		.byte	0x8
 1240 07ad B1       		.byte	0xb1
 1241 07ae 21       		.byte	0x21
 1242 07af EA050000 		.4byte	0x5ea
 1243 07b3 0F       		.uleb128 0xf
 1244 07b4 9B030000 		.4byte	.LASF103
 1245 07b8 08       		.byte	0x8
 1246 07b9 B5       		.byte	0xb5
 1247 07ba 21       		.byte	0x21
 1248 07bb 16060000 		.4byte	0x616
 1249 07bf 0F       		.uleb128 0xf
 1250 07c0 E0060000 		.4byte	.LASF110
 1251 07c4 08       		.byte	0x8
 1252 07c5 B9       		.byte	0xb9
 1253 07c6 21       		.byte	0x21
 1254 07c7 4F060000 		.4byte	0x64f
ARM GAS  C:\Users\DEVELO~1\AppData\Local\Temp\ccijDB21.s 			page 23


 1255 07cb 00       		.byte	0
 1256 07cc 25       		.uleb128 0x25
 1257 07cd 04       		.byte	0x4
 1258 07ce 08       		.byte	0x8
 1259 07cf 0201     		.2byte	0x102
 1260 07d1 03       		.byte	0x3
 1261 07d2 37080000 		.4byte	0x837
 1262 07d6 0C       		.uleb128 0xc
 1263 07d7 28000000 		.4byte	.LASF111
 1264 07db 0901     		.2byte	0x109
 1265 07dd 21       		.byte	0x21
 1266 07de 4E010000 		.4byte	0x14e
 1267 07e2 0C       		.uleb128 0xc
 1268 07e3 96000000 		.4byte	.LASF112
 1269 07e7 1001     		.2byte	0x110
 1270 07e9 21       		.byte	0x21
 1271 07ea 4E010000 		.4byte	0x14e
 1272 07ee 0C       		.uleb128 0xc
 1273 07ef D8050000 		.4byte	.LASF70
 1274 07f3 1701     		.2byte	0x117
 1275 07f5 22       		.byte	0x22
 1276 07f6 E1030000 		.4byte	0x3e1
 1277 07fa 0C       		.uleb128 0xc
 1278 07fb 5E030000 		.4byte	.LASF113
 1279 07ff 1E01     		.2byte	0x11e
 1280 0801 22       		.byte	0x22
 1281 0802 37080000 		.4byte	0x837
 1282 0806 0C       		.uleb128 0xc
 1283 0807 AA000000 		.4byte	.LASF114
 1284 080b 2301     		.2byte	0x123
 1285 080d 21       		.byte	0x21
 1286 080e 4E010000 		.4byte	0x14e
 1287 0812 0C       		.uleb128 0xc
 1288 0813 3A030000 		.4byte	.LASF115
 1289 0817 2C01     		.2byte	0x12c
 1290 0819 22       		.byte	0x22
 1291 081a 64080000 		.4byte	0x864
 1292 081e 0C       		.uleb128 0xc
 1293 081f 49060000 		.4byte	.LASF116
 1294 0823 3501     		.2byte	0x135
 1295 0825 22       		.byte	0x22
 1296 0826 9E080000 		.4byte	0x89e
 1297 082a 0C       		.uleb128 0xc
 1298 082b DF050000 		.4byte	.LASF117
 1299 082f 3D01     		.2byte	0x13d
 1300 0831 21       		.byte	0x21
 1301 0832 5A010000 		.4byte	0x15a
 1302 0836 00       		.byte	0
 1303 0837 03       		.uleb128 0x3
 1304 0838 50070000 		.4byte	0x750
 1305 083c 06       		.uleb128 0x6
 1306 083d 21060000 		.4byte	.LASF118
 1307 0841 0C       		.byte	0xc
 1308 0842 0F       		.byte	0xf
 1309 0843 34       		.byte	0x34
 1310 0844 10       		.byte	0x10
 1311 0845 64080000 		.4byte	0x864
ARM GAS  C:\Users\DEVELO~1\AppData\Local\Temp\ccijDB21.s 			page 24


 1312 0849 01       		.uleb128 0x1
 1313 084a 9B030000 		.4byte	.LASF103
 1314 084e 0F       		.byte	0xf
 1315 084f 35       		.byte	0x35
 1316 0850 19       		.byte	0x19
 1317 0851 16060000 		.4byte	0x616
 1318 0855 00       		.byte	0
 1319 0856 07       		.uleb128 0x7
 1320 0857 636E7400 		.ascii	"cnt\000"
 1321 085b 0F       		.byte	0xf
 1322 085c 37       		.byte	0x37
 1323 085d 19       		.byte	0x19
 1324 085e 72010000 		.4byte	0x172
 1325 0862 08       		.byte	0x8
 1326 0863 00       		.byte	0
 1327 0864 03       		.uleb128 0x3
 1328 0865 3C080000 		.4byte	0x83c
 1329 0869 06       		.uleb128 0x6
 1330 086a 58070000 		.4byte	.LASF119
 1331 086e 10       		.byte	0x10
 1332 086f 10       		.byte	0x10
 1333 0870 39       		.byte	0x39
 1334 0871 08       		.byte	0x8
 1335 0872 9E080000 		.4byte	0x89e
 1336 0876 01       		.uleb128 0x1
 1337 0877 9B030000 		.4byte	.LASF103
 1338 087b 10       		.byte	0x10
 1339 087c 3A       		.byte	0x3a
 1340 087d 19       		.byte	0x19
 1341 087e 16060000 		.4byte	0x616
 1342 0882 00       		.byte	0
 1343 0883 01       		.uleb128 0x1
 1344 0884 69060000 		.4byte	.LASF33
 1345 0888 10       		.byte	0x10
 1346 0889 3C       		.byte	0x3c
 1347 088a 1A       		.byte	0x1a
 1348 088b DC030000 		.4byte	0x3dc
 1349 088f 08       		.byte	0x8
 1350 0890 01       		.uleb128 0x1
 1351 0891 C3000000 		.4byte	.LASF86
 1352 0895 10       		.byte	0x10
 1353 0896 3E       		.byte	0x3e
 1354 0897 1A       		.byte	0x1a
 1355 0898 52090000 		.4byte	0x952
 1356 089c 0C       		.byte	0xc
 1357 089d 00       		.byte	0
 1358 089e 03       		.uleb128 0x3
 1359 089f 69080000 		.4byte	0x869
 1360 08a3 03       		.uleb128 0x3
 1361 08a4 8D020000 		.4byte	0x28d
 1362 08a8 03       		.uleb128 0x3
 1363 08a9 12010000 		.4byte	0x112
 1364 08ad 11       		.uleb128 0x11
 1365 08ae 05040000 		.4byte	.LASF120
 1366 08b2 10       		.byte	0x10
 1367 08b3 08       		.byte	0x8
 1368 08b4 6C01     		.2byte	0x16c
ARM GAS  C:\Users\DEVELO~1\AppData\Local\Temp\ccijDB21.s 			page 25


 1369 08b6 10       		.byte	0x10
 1370 08b7 D6080000 		.4byte	0x8d6
 1371 08bb 05       		.uleb128 0x5
 1372 08bc E0060000 		.4byte	.LASF110
 1373 08c0 7101     		.2byte	0x171
 1374 08c2 21       		.byte	0x21
 1375 08c3 4F060000 		.4byte	0x64f
 1376 08c7 00       		.byte	0
 1377 08c8 05       		.uleb128 0x5
 1378 08c9 4D050000 		.4byte	.LASF121
 1379 08cd 7501     		.2byte	0x175
 1380 08cf 22       		.byte	0x22
 1381 08d0 DC030000 		.4byte	0x3dc
 1382 08d4 0C       		.byte	0xc
 1383 08d5 00       		.byte	0
 1384 08d6 1C       		.uleb128 0x1c
 1385 08d7 14000000 		.4byte	.LASF122
 1386 08db 7601     		.2byte	0x176
 1387 08dd AD080000 		.4byte	0x8ad
 1388 08e1 11       		.uleb128 0x11
 1389 08e2 0B050000 		.4byte	.LASF123
 1390 08e6 14       		.byte	0x14
 1391 08e7 08       		.byte	0x8
 1392 08e8 7B01     		.2byte	0x17b
 1393 08ea 10       		.byte	0x10
 1394 08eb 31090000 		.4byte	0x931
 1395 08ef 05       		.uleb128 0x5
 1396 08f0 85030000 		.4byte	.LASF39
 1397 08f4 7F01     		.2byte	0x17f
 1398 08f6 22       		.byte	0x22
 1399 08f7 7A030000 		.4byte	0x37a
 1400 08fb 00       		.byte	0
 1401 08fc 05       		.uleb128 0x5
 1402 08fd D2040000 		.4byte	.LASF124
 1403 0901 8301     		.2byte	0x183
 1404 0903 22       		.byte	0x22
 1405 0904 A8080000 		.4byte	0x8a8
 1406 0908 04       		.byte	0x4
 1407 0909 05       		.uleb128 0x5
 1408 090a EE000000 		.4byte	.LASF125
 1409 090e 8701     		.2byte	0x187
 1410 0910 22       		.byte	0x22
 1411 0911 A8080000 		.4byte	0x8a8
 1412 0915 08       		.byte	0x8
 1413 0916 05       		.uleb128 0x5
 1414 0917 E1020000 		.4byte	.LASF126
 1415 091b 8C01     		.2byte	0x18c
 1416 091d 22       		.byte	0x22
 1417 091e A8080000 		.4byte	0x8a8
 1418 0922 0C       		.byte	0xc
 1419 0923 05       		.uleb128 0x5
 1420 0924 3F050000 		.4byte	.LASF127
 1421 0928 9001     		.2byte	0x190
 1422 092a 22       		.byte	0x22
 1423 092b A8080000 		.4byte	0x8a8
 1424 092f 10       		.byte	0x10
 1425 0930 00       		.byte	0
ARM GAS  C:\Users\DEVELO~1\AppData\Local\Temp\ccijDB21.s 			page 26


 1426 0931 1C       		.uleb128 0x1c
 1427 0932 3D070000 		.4byte	.LASF128
 1428 0936 9201     		.2byte	0x192
 1429 0938 E1080000 		.4byte	0x8e1
 1430 093c 0D       		.uleb128 0xd
 1431 093d 31090000 		.4byte	0x931
 1432 0941 03       		.uleb128 0x3
 1433 0942 3C090000 		.4byte	0x93c
 1434 0946 02       		.uleb128 0x2
 1435 0947 F0020000 		.4byte	.LASF129
 1436 094b 10       		.byte	0x10
 1437 094c 34       		.byte	0x34
 1438 094d 19       		.byte	0x19
 1439 094e 69080000 		.4byte	0x869
 1440 0952 03       		.uleb128 0x3
 1441 0953 46090000 		.4byte	0x946
 1442 0957 02       		.uleb128 0x2
 1443 0958 51040000 		.4byte	.LASF130
 1444 095c 11       		.byte	0x11
 1445 095d 37       		.byte	0x37
 1446 095e 1F       		.byte	0x1f
 1447 095f 63090000 		.4byte	0x963
 1448 0963 06       		.uleb128 0x6
 1449 0964 22080000 		.4byte	.LASF131
 1450 0968 14       		.byte	0x14
 1451 0969 11       		.byte	0x11
 1452 096a 3C       		.byte	0x3c
 1453 096b 08       		.byte	0x8
 1454 096c B2090000 		.4byte	0x9b2
 1455 0970 01       		.uleb128 0x1
 1456 0971 C3000000 		.4byte	.LASF86
 1457 0975 11       		.byte	0x11
 1458 0976 3D       		.byte	0x3d
 1459 0977 1A       		.byte	0x1a
 1460 0978 B2090000 		.4byte	0x9b2
 1461 097c 00       		.byte	0
 1462 097d 01       		.uleb128 0x1
 1463 097e 94040000 		.4byte	.LASF132
 1464 0982 11       		.byte	0x11
 1465 0983 40       		.byte	0x40
 1466 0984 1A       		.byte	0x1a
 1467 0985 DC030000 		.4byte	0x3dc
 1468 0989 04       		.byte	0x4
 1469 098a 01       		.uleb128 0x1
 1470 098b 39060000 		.4byte	.LASF133
 1471 098f 11       		.byte	0x11
 1472 0990 42       		.byte	0x42
 1473 0991 19       		.byte	0x19
 1474 0992 5A010000 		.4byte	0x15a
 1475 0996 08       		.byte	0x8
 1476 0997 01       		.uleb128 0x1
 1477 0998 9C070000 		.4byte	.LASF37
 1478 099c 11       		.byte	0x11
 1479 099d 44       		.byte	0x44
 1480 099e 19       		.byte	0x19
 1481 099f 66010000 		.4byte	0x166
 1482 09a3 0C       		.byte	0xc
ARM GAS  C:\Users\DEVELO~1\AppData\Local\Temp\ccijDB21.s 			page 27


 1483 09a4 01       		.uleb128 0x1
 1484 09a5 73020000 		.4byte	.LASF134
 1485 09a9 11       		.byte	0x11
 1486 09aa 46       		.byte	0x46
 1487 09ab 19       		.byte	0x19
 1488 09ac 66010000 		.4byte	0x166
 1489 09b0 10       		.byte	0x10
 1490 09b1 00       		.byte	0
 1491 09b2 03       		.uleb128 0x3
 1492 09b3 57090000 		.4byte	0x957
 1493 09b7 06       		.uleb128 0x6
 1494 09b8 7F070000 		.4byte	.LASF135
 1495 09bc 04       		.byte	0x4
 1496 09bd 11       		.byte	0x11
 1497 09be 4D       		.byte	0x4d
 1498 09bf 10       		.byte	0x10
 1499 09c0 D2090000 		.4byte	0x9d2
 1500 09c4 01       		.uleb128 0x1
 1501 09c5 C3000000 		.4byte	.LASF86
 1502 09c9 11       		.byte	0x11
 1503 09ca 4E       		.byte	0x4e
 1504 09cb 1A       		.byte	0x1a
 1505 09cc B2090000 		.4byte	0x9b2
 1506 09d0 00       		.byte	0
 1507 09d1 00       		.byte	0
 1508 09d2 02       		.uleb128 0x2
 1509 09d3 01030000 		.4byte	.LASF136
 1510 09d7 11       		.byte	0x11
 1511 09d8 51       		.byte	0x51
 1512 09d9 03       		.byte	0x3
 1513 09da B7090000 		.4byte	0x9b7
 1514 09de 08       		.uleb128 0x8
 1515 09df 01       		.byte	0x1
 1516 09e0 02       		.byte	0x2
 1517 09e1 AB050000 		.4byte	.LASF137
 1518 09e5 0B       		.uleb128 0xb
 1519 09e6 2D000000 		.4byte	0x2d
 1520 09ea FE090000 		.4byte	0x9fe
 1521 09ee 04       		.uleb128 0x4
 1522 09ef E1030000 		.4byte	0x3e1
 1523 09f3 04       		.uleb128 0x4
 1524 09f4 FE090000 		.4byte	0x9fe
 1525 09f8 04       		.uleb128 0x4
 1526 09f9 2D000000 		.4byte	0x2d
 1527 09fd 00       		.byte	0
 1528 09fe 03       		.uleb128 0x3
 1529 09ff CC000000 		.4byte	0xcc
 1530 0a03 03       		.uleb128 0x3
 1531 0a04 E5090000 		.4byte	0x9e5
 1532 0a08 0B       		.uleb128 0xb
 1533 0a09 2D000000 		.4byte	0x2d
 1534 0a0d 210A0000 		.4byte	0xa21
 1535 0a11 04       		.uleb128 0x4
 1536 0a12 E1030000 		.4byte	0x3e1
 1537 0a16 04       		.uleb128 0x4
 1538 0a17 B4030000 		.4byte	0x3b4
 1539 0a1b 04       		.uleb128 0x4
ARM GAS  C:\Users\DEVELO~1\AppData\Local\Temp\ccijDB21.s 			page 28


 1540 0a1c 2D000000 		.4byte	0x2d
 1541 0a20 00       		.byte	0
 1542 0a21 03       		.uleb128 0x3
 1543 0a22 080A0000 		.4byte	0xa08
 1544 0a26 0B       		.uleb128 0xb
 1545 0a27 4E010000 		.4byte	0x14e
 1546 0a2b 3A0A0000 		.4byte	0xa3a
 1547 0a2f 04       		.uleb128 0x4
 1548 0a30 E1030000 		.4byte	0x3e1
 1549 0a34 04       		.uleb128 0x4
 1550 0a35 C0000000 		.4byte	0xc0
 1551 0a39 00       		.byte	0
 1552 0a3a 03       		.uleb128 0x3
 1553 0a3b 260A0000 		.4byte	0xa26
 1554 0a3f 0B       		.uleb128 0xb
 1555 0a40 4E010000 		.4byte	0x14e
 1556 0a44 4E0A0000 		.4byte	0xa4e
 1557 0a48 04       		.uleb128 0x4
 1558 0a49 E1030000 		.4byte	0x3e1
 1559 0a4d 00       		.byte	0
 1560 0a4e 03       		.uleb128 0x3
 1561 0a4f 3F0A0000 		.4byte	0xa3f
 1562 0a53 0B       		.uleb128 0xb
 1563 0a54 4E010000 		.4byte	0x14e
 1564 0a58 6C0A0000 		.4byte	0xa6c
 1565 0a5c 04       		.uleb128 0x4
 1566 0a5d E1030000 		.4byte	0x3e1
 1567 0a61 04       		.uleb128 0x4
 1568 0a62 C0000000 		.4byte	0xc0
 1569 0a66 04       		.uleb128 0x4
 1570 0a67 A8030000 		.4byte	0x3a8
 1571 0a6b 00       		.byte	0
 1572 0a6c 03       		.uleb128 0x3
 1573 0a6d 530A0000 		.4byte	0xa53
 1574 0a71 0B       		.uleb128 0xb
 1575 0a72 4E010000 		.4byte	0x14e
 1576 0a76 850A0000 		.4byte	0xa85
 1577 0a7a 04       		.uleb128 0x4
 1578 0a7b E1030000 		.4byte	0x3e1
 1579 0a7f 04       		.uleb128 0x4
 1580 0a80 A8030000 		.4byte	0x3a8
 1581 0a84 00       		.byte	0
 1582 0a85 03       		.uleb128 0x3
 1583 0a86 710A0000 		.4byte	0xa71
 1584 0a8a 0B       		.uleb128 0xb
 1585 0a8b 2D000000 		.4byte	0x2d
 1586 0a8f A80A0000 		.4byte	0xaa8
 1587 0a93 04       		.uleb128 0x4
 1588 0a94 E1030000 		.4byte	0x3e1
 1589 0a98 04       		.uleb128 0x4
 1590 0a99 FE090000 		.4byte	0x9fe
 1591 0a9d 04       		.uleb128 0x4
 1592 0a9e 2D000000 		.4byte	0x2d
 1593 0aa2 04       		.uleb128 0x4
 1594 0aa3 A8030000 		.4byte	0x3a8
 1595 0aa7 00       		.byte	0
 1596 0aa8 03       		.uleb128 0x3
ARM GAS  C:\Users\DEVELO~1\AppData\Local\Temp\ccijDB21.s 			page 29


 1597 0aa9 8A0A0000 		.4byte	0xa8a
 1598 0aad 0B       		.uleb128 0xb
 1599 0aae 2D000000 		.4byte	0x2d
 1600 0ab2 CB0A0000 		.4byte	0xacb
 1601 0ab6 04       		.uleb128 0x4
 1602 0ab7 E1030000 		.4byte	0x3e1
 1603 0abb 04       		.uleb128 0x4
 1604 0abc B4030000 		.4byte	0x3b4
 1605 0ac0 04       		.uleb128 0x4
 1606 0ac1 2D000000 		.4byte	0x2d
 1607 0ac5 04       		.uleb128 0x4
 1608 0ac6 A8030000 		.4byte	0x3a8
 1609 0aca 00       		.byte	0
 1610 0acb 03       		.uleb128 0x3
 1611 0acc AD0A0000 		.4byte	0xaad
 1612 0ad0 0B       		.uleb128 0xb
 1613 0ad1 4E010000 		.4byte	0x14e
 1614 0ad5 E90A0000 		.4byte	0xae9
 1615 0ad9 04       		.uleb128 0x4
 1616 0ada E1030000 		.4byte	0x3e1
 1617 0ade 04       		.uleb128 0x4
 1618 0adf 3E000000 		.4byte	0x3e
 1619 0ae3 04       		.uleb128 0x4
 1620 0ae4 E1030000 		.4byte	0x3e1
 1621 0ae8 00       		.byte	0
 1622 0ae9 03       		.uleb128 0x3
 1623 0aea D00A0000 		.4byte	0xad0
 1624 0aee 02       		.uleb128 0x2
 1625 0aef B8000000 		.4byte	.LASF138
 1626 0af3 12       		.byte	0x12
 1627 0af4 3A       		.byte	0x3a
 1628 0af5 19       		.byte	0x19
 1629 0af6 FA0A0000 		.4byte	0xafa
 1630 0afa 06       		.uleb128 0x6
 1631 0afb F8020000 		.4byte	.LASF139
 1632 0aff 24       		.byte	0x24
 1633 0b00 12       		.byte	0x12
 1634 0b01 4B       		.byte	0x4b
 1635 0b02 08       		.byte	0x8
 1636 0b03 700B0000 		.4byte	0xb70
 1637 0b07 01       		.uleb128 0x1
 1638 0b08 E4000000 		.4byte	.LASF140
 1639 0b0c 12       		.byte	0x12
 1640 0b0d 4C       		.byte	0x4c
 1641 0b0e 19       		.byte	0x19
 1642 0b0f 77070000 		.4byte	0x777
 1643 0b13 00       		.byte	0
 1644 0b14 01       		.uleb128 0x1
 1645 0b15 B4040000 		.4byte	.LASF141
 1646 0b19 12       		.byte	0x12
 1647 0b1a 4D       		.byte	0x4d
 1648 0b1b 19       		.byte	0x19
 1649 0b1c 39000000 		.4byte	0x39
 1650 0b20 08       		.byte	0x8
 1651 0b21 01       		.uleb128 0x1
 1652 0b22 31020000 		.4byte	.LASF142
 1653 0b26 12       		.byte	0x12
ARM GAS  C:\Users\DEVELO~1\AppData\Local\Temp\ccijDB21.s 			page 30


 1654 0b27 4E       		.byte	0x4e
 1655 0b28 1A       		.byte	0x1a
 1656 0b29 B4030000 		.4byte	0x3b4
 1657 0b2d 0C       		.byte	0xc
 1658 0b2e 01       		.uleb128 0x1
 1659 0b2f 52070000 		.4byte	.LASF143
 1660 0b33 12       		.byte	0x12
 1661 0b34 4F       		.byte	0x4f
 1662 0b35 1A       		.byte	0x1a
 1663 0b36 B4030000 		.4byte	0x3b4
 1664 0b3a 10       		.byte	0x10
 1665 0b3b 01       		.uleb128 0x1
 1666 0b3c F9040000 		.4byte	.LASF144
 1667 0b40 12       		.byte	0x12
 1668 0b41 51       		.byte	0x51
 1669 0b42 1A       		.byte	0x1a
 1670 0b43 B4030000 		.4byte	0x3b4
 1671 0b47 14       		.byte	0x14
 1672 0b48 01       		.uleb128 0x1
 1673 0b49 93050000 		.4byte	.LASF145
 1674 0b4d 12       		.byte	0x12
 1675 0b4e 52       		.byte	0x52
 1676 0b4f 1A       		.byte	0x1a
 1677 0b50 B4030000 		.4byte	0x3b4
 1678 0b54 18       		.byte	0x18
 1679 0b55 01       		.uleb128 0x1
 1680 0b56 70070000 		.4byte	.LASF146
 1681 0b5a 12       		.byte	0x12
 1682 0b5b 53       		.byte	0x53
 1683 0b5c 19       		.byte	0x19
 1684 0b5d 700B0000 		.4byte	0xb70
 1685 0b61 1C       		.byte	0x1c
 1686 0b62 01       		.uleb128 0x1
 1687 0b63 03080000 		.4byte	.LASF147
 1688 0b67 12       		.byte	0x12
 1689 0b68 54       		.byte	0x54
 1690 0b69 1A       		.byte	0x1a
 1691 0b6a E1030000 		.4byte	0x3e1
 1692 0b6e 20       		.byte	0x20
 1693 0b6f 00       		.byte	0
 1694 0b70 02       		.uleb128 0x2
 1695 0b71 7C050000 		.4byte	.LASF148
 1696 0b75 12       		.byte	0x12
 1697 0b76 41       		.byte	0x41
 1698 0b77 10       		.byte	0x10
 1699 0b78 7C0B0000 		.4byte	0xb7c
 1700 0b7c 03       		.uleb128 0x3
 1701 0b7d 810B0000 		.4byte	0xb81
 1702 0b81 1B       		.uleb128 0x1b
 1703 0b82 8C0B0000 		.4byte	0xb8c
 1704 0b86 04       		.uleb128 0x4
 1705 0b87 8C0B0000 		.4byte	0xb8c
 1706 0b8b 00       		.byte	0
 1707 0b8c 03       		.uleb128 0x3
 1708 0b8d EE0A0000 		.4byte	0xaee
 1709 0b91 02       		.uleb128 0x2
 1710 0b92 62040000 		.4byte	.LASF149
ARM GAS  C:\Users\DEVELO~1\AppData\Local\Temp\ccijDB21.s 			page 31


 1711 0b96 12       		.byte	0x12
 1712 0b97 61       		.byte	0x61
 1713 0b98 14       		.byte	0x14
 1714 0b99 EE0A0000 		.4byte	0xaee
 1715 0b9d 02       		.uleb128 0x2
 1716 0b9e 2E070000 		.4byte	.LASF150
 1717 0ba2 12       		.byte	0x12
 1718 0ba3 6D       		.byte	0x6d
 1719 0ba4 14       		.byte	0x14
 1720 0ba5 EE0A0000 		.4byte	0xaee
 1721 0ba9 26       		.uleb128 0x26
 1722 0baa 07       		.byte	0x7
 1723 0bab 01       		.byte	0x1
 1724 0bac 66000000 		.4byte	0x66
 1725 0bb0 13       		.byte	0x13
 1726 0bb1 2F       		.byte	0x2f
 1727 0bb2 0E       		.byte	0xe
 1728 0bb3 CA0B0000 		.4byte	0xbca
 1729 0bb7 18       		.uleb128 0x18
 1730 0bb8 01050000 		.4byte	.LASF151
 1731 0bbc 00       		.byte	0
 1732 0bbd 18       		.uleb128 0x18
 1733 0bbe 94070000 		.4byte	.LASF152
 1734 0bc2 01       		.byte	0x1
 1735 0bc3 18       		.uleb128 0x18
 1736 0bc4 FC030000 		.4byte	.LASF153
 1737 0bc8 02       		.byte	0x2
 1738 0bc9 00       		.byte	0
 1739 0bca 02       		.uleb128 0x2
 1740 0bcb 76030000 		.4byte	.LASF154
 1741 0bcf 13       		.byte	0x13
 1742 0bd0 33       		.byte	0x33
 1743 0bd1 03       		.byte	0x3
 1744 0bd2 A90B0000 		.4byte	0xba9
 1745 0bd6 02       		.uleb128 0x2
 1746 0bd7 05000000 		.4byte	.LASF155
 1747 0bdb 13       		.byte	0x13
 1748 0bdc 38       		.byte	0x38
 1749 0bdd 24       		.byte	0x24
 1750 0bde E20B0000 		.4byte	0xbe2
 1751 0be2 06       		.uleb128 0x6
 1752 0be3 ED050000 		.4byte	.LASF156
 1753 0be7 54       		.byte	0x54
 1754 0be8 13       		.byte	0x13
 1755 0be9 5C       		.byte	0x5c
 1756 0bea 08       		.byte	0x8
 1757 0beb 310C0000 		.4byte	0xc31
 1758 0bef 07       		.uleb128 0x7
 1759 0bf0 766D7400 		.ascii	"vmt\000"
 1760 0bf4 13       		.byte	0x13
 1761 0bf5 5E       		.byte	0x5e
 1762 0bf6 23       		.byte	0x23
 1763 0bf7 C60C0000 		.4byte	0xcc6
 1764 0bfb 00       		.byte	0
 1765 0bfc 01       		.uleb128 0x1
 1766 0bfd A9030000 		.4byte	.LASF157
 1767 0c01 13       		.byte	0x13
ARM GAS  C:\Users\DEVELO~1\AppData\Local\Temp\ccijDB21.s 			page 32


 1768 0c02 5F       		.byte	0x5f
 1769 0c03 03       		.byte	0x3
 1770 0c04 D2090000 		.4byte	0x9d2
 1771 0c08 04       		.byte	0x4
 1772 0c09 01       		.uleb128 0x1
 1773 0c0a 52010000 		.4byte	.LASF36
 1774 0c0e 13       		.byte	0x13
 1775 0c0f 5F       		.byte	0x5f
 1776 0c10 03       		.byte	0x3
 1777 0c11 CA0B0000 		.4byte	0xbca
 1778 0c15 08       		.byte	0x8
 1779 0c16 01       		.uleb128 0x1
 1780 0c17 57030000 		.4byte	.LASF158
 1781 0c1b 13       		.byte	0x13
 1782 0c1c 5F       		.byte	0x5f
 1783 0c1d 03       		.byte	0x3
 1784 0c1e 910B0000 		.4byte	0xb91
 1785 0c22 0C       		.byte	0xc
 1786 0c23 01       		.uleb128 0x1
 1787 0c24 E6050000 		.4byte	.LASF159
 1788 0c28 13       		.byte	0x13
 1789 0c29 5F       		.byte	0x5f
 1790 0c2a 03       		.byte	0x3
 1791 0c2b 9D0B0000 		.4byte	0xb9d
 1792 0c2f 30       		.byte	0x30
 1793 0c30 00       		.byte	0
 1794 0c31 06       		.uleb128 0x6
 1795 0c32 E7040000 		.4byte	.LASF160
 1796 0c36 28       		.byte	0x28
 1797 0c37 13       		.byte	0x13
 1798 0c38 45       		.byte	0x45
 1799 0c39 08       		.byte	0x8
 1800 0c3a C10C0000 		.4byte	0xcc1
 1801 0c3e 01       		.uleb128 0x1
 1802 0c3f DF070000 		.4byte	.LASF161
 1803 0c43 13       		.byte	0x13
 1804 0c44 46       		.byte	0x46
 1805 0c45 03       		.byte	0x3
 1806 0c46 2D000000 		.4byte	0x2d
 1807 0c4a 00       		.byte	0
 1808 0c4b 01       		.uleb128 0x1
 1809 0c4c 34000000 		.4byte	.LASF162
 1810 0c50 13       		.byte	0x13
 1811 0c51 46       		.byte	0x46
 1812 0c52 03       		.byte	0x3
 1813 0c53 030A0000 		.4byte	0xa03
 1814 0c57 04       		.byte	0x4
 1815 0c58 01       		.uleb128 0x1
 1816 0c59 A2070000 		.4byte	.LASF163
 1817 0c5d 13       		.byte	0x13
 1818 0c5e 46       		.byte	0x46
 1819 0c5f 03       		.byte	0x3
 1820 0c60 210A0000 		.4byte	0xa21
 1821 0c64 08       		.byte	0x8
 1822 0c65 07       		.uleb128 0x7
 1823 0c66 70757400 		.ascii	"put\000"
 1824 0c6a 13       		.byte	0x13
ARM GAS  C:\Users\DEVELO~1\AppData\Local\Temp\ccijDB21.s 			page 33


 1825 0c6b 46       		.byte	0x46
 1826 0c6c 03       		.byte	0x3
 1827 0c6d 3A0A0000 		.4byte	0xa3a
 1828 0c71 0C       		.byte	0xc
 1829 0c72 07       		.uleb128 0x7
 1830 0c73 67657400 		.ascii	"get\000"
 1831 0c77 13       		.byte	0x13
 1832 0c78 46       		.byte	0x46
 1833 0c79 03       		.byte	0x3
 1834 0c7a 4E0A0000 		.4byte	0xa4e
 1835 0c7e 10       		.byte	0x10
 1836 0c7f 01       		.uleb128 0x1
 1837 0c80 70040000 		.4byte	.LASF164
 1838 0c84 13       		.byte	0x13
 1839 0c85 46       		.byte	0x46
 1840 0c86 03       		.byte	0x3
 1841 0c87 6C0A0000 		.4byte	0xa6c
 1842 0c8b 14       		.byte	0x14
 1843 0c8c 01       		.uleb128 0x1
 1844 0c8d 80030000 		.4byte	.LASF165
 1845 0c91 13       		.byte	0x13
 1846 0c92 46       		.byte	0x46
 1847 0c93 03       		.byte	0x3
 1848 0c94 850A0000 		.4byte	0xa85
 1849 0c98 18       		.byte	0x18
 1850 0c99 01       		.uleb128 0x1
 1851 0c9a ED030000 		.4byte	.LASF166
 1852 0c9e 13       		.byte	0x13
 1853 0c9f 46       		.byte	0x46
 1854 0ca0 03       		.byte	0x3
 1855 0ca1 A80A0000 		.4byte	0xaa8
 1856 0ca5 1C       		.byte	0x1c
 1857 0ca6 01       		.uleb128 0x1
 1858 0ca7 D9000000 		.4byte	.LASF167
 1859 0cab 13       		.byte	0x13
 1860 0cac 46       		.byte	0x46
 1861 0cad 03       		.byte	0x3
 1862 0cae CB0A0000 		.4byte	0xacb
 1863 0cb2 20       		.byte	0x20
 1864 0cb3 07       		.uleb128 0x7
 1865 0cb4 63746C00 		.ascii	"ctl\000"
 1866 0cb8 13       		.byte	0x13
 1867 0cb9 46       		.byte	0x46
 1868 0cba 03       		.byte	0x3
 1869 0cbb E90A0000 		.4byte	0xae9
 1870 0cbf 24       		.byte	0x24
 1871 0cc0 00       		.byte	0
 1872 0cc1 0D       		.uleb128 0xd
 1873 0cc2 310C0000 		.4byte	0xc31
 1874 0cc6 03       		.uleb128 0x3
 1875 0cc7 C10C0000 		.4byte	0xcc1
 1876 0ccb 1D       		.uleb128 0x1d
 1877 0ccc 2E050000 		.4byte	.LASF168
 1878 0cd0 3D01     		.2byte	0x13d
 1879 0cd2 4E010000 		.4byte	0x14e
 1880 0cd6 E00C0000 		.4byte	0xce0
 1881 0cda 04       		.uleb128 0x4
ARM GAS  C:\Users\DEVELO~1\AppData\Local\Temp\ccijDB21.s 			page 34


 1882 0cdb E00C0000 		.4byte	0xce0
 1883 0cdf 00       		.byte	0
 1884 0ce0 03       		.uleb128 0x3
 1885 0ce1 9D0B0000 		.4byte	0xb9d
 1886 0ce5 27       		.uleb128 0x27
 1887 0ce6 52020000 		.4byte	.LASF174
 1888 0cea 11       		.byte	0x11
 1889 0ceb 91       		.byte	0x91
 1890 0cec 08       		.byte	0x8
 1891 0ced FC0C0000 		.4byte	0xcfc
 1892 0cf1 04       		.uleb128 0x4
 1893 0cf2 FC0C0000 		.4byte	0xcfc
 1894 0cf6 04       		.uleb128 0x4
 1895 0cf7 66010000 		.4byte	0x166
 1896 0cfb 00       		.byte	0
 1897 0cfc 03       		.uleb128 0x3
 1898 0cfd D2090000 		.4byte	0x9d2
 1899 0d01 1D       		.uleb128 0x1d
 1900 0d02 41030000 		.4byte	.LASF169
 1901 0d06 3101     		.2byte	0x131
 1902 0d08 4E010000 		.4byte	0x14e
 1903 0d0c 1B0D0000 		.4byte	0xd1b
 1904 0d10 04       		.uleb128 0x4
 1905 0d11 1B0D0000 		.4byte	0xd1b
 1906 0d15 04       		.uleb128 0x4
 1907 0d16 C0000000 		.4byte	0xc0
 1908 0d1a 00       		.byte	0
 1909 0d1b 03       		.uleb128 0x3
 1910 0d1c 910B0000 		.4byte	0xb91
 1911 0d20 28       		.uleb128 0x28
 1912 0d21 F4070000 		.4byte	.LASF175
 1913 0d25 01       		.byte	0x1
 1914 0d26 58       		.byte	0x58
 1915 0d27 07       		.byte	0x7
 1916 0d28 4E010000 		.4byte	0x14e
 1917 0d2c 00000000 		.4byte	.LFB449
 1918 0d30 1E000000 		.4byte	.LFE449-.LFB449
 1919 0d34 01       		.uleb128 0x1
 1920 0d35 9C       		.byte	0x9c
 1921 0d36 C00D0000 		.4byte	0xdc0
 1922 0d3a 19       		.uleb128 0x19
 1923 0d3b 62737000 		.ascii	"bsp\000"
 1924 0d3f 58       		.byte	0x58
 1925 0d40 26       		.byte	0x26
 1926 0d41 C00D0000 		.4byte	0xdc0
 1927 0d45 10000000 		.4byte	.LLST6
 1928 0d49 0C000000 		.4byte	.LVUS6
 1929 0d4d 29       		.uleb128 0x29
 1930 0d4e 6200     		.ascii	"b\000"
 1931 0d50 01       		.byte	0x1
 1932 0d51 59       		.byte	0x59
 1933 0d52 0A       		.byte	0xa
 1934 0d53 4E010000 		.4byte	0x14e
 1935 0d57 24000000 		.4byte	.LLST7
 1936 0d5b 20000000 		.4byte	.LVUS7
 1937 0d5f 1E       		.uleb128 0x1e
 1938 0d60 01060000 		.4byte	.LASF170
ARM GAS  C:\Users\DEVELO~1\AppData\Local\Temp\ccijDB21.s 			page 35


 1939 0d64 D50D0000 		.4byte	0xdd5
 1940 0d68 1F       		.uleb128 0x1f
 1941 0d69 EE0E0000 		.4byte	0xeee
 1942 0d6d 12000000 		.4byte	.LBI14
 1943 0d71 01       		.byte	.LVU50
 1944 0d72 12000000 		.4byte	.LBB14
 1945 0d76 08000000 		.4byte	.LBE14-.LBB14
 1946 0d7a 60       		.byte	0x60
 1947 0d7b AF0D0000 		.4byte	0xdaf
 1948 0d7f 10       		.uleb128 0x10
 1949 0d80 050F0000 		.4byte	0xf05
 1950 0d84 36000000 		.4byte	.LLST8
 1951 0d88 34000000 		.4byte	.LVUS8
 1952 0d8c 10       		.uleb128 0x10
 1953 0d8d F80E0000 		.4byte	0xef8
 1954 0d91 46000000 		.4byte	.LLST9
 1955 0d95 40000000 		.4byte	.LVUS9
 1956 0d99 12       		.uleb128 0x12
 1957 0d9a 1A000000 		.4byte	.LVL18
 1958 0d9e E50C0000 		.4byte	0xce5
 1959 0da2 0A       		.uleb128 0xa
 1960 0da3 01       		.uleb128 0x1
 1961 0da4 50       		.byte	0x50
 1962 0da5 02       		.uleb128 0x2
 1963 0da6 75       		.byte	0x75
 1964 0da7 04       		.sleb128 4
 1965 0da8 0A       		.uleb128 0xa
 1966 0da9 01       		.uleb128 0x1
 1967 0daa 51       		.byte	0x51
 1968 0dab 01       		.uleb128 0x1
 1969 0dac 38       		.byte	0x38
 1970 0dad 00       		.byte	0
 1971 0dae 00       		.byte	0
 1972 0daf 12       		.uleb128 0x12
 1973 0db0 0A000000 		.4byte	.LVL15
 1974 0db4 CB0C0000 		.4byte	0xccb
 1975 0db8 0A       		.uleb128 0xa
 1976 0db9 01       		.uleb128 0x1
 1977 0dba 50       		.byte	0x50
 1978 0dbb 02       		.uleb128 0x2
 1979 0dbc 75       		.byte	0x75
 1980 0dbd 30       		.sleb128 48
 1981 0dbe 00       		.byte	0
 1982 0dbf 00       		.byte	0
 1983 0dc0 03       		.uleb128 0x3
 1984 0dc1 D60B0000 		.4byte	0xbd6
 1985 0dc5 16       		.uleb128 0x16
 1986 0dc6 8B030000 		.4byte	0x38b
 1987 0dca D50D0000 		.4byte	0xdd5
 1988 0dce 17       		.uleb128 0x17
 1989 0dcf 3E000000 		.4byte	0x3e
 1990 0dd3 0E       		.byte	0xe
 1991 0dd4 00       		.byte	0
 1992 0dd5 0D       		.uleb128 0xd
 1993 0dd6 C50D0000 		.4byte	0xdc5
 1994 0dda 2A       		.uleb128 0x2a
 1995 0ddb 12080000 		.4byte	.LASF176
ARM GAS  C:\Users\DEVELO~1\AppData\Local\Temp\ccijDB21.s 			page 36


 1996 0ddf 01       		.byte	0x1
 1997 0de0 3C       		.byte	0x3c
 1998 0de1 06       		.byte	0x6
 1999 0de2 00000000 		.4byte	.LFB448
 2000 0de6 3E000000 		.4byte	.LFE448-.LFB448
 2001 0dea 01       		.uleb128 0x1
 2002 0deb 9C       		.byte	0x9c
 2003 0dec D90E0000 		.4byte	0xed9
 2004 0df0 19       		.uleb128 0x19
 2005 0df1 62737000 		.ascii	"bsp\000"
 2006 0df5 3C       		.byte	0x3c
 2007 0df6 26       		.byte	0x26
 2008 0df7 C00D0000 		.4byte	0xdc0
 2009 0dfb 6B000000 		.4byte	.LLST0
 2010 0dff 5F000000 		.4byte	.LVUS0
 2011 0e03 19       		.uleb128 0x19
 2012 0e04 6200     		.ascii	"b\000"
 2013 0e06 3C       		.byte	0x3c
 2014 0e07 33       		.byte	0x33
 2015 0e08 C0000000 		.4byte	0xc0
 2016 0e0c 9C000000 		.4byte	.LLST1
 2017 0e10 94000000 		.4byte	.LVUS1
 2018 0e14 1E       		.uleb128 0x1e
 2019 0e15 01060000 		.4byte	.LASF170
 2020 0e19 E90E0000 		.4byte	0xee9
 2021 0e1d 1F       		.uleb128 0x1f
 2022 0e1e EE0E0000 		.4byte	0xeee
 2023 0e22 1A000000 		.4byte	.LBI8
 2024 0e26 01       		.byte	.LVU18
 2025 0e27 1A000000 		.4byte	.LBB8
 2026 0e2b 08000000 		.4byte	.LBE8-.LBB8
 2027 0e2f 42       		.byte	0x42
 2028 0e30 640E0000 		.4byte	0xe64
 2029 0e34 10       		.uleb128 0x10
 2030 0e35 050F0000 		.4byte	0xf05
 2031 0e39 BE000000 		.4byte	.LLST2
 2032 0e3d BC000000 		.4byte	.LVUS2
 2033 0e41 10       		.uleb128 0x10
 2034 0e42 F80E0000 		.4byte	0xef8
 2035 0e46 CE000000 		.4byte	.LLST3
 2036 0e4a C8000000 		.4byte	.LVUS3
 2037 0e4e 12       		.uleb128 0x12
 2038 0e4f 22000000 		.4byte	.LVL7
 2039 0e53 E50C0000 		.4byte	0xce5
 2040 0e57 0A       		.uleb128 0xa
 2041 0e58 01       		.uleb128 0x1
 2042 0e59 50       		.byte	0x50
 2043 0e5a 02       		.uleb128 0x2
 2044 0e5b 74       		.byte	0x74
 2045 0e5c 04       		.sleb128 4
 2046 0e5d 0A       		.uleb128 0xa
 2047 0e5e 01       		.uleb128 0x1
 2048 0e5f 51       		.byte	0x51
 2049 0e60 01       		.uleb128 0x1
 2050 0e61 34       		.byte	0x34
 2051 0e62 00       		.byte	0
 2052 0e63 00       		.byte	0
ARM GAS  C:\Users\DEVELO~1\AppData\Local\Temp\ccijDB21.s 			page 37


 2053 0e64 2B       		.uleb128 0x2b
 2054 0e65 EE0E0000 		.4byte	0xeee
 2055 0e69 30000000 		.4byte	.LBI10
 2056 0e6d 01       		.byte	.LVU28
 2057 0e6e 0C000000 		.4byte	.LLRL4
 2058 0e72 01       		.byte	0x1
 2059 0e73 46       		.byte	0x46
 2060 0e74 05       		.byte	0x5
 2061 0e75 A80E0000 		.4byte	0xea8
 2062 0e79 2C       		.uleb128 0x2c
 2063 0e7a 050F0000 		.4byte	0xf05
 2064 0e7e 0008     		.2byte	0x800
 2065 0e80 10       		.uleb128 0x10
 2066 0e81 F80E0000 		.4byte	0xef8
 2067 0e85 ED000000 		.4byte	.LLST5
 2068 0e89 E7000000 		.4byte	.LVUS5
 2069 0e8d 2D       		.uleb128 0x2d
 2070 0e8e 3E000000 		.4byte	.LVL12
 2071 0e92 E50C0000 		.4byte	0xce5
 2072 0e96 0A       		.uleb128 0xa
 2073 0e97 01       		.uleb128 0x1
 2074 0e98 50       		.byte	0x50
 2075 0e99 05       		.uleb128 0x5
 2076 0e9a A3       		.byte	0xa3
 2077 0e9b 01       		.uleb128 0x1
 2078 0e9c 50       		.byte	0x50
 2079 0e9d 23       		.byte	0x23
 2080 0e9e 04       		.uleb128 0x4
 2081 0e9f 0A       		.uleb128 0xa
 2082 0ea0 01       		.uleb128 0x1
 2083 0ea1 51       		.byte	0x51
 2084 0ea2 03       		.uleb128 0x3
 2085 0ea3 0A       		.byte	0xa
 2086 0ea4 0008     		.2byte	0x800
 2087 0ea6 00       		.byte	0
 2088 0ea7 00       		.byte	0
 2089 0ea8 2E       		.uleb128 0x2e
 2090 0ea9 14000000 		.4byte	.LVL3
 2091 0ead 010D0000 		.4byte	0xd01
 2092 0eb1 C20E0000 		.4byte	0xec2
 2093 0eb5 0A       		.uleb128 0xa
 2094 0eb6 01       		.uleb128 0x1
 2095 0eb7 50       		.byte	0x50
 2096 0eb8 02       		.uleb128 0x2
 2097 0eb9 74       		.byte	0x74
 2098 0eba 0C       		.sleb128 12
 2099 0ebb 0A       		.uleb128 0xa
 2100 0ebc 01       		.uleb128 0x1
 2101 0ebd 51       		.byte	0x51
 2102 0ebe 02       		.uleb128 0x2
 2103 0ebf 75       		.byte	0x75
 2104 0ec0 00       		.sleb128 0
 2105 0ec1 00       		.byte	0
 2106 0ec2 12       		.uleb128 0x12
 2107 0ec3 2C000000 		.4byte	.LVL8
 2108 0ec7 010D0000 		.4byte	0xd01
 2109 0ecb 0A       		.uleb128 0xa
ARM GAS  C:\Users\DEVELO~1\AppData\Local\Temp\ccijDB21.s 			page 38


 2110 0ecc 01       		.uleb128 0x1
 2111 0ecd 50       		.byte	0x50
 2112 0ece 02       		.uleb128 0x2
 2113 0ecf 74       		.byte	0x74
 2114 0ed0 0C       		.sleb128 12
 2115 0ed1 0A       		.uleb128 0xa
 2116 0ed2 01       		.uleb128 0x1
 2117 0ed3 51       		.byte	0x51
 2118 0ed4 02       		.uleb128 0x2
 2119 0ed5 75       		.byte	0x75
 2120 0ed6 00       		.sleb128 0
 2121 0ed7 00       		.byte	0
 2122 0ed8 00       		.byte	0
 2123 0ed9 16       		.uleb128 0x16
 2124 0eda 8B030000 		.4byte	0x38b
 2125 0ede E90E0000 		.4byte	0xee9
 2126 0ee2 17       		.uleb128 0x17
 2127 0ee3 3E000000 		.4byte	0x3e
 2128 0ee7 0F       		.byte	0xf
 2129 0ee8 00       		.byte	0
 2130 0ee9 0D       		.uleb128 0xd
 2131 0eea D90E0000 		.4byte	0xed9
 2132 0eee 2F       		.uleb128 0x2f
 2133 0eef 50060000 		.4byte	.LASF177
 2134 0ef3 02       		.byte	0x2
 2135 0ef4 BC03     		.2byte	0x3bc
 2136 0ef6 14       		.byte	0x14
 2137 0ef7 03       		.byte	0x3
 2138 0ef8 30       		.uleb128 0x30
 2139 0ef9 65737000 		.ascii	"esp\000"
 2140 0efd 02       		.byte	0x2
 2141 0efe BC03     		.2byte	0x3bc
 2142 0f00 3D       		.byte	0x3d
 2143 0f01 FC0C0000 		.4byte	0xcfc
 2144 0f05 31       		.uleb128 0x31
 2145 0f06 9C070000 		.4byte	.LASF37
 2146 0f0a 02       		.byte	0x2
 2147 0f0b BD03     		.2byte	0x3bd
 2148 0f0d 3A       		.byte	0x3a
 2149 0f0e 66010000 		.4byte	0x166
 2150 0f12 00       		.byte	0
 2151 0f13 00       		.byte	0
 2152              		.section	.debug_abbrev,"",%progbits
 2153              	.Ldebug_abbrev0:
 2154 0000 01       		.uleb128 0x1
 2155 0001 0D       		.uleb128 0xd
 2156 0002 00       		.byte	0
 2157 0003 03       		.uleb128 0x3
 2158 0004 0E       		.uleb128 0xe
 2159 0005 3A       		.uleb128 0x3a
 2160 0006 0B       		.uleb128 0xb
 2161 0007 3B       		.uleb128 0x3b
 2162 0008 0B       		.uleb128 0xb
 2163 0009 39       		.uleb128 0x39
 2164 000a 0B       		.uleb128 0xb
 2165 000b 49       		.uleb128 0x49
 2166 000c 13       		.uleb128 0x13
ARM GAS  C:\Users\DEVELO~1\AppData\Local\Temp\ccijDB21.s 			page 39


 2167 000d 38       		.uleb128 0x38
 2168 000e 0B       		.uleb128 0xb
 2169 000f 00       		.byte	0
 2170 0010 00       		.byte	0
 2171 0011 02       		.uleb128 0x2
 2172 0012 16       		.uleb128 0x16
 2173 0013 00       		.byte	0
 2174 0014 03       		.uleb128 0x3
 2175 0015 0E       		.uleb128 0xe
 2176 0016 3A       		.uleb128 0x3a
 2177 0017 0B       		.uleb128 0xb
 2178 0018 3B       		.uleb128 0x3b
 2179 0019 0B       		.uleb128 0xb
 2180 001a 39       		.uleb128 0x39
 2181 001b 0B       		.uleb128 0xb
 2182 001c 49       		.uleb128 0x49
 2183 001d 13       		.uleb128 0x13
 2184 001e 00       		.byte	0
 2185 001f 00       		.byte	0
 2186 0020 03       		.uleb128 0x3
 2187 0021 0F       		.uleb128 0xf
 2188 0022 00       		.byte	0
 2189 0023 0B       		.uleb128 0xb
 2190 0024 21       		.uleb128 0x21
 2191 0025 04       		.sleb128 4
 2192 0026 49       		.uleb128 0x49
 2193 0027 13       		.uleb128 0x13
 2194 0028 00       		.byte	0
 2195 0029 00       		.byte	0
 2196 002a 04       		.uleb128 0x4
 2197 002b 05       		.uleb128 0x5
 2198 002c 00       		.byte	0
 2199 002d 49       		.uleb128 0x49
 2200 002e 13       		.uleb128 0x13
 2201 002f 00       		.byte	0
 2202 0030 00       		.byte	0
 2203 0031 05       		.uleb128 0x5
 2204 0032 0D       		.uleb128 0xd
 2205 0033 00       		.byte	0
 2206 0034 03       		.uleb128 0x3
 2207 0035 0E       		.uleb128 0xe
 2208 0036 3A       		.uleb128 0x3a
 2209 0037 21       		.uleb128 0x21
 2210 0038 08       		.sleb128 8
 2211 0039 3B       		.uleb128 0x3b
 2212 003a 05       		.uleb128 0x5
 2213 003b 39       		.uleb128 0x39
 2214 003c 0B       		.uleb128 0xb
 2215 003d 49       		.uleb128 0x49
 2216 003e 13       		.uleb128 0x13
 2217 003f 38       		.uleb128 0x38
 2218 0040 0B       		.uleb128 0xb
 2219 0041 00       		.byte	0
 2220 0042 00       		.byte	0
 2221 0043 06       		.uleb128 0x6
 2222 0044 13       		.uleb128 0x13
 2223 0045 01       		.byte	0x1
ARM GAS  C:\Users\DEVELO~1\AppData\Local\Temp\ccijDB21.s 			page 40


 2224 0046 03       		.uleb128 0x3
 2225 0047 0E       		.uleb128 0xe
 2226 0048 0B       		.uleb128 0xb
 2227 0049 0B       		.uleb128 0xb
 2228 004a 3A       		.uleb128 0x3a
 2229 004b 0B       		.uleb128 0xb
 2230 004c 3B       		.uleb128 0x3b
 2231 004d 0B       		.uleb128 0xb
 2232 004e 39       		.uleb128 0x39
 2233 004f 0B       		.uleb128 0xb
 2234 0050 01       		.uleb128 0x1
 2235 0051 13       		.uleb128 0x13
 2236 0052 00       		.byte	0
 2237 0053 00       		.byte	0
 2238 0054 07       		.uleb128 0x7
 2239 0055 0D       		.uleb128 0xd
 2240 0056 00       		.byte	0
 2241 0057 03       		.uleb128 0x3
 2242 0058 08       		.uleb128 0x8
 2243 0059 3A       		.uleb128 0x3a
 2244 005a 0B       		.uleb128 0xb
 2245 005b 3B       		.uleb128 0x3b
 2246 005c 0B       		.uleb128 0xb
 2247 005d 39       		.uleb128 0x39
 2248 005e 0B       		.uleb128 0xb
 2249 005f 49       		.uleb128 0x49
 2250 0060 13       		.uleb128 0x13
 2251 0061 38       		.uleb128 0x38
 2252 0062 0B       		.uleb128 0xb
 2253 0063 00       		.byte	0
 2254 0064 00       		.byte	0
 2255 0065 08       		.uleb128 0x8
 2256 0066 24       		.uleb128 0x24
 2257 0067 00       		.byte	0
 2258 0068 0B       		.uleb128 0xb
 2259 0069 0B       		.uleb128 0xb
 2260 006a 3E       		.uleb128 0x3e
 2261 006b 0B       		.uleb128 0xb
 2262 006c 03       		.uleb128 0x3
 2263 006d 0E       		.uleb128 0xe
 2264 006e 00       		.byte	0
 2265 006f 00       		.byte	0
 2266 0070 09       		.uleb128 0x9
 2267 0071 0D       		.uleb128 0xd
 2268 0072 00       		.byte	0
 2269 0073 03       		.uleb128 0x3
 2270 0074 08       		.uleb128 0x8
 2271 0075 3A       		.uleb128 0x3a
 2272 0076 0B       		.uleb128 0xb
 2273 0077 3B       		.uleb128 0x3b
 2274 0078 05       		.uleb128 0x5
 2275 0079 39       		.uleb128 0x39
 2276 007a 0B       		.uleb128 0xb
 2277 007b 49       		.uleb128 0x49
 2278 007c 13       		.uleb128 0x13
 2279 007d 38       		.uleb128 0x38
 2280 007e 0B       		.uleb128 0xb
ARM GAS  C:\Users\DEVELO~1\AppData\Local\Temp\ccijDB21.s 			page 41


 2281 007f 00       		.byte	0
 2282 0080 00       		.byte	0
 2283 0081 0A       		.uleb128 0xa
 2284 0082 49       		.uleb128 0x49
 2285 0083 00       		.byte	0
 2286 0084 02       		.uleb128 0x2
 2287 0085 18       		.uleb128 0x18
 2288 0086 7E       		.uleb128 0x7e
 2289 0087 18       		.uleb128 0x18
 2290 0088 00       		.byte	0
 2291 0089 00       		.byte	0
 2292 008a 0B       		.uleb128 0xb
 2293 008b 15       		.uleb128 0x15
 2294 008c 01       		.byte	0x1
 2295 008d 27       		.uleb128 0x27
 2296 008e 19       		.uleb128 0x19
 2297 008f 49       		.uleb128 0x49
 2298 0090 13       		.uleb128 0x13
 2299 0091 01       		.uleb128 0x1
 2300 0092 13       		.uleb128 0x13
 2301 0093 00       		.byte	0
 2302 0094 00       		.byte	0
 2303 0095 0C       		.uleb128 0xc
 2304 0096 0D       		.uleb128 0xd
 2305 0097 00       		.byte	0
 2306 0098 03       		.uleb128 0x3
 2307 0099 0E       		.uleb128 0xe
 2308 009a 3A       		.uleb128 0x3a
 2309 009b 21       		.uleb128 0x21
 2310 009c 08       		.sleb128 8
 2311 009d 3B       		.uleb128 0x3b
 2312 009e 05       		.uleb128 0x5
 2313 009f 39       		.uleb128 0x39
 2314 00a0 0B       		.uleb128 0xb
 2315 00a1 49       		.uleb128 0x49
 2316 00a2 13       		.uleb128 0x13
 2317 00a3 00       		.byte	0
 2318 00a4 00       		.byte	0
 2319 00a5 0D       		.uleb128 0xd
 2320 00a6 26       		.uleb128 0x26
 2321 00a7 00       		.byte	0
 2322 00a8 49       		.uleb128 0x49
 2323 00a9 13       		.uleb128 0x13
 2324 00aa 00       		.byte	0
 2325 00ab 00       		.byte	0
 2326 00ac 0E       		.uleb128 0xe
 2327 00ad 13       		.uleb128 0x13
 2328 00ae 01       		.byte	0x1
 2329 00af 0B       		.uleb128 0xb
 2330 00b0 0B       		.uleb128 0xb
 2331 00b1 3A       		.uleb128 0x3a
 2332 00b2 21       		.uleb128 0x21
 2333 00b3 0C       		.sleb128 12
 2334 00b4 3B       		.uleb128 0x3b
 2335 00b5 0B       		.uleb128 0xb
 2336 00b6 39       		.uleb128 0x39
 2337 00b7 0B       		.uleb128 0xb
ARM GAS  C:\Users\DEVELO~1\AppData\Local\Temp\ccijDB21.s 			page 42


 2338 00b8 01       		.uleb128 0x1
 2339 00b9 13       		.uleb128 0x13
 2340 00ba 00       		.byte	0
 2341 00bb 00       		.byte	0
 2342 00bc 0F       		.uleb128 0xf
 2343 00bd 0D       		.uleb128 0xd
 2344 00be 00       		.byte	0
 2345 00bf 03       		.uleb128 0x3
 2346 00c0 0E       		.uleb128 0xe
 2347 00c1 3A       		.uleb128 0x3a
 2348 00c2 0B       		.uleb128 0xb
 2349 00c3 3B       		.uleb128 0x3b
 2350 00c4 0B       		.uleb128 0xb
 2351 00c5 39       		.uleb128 0x39
 2352 00c6 0B       		.uleb128 0xb
 2353 00c7 49       		.uleb128 0x49
 2354 00c8 13       		.uleb128 0x13
 2355 00c9 00       		.byte	0
 2356 00ca 00       		.byte	0
 2357 00cb 10       		.uleb128 0x10
 2358 00cc 05       		.uleb128 0x5
 2359 00cd 00       		.byte	0
 2360 00ce 31       		.uleb128 0x31
 2361 00cf 13       		.uleb128 0x13
 2362 00d0 02       		.uleb128 0x2
 2363 00d1 17       		.uleb128 0x17
 2364 00d2 B742     		.uleb128 0x2137
 2365 00d4 17       		.uleb128 0x17
 2366 00d5 00       		.byte	0
 2367 00d6 00       		.byte	0
 2368 00d7 11       		.uleb128 0x11
 2369 00d8 13       		.uleb128 0x13
 2370 00d9 01       		.byte	0x1
 2371 00da 03       		.uleb128 0x3
 2372 00db 0E       		.uleb128 0xe
 2373 00dc 0B       		.uleb128 0xb
 2374 00dd 0B       		.uleb128 0xb
 2375 00de 3A       		.uleb128 0x3a
 2376 00df 0B       		.uleb128 0xb
 2377 00e0 3B       		.uleb128 0x3b
 2378 00e1 05       		.uleb128 0x5
 2379 00e2 39       		.uleb128 0x39
 2380 00e3 0B       		.uleb128 0xb
 2381 00e4 01       		.uleb128 0x1
 2382 00e5 13       		.uleb128 0x13
 2383 00e6 00       		.byte	0
 2384 00e7 00       		.byte	0
 2385 00e8 12       		.uleb128 0x12
 2386 00e9 48       		.uleb128 0x48
 2387 00ea 01       		.byte	0x1
 2388 00eb 7D       		.uleb128 0x7d
 2389 00ec 01       		.uleb128 0x1
 2390 00ed 7F       		.uleb128 0x7f
 2391 00ee 13       		.uleb128 0x13
 2392 00ef 00       		.byte	0
 2393 00f0 00       		.byte	0
 2394 00f1 13       		.uleb128 0x13
ARM GAS  C:\Users\DEVELO~1\AppData\Local\Temp\ccijDB21.s 			page 43


 2395 00f2 35       		.uleb128 0x35
 2396 00f3 00       		.byte	0
 2397 00f4 49       		.uleb128 0x49
 2398 00f5 13       		.uleb128 0x13
 2399 00f6 00       		.byte	0
 2400 00f7 00       		.byte	0
 2401 00f8 14       		.uleb128 0x14
 2402 00f9 0D       		.uleb128 0xd
 2403 00fa 00       		.byte	0
 2404 00fb 03       		.uleb128 0x3
 2405 00fc 08       		.uleb128 0x8
 2406 00fd 3A       		.uleb128 0x3a
 2407 00fe 21       		.uleb128 0x21
 2408 00ff 0C       		.sleb128 12
 2409 0100 3B       		.uleb128 0x3b
 2410 0101 0B       		.uleb128 0xb
 2411 0102 39       		.uleb128 0x39
 2412 0103 21       		.uleb128 0x21
 2413 0104 07       		.sleb128 7
 2414 0105 49       		.uleb128 0x49
 2415 0106 13       		.uleb128 0x13
 2416 0107 00       		.byte	0
 2417 0108 00       		.byte	0
 2418 0109 15       		.uleb128 0x15
 2419 010a 0D       		.uleb128 0xd
 2420 010b 00       		.byte	0
 2421 010c 03       		.uleb128 0x3
 2422 010d 0E       		.uleb128 0xe
 2423 010e 3A       		.uleb128 0x3a
 2424 010f 21       		.uleb128 0x21
 2425 0110 0C       		.sleb128 12
 2426 0111 3B       		.uleb128 0x3b
 2427 0112 0B       		.uleb128 0xb
 2428 0113 39       		.uleb128 0x39
 2429 0114 21       		.uleb128 0x21
 2430 0115 19       		.sleb128 25
 2431 0116 49       		.uleb128 0x49
 2432 0117 13       		.uleb128 0x13
 2433 0118 0D       		.uleb128 0xd
 2434 0119 0B       		.uleb128 0xb
 2435 011a 6B       		.uleb128 0x6b
 2436 011b 0B       		.uleb128 0xb
 2437 011c 00       		.byte	0
 2438 011d 00       		.byte	0
 2439 011e 16       		.uleb128 0x16
 2440 011f 01       		.uleb128 0x1
 2441 0120 01       		.byte	0x1
 2442 0121 49       		.uleb128 0x49
 2443 0122 13       		.uleb128 0x13
 2444 0123 01       		.uleb128 0x1
 2445 0124 13       		.uleb128 0x13
 2446 0125 00       		.byte	0
 2447 0126 00       		.byte	0
 2448 0127 17       		.uleb128 0x17
 2449 0128 21       		.uleb128 0x21
 2450 0129 00       		.byte	0
 2451 012a 49       		.uleb128 0x49
ARM GAS  C:\Users\DEVELO~1\AppData\Local\Temp\ccijDB21.s 			page 44


 2452 012b 13       		.uleb128 0x13
 2453 012c 2F       		.uleb128 0x2f
 2454 012d 0B       		.uleb128 0xb
 2455 012e 00       		.byte	0
 2456 012f 00       		.byte	0
 2457 0130 18       		.uleb128 0x18
 2458 0131 28       		.uleb128 0x28
 2459 0132 00       		.byte	0
 2460 0133 03       		.uleb128 0x3
 2461 0134 0E       		.uleb128 0xe
 2462 0135 1C       		.uleb128 0x1c
 2463 0136 0B       		.uleb128 0xb
 2464 0137 00       		.byte	0
 2465 0138 00       		.byte	0
 2466 0139 19       		.uleb128 0x19
 2467 013a 05       		.uleb128 0x5
 2468 013b 00       		.byte	0
 2469 013c 03       		.uleb128 0x3
 2470 013d 08       		.uleb128 0x8
 2471 013e 3A       		.uleb128 0x3a
 2472 013f 21       		.uleb128 0x21
 2473 0140 01       		.sleb128 1
 2474 0141 3B       		.uleb128 0x3b
 2475 0142 0B       		.uleb128 0xb
 2476 0143 39       		.uleb128 0x39
 2477 0144 0B       		.uleb128 0xb
 2478 0145 49       		.uleb128 0x49
 2479 0146 13       		.uleb128 0x13
 2480 0147 02       		.uleb128 0x2
 2481 0148 17       		.uleb128 0x17
 2482 0149 B742     		.uleb128 0x2137
 2483 014b 17       		.uleb128 0x17
 2484 014c 00       		.byte	0
 2485 014d 00       		.byte	0
 2486 014e 1A       		.uleb128 0x1a
 2487 014f 17       		.uleb128 0x17
 2488 0150 01       		.byte	0x1
 2489 0151 0B       		.uleb128 0xb
 2490 0152 0B       		.uleb128 0xb
 2491 0153 3A       		.uleb128 0x3a
 2492 0154 0B       		.uleb128 0xb
 2493 0155 3B       		.uleb128 0x3b
 2494 0156 0B       		.uleb128 0xb
 2495 0157 39       		.uleb128 0x39
 2496 0158 21       		.uleb128 0x21
 2497 0159 03       		.sleb128 3
 2498 015a 01       		.uleb128 0x1
 2499 015b 13       		.uleb128 0x13
 2500 015c 00       		.byte	0
 2501 015d 00       		.byte	0
 2502 015e 1B       		.uleb128 0x1b
 2503 015f 15       		.uleb128 0x15
 2504 0160 01       		.byte	0x1
 2505 0161 27       		.uleb128 0x27
 2506 0162 19       		.uleb128 0x19
 2507 0163 01       		.uleb128 0x1
 2508 0164 13       		.uleb128 0x13
ARM GAS  C:\Users\DEVELO~1\AppData\Local\Temp\ccijDB21.s 			page 45


 2509 0165 00       		.byte	0
 2510 0166 00       		.byte	0
 2511 0167 1C       		.uleb128 0x1c
 2512 0168 16       		.uleb128 0x16
 2513 0169 00       		.byte	0
 2514 016a 03       		.uleb128 0x3
 2515 016b 0E       		.uleb128 0xe
 2516 016c 3A       		.uleb128 0x3a
 2517 016d 21       		.uleb128 0x21
 2518 016e 08       		.sleb128 8
 2519 016f 3B       		.uleb128 0x3b
 2520 0170 05       		.uleb128 0x5
 2521 0171 39       		.uleb128 0x39
 2522 0172 21       		.uleb128 0x21
 2523 0173 03       		.sleb128 3
 2524 0174 49       		.uleb128 0x49
 2525 0175 13       		.uleb128 0x13
 2526 0176 00       		.byte	0
 2527 0177 00       		.byte	0
 2528 0178 1D       		.uleb128 0x1d
 2529 0179 2E       		.uleb128 0x2e
 2530 017a 01       		.byte	0x1
 2531 017b 3F       		.uleb128 0x3f
 2532 017c 19       		.uleb128 0x19
 2533 017d 03       		.uleb128 0x3
 2534 017e 0E       		.uleb128 0xe
 2535 017f 3A       		.uleb128 0x3a
 2536 0180 21       		.uleb128 0x21
 2537 0181 12       		.sleb128 18
 2538 0182 3B       		.uleb128 0x3b
 2539 0183 05       		.uleb128 0x5
 2540 0184 39       		.uleb128 0x39
 2541 0185 21       		.uleb128 0x21
 2542 0186 09       		.sleb128 9
 2543 0187 27       		.uleb128 0x27
 2544 0188 19       		.uleb128 0x19
 2545 0189 49       		.uleb128 0x49
 2546 018a 13       		.uleb128 0x13
 2547 018b 3C       		.uleb128 0x3c
 2548 018c 19       		.uleb128 0x19
 2549 018d 01       		.uleb128 0x1
 2550 018e 13       		.uleb128 0x13
 2551 018f 00       		.byte	0
 2552 0190 00       		.byte	0
 2553 0191 1E       		.uleb128 0x1e
 2554 0192 34       		.uleb128 0x34
 2555 0193 00       		.byte	0
 2556 0194 03       		.uleb128 0x3
 2557 0195 0E       		.uleb128 0xe
 2558 0196 49       		.uleb128 0x49
 2559 0197 13       		.uleb128 0x13
 2560 0198 34       		.uleb128 0x34
 2561 0199 19       		.uleb128 0x19
 2562 019a 00       		.byte	0
 2563 019b 00       		.byte	0
 2564 019c 1F       		.uleb128 0x1f
 2565 019d 1D       		.uleb128 0x1d
ARM GAS  C:\Users\DEVELO~1\AppData\Local\Temp\ccijDB21.s 			page 46


 2566 019e 01       		.byte	0x1
 2567 019f 31       		.uleb128 0x31
 2568 01a0 13       		.uleb128 0x13
 2569 01a1 52       		.uleb128 0x52
 2570 01a2 01       		.uleb128 0x1
 2571 01a3 B842     		.uleb128 0x2138
 2572 01a5 0B       		.uleb128 0xb
 2573 01a6 11       		.uleb128 0x11
 2574 01a7 01       		.uleb128 0x1
 2575 01a8 12       		.uleb128 0x12
 2576 01a9 06       		.uleb128 0x6
 2577 01aa 58       		.uleb128 0x58
 2578 01ab 21       		.uleb128 0x21
 2579 01ac 01       		.sleb128 1
 2580 01ad 59       		.uleb128 0x59
 2581 01ae 0B       		.uleb128 0xb
 2582 01af 57       		.uleb128 0x57
 2583 01b0 21       		.uleb128 0x21
 2584 01b1 05       		.sleb128 5
 2585 01b2 01       		.uleb128 0x1
 2586 01b3 13       		.uleb128 0x13
 2587 01b4 00       		.byte	0
 2588 01b5 00       		.byte	0
 2589 01b6 20       		.uleb128 0x20
 2590 01b7 11       		.uleb128 0x11
 2591 01b8 01       		.byte	0x1
 2592 01b9 25       		.uleb128 0x25
 2593 01ba 0E       		.uleb128 0xe
 2594 01bb 13       		.uleb128 0x13
 2595 01bc 0B       		.uleb128 0xb
 2596 01bd 03       		.uleb128 0x3
 2597 01be 0E       		.uleb128 0xe
 2598 01bf 1B       		.uleb128 0x1b
 2599 01c0 0E       		.uleb128 0xe
 2600 01c1 55       		.uleb128 0x55
 2601 01c2 17       		.uleb128 0x17
 2602 01c3 11       		.uleb128 0x11
 2603 01c4 01       		.uleb128 0x1
 2604 01c5 10       		.uleb128 0x10
 2605 01c6 17       		.uleb128 0x17
 2606 01c7 00       		.byte	0
 2607 01c8 00       		.byte	0
 2608 01c9 21       		.uleb128 0x21
 2609 01ca 24       		.uleb128 0x24
 2610 01cb 00       		.byte	0
 2611 01cc 0B       		.uleb128 0xb
 2612 01cd 0B       		.uleb128 0xb
 2613 01ce 3E       		.uleb128 0x3e
 2614 01cf 0B       		.uleb128 0xb
 2615 01d0 03       		.uleb128 0x3
 2616 01d1 08       		.uleb128 0x8
 2617 01d2 00       		.byte	0
 2618 01d3 00       		.byte	0
 2619 01d4 22       		.uleb128 0x22
 2620 01d5 13       		.uleb128 0x13
 2621 01d6 01       		.byte	0x1
 2622 01d7 03       		.uleb128 0x3
ARM GAS  C:\Users\DEVELO~1\AppData\Local\Temp\ccijDB21.s 			page 47


 2623 01d8 0E       		.uleb128 0xe
 2624 01d9 0B       		.uleb128 0xb
 2625 01da 05       		.uleb128 0x5
 2626 01db 3A       		.uleb128 0x3a
 2627 01dc 0B       		.uleb128 0xb
 2628 01dd 3B       		.uleb128 0x3b
 2629 01de 05       		.uleb128 0x5
 2630 01df 39       		.uleb128 0x39
 2631 01e0 0B       		.uleb128 0xb
 2632 01e1 01       		.uleb128 0x1
 2633 01e2 13       		.uleb128 0x13
 2634 01e3 00       		.byte	0
 2635 01e4 00       		.byte	0
 2636 01e5 23       		.uleb128 0x23
 2637 01e6 0F       		.uleb128 0xf
 2638 01e7 00       		.byte	0
 2639 01e8 0B       		.uleb128 0xb
 2640 01e9 0B       		.uleb128 0xb
 2641 01ea 00       		.byte	0
 2642 01eb 00       		.byte	0
 2643 01ec 24       		.uleb128 0x24
 2644 01ed 13       		.uleb128 0x13
 2645 01ee 01       		.byte	0x1
 2646 01ef 0B       		.uleb128 0xb
 2647 01f0 05       		.uleb128 0x5
 2648 01f1 3A       		.uleb128 0x3a
 2649 01f2 0B       		.uleb128 0xb
 2650 01f3 3B       		.uleb128 0x3b
 2651 01f4 0B       		.uleb128 0xb
 2652 01f5 39       		.uleb128 0x39
 2653 01f6 0B       		.uleb128 0xb
 2654 01f7 01       		.uleb128 0x1
 2655 01f8 13       		.uleb128 0x13
 2656 01f9 00       		.byte	0
 2657 01fa 00       		.byte	0
 2658 01fb 25       		.uleb128 0x25
 2659 01fc 17       		.uleb128 0x17
 2660 01fd 01       		.byte	0x1
 2661 01fe 0B       		.uleb128 0xb
 2662 01ff 0B       		.uleb128 0xb
 2663 0200 3A       		.uleb128 0x3a
 2664 0201 0B       		.uleb128 0xb
 2665 0202 3B       		.uleb128 0x3b
 2666 0203 05       		.uleb128 0x5
 2667 0204 39       		.uleb128 0x39
 2668 0205 0B       		.uleb128 0xb
 2669 0206 01       		.uleb128 0x1
 2670 0207 13       		.uleb128 0x13
 2671 0208 00       		.byte	0
 2672 0209 00       		.byte	0
 2673 020a 26       		.uleb128 0x26
 2674 020b 04       		.uleb128 0x4
 2675 020c 01       		.byte	0x1
 2676 020d 3E       		.uleb128 0x3e
 2677 020e 0B       		.uleb128 0xb
 2678 020f 0B       		.uleb128 0xb
 2679 0210 0B       		.uleb128 0xb
ARM GAS  C:\Users\DEVELO~1\AppData\Local\Temp\ccijDB21.s 			page 48


 2680 0211 49       		.uleb128 0x49
 2681 0212 13       		.uleb128 0x13
 2682 0213 3A       		.uleb128 0x3a
 2683 0214 0B       		.uleb128 0xb
 2684 0215 3B       		.uleb128 0x3b
 2685 0216 0B       		.uleb128 0xb
 2686 0217 39       		.uleb128 0x39
 2687 0218 0B       		.uleb128 0xb
 2688 0219 01       		.uleb128 0x1
 2689 021a 13       		.uleb128 0x13
 2690 021b 00       		.byte	0
 2691 021c 00       		.byte	0
 2692 021d 27       		.uleb128 0x27
 2693 021e 2E       		.uleb128 0x2e
 2694 021f 01       		.byte	0x1
 2695 0220 3F       		.uleb128 0x3f
 2696 0221 19       		.uleb128 0x19
 2697 0222 03       		.uleb128 0x3
 2698 0223 0E       		.uleb128 0xe
 2699 0224 3A       		.uleb128 0x3a
 2700 0225 0B       		.uleb128 0xb
 2701 0226 3B       		.uleb128 0x3b
 2702 0227 0B       		.uleb128 0xb
 2703 0228 39       		.uleb128 0x39
 2704 0229 0B       		.uleb128 0xb
 2705 022a 27       		.uleb128 0x27
 2706 022b 19       		.uleb128 0x19
 2707 022c 3C       		.uleb128 0x3c
 2708 022d 19       		.uleb128 0x19
 2709 022e 01       		.uleb128 0x1
 2710 022f 13       		.uleb128 0x13
 2711 0230 00       		.byte	0
 2712 0231 00       		.byte	0
 2713 0232 28       		.uleb128 0x28
 2714 0233 2E       		.uleb128 0x2e
 2715 0234 01       		.byte	0x1
 2716 0235 3F       		.uleb128 0x3f
 2717 0236 19       		.uleb128 0x19
 2718 0237 03       		.uleb128 0x3
 2719 0238 0E       		.uleb128 0xe
 2720 0239 3A       		.uleb128 0x3a
 2721 023a 0B       		.uleb128 0xb
 2722 023b 3B       		.uleb128 0x3b
 2723 023c 0B       		.uleb128 0xb
 2724 023d 39       		.uleb128 0x39
 2725 023e 0B       		.uleb128 0xb
 2726 023f 27       		.uleb128 0x27
 2727 0240 19       		.uleb128 0x19
 2728 0241 49       		.uleb128 0x49
 2729 0242 13       		.uleb128 0x13
 2730 0243 11       		.uleb128 0x11
 2731 0244 01       		.uleb128 0x1
 2732 0245 12       		.uleb128 0x12
 2733 0246 06       		.uleb128 0x6
 2734 0247 40       		.uleb128 0x40
 2735 0248 18       		.uleb128 0x18
 2736 0249 7A       		.uleb128 0x7a
ARM GAS  C:\Users\DEVELO~1\AppData\Local\Temp\ccijDB21.s 			page 49


 2737 024a 19       		.uleb128 0x19
 2738 024b 01       		.uleb128 0x1
 2739 024c 13       		.uleb128 0x13
 2740 024d 00       		.byte	0
 2741 024e 00       		.byte	0
 2742 024f 29       		.uleb128 0x29
 2743 0250 34       		.uleb128 0x34
 2744 0251 00       		.byte	0
 2745 0252 03       		.uleb128 0x3
 2746 0253 08       		.uleb128 0x8
 2747 0254 3A       		.uleb128 0x3a
 2748 0255 0B       		.uleb128 0xb
 2749 0256 3B       		.uleb128 0x3b
 2750 0257 0B       		.uleb128 0xb
 2751 0258 39       		.uleb128 0x39
 2752 0259 0B       		.uleb128 0xb
 2753 025a 49       		.uleb128 0x49
 2754 025b 13       		.uleb128 0x13
 2755 025c 02       		.uleb128 0x2
 2756 025d 17       		.uleb128 0x17
 2757 025e B742     		.uleb128 0x2137
 2758 0260 17       		.uleb128 0x17
 2759 0261 00       		.byte	0
 2760 0262 00       		.byte	0
 2761 0263 2A       		.uleb128 0x2a
 2762 0264 2E       		.uleb128 0x2e
 2763 0265 01       		.byte	0x1
 2764 0266 3F       		.uleb128 0x3f
 2765 0267 19       		.uleb128 0x19
 2766 0268 03       		.uleb128 0x3
 2767 0269 0E       		.uleb128 0xe
 2768 026a 3A       		.uleb128 0x3a
 2769 026b 0B       		.uleb128 0xb
 2770 026c 3B       		.uleb128 0x3b
 2771 026d 0B       		.uleb128 0xb
 2772 026e 39       		.uleb128 0x39
 2773 026f 0B       		.uleb128 0xb
 2774 0270 27       		.uleb128 0x27
 2775 0271 19       		.uleb128 0x19
 2776 0272 11       		.uleb128 0x11
 2777 0273 01       		.uleb128 0x1
 2778 0274 12       		.uleb128 0x12
 2779 0275 06       		.uleb128 0x6
 2780 0276 40       		.uleb128 0x40
 2781 0277 18       		.uleb128 0x18
 2782 0278 7A       		.uleb128 0x7a
 2783 0279 19       		.uleb128 0x19
 2784 027a 01       		.uleb128 0x1
 2785 027b 13       		.uleb128 0x13
 2786 027c 00       		.byte	0
 2787 027d 00       		.byte	0
 2788 027e 2B       		.uleb128 0x2b
 2789 027f 1D       		.uleb128 0x1d
 2790 0280 01       		.byte	0x1
 2791 0281 31       		.uleb128 0x31
 2792 0282 13       		.uleb128 0x13
 2793 0283 52       		.uleb128 0x52
ARM GAS  C:\Users\DEVELO~1\AppData\Local\Temp\ccijDB21.s 			page 50


 2794 0284 01       		.uleb128 0x1
 2795 0285 B842     		.uleb128 0x2138
 2796 0287 0B       		.uleb128 0xb
 2797 0288 55       		.uleb128 0x55
 2798 0289 17       		.uleb128 0x17
 2799 028a 58       		.uleb128 0x58
 2800 028b 0B       		.uleb128 0xb
 2801 028c 59       		.uleb128 0x59
 2802 028d 0B       		.uleb128 0xb
 2803 028e 57       		.uleb128 0x57
 2804 028f 0B       		.uleb128 0xb
 2805 0290 01       		.uleb128 0x1
 2806 0291 13       		.uleb128 0x13
 2807 0292 00       		.byte	0
 2808 0293 00       		.byte	0
 2809 0294 2C       		.uleb128 0x2c
 2810 0295 05       		.uleb128 0x5
 2811 0296 00       		.byte	0
 2812 0297 31       		.uleb128 0x31
 2813 0298 13       		.uleb128 0x13
 2814 0299 1C       		.uleb128 0x1c
 2815 029a 05       		.uleb128 0x5
 2816 029b 00       		.byte	0
 2817 029c 00       		.byte	0
 2818 029d 2D       		.uleb128 0x2d
 2819 029e 48       		.uleb128 0x48
 2820 029f 01       		.byte	0x1
 2821 02a0 7D       		.uleb128 0x7d
 2822 02a1 01       		.uleb128 0x1
 2823 02a2 8201     		.uleb128 0x82
 2824 02a4 19       		.uleb128 0x19
 2825 02a5 7F       		.uleb128 0x7f
 2826 02a6 13       		.uleb128 0x13
 2827 02a7 00       		.byte	0
 2828 02a8 00       		.byte	0
 2829 02a9 2E       		.uleb128 0x2e
 2830 02aa 48       		.uleb128 0x48
 2831 02ab 01       		.byte	0x1
 2832 02ac 7D       		.uleb128 0x7d
 2833 02ad 01       		.uleb128 0x1
 2834 02ae 7F       		.uleb128 0x7f
 2835 02af 13       		.uleb128 0x13
 2836 02b0 01       		.uleb128 0x1
 2837 02b1 13       		.uleb128 0x13
 2838 02b2 00       		.byte	0
 2839 02b3 00       		.byte	0
 2840 02b4 2F       		.uleb128 0x2f
 2841 02b5 2E       		.uleb128 0x2e
 2842 02b6 01       		.byte	0x1
 2843 02b7 03       		.uleb128 0x3
 2844 02b8 0E       		.uleb128 0xe
 2845 02b9 3A       		.uleb128 0x3a
 2846 02ba 0B       		.uleb128 0xb
 2847 02bb 3B       		.uleb128 0x3b
 2848 02bc 05       		.uleb128 0x5
 2849 02bd 39       		.uleb128 0x39
 2850 02be 0B       		.uleb128 0xb
ARM GAS  C:\Users\DEVELO~1\AppData\Local\Temp\ccijDB21.s 			page 51


 2851 02bf 27       		.uleb128 0x27
 2852 02c0 19       		.uleb128 0x19
 2853 02c1 20       		.uleb128 0x20
 2854 02c2 0B       		.uleb128 0xb
 2855 02c3 00       		.byte	0
 2856 02c4 00       		.byte	0
 2857 02c5 30       		.uleb128 0x30
 2858 02c6 05       		.uleb128 0x5
 2859 02c7 00       		.byte	0
 2860 02c8 03       		.uleb128 0x3
 2861 02c9 08       		.uleb128 0x8
 2862 02ca 3A       		.uleb128 0x3a
 2863 02cb 0B       		.uleb128 0xb
 2864 02cc 3B       		.uleb128 0x3b
 2865 02cd 05       		.uleb128 0x5
 2866 02ce 39       		.uleb128 0x39
 2867 02cf 0B       		.uleb128 0xb
 2868 02d0 49       		.uleb128 0x49
 2869 02d1 13       		.uleb128 0x13
 2870 02d2 00       		.byte	0
 2871 02d3 00       		.byte	0
 2872 02d4 31       		.uleb128 0x31
 2873 02d5 05       		.uleb128 0x5
 2874 02d6 00       		.byte	0
 2875 02d7 03       		.uleb128 0x3
 2876 02d8 0E       		.uleb128 0xe
 2877 02d9 3A       		.uleb128 0x3a
 2878 02da 0B       		.uleb128 0xb
 2879 02db 3B       		.uleb128 0x3b
 2880 02dc 05       		.uleb128 0x5
 2881 02dd 39       		.uleb128 0x39
 2882 02de 0B       		.uleb128 0xb
 2883 02df 49       		.uleb128 0x49
 2884 02e0 13       		.uleb128 0x13
 2885 02e1 00       		.byte	0
 2886 02e2 00       		.byte	0
 2887 02e3 00       		.byte	0
 2888              		.section	.debug_loclists,"",%progbits
 2889 0000 05010000 		.4byte	.Ldebug_loc3-.Ldebug_loc2
 2890              	.Ldebug_loc2:
 2891 0004 0500     		.2byte	0x5
 2892 0006 04       		.byte	0x4
 2893 0007 00       		.byte	0
 2894 0008 00000000 		.4byte	0
 2895              	.Ldebug_loc0:
 2896              	.LVUS6:
 2897 000c 00       		.uleb128 0
 2898 000d 00       		.uleb128 .LVU44
 2899 000e 00       		.uleb128 .LVU44
 2900 000f 00       		.uleb128 0
 2901              	.LLST6:
 2902 0010 06       		.byte	0x6
 2903 0011 00000000 		.4byte	.LVL13
 2904 0015 04       		.byte	0x4
 2905 0016 00       		.uleb128 .LVL13-.LVL13
 2906 0017 06       		.uleb128 .LVL14-.LVL13
 2907 0018 01       		.uleb128 0x1
ARM GAS  C:\Users\DEVELO~1\AppData\Local\Temp\ccijDB21.s 			page 52


 2908 0019 50       		.byte	0x50
 2909 001a 04       		.byte	0x4
 2910 001b 06       		.uleb128 .LVL14-.LVL13
 2911 001c 1E       		.uleb128 .LFE449-.LVL13
 2912 001d 01       		.uleb128 0x1
 2913 001e 55       		.byte	0x55
 2914 001f 00       		.byte	0
 2915              	.LVUS7:
 2916 0020 00       		.uleb128 .LVU45
 2917 0021 00       		.uleb128 .LVU52
 2918 0022 00       		.uleb128 .LVU52
 2919 0023 00       		.uleb128 0
 2920              	.LLST7:
 2921 0024 06       		.byte	0x6
 2922 0025 0A000000 		.4byte	.LVL15
 2923 0029 04       		.byte	0x4
 2924 002a 00       		.uleb128 .LVL15-.LVL15
 2925 002b 0A       		.uleb128 .LVL17-.LVL15
 2926 002c 01       		.uleb128 0x1
 2927 002d 50       		.byte	0x50
 2928 002e 04       		.byte	0x4
 2929 002f 0A       		.uleb128 .LVL17-.LVL15
 2930 0030 14       		.uleb128 .LFE449-.LVL15
 2931 0031 01       		.uleb128 0x1
 2932 0032 54       		.byte	0x54
 2933 0033 00       		.byte	0
 2934              	.LVUS8:
 2935 0034 01       		.uleb128 .LVU50
 2936 0035 00       		.uleb128 .LVU53
 2937              	.LLST8:
 2938 0036 08       		.byte	0x8
 2939 0037 12000000 		.4byte	.LVL16
 2940 003b 08       		.uleb128 .LVL18-.LVL16
 2941 003c 02       		.uleb128 0x2
 2942 003d 38       		.byte	0x38
 2943 003e 9F       		.byte	0x9f
 2944 003f 00       		.byte	0
 2945              	.LVUS9:
 2946 0040 01       		.uleb128 .LVU50
 2947 0041 00       		.uleb128 .LVU52
 2948 0042 00       		.uleb128 .LVU52
 2949 0043 00       		.uleb128 .LVU53
 2950 0044 00       		.uleb128 .LVU53
 2951 0045 00       		.uleb128 .LVU53
 2952              	.LLST9:
 2953 0046 06       		.byte	0x6
 2954 0047 12000000 		.4byte	.LVL16
 2955 004b 04       		.byte	0x4
 2956 004c 00       		.uleb128 .LVL16-.LVL16
 2957 004d 02       		.uleb128 .LVL17-.LVL16
 2958 004e 03       		.uleb128 0x3
 2959 004f 75       		.byte	0x75
 2960 0050 04       		.sleb128 4
 2961 0051 9F       		.byte	0x9f
 2962 0052 04       		.byte	0x4
 2963 0053 02       		.uleb128 .LVL17-.LVL16
 2964 0054 07       		.uleb128 .LVL18-1-.LVL16
ARM GAS  C:\Users\DEVELO~1\AppData\Local\Temp\ccijDB21.s 			page 53


 2965 0055 01       		.uleb128 0x1
 2966 0056 50       		.byte	0x50
 2967 0057 04       		.byte	0x4
 2968 0058 07       		.uleb128 .LVL18-1-.LVL16
 2969 0059 08       		.uleb128 .LVL18-.LVL16
 2970 005a 03       		.uleb128 0x3
 2971 005b 75       		.byte	0x75
 2972 005c 04       		.sleb128 4
 2973 005d 9F       		.byte	0x9f
 2974 005e 00       		.byte	0
 2975              	.LVUS0:
 2976 005f 00       		.uleb128 0
 2977 0060 00       		.uleb128 .LVU14
 2978 0061 00       		.uleb128 .LVU14
 2979 0062 00       		.uleb128 .LVU17
 2980 0063 00       		.uleb128 .LVU17
 2981 0064 00       		.uleb128 .LVU21
 2982 0065 00       		.uleb128 .LVU21
 2983 0066 00       		.uleb128 .LVU32
 2984 0067 00       		.uleb128 .LVU32
 2985 0068 00       		.uleb128 .LVU33
 2986 0069 00       		.uleb128 .LVU33
 2987 006a 00       		.uleb128 0
 2988              	.LLST0:
 2989 006b 06       		.byte	0x6
 2990 006c 00000000 		.4byte	.LVL0
 2991 0070 04       		.byte	0x4
 2992 0071 00       		.uleb128 .LVL0-.LVL0
 2993 0072 10       		.uleb128 .LVL2-.LVL0
 2994 0073 01       		.uleb128 0x1
 2995 0074 50       		.byte	0x50
 2996 0075 04       		.byte	0x4
 2997 0076 10       		.uleb128 .LVL2-.LVL0
 2998 0077 1A       		.uleb128 .LVL4-.LVL0
 2999 0078 01       		.uleb128 0x1
 3000 0079 54       		.byte	0x54
 3001 007a 04       		.byte	0x4
 3002 007b 1A       		.uleb128 .LVL4-.LVL0
 3003 007c 1E       		.uleb128 .LVL6-.LVL0
 3004 007d 01       		.uleb128 0x1
 3005 007e 50       		.byte	0x50
 3006 007f 04       		.byte	0x4
 3007 0080 1E       		.uleb128 .LVL6-.LVL0
 3008 0081 3A       		.uleb128 .LVL11-.LVL0
 3009 0082 01       		.uleb128 0x1
 3010 0083 54       		.byte	0x54
 3011 0084 04       		.byte	0x4
 3012 0085 3A       		.uleb128 .LVL11-.LVL0
 3013 0086 3D       		.uleb128 .LVL12-1-.LVL0
 3014 0087 03       		.uleb128 0x3
 3015 0088 70       		.byte	0x70
 3016 0089 7C       		.sleb128 -4
 3017 008a 9F       		.byte	0x9f
 3018 008b 04       		.byte	0x4
 3019 008c 3D       		.uleb128 .LVL12-1-.LVL0
 3020 008d 3E       		.uleb128 .LFE448-.LVL0
 3021 008e 04       		.uleb128 0x4
ARM GAS  C:\Users\DEVELO~1\AppData\Local\Temp\ccijDB21.s 			page 54


 3022 008f A3       		.byte	0xa3
 3023 0090 01       		.uleb128 0x1
 3024 0091 50       		.byte	0x50
 3025 0092 9F       		.byte	0x9f
 3026 0093 00       		.byte	0
 3027              	.LVUS1:
 3028 0094 00       		.uleb128 0
 3029 0095 00       		.uleb128 .LVU13
 3030 0096 00       		.uleb128 .LVU13
 3031 0097 00       		.uleb128 .LVU17
 3032 0098 00       		.uleb128 .LVU17
 3033 0099 00       		.uleb128 .LVU20
 3034 009a 00       		.uleb128 .LVU20
 3035 009b 00       		.uleb128 0
 3036              	.LLST1:
 3037 009c 06       		.byte	0x6
 3038 009d 00000000 		.4byte	.LVL0
 3039 00a1 04       		.byte	0x4
 3040 00a2 00       		.uleb128 .LVL0-.LVL0
 3041 00a3 0C       		.uleb128 .LVL1-.LVL0
 3042 00a4 01       		.uleb128 0x1
 3043 00a5 51       		.byte	0x51
 3044 00a6 04       		.byte	0x4
 3045 00a7 0C       		.uleb128 .LVL1-.LVL0
 3046 00a8 1A       		.uleb128 .LVL4-.LVL0
 3047 00a9 04       		.uleb128 0x4
 3048 00aa A3       		.byte	0xa3
 3049 00ab 01       		.uleb128 0x1
 3050 00ac 51       		.byte	0x51
 3051 00ad 9F       		.byte	0x9f
 3052 00ae 04       		.byte	0x4
 3053 00af 1A       		.uleb128 .LVL4-.LVL0
 3054 00b0 1C       		.uleb128 .LVL5-.LVL0
 3055 00b1 01       		.uleb128 0x1
 3056 00b2 51       		.byte	0x51
 3057 00b3 04       		.byte	0x4
 3058 00b4 1C       		.uleb128 .LVL5-.LVL0
 3059 00b5 3E       		.uleb128 .LFE448-.LVL0
 3060 00b6 04       		.uleb128 0x4
 3061 00b7 A3       		.byte	0xa3
 3062 00b8 01       		.uleb128 0x1
 3063 00b9 51       		.byte	0x51
 3064 00ba 9F       		.byte	0x9f
 3065 00bb 00       		.byte	0
 3066              	.LVUS2:
 3067 00bc 01       		.uleb128 .LVU18
 3068 00bd 00       		.uleb128 .LVU22
 3069              	.LLST2:
 3070 00be 08       		.byte	0x8
 3071 00bf 1A000000 		.4byte	.LVL4
 3072 00c3 08       		.uleb128 .LVL7-.LVL4
 3073 00c4 02       		.uleb128 0x2
 3074 00c5 34       		.byte	0x34
 3075 00c6 9F       		.byte	0x9f
 3076 00c7 00       		.byte	0
 3077              	.LVUS3:
 3078 00c8 01       		.uleb128 .LVU18
ARM GAS  C:\Users\DEVELO~1\AppData\Local\Temp\ccijDB21.s 			page 55


 3079 00c9 00       		.uleb128 .LVU21
 3080 00ca 00       		.uleb128 .LVU21
 3081 00cb 00       		.uleb128 .LVU22
 3082 00cc 00       		.uleb128 .LVU22
 3083 00cd 00       		.uleb128 .LVU22
 3084              	.LLST3:
 3085 00ce 06       		.byte	0x6
 3086 00cf 1A000000 		.4byte	.LVL4
 3087 00d3 04       		.byte	0x4
 3088 00d4 00       		.uleb128 .LVL4-.LVL4
 3089 00d5 04       		.uleb128 .LVL6-.LVL4
 3090 00d6 03       		.uleb128 0x3
 3091 00d7 70       		.byte	0x70
 3092 00d8 04       		.sleb128 4
 3093 00d9 9F       		.byte	0x9f
 3094 00da 04       		.byte	0x4
 3095 00db 04       		.uleb128 .LVL6-.LVL4
 3096 00dc 07       		.uleb128 .LVL7-1-.LVL4
 3097 00dd 01       		.uleb128 0x1
 3098 00de 50       		.byte	0x50
 3099 00df 04       		.byte	0x4
 3100 00e0 07       		.uleb128 .LVL7-1-.LVL4
 3101 00e1 08       		.uleb128 .LVL7-.LVL4
 3102 00e2 03       		.uleb128 0x3
 3103 00e3 74       		.byte	0x74
 3104 00e4 04       		.sleb128 4
 3105 00e5 9F       		.byte	0x9f
 3106 00e6 00       		.byte	0
 3107              	.LVUS5:
 3108 00e7 01       		.uleb128 .LVU28
 3109 00e8 00       		.uleb128 .LVU30
 3110 00e9 00       		.uleb128 .LVU30
 3111 00ea 00       		.uleb128 .LVU33
 3112 00eb 00       		.uleb128 .LVU33
 3113 00ec 00       		.uleb128 0
 3114              	.LLST5:
 3115 00ed 06       		.byte	0x6
 3116 00ee 30000000 		.4byte	.LVL9
 3117 00f2 04       		.byte	0x4
 3118 00f3 00       		.uleb128 .LVL9-.LVL9
 3119 00f4 02       		.uleb128 .LVL10-.LVL9
 3120 00f5 03       		.uleb128 0x3
 3121 00f6 74       		.byte	0x74
 3122 00f7 04       		.sleb128 4
 3123 00f8 9F       		.byte	0x9f
 3124 00f9 04       		.byte	0x4
 3125 00fa 02       		.uleb128 .LVL10-.LVL9
 3126 00fb 0D       		.uleb128 .LVL12-1-.LVL9
 3127 00fc 01       		.uleb128 0x1
 3128 00fd 50       		.byte	0x50
 3129 00fe 04       		.byte	0x4
 3130 00ff 0D       		.uleb128 .LVL12-1-.LVL9
 3131 0100 0E       		.uleb128 .LFE448-.LVL9
 3132 0101 06       		.uleb128 0x6
 3133 0102 A3       		.byte	0xa3
 3134 0103 01       		.uleb128 0x1
 3135 0104 50       		.byte	0x50
ARM GAS  C:\Users\DEVELO~1\AppData\Local\Temp\ccijDB21.s 			page 56


 3136 0105 23       		.byte	0x23
 3137 0106 04       		.uleb128 0x4
 3138 0107 9F       		.byte	0x9f
 3139 0108 00       		.byte	0
 3140              	.Ldebug_loc3:
 3141              		.section	.debug_aranges,"",%progbits
 3142 0000 24000000 		.4byte	0x24
 3143 0004 0200     		.2byte	0x2
 3144 0006 00000000 		.4byte	.Ldebug_info0
 3145 000a 04       		.byte	0x4
 3146 000b 00       		.byte	0
 3147 000c 0000     		.2byte	0
 3148 000e 0000     		.2byte	0
 3149 0010 00000000 		.4byte	.LFB448
 3150 0014 3E000000 		.4byte	.LFE448-.LFB448
 3151 0018 00000000 		.4byte	.LFB449
 3152 001c 1E000000 		.4byte	.LFE449-.LFB449
 3153 0020 00000000 		.4byte	0
 3154 0024 00000000 		.4byte	0
 3155              		.section	.debug_rnglists,"",%progbits
 3156              	.Ldebug_ranges0:
 3157 0000 21000000 		.4byte	.Ldebug_ranges3-.Ldebug_ranges2
 3158              	.Ldebug_ranges2:
 3159 0004 0500     		.2byte	0x5
 3160 0006 04       		.byte	0x4
 3161 0007 00       		.byte	0
 3162 0008 00000000 		.4byte	0
 3163              	.LLRL4:
 3164 000c 05       		.byte	0x5
 3165 000d 30000000 		.4byte	.LBB10
 3166 0011 04       		.byte	0x4
 3167 0012 00       		.uleb128 .LBB10-.LBB10
 3168 0013 06       		.uleb128 .LBE10-.LBB10
 3169 0014 04       		.byte	0x4
 3170 0015 0A       		.uleb128 .LBB13-.LBB10
 3171 0016 0E       		.uleb128 .LBE13-.LBB10
 3172 0017 00       		.byte	0
 3173              	.LLRL10:
 3174 0018 07       		.byte	0x7
 3175 0019 00000000 		.4byte	.LFB448
 3176 001d 3E       		.uleb128 .LFE448-.LFB448
 3177 001e 07       		.byte	0x7
 3178 001f 00000000 		.4byte	.LFB449
 3179 0023 1E       		.uleb128 .LFE449-.LFB449
 3180 0024 00       		.byte	0
 3181              	.Ldebug_ranges3:
 3182              		.section	.debug_line,"",%progbits
 3183              	.Ldebug_line0:
 3184 0000 D4030000 		.section	.debug_str,"MS",%progbits,1
 3184      0300DE02 
 3184      00000201 
 3184      FB0E0D00 
 3184      01010101 
 3185              	.LASF89:
 3186 0000 70726576 		.ascii	"prev\000"
 3186      00
 3187              	.LASF155:
ARM GAS  C:\Users\DEVELO~1\AppData\Local\Temp\ccijDB21.s 			page 57


 3188 0005 42756666 		.ascii	"BufferedSerial\000"
 3188      65726564 
 3188      53657269 
 3188      616C00
 3189              	.LASF122:
 3190 0014 72656164 		.ascii	"ready_list_t\000"
 3190      795F6C69 
 3190      73745F74 
 3190      00
 3191              	.LASF4:
 3192 0021 73697A65 		.ascii	"size_t\000"
 3192      5F7400
 3193              	.LASF111:
 3194 0028 7264796D 		.ascii	"rdymsg\000"
 3194      736700
 3195              	.LASF55:
 3196 002f 72666375 		.ascii	"rfcu\000"
 3196      00
 3197              	.LASF162:
 3198 0034 77726974 		.ascii	"write\000"
 3198      6500
 3199              	.LASF5:
 3200 003a 5F5F7569 		.ascii	"__uint8_t\000"
 3200      6E74385F 
 3200      7400
 3201              	.LASF42:
 3202 0044 6F626A65 		.ascii	"object\000"
 3202      637400
 3203              	.LASF82:
 3204 004b 706F7274 		.ascii	"port_intctx\000"
 3204      5F696E74 
 3204      63747800 
 3205              	.LASF52:
 3206 0057 76746C69 		.ascii	"vtlist\000"
 3206      737400
 3207              	.LASF74:
 3208 005e 74797065 		.ascii	"type\000"
 3208      00
 3209              	.LASF11:
 3210 0063 6C6F6E67 		.ascii	"long int\000"
 3210      20696E74 
 3210      00
 3211              	.LASF77:
 3212 006c 74726163 		.ascii	"trace_event_t\000"
 3212      655F6576 
 3212      656E745F 
 3212      7400
 3213              	.LASF72:
 3214 007a 68616C74 		.ascii	"halt\000"
 3214      00
 3215              	.LASF41:
 3216 007f 64697370 		.ascii	"dispose\000"
 3216      6F736500 
 3217              	.LASF21:
 3218 0087 706F7274 		.ascii	"port_stkline_t\000"
 3218      5F73746B 
 3218      6C696E65 
ARM GAS  C:\Users\DEVELO~1\AppData\Local\Temp\ccijDB21.s 			page 58


 3218      5F7400
 3219              	.LASF112:
 3220 0096 65786974 		.ascii	"exitcode\000"
 3220      636F6465 
 3220      00
 3221              	.LASF58:
 3222 009f 6D61696E 		.ascii	"mainthread\000"
 3222      74687265 
 3222      616400
 3223              	.LASF114:
 3224 00aa 73656E74 		.ascii	"sentmsg\000"
 3224      6D736700 
 3225              	.LASF95:
 3226 00b2 64656C74 		.ascii	"delta\000"
 3226      6100
 3227              	.LASF138:
 3228 00b8 696F5F71 		.ascii	"io_queue_t\000"
 3228      75657565 
 3228      5F7400
 3229              	.LASF86:
 3230 00c3 6E657874 		.ascii	"next\000"
 3230      00
 3231              	.LASF106:
 3232 00c8 63685F74 		.ascii	"ch_threads_queue\000"
 3232      68726561 
 3232      64735F71 
 3232      75657565 
 3232      00
 3233              	.LASF167:
 3234 00d9 72656164 		.ascii	"readt\000"
 3234      7400
 3235              	.LASF38:
 3236 00df 72656673 		.ascii	"refs\000"
 3236      00
 3237              	.LASF140:
 3238 00e4 715F7761 		.ascii	"q_waiting\000"
 3238      6974696E 
 3238      6700
 3239              	.LASF125:
 3240 00ee 63737461 		.ascii	"cstack_end\000"
 3240      636B5F65 
 3240      6E6400
 3241              	.LASF1:
 3242 00f9 6C6F6E67 		.ascii	"long long int\000"
 3242      206C6F6E 
 3242      6720696E 
 3242      7400
 3243              	.LASF3:
 3244 0107 7369676E 		.ascii	"signed char\000"
 3244      65642063 
 3244      68617200 
 3245              	.LASF13:
 3246 0113 6C6F6E67 		.ascii	"long unsigned int\000"
 3246      20756E73 
 3246      69676E65 
 3246      6420696E 
 3246      7400
ARM GAS  C:\Users\DEVELO~1\AppData\Local\Temp\ccijDB21.s 			page 59


 3247              	.LASF94:
 3248 0125 63685F64 		.ascii	"ch_delta_list\000"
 3248      656C7461 
 3248      5F6C6973 
 3248      7400
 3249              	.LASF15:
 3250 0133 6C6F6E67 		.ascii	"long long unsigned int\000"
 3250      206C6F6E 
 3250      6720756E 
 3250      7369676E 
 3250      65642069 
 3251              	.LASF85:
 3252 014a 63685F6C 		.ascii	"ch_list\000"
 3252      69737400 
 3253              	.LASF36:
 3254 0152 73746174 		.ascii	"state\000"
 3254      6500
 3255              	.LASF22:
 3256 0158 73746B6C 		.ascii	"stkline_t\000"
 3256      696E655F 
 3256      7400
 3257              	.LASF24:
 3258 0162 74737461 		.ascii	"tstate_t\000"
 3258      74655F74 
 3258      00
 3259              	.LASF61:
 3260 016b 63685F72 		.ascii	"ch_rfcu\000"
 3260      66637500 
 3261              	.LASF171:
 3262 0173 474E5520 		.ascii	"GNU C17 11.3.1 20220712 -mcpu=cortex-m7 -mthumb -mf"
 3262      43313720 
 3262      31312E33 
 3262      2E312032 
 3262      30323230 
 3263 01a6 6C6F6174 		.ascii	"loat-abi=soft -march=armv7e-m -ggdb -O2 -fomit-fram"
 3263      2D616269 
 3263      3D736F66 
 3263      74202D6D 
 3263      61726368 
 3264 01d9 652D706F 		.ascii	"e-pointer -falign-functions=16 -ffunction-sections "
 3264      696E7465 
 3264      72202D66 
 3264      616C6967 
 3264      6E2D6675 
 3265 020c 2D666461 		.ascii	"-fdata-sections -fno-common\000"
 3265      74612D73 
 3265      65637469 
 3265      6F6E7320 
 3265      2D666E6F 
 3266              	.LASF88:
 3267 0228 63685F71 		.ascii	"ch_queue\000"
 3267      75657565 
 3267      00
 3268              	.LASF142:
 3269 0231 715F6275 		.ascii	"q_buffer\000"
 3269      66666572 
 3269      00
ARM GAS  C:\Users\DEVELO~1\AppData\Local\Temp\ccijDB21.s 			page 60


 3270              	.LASF17:
 3271 023a 75696E74 		.ascii	"uint16_t\000"
 3271      31365F74 
 3271      00
 3272              	.LASF81:
 3273 0243 74726163 		.ascii	"trace_buffer_t\000"
 3273      655F6275 
 3273      66666572 
 3273      5F7400
 3274              	.LASF174:
 3275 0252 63684576 		.ascii	"chEvtBroadcastFlagsI\000"
 3275      7442726F 
 3275      61646361 
 3275      7374466C 
 3275      61677349 
 3276              	.LASF102:
 3277 0267 63685F72 		.ascii	"ch_registry\000"
 3277      65676973 
 3277      74727900 
 3278              	.LASF134:
 3279 0273 77666C61 		.ascii	"wflags\000"
 3279      677300
 3280              	.LASF173:
 3281 027a 433A5C43 		.ascii	"C:\\ChibiStudio\\chibios2111\\demos\\STM32\\RT-STM3"
 3281      68696269 
 3281      53747564 
 3281      696F5C63 
 3281      68696269 
 3282 02a8 32483734 		.ascii	"2H743ZI_REV_XY-NUCLEO144 - Copie\000"
 3282      335A495F 
 3282      5245565F 
 3282      58592D4E 
 3282      55434C45 
 3283              	.LASF12:
 3284 02c9 5F5F7569 		.ascii	"__uint32_t\000"
 3284      6E743332 
 3284      5F7400
 3285              	.LASF62:
 3286 02d4 6D61736B 		.ascii	"mask\000"
 3286      00
 3287              	.LASF43:
 3288 02d9 77616974 		.ascii	"waiting\000"
 3288      696E6700 
 3289              	.LASF126:
 3290 02e1 69646C65 		.ascii	"idlestack_base\000"
 3290      73746163 
 3290      6B5F6261 
 3290      736500
 3291              	.LASF129:
 3292 02f0 6D757465 		.ascii	"mutex_t\000"
 3292      785F7400 
 3293              	.LASF139:
 3294 02f8 696F5F71 		.ascii	"io_queue\000"
 3294      75657565 
 3294      00
 3295              	.LASF136:
 3296 0301 6576656E 		.ascii	"event_source_t\000"
ARM GAS  C:\Users\DEVELO~1\AppData\Local\Temp\ccijDB21.s 			page 61


 3296      745F736F 
 3296      75726365 
 3296      5F7400
 3297              	.LASF69:
 3298 0310 73797369 		.ascii	"sysinterval_t\000"
 3298      6E746572 
 3298      76616C5F 
 3298      7400
 3299              	.LASF30:
 3300 031e 636E745F 		.ascii	"cnt_t\000"
 3300      7400
 3301              	.LASF44:
 3302 0324 6D736771 		.ascii	"msgqueue\000"
 3302      75657565 
 3302      00
 3303              	.LASF0:
 3304 032d 756E7369 		.ascii	"unsigned int\000"
 3304      676E6564 
 3304      20696E74 
 3304      00
 3305              	.LASF115:
 3306 033a 77747365 		.ascii	"wtsemp\000"
 3306      6D7000
 3307              	.LASF169:
 3308 0341 69715075 		.ascii	"iqPutI\000"
 3308      744900
 3309              	.LASF67:
 3310 0348 73797374 		.ascii	"system_debug_t\000"
 3310      656D5F64 
 3310      65627567 
 3310      5F7400
 3311              	.LASF158:
 3312 0357 69717565 		.ascii	"iqueue\000"
 3312      756500
 3313              	.LASF113:
 3314 035e 77747472 		.ascii	"wttrp\000"
 3314      7000
 3315              	.LASF40:
 3316 0364 72717565 		.ascii	"rqueue\000"
 3316      756500
 3317              	.LASF87:
 3318 036b 63685F71 		.ascii	"ch_queue_t\000"
 3318      75657565 
 3318      5F7400
 3319              	.LASF154:
 3320 0376 62737374 		.ascii	"bsstate_t\000"
 3320      6174655F 
 3320      7400
 3321              	.LASF165:
 3322 0380 67657474 		.ascii	"gett\000"
 3322      00
 3323              	.LASF39:
 3324 0385 6E616D65 		.ascii	"name\000"
 3324      00
 3325              	.LASF108:
 3326 038a 74687265 		.ascii	"thread_dispose_t\000"
 3326      61645F64 
ARM GAS  C:\Users\DEVELO~1\AppData\Local\Temp\ccijDB21.s 			page 62


 3326      6973706F 
 3326      73655F74 
 3326      00
 3327              	.LASF103:
 3328 039b 71756575 		.ascii	"queue\000"
 3328      6500
 3329              	.LASF54:
 3330 03a1 636F7265 		.ascii	"core_id\000"
 3330      5F696400 
 3331              	.LASF157:
 3332 03a9 6576656E 		.ascii	"event\000"
 3332      7400
 3333              	.LASF79:
 3334 03af 73697A65 		.ascii	"size\000"
 3334      00
 3335              	.LASF9:
 3336 03b4 73686F72 		.ascii	"short unsigned int\000"
 3336      7420756E 
 3336      7369676E 
 3336      65642069 
 3336      6E7400
 3337              	.LASF49:
 3338 03c7 63685F74 		.ascii	"ch_thread\000"
 3338      68726561 
 3338      6400
 3339              	.LASF29:
 3340 03d1 6576656E 		.ascii	"eventflags_t\000"
 3340      74666C61 
 3340      67735F74 
 3340      00
 3341              	.LASF27:
 3342 03de 6D73675F 		.ascii	"msg_t\000"
 3342      7400
 3343              	.LASF45:
 3344 03e4 6570656E 		.ascii	"epending\000"
 3344      64696E67 
 3344      00
 3345              	.LASF166:
 3346 03ed 77726974 		.ascii	"writet\000"
 3346      657400
 3347              	.LASF23:
 3348 03f4 746D6F64 		.ascii	"tmode_t\000"
 3348      655F7400 
 3349              	.LASF153:
 3350 03fc 42535F52 		.ascii	"BS_READY\000"
 3350      45414459 
 3350      00
 3351              	.LASF120:
 3352 0405 63685F72 		.ascii	"ch_ready_list\000"
 3352      65616479 
 3352      5F6C6973 
 3352      7400
 3353              	.LASF28:
 3354 0413 6576656E 		.ascii	"eventmask_t\000"
 3354      746D6173 
 3354      6B5F7400 
 3355              	.LASF10:
ARM GAS  C:\Users\DEVELO~1\AppData\Local\Temp\ccijDB21.s 			page 63


 3356 041f 5F5F696E 		.ascii	"__int32_t\000"
 3356      7433325F 
 3356      7400
 3357              	.LASF101:
 3358 0429 76697274 		.ascii	"virtual_timers_list_t\000"
 3358      75616C5F 
 3358      74696D65 
 3358      72735F6C 
 3358      6973745F 
 3359              	.LASF75:
 3360 043f 72747374 		.ascii	"rtstamp\000"
 3360      616D7000 
 3361              	.LASF100:
 3362 0447 6C617374 		.ascii	"laststamp\000"
 3362      7374616D 
 3362      7000
 3363              	.LASF130:
 3364 0451 6576656E 		.ascii	"event_listener_t\000"
 3364      745F6C69 
 3364      7374656E 
 3364      65725F74 
 3364      00
 3365              	.LASF149:
 3366 0462 696E7075 		.ascii	"input_queue_t\000"
 3366      745F7175 
 3366      6575655F 
 3366      7400
 3367              	.LASF164:
 3368 0470 70757474 		.ascii	"putt\000"
 3368      00
 3369              	.LASF60:
 3370 0475 72666375 		.ascii	"rfcu_mask_t\000"
 3370      5F6D6173 
 3370      6B5F7400 
 3371              	.LASF105:
 3372 0481 74687265 		.ascii	"thread_reference_t\000"
 3372      61645F72 
 3372      65666572 
 3372      656E6365 
 3372      5F7400
 3373              	.LASF132:
 3374 0494 6C697374 		.ascii	"listener\000"
 3374      656E6572 
 3374      00
 3375              	.LASF96:
 3376 049d 63685F76 		.ascii	"ch_virtual_timers_list\000"
 3376      69727475 
 3376      616C5F74 
 3376      696D6572 
 3376      735F6C69 
 3377              	.LASF141:
 3378 04b4 715F636F 		.ascii	"q_counter\000"
 3378      756E7465 
 3378      7200
 3379              	.LASF84:
 3380 04be 63685F6C 		.ascii	"ch_list_t\000"
 3380      6973745F 
ARM GAS  C:\Users\DEVELO~1\AppData\Local\Temp\ccijDB21.s 			page 64


 3380      7400
 3381              	.LASF78:
 3382 04c8 73757370 		.ascii	"suspended\000"
 3382      656E6465 
 3382      6400
 3383              	.LASF124:
 3384 04d2 63737461 		.ascii	"cstack_base\000"
 3384      636B5F62 
 3384      61736500 
 3385              	.LASF20:
 3386 04de 75696E74 		.ascii	"uint64_t\000"
 3386      36345F74 
 3386      00
 3387              	.LASF160:
 3388 04e7 42756666 		.ascii	"BufferedSerialVMT\000"
 3388      65726564 
 3388      53657269 
 3388      616C564D 
 3388      5400
 3389              	.LASF144:
 3390 04f9 715F7772 		.ascii	"q_wrptr\000"
 3390      70747200 
 3391              	.LASF151:
 3392 0501 42535F55 		.ascii	"BS_UNINIT\000"
 3392      4E494E49 
 3392      5400
 3393              	.LASF123:
 3394 050b 63685F6F 		.ascii	"ch_os_instance_config\000"
 3394      735F696E 
 3394      7374616E 
 3394      63655F63 
 3394      6F6E6669 
 3395              	.LASF83:
 3396 0521 706F7274 		.ascii	"port_context\000"
 3396      5F636F6E 
 3396      74657874 
 3396      00
 3397              	.LASF168:
 3398 052e 6F714765 		.ascii	"oqGetI\000"
 3398      744900
 3399              	.LASF76:
 3400 0535 74696D65 		.ascii	"time\000"
 3400      00
 3401              	.LASF92:
 3402 053a 7072696F 		.ascii	"prio\000"
 3402      00
 3403              	.LASF127:
 3404 053f 69646C65 		.ascii	"idlestack_end\000"
 3404      73746163 
 3404      6B5F656E 
 3404      6400
 3405              	.LASF121:
 3406 054d 63757272 		.ascii	"current\000"
 3406      656E7400 
 3407              	.LASF14:
 3408 0555 5F5F7569 		.ascii	"__uint64_t\000"
 3408      6E743634 
ARM GAS  C:\Users\DEVELO~1\AppData\Local\Temp\ccijDB21.s 			page 65


 3408      5F7400
 3409              	.LASF99:
 3410 0560 6C617374 		.ascii	"lastdelta\000"
 3410      64656C74 
 3410      6100
 3411              	.LASF31:
 3412 056a 636F7265 		.ascii	"core_id_t\000"
 3412      5F69645F 
 3412      7400
 3413              	.LASF25:
 3414 0574 74726566 		.ascii	"trefs_t\000"
 3414      735F7400 
 3415              	.LASF148:
 3416 057c 716E6F74 		.ascii	"qnotify_t\000"
 3416      6966795F 
 3416      7400
 3417              	.LASF73:
 3418 0586 75736572 		.ascii	"user\000"
 3418      00
 3419              	.LASF26:
 3420 058b 74707269 		.ascii	"tprio_t\000"
 3420      6F5F7400 
 3421              	.LASF145:
 3422 0593 715F7264 		.ascii	"q_rdptr\000"
 3422      70747200 
 3423              	.LASF64:
 3424 059b 63685F73 		.ascii	"ch_system_debug\000"
 3424      79737465 
 3424      6D5F6465 
 3424      62756700 
 3425              	.LASF137:
 3426 05ab 5F426F6F 		.ascii	"_Bool\000"
 3426      6C00
 3427              	.LASF18:
 3428 05b1 696E7433 		.ascii	"int32_t\000"
 3428      325F7400 
 3429              	.LASF6:
 3430 05b9 756E7369 		.ascii	"unsigned char\000"
 3430      676E6564 
 3430      20636861 
 3430      7200
 3431              	.LASF63:
 3432 05c7 72666375 		.ascii	"rfcu_t\000"
 3432      5F7400
 3433              	.LASF7:
 3434 05ce 73686F72 		.ascii	"short int\000"
 3434      7420696E 
 3434      7400
 3435              	.LASF70:
 3436 05d8 77746F62 		.ascii	"wtobjp\000"
 3436      6A7000
 3437              	.LASF117:
 3438 05df 65776D61 		.ascii	"ewmask\000"
 3438      736B00
 3439              	.LASF159:
 3440 05e6 6F717565 		.ascii	"oqueue\000"
 3440      756500
ARM GAS  C:\Users\DEVELO~1\AppData\Local\Temp\ccijDB21.s 			page 66


 3441              	.LASF156:
 3442 05ed 68616C5F 		.ascii	"hal_buffered_serial\000"
 3442      62756666 
 3442      65726564 
 3442      5F736572 
 3442      69616C00 
 3443              	.LASF170:
 3444 0601 5F5F6675 		.ascii	"__func__\000"
 3444      6E635F5F 
 3444      00
 3445              	.LASF71:
 3446 060a 72656173 		.ascii	"reason\000"
 3446      6F6E00
 3447              	.LASF107:
 3448 0611 74687265 		.ascii	"threads_queue_t\000"
 3448      6164735F 
 3448      71756575 
 3448      655F7400 
 3449              	.LASF118:
 3450 0621 63685F73 		.ascii	"ch_semaphore\000"
 3450      656D6170 
 3450      686F7265 
 3450      00
 3451              	.LASF104:
 3452 062e 72656769 		.ascii	"registry_t\000"
 3452      73747279 
 3452      5F7400
 3453              	.LASF133:
 3454 0639 6576656E 		.ascii	"events\000"
 3454      747300
 3455              	.LASF19:
 3456 0640 75696E74 		.ascii	"uint32_t\000"
 3456      33325F74 
 3456      00
 3457              	.LASF116:
 3458 0649 77746D74 		.ascii	"wtmtxp\000"
 3458      787000
 3459              	.LASF177:
 3460 0650 6F73616C 		.ascii	"osalEventBroadcastFlagsI\000"
 3460      4576656E 
 3460      7442726F 
 3460      61646361 
 3460      7374466C 
 3461              	.LASF33:
 3462 0669 6F776E65 		.ascii	"owner\000"
 3462      7200
 3463              	.LASF47:
 3464 066f 7265616C 		.ascii	"realprio\000"
 3464      7072696F 
 3464      00
 3465              	.LASF2:
 3466 0678 6C6F6E67 		.ascii	"long double\000"
 3466      20646F75 
 3466      626C6500 
 3467              	.LASF34:
 3468 0684 77616261 		.ascii	"wabase\000"
 3468      736500
ARM GAS  C:\Users\DEVELO~1\AppData\Local\Temp\ccijDB21.s 			page 67


 3469              	.LASF66:
 3470 068b 63686172 		.ascii	"char\000"
 3470      00
 3471              	.LASF56:
 3472 0690 636F6E66 		.ascii	"config\000"
 3472      696700
 3473              	.LASF8:
 3474 0697 5F5F7569 		.ascii	"__uint16_t\000"
 3474      6E743136 
 3474      5F7400
 3475              	.LASF32:
 3476 06a2 74687265 		.ascii	"thread_t\000"
 3476      61645F74 
 3476      00
 3477              	.LASF97:
 3478 06ab 646C6973 		.ascii	"dlist\000"
 3478      7400
 3479              	.LASF68:
 3480 06b1 73797374 		.ascii	"systime_t\000"
 3480      696D655F 
 3480      7400
 3481              	.LASF80:
 3482 06bb 62756666 		.ascii	"buffer\000"
 3482      657200
 3483              	.LASF90:
 3484 06c2 63685F70 		.ascii	"ch_priority_queue_t\000"
 3484      72696F72 
 3484      6974795F 
 3484      71756575 
 3484      655F7400 
 3485              	.LASF65:
 3486 06d6 70616E69 		.ascii	"panic_msg\000"
 3486      635F6D73 
 3486      6700
 3487              	.LASF110:
 3488 06e0 70717565 		.ascii	"pqueue\000"
 3488      756500
 3489              	.LASF50:
 3490 06e7 63685F6F 		.ascii	"ch_os_instance\000"
 3490      735F696E 
 3490      7374616E 
 3490      636500
 3491              	.LASF48:
 3492 06f6 6F735F69 		.ascii	"os_instance_t\000"
 3492      6E737461 
 3492      6E63655F 
 3492      7400
 3493              	.LASF53:
 3494 0704 7265676C 		.ascii	"reglist\000"
 3494      69737400 
 3495              	.LASF91:
 3496 070c 63685F70 		.ascii	"ch_priority_queue\000"
 3496      72696F72 
 3496      6974795F 
 3496      71756575 
 3496      6500
 3497              	.LASF93:
ARM GAS  C:\Users\DEVELO~1\AppData\Local\Temp\ccijDB21.s 			page 68


 3498 071e 63685F64 		.ascii	"ch_delta_list_t\000"
 3498      656C7461 
 3498      5F6C6973 
 3498      745F7400 
 3499              	.LASF150:
 3500 072e 6F757470 		.ascii	"output_queue_t\000"
 3500      75745F71 
 3500      75657565 
 3500      5F7400
 3501              	.LASF128:
 3502 073d 6F735F69 		.ascii	"os_instance_config_t\000"
 3502      6E737461 
 3502      6E63655F 
 3502      636F6E66 
 3502      69675F74 
 3503              	.LASF143:
 3504 0752 715F746F 		.ascii	"q_top\000"
 3504      7000
 3505              	.LASF119:
 3506 0758 63685F6D 		.ascii	"ch_mutex\000"
 3506      75746578 
 3506      00
 3507              	.LASF98:
 3508 0761 6C617374 		.ascii	"lasttime\000"
 3508      74696D65 
 3508      00
 3509              	.LASF35:
 3510 076a 7761656E 		.ascii	"waend\000"
 3510      6400
 3511              	.LASF146:
 3512 0770 715F6E6F 		.ascii	"q_notify\000"
 3512      74696679 
 3512      00
 3513              	.LASF51:
 3514 0779 726C6973 		.ascii	"rlist\000"
 3514      7400
 3515              	.LASF135:
 3516 077f 6576656E 		.ascii	"event_source\000"
 3516      745F736F 
 3516      75726365 
 3516      00
 3517              	.LASF16:
 3518 078c 75696E74 		.ascii	"uint8_t\000"
 3518      385F7400 
 3519              	.LASF152:
 3520 0794 42535F53 		.ascii	"BS_STOP\000"
 3520      544F5000 
 3521              	.LASF37:
 3522 079c 666C6167 		.ascii	"flags\000"
 3522      7300
 3523              	.LASF163:
 3524 07a2 72656164 		.ascii	"read\000"
 3524      00
 3525              	.LASF172:
 3526 07a7 2E2F4368 		.ascii	"./ChibiOS/os/hal/src/hal_buffered_serial.c\000"
 3526      6962694F 
 3526      532F6F73 
ARM GAS  C:\Users\DEVELO~1\AppData\Local\Temp\ccijDB21.s 			page 69


 3526      2F68616C 
 3526      2F737263 
 3527              	.LASF59:
 3528 07d2 74726163 		.ascii	"trace_buffer\000"
 3528      655F6275 
 3528      66666572 
 3528      00
 3529              	.LASF161:
 3530 07df 696E7374 		.ascii	"instance_offset\000"
 3530      616E6365 
 3530      5F6F6666 
 3530      73657400 
 3531              	.LASF109:
 3532 07ef 6C697374 		.ascii	"list\000"
 3532      00
 3533              	.LASF175:
 3534 07f4 62735265 		.ascii	"bsRequestDataI\000"
 3534      71756573 
 3534      74446174 
 3534      614900
 3535              	.LASF147:
 3536 0803 715F6C69 		.ascii	"q_link\000"
 3536      6E6B00
 3537              	.LASF46:
 3538 080a 6D74786C 		.ascii	"mtxlist\000"
 3538      69737400 
 3539              	.LASF176:
 3540 0812 6273496E 		.ascii	"bsIncomingDataI\000"
 3540      636F6D69 
 3540      6E674461 
 3540      74614900 
 3541              	.LASF131:
 3542 0822 6576656E 		.ascii	"event_listener\000"
 3542      745F6C69 
 3542      7374656E 
 3542      657200
 3543              	.LASF57:
 3544 0831 69646C65 		.ascii	"idlethread\000"
 3544      74687265 
 3544      616400
 3545              		.ident	"GCC: (Arm GNU Toolchain 11.3.Rel1) 11.3.1 20220712"
ARM GAS  C:\Users\DEVELO~1\AppData\Local\Temp\ccijDB21.s 			page 70


DEFINED SYMBOLS
                            *ABS*:00000000 hal_buffered_serial.c
C:\Users\DEVELO~1\AppData\Local\Temp\ccijDB21.s:18     .text.bsIncomingDataI:00000000 $t
C:\Users\DEVELO~1\AppData\Local\Temp\ccijDB21.s:25     .text.bsIncomingDataI:00000000 bsIncomingDataI
C:\Users\DEVELO~1\AppData\Local\Temp\ccijDB21.s:133    .text.bsRequestDataI:00000000 $t
C:\Users\DEVELO~1\AppData\Local\Temp\ccijDB21.s:140    .text.bsRequestDataI:00000000 bsRequestDataI

UNDEFINED SYMBOLS
iqPutI
chEvtBroadcastFlagsI
oqGetI
