ARM GAS  C:\Users\DEVELO~1\AppData\Local\Temp\ccltPPQg.s 			page 1


   1              		.cpu cortex-m7
   2              		.arch armv7e-m
   3              		.fpu softvfp
   4              		.eabi_attribute 20, 1
   5              		.eabi_attribute 21, 1
   6              		.eabi_attribute 23, 3
   7              		.eabi_attribute 24, 1
   8              		.eabi_attribute 25, 1
   9              		.eabi_attribute 26, 1
  10              		.eabi_attribute 30, 2
  11              		.eabi_attribute 34, 1
  12              		.eabi_attribute 18, 4
  13              		.file	"hal_flash.c"
  14              		.text
  15              	.Ltext0:
  16              		.cfi_sections	.debug_frame
  17              		.global	__aeabi_uldivmod
  18              		.global	__aeabi_ldivmod
  19              		.section	.text.flashWaitErase,"ax",%progbits
  20              		.align	1
  21              		.p2align 4,,15
  22              		.global	flashWaitErase
  23              		.syntax unified
  24              		.thumb
  25              		.thumb_func
  26              		.type	flashWaitErase, %function
  27              	flashWaitErase:
  28              	.LVL0:
  29              	.LFB431:
  30              		.file 1 "../../../os/hal/src/hal_flash.c"
  31              		.loc 1 61 47 view -0
  32              		.cfi_startproc
  33              		@ args = 0, pretend = 0, frame = 8
  34              		@ frame_needed = 0, uses_anonymous_args = 0
  35              		.loc 1 61 47 is_stmt 0 view .LVU1
  36 0000 F0B5     		push	{r4, r5, r6, r7, lr}
  37              		.cfi_def_cfa_offset 20
  38              		.cfi_offset 4, -20
  39              		.cfi_offset 5, -16
  40              		.cfi_offset 6, -12
  41              		.cfi_offset 7, -8
  42              		.cfi_offset 14, -4
  43              	.LBB5:
  44              		.loc 1 74 5 view .LVU2
  45 0002 42F21076 		movw	r6, #10000
  46              	.LBE5:
  47              		.loc 1 61 47 view .LVU3
  48 0006 83B0     		sub	sp, sp, #12
  49              		.cfi_def_cfa_offset 32
  50              	.LBB10:
  51              		.loc 1 74 5 view .LVU4
  52 0008 40F2E735 		movw	r5, #999
  53              	.LBE10:
  54              		.loc 1 61 47 view .LVU5
  55 000c 0446     		mov	r4, r0
  56              	.LBB11:
  57              		.loc 1 74 5 view .LVU6
ARM GAS  C:\Users\DEVELO~1\AppData\Local\Temp\ccltPPQg.s 			page 2


  58 000e 0027     		movs	r7, #0
  59 0010 09E0     		b	.L3
  60              	.LVL1:
  61              	.L7:
  62              		.loc 1 74 5 view .LVU7
  63 0012 DDF804C0 		ldr	ip, [sp, #4]
  64 0016 2846     		mov	r0, r5
  65              	.LVL2:
  66              		.loc 1 74 5 view .LVU8
  67 0018 3946     		mov	r1, r7
  68 001a ECFB0601 		umlal	r0, r1, ip, r6
  69 001e FFF7FEFF 		bl	__aeabi_uldivmod
  70              	.LVL3:
  71              	.LBB6:
  72              	.LBB7:
  73              		.file 2 "../../../os/hal/osal/rt-nil/osal.h"
  74              		.loc 2 784 3 view .LVU9
  75 0022 FFF7FEFF 		bl	chThdSleep
  76              	.LVL4:
  77              		.loc 2 784 3 view .LVU10
  78              	.LBE7:
  79              	.LBE6:
  80              	.LBE11:
  81              		.loc 1 63 9 is_stmt 1 view .LVU11
  82              	.L3:
  83              		.loc 1 63 3 view .LVU12
  84              	.LBB12:
  85              		.loc 1 64 5 view .LVU13
  86              		.loc 1 65 5 view .LVU14
  87              		.loc 1 68 5 view .LVU15
  88              		.loc 1 68 11 is_stmt 0 view .LVU16
  89 0026 2368     		ldr	r3, [r4]
  90 0028 01A9     		add	r1, sp, #4
  91 002a 2046     		mov	r0, r4
  92 002c 9B69     		ldr	r3, [r3, #24]
  93 002e 9847     		blx	r3
  94              	.LVL5:
  95              		.loc 1 74 5 is_stmt 1 view .LVU17
  96              	.LBB9:
  97              	.LBI6:
  98              		.loc 2 782 20 view .LVU18
  99              	.LBB8:
 100              		.loc 2 784 3 view .LVU19
 101              		.loc 2 784 3 is_stmt 0 view .LVU20
 102              	.LBE8:
 103              	.LBE9:
 104              		.loc 1 69 5 is_stmt 1 view .LVU21
 105              		.loc 1 69 8 is_stmt 0 view .LVU22
 106 0030 0128     		cmp	r0, #1
 107              		.loc 1 74 5 view .LVU23
 108 0032 4FF47A72 		mov	r2, #1000
 109 0036 4FF00003 		mov	r3, #0
 110              		.loc 1 69 8 view .LVU24
 111 003a EAD0     		beq	.L7
 112              	.LBE12:
 113              		.loc 1 76 1 view .LVU25
 114 003c 03B0     		add	sp, sp, #12
ARM GAS  C:\Users\DEVELO~1\AppData\Local\Temp\ccltPPQg.s 			page 3


 115              		.cfi_def_cfa_offset 20
 116              		@ sp needed
 117 003e F0BD     		pop	{r4, r5, r6, r7, pc}
 118              		.loc 1 76 1 view .LVU26
 119              		.cfi_endproc
 120              	.LFE431:
 121              		.size	flashWaitErase, .-flashWaitErase
 122              		.section	.text.flashGetSectorOffset,"ax",%progbits
 123              		.align	1
 124              		.p2align 4,,15
 125              		.global	flashGetSectorOffset
 126              		.syntax unified
 127              		.thumb
 128              		.thumb_func
 129              		.type	flashGetSectorOffset, %function
 130              	flashGetSectorOffset:
 131              	.LVL6:
 132              	.LFB432:
 133              		.loc 1 88 60 is_stmt 1 view -0
 134              		.cfi_startproc
 135              		@ args = 0, pretend = 0, frame = 0
 136              		@ frame_needed = 0, uses_anonymous_args = 0
 137              		.loc 1 89 3 view .LVU28
 138              		.loc 1 90 3 view .LVU29
 139              		.loc 1 90 42 is_stmt 0 view .LVU30
 140 0000 0368     		ldr	r3, [r0]
 141              		.loc 1 88 60 view .LVU31
 142 0002 10B5     		push	{r4, lr}
 143              		.cfi_def_cfa_offset 8
 144              		.cfi_offset 4, -8
 145              		.cfi_offset 14, -4
 146              		.loc 1 90 42 view .LVU32
 147 0004 5B68     		ldr	r3, [r3, #4]
 148              		.loc 1 88 60 view .LVU33
 149 0006 0C46     		mov	r4, r1
 150              		.loc 1 90 42 view .LVU34
 151 0008 9847     		blx	r3
 152              	.LVL7:
 153              		.loc 1 92 3 is_stmt 1 view .LVU35
 154              		.loc 1 92 3 view .LVU36
 155              		.loc 1 92 3 view .LVU37
 156              		.loc 1 94 3 view .LVU38
 157              		.loc 1 94 17 is_stmt 0 view .LVU39
 158 000a C368     		ldr	r3, [r0, #12]
 159              		.loc 1 94 6 view .LVU40
 160 000c 13B1     		cbz	r3, .L9
 161              		.loc 1 95 5 is_stmt 1 view .LVU41
 162              		.loc 1 95 12 is_stmt 0 view .LVU42
 163 000e 53F83400 		ldr	r0, [r3, r4, lsl #3]
 164              	.LVL8:
 165              		.loc 1 102 1 view .LVU43
 166 0012 10BD     		pop	{r4, pc}
 167              	.LVL9:
 168              	.L9:
 169              		.loc 1 98 5 is_stmt 1 view .LVU44
 170              		.loc 1 98 12 is_stmt 0 view .LVU45
 171 0014 0069     		ldr	r0, [r0, #16]
ARM GAS  C:\Users\DEVELO~1\AppData\Local\Temp\ccltPPQg.s 			page 4


 172              	.LVL10:
 173              		.loc 1 98 12 view .LVU46
 174 0016 04FB00F0 		mul	r0, r4, r0
 175              	.LVL11:
 176              		.loc 1 101 3 is_stmt 1 view .LVU47
 177              		.loc 1 102 1 is_stmt 0 view .LVU48
 178 001a 10BD     		pop	{r4, pc}
 179              		.loc 1 102 1 view .LVU49
 180              		.cfi_endproc
 181              	.LFE432:
 182              		.size	flashGetSectorOffset, .-flashGetSectorOffset
 183              		.section	.text.flashGetSectorSize,"ax",%progbits
 184              		.align	1
 185              		.p2align 4,,15
 186              		.global	flashGetSectorSize
 187              		.syntax unified
 188              		.thumb
 189              		.thumb_func
 190              		.type	flashGetSectorSize, %function
 191              	flashGetSectorSize:
 192              	.LVL12:
 193              	.LFB433:
 194              		.loc 1 114 52 is_stmt 1 view -0
 195              		.cfi_startproc
 196              		@ args = 0, pretend = 0, frame = 0
 197              		@ frame_needed = 0, uses_anonymous_args = 0
 198              		.loc 1 115 3 view .LVU51
 199              		.loc 1 116 3 view .LVU52
 200              		.loc 1 116 42 is_stmt 0 view .LVU53
 201 0000 0368     		ldr	r3, [r0]
 202              		.loc 1 114 52 view .LVU54
 203 0002 10B5     		push	{r4, lr}
 204              		.cfi_def_cfa_offset 8
 205              		.cfi_offset 4, -8
 206              		.cfi_offset 14, -4
 207              		.loc 1 116 42 view .LVU55
 208 0004 5B68     		ldr	r3, [r3, #4]
 209              		.loc 1 114 52 view .LVU56
 210 0006 0C46     		mov	r4, r1
 211              		.loc 1 116 42 view .LVU57
 212 0008 9847     		blx	r3
 213              	.LVL13:
 214              		.loc 1 118 3 is_stmt 1 view .LVU58
 215              		.loc 1 118 3 view .LVU59
 216              		.loc 1 118 3 view .LVU60
 217              		.loc 1 120 3 view .LVU61
 218              		.loc 1 120 17 is_stmt 0 view .LVU62
 219 000a C368     		ldr	r3, [r0, #12]
 220              		.loc 1 120 6 view .LVU63
 221 000c 1BB1     		cbz	r3, .L13
 222              		.loc 1 121 5 is_stmt 1 view .LVU64
 223              		.loc 1 121 10 is_stmt 0 view .LVU65
 224 000e 03EBC403 		add	r3, r3, r4, lsl #3
 225 0012 5868     		ldr	r0, [r3, #4]
 226              	.LVL14:
 227              		.loc 1 128 1 view .LVU66
 228 0014 10BD     		pop	{r4, pc}
ARM GAS  C:\Users\DEVELO~1\AppData\Local\Temp\ccltPPQg.s 			page 5


 229              	.LVL15:
 230              	.L13:
 231              		.loc 1 124 5 is_stmt 1 view .LVU67
 232              		.loc 1 124 10 is_stmt 0 view .LVU68
 233 0016 0069     		ldr	r0, [r0, #16]
 234              	.LVL16:
 235              		.loc 1 127 3 is_stmt 1 view .LVU69
 236              		.loc 1 128 1 is_stmt 0 view .LVU70
 237 0018 10BD     		pop	{r4, pc}
 238              		.loc 1 128 1 view .LVU71
 239              		.cfi_endproc
 240              	.LFE433:
 241              		.size	flashGetSectorSize, .-flashGetSectorSize
 242 001a 00BF     		.section	.text.flashGetOffsetSector,"ax",%progbits
 243              		.align	1
 244              		.p2align 4,,15
 245              		.global	flashGetOffsetSector
 246              		.syntax unified
 247              		.thumb
 248              		.thumb_func
 249              		.type	flashGetOffsetSector, %function
 250              	flashGetOffsetSector:
 251              	.LVL17:
 252              	.LFB434:
 253              		.loc 1 139 77 is_stmt 1 view -0
 254              		.cfi_startproc
 255              		@ args = 0, pretend = 0, frame = 0
 256              		@ frame_needed = 0, uses_anonymous_args = 0
 257              		.loc 1 140 3 view .LVU73
 258              		.loc 1 141 3 view .LVU74
 259              		.loc 1 139 77 is_stmt 0 view .LVU75
 260 0000 38B5     		push	{r3, r4, r5, lr}
 261              		.cfi_def_cfa_offset 16
 262              		.cfi_offset 3, -16
 263              		.cfi_offset 4, -12
 264              		.cfi_offset 5, -8
 265              		.cfi_offset 14, -4
 266              		.loc 1 141 42 view .LVU76
 267 0002 0368     		ldr	r3, [r0]
 268              		.loc 1 139 77 view .LVU77
 269 0004 0C46     		mov	r4, r1
 270              		.loc 1 141 42 view .LVU78
 271 0006 5B68     		ldr	r3, [r3, #4]
 272 0008 9847     		blx	r3
 273              	.LVL18:
 274              		.loc 1 143 3 is_stmt 1 view .LVU79
 275              		.loc 1 143 3 view .LVU80
 276              		.loc 1 143 3 view .LVU81
 277              		.loc 1 145 3 view .LVU82
 278              		.loc 1 145 17 is_stmt 0 view .LVU83
 279 000a C168     		ldr	r1, [r0, #12]
 280              		.loc 1 145 6 view .LVU84
 281 000c A9B1     		cbz	r1, .L17
 282              	.LVL19:
 283              	.LBB13:
 284              		.loc 1 148 19 is_stmt 1 view .LVU85
 285              		.loc 1 148 31 is_stmt 0 view .LVU86
ARM GAS  C:\Users\DEVELO~1\AppData\Local\Temp\ccltPPQg.s 			page 6


 286 000e 8568     		ldr	r5, [r0, #8]
 287              		.loc 1 148 19 view .LVU87
 288 0010 BDB1     		cbz	r5, .L21
 289              		.loc 1 148 12 view .LVU88
 290 0012 0020     		movs	r0, #0
 291              	.LVL20:
 292              		.loc 1 148 12 view .LVU89
 293 0014 01F1040C 		add	ip, r1, #4
 294 0018 02E0     		b	.L20
 295              	.LVL21:
 296              	.L22:
 297              		.loc 1 148 49 discriminator 2 view .LVU90
 298 001a 0130     		adds	r0, r0, #1
 299              	.LVL22:
 300              		.loc 1 148 19 is_stmt 1 discriminator 2 view .LVU91
 301 001c A842     		cmp	r0, r5
 302 001e 0AD0     		beq	.L28
 303              	.LVL23:
 304              	.L20:
 305              		.loc 1 149 7 view .LVU92
 306              		.loc 1 148 49 view .LVU93
 307              		.loc 1 149 20 is_stmt 0 view .LVU94
 308 0020 51F83020 		ldr	r2, [r1, r0, lsl #3]
 309              	.LVL24:
 310              		.loc 1 150 7 is_stmt 1 view .LVU95
 311              		.loc 1 151 7 view .LVU96
 312              		.loc 1 150 33 is_stmt 0 view .LVU97
 313 0024 5CF83030 		ldr	r3, [ip, r0, lsl #3]
 314 0028 1344     		add	r3, r3, r2
 315              		.loc 1 150 18 view .LVU98
 316 002a 013B     		subs	r3, r3, #1
 317              		.loc 1 151 10 view .LVU99
 318 002c 9C42     		cmp	r4, r3
 319 002e F4D8     		bhi	.L22
 320 0030 9442     		cmp	r4, r2
 321 0032 F2D3     		bcc	.L22
 322              	.LBE13:
 323              		.loc 1 165 1 view .LVU100
 324 0034 38BD     		pop	{r3, r4, r5, pc}
 325              	.LVL25:
 326              	.L28:
 327              		.loc 1 164 10 view .LVU101
 328 0036 0020     		movs	r0, #0
 329              	.LVL26:
 330              		.loc 1 165 1 view .LVU102
 331 0038 38BD     		pop	{r3, r4, r5, pc}
 332              	.LVL27:
 333              	.L17:
 334              		.loc 1 158 5 is_stmt 1 view .LVU103
 335              		.loc 1 158 12 is_stmt 0 view .LVU104
 336 003a 0069     		ldr	r0, [r0, #16]
 337              	.LVL28:
 338              		.loc 1 158 12 view .LVU105
 339 003c B4FBF0F0 		udiv	r0, r4, r0
 340              	.LVL29:
 341              		.loc 1 159 5 is_stmt 1 view .LVU106
 342              		.loc 1 165 1 is_stmt 0 view .LVU107
ARM GAS  C:\Users\DEVELO~1\AppData\Local\Temp\ccltPPQg.s 			page 7


 343 0040 38BD     		pop	{r3, r4, r5, pc}
 344              	.LVL30:
 345              	.L21:
 346              		.loc 1 164 10 view .LVU108
 347 0042 2846     		mov	r0, r5
 348              	.LVL31:
 349              		.loc 1 165 1 view .LVU109
 350 0044 38BD     		pop	{r3, r4, r5, pc}
 351              		.loc 1 165 1 view .LVU110
 352              		.cfi_endproc
 353              	.LFE434:
 354              		.size	flashGetOffsetSector, .-flashGetOffsetSector
 355 0046 00BF     		.section	.text.flashGetOffsetAddress,"ax",%progbits
 356              		.align	1
 357              		.p2align 4,,15
 358              		.global	flashGetOffsetAddress
 359              		.syntax unified
 360              		.thumb
 361              		.thumb_func
 362              		.type	flashGetOffsetAddress, %function
 363              	flashGetOffsetAddress:
 364              	.LVL32:
 365              	.LFB435:
 366              		.loc 1 176 69 is_stmt 1 view -0
 367              		.cfi_startproc
 368              		@ args = 0, pretend = 0, frame = 0
 369              		@ frame_needed = 0, uses_anonymous_args = 0
 370              		.loc 1 177 3 view .LVU112
 371              		.loc 1 177 42 is_stmt 0 view .LVU113
 372 0000 0368     		ldr	r3, [r0]
 373              		.loc 1 176 69 view .LVU114
 374 0002 10B5     		push	{r4, lr}
 375              		.cfi_def_cfa_offset 8
 376              		.cfi_offset 4, -8
 377              		.cfi_offset 14, -4
 378              		.loc 1 177 42 view .LVU115
 379 0004 5B68     		ldr	r3, [r3, #4]
 380              		.loc 1 176 69 view .LVU116
 381 0006 0C46     		mov	r4, r1
 382              		.loc 1 177 42 view .LVU117
 383 0008 9847     		blx	r3
 384              	.LVL33:
 385              		.loc 1 179 3 is_stmt 1 view .LVU118
 386              		.loc 1 179 3 view .LVU119
 387              		.loc 1 179 3 view .LVU120
 388              		.loc 1 181 3 view .LVU121
 389              		.loc 1 181 55 is_stmt 0 view .LVU122
 390 000a 4069     		ldr	r0, [r0, #20]
 391              	.LVL34:
 392              		.loc 1 182 1 view .LVU123
 393 000c 2044     		add	r0, r0, r4
 394 000e 10BD     		pop	{r4, pc}
 395              		.loc 1 182 1 view .LVU124
 396              		.cfi_endproc
 397              	.LFE435:
 398              		.size	flashGetOffsetAddress, .-flashGetOffsetAddress
 399              		.section	.text.flashGetAddressOffset,"ax",%progbits
ARM GAS  C:\Users\DEVELO~1\AppData\Local\Temp\ccltPPQg.s 			page 8


 400              		.align	1
 401              		.p2align 4,,15
 402              		.global	flashGetAddressOffset
 403              		.syntax unified
 404              		.thumb
 405              		.thumb_func
 406              		.type	flashGetAddressOffset, %function
 407              	flashGetAddressOffset:
 408              	.LVL35:
 409              	.LFB436:
 410              		.loc 1 193 67 is_stmt 1 view -0
 411              		.cfi_startproc
 412              		@ args = 0, pretend = 0, frame = 0
 413              		@ frame_needed = 0, uses_anonymous_args = 0
 414              		.loc 1 194 3 view .LVU126
 415              		.loc 1 194 42 is_stmt 0 view .LVU127
 416 0000 0368     		ldr	r3, [r0]
 417              		.loc 1 193 67 view .LVU128
 418 0002 10B5     		push	{r4, lr}
 419              		.cfi_def_cfa_offset 8
 420              		.cfi_offset 4, -8
 421              		.cfi_offset 14, -4
 422              		.loc 1 194 42 view .LVU129
 423 0004 5B68     		ldr	r3, [r3, #4]
 424              		.loc 1 193 67 view .LVU130
 425 0006 0C46     		mov	r4, r1
 426              		.loc 1 194 42 view .LVU131
 427 0008 9847     		blx	r3
 428              	.LVL36:
 429              		.loc 1 196 3 is_stmt 1 view .LVU132
 430              		.loc 1 196 3 view .LVU133
 431              		.loc 1 196 3 view .LVU134
 432              		.loc 1 201 3 view .LVU135
 433              		.loc 1 201 31 is_stmt 0 view .LVU136
 434 000a 4069     		ldr	r0, [r0, #20]
 435              	.LVL37:
 436              		.loc 1 202 1 view .LVU137
 437 000c 201A     		subs	r0, r4, r0
 438 000e 10BD     		pop	{r4, pc}
 439              		.loc 1 202 1 view .LVU138
 440              		.cfi_endproc
 441              	.LFE436:
 442              		.size	flashGetAddressOffset, .-flashGetAddressOffset
 443              		.text
 444              	.Letext0:
 445              		.file 3 "c:\\chibistudio\\tools\\gnu tools arm embedded\\11.3 2022.08\\lib\\gcc\\arm-none-eabi\\11
 446              		.file 4 "c:\\chibistudio\\tools\\gnu tools arm embedded\\11.3 2022.08\\arm-none-eabi\\include\\mac
 447              		.file 5 "c:\\chibistudio\\tools\\gnu tools arm embedded\\11.3 2022.08\\arm-none-eabi\\include\\sys
 448              		.file 6 "../../../os/rt/include/chtime.h"
 449              		.file 7 "../../../os/hal/include/hal_flash.h"
 450              		.file 8 "../../../os/rt/include/chthreads.h"
 451              		.section	.debug_info,"",%progbits
 452              	.Ldebug_info0:
 453 0000 55070000 		.4byte	0x755
 454 0004 0500     		.2byte	0x5
 455 0006 01       		.byte	0x1
 456 0007 04       		.byte	0x4
ARM GAS  C:\Users\DEVELO~1\AppData\Local\Temp\ccltPPQg.s 			page 9


 457 0008 00000000 		.4byte	.Ldebug_abbrev0
 458 000c 15       		.uleb128 0x15
 459 000d EB000000 		.4byte	.LASF76
 460 0011 1D       		.byte	0x1d
 461 0012 C7010000 		.4byte	.LASF77
 462 0016 F3020000 		.4byte	.LASF78
 463 001a 2A000000 		.4byte	.LLRL26
 464 001e 00000000 		.4byte	0
 465 0022 00000000 		.4byte	.Ldebug_line0
 466 0026 04       		.uleb128 0x4
 467 0027 08       		.byte	0x8
 468 0028 07       		.byte	0x7
 469 0029 59020000 		.4byte	.LASF0
 470 002d 04       		.uleb128 0x4
 471 002e 04       		.byte	0x4
 472 002f 07       		.byte	0x7
 473 0030 6F030000 		.4byte	.LASF1
 474 0034 16       		.uleb128 0x16
 475 0035 04       		.byte	0x4
 476 0036 05       		.byte	0x5
 477 0037 696E7400 		.ascii	"int\000"
 478 003b 02       		.uleb128 0x2
 479 003c 25040000 		.4byte	.LASF5
 480 0040 03       		.byte	0x3
 481 0041 D1       		.byte	0xd1
 482 0042 17       		.byte	0x17
 483 0043 2D000000 		.4byte	0x2d
 484 0047 04       		.uleb128 0x4
 485 0048 08       		.byte	0x8
 486 0049 05       		.byte	0x5
 487 004a 2A050000 		.4byte	.LASF2
 488 004e 04       		.uleb128 0x4
 489 004f 08       		.byte	0x8
 490 0050 04       		.byte	0x4
 491 0051 9F000000 		.4byte	.LASF3
 492 0055 04       		.uleb128 0x4
 493 0056 01       		.byte	0x1
 494 0057 06       		.byte	0x6
 495 0058 42030000 		.4byte	.LASF4
 496 005c 02       		.uleb128 0x2
 497 005d A4020000 		.4byte	.LASF6
 498 0061 04       		.byte	0x4
 499 0062 2B       		.byte	0x2b
 500 0063 18       		.byte	0x18
 501 0064 68000000 		.4byte	0x68
 502 0068 04       		.uleb128 0x4
 503 0069 01       		.byte	0x1
 504 006a 08       		.byte	0x8
 505 006b CF020000 		.4byte	.LASF7
 506 006f 04       		.uleb128 0x4
 507 0070 02       		.byte	0x2
 508 0071 05       		.byte	0x5
 509 0072 72000000 		.4byte	.LASF8
 510 0076 04       		.uleb128 0x4
 511 0077 02       		.byte	0x2
 512 0078 07       		.byte	0x7
 513 0079 C4030000 		.4byte	.LASF9
ARM GAS  C:\Users\DEVELO~1\AppData\Local\Temp\ccltPPQg.s 			page 10


 514 007d 04       		.uleb128 0x4
 515 007e 04       		.byte	0x4
 516 007f 05       		.byte	0x5
 517 0080 11040000 		.4byte	.LASF10
 518 0084 02       		.uleb128 0x2
 519 0085 AB000000 		.4byte	.LASF11
 520 0089 04       		.byte	0x4
 521 008a 4F       		.byte	0x4f
 522 008b 19       		.byte	0x19
 523 008c 90000000 		.4byte	0x90
 524 0090 04       		.uleb128 0x4
 525 0091 04       		.byte	0x4
 526 0092 07       		.byte	0x7
 527 0093 58040000 		.4byte	.LASF12
 528 0097 02       		.uleb128 0x2
 529 0098 40040000 		.4byte	.LASF13
 530 009c 04       		.byte	0x4
 531 009d 69       		.byte	0x69
 532 009e 19       		.byte	0x19
 533 009f 26000000 		.4byte	0x26
 534 00a3 02       		.uleb128 0x2
 535 00a4 BF010000 		.4byte	.LASF14
 536 00a8 05       		.byte	0x5
 537 00a9 18       		.byte	0x18
 538 00aa 13       		.byte	0x13
 539 00ab 5C000000 		.4byte	0x5c
 540 00af 09       		.uleb128 0x9
 541 00b0 A3000000 		.4byte	0xa3
 542 00b4 02       		.uleb128 0x2
 543 00b5 04020000 		.4byte	.LASF15
 544 00b9 05       		.byte	0x5
 545 00ba 30       		.byte	0x30
 546 00bb 14       		.byte	0x14
 547 00bc 84000000 		.4byte	0x84
 548 00c0 02       		.uleb128 0x2
 549 00c1 5A000000 		.4byte	.LASF16
 550 00c5 05       		.byte	0x5
 551 00c6 3C       		.byte	0x3c
 552 00c7 14       		.byte	0x14
 553 00c8 97000000 		.4byte	0x97
 554 00cc 04       		.uleb128 0x4
 555 00cd 01       		.byte	0x1
 556 00ce 08       		.byte	0x8
 557 00cf FD030000 		.4byte	.LASF17
 558 00d3 09       		.uleb128 0x9
 559 00d4 CC000000 		.4byte	0xcc
 560 00d8 02       		.uleb128 0x2
 561 00d9 32040000 		.4byte	.LASF18
 562 00dd 06       		.byte	0x6
 563 00de 79       		.byte	0x79
 564 00df 12       		.byte	0x12
 565 00e0 B4000000 		.4byte	0xb4
 566 00e4 02       		.uleb128 0x2
 567 00e5 BB040000 		.4byte	.LASF19
 568 00e9 06       		.byte	0x6
 569 00ea 9B       		.byte	0x9b
 570 00eb 12       		.byte	0x12
ARM GAS  C:\Users\DEVELO~1\AppData\Local\Temp\ccltPPQg.s 			page 11


 571 00ec C0000000 		.4byte	0xc0
 572 00f0 17       		.uleb128 0x17
 573 00f1 04       		.byte	0x4
 574 00f2 04       		.uleb128 0x4
 575 00f3 04       		.byte	0x4
 576 00f4 04       		.byte	0x4
 577 00f5 22020000 		.4byte	.LASF20
 578 00f9 04       		.uleb128 0x4
 579 00fa 08       		.byte	0x8
 580 00fb 04       		.byte	0x4
 581 00fc 6A040000 		.4byte	.LASF21
 582 0100 06       		.uleb128 0x6
 583 0101 A3000000 		.4byte	0xa3
 584 0105 04       		.uleb128 0x4
 585 0106 01       		.byte	0x1
 586 0107 02       		.byte	0x2
 587 0108 2C040000 		.4byte	.LASF22
 588 010c 06       		.uleb128 0x6
 589 010d AF000000 		.4byte	0xaf
 590 0111 12       		.uleb128 0x12
 591 0112 68000000 		.4byte	0x68
 592 0116 57       		.byte	0x57
 593 0117 40010000 		.4byte	0x140
 594 011b 05       		.uleb128 0x5
 595 011c 4B040000 		.4byte	.LASF23
 596 0120 00       		.byte	0
 597 0121 05       		.uleb128 0x5
 598 0122 1F050000 		.4byte	.LASF24
 599 0126 01       		.byte	0x1
 600 0127 05       		.uleb128 0x5
 601 0128 A0040000 		.4byte	.LASF25
 602 012c 02       		.byte	0x2
 603 012d 05       		.uleb128 0x5
 604 012e 1A040000 		.4byte	.LASF26
 605 0132 03       		.byte	0x3
 606 0133 05       		.uleb128 0x5
 607 0134 AC040000 		.4byte	.LASF27
 608 0138 04       		.byte	0x4
 609 0139 05       		.uleb128 0x5
 610 013a 63030000 		.4byte	.LASF28
 611 013e 05       		.byte	0x5
 612 013f 00       		.byte	0
 613 0140 02       		.uleb128 0x2
 614 0141 34000000 		.4byte	.LASF29
 615 0145 07       		.byte	0x7
 616 0146 5E       		.byte	0x5e
 617 0147 03       		.byte	0x3
 618 0148 11010000 		.4byte	0x111
 619 014c 12       		.uleb128 0x12
 620 014d 68000000 		.4byte	0x68
 621 0151 63       		.byte	0x63
 622 0152 87010000 		.4byte	0x187
 623 0156 05       		.uleb128 0x5
 624 0157 DE030000 		.4byte	.LASF30
 625 015b 00       		.byte	0
 626 015c 05       		.uleb128 0x5
 627 015d A0030000 		.4byte	.LASF31
ARM GAS  C:\Users\DEVELO~1\AppData\Local\Temp\ccltPPQg.s 			page 12


 628 0161 01       		.byte	0x1
 629 0162 05       		.uleb128 0x5
 630 0163 B3030000 		.4byte	.LASF32
 631 0167 02       		.byte	0x2
 632 0168 05       		.uleb128 0x5
 633 0169 C7040000 		.4byte	.LASF33
 634 016d 03       		.byte	0x3
 635 016e 05       		.uleb128 0x5
 636 016f 42000000 		.4byte	.LASF34
 637 0173 04       		.byte	0x4
 638 0174 05       		.uleb128 0x5
 639 0175 DB040000 		.4byte	.LASF35
 640 0179 05       		.byte	0x5
 641 017a 05       		.uleb128 0x5
 642 017b 03050000 		.4byte	.LASF36
 643 017f 06       		.byte	0x6
 644 0180 05       		.uleb128 0x5
 645 0181 28020000 		.4byte	.LASF37
 646 0185 07       		.byte	0x7
 647 0186 00       		.byte	0
 648 0187 02       		.uleb128 0x2
 649 0188 86000000 		.4byte	.LASF38
 650 018c 07       		.byte	0x7
 651 018d 6C       		.byte	0x6c
 652 018e 03       		.byte	0x3
 653 018f 4C010000 		.4byte	0x14c
 654 0193 02       		.uleb128 0x2
 655 0194 02040000 		.4byte	.LASF39
 656 0198 07       		.byte	0x7
 657 0199 71       		.byte	0x71
 658 019a 12       		.byte	0x12
 659 019b B4000000 		.4byte	0xb4
 660 019f 02       		.uleb128 0x2
 661 01a0 DC000000 		.4byte	.LASF40
 662 01a4 07       		.byte	0x7
 663 01a5 76       		.byte	0x76
 664 01a6 12       		.byte	0x12
 665 01a7 B4000000 		.4byte	0xb4
 666 01ab 0F       		.uleb128 0xf
 667 01ac 08       		.byte	0x8
 668 01ad 7B       		.byte	0x7b
 669 01ae CB010000 		.4byte	0x1cb
 670 01b2 01       		.uleb128 0x1
 671 01b3 D7030000 		.4byte	.LASF41
 672 01b7 7F       		.byte	0x7f
 673 01b8 19       		.byte	0x19
 674 01b9 93010000 		.4byte	0x193
 675 01bd 00       		.byte	0
 676 01be 01       		.uleb128 0x1
 677 01bf 9B040000 		.4byte	.LASF42
 678 01c3 83       		.byte	0x83
 679 01c4 19       		.byte	0x19
 680 01c5 B4000000 		.4byte	0xb4
 681 01c9 04       		.byte	0x4
 682 01ca 00       		.byte	0
 683 01cb 02       		.uleb128 0x2
 684 01cc AE020000 		.4byte	.LASF43
ARM GAS  C:\Users\DEVELO~1\AppData\Local\Temp\ccltPPQg.s 			page 13


 685 01d0 07       		.byte	0x7
 686 01d1 84       		.byte	0x84
 687 01d2 03       		.byte	0x3
 688 01d3 AB010000 		.4byte	0x1ab
 689 01d7 09       		.uleb128 0x9
 690 01d8 CB010000 		.4byte	0x1cb
 691 01dc 0F       		.uleb128 0xf
 692 01dd 1C       		.byte	0x1c
 693 01de 89       		.byte	0x89
 694 01df 38020000 		.4byte	0x238
 695 01e3 01       		.uleb128 0x1
 696 01e4 29000000 		.4byte	.LASF44
 697 01e8 8D       		.byte	0x8d
 698 01e9 19       		.byte	0x19
 699 01ea B4000000 		.4byte	0xb4
 700 01ee 00       		.byte	0
 701 01ef 01       		.uleb128 0x1
 702 01f0 7C000000 		.4byte	.LASF45
 703 01f4 91       		.byte	0x91
 704 01f5 19       		.byte	0x19
 705 01f6 B4000000 		.4byte	0xb4
 706 01fa 04       		.byte	0x4
 707 01fb 01       		.uleb128 0x1
 708 01fc 38050000 		.4byte	.LASF46
 709 0200 95       		.byte	0x95
 710 0201 19       		.byte	0x19
 711 0202 9F010000 		.4byte	0x19f
 712 0206 08       		.byte	0x8
 713 0207 01       		.uleb128 0x1
 714 0208 86040000 		.4byte	.LASF47
 715 020c 9B       		.byte	0x9b
 716 020d 24       		.byte	0x24
 717 020e 38020000 		.4byte	0x238
 718 0212 0C       		.byte	0xc
 719 0213 01       		.uleb128 0x1
 720 0214 56030000 		.4byte	.LASF48
 721 0218 A1       		.byte	0xa1
 722 0219 19       		.byte	0x19
 723 021a B4000000 		.4byte	0xb4
 724 021e 10       		.byte	0x10
 725 021f 01       		.uleb128 0x1
 726 0220 4E030000 		.4byte	.LASF49
 727 0224 A6       		.byte	0xa6
 728 0225 1A       		.byte	0x1a
 729 0226 00010000 		.4byte	0x100
 730 022a 14       		.byte	0x14
 731 022b 01       		.uleb128 0x1
 732 022c 9B040000 		.4byte	.LASF42
 733 0230 AA       		.byte	0xaa
 734 0231 19       		.byte	0x19
 735 0232 B4000000 		.4byte	0xb4
 736 0236 18       		.byte	0x18
 737 0237 00       		.byte	0
 738 0238 06       		.uleb128 0x6
 739 0239 D7010000 		.4byte	0x1d7
 740 023d 02       		.uleb128 0x2
 741 023e 7C030000 		.4byte	.LASF50
ARM GAS  C:\Users\DEVELO~1\AppData\Local\Temp\ccltPPQg.s 			page 14


 742 0242 07       		.byte	0x7
 743 0243 AB       		.byte	0xab
 744 0244 03       		.byte	0x3
 745 0245 DC010000 		.4byte	0x1dc
 746 0249 09       		.uleb128 0x9
 747 024a 3D020000 		.4byte	0x23d
 748 024e 18       		.uleb128 0x18
 749 024f A0010000 		.4byte	.LASF79
 750 0253 28       		.byte	0x28
 751 0254 07       		.byte	0x7
 752 0255 D0       		.byte	0xd0
 753 0256 08       		.byte	0x8
 754 0257 D4020000 		.4byte	0x2d4
 755 025b 01       		.uleb128 0x1
 756 025c 70020000 		.4byte	.LASF51
 757 0260 D1       		.byte	0xd1
 758 0261 03       		.byte	0x3
 759 0262 3B000000 		.4byte	0x3b
 760 0266 00       		.byte	0
 761 0267 01       		.uleb128 0x1
 762 0268 63000000 		.4byte	.LASF52
 763 026c D1       		.byte	0xd1
 764 026d 03       		.byte	0x3
 765 026e ED020000 		.4byte	0x2ed
 766 0272 04       		.byte	0x4
 767 0273 01       		.uleb128 0x1
 768 0274 42020000 		.4byte	.LASF53
 769 0278 D1       		.byte	0xd1
 770 0279 03       		.byte	0x3
 771 027a 10030000 		.4byte	0x310
 772 027e 08       		.byte	0x8
 773 027f 01       		.uleb128 0x1
 774 0280 FC010000 		.4byte	.LASF54
 775 0284 D1       		.byte	0xd1
 776 0285 03       		.byte	0x3
 777 0286 33030000 		.4byte	0x333
 778 028a 0C       		.byte	0xc
 779 028b 01       		.uleb128 0x1
 780 028c CC000000 		.4byte	.LASF55
 781 0290 D1       		.byte	0xd1
 782 0291 03       		.byte	0x3
 783 0292 47030000 		.4byte	0x347
 784 0296 10       		.byte	0x10
 785 0297 01       		.uleb128 0x1
 786 0298 91020000 		.4byte	.LASF56
 787 029c D1       		.byte	0xd1
 788 029d 03       		.byte	0x3
 789 029e 60030000 		.4byte	0x360
 790 02a2 14       		.byte	0x14
 791 02a3 01       		.uleb128 0x1
 792 02a4 80020000 		.4byte	.LASF57
 793 02a8 D1       		.byte	0xd1
 794 02a9 03       		.byte	0x3
 795 02aa 7E030000 		.4byte	0x37e
 796 02ae 18       		.byte	0x18
 797 02af 01       		.uleb128 0x1
 798 02b0 E6020000 		.4byte	.LASF58
ARM GAS  C:\Users\DEVELO~1\AppData\Local\Temp\ccltPPQg.s 			page 15


 799 02b4 D1       		.byte	0xd1
 800 02b5 03       		.byte	0x3
 801 02b6 60030000 		.4byte	0x360
 802 02ba 1C       		.byte	0x1c
 803 02bb 01       		.uleb128 0x1
 804 02bc 47020000 		.4byte	.LASF59
 805 02c0 D1       		.byte	0xd1
 806 02c1 03       		.byte	0x3
 807 02c2 47030000 		.4byte	0x347
 808 02c6 20       		.byte	0x20
 809 02c7 01       		.uleb128 0x1
 810 02c8 AD010000 		.4byte	.LASF60
 811 02cc D1       		.byte	0xd1
 812 02cd 03       		.byte	0x3
 813 02ce 47030000 		.4byte	0x347
 814 02d2 24       		.byte	0x24
 815 02d3 00       		.byte	0
 816 02d4 09       		.uleb128 0x9
 817 02d5 4E020000 		.4byte	0x24e
 818 02d9 0B       		.uleb128 0xb
 819 02da E8020000 		.4byte	0x2e8
 820 02de E8020000 		.4byte	0x2e8
 821 02e2 03       		.uleb128 0x3
 822 02e3 F0000000 		.4byte	0xf0
 823 02e7 00       		.byte	0
 824 02e8 06       		.uleb128 0x6
 825 02e9 49020000 		.4byte	0x249
 826 02ed 06       		.uleb128 0x6
 827 02ee D9020000 		.4byte	0x2d9
 828 02f2 0B       		.uleb128 0xb
 829 02f3 87010000 		.4byte	0x187
 830 02f7 10030000 		.4byte	0x310
 831 02fb 03       		.uleb128 0x3
 832 02fc F0000000 		.4byte	0xf0
 833 0300 03       		.uleb128 0x3
 834 0301 93010000 		.4byte	0x193
 835 0305 03       		.uleb128 0x3
 836 0306 3B000000 		.4byte	0x3b
 837 030a 03       		.uleb128 0x3
 838 030b 00010000 		.4byte	0x100
 839 030f 00       		.byte	0
 840 0310 06       		.uleb128 0x6
 841 0311 F2020000 		.4byte	0x2f2
 842 0315 0B       		.uleb128 0xb
 843 0316 87010000 		.4byte	0x187
 844 031a 33030000 		.4byte	0x333
 845 031e 03       		.uleb128 0x3
 846 031f F0000000 		.4byte	0xf0
 847 0323 03       		.uleb128 0x3
 848 0324 93010000 		.4byte	0x193
 849 0328 03       		.uleb128 0x3
 850 0329 3B000000 		.4byte	0x3b
 851 032d 03       		.uleb128 0x3
 852 032e 0C010000 		.4byte	0x10c
 853 0332 00       		.byte	0
 854 0333 06       		.uleb128 0x6
 855 0334 15030000 		.4byte	0x315
ARM GAS  C:\Users\DEVELO~1\AppData\Local\Temp\ccltPPQg.s 			page 16


 856 0338 0B       		.uleb128 0xb
 857 0339 87010000 		.4byte	0x187
 858 033d 47030000 		.4byte	0x347
 859 0341 03       		.uleb128 0x3
 860 0342 F0000000 		.4byte	0xf0
 861 0346 00       		.byte	0
 862 0347 06       		.uleb128 0x6
 863 0348 38030000 		.4byte	0x338
 864 034c 0B       		.uleb128 0xb
 865 034d 87010000 		.4byte	0x187
 866 0351 60030000 		.4byte	0x360
 867 0355 03       		.uleb128 0x3
 868 0356 F0000000 		.4byte	0xf0
 869 035a 03       		.uleb128 0x3
 870 035b 9F010000 		.4byte	0x19f
 871 035f 00       		.byte	0
 872 0360 06       		.uleb128 0x6
 873 0361 4C030000 		.4byte	0x34c
 874 0365 0B       		.uleb128 0xb
 875 0366 87010000 		.4byte	0x187
 876 036a 79030000 		.4byte	0x379
 877 036e 03       		.uleb128 0x3
 878 036f F0000000 		.4byte	0xf0
 879 0373 03       		.uleb128 0x3
 880 0374 79030000 		.4byte	0x379
 881 0378 00       		.byte	0
 882 0379 06       		.uleb128 0x6
 883 037a B4000000 		.4byte	0xb4
 884 037e 06       		.uleb128 0x6
 885 037f 65030000 		.4byte	0x365
 886 0383 0F       		.uleb128 0xf
 887 0384 08       		.byte	0x8
 888 0385 E1       		.byte	0xe1
 889 0386 A4030000 		.4byte	0x3a4
 890 038a 19       		.uleb128 0x19
 891 038b 766D7400 		.ascii	"vmt\000"
 892 038f 07       		.byte	0x7
 893 0390 E3       		.byte	0xe3
 894 0391 1E       		.byte	0x1e
 895 0392 A4030000 		.4byte	0x3a4
 896 0396 00       		.byte	0
 897 0397 01       		.uleb128 0x1
 898 0398 54000000 		.4byte	.LASF61
 899 039c E4       		.byte	0xe4
 900 039d 03       		.byte	0x3
 901 039e 40010000 		.4byte	0x140
 902 03a2 04       		.byte	0x4
 903 03a3 00       		.byte	0
 904 03a4 06       		.uleb128 0x6
 905 03a5 D4020000 		.4byte	0x2d4
 906 03a9 02       		.uleb128 0x2
 907 03aa F9040000 		.4byte	.LASF62
 908 03ae 07       		.byte	0x7
 909 03af E5       		.byte	0xe5
 910 03b0 03       		.byte	0x3
 911 03b1 83030000 		.4byte	0x383
 912 03b5 1A       		.uleb128 0x1a
ARM GAS  C:\Users\DEVELO~1\AppData\Local\Temp\ccltPPQg.s 			page 17


 913 03b6 94000000 		.4byte	.LASF80
 914 03ba 08       		.byte	0x8
 915 03bb 4201     		.2byte	0x142
 916 03bd 08       		.byte	0x8
 917 03be C8030000 		.4byte	0x3c8
 918 03c2 03       		.uleb128 0x3
 919 03c3 D8000000 		.4byte	0xd8
 920 03c7 00       		.byte	0
 921 03c8 0C       		.uleb128 0xc
 922 03c9 B6000000 		.4byte	.LASF65
 923 03cd C1       		.byte	0xc1
 924 03ce 10       		.byte	0x10
 925 03cf 93010000 		.4byte	0x193
 926 03d3 00000000 		.4byte	.LFB436
 927 03d7 10000000 		.4byte	.LFE436-.LFB436
 928 03db 01       		.uleb128 0x1
 929 03dc 9C       		.byte	0x9c
 930 03dd 31040000 		.4byte	0x431
 931 03e1 07       		.uleb128 0x7
 932 03e2 B6040000 		.4byte	.LASF63
 933 03e6 C1       		.byte	0xc1
 934 03e7 31       		.byte	0x31
 935 03e8 31040000 		.4byte	0x431
 936 03ec 10000000 		.4byte	.LLST23
 937 03f0 0C000000 		.4byte	.LVUS23
 938 03f4 07       		.uleb128 0x7
 939 03f5 8C020000 		.4byte	.LASF64
 940 03f9 C1       		.byte	0xc1
 941 03fa 3D       		.byte	0x3d
 942 03fb F0000000 		.4byte	0xf0
 943 03ff 27000000 		.4byte	.LLST24
 944 0403 23000000 		.4byte	.LVUS24
 945 0407 08       		.uleb128 0x8
 946 0408 46050000 		.4byte	.LASF67
 947 040c C2       		.byte	0xc2
 948 040d 1D       		.byte	0x1d
 949 040e E8020000 		.4byte	0x2e8
 950 0412 39000000 		.4byte	.LLST25
 951 0416 37000000 		.4byte	.LVUS25
 952 041a 0E       		.uleb128 0xe
 953 041b DD020000 		.4byte	.LASF68
 954 041f 46040000 		.4byte	0x446
 955 0423 0D       		.uleb128 0xd
 956 0424 0A000000 		.4byte	.LVL36
 957 0428 0A       		.uleb128 0xa
 958 0429 01       		.uleb128 0x1
 959 042a 50       		.byte	0x50
 960 042b 03       		.uleb128 0x3
 961 042c A3       		.byte	0xa3
 962 042d 01       		.uleb128 0x1
 963 042e 50       		.byte	0x50
 964 042f 00       		.byte	0
 965 0430 00       		.byte	0
 966 0431 06       		.uleb128 0x6
 967 0432 A9030000 		.4byte	0x3a9
 968 0436 10       		.uleb128 0x10
 969 0437 D3000000 		.4byte	0xd3
ARM GAS  C:\Users\DEVELO~1\AppData\Local\Temp\ccltPPQg.s 			page 18


 970 043b 46040000 		.4byte	0x446
 971 043f 11       		.uleb128 0x11
 972 0440 2D000000 		.4byte	0x2d
 973 0444 15       		.byte	0x15
 974 0445 00       		.byte	0
 975 0446 09       		.uleb128 0x9
 976 0447 36040000 		.4byte	0x436
 977 044b 0C       		.uleb128 0xc
 978 044c 00000000 		.4byte	.LASF66
 979 0450 B0       		.byte	0xb0
 980 0451 07       		.byte	0x7
 981 0452 F0000000 		.4byte	0xf0
 982 0456 00000000 		.4byte	.LFB435
 983 045a 10000000 		.4byte	.LFE435-.LFB435
 984 045e 01       		.uleb128 0x1
 985 045f 9C       		.byte	0x9c
 986 0460 B4040000 		.4byte	0x4b4
 987 0464 07       		.uleb128 0x7
 988 0465 B6040000 		.4byte	.LASF63
 989 0469 B0       		.byte	0xb0
 990 046a 28       		.byte	0x28
 991 046b 31040000 		.4byte	0x431
 992 046f 46000000 		.4byte	.LLST20
 993 0473 42000000 		.4byte	.LVUS20
 994 0477 07       		.uleb128 0x7
 995 0478 D7030000 		.4byte	.LASF41
 996 047c B0       		.byte	0xb0
 997 047d 3D       		.byte	0x3d
 998 047e 93010000 		.4byte	0x193
 999 0482 5D000000 		.4byte	.LLST21
 1000 0486 59000000 		.4byte	.LVUS21
 1001 048a 08       		.uleb128 0x8
 1002 048b 46050000 		.4byte	.LASF67
 1003 048f B1       		.byte	0xb1
 1004 0490 1D       		.byte	0x1d
 1005 0491 E8020000 		.4byte	0x2e8
 1006 0495 6F000000 		.4byte	.LLST22
 1007 0499 6D000000 		.4byte	.LVUS22
 1008 049d 0E       		.uleb128 0xe
 1009 049e DD020000 		.4byte	.LASF68
 1010 04a2 46040000 		.4byte	0x446
 1011 04a6 0D       		.uleb128 0xd
 1012 04a7 0A000000 		.4byte	.LVL33
 1013 04ab 0A       		.uleb128 0xa
 1014 04ac 01       		.uleb128 0x1
 1015 04ad 50       		.byte	0x50
 1016 04ae 03       		.uleb128 0x3
 1017 04af A3       		.byte	0xa3
 1018 04b0 01       		.uleb128 0x1
 1019 04b1 50       		.byte	0x50
 1020 04b2 00       		.byte	0
 1021 04b3 00       		.byte	0
 1022 04b4 0C       		.uleb128 0xc
 1023 04b5 E7010000 		.4byte	.LASF69
 1024 04b9 8B       		.byte	0x8b
 1025 04ba 10       		.byte	0x10
 1026 04bb 9F010000 		.4byte	0x19f
ARM GAS  C:\Users\DEVELO~1\AppData\Local\Temp\ccltPPQg.s 			page 19


 1027 04bf 00000000 		.4byte	.LFB434
 1028 04c3 46000000 		.4byte	.LFE434-.LFB434
 1029 04c7 01       		.uleb128 0x1
 1030 04c8 9C       		.byte	0x9c
 1031 04c9 75050000 		.4byte	0x575
 1032 04cd 07       		.uleb128 0x7
 1033 04ce B6040000 		.4byte	.LASF63
 1034 04d2 8B       		.byte	0x8b
 1035 04d3 30       		.byte	0x30
 1036 04d4 31040000 		.4byte	0x431
 1037 04d8 7C000000 		.4byte	.LLST13
 1038 04dc 78000000 		.4byte	.LVUS13
 1039 04e0 07       		.uleb128 0x7
 1040 04e1 D7030000 		.4byte	.LASF41
 1041 04e5 8B       		.byte	0x8b
 1042 04e6 45       		.byte	0x45
 1043 04e7 93010000 		.4byte	0x193
 1044 04eb 93000000 		.4byte	.LLST14
 1045 04ef 8F000000 		.4byte	.LVUS14
 1046 04f3 08       		.uleb128 0x8
 1047 04f4 C8020000 		.4byte	.LASF70
 1048 04f8 8C       		.byte	0x8c
 1049 04f9 12       		.byte	0x12
 1050 04fa 9F010000 		.4byte	0x19f
 1051 04fe A5000000 		.4byte	.LLST15
 1052 0502 A3000000 		.4byte	.LVUS15
 1053 0506 13       		.uleb128 0x13
 1054 0507 6900     		.ascii	"i\000"
 1055 0509 8C       		.byte	0x8c
 1056 050a 1A       		.byte	0x1a
 1057 050b 9F010000 		.4byte	0x19f
 1058 050f B4000000 		.4byte	.LLST16
 1059 0513 AE000000 		.4byte	.LVUS16
 1060 0517 08       		.uleb128 0x8
 1061 0518 46050000 		.4byte	.LASF67
 1062 051c 8D       		.byte	0x8d
 1063 051d 1D       		.byte	0x1d
 1064 051e E8020000 		.4byte	0x2e8
 1065 0522 D1000000 		.4byte	.LLST17
 1066 0526 CB000000 		.4byte	.LVUS17
 1067 052a 0E       		.uleb128 0xe
 1068 052b DD020000 		.4byte	.LASF68
 1069 052f 85050000 		.4byte	0x585
 1070 0533 1B       		.uleb128 0x1b
 1071 0534 0E000000 		.4byte	.LBB13
 1072 0538 26000000 		.4byte	.LBE13-.LBB13
 1073 053c 67050000 		.4byte	0x567
 1074 0540 08       		.uleb128 0x8
 1075 0541 8E040000 		.4byte	.LASF71
 1076 0545 92       		.byte	0x92
 1077 0546 14       		.byte	0x14
 1078 0547 93010000 		.4byte	0x193
 1079 054b EA000000 		.4byte	.LLST18
 1080 054f E6000000 		.4byte	.LVUS18
 1081 0553 08       		.uleb128 0x8
 1082 0554 EE040000 		.4byte	.LASF72
 1083 0558 93       		.byte	0x93
ARM GAS  C:\Users\DEVELO~1\AppData\Local\Temp\ccltPPQg.s 			page 20


 1084 0559 14       		.byte	0x14
 1085 055a 93010000 		.4byte	0x193
 1086 055e 02010000 		.4byte	.LLST19
 1087 0562 FA000000 		.4byte	.LVUS19
 1088 0566 00       		.byte	0
 1089 0567 0D       		.uleb128 0xd
 1090 0568 0A000000 		.4byte	.LVL18
 1091 056c 0A       		.uleb128 0xa
 1092 056d 01       		.uleb128 0x1
 1093 056e 50       		.byte	0x50
 1094 056f 03       		.uleb128 0x3
 1095 0570 A3       		.byte	0xa3
 1096 0571 01       		.uleb128 0x1
 1097 0572 50       		.byte	0x50
 1098 0573 00       		.byte	0
 1099 0574 00       		.byte	0
 1100 0575 10       		.uleb128 0x10
 1101 0576 D3000000 		.4byte	0xd3
 1102 057a 85050000 		.4byte	0x585
 1103 057e 11       		.uleb128 0x11
 1104 057f 2D000000 		.4byte	0x2d
 1105 0583 14       		.byte	0x14
 1106 0584 00       		.byte	0
 1107 0585 09       		.uleb128 0x9
 1108 0586 75050000 		.4byte	0x575
 1109 058a 0C       		.uleb128 0xc
 1110 058b 16000000 		.4byte	.LASF73
 1111 058f 71       		.byte	0x71
 1112 0590 0A       		.byte	0xa
 1113 0591 B4000000 		.4byte	0xb4
 1114 0595 00000000 		.4byte	.LFB433
 1115 0599 1A000000 		.4byte	.LFE433-.LFB433
 1116 059d 01       		.uleb128 0x1
 1117 059e 9C       		.byte	0x9c
 1118 059f 06060000 		.4byte	0x606
 1119 05a3 07       		.uleb128 0x7
 1120 05a4 B6040000 		.4byte	.LASF63
 1121 05a8 71       		.byte	0x71
 1122 05a9 28       		.byte	0x28
 1123 05aa 31040000 		.4byte	0x431
 1124 05ae 5C010000 		.4byte	.LLST9
 1125 05b2 58010000 		.4byte	.LVUS9
 1126 05b6 07       		.uleb128 0x7
 1127 05b7 C8020000 		.4byte	.LASF70
 1128 05bb 72       		.byte	0x72
 1129 05bc 2C       		.byte	0x2c
 1130 05bd 9F010000 		.4byte	0x19f
 1131 05c1 73010000 		.4byte	.LLST10
 1132 05c5 6F010000 		.4byte	.LVUS10
 1133 05c9 08       		.uleb128 0x8
 1134 05ca 9B040000 		.4byte	.LASF42
 1135 05ce 73       		.byte	0x73
 1136 05cf 0C       		.byte	0xc
 1137 05d0 B4000000 		.4byte	0xb4
 1138 05d4 87010000 		.4byte	.LLST11
 1139 05d8 83010000 		.4byte	.LVUS11
 1140 05dc 08       		.uleb128 0x8
ARM GAS  C:\Users\DEVELO~1\AppData\Local\Temp\ccltPPQg.s 			page 21


 1141 05dd 46050000 		.4byte	.LASF67
 1142 05e1 74       		.byte	0x74
 1143 05e2 1D       		.byte	0x1d
 1144 05e3 E8020000 		.4byte	0x2e8
 1145 05e7 9B010000 		.4byte	.LLST12
 1146 05eb 97010000 		.4byte	.LVUS12
 1147 05ef 0E       		.uleb128 0xe
 1148 05f0 DD020000 		.4byte	.LASF68
 1149 05f4 16060000 		.4byte	0x616
 1150 05f8 0D       		.uleb128 0xd
 1151 05f9 0A000000 		.4byte	.LVL13
 1152 05fd 0A       		.uleb128 0xa
 1153 05fe 01       		.uleb128 0x1
 1154 05ff 50       		.byte	0x50
 1155 0600 03       		.uleb128 0x3
 1156 0601 A3       		.byte	0xa3
 1157 0602 01       		.uleb128 0x1
 1158 0603 50       		.byte	0x50
 1159 0604 00       		.byte	0
 1160 0605 00       		.byte	0
 1161 0606 10       		.uleb128 0x10
 1162 0607 D3000000 		.4byte	0xd3
 1163 060b 16060000 		.4byte	0x616
 1164 060f 11       		.uleb128 0x11
 1165 0610 2D000000 		.4byte	0x2d
 1166 0614 12       		.byte	0x12
 1167 0615 00       		.byte	0
 1168 0616 09       		.uleb128 0x9
 1169 0617 06060000 		.4byte	0x606
 1170 061b 0C       		.uleb128 0xc
 1171 061c 71040000 		.4byte	.LASF74
 1172 0620 57       		.byte	0x57
 1173 0621 10       		.byte	0x10
 1174 0622 93010000 		.4byte	0x193
 1175 0626 00000000 		.4byte	.LFB432
 1176 062a 1C000000 		.4byte	.LFE432-.LFB432
 1177 062e 01       		.uleb128 0x1
 1178 062f 9C       		.byte	0x9c
 1179 0630 97060000 		.4byte	0x697
 1180 0634 07       		.uleb128 0x7
 1181 0635 B6040000 		.4byte	.LASF63
 1182 0639 57       		.byte	0x57
 1183 063a 30       		.byte	0x30
 1184 063b 31040000 		.4byte	0x431
 1185 063f AF010000 		.4byte	.LLST5
 1186 0643 AB010000 		.4byte	.LVUS5
 1187 0647 07       		.uleb128 0x7
 1188 0648 C8020000 		.4byte	.LASF70
 1189 064c 58       		.byte	0x58
 1190 064d 34       		.byte	0x34
 1191 064e 9F010000 		.4byte	0x19f
 1192 0652 C6010000 		.4byte	.LLST6
 1193 0656 C2010000 		.4byte	.LVUS6
 1194 065a 08       		.uleb128 0x8
 1195 065b D7030000 		.4byte	.LASF41
 1196 065f 59       		.byte	0x59
 1197 0660 12       		.byte	0x12
ARM GAS  C:\Users\DEVELO~1\AppData\Local\Temp\ccltPPQg.s 			page 22


 1198 0661 93010000 		.4byte	0x193
 1199 0665 DA010000 		.4byte	.LLST7
 1200 0669 D6010000 		.4byte	.LVUS7
 1201 066d 08       		.uleb128 0x8
 1202 066e 46050000 		.4byte	.LASF67
 1203 0672 5A       		.byte	0x5a
 1204 0673 1D       		.byte	0x1d
 1205 0674 E8020000 		.4byte	0x2e8
 1206 0678 EE010000 		.4byte	.LLST8
 1207 067c EA010000 		.4byte	.LVUS8
 1208 0680 0E       		.uleb128 0xe
 1209 0681 DD020000 		.4byte	.LASF68
 1210 0685 85050000 		.4byte	0x585
 1211 0689 0D       		.uleb128 0xd
 1212 068a 0A000000 		.4byte	.LVL7
 1213 068e 0A       		.uleb128 0xa
 1214 068f 01       		.uleb128 0x1
 1215 0690 50       		.byte	0x50
 1216 0691 03       		.uleb128 0x3
 1217 0692 A3       		.byte	0xa3
 1218 0693 01       		.uleb128 0x1
 1219 0694 50       		.byte	0x50
 1220 0695 00       		.byte	0
 1221 0696 00       		.byte	0
 1222 0697 0C       		.uleb128 0xc
 1223 0698 0D020000 		.4byte	.LASF75
 1224 069c 3D       		.byte	0x3d
 1225 069d 0F       		.byte	0xf
 1226 069e 87010000 		.4byte	0x187
 1227 06a2 00000000 		.4byte	.LFB431
 1228 06a6 40000000 		.4byte	.LFE431-.LFB431
 1229 06aa 01       		.uleb128 0x1
 1230 06ab 9C       		.byte	0x9c
 1231 06ac 33070000 		.4byte	0x733
 1232 06b0 07       		.uleb128 0x7
 1233 06b1 B6040000 		.4byte	.LASF63
 1234 06b5 3D       		.byte	0x3d
 1235 06b6 29       		.byte	0x29
 1236 06b7 31040000 		.4byte	0x431
 1237 06bb 02020000 		.4byte	.LLST0
 1238 06bf FE010000 		.4byte	.LVUS0
 1239 06c3 1C       		.uleb128 0x1c
 1240 06c4 0C000000 		.4byte	.LLRL1
 1241 06c8 13       		.uleb128 0x13
 1242 06c9 65727200 		.ascii	"err\000"
 1243 06cd 40       		.byte	0x40
 1244 06ce 13       		.byte	0x13
 1245 06cf 87010000 		.4byte	0x187
 1246 06d3 16020000 		.4byte	.LLST2
 1247 06d7 12020000 		.4byte	.LVUS2
 1248 06db 1D       		.uleb128 0x1d
 1249 06dc 1A050000 		.4byte	.LASF81
 1250 06e0 01       		.byte	0x1
 1251 06e1 41       		.byte	0x41
 1252 06e2 0E       		.byte	0xe
 1253 06e3 B4000000 		.4byte	0xb4
 1254 06e7 02       		.uleb128 0x2
ARM GAS  C:\Users\DEVELO~1\AppData\Local\Temp\ccltPPQg.s 			page 23


 1255 06e8 91       		.byte	0x91
 1256 06e9 64       		.sleb128 -28
 1257 06ea 1E       		.uleb128 0x1e
 1258 06eb 33070000 		.4byte	0x733
 1259 06ef 30000000 		.4byte	.LBI6
 1260 06f3 01       		.byte	.LVU18
 1261 06f4 1E000000 		.4byte	.LLRL3
 1262 06f8 01       		.byte	0x1
 1263 06f9 4A       		.byte	0x4a
 1264 06fa 05       		.byte	0x5
 1265 06fb 16070000 		.4byte	0x716
 1266 06ff 1F       		.uleb128 0x1f
 1267 0700 41070000 		.4byte	0x741
 1268 0704 2A020000 		.4byte	.LLST4
 1269 0708 26020000 		.4byte	.LVUS4
 1270 070c 14       		.uleb128 0x14
 1271 070d 26000000 		.4byte	.LVL4
 1272 0711 B5030000 		.4byte	0x3b5
 1273 0715 00       		.byte	0
 1274 0716 14       		.uleb128 0x14
 1275 0717 22000000 		.4byte	.LVL3
 1276 071b 4F070000 		.4byte	0x74f
 1277 071f 0D       		.uleb128 0xd
 1278 0720 30000000 		.4byte	.LVL5
 1279 0724 0A       		.uleb128 0xa
 1280 0725 01       		.uleb128 0x1
 1281 0726 50       		.byte	0x50
 1282 0727 02       		.uleb128 0x2
 1283 0728 74       		.byte	0x74
 1284 0729 00       		.sleb128 0
 1285 072a 0A       		.uleb128 0xa
 1286 072b 01       		.uleb128 0x1
 1287 072c 51       		.byte	0x51
 1288 072d 02       		.uleb128 0x2
 1289 072e 91       		.byte	0x91
 1290 072f 64       		.sleb128 -28
 1291 0730 00       		.byte	0
 1292 0731 00       		.byte	0
 1293 0732 00       		.byte	0
 1294 0733 20       		.uleb128 0x20
 1295 0734 ED030000 		.4byte	.LASF82
 1296 0738 02       		.byte	0x2
 1297 0739 0E03     		.2byte	0x30e
 1298 073b 14       		.byte	0x14
 1299 073c 03       		.byte	0x3
 1300 073d 4F070000 		.4byte	0x74f
 1301 0741 21       		.uleb128 0x21
 1302 0742 1C020000 		.4byte	.LASF83
 1303 0746 02       		.byte	0x2
 1304 0747 0E03     		.2byte	0x30e
 1305 0749 32       		.byte	0x32
 1306 074a D8000000 		.4byte	0xd8
 1307 074e 00       		.byte	0
 1308 074f 22       		.uleb128 0x22
 1309 0750 8F030000 		.4byte	.LASF84
 1310 0754 8F030000 		.4byte	.LASF84
 1311 0758 00       		.byte	0
ARM GAS  C:\Users\DEVELO~1\AppData\Local\Temp\ccltPPQg.s 			page 24


 1312              		.section	.debug_abbrev,"",%progbits
 1313              	.Ldebug_abbrev0:
 1314 0000 01       		.uleb128 0x1
 1315 0001 0D       		.uleb128 0xd
 1316 0002 00       		.byte	0
 1317 0003 03       		.uleb128 0x3
 1318 0004 0E       		.uleb128 0xe
 1319 0005 3A       		.uleb128 0x3a
 1320 0006 21       		.uleb128 0x21
 1321 0007 07       		.sleb128 7
 1322 0008 3B       		.uleb128 0x3b
 1323 0009 0B       		.uleb128 0xb
 1324 000a 39       		.uleb128 0x39
 1325 000b 0B       		.uleb128 0xb
 1326 000c 49       		.uleb128 0x49
 1327 000d 13       		.uleb128 0x13
 1328 000e 38       		.uleb128 0x38
 1329 000f 0B       		.uleb128 0xb
 1330 0010 00       		.byte	0
 1331 0011 00       		.byte	0
 1332 0012 02       		.uleb128 0x2
 1333 0013 16       		.uleb128 0x16
 1334 0014 00       		.byte	0
 1335 0015 03       		.uleb128 0x3
 1336 0016 0E       		.uleb128 0xe
 1337 0017 3A       		.uleb128 0x3a
 1338 0018 0B       		.uleb128 0xb
 1339 0019 3B       		.uleb128 0x3b
 1340 001a 0B       		.uleb128 0xb
 1341 001b 39       		.uleb128 0x39
 1342 001c 0B       		.uleb128 0xb
 1343 001d 49       		.uleb128 0x49
 1344 001e 13       		.uleb128 0x13
 1345 001f 00       		.byte	0
 1346 0020 00       		.byte	0
 1347 0021 03       		.uleb128 0x3
 1348 0022 05       		.uleb128 0x5
 1349 0023 00       		.byte	0
 1350 0024 49       		.uleb128 0x49
 1351 0025 13       		.uleb128 0x13
 1352 0026 00       		.byte	0
 1353 0027 00       		.byte	0
 1354 0028 04       		.uleb128 0x4
 1355 0029 24       		.uleb128 0x24
 1356 002a 00       		.byte	0
 1357 002b 0B       		.uleb128 0xb
 1358 002c 0B       		.uleb128 0xb
 1359 002d 3E       		.uleb128 0x3e
 1360 002e 0B       		.uleb128 0xb
 1361 002f 03       		.uleb128 0x3
 1362 0030 0E       		.uleb128 0xe
 1363 0031 00       		.byte	0
 1364 0032 00       		.byte	0
 1365 0033 05       		.uleb128 0x5
 1366 0034 28       		.uleb128 0x28
 1367 0035 00       		.byte	0
 1368 0036 03       		.uleb128 0x3
ARM GAS  C:\Users\DEVELO~1\AppData\Local\Temp\ccltPPQg.s 			page 25


 1369 0037 0E       		.uleb128 0xe
 1370 0038 1C       		.uleb128 0x1c
 1371 0039 0B       		.uleb128 0xb
 1372 003a 00       		.byte	0
 1373 003b 00       		.byte	0
 1374 003c 06       		.uleb128 0x6
 1375 003d 0F       		.uleb128 0xf
 1376 003e 00       		.byte	0
 1377 003f 0B       		.uleb128 0xb
 1378 0040 21       		.uleb128 0x21
 1379 0041 04       		.sleb128 4
 1380 0042 49       		.uleb128 0x49
 1381 0043 13       		.uleb128 0x13
 1382 0044 00       		.byte	0
 1383 0045 00       		.byte	0
 1384 0046 07       		.uleb128 0x7
 1385 0047 05       		.uleb128 0x5
 1386 0048 00       		.byte	0
 1387 0049 03       		.uleb128 0x3
 1388 004a 0E       		.uleb128 0xe
 1389 004b 3A       		.uleb128 0x3a
 1390 004c 21       		.uleb128 0x21
 1391 004d 01       		.sleb128 1
 1392 004e 3B       		.uleb128 0x3b
 1393 004f 0B       		.uleb128 0xb
 1394 0050 39       		.uleb128 0x39
 1395 0051 0B       		.uleb128 0xb
 1396 0052 49       		.uleb128 0x49
 1397 0053 13       		.uleb128 0x13
 1398 0054 02       		.uleb128 0x2
 1399 0055 17       		.uleb128 0x17
 1400 0056 B742     		.uleb128 0x2137
 1401 0058 17       		.uleb128 0x17
 1402 0059 00       		.byte	0
 1403 005a 00       		.byte	0
 1404 005b 08       		.uleb128 0x8
 1405 005c 34       		.uleb128 0x34
 1406 005d 00       		.byte	0
 1407 005e 03       		.uleb128 0x3
 1408 005f 0E       		.uleb128 0xe
 1409 0060 3A       		.uleb128 0x3a
 1410 0061 21       		.uleb128 0x21
 1411 0062 01       		.sleb128 1
 1412 0063 3B       		.uleb128 0x3b
 1413 0064 0B       		.uleb128 0xb
 1414 0065 39       		.uleb128 0x39
 1415 0066 0B       		.uleb128 0xb
 1416 0067 49       		.uleb128 0x49
 1417 0068 13       		.uleb128 0x13
 1418 0069 02       		.uleb128 0x2
 1419 006a 17       		.uleb128 0x17
 1420 006b B742     		.uleb128 0x2137
 1421 006d 17       		.uleb128 0x17
 1422 006e 00       		.byte	0
 1423 006f 00       		.byte	0
 1424 0070 09       		.uleb128 0x9
 1425 0071 26       		.uleb128 0x26
ARM GAS  C:\Users\DEVELO~1\AppData\Local\Temp\ccltPPQg.s 			page 26


 1426 0072 00       		.byte	0
 1427 0073 49       		.uleb128 0x49
 1428 0074 13       		.uleb128 0x13
 1429 0075 00       		.byte	0
 1430 0076 00       		.byte	0
 1431 0077 0A       		.uleb128 0xa
 1432 0078 49       		.uleb128 0x49
 1433 0079 00       		.byte	0
 1434 007a 02       		.uleb128 0x2
 1435 007b 18       		.uleb128 0x18
 1436 007c 7E       		.uleb128 0x7e
 1437 007d 18       		.uleb128 0x18
 1438 007e 00       		.byte	0
 1439 007f 00       		.byte	0
 1440 0080 0B       		.uleb128 0xb
 1441 0081 15       		.uleb128 0x15
 1442 0082 01       		.byte	0x1
 1443 0083 27       		.uleb128 0x27
 1444 0084 19       		.uleb128 0x19
 1445 0085 49       		.uleb128 0x49
 1446 0086 13       		.uleb128 0x13
 1447 0087 01       		.uleb128 0x1
 1448 0088 13       		.uleb128 0x13
 1449 0089 00       		.byte	0
 1450 008a 00       		.byte	0
 1451 008b 0C       		.uleb128 0xc
 1452 008c 2E       		.uleb128 0x2e
 1453 008d 01       		.byte	0x1
 1454 008e 3F       		.uleb128 0x3f
 1455 008f 19       		.uleb128 0x19
 1456 0090 03       		.uleb128 0x3
 1457 0091 0E       		.uleb128 0xe
 1458 0092 3A       		.uleb128 0x3a
 1459 0093 21       		.uleb128 0x21
 1460 0094 01       		.sleb128 1
 1461 0095 3B       		.uleb128 0x3b
 1462 0096 0B       		.uleb128 0xb
 1463 0097 39       		.uleb128 0x39
 1464 0098 0B       		.uleb128 0xb
 1465 0099 27       		.uleb128 0x27
 1466 009a 19       		.uleb128 0x19
 1467 009b 49       		.uleb128 0x49
 1468 009c 13       		.uleb128 0x13
 1469 009d 11       		.uleb128 0x11
 1470 009e 01       		.uleb128 0x1
 1471 009f 12       		.uleb128 0x12
 1472 00a0 06       		.uleb128 0x6
 1473 00a1 40       		.uleb128 0x40
 1474 00a2 18       		.uleb128 0x18
 1475 00a3 7A       		.uleb128 0x7a
 1476 00a4 19       		.uleb128 0x19
 1477 00a5 01       		.uleb128 0x1
 1478 00a6 13       		.uleb128 0x13
 1479 00a7 00       		.byte	0
 1480 00a8 00       		.byte	0
 1481 00a9 0D       		.uleb128 0xd
 1482 00aa 48       		.uleb128 0x48
ARM GAS  C:\Users\DEVELO~1\AppData\Local\Temp\ccltPPQg.s 			page 27


 1483 00ab 01       		.byte	0x1
 1484 00ac 7D       		.uleb128 0x7d
 1485 00ad 01       		.uleb128 0x1
 1486 00ae 00       		.byte	0
 1487 00af 00       		.byte	0
 1488 00b0 0E       		.uleb128 0xe
 1489 00b1 34       		.uleb128 0x34
 1490 00b2 00       		.byte	0
 1491 00b3 03       		.uleb128 0x3
 1492 00b4 0E       		.uleb128 0xe
 1493 00b5 49       		.uleb128 0x49
 1494 00b6 13       		.uleb128 0x13
 1495 00b7 34       		.uleb128 0x34
 1496 00b8 19       		.uleb128 0x19
 1497 00b9 00       		.byte	0
 1498 00ba 00       		.byte	0
 1499 00bb 0F       		.uleb128 0xf
 1500 00bc 13       		.uleb128 0x13
 1501 00bd 01       		.byte	0x1
 1502 00be 0B       		.uleb128 0xb
 1503 00bf 0B       		.uleb128 0xb
 1504 00c0 3A       		.uleb128 0x3a
 1505 00c1 21       		.uleb128 0x21
 1506 00c2 07       		.sleb128 7
 1507 00c3 3B       		.uleb128 0x3b
 1508 00c4 0B       		.uleb128 0xb
 1509 00c5 39       		.uleb128 0x39
 1510 00c6 21       		.uleb128 0x21
 1511 00c7 09       		.sleb128 9
 1512 00c8 01       		.uleb128 0x1
 1513 00c9 13       		.uleb128 0x13
 1514 00ca 00       		.byte	0
 1515 00cb 00       		.byte	0
 1516 00cc 10       		.uleb128 0x10
 1517 00cd 01       		.uleb128 0x1
 1518 00ce 01       		.byte	0x1
 1519 00cf 49       		.uleb128 0x49
 1520 00d0 13       		.uleb128 0x13
 1521 00d1 01       		.uleb128 0x1
 1522 00d2 13       		.uleb128 0x13
 1523 00d3 00       		.byte	0
 1524 00d4 00       		.byte	0
 1525 00d5 11       		.uleb128 0x11
 1526 00d6 21       		.uleb128 0x21
 1527 00d7 00       		.byte	0
 1528 00d8 49       		.uleb128 0x49
 1529 00d9 13       		.uleb128 0x13
 1530 00da 2F       		.uleb128 0x2f
 1531 00db 0B       		.uleb128 0xb
 1532 00dc 00       		.byte	0
 1533 00dd 00       		.byte	0
 1534 00de 12       		.uleb128 0x12
 1535 00df 04       		.uleb128 0x4
 1536 00e0 01       		.byte	0x1
 1537 00e1 3E       		.uleb128 0x3e
 1538 00e2 21       		.uleb128 0x21
 1539 00e3 07       		.sleb128 7
ARM GAS  C:\Users\DEVELO~1\AppData\Local\Temp\ccltPPQg.s 			page 28


 1540 00e4 0B       		.uleb128 0xb
 1541 00e5 21       		.uleb128 0x21
 1542 00e6 01       		.sleb128 1
 1543 00e7 49       		.uleb128 0x49
 1544 00e8 13       		.uleb128 0x13
 1545 00e9 3A       		.uleb128 0x3a
 1546 00ea 21       		.uleb128 0x21
 1547 00eb 07       		.sleb128 7
 1548 00ec 3B       		.uleb128 0x3b
 1549 00ed 0B       		.uleb128 0xb
 1550 00ee 39       		.uleb128 0x39
 1551 00ef 21       		.uleb128 0x21
 1552 00f0 0E       		.sleb128 14
 1553 00f1 01       		.uleb128 0x1
 1554 00f2 13       		.uleb128 0x13
 1555 00f3 00       		.byte	0
 1556 00f4 00       		.byte	0
 1557 00f5 13       		.uleb128 0x13
 1558 00f6 34       		.uleb128 0x34
 1559 00f7 00       		.byte	0
 1560 00f8 03       		.uleb128 0x3
 1561 00f9 08       		.uleb128 0x8
 1562 00fa 3A       		.uleb128 0x3a
 1563 00fb 21       		.uleb128 0x21
 1564 00fc 01       		.sleb128 1
 1565 00fd 3B       		.uleb128 0x3b
 1566 00fe 0B       		.uleb128 0xb
 1567 00ff 39       		.uleb128 0x39
 1568 0100 0B       		.uleb128 0xb
 1569 0101 49       		.uleb128 0x49
 1570 0102 13       		.uleb128 0x13
 1571 0103 02       		.uleb128 0x2
 1572 0104 17       		.uleb128 0x17
 1573 0105 B742     		.uleb128 0x2137
 1574 0107 17       		.uleb128 0x17
 1575 0108 00       		.byte	0
 1576 0109 00       		.byte	0
 1577 010a 14       		.uleb128 0x14
 1578 010b 48       		.uleb128 0x48
 1579 010c 00       		.byte	0
 1580 010d 7D       		.uleb128 0x7d
 1581 010e 01       		.uleb128 0x1
 1582 010f 7F       		.uleb128 0x7f
 1583 0110 13       		.uleb128 0x13
 1584 0111 00       		.byte	0
 1585 0112 00       		.byte	0
 1586 0113 15       		.uleb128 0x15
 1587 0114 11       		.uleb128 0x11
 1588 0115 01       		.byte	0x1
 1589 0116 25       		.uleb128 0x25
 1590 0117 0E       		.uleb128 0xe
 1591 0118 13       		.uleb128 0x13
 1592 0119 0B       		.uleb128 0xb
 1593 011a 03       		.uleb128 0x3
 1594 011b 0E       		.uleb128 0xe
 1595 011c 1B       		.uleb128 0x1b
 1596 011d 0E       		.uleb128 0xe
ARM GAS  C:\Users\DEVELO~1\AppData\Local\Temp\ccltPPQg.s 			page 29


 1597 011e 55       		.uleb128 0x55
 1598 011f 17       		.uleb128 0x17
 1599 0120 11       		.uleb128 0x11
 1600 0121 01       		.uleb128 0x1
 1601 0122 10       		.uleb128 0x10
 1602 0123 17       		.uleb128 0x17
 1603 0124 00       		.byte	0
 1604 0125 00       		.byte	0
 1605 0126 16       		.uleb128 0x16
 1606 0127 24       		.uleb128 0x24
 1607 0128 00       		.byte	0
 1608 0129 0B       		.uleb128 0xb
 1609 012a 0B       		.uleb128 0xb
 1610 012b 3E       		.uleb128 0x3e
 1611 012c 0B       		.uleb128 0xb
 1612 012d 03       		.uleb128 0x3
 1613 012e 08       		.uleb128 0x8
 1614 012f 00       		.byte	0
 1615 0130 00       		.byte	0
 1616 0131 17       		.uleb128 0x17
 1617 0132 0F       		.uleb128 0xf
 1618 0133 00       		.byte	0
 1619 0134 0B       		.uleb128 0xb
 1620 0135 0B       		.uleb128 0xb
 1621 0136 00       		.byte	0
 1622 0137 00       		.byte	0
 1623 0138 18       		.uleb128 0x18
 1624 0139 13       		.uleb128 0x13
 1625 013a 01       		.byte	0x1
 1626 013b 03       		.uleb128 0x3
 1627 013c 0E       		.uleb128 0xe
 1628 013d 0B       		.uleb128 0xb
 1629 013e 0B       		.uleb128 0xb
 1630 013f 3A       		.uleb128 0x3a
 1631 0140 0B       		.uleb128 0xb
 1632 0141 3B       		.uleb128 0x3b
 1633 0142 0B       		.uleb128 0xb
 1634 0143 39       		.uleb128 0x39
 1635 0144 0B       		.uleb128 0xb
 1636 0145 01       		.uleb128 0x1
 1637 0146 13       		.uleb128 0x13
 1638 0147 00       		.byte	0
 1639 0148 00       		.byte	0
 1640 0149 19       		.uleb128 0x19
 1641 014a 0D       		.uleb128 0xd
 1642 014b 00       		.byte	0
 1643 014c 03       		.uleb128 0x3
 1644 014d 08       		.uleb128 0x8
 1645 014e 3A       		.uleb128 0x3a
 1646 014f 0B       		.uleb128 0xb
 1647 0150 3B       		.uleb128 0x3b
 1648 0151 0B       		.uleb128 0xb
 1649 0152 39       		.uleb128 0x39
 1650 0153 0B       		.uleb128 0xb
 1651 0154 49       		.uleb128 0x49
 1652 0155 13       		.uleb128 0x13
 1653 0156 38       		.uleb128 0x38
ARM GAS  C:\Users\DEVELO~1\AppData\Local\Temp\ccltPPQg.s 			page 30


 1654 0157 0B       		.uleb128 0xb
 1655 0158 00       		.byte	0
 1656 0159 00       		.byte	0
 1657 015a 1A       		.uleb128 0x1a
 1658 015b 2E       		.uleb128 0x2e
 1659 015c 01       		.byte	0x1
 1660 015d 3F       		.uleb128 0x3f
 1661 015e 19       		.uleb128 0x19
 1662 015f 03       		.uleb128 0x3
 1663 0160 0E       		.uleb128 0xe
 1664 0161 3A       		.uleb128 0x3a
 1665 0162 0B       		.uleb128 0xb
 1666 0163 3B       		.uleb128 0x3b
 1667 0164 05       		.uleb128 0x5
 1668 0165 39       		.uleb128 0x39
 1669 0166 0B       		.uleb128 0xb
 1670 0167 27       		.uleb128 0x27
 1671 0168 19       		.uleb128 0x19
 1672 0169 3C       		.uleb128 0x3c
 1673 016a 19       		.uleb128 0x19
 1674 016b 01       		.uleb128 0x1
 1675 016c 13       		.uleb128 0x13
 1676 016d 00       		.byte	0
 1677 016e 00       		.byte	0
 1678 016f 1B       		.uleb128 0x1b
 1679 0170 0B       		.uleb128 0xb
 1680 0171 01       		.byte	0x1
 1681 0172 11       		.uleb128 0x11
 1682 0173 01       		.uleb128 0x1
 1683 0174 12       		.uleb128 0x12
 1684 0175 06       		.uleb128 0x6
 1685 0176 01       		.uleb128 0x1
 1686 0177 13       		.uleb128 0x13
 1687 0178 00       		.byte	0
 1688 0179 00       		.byte	0
 1689 017a 1C       		.uleb128 0x1c
 1690 017b 0B       		.uleb128 0xb
 1691 017c 01       		.byte	0x1
 1692 017d 55       		.uleb128 0x55
 1693 017e 17       		.uleb128 0x17
 1694 017f 00       		.byte	0
 1695 0180 00       		.byte	0
 1696 0181 1D       		.uleb128 0x1d
 1697 0182 34       		.uleb128 0x34
 1698 0183 00       		.byte	0
 1699 0184 03       		.uleb128 0x3
 1700 0185 0E       		.uleb128 0xe
 1701 0186 3A       		.uleb128 0x3a
 1702 0187 0B       		.uleb128 0xb
 1703 0188 3B       		.uleb128 0x3b
 1704 0189 0B       		.uleb128 0xb
 1705 018a 39       		.uleb128 0x39
 1706 018b 0B       		.uleb128 0xb
 1707 018c 49       		.uleb128 0x49
 1708 018d 13       		.uleb128 0x13
 1709 018e 02       		.uleb128 0x2
 1710 018f 18       		.uleb128 0x18
ARM GAS  C:\Users\DEVELO~1\AppData\Local\Temp\ccltPPQg.s 			page 31


 1711 0190 00       		.byte	0
 1712 0191 00       		.byte	0
 1713 0192 1E       		.uleb128 0x1e
 1714 0193 1D       		.uleb128 0x1d
 1715 0194 01       		.byte	0x1
 1716 0195 31       		.uleb128 0x31
 1717 0196 13       		.uleb128 0x13
 1718 0197 52       		.uleb128 0x52
 1719 0198 01       		.uleb128 0x1
 1720 0199 B842     		.uleb128 0x2138
 1721 019b 0B       		.uleb128 0xb
 1722 019c 55       		.uleb128 0x55
 1723 019d 17       		.uleb128 0x17
 1724 019e 58       		.uleb128 0x58
 1725 019f 0B       		.uleb128 0xb
 1726 01a0 59       		.uleb128 0x59
 1727 01a1 0B       		.uleb128 0xb
 1728 01a2 57       		.uleb128 0x57
 1729 01a3 0B       		.uleb128 0xb
 1730 01a4 01       		.uleb128 0x1
 1731 01a5 13       		.uleb128 0x13
 1732 01a6 00       		.byte	0
 1733 01a7 00       		.byte	0
 1734 01a8 1F       		.uleb128 0x1f
 1735 01a9 05       		.uleb128 0x5
 1736 01aa 00       		.byte	0
 1737 01ab 31       		.uleb128 0x31
 1738 01ac 13       		.uleb128 0x13
 1739 01ad 02       		.uleb128 0x2
 1740 01ae 17       		.uleb128 0x17
 1741 01af B742     		.uleb128 0x2137
 1742 01b1 17       		.uleb128 0x17
 1743 01b2 00       		.byte	0
 1744 01b3 00       		.byte	0
 1745 01b4 20       		.uleb128 0x20
 1746 01b5 2E       		.uleb128 0x2e
 1747 01b6 01       		.byte	0x1
 1748 01b7 03       		.uleb128 0x3
 1749 01b8 0E       		.uleb128 0xe
 1750 01b9 3A       		.uleb128 0x3a
 1751 01ba 0B       		.uleb128 0xb
 1752 01bb 3B       		.uleb128 0x3b
 1753 01bc 05       		.uleb128 0x5
 1754 01bd 39       		.uleb128 0x39
 1755 01be 0B       		.uleb128 0xb
 1756 01bf 27       		.uleb128 0x27
 1757 01c0 19       		.uleb128 0x19
 1758 01c1 20       		.uleb128 0x20
 1759 01c2 0B       		.uleb128 0xb
 1760 01c3 01       		.uleb128 0x1
 1761 01c4 13       		.uleb128 0x13
 1762 01c5 00       		.byte	0
 1763 01c6 00       		.byte	0
 1764 01c7 21       		.uleb128 0x21
 1765 01c8 05       		.uleb128 0x5
 1766 01c9 00       		.byte	0
 1767 01ca 03       		.uleb128 0x3
ARM GAS  C:\Users\DEVELO~1\AppData\Local\Temp\ccltPPQg.s 			page 32


 1768 01cb 0E       		.uleb128 0xe
 1769 01cc 3A       		.uleb128 0x3a
 1770 01cd 0B       		.uleb128 0xb
 1771 01ce 3B       		.uleb128 0x3b
 1772 01cf 05       		.uleb128 0x5
 1773 01d0 39       		.uleb128 0x39
 1774 01d1 0B       		.uleb128 0xb
 1775 01d2 49       		.uleb128 0x49
 1776 01d3 13       		.uleb128 0x13
 1777 01d4 00       		.byte	0
 1778 01d5 00       		.byte	0
 1779 01d6 22       		.uleb128 0x22
 1780 01d7 2E       		.uleb128 0x2e
 1781 01d8 00       		.byte	0
 1782 01d9 3F       		.uleb128 0x3f
 1783 01da 19       		.uleb128 0x19
 1784 01db 3C       		.uleb128 0x3c
 1785 01dc 19       		.uleb128 0x19
 1786 01dd 6E       		.uleb128 0x6e
 1787 01de 0E       		.uleb128 0xe
 1788 01df 03       		.uleb128 0x3
 1789 01e0 0E       		.uleb128 0xe
 1790 01e1 00       		.byte	0
 1791 01e2 00       		.byte	0
 1792 01e3 00       		.byte	0
 1793              		.section	.debug_loclists,"",%progbits
 1794 0000 70020000 		.4byte	.Ldebug_loc3-.Ldebug_loc2
 1795              	.Ldebug_loc2:
 1796 0004 0500     		.2byte	0x5
 1797 0006 04       		.byte	0x4
 1798 0007 00       		.byte	0
 1799 0008 00000000 		.4byte	0
 1800              	.Ldebug_loc0:
 1801              	.LVUS23:
 1802 000c 00       		.uleb128 0
 1803 000d 00       		.uleb128 .LVU132
 1804 000e 00       		.uleb128 .LVU132
 1805 000f 00       		.uleb128 0
 1806              	.LLST23:
 1807 0010 06       		.byte	0x6
 1808 0011 00000000 		.4byte	.LVL35
 1809 0015 04       		.byte	0x4
 1810 0016 00       		.uleb128 .LVL35-.LVL35
 1811 0017 09       		.uleb128 .LVL36-1-.LVL35
 1812 0018 01       		.uleb128 0x1
 1813 0019 50       		.byte	0x50
 1814 001a 04       		.byte	0x4
 1815 001b 09       		.uleb128 .LVL36-1-.LVL35
 1816 001c 10       		.uleb128 .LFE436-.LVL35
 1817 001d 04       		.uleb128 0x4
 1818 001e A3       		.byte	0xa3
 1819 001f 01       		.uleb128 0x1
 1820 0020 50       		.byte	0x50
 1821 0021 9F       		.byte	0x9f
 1822 0022 00       		.byte	0
 1823              	.LVUS24:
 1824 0023 00       		.uleb128 0
ARM GAS  C:\Users\DEVELO~1\AppData\Local\Temp\ccltPPQg.s 			page 33


 1825 0024 00       		.uleb128 .LVU132
 1826 0025 00       		.uleb128 .LVU132
 1827 0026 00       		.uleb128 0
 1828              	.LLST24:
 1829 0027 06       		.byte	0x6
 1830 0028 00000000 		.4byte	.LVL35
 1831 002c 04       		.byte	0x4
 1832 002d 00       		.uleb128 .LVL35-.LVL35
 1833 002e 09       		.uleb128 .LVL36-1-.LVL35
 1834 002f 01       		.uleb128 0x1
 1835 0030 51       		.byte	0x51
 1836 0031 04       		.byte	0x4
 1837 0032 09       		.uleb128 .LVL36-1-.LVL35
 1838 0033 10       		.uleb128 .LFE436-.LVL35
 1839 0034 01       		.uleb128 0x1
 1840 0035 54       		.byte	0x54
 1841 0036 00       		.byte	0
 1842              	.LVUS25:
 1843 0037 00       		.uleb128 .LVU132
 1844 0038 00       		.uleb128 .LVU137
 1845              	.LLST25:
 1846 0039 08       		.byte	0x8
 1847 003a 0A000000 		.4byte	.LVL36
 1848 003e 02       		.uleb128 .LVL37-.LVL36
 1849 003f 01       		.uleb128 0x1
 1850 0040 50       		.byte	0x50
 1851 0041 00       		.byte	0
 1852              	.LVUS20:
 1853 0042 00       		.uleb128 0
 1854 0043 00       		.uleb128 .LVU118
 1855 0044 00       		.uleb128 .LVU118
 1856 0045 00       		.uleb128 0
 1857              	.LLST20:
 1858 0046 06       		.byte	0x6
 1859 0047 00000000 		.4byte	.LVL32
 1860 004b 04       		.byte	0x4
 1861 004c 00       		.uleb128 .LVL32-.LVL32
 1862 004d 09       		.uleb128 .LVL33-1-.LVL32
 1863 004e 01       		.uleb128 0x1
 1864 004f 50       		.byte	0x50
 1865 0050 04       		.byte	0x4
 1866 0051 09       		.uleb128 .LVL33-1-.LVL32
 1867 0052 10       		.uleb128 .LFE435-.LVL32
 1868 0053 04       		.uleb128 0x4
 1869 0054 A3       		.byte	0xa3
 1870 0055 01       		.uleb128 0x1
 1871 0056 50       		.byte	0x50
 1872 0057 9F       		.byte	0x9f
 1873 0058 00       		.byte	0
 1874              	.LVUS21:
 1875 0059 00       		.uleb128 0
 1876 005a 00       		.uleb128 .LVU118
 1877 005b 00       		.uleb128 .LVU118
 1878 005c 00       		.uleb128 0
 1879              	.LLST21:
 1880 005d 06       		.byte	0x6
 1881 005e 00000000 		.4byte	.LVL32
ARM GAS  C:\Users\DEVELO~1\AppData\Local\Temp\ccltPPQg.s 			page 34


 1882 0062 04       		.byte	0x4
 1883 0063 00       		.uleb128 .LVL32-.LVL32
 1884 0064 09       		.uleb128 .LVL33-1-.LVL32
 1885 0065 01       		.uleb128 0x1
 1886 0066 51       		.byte	0x51
 1887 0067 04       		.byte	0x4
 1888 0068 09       		.uleb128 .LVL33-1-.LVL32
 1889 0069 10       		.uleb128 .LFE435-.LVL32
 1890 006a 01       		.uleb128 0x1
 1891 006b 54       		.byte	0x54
 1892 006c 00       		.byte	0
 1893              	.LVUS22:
 1894 006d 00       		.uleb128 .LVU118
 1895 006e 00       		.uleb128 .LVU123
 1896              	.LLST22:
 1897 006f 08       		.byte	0x8
 1898 0070 0A000000 		.4byte	.LVL33
 1899 0074 02       		.uleb128 .LVL34-.LVL33
 1900 0075 01       		.uleb128 0x1
 1901 0076 50       		.byte	0x50
 1902 0077 00       		.byte	0
 1903              	.LVUS13:
 1904 0078 00       		.uleb128 0
 1905 0079 00       		.uleb128 .LVU79
 1906 007a 00       		.uleb128 .LVU79
 1907 007b 00       		.uleb128 0
 1908              	.LLST13:
 1909 007c 06       		.byte	0x6
 1910 007d 00000000 		.4byte	.LVL17
 1911 0081 04       		.byte	0x4
 1912 0082 00       		.uleb128 .LVL17-.LVL17
 1913 0083 09       		.uleb128 .LVL18-1-.LVL17
 1914 0084 01       		.uleb128 0x1
 1915 0085 50       		.byte	0x50
 1916 0086 04       		.byte	0x4
 1917 0087 09       		.uleb128 .LVL18-1-.LVL17
 1918 0088 46       		.uleb128 .LFE434-.LVL17
 1919 0089 04       		.uleb128 0x4
 1920 008a A3       		.byte	0xa3
 1921 008b 01       		.uleb128 0x1
 1922 008c 50       		.byte	0x50
 1923 008d 9F       		.byte	0x9f
 1924 008e 00       		.byte	0
 1925              	.LVUS14:
 1926 008f 00       		.uleb128 0
 1927 0090 00       		.uleb128 .LVU79
 1928 0091 00       		.uleb128 .LVU79
 1929 0092 00       		.uleb128 0
 1930              	.LLST14:
 1931 0093 06       		.byte	0x6
 1932 0094 00000000 		.4byte	.LVL17
 1933 0098 04       		.byte	0x4
 1934 0099 00       		.uleb128 .LVL17-.LVL17
 1935 009a 09       		.uleb128 .LVL18-1-.LVL17
 1936 009b 01       		.uleb128 0x1
 1937 009c 51       		.byte	0x51
 1938 009d 04       		.byte	0x4
ARM GAS  C:\Users\DEVELO~1\AppData\Local\Temp\ccltPPQg.s 			page 35


 1939 009e 09       		.uleb128 .LVL18-1-.LVL17
 1940 009f 46       		.uleb128 .LFE434-.LVL17
 1941 00a0 01       		.uleb128 0x1
 1942 00a1 54       		.byte	0x54
 1943 00a2 00       		.byte	0
 1944              	.LVUS15:
 1945 00a3 00       		.uleb128 .LVU106
 1946 00a4 00       		.uleb128 .LVU108
 1947              	.LLST15:
 1948 00a5 08       		.byte	0x8
 1949 00a6 40000000 		.4byte	.LVL29
 1950 00aa 02       		.uleb128 .LVL30-.LVL29
 1951 00ab 01       		.uleb128 0x1
 1952 00ac 50       		.byte	0x50
 1953 00ad 00       		.byte	0
 1954              	.LVUS16:
 1955 00ae 00       		.uleb128 .LVU85
 1956 00af 00       		.uleb128 .LVU90
 1957 00b0 00       		.uleb128 .LVU90
 1958 00b1 00       		.uleb128 .LVU102
 1959 00b2 00       		.uleb128 .LVU108
 1960 00b3 00       		.uleb128 0
 1961              	.LLST16:
 1962 00b4 06       		.byte	0x6
 1963 00b5 0E000000 		.4byte	.LVL19
 1964 00b9 04       		.byte	0x4
 1965 00ba 00       		.uleb128 .LVL19-.LVL19
 1966 00bb 0C       		.uleb128 .LVL21-.LVL19
 1967 00bc 02       		.uleb128 0x2
 1968 00bd 30       		.byte	0x30
 1969 00be 9F       		.byte	0x9f
 1970 00bf 04       		.byte	0x4
 1971 00c0 0C       		.uleb128 .LVL21-.LVL19
 1972 00c1 2A       		.uleb128 .LVL26-.LVL19
 1973 00c2 01       		.uleb128 0x1
 1974 00c3 50       		.byte	0x50
 1975 00c4 04       		.byte	0x4
 1976 00c5 34       		.uleb128 .LVL30-.LVL19
 1977 00c6 38       		.uleb128 .LFE434-.LVL19
 1978 00c7 02       		.uleb128 0x2
 1979 00c8 30       		.byte	0x30
 1980 00c9 9F       		.byte	0x9f
 1981 00ca 00       		.byte	0
 1982              	.LVUS17:
 1983 00cb 00       		.uleb128 .LVU79
 1984 00cc 00       		.uleb128 .LVU89
 1985 00cd 00       		.uleb128 .LVU103
 1986 00ce 00       		.uleb128 .LVU105
 1987 00cf 00       		.uleb128 .LVU108
 1988 00d0 00       		.uleb128 .LVU109
 1989              	.LLST17:
 1990 00d1 06       		.byte	0x6
 1991 00d2 0A000000 		.4byte	.LVL18
 1992 00d6 04       		.byte	0x4
 1993 00d7 00       		.uleb128 .LVL18-.LVL18
 1994 00d8 0A       		.uleb128 .LVL20-.LVL18
 1995 00d9 01       		.uleb128 0x1
ARM GAS  C:\Users\DEVELO~1\AppData\Local\Temp\ccltPPQg.s 			page 36


 1996 00da 50       		.byte	0x50
 1997 00db 04       		.byte	0x4
 1998 00dc 30       		.uleb128 .LVL27-.LVL18
 1999 00dd 32       		.uleb128 .LVL28-.LVL18
 2000 00de 01       		.uleb128 0x1
 2001 00df 50       		.byte	0x50
 2002 00e0 04       		.byte	0x4
 2003 00e1 38       		.uleb128 .LVL30-.LVL18
 2004 00e2 3A       		.uleb128 .LVL31-.LVL18
 2005 00e3 01       		.uleb128 0x1
 2006 00e4 50       		.byte	0x50
 2007 00e5 00       		.byte	0
 2008              	.LVUS18:
 2009 00e6 00       		.uleb128 .LVU90
 2010 00e7 00       		.uleb128 .LVU92
 2011 00e8 00       		.uleb128 .LVU95
 2012 00e9 00       		.uleb128 .LVU103
 2013              	.LLST18:
 2014 00ea 06       		.byte	0x6
 2015 00eb 1A000000 		.4byte	.LVL21
 2016 00ef 04       		.byte	0x4
 2017 00f0 00       		.uleb128 .LVL21-.LVL21
 2018 00f1 06       		.uleb128 .LVL23-.LVL21
 2019 00f2 01       		.uleb128 0x1
 2020 00f3 52       		.byte	0x52
 2021 00f4 04       		.byte	0x4
 2022 00f5 0A       		.uleb128 .LVL24-.LVL21
 2023 00f6 20       		.uleb128 .LVL27-.LVL21
 2024 00f7 01       		.uleb128 0x1
 2025 00f8 52       		.byte	0x52
 2026 00f9 00       		.byte	0
 2027              	.LVUS19:
 2028 00fa 00       		.uleb128 .LVU90
 2029 00fb 00       		.uleb128 .LVU91
 2030 00fc 00       		.uleb128 .LVU91
 2031 00fd 00       		.uleb128 .LVU92
 2032 00fe 01       		.uleb128 .LVU96
 2033 00ff 00       		.uleb128 .LVU101
 2034 0100 00       		.uleb128 .LVU101
 2035 0101 00       		.uleb128 .LVU102
 2036              	.LLST19:
 2037 0102 06       		.byte	0x6
 2038 0103 1A000000 		.4byte	.LVL21
 2039 0107 04       		.byte	0x4
 2040 0108 00       		.uleb128 .LVL21-.LVL21
 2041 0109 02       		.uleb128 .LVL22-.LVL21
 2042 010a 10       		.uleb128 0x10
 2043 010b 70       		.byte	0x70
 2044 010c 00       		.sleb128 0
 2045 010d 33       		.byte	0x33
 2046 010e 24       		.byte	0x24
 2047 010f 71       		.byte	0x71
 2048 0110 00       		.sleb128 0
 2049 0111 22       		.byte	0x22
 2050 0112 23       		.byte	0x23
 2051 0113 04       		.uleb128 0x4
 2052 0114 06       		.byte	0x6
ARM GAS  C:\Users\DEVELO~1\AppData\Local\Temp\ccltPPQg.s 			page 37


 2053 0115 72       		.byte	0x72
 2054 0116 00       		.sleb128 0
 2055 0117 22       		.byte	0x22
 2056 0118 31       		.byte	0x31
 2057 0119 1C       		.byte	0x1c
 2058 011a 9F       		.byte	0x9f
 2059 011b 04       		.byte	0x4
 2060 011c 02       		.uleb128 .LVL22-.LVL21
 2061 011d 06       		.uleb128 .LVL23-.LVL21
 2062 011e 10       		.uleb128 0x10
 2063 011f 70       		.byte	0x70
 2064 0120 7F       		.sleb128 -1
 2065 0121 33       		.byte	0x33
 2066 0122 24       		.byte	0x24
 2067 0123 71       		.byte	0x71
 2068 0124 00       		.sleb128 0
 2069 0125 22       		.byte	0x22
 2070 0126 23       		.byte	0x23
 2071 0127 04       		.uleb128 0x4
 2072 0128 06       		.byte	0x6
 2073 0129 72       		.byte	0x72
 2074 012a 00       		.sleb128 0
 2075 012b 22       		.byte	0x22
 2076 012c 31       		.byte	0x31
 2077 012d 1C       		.byte	0x1c
 2078 012e 9F       		.byte	0x9f
 2079 012f 04       		.byte	0x4
 2080 0130 0A       		.uleb128 .LVL24-.LVL21
 2081 0131 1C       		.uleb128 .LVL25-.LVL21
 2082 0132 10       		.uleb128 0x10
 2083 0133 70       		.byte	0x70
 2084 0134 00       		.sleb128 0
 2085 0135 33       		.byte	0x33
 2086 0136 24       		.byte	0x24
 2087 0137 71       		.byte	0x71
 2088 0138 00       		.sleb128 0
 2089 0139 22       		.byte	0x22
 2090 013a 23       		.byte	0x23
 2091 013b 04       		.uleb128 0x4
 2092 013c 06       		.byte	0x6
 2093 013d 72       		.byte	0x72
 2094 013e 00       		.sleb128 0
 2095 013f 22       		.byte	0x22
 2096 0140 31       		.byte	0x31
 2097 0141 1C       		.byte	0x1c
 2098 0142 9F       		.byte	0x9f
 2099 0143 04       		.byte	0x4
 2100 0144 1C       		.uleb128 .LVL25-.LVL21
 2101 0145 1E       		.uleb128 .LVL26-.LVL21
 2102 0146 10       		.uleb128 0x10
 2103 0147 70       		.byte	0x70
 2104 0148 7F       		.sleb128 -1
 2105 0149 33       		.byte	0x33
 2106 014a 24       		.byte	0x24
 2107 014b 71       		.byte	0x71
 2108 014c 00       		.sleb128 0
 2109 014d 22       		.byte	0x22
ARM GAS  C:\Users\DEVELO~1\AppData\Local\Temp\ccltPPQg.s 			page 38


 2110 014e 23       		.byte	0x23
 2111 014f 04       		.uleb128 0x4
 2112 0150 06       		.byte	0x6
 2113 0151 72       		.byte	0x72
 2114 0152 00       		.sleb128 0
 2115 0153 22       		.byte	0x22
 2116 0154 31       		.byte	0x31
 2117 0155 1C       		.byte	0x1c
 2118 0156 9F       		.byte	0x9f
 2119 0157 00       		.byte	0
 2120              	.LVUS9:
 2121 0158 00       		.uleb128 0
 2122 0159 00       		.uleb128 .LVU58
 2123 015a 00       		.uleb128 .LVU58
 2124 015b 00       		.uleb128 0
 2125              	.LLST9:
 2126 015c 06       		.byte	0x6
 2127 015d 00000000 		.4byte	.LVL12
 2128 0161 04       		.byte	0x4
 2129 0162 00       		.uleb128 .LVL12-.LVL12
 2130 0163 09       		.uleb128 .LVL13-1-.LVL12
 2131 0164 01       		.uleb128 0x1
 2132 0165 50       		.byte	0x50
 2133 0166 04       		.byte	0x4
 2134 0167 09       		.uleb128 .LVL13-1-.LVL12
 2135 0168 1A       		.uleb128 .LFE433-.LVL12
 2136 0169 04       		.uleb128 0x4
 2137 016a A3       		.byte	0xa3
 2138 016b 01       		.uleb128 0x1
 2139 016c 50       		.byte	0x50
 2140 016d 9F       		.byte	0x9f
 2141 016e 00       		.byte	0
 2142              	.LVUS10:
 2143 016f 00       		.uleb128 0
 2144 0170 00       		.uleb128 .LVU58
 2145 0171 00       		.uleb128 .LVU58
 2146 0172 00       		.uleb128 0
 2147              	.LLST10:
 2148 0173 06       		.byte	0x6
 2149 0174 00000000 		.4byte	.LVL12
 2150 0178 04       		.byte	0x4
 2151 0179 00       		.uleb128 .LVL12-.LVL12
 2152 017a 09       		.uleb128 .LVL13-1-.LVL12
 2153 017b 01       		.uleb128 0x1
 2154 017c 51       		.byte	0x51
 2155 017d 04       		.byte	0x4
 2156 017e 09       		.uleb128 .LVL13-1-.LVL12
 2157 017f 1A       		.uleb128 .LFE433-.LVL12
 2158 0180 01       		.uleb128 0x1
 2159 0181 54       		.byte	0x54
 2160 0182 00       		.byte	0
 2161              	.LVUS11:
 2162 0183 00       		.uleb128 .LVU66
 2163 0184 00       		.uleb128 .LVU67
 2164 0185 00       		.uleb128 .LVU69
 2165 0186 00       		.uleb128 0
 2166              	.LLST11:
ARM GAS  C:\Users\DEVELO~1\AppData\Local\Temp\ccltPPQg.s 			page 39


 2167 0187 06       		.byte	0x6
 2168 0188 14000000 		.4byte	.LVL14
 2169 018c 04       		.byte	0x4
 2170 018d 00       		.uleb128 .LVL14-.LVL14
 2171 018e 02       		.uleb128 .LVL15-.LVL14
 2172 018f 01       		.uleb128 0x1
 2173 0190 50       		.byte	0x50
 2174 0191 04       		.byte	0x4
 2175 0192 04       		.uleb128 .LVL16-.LVL14
 2176 0193 06       		.uleb128 .LFE433-.LVL14
 2177 0194 01       		.uleb128 0x1
 2178 0195 50       		.byte	0x50
 2179 0196 00       		.byte	0
 2180              	.LVUS12:
 2181 0197 00       		.uleb128 .LVU58
 2182 0198 00       		.uleb128 .LVU66
 2183 0199 00       		.uleb128 .LVU67
 2184 019a 00       		.uleb128 .LVU69
 2185              	.LLST12:
 2186 019b 06       		.byte	0x6
 2187 019c 0A000000 		.4byte	.LVL13
 2188 01a0 04       		.byte	0x4
 2189 01a1 00       		.uleb128 .LVL13-.LVL13
 2190 01a2 0A       		.uleb128 .LVL14-.LVL13
 2191 01a3 01       		.uleb128 0x1
 2192 01a4 50       		.byte	0x50
 2193 01a5 04       		.byte	0x4
 2194 01a6 0C       		.uleb128 .LVL15-.LVL13
 2195 01a7 0E       		.uleb128 .LVL16-.LVL13
 2196 01a8 01       		.uleb128 0x1
 2197 01a9 50       		.byte	0x50
 2198 01aa 00       		.byte	0
 2199              	.LVUS5:
 2200 01ab 00       		.uleb128 0
 2201 01ac 00       		.uleb128 .LVU35
 2202 01ad 00       		.uleb128 .LVU35
 2203 01ae 00       		.uleb128 0
 2204              	.LLST5:
 2205 01af 06       		.byte	0x6
 2206 01b0 00000000 		.4byte	.LVL6
 2207 01b4 04       		.byte	0x4
 2208 01b5 00       		.uleb128 .LVL6-.LVL6
 2209 01b6 09       		.uleb128 .LVL7-1-.LVL6
 2210 01b7 01       		.uleb128 0x1
 2211 01b8 50       		.byte	0x50
 2212 01b9 04       		.byte	0x4
 2213 01ba 09       		.uleb128 .LVL7-1-.LVL6
 2214 01bb 1C       		.uleb128 .LFE432-.LVL6
 2215 01bc 04       		.uleb128 0x4
 2216 01bd A3       		.byte	0xa3
 2217 01be 01       		.uleb128 0x1
 2218 01bf 50       		.byte	0x50
 2219 01c0 9F       		.byte	0x9f
 2220 01c1 00       		.byte	0
 2221              	.LVUS6:
 2222 01c2 00       		.uleb128 0
 2223 01c3 00       		.uleb128 .LVU35
ARM GAS  C:\Users\DEVELO~1\AppData\Local\Temp\ccltPPQg.s 			page 40


 2224 01c4 00       		.uleb128 .LVU35
 2225 01c5 00       		.uleb128 0
 2226              	.LLST6:
 2227 01c6 06       		.byte	0x6
 2228 01c7 00000000 		.4byte	.LVL6
 2229 01cb 04       		.byte	0x4
 2230 01cc 00       		.uleb128 .LVL6-.LVL6
 2231 01cd 09       		.uleb128 .LVL7-1-.LVL6
 2232 01ce 01       		.uleb128 0x1
 2233 01cf 51       		.byte	0x51
 2234 01d0 04       		.byte	0x4
 2235 01d1 09       		.uleb128 .LVL7-1-.LVL6
 2236 01d2 1C       		.uleb128 .LFE432-.LVL6
 2237 01d3 01       		.uleb128 0x1
 2238 01d4 54       		.byte	0x54
 2239 01d5 00       		.byte	0
 2240              	.LVUS7:
 2241 01d6 00       		.uleb128 .LVU43
 2242 01d7 00       		.uleb128 .LVU44
 2243 01d8 00       		.uleb128 .LVU47
 2244 01d9 00       		.uleb128 0
 2245              	.LLST7:
 2246 01da 06       		.byte	0x6
 2247 01db 12000000 		.4byte	.LVL8
 2248 01df 04       		.byte	0x4
 2249 01e0 00       		.uleb128 .LVL8-.LVL8
 2250 01e1 02       		.uleb128 .LVL9-.LVL8
 2251 01e2 01       		.uleb128 0x1
 2252 01e3 50       		.byte	0x50
 2253 01e4 04       		.byte	0x4
 2254 01e5 08       		.uleb128 .LVL11-.LVL8
 2255 01e6 0A       		.uleb128 .LFE432-.LVL8
 2256 01e7 01       		.uleb128 0x1
 2257 01e8 50       		.byte	0x50
 2258 01e9 00       		.byte	0
 2259              	.LVUS8:
 2260 01ea 00       		.uleb128 .LVU35
 2261 01eb 00       		.uleb128 .LVU43
 2262 01ec 00       		.uleb128 .LVU44
 2263 01ed 00       		.uleb128 .LVU46
 2264              	.LLST8:
 2265 01ee 06       		.byte	0x6
 2266 01ef 0A000000 		.4byte	.LVL7
 2267 01f3 04       		.byte	0x4
 2268 01f4 00       		.uleb128 .LVL7-.LVL7
 2269 01f5 08       		.uleb128 .LVL8-.LVL7
 2270 01f6 01       		.uleb128 0x1
 2271 01f7 50       		.byte	0x50
 2272 01f8 04       		.byte	0x4
 2273 01f9 0A       		.uleb128 .LVL9-.LVL7
 2274 01fa 0C       		.uleb128 .LVL10-.LVL7
 2275 01fb 01       		.uleb128 0x1
 2276 01fc 50       		.byte	0x50
 2277 01fd 00       		.byte	0
 2278              	.LVUS0:
 2279 01fe 00       		.uleb128 0
 2280 01ff 00       		.uleb128 .LVU7
ARM GAS  C:\Users\DEVELO~1\AppData\Local\Temp\ccltPPQg.s 			page 41


 2281 0200 00       		.uleb128 .LVU7
 2282 0201 00       		.uleb128 0
 2283              	.LLST0:
 2284 0202 06       		.byte	0x6
 2285 0203 00000000 		.4byte	.LVL0
 2286 0207 04       		.byte	0x4
 2287 0208 00       		.uleb128 .LVL0-.LVL0
 2288 0209 12       		.uleb128 .LVL1-.LVL0
 2289 020a 01       		.uleb128 0x1
 2290 020b 50       		.byte	0x50
 2291 020c 04       		.byte	0x4
 2292 020d 12       		.uleb128 .LVL1-.LVL0
 2293 020e 40       		.uleb128 .LFE431-.LVL0
 2294 020f 01       		.uleb128 0x1
 2295 0210 54       		.byte	0x54
 2296 0211 00       		.byte	0
 2297              	.LVUS2:
 2298 0212 00       		.uleb128 .LVU7
 2299 0213 00       		.uleb128 .LVU8
 2300 0214 03       		.uleb128 .LVU20
 2301 0215 00       		.uleb128 0
 2302              	.LLST2:
 2303 0216 06       		.byte	0x6
 2304 0217 12000000 		.4byte	.LVL1
 2305 021b 04       		.byte	0x4
 2306 021c 00       		.uleb128 .LVL1-.LVL1
 2307 021d 06       		.uleb128 .LVL2-.LVL1
 2308 021e 01       		.uleb128 0x1
 2309 021f 50       		.byte	0x50
 2310 0220 04       		.byte	0x4
 2311 0221 1E       		.uleb128 .LVL5-.LVL1
 2312 0222 2E       		.uleb128 .LFE431-.LVL1
 2313 0223 01       		.uleb128 0x1
 2314 0224 50       		.byte	0x50
 2315 0225 00       		.byte	0
 2316              	.LVUS4:
 2317 0226 00       		.uleb128 .LVU7
 2318 0227 00       		.uleb128 .LVU9
 2319 0228 01       		.uleb128 .LVU18
 2320 0229 00       		.uleb128 0
 2321              	.LLST4:
 2322 022a 06       		.byte	0x6
 2323 022b 12000000 		.4byte	.LVL1
 2324 022f 04       		.byte	0x4
 2325 0230 00       		.uleb128 .LVL1-.LVL1
 2326 0231 0F       		.uleb128 .LVL3-1-.LVL1
 2327 0232 1E       		.uleb128 0x1e
 2328 0233 91       		.byte	0x91
 2329 0234 64       		.sleb128 -28
 2330 0235 06       		.byte	0x6
 2331 0236 A8       		.byte	0xa8
 2332 0237 2D       		.uleb128 0x2d
 2333 0238 A8       		.byte	0xa8
 2334 0239 26       		.uleb128 0x26
 2335 023a 0A       		.byte	0xa
 2336 023b 1027     		.2byte	0x2710
 2337 023d A8       		.byte	0xa8
ARM GAS  C:\Users\DEVELO~1\AppData\Local\Temp\ccltPPQg.s 			page 42


 2338 023e 26       		.uleb128 0x26
 2339 023f 1E       		.byte	0x1e
 2340 0240 0A       		.byte	0xa
 2341 0241 E703     		.2byte	0x3e7
 2342 0243 A8       		.byte	0xa8
 2343 0244 26       		.uleb128 0x26
 2344 0245 22       		.byte	0x22
 2345 0246 0A       		.byte	0xa
 2346 0247 E803     		.2byte	0x3e8
 2347 0249 A8       		.byte	0xa8
 2348 024a 26       		.uleb128 0x26
 2349 024b 1B       		.byte	0x1b
 2350 024c A8       		.byte	0xa8
 2351 024d 2D       		.uleb128 0x2d
 2352 024e A8       		.byte	0xa8
 2353 024f 00       		.uleb128 0
 2354 0250 9F       		.byte	0x9f
 2355 0251 04       		.byte	0x4
 2356 0252 1E       		.uleb128 .LVL5-.LVL1
 2357 0253 2E       		.uleb128 .LFE431-.LVL1
 2358 0254 1E       		.uleb128 0x1e
 2359 0255 91       		.byte	0x91
 2360 0256 64       		.sleb128 -28
 2361 0257 06       		.byte	0x6
 2362 0258 A8       		.byte	0xa8
 2363 0259 2D       		.uleb128 0x2d
 2364 025a A8       		.byte	0xa8
 2365 025b 26       		.uleb128 0x26
 2366 025c 0A       		.byte	0xa
 2367 025d 1027     		.2byte	0x2710
 2368 025f A8       		.byte	0xa8
 2369 0260 26       		.uleb128 0x26
 2370 0261 1E       		.byte	0x1e
 2371 0262 0A       		.byte	0xa
 2372 0263 E703     		.2byte	0x3e7
 2373 0265 A8       		.byte	0xa8
 2374 0266 26       		.uleb128 0x26
 2375 0267 22       		.byte	0x22
 2376 0268 0A       		.byte	0xa
 2377 0269 E803     		.2byte	0x3e8
 2378 026b A8       		.byte	0xa8
 2379 026c 26       		.uleb128 0x26
 2380 026d 1B       		.byte	0x1b
 2381 026e A8       		.byte	0xa8
 2382 026f 2D       		.uleb128 0x2d
 2383 0270 A8       		.byte	0xa8
 2384 0271 00       		.uleb128 0
 2385 0272 9F       		.byte	0x9f
 2386 0273 00       		.byte	0
 2387              	.Ldebug_loc3:
 2388              		.section	.debug_aranges,"",%progbits
 2389 0000 44000000 		.4byte	0x44
 2390 0004 0200     		.2byte	0x2
 2391 0006 00000000 		.4byte	.Ldebug_info0
 2392 000a 04       		.byte	0x4
 2393 000b 00       		.byte	0
 2394 000c 0000     		.2byte	0
ARM GAS  C:\Users\DEVELO~1\AppData\Local\Temp\ccltPPQg.s 			page 43


 2395 000e 0000     		.2byte	0
 2396 0010 00000000 		.4byte	.LFB431
 2397 0014 40000000 		.4byte	.LFE431-.LFB431
 2398 0018 00000000 		.4byte	.LFB432
 2399 001c 1C000000 		.4byte	.LFE432-.LFB432
 2400 0020 00000000 		.4byte	.LFB433
 2401 0024 1A000000 		.4byte	.LFE433-.LFB433
 2402 0028 00000000 		.4byte	.LFB434
 2403 002c 46000000 		.4byte	.LFE434-.LFB434
 2404 0030 00000000 		.4byte	.LFB435
 2405 0034 10000000 		.4byte	.LFE435-.LFB435
 2406 0038 00000000 		.4byte	.LFB436
 2407 003c 10000000 		.4byte	.LFE436-.LFB436
 2408 0040 00000000 		.4byte	0
 2409 0044 00000000 		.4byte	0
 2410              		.section	.debug_rnglists,"",%progbits
 2411              	.Ldebug_ranges0:
 2412 0000 4B000000 		.4byte	.Ldebug_ranges3-.Ldebug_ranges2
 2413              	.Ldebug_ranges2:
 2414 0004 0500     		.2byte	0x5
 2415 0006 04       		.byte	0x4
 2416 0007 00       		.byte	0
 2417 0008 00000000 		.4byte	0
 2418              	.LLRL1:
 2419 000c 05       		.byte	0x5
 2420 000d 02000000 		.4byte	.LBB5
 2421 0011 04       		.byte	0x4
 2422 0012 00       		.uleb128 .LBB5-.LBB5
 2423 0013 04       		.uleb128 .LBE5-.LBB5
 2424 0014 04       		.byte	0x4
 2425 0015 06       		.uleb128 .LBB10-.LBB5
 2426 0016 0A       		.uleb128 .LBE10-.LBB5
 2427 0017 04       		.byte	0x4
 2428 0018 0C       		.uleb128 .LBB11-.LBB5
 2429 0019 24       		.uleb128 .LBE11-.LBB5
 2430 001a 04       		.byte	0x4
 2431 001b 24       		.uleb128 .LBB12-.LBB5
 2432 001c 3A       		.uleb128 .LBE12-.LBB5
 2433 001d 00       		.byte	0
 2434              	.LLRL3:
 2435 001e 05       		.byte	0x5
 2436 001f 22000000 		.4byte	.LBB6
 2437 0023 04       		.byte	0x4
 2438 0024 00       		.uleb128 .LBB6-.LBB6
 2439 0025 04       		.uleb128 .LBE6-.LBB6
 2440 0026 04       		.byte	0x4
 2441 0027 0E       		.uleb128 .LBB9-.LBB6
 2442 0028 0E       		.uleb128 .LBE9-.LBB6
 2443 0029 00       		.byte	0
 2444              	.LLRL26:
 2445 002a 07       		.byte	0x7
 2446 002b 00000000 		.4byte	.LFB431
 2447 002f 40       		.uleb128 .LFE431-.LFB431
 2448 0030 07       		.byte	0x7
 2449 0031 00000000 		.4byte	.LFB432
 2450 0035 1C       		.uleb128 .LFE432-.LFB432
 2451 0036 07       		.byte	0x7
ARM GAS  C:\Users\DEVELO~1\AppData\Local\Temp\ccltPPQg.s 			page 44


 2452 0037 00000000 		.4byte	.LFB433
 2453 003b 1A       		.uleb128 .LFE433-.LFB433
 2454 003c 07       		.byte	0x7
 2455 003d 00000000 		.4byte	.LFB434
 2456 0041 46       		.uleb128 .LFE434-.LFB434
 2457 0042 07       		.byte	0x7
 2458 0043 00000000 		.4byte	.LFB435
 2459 0047 10       		.uleb128 .LFE435-.LFB435
 2460 0048 07       		.byte	0x7
 2461 0049 00000000 		.4byte	.LFB436
 2462 004d 10       		.uleb128 .LFE436-.LFB436
 2463 004e 00       		.byte	0
 2464              	.Ldebug_ranges3:
 2465              		.section	.debug_line,"",%progbits
 2466              	.Ldebug_line0:
 2467 0000 EE030000 		.section	.debug_str,"MS",%progbits,1
 2467      0300EA01 
 2467      00000201 
 2467      FB0E0D00 
 2467      01010101 
 2468              	.LASF66:
 2469 0000 666C6173 		.ascii	"flashGetOffsetAddress\000"
 2469      68476574 
 2469      4F666673 
 2469      65744164 
 2469      64726573 
 2470              	.LASF73:
 2471 0016 666C6173 		.ascii	"flashGetSectorSize\000"
 2471      68476574 
 2471      53656374 
 2471      6F725369 
 2471      7A6500
 2472              	.LASF44:
 2473 0029 61747472 		.ascii	"attributes\000"
 2473      69627574 
 2473      657300
 2474              	.LASF29:
 2475 0034 666C6173 		.ascii	"flash_state_t\000"
 2475      685F7374 
 2475      6174655F 
 2475      7400
 2476              	.LASF34:
 2477 0042 464C4153 		.ascii	"FLASH_ERROR_ERASE\000"
 2477      485F4552 
 2477      524F525F 
 2477      45524153 
 2477      4500
 2478              	.LASF61:
 2479 0054 73746174 		.ascii	"state\000"
 2479      6500
 2480              	.LASF16:
 2481 005a 75696E74 		.ascii	"uint64_t\000"
 2481      36345F74 
 2481      00
 2482              	.LASF52:
 2483 0063 6765745F 		.ascii	"get_descriptor\000"
 2483      64657363 
ARM GAS  C:\Users\DEVELO~1\AppData\Local\Temp\ccltPPQg.s 			page 45


 2483      72697074 
 2483      6F7200
 2484              	.LASF8:
 2485 0072 73686F72 		.ascii	"short int\000"
 2485      7420696E 
 2485      7400
 2486              	.LASF45:
 2487 007c 70616765 		.ascii	"page_size\000"
 2487      5F73697A 
 2487      6500
 2488              	.LASF38:
 2489 0086 666C6173 		.ascii	"flash_error_t\000"
 2489      685F6572 
 2489      726F725F 
 2489      7400
 2490              	.LASF80:
 2491 0094 63685468 		.ascii	"chThdSleep\000"
 2491      64536C65 
 2491      657000
 2492              	.LASF3:
 2493 009f 6C6F6E67 		.ascii	"long double\000"
 2493      20646F75 
 2493      626C6500 
 2494              	.LASF11:
 2495 00ab 5F5F7569 		.ascii	"__uint32_t\000"
 2495      6E743332 
 2495      5F7400
 2496              	.LASF65:
 2497 00b6 666C6173 		.ascii	"flashGetAddressOffset\000"
 2497      68476574 
 2497      41646472 
 2497      6573734F 
 2497      66667365 
 2498              	.LASF55:
 2499 00cc 73746172 		.ascii	"start_erase_all\000"
 2499      745F6572 
 2499      6173655F 
 2499      616C6C00 
 2500              	.LASF40:
 2501 00dc 666C6173 		.ascii	"flash_sector_t\000"
 2501      685F7365 
 2501      63746F72 
 2501      5F7400
 2502              	.LASF76:
 2503 00eb 474E5520 		.ascii	"GNU C17 11.3.1 20220712 -mcpu=cortex-m7 -mthumb -mf"
 2503      43313720 
 2503      31312E33 
 2503      2E312032 
 2503      30323230 
 2504 011e 6C6F6174 		.ascii	"loat-abi=soft -march=armv7e-m -ggdb -O2 -fomit-fram"
 2504      2D616269 
 2504      3D736F66 
 2504      74202D6D 
 2504      61726368 
 2505 0151 652D706F 		.ascii	"e-pointer -falign-functions=16 -ffunction-sections "
 2505      696E7465 
 2505      72202D66 
ARM GAS  C:\Users\DEVELO~1\AppData\Local\Temp\ccltPPQg.s 			page 46


 2505      616C6967 
 2505      6E2D6675 
 2506 0184 2D666461 		.ascii	"-fdata-sections -fno-common\000"
 2506      74612D73 
 2506      65637469 
 2506      6F6E7320 
 2506      2D666E6F 
 2507              	.LASF79:
 2508 01a0 42617365 		.ascii	"BaseFlashVMT\000"
 2508      466C6173 
 2508      68564D54 
 2508      00
 2509              	.LASF60:
 2510 01ad 72656C65 		.ascii	"release_exclusive\000"
 2510      6173655F 
 2510      6578636C 
 2510      75736976 
 2510      6500
 2511              	.LASF14:
 2512 01bf 75696E74 		.ascii	"uint8_t\000"
 2512      385F7400 
 2513              	.LASF77:
 2514 01c7 2E2E2F2E 		.ascii	"../../../os/hal/src/hal_flash.c\000"
 2514      2E2F2E2E 
 2514      2F6F732F 
 2514      68616C2F 
 2514      7372632F 
 2515              	.LASF69:
 2516 01e7 666C6173 		.ascii	"flashGetOffsetSector\000"
 2516      68476574 
 2516      4F666673 
 2516      65745365 
 2516      63746F72 
 2517              	.LASF54:
 2518 01fc 70726F67 		.ascii	"program\000"
 2518      72616D00 
 2519              	.LASF15:
 2520 0204 75696E74 		.ascii	"uint32_t\000"
 2520      33325F74 
 2520      00
 2521              	.LASF75:
 2522 020d 666C6173 		.ascii	"flashWaitErase\000"
 2522      68576169 
 2522      74457261 
 2522      736500
 2523              	.LASF83:
 2524 021c 64656C61 		.ascii	"delay\000"
 2524      7900
 2525              	.LASF20:
 2526 0222 666C6F61 		.ascii	"float\000"
 2526      7400
 2527              	.LASF37:
 2528 0228 464C4153 		.ascii	"FLASH_ERROR_UNIMPLEMENTED\000"
 2528      485F4552 
 2528      524F525F 
 2528      554E494D 
 2528      504C454D 
ARM GAS  C:\Users\DEVELO~1\AppData\Local\Temp\ccltPPQg.s 			page 47


 2529              	.LASF53:
 2530 0242 72656164 		.ascii	"read\000"
 2530      00
 2531              	.LASF59:
 2532 0247 61637175 		.ascii	"acquire_exclusive\000"
 2532      6972655F 
 2532      6578636C 
 2532      75736976 
 2532      6500
 2533              	.LASF0:
 2534 0259 6C6F6E67 		.ascii	"long long unsigned int\000"
 2534      206C6F6E 
 2534      6720756E 
 2534      7369676E 
 2534      65642069 
 2535              	.LASF51:
 2536 0270 696E7374 		.ascii	"instance_offset\000"
 2536      616E6365 
 2536      5F6F6666 
 2536      73657400 
 2537              	.LASF57:
 2538 0280 71756572 		.ascii	"query_erase\000"
 2538      795F6572 
 2538      61736500 
 2539              	.LASF64:
 2540 028c 61646472 		.ascii	"addr\000"
 2540      00
 2541              	.LASF56:
 2542 0291 73746172 		.ascii	"start_erase_sector\000"
 2542      745F6572 
 2542      6173655F 
 2542      73656374 
 2542      6F7200
 2543              	.LASF6:
 2544 02a4 5F5F7569 		.ascii	"__uint8_t\000"
 2544      6E74385F 
 2544      7400
 2545              	.LASF43:
 2546 02ae 666C6173 		.ascii	"flash_sector_descriptor_t\000"
 2546      685F7365 
 2546      63746F72 
 2546      5F646573 
 2546      63726970 
 2547              	.LASF70:
 2548 02c8 73656374 		.ascii	"sector\000"
 2548      6F7200
 2549              	.LASF7:
 2550 02cf 756E7369 		.ascii	"unsigned char\000"
 2550      676E6564 
 2550      20636861 
 2550      7200
 2551              	.LASF68:
 2552 02dd 5F5F6675 		.ascii	"__func__\000"
 2552      6E635F5F 
 2552      00
 2553              	.LASF58:
 2554 02e6 76657269 		.ascii	"verify_erase\000"
ARM GAS  C:\Users\DEVELO~1\AppData\Local\Temp\ccltPPQg.s 			page 48


 2554      66795F65 
 2554      72617365 
 2554      00
 2555              	.LASF78:
 2556 02f3 433A5C43 		.ascii	"C:\\ChibiStudio\\chibios2111\\demos\\STM32\\RT-STM3"
 2556      68696269 
 2556      53747564 
 2556      696F5C63 
 2556      68696269 
 2557 0321 32483734 		.ascii	"2H743ZI_REV_XY-NUCLEO144 - Copie\000"
 2557      335A495F 
 2557      5245565F 
 2557      58592D4E 
 2557      55434C45 
 2558              	.LASF4:
 2559 0342 7369676E 		.ascii	"signed char\000"
 2559      65642063 
 2559      68617200 
 2560              	.LASF49:
 2561 034e 61646472 		.ascii	"address\000"
 2561      65737300 
 2562              	.LASF48:
 2563 0356 73656374 		.ascii	"sectors_size\000"
 2563      6F72735F 
 2563      73697A65 
 2563      00
 2564              	.LASF28:
 2565 0363 464C4153 		.ascii	"FLASH_ERASE\000"
 2565      485F4552 
 2565      41534500 
 2566              	.LASF1:
 2567 036f 756E7369 		.ascii	"unsigned int\000"
 2567      676E6564 
 2567      20696E74 
 2567      00
 2568              	.LASF50:
 2569 037c 666C6173 		.ascii	"flash_descriptor_t\000"
 2569      685F6465 
 2569      73637269 
 2569      70746F72 
 2569      5F7400
 2570              	.LASF84:
 2571 038f 5F5F6165 		.ascii	"__aeabi_uldivmod\000"
 2571      6162695F 
 2571      756C6469 
 2571      766D6F64 
 2571      00
 2572              	.LASF31:
 2573 03a0 464C4153 		.ascii	"FLASH_BUSY_ERASING\000"
 2573      485F4255 
 2573      53595F45 
 2573      52415349 
 2573      4E4700
 2574              	.LASF32:
 2575 03b3 464C4153 		.ascii	"FLASH_ERROR_READ\000"
 2575      485F4552 
 2575      524F525F 
ARM GAS  C:\Users\DEVELO~1\AppData\Local\Temp\ccltPPQg.s 			page 49


 2575      52454144 
 2575      00
 2576              	.LASF9:
 2577 03c4 73686F72 		.ascii	"short unsigned int\000"
 2577      7420756E 
 2577      7369676E 
 2577      65642069 
 2577      6E7400
 2578              	.LASF41:
 2579 03d7 6F666673 		.ascii	"offset\000"
 2579      657400
 2580              	.LASF30:
 2581 03de 464C4153 		.ascii	"FLASH_NO_ERROR\000"
 2581      485F4E4F 
 2581      5F455252 
 2581      4F5200
 2582              	.LASF82:
 2583 03ed 6F73616C 		.ascii	"osalThreadSleep\000"
 2583      54687265 
 2583      6164536C 
 2583      65657000 
 2584              	.LASF17:
 2585 03fd 63686172 		.ascii	"char\000"
 2585      00
 2586              	.LASF39:
 2587 0402 666C6173 		.ascii	"flash_offset_t\000"
 2587      685F6F66 
 2587      66736574 
 2587      5F7400
 2588              	.LASF10:
 2589 0411 6C6F6E67 		.ascii	"long int\000"
 2589      20696E74 
 2589      00
 2590              	.LASF26:
 2591 041a 464C4153 		.ascii	"FLASH_READ\000"
 2591      485F5245 
 2591      414400
 2592              	.LASF5:
 2593 0425 73697A65 		.ascii	"size_t\000"
 2593      5F7400
 2594              	.LASF22:
 2595 042c 5F426F6F 		.ascii	"_Bool\000"
 2595      6C00
 2596              	.LASF18:
 2597 0432 73797369 		.ascii	"sysinterval_t\000"
 2597      6E746572 
 2597      76616C5F 
 2597      7400
 2598              	.LASF13:
 2599 0440 5F5F7569 		.ascii	"__uint64_t\000"
 2599      6E743634 
 2599      5F7400
 2600              	.LASF23:
 2601 044b 464C4153 		.ascii	"FLASH_UNINIT\000"
 2601      485F554E 
 2601      494E4954 
 2601      00
ARM GAS  C:\Users\DEVELO~1\AppData\Local\Temp\ccltPPQg.s 			page 50


 2602              	.LASF12:
 2603 0458 6C6F6E67 		.ascii	"long unsigned int\000"
 2603      20756E73 
 2603      69676E65 
 2603      6420696E 
 2603      7400
 2604              	.LASF21:
 2605 046a 646F7562 		.ascii	"double\000"
 2605      6C6500
 2606              	.LASF74:
 2607 0471 666C6173 		.ascii	"flashGetSectorOffset\000"
 2607      68476574 
 2607      53656374 
 2607      6F724F66 
 2607      66736574 
 2608              	.LASF47:
 2609 0486 73656374 		.ascii	"sectors\000"
 2609      6F727300 
 2610              	.LASF71:
 2611 048e 73656374 		.ascii	"sector_start\000"
 2611      6F725F73 
 2611      74617274 
 2611      00
 2612              	.LASF42:
 2613 049b 73697A65 		.ascii	"size\000"
 2613      00
 2614              	.LASF25:
 2615 04a0 464C4153 		.ascii	"FLASH_READY\000"
 2615      485F5245 
 2615      41445900 
 2616              	.LASF27:
 2617 04ac 464C4153 		.ascii	"FLASH_PGM\000"
 2617      485F5047 
 2617      4D00
 2618              	.LASF63:
 2619 04b6 64657670 		.ascii	"devp\000"
 2619      00
 2620              	.LASF19:
 2621 04bb 74696D65 		.ascii	"time_conv_t\000"
 2621      5F636F6E 
 2621      765F7400 
 2622              	.LASF33:
 2623 04c7 464C4153 		.ascii	"FLASH_ERROR_PROGRAM\000"
 2623      485F4552 
 2623      524F525F 
 2623      50524F47 
 2623      52414D00 
 2624              	.LASF35:
 2625 04db 464C4153 		.ascii	"FLASH_ERROR_VERIFY\000"
 2625      485F4552 
 2625      524F525F 
 2625      56455249 
 2625      465900
 2626              	.LASF72:
 2627 04ee 73656374 		.ascii	"sector_end\000"
 2627      6F725F65 
 2627      6E6400
ARM GAS  C:\Users\DEVELO~1\AppData\Local\Temp\ccltPPQg.s 			page 51


 2628              	.LASF62:
 2629 04f9 42617365 		.ascii	"BaseFlash\000"
 2629      466C6173 
 2629      6800
 2630              	.LASF36:
 2631 0503 464C4153 		.ascii	"FLASH_ERROR_HW_FAILURE\000"
 2631      485F4552 
 2631      524F525F 
 2631      48575F46 
 2631      41494C55 
 2632              	.LASF81:
 2633 051a 6D736563 		.ascii	"msec\000"
 2633      00
 2634              	.LASF24:
 2635 051f 464C4153 		.ascii	"FLASH_STOP\000"
 2635      485F5354 
 2635      4F5000
 2636              	.LASF2:
 2637 052a 6C6F6E67 		.ascii	"long long int\000"
 2637      206C6F6E 
 2637      6720696E 
 2637      7400
 2638              	.LASF46:
 2639 0538 73656374 		.ascii	"sectors_count\000"
 2639      6F72735F 
 2639      636F756E 
 2639      7400
 2640              	.LASF67:
 2641 0546 64657363 		.ascii	"descriptor\000"
 2641      72697074 
 2641      6F7200
 2642              		.ident	"GCC: (Arm GNU Toolchain 11.3.Rel1) 11.3.1 20220712"
ARM GAS  C:\Users\DEVELO~1\AppData\Local\Temp\ccltPPQg.s 			page 52


DEFINED SYMBOLS
                            *ABS*:00000000 hal_flash.c
C:\Users\DEVELO~1\AppData\Local\Temp\ccltPPQg.s:20     .text.flashWaitErase:00000000 $t
C:\Users\DEVELO~1\AppData\Local\Temp\ccltPPQg.s:27     .text.flashWaitErase:00000000 flashWaitErase
C:\Users\DEVELO~1\AppData\Local\Temp\ccltPPQg.s:123    .text.flashGetSectorOffset:00000000 $t
C:\Users\DEVELO~1\AppData\Local\Temp\ccltPPQg.s:130    .text.flashGetSectorOffset:00000000 flashGetSectorOffset
C:\Users\DEVELO~1\AppData\Local\Temp\ccltPPQg.s:184    .text.flashGetSectorSize:00000000 $t
C:\Users\DEVELO~1\AppData\Local\Temp\ccltPPQg.s:191    .text.flashGetSectorSize:00000000 flashGetSectorSize
C:\Users\DEVELO~1\AppData\Local\Temp\ccltPPQg.s:243    .text.flashGetOffsetSector:00000000 $t
C:\Users\DEVELO~1\AppData\Local\Temp\ccltPPQg.s:250    .text.flashGetOffsetSector:00000000 flashGetOffsetSector
C:\Users\DEVELO~1\AppData\Local\Temp\ccltPPQg.s:356    .text.flashGetOffsetAddress:00000000 $t
C:\Users\DEVELO~1\AppData\Local\Temp\ccltPPQg.s:363    .text.flashGetOffsetAddress:00000000 flashGetOffsetAddress
C:\Users\DEVELO~1\AppData\Local\Temp\ccltPPQg.s:400    .text.flashGetAddressOffset:00000000 $t
C:\Users\DEVELO~1\AppData\Local\Temp\ccltPPQg.s:407    .text.flashGetAddressOffset:00000000 flashGetAddressOffset

UNDEFINED SYMBOLS
__aeabi_uldivmod
__aeabi_ldivmod
chThdSleep
