ARM GAS  C:\Users\DEVELO~1\AppData\Local\Temp\ccfX5QOj.s 			page 1


   1              		.cpu cortex-m7
   2              		.arch armv7e-m
   3              		.fpu softvfp
   4              		.eabi_attribute 20, 1
   5              		.eabi_attribute 21, 1
   6              		.eabi_attribute 23, 3
   7              		.eabi_attribute 24, 1
   8              		.eabi_attribute 25, 1
   9              		.eabi_attribute 26, 1
  10              		.eabi_attribute 30, 2
  11              		.eabi_attribute 34, 1
  12              		.eabi_attribute 18, 4
  13              		.file	"hal_st_lld.c"
  14              		.text
  15              	.Ltext0:
  16              		.cfi_sections	.debug_frame
  17              		.section	.text.st_lld_init,"ax",%progbits
  18              		.align	1
  19              		.p2align 4,,15
  20              		.global	st_lld_init
  21              		.syntax unified
  22              		.thumb
  23              		.thumb_func
  24              		.type	st_lld_init, %function
  25              	st_lld_init:
  26              	.LFB448:
  27              		.file 1 "./ChibiOS/os/hal/ports/STM32/LLD/SYSTICKv1/hal_st_lld.c"
  28              		.loc 1 398 24 view -0
  29              		.cfi_startproc
  30              		@ args = 0, pretend = 0, frame = 0
  31              		@ frame_needed = 0, uses_anonymous_args = 0
  32              		@ link register save eliminated.
  33              		.loc 1 402 3 view .LVU1
  34              		.loc 1 402 3 view .LVU2
  35              		.loc 1 402 3 view .LVU3
  36              		.loc 1 404 3 view .LVU4
  37              		.loc 1 404 3 view .LVU5
  38              		.loc 1 404 3 view .LVU6
  39              		.loc 1 408 3 view .LVU7
  40              	.LVL0:
  41              	.LBB54:
  42              	.LBI54:
  43              		.file 2 "./ChibiOS/os/hal/ports/STM32/STM32H7xx/stm32_rcc.h"
  44              		.loc 2 141 22 view .LVU8
  45              	.LBB55:
  46              		.loc 2 145 3 view .LVU9
  47              		.loc 2 145 20 is_stmt 0 view .LVU10
  48 0000 124A     		ldr	r2, .L4
  49              	.LBE55:
  50              	.LBE54:
  51              		.loc 1 414 24 view .LVU11
  52 0002 4FF08043 		mov	r3, #1073741824
  53              		.loc 1 416 24 view .LVU12
  54 0006 0021     		movs	r1, #0
  55              	.LBB61:
  56              	.LBB56:
  57              		.loc 2 145 20 view .LVU13
ARM GAS  C:\Users\DEVELO~1\AppData\Local\Temp\ccfX5QOj.s 			page 2


  58 0008 D2F8E800 		ldr	r0, [r2, #232]
  59 000c 40F00100 		orr	r0, r0, #1
  60              	.LBE56:
  61              	.LBE61:
  62              		.loc 1 398 24 view .LVU14
  63 0010 30B4     		push	{r4, r5}
  64              		.cfi_def_cfa_offset 8
  65              		.cfi_offset 4, -8
  66              		.cfi_offset 5, -4
  67              	.LBB62:
  68              	.LBB57:
  69              		.loc 2 145 20 view .LVU15
  70 0012 C2F8E800 		str	r0, [r2, #232]
  71              		.loc 2 146 3 is_stmt 1 view .LVU16
  72              		.loc 2 147 5 view .LVU17
  73              	.LBE57:
  74              	.LBE62:
  75              		.loc 1 414 24 is_stmt 0 view .LVU18
  76 0016 44F61F65 		movw	r5, #19999
  77              	.LBB63:
  78              	.LBB58:
  79              		.loc 2 147 24 view .LVU19
  80 001a D2F81001 		ldr	r0, [r2, #272]
  81              	.LBE58:
  82              	.LBE63:
  83              		.loc 1 411 3 view .LVU20
  84 001e 0C4C     		ldr	r4, .L4+4
  85              	.LBB64:
  86              	.LBB59:
  87              		.loc 2 147 24 view .LVU21
  88 0020 40F00100 		orr	r0, r0, #1
  89 0024 C2F81001 		str	r0, [r2, #272]
  90              		.loc 2 152 3 is_stmt 1 view .LVU22
  91              	.LBE59:
  92              	.LBE64:
  93              		.loc 1 429 24 is_stmt 0 view .LVU23
  94 0028 0120     		movs	r0, #1
  95              	.LBB65:
  96              	.LBB60:
  97              		.loc 2 152 3 view .LVU24
  98 002a D2F81021 		ldr	r2, [r2, #272]
  99              	.LVL1:
 100              		.loc 2 152 3 view .LVU25
 101              	.LBE60:
 102              	.LBE65:
 103              		.loc 1 411 3 is_stmt 1 view .LVU26
 104 002e E26B     		ldr	r2, [r4, #60]
 105 0030 0243     		orrs	r2, r2, r0
 106 0032 E263     		str	r2, [r4, #60]
 107              		.loc 1 414 3 view .LVU27
 108              		.loc 1 415 24 is_stmt 0 view .LVU28
 109 0034 4FF0FF32 		mov	r2, #-1
 110              		.loc 1 414 24 view .LVU29
 111 0038 9D62     		str	r5, [r3, #40]
 112              		.loc 1 415 3 is_stmt 1 view .LVU30
 113              		.loc 1 415 24 is_stmt 0 view .LVU31
 114 003a DA62     		str	r2, [r3, #44]
ARM GAS  C:\Users\DEVELO~1\AppData\Local\Temp\ccfX5QOj.s 			page 3


 115              		.loc 1 416 3 is_stmt 1 view .LVU32
 116              		.loc 1 416 24 is_stmt 0 view .LVU33
 117 003c 9961     		str	r1, [r3, #24]
 118              		.loc 1 417 3 is_stmt 1 view .LVU34
 119              		.loc 1 417 24 is_stmt 0 view .LVU35
 120 003e 5963     		str	r1, [r3, #52]
 121              		.loc 1 427 3 is_stmt 1 view .LVU36
 122              		.loc 1 427 24 is_stmt 0 view .LVU37
 123 0040 D960     		str	r1, [r3, #12]
 124              		.loc 1 428 3 is_stmt 1 view .LVU38
 125              		.loc 1 428 24 is_stmt 0 view .LVU39
 126 0042 5960     		str	r1, [r3, #4]
 127              		.loc 1 429 3 is_stmt 1 view .LVU40
 128              		.loc 1 429 24 is_stmt 0 view .LVU41
 129 0044 5861     		str	r0, [r3, #20]
 130              		.loc 1 430 3 is_stmt 1 view .LVU42
 131              		.loc 1 430 24 is_stmt 0 view .LVU43
 132 0046 1860     		str	r0, [r3]
 133              		.loc 1 450 1 view .LVU44
 134 0048 30BC     		pop	{r4, r5}
 135              		.cfi_restore 5
 136              		.cfi_restore 4
 137              		.cfi_def_cfa_offset 0
 138 004a 7047     		bx	lr
 139              	.L5:
 140              		.align	2
 141              	.L4:
 142 004c 00440258 		.word	1476543488
 143 0050 0010005C 		.word	1543507968
 144              		.cfi_endproc
 145              	.LFE448:
 146              		.size	st_lld_init, .-st_lld_init
 147              		.section	.text.st_lld_serve_interrupt,"ax",%progbits
 148              		.align	1
 149              		.p2align 4,,15
 150              		.global	st_lld_serve_interrupt
 151              		.syntax unified
 152              		.thumb
 153              		.thumb_func
 154              		.type	st_lld_serve_interrupt, %function
 155              	st_lld_serve_interrupt:
 156              	.LFB449:
 157              		.loc 1 455 35 is_stmt 1 view -0
 158              		.cfi_startproc
 159              		@ args = 0, pretend = 0, frame = 0
 160              		@ frame_needed = 0, uses_anonymous_args = 0
 161              		.loc 1 457 3 view .LVU46
 162              		.loc 1 458 3 view .LVU47
 163              	.LVL2:
 164              		.loc 1 460 3 view .LVU48
 165              		.loc 1 460 7 is_stmt 0 view .LVU49
 166 0000 4FF08042 		mov	r2, #1073741824
 167              		.loc 1 455 35 view .LVU50
 168 0004 08B5     		push	{r3, lr}
 169              		.cfi_def_cfa_offset 8
 170              		.cfi_offset 3, -8
 171              		.cfi_offset 14, -4
ARM GAS  C:\Users\DEVELO~1\AppData\Local\Temp\ccfX5QOj.s 			page 4


 172              		.loc 1 460 7 view .LVU51
 173 0006 1169     		ldr	r1, [r2, #16]
 174              	.LVL3:
 175              		.loc 1 461 3 is_stmt 1 view .LVU52
 176              		.loc 1 461 13 is_stmt 0 view .LVU53
 177 0008 D368     		ldr	r3, [r2, #12]
 178 000a 0B40     		ands	r3, r3, r1
 179              	.LVL4:
 180              		.loc 1 462 3 is_stmt 1 view .LVU54
 181              		.loc 1 461 6 is_stmt 0 view .LVU55
 182 000c D9B2     		uxtb	r1, r3
 183              		.loc 1 464 6 view .LVU56
 184 000e 9B07     		lsls	r3, r3, #30
 185              	.LVL5:
 186              		.loc 1 462 14 view .LVU57
 187 0010 6FEA0101 		mvn	r1, r1
 188              		.loc 1 462 12 view .LVU58
 189 0014 1161     		str	r1, [r2, #16]
 190              		.loc 1 464 3 is_stmt 1 view .LVU59
 191              		.loc 1 464 6 is_stmt 0 view .LVU60
 192 0016 00D4     		bmi	.L12
 193              		.loc 1 494 1 view .LVU61
 194 0018 08BD     		pop	{r3, pc}
 195              	.L12:
 196              		.loc 1 467 5 is_stmt 1 view .LVU62
 197              	.LBB66:
 198              	.LBI66:
 199              		.file 3 "./ChibiOS/os/hal/osal/rt-nil/osal.h"
 200              		.loc 3 595 20 view .LVU63
 201              		.loc 3 597 3 view .LVU64
 202              	.LBB67:
 203              	.LBI67:
 204              		.file 4 "./ChibiOS/os/rt/include/chsys.h"
 205              		.loc 4 416 20 view .LVU65
 206              		.loc 4 418 3 view .LVU66
 207              	.LBB68:
 208              	.LBI68:
 209              		.file 5 "./ChibiOS/os/common/ports/ARMv7-M/chcore.h"
 210              		.loc 5 879 27 view .LVU67
 211              		.loc 5 881 3 view .LVU68
 212              	.LBB69:
 213              	.LBI69:
 214              		.loc 5 840 27 view .LVU69
 215              		.loc 5 848 3 view .LVU70
 216              	.LVL6:
 217              	.LBB70:
 218              	.LBI70:
 219              		.file 6 "./ChibiOS/os/common/ext/ARM/CMSIS/Core/Include/cmsis_gcc.h"
 220              		.loc 6 491 27 view .LVU71
 221              	.LBB71:
 222              		.loc 6 493 3 view .LVU72
 223 001a 3023     		movs	r3, #48
 224              		.syntax unified
 225              	@ 493 "./ChibiOS/os/common/ext/ARM/CMSIS/Core/Include/cmsis_gcc.h" 1
 226 001c 83F31188 		MSR basepri, r3
 227              	@ 0 "" 2
 228              	.LVL7:
ARM GAS  C:\Users\DEVELO~1\AppData\Local\Temp\ccfX5QOj.s 			page 5


 229              		.loc 6 493 3 is_stmt 0 view .LVU73
 230              		.thumb
 231              		.syntax unified
 232              	.LBE71:
 233              	.LBE70:
 234              	.LBE69:
 235              	.LBE68:
 236              		.loc 4 419 35 is_stmt 1 view .LVU74
 237              		.loc 4 420 30 view .LVU75
 238              	.LBE67:
 239              	.LBE66:
 240              		.loc 1 468 5 view .LVU76
 241              	.LBB72:
 242              	.LBI72:
 243              		.loc 3 665 20 view .LVU77
 244              	.LBB73:
 245              		.loc 3 667 3 view .LVU78
 246 0020 FFF7FEFF 		bl	chSysTimerHandlerI
 247              	.LVL8:
 248              	.LBE73:
 249              	.LBE72:
 250              		.loc 1 469 5 view .LVU79
 251              	.LBB74:
 252              	.LBI74:
 253              		.loc 3 606 20 view .LVU80
 254              	.LBB75:
 255              		.loc 3 608 3 view .LVU81
 256              	.LBB76:
 257              	.LBI76:
 258              		.loc 4 438 20 view .LVU82
 259              		.loc 4 440 32 view .LVU83
 260              		.loc 4 441 34 view .LVU84
 261              		.loc 4 442 3 view .LVU85
 262              	.LBB77:
 263              	.LBI77:
 264              		.loc 5 890 27 view .LVU86
 265              		.loc 5 892 3 view .LVU87
 266              	.LBB78:
 267              	.LBI78:
 268              		.loc 5 864 27 view .LVU88
 269              		.loc 5 867 3 view .LVU89
 270              	.LBB79:
 271              	.LBI79:
 272              		.loc 6 491 27 view .LVU90
 273              	.LBB80:
 274              		.loc 6 493 3 view .LVU91
 275 0024 0023     		movs	r3, #0
 276              		.syntax unified
 277              	@ 493 "./ChibiOS/os/common/ext/ARM/CMSIS/Core/Include/cmsis_gcc.h" 1
 278 0026 83F31188 		MSR basepri, r3
 279              	@ 0 "" 2
 280              	.LVL9:
 281              		.loc 6 493 3 is_stmt 0 view .LVU92
 282              		.thumb
 283              		.syntax unified
 284              	.LBE80:
 285              	.LBE79:
ARM GAS  C:\Users\DEVELO~1\AppData\Local\Temp\ccfX5QOj.s 			page 6


 286              	.LBE78:
 287              	.LBE77:
 288              	.LBE76:
 289              	.LBE75:
 290              	.LBE74:
 291              		.loc 1 494 1 view .LVU93
 292 002a 08BD     		pop	{r3, pc}
 293              		.cfi_endproc
 294              	.LFE449:
 295              		.size	st_lld_serve_interrupt, .-st_lld_serve_interrupt
 296              		.text
 297              	.Letext0:
 298              		.file 7 "c:\\chibistudio\\tools\\gnu tools arm embedded\\11.3 2022.08\\arm-none-eabi\\include\\mac
 299              		.file 8 "c:\\chibistudio\\tools\\gnu tools arm embedded\\11.3 2022.08\\arm-none-eabi\\include\\sys
 300              		.file 9 "./ChibiOS/os/common/ext/ST/STM32H7xx/stm32h743xx.h"
 301              		.file 10 "./ChibiOS/os/hal/ports/STM32/LLD/TIMv1/stm32_tim.h"