ARM GAS  C:\Users\DEVELO~1\AppData\Local\Temp\ccDP4wuj.s 			page 1


   1              		.cpu cortex-m7
   2              		.arch armv7e-m
   3              		.fpu softvfp
   4              		.eabi_attribute 20, 1
   5              		.eabi_attribute 21, 1
   6              		.eabi_attribute 23, 3
   7              		.eabi_attribute 24, 1
   8              		.eabi_attribute 25, 1
   9              		.eabi_attribute 26, 1
  10              		.eabi_attribute 30, 2
  11              		.eabi_attribute 34, 1
  12              		.eabi_attribute 18, 4
  13              		.file	"hal_sdc.c"
  14              		.text
  15              	.Ltext0:
  16              		.cfi_sections	.debug_frame
  17              		.section	.text.sdcGetInfo,"ax",%progbits
  18              		.align	1
  19              		.p2align 4,,15
  20              		.global	sdcGetInfo
  21              		.syntax unified
  22              		.thumb
  23              		.thumb_func
  24              		.type	sdcGetInfo, %function
  25              	sdcGetInfo:
  26              	.LVL0:
  27              	.LFB473:
  28              		.file 1 "./ChibiOS/os/hal/src/hal_sdc.c"
  29              		.loc 1 980 57 view -0
  30              		.cfi_startproc
  31              		@ args = 0, pretend = 0, frame = 0
  32              		@ frame_needed = 0, uses_anonymous_args = 0
  33              		@ link register save eliminated.
  34              		.loc 1 982 3 view .LVU1
  35              		.loc 1 982 3 view .LVU2
  36              		.loc 1 982 3 view .LVU3
  37              		.loc 1 984 3 view .LVU4
  38              		.loc 1 984 6 is_stmt 0 view .LVU5
  39 0000 0379     		ldrb	r3, [r0, #4]	@ zero_extendqisi2
  40 0002 052B     		cmp	r3, #5
  41 0004 06D1     		bne	.L3
  42              		.loc 1 988 3 is_stmt 1 view .LVU6
  43              		.loc 1 988 17 is_stmt 0 view .LVU7
  44 0006 826A     		ldr	r2, [r0, #40]
  45              		.loc 1 989 18 view .LVU8
  46 0008 4FF40073 		mov	r3, #512
  47              		.loc 1 991 10 view .LVU9
  48 000c 0020     		movs	r0, #0
  49              	.LVL1:
  50              		.loc 1 989 18 view .LVU10
  51 000e C1E90032 		strd	r3, r2, [r1]
  52              		.loc 1 991 3 is_stmt 1 view .LVU11
  53              		.loc 1 991 10 is_stmt 0 view .LVU12
  54 0012 7047     		bx	lr
  55              	.LVL2:
  56              	.L3:
  57              		.loc 1 985 12 view .LVU13
ARM GAS  C:\Users\DEVELO~1\AppData\Local\Temp\ccDP4wuj.s 			page 2


  58 0014 0120     		movs	r0, #1
  59              	.LVL3:
  60              		.loc 1 992 1 view .LVU14
  61 0016 7047     		bx	lr
  62              		.cfi_endproc
  63              	.LFE473:
  64              		.size	sdcGetInfo, .-sdcGetInfo
  65              		.section	.text._sdc_wait_for_transfer_state_internal,"ax",%progbits
  66              		.align	1
  67              		.p2align 4,,15
  68              		.syntax unified
  69              		.thumb
  70              		.thumb_func
  71              		.type	_sdc_wait_for_transfer_state_internal, %function
  72              	_sdc_wait_for_transfer_state_internal:
  73              	.LVL4:
  74              	.LFB460:
  75              		.loc 1 499 67 is_stmt 1 view -0
  76              		.cfi_startproc
  77              		@ args = 0, pretend = 0, frame = 8
  78              		@ frame_needed = 0, uses_anonymous_args = 0
  79              		.loc 1 499 67 is_stmt 0 view .LVU16
  80 0000 70B5     		push	{r4, r5, r6, lr}
  81              		.cfi_def_cfa_offset 16
  82              		.cfi_offset 4, -16
  83              		.cfi_offset 5, -12
  84              		.cfi_offset 6, -8
  85              		.cfi_offset 14, -4
  86              		.loc 1 511 21 view .LVU17
  87 0002 124E     		ldr	r6, .L17
  88              		.loc 1 499 67 view .LVU18
  89 0004 82B0     		sub	sp, sp, #8
  90              		.cfi_def_cfa_offset 24
  91              		.loc 1 499 67 view .LVU19
  92 0006 0446     		mov	r4, r0
  93 0008 0D46     		mov	r5, r1
  94 000a 11E0     		b	.L9
  95              	.LVL5:
  96              	.L16:
  97              		.loc 1 505 18 view .LVU20
  98 000c FFF7FEFF 		bl	sdc_lld_send_cmd_short_crc
  99              	.LVL6:
 100              		.loc 1 505 18 view .LVU21
 101 0010 0346     		mov	r3, r0
 102              	.LVL7:
 103              	.L7:
 104              		.loc 1 511 5 is_stmt 1 view .LVU22
 105              		.loc 1 515 5 view .LVU23
 106              		.loc 1 522 7 view .LVU24
 107              	.LBB133:
 108              	.LBI133:
 109              		.file 2 "./ChibiOS/os/hal/osal/rt-nil/osal.h"
 110              		.loc 2 782 20 view .LVU25
 111              	.LBB134:
 112              		.loc 2 784 3 view .LVU26
 113 0012 0A20     		movs	r0, #10
 114              	.LBE134:
ARM GAS  C:\Users\DEVELO~1\AppData\Local\Temp\ccDP4wuj.s 			page 3


 115              	.LBE133:
 116              		.loc 1 511 8 is_stmt 0 view .LVU27
 117 0014 BBB9     		cbnz	r3, .L8
 118              		.loc 1 511 21 discriminator 1 view .LVU28
 119 0016 019A     		ldr	r2, [sp, #4]
 120              		.loc 1 515 13 discriminator 1 view .LVU29
 121 0018 C2F34321 		ubfx	r1, r2, #9, #4
 122              		.loc 1 511 18 discriminator 1 view .LVU30
 123 001c 3242     		tst	r2, r6
 124              		.loc 1 515 5 discriminator 1 view .LVU31
 125 001e A1F10502 		sub	r2, r1, #5
 126              		.loc 1 511 18 discriminator 1 view .LVU32
 127 0022 0FD1     		bne	.L11
 128              		.loc 1 515 5 view .LVU33
 129 0024 0429     		cmp	r1, #4
 130 0026 0ED0     		beq	.L8
 131 0028 022A     		cmp	r2, #2
 132 002a 0BD8     		bhi	.L11
 133              	.LBB136:
 134              	.LBB135:
 135              		.loc 2 784 3 view .LVU34
 136 002c FFF7FEFF 		bl	chThdSleep
 137              	.LVL8:
 138              		.loc 2 784 3 view .LVU35
 139              	.LBE135:
 140              	.LBE136:
 141              		.loc 1 524 7 is_stmt 1 view .LVU36
 142              		.loc 1 503 9 view .LVU37
 143              	.L9:
 144              		.loc 1 500 3 view .LVU38
 145              		.loc 1 501 3 view .LVU39
 146              		.loc 1 503 3 view .LVU40
 147              		.loc 1 504 5 view .LVU41
 148              		.loc 1 505 7 view .LVU42
 149              		.loc 1 508 7 view .LVU43
 150              		.loc 1 508 18 is_stmt 0 view .LVU44
 151 0030 01AB     		add	r3, sp, #4
 152 0032 0D21     		movs	r1, #13
 153 0034 2046     		mov	r0, r4
 154              		.loc 1 505 18 view .LVU45
 155 0036 A26B     		ldr	r2, [r4, #56]
 156              		.loc 1 504 8 view .LVU46
 157 0038 002D     		cmp	r5, #0
 158 003a E7D1     		bne	.L16
 159              	.LVL9:
 160              		.loc 1 508 18 view .LVU47
 161 003c FFF7FEFF 		bl	sdc_lld_send_cmd_short
 162              	.LVL10:
 163              		.loc 1 508 18 view .LVU48
 164 0040 0346     		mov	r3, r0
 165              	.LVL11:
 166              		.loc 1 508 18 view .LVU49
 167 0042 E6E7     		b	.L7
 168              	.LVL12:
 169              	.L11:
 170              		.loc 1 515 5 view .LVU50
 171 0044 0123     		movs	r3, #1
ARM GAS  C:\Users\DEVELO~1\AppData\Local\Temp\ccDP4wuj.s 			page 4


 172              	.LVL13:
 173              	.L8:
 174              		.loc 1 531 1 view .LVU51
 175 0046 1846     		mov	r0, r3
 176 0048 02B0     		add	sp, sp, #8
 177              		.cfi_def_cfa_offset 16
 178              		@ sp needed
 179 004a 70BD     		pop	{r4, r5, r6, pc}
 180              	.LVL14:
 181              	.L18:
 182              		.loc 1 531 1 view .LVU52
 183              		.align	2
 184              	.L17:
 185 004c 08E0FFFD 		.word	-33562616
 186              		.cfi_endproc
 187              	.LFE460:
 188              		.size	_sdc_wait_for_transfer_state_internal, .-_sdc_wait_for_transfer_state_internal
 189              		.section	.text.sdcRead,"ax",%progbits
 190              		.align	1
 191              		.p2align 4,,15
 192              		.global	sdcRead
 193              		.syntax unified
 194              		.thumb
 195              		.thumb_func
 196              		.type	sdcRead, %function
 197              	sdcRead:
 198              	.LVL15:
 199              	.LFB469:
 200              		.loc 1 858 76 is_stmt 1 view -0
 201              		.cfi_startproc
 202              		@ args = 0, pretend = 0, frame = 0
 203              		@ frame_needed = 0, uses_anonymous_args = 0
 204              		.loc 1 864 21 is_stmt 0 view .LVU54
 205 0000 03F1FF3C 		add	ip, r3, #-1
 206              		.loc 1 858 76 view .LVU55
 207 0004 10B5     		push	{r4, lr}
 208              		.cfi_def_cfa_offset 8
 209              		.cfi_offset 4, -8
 210              		.cfi_offset 14, -4
 211              		.loc 1 864 21 view .LVU56
 212 0006 8C44     		add	ip, ip, r1
 213              		.loc 1 864 6 view .LVU57
 214 0008 D0F828E0 		ldr	lr, [r0, #40]
 215              		.loc 1 858 76 view .LVU58
 216 000c 0446     		mov	r4, r0
 217              		.loc 1 859 3 is_stmt 1 view .LVU59
 218              		.loc 1 861 3 view .LVU60
 219              		.loc 1 861 3 view .LVU61
 220              		.loc 1 861 3 view .LVU62
 221              		.loc 1 862 3 view .LVU63
 222              		.loc 1 862 3 view .LVU64
 223              		.loc 1 862 3 view .LVU65
 224              		.loc 1 864 3 view .LVU66
 225              		.loc 1 864 6 is_stmt 0 view .LVU67
 226 000e F445     		cmp	ip, lr
 227 0010 05D9     		bls	.L20
 228              		.loc 1 865 5 is_stmt 1 view .LVU68
ARM GAS  C:\Users\DEVELO~1\AppData\Local\Temp\ccDP4wuj.s 			page 5


 229              		.loc 1 865 18 is_stmt 0 view .LVU69
 230 0012 436B     		ldr	r3, [r0, #52]
 231              	.LVL16:
 232              		.loc 1 866 12 view .LVU70
 233 0014 0120     		movs	r0, #1
 234              	.LVL17:
 235              		.loc 1 865 18 view .LVU71
 236 0016 43F08003 		orr	r3, r3, #128
 237 001a 6363     		str	r3, [r4, #52]
 238              		.loc 1 866 5 is_stmt 1 view .LVU72
 239              		.loc 1 877 1 is_stmt 0 view .LVU73
 240 001c 10BD     		pop	{r4, pc}
 241              	.LVL18:
 242              	.L20:
 243              	.LBB139:
 244              	.LBI139:
 245              		.loc 1 858 6 is_stmt 1 view .LVU74
 246              	.LBB140:
 247              		.loc 1 870 3 view .LVU75
 248              		.loc 1 870 15 is_stmt 0 view .LVU76
 249 001e 4FF0060C 		mov	ip, #6
 250 0022 80F804C0 		strb	ip, [r0, #4]
 251              		.loc 1 872 3 is_stmt 1 view .LVU77
 252              		.loc 1 872 12 is_stmt 0 view .LVU78
 253 0026 FFF7FEFF 		bl	sdc_lld_read
 254              	.LVL19:
 255              		.loc 1 875 15 view .LVU79
 256 002a 0523     		movs	r3, #5
 257              	.LVL20:
 258              		.loc 1 875 3 is_stmt 1 view .LVU80
 259              		.loc 1 875 15 is_stmt 0 view .LVU81
 260 002c 2371     		strb	r3, [r4, #4]
 261              		.loc 1 876 3 is_stmt 1 view .LVU82
 262              	.LVL21:
 263              		.loc 1 876 3 is_stmt 0 view .LVU83
 264              	.LBE140:
 265              	.LBE139:
 266              		.loc 1 877 1 view .LVU84
 267 002e 10BD     		pop	{r4, pc}
 268              		.loc 1 877 1 view .LVU85
 269              		.cfi_endproc
 270              	.LFE469:
 271              		.size	sdcRead, .-sdcRead
 272              		.section	.text.sdcWrite,"ax",%progbits
 273              		.align	1
 274              		.p2align 4,,15
 275              		.global	sdcWrite
 276              		.syntax unified
 277              		.thumb
 278              		.thumb_func
 279              		.type	sdcWrite, %function
 280              	sdcWrite:
 281              	.LVL22:
 282              	.LFB470:
 283              		.loc 1 896 47 is_stmt 1 view -0
 284              		.cfi_startproc
 285              		@ args = 0, pretend = 0, frame = 0
ARM GAS  C:\Users\DEVELO~1\AppData\Local\Temp\ccDP4wuj.s 			page 6


 286              		@ frame_needed = 0, uses_anonymous_args = 0
 287              		.loc 1 902 21 is_stmt 0 view .LVU87
 288 0000 03F1FF3C 		add	ip, r3, #-1
 289              		.loc 1 896 47 view .LVU88
 290 0004 10B5     		push	{r4, lr}
 291              		.cfi_def_cfa_offset 8
 292              		.cfi_offset 4, -8
 293              		.cfi_offset 14, -4
 294              		.loc 1 902 21 view .LVU89
 295 0006 8C44     		add	ip, ip, r1
 296              		.loc 1 902 6 view .LVU90
 297 0008 D0F828E0 		ldr	lr, [r0, #40]
 298              		.loc 1 896 47 view .LVU91
 299 000c 0446     		mov	r4, r0
 300              		.loc 1 897 3 is_stmt 1 view .LVU92
 301              		.loc 1 899 3 view .LVU93
 302              		.loc 1 899 3 view .LVU94
 303              		.loc 1 899 3 view .LVU95
 304              		.loc 1 900 3 view .LVU96
 305              		.loc 1 900 3 view .LVU97
 306              		.loc 1 900 3 view .LVU98
 307              		.loc 1 902 3 view .LVU99
 308              		.loc 1 902 6 is_stmt 0 view .LVU100
 309 000e F445     		cmp	ip, lr
 310 0010 05D9     		bls	.L24
 311              		.loc 1 903 5 is_stmt 1 view .LVU101
 312              		.loc 1 903 18 is_stmt 0 view .LVU102
 313 0012 436B     		ldr	r3, [r0, #52]
 314              	.LVL23:
 315              		.loc 1 904 12 view .LVU103
 316 0014 0120     		movs	r0, #1
 317              	.LVL24:
 318              		.loc 1 903 18 view .LVU104
 319 0016 43F08003 		orr	r3, r3, #128
 320 001a 6363     		str	r3, [r4, #52]
 321              		.loc 1 904 5 is_stmt 1 view .LVU105
 322              		.loc 1 915 1 is_stmt 0 view .LVU106
 323 001c 10BD     		pop	{r4, pc}
 324              	.LVL25:
 325              	.L24:
 326              	.LBB143:
 327              	.LBI143:
 328              		.loc 1 895 6 is_stmt 1 view .LVU107
 329              	.LBB144:
 330              		.loc 1 908 3 view .LVU108
 331              		.loc 1 908 15 is_stmt 0 view .LVU109
 332 001e 4FF0070C 		mov	ip, #7
 333 0022 80F804C0 		strb	ip, [r0, #4]
 334              		.loc 1 910 3 is_stmt 1 view .LVU110
 335              		.loc 1 910 12 is_stmt 0 view .LVU111
 336 0026 FFF7FEFF 		bl	sdc_lld_write
 337              	.LVL26:
 338              		.loc 1 913 15 view .LVU112
 339 002a 0523     		movs	r3, #5
 340              	.LVL27:
 341              		.loc 1 913 3 is_stmt 1 view .LVU113
 342              		.loc 1 913 15 is_stmt 0 view .LVU114
ARM GAS  C:\Users\DEVELO~1\AppData\Local\Temp\ccDP4wuj.s 			page 7


 343 002c 2371     		strb	r3, [r4, #4]
 344              		.loc 1 914 3 is_stmt 1 view .LVU115
 345              	.LVL28:
 346              		.loc 1 914 3 is_stmt 0 view .LVU116
 347              	.LBE144:
 348              	.LBE143:
 349              		.loc 1 915 1 view .LVU117
 350 002e 10BD     		pop	{r4, pc}
 351              		.loc 1 915 1 view .LVU118
 352              		.cfi_endproc
 353              	.LFE470:
 354              		.size	sdcWrite, .-sdcWrite
 355              		.section	.text.sdcSync,"ax",%progbits
 356              		.align	1
 357              		.p2align 4,,15
 358              		.global	sdcSync
 359              		.syntax unified
 360              		.thumb
 361              		.thumb_func
 362              		.type	sdcSync, %function
 363              	sdcSync:
 364              	.LVL29:
 365              	.LFB472:
 366              		.loc 1 949 31 is_stmt 1 view -0
 367              		.cfi_startproc
 368              		@ args = 0, pretend = 0, frame = 0
 369              		@ frame_needed = 0, uses_anonymous_args = 0
 370              		.loc 1 950 3 view .LVU120
 371              		.loc 1 952 3 view .LVU121
 372              		.loc 1 952 3 view .LVU122
 373              		.loc 1 952 3 view .LVU123
 374              		.loc 1 954 3 view .LVU124
 375              		.loc 1 949 31 is_stmt 0 view .LVU125
 376 0000 38B5     		push	{r3, r4, r5, lr}
 377              		.cfi_def_cfa_offset 16
 378              		.cfi_offset 3, -16
 379              		.cfi_offset 4, -12
 380              		.cfi_offset 5, -8
 381              		.cfi_offset 14, -4
 382              		.loc 1 954 6 view .LVU126
 383 0002 0579     		ldrb	r5, [r0, #4]	@ zero_extendqisi2
 384 0004 052D     		cmp	r5, #5
 385 0006 01D0     		beq	.L31
 386              		.loc 1 955 12 view .LVU127
 387 0008 0120     		movs	r0, #1
 388              	.LVL30:
 389              		.loc 1 966 1 view .LVU128
 390 000a 38BD     		pop	{r3, r4, r5, pc}
 391              	.LVL31:
 392              	.L31:
 393              	.LBB147:
 394              	.LBB148:
 395              		.loc 1 959 15 view .LVU129
 396 000c 0823     		movs	r3, #8
 397 000e 0446     		mov	r4, r0
 398              	.LVL32:
 399              		.loc 1 959 15 view .LVU130
ARM GAS  C:\Users\DEVELO~1\AppData\Local\Temp\ccDP4wuj.s 			page 8


 400              	.LBE148:
 401              	.LBI147:
 402              		.loc 1 949 6 is_stmt 1 view .LVU131
 403              	.LBB149:
 404              		.loc 1 959 3 view .LVU132
 405              		.loc 1 959 15 is_stmt 0 view .LVU133
 406 0010 0371     		strb	r3, [r0, #4]
 407              		.loc 1 961 3 is_stmt 1 view .LVU134
 408              		.loc 1 961 12 is_stmt 0 view .LVU135
 409 0012 FFF7FEFF 		bl	sdc_lld_sync
 410              	.LVL33:
 411              		.loc 1 964 15 view .LVU136
 412 0016 2571     		strb	r5, [r4, #4]
 413              	.LVL34:
 414              		.loc 1 964 3 is_stmt 1 view .LVU137
 415              		.loc 1 965 3 view .LVU138
 416              		.loc 1 965 3 is_stmt 0 view .LVU139
 417              	.LBE149:
 418              	.LBE147:
 419              		.loc 1 966 1 view .LVU140
 420 0018 38BD     		pop	{r3, r4, r5, pc}
 421              		.loc 1 966 1 view .LVU141
 422              		.cfi_endproc
 423              	.LFE472:
 424              		.size	sdcSync, .-sdcSync
 425 001a 00BF     		.section	.text.sdcDisconnect,"ax",%progbits
 426              		.align	1
 427              		.p2align 4,,15
 428              		.global	sdcDisconnect
 429              		.syntax unified
 430              		.thumb
 431              		.thumb_func
 432              		.type	sdcDisconnect, %function
 433              	sdcDisconnect:
 434              	.LVL35:
 435              	.LFB468:
 436              		.loc 1 815 37 is_stmt 1 view -0
 437              		.cfi_startproc
 438              		@ args = 0, pretend = 0, frame = 0
 439              		@ frame_needed = 0, uses_anonymous_args = 0
 440              		.loc 1 817 3 view .LVU143
 441              		.loc 1 817 3 view .LVU144
 442              		.loc 1 817 3 view .LVU145
 443              		.loc 1 819 3 view .LVU146
 444              	.LBB182:
 445              	.LBI182:
 446              		.loc 2 573 20 view .LVU147
 447              		.loc 2 575 3 view .LVU148
 448              	.LBB183:
 449              	.LBI183:
 450              		.file 3 "./ChibiOS/os/rt/include/chsys.h"
 451              		.loc 3 372 20 view .LVU149
 452              		.loc 3 374 3 view .LVU150
 453              	.LBB184:
 454              	.LBI184:
 455              		.file 4 "./ChibiOS/os/common/ports/ARMv7-M/chcore.h"
 456              		.loc 4 840 27 view .LVU151
ARM GAS  C:\Users\DEVELO~1\AppData\Local\Temp\ccDP4wuj.s 			page 9


 457              		.loc 4 848 3 view .LVU152
 458              	.LBB185:
 459              	.LBI185:
 460              		.file 5 "./ChibiOS/os/common/ext/ARM/CMSIS/Core/Include/cmsis_gcc.h"
 461              		.loc 5 491 27 view .LVU153
 462              	.LBB186:
 463              		.loc 5 493 3 view .LVU154
 464              	.LBE186:
 465              	.LBE185:
 466              	.LBE184:
 467              	.LBE183:
 468              	.LBE182:
 469              		.loc 1 815 37 is_stmt 0 view .LVU155
 470 0000 38B5     		push	{r3, r4, r5, lr}
 471              		.cfi_def_cfa_offset 16
 472              		.cfi_offset 3, -16
 473              		.cfi_offset 4, -12
 474              		.cfi_offset 5, -8
 475              		.cfi_offset 14, -4
 476              	.LBB191:
 477              	.LBB190:
 478              	.LBB189:
 479              	.LBB188:
 480              	.LBB187:
 481              		.loc 5 493 3 view .LVU156
 482 0002 3023     		movs	r3, #48
 483              		.syntax unified
 484              	@ 493 "./ChibiOS/os/common/ext/ARM/CMSIS/Core/Include/cmsis_gcc.h" 1
 485 0004 83F31188 		MSR basepri, r3
 486              	@ 0 "" 2
 487              	.LVL36:
 488              		.loc 5 493 3 view .LVU157
 489              		.thumb
 490              		.syntax unified
 491              	.LBE187:
 492              	.LBE188:
 493              	.LBE189:
 494              		.loc 3 375 35 is_stmt 1 view .LVU158
 495              		.loc 3 376 21 view .LVU159
 496              	.LBE190:
 497              	.LBE191:
 498              		.loc 1 820 3 view .LVU160
 499              		.loc 1 820 3 view .LVU161
 500              		.loc 1 820 3 view .LVU162
 501              		.loc 1 822 3 view .LVU163
 502              		.loc 1 822 6 is_stmt 0 view .LVU164
 503 0008 0379     		ldrb	r3, [r0, #4]	@ zero_extendqisi2
 504 000a 022B     		cmp	r3, #2
 505 000c 10D0     		beq	.L37
 506              	.LVL37:
 507              	.LBB192:
 508              	.LBI192:
 509              		.loc 1 815 6 is_stmt 1 view .LVU165
 510              	.LBB193:
 511              		.loc 1 826 3 view .LVU166
 512              		.loc 1 826 15 is_stmt 0 view .LVU167
 513 000e 0422     		movs	r2, #4
ARM GAS  C:\Users\DEVELO~1\AppData\Local\Temp\ccDP4wuj.s 			page 10


 514 0010 0446     		mov	r4, r0
 515              	.LBB194:
 516              	.LBB195:
 517              	.LBB196:
 518              	.LBB197:
 519              	.LBB198:
 520              	.LBB199:
 521              		.loc 5 493 3 view .LVU168
 522 0012 0023     		movs	r3, #0
 523              	.LBE199:
 524              	.LBE198:
 525              	.LBE197:
 526              	.LBE196:
 527              	.LBE195:
 528              	.LBE194:
 529              		.loc 1 826 15 view .LVU169
 530 0014 0271     		strb	r2, [r0, #4]
 531              		.loc 1 827 3 is_stmt 1 view .LVU170
 532              	.LBB205:
 533              	.LBI194:
 534              		.loc 2 584 20 view .LVU171
 535              		.loc 2 586 3 view .LVU172
 536              	.LBB204:
 537              	.LBI195:
 538              		.loc 3 386 20 view .LVU173
 539              	.LBB203:
 540              		.loc 3 388 23 view .LVU174
 541              		.loc 3 389 34 view .LVU175
 542              		.loc 3 395 3 view .LVU176
 543              		.loc 3 395 3 view .LVU177
 544              		.loc 3 395 3 view .LVU178
 545              		.loc 3 399 3 view .LVU179
 546              	.LBB202:
 547              	.LBI197:
 548              		.loc 4 864 27 view .LVU180
 549              		.loc 4 867 3 view .LVU181
 550              	.LVL38:
 551              	.LBB201:
 552              	.LBI198:
 553              		.loc 5 491 27 view .LVU182
 554              	.LBB200:
 555              		.loc 5 493 3 view .LVU183
 556              		.syntax unified
 557              	@ 493 "./ChibiOS/os/common/ext/ARM/CMSIS/Core/Include/cmsis_gcc.h" 1
 558 0016 83F31188 		MSR basepri, r3
 559              	@ 0 "" 2
 560              	.LVL39:
 561              		.loc 5 493 3 is_stmt 0 view .LVU184
 562              		.thumb
 563              		.syntax unified
 564              	.LBE200:
 565              	.LBE201:
 566              	.LBE202:
 567              	.LBE203:
 568              	.LBE204:
 569              	.LBE205:
 570              		.loc 1 830 3 is_stmt 1 view .LVU185
ARM GAS  C:\Users\DEVELO~1\AppData\Local\Temp\ccDP4wuj.s 			page 11


 571              	.LBB206:
 572              	.LBI206:
 573              		.loc 1 548 6 view .LVU186
 574              	.LBB207:
 575              		.loc 1 550 3 view .LVU187
 576              		.loc 1 550 10 is_stmt 0 view .LVU188
 577 001a 0121     		movs	r1, #1
 578 001c FFF7FEFF 		bl	_sdc_wait_for_transfer_state_internal
 579              	.LVL40:
 580              		.loc 1 550 10 view .LVU189
 581              	.LBE207:
 582              	.LBE206:
 583              		.loc 1 830 6 view .LVU190
 584 0020 0546     		mov	r5, r0
 585              		.loc 1 831 5 view .LVU191
 586 0022 2046     		mov	r0, r4
 587              		.loc 1 837 3 is_stmt 1 view .LVU192
 588 0024 FFF7FEFF 		bl	sdc_lld_stop_clk
 589              	.LVL41:
 590              		.loc 1 838 3 view .LVU193
 591              		.loc 1 838 15 is_stmt 0 view .LVU194
 592 0028 0223     		movs	r3, #2
 593              	.LBE193:
 594              	.LBE192:
 595              		.loc 1 840 1 view .LVU195
 596 002a 2846     		mov	r0, r5
 597              	.LBB209:
 598              	.LBB208:
 599              		.loc 1 838 15 view .LVU196
 600 002c 2371     		strb	r3, [r4, #4]
 601              		.loc 1 839 3 is_stmt 1 view .LVU197
 602              	.LVL42:
 603              		.loc 1 839 3 is_stmt 0 view .LVU198
 604              	.LBE208:
 605              	.LBE209:
 606              		.loc 1 840 1 view .LVU199
 607 002e 38BD     		pop	{r3, r4, r5, pc}
 608              	.LVL43:
 609              	.L37:
 610              		.loc 1 823 5 is_stmt 1 view .LVU200
 611              	.LBB210:
 612              	.LBI210:
 613              		.loc 2 584 20 view .LVU201
 614              		.loc 2 586 3 view .LVU202
 615              	.LBB211:
 616              	.LBI211:
 617              		.loc 3 386 20 view .LVU203
 618              	.LBB212:
 619              		.loc 3 388 23 view .LVU204
 620              		.loc 3 389 34 view .LVU205
 621              		.loc 3 395 3 view .LVU206
 622              		.loc 3 395 3 view .LVU207
 623              		.loc 3 395 3 view .LVU208
 624              		.loc 3 399 3 view .LVU209
 625              	.LBB213:
 626              	.LBI213:
 627              		.loc 4 864 27 view .LVU210
ARM GAS  C:\Users\DEVELO~1\AppData\Local\Temp\ccDP4wuj.s 			page 12


 628              		.loc 4 867 3 view .LVU211
 629              	.LBB214:
 630              	.LBI214:
 631              		.loc 5 491 27 view .LVU212
 632              	.LBB215:
 633              		.loc 5 493 3 view .LVU213
 634 0030 0025     		movs	r5, #0
 635              		.syntax unified
 636              	@ 493 "./ChibiOS/os/common/ext/ARM/CMSIS/Core/Include/cmsis_gcc.h" 1
 637 0032 85F31188 		MSR basepri, r5
 638              	@ 0 "" 2
 639              	.LVL44:
 640              		.loc 5 493 3 is_stmt 0 view .LVU214
 641              		.thumb
 642              		.syntax unified
 643              	.LBE215:
 644              	.LBE214:
 645              	.LBE213:
 646              	.LBE212:
 647              	.LBE211:
 648              	.LBE210:
 649              		.loc 1 824 5 is_stmt 1 view .LVU215
 650              		.loc 1 840 1 is_stmt 0 view .LVU216
 651 0036 2846     		mov	r0, r5
 652              	.LVL45:
 653              		.loc 1 840 1 view .LVU217
 654 0038 38BD     		pop	{r3, r4, r5, pc}
 655              		.cfi_endproc
 656              	.LFE468:
 657              		.size	sdcDisconnect, .-sdcDisconnect
 658 003a 00BF     		.section	.text.sdcConnect,"ax",%progbits
 659              		.align	1
 660              		.p2align 4,,15
 661              		.global	sdcConnect
 662              		.syntax unified
 663              		.thumb
 664              		.thumb_func
 665              		.type	sdcConnect, %function
 666              	sdcConnect:
 667              	.LVL46:
 668              	.LFB467:
 669              		.loc 1 675 34 is_stmt 1 view -0
 670              		.cfi_startproc
 671              		@ args = 0, pretend = 0, frame = 8
 672              		@ frame_needed = 0, uses_anonymous_args = 0
 673              		.loc 1 676 3 view .LVU219
 674              		.loc 1 677 3 view .LVU220
 675              		.loc 1 679 3 view .LVU221
 676              		.loc 1 679 3 view .LVU222
 677              		.loc 1 679 3 view .LVU223
 678              		.loc 1 680 3 view .LVU224
 679              		.loc 1 680 3 view .LVU225
 680              		.loc 1 680 3 view .LVU226
 681              		.loc 1 684 3 view .LVU227
 682              		.loc 1 684 15 is_stmt 0 view .LVU228
 683 0000 0323     		movs	r3, #3
 684              		.loc 1 675 34 view .LVU229
ARM GAS  C:\Users\DEVELO~1\AppData\Local\Temp\ccDP4wuj.s 			page 13


 685 0002 2DE9F041 		push	{r4, r5, r6, r7, r8, lr}
 686              		.cfi_def_cfa_offset 24
 687              		.cfi_offset 4, -24
 688              		.cfi_offset 5, -20
 689              		.cfi_offset 6, -16
 690              		.cfi_offset 7, -12
 691              		.cfi_offset 8, -8
 692              		.cfi_offset 14, -4
 693              		.loc 1 684 15 view .LVU230
 694 0006 0371     		strb	r3, [r0, #4]
 695              		.loc 1 687 3 is_stmt 1 view .LVU231
 696              		.loc 1 675 34 is_stmt 0 view .LVU232
 697 0008 84B0     		sub	sp, sp, #16
 698              		.cfi_def_cfa_offset 40
 699              		.loc 1 675 34 view .LVU233
 700 000a 0446     		mov	r4, r0
 701              		.loc 1 687 3 view .LVU234
 702 000c FFF7FEFF 		bl	sdc_lld_start_clk
 703              	.LVL47:
 704              		.loc 1 690 3 is_stmt 1 view .LVU235
 705 0010 0022     		movs	r2, #0
 706 0012 2046     		mov	r0, r4
 707 0014 1146     		mov	r1, r2
 708 0016 FFF7FEFF 		bl	sdc_lld_send_cmd_none
 709              	.LVL48:
 710              		.loc 1 693 3 view .LVU236
 711              	.LBB247:
 712              	.LBI247:
 713              		.loc 1 100 13 view .LVU237
 714              	.LBB248:
 715              		.loc 1 101 3 view .LVU238
 716              		.loc 1 104 3 view .LVU239
 717              		.loc 1 104 8 is_stmt 0 view .LVU240
 718 001a 03AB     		add	r3, sp, #12
 719 001c 4FF4D572 		mov	r2, #426
 720 0020 0821     		movs	r1, #8
 721 0022 2046     		mov	r0, r4
 722 0024 FFF7FEFF 		bl	sdc_lld_send_cmd_short_crc
 723              	.LVL49:
 724              		.loc 1 104 6 view .LVU241
 725 0028 E8B9     		cbnz	r0, .L39
 726              		.loc 1 106 5 is_stmt 1 view .LVU242
 727              		.loc 1 108 19 is_stmt 0 view .LVU243
 728 002a 039B     		ldr	r3, [sp, #12]
 729              		.loc 1 106 20 view .LVU244
 730 002c 0122     		movs	r2, #1
 731              		.loc 1 108 26 view .LVU245
 732 002e C3F30323 		ubfx	r3, r3, #8, #4
 733              		.loc 1 106 20 view .LVU246
 734 0032 2263     		str	r2, [r4, #48]
 735              		.loc 1 108 5 is_stmt 1 view .LVU247
 736              		.loc 1 108 8 is_stmt 0 view .LVU248
 737 0034 9342     		cmp	r3, r2
 738 0036 09D0     		beq	.L112
 739              	.LVL50:
 740              	.L41:
 741              		.loc 1 108 8 view .LVU249
ARM GAS  C:\Users\DEVELO~1\AppData\Local\Temp\ccDP4wuj.s 			page 14


 742              	.LBE248:
 743              	.LBE247:
 744              		.loc 1 799 3 is_stmt 1 view .LVU250
 745 0038 2046     		mov	r0, r4
 746              		.loc 1 801 10 is_stmt 0 view .LVU251
 747 003a 0125     		movs	r5, #1
 748              		.loc 1 799 3 view .LVU252
 749 003c FFF7FEFF 		bl	sdc_lld_stop_clk
 750              	.LVL51:
 751              		.loc 1 800 3 is_stmt 1 view .LVU253
 752              		.loc 1 801 3 view .LVU254
 753              		.loc 1 801 10 is_stmt 0 view .LVU255
 754 0040 0223     		movs	r3, #2
 755              	.L76:
 756              		.loc 1 802 1 view .LVU256
 757 0042 2846     		mov	r0, r5
 758              		.loc 1 794 15 view .LVU257
 759 0044 2371     		strb	r3, [r4, #4]
 760              		.loc 1 802 1 view .LVU258
 761 0046 04B0     		add	sp, sp, #16
 762              		.cfi_remember_state
 763              		.cfi_def_cfa_offset 24
 764              		@ sp needed
 765 0048 BDE8F081 		pop	{r4, r5, r6, r7, r8, pc}
 766              	.LVL52:
 767              	.L112:
 768              		.cfi_restore_state
 769              	.LBB251:
 770              	.LBB249:
 771              		.loc 1 111 5 is_stmt 1 view .LVU259
 772              		.loc 1 111 9 is_stmt 0 view .LVU260
 773 004c 0246     		mov	r2, r0
 774 004e 03AB     		add	r3, sp, #12
 775 0050 3721     		movs	r1, #55
 776 0052 2046     		mov	r0, r4
 777 0054 FFF7FEFF 		bl	sdc_lld_send_cmd_short_crc
 778              	.LVL53:
 779              		.loc 1 111 8 view .LVU261
 780 0058 0028     		cmp	r0, #0
 781 005a EDD1     		bne	.L41
 782              		.loc 1 112 9 view .LVU262
 783 005c 039A     		ldr	r2, [sp, #12]
 784 005e A64B     		ldr	r3, .L119
 785 0060 1340     		ands	r3, r3, r2
 786              		.loc 1 111 70 view .LVU263
 787 0062 8BB1     		cbz	r3, .L43
 788 0064 E8E7     		b	.L41
 789              	.L39:
 790              		.loc 1 118 5 is_stmt 1 view .LVU264
 791              		.loc 1 118 9 is_stmt 0 view .LVU265
 792 0066 03AB     		add	r3, sp, #12
 793 0068 0022     		movs	r2, #0
 794 006a 3721     		movs	r1, #55
 795 006c 2046     		mov	r0, r4
 796 006e FFF7FEFF 		bl	sdc_lld_send_cmd_short_crc
 797              	.LVL54:
 798              		.loc 1 118 8 view .LVU266
ARM GAS  C:\Users\DEVELO~1\AppData\Local\Temp\ccDP4wuj.s 			page 15


 799 0072 0028     		cmp	r0, #0
 800 0074 35D1     		bne	.L44
 801              		.loc 1 119 9 view .LVU267
 802 0076 039B     		ldr	r3, [sp, #12]
 803 0078 9F4A     		ldr	r2, .L119
 804 007a 1A40     		ands	r2, r2, r3
 805              		.loc 1 118 70 view .LVU268
 806 007c 8ABB     		cbnz	r2, .L44
 807              		.loc 1 123 7 is_stmt 1 view .LVU269
 808              		.loc 1 126 7 is_stmt 0 view .LVU270
 809 007e 1146     		mov	r1, r2
 810 0080 2046     		mov	r0, r4
 811              		.loc 1 123 22 view .LVU271
 812 0082 2263     		str	r2, [r4, #48]
 813              		.loc 1 126 7 is_stmt 1 view .LVU272
 814 0084 FFF7FEFF 		bl	sdc_lld_send_cmd_none
 815              	.LVL55:
 816              	.L43:
 817              		.loc 1 126 7 is_stmt 0 view .LVU273
 818              	.LBE249:
 819              	.LBE251:
 820              		.loc 1 698 3 is_stmt 1 view .LVU274
 821              		.loc 1 698 23 is_stmt 0 view .LVU275
 822 0088 236B     		ldr	r3, [r4, #48]
 823 008a 03F00F03 		and	r3, r3, #15
 824              		.loc 1 698 6 view .LVU276
 825 008e 022B     		cmp	r3, #2
 826 0090 29D0     		beq	.L46
 827              		.loc 1 704 5 is_stmt 1 view .LVU277
 828              	.LVL56:
 829              	.LBB252:
 830              	.LBI252:
 831              		.loc 1 181 13 view .LVU278
 832              	.LBB253:
 833              		.loc 1 182 3 view .LVU279
 834              		.loc 1 183 3 view .LVU280
 835              		.loc 1 184 3 view .LVU281
 836              		.loc 1 186 3 view .LVU282
 837              		.loc 1 190 9 is_stmt 0 view .LVU283
 838 0092 9A4F     		ldr	r7, .L119+4
 839 0094 6425     		movs	r5, #100
 840 0096 9A4A     		ldr	r2, .L119+8
 841              		.loc 1 196 9 view .LVU284
 842 0098 DFF85C82 		ldr	r8, .L119
 843              		.loc 1 190 9 view .LVU285
 844 009c 012B     		cmp	r3, #1
 845 009e 18BF     		it	ne
 846 00a0 1746     		movne	r7, r2
 847              	.LVL57:
 848              		.loc 1 193 3 is_stmt 1 view .LVU286
 849              		.loc 1 193 3 is_stmt 0 view .LVU287
 850 00a2 10E0     		b	.L57
 851              	.LVL58:
 852              	.L113:
 853              		.loc 1 196 9 view .LVU288
 854 00a4 039E     		ldr	r6, [sp, #12]
 855              		.loc 1 195 70 view .LVU289
ARM GAS  C:\Users\DEVELO~1\AppData\Local\Temp\ccDP4wuj.s 			page 16


 856 00a6 16EA080F 		tst	r6, r8
 857 00aa C5D1     		bne	.L41
 858              		.loc 1 199 9 view .LVU290
 859 00ac FFF7FEFF 		bl	sdc_lld_send_cmd_short
 860              	.LVL59:
 861              		.loc 1 202 5 is_stmt 1 view .LVU291
 862              		.loc 1 208 5 view .LVU292
 863              		.loc 1 211 5 view .LVU293
 864              	.LBB254:
 865              	.LBI254:
 866              		.loc 2 782 20 view .LVU294
 867              	.LBB255:
 868              		.loc 2 784 3 view .LVU295
 869              	.LBE255:
 870              	.LBE254:
 871              		.loc 1 199 9 is_stmt 0 view .LVU296
 872 00b0 0346     		mov	r3, r0
 873              	.LBB258:
 874              	.LBB256:
 875              		.loc 2 784 3 view .LVU297
 876 00b2 6420     		movs	r0, #100
 877              	.LBE256:
 878              	.LBE258:
 879              		.loc 1 199 8 view .LVU298
 880 00b4 002B     		cmp	r3, #0
 881 00b6 BFD1     		bne	.L41
 882              		.loc 1 202 14 view .LVU299
 883 00b8 039B     		ldr	r3, [sp, #12]
 884              		.loc 1 202 8 view .LVU300
 885 00ba 002B     		cmp	r3, #0
 886 00bc 28DB     		blt	.L111
 887              		.loc 1 208 8 view .LVU301
 888 00be 013D     		subs	r5, r5, #1
 889              	.LVL60:
 890              		.loc 1 208 8 view .LVU302
 891 00c0 BAD0     		beq	.L41
 892              	.LBB259:
 893              	.LBB257:
 894              		.loc 2 784 3 view .LVU303
 895 00c2 FFF7FEFF 		bl	chThdSleep
 896              	.LVL61:
 897              	.L57:
 898              		.loc 2 784 3 view .LVU304
 899              	.LBE257:
 900              	.LBE259:
 901              		.loc 1 194 3 is_stmt 1 view .LVU305
 902              		.loc 1 195 5 view .LVU306
 903              		.loc 1 195 9 is_stmt 0 view .LVU307
 904 00c6 03AB     		add	r3, sp, #12
 905 00c8 0022     		movs	r2, #0
 906 00ca 3721     		movs	r1, #55
 907 00cc 2046     		mov	r0, r4
 908 00ce FFF7FEFF 		bl	sdc_lld_send_cmd_short_crc
 909              	.LVL62:
 910              		.loc 1 199 5 is_stmt 1 view .LVU308
 911              		.loc 1 195 9 is_stmt 0 view .LVU309
 912 00d2 0646     		mov	r6, r0
ARM GAS  C:\Users\DEVELO~1\AppData\Local\Temp\ccDP4wuj.s 			page 17


 913              		.loc 1 199 9 view .LVU310
 914 00d4 03AB     		add	r3, sp, #12
 915 00d6 3A46     		mov	r2, r7
 916 00d8 2921     		movs	r1, #41
 917 00da 2046     		mov	r0, r4
 918              		.loc 1 195 8 view .LVU311
 919 00dc 002E     		cmp	r6, #0
 920 00de E1D0     		beq	.L113
 921              	.LVL63:
 922              		.loc 1 195 8 view .LVU312
 923 00e0 AAE7     		b	.L41
 924              	.LVL64:
 925              	.L44:
 926              		.loc 1 195 8 view .LVU313
 927              	.LBE253:
 928              	.LBE252:
 929              	.LBB261:
 930              	.LBB250:
 931              		.loc 1 120 7 is_stmt 1 view .LVU314
 932              		.loc 1 120 22 is_stmt 0 view .LVU315
 933 00e2 0223     		movs	r3, #2
 934 00e4 2363     		str	r3, [r4, #48]
 935              	.LVL65:
 936              		.loc 1 120 22 view .LVU316
 937              	.LBE250:
 938              	.LBE261:
 939              		.loc 1 698 3 is_stmt 1 view .LVU317
 940              	.L46:
 941              		.loc 1 675 34 is_stmt 0 view .LVU318
 942 00e6 6425     		movs	r5, #100
 943              	.LBB262:
 944              	.LBB263:
 945              		.loc 1 152 9 view .LVU319
 946 00e8 864E     		ldr	r6, .L119+12
 947 00ea 06E0     		b	.L52
 948              	.LVL66:
 949              	.L114:
 950              		.loc 1 155 14 view .LVU320
 951 00ec 039B     		ldr	r3, [sp, #12]
 952              		.loc 1 155 8 view .LVU321
 953 00ee 002B     		cmp	r3, #0
 954 00f0 0EDB     		blt	.L111
 955              		.loc 1 161 8 view .LVU322
 956 00f2 013D     		subs	r5, r5, #1
 957              	.LVL67:
 958              		.loc 1 161 8 view .LVU323
 959 00f4 A0D0     		beq	.L41
 960              	.LBB264:
 961              	.LBB265:
 962              		.loc 2 784 3 view .LVU324
 963 00f6 FFF7FEFF 		bl	chThdSleep
 964              	.LVL68:
 965              	.L52:
 966              		.loc 2 784 3 view .LVU325
 967              	.LBE265:
 968              	.LBE264:
 969              		.loc 1 151 3 is_stmt 1 view .LVU326
ARM GAS  C:\Users\DEVELO~1\AppData\Local\Temp\ccDP4wuj.s 			page 18


 970              		.loc 1 152 5 view .LVU327
 971              		.loc 1 152 9 is_stmt 0 view .LVU328
 972 00fa 03AB     		add	r3, sp, #12
 973 00fc 3246     		mov	r2, r6
 974 00fe 0121     		movs	r1, #1
 975 0100 2046     		mov	r0, r4
 976 0102 FFF7FEFF 		bl	sdc_lld_send_cmd_short
 977              	.LVL69:
 978              		.loc 1 155 5 is_stmt 1 view .LVU329
 979              		.loc 1 161 5 view .LVU330
 980              		.loc 1 164 5 view .LVU331
 981              	.LBB268:
 982              	.LBI264:
 983              		.loc 2 782 20 view .LVU332
 984              	.LBB266:
 985              		.loc 2 784 3 view .LVU333
 986              	.LBE266:
 987              	.LBE268:
 988              		.loc 1 152 9 is_stmt 0 view .LVU334
 989 0106 0346     		mov	r3, r0
 990              	.LBB269:
 991              	.LBB267:
 992              		.loc 2 784 3 view .LVU335
 993 0108 6420     		movs	r0, #100
 994              	.LBE267:
 995              	.LBE269:
 996              		.loc 1 152 8 view .LVU336
 997 010a 002B     		cmp	r3, #0
 998 010c EED0     		beq	.L114
 999 010e 93E7     		b	.L41
 1000              	.LVL70:
 1001              	.L111:
 1002              		.loc 1 152 8 view .LVU337
 1003              	.LBE263:
 1004              	.LBE262:
 1005              	.LBB270:
 1006              	.LBB260:
 1007              		.loc 1 203 7 is_stmt 1 view .LVU338
 1008              		.loc 1 203 10 is_stmt 0 view .LVU339
 1009 0110 5A00     		lsls	r2, r3, #1
 1010 0112 03D5     		bpl	.L51
 1011              		.loc 1 204 9 is_stmt 1 view .LVU340
 1012              		.loc 1 204 24 is_stmt 0 view .LVU341
 1013 0114 236B     		ldr	r3, [r4, #48]
 1014 0116 43F01003 		orr	r3, r3, #16
 1015 011a 2363     		str	r3, [r4, #48]
 1016              	.L51:
 1017              		.loc 1 204 24 view .LVU342
 1018              	.LBE260:
 1019              	.LBE270:
 1020              		.loc 1 710 3 is_stmt 1 view .LVU343
 1021              		.loc 1 710 7 is_stmt 0 view .LVU344
 1022 011c 04F10803 		add	r3, r4, #8
 1023 0120 0022     		movs	r2, #0
 1024 0122 0221     		movs	r1, #2
 1025 0124 2046     		mov	r0, r4
 1026 0126 FFF7FEFF 		bl	sdc_lld_send_cmd_long_crc
ARM GAS  C:\Users\DEVELO~1\AppData\Local\Temp\ccDP4wuj.s 			page 19


 1027              	.LVL71:
 1028              		.loc 1 710 6 view .LVU345
 1029 012a 0028     		cmp	r0, #0
 1030 012c 84D1     		bne	.L41
 1031              		.loc 1 715 3 is_stmt 1 view .LVU346
 1032              		.loc 1 715 7 is_stmt 0 view .LVU347
 1033 012e 0246     		mov	r2, r0
 1034 0130 04F13803 		add	r3, r4, #56
 1035 0134 0321     		movs	r1, #3
 1036 0136 2046     		mov	r0, r4
 1037 0138 FFF7FEFF 		bl	sdc_lld_send_cmd_short_crc
 1038              	.LVL72:
 1039              		.loc 1 715 6 view .LVU348
 1040 013c 0028     		cmp	r0, #0
 1041 013e 7FF47BAF 		bne	.L41
 1042              		.loc 1 721 3 is_stmt 1 view .LVU349
 1043              		.loc 1 722 48 is_stmt 0 view .LVU350
 1044 0142 04F11806 		add	r6, r4, #24
 1045              		.loc 1 721 7 view .LVU351
 1046 0146 A26B     		ldr	r2, [r4, #56]
 1047 0148 0921     		movs	r1, #9
 1048 014a 2046     		mov	r0, r4
 1049 014c 3346     		mov	r3, r6
 1050 014e FFF7FEFF 		bl	sdc_lld_send_cmd_long_crc
 1051              	.LVL73:
 1052              		.loc 1 721 6 view .LVU352
 1053 0152 0028     		cmp	r0, #0
 1054 0154 7FF470AF 		bne	.L41
 1055              		.loc 1 727 3 is_stmt 1 view .LVU353
 1056              		.loc 1 727 7 is_stmt 0 view .LVU354
 1057 0158 02AB     		add	r3, sp, #8
 1058 015a A26B     		ldr	r2, [r4, #56]
 1059 015c 0721     		movs	r1, #7
 1060 015e 2046     		mov	r0, r4
 1061 0160 FFF7FEFF 		bl	sdc_lld_send_cmd_short_crc
 1062              	.LVL74:
 1063              		.loc 1 727 6 view .LVU355
 1064 0164 0546     		mov	r5, r0
 1065 0166 0028     		cmp	r0, #0
 1066 0168 7FF466AF 		bne	.L41
 1067              		.loc 1 733 3 is_stmt 1 view .LVU356
 1068              	.LVL75:
 1069              	.LBB271:
 1070              	.LBI271:
 1071              		.loc 1 401 13 view .LVU357
 1072              	.LBB272:
 1073              		.loc 1 403 3 view .LVU358
 1074              		.loc 1 403 48 is_stmt 0 view .LVU359
 1075 016c 236B     		ldr	r3, [r4, #48]
 1076 016e 03F00F03 		and	r3, r3, #15
 1077              		.loc 1 403 6 view .LVU360
 1078 0172 022B     		cmp	r3, #2
 1079 0174 65D0     		beq	.L115
 1080              		.loc 1 406 3 is_stmt 1 view .LVU361
 1081              	.LVL76:
 1082              	.LBB273:
 1083              	.LBI273:
ARM GAS  C:\Users\DEVELO~1\AppData\Local\Temp\ccDP4wuj.s 			page 20


 1084              		.loc 1 319 13 view .LVU362
 1085              	.LBB274:
 1086              		.loc 1 320 3 view .LVU363
 1087              		.loc 1 321 3 view .LVU364
 1088              		.loc 1 322 3 view .LVU365
 1089              		.loc 1 329 13 is_stmt 0 view .LVU366
 1090 0176 7E22     		movs	r2, #126
 1091 0178 7F21     		movs	r1, #127
 1092 017a 3046     		mov	r0, r6
 1093              		.loc 1 322 12 view .LVU367
 1094 017c E76B     		ldr	r7, [r4, #60]
 1095              	.LVL77:
 1096              		.loc 1 325 3 is_stmt 1 view .LVU368
 1097              		.loc 1 329 3 view .LVU369
 1098              		.loc 1 329 13 is_stmt 0 view .LVU370
 1099 017e FFF7FEFF 		bl	_mmcsd_get_slice
 1100              	.LVL78:
 1101              		.loc 1 329 6 view .LVU371
 1102 0182 70B1     		cbz	r0, .L63
 1103              		.loc 1 335 3 is_stmt 1 view .LVU372
 1104              		.loc 1 335 7 is_stmt 0 view .LVU373
 1105 0184 0623     		movs	r3, #6
 1106 0186 4022     		movs	r2, #64
 1107 0188 3946     		mov	r1, r7
 1108 018a 2046     		mov	r0, r4
 1109 018c 0095     		str	r5, [sp]
 1110 018e FFF7FEFF 		bl	sdc_lld_read_special
 1111              	.LVL79:
 1112              		.loc 1 335 6 view .LVU374
 1113 0192 0028     		cmp	r0, #0
 1114 0194 7FF450AF 		bne	.L41
 1115              		.loc 1 340 3 is_stmt 1 view .LVU375
 1116              		.loc 1 340 6 is_stmt 0 view .LVU376
 1117 0198 BB89     		ldrh	r3, [r7, #12]	@ unaligned
 1118 019a 5BBA     		rev16	r3, r3
 1119 019c 9B07     		lsls	r3, r3, #30
 1120 019e 00F19480 		bmi	.L116
 1121              	.LVL80:
 1122              	.L63:
 1123              		.loc 1 330 10 view .LVU377
 1124 01a2 0021     		movs	r1, #0
 1125              	.L61:
 1126              	.LVL81:
 1127              		.loc 1 330 10 view .LVU378
 1128              	.LBE274:
 1129              	.LBE273:
 1130              	.LBE272:
 1131              	.LBE271:
 1132              		.loc 1 736 3 is_stmt 1 view .LVU379
 1133 01a4 2046     		mov	r0, r4
 1134 01a6 FFF7FEFF 		bl	sdc_lld_set_data_clk
 1135              	.LVL82:
 1136              		.loc 1 739 3 view .LVU380
 1137              	.LBB285:
 1138              	.LBI285:
 1139              		.loc 1 564 6 view .LVU381
 1140              	.LBB286:
ARM GAS  C:\Users\DEVELO~1\AppData\Local\Temp\ccDP4wuj.s 			page 21


 1141              		.loc 1 566 3 view .LVU382
 1142              		.loc 1 566 10 is_stmt 0 view .LVU383
 1143 01aa 0021     		movs	r1, #0
 1144 01ac 2046     		mov	r0, r4
 1145 01ae FFF7FEFF 		bl	_sdc_wait_for_transfer_state_internal
 1146              	.LVL83:
 1147              		.loc 1 566 10 view .LVU384
 1148              	.LBE286:
 1149              	.LBE285:
 1150              		.loc 1 739 6 view .LVU385
 1151 01b2 0546     		mov	r5, r0
 1152 01b4 0028     		cmp	r0, #0
 1153 01b6 7FF43FAF 		bne	.L41
 1154              		.loc 1 745 3 is_stmt 1 view .LVU386
 1155              		.loc 1 745 48 is_stmt 0 view .LVU387
 1156 01ba 236B     		ldr	r3, [r4, #48]
 1157 01bc 03F00F03 		and	r3, r3, #15
 1158              		.loc 1 745 6 view .LVU388
 1159 01c0 022B     		cmp	r3, #2
 1160 01c2 6BD0     		beq	.L117
 1161              	.L64:
 1162              		.loc 1 765 5 is_stmt 1 view .LVU389
 1163              		.loc 1 765 22 is_stmt 0 view .LVU390
 1164 01c4 3046     		mov	r0, r6
 1165 01c6 FFF7FEFF 		bl	_mmcsd_get_capacity
 1166              	.LVL84:
 1167              	.L66:
 1168              		.loc 1 760 22 view .LVU391
 1169 01ca A062     		str	r0, [r4, #40]
 1170              		.loc 1 769 3 is_stmt 1 view .LVU392
 1171              		.loc 1 769 7 is_stmt 0 view .LVU393
 1172 01cc 02AB     		add	r3, sp, #8
 1173 01ce 4FF40072 		mov	r2, #512
 1174 01d2 1021     		movs	r1, #16
 1175 01d4 2046     		mov	r0, r4
 1176 01d6 FFF7FEFF 		bl	sdc_lld_send_cmd_short_crc
 1177              	.LVL85:
 1178              		.loc 1 769 6 view .LVU394
 1179 01da 0546     		mov	r5, r0
 1180 01dc 0028     		cmp	r0, #0
 1181 01de 7FF42BAF 		bne	.L41
 1182              		.loc 1 771 7 view .LVU395
 1183 01e2 029B     		ldr	r3, [sp, #8]
 1184 01e4 444E     		ldr	r6, .L119
 1185              		.loc 1 770 58 view .LVU396
 1186 01e6 3342     		tst	r3, r6
 1187 01e8 7FF426AF 		bne	.L41
 1188              		.loc 1 776 3 is_stmt 1 view .LVU397
 1189              		.loc 1 776 15 is_stmt 0 view .LVU398
 1190 01ec 236B     		ldr	r3, [r4, #48]
 1191              		.loc 1 776 3 view .LVU399
 1192 01ee 13F00E0F 		tst	r3, #14
 1193              		.loc 1 776 26 view .LVU400
 1194 01f2 03F00F02 		and	r2, r3, #15
 1195              		.loc 1 776 3 view .LVU401
 1196 01f6 33D1     		bne	.L118
 1197              		.loc 1 779 5 is_stmt 1 view .LVU402
ARM GAS  C:\Users\DEVELO~1\AppData\Local\Temp\ccDP4wuj.s 			page 22


 1198              	.LVL86:
 1199              	.LBB287:
 1200              	.LBI287:
 1201              		.loc 1 420 13 view .LVU403
 1202              	.LBB288:
 1203              		.loc 1 421 3 view .LVU404
 1204              		.loc 1 423 3 view .LVU405
 1205              		.loc 1 423 36 is_stmt 0 view .LVU406
 1206 01f8 E36A     		ldr	r3, [r4, #44]
 1207 01fa 1978     		ldrb	r1, [r3]	@ zero_extendqisi2
 1208              		.loc 1 423 6 view .LVU407
 1209 01fc F9B1     		cbz	r1, .L71
 1210              		.loc 1 427 8 is_stmt 1 view .LVU408
 1211              		.loc 1 427 11 is_stmt 0 view .LVU409
 1212 01fe 0129     		cmp	r1, #1
 1213 0200 7FF41AAF 		bne	.L41
 1214              		.loc 1 428 5 is_stmt 1 view .LVU410
 1215 0204 2046     		mov	r0, r4
 1216 0206 FFF7FEFF 		bl	sdc_lld_set_bus_mode
 1217              	.LVL87:
 1218              		.loc 1 429 5 view .LVU411
 1219              		.loc 1 429 9 is_stmt 0 view .LVU412
 1220 020a 03AB     		add	r3, sp, #12
 1221 020c A26B     		ldr	r2, [r4, #56]
 1222 020e 3721     		movs	r1, #55
 1223 0210 2046     		mov	r0, r4
 1224 0212 FFF7FEFF 		bl	sdc_lld_send_cmd_short_crc
 1225              	.LVL88:
 1226              		.loc 1 429 8 view .LVU413
 1227 0216 0028     		cmp	r0, #0
 1228 0218 7FF40EAF 		bne	.L41
 1229              		.loc 1 430 9 view .LVU414
 1230 021c 039B     		ldr	r3, [sp, #12]
 1231              		.loc 1 429 78 view .LVU415
 1232 021e 3342     		tst	r3, r6
 1233 0220 7FF40AAF 		bne	.L41
 1234              		.loc 1 434 5 is_stmt 1 view .LVU416
 1235              		.loc 1 434 9 is_stmt 0 view .LVU417
 1236 0224 03AB     		add	r3, sp, #12
 1237 0226 0222     		movs	r2, #2
 1238 0228 0621     		movs	r1, #6
 1239 022a 2046     		mov	r0, r4
 1240 022c FFF7FEFF 		bl	sdc_lld_send_cmd_short_crc
 1241              	.LVL89:
 1242              		.loc 1 434 8 view .LVU418
 1243 0230 0028     		cmp	r0, #0
 1244 0232 7FF401AF 		bne	.L41
 1245              		.loc 1 435 9 view .LVU419
 1246 0236 039B     		ldr	r3, [sp, #12]
 1247              		.loc 1 434 76 view .LVU420
 1248 0238 3342     		tst	r3, r6
 1249 023a 7FF4FDAE 		bne	.L41
 1250              	.LVL90:
 1251              	.L71:
 1252              		.loc 1 434 76 view .LVU421
 1253              	.LBE288:
 1254              	.LBE287:
ARM GAS  C:\Users\DEVELO~1\AppData\Local\Temp\ccDP4wuj.s 			page 23


 1255              		.loc 1 794 3 is_stmt 1 view .LVU422
 1256              		.loc 1 795 3 view .LVU423
 1257              		.loc 1 795 10 is_stmt 0 view .LVU424
 1258 023e 0523     		movs	r3, #5
 1259 0240 FFE6     		b	.L76
 1260              	.LVL91:
 1261              	.L115:
 1262              	.LBB289:
 1263              	.LBB283:
 1264              		.loc 1 404 5 is_stmt 1 view .LVU425
 1265              	.LBB280:
 1266              	.LBI280:
 1267              		.loc 1 373 13 view .LVU426
 1268              	.LBB281:
 1269              		.loc 1 374 3 view .LVU427
 1270              		.loc 1 375 3 view .LVU428
 1271              		.loc 1 378 3 view .LVU429
 1272              		.loc 1 380 3 view .LVU430
 1273              		.loc 1 381 3 view .LVU431
 1274              		.loc 1 381 9 is_stmt 0 view .LVU432
 1275 0242 03AB     		add	r3, sp, #12
 1276 0244 304A     		ldr	r2, .L119+16
 1277 0246 0621     		movs	r1, #6
 1278 0248 2046     		mov	r0, r4
 1279 024a FFF7FEFF 		bl	sdc_lld_send_cmd_short_crc
 1280              	.LVL92:
 1281              		.loc 1 381 6 view .LVU433
 1282 024e 0028     		cmp	r0, #0
 1283 0250 A7D1     		bne	.L63
 1284              		.loc 1 382 36 view .LVU434
 1285 0252 039B     		ldr	r3, [sp, #12]
 1286 0254 2849     		ldr	r1, .L119
 1287 0256 1940     		ands	r1, r1, r3
 1288              		.loc 1 378 8 view .LVU435
 1289 0258 B1FA81F1 		clz	r1, r1
 1290 025c 4909     		lsrs	r1, r1, #5
 1291 025e A1E7     		b	.L61
 1292              	.LVL93:
 1293              	.L118:
 1294              		.loc 1 378 8 view .LVU436
 1295              	.LBE281:
 1296              	.LBE280:
 1297              	.LBE283:
 1298              	.LBE289:
 1299              		.loc 1 776 3 view .LVU437
 1300 0260 022A     		cmp	r2, #2
 1301 0262 7FF4E9AE 		bne	.L41
 1302              		.loc 1 784 5 is_stmt 1 view .LVU438
 1303              	.LVL94:
 1304              	.LBB290:
 1305              	.LBI290:
 1306              		.loc 1 458 13 view .LVU439
 1307              	.LBB291:
 1308              		.loc 1 459 3 view .LVU440
 1309              		.loc 1 460 3 view .LVU441
 1310              		.loc 1 462 3 view .LVU442
 1311              		.loc 1 462 23 is_stmt 0 view .LVU443
ARM GAS  C:\Users\DEVELO~1\AppData\Local\Temp\ccDP4wuj.s 			page 24


 1312 0266 E36A     		ldr	r3, [r4, #44]
 1313 0268 1978     		ldrb	r1, [r3]	@ zero_extendqisi2
 1314              		.loc 1 462 3 view .LVU444
 1315 026a 0129     		cmp	r1, #1
 1316 026c 41D0     		beq	.L79
 1317 026e 0229     		cmp	r1, #2
 1318 0270 3DD0     		beq	.L80
 1319 0272 0029     		cmp	r1, #0
 1320 0274 E3D0     		beq	.L71
 1321 0276 254E     		ldr	r6, .L119+20
 1322              	.L72:
 1323              	.LVL95:
 1324              		.loc 1 477 3 is_stmt 1 view .LVU445
 1325 0278 2046     		mov	r0, r4
 1326 027a FFF7FEFF 		bl	sdc_lld_set_bus_mode
 1327              	.LVL96:
 1328              		.loc 1 478 3 view .LVU446
 1329              		.loc 1 478 7 is_stmt 0 view .LVU447
 1330 027e 03AB     		add	r3, sp, #12
 1331 0280 3246     		mov	r2, r6
 1332 0282 0621     		movs	r1, #6
 1333 0284 2046     		mov	r0, r4
 1334 0286 FFF7FEFF 		bl	sdc_lld_send_cmd_short_crc
 1335              	.LVL97:
 1336              		.loc 1 478 6 view .LVU448
 1337 028a 0028     		cmp	r0, #0
 1338 028c 7FF4D4AE 		bne	.L41
 1339              		.loc 1 479 7 view .LVU449
 1340 0290 039A     		ldr	r2, [sp, #12]
 1341 0292 194B     		ldr	r3, .L119
 1342 0294 1340     		ands	r3, r3, r2
 1343              		.loc 1 478 72 view .LVU450
 1344 0296 002B     		cmp	r3, #0
 1345 0298 D1D0     		beq	.L71
 1346 029a CDE6     		b	.L41
 1347              	.LVL98:
 1348              	.L117:
 1349              		.loc 1 478 72 view .LVU451
 1350              	.LBE291:
 1351              	.LBE290:
 1352              		.loc 1 748 5 is_stmt 1 view .LVU452
 1353              		.loc 1 748 9 is_stmt 0 view .LVU453
 1354 029c 7E22     		movs	r2, #126
 1355 029e 7F21     		movs	r1, #127
 1356 02a0 3046     		mov	r0, r6
 1357 02a2 FFF7FEFF 		bl	_mmcsd_get_slice
 1358              	.LVL99:
 1359              		.loc 1 748 8 view .LVU454
 1360 02a6 0128     		cmp	r0, #1
 1361 02a8 8CD9     		bls	.L64
 1362              	.LBB293:
 1363              		.loc 1 749 7 is_stmt 1 view .LVU455
 1364              		.loc 1 749 16 is_stmt 0 view .LVU456
 1365 02aa E66B     		ldr	r6, [r4, #60]
 1366              	.LVL100:
 1367              		.loc 1 751 7 is_stmt 1 view .LVU457
 1368              		.loc 1 751 11 is_stmt 0 view .LVU458
ARM GAS  C:\Users\DEVELO~1\AppData\Local\Temp\ccDP4wuj.s 			page 25


 1369 02ac 0823     		movs	r3, #8
 1370 02ae 4FF40072 		mov	r2, #512
 1371 02b2 2046     		mov	r0, r4
 1372 02b4 3146     		mov	r1, r6
 1373 02b6 0095     		str	r5, [sp]
 1374 02b8 FFF7FEFF 		bl	sdc_lld_read_special
 1375              	.LVL101:
 1376              		.loc 1 751 10 view .LVU459
 1377 02bc 0028     		cmp	r0, #0
 1378 02be 7FF4BBAE 		bne	.L41
 1379              		.loc 1 756 7 is_stmt 1 view .LVU460
 1380              		.loc 1 756 24 is_stmt 0 view .LVU461
 1381 02c2 3046     		mov	r0, r6
 1382 02c4 FFF7FEFF 		bl	_mmcsd_get_capacity_ext
 1383              	.LVL102:
 1384              	.LBE293:
 1385 02c8 7FE7     		b	.L66
 1386              	.LVL103:
 1387              	.L116:
 1388              	.LBB294:
 1389              	.LBB284:
 1390              	.LBB282:
 1391              	.LBB279:
 1392              		.loc 1 342 5 is_stmt 1 view .LVU462
 1393              		.loc 1 345 5 view .LVU463
 1394              		.loc 1 345 9 is_stmt 0 view .LVU464
 1395 02ca 114B     		ldr	r3, .L119+24
 1396 02cc 4022     		movs	r2, #64
 1397 02ce 3946     		mov	r1, r7
 1398 02d0 2046     		mov	r0, r4
 1399 02d2 0093     		str	r3, [sp]
 1400 02d4 0623     		movs	r3, #6
 1401 02d6 FFF7FEFF 		bl	sdc_lld_read_special
 1402              	.LVL104:
 1403              		.loc 1 345 8 view .LVU465
 1404 02da 0028     		cmp	r0, #0
 1405 02dc 7FF4ACAE 		bne	.L41
 1406              		.loc 1 350 5 is_stmt 1 view .LVU466
 1407              	.LVL105:
 1408              	.LBB275:
 1409              	.LBI275:
 1410              		.loc 1 291 13 view .LVU467
 1411              	.LBB276:
 1412              		.loc 1 294 3 view .LVU468
 1413              		.loc 1 295 3 view .LVU469
 1414              		.loc 1 297 3 view .LVU470
 1415              		.loc 1 300 3 view .LVU471
 1416              		.loc 1 301 3 view .LVU472
 1417              		.loc 1 299 9 is_stmt 0 view .LVU473
 1418 02e0 397C     		ldrb	r1, [r7, #16]	@ zero_extendqisi2
 1419              		.loc 1 300 10 view .LVU474
 1420 02e2 01F00F01 		and	r1, r1, #15
 1421              	.LBE276:
 1422              	.LBE275:
 1423              		.loc 1 325 8 view .LVU475
 1424 02e6 0F39     		subs	r1, r1, #15
 1425 02e8 18BF     		it	ne
ARM GAS  C:\Users\DEVELO~1\AppData\Local\Temp\ccDP4wuj.s 			page 26


 1426 02ea 0121     		movne	r1, #1
 1427              	.LBB278:
 1428              	.LBB277:
 1429 02ec 5AE7     		b	.L61
 1430              	.LVL106:
 1431              	.L80:
 1432              		.loc 1 325 8 view .LVU476
 1433              	.LBE277:
 1434              	.LBE278:
 1435              	.LBE279:
 1436              	.LBE282:
 1437              	.LBE284:
 1438              	.LBE294:
 1439              	.LBB295:
 1440              	.LBB292:
 1441              		.loc 1 470 14 view .LVU477
 1442 02ee 094E     		ldr	r6, .L119+28
 1443 02f0 C2E7     		b	.L72
 1444              	.L79:
 1445              		.loc 1 467 14 view .LVU478
 1446 02f2 094E     		ldr	r6, .L119+32
 1447 02f4 C0E7     		b	.L72
 1448              	.L120:
 1449 02f6 00BF     		.align	2
 1450              	.L119:
 1451 02f8 08E0FFFD 		.word	-33562616
 1452 02fc 0080FF50 		.word	1358921728
 1453 0300 00001080 		.word	-2146435072
 1454 0304 0080FFC0 		.word	-1056997376
 1455 0308 0001B903 		.word	62456064
 1456 030c 0000B703 		.word	62324736
 1457 0310 F1FFFF80 		.word	-2130706447
 1458 0314 0002B703 		.word	62325248
 1459 0318 0001B703 		.word	62324992
 1460              	.LBE292:
 1461              	.LBE295:
 1462              		.cfi_endproc
 1463              	.LFE467:
 1464              		.size	sdcConnect, .-sdcConnect
 1465              		.section	.text._sdc_wait_for_transfer_state,"ax",%progbits
 1466              		.align	1
 1467              		.p2align 4,,15
 1468              		.global	_sdc_wait_for_transfer_state
 1469              		.syntax unified
 1470              		.thumb
 1471              		.thumb_func
 1472              		.type	_sdc_wait_for_transfer_state, %function
 1473              	_sdc_wait_for_transfer_state:
 1474              	.LVL107:
 1475              	.LFB461:
 1476              		.loc 1 548 52 is_stmt 1 view -0
 1477              		.cfi_startproc
 1478              		@ args = 0, pretend = 0, frame = 8
 1479              		@ frame_needed = 0, uses_anonymous_args = 0
 1480              		.loc 1 550 3 view .LVU480
 1481              		.loc 1 548 52 is_stmt 0 view .LVU481
 1482 0000 30B5     		push	{r4, r5, lr}
ARM GAS  C:\Users\DEVELO~1\AppData\Local\Temp\ccDP4wuj.s 			page 27


 1483              		.cfi_def_cfa_offset 12
 1484              		.cfi_offset 4, -12
 1485              		.cfi_offset 5, -8
 1486              		.cfi_offset 14, -4
 1487              	.LBB300:
 1488              	.LBB301:
 1489              		.loc 1 511 21 view .LVU482
 1490 0002 104D     		ldr	r5, .L131
 1491              	.LBE301:
 1492              	.LBE300:
 1493              		.loc 1 548 52 view .LVU483
 1494 0004 83B0     		sub	sp, sp, #12
 1495              		.cfi_def_cfa_offset 24
 1496              		.loc 1 548 52 view .LVU484
 1497 0006 0446     		mov	r4, r0
 1498              	.LVL108:
 1499              	.LBB310:
 1500              	.LBI300:
 1501              		.loc 1 498 13 is_stmt 1 view .LVU485
 1502 0008 03E0     		b	.L123
 1503              	.LVL109:
 1504              	.L130:
 1505              	.LBB308:
 1506              		.loc 1 515 5 is_stmt 0 view .LVU486
 1507 000a 022A     		cmp	r2, #2
 1508 000c 16D8     		bhi	.L125
 1509              	.LBB302:
 1510              	.LBB303:
 1511              		.loc 2 784 3 view .LVU487
 1512 000e FFF7FEFF 		bl	chThdSleep
 1513              	.LVL110:
 1514              		.loc 2 784 3 view .LVU488
 1515              	.LBE303:
 1516              	.LBE302:
 1517              		.loc 1 524 7 is_stmt 1 view .LVU489
 1518              		.loc 1 503 9 view .LVU490
 1519              	.L123:
 1520              		.loc 1 500 3 view .LVU491
 1521              		.loc 1 501 3 view .LVU492
 1522              		.loc 1 503 3 view .LVU493
 1523              		.loc 1 504 5 view .LVU494
 1524              		.loc 1 505 7 view .LVU495
 1525              		.loc 1 505 18 is_stmt 0 view .LVU496
 1526 0012 01AB     		add	r3, sp, #4
 1527 0014 A26B     		ldr	r2, [r4, #56]
 1528 0016 0D21     		movs	r1, #13
 1529 0018 2046     		mov	r0, r4
 1530 001a FFF7FEFF 		bl	sdc_lld_send_cmd_short_crc
 1531              	.LVL111:
 1532              		.loc 1 515 5 is_stmt 1 view .LVU497
 1533              		.loc 1 522 7 view .LVU498
 1534              	.LBB306:
 1535              	.LBI302:
 1536              		.loc 2 782 20 view .LVU499
 1537              	.LBB304:
 1538              		.loc 2 784 3 view .LVU500
 1539              	.LBE304:
ARM GAS  C:\Users\DEVELO~1\AppData\Local\Temp\ccDP4wuj.s 			page 28


 1540              	.LBE306:
 1541              		.loc 1 505 18 is_stmt 0 view .LVU501
 1542 001e 0346     		mov	r3, r0
 1543              	.LVL112:
 1544              		.loc 1 511 5 is_stmt 1 view .LVU502
 1545              	.LBB307:
 1546              	.LBB305:
 1547              		.loc 2 784 3 is_stmt 0 view .LVU503
 1548 0020 0A20     		movs	r0, #10
 1549              	.LBE305:
 1550              	.LBE307:
 1551              		.loc 1 511 8 view .LVU504
 1552 0022 43B9     		cbnz	r3, .L122
 1553              		.loc 1 511 21 view .LVU505
 1554 0024 019A     		ldr	r2, [sp, #4]
 1555              		.loc 1 515 13 view .LVU506
 1556 0026 C2F34321 		ubfx	r1, r2, #9, #4
 1557              		.loc 1 511 18 view .LVU507
 1558 002a 2A42     		tst	r2, r5
 1559              		.loc 1 515 5 view .LVU508
 1560 002c A1F10502 		sub	r2, r1, #5
 1561              		.loc 1 511 18 view .LVU509
 1562 0030 04D1     		bne	.L125
 1563              		.loc 1 515 5 view .LVU510
 1564 0032 0429     		cmp	r1, #4
 1565 0034 E9D1     		bne	.L130
 1566              	.L122:
 1567              	.LVL113:
 1568              		.loc 1 515 5 view .LVU511
 1569              	.LBE308:
 1570              	.LBE310:
 1571              		.loc 1 551 1 view .LVU512
 1572 0036 1846     		mov	r0, r3
 1573 0038 03B0     		add	sp, sp, #12
 1574              		.cfi_remember_state
 1575              		.cfi_def_cfa_offset 12
 1576              		@ sp needed
 1577 003a 30BD     		pop	{r4, r5, pc}
 1578              	.LVL114:
 1579              	.L125:
 1580              		.cfi_restore_state
 1581              	.LBB311:
 1582              	.LBB309:
 1583              		.loc 1 515 5 view .LVU513
 1584 003c 0123     		movs	r3, #1
 1585              	.LVL115:
 1586              		.loc 1 515 5 view .LVU514
 1587              	.LBE309:
 1588              	.LBE311:
 1589              		.loc 1 551 1 view .LVU515
 1590 003e 1846     		mov	r0, r3
 1591 0040 03B0     		add	sp, sp, #12
 1592              		.cfi_def_cfa_offset 12
 1593              		@ sp needed
 1594 0042 30BD     		pop	{r4, r5, pc}
 1595              	.LVL116:
 1596              	.L132:
ARM GAS  C:\Users\DEVELO~1\AppData\Local\Temp\ccDP4wuj.s 			page 29


 1597              		.loc 1 551 1 view .LVU516
 1598              		.align	2
 1599              	.L131:
 1600 0044 08E0FFFD 		.word	-33562616
 1601              		.cfi_endproc
 1602              	.LFE461:
 1603              		.size	_sdc_wait_for_transfer_state, .-_sdc_wait_for_transfer_state
 1604              		.section	.text._sdc_wait_for_transfer_state_nocrc,"ax",%progbits
 1605              		.align	1
 1606              		.p2align 4,,15
 1607              		.global	_sdc_wait_for_transfer_state_nocrc
 1608              		.syntax unified
 1609              		.thumb
 1610              		.thumb_func
 1611              		.type	_sdc_wait_for_transfer_state_nocrc, %function
 1612              	_sdc_wait_for_transfer_state_nocrc:
 1613              	.LVL117:
 1614              	.LFB462:
 1615              		.loc 1 564 58 is_stmt 1 view -0
 1616              		.cfi_startproc
 1617              		@ args = 0, pretend = 0, frame = 8
 1618              		@ frame_needed = 0, uses_anonymous_args = 0
 1619              		.loc 1 566 3 view .LVU518
 1620              		.loc 1 564 58 is_stmt 0 view .LVU519
 1621 0000 30B5     		push	{r4, r5, lr}
 1622              		.cfi_def_cfa_offset 12
 1623              		.cfi_offset 4, -12
 1624              		.cfi_offset 5, -8
 1625              		.cfi_offset 14, -4
 1626              	.LBB316:
 1627              	.LBB317:
 1628              		.loc 1 511 21 view .LVU520
 1629 0002 104D     		ldr	r5, .L143
 1630              	.LBE317:
 1631              	.LBE316:
 1632              		.loc 1 564 58 view .LVU521
 1633 0004 83B0     		sub	sp, sp, #12
 1634              		.cfi_def_cfa_offset 24
 1635              		.loc 1 564 58 view .LVU522
 1636 0006 0446     		mov	r4, r0
 1637              	.LVL118:
 1638              	.LBB326:
 1639              	.LBI316:
 1640              		.loc 1 498 13 is_stmt 1 view .LVU523
 1641 0008 03E0     		b	.L135
 1642              	.LVL119:
 1643              	.L142:
 1644              	.LBB324:
 1645              		.loc 1 515 5 is_stmt 0 view .LVU524
 1646 000a 022A     		cmp	r2, #2
 1647 000c 16D8     		bhi	.L137
 1648              	.LBB318:
 1649              	.LBB319:
 1650              		.loc 2 784 3 view .LVU525
 1651 000e FFF7FEFF 		bl	chThdSleep
 1652              	.LVL120:
 1653              		.loc 2 784 3 view .LVU526
ARM GAS  C:\Users\DEVELO~1\AppData\Local\Temp\ccDP4wuj.s 			page 30


 1654              	.LBE319:
 1655              	.LBE318:
 1656              		.loc 1 524 7 is_stmt 1 view .LVU527
 1657              		.loc 1 503 9 view .LVU528
 1658              	.L135:
 1659              		.loc 1 500 3 view .LVU529
 1660              		.loc 1 501 3 view .LVU530
 1661              		.loc 1 503 3 view .LVU531
 1662              		.loc 1 504 5 view .LVU532
 1663              		.loc 1 508 7 view .LVU533
 1664              		.loc 1 508 18 is_stmt 0 view .LVU534
 1665 0012 01AB     		add	r3, sp, #4
 1666 0014 A26B     		ldr	r2, [r4, #56]
 1667 0016 0D21     		movs	r1, #13
 1668 0018 2046     		mov	r0, r4
 1669 001a FFF7FEFF 		bl	sdc_lld_send_cmd_short
 1670              	.LVL121:
 1671              		.loc 1 515 5 is_stmt 1 view .LVU535
 1672              		.loc 1 522 7 view .LVU536
 1673              	.LBB322:
 1674              	.LBI318:
 1675              		.loc 2 782 20 view .LVU537
 1676              	.LBB320:
 1677              		.loc 2 784 3 view .LVU538
 1678              	.LBE320:
 1679              	.LBE322:
 1680              		.loc 1 508 18 is_stmt 0 view .LVU539
 1681 001e 0346     		mov	r3, r0
 1682              	.LVL122:
 1683              		.loc 1 511 5 is_stmt 1 view .LVU540
 1684              	.LBB323:
 1685              	.LBB321:
 1686              		.loc 2 784 3 is_stmt 0 view .LVU541
 1687 0020 0A20     		movs	r0, #10
 1688              	.LBE321:
 1689              	.LBE323:
 1690              		.loc 1 511 8 view .LVU542
 1691 0022 43B9     		cbnz	r3, .L134
 1692              		.loc 1 511 21 view .LVU543
 1693 0024 019A     		ldr	r2, [sp, #4]
 1694              		.loc 1 515 13 view .LVU544
 1695 0026 C2F34321 		ubfx	r1, r2, #9, #4
 1696              		.loc 1 511 18 view .LVU545
 1697 002a 2A42     		tst	r2, r5
 1698              		.loc 1 515 5 view .LVU546
 1699 002c A1F10502 		sub	r2, r1, #5
 1700              		.loc 1 511 18 view .LVU547
 1701 0030 04D1     		bne	.L137
 1702              		.loc 1 515 5 view .LVU548
 1703 0032 0429     		cmp	r1, #4
 1704 0034 E9D1     		bne	.L142
 1705              	.L134:
 1706              	.LVL123:
 1707              		.loc 1 515 5 view .LVU549
 1708              	.LBE324:
 1709              	.LBE326:
 1710              		.loc 1 567 1 view .LVU550
ARM GAS  C:\Users\DEVELO~1\AppData\Local\Temp\ccDP4wuj.s 			page 31


 1711 0036 1846     		mov	r0, r3
 1712 0038 03B0     		add	sp, sp, #12
 1713              		.cfi_remember_state
 1714              		.cfi_def_cfa_offset 12
 1715              		@ sp needed
 1716 003a 30BD     		pop	{r4, r5, pc}
 1717              	.LVL124:
 1718              	.L137:
 1719              		.cfi_restore_state
 1720              	.LBB327:
 1721              	.LBB325:
 1722              		.loc 1 515 5 view .LVU551
 1723 003c 0123     		movs	r3, #1
 1724              	.LVL125:
 1725              		.loc 1 515 5 view .LVU552
 1726              	.LBE325:
 1727              	.LBE327:
 1728              		.loc 1 567 1 view .LVU553
 1729 003e 1846     		mov	r0, r3
 1730 0040 03B0     		add	sp, sp, #12
 1731              		.cfi_def_cfa_offset 12
 1732              		@ sp needed
 1733 0042 30BD     		pop	{r4, r5, pc}
 1734              	.LVL126:
 1735              	.L144:
 1736              		.loc 1 567 1 view .LVU554
 1737              		.align	2
 1738              	.L143:
 1739 0044 08E0FFFD 		.word	-33562616
 1740              		.cfi_endproc
 1741              	.LFE462:
 1742              		.size	_sdc_wait_for_transfer_state_nocrc, .-_sdc_wait_for_transfer_state_nocrc
 1743              		.section	.text.sdcInit,"ax",%progbits
 1744              		.align	1
 1745              		.p2align 4,,15
 1746              		.global	sdcInit
 1747              		.syntax unified
 1748              		.thumb
 1749              		.thumb_func
 1750              		.type	sdcInit, %function
 1751              	sdcInit:
 1752              	.LFB463:
 1753              		.loc 1 576 20 is_stmt 1 view -0
 1754              		.cfi_startproc
 1755              		@ args = 0, pretend = 0, frame = 0
 1756              		@ frame_needed = 0, uses_anonymous_args = 0
 1757              		@ link register save eliminated.
 1758              		.loc 1 578 3 view .LVU556
 1759 0000 FFF7FEBF 		b	sdc_lld_init
 1760              	.LVL127:
 1761              		.cfi_endproc
 1762              	.LFE463:
 1763              		.size	sdcInit, .-sdcInit
 1764              		.section	.text.sdcObjectInit,"ax",%progbits
 1765              		.align	1
 1766              		.p2align 4,,15
 1767              		.global	sdcObjectInit
ARM GAS  C:\Users\DEVELO~1\AppData\Local\Temp\ccDP4wuj.s 			page 32


 1768              		.syntax unified
 1769              		.thumb
 1770              		.thumb_func
 1771              		.type	sdcObjectInit, %function
 1772              	sdcObjectInit:
 1773              	.LVL128:
 1774              	.LFB464:
 1775              		.loc 1 588 37 view -0
 1776              		.cfi_startproc
 1777              		@ args = 0, pretend = 0, frame = 0
 1778              		@ frame_needed = 0, uses_anonymous_args = 0
 1779              		@ link register save eliminated.
 1780              		.loc 1 590 3 view .LVU558
 1781              		.loc 1 592 18 is_stmt 0 view .LVU559
 1782 0000 0023     		movs	r3, #0
 1783              		.loc 1 590 18 view .LVU560
 1784 0002 0449     		ldr	r1, .L147
 1785              		.loc 1 591 18 view .LVU561
 1786 0004 0122     		movs	r2, #1
 1787              		.loc 1 590 18 view .LVU562
 1788 0006 0160     		str	r1, [r0]
 1789              		.loc 1 591 3 is_stmt 1 view .LVU563
 1790              		.loc 1 591 18 is_stmt 0 view .LVU564
 1791 0008 0271     		strb	r2, [r0, #4]
 1792              		.loc 1 592 3 is_stmt 1 view .LVU565
 1793              		.loc 1 592 18 is_stmt 0 view .LVU566
 1794 000a 4363     		str	r3, [r0, #52]
 1795              		.loc 1 593 3 is_stmt 1 view .LVU567
 1796              		.loc 1 594 18 is_stmt 0 view .LVU568
 1797 000c C0E90A33 		strd	r3, r3, [r0, #40]
 1798              		.loc 1 595 1 view .LVU569
 1799 0010 7047     		bx	lr
 1800              	.L148:
 1801 0012 00BF     		.align	2
 1802              	.L147:
 1803 0014 00000000 		.word	.LANCHOR0
 1804              		.cfi_endproc
 1805              	.LFE464:
 1806              		.size	sdcObjectInit, .-sdcObjectInit
 1807              		.section	.text.sdcStart,"ax",%progbits
 1808              		.align	1
 1809              		.p2align 4,,15
 1810              		.global	sdcStart
 1811              		.syntax unified
 1812              		.thumb
 1813              		.thumb_func
 1814              		.type	sdcStart, %function
 1815              	sdcStart:
 1816              	.LVL129:
 1817              	.LFB465:
 1818              		.loc 1 608 58 is_stmt 1 view -0
 1819              		.cfi_startproc
 1820              		@ args = 0, pretend = 0, frame = 0
 1821              		@ frame_needed = 0, uses_anonymous_args = 0
 1822              		.loc 1 609 3 view .LVU571
 1823              		.loc 1 611 3 view .LVU572
 1824              		.loc 1 611 3 view .LVU573
ARM GAS  C:\Users\DEVELO~1\AppData\Local\Temp\ccDP4wuj.s 			page 33


 1825              		.loc 1 611 3 view .LVU574
 1826              		.loc 1 613 3 view .LVU575
 1827              	.LBB328:
 1828              	.LBI328:
 1829              		.loc 2 573 20 view .LVU576
 1830              		.loc 2 575 3 view .LVU577
 1831              	.LBB329:
 1832              	.LBI329:
 1833              		.loc 3 372 20 view .LVU578
 1834              		.loc 3 374 3 view .LVU579
 1835              	.LBB330:
 1836              	.LBI330:
 1837              		.loc 4 840 27 view .LVU580
 1838              		.loc 4 848 3 view .LVU581
 1839              	.LBB331:
 1840              	.LBI331:
 1841              		.loc 5 491 27 view .LVU582
 1842              	.LBB332:
 1843              		.loc 5 493 3 view .LVU583
 1844              	.LBE332:
 1845              	.LBE331:
 1846              	.LBE330:
 1847              	.LBE329:
 1848              	.LBE328:
 1849              		.loc 1 608 58 is_stmt 0 view .LVU584
 1850 0000 10B5     		push	{r4, lr}
 1851              		.cfi_def_cfa_offset 8
 1852              		.cfi_offset 4, -8
 1853              		.cfi_offset 14, -4
 1854              	.LBB341:
 1855              	.LBB339:
 1856              	.LBB337:
 1857              	.LBB335:
 1858              	.LBB333:
 1859              		.loc 5 493 3 view .LVU585
 1860 0002 3023     		movs	r3, #48
 1861              	.LBE333:
 1862              	.LBE335:
 1863              	.LBE337:
 1864              	.LBE339:
 1865              	.LBE341:
 1866              		.loc 1 608 58 view .LVU586
 1867 0004 0446     		mov	r4, r0
 1868              	.LBB342:
 1869              	.LBB340:
 1870              	.LBB338:
 1871              	.LBB336:
 1872              	.LBB334:
 1873              		.loc 5 493 3 view .LVU587
 1874              		.syntax unified
 1875              	@ 493 "./ChibiOS/os/common/ext/ARM/CMSIS/Core/Include/cmsis_gcc.h" 1
 1876 0006 83F31188 		MSR basepri, r3
 1877              	@ 0 "" 2
 1878              	.LVL130:
 1879              		.loc 5 493 3 view .LVU588
 1880              		.thumb
 1881              		.syntax unified
ARM GAS  C:\Users\DEVELO~1\AppData\Local\Temp\ccDP4wuj.s 			page 34


 1882              	.LBE334:
 1883              	.LBE336:
 1884              	.LBE338:
 1885              		.loc 3 375 35 is_stmt 1 view .LVU589
 1886              		.loc 3 376 21 view .LVU590
 1887              	.LBE340:
 1888              	.LBE342:
 1889              		.loc 1 614 3 view .LVU591
 1890              		.loc 1 614 3 view .LVU592
 1891              		.loc 1 614 3 view .LVU593
 1892              		.loc 1 617 3 view .LVU594
 1893              		.loc 1 617 16 is_stmt 0 view .LVU595
 1894 000a C162     		str	r1, [r0, #44]
 1895              		.loc 1 628 3 is_stmt 1 view .LVU596
 1896 000c FFF7FEFF 		bl	sdc_lld_start
 1897              	.LVL131:
 1898              		.loc 1 629 3 view .LVU597
 1899              		.loc 1 629 15 is_stmt 0 view .LVU598
 1900 0010 0223     		movs	r3, #2
 1901              	.LBB343:
 1902              	.LBB344:
 1903              	.LBB345:
 1904              	.LBB346:
 1905              	.LBB347:
 1906              	.LBB348:
 1907              		.loc 5 493 3 view .LVU599
 1908 0012 0020     		movs	r0, #0
 1909              	.LBE348:
 1910              	.LBE347:
 1911              	.LBE346:
 1912              	.LBE345:
 1913              	.LBE344:
 1914              	.LBE343:
 1915              		.loc 1 629 15 view .LVU600
 1916 0014 2371     		strb	r3, [r4, #4]
 1917              		.loc 1 630 3 is_stmt 1 view .LVU601
 1918              	.LVL132:
 1919              		.loc 1 633 3 view .LVU602
 1920              	.LBB354:
 1921              	.LBI343:
 1922              		.loc 2 584 20 view .LVU603
 1923              		.loc 2 586 3 view .LVU604
 1924              	.LBB353:
 1925              	.LBI344:
 1926              		.loc 3 386 20 view .LVU605
 1927              	.LBB352:
 1928              		.loc 3 388 23 view .LVU606
 1929              		.loc 3 389 34 view .LVU607
 1930              		.loc 3 395 3 view .LVU608
 1931              		.loc 3 395 3 view .LVU609
 1932              		.loc 3 395 3 view .LVU610
 1933              		.loc 3 399 3 view .LVU611
 1934              	.LBB351:
 1935              	.LBI346:
 1936              		.loc 4 864 27 view .LVU612
 1937              		.loc 4 867 3 view .LVU613
 1938              	.LBB350:
ARM GAS  C:\Users\DEVELO~1\AppData\Local\Temp\ccDP4wuj.s 			page 35


 1939              	.LBI347:
 1940              		.loc 5 491 27 view .LVU614
 1941              	.LBB349:
 1942              		.loc 5 493 3 view .LVU615
 1943              		.syntax unified
 1944              	@ 493 "./ChibiOS/os/common/ext/ARM/CMSIS/Core/Include/cmsis_gcc.h" 1
 1945 0016 80F31188 		MSR basepri, r0
 1946              	@ 0 "" 2
 1947              	.LVL133:
 1948              		.loc 5 493 3 is_stmt 0 view .LVU616
 1949              		.thumb
 1950              		.syntax unified
 1951              	.LBE349:
 1952              	.LBE350:
 1953              	.LBE351:
 1954              	.LBE352:
 1955              	.LBE353:
 1956              	.LBE354:
 1957              		.loc 1 635 3 is_stmt 1 view .LVU617
 1958              		.loc 1 636 1 is_stmt 0 view .LVU618
 1959 001a 10BD     		pop	{r4, pc}
 1960              		.loc 1 636 1 view .LVU619
 1961              		.cfi_endproc
 1962              	.LFE465:
 1963              		.size	sdcStart, .-sdcStart
 1964              		.section	.text.sdcStop,"ax",%progbits
 1965              		.align	1
 1966              		.p2align 4,,15
 1967              		.global	sdcStop
 1968              		.syntax unified
 1969              		.thumb
 1970              		.thumb_func
 1971              		.type	sdcStop, %function
 1972              	sdcStop:
 1973              	.LVL134:
 1974              	.LFB466:
 1975              		.loc 1 645 31 is_stmt 1 view -0
 1976              		.cfi_startproc
 1977              		@ args = 0, pretend = 0, frame = 0
 1978              		@ frame_needed = 0, uses_anonymous_args = 0
 1979              		.loc 1 647 3 view .LVU621
 1980              		.loc 1 647 3 view .LVU622
 1981              		.loc 1 647 3 view .LVU623
 1982              		.loc 1 649 3 view .LVU624
 1983              	.LBB355:
 1984              	.LBI355:
 1985              		.loc 2 573 20 view .LVU625
 1986              		.loc 2 575 3 view .LVU626
 1987              	.LBB356:
 1988              	.LBI356:
 1989              		.loc 3 372 20 view .LVU627
 1990              		.loc 3 374 3 view .LVU628
 1991              	.LBB357:
 1992              	.LBI357:
 1993              		.loc 4 840 27 view .LVU629
 1994              		.loc 4 848 3 view .LVU630
 1995              	.LBB358:
ARM GAS  C:\Users\DEVELO~1\AppData\Local\Temp\ccDP4wuj.s 			page 36


 1996              	.LBI358:
 1997              		.loc 5 491 27 view .LVU631
 1998              	.LBB359:
 1999              		.loc 5 493 3 view .LVU632
 2000              	.LBE359:
 2001              	.LBE358:
 2002              	.LBE357:
 2003              	.LBE356:
 2004              	.LBE355:
 2005              		.loc 1 645 31 is_stmt 0 view .LVU633
 2006 0000 10B5     		push	{r4, lr}
 2007              		.cfi_def_cfa_offset 8
 2008              		.cfi_offset 4, -8
 2009              		.cfi_offset 14, -4
 2010              	.LBB368:
 2011              	.LBB366:
 2012              	.LBB364:
 2013              	.LBB362:
 2014              	.LBB360:
 2015              		.loc 5 493 3 view .LVU634
 2016 0002 3023     		movs	r3, #48
 2017              	.LBE360:
 2018              	.LBE362:
 2019              	.LBE364:
 2020              	.LBE366:
 2021              	.LBE368:
 2022              		.loc 1 645 31 view .LVU635
 2023 0004 0446     		mov	r4, r0
 2024              	.LBB369:
 2025              	.LBB367:
 2026              	.LBB365:
 2027              	.LBB363:
 2028              	.LBB361:
 2029              		.loc 5 493 3 view .LVU636
 2030              		.syntax unified
 2031              	@ 493 "./ChibiOS/os/common/ext/ARM/CMSIS/Core/Include/cmsis_gcc.h" 1
 2032 0006 83F31188 		MSR basepri, r3
 2033              	@ 0 "" 2
 2034              	.LVL135:
 2035              		.loc 5 493 3 view .LVU637
 2036              		.thumb
 2037              		.syntax unified
 2038              	.LBE361:
 2039              	.LBE363:
 2040              	.LBE365:
 2041              		.loc 3 375 35 is_stmt 1 view .LVU638
 2042              		.loc 3 376 21 view .LVU639
 2043              	.LBE367:
 2044              	.LBE369:
 2045              		.loc 1 651 3 view .LVU640
 2046              		.loc 1 651 3 view .LVU641
 2047              		.loc 1 651 3 view .LVU642
 2048              		.loc 1 654 3 view .LVU643
 2049 000a FFF7FEFF 		bl	sdc_lld_stop
 2050              	.LVL136:
 2051              		.loc 1 655 3 view .LVU644
 2052              		.loc 1 655 16 is_stmt 0 view .LVU645
ARM GAS  C:\Users\DEVELO~1\AppData\Local\Temp\ccDP4wuj.s 			page 37


 2053 000e 0023     		movs	r3, #0
 2054              		.loc 1 656 16 view .LVU646
 2055 0010 0122     		movs	r2, #1
 2056              		.loc 1 655 16 view .LVU647
 2057 0012 E362     		str	r3, [r4, #44]
 2058              		.loc 1 656 3 is_stmt 1 view .LVU648
 2059              		.loc 1 656 16 is_stmt 0 view .LVU649
 2060 0014 2271     		strb	r2, [r4, #4]
 2061              		.loc 1 658 3 is_stmt 1 view .LVU650
 2062              	.LBB370:
 2063              	.LBI370:
 2064              		.loc 2 584 20 view .LVU651
 2065              		.loc 2 586 3 view .LVU652
 2066              	.LBB371:
 2067              	.LBI371:
 2068              		.loc 3 386 20 view .LVU653
 2069              	.LBB372:
 2070              		.loc 3 388 23 view .LVU654
 2071              		.loc 3 389 34 view .LVU655
 2072              		.loc 3 395 3 view .LVU656
 2073              		.loc 3 395 3 view .LVU657
 2074              		.loc 3 395 3 view .LVU658
 2075              		.loc 3 399 3 view .LVU659
 2076              	.LBB373:
 2077              	.LBI373:
 2078              		.loc 4 864 27 view .LVU660
 2079              		.loc 4 867 3 view .LVU661
 2080              	.LVL137:
 2081              	.LBB374:
 2082              	.LBI374:
 2083              		.loc 5 491 27 view .LVU662
 2084              	.LBB375:
 2085              		.loc 5 493 3 view .LVU663
 2086              		.syntax unified
 2087              	@ 493 "./ChibiOS/os/common/ext/ARM/CMSIS/Core/Include/cmsis_gcc.h" 1
 2088 0016 83F31188 		MSR basepri, r3
 2089              	@ 0 "" 2
 2090              	.LVL138:
 2091              		.loc 5 493 3 is_stmt 0 view .LVU664
 2092              		.thumb
 2093              		.syntax unified
 2094              	.LBE375:
 2095              	.LBE374:
 2096              	.LBE373:
 2097              	.LBE372:
 2098              	.LBE371:
 2099              	.LBE370:
 2100              		.loc 1 659 1 view .LVU665
 2101 001a 10BD     		pop	{r4, pc}
 2102              		.loc 1 659 1 view .LVU666
 2103              		.cfi_endproc
 2104              	.LFE466:
 2105              		.size	sdcStop, .-sdcStop
 2106              		.section	.text.sdcGetAndClearErrors,"ax",%progbits
 2107              		.align	1
 2108              		.p2align 4,,15
 2109              		.global	sdcGetAndClearErrors
ARM GAS  C:\Users\DEVELO~1\AppData\Local\Temp\ccDP4wuj.s 			page 38


 2110              		.syntax unified
 2111              		.thumb
 2112              		.thumb_func
 2113              		.type	sdcGetAndClearErrors, %function
 2114              	sdcGetAndClearErrors:
 2115              	.LVL139:
 2116              	.LFB471:
 2117              		.loc 1 925 50 is_stmt 1 view -0
 2118              		.cfi_startproc
 2119              		@ args = 0, pretend = 0, frame = 0
 2120              		@ frame_needed = 0, uses_anonymous_args = 0
 2121              		@ link register save eliminated.
 2122              		.loc 1 926 3 view .LVU668
 2123              		.loc 1 928 3 view .LVU669
 2124              		.loc 1 928 3 view .LVU670
 2125              		.loc 1 928 3 view .LVU671
 2126              		.loc 1 929 3 view .LVU672
 2127              		.loc 1 929 3 view .LVU673
 2128              		.loc 1 929 3 view .LVU674
 2129              		.loc 1 931 3 view .LVU675
 2130              	.LBB376:
 2131              	.LBI376:
 2132              		.loc 2 573 20 view .LVU676
 2133              		.loc 2 575 3 view .LVU677
 2134              	.LBB377:
 2135              	.LBI377:
 2136              		.loc 3 372 20 view .LVU678
 2137              		.loc 3 374 3 view .LVU679
 2138              	.LBB378:
 2139              	.LBI378:
 2140              		.loc 4 840 27 view .LVU680
 2141              		.loc 4 848 3 view .LVU681
 2142              	.LBB379:
 2143              	.LBI379:
 2144              		.loc 5 491 27 view .LVU682
 2145              	.LBB380:
 2146              		.loc 5 493 3 view .LVU683
 2147 0000 3022     		movs	r2, #48
 2148              	.LBE380:
 2149              	.LBE379:
 2150              	.LBE378:
 2151              	.LBE377:
 2152              	.LBE376:
 2153              		.loc 1 925 50 is_stmt 0 view .LVU684
 2154 0002 0346     		mov	r3, r0
 2155              	.LBB385:
 2156              	.LBB384:
 2157              	.LBB383:
 2158              	.LBB382:
 2159              	.LBB381:
 2160              		.loc 5 493 3 view .LVU685
 2161              		.syntax unified
 2162              	@ 493 "./ChibiOS/os/common/ext/ARM/CMSIS/Core/Include/cmsis_gcc.h" 1
 2163 0004 82F31188 		MSR basepri, r2
 2164              	@ 0 "" 2
 2165              	.LVL140:
 2166              		.loc 5 493 3 view .LVU686
ARM GAS  C:\Users\DEVELO~1\AppData\Local\Temp\ccDP4wuj.s 			page 39


 2167              		.thumb
 2168              		.syntax unified
 2169              	.LBE381:
 2170              	.LBE382:
 2171              	.LBE383:
 2172              		.loc 3 375 35 is_stmt 1 view .LVU687
 2173              		.loc 3 376 21 view .LVU688
 2174              	.LBE384:
 2175              	.LBE385:
 2176              		.loc 1 932 3 view .LVU689
 2177              		.loc 1 933 16 is_stmt 0 view .LVU690
 2178 0008 0022     		movs	r2, #0
 2179              		.loc 1 932 9 view .LVU691
 2180 000a 406B     		ldr	r0, [r0, #52]
 2181              	.LVL141:
 2182              		.loc 1 933 3 is_stmt 1 view .LVU692
 2183              		.loc 1 933 16 is_stmt 0 view .LVU693
 2184 000c 5A63     		str	r2, [r3, #52]
 2185              		.loc 1 934 3 is_stmt 1 view .LVU694
 2186              	.LBB386:
 2187              	.LBI386:
 2188              		.loc 2 584 20 view .LVU695
 2189              		.loc 2 586 3 view .LVU696
 2190              	.LBB387:
 2191              	.LBI387:
 2192              		.loc 3 386 20 view .LVU697
 2193              	.LBB388:
 2194              		.loc 3 388 23 view .LVU698
 2195              		.loc 3 389 34 view .LVU699
 2196              		.loc 3 395 3 view .LVU700
 2197              		.loc 3 395 3 view .LVU701
 2198              		.loc 3 395 3 view .LVU702
 2199              		.loc 3 399 3 view .LVU703
 2200              	.LBB389:
 2201              	.LBI389:
 2202              		.loc 4 864 27 view .LVU704
 2203              		.loc 4 867 3 view .LVU705
 2204              	.LVL142:
 2205              	.LBB390:
 2206              	.LBI390:
 2207              		.loc 5 491 27 view .LVU706
 2208              	.LBB391:
 2209              		.loc 5 493 3 view .LVU707
 2210              		.syntax unified
 2211              	@ 493 "./ChibiOS/os/common/ext/ARM/CMSIS/Core/Include/cmsis_gcc.h" 1
 2212 000e 82F31188 		MSR basepri, r2
 2213              	@ 0 "" 2
 2214              	.LVL143:
 2215              		.loc 5 493 3 is_stmt 0 view .LVU708
 2216              		.thumb
 2217              		.syntax unified
 2218              	.LBE391:
 2219              	.LBE390:
 2220              	.LBE389:
 2221              	.LBE388:
 2222              	.LBE387:
 2223              	.LBE386:
ARM GAS  C:\Users\DEVELO~1\AppData\Local\Temp\ccDP4wuj.s 			page 40


 2224              		.loc 1 935 3 is_stmt 1 view .LVU709
 2225              		.loc 1 936 1 is_stmt 0 view .LVU710
 2226 0012 7047     		bx	lr
 2227              		.cfi_endproc
 2228              	.LFE471:
 2229              		.size	sdcGetAndClearErrors, .-sdcGetAndClearErrors
 2230              		.section	.text.sdcErase,"ax",%progbits
 2231              		.align	1
 2232              		.p2align 4,,15
 2233              		.global	sdcErase
 2234              		.syntax unified
 2235              		.thumb
 2236              		.thumb_func
 2237              		.type	sdcErase, %function
 2238              	sdcErase:
 2239              	.LVL144:
 2240              	.LFB474:
 2241              		.loc 1 1007 68 is_stmt 1 view -0
 2242              		.cfi_startproc
 2243              		@ args = 0, pretend = 0, frame = 8
 2244              		@ frame_needed = 0, uses_anonymous_args = 0
 2245              		.loc 1 1008 3 view .LVU712
 2246              		.loc 1 1010 3 view .LVU713
 2247              		.loc 1 1010 3 view .LVU714
 2248              		.loc 1 1010 3 view .LVU715
 2249              		.loc 1 1011 3 view .LVU716
 2250              		.loc 1 1011 3 view .LVU717
 2251              		.loc 1 1011 3 view .LVU718
 2252              		.loc 1 1014 3 view .LVU719
 2253              		.loc 1 1017 23 is_stmt 0 view .LVU720
 2254 0000 036B     		ldr	r3, [r0, #48]
 2255              		.loc 1 1014 15 view .LVU721
 2256 0002 4FF0070C 		mov	ip, #7
 2257              		.loc 1 1017 6 view .LVU722
 2258 0006 DB06     		lsls	r3, r3, #27
 2259              		.loc 1 1007 68 view .LVU723
 2260 0008 70B5     		push	{r4, r5, r6, lr}
 2261              		.cfi_def_cfa_offset 16
 2262              		.cfi_offset 4, -16
 2263              		.cfi_offset 5, -12
 2264              		.cfi_offset 6, -8
 2265              		.cfi_offset 14, -4
 2266 000a 0446     		mov	r4, r0
 2267 000c 82B0     		sub	sp, sp, #8
 2268              		.cfi_def_cfa_offset 24
 2269              		.loc 1 1007 68 view .LVU724
 2270 000e 0D46     		mov	r5, r1
 2271 0010 1646     		mov	r6, r2
 2272              		.loc 1 1014 15 view .LVU725
 2273 0012 80F804C0 		strb	ip, [r0, #4]
 2274              		.loc 1 1017 3 is_stmt 1 view .LVU726
 2275              		.loc 1 1017 6 is_stmt 0 view .LVU727
 2276 0016 01D4     		bmi	.L155
 2277              		.loc 1 1018 5 is_stmt 1 view .LVU728
 2278              		.loc 1 1018 14 is_stmt 0 view .LVU729
 2279 0018 4D02     		lsls	r5, r1, #9
 2280              	.LVL145:
ARM GAS  C:\Users\DEVELO~1\AppData\Local\Temp\ccDP4wuj.s 			page 41


 2281              		.loc 1 1019 5 is_stmt 1 view .LVU730
 2282              		.loc 1 1019 12 is_stmt 0 view .LVU731
 2283 001a 5602     		lsls	r6, r2, #9
 2284              	.LVL146:
 2285              	.L155:
 2286              		.loc 1 1022 3 is_stmt 1 view .LVU732
 2287              	.LBB392:
 2288              	.LBI392:
 2289              		.loc 1 548 6 view .LVU733
 2290              	.LBB393:
 2291              		.loc 1 550 3 view .LVU734
 2292              		.loc 1 550 10 is_stmt 0 view .LVU735
 2293 001c 0121     		movs	r1, #1
 2294 001e 2046     		mov	r0, r4
 2295              	.LVL147:
 2296              		.loc 1 550 10 view .LVU736
 2297 0020 FFF7FEFF 		bl	_sdc_wait_for_transfer_state_internal
 2298              	.LVL148:
 2299              		.loc 1 550 10 view .LVU737
 2300              	.LBE393:
 2301              	.LBE392:
 2302              		.loc 1 1022 6 view .LVU738
 2303 0024 20B1     		cbz	r0, .L156
 2304              	.LVL149:
 2305              	.L158:
 2306              		.loc 1 1057 10 view .LVU739
 2307 0026 0120     		movs	r0, #1
 2308              	.L157:
 2309 0028 0523     		movs	r3, #5
 2310 002a 2371     		strb	r3, [r4, #4]
 2311              		.loc 1 1058 1 view .LVU740
 2312 002c 02B0     		add	sp, sp, #8
 2313              		.cfi_remember_state
 2314              		.cfi_def_cfa_offset 16
 2315              		@ sp needed
 2316 002e 70BD     		pop	{r4, r5, r6, pc}
 2317              	.LVL150:
 2318              	.L156:
 2319              		.cfi_restore_state
 2320              		.loc 1 1026 3 is_stmt 1 view .LVU741
 2321              		.loc 1 1026 8 is_stmt 0 view .LVU742
 2322 0030 2A46     		mov	r2, r5
 2323 0032 01AB     		add	r3, sp, #4
 2324 0034 2021     		movs	r1, #32
 2325 0036 2046     		mov	r0, r4
 2326 0038 FFF7FEFF 		bl	sdc_lld_send_cmd_short_crc
 2327              	.LVL151:
 2328              		.loc 1 1026 6 view .LVU743
 2329 003c 0028     		cmp	r0, #0
 2330 003e F2D1     		bne	.L158
 2331              		.loc 1 1028 7 view .LVU744
 2332 0040 019B     		ldr	r3, [sp, #4]
 2333 0042 0E4D     		ldr	r5, .L160
 2334              	.LVL152:
 2335              		.loc 1 1027 67 view .LVU745
 2336 0044 2B42     		tst	r3, r5
 2337 0046 EED1     		bne	.L158
ARM GAS  C:\Users\DEVELO~1\AppData\Local\Temp\ccDP4wuj.s 			page 42


 2338              		.loc 1 1032 3 is_stmt 1 view .LVU746
 2339              		.loc 1 1032 8 is_stmt 0 view .LVU747
 2340 0048 01AB     		add	r3, sp, #4
 2341 004a 3246     		mov	r2, r6
 2342 004c 2121     		movs	r1, #33
 2343 004e 2046     		mov	r0, r4
 2344 0050 FFF7FEFF 		bl	sdc_lld_send_cmd_short_crc
 2345              	.LVL153:
 2346              		.loc 1 1032 6 view .LVU748
 2347 0054 0028     		cmp	r0, #0
 2348 0056 E6D1     		bne	.L158
 2349              		.loc 1 1034 7 view .LVU749
 2350 0058 019A     		ldr	r2, [sp, #4]
 2351              		.loc 1 1033 65 view .LVU750
 2352 005a 2A40     		ands	r2, r2, r5
 2353 005c E3D1     		bne	.L158
 2354              		.loc 1 1038 3 is_stmt 1 view .LVU751
 2355              		.loc 1 1038 8 is_stmt 0 view .LVU752
 2356 005e 01AB     		add	r3, sp, #4
 2357 0060 2621     		movs	r1, #38
 2358 0062 2046     		mov	r0, r4
 2359 0064 FFF7FEFF 		bl	sdc_lld_send_cmd_short_crc
 2360              	.LVL154:
 2361              		.loc 1 1038 6 view .LVU753
 2362 0068 0028     		cmp	r0, #0
 2363 006a DCD1     		bne	.L158
 2364              		.loc 1 1040 7 view .LVU754
 2365 006c 019B     		ldr	r3, [sp, #4]
 2366              		.loc 1 1039 60 view .LVU755
 2367 006e 2B42     		tst	r3, r5
 2368 0070 D9D1     		bne	.L158
 2369              		.loc 1 1048 3 is_stmt 1 view .LVU756
 2370              	.LVL155:
 2371              	.LBB394:
 2372              	.LBI394:
 2373              		.loc 1 548 6 view .LVU757
 2374              	.LBB395:
 2375              		.loc 1 550 3 view .LVU758
 2376              		.loc 1 550 10 is_stmt 0 view .LVU759
 2377 0072 0121     		movs	r1, #1
 2378 0074 2046     		mov	r0, r4
 2379 0076 FFF7FEFF 		bl	_sdc_wait_for_transfer_state_internal
 2380              	.LVL156:
 2381              		.loc 1 550 10 view .LVU760
 2382              	.LBE395:
 2383              	.LBE394:
 2384 007a D5E7     		b	.L157
 2385              	.L161:
 2386              		.align	2
 2387              	.L160:
 2388 007c 08E0FFFD 		.word	-33562616
 2389              		.cfi_endproc
 2390              	.LFE474:
 2391              		.size	sdcErase, .-sdcErase
 2392              		.section	.rodata.sdc_vmt,"a"
 2393              		.align	2
 2394              		.set	.LANCHOR0,. + 0
ARM GAS  C:\Users\DEVELO~1\AppData\Local\Temp\ccDP4wuj.s 			page 43


 2395              		.type	sdc_vmt, %object
 2396              		.size	sdc_vmt, 36
 2397              	sdc_vmt:
 2398 0000 00000000 		.word	0
 2399 0004 00000000 		.word	sdc_lld_is_card_inserted
 2400 0008 00000000 		.word	sdc_lld_is_write_protected
 2401 000c 00000000 		.word	sdcConnect
 2402 0010 00000000 		.word	sdcDisconnect
 2403 0014 00000000 		.word	sdcRead
 2404 0018 00000000 		.word	sdcWrite
 2405 001c 00000000 		.word	sdcSync
 2406 0020 00000000 		.word	sdcGetInfo
 2407              		.text
 2408              	.Letext0:
 2409              		.file 6 "c:\\chibistudio\\tools\\gnu tools arm embedded\\11.3 2022.08\\lib\\gcc\\arm-none-eabi\\11
 2410              		.file 7 "c:\\chibistudio\\tools\\gnu tools arm embedded\\11.3 2022.08\\arm-none-eabi\\include\\mac
 2411              		.file 8 "c:\\chibistudio\\tools\\gnu tools arm embedded\\11.3 2022.08\\arm-none-eabi\\include\\sys
 2412              		.file 9 "./ChibiOS/os/common/ports/ARM-common/include/chtypes.h"
 2413              		.file 10 "./ChibiOS/os/rt/include/chearly.h"
 2414              		.file 11 "./ChibiOS/os/rt/include/chobjects.h"
 2415              		.file 12 "./ChibiOS/os/rt/include/chrfcu.h"
 2416              		.file 13 "./ChibiOS/os/rt/include/chdebug.h"
 2417              		.file 14 "./ChibiOS/os/rt/include/chtime.h"
 2418              		.file 15 "./ChibiOS/os/rt/include/chtrace.h"
 2419              		.file 16 "./ChibiOS/os/common/ext/ST/STM32H7xx/stm32h743xx.h"
 2420              		.file 17 "./ChibiOS/os/rt/include/chlists.h"
 2421              		.file 18 "./ChibiOS/os/rt/include/chsem.h"
 2422              		.file 19 "./ChibiOS/os/rt/include/chmtx.h"
 2423              		.file 20 "./ChibiOS/os/hal/include/hal_ioblock.h"
 2424              		.file 21 "./ChibiOS/os/hal/include/hal_sdc.h"
 2425              		.file 22 "./ChibiOS/os/hal/ports/STM32/LLD/SDMMCv2/hal_sdc_lld.h"
 2426              		.file 23 "./ChibiOS/os/hal/include/hal_mmcsd.h"
 2427              		.file 24 "./ChibiOS/os/rt/include/chthreads.h"