ARM GAS  C:\Users\DEVELO~1\AppData\Local\Temp\ccuGzkMt.s 			page 1


   1              		.cpu cortex-m7
   2              		.arch armv7e-m
   3              		.fpu softvfp
   4              		.eabi_attribute 20, 1
   5              		.eabi_attribute 21, 1
   6              		.eabi_attribute 23, 3
   7              		.eabi_attribute 24, 1
   8              		.eabi_attribute 25, 1
   9              		.eabi_attribute 26, 1
  10              		.eabi_attribute 30, 2
  11              		.eabi_attribute 34, 1
  12              		.eabi_attribute 18, 4
  13              		.file	"hal_sdc_lld.c"
  14              		.text
  15              	.Ltext0:
  16              		.cfi_sections	.debug_frame
  17              		.section	.text.sdc_lld_collect_errors,"ax",%progbits
  18              		.align	1
  19              		.p2align 4,,15
  20              		.syntax unified
  21              		.thumb
  22              		.thumb_func
  23              		.type	sdc_lld_collect_errors, %function
  24              	sdc_lld_collect_errors:
  25              	.LVL0:
  26              	.LFB454:
  27              		.file 1 "./ChibiOS/os/hal/ports/STM32/LLD/SDMMCv2/hal_sdc_lld.c"
  28              		.loc 1 304 67 view -0
  29              		.cfi_startproc
  30              		@ args = 0, pretend = 0, frame = 0
  31              		@ frame_needed = 0, uses_anonymous_args = 0
  32              		@ link register save eliminated.
  33              		.loc 1 305 3 view .LVU1
  34              		.loc 1 307 3 view .LVU2
  35              		.loc 1 307 11 is_stmt 0 view .LVU3
  36 0000 01F00103 		and	r3, r1, #1
  37              	.LVL1:
  38              		.loc 1 309 3 is_stmt 1 view .LVU4
  39              		.loc 1 309 6 is_stmt 0 view .LVU5
  40 0004 8A07     		lsls	r2, r1, #30
  41              		.loc 1 310 5 is_stmt 1 view .LVU6
  42              		.loc 1 310 12 is_stmt 0 view .LVU7
  43 0006 48BF     		it	mi
  44 0008 43F00203 		orrmi	r3, r3, #2
  45              	.LVL2:
  46              		.loc 1 311 3 is_stmt 1 view .LVU8
  47              		.loc 1 311 6 is_stmt 0 view .LVU9
  48 000c 4A07     		lsls	r2, r1, #29
  49              		.loc 1 312 5 is_stmt 1 view .LVU10
  50              		.loc 1 312 12 is_stmt 0 view .LVU11
  51 000e 48BF     		it	mi
  52 0010 43F00803 		orrmi	r3, r3, #8
  53              	.LVL3:
  54              		.loc 1 313 3 is_stmt 1 view .LVU12
  55              		.loc 1 313 6 is_stmt 0 view .LVU13
  56 0014 0A07     		lsls	r2, r1, #28
  57              		.loc 1 314 5 is_stmt 1 view .LVU14
ARM GAS  C:\Users\DEVELO~1\AppData\Local\Temp\ccuGzkMt.s 			page 2


  58              		.loc 1 314 12 is_stmt 0 view .LVU15
  59 0016 48BF     		it	mi
  60 0018 43F00403 		orrmi	r3, r3, #4
  61              	.LVL4:
  62              		.loc 1 315 3 is_stmt 1 view .LVU16
  63              		.loc 1 315 6 is_stmt 0 view .LVU17
  64 001c CA06     		lsls	r2, r1, #27
  65              		.loc 1 316 5 is_stmt 1 view .LVU18
  66              		.loc 1 316 12 is_stmt 0 view .LVU19
  67 001e 48BF     		it	mi
  68 0020 43F01003 		orrmi	r3, r3, #16
  69              	.LVL5:
  70              		.loc 1 317 3 is_stmt 1 view .LVU20
  71              		.loc 1 317 6 is_stmt 0 view .LVU21
  72 0024 8A06     		lsls	r2, r1, #26
  73              		.loc 1 318 5 is_stmt 1 view .LVU22
  74              		.loc 1 322 16 is_stmt 0 view .LVU23
  75 0026 426B     		ldr	r2, [r0, #52]
  76              		.loc 1 318 12 view .LVU24
  77 0028 48BF     		it	mi
  78 002a 43F02003 		orrmi	r3, r3, #32
  79              	.LVL6:
  80              		.loc 1 322 3 is_stmt 1 view .LVU25
  81              		.loc 1 322 16 is_stmt 0 view .LVU26
  82 002e 1A43     		orrs	r2, r2, r3
  83 0030 4263     		str	r2, [r0, #52]
  84              		.loc 1 323 1 view .LVU27
  85 0032 7047     		bx	lr
  86              		.cfi_endproc
  87              	.LFE454:
  88              		.size	sdc_lld_collect_errors, .-sdc_lld_collect_errors
  89              		.section	.text.sdc_lld_wait_transaction_end,"ax",%progbits
  90              		.align	1
  91              		.p2align 4,,15
  92              		.syntax unified
  93              		.thumb
  94              		.thumb_func
  95              		.type	sdc_lld_wait_transaction_end, %function
  96              	sdc_lld_wait_transaction_end:
  97              	.LVL7:
  98              	.LFB453:
  99              		.loc 1 263 58 is_stmt 1 view -0
 100              		.cfi_startproc
 101              		@ args = 0, pretend = 0, frame = 0
 102              		@ frame_needed = 0, uses_anonymous_args = 0
 103              		.loc 1 267 3 view .LVU29
 104              	.LBB154:
 105              	.LBI154:
 106              		.file 2 "./ChibiOS/os/hal/osal/rt-nil/osal.h"
 107              		.loc 2 573 20 view .LVU30
 108              		.loc 2 575 3 view .LVU31
 109              	.LBB155:
 110              	.LBI155:
 111              		.file 3 "./ChibiOS/os/rt/include/chsys.h"
 112              		.loc 3 372 20 view .LVU32
 113              		.loc 3 374 3 view .LVU33
 114              	.LBB156:
ARM GAS  C:\Users\DEVELO~1\AppData\Local\Temp\ccuGzkMt.s 			page 3


 115              	.LBI156:
 116              		.file 4 "./ChibiOS/os/common/ports/ARMv7-M/chcore.h"
 117              		.loc 4 840 27 view .LVU34
 118              		.loc 4 848 3 view .LVU35
 119              	.LBB157:
 120              	.LBI157:
 121              		.file 5 "./ChibiOS/os/common/ext/ARM/CMSIS/Core/Include/cmsis_gcc.h"
 122              		.loc 5 491 27 view .LVU36
 123              	.LBB158:
 124              		.loc 5 493 3 view .LVU37
 125              	.LBE158:
 126              	.LBE157:
 127              	.LBE156:
 128              	.LBE155:
 129              	.LBE154:
 130              		.loc 1 263 58 is_stmt 0 view .LVU38
 131 0000 F8B5     		push	{r3, r4, r5, r6, r7, lr}
 132              		.cfi_def_cfa_offset 24
 133              		.cfi_offset 3, -24
 134              		.cfi_offset 4, -20
 135              		.cfi_offset 5, -16
 136              		.cfi_offset 6, -12
 137              		.cfi_offset 7, -8
 138              		.cfi_offset 14, -4
 139              	.LBB167:
 140              	.LBB165:
 141              	.LBB163:
 142              	.LBB161:
 143              	.LBB159:
 144              		.loc 5 493 3 view .LVU39
 145 0002 3023     		movs	r3, #48
 146              	.LBE159:
 147              	.LBE161:
 148              	.LBE163:
 149              	.LBE165:
 150              	.LBE167:
 151              		.loc 1 263 58 view .LVU40
 152 0004 0546     		mov	r5, r0
 153 0006 0F46     		mov	r7, r1
 154 0008 1646     		mov	r6, r2
 155              	.LBB168:
 156              	.LBB166:
 157              	.LBB164:
 158              	.LBB162:
 159              	.LBB160:
 160              		.loc 5 493 3 view .LVU41
 161              		.syntax unified
 162              	@ 493 "./ChibiOS/os/common/ext/ARM/CMSIS/Core/Include/cmsis_gcc.h" 1
 163 000a 83F31188 		MSR basepri, r3
 164              	@ 0 "" 2
 165              	.LVL8:
 166              		.loc 5 493 3 view .LVU42
 167              		.thumb
 168              		.syntax unified
 169              	.LBE160:
 170              	.LBE162:
 171              	.LBE164:
ARM GAS  C:\Users\DEVELO~1\AppData\Local\Temp\ccuGzkMt.s 			page 4


 172              		.loc 3 375 35 is_stmt 1 view .LVU43
 173              		.loc 3 376 21 view .LVU44
 174              	.LBE166:
 175              	.LBE168:
 176              		.loc 1 269 3 view .LVU45
 177              		.loc 1 269 11 is_stmt 0 view .LVU46
 178 000e 446C     		ldr	r4, [r0, #68]
 179              		.loc 1 269 18 view .LVU47
 180 0010 E36B     		ldr	r3, [r4, #60]
 181              		.loc 1 269 6 view .LVU48
 182 0012 A3B9     		cbnz	r3, .L36
 183              	.LVL9:
 184              	.L24:
 185              		.loc 1 274 3 is_stmt 1 view .LVU49
 186              		.loc 1 274 25 is_stmt 0 view .LVU50
 187 0014 0023     		movs	r3, #0
 188 0016 2365     		str	r3, [r4, #80]
 189              		.loc 1 275 3 is_stmt 1 view .LVU51
 190              		.loc 1 275 25 is_stmt 0 view .LVU52
 191 0018 E363     		str	r3, [r4, #60]
 192              		.loc 1 276 3 is_stmt 1 view .LVU53
 193              		.loc 1 276 25 is_stmt 0 view .LVU54
 194 001a E362     		str	r3, [r4, #44]
 195              		.loc 1 278 3 is_stmt 1 view .LVU55
 196              		.loc 1 278 19 is_stmt 0 view .LVU56
 197 001c 606B     		ldr	r0, [r4, #52]
 198              		.loc 1 278 6 view .LVU57
 199 001e 10F48070 		ands	r0, r0, #256
 200 0022 08D0     		beq	.L37
 201              		.loc 1 284 3 is_stmt 1 view .LVU58
 202              		.loc 1 284 20 is_stmt 0 view .LVU59
 203 0024 4FF0FF32 		mov	r2, #-1
 204 0028 A263     		str	r2, [r4, #56]
 205              		.loc 1 286 3 is_stmt 1 view .LVU60
 206              	.LBB169:
 207              	.LBI169:
 208              		.loc 2 584 20 view .LVU61
 209              		.loc 2 586 3 view .LVU62
 210              	.LBB170:
 211              	.LBI170:
 212              		.loc 3 386 20 view .LVU63
 213              	.LBB171:
 214              		.loc 3 388 23 view .LVU64
 215              		.loc 3 389 34 view .LVU65
 216              		.loc 3 395 3 view .LVU66
 217              		.loc 3 395 3 view .LVU67
 218              		.loc 3 395 3 view .LVU68
 219              		.loc 3 399 3 view .LVU69
 220              	.LBB172:
 221              	.LBI172:
 222              		.loc 4 864 27 view .LVU70
 223              		.loc 4 867 3 view .LVU71
 224              	.LVL10:
 225              	.LBB173:
 226              	.LBI173:
 227              		.loc 5 491 27 view .LVU72
 228              	.LBB174:
ARM GAS  C:\Users\DEVELO~1\AppData\Local\Temp\ccuGzkMt.s 			page 5


 229              		.loc 5 493 3 view .LVU73
 230              		.syntax unified
 231              	@ 493 "./ChibiOS/os/common/ext/ARM/CMSIS/Core/Include/cmsis_gcc.h" 1
 232 002a 83F31188 		MSR basepri, r3
 233              	@ 0 "" 2
 234              	.LVL11:
 235              		.loc 5 493 3 is_stmt 0 view .LVU74
 236              		.thumb
 237              		.syntax unified
 238              	.LBE174:
 239              	.LBE173:
 240              	.LBE172:
 241              	.LBE171:
 242              	.LBE170:
 243              	.LBE169:
 244              		.loc 1 289 3 is_stmt 1 view .LVU75
 245              		.loc 1 289 6 is_stmt 0 view .LVU76
 246 002e 012F     		cmp	r7, #1
 247 0030 0CD8     		bhi	.L38
 248              		.loc 1 293 10 view .LVU77
 249 0032 1846     		mov	r0, r3
 250              		.loc 1 294 1 view .LVU78
 251 0034 F8BD     		pop	{r3, r4, r5, r6, r7, pc}
 252              	.LVL12:
 253              	.L37:
 254              		.loc 1 279 5 is_stmt 1 view .LVU79
 255              	.LBB175:
 256              	.LBI175:
 257              		.loc 2 584 20 view .LVU80
 258              		.loc 2 586 3 view .LVU81
 259              	.LBB176:
 260              	.LBI176:
 261              		.loc 3 386 20 view .LVU82
 262              	.LBB177:
 263              		.loc 3 388 23 view .LVU83
 264              		.loc 3 389 34 view .LVU84
 265              		.loc 3 395 3 view .LVU85
 266              		.loc 3 395 3 view .LVU86
 267              		.loc 3 395 3 view .LVU87
 268              		.loc 3 399 3 view .LVU88
 269              	.LBB178:
 270              	.LBI178:
 271              		.loc 4 864 27 view .LVU89
 272              		.loc 4 867 3 view .LVU90
 273              	.LBB179:
 274              	.LBI179:
 275              		.loc 5 491 27 view .LVU91
 276              	.LBB180:
 277              		.loc 5 493 3 view .LVU92
 278              		.syntax unified
 279              	@ 493 "./ChibiOS/os/common/ext/ARM/CMSIS/Core/Include/cmsis_gcc.h" 1
 280 0036 80F31188 		MSR basepri, r0
 281              	@ 0 "" 2
 282              	.LVL13:
 283              		.loc 5 493 3 is_stmt 0 view .LVU93
 284              		.thumb
 285              		.syntax unified
ARM GAS  C:\Users\DEVELO~1\AppData\Local\Temp\ccuGzkMt.s 			page 6


 286              	.LBE180:
 287              	.LBE179:
 288              	.LBE178:
 289              	.LBE177:
 290              	.LBE176:
 291              	.LBE175:
 292              		.loc 1 280 5 is_stmt 1 view .LVU94
 293              		.loc 1 280 12 is_stmt 0 view .LVU95
 294 003a 0120     		movs	r0, #1
 295              		.loc 1 294 1 view .LVU96
 296 003c F8BD     		pop	{r3, r4, r5, r6, r7, pc}
 297              	.LVL14:
 298              	.L36:
 299              		.loc 1 270 5 is_stmt 1 view .LVU97
 300              	.LBB181:
 301              	.LBI181:
 302              		.loc 2 797 21 view .LVU98
 303              	.LBB182:
 304              		.loc 2 799 3 view .LVU99
 305              		.loc 2 799 10 is_stmt 0 view .LVU100
 306 003e 4FF0FF31 		mov	r1, #-1
 307              	.LVL15:
 308              		.loc 2 799 10 view .LVU101
 309 0042 4030     		adds	r0, r0, #64
 310              	.LVL16:
 311              		.loc 2 799 10 view .LVU102
 312 0044 FFF7FEFF 		bl	chThdSuspendTimeoutS
 313              	.LVL17:
 314              		.loc 2 799 10 view .LVU103
 315              	.LBE182:
 316              	.LBE181:
 317              		.loc 1 274 7 view .LVU104
 318 0048 6C6C     		ldr	r4, [r5, #68]
 319              	.LBB184:
 320              	.LBB183:
 321              		.loc 2 799 10 view .LVU105
 322 004a E3E7     		b	.L24
 323              	.LVL18:
 324              	.L38:
 325              		.loc 2 799 10 view .LVU106
 326              	.LBE183:
 327              	.LBE184:
 328              		.loc 1 290 5 is_stmt 1 view .LVU107
 329              	.LBB185:
 330              	.LBI185:
 331              		.loc 1 608 6 view .LVU108
 332              	.LBB186:
 333              		.loc 1 610 3 view .LVU109
 334              		.loc 1 612 3 view .LVU110
 335              		.loc 1 612 7 is_stmt 0 view .LVU111
 336 004c 6A6C     		ldr	r2, [r5, #68]
 337              		.loc 1 613 20 view .LVU112
 338 004e 41F20C11 		movw	r1, #4364
 339              		.loc 1 612 20 view .LVU113
 340 0052 9360     		str	r3, [r2, #8]
 341              		.loc 1 613 3 is_stmt 1 view .LVU114
 342              		.loc 1 613 20 is_stmt 0 view .LVU115
ARM GAS  C:\Users\DEVELO~1\AppData\Local\Temp\ccuGzkMt.s 			page 7


 343 0054 D160     		str	r1, [r2, #12]
 344              		.loc 1 614 3 is_stmt 1 view .LVU116
 345              	.L27:
 346              		.loc 1 615 59 view .LVU117
 347              		.loc 1 614 16 is_stmt 0 view .LVU118
 348 0056 516B     		ldr	r1, [r2, #52]
 349              	.LVL19:
 350              		.loc 1 615 59 view .LVU119
 351 0058 11F04503 		ands	r3, r1, #69
 352 005c FBD0     		beq	.L27
 353              		.loc 1 617 3 is_stmt 1 view .LVU120
 354              		.loc 1 617 20 is_stmt 0 view .LVU121
 355 005e 9363     		str	r3, [r2, #56]
 356              		.loc 1 619 3 is_stmt 1 view .LVU122
 357              		.loc 1 619 6 is_stmt 0 view .LVU123
 358 0060 11F00503 		ands	r3, r1, #5
 359 0064 03D1     		bne	.L39
 360              		.loc 1 623 3 is_stmt 1 view .LVU124
 361              		.loc 1 623 22 is_stmt 0 view .LVU125
 362 0066 5269     		ldr	r2, [r2, #20]
 363              		.loc 1 624 10 view .LVU126
 364 0068 1846     		mov	r0, r3
 365              		.loc 1 623 9 view .LVU127
 366 006a 3260     		str	r2, [r6]
 367              		.loc 1 624 3 is_stmt 1 view .LVU128
 368              	.LVL20:
 369              		.loc 1 624 3 is_stmt 0 view .LVU129
 370              	.LBE186:
 371              	.LBE185:
 372              		.loc 1 294 1 view .LVU130
 373 006c F8BD     		pop	{r3, r4, r5, r6, r7, pc}
 374              	.LVL21:
 375              	.L39:
 376              	.LBB188:
 377              	.LBB187:
 378              		.loc 1 620 5 is_stmt 1 view .LVU131
 379 006e 2846     		mov	r0, r5
 380 0070 FFF7FEFF 		bl	sdc_lld_collect_errors
 381              	.LVL22:
 382              		.loc 1 621 5 view .LVU132
 383              		.loc 1 621 12 is_stmt 0 view .LVU133
 384 0074 0120     		movs	r0, #1
 385              	.LVL23:
 386              		.loc 1 621 12 view .LVU134
 387              	.LBE187:
 388              	.LBE188:
 389              		.loc 1 294 1 view .LVU135
 390 0076 F8BD     		pop	{r3, r4, r5, r6, r7, pc}
 391              		.loc 1 294 1 view .LVU136
 392              		.cfi_endproc
 393              	.LFE453:
 394              		.size	sdc_lld_wait_transaction_end, .-sdc_lld_wait_transaction_end
 395              		.section	.text.sdc_lld_init,"ax",%progbits
 396              		.align	1
 397              		.p2align 4,,15
 398              		.global	sdc_lld_init
 399              		.syntax unified
ARM GAS  C:\Users\DEVELO~1\AppData\Local\Temp\ccuGzkMt.s 			page 8


 400              		.thumb
 401              		.thumb_func
 402              		.type	sdc_lld_init, %function
 403              	sdc_lld_init:
 404              	.LFB456:
 405              		.loc 1 364 25 is_stmt 1 view -0
 406              		.cfi_startproc
 407              		@ args = 0, pretend = 0, frame = 0
 408              		@ frame_needed = 0, uses_anonymous_args = 0
 409              		.loc 1 367 3 view .LVU138
 410              		.loc 1 364 25 is_stmt 0 view .LVU139
 411 0000 10B5     		push	{r4, lr}
 412              		.cfi_def_cfa_offset 8
 413              		.cfi_offset 4, -8
 414              		.cfi_offset 14, -4
 415              		.loc 1 367 3 view .LVU140
 416 0002 074C     		ldr	r4, .L42
 417 0004 2046     		mov	r0, r4
 418 0006 FFF7FEFF 		bl	sdcObjectInit
 419              	.LVL24:
 420              		.loc 1 368 3 is_stmt 1 view .LVU141
 421              		.loc 1 369 17 is_stmt 0 view .LVU142
 422 000a 064B     		ldr	r3, .L42+4
 423              		.loc 1 368 17 view .LVU143
 424 000c 0020     		movs	r0, #0
 425              		.loc 1 370 17 view .LVU144
 426 000e 0649     		ldr	r1, .L42+8
 427              		.loc 1 371 17 view .LVU145
 428 0010 064A     		ldr	r2, .L42+12
 429              		.loc 1 370 17 view .LVU146
 430 0012 A164     		str	r1, [r4, #72]
 431              		.loc 1 371 17 view .LVU147
 432 0014 E263     		str	r2, [r4, #60]
 433              		.loc 1 369 17 view .LVU148
 434 0016 C4E91003 		strd	r0, r3, [r4, #64]
 435              		.loc 1 370 3 is_stmt 1 view .LVU149
 436              		.loc 1 371 3 view .LVU150
 437              		.loc 1 372 3 view .LVU151
 438              		.loc 1 372 17 is_stmt 0 view .LVU152
 439 001a 054B     		ldr	r3, .L42+16
 440 001c E364     		str	r3, [r4, #76]
 441              		.loc 1 383 1 view .LVU153
 442 001e 10BD     		pop	{r4, pc}
 443              	.L43:
 444              		.align	2
 445              	.L42:
 446 0020 00000000 		.word	.LANCHOR0
 447 0024 00700052 		.word	1375760384
 448 0028 80F0FA02 		.word	50000000
 449 002c 00000000 		.word	.LANCHOR1
 450 0030 00000000 		.word	.LANCHOR2
 451              		.cfi_endproc
 452              	.LFE456:
 453              		.size	sdc_lld_init, .-sdc_lld_init
 454              		.section	.text.sdc_lld_start,"ax",%progbits
 455              		.align	1
 456              		.p2align 4,,15
ARM GAS  C:\Users\DEVELO~1\AppData\Local\Temp\ccuGzkMt.s 			page 9


 457              		.global	sdc_lld_start
 458              		.syntax unified
 459              		.thumb
 460              		.thumb_func
 461              		.type	sdc_lld_start, %function
 462              	sdc_lld_start:
 463              	.LVL25:
 464              	.LFB457:
 465              		.loc 1 392 37 is_stmt 1 view -0
 466              		.cfi_startproc
 467              		@ args = 0, pretend = 0, frame = 0
 468              		@ frame_needed = 0, uses_anonymous_args = 0
 469              		@ link register save eliminated.
 470              		.loc 1 395 3 view .LVU155
 471              		.loc 1 395 6 is_stmt 0 view .LVU156
 472 0000 C36A     		ldr	r3, [r0, #44]
 473 0002 83B1     		cbz	r3, .L53
 474              	.L45:
 475              		.loc 1 400 3 is_stmt 1 view .LVU157
 476              		.loc 1 402 5 view .LVU158
 477              		.loc 1 400 6 is_stmt 0 view .LVU159
 478 0004 0379     		ldrb	r3, [r0, #4]	@ zero_extendqisi2
 479              		.loc 1 402 8 view .LVU160
 480 0006 012B     		cmp	r3, #1
 481 0008 02D1     		bne	.L46
 482 000a 104B     		ldr	r3, .L55
 483 000c 9842     		cmp	r0, r3
 484 000e 0DD0     		beq	.L54
 485              	.L46:
 486              		.loc 1 415 3 is_stmt 1 view .LVU161
 487              		.loc 1 415 7 is_stmt 0 view .LVU162
 488 0010 436C     		ldr	r3, [r0, #68]
 489              		.loc 1 415 25 view .LVU163
 490 0012 0022     		movs	r2, #0
 491              		.loc 1 420 25 view .LVU164
 492 0014 4FF0FF31 		mov	r1, #-1
 493              		.loc 1 415 25 view .LVU165
 494 0018 1A65     		str	r2, [r3, #80]
 495              		.loc 1 416 3 is_stmt 1 view .LVU166
 496              		.loc 1 416 25 is_stmt 0 view .LVU167
 497 001a DA62     		str	r2, [r3, #44]
 498              		.loc 1 417 3 is_stmt 1 view .LVU168
 499              		.loc 1 417 25 is_stmt 0 view .LVU169
 500 001c 1A60     		str	r2, [r3]
 501              		.loc 1 418 3 is_stmt 1 view .LVU170
 502              		.loc 1 418 25 is_stmt 0 view .LVU171
 503 001e 5A60     		str	r2, [r3, #4]
 504              		.loc 1 419 3 is_stmt 1 view .LVU172
 505              		.loc 1 419 25 is_stmt 0 view .LVU173
 506 0020 5A62     		str	r2, [r3, #36]
 507              		.loc 1 420 3 is_stmt 1 view .LVU174
 508              		.loc 1 420 25 is_stmt 0 view .LVU175
 509 0022 9963     		str	r1, [r3, #56]
 510              		.loc 1 421 1 view .LVU176
 511 0024 7047     		bx	lr
 512              	.L53:
 513              		.loc 1 396 5 is_stmt 1 view .LVU177
ARM GAS  C:\Users\DEVELO~1\AppData\Local\Temp\ccuGzkMt.s 			page 10


 514              		.loc 1 396 18 is_stmt 0 view .LVU178
 515 0026 0A4B     		ldr	r3, .L55+4
 516 0028 C362     		str	r3, [r0, #44]
 517 002a EBE7     		b	.L45
 518              	.L54:
 519              		.loc 1 403 7 is_stmt 1 view .LVU179
 520              	.LVL26:
 521              	.LBB189:
 522              	.LBI189:
 523              		.file 6 "./ChibiOS/os/hal/ports/STM32/STM32H7xx/stm32_rcc.h"
 524              		.loc 6 764 22 view .LVU180
 525              	.LBB190:
 526              		.loc 6 768 3 view .LVU181
 527              		.loc 6 768 19 is_stmt 0 view .LVU182
 528 002c 094B     		ldr	r3, .L55+8
 529 002e D3F8D420 		ldr	r2, [r3, #212]
 530 0032 42F48032 		orr	r2, r2, #65536
 531 0036 C3F8D420 		str	r2, [r3, #212]
 532              		.loc 6 769 3 is_stmt 1 view .LVU183
 533              		.loc 6 770 5 view .LVU184
 534              		.loc 6 770 23 is_stmt 0 view .LVU185
 535 003a D3F8FC20 		ldr	r2, [r3, #252]
 536 003e 42F48032 		orr	r2, r2, #65536
 537 0042 C3F8FC20 		str	r2, [r3, #252]
 538              		.loc 6 775 3 is_stmt 1 view .LVU186
 539 0046 D3F8FC30 		ldr	r3, [r3, #252]
 540              		.loc 6 787 1 is_stmt 0 view .LVU187
 541 004a E1E7     		b	.L46
 542              	.L56:
 543              		.align	2
 544              	.L55:
 545 004c 00000000 		.word	.LANCHOR0
 546 0050 00000000 		.word	.LANCHOR3
 547 0054 00440258 		.word	1476543488
 548              	.LBE190:
 549              	.LBE189:
 550              		.cfi_endproc
 551              	.LFE457:
 552              		.size	sdc_lld_start, .-sdc_lld_start
 553              		.section	.text.sdc_lld_stop,"ax",%progbits
 554              		.align	1
 555              		.p2align 4,,15
 556              		.global	sdc_lld_stop
 557              		.syntax unified
 558              		.thumb
 559              		.thumb_func
 560              		.type	sdc_lld_stop, %function
 561              	sdc_lld_stop:
 562              	.LVL27:
 563              	.LFB458:
 564              		.loc 1 430 36 is_stmt 1 view -0
 565              		.cfi_startproc
 566              		@ args = 0, pretend = 0, frame = 0
 567              		@ frame_needed = 0, uses_anonymous_args = 0
 568              		@ link register save eliminated.
 569              		.loc 1 432 3 view .LVU189
 570              		.loc 1 432 6 is_stmt 0 view .LVU190
ARM GAS  C:\Users\DEVELO~1\AppData\Local\Temp\ccuGzkMt.s 			page 11


 571 0000 0379     		ldrb	r3, [r0, #4]	@ zero_extendqisi2
 572 0002 012B     		cmp	r3, #1
 573 0004 0FD0     		beq	.L62
 574              		.loc 1 435 5 is_stmt 1 view .LVU191
 575              		.loc 1 444 8 is_stmt 0 view .LVU192
 576 0006 1149     		ldr	r1, .L66
 577              		.loc 1 435 27 view .LVU193
 578 0008 0022     		movs	r2, #0
 579              		.loc 1 435 9 view .LVU194
 580 000a 436C     		ldr	r3, [r0, #68]
 581              		.loc 1 444 8 view .LVU195
 582 000c 8842     		cmp	r0, r1
 583              		.loc 1 430 36 view .LVU196
 584 000e 10B4     		push	{r4}
 585              		.cfi_def_cfa_offset 4
 586              		.cfi_offset 4, -4
 587              		.loc 1 440 27 view .LVU197
 588 0010 4FF0FF34 		mov	r4, #-1
 589              		.loc 1 435 27 view .LVU198
 590 0014 1A65     		str	r2, [r3, #80]
 591              		.loc 1 436 5 is_stmt 1 view .LVU199
 592              		.loc 1 436 27 is_stmt 0 view .LVU200
 593 0016 DA62     		str	r2, [r3, #44]
 594              		.loc 1 437 5 is_stmt 1 view .LVU201
 595              		.loc 1 437 27 is_stmt 0 view .LVU202
 596 0018 1A60     		str	r2, [r3]
 597              		.loc 1 438 5 is_stmt 1 view .LVU203
 598              		.loc 1 438 27 is_stmt 0 view .LVU204
 599 001a 5A60     		str	r2, [r3, #4]
 600              		.loc 1 439 5 is_stmt 1 view .LVU205
 601              		.loc 1 439 27 is_stmt 0 view .LVU206
 602 001c 5A62     		str	r2, [r3, #36]
 603              		.loc 1 440 5 is_stmt 1 view .LVU207
 604              		.loc 1 440 27 is_stmt 0 view .LVU208
 605 001e 9C63     		str	r4, [r3, #56]
 606              		.loc 1 444 5 is_stmt 1 view .LVU209
 607              		.loc 1 444 8 is_stmt 0 view .LVU210
 608 0020 02D0     		beq	.L65
 609              		.loc 1 455 1 view .LVU211
 610 0022 10BC     		pop	{r4}
 611              		.cfi_restore 4
 612              		.cfi_def_cfa_offset 0
 613 0024 7047     		bx	lr
 614              	.L62:
 615 0026 7047     		bx	lr
 616              	.L65:
 617              		.cfi_def_cfa_offset 4
 618              		.cfi_offset 4, -4
 619              		.loc 1 445 7 is_stmt 1 view .LVU212
 620              	.LVL28:
 621              	.LBB191:
 622              	.LBI191:
 623              		.loc 6 796 22 view .LVU213
 624              	.LBB192:
 625              		.loc 6 806 3 view .LVU214
 626              		.loc 6 806 19 is_stmt 0 view .LVU215
 627 0028 094B     		ldr	r3, .L66+4
ARM GAS  C:\Users\DEVELO~1\AppData\Local\Temp\ccuGzkMt.s 			page 12


 628              	.LBE192:
 629              	.LBE191:
 630              		.loc 1 455 1 view .LVU216
 631 002a 10BC     		pop	{r4}
 632              		.cfi_restore 4
 633              		.cfi_def_cfa_offset 0
 634              	.LBB194:
 635              	.LBB193:
 636              		.loc 6 806 19 view .LVU217
 637 002c D3F8D420 		ldr	r2, [r3, #212]
 638 0030 22F48032 		bic	r2, r2, #65536
 639 0034 C3F8D420 		str	r2, [r3, #212]
 640              		.loc 6 807 3 is_stmt 1 view .LVU218
 641              		.loc 6 807 21 is_stmt 0 view .LVU219
 642 0038 D3F8FC20 		ldr	r2, [r3, #252]
 643 003c 22F48032 		bic	r2, r2, #65536
 644 0040 C3F8FC20 		str	r2, [r3, #252]
 645              		.loc 6 808 3 is_stmt 1 view .LVU220
 646 0044 D3F8FC30 		ldr	r3, [r3, #252]
 647              	.LVL29:
 648              		.loc 6 808 3 is_stmt 0 view .LVU221
 649              	.LBE193:
 650              	.LBE194:
 651              		.loc 1 455 1 view .LVU222
 652 0048 7047     		bx	lr
 653              	.L67:
 654 004a 00BF     		.align	2
 655              	.L66:
 656 004c 00000000 		.word	.LANCHOR0
 657 0050 00440258 		.word	1476543488
 658              		.cfi_endproc
 659              	.LFE458:
 660              		.size	sdc_lld_stop, .-sdc_lld_stop
 661              		.section	.text.sdc_lld_start_clk,"ax",%progbits
 662              		.align	1
 663              		.p2align 4,,15
 664              		.global	sdc_lld_start_clk
 665              		.syntax unified
 666              		.thumb
 667              		.thumb_func
 668              		.type	sdc_lld_start_clk, %function
 669              	sdc_lld_start_clk:
 670              	.LVL30:
 671              	.LFB459:
 672              		.loc 1 464 41 is_stmt 1 view -0
 673              		.cfi_startproc
 674              		@ args = 0, pretend = 0, frame = 0
 675              		@ frame_needed = 0, uses_anonymous_args = 0
 676              		@ link register save eliminated.
 677              		.loc 1 467 3 view .LVU224
 678              	.LBB195:
 679              	.LBB196:
 680              		.loc 1 105 6 is_stmt 0 view .LVU225
 681 0000 0D4B     		ldr	r3, .L73
 682              	.LBE196:
 683              	.LBE195:
 684              		.loc 1 467 7 view .LVU226
ARM GAS  C:\Users\DEVELO~1\AppData\Local\Temp\ccuGzkMt.s 			page 13


 685 0002 D0E91121 		ldrd	r2, r1, [r0, #68]
 686              	.LVL31:
 687              	.LBB200:
 688              	.LBI195:
 689              		.loc 1 96 17 is_stmt 1 view .LVU227
 690              	.LBB197:
 691              		.loc 1 105 3 view .LVU228
 692              	.LBE197:
 693              	.LBE200:
 694              		.loc 1 464 41 is_stmt 0 view .LVU229
 695 0006 10B4     		push	{r4}
 696              		.cfi_def_cfa_offset 4
 697              		.cfi_offset 4, -4
 698              	.LBB201:
 699              	.LBB198:
 700              		.loc 1 105 6 view .LVU230
 701 0008 9942     		cmp	r1, r3
 702 000a 12D9     		bls	.L72
 703              		.loc 1 109 3 is_stmt 1 view .LVU231
 704              		.loc 1 109 62 is_stmt 0 view .LVU232
 705 000c 0B4B     		ldr	r3, .L73+4
 706              		.loc 1 109 22 view .LVU233
 707 000e C46A     		ldr	r4, [r0, #44]
 708              		.loc 1 109 62 view .LVU234
 709 0010 0B44     		add	r3, r3, r1
 710              		.loc 1 109 68 view .LVU235
 711 0012 0B48     		ldr	r0, .L73+8
 712              	.LVL32:
 713              		.loc 1 109 33 view .LVU236
 714 0014 6168     		ldr	r1, [r4, #4]
 715              		.loc 1 109 68 view .LVU237
 716 0016 1B0A     		lsrs	r3, r3, #8
 717 0018 A0FB0303 		umull	r0, r3, r0, r3
 718              		.loc 1 109 33 view .LVU238
 719 001c 01EB1313 		add	r3, r1, r3, lsr #4
 720              	.L70:
 721              	.LVL33:
 722              		.loc 1 109 33 view .LVU239
 723              	.LBE198:
 724              	.LBE201:
 725              		.loc 1 467 23 view .LVU240
 726 0020 5360     		str	r3, [r2, #4]
 727              		.loc 1 468 3 is_stmt 1 view .LVU241
 728              	.LBB202:
 729              	.LBB203:
 730              		.loc 2 784 3 is_stmt 0 view .LVU242
 731 0022 6420     		movs	r0, #100
 732              	.LBE203:
 733              	.LBE202:
 734              		.loc 1 468 22 view .LVU243
 735 0024 1368     		ldr	r3, [r2]
 736              		.loc 1 473 1 view .LVU244
 737 0026 10BC     		pop	{r4}
 738              		.cfi_remember_state
 739              		.cfi_restore 4
 740              		.cfi_def_cfa_offset 0
 741              		.loc 1 468 22 view .LVU245
ARM GAS  C:\Users\DEVELO~1\AppData\Local\Temp\ccuGzkMt.s 			page 14


 742 0028 43F00303 		orr	r3, r3, #3
 743 002c 1360     		str	r3, [r2]
 744              		.loc 1 472 3 is_stmt 1 view .LVU246
 745              	.LVL34:
 746              	.LBB205:
 747              	.LBI202:
 748              		.loc 2 782 20 view .LVU247
 749              	.LBB204:
 750              		.loc 2 784 3 view .LVU248
 751 002e FFF7FEBF 		b	chThdSleep
 752              	.LVL35:
 753              	.L72:
 754              		.cfi_restore_state
 755              		.loc 2 784 3 is_stmt 0 view .LVU249
 756              	.LBE204:
 757              	.LBE205:
 758              	.LBB206:
 759              	.LBB199:
 760              		.loc 1 106 5 is_stmt 1 view .LVU250
 761              		.loc 1 106 24 is_stmt 0 view .LVU251
 762 0032 C36A     		ldr	r3, [r0, #44]
 763 0034 5B68     		ldr	r3, [r3, #4]
 764 0036 F3E7     		b	.L70
 765              	.L74:
 766              		.align	2
 767              	.L73:
 768 0038 801A0600 		.word	400000
 769 003c FF340C00 		.word	799999
 770 0040 598B4F01 		.word	21990233
 771              	.LBE199:
 772              	.LBE206:
 773              		.cfi_endproc
 774              	.LFE459:
 775              		.size	sdc_lld_start_clk, .-sdc_lld_start_clk
 776              		.section	.text.sdc_lld_set_data_clk,"ax",%progbits
 777              		.align	1
 778              		.p2align 4,,15
 779              		.global	sdc_lld_set_data_clk
 780              		.syntax unified
 781              		.thumb
 782              		.thumb_func
 783              		.type	sdc_lld_set_data_clk, %function
 784              	sdc_lld_set_data_clk:
 785              	.LVL36:
 786              	.LFB460:
 787              		.loc 1 483 61 is_stmt 1 view -0
 788              		.cfi_startproc
 789              		@ args = 0, pretend = 0, frame = 0
 790              		@ frame_needed = 0, uses_anonymous_args = 0
 791              		@ link register save eliminated.
 792              		.loc 1 485 3 view .LVU253
 793              		.loc 1 485 6 is_stmt 0 view .LVU254
 794 0000 0129     		cmp	r1, #1
 795              		.loc 1 486 46 view .LVU255
 796 0002 164B     		ldr	r3, .L85
 797              	.LBB207:
 798              	.LBB208:
ARM GAS  C:\Users\DEVELO~1\AppData\Local\Temp\ccuGzkMt.s 			page 15


 799              		.loc 1 105 16 view .LVU256
 800 0004 816C     		ldr	r1, [r0, #72]
 801              	.LVL37:
 802              		.loc 1 105 16 view .LVU257
 803              	.LBE208:
 804              	.LBE207:
 805              		.loc 1 483 61 view .LVU258
 806 0006 30B4     		push	{r4, r5}
 807              		.cfi_def_cfa_offset 8
 808              		.cfi_offset 4, -8
 809              		.cfi_offset 5, -4
 810              		.loc 1 486 31 view .LVU259
 811 0008 446C     		ldr	r4, [r0, #68]
 812              		.loc 1 485 6 view .LVU260
 813 000a 17D0     		beq	.L84
 814              		.loc 1 495 5 is_stmt 1 view .LVU261
 815              	.LBB212:
 816              	.LBB213:
 817              		.loc 1 105 6 is_stmt 0 view .LVU262
 818 000c 144A     		ldr	r2, .L85+4
 819              	.LBE213:
 820              	.LBE212:
 821              		.loc 1 495 38 view .LVU263
 822 000e 6568     		ldr	r5, [r4, #4]
 823              	.LBB217:
 824              	.LBB214:
 825              		.loc 1 105 6 view .LVU264
 826 0010 9142     		cmp	r1, r2
 827              	.LBE214:
 828              	.LBE217:
 829              		.loc 1 495 46 view .LVU265
 830 0012 03EA0503 		and	r3, r3, r5
 831              	.LVL38:
 832              	.LBB218:
 833              	.LBI212:
 834              		.loc 1 96 17 is_stmt 1 view .LVU266
 835              	.LBB215:
 836              		.loc 1 105 3 view .LVU267
 837              		.loc 1 105 6 is_stmt 0 view .LVU268
 838 0016 0ED9     		bls	.L83
 839              		.loc 1 109 3 is_stmt 1 view .LVU269
 840              		.loc 1 109 62 is_stmt 0 view .LVU270
 841 0018 124A     		ldr	r2, .L85+8
 842              		.loc 1 109 22 view .LVU271
 843 001a C56A     		ldr	r5, [r0, #44]
 844              		.loc 1 109 62 view .LVU272
 845 001c 0A44     		add	r2, r2, r1
 846              		.loc 1 109 68 view .LVU273
 847 001e 1248     		ldr	r0, .L85+12
 848              	.LVL39:
 849              		.loc 1 109 33 view .LVU274
 850 0020 6968     		ldr	r1, [r5, #4]
 851              		.loc 1 109 68 view .LVU275
 852 0022 A0FB0202 		umull	r0, r2, r0, r2
 853              		.loc 1 109 33 view .LVU276
 854 0026 01EB1262 		add	r2, r1, r2, lsr #24
 855              	.LVL40:
ARM GAS  C:\Users\DEVELO~1\AppData\Local\Temp\ccuGzkMt.s 			page 16


 856              	.L81:
 857              		.loc 1 109 33 view .LVU277
 858              	.LBE215:
 859              	.LBE218:
 860              		.loc 1 496 75 view .LVU278
 861 002a 1343     		orrs	r3, r3, r2
 862              		.loc 1 498 58 view .LVU279
 863 002c 43F48053 		orr	r3, r3, #4096
 864              		.loc 1 495 24 view .LVU280
 865 0030 6360     		str	r3, [r4, #4]
 866              		.loc 1 503 1 view .LVU281
 867 0032 30BC     		pop	{r4, r5}
 868              		.cfi_remember_state
 869              		.cfi_restore 5
 870              		.cfi_restore 4
 871              		.cfi_def_cfa_offset 0
 872 0034 7047     		bx	lr
 873              	.LVL41:
 874              	.L83:
 875              		.cfi_restore_state
 876              	.LBB219:
 877              	.LBB216:
 878              		.loc 1 106 5 is_stmt 1 view .LVU282
 879              		.loc 1 106 24 is_stmt 0 view .LVU283
 880 0036 C26A     		ldr	r2, [r0, #44]
 881 0038 5268     		ldr	r2, [r2, #4]
 882 003a F6E7     		b	.L81
 883              	.L84:
 884              		.loc 1 106 24 view .LVU284
 885              	.LBE216:
 886              	.LBE219:
 887              		.loc 1 486 5 is_stmt 1 view .LVU285
 888              	.LBB220:
 889              	.LBB209:
 890              		.loc 1 105 6 is_stmt 0 view .LVU286
 891 003c 0B4A     		ldr	r2, .L85+16
 892              	.LBE209:
 893              	.LBE220:
 894              		.loc 1 486 38 view .LVU287
 895 003e 6568     		ldr	r5, [r4, #4]
 896              	.LBB221:
 897              	.LBB210:
 898              		.loc 1 105 6 view .LVU288
 899 0040 9142     		cmp	r1, r2
 900              	.LBE210:
 901              	.LBE221:
 902              		.loc 1 486 46 view .LVU289
 903 0042 03EA0503 		and	r3, r3, r5
 904              	.LVL42:
 905              	.LBB222:
 906              	.LBI207:
 907              		.loc 1 96 17 is_stmt 1 view .LVU290
 908              	.LBB211:
 909              		.loc 1 105 3 view .LVU291
 910              		.loc 1 105 6 is_stmt 0 view .LVU292
 911 0046 F6D9     		bls	.L83
 912              		.loc 1 109 3 is_stmt 1 view .LVU293
ARM GAS  C:\Users\DEVELO~1\AppData\Local\Temp\ccuGzkMt.s 			page 17


 913              		.loc 1 109 62 is_stmt 0 view .LVU294
 914 0048 094A     		ldr	r2, .L85+20
 915              		.loc 1 109 22 view .LVU295
 916 004a C56A     		ldr	r5, [r0, #44]
 917              		.loc 1 109 62 view .LVU296
 918 004c 0A44     		add	r2, r2, r1
 919              		.loc 1 109 68 view .LVU297
 920 004e 0648     		ldr	r0, .L85+12
 921              	.LVL43:
 922              		.loc 1 109 33 view .LVU298
 923 0050 6968     		ldr	r1, [r5, #4]
 924              		.loc 1 109 68 view .LVU299
 925 0052 A0FB0202 		umull	r0, r2, r0, r2
 926              		.loc 1 109 33 view .LVU300
 927 0056 01EB5262 		add	r2, r1, r2, lsr #25
 928              	.LVL44:
 929              		.loc 1 109 33 view .LVU301
 930 005a E6E7     		b	.L81
 931              	.L86:
 932              		.align	2
 933              	.L85:
 934 005c 00ECFFFF 		.word	-5120
 935 0060 40787D01 		.word	25000000
 936 0064 7FF0FA02 		.word	49999999
 937 0068 893BE655 		.word	1441151881
 938 006c 80F0FA02 		.word	50000000
 939 0070 FFE0F505 		.word	99999999
 940              	.LBE211:
 941              	.LBE222:
 942              		.cfi_endproc
 943              	.LFE460:
 944              		.size	sdc_lld_set_data_clk, .-sdc_lld_set_data_clk
 945              		.section	.text.sdc_lld_stop_clk,"ax",%progbits
 946              		.align	1
 947              		.p2align 4,,15
 948              		.global	sdc_lld_stop_clk
 949              		.syntax unified
 950              		.thumb
 951              		.thumb_func
 952              		.type	sdc_lld_stop_clk, %function
 953              	sdc_lld_stop_clk:
 954              	.LVL45:
 955              	.LFB461:
 956              		.loc 1 512 40 is_stmt 1 view -0
 957              		.cfi_startproc
 958              		@ args = 0, pretend = 0, frame = 0
 959              		@ frame_needed = 0, uses_anonymous_args = 0
 960              		@ link register save eliminated.
 961              		.loc 1 514 3 view .LVU303
 962              		.loc 1 514 22 is_stmt 0 view .LVU304
 963 0000 0022     		movs	r2, #0
 964              		.loc 1 514 7 view .LVU305
 965 0002 436C     		ldr	r3, [r0, #68]
 966              		.loc 1 514 22 view .LVU306
 967 0004 5A60     		str	r2, [r3, #4]
 968              		.loc 1 515 3 is_stmt 1 view .LVU307
 969              		.loc 1 515 22 is_stmt 0 view .LVU308
ARM GAS  C:\Users\DEVELO~1\AppData\Local\Temp\ccuGzkMt.s 			page 18


 970 0006 1A60     		str	r2, [r3]
 971              		.loc 1 516 1 view .LVU309
 972 0008 7047     		bx	lr
 973              		.cfi_endproc
 974              	.LFE461:
 975              		.size	sdc_lld_stop_clk, .-sdc_lld_stop_clk
 976 000a 00BF     		.section	.text.sdc_lld_set_bus_mode,"ax",%progbits
 977              		.align	1
 978              		.p2align 4,,15
 979              		.global	sdc_lld_set_bus_mode
 980              		.syntax unified
 981              		.thumb
 982              		.thumb_func
 983              		.type	sdc_lld_set_bus_mode, %function
 984              	sdc_lld_set_bus_mode:
 985              	.LVL46:
 986              	.LFB462:
 987              		.loc 1 526 63 is_stmt 1 view -0
 988              		.cfi_startproc
 989              		@ args = 0, pretend = 0, frame = 0
 990              		@ frame_needed = 0, uses_anonymous_args = 0
 991              		@ link register save eliminated.
 992              		.loc 1 527 3 view .LVU311
 993              		.loc 1 527 22 is_stmt 0 view .LVU312
 994 0000 426C     		ldr	r2, [r0, #68]
 995              		.loc 1 529 3 view .LVU313
 996 0002 0129     		cmp	r1, #1
 997              		.loc 1 527 29 view .LVU314
 998 0004 5368     		ldr	r3, [r2, #4]
 999              		.loc 1 527 12 view .LVU315
 1000 0006 23F44043 		bic	r3, r3, #49152
 1001              	.LVL47:
 1002              		.loc 1 529 3 is_stmt 1 view .LVU316
 1003 000a 07D0     		beq	.L89
 1004 000c 0229     		cmp	r1, #2
 1005 000e 01D0     		beq	.L90
 1006 0010 11B1     		cbz	r1, .L92
 1007              		.loc 1 540 1 is_stmt 0 view .LVU317
 1008 0012 7047     		bx	lr
 1009              	.L90:
 1010              		.loc 1 537 5 is_stmt 1 view .LVU318
 1011              		.loc 1 537 30 is_stmt 0 view .LVU319
 1012 0014 43F40043 		orr	r3, r3, #32768
 1013              	.LVL48:
 1014              	.L92:
 1015              		.loc 1 537 24 view .LVU320
 1016 0018 5360     		str	r3, [r2, #4]
 1017              		.loc 1 538 5 is_stmt 1 view .LVU321
 1018              		.loc 1 540 1 is_stmt 0 view .LVU322
 1019 001a 7047     		bx	lr
 1020              	.LVL49:
 1021              	.L89:
 1022              		.loc 1 534 5 is_stmt 1 view .LVU323
 1023              		.loc 1 534 30 is_stmt 0 view .LVU324
 1024 001c 43F48043 		orr	r3, r3, #16384
 1025              	.LVL50:
 1026              		.loc 1 534 24 view .LVU325
ARM GAS  C:\Users\DEVELO~1\AppData\Local\Temp\ccuGzkMt.s 			page 19


 1027 0020 5360     		str	r3, [r2, #4]
 1028              		.loc 1 535 5 is_stmt 1 view .LVU326
 1029 0022 7047     		bx	lr
 1030              		.cfi_endproc
 1031              	.LFE462:
 1032              		.size	sdc_lld_set_bus_mode, .-sdc_lld_set_bus_mode
 1033              		.section	.text.sdc_lld_send_cmd_none,"ax",%progbits
 1034              		.align	1
 1035              		.p2align 4,,15
 1036              		.global	sdc_lld_send_cmd_none
 1037              		.syntax unified
 1038              		.thumb
 1039              		.thumb_func
 1040              		.type	sdc_lld_send_cmd_none, %function
 1041              	sdc_lld_send_cmd_none:
 1042              	.LVL51:
 1043              	.LFB463:
 1044              		.loc 1 551 72 view -0
 1045              		.cfi_startproc
 1046              		@ args = 0, pretend = 0, frame = 0
 1047              		@ frame_needed = 0, uses_anonymous_args = 0
 1048              		@ link register save eliminated.
 1049              		.loc 1 553 3 view .LVU328
 1050              		.loc 1 553 7 is_stmt 0 view .LVU329
 1051 0000 406C     		ldr	r0, [r0, #68]
 1052              	.LVL52:
 1053              		.loc 1 554 36 view .LVU330
 1054 0002 41F48051 		orr	r1, r1, #4096
 1055              	.LVL53:
 1056              		.loc 1 553 20 view .LVU331
 1057 0006 8260     		str	r2, [r0, #8]
 1058              		.loc 1 554 3 is_stmt 1 view .LVU332
 1059              		.loc 1 554 20 is_stmt 0 view .LVU333
 1060 0008 C160     		str	r1, [r0, #12]
 1061              		.loc 1 555 3 is_stmt 1 view .LVU334
 1062              	.L94:
 1063              		.loc 1 556 3 discriminator 1 view .LVU335
 1064              		.loc 1 555 49 discriminator 1 view .LVU336
 1065              		.loc 1 555 22 is_stmt 0 discriminator 1 view .LVU337
 1066 000a 436B     		ldr	r3, [r0, #52]
 1067              		.loc 1 555 49 discriminator 1 view .LVU338
 1068 000c 1B06     		lsls	r3, r3, #24
 1069 000e FCD5     		bpl	.L94
 1070              		.loc 1 557 3 is_stmt 1 view .LVU339
 1071              		.loc 1 557 20 is_stmt 0 view .LVU340
 1072 0010 8023     		movs	r3, #128
 1073 0012 8363     		str	r3, [r0, #56]
 1074              		.loc 1 558 1 view .LVU341
 1075 0014 7047     		bx	lr
 1076              		.cfi_endproc
 1077              	.LFE463:
 1078              		.size	sdc_lld_send_cmd_none, .-sdc_lld_send_cmd_none
 1079 0016 00BF     		.section	.text.sdc_lld_send_cmd_short,"ax",%progbits
 1080              		.align	1
 1081              		.p2align 4,,15
 1082              		.global	sdc_lld_send_cmd_short
 1083              		.syntax unified
ARM GAS  C:\Users\DEVELO~1\AppData\Local\Temp\ccuGzkMt.s 			page 20


 1084              		.thumb
 1085              		.thumb_func
 1086              		.type	sdc_lld_send_cmd_short, %function
 1087              	sdc_lld_send_cmd_short:
 1088              	.LVL54:
 1089              	.LFB464:
 1090              		.loc 1 576 45 is_stmt 1 view -0
 1091              		.cfi_startproc
 1092              		@ args = 0, pretend = 0, frame = 0
 1093              		@ frame_needed = 0, uses_anonymous_args = 0
 1094              		.loc 1 577 3 view .LVU343
 1095              		.loc 1 579 3 view .LVU344
 1096              		.loc 1 576 45 is_stmt 0 view .LVU345
 1097 0000 10B5     		push	{r4, lr}
 1098              		.cfi_def_cfa_offset 8
 1099              		.cfi_offset 4, -8
 1100              		.cfi_offset 14, -4
 1101              		.loc 1 580 59 view .LVU346
 1102 0002 41F48851 		orr	r1, r1, #4352
 1103              	.LVL55:
 1104              		.loc 1 579 7 view .LVU347
 1105 0006 446C     		ldr	r4, [r0, #68]
 1106              		.loc 1 579 20 view .LVU348
 1107 0008 A260     		str	r2, [r4, #8]
 1108              		.loc 1 580 3 is_stmt 1 view .LVU349
 1109              		.loc 1 580 20 is_stmt 0 view .LVU350
 1110 000a E160     		str	r1, [r4, #12]
 1111              		.loc 1 581 3 is_stmt 1 view .LVU351
 1112              	.LVL56:
 1113              	.L98:
 1114              		.loc 1 582 59 discriminator 1 view .LVU352
 1115              		.loc 1 581 16 is_stmt 0 discriminator 1 view .LVU353
 1116 000c 616B     		ldr	r1, [r4, #52]
 1117              	.LVL57:
 1118              		.loc 1 582 59 discriminator 1 view .LVU354
 1119 000e 11F04502 		ands	r2, r1, #69
 1120 0012 FBD0     		beq	.L98
 1121              		.loc 1 584 3 is_stmt 1 view .LVU355
 1122              		.loc 1 584 20 is_stmt 0 view .LVU356
 1123 0014 A263     		str	r2, [r4, #56]
 1124              		.loc 1 586 3 is_stmt 1 view .LVU357
 1125              		.loc 1 586 6 is_stmt 0 view .LVU358
 1126 0016 11F00402 		ands	r2, r1, #4
 1127 001a 03D1     		bne	.L104
 1128              		.loc 1 590 3 is_stmt 1 view .LVU359
 1129              		.loc 1 590 22 is_stmt 0 view .LVU360
 1130 001c 6169     		ldr	r1, [r4, #20]
 1131              	.LVL58:
 1132              		.loc 1 591 10 view .LVU361
 1133 001e 1046     		mov	r0, r2
 1134              	.LVL59:
 1135              		.loc 1 590 9 view .LVU362
 1136 0020 1960     		str	r1, [r3]
 1137              		.loc 1 591 3 is_stmt 1 view .LVU363
 1138              		.loc 1 592 1 is_stmt 0 view .LVU364
 1139 0022 10BD     		pop	{r4, pc}
 1140              	.LVL60:
ARM GAS  C:\Users\DEVELO~1\AppData\Local\Temp\ccuGzkMt.s 			page 21


 1141              	.L104:
 1142              		.loc 1 587 5 is_stmt 1 view .LVU365
 1143 0024 FFF7FEFF 		bl	sdc_lld_collect_errors
 1144              	.LVL61:
 1145              		.loc 1 588 5 view .LVU366
 1146              		.loc 1 588 12 is_stmt 0 view .LVU367
 1147 0028 0120     		movs	r0, #1
 1148              	.LVL62:
 1149              		.loc 1 592 1 view .LVU368
 1150 002a 10BD     		pop	{r4, pc}
 1151              		.cfi_endproc
 1152              	.LFE464:
 1153              		.size	sdc_lld_send_cmd_short, .-sdc_lld_send_cmd_short
 1154              		.section	.text.sdc_lld_send_cmd_short_crc,"ax",%progbits
 1155              		.align	1
 1156              		.p2align 4,,15
 1157              		.global	sdc_lld_send_cmd_short_crc
 1158              		.syntax unified
 1159              		.thumb
 1160              		.thumb_func
 1161              		.type	sdc_lld_send_cmd_short_crc, %function
 1162              	sdc_lld_send_cmd_short_crc:
 1163              	.LVL63:
 1164              	.LFB465:
 1165              		.loc 1 609 49 is_stmt 1 view -0
 1166              		.cfi_startproc
 1167              		@ args = 0, pretend = 0, frame = 0
 1168              		@ frame_needed = 0, uses_anonymous_args = 0
 1169              		.loc 1 610 3 view .LVU370
 1170              		.loc 1 612 3 view .LVU371
 1171              		.loc 1 609 49 is_stmt 0 view .LVU372
 1172 0000 10B5     		push	{r4, lr}
 1173              		.cfi_def_cfa_offset 8
 1174              		.cfi_offset 4, -8
 1175              		.cfi_offset 14, -4
 1176              		.loc 1 613 59 view .LVU373
 1177 0002 41F48851 		orr	r1, r1, #4352
 1178              	.LVL64:
 1179              		.loc 1 612 7 view .LVU374
 1180 0006 446C     		ldr	r4, [r0, #68]
 1181              		.loc 1 612 20 view .LVU375
 1182 0008 A260     		str	r2, [r4, #8]
 1183              		.loc 1 613 3 is_stmt 1 view .LVU376
 1184              		.loc 1 613 20 is_stmt 0 view .LVU377
 1185 000a E160     		str	r1, [r4, #12]
 1186              		.loc 1 614 3 is_stmt 1 view .LVU378
 1187              	.LVL65:
 1188              	.L106:
 1189              		.loc 1 615 59 discriminator 1 view .LVU379
 1190              		.loc 1 614 16 is_stmt 0 discriminator 1 view .LVU380
 1191 000c 616B     		ldr	r1, [r4, #52]
 1192              	.LVL66:
 1193              		.loc 1 615 59 discriminator 1 view .LVU381
 1194 000e 11F04502 		ands	r2, r1, #69
 1195 0012 FBD0     		beq	.L106
 1196              		.loc 1 617 3 is_stmt 1 view .LVU382
 1197              		.loc 1 617 20 is_stmt 0 view .LVU383
ARM GAS  C:\Users\DEVELO~1\AppData\Local\Temp\ccuGzkMt.s 			page 22


 1198 0014 A263     		str	r2, [r4, #56]
 1199              		.loc 1 619 3 is_stmt 1 view .LVU384
 1200              		.loc 1 619 6 is_stmt 0 view .LVU385
 1201 0016 11F00502 		ands	r2, r1, #5
 1202 001a 03D1     		bne	.L112
 1203              		.loc 1 623 3 is_stmt 1 view .LVU386
 1204              		.loc 1 623 22 is_stmt 0 view .LVU387
 1205 001c 6169     		ldr	r1, [r4, #20]
 1206              	.LVL67:
 1207              		.loc 1 624 10 view .LVU388
 1208 001e 1046     		mov	r0, r2
 1209              	.LVL68:
 1210              		.loc 1 623 9 view .LVU389
 1211 0020 1960     		str	r1, [r3]
 1212              		.loc 1 624 3 is_stmt 1 view .LVU390
 1213              		.loc 1 625 1 is_stmt 0 view .LVU391
 1214 0022 10BD     		pop	{r4, pc}
 1215              	.LVL69:
 1216              	.L112:
 1217              		.loc 1 620 5 is_stmt 1 view .LVU392
 1218 0024 FFF7FEFF 		bl	sdc_lld_collect_errors
 1219              	.LVL70:
 1220              		.loc 1 621 5 view .LVU393
 1221              		.loc 1 621 12 is_stmt 0 view .LVU394
 1222 0028 0120     		movs	r0, #1
 1223              	.LVL71:
 1224              		.loc 1 625 1 view .LVU395
 1225 002a 10BD     		pop	{r4, pc}
 1226              		.cfi_endproc
 1227              	.LFE465:
 1228              		.size	sdc_lld_send_cmd_short_crc, .-sdc_lld_send_cmd_short_crc
 1229              		.section	.text.sdc_lld_send_cmd_long_crc,"ax",%progbits
 1230              		.align	1
 1231              		.p2align 4,,15
 1232              		.global	sdc_lld_send_cmd_long_crc
 1233              		.syntax unified
 1234              		.thumb
 1235              		.thumb_func
 1236              		.type	sdc_lld_send_cmd_long_crc, %function
 1237              	sdc_lld_send_cmd_long_crc:
 1238              	.LVL72:
 1239              	.LFB466:
 1240              		.loc 1 642 48 is_stmt 1 view -0
 1241              		.cfi_startproc
 1242              		@ args = 0, pretend = 0, frame = 0
 1243              		@ frame_needed = 0, uses_anonymous_args = 0
 1244              		.loc 1 643 3 view .LVU397
 1245              		.loc 1 645 3 view .LVU398
 1246              		.loc 1 647 3 view .LVU399
 1247              		.loc 1 642 48 is_stmt 0 view .LVU400
 1248 0000 10B5     		push	{r4, lr}
 1249              		.cfi_def_cfa_offset 8
 1250              		.cfi_offset 4, -8
 1251              		.cfi_offset 14, -4
 1252              		.loc 1 648 82 view .LVU401
 1253 0002 41F49851 		orr	r1, r1, #4864
 1254              	.LVL73:
ARM GAS  C:\Users\DEVELO~1\AppData\Local\Temp\ccuGzkMt.s 			page 23


 1255              		.loc 1 647 7 view .LVU402
 1256 0006 446C     		ldr	r4, [r0, #68]
 1257              		.loc 1 647 20 view .LVU403
 1258 0008 A260     		str	r2, [r4, #8]
 1259              		.loc 1 648 3 is_stmt 1 view .LVU404
 1260              		.loc 1 648 20 is_stmt 0 view .LVU405
 1261 000a E160     		str	r1, [r4, #12]
 1262              		.loc 1 650 3 is_stmt 1 view .LVU406
 1263              	.LVL74:
 1264              	.L114:
 1265              		.loc 1 651 59 discriminator 1 view .LVU407
 1266              		.loc 1 650 16 is_stmt 0 discriminator 1 view .LVU408
 1267 000c 616B     		ldr	r1, [r4, #52]
 1268              	.LVL75:
 1269              		.loc 1 651 59 discriminator 1 view .LVU409
 1270 000e 11F04502 		ands	r2, r1, #69
 1271 0012 FBD0     		beq	.L114
 1272              		.loc 1 653 3 is_stmt 1 view .LVU410
 1273              		.loc 1 653 20 is_stmt 0 view .LVU411
 1274 0014 A263     		str	r2, [r4, #56]
 1275              		.loc 1 655 3 is_stmt 1 view .LVU412
 1276              		.loc 1 655 6 is_stmt 0 view .LVU413
 1277 0016 11F03F02 		ands	r2, r1, #63
 1278 001a 09D1     		bne	.L120
 1279              		.loc 1 660 3 is_stmt 1 view .LVU414
 1280              	.LVL76:
 1281              		.loc 1 660 24 is_stmt 0 view .LVU415
 1282 001c 216A     		ldr	r1, [r4, #32]
 1283              	.LVL77:
 1284              		.loc 1 664 10 view .LVU416
 1285 001e 1046     		mov	r0, r2
 1286              	.LVL78:
 1287              		.loc 1 660 11 view .LVU417
 1288 0020 1960     		str	r1, [r3]
 1289              		.loc 1 661 3 is_stmt 1 view .LVU418
 1290              	.LVL79:
 1291              		.loc 1 661 24 is_stmt 0 view .LVU419
 1292 0022 E269     		ldr	r2, [r4, #28]
 1293              		.loc 1 661 11 view .LVU420
 1294 0024 5A60     		str	r2, [r3, #4]
 1295              		.loc 1 662 3 is_stmt 1 view .LVU421
 1296              	.LVL80:
 1297              		.loc 1 662 24 is_stmt 0 view .LVU422
 1298 0026 A269     		ldr	r2, [r4, #24]
 1299              		.loc 1 662 11 view .LVU423
 1300 0028 9A60     		str	r2, [r3, #8]
 1301              		.loc 1 663 3 is_stmt 1 view .LVU424
 1302              		.loc 1 663 24 is_stmt 0 view .LVU425
 1303 002a 6269     		ldr	r2, [r4, #20]
 1304              		.loc 1 663 11 view .LVU426
 1305 002c DA60     		str	r2, [r3, #12]
 1306              		.loc 1 664 3 is_stmt 1 view .LVU427
 1307              		.loc 1 665 1 is_stmt 0 view .LVU428
 1308 002e 10BD     		pop	{r4, pc}
 1309              	.LVL81:
 1310              	.L120:
 1311              		.loc 1 656 5 is_stmt 1 view .LVU429
ARM GAS  C:\Users\DEVELO~1\AppData\Local\Temp\ccuGzkMt.s 			page 24


 1312 0030 FFF7FEFF 		bl	sdc_lld_collect_errors
 1313              	.LVL82:
 1314              		.loc 1 657 5 view .LVU430
 1315              		.loc 1 657 12 is_stmt 0 view .LVU431
 1316 0034 0120     		movs	r0, #1
 1317              	.LVL83:
 1318              		.loc 1 665 1 view .LVU432
 1319 0036 10BD     		pop	{r4, pc}
 1320              		.cfi_endproc
 1321              	.LFE466:
 1322              		.size	sdc_lld_send_cmd_long_crc, .-sdc_lld_send_cmd_long_crc
 1323              		.section	.text.sdc_lld_read_special,"ax",%progbits
 1324              		.align	1
 1325              		.p2align 4,,15
 1326              		.global	sdc_lld_read_special
 1327              		.syntax unified
 1328              		.thumb
 1329              		.thumb_func
 1330              		.type	sdc_lld_read_special, %function
 1331              	sdc_lld_read_special:
 1332              	.LVL84:
 1333              	.LFB467:
 1334              		.loc 1 684 54 is_stmt 1 view -0
 1335              		.cfi_startproc
 1336              		@ args = 4, pretend = 0, frame = 0
 1337              		@ frame_needed = 0, uses_anonymous_args = 0
 1338              		.loc 1 686 3 view .LVU434
 1339              		.loc 1 684 54 is_stmt 0 view .LVU435
 1340 0000 2DE9F843 		push	{r3, r4, r5, r6, r7, r8, r9, lr}
 1341              		.cfi_def_cfa_offset 32
 1342              		.cfi_offset 3, -32
 1343              		.cfi_offset 4, -28
 1344              		.cfi_offset 5, -24
 1345              		.cfi_offset 6, -20
 1346              		.cfi_offset 7, -16
 1347              		.cfi_offset 8, -12
 1348              		.cfi_offset 9, -8
 1349              		.cfi_offset 14, -4
 1350              		.loc 1 684 54 view .LVU436
 1351 0004 1646     		mov	r6, r2
 1352 0006 9846     		mov	r8, r3
 1353 0008 0F46     		mov	r7, r1
 1354              	.LBB254:
 1355              	.LBB255:
 1356              	.LBB256:
 1357              	.LBB257:
 1358              		.loc 1 122 41 view .LVU437
 1359 000a 3749     		ldr	r1, .L139
 1360              	.LVL85:
 1361              		.loc 1 122 41 view .LVU438
 1362              	.LBE257:
 1363              	.LBE256:
 1364              	.LBE255:
 1365              	.LBE254:
 1366              		.loc 1 684 54 view .LVU439
 1367 000c 0546     		mov	r5, r0
 1368              	.LVL86:
ARM GAS  C:\Users\DEVELO~1\AppData\Local\Temp\ccuGzkMt.s 			page 25


 1369              	.LBB264:
 1370              	.LBI254:
 1371              		.loc 1 139 13 is_stmt 1 view .LVU440
 1372              	.LBB260:
 1373              		.loc 1 141 3 view .LVU441
 1374              		.loc 1 141 3 view .LVU442
 1375              		.loc 1 141 3 view .LVU443
 1376              		.loc 1 143 3 view .LVU444
 1377              	.LBB259:
 1378              	.LBB258:
 1379              		.loc 1 122 27 is_stmt 0 view .LVU445
 1380 000e D0E91124 		ldrd	r2, r4, [r0, #68]
 1381              	.LVL87:
 1382              		.loc 1 121 30 view .LVU446
 1383 0012 5368     		ldr	r3, [r2, #4]
 1384              	.LVL88:
 1385              		.loc 1 122 3 is_stmt 1 view .LVU447
 1386              		.loc 1 121 38 is_stmt 0 view .LVU448
 1387 0014 C3F30903 		ubfx	r3, r3, #0, #10
 1388              	.LVL89:
 1389              		.loc 1 121 12 view .LVU449
 1390 0018 0133     		adds	r3, r3, #1
 1391              		.loc 1 122 34 view .LVU450
 1392 001a 5B00     		lsls	r3, r3, #1
 1393              		.loc 1 122 27 view .LVU451
 1394 001c B4FBF3F4 		udiv	r4, r4, r3
 1395              		.loc 1 122 41 view .LVU452
 1396 0020 A1FB0414 		umull	r1, r4, r1, r4
 1397              		.loc 1 122 50 view .LVU453
 1398 0024 42F21073 		movw	r3, #10000
 1399              		.loc 1 122 41 view .LVU454
 1400 0028 A409     		lsrs	r4, r4, #6
 1401              		.loc 1 122 50 view .LVU455
 1402 002a 03FB04F4 		mul	r4, r3, r4
 1403              		.loc 1 122 50 view .LVU456
 1404              	.LBE258:
 1405              	.LBE259:
 1406              		.loc 1 143 23 view .LVU457
 1407 002e 5462     		str	r4, [r2, #36]
 1408              		.loc 1 146 3 is_stmt 1 view .LVU458
 1409              		.loc 1 146 7 is_stmt 0 view .LVU459
 1410 0030 FFF7FEFF 		bl	_sdc_wait_for_transfer_state
 1411              	.LVL90:
 1412              		.loc 1 146 6 view .LVU460
 1413 0034 0028     		cmp	r0, #0
 1414 0036 2ED1     		bne	.L122
 1415              		.loc 1 151 7 view .LVU461
 1416 0038 6C6C     		ldr	r4, [r5, #68]
 1417              		.loc 1 152 26 view .LVU462
 1418 003a 0122     		movs	r2, #1
 1419              	.LBE260:
 1420              	.LBE264:
 1421              	.LBB265:
 1422              	.LBB266:
 1423              		.loc 1 613 59 view .LVU463
 1424 003c 48F48853 		orr	r3, r8, #4352
 1425 0040 8146     		mov	r9, r0
ARM GAS  C:\Users\DEVELO~1\AppData\Local\Temp\ccuGzkMt.s 			page 26


 1426              	.LBE266:
 1427              	.LBE265:
 1428              	.LBB270:
 1429              	.LBB261:
 1430              		.loc 1 151 3 is_stmt 1 view .LVU464
 1431              		.loc 1 151 26 is_stmt 0 view .LVU465
 1432 0042 A765     		str	r7, [r4, #88]
 1433              		.loc 1 152 3 is_stmt 1 view .LVU466
 1434              		.loc 1 152 26 is_stmt 0 view .LVU467
 1435 0044 2265     		str	r2, [r4, #80]
 1436              		.loc 1 155 3 is_stmt 1 view .LVU468
 1437              		.loc 1 155 22 is_stmt 0 view .LVU469
 1438 0046 4FF0FF32 		mov	r2, #-1
 1439              	.LBE261:
 1440              	.LBE270:
 1441              		.loc 1 689 7 view .LVU470
 1442 004a E86C     		ldr	r0, [r5, #76]
 1443              	.LBB271:
 1444              	.LBB262:
 1445              		.loc 1 155 22 view .LVU471
 1446 004c A263     		str	r2, [r4, #56]
 1447              		.loc 1 156 3 is_stmt 1 view .LVU472
 1448              		.loc 1 156 22 is_stmt 0 view .LVU473
 1449 004e 4FF49572 		mov	r2, #298
 1450 0052 E263     		str	r2, [r4, #60]
 1451              		.loc 1 160 3 is_stmt 1 view .LVU474
 1452              		.loc 1 163 22 is_stmt 0 view .LVU475
 1453 0054 42F20702 		movw	r2, #8199
 1454              		.loc 1 160 22 view .LVU476
 1455 0058 A662     		str	r6, [r4, #40]
 1456              		.loc 1 163 3 is_stmt 1 view .LVU477
 1457              		.loc 1 163 22 is_stmt 0 view .LVU478
 1458 005a E262     		str	r2, [r4, #44]
 1459              		.loc 1 168 3 is_stmt 1 view .LVU479
 1460              	.LVL91:
 1461              		.loc 1 168 3 is_stmt 0 view .LVU480
 1462              	.LBE262:
 1463              	.LBE271:
 1464              		.loc 1 689 3 is_stmt 1 view .LVU481
 1465              	.LBB272:
 1466              	.LBI265:
 1467              		.loc 1 608 6 view .LVU482
 1468              	.LBB267:
 1469              		.loc 1 610 3 view .LVU483
 1470              		.loc 1 612 3 view .LVU484
 1471              		.loc 1 612 20 is_stmt 0 view .LVU485
 1472 005c 089A     		ldr	r2, [sp, #32]
 1473 005e A260     		str	r2, [r4, #8]
 1474              		.loc 1 613 3 is_stmt 1 view .LVU486
 1475              		.loc 1 613 20 is_stmt 0 view .LVU487
 1476 0060 E360     		str	r3, [r4, #12]
 1477              		.loc 1 614 3 is_stmt 1 view .LVU488
 1478              	.L123:
 1479              		.loc 1 615 59 view .LVU489
 1480              		.loc 1 614 16 is_stmt 0 view .LVU490
 1481 0062 616B     		ldr	r1, [r4, #52]
 1482              	.LVL92:
ARM GAS  C:\Users\DEVELO~1\AppData\Local\Temp\ccuGzkMt.s 			page 27


 1483              		.loc 1 615 59 view .LVU491
 1484 0064 11F04503 		ands	r3, r1, #69
 1485 0068 FBD0     		beq	.L123
 1486              		.loc 1 617 3 is_stmt 1 view .LVU492
 1487              		.loc 1 619 6 is_stmt 0 view .LVU493
 1488 006a 11F0050F 		tst	r1, #5
 1489              		.loc 1 617 20 view .LVU494
 1490 006e A363     		str	r3, [r4, #56]
 1491              		.loc 1 619 3 is_stmt 1 view .LVU495
 1492              		.loc 1 619 6 is_stmt 0 view .LVU496
 1493 0070 29D1     		bne	.L135
 1494              		.loc 1 623 3 is_stmt 1 view .LVU497
 1495              		.loc 1 623 22 is_stmt 0 view .LVU498
 1496 0072 6269     		ldr	r2, [r4, #20]
 1497              	.LBE267:
 1498              	.LBE272:
 1499              		.loc 1 690 7 view .LVU499
 1500 0074 1D4B     		ldr	r3, .L139+4
 1501              	.LBB273:
 1502              	.LBB268:
 1503              		.loc 1 623 9 view .LVU500
 1504 0076 0260     		str	r2, [r0]
 1505              		.loc 1 624 3 is_stmt 1 view .LVU501
 1506              	.LVL93:
 1507              		.loc 1 624 3 is_stmt 0 view .LVU502
 1508              	.LBE268:
 1509              	.LBE273:
 1510              		.loc 1 690 7 view .LVU503
 1511 0078 1340     		ands	r3, r3, r2
 1512              		.loc 1 689 62 view .LVU504
 1513 007a 73B1     		cbz	r3, .L136
 1514              	.L125:
 1515              		.loc 1 699 3 is_stmt 1 view .LVU505
 1516              	.LVL94:
 1517              	.LBB274:
 1518              	.LBI274:
 1519              		.loc 1 334 13 view .LVU506
 1520              	.LBB275:
 1521              		.loc 1 337 3 view .LVU507
 1522              		.loc 1 340 3 view .LVU508
 1523              		.loc 1 340 25 is_stmt 0 view .LVU509
 1524 007c 616B     		ldr	r1, [r4, #52]
 1525              	.LVL95:
 1526              		.loc 1 341 3 is_stmt 1 view .LVU510
 1527              		.loc 1 342 25 is_stmt 0 view .LVU511
 1528 007e 0023     		movs	r3, #0
 1529              	.LBE275:
 1530              	.LBE274:
 1531              		.loc 1 700 10 view .LVU512
 1532 0080 4FF00109 		mov	r9, #1
 1533              	.LBB278:
 1534              	.LBB276:
 1535              		.loc 1 344 3 view .LVU513
 1536 0084 2846     		mov	r0, r5
 1537              		.loc 1 341 25 view .LVU514
 1538 0086 A163     		str	r1, [r4, #56]
 1539              		.loc 1 342 3 is_stmt 1 view .LVU515
ARM GAS  C:\Users\DEVELO~1\AppData\Local\Temp\ccuGzkMt.s 			page 28


 1540              		.loc 1 342 25 is_stmt 0 view .LVU516
 1541 0088 2365     		str	r3, [r4, #80]
 1542              		.loc 1 343 3 is_stmt 1 view .LVU517
 1543              		.loc 1 343 25 is_stmt 0 view .LVU518
 1544 008a E362     		str	r3, [r4, #44]
 1545              		.loc 1 344 3 is_stmt 1 view .LVU519
 1546 008c FFF7FEFF 		bl	sdc_lld_collect_errors
 1547              	.LVL96:
 1548              		.loc 1 346 3 view .LVU520
 1549              		.loc 1 346 3 is_stmt 0 view .LVU521
 1550              	.LBE276:
 1551              	.LBE278:
 1552              		.loc 1 701 1 view .LVU522
 1553 0090 4846     		mov	r0, r9
 1554 0092 BDE8F883 		pop	{r3, r4, r5, r6, r7, r8, r9, pc}
 1555              	.LVL97:
 1556              	.L122:
 1557              	.LBB279:
 1558              	.LBB263:
 1559              		.loc 1 151 7 view .LVU523
 1560 0096 6C6C     		ldr	r4, [r5, #68]
 1561 0098 F0E7     		b	.L125
 1562              	.LVL98:
 1563              	.L136:
 1564              		.loc 1 151 7 view .LVU524
 1565              	.LBE263:
 1566              	.LBE279:
 1567              		.loc 1 693 3 is_stmt 1 view .LVU525
 1568              	.LBB280:
 1569              	.LBI280:
 1570              		.loc 1 262 13 view .LVU526
 1571              	.LBB281:
 1572              		.loc 1 267 3 view .LVU527
 1573              	.LBB282:
 1574              	.LBI282:
 1575              		.loc 2 573 20 view .LVU528
 1576              		.loc 2 575 3 view .LVU529
 1577              	.LBB283:
 1578              	.LBI283:
 1579              		.loc 3 372 20 view .LVU530
 1580              		.loc 3 374 3 view .LVU531
 1581              	.LBB284:
 1582              	.LBI284:
 1583              		.loc 4 840 27 view .LVU532
 1584              		.loc 4 848 3 view .LVU533
 1585              	.LBB285:
 1586              	.LBI285:
 1587              		.loc 5 491 27 view .LVU534
 1588              	.LBB286:
 1589              		.loc 5 493 3 view .LVU535
 1590 009a 3023     		movs	r3, #48
 1591              		.syntax unified
 1592              	@ 493 "./ChibiOS/os/common/ext/ARM/CMSIS/Core/Include/cmsis_gcc.h" 1
 1593 009c 83F31188 		MSR basepri, r3
 1594              	@ 0 "" 2
 1595              	.LVL99:
 1596              		.loc 5 493 3 is_stmt 0 view .LVU536
ARM GAS  C:\Users\DEVELO~1\AppData\Local\Temp\ccuGzkMt.s 			page 29


 1597              		.thumb
 1598              		.syntax unified
 1599              	.LBE286:
 1600              	.LBE285:
 1601              	.LBE284:
 1602              		.loc 3 375 35 is_stmt 1 view .LVU537
 1603              		.loc 3 376 21 view .LVU538
 1604              	.LBE283:
 1605              	.LBE282:
 1606              		.loc 1 269 3 view .LVU539
 1607              		.loc 1 269 11 is_stmt 0 view .LVU540
 1608 00a0 6B6C     		ldr	r3, [r5, #68]
 1609              		.loc 1 269 18 view .LVU541
 1610 00a2 DA6B     		ldr	r2, [r3, #60]
 1611              		.loc 1 269 6 view .LVU542
 1612 00a4 BAB9     		cbnz	r2, .L137
 1613              	.LVL100:
 1614              	.L126:
 1615              		.loc 1 274 3 is_stmt 1 view .LVU543
 1616              		.loc 1 274 25 is_stmt 0 view .LVU544
 1617 00a6 0022     		movs	r2, #0
 1618 00a8 1A65     		str	r2, [r3, #80]
 1619              		.loc 1 275 3 is_stmt 1 view .LVU545
 1620              		.loc 1 275 25 is_stmt 0 view .LVU546
 1621 00aa DA63     		str	r2, [r3, #60]
 1622              		.loc 1 276 3 is_stmt 1 view .LVU547
 1623              		.loc 1 276 25 is_stmt 0 view .LVU548
 1624 00ac DA62     		str	r2, [r3, #44]
 1625              		.loc 1 278 3 is_stmt 1 view .LVU549
 1626              		.loc 1 278 19 is_stmt 0 view .LVU550
 1627 00ae 596B     		ldr	r1, [r3, #52]
 1628              		.loc 1 278 6 view .LVU551
 1629 00b0 11F48071 		ands	r1, r1, #256
 1630 00b4 0BD0     		beq	.L138
 1631              		.loc 1 284 3 is_stmt 1 view .LVU552
 1632              		.loc 1 284 20 is_stmt 0 view .LVU553
 1633 00b6 4FF0FF31 		mov	r1, #-1
 1634 00ba 9963     		str	r1, [r3, #56]
 1635              		.loc 1 286 3 is_stmt 1 view .LVU554
 1636              	.LBB287:
 1637              	.LBI287:
 1638              		.loc 2 584 20 view .LVU555
 1639              		.loc 2 586 3 view .LVU556
 1640              	.LBB288:
 1641              	.LBI288:
 1642              		.loc 3 386 20 view .LVU557
 1643              	.LBB289:
 1644              		.loc 3 388 23 view .LVU558
 1645              		.loc 3 389 34 view .LVU559
 1646              		.loc 3 395 3 view .LVU560
 1647              		.loc 3 395 3 view .LVU561
 1648              		.loc 3 395 3 view .LVU562
 1649              		.loc 3 399 3 view .LVU563
 1650              	.LBB290:
 1651              	.LBI290:
 1652              		.loc 4 864 27 view .LVU564
 1653              		.loc 4 867 3 view .LVU565
ARM GAS  C:\Users\DEVELO~1\AppData\Local\Temp\ccuGzkMt.s 			page 30


 1654              	.LVL101:
 1655              	.LBB291:
 1656              	.LBI291:
 1657              		.loc 5 491 27 view .LVU566
 1658              	.LBB292:
 1659              		.loc 5 493 3 view .LVU567
 1660              		.syntax unified
 1661              	@ 493 "./ChibiOS/os/common/ext/ARM/CMSIS/Core/Include/cmsis_gcc.h" 1
 1662 00bc 82F31188 		MSR basepri, r2
 1663              	@ 0 "" 2
 1664              	.LVL102:
 1665              		.loc 5 493 3 is_stmt 0 view .LVU568
 1666              		.thumb
 1667              		.syntax unified
 1668              	.LBE292:
 1669              	.LBE291:
 1670              	.LBE290:
 1671              	.LBE289:
 1672              	.LBE288:
 1673              	.LBE287:
 1674              		.loc 1 289 3 is_stmt 1 view .LVU569
 1675              		.loc 1 289 3 is_stmt 0 view .LVU570
 1676              	.LBE281:
 1677              	.LBE280:
 1678              		.loc 1 701 1 view .LVU571
 1679 00c0 4846     		mov	r0, r9
 1680 00c2 BDE8F883 		pop	{r3, r4, r5, r6, r7, r8, r9, pc}
 1681              	.LVL103:
 1682              	.L135:
 1683              	.LBB305:
 1684              	.LBB269:
 1685              		.loc 1 620 5 is_stmt 1 view .LVU572
 1686 00c6 2846     		mov	r0, r5
 1687 00c8 FFF7FEFF 		bl	sdc_lld_collect_errors
 1688              	.LVL104:
 1689              		.loc 1 621 5 view .LVU573
 1690              		.loc 1 621 5 is_stmt 0 view .LVU574
 1691 00cc D6E7     		b	.L125
 1692              	.LVL105:
 1693              	.L138:
 1694              		.loc 1 621 5 view .LVU575
 1695              	.LBE269:
 1696              	.LBE305:
 1697              	.LBB306:
 1698              	.LBB303:
 1699              		.loc 1 279 5 is_stmt 1 view .LVU576
 1700              	.LBB293:
 1701              	.LBI293:
 1702              		.loc 2 584 20 view .LVU577
 1703              		.loc 2 586 3 view .LVU578
 1704              	.LBB294:
 1705              	.LBI294:
 1706              		.loc 3 386 20 view .LVU579
 1707              	.LBB295:
 1708              		.loc 3 388 23 view .LVU580
 1709              		.loc 3 389 34 view .LVU581
 1710              		.loc 3 395 3 view .LVU582
ARM GAS  C:\Users\DEVELO~1\AppData\Local\Temp\ccuGzkMt.s 			page 31


 1711              		.loc 3 395 3 view .LVU583
 1712              		.loc 3 395 3 view .LVU584
 1713              		.loc 3 399 3 view .LVU585
 1714              	.LBB296:
 1715              	.LBI296:
 1716              		.loc 4 864 27 view .LVU586
 1717              		.loc 4 867 3 view .LVU587
 1718              	.LBB297:
 1719              	.LBI297:
 1720              		.loc 5 491 27 view .LVU588
 1721              	.LBB298:
 1722              		.loc 5 493 3 view .LVU589
 1723              		.syntax unified
 1724              	@ 493 "./ChibiOS/os/common/ext/ARM/CMSIS/Core/Include/cmsis_gcc.h" 1
 1725 00ce 81F31188 		MSR basepri, r1
 1726              	@ 0 "" 2
 1727              	.LVL106:
 1728              		.loc 5 493 3 is_stmt 0 view .LVU590
 1729              		.thumb
 1730              		.syntax unified
 1731              	.LBE298:
 1732              	.LBE297:
 1733              	.LBE296:
 1734              	.LBE295:
 1735              	.LBE294:
 1736              	.LBE293:
 1737              		.loc 1 280 5 is_stmt 1 view .LVU591
 1738              		.loc 1 280 5 is_stmt 0 view .LVU592
 1739              	.LBE303:
 1740              	.LBE306:
 1741              	.LBB307:
 1742              	.LBB277:
 1743              		.loc 1 340 31 view .LVU593
 1744 00d2 6C6C     		ldr	r4, [r5, #68]
 1745 00d4 D2E7     		b	.L125
 1746              	.LVL107:
 1747              	.L137:
 1748              		.loc 1 340 31 view .LVU594
 1749              	.LBE277:
 1750              	.LBE307:
 1751              	.LBB308:
 1752              	.LBB304:
 1753              		.loc 1 270 5 is_stmt 1 view .LVU595
 1754              	.LBB299:
 1755              	.LBI299:
 1756              		.loc 2 797 21 view .LVU596
 1757              	.LBB300:
 1758              		.loc 2 799 3 view .LVU597
 1759              		.loc 2 799 10 is_stmt 0 view .LVU598
 1760 00d6 4FF0FF31 		mov	r1, #-1
 1761 00da 05F14000 		add	r0, r5, #64
 1762              	.LVL108:
 1763              		.loc 2 799 10 view .LVU599
 1764 00de FFF7FEFF 		bl	chThdSuspendTimeoutS
 1765              	.LVL109:
 1766              		.loc 2 799 10 view .LVU600
 1767              	.LBE300:
ARM GAS  C:\Users\DEVELO~1\AppData\Local\Temp\ccuGzkMt.s 			page 32


 1768              	.LBE299:
 1769              		.loc 1 274 7 view .LVU601
 1770 00e2 6B6C     		ldr	r3, [r5, #68]
 1771              	.LBB302:
 1772              	.LBB301:
 1773              		.loc 2 799 10 view .LVU602
 1774 00e4 DFE7     		b	.L126
 1775              	.L140:
 1776 00e6 00BF     		.align	2
 1777              	.L139:
 1778 00e8 D34D6210 		.word	274877907
 1779 00ec 08E0FFFD 		.word	-33562616
 1780              	.LBE301:
 1781              	.LBE302:
 1782              	.LBE304:
 1783              	.LBE308:
 1784              		.cfi_endproc
 1785              	.LFE467:
 1786              		.size	sdc_lld_read_special, .-sdc_lld_read_special
 1787              		.section	.text.sdc_lld_read_aligned,"ax",%progbits
 1788              		.align	1
 1789              		.p2align 4,,15
 1790              		.global	sdc_lld_read_aligned
 1791              		.syntax unified
 1792              		.thumb
 1793              		.thumb_func
 1794              		.type	sdc_lld_read_aligned, %function
 1795              	sdc_lld_read_aligned:
 1796              	.LVL110:
 1797              	.LFB468:
 1798              		.loc 1 718 58 is_stmt 1 view -0
 1799              		.cfi_startproc
 1800              		@ args = 0, pretend = 0, frame = 0
 1801              		@ frame_needed = 0, uses_anonymous_args = 0
 1802              		.loc 1 718 58 is_stmt 0 view .LVU604
 1803 0000 2DE9F843 		push	{r3, r4, r5, r6, r7, r8, r9, lr}
 1804              		.cfi_def_cfa_offset 32
 1805              		.cfi_offset 3, -32
 1806              		.cfi_offset 4, -28
 1807              		.cfi_offset 5, -24
 1808              		.cfi_offset 6, -20
 1809              		.cfi_offset 7, -16
 1810              		.cfi_offset 8, -12
 1811              		.cfi_offset 9, -8
 1812              		.cfi_offset 14, -4
 1813              		.loc 1 718 58 view .LVU605
 1814 0004 1646     		mov	r6, r2
 1815              		.loc 1 720 3 is_stmt 1 view .LVU606
 1816              		.loc 1 720 3 view .LVU607
 1817              		.loc 1 720 3 view .LVU608
 1818              		.loc 1 722 3 view .LVU609
 1819              		.loc 1 718 58 is_stmt 0 view .LVU610
 1820 0006 9846     		mov	r8, r3
 1821              	.LBB327:
 1822              	.LBB328:
 1823              		.loc 1 122 41 view .LVU611
 1824 0008 DFF860C1 		ldr	ip, .L171
ARM GAS  C:\Users\DEVELO~1\AppData\Local\Temp\ccuGzkMt.s 			page 33


 1825              	.LBE328:
 1826              	.LBE327:
 1827              		.loc 1 718 58 view .LVU612
 1828 000c 0D46     		mov	r5, r1
 1829              	.LBB331:
 1830              	.LBB329:
 1831              		.loc 1 122 50 view .LVU613
 1832 000e 42F21071 		movw	r1, #10000
 1833              	.LVL111:
 1834              		.loc 1 122 50 view .LVU614
 1835              	.LBE329:
 1836              	.LBE331:
 1837              		.loc 1 718 58 view .LVU615
 1838 0012 0746     		mov	r7, r0
 1839              	.LBB332:
 1840              	.LBB330:
 1841              		.loc 1 122 27 view .LVU616
 1842 0014 D0E91124 		ldrd	r2, r4, [r0, #68]
 1843              	.LVL112:
 1844              		.loc 1 121 30 view .LVU617
 1845 0018 5368     		ldr	r3, [r2, #4]
 1846              	.LVL113:
 1847              		.loc 1 122 3 is_stmt 1 view .LVU618
 1848              		.loc 1 121 38 is_stmt 0 view .LVU619
 1849 001a C3F30903 		ubfx	r3, r3, #0, #10
 1850              	.LVL114:
 1851              		.loc 1 121 12 view .LVU620
 1852 001e 0133     		adds	r3, r3, #1
 1853              		.loc 1 122 34 view .LVU621
 1854 0020 5B00     		lsls	r3, r3, #1
 1855              		.loc 1 122 27 view .LVU622
 1856 0022 B4FBF3F4 		udiv	r4, r4, r3
 1857              		.loc 1 122 41 view .LVU623
 1858 0026 ACFB04C4 		umull	ip, r4, ip, r4
 1859 002a A409     		lsrs	r4, r4, #6
 1860              		.loc 1 122 50 view .LVU624
 1861 002c 01FB04F4 		mul	r4, r1, r4
 1862              		.loc 1 122 50 view .LVU625
 1863              	.LBE330:
 1864              	.LBE332:
 1865              		.loc 1 722 23 view .LVU626
 1866 0030 5462     		str	r4, [r2, #36]
 1867              		.loc 1 725 3 is_stmt 1 view .LVU627
 1868              		.loc 1 725 7 is_stmt 0 view .LVU628
 1869 0032 FFF7FEFF 		bl	_sdc_wait_for_transfer_state
 1870              	.LVL115:
 1871              		.loc 1 725 6 view .LVU629
 1872 0036 8146     		mov	r9, r0
 1873 0038 10B1     		cbz	r0, .L167
 1874              	.LVL116:
 1875              	.L159:
 1876              		.loc 1 758 1 view .LVU630
 1877 003a 4846     		mov	r0, r9
 1878 003c BDE8F883 		pop	{r3, r4, r5, r6, r7, r8, r9, pc}
 1879              	.LVL117:
 1880              	.L167:
 1881              	.LBB333:
ARM GAS  C:\Users\DEVELO~1\AppData\Local\Temp\ccuGzkMt.s 			page 34


 1882              	.LBI333:
 1883              		.loc 1 717 6 is_stmt 1 view .LVU631
 1884              	.LBB334:
 1885              		.loc 1 729 3 view .LVU632
 1886              		.loc 1 729 7 is_stmt 0 view .LVU633
 1887 0040 7C6C     		ldr	r4, [r7, #68]
 1888              		.loc 1 730 26 view .LVU634
 1889 0042 0123     		movs	r3, #1
 1890              		.loc 1 729 26 view .LVU635
 1891 0044 A665     		str	r6, [r4, #88]
 1892              		.loc 1 730 3 is_stmt 1 view .LVU636
 1893              		.loc 1 730 26 is_stmt 0 view .LVU637
 1894 0046 2365     		str	r3, [r4, #80]
 1895              		.loc 1 733 3 is_stmt 1 view .LVU638
 1896              		.loc 1 733 22 is_stmt 0 view .LVU639
 1897 0048 4FF0FF33 		mov	r3, #-1
 1898              		.loc 1 740 7 view .LVU640
 1899 004c FE6C     		ldr	r6, [r7, #76]
 1900              	.LVL118:
 1901              		.loc 1 733 22 view .LVU641
 1902 004e A363     		str	r3, [r4, #56]
 1903              		.loc 1 734 3 is_stmt 1 view .LVU642
 1904              		.loc 1 734 22 is_stmt 0 view .LVU643
 1905 0050 4FF49573 		mov	r3, #298
 1906 0054 E363     		str	r3, [r4, #60]
 1907              		.loc 1 738 3 is_stmt 1 view .LVU644
 1908              		.loc 1 738 31 is_stmt 0 view .LVU645
 1909 0056 4FEA4823 		lsl	r3, r8, #9
 1910              		.loc 1 738 22 view .LVU646
 1911 005a A362     		str	r3, [r4, #40]
 1912              		.loc 1 740 3 is_stmt 1 view .LVU647
 1913              	.LVL119:
 1914              	.LBB335:
 1915              	.LBI335:
 1916              		.loc 1 185 13 view .LVU648
 1917              	.LBB336:
 1918              		.loc 1 190 3 view .LVU649
 1919              		.loc 1 190 24 is_stmt 0 view .LVU650
 1920 005c 3B6B     		ldr	r3, [r7, #48]
 1921              		.loc 1 190 6 view .LVU651
 1922 005e DB06     		lsls	r3, r3, #27
 1923              		.loc 1 191 5 is_stmt 1 view .LVU652
 1924              		.loc 1 191 14 is_stmt 0 view .LVU653
 1925 0060 58BF     		it	pl
 1926 0062 6D02     		lslpl	r5, r5, #9
 1927              	.LVL120:
 1928              		.loc 1 193 3 is_stmt 1 view .LVU654
 1929              		.loc 1 193 6 is_stmt 0 view .LVU655
 1930 0064 B8F1010F 		cmp	r8, #1
 1931              	.LBB337:
 1932              	.LBB338:
 1933              		.loc 1 612 20 view .LVU656
 1934 0068 A560     		str	r5, [r4, #8]
 1935              	.LBE338:
 1936              	.LBE337:
 1937              		.loc 1 193 6 view .LVU657
 1938 006a 24D9     		bls	.L144
ARM GAS  C:\Users\DEVELO~1\AppData\Local\Temp\ccuGzkMt.s 			page 35


 1939              		.loc 1 195 5 is_stmt 1 view .LVU658
 1940              	.LVL121:
 1941              	.LBB342:
 1942              	.LBI337:
 1943              		.loc 1 608 6 view .LVU659
 1944              	.LBB339:
 1945              		.loc 1 610 3 view .LVU660
 1946              		.loc 1 612 3 view .LVU661
 1947              		.loc 1 613 3 view .LVU662
 1948              		.loc 1 613 20 is_stmt 0 view .LVU663
 1949 006c 41F21213 		movw	r3, #4370
 1950 0070 E360     		str	r3, [r4, #12]
 1951              		.loc 1 614 3 is_stmt 1 view .LVU664
 1952              	.L145:
 1953              		.loc 1 615 59 view .LVU665
 1954              		.loc 1 614 16 is_stmt 0 view .LVU666
 1955 0072 616B     		ldr	r1, [r4, #52]
 1956              	.LVL122:
 1957              		.loc 1 615 59 view .LVU667
 1958 0074 11F04503 		ands	r3, r1, #69
 1959 0078 FBD0     		beq	.L145
 1960              		.loc 1 617 3 is_stmt 1 view .LVU668
 1961              		.loc 1 619 6 is_stmt 0 view .LVU669
 1962 007a 11F0050F 		tst	r1, #5
 1963              		.loc 1 617 20 view .LVU670
 1964 007e A363     		str	r3, [r4, #56]
 1965              		.loc 1 619 3 is_stmt 1 view .LVU671
 1966              		.loc 1 619 6 is_stmt 0 view .LVU672
 1967 0080 3FD1     		bne	.L168
 1968              		.loc 1 623 3 is_stmt 1 view .LVU673
 1969              		.loc 1 623 22 is_stmt 0 view .LVU674
 1970 0082 6369     		ldr	r3, [r4, #20]
 1971              	.LBE339:
 1972              	.LBE342:
 1973              		.loc 1 196 55 view .LVU675
 1974 0084 3A4D     		ldr	r5, .L171+4
 1975              	.LVL123:
 1976              	.LBB343:
 1977              	.LBB340:
 1978              		.loc 1 623 9 view .LVU676
 1979 0086 3360     		str	r3, [r6]
 1980              		.loc 1 624 3 is_stmt 1 view .LVU677
 1981              	.LVL124:
 1982              		.loc 1 624 3 is_stmt 0 view .LVU678
 1983              	.LBE340:
 1984              	.LBE343:
 1985              		.loc 1 196 55 view .LVU679
 1986 0088 1D40     		ands	r5, r5, r3
 1987              		.loc 1 196 52 view .LVU680
 1988 008a 002D     		cmp	r5, #0
 1989 008c 3CD1     		bne	.L147
 1990              	.LVL125:
 1991              		.loc 1 196 52 view .LVU681
 1992              	.LBE336:
 1993              	.LBE335:
 1994              		.loc 1 744 3 is_stmt 1 view .LVU682
 1995              		.loc 1 744 22 is_stmt 0 view .LVU683
ARM GAS  C:\Users\DEVELO~1\AppData\Local\Temp\ccuGzkMt.s 			page 36


 1996 008e 42F29303 		movw	r3, #8339
 1997              		.loc 1 750 7 view .LVU684
 1998 0092 3246     		mov	r2, r6
 1999 0094 4146     		mov	r1, r8
 2000 0096 3846     		mov	r0, r7
 2001              		.loc 1 744 22 view .LVU685
 2002 0098 E362     		str	r3, [r4, #44]
 2003              		.loc 1 750 3 is_stmt 1 view .LVU686
 2004              		.loc 1 750 7 is_stmt 0 view .LVU687
 2005 009a FFF7FEFF 		bl	sdc_lld_wait_transaction_end
 2006              	.LVL126:
 2007              		.loc 1 750 6 view .LVU688
 2008 009e 0028     		cmp	r0, #0
 2009 00a0 CBD0     		beq	.L159
 2010              		.loc 1 756 3 is_stmt 1 view .LVU689
 2011              	.LBB354:
 2012              	.LBB355:
 2013              		.loc 1 340 31 is_stmt 0 view .LVU690
 2014 00a2 7C6C     		ldr	r4, [r7, #68]
 2015              		.loc 1 344 3 view .LVU691
 2016 00a4 3846     		mov	r0, r7
 2017              	.LBE355:
 2018              	.LBE354:
 2019              		.loc 1 756 3 view .LVU692
 2020 00a6 FE6C     		ldr	r6, [r7, #76]
 2021              	.LVL127:
 2022              	.LBB381:
 2023              	.LBI354:
 2024              		.loc 1 334 13 is_stmt 1 view .LVU693
 2025              	.LBB372:
 2026              		.loc 1 337 3 view .LVU694
 2027              		.loc 1 340 3 view .LVU695
 2028              		.loc 1 340 25 is_stmt 0 view .LVU696
 2029 00a8 616B     		ldr	r1, [r4, #52]
 2030              	.LVL128:
 2031              		.loc 1 341 3 is_stmt 1 view .LVU697
 2032              		.loc 1 341 25 is_stmt 0 view .LVU698
 2033 00aa A163     		str	r1, [r4, #56]
 2034              		.loc 1 342 3 is_stmt 1 view .LVU699
 2035              		.loc 1 342 25 is_stmt 0 view .LVU700
 2036 00ac 2565     		str	r5, [r4, #80]
 2037              		.loc 1 343 3 is_stmt 1 view .LVU701
 2038              		.loc 1 343 25 is_stmt 0 view .LVU702
 2039 00ae E562     		str	r5, [r4, #44]
 2040              		.loc 1 344 3 is_stmt 1 view .LVU703
 2041 00b0 FFF7FEFF 		bl	sdc_lld_collect_errors
 2042              	.LVL129:
 2043              		.loc 1 346 3 view .LVU704
 2044 00b4 30E0     		b	.L149
 2045              	.LVL130:
 2046              	.L144:
 2047              		.loc 1 346 3 is_stmt 0 view .LVU705
 2048              	.LBE372:
 2049              	.LBE381:
 2050              	.LBB382:
 2051              	.LBB351:
 2052              		.loc 1 202 5 is_stmt 1 view .LVU706
ARM GAS  C:\Users\DEVELO~1\AppData\Local\Temp\ccuGzkMt.s 			page 37


 2053              	.LBB344:
 2054              	.LBI344:
 2055              		.loc 1 608 6 view .LVU707
 2056              	.LBB345:
 2057              		.loc 1 610 3 view .LVU708
 2058              		.loc 1 612 3 view .LVU709
 2059              		.loc 1 613 3 view .LVU710
 2060              		.loc 1 613 20 is_stmt 0 view .LVU711
 2061 00b6 41F21113 		movw	r3, #4369
 2062 00ba E360     		str	r3, [r4, #12]
 2063              		.loc 1 614 3 is_stmt 1 view .LVU712
 2064              	.L150:
 2065              		.loc 1 615 59 view .LVU713
 2066              		.loc 1 614 16 is_stmt 0 view .LVU714
 2067 00bc 616B     		ldr	r1, [r4, #52]
 2068              	.LVL131:
 2069              		.loc 1 615 59 view .LVU715
 2070 00be 11F04503 		ands	r3, r1, #69
 2071 00c2 FBD0     		beq	.L150
 2072              		.loc 1 617 3 is_stmt 1 view .LVU716
 2073              		.loc 1 619 6 is_stmt 0 view .LVU717
 2074 00c4 11F0050F 		tst	r1, #5
 2075              		.loc 1 617 20 view .LVU718
 2076 00c8 A363     		str	r3, [r4, #56]
 2077              		.loc 1 619 3 is_stmt 1 view .LVU719
 2078              		.loc 1 619 6 is_stmt 0 view .LVU720
 2079 00ca 39D1     		bne	.L169
 2080              		.loc 1 623 3 is_stmt 1 view .LVU721
 2081              		.loc 1 623 22 is_stmt 0 view .LVU722
 2082 00cc 6369     		ldr	r3, [r4, #20]
 2083              	.LBE345:
 2084              	.LBE344:
 2085              		.loc 1 203 55 view .LVU723
 2086 00ce 284D     		ldr	r5, .L171+4
 2087              	.LVL132:
 2088              	.LBB348:
 2089              	.LBB346:
 2090              		.loc 1 623 9 view .LVU724
 2091 00d0 3360     		str	r3, [r6]
 2092              		.loc 1 624 3 is_stmt 1 view .LVU725
 2093              	.LVL133:
 2094              		.loc 1 624 3 is_stmt 0 view .LVU726
 2095              	.LBE346:
 2096              	.LBE348:
 2097              		.loc 1 203 55 view .LVU727
 2098 00d2 1D40     		ands	r5, r5, r3
 2099              		.loc 1 203 52 view .LVU728
 2100 00d4 002D     		cmp	r5, #0
 2101 00d6 36D1     		bne	.L152
 2102              	.LVL134:
 2103              		.loc 1 203 52 view .LVU729
 2104              	.LBE351:
 2105              	.LBE382:
 2106              		.loc 1 744 3 is_stmt 1 view .LVU730
 2107              		.loc 1 744 22 is_stmt 0 view .LVU731
 2108 00d8 42F29303 		movw	r3, #8339
 2109              		.loc 1 750 7 view .LVU732
ARM GAS  C:\Users\DEVELO~1\AppData\Local\Temp\ccuGzkMt.s 			page 38


 2110 00dc 3246     		mov	r2, r6
 2111 00de 4146     		mov	r1, r8
 2112 00e0 3846     		mov	r0, r7
 2113              		.loc 1 744 22 view .LVU733
 2114 00e2 E362     		str	r3, [r4, #44]
 2115              		.loc 1 750 3 is_stmt 1 view .LVU734
 2116              		.loc 1 750 7 is_stmt 0 view .LVU735
 2117 00e4 FFF7FEFF 		bl	sdc_lld_wait_transaction_end
 2118              	.LVL135:
 2119              		.loc 1 750 6 view .LVU736
 2120 00e8 0346     		mov	r3, r0
 2121 00ea 0028     		cmp	r0, #0
 2122 00ec A5D0     		beq	.L159
 2123              	.L154:
 2124              		.loc 1 756 3 is_stmt 1 view .LVU737
 2125              	.LVL136:
 2126              	.LBB383:
 2127              		.loc 1 334 13 view .LVU738
 2128              	.LBB373:
 2129              		.loc 1 337 3 view .LVU739
 2130              		.loc 1 340 3 view .LVU740
 2131              		.loc 1 340 31 is_stmt 0 view .LVU741
 2132 00ee 7A6C     		ldr	r2, [r7, #68]
 2133              		.loc 1 344 3 view .LVU742
 2134 00f0 3846     		mov	r0, r7
 2135              	.LBE373:
 2136              	.LBE383:
 2137              		.loc 1 757 10 view .LVU743
 2138 00f2 9946     		mov	r9, r3
 2139              	.LBB384:
 2140              	.LBB374:
 2141              		.loc 1 340 25 view .LVU744
 2142 00f4 516B     		ldr	r1, [r2, #52]
 2143              	.LVL137:
 2144              		.loc 1 341 3 is_stmt 1 view .LVU745
 2145              		.loc 1 341 25 is_stmt 0 view .LVU746
 2146 00f6 9163     		str	r1, [r2, #56]
 2147              		.loc 1 342 3 is_stmt 1 view .LVU747
 2148              		.loc 1 342 25 is_stmt 0 view .LVU748
 2149 00f8 1565     		str	r5, [r2, #80]
 2150              		.loc 1 343 3 is_stmt 1 view .LVU749
 2151              		.loc 1 343 25 is_stmt 0 view .LVU750
 2152 00fa D562     		str	r5, [r2, #44]
 2153              		.loc 1 344 3 is_stmt 1 view .LVU751
 2154 00fc FFF7FEFF 		bl	sdc_lld_collect_errors
 2155              	.LVL138:
 2156              		.loc 1 346 3 view .LVU752
 2157 0100 9BE7     		b	.L159
 2158              	.LVL139:
 2159              	.L168:
 2160              		.loc 1 346 3 is_stmt 0 view .LVU753
 2161              	.LBE374:
 2162              	.LBE384:
 2163              	.LBB385:
 2164              	.LBB352:
 2165              	.LBB349:
 2166              	.LBB341:
ARM GAS  C:\Users\DEVELO~1\AppData\Local\Temp\ccuGzkMt.s 			page 39


 2167              		.loc 1 620 5 is_stmt 1 view .LVU754
 2168 0102 3846     		mov	r0, r7
 2169 0104 FFF7FEFF 		bl	sdc_lld_collect_errors
 2170              	.LVL140:
 2171              		.loc 1 621 5 view .LVU755
 2172              	.L147:
 2173              		.loc 1 621 5 is_stmt 0 view .LVU756
 2174              	.LBE341:
 2175              	.LBE349:
 2176              		.loc 1 197 7 is_stmt 1 view .LVU757
 2177              		.loc 1 197 7 is_stmt 0 view .LVU758
 2178              	.LBE352:
 2179              	.LBE385:
 2180              		.loc 1 756 3 is_stmt 1 view .LVU759
 2181              	.LBB386:
 2182              		.loc 1 334 13 view .LVU760
 2183              	.LBB375:
 2184              		.loc 1 337 3 view .LVU761
 2185              		.loc 1 340 3 view .LVU762
 2186              		.loc 1 340 25 is_stmt 0 view .LVU763
 2187 0108 616B     		ldr	r1, [r4, #52]
 2188              	.LVL141:
 2189              		.loc 1 341 3 is_stmt 1 view .LVU764
 2190              		.loc 1 342 25 is_stmt 0 view .LVU765
 2191 010a 0023     		movs	r3, #0
 2192              		.loc 1 344 3 view .LVU766
 2193 010c 3846     		mov	r0, r7
 2194              		.loc 1 341 25 view .LVU767
 2195 010e A163     		str	r1, [r4, #56]
 2196              		.loc 1 342 3 is_stmt 1 view .LVU768
 2197              		.loc 1 342 25 is_stmt 0 view .LVU769
 2198 0110 2365     		str	r3, [r4, #80]
 2199              		.loc 1 343 3 is_stmt 1 view .LVU770
 2200              		.loc 1 343 25 is_stmt 0 view .LVU771
 2201 0112 E362     		str	r3, [r4, #44]
 2202              		.loc 1 344 3 is_stmt 1 view .LVU772
 2203 0114 FFF7FEFF 		bl	sdc_lld_collect_errors
 2204              	.LVL142:
 2205              		.loc 1 346 3 view .LVU773
 2206              	.L149:
 2207              	.LBB356:
 2208              	.LBI356:
 2209              		.loc 1 334 13 view .LVU774
 2210              	.LBB357:
 2211              		.loc 1 347 5 view .LVU775
 2212              	.LBB358:
 2213              	.LBI358:
 2214              		.loc 1 608 6 view .LVU776
 2215              	.LBB359:
 2216              		.loc 1 610 3 view .LVU777
 2217              		.loc 1 612 3 view .LVU778
 2218              		.loc 1 612 20 is_stmt 0 view .LVU779
 2219 0118 0022     		movs	r2, #0
 2220              		.loc 1 613 20 view .LVU780
 2221 011a 41F20C13 		movw	r3, #4364
 2222              		.loc 1 612 20 view .LVU781
 2223 011e A260     		str	r2, [r4, #8]
ARM GAS  C:\Users\DEVELO~1\AppData\Local\Temp\ccuGzkMt.s 			page 40


 2224              		.loc 1 613 3 is_stmt 1 view .LVU782
 2225              		.loc 1 613 20 is_stmt 0 view .LVU783
 2226 0120 E360     		str	r3, [r4, #12]
 2227              		.loc 1 614 3 is_stmt 1 view .LVU784
 2228              	.L157:
 2229              		.loc 1 615 59 view .LVU785
 2230              		.loc 1 614 16 is_stmt 0 view .LVU786
 2231 0122 616B     		ldr	r1, [r4, #52]
 2232              	.LVL143:
 2233              		.loc 1 615 59 view .LVU787
 2234 0124 11F04503 		ands	r3, r1, #69
 2235 0128 FBD0     		beq	.L157
 2236              		.loc 1 617 3 is_stmt 1 view .LVU788
 2237              		.loc 1 619 6 is_stmt 0 view .LVU789
 2238 012a 11F0050F 		tst	r1, #5
 2239              		.loc 1 617 20 view .LVU790
 2240 012e A363     		str	r3, [r4, #56]
 2241              		.loc 1 619 3 is_stmt 1 view .LVU791
 2242              		.loc 1 619 6 is_stmt 0 view .LVU792
 2243 0130 16D1     		bne	.L170
 2244              		.loc 1 623 3 is_stmt 1 view .LVU793
 2245              		.loc 1 623 22 is_stmt 0 view .LVU794
 2246 0132 6369     		ldr	r3, [r4, #20]
 2247              	.LBE359:
 2248              	.LBE358:
 2249              	.LBE357:
 2250              	.LBE356:
 2251              	.LBE375:
 2252              	.LBE386:
 2253              		.loc 1 757 10 view .LVU795
 2254 0134 4FF00109 		mov	r9, #1
 2255              	.LBB387:
 2256              	.LBB376:
 2257              	.LBB369:
 2258              	.LBB366:
 2259              	.LBB363:
 2260              	.LBB360:
 2261              		.loc 1 623 9 view .LVU796
 2262 0138 3360     		str	r3, [r6]
 2263              		.loc 1 624 3 is_stmt 1 view .LVU797
 2264              	.LVL144:
 2265              		.loc 1 624 3 is_stmt 0 view .LVU798
 2266              	.LBE360:
 2267              	.LBE363:
 2268              	.LBE366:
 2269              	.LBE369:
 2270              	.LBE376:
 2271              	.LBE387:
 2272              	.LBE334:
 2273              	.LBE333:
 2274              		.loc 1 758 1 view .LVU799
 2275 013a 4846     		mov	r0, r9
 2276              	.LVL145:
 2277              		.loc 1 758 1 view .LVU800
 2278 013c BDE8F883 		pop	{r3, r4, r5, r6, r7, r8, r9, pc}
 2279              	.LVL146:
 2280              	.L169:
ARM GAS  C:\Users\DEVELO~1\AppData\Local\Temp\ccuGzkMt.s 			page 41


 2281              	.LBB395:
 2282              	.LBB393:
 2283              	.LBB388:
 2284              	.LBB353:
 2285              	.LBB350:
 2286              	.LBB347:
 2287              		.loc 1 620 5 is_stmt 1 view .LVU801
 2288 0140 3846     		mov	r0, r7
 2289 0142 FFF7FEFF 		bl	sdc_lld_collect_errors
 2290              	.LVL147:
 2291              		.loc 1 621 5 view .LVU802
 2292              	.L152:
 2293              		.loc 1 621 5 is_stmt 0 view .LVU803
 2294              	.LBE347:
 2295              	.LBE350:
 2296              		.loc 1 204 7 is_stmt 1 view .LVU804
 2297              		.loc 1 204 7 is_stmt 0 view .LVU805
 2298              	.LBE353:
 2299              	.LBE388:
 2300              		.loc 1 756 3 is_stmt 1 view .LVU806
 2301              	.LBB389:
 2302              		.loc 1 334 13 view .LVU807
 2303              	.LBB377:
 2304              		.loc 1 337 3 view .LVU808
 2305              		.loc 1 340 3 view .LVU809
 2306              		.loc 1 340 25 is_stmt 0 view .LVU810
 2307 0146 616B     		ldr	r1, [r4, #52]
 2308              	.LVL148:
 2309              		.loc 1 341 3 is_stmt 1 view .LVU811
 2310              		.loc 1 342 25 is_stmt 0 view .LVU812
 2311 0148 0023     		movs	r3, #0
 2312              	.LBE377:
 2313              	.LBE389:
 2314              		.loc 1 757 10 view .LVU813
 2315 014a 4FF00109 		mov	r9, #1
 2316              	.LBB390:
 2317              	.LBB378:
 2318              		.loc 1 344 3 view .LVU814
 2319 014e 3846     		mov	r0, r7
 2320              		.loc 1 341 25 view .LVU815
 2321 0150 A163     		str	r1, [r4, #56]
 2322              		.loc 1 342 3 is_stmt 1 view .LVU816
 2323              		.loc 1 342 25 is_stmt 0 view .LVU817
 2324 0152 2365     		str	r3, [r4, #80]
 2325              		.loc 1 343 3 is_stmt 1 view .LVU818
 2326              		.loc 1 343 25 is_stmt 0 view .LVU819
 2327 0154 E362     		str	r3, [r4, #44]
 2328              		.loc 1 344 3 is_stmt 1 view .LVU820
 2329 0156 FFF7FEFF 		bl	sdc_lld_collect_errors
 2330              	.LVL149:
 2331              		.loc 1 346 3 view .LVU821
 2332              	.LBE378:
 2333              	.LBE390:
 2334              	.LBE393:
 2335              	.LBE395:
 2336              		.loc 1 758 1 is_stmt 0 view .LVU822
 2337 015a 4846     		mov	r0, r9
ARM GAS  C:\Users\DEVELO~1\AppData\Local\Temp\ccuGzkMt.s 			page 42


 2338 015c BDE8F883 		pop	{r3, r4, r5, r6, r7, r8, r9, pc}
 2339              	.LVL150:
 2340              	.L170:
 2341              	.LBB396:
 2342              	.LBB394:
 2343              	.LBB391:
 2344              	.LBB379:
 2345              	.LBB370:
 2346              	.LBB367:
 2347              	.LBB364:
 2348              	.LBB361:
 2349              		.loc 1 620 5 is_stmt 1 view .LVU823
 2350 0160 3846     		mov	r0, r7
 2351              	.LVL151:
 2352              		.loc 1 620 5 is_stmt 0 view .LVU824
 2353              	.LBE361:
 2354              	.LBE364:
 2355              	.LBE367:
 2356              	.LBE370:
 2357              	.LBE379:
 2358              	.LBE391:
 2359              		.loc 1 757 10 view .LVU825
 2360 0162 4FF00109 		mov	r9, #1
 2361              	.LBB392:
 2362              	.LBB380:
 2363              	.LBB371:
 2364              	.LBB368:
 2365              	.LBB365:
 2366              	.LBB362:
 2367              		.loc 1 620 5 view .LVU826
 2368 0166 FFF7FEFF 		bl	sdc_lld_collect_errors
 2369              	.LVL152:
 2370              		.loc 1 621 5 is_stmt 1 view .LVU827
 2371              		.loc 1 621 12 is_stmt 0 view .LVU828
 2372 016a 66E7     		b	.L159
 2373              	.L172:
 2374              		.align	2
 2375              	.L171:
 2376 016c D34D6210 		.word	274877907
 2377 0170 08E0FFFD 		.word	-33562616
 2378              	.LBE362:
 2379              	.LBE365:
 2380              	.LBE368:
 2381              	.LBE371:
 2382              	.LBE380:
 2383              	.LBE392:
 2384              	.LBE394:
 2385              	.LBE396:
 2386              		.cfi_endproc
 2387              	.LFE468:
 2388              		.size	sdc_lld_read_aligned, .-sdc_lld_read_aligned
 2389              		.section	.text.sdc_lld_write_aligned,"ax",%progbits
 2390              		.align	1
 2391              		.p2align 4,,15
 2392              		.global	sdc_lld_write_aligned
 2393              		.syntax unified
 2394              		.thumb
ARM GAS  C:\Users\DEVELO~1\AppData\Local\Temp\ccuGzkMt.s 			page 43


 2395              		.thumb_func
 2396              		.type	sdc_lld_write_aligned, %function
 2397              	sdc_lld_write_aligned:
 2398              	.LVL153:
 2399              	.LFB469:
 2400              		.loc 1 775 65 is_stmt 1 view -0
 2401              		.cfi_startproc
 2402              		@ args = 0, pretend = 0, frame = 0
 2403              		@ frame_needed = 0, uses_anonymous_args = 0
 2404              		.loc 1 775 65 is_stmt 0 view .LVU830
 2405 0000 2DE9F843 		push	{r3, r4, r5, r6, r7, r8, r9, lr}
 2406              		.cfi_def_cfa_offset 32
 2407              		.cfi_offset 3, -32
 2408              		.cfi_offset 4, -28
 2409              		.cfi_offset 5, -24
 2410              		.cfi_offset 6, -20
 2411              		.cfi_offset 7, -16
 2412              		.cfi_offset 8, -12
 2413              		.cfi_offset 9, -8
 2414              		.cfi_offset 14, -4
 2415              		.loc 1 775 65 view .LVU831
 2416 0004 1646     		mov	r6, r2
 2417              		.loc 1 777 3 is_stmt 1 view .LVU832
 2418              		.loc 1 777 3 view .LVU833
 2419              		.loc 1 777 3 view .LVU834
 2420              		.loc 1 779 3 view .LVU835
 2421              		.loc 1 775 65 is_stmt 0 view .LVU836
 2422 0006 9846     		mov	r8, r3
 2423              	.LBB415:
 2424              	.LBB416:
 2425              		.loc 1 122 41 view .LVU837
 2426 0008 DFF860C1 		ldr	ip, .L203
 2427              	.LBE416:
 2428              	.LBE415:
 2429              		.loc 1 775 65 view .LVU838
 2430 000c 0D46     		mov	r5, r1
 2431              	.LBB419:
 2432              	.LBB417:
 2433              		.loc 1 122 50 view .LVU839
 2434 000e 42F21071 		movw	r1, #10000
 2435              	.LVL154:
 2436              		.loc 1 122 50 view .LVU840
 2437              	.LBE417:
 2438              	.LBE419:
 2439              		.loc 1 775 65 view .LVU841
 2440 0012 0746     		mov	r7, r0
 2441              	.LBB420:
 2442              	.LBB418:
 2443              		.loc 1 122 27 view .LVU842
 2444 0014 D0E91124 		ldrd	r2, r4, [r0, #68]
 2445              	.LVL155:
 2446              		.loc 1 121 30 view .LVU843
 2447 0018 5368     		ldr	r3, [r2, #4]
 2448              	.LVL156:
 2449              		.loc 1 122 3 is_stmt 1 view .LVU844
 2450              		.loc 1 121 38 is_stmt 0 view .LVU845
 2451 001a C3F30903 		ubfx	r3, r3, #0, #10
ARM GAS  C:\Users\DEVELO~1\AppData\Local\Temp\ccuGzkMt.s 			page 44


 2452              	.LVL157:
 2453              		.loc 1 121 12 view .LVU846
 2454 001e 0133     		adds	r3, r3, #1
 2455              		.loc 1 122 34 view .LVU847
 2456 0020 5B00     		lsls	r3, r3, #1
 2457              		.loc 1 122 27 view .LVU848
 2458 0022 B4FBF3F4 		udiv	r4, r4, r3
 2459              		.loc 1 122 41 view .LVU849
 2460 0026 ACFB04C4 		umull	ip, r4, ip, r4
 2461 002a A409     		lsrs	r4, r4, #6
 2462              		.loc 1 122 50 view .LVU850
 2463 002c 01FB04F4 		mul	r4, r1, r4
 2464              		.loc 1 122 50 view .LVU851
 2465              	.LBE418:
 2466              	.LBE420:
 2467              		.loc 1 779 23 view .LVU852
 2468 0030 5462     		str	r4, [r2, #36]
 2469              		.loc 1 782 3 is_stmt 1 view .LVU853
 2470              		.loc 1 782 7 is_stmt 0 view .LVU854
 2471 0032 FFF7FEFF 		bl	_sdc_wait_for_transfer_state
 2472              	.LVL158:
 2473              		.loc 1 782 6 view .LVU855
 2474 0036 8146     		mov	r9, r0
 2475 0038 10B1     		cbz	r0, .L199
 2476              	.LVL159:
 2477              	.L191:
 2478              		.loc 1 814 1 view .LVU856
 2479 003a 4846     		mov	r0, r9
 2480 003c BDE8F883 		pop	{r3, r4, r5, r6, r7, r8, r9, pc}
 2481              	.LVL160:
 2482              	.L199:
 2483              	.LBB421:
 2484              	.LBI421:
 2485              		.loc 1 774 6 is_stmt 1 view .LVU857
 2486              	.LBB422:
 2487              		.loc 1 786 3 view .LVU858
 2488              		.loc 1 786 7 is_stmt 0 view .LVU859
 2489 0040 7C6C     		ldr	r4, [r7, #68]
 2490              		.loc 1 787 26 view .LVU860
 2491 0042 0123     		movs	r3, #1
 2492              		.loc 1 786 26 view .LVU861
 2493 0044 A665     		str	r6, [r4, #88]
 2494              		.loc 1 787 3 is_stmt 1 view .LVU862
 2495              		.loc 1 787 26 is_stmt 0 view .LVU863
 2496 0046 2365     		str	r3, [r4, #80]
 2497              		.loc 1 790 3 is_stmt 1 view .LVU864
 2498              		.loc 1 790 22 is_stmt 0 view .LVU865
 2499 0048 4FF0FF33 		mov	r3, #-1
 2500              		.loc 1 797 7 view .LVU866
 2501 004c FE6C     		ldr	r6, [r7, #76]
 2502              	.LVL161:
 2503              		.loc 1 790 22 view .LVU867
 2504 004e A363     		str	r3, [r4, #56]
 2505              		.loc 1 791 3 is_stmt 1 view .LVU868
 2506              		.loc 1 791 22 is_stmt 0 view .LVU869
 2507 0050 4FF48D73 		mov	r3, #282
 2508 0054 E363     		str	r3, [r4, #60]
ARM GAS  C:\Users\DEVELO~1\AppData\Local\Temp\ccuGzkMt.s 			page 45


 2509              		.loc 1 795 3 is_stmt 1 view .LVU870
 2510              		.loc 1 795 31 is_stmt 0 view .LVU871
 2511 0056 4FEA4823 		lsl	r3, r8, #9
 2512              		.loc 1 795 22 view .LVU872
 2513 005a A362     		str	r3, [r4, #40]
 2514              		.loc 1 797 3 is_stmt 1 view .LVU873
 2515              	.LVL162:
 2516              	.LBB423:
 2517              	.LBI423:
 2518              		.loc 1 225 13 view .LVU874
 2519              	.LBB424:
 2520              		.loc 1 230 3 view .LVU875
 2521              		.loc 1 230 24 is_stmt 0 view .LVU876
 2522 005c 3B6B     		ldr	r3, [r7, #48]
 2523              		.loc 1 230 6 view .LVU877
 2524 005e DB06     		lsls	r3, r3, #27
 2525              		.loc 1 231 5 is_stmt 1 view .LVU878
 2526              		.loc 1 231 14 is_stmt 0 view .LVU879
 2527 0060 58BF     		it	pl
 2528 0062 6D02     		lslpl	r5, r5, #9
 2529              	.LVL163:
 2530              		.loc 1 233 3 is_stmt 1 view .LVU880
 2531              		.loc 1 233 6 is_stmt 0 view .LVU881
 2532 0064 B8F1010F 		cmp	r8, #1
 2533              	.LBB425:
 2534              	.LBB426:
 2535              		.loc 1 612 20 view .LVU882
 2536 0068 A560     		str	r5, [r4, #8]
 2537              	.LBE426:
 2538              	.LBE425:
 2539              		.loc 1 233 6 view .LVU883
 2540 006a 24D9     		bls	.L176
 2541              		.loc 1 235 5 is_stmt 1 view .LVU884
 2542              	.LVL164:
 2543              	.LBB430:
 2544              	.LBI425:
 2545              		.loc 1 608 6 view .LVU885
 2546              	.LBB427:
 2547              		.loc 1 610 3 view .LVU886
 2548              		.loc 1 612 3 view .LVU887
 2549              		.loc 1 613 3 view .LVU888
 2550              		.loc 1 613 20 is_stmt 0 view .LVU889
 2551 006c 41F21913 		movw	r3, #4377
 2552 0070 E360     		str	r3, [r4, #12]
 2553              		.loc 1 614 3 is_stmt 1 view .LVU890
 2554              	.L177:
 2555              		.loc 1 615 59 view .LVU891
 2556              		.loc 1 614 16 is_stmt 0 view .LVU892
 2557 0072 616B     		ldr	r1, [r4, #52]
 2558              	.LVL165:
 2559              		.loc 1 615 59 view .LVU893
 2560 0074 11F04503 		ands	r3, r1, #69
 2561 0078 FBD0     		beq	.L177
 2562              		.loc 1 617 3 is_stmt 1 view .LVU894
 2563              		.loc 1 619 6 is_stmt 0 view .LVU895
 2564 007a 11F0050F 		tst	r1, #5
 2565              		.loc 1 617 20 view .LVU896
ARM GAS  C:\Users\DEVELO~1\AppData\Local\Temp\ccuGzkMt.s 			page 46


 2566 007e A363     		str	r3, [r4, #56]
 2567              		.loc 1 619 3 is_stmt 1 view .LVU897
 2568              		.loc 1 619 6 is_stmt 0 view .LVU898
 2569 0080 3FD1     		bne	.L200
 2570              		.loc 1 623 3 is_stmt 1 view .LVU899
 2571              		.loc 1 623 22 is_stmt 0 view .LVU900
 2572 0082 6369     		ldr	r3, [r4, #20]
 2573              	.LBE427:
 2574              	.LBE430:
 2575              		.loc 1 236 55 view .LVU901
 2576 0084 3A4D     		ldr	r5, .L203+4
 2577              	.LVL166:
 2578              	.LBB431:
 2579              	.LBB428:
 2580              		.loc 1 623 9 view .LVU902
 2581 0086 3360     		str	r3, [r6]
 2582              		.loc 1 624 3 is_stmt 1 view .LVU903
 2583              	.LVL167:
 2584              		.loc 1 624 3 is_stmt 0 view .LVU904
 2585              	.LBE428:
 2586              	.LBE431:
 2587              		.loc 1 236 55 view .LVU905
 2588 0088 1D40     		ands	r5, r5, r3
 2589              		.loc 1 236 52 view .LVU906
 2590 008a 002D     		cmp	r5, #0
 2591 008c 3CD1     		bne	.L179
 2592              	.LVL168:
 2593              		.loc 1 236 52 view .LVU907
 2594              	.LBE424:
 2595              	.LBE423:
 2596              		.loc 1 801 3 is_stmt 1 view .LVU908
 2597              		.loc 1 801 22 is_stmt 0 view .LVU909
 2598 008e 42F29103 		movw	r3, #8337
 2599              		.loc 1 806 7 view .LVU910
 2600 0092 3246     		mov	r2, r6
 2601 0094 4146     		mov	r1, r8
 2602 0096 3846     		mov	r0, r7
 2603              		.loc 1 801 22 view .LVU911
 2604 0098 E362     		str	r3, [r4, #44]
 2605              		.loc 1 806 3 is_stmt 1 view .LVU912
 2606              		.loc 1 806 7 is_stmt 0 view .LVU913
 2607 009a FFF7FEFF 		bl	sdc_lld_wait_transaction_end
 2608              	.LVL169:
 2609              		.loc 1 806 6 view .LVU914
 2610 009e 0028     		cmp	r0, #0
 2611 00a0 CBD0     		beq	.L191
 2612              		.loc 1 812 3 is_stmt 1 view .LVU915
 2613              	.LBB442:
 2614              	.LBB443:
 2615              		.loc 1 340 31 is_stmt 0 view .LVU916
 2616 00a2 7C6C     		ldr	r4, [r7, #68]
 2617              		.loc 1 344 3 view .LVU917
 2618 00a4 3846     		mov	r0, r7
 2619              	.LBE443:
 2620              	.LBE442:
 2621              		.loc 1 812 3 view .LVU918
 2622 00a6 FE6C     		ldr	r6, [r7, #76]
ARM GAS  C:\Users\DEVELO~1\AppData\Local\Temp\ccuGzkMt.s 			page 47


 2623              	.LVL170:
 2624              	.LBB469:
 2625              	.LBI442:
 2626              		.loc 1 334 13 is_stmt 1 view .LVU919
 2627              	.LBB460:
 2628              		.loc 1 337 3 view .LVU920
 2629              		.loc 1 340 3 view .LVU921
 2630              		.loc 1 340 25 is_stmt 0 view .LVU922
 2631 00a8 616B     		ldr	r1, [r4, #52]
 2632              	.LVL171:
 2633              		.loc 1 341 3 is_stmt 1 view .LVU923
 2634              		.loc 1 341 25 is_stmt 0 view .LVU924
 2635 00aa A163     		str	r1, [r4, #56]
 2636              		.loc 1 342 3 is_stmt 1 view .LVU925
 2637              		.loc 1 342 25 is_stmt 0 view .LVU926
 2638 00ac 2565     		str	r5, [r4, #80]
 2639              		.loc 1 343 3 is_stmt 1 view .LVU927
 2640              		.loc 1 343 25 is_stmt 0 view .LVU928
 2641 00ae E562     		str	r5, [r4, #44]
 2642              		.loc 1 344 3 is_stmt 1 view .LVU929
 2643 00b0 FFF7FEFF 		bl	sdc_lld_collect_errors
 2644              	.LVL172:
 2645              		.loc 1 346 3 view .LVU930
 2646 00b4 30E0     		b	.L181
 2647              	.LVL173:
 2648              	.L176:
 2649              		.loc 1 346 3 is_stmt 0 view .LVU931
 2650              	.LBE460:
 2651              	.LBE469:
 2652              	.LBB470:
 2653              	.LBB439:
 2654              		.loc 1 242 5 is_stmt 1 view .LVU932
 2655              	.LBB432:
 2656              	.LBI432:
 2657              		.loc 1 608 6 view .LVU933
 2658              	.LBB433:
 2659              		.loc 1 610 3 view .LVU934
 2660              		.loc 1 612 3 view .LVU935
 2661              		.loc 1 613 3 view .LVU936
 2662              		.loc 1 613 20 is_stmt 0 view .LVU937
 2663 00b6 41F21813 		movw	r3, #4376
 2664 00ba E360     		str	r3, [r4, #12]
 2665              		.loc 1 614 3 is_stmt 1 view .LVU938
 2666              	.L182:
 2667              		.loc 1 615 59 view .LVU939
 2668              		.loc 1 614 16 is_stmt 0 view .LVU940
 2669 00bc 616B     		ldr	r1, [r4, #52]
 2670              	.LVL174:
 2671              		.loc 1 615 59 view .LVU941
 2672 00be 11F04503 		ands	r3, r1, #69
 2673 00c2 FBD0     		beq	.L182
 2674              		.loc 1 617 3 is_stmt 1 view .LVU942
 2675              		.loc 1 619 6 is_stmt 0 view .LVU943
 2676 00c4 11F0050F 		tst	r1, #5
 2677              		.loc 1 617 20 view .LVU944
 2678 00c8 A363     		str	r3, [r4, #56]
 2679              		.loc 1 619 3 is_stmt 1 view .LVU945
ARM GAS  C:\Users\DEVELO~1\AppData\Local\Temp\ccuGzkMt.s 			page 48


 2680              		.loc 1 619 6 is_stmt 0 view .LVU946
 2681 00ca 39D1     		bne	.L201
 2682              		.loc 1 623 3 is_stmt 1 view .LVU947
 2683              		.loc 1 623 22 is_stmt 0 view .LVU948
 2684 00cc 6369     		ldr	r3, [r4, #20]
 2685              	.LBE433:
 2686              	.LBE432:
 2687              		.loc 1 243 55 view .LVU949
 2688 00ce 284D     		ldr	r5, .L203+4
 2689              	.LVL175:
 2690              	.LBB436:
 2691              	.LBB434:
 2692              		.loc 1 623 9 view .LVU950
 2693 00d0 3360     		str	r3, [r6]
 2694              		.loc 1 624 3 is_stmt 1 view .LVU951
 2695              	.LVL176:
 2696              		.loc 1 624 3 is_stmt 0 view .LVU952
 2697              	.LBE434:
 2698              	.LBE436:
 2699              		.loc 1 243 55 view .LVU953
 2700 00d2 1D40     		ands	r5, r5, r3
 2701              		.loc 1 243 52 view .LVU954
 2702 00d4 002D     		cmp	r5, #0
 2703 00d6 36D1     		bne	.L184
 2704              	.LVL177:
 2705              		.loc 1 243 52 view .LVU955
 2706              	.LBE439:
 2707              	.LBE470:
 2708              		.loc 1 801 3 is_stmt 1 view .LVU956
 2709              		.loc 1 801 22 is_stmt 0 view .LVU957
 2710 00d8 42F29103 		movw	r3, #8337
 2711              		.loc 1 806 7 view .LVU958
 2712 00dc 3246     		mov	r2, r6
 2713 00de 4146     		mov	r1, r8
 2714 00e0 3846     		mov	r0, r7
 2715              		.loc 1 801 22 view .LVU959
 2716 00e2 E362     		str	r3, [r4, #44]
 2717              		.loc 1 806 3 is_stmt 1 view .LVU960
 2718              		.loc 1 806 7 is_stmt 0 view .LVU961
 2719 00e4 FFF7FEFF 		bl	sdc_lld_wait_transaction_end
 2720              	.LVL178:
 2721              		.loc 1 806 6 view .LVU962
 2722 00e8 0346     		mov	r3, r0
 2723 00ea 0028     		cmp	r0, #0
 2724 00ec A5D0     		beq	.L191
 2725              	.L186:
 2726              		.loc 1 812 3 is_stmt 1 view .LVU963
 2727              	.LVL179:
 2728              	.LBB471:
 2729              		.loc 1 334 13 view .LVU964
 2730              	.LBB461:
 2731              		.loc 1 337 3 view .LVU965
 2732              		.loc 1 340 3 view .LVU966
 2733              		.loc 1 340 31 is_stmt 0 view .LVU967
 2734 00ee 7A6C     		ldr	r2, [r7, #68]
 2735              		.loc 1 344 3 view .LVU968
 2736 00f0 3846     		mov	r0, r7
ARM GAS  C:\Users\DEVELO~1\AppData\Local\Temp\ccuGzkMt.s 			page 49


 2737              	.LBE461:
 2738              	.LBE471:
 2739              		.loc 1 813 10 view .LVU969
 2740 00f2 9946     		mov	r9, r3
 2741              	.LBB472:
 2742              	.LBB462:
 2743              		.loc 1 340 25 view .LVU970
 2744 00f4 516B     		ldr	r1, [r2, #52]
 2745              	.LVL180:
 2746              		.loc 1 341 3 is_stmt 1 view .LVU971
 2747              		.loc 1 341 25 is_stmt 0 view .LVU972
 2748 00f6 9163     		str	r1, [r2, #56]
 2749              		.loc 1 342 3 is_stmt 1 view .LVU973
 2750              		.loc 1 342 25 is_stmt 0 view .LVU974
 2751 00f8 1565     		str	r5, [r2, #80]
 2752              		.loc 1 343 3 is_stmt 1 view .LVU975
 2753              		.loc 1 343 25 is_stmt 0 view .LVU976
 2754 00fa D562     		str	r5, [r2, #44]
 2755              		.loc 1 344 3 is_stmt 1 view .LVU977
 2756 00fc FFF7FEFF 		bl	sdc_lld_collect_errors
 2757              	.LVL181:
 2758              		.loc 1 346 3 view .LVU978
 2759 0100 9BE7     		b	.L191
 2760              	.LVL182:
 2761              	.L200:
 2762              		.loc 1 346 3 is_stmt 0 view .LVU979
 2763              	.LBE462:
 2764              	.LBE472:
 2765              	.LBB473:
 2766              	.LBB440:
 2767              	.LBB437:
 2768              	.LBB429:
 2769              		.loc 1 620 5 is_stmt 1 view .LVU980
 2770 0102 3846     		mov	r0, r7
 2771 0104 FFF7FEFF 		bl	sdc_lld_collect_errors
 2772              	.LVL183:
 2773              		.loc 1 621 5 view .LVU981
 2774              	.L179:
 2775              		.loc 1 621 5 is_stmt 0 view .LVU982
 2776              	.LBE429:
 2777              	.LBE437:
 2778              		.loc 1 237 7 is_stmt 1 view .LVU983
 2779              		.loc 1 237 7 is_stmt 0 view .LVU984
 2780              	.LBE440:
 2781              	.LBE473:
 2782              		.loc 1 812 3 is_stmt 1 view .LVU985
 2783              	.LBB474:
 2784              		.loc 1 334 13 view .LVU986
 2785              	.LBB463:
 2786              		.loc 1 337 3 view .LVU987
 2787              		.loc 1 340 3 view .LVU988
 2788              		.loc 1 340 25 is_stmt 0 view .LVU989
 2789 0108 616B     		ldr	r1, [r4, #52]
 2790              	.LVL184:
 2791              		.loc 1 341 3 is_stmt 1 view .LVU990
 2792              		.loc 1 342 25 is_stmt 0 view .LVU991
 2793 010a 0023     		movs	r3, #0
ARM GAS  C:\Users\DEVELO~1\AppData\Local\Temp\ccuGzkMt.s 			page 50


 2794              		.loc 1 344 3 view .LVU992
 2795 010c 3846     		mov	r0, r7
 2796              		.loc 1 341 25 view .LVU993
 2797 010e A163     		str	r1, [r4, #56]
 2798              		.loc 1 342 3 is_stmt 1 view .LVU994
 2799              		.loc 1 342 25 is_stmt 0 view .LVU995
 2800 0110 2365     		str	r3, [r4, #80]
 2801              		.loc 1 343 3 is_stmt 1 view .LVU996
 2802              		.loc 1 343 25 is_stmt 0 view .LVU997
 2803 0112 E362     		str	r3, [r4, #44]
 2804              		.loc 1 344 3 is_stmt 1 view .LVU998
 2805 0114 FFF7FEFF 		bl	sdc_lld_collect_errors
 2806              	.LVL185:
 2807              		.loc 1 346 3 view .LVU999
 2808              	.L181:
 2809              	.LBB444:
 2810              	.LBI444:
 2811              		.loc 1 334 13 view .LVU1000
 2812              	.LBB445:
 2813              		.loc 1 347 5 view .LVU1001
 2814              	.LBB446:
 2815              	.LBI446:
 2816              		.loc 1 608 6 view .LVU1002
 2817              	.LBB447:
 2818              		.loc 1 610 3 view .LVU1003
 2819              		.loc 1 612 3 view .LVU1004
 2820              		.loc 1 612 20 is_stmt 0 view .LVU1005
 2821 0118 0022     		movs	r2, #0
 2822              		.loc 1 613 20 view .LVU1006
 2823 011a 41F20C13 		movw	r3, #4364
 2824              		.loc 1 612 20 view .LVU1007
 2825 011e A260     		str	r2, [r4, #8]
 2826              		.loc 1 613 3 is_stmt 1 view .LVU1008
 2827              		.loc 1 613 20 is_stmt 0 view .LVU1009
 2828 0120 E360     		str	r3, [r4, #12]
 2829              		.loc 1 614 3 is_stmt 1 view .LVU1010
 2830              	.L189:
 2831              		.loc 1 615 59 view .LVU1011
 2832              		.loc 1 614 16 is_stmt 0 view .LVU1012
 2833 0122 616B     		ldr	r1, [r4, #52]
 2834              	.LVL186:
 2835              		.loc 1 615 59 view .LVU1013
 2836 0124 11F04503 		ands	r3, r1, #69
 2837 0128 FBD0     		beq	.L189
 2838              		.loc 1 617 3 is_stmt 1 view .LVU1014
 2839              		.loc 1 619 6 is_stmt 0 view .LVU1015
 2840 012a 11F0050F 		tst	r1, #5
 2841              		.loc 1 617 20 view .LVU1016
 2842 012e A363     		str	r3, [r4, #56]
 2843              		.loc 1 619 3 is_stmt 1 view .LVU1017
 2844              		.loc 1 619 6 is_stmt 0 view .LVU1018
 2845 0130 16D1     		bne	.L202
 2846              		.loc 1 623 3 is_stmt 1 view .LVU1019
 2847              		.loc 1 623 22 is_stmt 0 view .LVU1020
 2848 0132 6369     		ldr	r3, [r4, #20]
 2849              	.LBE447:
 2850              	.LBE446:
ARM GAS  C:\Users\DEVELO~1\AppData\Local\Temp\ccuGzkMt.s 			page 51


 2851              	.LBE445:
 2852              	.LBE444:
 2853              	.LBE463:
 2854              	.LBE474:
 2855              		.loc 1 813 10 view .LVU1021
 2856 0134 4FF00109 		mov	r9, #1
 2857              	.LBB475:
 2858              	.LBB464:
 2859              	.LBB457:
 2860              	.LBB454:
 2861              	.LBB451:
 2862              	.LBB448:
 2863              		.loc 1 623 9 view .LVU1022
 2864 0138 3360     		str	r3, [r6]
 2865              		.loc 1 624 3 is_stmt 1 view .LVU1023
 2866              	.LVL187:
 2867              		.loc 1 624 3 is_stmt 0 view .LVU1024
 2868              	.LBE448:
 2869              	.LBE451:
 2870              	.LBE454:
 2871              	.LBE457:
 2872              	.LBE464:
 2873              	.LBE475:
 2874              	.LBE422:
 2875              	.LBE421:
 2876              		.loc 1 814 1 view .LVU1025
 2877 013a 4846     		mov	r0, r9
 2878              	.LVL188:
 2879              		.loc 1 814 1 view .LVU1026
 2880 013c BDE8F883 		pop	{r3, r4, r5, r6, r7, r8, r9, pc}
 2881              	.LVL189:
 2882              	.L201:
 2883              	.LBB483:
 2884              	.LBB481:
 2885              	.LBB476:
 2886              	.LBB441:
 2887              	.LBB438:
 2888              	.LBB435:
 2889              		.loc 1 620 5 is_stmt 1 view .LVU1027
 2890 0140 3846     		mov	r0, r7
 2891 0142 FFF7FEFF 		bl	sdc_lld_collect_errors
 2892              	.LVL190:
 2893              		.loc 1 621 5 view .LVU1028
 2894              	.L184:
 2895              		.loc 1 621 5 is_stmt 0 view .LVU1029
 2896              	.LBE435:
 2897              	.LBE438:
 2898              		.loc 1 244 7 is_stmt 1 view .LVU1030
 2899              		.loc 1 244 7 is_stmt 0 view .LVU1031
 2900              	.LBE441:
 2901              	.LBE476:
 2902              		.loc 1 812 3 is_stmt 1 view .LVU1032
 2903              	.LBB477:
 2904              		.loc 1 334 13 view .LVU1033
 2905              	.LBB465:
 2906              		.loc 1 337 3 view .LVU1034
 2907              		.loc 1 340 3 view .LVU1035
ARM GAS  C:\Users\DEVELO~1\AppData\Local\Temp\ccuGzkMt.s 			page 52


 2908              		.loc 1 340 25 is_stmt 0 view .LVU1036
 2909 0146 616B     		ldr	r1, [r4, #52]
 2910              	.LVL191:
 2911              		.loc 1 341 3 is_stmt 1 view .LVU1037
 2912              		.loc 1 342 25 is_stmt 0 view .LVU1038
 2913 0148 0023     		movs	r3, #0
 2914              	.LBE465:
 2915              	.LBE477:
 2916              		.loc 1 813 10 view .LVU1039
 2917 014a 4FF00109 		mov	r9, #1
 2918              	.LBB478:
 2919              	.LBB466:
 2920              		.loc 1 344 3 view .LVU1040
 2921 014e 3846     		mov	r0, r7
 2922              		.loc 1 341 25 view .LVU1041
 2923 0150 A163     		str	r1, [r4, #56]
 2924              		.loc 1 342 3 is_stmt 1 view .LVU1042
 2925              		.loc 1 342 25 is_stmt 0 view .LVU1043
 2926 0152 2365     		str	r3, [r4, #80]
 2927              		.loc 1 343 3 is_stmt 1 view .LVU1044
 2928              		.loc 1 343 25 is_stmt 0 view .LVU1045
 2929 0154 E362     		str	r3, [r4, #44]
 2930              		.loc 1 344 3 is_stmt 1 view .LVU1046
 2931 0156 FFF7FEFF 		bl	sdc_lld_collect_errors
 2932              	.LVL192:
 2933              		.loc 1 346 3 view .LVU1047
 2934              	.LBE466:
 2935              	.LBE478:
 2936              	.LBE481:
 2937              	.LBE483:
 2938              		.loc 1 814 1 is_stmt 0 view .LVU1048
 2939 015a 4846     		mov	r0, r9
 2940 015c BDE8F883 		pop	{r3, r4, r5, r6, r7, r8, r9, pc}
 2941              	.LVL193:
 2942              	.L202:
 2943              	.LBB484:
 2944              	.LBB482:
 2945              	.LBB479:
 2946              	.LBB467:
 2947              	.LBB458:
 2948              	.LBB455:
 2949              	.LBB452:
 2950              	.LBB449:
 2951              		.loc 1 620 5 is_stmt 1 view .LVU1049
 2952 0160 3846     		mov	r0, r7
 2953              	.LVL194:
 2954              		.loc 1 620 5 is_stmt 0 view .LVU1050
 2955              	.LBE449:
 2956              	.LBE452:
 2957              	.LBE455:
 2958              	.LBE458:
 2959              	.LBE467:
 2960              	.LBE479:
 2961              		.loc 1 813 10 view .LVU1051
 2962 0162 4FF00109 		mov	r9, #1
 2963              	.LBB480:
 2964              	.LBB468:
ARM GAS  C:\Users\DEVELO~1\AppData\Local\Temp\ccuGzkMt.s 			page 53


 2965              	.LBB459:
 2966              	.LBB456:
 2967              	.LBB453:
 2968              	.LBB450:
 2969              		.loc 1 620 5 view .LVU1052
 2970 0166 FFF7FEFF 		bl	sdc_lld_collect_errors
 2971              	.LVL195:
 2972              		.loc 1 621 5 is_stmt 1 view .LVU1053
 2973              		.loc 1 621 12 is_stmt 0 view .LVU1054
 2974 016a 66E7     		b	.L191
 2975              	.L204:
 2976              		.align	2
 2977              	.L203:
 2978 016c D34D6210 		.word	274877907
 2979 0170 08E0FFFD 		.word	-33562616
 2980              	.LBE450:
 2981              	.LBE453:
 2982              	.LBE456:
 2983              	.LBE459:
 2984              	.LBE468:
 2985              	.LBE480:
 2986              	.LBE482:
 2987              	.LBE484:
 2988              		.cfi_endproc
 2989              	.LFE469:
 2990              		.size	sdc_lld_write_aligned, .-sdc_lld_write_aligned
 2991              		.section	.text.sdc_lld_read,"ax",%progbits
 2992              		.align	1
 2993              		.p2align 4,,15
 2994              		.global	sdc_lld_read
 2995              		.syntax unified
 2996              		.thumb
 2997              		.thumb_func
 2998              		.type	sdc_lld_read, %function
 2999              	sdc_lld_read:
 3000              	.LVL196:
 3001              	.LFB470:
 3002              		.loc 1 831 50 is_stmt 1 view -0
 3003              		.cfi_startproc
 3004              		@ args = 0, pretend = 0, frame = 0
 3005              		@ frame_needed = 0, uses_anonymous_args = 0
 3006              		.loc 1 834 3 view .LVU1056
 3007              		.loc 1 834 6 is_stmt 0 view .LVU1057
 3008 0000 12F0030F 		tst	r2, #3
 3009 0004 22D0     		beq	.L206
 3010              	.LVL197:
 3011              	.LBB485:
 3012              		.loc 1 836 20 is_stmt 1 view .LVU1058
 3013              	.LBE485:
 3014              		.loc 1 831 50 is_stmt 0 view .LVU1059
 3015 0006 2DE9F041 		push	{r4, r5, r6, r7, r8, lr}
 3016              		.cfi_def_cfa_offset 24
 3017              		.cfi_offset 4, -24
 3018              		.cfi_offset 5, -20
 3019              		.cfi_offset 6, -16
 3020              		.cfi_offset 7, -12
 3021              		.cfi_offset 8, -8
ARM GAS  C:\Users\DEVELO~1\AppData\Local\Temp\ccuGzkMt.s 			page 54


 3022              		.cfi_offset 14, -4
 3023 000a 1F46     		mov	r7, r3
 3024              	.LBB486:
 3025              		.loc 1 836 20 view .LVU1060
 3026 000c D3B1     		cbz	r3, .L210
 3027 000e 0646     		mov	r6, r0
 3028 0010 1546     		mov	r5, r2
 3029 0012 0C46     		mov	r4, r1
 3030 0014 0F44     		add	r7, r7, r1
 3031 0016 04E0     		b	.L209
 3032              	.LVL198:
 3033              	.L215:
 3034              		.loc 1 840 7 discriminator 2 view .LVU1061
 3035 0018 F16B     		ldr	r1, [r6, #60]
 3036 001a FFF7FEFF 		bl	memcpy
 3037              	.LVL199:
 3038              		.loc 1 841 7 is_stmt 1 discriminator 2 view .LVU1062
 3039              		.loc 1 842 7 discriminator 2 view .LVU1063
 3040              		.loc 1 836 31 discriminator 2 view .LVU1064
 3041              		.loc 1 836 20 discriminator 2 view .LVU1065
 3042 001e A742     		cmp	r7, r4
 3043 0020 10D0     		beq	.L210
 3044              	.LVL200:
 3045              	.L209:
 3046              		.loc 1 837 7 view .LVU1066
 3047              		.loc 1 837 11 is_stmt 0 view .LVU1067
 3048 0022 2146     		mov	r1, r4
 3049 0024 0123     		movs	r3, #1
 3050 0026 F26B     		ldr	r2, [r6, #60]
 3051 0028 3046     		mov	r0, r6
 3052 002a FFF7FEFF 		bl	sdc_lld_read_aligned
 3053              	.LVL201:
 3054              		.loc 1 840 7 is_stmt 1 view .LVU1068
 3055 002e 4FF40072 		mov	r2, #512
 3056              		.loc 1 837 11 is_stmt 0 view .LVU1069
 3057 0032 0346     		mov	r3, r0
 3058              		.loc 1 842 15 view .LVU1070
 3059 0034 0134     		adds	r4, r4, #1
 3060              	.LVL202:
 3061              		.loc 1 840 7 view .LVU1071
 3062 0036 2846     		mov	r0, r5
 3063              		.loc 1 841 11 view .LVU1072
 3064 0038 1544     		add	r5, r5, r2
 3065              	.LVL203:
 3066              		.loc 1 837 10 view .LVU1073
 3067 003a 002B     		cmp	r3, #0
 3068 003c ECD0     		beq	.L215
 3069              	.LBE486:
 3070              		.loc 1 850 1 view .LVU1074
 3071 003e 1846     		mov	r0, r3
 3072              	.LVL204:
 3073              		.loc 1 850 1 view .LVU1075
 3074 0040 BDE8F081 		pop	{r4, r5, r6, r7, r8, pc}
 3075              	.LVL205:
 3076              	.L210:
 3077              	.LBB487:
 3078              		.loc 1 844 12 view .LVU1076
ARM GAS  C:\Users\DEVELO~1\AppData\Local\Temp\ccuGzkMt.s 			page 55


 3079 0044 0023     		movs	r3, #0
 3080              	.LBE487:
 3081              		.loc 1 850 1 view .LVU1077
 3082 0046 1846     		mov	r0, r3
 3083 0048 BDE8F081 		pop	{r4, r5, r6, r7, r8, pc}
 3084              	.LVL206:
 3085              	.L206:
 3086              		.cfi_def_cfa_offset 0
 3087              		.cfi_restore 4
 3088              		.cfi_restore 5
 3089              		.cfi_restore 6
 3090              		.cfi_restore 7
 3091              		.cfi_restore 8
 3092              		.cfi_restore 14
 3093              		.loc 1 849 3 is_stmt 1 view .LVU1078
 3094              		.loc 1 849 10 is_stmt 0 view .LVU1079
 3095 004c FFF7FEBF 		b	sdc_lld_read_aligned
 3096              	.LVL207:
 3097              		.loc 1 849 10 view .LVU1080
 3098              		.cfi_endproc
 3099              	.LFE470:
 3100              		.size	sdc_lld_read, .-sdc_lld_read
 3101              		.section	.text.sdc_lld_write,"ax",%progbits
 3102              		.align	1
 3103              		.p2align 4,,15
 3104              		.global	sdc_lld_write
 3105              		.syntax unified
 3106              		.thumb
 3107              		.thumb_func
 3108              		.type	sdc_lld_write, %function
 3109              	sdc_lld_write:
 3110              	.LVL208:
 3111              	.LFB471:
 3112              		.loc 1 867 57 is_stmt 1 view -0
 3113              		.cfi_startproc
 3114              		@ args = 0, pretend = 0, frame = 0
 3115              		@ frame_needed = 0, uses_anonymous_args = 0
 3116              		.loc 1 870 3 view .LVU1082
 3117              		.loc 1 870 6 is_stmt 0 view .LVU1083
 3118 0000 12F0030F 		tst	r2, #3
 3119 0004 1FD0     		beq	.L217
 3120              	.LVL209:
 3121              	.LBB488:
 3122              		.loc 1 872 20 is_stmt 1 view .LVU1084
 3123              	.LBE488:
 3124              		.loc 1 867 57 is_stmt 0 view .LVU1085
 3125 0006 2DE9F041 		push	{r4, r5, r6, r7, r8, lr}
 3126              		.cfi_def_cfa_offset 24
 3127              		.cfi_offset 4, -24
 3128              		.cfi_offset 5, -20
 3129              		.cfi_offset 6, -16
 3130              		.cfi_offset 7, -12
 3131              		.cfi_offset 8, -8
 3132              		.cfi_offset 14, -4
 3133 000a 1F46     		mov	r7, r3
 3134              	.LBB489:
 3135              		.loc 1 872 20 view .LVU1086
ARM GAS  C:\Users\DEVELO~1\AppData\Local\Temp\ccuGzkMt.s 			page 56


 3136 000c C3B1     		cbz	r3, .L221
 3137 000e 0646     		mov	r6, r0
 3138 0010 1546     		mov	r5, r2
 3139 0012 0C46     		mov	r4, r1
 3140 0014 0F44     		add	r7, r7, r1
 3141 0016 01E0     		b	.L220
 3142              	.LVL210:
 3143              	.L226:
 3144              		.loc 1 872 20 discriminator 2 view .LVU1087
 3145 0018 A742     		cmp	r7, r4
 3146 001a 11D0     		beq	.L221
 3147              	.LVL211:
 3148              	.L220:
 3149              		.loc 1 873 7 is_stmt 1 view .LVU1088
 3150 001c 4FF40072 		mov	r2, #512
 3151 0020 2946     		mov	r1, r5
 3152 0022 F06B     		ldr	r0, [r6, #60]
 3153              		.loc 1 874 11 is_stmt 0 view .LVU1089
 3154 0024 1544     		add	r5, r5, r2
 3155              	.LVL212:
 3156              		.loc 1 873 7 view .LVU1090
 3157 0026 FFF7FEFF 		bl	memcpy
 3158              	.LVL213:
 3159              		.loc 1 874 7 is_stmt 1 view .LVU1091
 3160              		.loc 1 875 7 view .LVU1092
 3161              		.loc 1 875 11 is_stmt 0 view .LVU1093
 3162 002a 2146     		mov	r1, r4
 3163 002c 0123     		movs	r3, #1
 3164 002e F26B     		ldr	r2, [r6, #60]
 3165 0030 3046     		mov	r0, r6
 3166              		.loc 1 877 15 view .LVU1094
 3167 0032 0134     		adds	r4, r4, #1
 3168              	.LVL214:
 3169              		.loc 1 875 11 view .LVU1095
 3170 0034 FFF7FEFF 		bl	sdc_lld_write_aligned
 3171              	.LVL215:
 3172              		.loc 1 877 7 is_stmt 1 view .LVU1096
 3173              		.loc 1 872 31 view .LVU1097
 3174              		.loc 1 872 20 view .LVU1098
 3175              		.loc 1 875 10 is_stmt 0 view .LVU1099
 3176 0038 0028     		cmp	r0, #0
 3177 003a EDD0     		beq	.L226
 3178              	.LBE489:
 3179              		.loc 1 885 1 view .LVU1100
 3180 003c BDE8F081 		pop	{r4, r5, r6, r7, r8, pc}
 3181              	.LVL216:
 3182              	.L221:
 3183              	.LBB490:
 3184              		.loc 1 879 12 view .LVU1101
 3185 0040 0020     		movs	r0, #0
 3186              	.LBE490:
 3187              		.loc 1 885 1 view .LVU1102
 3188 0042 BDE8F081 		pop	{r4, r5, r6, r7, r8, pc}
 3189              	.LVL217:
 3190              	.L217:
 3191              		.cfi_def_cfa_offset 0
 3192              		.cfi_restore 4
ARM GAS  C:\Users\DEVELO~1\AppData\Local\Temp\ccuGzkMt.s 			page 57


 3193              		.cfi_restore 5
 3194              		.cfi_restore 6
 3195              		.cfi_restore 7
 3196              		.cfi_restore 8
 3197              		.cfi_restore 14
 3198              		.loc 1 884 3 is_stmt 1 view .LVU1103
 3199              		.loc 1 884 10 is_stmt 0 view .LVU1104
 3200 0046 FFF7FEBF 		b	sdc_lld_write_aligned
 3201              	.LVL218:
 3202              		.loc 1 884 10 view .LVU1105
 3203              		.cfi_endproc
 3204              	.LFE471:
 3205              		.size	sdc_lld_write, .-sdc_lld_write
 3206 004a 00BF     		.section	.text.sdc_lld_sync,"ax",%progbits
 3207              		.align	1
 3208              		.p2align 4,,15
 3209              		.global	sdc_lld_sync
 3210              		.syntax unified
 3211              		.thumb
 3212              		.thumb_func
 3213              		.type	sdc_lld_sync, %function
 3214              	sdc_lld_sync:
 3215              	.LVL219:
 3216              	.LFB472:
 3217              		.loc 1 898 36 is_stmt 1 view -0
 3218              		.cfi_startproc
 3219              		@ args = 0, pretend = 0, frame = 0
 3220              		@ frame_needed = 0, uses_anonymous_args = 0
 3221              		@ link register save eliminated.
 3222              		.loc 1 901 3 view .LVU1107
 3223              		.loc 1 902 3 view .LVU1108
 3224              		.loc 1 903 1 is_stmt 0 view .LVU1109
 3225 0000 0020     		movs	r0, #0
 3226              	.LVL220:
 3227              		.loc 1 903 1 view .LVU1110
 3228 0002 7047     		bx	lr
 3229              		.cfi_endproc
 3230              	.LFE472:
 3231              		.size	sdc_lld_sync, .-sdc_lld_sync
 3232              		.section	.text.sdc_lld_serve_interrupt,"ax",%progbits
 3233              		.align	1
 3234              		.p2align 4,,15
 3235              		.global	sdc_lld_serve_interrupt
 3236              		.syntax unified
 3237              		.thumb
 3238              		.thumb_func
 3239              		.type	sdc_lld_serve_interrupt, %function
 3240              	sdc_lld_serve_interrupt:
 3241              	.LVL221:
 3242              	.LFB473:
 3243              		.loc 1 910 47 is_stmt 1 view -0
 3244              		.cfi_startproc
 3245              		@ args = 0, pretend = 0, frame = 0
 3246              		@ frame_needed = 0, uses_anonymous_args = 0
 3247              		.loc 1 912 3 view .LVU1112
 3248              	.LBB491:
 3249              	.LBI491:
ARM GAS  C:\Users\DEVELO~1\AppData\Local\Temp\ccuGzkMt.s 			page 58


 3250              		.loc 2 595 20 view .LVU1113
 3251              		.loc 2 597 3 view .LVU1114
 3252              	.LBB492:
 3253              	.LBI492:
 3254              		.loc 3 416 20 view .LVU1115
 3255              		.loc 3 418 3 view .LVU1116
 3256              	.LBB493:
 3257              	.LBI493:
 3258              		.loc 4 879 27 view .LVU1117
 3259              		.loc 4 881 3 view .LVU1118
 3260              	.LBB494:
 3261              	.LBI494:
 3262              		.loc 4 840 27 view .LVU1119
 3263              		.loc 4 848 3 view .LVU1120
 3264              	.LBB495:
 3265              	.LBI495:
 3266              		.loc 5 491 27 view .LVU1121
 3267              	.LBB496:
 3268              		.loc 5 493 3 view .LVU1122
 3269 0000 3023     		movs	r3, #48
 3270              	.LBE496:
 3271              	.LBE495:
 3272              	.LBE494:
 3273              	.LBE493:
 3274              	.LBE492:
 3275              	.LBE491:
 3276              		.loc 1 910 47 is_stmt 0 view .LVU1123
 3277 0002 10B5     		push	{r4, lr}
 3278              		.cfi_def_cfa_offset 8
 3279              		.cfi_offset 4, -8
 3280              		.cfi_offset 14, -4
 3281              	.LBB502:
 3282              	.LBB501:
 3283              	.LBB500:
 3284              	.LBB499:
 3285              	.LBB498:
 3286              	.LBB497:
 3287              		.loc 5 493 3 view .LVU1124
 3288              		.syntax unified
 3289              	@ 493 "./ChibiOS/os/common/ext/ARM/CMSIS/Core/Include/cmsis_gcc.h" 1
 3290 0004 83F31188 		MSR basepri, r3
 3291              	@ 0 "" 2
 3292              	.LVL222:
 3293              		.loc 5 493 3 view .LVU1125
 3294              		.thumb
 3295              		.syntax unified
 3296              	.LBE497:
 3297              	.LBE498:
 3298              	.LBE499:
 3299              	.LBE500:
 3300              		.loc 3 419 35 is_stmt 1 view .LVU1126
 3301              		.loc 3 420 30 view .LVU1127
 3302              	.LBE501:
 3303              	.LBE502:
 3304              		.loc 1 916 3 view .LVU1128
 3305              		.loc 1 916 21 is_stmt 0 view .LVU1129
 3306 0008 0024     		movs	r4, #0
ARM GAS  C:\Users\DEVELO~1\AppData\Local\Temp\ccuGzkMt.s 			page 59


 3307              		.loc 1 916 7 view .LVU1130
 3308 000a 436C     		ldr	r3, [r0, #68]
 3309              	.LBB503:
 3310              	.LBB504:
 3311              		.loc 2 839 3 view .LVU1131
 3312 000c 4030     		adds	r0, r0, #64
 3313              	.LVL223:
 3314              		.loc 2 839 3 view .LVU1132
 3315 000e 2146     		mov	r1, r4
 3316              	.LBE504:
 3317              	.LBE503:
 3318              		.loc 1 916 21 view .LVU1133
 3319 0010 DC63     		str	r4, [r3, #60]
 3320              		.loc 1 917 3 is_stmt 1 view .LVU1134
 3321              	.LVL224:
 3322              	.LBB506:
 3323              	.LBI503:
 3324              		.loc 2 837 20 view .LVU1135
 3325              	.LBB505:
 3326              		.loc 2 839 3 view .LVU1136
 3327 0012 FFF7FEFF 		bl	chThdResumeI
 3328              	.LVL225:
 3329              		.loc 2 839 3 is_stmt 0 view .LVU1137
 3330              	.LBE505:
 3331              	.LBE506:
 3332              		.loc 1 919 3 is_stmt 1 view .LVU1138
 3333              	.LBB507:
 3334              	.LBI507:
 3335              		.loc 2 606 20 view .LVU1139
 3336              		.loc 2 608 3 view .LVU1140
 3337              	.LBB508:
 3338              	.LBI508:
 3339              		.loc 3 438 20 view .LVU1141
 3340              		.loc 3 440 32 view .LVU1142
 3341              		.loc 3 441 34 view .LVU1143
 3342              		.loc 3 442 3 view .LVU1144
 3343              	.LBB509:
 3344              	.LBI509:
 3345              		.loc 4 890 27 view .LVU1145
 3346              		.loc 4 892 3 view .LVU1146
 3347              	.LBB510:
 3348              	.LBI510:
 3349              		.loc 4 864 27 view .LVU1147
 3350              		.loc 4 867 3 view .LVU1148
 3351              	.LBB511:
 3352              	.LBI511:
 3353              		.loc 5 491 27 view .LVU1149
 3354              	.LBB512:
 3355              		.loc 5 493 3 view .LVU1150
 3356              		.syntax unified
 3357              	@ 493 "./ChibiOS/os/common/ext/ARM/CMSIS/Core/Include/cmsis_gcc.h" 1
 3358 0016 84F31188 		MSR basepri, r4
 3359              	@ 0 "" 2
 3360              	.LVL226:
 3361              		.loc 5 493 3 is_stmt 0 view .LVU1151
 3362              		.thumb
 3363              		.syntax unified
ARM GAS  C:\Users\DEVELO~1\AppData\Local\Temp\ccuGzkMt.s 			page 60


 3364              	.LBE512:
 3365              	.LBE511:
 3366              	.LBE510:
 3367              	.LBE509:
 3368              	.LBE508:
 3369              	.LBE507:
 3370              		.loc 1 920 1 view .LVU1152
 3371 001a 10BD     		pop	{r4, pc}
 3372              		.cfi_endproc
 3373              	.LFE473:
 3374              		.size	sdc_lld_serve_interrupt, .-sdc_lld_serve_interrupt
 3375              		.global	SDCD1
 3376              		.section	.bss.SDCD1,"aw",%nobits
 3377              		.align	2
 3378              		.set	.LANCHOR0,. + 0
 3379              		.type	SDCD1, %object
 3380              		.size	SDCD1, 80
 3381              	SDCD1:
 3382 0000 00000000 		.space	80
 3382      00000000 
 3382      00000000 
 3382      00000000 
 3382      00000000 
 3383              		.section	.bss.__nocache_sd1_buf,"aw",%nobits
 3384              		.align	2
 3385              		.set	.LANCHOR1,. + 0
 3386              		.type	__nocache_sd1_buf, %object
 3387              		.size	__nocache_sd1_buf, 512
 3388              	__nocache_sd1_buf:
 3389 0000 00000000 		.space	512
 3389      00000000 
 3389      00000000 
 3389      00000000 
 3389      00000000 
 3390              		.section	.bss.__nocache_sd1_wbuf,"aw",%nobits
 3391              		.align	2
 3392              		.set	.LANCHOR2,. + 0
 3393              		.type	__nocache_sd1_wbuf, %object
 3394              		.size	__nocache_sd1_wbuf, 4
 3395              	__nocache_sd1_wbuf:
 3396 0000 00000000 		.space	4
 3397              		.section	.rodata.sdc_default_cfg,"a"
 3398              		.align	2
 3399              		.set	.LANCHOR3,. + 0
 3400              		.type	sdc_default_cfg, %object
 3401              		.size	sdc_default_cfg, 8
 3402              	sdc_default_cfg:
 3403 0000 01       		.byte	1
 3404 0001 000000   		.space	3
 3405 0004 00000000 		.word	0
 3406              		.text
 3407              	.Letext0:
 3408              		.file 7 "c:\\chibistudio\\tools\\gnu tools arm embedded\\11.3 2022.08\\lib\\gcc\\arm-none-eabi\\11
 3409              		.file 8 "c:\\chibistudio\\tools\\gnu tools arm embedded\\11.3 2022.08\\arm-none-eabi\\include\\mac
 3410              		.file 9 "c:\\chibistudio\\tools\\gnu tools arm embedded\\11.3 2022.08\\arm-none-eabi\\include\\sys
 3411              		.file 10 "./ChibiOS/os/common/ports/ARM-common/include/chtypes.h"
 3412              		.file 11 "./ChibiOS/os/rt/include/chearly.h"
ARM GAS  C:\Users\DEVELO~1\AppData\Local\Temp\ccuGzkMt.s 			page 61


 3413              		.file 12 "./ChibiOS/os/rt/include/chobjects.h"
 3414              		.file 13 "./ChibiOS/os/rt/include/chrfcu.h"
 3415              		.file 14 "./ChibiOS/os/rt/include/chdebug.h"
 3416              		.file 15 "./ChibiOS/os/rt/include/chtime.h"
 3417              		.file 16 "./ChibiOS/os/rt/include/chtrace.h"
 3418              		.file 17 "./ChibiOS/os/common/ext/ST/STM32H7xx/stm32h743xx.h"
 3419              		.file 18 "./ChibiOS/os/rt/include/chlists.h"
 3420              		.file 19 "./ChibiOS/os/rt/include/chsem.h"
 3421              		.file 20 "./ChibiOS/os/rt/include/chmtx.h"
 3422              		.file 21 "./ChibiOS/os/hal/include/hal_ioblock.h"
 3423              		.file 22 "./ChibiOS/os/hal/include/hal_sdc.h"
 3424              		.file 23 "./ChibiOS/os/hal/ports/STM32/LLD/SDMMCv2/hal_sdc_lld.h"
 3425              		.file 24 "c:\\chibistudio\\tools\\gnu tools arm embedded\\11.3 2022.08\\arm-none-eabi\\include\\st
 3426              		.file 25 "./ChibiOS/os/rt/include/chthreads.h"
 3427              		.file 26 "<built-in>"
 3428              		.section	.debug_info,"",%progbits
 3429              	.Ldebug_info0:
 3430 0000 F42A0000 		.4byte	0x2af4
 3431 0004 0500     		.2byte	0x5
 3432 0006 01       		.byte	0x1
 3433 0007 04       		.byte	0x4
 3434 0008 00000000 		.4byte	.Ldebug_abbrev0
 3435 000c 45       		.uleb128 0x45
 3436 000d FB080000 		.4byte	.LASF317
 3437 0011 1D       		.byte	0x1d
 3438 0012 86080000 		.4byte	.LASF318
 3439 0016 0F010000 		.4byte	.LASF319
 3440 001a 56020000 		.4byte	.LLRL181
 3441 001e 00000000 		.4byte	0
 3442 0022 00000000 		.4byte	.Ldebug_line0
 3443 0026 46       		.uleb128 0x46
 3444 0027 04       		.byte	0x4
 3445 0028 05       		.byte	0x5
 3446 0029 696E7400 		.ascii	"int\000"
 3447 002d 05       		.uleb128 0x5
 3448 002e 2F050000 		.4byte	.LASF4
 3449 0032 07       		.byte	0x7
 3450 0033 D1       		.byte	0xd1
 3451 0034 17       		.byte	0x17
 3452 0035 39000000 		.4byte	0x39
 3453 0039 14       		.uleb128 0x14
 3454 003a 04       		.byte	0x4
 3455 003b 07       		.byte	0x7
 3456 003c A3060000 		.4byte	.LASF0
 3457 0040 14       		.uleb128 0x14
 3458 0041 08       		.byte	0x8
 3459 0042 05       		.byte	0x5
 3460 0043 2E070000 		.4byte	.LASF1
 3461 0047 14       		.uleb128 0x14
 3462 0048 08       		.byte	0x8
 3463 0049 04       		.byte	0x4
 3464 004a 71080000 		.4byte	.LASF2
 3465 004e 14       		.uleb128 0x14
 3466 004f 01       		.byte	0x1
 3467 0050 06       		.byte	0x6
 3468 0051 920D0000 		.4byte	.LASF3
 3469 0055 05       		.uleb128 0x5
ARM GAS  C:\Users\DEVELO~1\AppData\Local\Temp\ccuGzkMt.s 			page 62


 3470 0056 4C0B0000 		.4byte	.LASF5
 3471 005a 08       		.byte	0x8
 3472 005b 2B       		.byte	0x2b
 3473 005c 18       		.byte	0x18
 3474 005d 61000000 		.4byte	0x61
 3475 0061 14       		.uleb128 0x14
 3476 0062 01       		.byte	0x1
 3477 0063 08       		.byte	0x8
 3478 0064 7E0C0000 		.4byte	.LASF6
 3479 0068 14       		.uleb128 0x14
 3480 0069 02       		.byte	0x2
 3481 006a 05       		.byte	0x5
 3482 006b F8090000 		.4byte	.LASF7
 3483 006f 05       		.uleb128 0x5
 3484 0070 63040000 		.4byte	.LASF8
 3485 0074 08       		.byte	0x8
 3486 0075 39       		.byte	0x39
 3487 0076 19       		.byte	0x19
 3488 0077 7B000000 		.4byte	0x7b
 3489 007b 14       		.uleb128 0x14
 3490 007c 02       		.byte	0x2
 3491 007d 07       		.byte	0x7
 3492 007e AA0D0000 		.4byte	.LASF9
 3493 0082 05       		.uleb128 0x5
 3494 0083 5B060000 		.4byte	.LASF10
 3495 0087 08       		.byte	0x8
 3496 0088 4D       		.byte	0x4d
 3497 0089 18       		.byte	0x18
 3498 008a 8E000000 		.4byte	0x8e
 3499 008e 14       		.uleb128 0x14
 3500 008f 04       		.byte	0x4
 3501 0090 05       		.byte	0x5
 3502 0091 1A000000 		.4byte	.LASF11
 3503 0095 05       		.uleb128 0x5
 3504 0096 940C0000 		.4byte	.LASF12
 3505 009a 08       		.byte	0x8
 3506 009b 4F       		.byte	0x4f
 3507 009c 19       		.byte	0x19
 3508 009d A1000000 		.4byte	0xa1
 3509 00a1 14       		.uleb128 0x14
 3510 00a2 04       		.byte	0x4
 3511 00a3 07       		.byte	0x7
 3512 00a4 D30B0000 		.4byte	.LASF13
 3513 00a8 05       		.uleb128 0x5
 3514 00a9 98060000 		.4byte	.LASF14
 3515 00ad 08       		.byte	0x8
 3516 00ae 69       		.byte	0x69
 3517 00af 19       		.byte	0x19
 3518 00b0 B4000000 		.4byte	0xb4
 3519 00b4 14       		.uleb128 0x14
 3520 00b5 08       		.byte	0x8
 3521 00b6 07       		.byte	0x7
 3522 00b7 03040000 		.4byte	.LASF15
 3523 00bb 47       		.uleb128 0x47
 3524 00bc 04       		.byte	0x4
 3525 00bd 14       		.uleb128 0x14
 3526 00be 01       		.byte	0x1
ARM GAS  C:\Users\DEVELO~1\AppData\Local\Temp\ccuGzkMt.s 			page 63


 3527 00bf 08       		.byte	0x8
 3528 00c0 3A060000 		.4byte	.LASF16
 3529 00c4 19       		.uleb128 0x19
 3530 00c5 BD000000 		.4byte	0xbd
 3531 00c9 06       		.uleb128 0x6
 3532 00ca C4000000 		.4byte	0xc4
 3533 00ce 30       		.uleb128 0x30
 3534 00cf C9000000 		.4byte	0xc9
 3535 00d3 05       		.uleb128 0x5
 3536 00d4 B9060000 		.4byte	.LASF17
 3537 00d8 09       		.byte	0x9
 3538 00d9 18       		.byte	0x18
 3539 00da 13       		.byte	0x13
 3540 00db 55000000 		.4byte	0x55
 3541 00df 19       		.uleb128 0x19
 3542 00e0 D3000000 		.4byte	0xd3
 3543 00e4 05       		.uleb128 0x5
 3544 00e5 7D080000 		.4byte	.LASF18
 3545 00e9 09       		.byte	0x9
 3546 00ea 24       		.byte	0x24
 3547 00eb 14       		.byte	0x14
 3548 00ec 6F000000 		.4byte	0x6f
 3549 00f0 05       		.uleb128 0x5
 3550 00f1 1B0C0000 		.4byte	.LASF19
 3551 00f5 09       		.byte	0x9
 3552 00f6 2C       		.byte	0x2c
 3553 00f7 13       		.byte	0x13
 3554 00f8 82000000 		.4byte	0x82
 3555 00fc 05       		.uleb128 0x5
 3556 00fd 8C010000 		.4byte	.LASF20
 3557 0101 09       		.byte	0x9
 3558 0102 30       		.byte	0x30
 3559 0103 14       		.byte	0x14
 3560 0104 95000000 		.4byte	0x95
 3561 0108 30       		.uleb128 0x30
 3562 0109 FC000000 		.4byte	0xfc
 3563 010d 19       		.uleb128 0x19
 3564 010e 08010000 		.4byte	0x108
 3565 0112 05       		.uleb128 0x5
 3566 0113 ED0A0000 		.4byte	.LASF21
 3567 0117 09       		.byte	0x9
 3568 0118 3C       		.byte	0x3c
 3569 0119 14       		.byte	0x14
 3570 011a A8000000 		.4byte	0xa8
 3571 011e 30       		.uleb128 0x30
 3572 011f 12010000 		.4byte	0x112
 3573 0123 05       		.uleb128 0x5
 3574 0124 71000000 		.4byte	.LASF22
 3575 0128 0A       		.byte	0xa
 3576 0129 48       		.byte	0x48
 3577 012a 1D       		.byte	0x1d
 3578 012b 12010000 		.4byte	0x112
 3579 012f 05       		.uleb128 0x5
 3580 0130 74040000 		.4byte	.LASF23
 3581 0134 0B       		.byte	0xb
 3582 0135 50       		.byte	0x50
 3583 0136 19       		.byte	0x19
ARM GAS  C:\Users\DEVELO~1\AppData\Local\Temp\ccuGzkMt.s 			page 64


 3584 0137 23010000 		.4byte	0x123
 3585 013b 05       		.uleb128 0x5
 3586 013c 45080000 		.4byte	.LASF24
 3587 0140 0B       		.byte	0xb
 3588 0141 53       		.byte	0x53
 3589 0142 19       		.byte	0x19
 3590 0143 D3000000 		.4byte	0xd3
 3591 0147 05       		.uleb128 0x5
 3592 0148 80060000 		.4byte	.LASF25
 3593 014c 0B       		.byte	0xb
 3594 014d 54       		.byte	0x54
 3595 014e 19       		.byte	0x19
 3596 014f D3000000 		.4byte	0xd3
 3597 0153 05       		.uleb128 0x5
 3598 0154 C40B0000 		.4byte	.LASF26
 3599 0158 0B       		.byte	0xb
 3600 0159 55       		.byte	0x55
 3601 015a 19       		.byte	0x19
 3602 015b D3000000 		.4byte	0xd3
 3603 015f 05       		.uleb128 0x5
 3604 0160 B3030000 		.4byte	.LASF27
 3605 0164 0B       		.byte	0xb
 3606 0165 57       		.byte	0x57
 3607 0166 19       		.byte	0x19
 3608 0167 FC000000 		.4byte	0xfc
 3609 016b 05       		.uleb128 0x5
 3610 016c 57070000 		.4byte	.LASF28
 3611 0170 0B       		.byte	0xb
 3612 0171 58       		.byte	0x58
 3613 0172 19       		.byte	0x19
 3614 0173 F0000000 		.4byte	0xf0
 3615 0177 05       		.uleb128 0x5
 3616 0178 65030000 		.4byte	.LASF29
 3617 017c 0B       		.byte	0xb
 3618 017d 5A       		.byte	0x5a
 3619 017e 19       		.byte	0x19
 3620 017f FC000000 		.4byte	0xfc
 3621 0183 05       		.uleb128 0x5
 3622 0184 6E040000 		.4byte	.LASF30
 3623 0188 0B       		.byte	0xb
 3624 0189 5C       		.byte	0x5c
 3625 018a 19       		.byte	0x19
 3626 018b F0000000 		.4byte	0xf0
 3627 018f 05       		.uleb128 0x5
 3628 0190 C00E0000 		.4byte	.LASF31
 3629 0194 0B       		.byte	0xb
 3630 0195 80       		.byte	0x80
 3631 0196 12       		.byte	0x12
 3632 0197 39000000 		.4byte	0x39
 3633 019b 05       		.uleb128 0x5
 3634 019c 60000000 		.4byte	.LASF32
 3635 01a0 0B       		.byte	0xb
 3636 01a1 85       		.byte	0x85
 3637 01a2 1A       		.byte	0x1a
 3638 01a3 A7010000 		.4byte	0x1a7
 3639 01a7 13       		.uleb128 0x13
 3640 01a8 D3060000 		.4byte	.LASF49
ARM GAS  C:\Users\DEVELO~1\AppData\Local\Temp\ccuGzkMt.s 			page 65


 3641 01ac 50       		.byte	0x50
 3642 01ad 0C       		.byte	0xc
 3643 01ae A9       		.byte	0xa9
 3644 01af 08       		.byte	0x8
 3645 01b0 A3020000 		.4byte	0x2a3
 3646 01b4 0F       		.uleb128 0xf
 3647 01b5 68647200 		.ascii	"hdr\000"
 3648 01b9 0C       		.byte	0xc
 3649 01ba BA       		.byte	0xba
 3650 01bb 05       		.byte	0x5
 3651 01bc 160D0000 		.4byte	0xd16
 3652 01c0 00       		.byte	0
 3653 01c1 0F       		.uleb128 0xf
 3654 01c2 63747800 		.ascii	"ctx\000"
 3655 01c6 0C       		.byte	0xc
 3656 01c7 BE       		.byte	0xbe
 3657 01c8 21       		.byte	0x21
 3658 01c9 670B0000 		.4byte	0xb67
 3659 01cd 0C       		.byte	0xc
 3660 01ce 03       		.uleb128 0x3
 3661 01cf A6040000 		.4byte	.LASF33
 3662 01d3 0C       		.byte	0xc
 3663 01d4 C2       		.byte	0xc2
 3664 01d5 22       		.byte	0x22
 3665 01d6 1A0E0000 		.4byte	0xe1a
 3666 01da 10       		.byte	0x10
 3667 01db 03       		.uleb128 0x3
 3668 01dc 79060000 		.4byte	.LASF34
 3669 01e0 0C       		.byte	0xc
 3670 01e1 C8       		.byte	0xc8
 3671 01e2 22       		.byte	0x22
 3672 01e3 1F0E0000 		.4byte	0xe1f
 3673 01e7 14       		.byte	0x14
 3674 01e8 03       		.uleb128 0x3
 3675 01e9 A90A0000 		.4byte	.LASF35
 3676 01ed 0C       		.byte	0xc
 3677 01ee CD       		.byte	0xcd
 3678 01ef 21       		.byte	0x21
 3679 01f0 1F0E0000 		.4byte	0xe1f
 3680 01f4 18       		.byte	0x18
 3681 01f5 03       		.uleb128 0x3
 3682 01f6 200D0000 		.4byte	.LASF36
 3683 01fa 0C       		.byte	0xc
 3684 01fb D1       		.byte	0xd1
 3685 01fc 21       		.byte	0x21
 3686 01fd 47010000 		.4byte	0x147
 3687 0201 1C       		.byte	0x1c
 3688 0202 03       		.uleb128 0x3
 3689 0203 C2000000 		.4byte	.LASF37
 3690 0207 0C       		.byte	0xc
 3691 0208 D5       		.byte	0xd5
 3692 0209 21       		.byte	0x21
 3693 020a 3B010000 		.4byte	0x13b
 3694 020e 1D       		.byte	0x1d
 3695 020f 03       		.uleb128 0x3
 3696 0210 DD010000 		.4byte	.LASF38
 3697 0214 0C       		.byte	0xc
ARM GAS  C:\Users\DEVELO~1\AppData\Local\Temp\ccuGzkMt.s 			page 66


 3698 0215 DA       		.byte	0xda
 3699 0216 21       		.byte	0x21
 3700 0217 53010000 		.4byte	0x153
 3701 021b 1E       		.byte	0x1e
 3702 021c 03       		.uleb128 0x3
 3703 021d 2F000000 		.4byte	.LASF39
 3704 0221 0C       		.byte	0xc
 3705 0222 DE       		.byte	0xde
 3706 0223 22       		.byte	0x22
 3707 0224 C9000000 		.4byte	0xc9
 3708 0228 20       		.byte	0x20
 3709 0229 03       		.uleb128 0x3
 3710 022a DD060000 		.4byte	.LASF40
 3711 022e 0C       		.byte	0xc
 3712 022f E2       		.byte	0xe2
 3713 0230 21       		.byte	0x21
 3714 0231 B40B0000 		.4byte	0xbb4
 3715 0235 24       		.byte	0x24
 3716 0236 03       		.uleb128 0x3
 3717 0237 69000000 		.4byte	.LASF41
 3718 023b 0C       		.byte	0xc
 3719 023c E8       		.byte	0xe8
 3720 023d 21       		.byte	0x21
 3721 023e FA0C0000 		.4byte	0xcfa
 3722 0242 2C       		.byte	0x2c
 3723 0243 03       		.uleb128 0x3
 3724 0244 70050000 		.4byte	.LASF42
 3725 0248 0C       		.byte	0xc
 3726 0249 EE       		.byte	0xee
 3727 024a 22       		.byte	0x22
 3728 024b BB000000 		.4byte	0xbb
 3729 024f 30       		.byte	0x30
 3730 0250 0A       		.uleb128 0xa
 3731 0251 7500     		.ascii	"u\000"
 3732 0253 0C       		.byte	0xc
 3733 0254 3F01     		.2byte	0x13f
 3734 0256 21       		.byte	0x21
 3735 0257 430D0000 		.4byte	0xd43
 3736 025b 34       		.byte	0x34
 3737 025c 02       		.uleb128 0x2
 3738 025d 9F0C0000 		.4byte	.LASF43
 3739 0261 0C       		.byte	0xc
 3740 0262 4401     		.2byte	0x144
 3741 0264 21       		.byte	0x21
 3742 0265 880B0000 		.4byte	0xb88
 3743 0269 38       		.byte	0x38
 3744 026a 02       		.uleb128 0x2
 3745 026b C1060000 		.4byte	.LASF44
 3746 026f 0C       		.byte	0xc
 3747 0270 4A01     		.2byte	0x14a
 3748 0272 21       		.byte	0x21
 3749 0273 B40B0000 		.4byte	0xbb4
 3750 0277 3C       		.byte	0x3c
 3751 0278 02       		.uleb128 0x2
 3752 0279 69010000 		.4byte	.LASF45
 3753 027d 0C       		.byte	0xc
 3754 027e 5001     		.2byte	0x150
ARM GAS  C:\Users\DEVELO~1\AppData\Local\Temp\ccuGzkMt.s 			page 67


 3755 0280 21       		.byte	0x21
 3756 0281 77010000 		.4byte	0x177
 3757 0285 44       		.byte	0x44
 3758 0286 02       		.uleb128 0x2
 3759 0287 BA040000 		.4byte	.LASF46
 3760 028b 0C       		.byte	0xc
 3761 028c 5701     		.2byte	0x157
 3762 028e 22       		.byte	0x22
 3763 028f 150E0000 		.4byte	0xe15
 3764 0293 48       		.byte	0x48
 3765 0294 02       		.uleb128 0x2
 3766 0295 D2000000 		.4byte	.LASF47
 3767 0299 0C       		.byte	0xc
 3768 029a 5B01     		.2byte	0x15b
 3769 029c 21       		.byte	0x21
 3770 029d 5F010000 		.4byte	0x15f
 3771 02a1 4C       		.byte	0x4c
 3772 02a2 00       		.byte	0
 3773 02a3 05       		.uleb128 0x5
 3774 02a4 2E0D0000 		.4byte	.LASF48
 3775 02a8 0B       		.byte	0xb
 3776 02a9 8A       		.byte	0x8a
 3777 02aa 1F       		.byte	0x1f
 3778 02ab AF020000 		.4byte	0x2af
 3779 02af 48       		.uleb128 0x48
 3780 02b0 C7050000 		.4byte	.LASF50
 3781 02b4 F008     		.2byte	0x8f0
 3782 02b6 0C       		.byte	0xc
 3783 02b7 9701     		.2byte	0x197
 3784 02b9 08       		.byte	0x8
 3785 02ba 4B030000 		.4byte	0x34b
 3786 02be 02       		.uleb128 0x2
 3787 02bf 140B0000 		.4byte	.LASF51
 3788 02c3 0C       		.byte	0xc
 3789 02c4 9B01     		.2byte	0x19b
 3790 02c6 21       		.byte	0x21
 3791 02c7 4F0E0000 		.4byte	0xe4f
 3792 02cb 00       		.byte	0
 3793 02cc 02       		.uleb128 0x2
 3794 02cd 3C020000 		.4byte	.LASF52
 3795 02d1 0C       		.byte	0xc
 3796 02d2 9F01     		.2byte	0x19f
 3797 02d4 21       		.byte	0x21
 3798 02d5 BB0C0000 		.4byte	0xcbb
 3799 02d9 10       		.byte	0x10
 3800 02da 02       		.uleb128 0x2
 3801 02db 670D0000 		.4byte	.LASF53
 3802 02df 0C       		.byte	0xc
 3803 02e0 A601     		.2byte	0x1a6
 3804 02e2 21       		.byte	0x21
 3805 02e3 E20C0000 		.4byte	0xce2
 3806 02e7 30       		.byte	0x30
 3807 02e8 02       		.uleb128 0x2
 3808 02e9 A8010000 		.4byte	.LASF54
 3809 02ed 0C       		.byte	0xc
 3810 02ee AB01     		.2byte	0x1ab
 3811 02f0 21       		.byte	0x21
ARM GAS  C:\Users\DEVELO~1\AppData\Local\Temp\ccuGzkMt.s 			page 68


 3812 02f1 8F010000 		.4byte	0x18f
 3813 02f5 38       		.byte	0x38
 3814 02f6 02       		.uleb128 0x2
 3815 02f7 D9040000 		.4byte	.LASF55
 3816 02fb 0C       		.byte	0xc
 3817 02fc B101     		.2byte	0x1b1
 3818 02fe 21       		.byte	0x21
 3819 02ff 72030000 		.4byte	0x372
 3820 0303 3C       		.byte	0x3c
 3821 0304 02       		.uleb128 0x2
 3822 0305 F4080000 		.4byte	.LASF56
 3823 0309 0C       		.byte	0xc
 3824 030a B601     		.2byte	0x1b6
 3825 030c 22       		.byte	0x22
 3826 030d C10E0000 		.4byte	0xec1
 3827 0311 40       		.byte	0x40
 3828 0312 02       		.uleb128 0x2
 3829 0313 57080000 		.4byte	.LASF57
 3830 0317 0C       		.byte	0xc
 3831 0318 BA01     		.2byte	0x1ba
 3832 031a 21       		.byte	0x21
 3833 031b 9B010000 		.4byte	0x19b
 3834 031f 44       		.byte	0x44
 3835 0320 02       		.uleb128 0x2
 3836 0321 150D0000 		.4byte	.LASF58
 3837 0325 0C       		.byte	0xc
 3838 0326 BF01     		.2byte	0x1bf
 3839 0328 21       		.byte	0x21
 3840 0329 9B010000 		.4byte	0x19b
 3841 032d 94       		.byte	0x94
 3842 032e 0A       		.uleb128 0xa
 3843 032f 64626700 		.ascii	"dbg\000"
 3844 0333 0C       		.byte	0xc
 3845 0334 C401     		.2byte	0x1c4
 3846 0336 21       		.byte	0x21
 3847 0337 99030000 		.4byte	0x399
 3848 033b E4       		.byte	0xe4
 3849 033c 02       		.uleb128 0x2
 3850 033d 35040000 		.4byte	.LASF59
 3851 0341 0C       		.byte	0xc
 3852 0342 C901     		.2byte	0x1c9
 3853 0344 21       		.byte	0x21
 3854 0345 50050000 		.4byte	0x550
 3855 0349 E8       		.byte	0xe8
 3856 034a 00       		.byte	0
 3857 034b 05       		.uleb128 0x5
 3858 034c 4F060000 		.4byte	.LASF60
 3859 0350 0D       		.byte	0xd
 3860 0351 3F       		.byte	0x3f
 3861 0352 12       		.byte	0x12
 3862 0353 FC000000 		.4byte	0xfc
 3863 0357 13       		.uleb128 0x13
 3864 0358 9F000000 		.4byte	.LASF61
 3865 035c 04       		.byte	0x4
 3866 035d 0D       		.byte	0xd
 3867 035e 44       		.byte	0x44
 3868 035f 10       		.byte	0x10
ARM GAS  C:\Users\DEVELO~1\AppData\Local\Temp\ccuGzkMt.s 			page 69


 3869 0360 72030000 		.4byte	0x372
 3870 0364 03       		.uleb128 0x3
 3871 0365 BD070000 		.4byte	.LASF62
 3872 0369 0D       		.byte	0xd
 3873 036a 48       		.byte	0x48
 3874 036b 21       		.byte	0x21
 3875 036c 4B030000 		.4byte	0x34b
 3876 0370 00       		.byte	0
 3877 0371 00       		.byte	0
 3878 0372 05       		.uleb128 0x5
 3879 0373 230C0000 		.4byte	.LASF63
 3880 0377 0D       		.byte	0xd
 3881 0378 49       		.byte	0x49
 3882 0379 03       		.byte	0x3
 3883 037a 57030000 		.4byte	0x357
 3884 037e 13       		.uleb128 0x13
 3885 037f 09030000 		.4byte	.LASF64
 3886 0383 04       		.byte	0x4
 3887 0384 0E       		.byte	0xe
 3888 0385 3E       		.byte	0x3e
 3889 0386 10       		.byte	0x10
 3890 0387 99030000 		.4byte	0x399
 3891 038b 03       		.uleb128 0x3
 3892 038c 0D080000 		.4byte	.LASF65
 3893 0390 0E       		.byte	0xe
 3894 0391 46       		.byte	0x46
 3895 0392 24       		.byte	0x24
 3896 0393 CE000000 		.4byte	0xce
 3897 0397 00       		.byte	0
 3898 0398 00       		.byte	0
 3899 0399 05       		.uleb128 0x5
 3900 039a EE060000 		.4byte	.LASF66
 3901 039e 0E       		.byte	0xe
 3902 039f 51       		.byte	0x51
 3903 03a0 03       		.byte	0x3
 3904 03a1 7E030000 		.4byte	0x37e
 3905 03a5 05       		.uleb128 0x5
 3906 03a6 C8000000 		.4byte	.LASF67
 3907 03aa 0F       		.byte	0xf
 3908 03ab 6D       		.byte	0x6d
 3909 03ac 12       		.byte	0x12
 3910 03ad FC000000 		.4byte	0xfc
 3911 03b1 05       		.uleb128 0x5
 3912 03b2 F0070000 		.4byte	.LASF68
 3913 03b6 0F       		.byte	0xf
 3914 03b7 79       		.byte	0x79
 3915 03b8 12       		.byte	0x12
 3916 03b9 FC000000 		.4byte	0xfc
 3917 03bd 05       		.uleb128 0x5
 3918 03be 460E0000 		.4byte	.LASF69
 3919 03c2 0F       		.byte	0xf
 3920 03c3 9B       		.byte	0x9b
 3921 03c4 12       		.byte	0x12
 3922 03c5 12010000 		.4byte	0x112
 3923 03c9 06       		.uleb128 0x6
 3924 03ca D3000000 		.4byte	0xd3
 3925 03ce 20       		.uleb128 0x20
ARM GAS  C:\Users\DEVELO~1\AppData\Local\Temp\ccuGzkMt.s 			page 70


 3926 03cf 08       		.byte	0x8
 3927 03d0 10       		.byte	0x10
 3928 03d1 83       		.byte	0x83
 3929 03d2 05       		.byte	0x5
 3930 03d3 F2030000 		.4byte	0x3f2
 3931 03d7 0F       		.uleb128 0xf
 3932 03d8 6E747000 		.ascii	"ntp\000"
 3933 03dc 10       		.byte	0x10
 3934 03dd 87       		.byte	0x87
 3935 03de 1E       		.byte	0x1e
 3936 03df F2030000 		.4byte	0x3f2
 3937 03e3 00       		.byte	0
 3938 03e4 03       		.uleb128 0x3
 3939 03e5 2B020000 		.4byte	.LASF70
 3940 03e9 10       		.byte	0x10
 3941 03ea 8B       		.byte	0x8b
 3942 03eb 1E       		.byte	0x1e
 3943 03ec BB000000 		.4byte	0xbb
 3944 03f0 04       		.byte	0x4
 3945 03f1 00       		.byte	0
 3946 03f2 06       		.uleb128 0x6
 3947 03f3 9B010000 		.4byte	0x19b
 3948 03f7 20       		.uleb128 0x20
 3949 03f8 08       		.byte	0x8
 3950 03f9 10       		.byte	0x10
 3951 03fa 90       		.byte	0x90
 3952 03fb 05       		.byte	0x5
 3953 03fc 1A040000 		.4byte	0x41a
 3954 0400 0F       		.uleb128 0xf
 3955 0401 747000   		.ascii	"tp\000"
 3956 0404 10       		.byte	0x10
 3957 0405 94       		.byte	0x94
 3958 0406 1E       		.byte	0x1e
 3959 0407 F2030000 		.4byte	0x3f2
 3960 040b 00       		.byte	0
 3961 040c 0F       		.uleb128 0xf
 3962 040d 6D736700 		.ascii	"msg\000"
 3963 0411 10       		.byte	0x10
 3964 0412 98       		.byte	0x98
 3965 0413 1D       		.byte	0x1d
 3966 0414 6B010000 		.4byte	0x16b
 3967 0418 04       		.byte	0x4
 3968 0419 00       		.byte	0
 3969 041a 20       		.uleb128 0x20
 3970 041b 04       		.byte	0x4
 3971 041c 10       		.byte	0x10
 3972 041d 9D       		.byte	0x9d
 3973 041e 05       		.byte	0x5
 3974 041f 31040000 		.4byte	0x431
 3975 0423 03       		.uleb128 0x3
 3976 0424 2F000000 		.4byte	.LASF39
 3977 0428 10       		.byte	0x10
 3978 0429 A1       		.byte	0xa1
 3979 042a 1E       		.byte	0x1e
 3980 042b C9000000 		.4byte	0xc9
 3981 042f 00       		.byte	0
 3982 0430 00       		.byte	0
ARM GAS  C:\Users\DEVELO~1\AppData\Local\Temp\ccuGzkMt.s 			page 71


 3983 0431 20       		.uleb128 0x20
 3984 0432 04       		.byte	0x4
 3985 0433 10       		.byte	0x10
 3986 0434 A6       		.byte	0xa6
 3987 0435 05       		.byte	0x5
 3988 0436 48040000 		.4byte	0x448
 3989 043a 03       		.uleb128 0x3
 3990 043b 2E040000 		.4byte	.LASF71
 3991 043f 10       		.byte	0x10
 3992 0440 AA       		.byte	0xaa
 3993 0441 1E       		.byte	0x1e
 3994 0442 C9000000 		.4byte	0xc9
 3995 0446 00       		.byte	0
 3996 0447 00       		.byte	0
 3997 0448 20       		.uleb128 0x20
 3998 0449 08       		.byte	0x8
 3999 044a 10       		.byte	0x10
 4000 044b AF       		.byte	0xaf
 4001 044c 05       		.byte	0x5
 4002 044d 6C040000 		.4byte	0x46c
 4003 0451 0F       		.uleb128 0xf
 4004 0452 75703100 		.ascii	"up1\000"
 4005 0456 10       		.byte	0x10
 4006 0457 B3       		.byte	0xb3
 4007 0458 1E       		.byte	0x1e
 4008 0459 BB000000 		.4byte	0xbb
 4009 045d 00       		.byte	0
 4010 045e 0F       		.uleb128 0xf
 4011 045f 75703200 		.ascii	"up2\000"
 4012 0463 10       		.byte	0x10
 4013 0464 B7       		.byte	0xb7
 4014 0465 1E       		.byte	0x1e
 4015 0466 BB000000 		.4byte	0xbb
 4016 046a 04       		.byte	0x4
 4017 046b 00       		.byte	0
 4018 046c 36       		.uleb128 0x36
 4019 046d 08       		.byte	0x8
 4020 046e 10       		.byte	0x10
 4021 046f 7F       		.byte	0x7f
 4022 0470 AA040000 		.4byte	0x4aa
 4023 0474 31       		.uleb128 0x31
 4024 0475 737700   		.ascii	"sw\000"
 4025 0478 8C       		.byte	0x8c
 4026 0479 CE030000 		.4byte	0x3ce
 4027 047d 31       		.uleb128 0x31
 4028 047e 72647900 		.ascii	"rdy\000"
 4029 0482 99       		.byte	0x99
 4030 0483 F7030000 		.4byte	0x3f7
 4031 0487 31       		.uleb128 0x31
 4032 0488 69737200 		.ascii	"isr\000"
 4033 048c A2       		.byte	0xa2
 4034 048d 1A040000 		.4byte	0x41a
 4035 0491 25       		.uleb128 0x25
 4036 0492 E8030000 		.4byte	.LASF72
 4037 0496 10       		.byte	0x10
 4038 0497 AB       		.byte	0xab
 4039 0498 07       		.byte	0x7
ARM GAS  C:\Users\DEVELO~1\AppData\Local\Temp\ccuGzkMt.s 			page 72


 4040 0499 31040000 		.4byte	0x431
 4041 049d 25       		.uleb128 0x25
 4042 049e 20050000 		.4byte	.LASF73
 4043 04a2 10       		.byte	0x10
 4044 04a3 B8       		.byte	0xb8
 4045 04a4 07       		.byte	0x7
 4046 04a5 48040000 		.4byte	0x448
 4047 04a9 00       		.byte	0
 4048 04aa 20       		.uleb128 0x20
 4049 04ab 10       		.byte	0x10
 4050 04ac 10       		.byte	0x10
 4051 04ad 6C       		.byte	0x6c
 4052 04ae 09       		.byte	0x9
 4053 04af F0040000 		.4byte	0x4f0
 4054 04b3 32       		.uleb128 0x32
 4055 04b4 640C0000 		.4byte	.LASF74
 4056 04b8 70       		.byte	0x70
 4057 04b9 FC000000 		.4byte	0xfc
 4058 04bd 03       		.byte	0x3
 4059 04be 00       		.byte	0
 4060 04bf 32       		.uleb128 0x32
 4061 04c0 200D0000 		.4byte	.LASF36
 4062 04c4 74       		.byte	0x74
 4063 04c5 FC000000 		.4byte	0xfc
 4064 04c9 05       		.byte	0x5
 4065 04ca 03       		.byte	0x3
 4066 04cb 32       		.uleb128 0x32
 4067 04cc FC0B0000 		.4byte	.LASF75
 4068 04d0 7A       		.byte	0x7a
 4069 04d1 FC000000 		.4byte	0xfc
 4070 04d5 18       		.byte	0x18
 4071 04d6 08       		.byte	0x8
 4072 04d7 03       		.uleb128 0x3
 4073 04d8 BB030000 		.4byte	.LASF76
 4074 04dc 10       		.byte	0x10
 4075 04dd 7E       		.byte	0x7e
 4076 04de 19       		.byte	0x19
 4077 04df A5030000 		.4byte	0x3a5
 4078 04e3 04       		.byte	0x4
 4079 04e4 0F       		.uleb128 0xf
 4080 04e5 7500     		.ascii	"u\000"
 4081 04e7 10       		.byte	0x10
 4082 04e8 B9       		.byte	0xb9
 4083 04e9 05       		.byte	0x5
 4084 04ea 6C040000 		.4byte	0x46c
 4085 04ee 08       		.byte	0x8
 4086 04ef 00       		.byte	0
 4087 04f0 05       		.uleb128 0x5
 4088 04f1 71030000 		.4byte	.LASF77
 4089 04f5 10       		.byte	0x10
 4090 04f6 BA       		.byte	0xba
 4091 04f7 03       		.byte	0x3
 4092 04f8 AA040000 		.4byte	0x4aa
 4093 04fc 49       		.uleb128 0x49
 4094 04fd 0808     		.2byte	0x808
 4095 04ff 10       		.byte	0x10
 4096 0500 C0       		.byte	0xc0
ARM GAS  C:\Users\DEVELO~1\AppData\Local\Temp\ccuGzkMt.s 			page 73


 4097 0501 09       		.byte	0x9
 4098 0502 3B050000 		.4byte	0x53b
 4099 0506 03       		.uleb128 0x3
 4100 0507 95010000 		.4byte	.LASF78
 4101 050b 10       		.byte	0x10
 4102 050c C4       		.byte	0xc4
 4103 050d 19       		.byte	0x19
 4104 050e E4000000 		.4byte	0xe4
 4105 0512 00       		.byte	0
 4106 0513 03       		.uleb128 0x3
 4107 0514 8B070000 		.4byte	.LASF79
 4108 0518 10       		.byte	0x10
 4109 0519 C8       		.byte	0xc8
 4110 051a 19       		.byte	0x19
 4111 051b E4000000 		.4byte	0xe4
 4112 051f 02       		.byte	0x2
 4113 0520 0F       		.uleb128 0xf
 4114 0521 70747200 		.ascii	"ptr\000"
 4115 0525 10       		.byte	0x10
 4116 0526 CC       		.byte	0xcc
 4117 0527 1A       		.byte	0x1a
 4118 0528 3B050000 		.4byte	0x53b
 4119 052c 04       		.byte	0x4
 4120 052d 03       		.uleb128 0x3
 4121 052e DB000000 		.4byte	.LASF80
 4122 0532 10       		.byte	0x10
 4123 0533 D0       		.byte	0xd0
 4124 0534 19       		.byte	0x19
 4125 0535 40050000 		.4byte	0x540
 4126 0539 08       		.byte	0x8
 4127 053a 00       		.byte	0
 4128 053b 06       		.uleb128 0x6
 4129 053c F0040000 		.4byte	0x4f0
 4130 0540 15       		.uleb128 0x15
 4131 0541 F0040000 		.4byte	0x4f0
 4132 0545 50050000 		.4byte	0x550
 4133 0549 16       		.uleb128 0x16
 4134 054a 39000000 		.4byte	0x39
 4135 054e 7F       		.byte	0x7f
 4136 054f 00       		.byte	0
 4137 0550 05       		.uleb128 0x5
 4138 0551 2C080000 		.4byte	.LASF81
 4139 0555 10       		.byte	0x10
 4140 0556 D1       		.byte	0xd1
 4141 0557 03       		.byte	0x3
 4142 0558 FC040000 		.4byte	0x4fc
 4143 055c 15       		.uleb128 0x15
 4144 055d FC000000 		.4byte	0xfc
 4145 0561 6C050000 		.4byte	0x56c
 4146 0565 16       		.uleb128 0x16
 4147 0566 39000000 		.4byte	0x39
 4148 056a 00       		.byte	0
 4149 056b 00       		.byte	0
 4150 056c 15       		.uleb128 0x15
 4151 056d FC000000 		.4byte	0xfc
 4152 0571 7C050000 		.4byte	0x57c
 4153 0575 16       		.uleb128 0x16
ARM GAS  C:\Users\DEVELO~1\AppData\Local\Temp\ccuGzkMt.s 			page 74


 4154 0576 39000000 		.4byte	0x39
 4155 057a 07       		.byte	0x7
 4156 057b 00       		.byte	0
 4157 057c 15       		.uleb128 0x15
 4158 057d FC000000 		.4byte	0xfc
 4159 0581 8C050000 		.4byte	0x58c
 4160 0585 16       		.uleb128 0x16
 4161 0586 39000000 		.4byte	0x39
 4162 058a 03       		.byte	0x3
 4163 058b 00       		.byte	0
 4164 058c 15       		.uleb128 0x15
 4165 058d FC000000 		.4byte	0xfc
 4166 0591 9C050000 		.4byte	0x59c
 4167 0595 16       		.uleb128 0x16
 4168 0596 39000000 		.4byte	0x39
 4169 059a 08       		.byte	0x8
 4170 059b 00       		.byte	0
 4171 059c 15       		.uleb128 0x15
 4172 059d FC000000 		.4byte	0xfc
 4173 05a1 AC050000 		.4byte	0x5ac
 4174 05a5 16       		.uleb128 0x16
 4175 05a6 39000000 		.4byte	0x39
 4176 05aa 02       		.byte	0x2
 4177 05ab 00       		.byte	0
 4178 05ac 37       		.uleb128 0x37
 4179 05ad 3001     		.2byte	0x130
 4180 05af CE04     		.2byte	0x4ce
 4181 05b1 43090000 		.4byte	0x943
 4182 05b5 0A       		.uleb128 0xa
 4183 05b6 435200   		.ascii	"CR\000"
 4184 05b9 11       		.byte	0x11
 4185 05ba D004     		.2byte	0x4d0
 4186 05bc 10       		.byte	0x10
 4187 05bd 08010000 		.4byte	0x108
 4188 05c1 00       		.byte	0
 4189 05c2 02       		.uleb128 0x2
 4190 05c3 EC080000 		.4byte	.LASF82
 4191 05c7 11       		.byte	0x11
 4192 05c8 D104     		.2byte	0x4d1
 4193 05ca 10       		.byte	0x10
 4194 05cb 08010000 		.4byte	0x108
 4195 05cf 04       		.byte	0x4
 4196 05d0 02       		.uleb128 0x2
 4197 05d1 A40D0000 		.4byte	.LASF83
 4198 05d5 11       		.byte	0x11
 4199 05d6 D204     		.2byte	0x4d2
 4200 05d8 10       		.byte	0x10
 4201 05d9 08010000 		.4byte	0x108
 4202 05dd 08       		.byte	0x8
 4203 05de 02       		.uleb128 0x2
 4204 05df 8C0C0000 		.4byte	.LASF84
 4205 05e3 11       		.byte	0x11
 4206 05e4 D304     		.2byte	0x4d3
 4207 05e6 10       		.byte	0x10
 4208 05e7 08010000 		.4byte	0x108
 4209 05eb 0C       		.byte	0xc
 4210 05ec 02       		.uleb128 0x2
ARM GAS  C:\Users\DEVELO~1\AppData\Local\Temp\ccuGzkMt.s 			page 75


 4211 05ed 0A0B0000 		.4byte	.LASF85
 4212 05f1 11       		.byte	0x11
 4213 05f2 D404     		.2byte	0x4d4
 4214 05f4 10       		.byte	0x10
 4215 05f5 08010000 		.4byte	0x108
 4216 05f9 10       		.byte	0x10
 4217 05fa 02       		.uleb128 0x2
 4218 05fb C6090000 		.4byte	.LASF86
 4219 05ff 11       		.byte	0x11
 4220 0600 D504     		.2byte	0x4d5
 4221 0602 0F       		.byte	0xf
 4222 0603 FC000000 		.4byte	0xfc
 4223 0607 14       		.byte	0x14
 4224 0608 02       		.uleb128 0x2
 4225 0609 CC0B0000 		.4byte	.LASF87
 4226 060d 11       		.byte	0x11
 4227 060e D604     		.2byte	0x4d6
 4228 0610 10       		.byte	0x10
 4229 0611 08010000 		.4byte	0x108
 4230 0615 18       		.byte	0x18
 4231 0616 02       		.uleb128 0x2
 4232 0617 89060000 		.4byte	.LASF88
 4233 061b 11       		.byte	0x11
 4234 061c D704     		.2byte	0x4d7
 4235 061e 10       		.byte	0x10
 4236 061f 08010000 		.4byte	0x108
 4237 0623 1C       		.byte	0x1c
 4238 0624 02       		.uleb128 0x2
 4239 0625 B0010000 		.4byte	.LASF89
 4240 0629 11       		.byte	0x11
 4241 062a D804     		.2byte	0x4d8
 4242 062c 10       		.byte	0x10
 4243 062d 08010000 		.4byte	0x108
 4244 0631 20       		.byte	0x20
 4245 0632 02       		.uleb128 0x2
 4246 0633 D0090000 		.4byte	.LASF90
 4247 0637 11       		.byte	0x11
 4248 0638 D904     		.2byte	0x4d9
 4249 063a 0F       		.byte	0xf
 4250 063b FC000000 		.4byte	0xfc
 4251 063f 24       		.byte	0x24
 4252 0640 02       		.uleb128 0x2
 4253 0641 630B0000 		.4byte	.LASF91
 4254 0645 11       		.byte	0x11
 4255 0646 DA04     		.2byte	0x4da
 4256 0648 10       		.byte	0x10
 4257 0649 08010000 		.4byte	0x108
 4258 064d 28       		.byte	0x28
 4259 064e 02       		.uleb128 0x2
 4260 064f 5B0B0000 		.4byte	.LASF92
 4261 0653 11       		.byte	0x11
 4262 0654 DB04     		.2byte	0x4db
 4263 0656 10       		.byte	0x10
 4264 0657 08010000 		.4byte	0x108
 4265 065b 2C       		.byte	0x2c
 4266 065c 02       		.uleb128 0x2
 4267 065d 4A0C0000 		.4byte	.LASF93
ARM GAS  C:\Users\DEVELO~1\AppData\Local\Temp\ccuGzkMt.s 			page 76


 4268 0661 11       		.byte	0x11
 4269 0662 DC04     		.2byte	0x4dc
 4270 0664 10       		.byte	0x10
 4271 0665 08010000 		.4byte	0x108
 4272 0669 30       		.byte	0x30
 4273 066a 02       		.uleb128 0x2
 4274 066b BA0B0000 		.4byte	.LASF94
 4275 066f 11       		.byte	0x11
 4276 0670 DD04     		.2byte	0x4dd
 4277 0672 10       		.byte	0x10
 4278 0673 08010000 		.4byte	0x108
 4279 0677 34       		.byte	0x34
 4280 0678 02       		.uleb128 0x2
 4281 0679 CA060000 		.4byte	.LASF95
 4282 067d 11       		.byte	0x11
 4283 067e DE04     		.2byte	0x4de
 4284 0680 10       		.byte	0x10
 4285 0681 08010000 		.4byte	0x108
 4286 0685 38       		.byte	0x38
 4287 0686 02       		.uleb128 0x2
 4288 0687 6F060000 		.4byte	.LASF96
 4289 068b 11       		.byte	0x11
 4290 068c DF04     		.2byte	0x4df
 4291 068e 10       		.byte	0x10
 4292 068f 08010000 		.4byte	0x108
 4293 0693 3C       		.byte	0x3c
 4294 0694 02       		.uleb128 0x2
 4295 0695 43020000 		.4byte	.LASF97
 4296 0699 11       		.byte	0x11
 4297 069a E004     		.2byte	0x4e0
 4298 069c 10       		.byte	0x10
 4299 069d 08010000 		.4byte	0x108
 4300 06a1 40       		.byte	0x40
 4301 06a2 02       		.uleb128 0x2
 4302 06a3 E2000000 		.4byte	.LASF98
 4303 06a7 11       		.byte	0x11
 4304 06a8 E104     		.2byte	0x4e1
 4305 06aa 10       		.byte	0x10
 4306 06ab 08010000 		.4byte	0x108
 4307 06af 44       		.byte	0x44
 4308 06b0 02       		.uleb128 0x2
 4309 06b1 DA090000 		.4byte	.LASF99
 4310 06b5 11       		.byte	0x11
 4311 06b6 E204     		.2byte	0x4e2
 4312 06b8 10       		.byte	0x10
 4313 06b9 FC000000 		.4byte	0xfc
 4314 06bd 48       		.byte	0x48
 4315 06be 02       		.uleb128 0x2
 4316 06bf F60A0000 		.4byte	.LASF100
 4317 06c3 11       		.byte	0x11
 4318 06c4 E304     		.2byte	0x4e3
 4319 06c6 11       		.byte	0x11
 4320 06c7 08010000 		.4byte	0x108
 4321 06cb 4C       		.byte	0x4c
 4322 06cc 02       		.uleb128 0x2
 4323 06cd F0050000 		.4byte	.LASF101
 4324 06d1 11       		.byte	0x11
ARM GAS  C:\Users\DEVELO~1\AppData\Local\Temp\ccuGzkMt.s 			page 77


 4325 06d2 E404     		.2byte	0x4e4
 4326 06d4 11       		.byte	0x11
 4327 06d5 08010000 		.4byte	0x108
 4328 06d9 50       		.byte	0x50
 4329 06da 02       		.uleb128 0x2
 4330 06db B0060000 		.4byte	.LASF102
 4331 06df 11       		.byte	0x11
 4332 06e0 E504     		.2byte	0x4e5
 4333 06e2 11       		.byte	0x11
 4334 06e3 08010000 		.4byte	0x108
 4335 06e7 54       		.byte	0x54
 4336 06e8 02       		.uleb128 0x2
 4337 06e9 6F0D0000 		.4byte	.LASF103
 4338 06ed 11       		.byte	0x11
 4339 06ee E604     		.2byte	0x4e6
 4340 06f0 11       		.byte	0x11
 4341 06f1 08010000 		.4byte	0x108
 4342 06f5 58       		.byte	0x58
 4343 06f6 02       		.uleb128 0x2
 4344 06f7 E4090000 		.4byte	.LASF104
 4345 06fb 11       		.byte	0x11
 4346 06fc E704     		.2byte	0x4e7
 4347 06fe 10       		.byte	0x10
 4348 06ff FC000000 		.4byte	0xfc
 4349 0703 5C       		.byte	0x5c
 4350 0704 02       		.uleb128 0x2
 4351 0705 C0030000 		.4byte	.LASF105
 4352 0709 11       		.byte	0x11
 4353 070a E804     		.2byte	0x4e8
 4354 070c 11       		.byte	0x11
 4355 070d 08010000 		.4byte	0x108
 4356 0711 60       		.byte	0x60
 4357 0712 02       		.uleb128 0x2
 4358 0713 CD0C0000 		.4byte	.LASF106
 4359 0717 11       		.byte	0x11
 4360 0718 E904     		.2byte	0x4e9
 4361 071a 11       		.byte	0x11
 4362 071b 08010000 		.4byte	0x108
 4363 071f 64       		.byte	0x64
 4364 0720 02       		.uleb128 0x2
 4365 0721 E7080000 		.4byte	.LASF107
 4366 0725 11       		.byte	0x11
 4367 0726 EA04     		.2byte	0x4ea
 4368 0728 11       		.byte	0x11
 4369 0729 08010000 		.4byte	0x108
 4370 072d 68       		.byte	0x68
 4371 072e 02       		.uleb128 0x2
 4372 072f 5A0E0000 		.4byte	.LASF108
 4373 0733 11       		.byte	0x11
 4374 0734 EB04     		.2byte	0x4eb
 4375 0736 0F       		.byte	0xf
 4376 0737 FC000000 		.4byte	0xfc
 4377 073b 6C       		.byte	0x6c
 4378 073c 02       		.uleb128 0x2
 4379 073d C3010000 		.4byte	.LASF109
 4380 0741 11       		.byte	0x11
 4381 0742 EC04     		.2byte	0x4ec
ARM GAS  C:\Users\DEVELO~1\AppData\Local\Temp\ccuGzkMt.s 			page 78


 4382 0744 11       		.byte	0x11
 4383 0745 08010000 		.4byte	0x108
 4384 0749 70       		.byte	0x70
 4385 074a 0A       		.uleb128 0xa
 4386 074b 43535200 		.ascii	"CSR\000"
 4387 074f 11       		.byte	0x11
 4388 0750 ED04     		.2byte	0x4ed
 4389 0752 11       		.byte	0x11
 4390 0753 08010000 		.4byte	0x108
 4391 0757 74       		.byte	0x74
 4392 0758 02       		.uleb128 0x2
 4393 0759 EE090000 		.4byte	.LASF110
 4394 075d 11       		.byte	0x11
 4395 075e EE04     		.2byte	0x4ee
 4396 0760 0F       		.byte	0xf
 4397 0761 FC000000 		.4byte	0xfc
 4398 0765 78       		.byte	0x78
 4399 0766 02       		.uleb128 0x2
 4400 0767 AC040000 		.4byte	.LASF111
 4401 076b 11       		.byte	0x11
 4402 076c EF04     		.2byte	0x4ef
 4403 076e 10       		.byte	0x10
 4404 076f 08010000 		.4byte	0x108
 4405 0773 7C       		.byte	0x7c
 4406 0774 02       		.uleb128 0x2
 4407 0775 B70E0000 		.4byte	.LASF112
 4408 0779 11       		.byte	0x11
 4409 077a F004     		.2byte	0x4f0
 4410 077c 10       		.byte	0x10
 4411 077d 08010000 		.4byte	0x108
 4412 0781 80       		.byte	0x80
 4413 0782 02       		.uleb128 0x2
 4414 0783 C7080000 		.4byte	.LASF113
 4415 0787 11       		.byte	0x11
 4416 0788 F104     		.2byte	0x4f1
 4417 078a 10       		.byte	0x10
 4418 078b 08010000 		.4byte	0x108
 4419 078f 84       		.byte	0x84
 4420 0790 02       		.uleb128 0x2
 4421 0791 9A0A0000 		.4byte	.LASF114
 4422 0795 11       		.byte	0x11
 4423 0796 F204     		.2byte	0x4f2
 4424 0798 10       		.byte	0x10
 4425 0799 08010000 		.4byte	0x108
 4426 079d 88       		.byte	0x88
 4427 079e 02       		.uleb128 0x2
 4428 079f B4070000 		.4byte	.LASF115
 4429 07a3 11       		.byte	0x11
 4430 07a4 F304     		.2byte	0x4f3
 4431 07a6 10       		.byte	0x10
 4432 07a7 08010000 		.4byte	0x108
 4433 07ab 8C       		.byte	0x8c
 4434 07ac 02       		.uleb128 0x2
 4435 07ad 3B080000 		.4byte	.LASF116
 4436 07b1 11       		.byte	0x11
 4437 07b2 F404     		.2byte	0x4f4
 4438 07b4 10       		.byte	0x10
ARM GAS  C:\Users\DEVELO~1\AppData\Local\Temp\ccuGzkMt.s 			page 79


 4439 07b5 08010000 		.4byte	0x108
 4440 07b9 90       		.byte	0x90
 4441 07ba 02       		.uleb128 0x2
 4442 07bb 10000000 		.4byte	.LASF117
 4443 07bf 11       		.byte	0x11
 4444 07c0 F504     		.2byte	0x4f5
 4445 07c2 10       		.byte	0x10
 4446 07c3 08010000 		.4byte	0x108
 4447 07c7 94       		.byte	0x94
 4448 07c8 02       		.uleb128 0x2
 4449 07c9 A7000000 		.4byte	.LASF118
 4450 07cd 11       		.byte	0x11
 4451 07ce F604     		.2byte	0x4f6
 4452 07d0 10       		.byte	0x10
 4453 07d1 08010000 		.4byte	0x108
 4454 07d5 98       		.byte	0x98
 4455 07d6 02       		.uleb128 0x2
 4456 07d7 8D050000 		.4byte	.LASF119
 4457 07db 11       		.byte	0x11
 4458 07dc F704     		.2byte	0x4f7
 4459 07de 10       		.byte	0x10
 4460 07df 08010000 		.4byte	0x108
 4461 07e3 9C       		.byte	0x9c
 4462 07e4 0A       		.uleb128 0xa
 4463 07e5 47435200 		.ascii	"GCR\000"
 4464 07e9 11       		.byte	0x11
 4465 07ea F804     		.2byte	0x4f8
 4466 07ec 10       		.byte	0x10
 4467 07ed 08010000 		.4byte	0x108
 4468 07f1 A0       		.byte	0xa0
 4469 07f2 02       		.uleb128 0x2
 4470 07f3 020A0000 		.4byte	.LASF120
 4471 07f7 11       		.byte	0x11
 4472 07f8 F904     		.2byte	0x4f9
 4473 07fa 0F       		.byte	0xf
 4474 07fb FC000000 		.4byte	0xfc
 4475 07ff A4       		.byte	0xa4
 4476 0800 02       		.uleb128 0x2
 4477 0801 17080000 		.4byte	.LASF121
 4478 0805 11       		.byte	0x11
 4479 0806 FA04     		.2byte	0x4fa
 4480 0808 10       		.byte	0x10
 4481 0809 08010000 		.4byte	0x108
 4482 080d A8       		.byte	0xa8
 4483 080e 02       		.uleb128 0x2
 4484 080f DD0C0000 		.4byte	.LASF122
 4485 0813 11       		.byte	0x11
 4486 0814 FB04     		.2byte	0x4fb
 4487 0816 0F       		.byte	0xf
 4488 0817 8C050000 		.4byte	0x58c
 4489 081b AC       		.byte	0xac
 4490 081c 0A       		.uleb128 0xa
 4491 081d 52535200 		.ascii	"RSR\000"
 4492 0821 11       		.byte	0x11
 4493 0822 FC04     		.2byte	0x4fc
 4494 0824 10       		.byte	0x10
 4495 0825 08010000 		.4byte	0x108
ARM GAS  C:\Users\DEVELO~1\AppData\Local\Temp\ccuGzkMt.s 			page 80


 4496 0829 D0       		.byte	0xd0
 4497 082a 02       		.uleb128 0x2
 4498 082b DE050000 		.4byte	.LASF123
 4499 082f 11       		.byte	0x11
 4500 0830 FD04     		.2byte	0x4fd
 4501 0832 10       		.byte	0x10
 4502 0833 08010000 		.4byte	0x108
 4503 0837 D4       		.byte	0xd4
 4504 0838 02       		.uleb128 0x2
 4505 0839 AB030000 		.4byte	.LASF124
 4506 083d 11       		.byte	0x11
 4507 083e FE04     		.2byte	0x4fe
 4508 0840 10       		.byte	0x10
 4509 0841 08010000 		.4byte	0x108
 4510 0845 D8       		.byte	0xd8
 4511 0846 02       		.uleb128 0x2
 4512 0847 D6050000 		.4byte	.LASF125
 4513 084b 11       		.byte	0x11
 4514 084c FF04     		.2byte	0x4ff
 4515 084e 10       		.byte	0x10
 4516 084f 08010000 		.4byte	0x108
 4517 0853 DC       		.byte	0xdc
 4518 0854 02       		.uleb128 0x2
 4519 0855 520E0000 		.4byte	.LASF126
 4520 0859 11       		.byte	0x11
 4521 085a 0005     		.2byte	0x500
 4522 085c 10       		.byte	0x10
 4523 085d 08010000 		.4byte	0x108
 4524 0861 E0       		.byte	0xe0
 4525 0862 02       		.uleb128 0x2
 4526 0863 01030000 		.4byte	.LASF127
 4527 0867 11       		.byte	0x11
 4528 0868 0105     		.2byte	0x501
 4529 086a 10       		.byte	0x10
 4530 086b 08010000 		.4byte	0x108
 4531 086f E4       		.byte	0xe4
 4532 0870 02       		.uleb128 0x2
 4533 0871 AE0E0000 		.4byte	.LASF128
 4534 0875 11       		.byte	0x11
 4535 0876 0205     		.2byte	0x502
 4536 0878 10       		.byte	0x10
 4537 0879 08010000 		.4byte	0x108
 4538 087d E8       		.byte	0xe8
 4539 087e 02       		.uleb128 0x2
 4540 087f 3F0A0000 		.4byte	.LASF129
 4541 0883 11       		.byte	0x11
 4542 0884 0305     		.2byte	0x503
 4543 0886 10       		.byte	0x10
 4544 0887 08010000 		.4byte	0x108
 4545 088b EC       		.byte	0xec
 4546 088c 02       		.uleb128 0x2
 4547 088d FE070000 		.4byte	.LASF130
 4548 0891 11       		.byte	0x11
 4549 0892 0405     		.2byte	0x504
 4550 0894 10       		.byte	0x10
 4551 0895 08010000 		.4byte	0x108
 4552 0899 F0       		.byte	0xf0
ARM GAS  C:\Users\DEVELO~1\AppData\Local\Temp\ccuGzkMt.s 			page 81


 4553 089a 02       		.uleb128 0x2
 4554 089b 440B0000 		.4byte	.LASF131
 4555 089f 11       		.byte	0x11
 4556 08a0 0505     		.2byte	0x505
 4557 08a2 10       		.byte	0x10
 4558 08a3 08010000 		.4byte	0x108
 4559 08a7 F4       		.byte	0xf4
 4560 08a8 02       		.uleb128 0x2
 4561 08a9 E80C0000 		.4byte	.LASF132
 4562 08ad 11       		.byte	0x11
 4563 08ae 0605     		.2byte	0x506
 4564 08b0 10       		.byte	0x10
 4565 08b1 FC000000 		.4byte	0xfc
 4566 08b5 F8       		.byte	0xf8
 4567 08b6 02       		.uleb128 0x2
 4568 08b7 B00B0000 		.4byte	.LASF133
 4569 08bb 11       		.byte	0x11
 4570 08bc 0705     		.2byte	0x507
 4571 08be 10       		.byte	0x10
 4572 08bf 08010000 		.4byte	0x108
 4573 08c3 FC       		.byte	0xfc
 4574 08c4 1A       		.uleb128 0x1a
 4575 08c5 4D080000 		.4byte	.LASF134
 4576 08c9 0805     		.2byte	0x508
 4577 08cb 10       		.byte	0x10
 4578 08cc 08010000 		.4byte	0x108
 4579 08d0 0001     		.2byte	0x100
 4580 08d2 1A       		.uleb128 0x1a
 4581 08d3 C2020000 		.4byte	.LASF135
 4582 08d7 0905     		.2byte	0x509
 4583 08d9 10       		.byte	0x10
 4584 08da 08010000 		.4byte	0x108
 4585 08de 0401     		.2byte	0x104
 4586 08e0 1A       		.uleb128 0x1a
 4587 08e1 65060000 		.4byte	.LASF136
 4588 08e5 0A05     		.2byte	0x50a
 4589 08e7 10       		.byte	0x10
 4590 08e8 08010000 		.4byte	0x108
 4591 08ec 0801     		.2byte	0x108
 4592 08ee 1A       		.uleb128 0x1a
 4593 08ef 4D070000 		.4byte	.LASF137
 4594 08f3 0B05     		.2byte	0x50b
 4595 08f5 10       		.byte	0x10
 4596 08f6 08010000 		.4byte	0x108
 4597 08fa 0C01     		.2byte	0x10c
 4598 08fc 1A       		.uleb128 0x1a
 4599 08fd 23040000 		.4byte	.LASF138
 4600 0901 0C05     		.2byte	0x50c
 4601 0903 10       		.byte	0x10
 4602 0904 08010000 		.4byte	0x108
 4603 0908 1001     		.2byte	0x110
 4604 090a 1A       		.uleb128 0x1a
 4605 090b 780E0000 		.4byte	.LASF139
 4606 090f 0D05     		.2byte	0x50d
 4607 0911 10       		.byte	0x10
 4608 0912 08010000 		.4byte	0x108
 4609 0916 1401     		.2byte	0x114
ARM GAS  C:\Users\DEVELO~1\AppData\Local\Temp\ccuGzkMt.s 			page 82


 4610 0918 1A       		.uleb128 0x1a
 4611 0919 8C000000 		.4byte	.LASF140
 4612 091d 0E05     		.2byte	0x50e
 4613 091f 10       		.byte	0x10
 4614 0920 08010000 		.4byte	0x108
 4615 0924 1801     		.2byte	0x118
 4616 0926 1A       		.uleb128 0x1a
 4617 0927 25050000 		.4byte	.LASF141
 4618 092b 0F05     		.2byte	0x50f
 4619 092d 10       		.byte	0x10
 4620 092e 08010000 		.4byte	0x108
 4621 0932 1C01     		.2byte	0x11c
 4622 0934 1A       		.uleb128 0x1a
 4623 0935 F30C0000 		.4byte	.LASF142
 4624 0939 1005     		.2byte	0x510
 4625 093b 0F       		.byte	0xf
 4626 093c 7C050000 		.4byte	0x57c
 4627 0940 2001     		.2byte	0x120
 4628 0942 00       		.byte	0
 4629 0943 2A       		.uleb128 0x2a
 4630 0944 FC010000 		.4byte	.LASF143
 4631 0948 11       		.byte	0x11
 4632 0949 1205     		.2byte	0x512
 4633 094b AC050000 		.4byte	0x5ac
 4634 094f 37       		.uleb128 0x37
 4635 0950 0004     		.2byte	0x400
 4636 0952 7D05     		.2byte	0x57d
 4637 0954 C50A0000 		.4byte	0xac5
 4638 0958 02       		.uleb128 0x2
 4639 0959 880B0000 		.4byte	.LASF144
 4640 095d 11       		.byte	0x11
 4641 095e 7F05     		.2byte	0x57f
 4642 0960 11       		.byte	0x11
 4643 0961 08010000 		.4byte	0x108
 4644 0965 00       		.byte	0
 4645 0966 02       		.uleb128 0x2
 4646 0967 E2010000 		.4byte	.LASF145
 4647 096b 11       		.byte	0x11
 4648 096c 8005     		.2byte	0x580
 4649 096e 11       		.byte	0x11
 4650 096f 08010000 		.4byte	0x108
 4651 0973 04       		.byte	0x4
 4652 0974 0A       		.uleb128 0xa
 4653 0975 41524700 		.ascii	"ARG\000"
 4654 0979 11       		.byte	0x11
 4655 097a 8105     		.2byte	0x581
 4656 097c 11       		.byte	0x11
 4657 097d 08010000 		.4byte	0x108
 4658 0981 08       		.byte	0x8
 4659 0982 0A       		.uleb128 0xa
 4660 0983 434D4400 		.ascii	"CMD\000"
 4661 0987 11       		.byte	0x11
 4662 0988 8205     		.2byte	0x582
 4663 098a 11       		.byte	0x11
 4664 098b 08010000 		.4byte	0x108
 4665 098f 0C       		.byte	0xc
 4666 0990 02       		.uleb128 0x2
ARM GAS  C:\Users\DEVELO~1\AppData\Local\Temp\ccuGzkMt.s 			page 83


 4667 0991 260D0000 		.4byte	.LASF146
 4668 0995 11       		.byte	0x11
 4669 0996 8305     		.2byte	0x583
 4670 0998 11       		.byte	0x11
 4671 0999 0D010000 		.4byte	0x10d
 4672 099d 10       		.byte	0x10
 4673 099e 02       		.uleb128 0x2
 4674 099f 22060000 		.4byte	.LASF147
 4675 09a3 11       		.byte	0x11
 4676 09a4 8405     		.2byte	0x584
 4677 09a6 11       		.byte	0x11
 4678 09a7 0D010000 		.4byte	0x10d
 4679 09ab 14       		.byte	0x14
 4680 09ac 02       		.uleb128 0x2
 4681 09ad 28060000 		.4byte	.LASF148
 4682 09b1 11       		.byte	0x11
 4683 09b2 8505     		.2byte	0x585
 4684 09b4 11       		.byte	0x11
 4685 09b5 0D010000 		.4byte	0x10d
 4686 09b9 18       		.byte	0x18
 4687 09ba 02       		.uleb128 0x2
 4688 09bb 2E060000 		.4byte	.LASF149
 4689 09bf 11       		.byte	0x11
 4690 09c0 8605     		.2byte	0x586
 4691 09c2 11       		.byte	0x11
 4692 09c3 0D010000 		.4byte	0x10d
 4693 09c7 1C       		.byte	0x1c
 4694 09c8 02       		.uleb128 0x2
 4695 09c9 34060000 		.4byte	.LASF150
 4696 09cd 11       		.byte	0x11
 4697 09ce 8705     		.2byte	0x587
 4698 09d0 11       		.byte	0x11
 4699 09d1 0D010000 		.4byte	0x10d
 4700 09d5 20       		.byte	0x20
 4701 09d6 02       		.uleb128 0x2
 4702 09d7 540A0000 		.4byte	.LASF151
 4703 09db 11       		.byte	0x11
 4704 09dc 8805     		.2byte	0x588
 4705 09de 11       		.byte	0x11
 4706 09df 08010000 		.4byte	0x108
 4707 09e3 24       		.byte	0x24
 4708 09e4 02       		.uleb128 0x2
 4709 09e5 0F0B0000 		.4byte	.LASF152
 4710 09e9 11       		.byte	0x11
 4711 09ea 8905     		.2byte	0x589
 4712 09ec 11       		.byte	0x11
 4713 09ed 08010000 		.4byte	0x108
 4714 09f1 28       		.byte	0x28
 4715 09f2 02       		.uleb128 0x2
 4716 09f3 8E0B0000 		.4byte	.LASF153
 4717 09f7 11       		.byte	0x11
 4718 09f8 8A05     		.2byte	0x58a
 4719 09fa 11       		.byte	0x11
 4720 09fb 08010000 		.4byte	0x108
 4721 09ff 2C       		.byte	0x2c
 4722 0a00 02       		.uleb128 0x2
 4723 0a01 C60C0000 		.4byte	.LASF154
ARM GAS  C:\Users\DEVELO~1\AppData\Local\Temp\ccuGzkMt.s 			page 84


 4724 0a05 11       		.byte	0x11
 4725 0a06 8B05     		.2byte	0x58b
 4726 0a08 11       		.byte	0x11
 4727 0a09 0D010000 		.4byte	0x10d
 4728 0a0d 30       		.byte	0x30
 4729 0a0e 0A       		.uleb128 0xa
 4730 0a0f 53544100 		.ascii	"STA\000"
 4731 0a13 11       		.byte	0x11
 4732 0a14 8C05     		.2byte	0x58c
 4733 0a16 11       		.byte	0x11
 4734 0a17 0D010000 		.4byte	0x10d
 4735 0a1b 34       		.byte	0x34
 4736 0a1c 0A       		.uleb128 0xa
 4737 0a1d 49435200 		.ascii	"ICR\000"
 4738 0a21 11       		.byte	0x11
 4739 0a22 8D05     		.2byte	0x58d
 4740 0a24 11       		.byte	0x11
 4741 0a25 08010000 		.4byte	0x108
 4742 0a29 38       		.byte	0x38
 4743 0a2a 02       		.uleb128 0x2
 4744 0a2b B5040000 		.4byte	.LASF155
 4745 0a2f 11       		.byte	0x11
 4746 0a30 8E05     		.2byte	0x58e
 4747 0a32 11       		.byte	0x11
 4748 0a33 08010000 		.4byte	0x108
 4749 0a37 3C       		.byte	0x3c
 4750 0a38 02       		.uleb128 0x2
 4751 0a39 770A0000 		.4byte	.LASF156
 4752 0a3d 11       		.byte	0x11
 4753 0a3e 8F05     		.2byte	0x58f
 4754 0a40 11       		.byte	0x11
 4755 0a41 08010000 		.4byte	0x108
 4756 0a45 40       		.byte	0x40
 4757 0a46 02       		.uleb128 0x2
 4758 0a47 BC090000 		.4byte	.LASF157
 4759 0a4b 11       		.byte	0x11
 4760 0a4c 9005     		.2byte	0x590
 4761 0a4e 11       		.byte	0x11
 4762 0a4f 9C050000 		.4byte	0x59c
 4763 0a53 44       		.byte	0x44
 4764 0a54 02       		.uleb128 0x2
 4765 0a55 BE050000 		.4byte	.LASF158
 4766 0a59 11       		.byte	0x11
 4767 0a5a 9105     		.2byte	0x591
 4768 0a5c 11       		.byte	0x11
 4769 0a5d 08010000 		.4byte	0x108
 4770 0a61 50       		.byte	0x50
 4771 0a62 02       		.uleb128 0x2
 4772 0a63 A60B0000 		.4byte	.LASF159
 4773 0a67 11       		.byte	0x11
 4774 0a68 9205     		.2byte	0x592
 4775 0a6a 11       		.byte	0x11
 4776 0a6b 08010000 		.4byte	0x108
 4777 0a6f 54       		.byte	0x54
 4778 0a70 02       		.uleb128 0x2
 4779 0a71 640E0000 		.4byte	.LASF160
 4780 0a75 11       		.byte	0x11
ARM GAS  C:\Users\DEVELO~1\AppData\Local\Temp\ccuGzkMt.s 			page 85


 4781 0a76 9305     		.2byte	0x593
 4782 0a78 11       		.byte	0x11
 4783 0a79 08010000 		.4byte	0x108
 4784 0a7d 58       		.byte	0x58
 4785 0a7e 02       		.uleb128 0x2
 4786 0a7f 6E0E0000 		.4byte	.LASF161
 4787 0a83 11       		.byte	0x11
 4788 0a84 9405     		.2byte	0x594
 4789 0a86 11       		.byte	0x11
 4790 0a87 08010000 		.4byte	0x108
 4791 0a8b 5C       		.byte	0x5c
 4792 0a8c 02       		.uleb128 0x2
 4793 0a8d C6090000 		.4byte	.LASF86
 4794 0a91 11       		.byte	0x11
 4795 0a92 9505     		.2byte	0x595
 4796 0a94 11       		.byte	0x11
 4797 0a95 6C050000 		.4byte	0x56c
 4798 0a99 60       		.byte	0x60
 4799 0a9a 02       		.uleb128 0x2
 4800 0a9b C2070000 		.4byte	.LASF162
 4801 0a9f 11       		.byte	0x11
 4802 0aa0 9605     		.2byte	0x596
 4803 0aa2 11       		.byte	0x11
 4804 0aa3 08010000 		.4byte	0x108
 4805 0aa7 80       		.byte	0x80
 4806 0aa8 02       		.uleb128 0x2
 4807 0aa9 D0090000 		.4byte	.LASF90
 4808 0aad 11       		.byte	0x11
 4809 0aae 9705     		.2byte	0x597
 4810 0ab0 11       		.byte	0x11
 4811 0ab1 C50A0000 		.4byte	0xac5
 4812 0ab5 84       		.byte	0x84
 4813 0ab6 1A       		.uleb128 0x1a
 4814 0ab7 9C020000 		.4byte	.LASF163
 4815 0abb 9805     		.2byte	0x598
 4816 0abd 11       		.byte	0x11
 4817 0abe 08010000 		.4byte	0x108
 4818 0ac2 FC03     		.2byte	0x3fc
 4819 0ac4 00       		.byte	0
 4820 0ac5 15       		.uleb128 0x15
 4821 0ac6 FC000000 		.4byte	0xfc
 4822 0aca D50A0000 		.4byte	0xad5
 4823 0ace 16       		.uleb128 0x16
 4824 0acf 39000000 		.4byte	0x39
 4825 0ad3 DD       		.byte	0xdd
 4826 0ad4 00       		.byte	0
 4827 0ad5 2A       		.uleb128 0x2a
 4828 0ad6 E00D0000 		.4byte	.LASF164
 4829 0ada 11       		.byte	0x11
 4830 0adb 9905     		.2byte	0x599
 4831 0add 4F090000 		.4byte	0x94f
 4832 0ae1 2B       		.uleb128 0x2b
 4833 0ae2 480A0000 		.4byte	.LASF165
 4834 0ae6 24       		.byte	0x24
 4835 0ae7 04       		.byte	0x4
 4836 0ae8 3F02     		.2byte	0x23f
 4837 0aea 08       		.byte	0x8
ARM GAS  C:\Users\DEVELO~1\AppData\Local\Temp\ccuGzkMt.s 			page 86


 4838 0aeb 670B0000 		.4byte	0xb67
 4839 0aef 0A       		.uleb128 0xa
 4840 0af0 723400   		.ascii	"r4\000"
 4841 0af3 04       		.byte	0x4
 4842 0af4 5202     		.2byte	0x252
 4843 0af6 11       		.byte	0x11
 4844 0af7 FC000000 		.4byte	0xfc
 4845 0afb 00       		.byte	0
 4846 0afc 0A       		.uleb128 0xa
 4847 0afd 723500   		.ascii	"r5\000"
 4848 0b00 04       		.byte	0x4
 4849 0b01 5302     		.2byte	0x253
 4850 0b03 11       		.byte	0x11
 4851 0b04 FC000000 		.4byte	0xfc
 4852 0b08 04       		.byte	0x4
 4853 0b09 0A       		.uleb128 0xa
 4854 0b0a 723600   		.ascii	"r6\000"
 4855 0b0d 04       		.byte	0x4
 4856 0b0e 5402     		.2byte	0x254
 4857 0b10 11       		.byte	0x11
 4858 0b11 FC000000 		.4byte	0xfc
 4859 0b15 08       		.byte	0x8
 4860 0b16 0A       		.uleb128 0xa
 4861 0b17 723700   		.ascii	"r7\000"
 4862 0b1a 04       		.byte	0x4
 4863 0b1b 5502     		.2byte	0x255
 4864 0b1d 11       		.byte	0x11
 4865 0b1e FC000000 		.4byte	0xfc
 4866 0b22 0C       		.byte	0xc
 4867 0b23 0A       		.uleb128 0xa
 4868 0b24 723800   		.ascii	"r8\000"
 4869 0b27 04       		.byte	0x4
 4870 0b28 5602     		.2byte	0x256
 4871 0b2a 11       		.byte	0x11
 4872 0b2b FC000000 		.4byte	0xfc
 4873 0b2f 10       		.byte	0x10
 4874 0b30 0A       		.uleb128 0xa
 4875 0b31 723900   		.ascii	"r9\000"
 4876 0b34 04       		.byte	0x4
 4877 0b35 5702     		.2byte	0x257
 4878 0b37 11       		.byte	0x11
 4879 0b38 FC000000 		.4byte	0xfc
 4880 0b3c 14       		.byte	0x14
 4881 0b3d 0A       		.uleb128 0xa
 4882 0b3e 72313000 		.ascii	"r10\000"
 4883 0b42 04       		.byte	0x4
 4884 0b43 5802     		.2byte	0x258
 4885 0b45 11       		.byte	0x11
 4886 0b46 FC000000 		.4byte	0xfc
 4887 0b4a 18       		.byte	0x18
 4888 0b4b 0A       		.uleb128 0xa
 4889 0b4c 72313100 		.ascii	"r11\000"
 4890 0b50 04       		.byte	0x4
 4891 0b51 5902     		.2byte	0x259
 4892 0b53 11       		.byte	0x11
 4893 0b54 FC000000 		.4byte	0xfc
 4894 0b58 1C       		.byte	0x1c
ARM GAS  C:\Users\DEVELO~1\AppData\Local\Temp\ccuGzkMt.s 			page 87


 4895 0b59 0A       		.uleb128 0xa
 4896 0b5a 6C7200   		.ascii	"lr\000"
 4897 0b5d 04       		.byte	0x4
 4898 0b5e 5A02     		.2byte	0x25a
 4899 0b60 11       		.byte	0x11
 4900 0b61 FC000000 		.4byte	0xfc
 4901 0b65 20       		.byte	0x20
 4902 0b66 00       		.byte	0
 4903 0b67 2B       		.uleb128 0x2b
 4904 0b68 4C020000 		.4byte	.LASF166
 4905 0b6c 04       		.byte	0x4
 4906 0b6d 04       		.byte	0x4
 4907 0b6e 6302     		.2byte	0x263
 4908 0b70 08       		.byte	0x8
 4909 0b71 830B0000 		.4byte	0xb83
 4910 0b75 0A       		.uleb128 0xa
 4911 0b76 737000   		.ascii	"sp\000"
 4912 0b79 04       		.byte	0x4
 4913 0b7a 6402     		.2byte	0x264
 4914 0b7c 1A       		.byte	0x1a
 4915 0b7d 830B0000 		.4byte	0xb83
 4916 0b81 00       		.byte	0
 4917 0b82 00       		.byte	0
 4918 0b83 06       		.uleb128 0x6
 4919 0b84 E10A0000 		.4byte	0xae1
 4920 0b88 05       		.uleb128 0x5
 4921 0b89 BD080000 		.4byte	.LASF167
 4922 0b8d 12       		.byte	0x12
 4923 0b8e 32       		.byte	0x32
 4924 0b8f 18       		.byte	0x18
 4925 0b90 940B0000 		.4byte	0xb94
 4926 0b94 13       		.uleb128 0x13
 4927 0b95 EE020000 		.4byte	.LASF168
 4928 0b99 04       		.byte	0x4
 4929 0b9a 12       		.byte	0x12
 4930 0b9b 38       		.byte	0x38
 4931 0b9c 08       		.byte	0x8
 4932 0b9d AF0B0000 		.4byte	0xbaf
 4933 0ba1 03       		.uleb128 0x3
 4934 0ba2 87010000 		.4byte	.LASF169
 4935 0ba6 12       		.byte	0x12
 4936 0ba7 39       		.byte	0x39
 4937 0ba8 1A       		.byte	0x1a
 4938 0ba9 AF0B0000 		.4byte	0xbaf
 4939 0bad 00       		.byte	0
 4940 0bae 00       		.byte	0
 4941 0baf 06       		.uleb128 0x6
 4942 0bb0 880B0000 		.4byte	0xb88
 4943 0bb4 05       		.uleb128 0x5
 4944 0bb5 6C020000 		.4byte	.LASF170
 4945 0bb9 12       		.byte	0x12
 4946 0bba 3F       		.byte	0x3f
 4947 0bbb 19       		.byte	0x19
 4948 0bbc C00B0000 		.4byte	0xbc0
 4949 0bc0 13       		.uleb128 0x13
 4950 0bc1 530C0000 		.4byte	.LASF171
 4951 0bc5 08       		.byte	0x8
ARM GAS  C:\Users\DEVELO~1\AppData\Local\Temp\ccuGzkMt.s 			page 88


 4952 0bc6 12       		.byte	0x12
 4953 0bc7 45       		.byte	0x45
 4954 0bc8 08       		.byte	0x8
 4955 0bc9 E80B0000 		.4byte	0xbe8
 4956 0bcd 03       		.uleb128 0x3
 4957 0bce 87010000 		.4byte	.LASF169
 4958 0bd2 12       		.byte	0x12
 4959 0bd3 46       		.byte	0x46
 4960 0bd4 1A       		.byte	0x1a
 4961 0bd5 E80B0000 		.4byte	0xbe8
 4962 0bd9 00       		.byte	0
 4963 0bda 03       		.uleb128 0x3
 4964 0bdb BD000000 		.4byte	.LASF172
 4965 0bdf 12       		.byte	0x12
 4966 0be0 47       		.byte	0x47
 4967 0be1 1A       		.byte	0x1a
 4968 0be2 E80B0000 		.4byte	0xbe8
 4969 0be6 04       		.byte	0x4
 4970 0be7 00       		.byte	0
 4971 0be8 06       		.uleb128 0x6
 4972 0be9 B40B0000 		.4byte	0xbb4
 4973 0bed 05       		.uleb128 0x5
 4974 0bee 50050000 		.4byte	.LASF173
 4975 0bf2 12       		.byte	0x12
 4976 0bf3 4E       		.byte	0x4e
 4977 0bf4 22       		.byte	0x22
 4978 0bf5 F90B0000 		.4byte	0xbf9
 4979 0bf9 13       		.uleb128 0x13
 4980 0bfa 380C0000 		.4byte	.LASF174
 4981 0bfe 0C       		.byte	0xc
 4982 0bff 12       		.byte	0x12
 4983 0c00 55       		.byte	0x55
 4984 0c01 08       		.byte	0x8
 4985 0c02 2E0C0000 		.4byte	0xc2e
 4986 0c06 03       		.uleb128 0x3
 4987 0c07 87010000 		.4byte	.LASF169
 4988 0c0b 12       		.byte	0x12
 4989 0c0c 56       		.byte	0x56
 4990 0c0d 1A       		.byte	0x1a
 4991 0c0e 2E0C0000 		.4byte	0xc2e
 4992 0c12 00       		.byte	0
 4993 0c13 03       		.uleb128 0x3
 4994 0c14 BD000000 		.4byte	.LASF172
 4995 0c18 12       		.byte	0x12
 4996 0c19 57       		.byte	0x57
 4997 0c1a 1A       		.byte	0x1a
 4998 0c1b 2E0C0000 		.4byte	0xc2e
 4999 0c1f 04       		.byte	0x4
 5000 0c20 03       		.uleb128 0x3
 5001 0c21 FF050000 		.4byte	.LASF175
 5002 0c25 12       		.byte	0x12
 5003 0c26 58       		.byte	0x58
 5004 0c27 19       		.byte	0x19
 5005 0c28 5F010000 		.4byte	0x15f
 5006 0c2c 08       		.byte	0x8
 5007 0c2d 00       		.byte	0
 5008 0c2e 06       		.uleb128 0x6
ARM GAS  C:\Users\DEVELO~1\AppData\Local\Temp\ccuGzkMt.s 			page 89


 5009 0c2f ED0B0000 		.4byte	0xbed
 5010 0c33 05       		.uleb128 0x5
 5011 0c34 3F060000 		.4byte	.LASF176
 5012 0c38 12       		.byte	0x12
 5013 0c39 5F       		.byte	0x5f
 5014 0c3a 1E       		.byte	0x1e
 5015 0c3b 3F0C0000 		.4byte	0xc3f
 5016 0c3f 13       		.uleb128 0x13
 5017 0c40 3E030000 		.4byte	.LASF177
 5018 0c44 0C       		.byte	0xc
 5019 0c45 12       		.byte	0x12
 5020 0c46 64       		.byte	0x64
 5021 0c47 08       		.byte	0x8
 5022 0c48 740C0000 		.4byte	0xc74
 5023 0c4c 03       		.uleb128 0x3
 5024 0c4d 87010000 		.4byte	.LASF169
 5025 0c51 12       		.byte	0x12
 5026 0c52 65       		.byte	0x65
 5027 0c53 1A       		.byte	0x1a
 5028 0c54 740C0000 		.4byte	0xc74
 5029 0c58 00       		.byte	0
 5030 0c59 03       		.uleb128 0x3
 5031 0c5a BD000000 		.4byte	.LASF172
 5032 0c5e 12       		.byte	0x12
 5033 0c5f 66       		.byte	0x66
 5034 0c60 1A       		.byte	0x1a
 5035 0c61 740C0000 		.4byte	0xc74
 5036 0c65 04       		.byte	0x4
 5037 0c66 03       		.uleb128 0x3
 5038 0c67 9E0D0000 		.4byte	.LASF178
 5039 0c6b 12       		.byte	0x12
 5040 0c6c 67       		.byte	0x67
 5041 0c6d 19       		.byte	0x19
 5042 0c6e B1030000 		.4byte	0x3b1
 5043 0c72 08       		.byte	0x8
 5044 0c73 00       		.byte	0
 5045 0c74 06       		.uleb128 0x6
 5046 0c75 330C0000 		.4byte	0xc33
 5047 0c79 13       		.uleb128 0x13
 5048 0c7a C2040000 		.4byte	.LASF179
 5049 0c7e 20       		.byte	0x20
 5050 0c7f 0C       		.byte	0xc
 5051 0c80 64       		.byte	0x64
 5052 0c81 10       		.byte	0x10
 5053 0c82 BB0C0000 		.4byte	0xcbb
 5054 0c86 03       		.uleb128 0x3
 5055 0c87 DE0A0000 		.4byte	.LASF180
 5056 0c8b 0C       		.byte	0xc
 5057 0c8c 68       		.byte	0x68
 5058 0c8d 21       		.byte	0x21
 5059 0c8e 330C0000 		.4byte	0xc33
 5060 0c92 00       		.byte	0
 5061 0c93 03       		.uleb128 0x3
 5062 0c94 E40A0000 		.4byte	.LASF181
 5063 0c98 0C       		.byte	0xc
 5064 0c99 73       		.byte	0x73
 5065 0c9a 21       		.byte	0x21
ARM GAS  C:\Users\DEVELO~1\AppData\Local\Temp\ccuGzkMt.s 			page 90


 5066 0c9b A5030000 		.4byte	0x3a5
 5067 0c9f 0C       		.byte	0xc
 5068 0ca0 03       		.uleb128 0x3
 5069 0ca1 5D070000 		.4byte	.LASF182
 5070 0ca5 0C       		.byte	0xc
 5071 0ca6 7B       		.byte	0x7b
 5072 0ca7 21       		.byte	0x21
 5073 0ca8 B1030000 		.4byte	0x3b1
 5074 0cac 10       		.byte	0x10
 5075 0cad 03       		.uleb128 0x3
 5076 0cae 92020000 		.4byte	.LASF183
 5077 0cb2 0C       		.byte	0xc
 5078 0cb3 81       		.byte	0x81
 5079 0cb4 21       		.byte	0x21
 5080 0cb5 1E010000 		.4byte	0x11e
 5081 0cb9 18       		.byte	0x18
 5082 0cba 00       		.byte	0
 5083 0cbb 05       		.uleb128 0x5
 5084 0cbc A70C0000 		.4byte	.LASF184
 5085 0cc0 0C       		.byte	0xc
 5086 0cc1 83       		.byte	0x83
 5087 0cc2 03       		.byte	0x3
 5088 0cc3 790C0000 		.4byte	0xc79
 5089 0cc7 13       		.uleb128 0x13
 5090 0cc8 80000000 		.4byte	.LASF185
 5091 0ccc 08       		.byte	0x8
 5092 0ccd 0C       		.byte	0xc
 5093 0cce 88       		.byte	0x88
 5094 0ccf 10       		.byte	0x10
 5095 0cd0 E20C0000 		.4byte	0xce2
 5096 0cd4 03       		.uleb128 0x3
 5097 0cd5 040C0000 		.4byte	.LASF186
 5098 0cd9 0C       		.byte	0xc
 5099 0cda 8C       		.byte	0x8c
 5100 0cdb 21       		.byte	0x21
 5101 0cdc B40B0000 		.4byte	0xbb4
 5102 0ce0 00       		.byte	0
 5103 0ce1 00       		.byte	0
 5104 0ce2 05       		.uleb128 0x5
 5105 0ce3 67070000 		.4byte	.LASF187
 5106 0ce7 0C       		.byte	0xc
 5107 0ce8 8D       		.byte	0x8d
 5108 0ce9 03       		.byte	0x3
 5109 0cea C70C0000 		.4byte	0xcc7
 5110 0cee 05       		.uleb128 0x5
 5111 0cef 42000000 		.4byte	.LASF188
 5112 0cf3 0C       		.byte	0xc
 5113 0cf4 92       		.byte	0x92
 5114 0cf5 14       		.byte	0x14
 5115 0cf6 F2030000 		.4byte	0x3f2
 5116 0cfa 05       		.uleb128 0x5
 5117 0cfb DF070000 		.4byte	.LASF189
 5118 0cff 0C       		.byte	0xc
 5119 0d00 A1       		.byte	0xa1
 5120 0d01 10       		.byte	0x10
 5121 0d02 060D0000 		.4byte	0xd06
 5122 0d06 06       		.uleb128 0x6
ARM GAS  C:\Users\DEVELO~1\AppData\Local\Temp\ccuGzkMt.s 			page 91


 5123 0d07 0B0D0000 		.4byte	0xd0b
 5124 0d0b 4A       		.uleb128 0x4a
 5125 0d0c 160D0000 		.4byte	0xd16
 5126 0d10 07       		.uleb128 0x7
 5127 0d11 F2030000 		.4byte	0x3f2
 5128 0d15 00       		.byte	0
 5129 0d16 36       		.uleb128 0x36
 5130 0d17 0C       		.byte	0xc
 5131 0d18 0C       		.byte	0xc
 5132 0d19 AD       		.byte	0xad
 5133 0d1a 430D0000 		.4byte	0xd43
 5134 0d1e 25       		.uleb128 0x25
 5135 0d1f 19030000 		.4byte	.LASF190
 5136 0d23 0C       		.byte	0xc
 5137 0d24 B1       		.byte	0xb1
 5138 0d25 21       		.byte	0x21
 5139 0d26 880B0000 		.4byte	0xb88
 5140 0d2a 25       		.uleb128 0x25
 5141 0d2b 040C0000 		.4byte	.LASF186
 5142 0d2f 0C       		.byte	0xc
 5143 0d30 B5       		.byte	0xb5
 5144 0d31 21       		.byte	0x21
 5145 0d32 B40B0000 		.4byte	0xbb4
 5146 0d36 25       		.uleb128 0x25
 5147 0d37 5C040000 		.4byte	.LASF191
 5148 0d3b 0C       		.byte	0xc
 5149 0d3c B9       		.byte	0xb9
 5150 0d3d 21       		.byte	0x21
 5151 0d3e ED0B0000 		.4byte	0xbed
 5152 0d42 00       		.byte	0
 5153 0d43 4B       		.uleb128 0x4b
 5154 0d44 04       		.byte	0x4
 5155 0d45 0C       		.byte	0xc
 5156 0d46 0201     		.2byte	0x102
 5157 0d48 03       		.byte	0x3
 5158 0d49 AE0D0000 		.4byte	0xdae
 5159 0d4d 21       		.uleb128 0x21
 5160 0d4e 36050000 		.4byte	.LASF192
 5161 0d52 0901     		.2byte	0x109
 5162 0d54 21       		.byte	0x21
 5163 0d55 6B010000 		.4byte	0x16b
 5164 0d59 21       		.uleb128 0x21
 5165 0d5a 900E0000 		.4byte	.LASF193
 5166 0d5e 1001     		.2byte	0x110
 5167 0d60 21       		.byte	0x21
 5168 0d61 6B010000 		.4byte	0x16b
 5169 0d65 21       		.uleb128 0x21
 5170 0d66 2B020000 		.4byte	.LASF70
 5171 0d6a 1701     		.2byte	0x117
 5172 0d6c 22       		.byte	0x22
 5173 0d6d BB000000 		.4byte	0xbb
 5174 0d71 21       		.uleb128 0x21
 5175 0d72 830E0000 		.4byte	.LASF194
 5176 0d76 1E01     		.2byte	0x11e
 5177 0d78 22       		.byte	0x22
 5178 0d79 AE0D0000 		.4byte	0xdae
 5179 0d7d 21       		.uleb128 0x21
ARM GAS  C:\Users\DEVELO~1\AppData\Local\Temp\ccuGzkMt.s 			page 92


 5180 0d7e 51030000 		.4byte	.LASF195
 5181 0d82 2301     		.2byte	0x123
 5182 0d84 21       		.byte	0x21
 5183 0d85 6B010000 		.4byte	0x16b
 5184 0d89 21       		.uleb128 0x21
 5185 0d8a 310C0000 		.4byte	.LASF196
 5186 0d8e 2C01     		.2byte	0x12c
 5187 0d90 22       		.byte	0x22
 5188 0d91 DB0D0000 		.4byte	0xddb
 5189 0d95 21       		.uleb128 0x21
 5190 0d96 890E0000 		.4byte	.LASF197
 5191 0d9a 3501     		.2byte	0x135
 5192 0d9c 22       		.byte	0x22
 5193 0d9d 150E0000 		.4byte	0xe15
 5194 0da1 21       		.uleb128 0x21
 5195 0da2 A1020000 		.4byte	.LASF198
 5196 0da6 3D01     		.2byte	0x13d
 5197 0da8 21       		.byte	0x21
 5198 0da9 77010000 		.4byte	0x177
 5199 0dad 00       		.byte	0
 5200 0dae 06       		.uleb128 0x6
 5201 0daf EE0C0000 		.4byte	0xcee
 5202 0db3 13       		.uleb128 0x13
 5203 0db4 9E030000 		.4byte	.LASF199
 5204 0db8 0C       		.byte	0xc
 5205 0db9 13       		.byte	0x13
 5206 0dba 34       		.byte	0x34
 5207 0dbb 10       		.byte	0x10
 5208 0dbc DB0D0000 		.4byte	0xddb
 5209 0dc0 03       		.uleb128 0x3
 5210 0dc1 040C0000 		.4byte	.LASF186
 5211 0dc5 13       		.byte	0x13
 5212 0dc6 35       		.byte	0x35
 5213 0dc7 19       		.byte	0x19
 5214 0dc8 B40B0000 		.4byte	0xbb4
 5215 0dcc 00       		.byte	0
 5216 0dcd 0F       		.uleb128 0xf
 5217 0dce 636E7400 		.ascii	"cnt\000"
 5218 0dd2 13       		.byte	0x13
 5219 0dd3 37       		.byte	0x37
 5220 0dd4 19       		.byte	0x19
 5221 0dd5 83010000 		.4byte	0x183
 5222 0dd9 08       		.byte	0x8
 5223 0dda 00       		.byte	0
 5224 0ddb 06       		.uleb128 0x6
 5225 0ddc B30D0000 		.4byte	0xdb3
 5226 0de0 13       		.uleb128 0x13
 5227 0de1 B5050000 		.4byte	.LASF200
 5228 0de5 10       		.byte	0x10
 5229 0de6 14       		.byte	0x14
 5230 0de7 39       		.byte	0x39
 5231 0de8 08       		.byte	0x8
 5232 0de9 150E0000 		.4byte	0xe15
 5233 0ded 03       		.uleb128 0x3
 5234 0dee 040C0000 		.4byte	.LASF186
 5235 0df2 14       		.byte	0x14
 5236 0df3 3A       		.byte	0x3a
ARM GAS  C:\Users\DEVELO~1\AppData\Local\Temp\ccuGzkMt.s 			page 93


 5237 0df4 19       		.byte	0x19
 5238 0df5 B40B0000 		.4byte	0xbb4
 5239 0df9 00       		.byte	0
 5240 0dfa 03       		.uleb128 0x3
 5241 0dfb A6040000 		.4byte	.LASF33
 5242 0dff 14       		.byte	0x14
 5243 0e00 3C       		.byte	0x3c
 5244 0e01 1A       		.byte	0x1a
 5245 0e02 F2030000 		.4byte	0x3f2
 5246 0e06 08       		.byte	0x8
 5247 0e07 03       		.uleb128 0x3
 5248 0e08 87010000 		.4byte	.LASF169
 5249 0e0c 14       		.byte	0x14
 5250 0e0d 3E       		.byte	0x3e
 5251 0e0e 1A       		.byte	0x1a
 5252 0e0f D20E0000 		.4byte	0xed2
 5253 0e13 0C       		.byte	0xc
 5254 0e14 00       		.byte	0
 5255 0e15 06       		.uleb128 0x6
 5256 0e16 E00D0000 		.4byte	0xde0
 5257 0e1a 06       		.uleb128 0x6
 5258 0e1b A3020000 		.4byte	0x2a3
 5259 0e1f 06       		.uleb128 0x6
 5260 0e20 2F010000 		.4byte	0x12f
 5261 0e24 2B       		.uleb128 0x2b
 5262 0e25 77020000 		.4byte	.LASF201
 5263 0e29 10       		.byte	0x10
 5264 0e2a 0C       		.byte	0xc
 5265 0e2b 6C01     		.2byte	0x16c
 5266 0e2d 10       		.byte	0x10
 5267 0e2e 4F0E0000 		.4byte	0xe4f
 5268 0e32 02       		.uleb128 0x2
 5269 0e33 5C040000 		.4byte	.LASF191
 5270 0e37 0C       		.byte	0xc
 5271 0e38 7101     		.2byte	0x171
 5272 0e3a 21       		.byte	0x21
 5273 0e3b ED0B0000 		.4byte	0xbed
 5274 0e3f 00       		.byte	0
 5275 0e40 02       		.uleb128 0x2
 5276 0e41 EE0D0000 		.4byte	.LASF202
 5277 0e45 0C       		.byte	0xc
 5278 0e46 7501     		.2byte	0x175
 5279 0e48 22       		.byte	0x22
 5280 0e49 F2030000 		.4byte	0x3f2
 5281 0e4d 0C       		.byte	0xc
 5282 0e4e 00       		.byte	0
 5283 0e4f 2A       		.uleb128 0x2a
 5284 0e50 EF0B0000 		.4byte	.LASF203
 5285 0e54 0C       		.byte	0xc
 5286 0e55 7601     		.2byte	0x176
 5287 0e57 240E0000 		.4byte	0xe24
 5288 0e5b 2B       		.uleb128 0x2b
 5289 0e5c C80A0000 		.4byte	.LASF204
 5290 0e60 14       		.byte	0x14
 5291 0e61 0C       		.byte	0xc
 5292 0e62 7B01     		.2byte	0x17b
 5293 0e64 10       		.byte	0x10
ARM GAS  C:\Users\DEVELO~1\AppData\Local\Temp\ccuGzkMt.s 			page 94


 5294 0e65 B00E0000 		.4byte	0xeb0
 5295 0e69 02       		.uleb128 0x2
 5296 0e6a 2F000000 		.4byte	.LASF39
 5297 0e6e 0C       		.byte	0xc
 5298 0e6f 7F01     		.2byte	0x17f
 5299 0e71 22       		.byte	0x22
 5300 0e72 C9000000 		.4byte	0xc9
 5301 0e76 00       		.byte	0
 5302 0e77 02       		.uleb128 0x2
 5303 0e78 23000000 		.4byte	.LASF205
 5304 0e7c 0C       		.byte	0xc
 5305 0e7d 8301     		.2byte	0x183
 5306 0e7f 22       		.byte	0x22
 5307 0e80 1F0E0000 		.4byte	0xe1f
 5308 0e84 04       		.byte	0x4
 5309 0e85 02       		.uleb128 0x2
 5310 0e86 BD0A0000 		.4byte	.LASF206
 5311 0e8a 0C       		.byte	0xc
 5312 0e8b 8701     		.2byte	0x187
 5313 0e8d 22       		.byte	0x22
 5314 0e8e 1F0E0000 		.4byte	0xe1f
 5315 0e92 08       		.byte	0x8
 5316 0e93 02       		.uleb128 0x2
 5317 0e94 1D080000 		.4byte	.LASF207
 5318 0e98 0C       		.byte	0xc
 5319 0e99 8C01     		.2byte	0x18c
 5320 0e9b 22       		.byte	0x22
 5321 0e9c 1F0E0000 		.4byte	0xe1f
 5322 0ea0 0C       		.byte	0xc
 5323 0ea1 02       		.uleb128 0x2
 5324 0ea2 90070000 		.4byte	.LASF208
 5325 0ea6 0C       		.byte	0xc
 5326 0ea7 9001     		.2byte	0x190
 5327 0ea9 22       		.byte	0x22
 5328 0eaa 1F0E0000 		.4byte	0xe1f
 5329 0eae 10       		.byte	0x10
 5330 0eaf 00       		.byte	0
 5331 0eb0 2A       		.uleb128 0x2a
 5332 0eb1 C5030000 		.4byte	.LASF209
 5333 0eb5 0C       		.byte	0xc
 5334 0eb6 9201     		.2byte	0x192
 5335 0eb8 5B0E0000 		.4byte	0xe5b
 5336 0ebc 19       		.uleb128 0x19
 5337 0ebd B00E0000 		.4byte	0xeb0
 5338 0ec1 06       		.uleb128 0x6
 5339 0ec2 BC0E0000 		.4byte	0xebc
 5340 0ec6 05       		.uleb128 0x5
 5341 0ec7 5C0C0000 		.4byte	.LASF210
 5342 0ecb 14       		.byte	0x14
 5343 0ecc 34       		.byte	0x34
 5344 0ecd 19       		.byte	0x19
 5345 0ece E00D0000 		.4byte	0xde0
 5346 0ed2 06       		.uleb128 0x6
 5347 0ed3 C60E0000 		.4byte	0xec6
 5348 0ed7 14       		.uleb128 0x14
 5349 0ed8 01       		.byte	0x1
 5350 0ed9 02       		.byte	0x2
ARM GAS  C:\Users\DEVELO~1\AppData\Local\Temp\ccuGzkMt.s 			page 95


 5351 0eda 64050000 		.4byte	.LASF211
 5352 0ede 06       		.uleb128 0x6
 5353 0edf DF000000 		.4byte	0xdf
 5354 0ee3 33       		.uleb128 0x33
 5355 0ee4 61000000 		.4byte	0x61
 5356 0ee8 15       		.byte	0x15
 5357 0ee9 28       		.byte	0x28
 5358 0eea 250F0000 		.4byte	0xf25
 5359 0eee 12       		.uleb128 0x12
 5360 0eef F6020000 		.4byte	.LASF212
 5361 0ef3 00       		.byte	0
 5362 0ef4 12       		.uleb128 0x12
 5363 0ef5 82070000 		.4byte	.LASF213
 5364 0ef9 01       		.byte	0x1
 5365 0efa 12       		.uleb128 0x12
 5366 0efb 04010000 		.4byte	.LASF214
 5367 0eff 02       		.byte	0x2
 5368 0f00 12       		.uleb128 0x12
 5369 0f01 1C020000 		.4byte	.LASF215
 5370 0f05 03       		.byte	0x3
 5371 0f06 12       		.uleb128 0x12
 5372 0f07 04060000 		.4byte	.LASF216
 5373 0f0b 04       		.byte	0x4
 5374 0f0c 12       		.uleb128 0x12
 5375 0f0d E4060000 		.4byte	.LASF217
 5376 0f11 05       		.byte	0x5
 5377 0f12 12       		.uleb128 0x12
 5378 0f13 FE0A0000 		.4byte	.LASF218
 5379 0f17 06       		.byte	0x6
 5380 0f18 12       		.uleb128 0x12
 5381 0f19 16060000 		.4byte	.LASF219
 5382 0f1d 07       		.byte	0x7
 5383 0f1e 12       		.uleb128 0x12
 5384 0f1f B0090000 		.4byte	.LASF220
 5385 0f23 08       		.byte	0x8
 5386 0f24 00       		.byte	0
 5387 0f25 05       		.uleb128 0x5
 5388 0f26 3C070000 		.4byte	.LASF221
 5389 0f2a 15       		.byte	0x15
 5390 0f2b 32       		.byte	0x32
 5391 0f2c 03       		.byte	0x3
 5392 0f2d E30E0000 		.4byte	0xee3
 5393 0f31 20       		.uleb128 0x20
 5394 0f32 08       		.byte	0x8
 5395 0f33 15       		.byte	0x15
 5396 0f34 37       		.byte	0x37
 5397 0f35 09       		.byte	0x9
 5398 0f36 550F0000 		.4byte	0xf55
 5399 0f3a 03       		.uleb128 0x3
 5400 0f3b 9F010000 		.4byte	.LASF222
 5401 0f3f 15       		.byte	0x15
 5402 0f40 38       		.byte	0x38
 5403 0f41 11       		.byte	0x11
 5404 0f42 FC000000 		.4byte	0xfc
 5405 0f46 00       		.byte	0
 5406 0f47 03       		.uleb128 0x3
 5407 0f48 90060000 		.4byte	.LASF223
ARM GAS  C:\Users\DEVELO~1\AppData\Local\Temp\ccuGzkMt.s 			page 96


 5408 0f4c 15       		.byte	0x15
 5409 0f4d 39       		.byte	0x39
 5410 0f4e 11       		.byte	0x11
 5411 0f4f FC000000 		.4byte	0xfc
 5412 0f53 04       		.byte	0x4
 5413 0f54 00       		.byte	0
 5414 0f55 05       		.uleb128 0x5
 5415 0f56 96050000 		.4byte	.LASF224
 5416 0f5a 15       		.byte	0x15
 5417 0f5b 3A       		.byte	0x3a
 5418 0f5c 03       		.byte	0x3
 5419 0f5d 310F0000 		.4byte	0xf31
 5420 0f61 2C       		.uleb128 0x2c
 5421 0f62 D70E0000 		.4byte	0xed7
 5422 0f66 700F0000 		.4byte	0xf70
 5423 0f6a 07       		.uleb128 0x7
 5424 0f6b BB000000 		.4byte	0xbb
 5425 0f6f 00       		.byte	0
 5426 0f70 06       		.uleb128 0x6
 5427 0f71 610F0000 		.4byte	0xf61
 5428 0f75 2C       		.uleb128 0x2c
 5429 0f76 D70E0000 		.4byte	0xed7
 5430 0f7a 930F0000 		.4byte	0xf93
 5431 0f7e 07       		.uleb128 0x7
 5432 0f7f BB000000 		.4byte	0xbb
 5433 0f83 07       		.uleb128 0x7
 5434 0f84 FC000000 		.4byte	0xfc
 5435 0f88 07       		.uleb128 0x7
 5436 0f89 C9030000 		.4byte	0x3c9
 5437 0f8d 07       		.uleb128 0x7
 5438 0f8e FC000000 		.4byte	0xfc
 5439 0f92 00       		.byte	0
 5440 0f93 06       		.uleb128 0x6
 5441 0f94 750F0000 		.4byte	0xf75
 5442 0f98 2C       		.uleb128 0x2c
 5443 0f99 D70E0000 		.4byte	0xed7
 5444 0f9d B60F0000 		.4byte	0xfb6
 5445 0fa1 07       		.uleb128 0x7
 5446 0fa2 BB000000 		.4byte	0xbb
 5447 0fa6 07       		.uleb128 0x7
 5448 0fa7 FC000000 		.4byte	0xfc
 5449 0fab 07       		.uleb128 0x7
 5450 0fac DE0E0000 		.4byte	0xede
 5451 0fb0 07       		.uleb128 0x7
 5452 0fb1 FC000000 		.4byte	0xfc
 5453 0fb5 00       		.byte	0
 5454 0fb6 06       		.uleb128 0x6
 5455 0fb7 980F0000 		.4byte	0xf98
 5456 0fbb 2C       		.uleb128 0x2c
 5457 0fbc D70E0000 		.4byte	0xed7
 5458 0fc0 CF0F0000 		.4byte	0xfcf
 5459 0fc4 07       		.uleb128 0x7
 5460 0fc5 BB000000 		.4byte	0xbb
 5461 0fc9 07       		.uleb128 0x7
 5462 0fca CF0F0000 		.4byte	0xfcf
 5463 0fce 00       		.byte	0
 5464 0fcf 06       		.uleb128 0x6
ARM GAS  C:\Users\DEVELO~1\AppData\Local\Temp\ccuGzkMt.s 			page 97


 5465 0fd0 550F0000 		.4byte	0xf55
 5466 0fd4 06       		.uleb128 0x6
 5467 0fd5 BB0F0000 		.4byte	0xfbb
 5468 0fd9 06       		.uleb128 0x6
 5469 0fda FC000000 		.4byte	0xfc
 5470 0fde 33       		.uleb128 0x33
 5471 0fdf 61000000 		.4byte	0x61
 5472 0fe3 16       		.byte	0x16
 5473 0fe4 7A       		.byte	0x7a
 5474 0fe5 FC0F0000 		.4byte	0xffc
 5475 0fe9 12       		.uleb128 0x12
 5476 0fea 3C0D0000 		.4byte	.LASF225
 5477 0fee 00       		.byte	0
 5478 0fef 12       		.uleb128 0x12
 5479 0ff0 7E040000 		.4byte	.LASF226
 5480 0ff4 01       		.byte	0x1
 5481 0ff5 12       		.uleb128 0x12
 5482 0ff6 BD0D0000 		.4byte	.LASF227
 5483 0ffa 02       		.byte	0x2
 5484 0ffb 00       		.byte	0
 5485 0ffc 05       		.uleb128 0x5
 5486 0ffd 6D0B0000 		.4byte	.LASF228
 5487 1001 16       		.byte	0x16
 5488 1002 7E       		.byte	0x7e
 5489 1003 03       		.byte	0x3
 5490 1004 DE0F0000 		.4byte	0xfde
 5491 1008 33       		.uleb128 0x33
 5492 1009 61000000 		.4byte	0x61
 5493 100d 16       		.byte	0x16
 5494 100e 83       		.byte	0x83
 5495 100f 20100000 		.4byte	0x1020
 5496 1013 12       		.uleb128 0x12
 5497 1014 D20D0000 		.4byte	.LASF229
 5498 1018 00       		.byte	0
 5499 1019 12       		.uleb128 0x12
 5500 101a CA0E0000 		.4byte	.LASF230
 5501 101e 01       		.byte	0x1
 5502 101f 00       		.byte	0
 5503 1020 05       		.uleb128 0x5
 5504 1021 B7010000 		.4byte	.LASF231
 5505 1025 16       		.byte	0x16
 5506 1026 86       		.byte	0x86
 5507 1027 03       		.byte	0x3
 5508 1028 08100000 		.4byte	0x1008
 5509 102c 05       		.uleb128 0x5
 5510 102d F2010000 		.4byte	.LASF232
 5511 1031 17       		.byte	0x17
 5512 1032 A8       		.byte	0xa8
 5513 1033 12       		.byte	0x12
 5514 1034 FC000000 		.4byte	0xfc
 5515 1038 05       		.uleb128 0x5
 5516 1039 55000000 		.4byte	.LASF233
 5517 103d 17       		.byte	0x17
 5518 103e AD       		.byte	0xad
 5519 103f 12       		.byte	0x12
 5520 1040 FC000000 		.4byte	0xfc
 5521 1044 05       		.uleb128 0x5
ARM GAS  C:\Users\DEVELO~1\AppData\Local\Temp\ccuGzkMt.s 			page 98


 5522 1045 FD060000 		.4byte	.LASF234
 5523 1049 17       		.byte	0x17
 5524 104a B2       		.byte	0xb2
 5525 104b 1A       		.byte	0x1a
 5526 104c 50100000 		.4byte	0x1050
 5527 1050 13       		.uleb128 0x13
 5528 1051 FD060000 		.4byte	.LASF234
 5529 1055 50       		.byte	0x50
 5530 1056 17       		.byte	0x17
 5531 1057 D8       		.byte	0xd8
 5532 1058 08       		.byte	0x8
 5533 1059 15110000 		.4byte	0x1115
 5534 105d 0F       		.uleb128 0xf
 5535 105e 766D7400 		.ascii	"vmt\000"
 5536 1062 17       		.byte	0x17
 5537 1063 DC       		.byte	0xdc
 5538 1064 1E       		.byte	0x1e
 5539 1065 D2110000 		.4byte	0x11d2
 5540 1069 00       		.byte	0
 5541 106a 03       		.uleb128 0x3
 5542 106b 200D0000 		.4byte	.LASF36
 5543 106f 17       		.byte	0x17
 5544 1070 DD       		.byte	0xdd
 5545 1071 03       		.byte	0x3
 5546 1072 250F0000 		.4byte	0xf25
 5547 1076 04       		.byte	0x4
 5548 1077 0F       		.uleb128 0xf
 5549 1078 63696400 		.ascii	"cid\000"
 5550 107c 17       		.byte	0x17
 5551 107d DD       		.byte	0xdd
 5552 107e 03       		.byte	0x3
 5553 107f 7C050000 		.4byte	0x57c
 5554 1083 08       		.byte	0x8
 5555 1084 0F       		.uleb128 0xf
 5556 1085 63736400 		.ascii	"csd\000"
 5557 1089 17       		.byte	0x17
 5558 108a DD       		.byte	0xdd
 5559 108b 03       		.byte	0x3
 5560 108c 7C050000 		.4byte	0x57c
 5561 1090 18       		.byte	0x18
 5562 1091 03       		.uleb128 0x3
 5563 1092 96000000 		.4byte	.LASF235
 5564 1096 17       		.byte	0x17
 5565 1097 DD       		.byte	0xdd
 5566 1098 03       		.byte	0x3
 5567 1099 FC000000 		.4byte	0xfc
 5568 109d 28       		.byte	0x28
 5569 109e 03       		.uleb128 0x3
 5570 109f F4080000 		.4byte	.LASF56
 5571 10a3 17       		.byte	0x17
 5572 10a4 E1       		.byte	0xe1
 5573 10a5 1E       		.byte	0x1e
 5574 10a6 D7110000 		.4byte	0x11d7
 5575 10aa 2C       		.byte	0x2c
 5576 10ab 03       		.uleb128 0x3
 5577 10ac 1A040000 		.4byte	.LASF236
 5578 10b0 17       		.byte	0x17
ARM GAS  C:\Users\DEVELO~1\AppData\Local\Temp\ccuGzkMt.s 			page 99


 5579 10b1 E5       		.byte	0xe5
 5580 10b2 1D       		.byte	0x1d
 5581 10b3 2C100000 		.4byte	0x102c
 5582 10b7 30       		.byte	0x30
 5583 10b8 03       		.uleb128 0x3
 5584 10b9 55040000 		.4byte	.LASF237
 5585 10bd 17       		.byte	0x17
 5586 10be E9       		.byte	0xe9
 5587 10bf 1D       		.byte	0x1d
 5588 10c0 38100000 		.4byte	0x1038
 5589 10c4 34       		.byte	0x34
 5590 10c5 0F       		.uleb128 0xf
 5591 10c6 72636100 		.ascii	"rca\000"
 5592 10ca 17       		.byte	0x17
 5593 10cb ED       		.byte	0xed
 5594 10cc 1D       		.byte	0x1d
 5595 10cd FC000000 		.4byte	0xfc
 5596 10d1 38       		.byte	0x38
 5597 10d2 0F       		.uleb128 0xf
 5598 10d3 62756600 		.ascii	"buf\000"
 5599 10d7 17       		.byte	0x17
 5600 10d8 F1       		.byte	0xf1
 5601 10d9 1E       		.byte	0x1e
 5602 10da C9030000 		.4byte	0x3c9
 5603 10de 3C       		.byte	0x3c
 5604 10df 03       		.uleb128 0x3
 5605 10e0 2A0C0000 		.4byte	.LASF238
 5606 10e4 17       		.byte	0x17
 5607 10e5 F6       		.byte	0xf6
 5608 10e6 1D       		.byte	0x1d
 5609 10e7 EE0C0000 		.4byte	0xcee
 5610 10eb 40       		.byte	0x40
 5611 10ec 03       		.uleb128 0x3
 5612 10ed 100E0000 		.4byte	.LASF239
 5613 10f1 17       		.byte	0x17
 5614 10f2 FB       		.byte	0xfb
 5615 10f3 1E       		.byte	0x1e
 5616 10f4 DC110000 		.4byte	0x11dc
 5617 10f8 44       		.byte	0x44
 5618 10f9 03       		.uleb128 0x3
 5619 10fa D7070000 		.4byte	.LASF240
 5620 10fe 17       		.byte	0x17
 5621 10ff FF       		.byte	0xff
 5622 1100 1D       		.byte	0x1d
 5623 1101 FC000000 		.4byte	0xfc
 5624 1105 48       		.byte	0x48
 5625 1106 02       		.uleb128 0x2
 5626 1107 410E0000 		.4byte	.LASF241
 5627 110b 17       		.byte	0x17
 5628 110c 0301     		.2byte	0x103
 5629 110e 1E       		.byte	0x1e
 5630 110f D90F0000 		.4byte	0xfd9
 5631 1113 4C       		.byte	0x4c
 5632 1114 00       		.byte	0
 5633 1115 20       		.uleb128 0x20
 5634 1116 08       		.byte	0x8
 5635 1117 17       		.byte	0x17
ARM GAS  C:\Users\DEVELO~1\AppData\Local\Temp\ccuGzkMt.s 			page 100


 5636 1118 B8       		.byte	0xb8
 5637 1119 09       		.byte	0x9
 5638 111a 39110000 		.4byte	0x1139
 5639 111e 03       		.uleb128 0x3
 5640 111f E50B0000 		.4byte	.LASF242
 5641 1123 17       		.byte	0x17
 5642 1124 BC       		.byte	0xbc
 5643 1125 11       		.byte	0x11
 5644 1126 FC0F0000 		.4byte	0xffc
 5645 112a 00       		.byte	0
 5646 112b 03       		.uleb128 0x3
 5647 112c 7F030000 		.4byte	.LASF243
 5648 1130 17       		.byte	0x17
 5649 1131 C3       		.byte	0xc3
 5650 1132 11       		.byte	0x11
 5651 1133 FC000000 		.4byte	0xfc
 5652 1137 04       		.byte	0x4
 5653 1138 00       		.byte	0
 5654 1139 05       		.uleb128 0x5
 5655 113a E8010000 		.4byte	.LASF244
 5656 113e 17       		.byte	0x17
 5657 113f C4       		.byte	0xc4
 5658 1140 03       		.byte	0x3
 5659 1141 15110000 		.4byte	0x1115
 5660 1145 19       		.uleb128 0x19
 5661 1146 39110000 		.4byte	0x1139
 5662 114a 13       		.uleb128 0x13
 5663 114b D80E0000 		.4byte	.LASF245
 5664 114f 24       		.byte	0x24
 5665 1150 17       		.byte	0x17
 5666 1151 D1       		.byte	0xd1
 5667 1152 08       		.byte	0x8
 5668 1153 CD110000 		.4byte	0x11cd
 5669 1157 03       		.uleb128 0x3
 5670 1158 72070000 		.4byte	.LASF246
 5671 115c 17       		.byte	0x17
 5672 115d D2       		.byte	0xd2
 5673 115e 03       		.byte	0x3
 5674 115f 2D000000 		.4byte	0x2d
 5675 1163 00       		.byte	0
 5676 1164 03       		.uleb128 0x3
 5677 1165 59030000 		.4byte	.LASF247
 5678 1169 17       		.byte	0x17
 5679 116a D2       		.byte	0xd2
 5680 116b 03       		.byte	0x3
 5681 116c 700F0000 		.4byte	0xf70
 5682 1170 04       		.byte	0x4
 5683 1171 03       		.uleb128 0x3
 5684 1172 340E0000 		.4byte	.LASF248
 5685 1176 17       		.byte	0x17
 5686 1177 D2       		.byte	0xd2
 5687 1178 03       		.byte	0x3
 5688 1179 700F0000 		.4byte	0xf70
 5689 117d 08       		.byte	0x8
 5690 117e 03       		.uleb128 0x3
 5691 117f 0C0A0000 		.4byte	.LASF249
 5692 1183 17       		.byte	0x17
ARM GAS  C:\Users\DEVELO~1\AppData\Local\Temp\ccuGzkMt.s 			page 101


 5693 1184 D2       		.byte	0xd2
 5694 1185 03       		.byte	0x3
 5695 1186 700F0000 		.4byte	0xf70
 5696 118a 0C       		.byte	0xc
 5697 118b 03       		.uleb128 0x3
 5698 118c 5E010000 		.4byte	.LASF250
 5699 1190 17       		.byte	0x17
 5700 1191 D2       		.byte	0xd2
 5701 1192 03       		.byte	0x3
 5702 1193 700F0000 		.4byte	0xf70
 5703 1197 10       		.byte	0x10
 5704 1198 03       		.uleb128 0x3
 5705 1199 560B0000 		.4byte	.LASF251
 5706 119d 17       		.byte	0x17
 5707 119e D2       		.byte	0xd2
 5708 119f 03       		.byte	0x3
 5709 11a0 930F0000 		.4byte	0xf93
 5710 11a4 14       		.byte	0x14
 5711 11a5 03       		.uleb128 0x3
 5712 11a6 47070000 		.4byte	.LASF252
 5713 11aa 17       		.byte	0x17
 5714 11ab D2       		.byte	0xd2
 5715 11ac 03       		.byte	0x3
 5716 11ad B60F0000 		.4byte	0xfb6
 5717 11b1 18       		.byte	0x18
 5718 11b2 03       		.uleb128 0x3
 5719 11b3 160C0000 		.4byte	.LASF253
 5720 11b7 17       		.byte	0x17
 5721 11b8 D2       		.byte	0xd2
 5722 11b9 03       		.byte	0x3
 5723 11ba 700F0000 		.4byte	0xf70
 5724 11be 1C       		.byte	0x1c
 5725 11bf 03       		.uleb128 0x3
 5726 11c0 A6050000 		.4byte	.LASF254
 5727 11c4 17       		.byte	0x17
 5728 11c5 D2       		.byte	0xd2
 5729 11c6 03       		.byte	0x3
 5730 11c7 D40F0000 		.4byte	0xfd4
 5731 11cb 20       		.byte	0x20
 5732 11cc 00       		.byte	0
 5733 11cd 19       		.uleb128 0x19
 5734 11ce 4A110000 		.4byte	0x114a
 5735 11d2 06       		.uleb128 0x6
 5736 11d3 CD110000 		.4byte	0x11cd
 5737 11d7 06       		.uleb128 0x6
 5738 11d8 45110000 		.4byte	0x1145
 5739 11dc 06       		.uleb128 0x6
 5740 11dd D50A0000 		.4byte	0xad5
 5741 11e1 4C       		.uleb128 0x4c
 5742 11e2 6A050000 		.4byte	.LASF269
 5743 11e6 17       		.byte	0x17
 5744 11e7 0F01     		.2byte	0x10f
 5745 11e9 12       		.byte	0x12
 5746 11ea 44100000 		.4byte	0x1044
 5747 11ee 4D       		.uleb128 0x4d
 5748 11ef E1110000 		.4byte	0x11e1
 5749 11f3 01       		.byte	0x1
ARM GAS  C:\Users\DEVELO~1\AppData\Local\Temp\ccuGzkMt.s 			page 102


 5750 11f4 35       		.byte	0x35
 5751 11f5 0B       		.byte	0xb
 5752 11f6 05       		.uleb128 0x5
 5753 11f7 03       		.byte	0x3
 5754 11f8 00000000 		.4byte	SDCD1
 5755 11fc 34       		.uleb128 0x34
 5756 11fd 00000000 		.4byte	.LASF255
 5757 1201 44       		.byte	0x44
 5758 1202 18       		.byte	0x18
 5759 1203 45110000 		.4byte	0x1145
 5760 1207 05       		.uleb128 0x5
 5761 1208 03       		.byte	0x3
 5762 1209 00000000 		.4byte	sdc_default_cfg
 5763 120d 15       		.uleb128 0x15
 5764 120e D3000000 		.4byte	0xd3
 5765 1212 1E120000 		.4byte	0x121e
 5766 1216 4E       		.uleb128 0x4e
 5767 1217 39000000 		.4byte	0x39
 5768 121b FF01     		.2byte	0x1ff
 5769 121d 00       		.byte	0
 5770 121e 34       		.uleb128 0x34
 5771 121f 940B0000 		.4byte	.LASF256
 5772 1223 4A       		.byte	0x4a
 5773 1224 10       		.byte	0x10
 5774 1225 0D120000 		.4byte	0x120d
 5775 1229 05       		.uleb128 0x5
 5776 122a 03       		.byte	0x3
 5777 122b 00000000 		.4byte	__nocache_sd1_buf
 5778 122f 34       		.uleb128 0x34
 5779 1230 42040000 		.4byte	.LASF257
 5780 1234 4B       		.byte	0x4b
 5781 1235 11       		.byte	0x11
 5782 1236 5C050000 		.4byte	0x55c
 5783 123a 05       		.uleb128 0x5
 5784 123b 03       		.byte	0x3
 5785 123c 00000000 		.4byte	__nocache_sd1_wbuf
 5786 1240 38       		.uleb128 0x38
 5787 1241 1E030000 		.4byte	.LASF261
 5788 1245 D401     		.2byte	0x1d4
 5789 1247 56120000 		.4byte	0x1256
 5790 124b 07       		.uleb128 0x7
 5791 124c AE0D0000 		.4byte	0xdae
 5792 1250 07       		.uleb128 0x7
 5793 1251 6B010000 		.4byte	0x16b
 5794 1255 00       		.byte	0
 5795 1256 39       		.uleb128 0x39
 5796 1257 CB0D0000 		.4byte	.LASF258
 5797 125b 18       		.byte	0x18
 5798 125c 1F       		.byte	0x1f
 5799 125d 09       		.byte	0x9
 5800 125e BB000000 		.4byte	0xbb
 5801 1262 76120000 		.4byte	0x1276
 5802 1266 07       		.uleb128 0x7
 5803 1267 BB000000 		.4byte	0xbb
 5804 126b 07       		.uleb128 0x7
 5805 126c 76120000 		.4byte	0x1276
 5806 1270 07       		.uleb128 0x7
ARM GAS  C:\Users\DEVELO~1\AppData\Local\Temp\ccuGzkMt.s 			page 103


 5807 1271 2D000000 		.4byte	0x2d
 5808 1275 00       		.byte	0
 5809 1276 06       		.uleb128 0x6
 5810 1277 7B120000 		.4byte	0x127b
 5811 127b 4F       		.uleb128 0x4f
 5812 127c 50       		.uleb128 0x50
 5813 127d 990E0000 		.4byte	.LASF259
 5814 1281 19       		.byte	0x19
 5815 1282 D301     		.2byte	0x1d3
 5816 1284 09       		.byte	0x9
 5817 1285 6B010000 		.4byte	0x16b
 5818 1289 98120000 		.4byte	0x1298
 5819 128d 07       		.uleb128 0x7
 5820 128e AE0D0000 		.4byte	0xdae
 5821 1292 07       		.uleb128 0x7
 5822 1293 B1030000 		.4byte	0x3b1
 5823 1297 00       		.byte	0
 5824 1298 39       		.uleb128 0x39
 5825 1299 140A0000 		.4byte	.LASF260
 5826 129d 16       		.byte	0x16
 5827 129e C8       		.byte	0xc8
 5828 129f 08       		.byte	0x8
 5829 12a0 D70E0000 		.4byte	0xed7
 5830 12a4 AE120000 		.4byte	0x12ae
 5831 12a8 07       		.uleb128 0x7
 5832 12a9 AE120000 		.4byte	0x12ae
 5833 12ad 00       		.byte	0
 5834 12ae 06       		.uleb128 0x6
 5835 12af 44100000 		.4byte	0x1044
 5836 12b3 38       		.uleb128 0x38
 5837 12b4 D20C0000 		.4byte	.LASF262
 5838 12b8 DC01     		.2byte	0x1dc
 5839 12ba C4120000 		.4byte	0x12c4
 5840 12be 07       		.uleb128 0x7
 5841 12bf B1030000 		.4byte	0x3b1
 5842 12c3 00       		.byte	0
 5843 12c4 51       		.uleb128 0x51
 5844 12c5 DA030000 		.4byte	.LASF263
 5845 12c9 16       		.byte	0x16
 5846 12ca BB       		.byte	0xbb
 5847 12cb 08       		.byte	0x8
 5848 12cc D6120000 		.4byte	0x12d6
 5849 12d0 07       		.uleb128 0x7
 5850 12d1 AE120000 		.4byte	0x12ae
 5851 12d5 00       		.byte	0
 5852 12d6 1E       		.uleb128 0x1e
 5853 12d7 EC000000 		.4byte	.LASF280
 5854 12db 8E03     		.2byte	0x38e
 5855 12dd 00000000 		.4byte	.LFB473
 5856 12e1 1C000000 		.4byte	.LFE473-.LFB473
 5857 12e5 01       		.uleb128 0x1
 5858 12e6 9C       		.byte	0x9c
 5859 12e7 38140000 		.4byte	0x1438
 5860 12eb 0C       		.uleb128 0xc
 5861 12ec 4C030000 		.4byte	.LASF264
 5862 12f0 8E03     		.2byte	0x38e
 5863 12f2 29       		.byte	0x29
ARM GAS  C:\Users\DEVELO~1\AppData\Local\Temp\ccuGzkMt.s 			page 104


 5864 12f3 AE120000 		.4byte	0x12ae
 5865 12f7 12000000 		.4byte	.LLST174
 5866 12fb 0C000000 		.4byte	.LVUS174
 5867 12ff 0D       		.uleb128 0xd
 5868 1300 C0200000 		.4byte	0x20c0
 5869 1304 00000000 		.4byte	.LBI491
 5870 1308 02       		.byte	.LVU1113
 5871 1309 3E020000 		.4byte	.LLRL175
 5872 130d 9003     		.2byte	0x390
 5873 130f 03       		.byte	0x3
 5874 1310 6E130000 		.4byte	0x136e
 5875 1314 10       		.uleb128 0x10
 5876 1315 E4200000 		.4byte	0x20e4
 5877 1319 00000000 		.4byte	.LBI492
 5878 131d 04       		.byte	.LVU1115
 5879 131e 3E020000 		.4byte	.LLRL175
 5880 1322 02       		.byte	0x2
 5881 1323 5502     		.2byte	0x255
 5882 1325 03       		.byte	0x3
 5883 1326 10       		.uleb128 0x10
 5884 1327 2C210000 		.4byte	0x212c
 5885 132b 00000000 		.4byte	.LBI493
 5886 132f 06       		.byte	.LVU1117
 5887 1330 3E020000 		.4byte	.LLRL175
 5888 1334 03       		.byte	0x3
 5889 1335 A201     		.2byte	0x1a2
 5890 1337 03       		.byte	0x3
 5891 1338 10       		.uleb128 0x10
 5892 1339 3E210000 		.4byte	0x213e
 5893 133d 00000000 		.4byte	.LBI494
 5894 1341 08       		.byte	.LVU1119
 5895 1342 3E020000 		.4byte	.LLRL175
 5896 1346 04       		.byte	0x4
 5897 1347 7103     		.2byte	0x371
 5898 1349 03       		.byte	0x3
 5899 134a 10       		.uleb128 0x10
 5900 134b 47210000 		.4byte	0x2147
 5901 134f 00000000 		.4byte	.LBI495
 5902 1353 0A       		.byte	.LVU1121
 5903 1354 3E020000 		.4byte	.LLRL175
 5904 1358 04       		.byte	0x4
 5905 1359 5003     		.2byte	0x350
 5906 135b 03       		.byte	0x3
 5907 135c 01       		.uleb128 0x1
 5908 135d 55210000 		.4byte	0x2155
 5909 1361 2E000000 		.4byte	.LLST176
 5910 1365 2C000000 		.4byte	.LVUS176
 5911 1369 00       		.byte	0
 5912 136a 00       		.byte	0
 5913 136b 00       		.byte	0
 5914 136c 00       		.byte	0
 5915 136d 00       		.byte	0
 5916 136e 0D       		.uleb128 0xd
 5917 136f 52200000 		.4byte	0x2052
 5918 1373 12000000 		.4byte	.LBI503
 5919 1377 01       		.byte	.LVU1135
 5920 1378 4A020000 		.4byte	.LLRL177
ARM GAS  C:\Users\DEVELO~1\AppData\Local\Temp\ccuGzkMt.s 			page 105


 5921 137c 9503     		.2byte	0x395
 5922 137e 03       		.byte	0x3
 5923 137f B7130000 		.4byte	0x13b7
 5924 1383 01       		.uleb128 0x1
 5925 1384 6D200000 		.4byte	0x206d
 5926 1388 3B000000 		.4byte	.LLST178
 5927 138c 39000000 		.4byte	.LVUS178
 5928 1390 01       		.uleb128 0x1
 5929 1391 60200000 		.4byte	0x2060
 5930 1395 49000000 		.4byte	.LLST179
 5931 1399 45000000 		.4byte	.LVUS179
 5932 139d 08       		.uleb128 0x8
 5933 139e 16000000 		.4byte	.LVL225
 5934 13a2 40120000 		.4byte	0x1240
 5935 13a6 04       		.uleb128 0x4
 5936 13a7 01       		.uleb128 0x1
 5937 13a8 50       		.byte	0x50
 5938 13a9 05       		.uleb128 0x5
 5939 13aa A3       		.byte	0xa3
 5940 13ab 01       		.uleb128 0x1
 5941 13ac 50       		.byte	0x50
 5942 13ad 23       		.byte	0x23
 5943 13ae 40       		.uleb128 0x40
 5944 13af 04       		.uleb128 0x4
 5945 13b0 01       		.uleb128 0x1
 5946 13b1 51       		.byte	0x51
 5947 13b2 02       		.uleb128 0x2
 5948 13b3 74       		.byte	0x74
 5949 13b4 00       		.sleb128 0
 5950 13b5 00       		.byte	0
 5951 13b6 00       		.byte	0
 5952 13b7 09       		.uleb128 0x9
 5953 13b8 B7200000 		.4byte	0x20b7
 5954 13bc 16000000 		.4byte	.LBI507
 5955 13c0 02       		.byte	.LVU1139
 5956 13c1 16000000 		.4byte	.LBB507
 5957 13c5 04000000 		.4byte	.LBE507-.LBB507
 5958 13c9 01       		.byte	0x1
 5959 13ca 9703     		.2byte	0x397
 5960 13cc 03       		.byte	0x3
 5961 13cd 09       		.uleb128 0x9
 5962 13ce DB200000 		.4byte	0x20db
 5963 13d2 16000000 		.4byte	.LBI508
 5964 13d6 04       		.byte	.LVU1141
 5965 13d7 16000000 		.4byte	.LBB508
 5966 13db 04000000 		.4byte	.LBE508-.LBB508
 5967 13df 02       		.byte	0x2
 5968 13e0 6002     		.2byte	0x260
 5969 13e2 03       		.byte	0x3
 5970 13e3 09       		.uleb128 0x9
 5971 13e4 23210000 		.4byte	0x2123
 5972 13e8 16000000 		.4byte	.LBI509
 5973 13ec 08       		.byte	.LVU1145
 5974 13ed 16000000 		.4byte	.LBB509
 5975 13f1 04000000 		.4byte	.LBE509-.LBB509
 5976 13f5 03       		.byte	0x3
 5977 13f6 BA01     		.2byte	0x1ba
ARM GAS  C:\Users\DEVELO~1\AppData\Local\Temp\ccuGzkMt.s 			page 106


 5978 13f8 03       		.byte	0x3
 5979 13f9 09       		.uleb128 0x9
 5980 13fa 35210000 		.4byte	0x2135
 5981 13fe 16000000 		.4byte	.LBI510
 5982 1402 0A       		.byte	.LVU1147
 5983 1403 16000000 		.4byte	.LBB510
 5984 1407 04000000 		.4byte	.LBE510-.LBB510
 5985 140b 04       		.byte	0x4
 5986 140c 7C03     		.2byte	0x37c
 5987 140e 03       		.byte	0x3
 5988 140f 09       		.uleb128 0x9
 5989 1410 47210000 		.4byte	0x2147
 5990 1414 16000000 		.4byte	.LBI511
 5991 1418 0C       		.byte	.LVU1149
 5992 1419 16000000 		.4byte	.LBB511
 5993 141d 04000000 		.4byte	.LBE511-.LBB511
 5994 1421 04       		.byte	0x4
 5995 1422 6303     		.2byte	0x363
 5996 1424 03       		.byte	0x3
 5997 1425 01       		.uleb128 0x1
 5998 1426 55210000 		.4byte	0x2155
 5999 142a 60000000 		.4byte	.LLST180
 6000 142e 5E000000 		.4byte	.LVUS180
 6001 1432 00       		.byte	0
 6002 1433 00       		.byte	0
 6003 1434 00       		.byte	0
 6004 1435 00       		.byte	0
 6005 1436 00       		.byte	0
 6006 1437 00       		.byte	0
 6007 1438 23       		.uleb128 0x23
 6008 1439 21070000 		.4byte	.LASF265
 6009 143d 8203     		.2byte	0x382
 6010 143f D70E0000 		.4byte	0xed7
 6011 1443 00000000 		.4byte	.LFB472
 6012 1447 04000000 		.4byte	.LFE472-.LFB472
 6013 144b 01       		.uleb128 0x1
 6014 144c 9C       		.byte	0x9c
 6015 144d 66140000 		.4byte	0x1466
 6016 1451 0C       		.uleb128 0xc
 6017 1452 4C030000 		.4byte	.LASF264
 6018 1456 8203     		.2byte	0x382
 6019 1458 1E       		.byte	0x1e
 6020 1459 AE120000 		.4byte	0x12ae
 6021 145d 6E000000 		.4byte	.LLST173
 6022 1461 6A000000 		.4byte	.LVUS173
 6023 1465 00       		.byte	0
 6024 1466 23       		.uleb128 0x23
 6025 1467 7A0B0000 		.4byte	.LASF266
 6026 146b 6203     		.2byte	0x362
 6027 146d D70E0000 		.4byte	0xed7
 6028 1471 00000000 		.4byte	.LFB471
 6029 1475 4A000000 		.4byte	.LFE471-.LFB471
 6030 1479 01       		.uleb128 0x1
 6031 147a 9C       		.byte	0x9c
 6032 147b 2C150000 		.4byte	0x152c
 6033 147f 0C       		.uleb128 0xc
 6034 1480 4C030000 		.4byte	.LASF264
ARM GAS  C:\Users\DEVELO~1\AppData\Local\Temp\ccuGzkMt.s 			page 107


 6035 1484 6203     		.2byte	0x362
 6036 1486 1F       		.byte	0x1f
 6037 1487 AE120000 		.4byte	0x12ae
 6038 148b 8B000000 		.4byte	.LLST167
 6039 148f 81000000 		.4byte	.LVUS167
 6040 1493 0C       		.uleb128 0xc
 6041 1494 BD0C0000 		.4byte	.LASF267
 6042 1498 6203     		.2byte	0x362
 6043 149a 2E       		.byte	0x2e
 6044 149b FC000000 		.4byte	0xfc
 6045 149f BE000000 		.4byte	.LLST168
 6046 14a3 B0000000 		.4byte	.LVUS168
 6047 14a7 17       		.uleb128 0x17
 6048 14a8 62756600 		.ascii	"buf\000"
 6049 14ac 6303     		.2byte	0x363
 6050 14ae 23       		.byte	0x23
 6051 14af DE0E0000 		.4byte	0xede
 6052 14b3 FA000000 		.4byte	.LLST169
 6053 14b7 EC000000 		.4byte	.LVUS169
 6054 14bb 0C       		.uleb128 0xc
 6055 14bc 06080000 		.4byte	.LASF268
 6056 14c0 6303     		.2byte	0x363
 6057 14c2 31       		.byte	0x31
 6058 14c3 FC000000 		.4byte	0xfc
 6059 14c7 31010000 		.4byte	.LLST170
 6060 14cb 29010000 		.4byte	.LVUS170
 6061 14cf 3A       		.uleb128 0x3a
 6062 14d0 2F020000 		.4byte	.LLRL171
 6063 14d4 22150000 		.4byte	0x1522
 6064 14d8 26       		.uleb128 0x26
 6065 14d9 6900     		.ascii	"i\000"
 6066 14db 6703     		.2byte	0x367
 6067 14dd 0E       		.byte	0xe
 6068 14de FC000000 		.4byte	0xfc
 6069 14e2 53010000 		.4byte	.LLST172
 6070 14e6 51010000 		.4byte	.LVUS172
 6071 14ea 1F       		.uleb128 0x1f
 6072 14eb 2A000000 		.4byte	.LVL213
 6073 14ef EC2A0000 		.4byte	0x2aec
 6074 14f3 06150000 		.4byte	0x1506
 6075 14f7 04       		.uleb128 0x4
 6076 14f8 01       		.uleb128 0x1
 6077 14f9 51       		.byte	0x51
 6078 14fa 03       		.uleb128 0x3
 6079 14fb 75       		.byte	0x75
 6080 14fc 807C     		.sleb128 -512
 6081 14fe 04       		.uleb128 0x4
 6082 14ff 01       		.uleb128 0x1
 6083 1500 52       		.byte	0x52
 6084 1501 03       		.uleb128 0x3
 6085 1502 0A       		.byte	0xa
 6086 1503 0002     		.2byte	0x200
 6087 1505 00       		.byte	0
 6088 1506 08       		.uleb128 0x8
 6089 1507 38000000 		.4byte	.LVL215
 6090 150b DF150000 		.4byte	0x15df
 6091 150f 04       		.uleb128 0x4
ARM GAS  C:\Users\DEVELO~1\AppData\Local\Temp\ccuGzkMt.s 			page 108


 6092 1510 01       		.uleb128 0x1
 6093 1511 50       		.byte	0x50
 6094 1512 02       		.uleb128 0x2
 6095 1513 76       		.byte	0x76
 6096 1514 00       		.sleb128 0
 6097 1515 04       		.uleb128 0x4
 6098 1516 01       		.uleb128 0x1
 6099 1517 51       		.byte	0x51
 6100 1518 02       		.uleb128 0x2
 6101 1519 74       		.byte	0x74
 6102 151a 7F       		.sleb128 -1
 6103 151b 04       		.uleb128 0x4
 6104 151c 01       		.uleb128 0x1
 6105 151d 53       		.byte	0x53
 6106 151e 01       		.uleb128 0x1
 6107 151f 31       		.byte	0x31
 6108 1520 00       		.byte	0
 6109 1521 00       		.byte	0
 6110 1522 3B       		.uleb128 0x3b
 6111 1523 4A000000 		.4byte	.LVL218
 6112 1527 DF150000 		.4byte	0x15df
 6113 152b 00       		.byte	0
 6114 152c 23       		.uleb128 0x23
 6115 152d 85020000 		.4byte	.LASF270
 6116 1531 3E03     		.2byte	0x33e
 6117 1533 D70E0000 		.4byte	0xed7
 6118 1537 00000000 		.4byte	.LFB470
 6119 153b 50000000 		.4byte	.LFE470-.LFB470
 6120 153f 01       		.uleb128 0x1
 6121 1540 9C       		.byte	0x9c
 6122 1541 DF150000 		.4byte	0x15df
 6123 1545 0C       		.uleb128 0xc
 6124 1546 4C030000 		.4byte	.LASF264
 6125 154a 3E03     		.2byte	0x33e
 6126 154c 1E       		.byte	0x1e
 6127 154d AE120000 		.4byte	0x12ae
 6128 1551 67010000 		.4byte	.LLST161
 6129 1555 5D010000 		.4byte	.LVUS161
 6130 1559 0C       		.uleb128 0xc
 6131 155a BD0C0000 		.4byte	.LASF267
 6132 155e 3E03     		.2byte	0x33e
 6133 1560 2D       		.byte	0x2d
 6134 1561 FC000000 		.4byte	0xfc
 6135 1565 98010000 		.4byte	.LLST162
 6136 1569 8C010000 		.4byte	.LVUS162
 6137 156d 17       		.uleb128 0x17
 6138 156e 62756600 		.ascii	"buf\000"
 6139 1572 3F03     		.2byte	0x33f
 6140 1574 1C       		.byte	0x1c
 6141 1575 C9030000 		.4byte	0x3c9
 6142 1579 D3010000 		.4byte	.LLST163
 6143 157d C3010000 		.4byte	.LVUS163
 6144 1581 0C       		.uleb128 0xc
 6145 1582 06080000 		.4byte	.LASF268
 6146 1586 3F03     		.2byte	0x33f
 6147 1588 2A       		.byte	0x2a
 6148 1589 FC000000 		.4byte	0xfc
ARM GAS  C:\Users\DEVELO~1\AppData\Local\Temp\ccuGzkMt.s 			page 109


 6149 158d 12020000 		.4byte	.LLST164
 6150 1591 0A020000 		.4byte	.LVUS164
 6151 1595 3A       		.uleb128 0x3a
 6152 1596 20020000 		.4byte	.LLRL165
 6153 159a D5150000 		.4byte	0x15d5
 6154 159e 26       		.uleb128 0x26
 6155 159f 6900     		.ascii	"i\000"
 6156 15a1 4303     		.2byte	0x343
 6157 15a3 0E       		.byte	0xe
 6158 15a4 FC000000 		.4byte	0xfc
 6159 15a8 34020000 		.4byte	.LLST166
 6160 15ac 32020000 		.4byte	.LVUS166
 6161 15b0 2D       		.uleb128 0x2d
 6162 15b1 1E000000 		.4byte	.LVL199
 6163 15b5 EC2A0000 		.4byte	0x2aec
 6164 15b9 08       		.uleb128 0x8
 6165 15ba 2E000000 		.4byte	.LVL201
 6166 15be 48160000 		.4byte	0x1648
 6167 15c2 04       		.uleb128 0x4
 6168 15c3 01       		.uleb128 0x1
 6169 15c4 50       		.byte	0x50
 6170 15c5 02       		.uleb128 0x2
 6171 15c6 76       		.byte	0x76
 6172 15c7 00       		.sleb128 0
 6173 15c8 04       		.uleb128 0x4
 6174 15c9 01       		.uleb128 0x1
 6175 15ca 51       		.byte	0x51
 6176 15cb 02       		.uleb128 0x2
 6177 15cc 74       		.byte	0x74
 6178 15cd 00       		.sleb128 0
 6179 15ce 04       		.uleb128 0x4
 6180 15cf 01       		.uleb128 0x1
 6181 15d0 53       		.byte	0x53
 6182 15d1 01       		.uleb128 0x1
 6183 15d2 31       		.byte	0x31
 6184 15d3 00       		.byte	0
 6185 15d4 00       		.byte	0
 6186 15d5 3B       		.uleb128 0x3b
 6187 15d6 50000000 		.4byte	.LVL207
 6188 15da 48160000 		.4byte	0x1648
 6189 15de 00       		.byte	0
 6190 15df 35       		.uleb128 0x35
 6191 15e0 77050000 		.4byte	.LASF271
 6192 15e4 0603     		.2byte	0x306
 6193 15e6 D70E0000 		.4byte	0xed7
 6194 15ea 33160000 		.4byte	0x1633
 6195 15ee 0E       		.uleb128 0xe
 6196 15ef 4C030000 		.4byte	.LASF264
 6197 15f3 01       		.byte	0x1
 6198 15f4 0603     		.2byte	0x306
 6199 15f6 27       		.byte	0x27
 6200 15f7 AE120000 		.4byte	0x12ae
 6201 15fb 0E       		.uleb128 0xe
 6202 15fc BD0C0000 		.4byte	.LASF267
 6203 1600 01       		.byte	0x1
 6204 1601 0603     		.2byte	0x306
 6205 1603 36       		.byte	0x36
ARM GAS  C:\Users\DEVELO~1\AppData\Local\Temp\ccuGzkMt.s 			page 110


 6206 1604 FC000000 		.4byte	0xfc
 6207 1608 1B       		.uleb128 0x1b
 6208 1609 62756600 		.ascii	"buf\000"
 6209 160d 01       		.byte	0x1
 6210 160e 0703     		.2byte	0x307
 6211 1610 2B       		.byte	0x2b
 6212 1611 DE0E0000 		.4byte	0xede
 6213 1615 0E       		.uleb128 0xe
 6214 1616 06080000 		.4byte	.LASF268
 6215 161a 01       		.byte	0x1
 6216 161b 0703     		.2byte	0x307
 6217 161d 39       		.byte	0x39
 6218 161e FC000000 		.4byte	0xfc
 6219 1622 2E       		.uleb128 0x2e
 6220 1623 F60D0000 		.4byte	.LASF273
 6221 1627 43160000 		.4byte	0x1643
 6222 162b 3C       		.uleb128 0x3c
 6223 162c F9050000 		.4byte	.LASF274
 6224 1630 2B03     		.2byte	0x32b
 6225 1632 00       		.byte	0
 6226 1633 15       		.uleb128 0x15
 6227 1634 C4000000 		.4byte	0xc4
 6228 1638 43160000 		.4byte	0x1643
 6229 163c 16       		.uleb128 0x16
 6230 163d 39000000 		.4byte	0x39
 6231 1641 15       		.byte	0x15
 6232 1642 00       		.byte	0
 6233 1643 19       		.uleb128 0x19
 6234 1644 33160000 		.4byte	0x1633
 6235 1648 35       		.uleb128 0x35
 6236 1649 1A0B0000 		.4byte	.LASF272
 6237 164d CD02     		.2byte	0x2cd
 6238 164f D70E0000 		.4byte	0xed7
 6239 1653 9C160000 		.4byte	0x169c
 6240 1657 0E       		.uleb128 0xe
 6241 1658 4C030000 		.4byte	.LASF264
 6242 165c 01       		.byte	0x1
 6243 165d CD02     		.2byte	0x2cd
 6244 165f 26       		.byte	0x26
 6245 1660 AE120000 		.4byte	0x12ae
 6246 1664 0E       		.uleb128 0xe
 6247 1665 BD0C0000 		.4byte	.LASF267
 6248 1669 01       		.byte	0x1
 6249 166a CD02     		.2byte	0x2cd
 6250 166c 35       		.byte	0x35
 6251 166d FC000000 		.4byte	0xfc
 6252 1671 1B       		.uleb128 0x1b
 6253 1672 62756600 		.ascii	"buf\000"
 6254 1676 01       		.byte	0x1
 6255 1677 CE02     		.2byte	0x2ce
 6256 1679 24       		.byte	0x24
 6257 167a C9030000 		.4byte	0x3c9
 6258 167e 0E       		.uleb128 0xe
 6259 167f 06080000 		.4byte	.LASF268
 6260 1683 01       		.byte	0x1
 6261 1684 CE02     		.2byte	0x2ce
 6262 1686 32       		.byte	0x32
ARM GAS  C:\Users\DEVELO~1\AppData\Local\Temp\ccuGzkMt.s 			page 111


 6263 1687 FC000000 		.4byte	0xfc
 6264 168b 2E       		.uleb128 0x2e
 6265 168c F60D0000 		.4byte	.LASF273
 6266 1690 AC160000 		.4byte	0x16ac
 6267 1694 3C       		.uleb128 0x3c
 6268 1695 F9050000 		.4byte	.LASF274
 6269 1699 F302     		.2byte	0x2f3
 6270 169b 00       		.byte	0
 6271 169c 15       		.uleb128 0x15
 6272 169d C4000000 		.4byte	0xc4
 6273 16a1 AC160000 		.4byte	0x16ac
 6274 16a5 16       		.uleb128 0x16
 6275 16a6 39000000 		.4byte	0x39
 6276 16aa 14       		.byte	0x14
 6277 16ab 00       		.byte	0
 6278 16ac 19       		.uleb128 0x19
 6279 16ad 9C160000 		.4byte	0x169c
 6280 16b1 23       		.uleb128 0x23
 6281 16b2 72010000 		.4byte	.LASF275
 6282 16b6 AB02     		.2byte	0x2ab
 6283 16b8 D70E0000 		.4byte	0xed7
 6284 16bc 00000000 		.4byte	.LFB467
 6285 16c0 F0000000 		.4byte	.LFE467-.LFB467
 6286 16c4 01       		.uleb128 0x1
 6287 16c5 9C       		.byte	0x9c
 6288 16c6 451A0000 		.4byte	0x1a45
 6289 16ca 0C       		.uleb128 0xc
 6290 16cb 4C030000 		.4byte	.LASF264
 6291 16cf AB02     		.2byte	0x2ab
 6292 16d1 26       		.byte	0x26
 6293 16d2 AE120000 		.4byte	0x12ae
 6294 16d6 42020000 		.4byte	.LLST50
 6295 16da 3E020000 		.4byte	.LVUS50
 6296 16de 17       		.uleb128 0x17
 6297 16df 62756600 		.ascii	"buf\000"
 6298 16e3 AB02     		.2byte	0x2ab
 6299 16e5 35       		.byte	0x35
 6300 16e6 C9030000 		.4byte	0x3c9
 6301 16ea 57020000 		.4byte	.LLST51
 6302 16ee 53020000 		.4byte	.LVUS51
 6303 16f2 0C       		.uleb128 0xc
 6304 16f3 AF050000 		.4byte	.LASF276
 6305 16f7 AB02     		.2byte	0x2ab
 6306 16f9 41       		.byte	0x41
 6307 16fa 2D000000 		.4byte	0x2d
 6308 16fe 6C020000 		.4byte	.LLST52
 6309 1702 68020000 		.4byte	.LVUS52
 6310 1706 17       		.uleb128 0x17
 6311 1707 636D6400 		.ascii	"cmd\000"
 6312 170b AC02     		.2byte	0x2ac
 6313 170d 23       		.byte	0x23
 6314 170e D3000000 		.4byte	0xd3
 6315 1712 81020000 		.4byte	.LLST53
 6316 1716 7D020000 		.4byte	.LVUS53
 6317 171a 17       		.uleb128 0x17
 6318 171b 61726700 		.ascii	"arg\000"
 6319 171f AC02     		.2byte	0x2ac
ARM GAS  C:\Users\DEVELO~1\AppData\Local\Temp\ccuGzkMt.s 			page 112


 6320 1721 31       		.byte	0x31
 6321 1722 FC000000 		.4byte	0xfc
 6322 1726 99020000 		.4byte	.LLST54
 6323 172a 95020000 		.4byte	.LVUS54
 6324 172e 52       		.uleb128 0x52
 6325 172f F9050000 		.4byte	.LASF274
 6326 1733 01       		.byte	0x1
 6327 1734 BA02     		.2byte	0x2ba
 6328 1736 01       		.byte	0x1
 6329 1737 7C000000 		.4byte	.L125
 6330 173b 0D       		.uleb128 0xd
 6331 173c 671F0000 		.4byte	0x1f67
 6332 1740 0E000000 		.4byte	.LBI254
 6333 1744 00       		.byte	.LVU440
 6334 1745 81000000 		.4byte	.LLRL55
 6335 1749 AE02     		.2byte	0x2ae
 6336 174b 07       		.byte	0x7
 6337 174c BC170000 		.4byte	0x17bc
 6338 1750 01       		.uleb128 0x1
 6339 1751 8D1F0000 		.4byte	0x1f8d
 6340 1755 B4020000 		.4byte	.LLST56
 6341 1759 AE020000 		.4byte	.LVUS56
 6342 175d 01       		.uleb128 0x1
 6343 175e 821F0000 		.4byte	0x1f82
 6344 1762 CF020000 		.4byte	.LLST57
 6345 1766 CB020000 		.4byte	.LVUS57
 6346 176a 01       		.uleb128 0x1
 6347 176b 771F0000 		.4byte	0x1f77
 6348 176f E7020000 		.4byte	.LLST58
 6349 1773 E1020000 		.4byte	.LVUS58
 6350 1777 0B       		.uleb128 0xb
 6351 1778 81000000 		.4byte	.LLRL55
 6352 177c 53       		.uleb128 0x53
 6353 177d B71F0000 		.4byte	0x1fb7
 6354 1781 98000000 		.4byte	.LLRL59
 6355 1785 01       		.byte	0x1
 6356 1786 8F       		.byte	0x8f
 6357 1787 19       		.byte	0x19
 6358 1788 AA170000 		.4byte	0x17aa
 6359 178c 1C       		.uleb128 0x1c
 6360 178d D21F0000 		.4byte	0x1fd2
 6361 1791 1C       		.uleb128 0x1c
 6362 1792 C71F0000 		.4byte	0x1fc7
 6363 1796 0B       		.uleb128 0xb
 6364 1797 98000000 		.4byte	.LLRL59
 6365 179b 11       		.uleb128 0x11
 6366 179c DC1F0000 		.4byte	0x1fdc
 6367 17a0 00030000 		.4byte	.LLST60
 6368 17a4 FE020000 		.4byte	.LVUS60
 6369 17a8 00       		.byte	0
 6370 17a9 00       		.byte	0
 6371 17aa 08       		.uleb128 0x8
 6372 17ab 34000000 		.4byte	.LVL90
 6373 17af 98120000 		.4byte	0x1298
 6374 17b3 04       		.uleb128 0x4
 6375 17b4 01       		.uleb128 0x1
 6376 17b5 50       		.byte	0x50
ARM GAS  C:\Users\DEVELO~1\AppData\Local\Temp\ccuGzkMt.s 			page 113


 6377 17b6 02       		.uleb128 0x2
 6378 17b7 75       		.byte	0x75
 6379 17b8 00       		.sleb128 0
 6380 17b9 00       		.byte	0
 6381 17ba 00       		.byte	0
 6382 17bb 00       		.byte	0
 6383 17bc 0D       		.uleb128 0xd
 6384 17bd CC1A0000 		.4byte	0x1acc
 6385 17c1 5C000000 		.4byte	.LBI265
 6386 17c5 03       		.byte	.LVU482
 6387 17c6 A4000000 		.4byte	.LLRL61
 6388 17ca B102     		.2byte	0x2b1
 6389 17cc 07       		.byte	0x7
 6390 17cd 29180000 		.4byte	0x1829
 6391 17d1 01       		.uleb128 0x1
 6392 17d2 021B0000 		.4byte	0x1b02
 6393 17d6 15030000 		.4byte	.LLST62
 6394 17da 11030000 		.4byte	.LVUS62
 6395 17de 01       		.uleb128 0x1
 6396 17df F51A0000 		.4byte	0x1af5
 6397 17e3 2F030000 		.4byte	.LLST63
 6398 17e7 29030000 		.4byte	.LVUS63
 6399 17eb 01       		.uleb128 0x1
 6400 17ec E81A0000 		.4byte	0x1ae8
 6401 17f0 4A030000 		.4byte	.LLST64
 6402 17f4 46030000 		.4byte	.LVUS64
 6403 17f8 01       		.uleb128 0x1
 6404 17f9 DB1A0000 		.4byte	0x1adb
 6405 17fd 5E030000 		.4byte	.LLST65
 6406 1801 5A030000 		.4byte	.LVUS65
 6407 1805 0B       		.uleb128 0xb
 6408 1806 A4000000 		.4byte	.LLRL61
 6409 180a 11       		.uleb128 0x11
 6410 180b 0F1B0000 		.4byte	0x1b0f
 6411 180f 72030000 		.4byte	.LLST66
 6412 1813 6E030000 		.4byte	.LVUS66
 6413 1817 08       		.uleb128 0x8
 6414 1818 CC000000 		.4byte	.LVL104
 6415 181c 701E0000 		.4byte	0x1e70
 6416 1820 04       		.uleb128 0x4
 6417 1821 01       		.uleb128 0x1
 6418 1822 50       		.byte	0x50
 6419 1823 02       		.uleb128 0x2
 6420 1824 70       		.byte	0x70
 6421 1825 00       		.sleb128 0
 6422 1826 00       		.byte	0
 6423 1827 00       		.byte	0
 6424 1828 00       		.byte	0
 6425 1829 0D       		.uleb128 0xd
 6426 182a 311E0000 		.4byte	0x1e31
 6427 182e 7C000000 		.4byte	.LBI274
 6428 1832 01       		.byte	.LVU506
 6429 1833 B8000000 		.4byte	.LLRL67
 6430 1837 BB02     		.2byte	0x2bb
 6431 1839 03       		.byte	0x3
 6432 183a 8F180000 		.4byte	0x188f
 6433 183e 01       		.uleb128 0x1
ARM GAS  C:\Users\DEVELO~1\AppData\Local\Temp\ccuGzkMt.s 			page 114


 6434 183f 571E0000 		.4byte	0x1e57
 6435 1843 84030000 		.4byte	.LLST68
 6436 1847 82030000 		.4byte	.LVUS68
 6437 184b 01       		.uleb128 0x1
 6438 184c 4C1E0000 		.4byte	0x1e4c
 6439 1850 91030000 		.4byte	.LLST69
 6440 1854 8F030000 		.4byte	.LVUS69
 6441 1858 01       		.uleb128 0x1
 6442 1859 3F1E0000 		.4byte	0x1e3f
 6443 185d 9D030000 		.4byte	.LLST70
 6444 1861 9B030000 		.4byte	.LVUS70
 6445 1865 0B       		.uleb128 0xb
 6446 1866 B8000000 		.4byte	.LLRL67
 6447 186a 11       		.uleb128 0x11
 6448 186b 641E0000 		.4byte	0x1e64
 6449 186f A8030000 		.4byte	.LLST71
 6450 1873 A6030000 		.4byte	.LVUS71
 6451 1877 08       		.uleb128 0x8
 6452 1878 90000000 		.4byte	.LVL96
 6453 187c 701E0000 		.4byte	0x1e70
 6454 1880 04       		.uleb128 0x4
 6455 1881 01       		.uleb128 0x1
 6456 1882 50       		.byte	0x50
 6457 1883 02       		.uleb128 0x2
 6458 1884 75       		.byte	0x75
 6459 1885 00       		.sleb128 0
 6460 1886 04       		.uleb128 0x4
 6461 1887 01       		.uleb128 0x1
 6462 1888 51       		.byte	0x51
 6463 1889 02       		.uleb128 0x2
 6464 188a 71       		.byte	0x71
 6465 188b 00       		.sleb128 0
 6466 188c 00       		.byte	0
 6467 188d 00       		.byte	0
 6468 188e 00       		.byte	0
 6469 188f 10       		.uleb128 0x10
 6470 1890 B91E0000 		.4byte	0x1eb9
 6471 1894 9A000000 		.4byte	.LBI280
 6472 1898 02       		.byte	.LVU526
 6473 1899 C7000000 		.4byte	.LLRL72
 6474 189d 01       		.byte	0x1
 6475 189e B502     		.2byte	0x2b5
 6476 18a0 07       		.byte	0x7
 6477 18a1 01       		.uleb128 0x1
 6478 18a2 E31E0000 		.4byte	0x1ee3
 6479 18a6 B5030000 		.4byte	.LLST73
 6480 18aa B1030000 		.4byte	.LVUS73
 6481 18ae 01       		.uleb128 0x1
 6482 18af D81E0000 		.4byte	0x1ed8
 6483 18b3 CF030000 		.4byte	.LLST74
 6484 18b7 C9030000 		.4byte	.LVUS74
 6485 18bb 01       		.uleb128 0x1
 6486 18bc CB1E0000 		.4byte	0x1ecb
 6487 18c0 ED030000 		.4byte	.LLST75
 6488 18c4 E7030000 		.4byte	.LVUS75
 6489 18c8 27       		.uleb128 0x27
 6490 18c9 D2200000 		.4byte	0x20d2
ARM GAS  C:\Users\DEVELO~1\AppData\Local\Temp\ccuGzkMt.s 			page 115


 6491 18cd 9A000000 		.4byte	.LBI282
 6492 18d1 04       		.byte	.LVU528
 6493 18d2 9A000000 		.4byte	.LBB282
 6494 18d6 06000000 		.4byte	.LBE282-.LBB282
 6495 18da 0B01     		.2byte	0x10b
 6496 18dc 03       		.byte	0x3
 6497 18dd 34190000 		.4byte	0x1934
 6498 18e1 09       		.uleb128 0x9
 6499 18e2 1A210000 		.4byte	0x211a
 6500 18e6 9A000000 		.4byte	.LBI283
 6501 18ea 06       		.byte	.LVU530
 6502 18eb 9A000000 		.4byte	.LBB283
 6503 18ef 06000000 		.4byte	.LBE283-.LBB283
 6504 18f3 02       		.byte	0x2
 6505 18f4 3F02     		.2byte	0x23f
 6506 18f6 03       		.byte	0x3
 6507 18f7 09       		.uleb128 0x9
 6508 18f8 3E210000 		.4byte	0x213e
 6509 18fc 9A000000 		.4byte	.LBI284
 6510 1900 08       		.byte	.LVU532
 6511 1901 9A000000 		.4byte	.LBB284
 6512 1905 06000000 		.4byte	.LBE284-.LBB284
 6513 1909 03       		.byte	0x3
 6514 190a 7601     		.2byte	0x176
 6515 190c 03       		.byte	0x3
 6516 190d 09       		.uleb128 0x9
 6517 190e 47210000 		.4byte	0x2147
 6518 1912 9A000000 		.4byte	.LBI285
 6519 1916 0A       		.byte	.LVU534
 6520 1917 9A000000 		.4byte	.LBB285
 6521 191b 06000000 		.4byte	.LBE285-.LBB285
 6522 191f 04       		.byte	0x4
 6523 1920 5003     		.2byte	0x350
 6524 1922 03       		.byte	0x3
 6525 1923 01       		.uleb128 0x1
 6526 1924 55210000 		.4byte	0x2155
 6527 1928 04040000 		.4byte	.LLST76
 6528 192c 02040000 		.4byte	.LVUS76
 6529 1930 00       		.byte	0
 6530 1931 00       		.byte	0
 6531 1932 00       		.byte	0
 6532 1933 00       		.byte	0
 6533 1934 27       		.uleb128 0x27
 6534 1935 C9200000 		.4byte	0x20c9
 6535 1939 BC000000 		.4byte	.LBI287
 6536 193d 01       		.byte	.LVU555
 6537 193e BC000000 		.4byte	.LBB287
 6538 1942 04000000 		.4byte	.LBE287-.LBB287
 6539 1946 1E01     		.2byte	0x11e
 6540 1948 03       		.byte	0x3
 6541 1949 A0190000 		.4byte	0x19a0
 6542 194d 09       		.uleb128 0x9
 6543 194e ED200000 		.4byte	0x20ed
 6544 1952 BC000000 		.4byte	.LBI288
 6545 1956 03       		.byte	.LVU557
 6546 1957 BC000000 		.4byte	.LBB288
 6547 195b 04000000 		.4byte	.LBE288-.LBB288
ARM GAS  C:\Users\DEVELO~1\AppData\Local\Temp\ccuGzkMt.s 			page 116


 6548 195f 02       		.byte	0x2
 6549 1960 4A02     		.2byte	0x24a
 6550 1962 03       		.byte	0x3
 6551 1963 09       		.uleb128 0x9
 6552 1964 35210000 		.4byte	0x2135
 6553 1968 BC000000 		.4byte	.LBI290
 6554 196c 0A       		.byte	.LVU564
 6555 196d BC000000 		.4byte	.LBB290
 6556 1971 04000000 		.4byte	.LBE290-.LBB290
 6557 1975 03       		.byte	0x3
 6558 1976 8F01     		.2byte	0x18f
 6559 1978 03       		.byte	0x3
 6560 1979 09       		.uleb128 0x9
 6561 197a 47210000 		.4byte	0x2147
 6562 197e BC000000 		.4byte	.LBI291
 6563 1982 0C       		.byte	.LVU566
 6564 1983 BC000000 		.4byte	.LBB291
 6565 1987 04000000 		.4byte	.LBE291-.LBB291
 6566 198b 04       		.byte	0x4
 6567 198c 6303     		.2byte	0x363
 6568 198e 03       		.byte	0x3
 6569 198f 01       		.uleb128 0x1
 6570 1990 55210000 		.4byte	0x2155
 6571 1994 11040000 		.4byte	.LLST77
 6572 1998 0F040000 		.4byte	.LVUS77
 6573 199c 00       		.byte	0
 6574 199d 00       		.byte	0
 6575 199e 00       		.byte	0
 6576 199f 00       		.byte	0
 6577 19a0 27       		.uleb128 0x27
 6578 19a1 C9200000 		.4byte	0x20c9
 6579 19a5 CE000000 		.4byte	.LBI293
 6580 19a9 02       		.byte	.LVU577
 6581 19aa CE000000 		.4byte	.LBB293
 6582 19ae 04000000 		.4byte	.LBE293-.LBB293
 6583 19b2 1701     		.2byte	0x117
 6584 19b4 05       		.byte	0x5
 6585 19b5 0C1A0000 		.4byte	0x1a0c
 6586 19b9 09       		.uleb128 0x9
 6587 19ba ED200000 		.4byte	0x20ed
 6588 19be CE000000 		.4byte	.LBI294
 6589 19c2 04       		.byte	.LVU579
 6590 19c3 CE000000 		.4byte	.LBB294
 6591 19c7 04000000 		.4byte	.LBE294-.LBB294
 6592 19cb 02       		.byte	0x2
 6593 19cc 4A02     		.2byte	0x24a
 6594 19ce 03       		.byte	0x3
 6595 19cf 09       		.uleb128 0x9
 6596 19d0 35210000 		.4byte	0x2135
 6597 19d4 CE000000 		.4byte	.LBI296
 6598 19d8 0B       		.byte	.LVU586
 6599 19d9 CE000000 		.4byte	.LBB296
 6600 19dd 04000000 		.4byte	.LBE296-.LBB296
 6601 19e1 03       		.byte	0x3
 6602 19e2 8F01     		.2byte	0x18f
 6603 19e4 03       		.byte	0x3
 6604 19e5 09       		.uleb128 0x9
ARM GAS  C:\Users\DEVELO~1\AppData\Local\Temp\ccuGzkMt.s 			page 117


 6605 19e6 47210000 		.4byte	0x2147
 6606 19ea CE000000 		.4byte	.LBI297
 6607 19ee 0D       		.byte	.LVU588
 6608 19ef CE000000 		.4byte	.LBB297
 6609 19f3 04000000 		.4byte	.LBE297-.LBB297
 6610 19f7 04       		.byte	0x4
 6611 19f8 6303     		.2byte	0x363
 6612 19fa 03       		.byte	0x3
 6613 19fb 01       		.uleb128 0x1
 6614 19fc 55210000 		.4byte	0x2155
 6615 1a00 1D040000 		.4byte	.LLST78
 6616 1a04 1B040000 		.4byte	.LVUS78
 6617 1a08 00       		.byte	0
 6618 1a09 00       		.byte	0
 6619 1a0a 00       		.byte	0
 6620 1a0b 00       		.byte	0
 6621 1a0c 10       		.uleb128 0x10
 6622 1a0d 7B200000 		.4byte	0x207b
 6623 1a11 D6000000 		.4byte	.LBI299
 6624 1a15 02       		.byte	.LVU596
 6625 1a16 D6000000 		.4byte	.LLRL79
 6626 1a1a 01       		.byte	0x1
 6627 1a1b 0E01     		.2byte	0x10e
 6628 1a1d 0C       		.byte	0xc
 6629 1a1e 01       		.uleb128 0x1
 6630 1a1f 8D200000 		.4byte	0x208d
 6631 1a23 2D040000 		.4byte	.LLST80
 6632 1a27 27040000 		.4byte	.LVUS80
 6633 1a2b 08       		.uleb128 0x8
 6634 1a2c E2000000 		.4byte	.LVL109
 6635 1a30 7C120000 		.4byte	0x127c
 6636 1a34 04       		.uleb128 0x4
 6637 1a35 01       		.uleb128 0x1
 6638 1a36 50       		.byte	0x50
 6639 1a37 03       		.uleb128 0x3
 6640 1a38 75       		.byte	0x75
 6641 1a39 C000     		.sleb128 64
 6642 1a3b 04       		.uleb128 0x4
 6643 1a3c 01       		.uleb128 0x1
 6644 1a3d 51       		.byte	0x51
 6645 1a3e 02       		.uleb128 0x2
 6646 1a3f 09       		.byte	0x9
 6647 1a40 FF       		.byte	0xff
 6648 1a41 00       		.byte	0
 6649 1a42 00       		.byte	0
 6650 1a43 00       		.byte	0
 6651 1a44 00       		.byte	0
 6652 1a45 23       		.uleb128 0x23
 6653 1a46 07070000 		.4byte	.LASF277
 6654 1a4a 8102     		.2byte	0x281
 6655 1a4c D70E0000 		.4byte	0xed7
 6656 1a50 00000000 		.4byte	.LFB466
 6657 1a54 38000000 		.4byte	.LFE466-.LFB466
 6658 1a58 01       		.uleb128 0x1
 6659 1a59 9C       		.byte	0x9c
 6660 1a5a CC1A0000 		.4byte	0x1acc
 6661 1a5e 0C       		.uleb128 0xc
ARM GAS  C:\Users\DEVELO~1\AppData\Local\Temp\ccuGzkMt.s 			page 118


 6662 1a5f 4C030000 		.4byte	.LASF264
 6663 1a63 8102     		.2byte	0x281
 6664 1a65 2B       		.byte	0x2b
 6665 1a66 AE120000 		.4byte	0x12ae
 6666 1a6a 50040000 		.4byte	.LLST45
 6667 1a6e 48040000 		.4byte	.LVUS45
 6668 1a72 17       		.uleb128 0x17
 6669 1a73 636D6400 		.ascii	"cmd\000"
 6670 1a77 8102     		.2byte	0x281
 6671 1a79 39       		.byte	0x39
 6672 1a7a D3000000 		.4byte	0xd3
 6673 1a7e 74040000 		.4byte	.LLST46
 6674 1a82 70040000 		.4byte	.LVUS46
 6675 1a86 17       		.uleb128 0x17
 6676 1a87 61726700 		.ascii	"arg\000"
 6677 1a8b 8102     		.2byte	0x281
 6678 1a8d 47       		.byte	0x47
 6679 1a8e FC000000 		.4byte	0xfc
 6680 1a92 8B040000 		.4byte	.LLST47
 6681 1a96 87040000 		.4byte	.LVUS47
 6682 1a9a 0C       		.uleb128 0xc
 6683 1a9b 410E0000 		.4byte	.LASF241
 6684 1a9f 8202     		.2byte	0x282
 6685 1aa1 2A       		.byte	0x2a
 6686 1aa2 D90F0000 		.4byte	0xfd9
 6687 1aa6 AA040000 		.4byte	.LLST48
 6688 1aaa 9E040000 		.4byte	.LVUS48
 6689 1aae 26       		.uleb128 0x26
 6690 1aaf 73746100 		.ascii	"sta\000"
 6691 1ab3 8302     		.2byte	0x283
 6692 1ab5 0C       		.byte	0xc
 6693 1ab6 FC000000 		.4byte	0xfc
 6694 1aba DB040000 		.4byte	.LLST49
 6695 1abe D7040000 		.4byte	.LVUS49
 6696 1ac2 2D       		.uleb128 0x2d
 6697 1ac3 34000000 		.4byte	.LVL82
 6698 1ac7 701E0000 		.4byte	0x1e70
 6699 1acb 00       		.byte	0
 6700 1acc 35       		.uleb128 0x35
 6701 1acd 770D0000 		.4byte	.LASF278
 6702 1ad1 6002     		.2byte	0x260
 6703 1ad3 D70E0000 		.4byte	0xed7
 6704 1ad7 1B1B0000 		.4byte	0x1b1b
 6705 1adb 0E       		.uleb128 0xe
 6706 1adc 4C030000 		.4byte	.LASF264
 6707 1ae0 01       		.byte	0x1
 6708 1ae1 6002     		.2byte	0x260
 6709 1ae3 2C       		.byte	0x2c
 6710 1ae4 AE120000 		.4byte	0x12ae
 6711 1ae8 1B       		.uleb128 0x1b
 6712 1ae9 636D6400 		.ascii	"cmd\000"
 6713 1aed 01       		.byte	0x1
 6714 1aee 6002     		.2byte	0x260
 6715 1af0 3A       		.byte	0x3a
 6716 1af1 D3000000 		.4byte	0xd3
 6717 1af5 1B       		.uleb128 0x1b
 6718 1af6 61726700 		.ascii	"arg\000"
ARM GAS  C:\Users\DEVELO~1\AppData\Local\Temp\ccuGzkMt.s 			page 119


 6719 1afa 01       		.byte	0x1
 6720 1afb 6002     		.2byte	0x260
 6721 1afd 48       		.byte	0x48
 6722 1afe FC000000 		.4byte	0xfc
 6723 1b02 0E       		.uleb128 0xe
 6724 1b03 410E0000 		.4byte	.LASF241
 6725 1b07 01       		.byte	0x1
 6726 1b08 6102     		.2byte	0x261
 6727 1b0a 2B       		.byte	0x2b
 6728 1b0b D90F0000 		.4byte	0xfd9
 6729 1b0f 3D       		.uleb128 0x3d
 6730 1b10 73746100 		.ascii	"sta\000"
 6731 1b14 6202     		.2byte	0x262
 6732 1b16 FC000000 		.4byte	0xfc
 6733 1b1a 00       		.byte	0
 6734 1b1b 23       		.uleb128 0x23
 6735 1b1c D0080000 		.4byte	.LASF279
 6736 1b20 3F02     		.2byte	0x23f
 6737 1b22 D70E0000 		.4byte	0xed7
 6738 1b26 00000000 		.4byte	.LFB464
 6739 1b2a 2C000000 		.4byte	.LFE464-.LFB464
 6740 1b2e 01       		.uleb128 0x1
 6741 1b2f 9C       		.byte	0x9c
 6742 1b30 A21B0000 		.4byte	0x1ba2
 6743 1b34 0C       		.uleb128 0xc
 6744 1b35 4C030000 		.4byte	.LASF264
 6745 1b39 3F02     		.2byte	0x23f
 6746 1b3b 28       		.byte	0x28
 6747 1b3c AE120000 		.4byte	0x12ae
 6748 1b40 F3040000 		.4byte	.LLST35
 6749 1b44 EB040000 		.4byte	.LVUS35
 6750 1b48 17       		.uleb128 0x17
 6751 1b49 636D6400 		.ascii	"cmd\000"
 6752 1b4d 3F02     		.2byte	0x23f
 6753 1b4f 36       		.byte	0x36
 6754 1b50 D3000000 		.4byte	0xd3
 6755 1b54 17050000 		.4byte	.LLST36
 6756 1b58 13050000 		.4byte	.LVUS36
 6757 1b5c 17       		.uleb128 0x17
 6758 1b5d 61726700 		.ascii	"arg\000"
 6759 1b61 3F02     		.2byte	0x23f
 6760 1b63 44       		.byte	0x44
 6761 1b64 FC000000 		.4byte	0xfc
 6762 1b68 2E050000 		.4byte	.LLST37
 6763 1b6c 2A050000 		.4byte	.LVUS37
 6764 1b70 0C       		.uleb128 0xc
 6765 1b71 410E0000 		.4byte	.LASF241
 6766 1b75 4002     		.2byte	0x240
 6767 1b77 27       		.byte	0x27
 6768 1b78 D90F0000 		.4byte	0xfd9
 6769 1b7c 45050000 		.4byte	.LLST38
 6770 1b80 41050000 		.4byte	.LVUS38
 6771 1b84 26       		.uleb128 0x26
 6772 1b85 73746100 		.ascii	"sta\000"
 6773 1b89 4102     		.2byte	0x241
 6774 1b8b 0C       		.byte	0xc
 6775 1b8c FC000000 		.4byte	0xfc
ARM GAS  C:\Users\DEVELO~1\AppData\Local\Temp\ccuGzkMt.s 			page 120


 6776 1b90 5C050000 		.4byte	.LLST39
 6777 1b94 58050000 		.4byte	.LVUS39
 6778 1b98 2D       		.uleb128 0x2d
 6779 1b99 28000000 		.4byte	.LVL61
 6780 1b9d 701E0000 		.4byte	0x1e70
 6781 1ba1 00       		.byte	0
 6782 1ba2 1E       		.uleb128 0x1e
 6783 1ba3 ED030000 		.4byte	.LASF281
 6784 1ba7 2702     		.2byte	0x227
 6785 1ba9 00000000 		.4byte	.LFB463
 6786 1bad 16000000 		.4byte	.LFE463-.LFB463
 6787 1bb1 01       		.uleb128 0x1
 6788 1bb2 9C       		.byte	0x9c
 6789 1bb3 EE1B0000 		.4byte	0x1bee
 6790 1bb7 0C       		.uleb128 0xc
 6791 1bb8 4C030000 		.4byte	.LASF264
 6792 1bbc 2702     		.2byte	0x227
 6793 1bbe 27       		.byte	0x27
 6794 1bbf AE120000 		.4byte	0x12ae
 6795 1bc3 70050000 		.4byte	.LLST33
 6796 1bc7 6C050000 		.4byte	.LVUS33
 6797 1bcb 17       		.uleb128 0x17
 6798 1bcc 636D6400 		.ascii	"cmd\000"
 6799 1bd0 2702     		.2byte	0x227
 6800 1bd2 35       		.byte	0x35
 6801 1bd3 D3000000 		.4byte	0xd3
 6802 1bd7 87050000 		.4byte	.LLST34
 6803 1bdb 83050000 		.4byte	.LVUS34
 6804 1bdf 3E       		.uleb128 0x3e
 6805 1be0 61726700 		.ascii	"arg\000"
 6806 1be4 2702     		.2byte	0x227
 6807 1be6 43       		.byte	0x43
 6808 1be7 FC000000 		.4byte	0xfc
 6809 1beb 01       		.uleb128 0x1
 6810 1bec 52       		.byte	0x52
 6811 1bed 00       		.byte	0
 6812 1bee 1E       		.uleb128 0x1e
 6813 1bef DE040000 		.4byte	.LASF282
 6814 1bf3 0E02     		.2byte	0x20e
 6815 1bf5 00000000 		.4byte	.LFB462
 6816 1bf9 24000000 		.4byte	.LFE462-.LFB462
 6817 1bfd 01       		.uleb128 0x1
 6818 1bfe 9C       		.byte	0x9c
 6819 1bff 341C0000 		.4byte	0x1c34
 6820 1c03 24       		.uleb128 0x24
 6821 1c04 4C030000 		.4byte	.LASF264
 6822 1c08 0E02     		.2byte	0x20e
 6823 1c0a 26       		.byte	0x26
 6824 1c0b AE120000 		.4byte	0x12ae
 6825 1c0f 01       		.uleb128 0x1
 6826 1c10 50       		.byte	0x50
 6827 1c11 24       		.uleb128 0x24
 6828 1c12 A8020000 		.4byte	.LASF283
 6829 1c16 0E02     		.2byte	0x20e
 6830 1c18 39       		.byte	0x39
 6831 1c19 FC0F0000 		.4byte	0xffc
 6832 1c1d 01       		.uleb128 0x1
ARM GAS  C:\Users\DEVELO~1\AppData\Local\Temp\ccuGzkMt.s 			page 121


 6833 1c1e 51       		.byte	0x51
 6834 1c1f 26       		.uleb128 0x26
 6835 1c20 636C6B00 		.ascii	"clk\000"
 6836 1c24 0F02     		.2byte	0x20f
 6837 1c26 0C       		.byte	0xc
 6838 1c27 FC000000 		.4byte	0xfc
 6839 1c2b 9E050000 		.4byte	.LLST32
 6840 1c2f 9A050000 		.4byte	.LVUS32
 6841 1c33 00       		.byte	0
 6842 1c34 1E       		.uleb128 0x1e
 6843 1c35 FF0D0000 		.4byte	.LASF284
 6844 1c39 0002     		.2byte	0x200
 6845 1c3b 00000000 		.4byte	.LFB461
 6846 1c3f 0A000000 		.4byte	.LFE461-.LFB461
 6847 1c43 01       		.uleb128 0x1
 6848 1c44 9C       		.byte	0x9c
 6849 1c45 581C0000 		.4byte	0x1c58
 6850 1c49 24       		.uleb128 0x24
 6851 1c4a 4C030000 		.4byte	.LASF264
 6852 1c4e 0002     		.2byte	0x200
 6853 1c50 22       		.byte	0x22
 6854 1c51 AE120000 		.4byte	0x12ae
 6855 1c55 01       		.uleb128 0x1
 6856 1c56 50       		.byte	0x50
 6857 1c57 00       		.byte	0
 6858 1c58 1E       		.uleb128 0x1e
 6859 1c59 C8010000 		.4byte	.LASF285
 6860 1c5d E301     		.2byte	0x1e3
 6861 1c5f 00000000 		.4byte	.LFB460
 6862 1c63 74000000 		.4byte	.LFE460-.LFB460
 6863 1c67 01       		.uleb128 0x1
 6864 1c68 9C       		.byte	0x9c
 6865 1c69 F31C0000 		.4byte	0x1cf3
 6866 1c6d 0C       		.uleb128 0xc
 6867 1c6e 4C030000 		.4byte	.LASF264
 6868 1c72 E301     		.2byte	0x1e3
 6869 1c74 26       		.byte	0x26
 6870 1c75 AE120000 		.4byte	0x12ae
 6871 1c79 B6050000 		.4byte	.LLST24
 6872 1c7d AE050000 		.4byte	.LVUS24
 6873 1c81 17       		.uleb128 0x17
 6874 1c82 636C6B00 		.ascii	"clk\000"
 6875 1c86 E301     		.2byte	0x1e3
 6876 1c88 38       		.byte	0x38
 6877 1c89 20100000 		.4byte	0x1020
 6878 1c8d DA050000 		.4byte	.LLST25
 6879 1c91 D6050000 		.4byte	.LVUS25
 6880 1c95 0D       		.uleb128 0xd
 6881 1c96 E91F0000 		.4byte	0x1fe9
 6882 1c9a 46000000 		.4byte	.LBI207
 6883 1c9e 00       		.byte	.LVU290
 6884 1c9f 5D000000 		.4byte	.LLRL26
 6885 1ca3 E901     		.2byte	0x1e9
 6886 1ca5 1A       		.byte	0x1a
 6887 1ca6 C51C0000 		.4byte	0x1cc5
 6888 1caa 01       		.uleb128 0x1
 6889 1cab 04200000 		.4byte	0x2004
ARM GAS  C:\Users\DEVELO~1\AppData\Local\Temp\ccuGzkMt.s 			page 122


 6890 1caf EF050000 		.4byte	.LLST27
 6891 1cb3 ED050000 		.4byte	.LVUS27
 6892 1cb7 01       		.uleb128 0x1
 6893 1cb8 F91F0000 		.4byte	0x1ff9
 6894 1cbc 01060000 		.4byte	.LLST28
 6895 1cc0 FD050000 		.4byte	.LVUS28
 6896 1cc4 00       		.byte	0
 6897 1cc5 10       		.uleb128 0x10
 6898 1cc6 E91F0000 		.4byte	0x1fe9
 6899 1cca 16000000 		.4byte	.LBI212
 6900 1cce 00       		.byte	.LVU266
 6901 1ccf 6F000000 		.4byte	.LLRL29
 6902 1cd3 01       		.byte	0x1
 6903 1cd4 F201     		.2byte	0x1f2
 6904 1cd6 1A       		.byte	0x1a
 6905 1cd7 01       		.uleb128 0x1
 6906 1cd8 04200000 		.4byte	0x2004
 6907 1cdc 16060000 		.4byte	.LLST30
 6908 1ce0 14060000 		.4byte	.LVUS30
 6909 1ce4 01       		.uleb128 0x1
 6910 1ce5 F91F0000 		.4byte	0x1ff9
 6911 1ce9 28060000 		.4byte	.LLST31
 6912 1ced 24060000 		.4byte	.LVUS31
 6913 1cf1 00       		.byte	0
 6914 1cf2 00       		.byte	0
 6915 1cf3 1E       		.uleb128 0x1e
 6916 1cf4 FB040000 		.4byte	.LASF286
 6917 1cf8 D001     		.2byte	0x1d0
 6918 1cfa 00000000 		.4byte	.LFB459
 6919 1cfe 44000000 		.4byte	.LFE459-.LFB459
 6920 1d02 01       		.uleb128 0x1
 6921 1d03 9C       		.byte	0x9c
 6922 1d04 7D1D0000 		.4byte	0x1d7d
 6923 1d08 0C       		.uleb128 0xc
 6924 1d09 4C030000 		.4byte	.LASF264
 6925 1d0d D001     		.2byte	0x1d0
 6926 1d0f 23       		.byte	0x23
 6927 1d10 AE120000 		.4byte	0x12ae
 6928 1d14 41060000 		.4byte	.LLST18
 6929 1d18 3B060000 		.4byte	.LVUS18
 6930 1d1c 0D       		.uleb128 0xd
 6931 1d1d E91F0000 		.4byte	0x1fe9
 6932 1d21 06000000 		.4byte	.LBI195
 6933 1d25 00       		.byte	.LVU227
 6934 1d26 3F000000 		.4byte	.LLRL19
 6935 1d2a D301     		.2byte	0x1d3
 6936 1d2c 19       		.byte	0x19
 6937 1d2d 4C1D0000 		.4byte	0x1d4c
 6938 1d31 01       		.uleb128 0x1
 6939 1d32 04200000 		.4byte	0x2004
 6940 1d36 5D060000 		.4byte	.LLST20
 6941 1d3a 59060000 		.4byte	.LVUS20
 6942 1d3e 01       		.uleb128 0x1
 6943 1d3f F91F0000 		.4byte	0x1ff9
 6944 1d43 7D060000 		.4byte	.LLST21
 6945 1d47 77060000 		.4byte	.LVUS21
 6946 1d4b 00       		.byte	0
ARM GAS  C:\Users\DEVELO~1\AppData\Local\Temp\ccuGzkMt.s 			page 123


 6947 1d4c 10       		.uleb128 0x10
 6948 1d4d 9B200000 		.4byte	0x209b
 6949 1d51 2E000000 		.4byte	.LBI202
 6950 1d55 01       		.byte	.LVU247
 6951 1d56 51000000 		.4byte	.LLRL22
 6952 1d5a 01       		.byte	0x1
 6953 1d5b D801     		.2byte	0x1d8
 6954 1d5d 03       		.byte	0x3
 6955 1d5e 01       		.uleb128 0x1
 6956 1d5f A9200000 		.4byte	0x20a9
 6957 1d63 97060000 		.4byte	.LLST23
 6958 1d67 95060000 		.4byte	.LVUS23
 6959 1d6b 54       		.uleb128 0x54
 6960 1d6c 32000000 		.4byte	.LVL35
 6961 1d70 B3120000 		.4byte	0x12b3
 6962 1d74 04       		.uleb128 0x4
 6963 1d75 01       		.uleb128 0x1
 6964 1d76 50       		.byte	0x50
 6965 1d77 02       		.uleb128 0x2
 6966 1d78 08       		.byte	0x8
 6967 1d79 64       		.byte	0x64
 6968 1d7a 00       		.byte	0
 6969 1d7b 00       		.byte	0
 6970 1d7c 00       		.byte	0
 6971 1d7d 1E       		.uleb128 0x1e
 6972 1d7e 6A0A0000 		.4byte	.LASF287
 6973 1d82 AE01     		.2byte	0x1ae
 6974 1d84 00000000 		.4byte	.LFB458
 6975 1d88 54000000 		.4byte	.LFE458-.LFB458
 6976 1d8c 01       		.uleb128 0x1
 6977 1d8d 9C       		.byte	0x9c
 6978 1d8e C11D0000 		.4byte	0x1dc1
 6979 1d92 24       		.uleb128 0x24
 6980 1d93 4C030000 		.4byte	.LASF264
 6981 1d97 AE01     		.2byte	0x1ae
 6982 1d99 1E       		.byte	0x1e
 6983 1d9a AE120000 		.4byte	0x12ae
 6984 1d9e 01       		.uleb128 0x1
 6985 1d9f 50       		.byte	0x50
 6986 1da0 10       		.uleb128 0x10
 6987 1da1 0E200000 		.4byte	0x200e
 6988 1da5 28000000 		.4byte	.LBI191
 6989 1da9 01       		.byte	.LVU213
 6990 1daa 33000000 		.4byte	.LLRL16
 6991 1dae 01       		.byte	0x1
 6992 1daf BD01     		.2byte	0x1bd
 6993 1db1 07       		.byte	0x7
 6994 1db2 01       		.uleb128 0x1
 6995 1db3 1C200000 		.4byte	0x201c
 6996 1db7 A4060000 		.4byte	.LLST17
 6997 1dbb A2060000 		.4byte	.LVUS17
 6998 1dbf 00       		.byte	0
 6999 1dc0 00       		.byte	0
 7000 1dc1 1E       		.uleb128 0x1e
 7001 1dc2 34000000 		.4byte	.LASF288
 7002 1dc6 8801     		.2byte	0x188
 7003 1dc8 00000000 		.4byte	.LFB457
ARM GAS  C:\Users\DEVELO~1\AppData\Local\Temp\ccuGzkMt.s 			page 124


 7004 1dcc 58000000 		.4byte	.LFE457-.LFB457
 7005 1dd0 01       		.uleb128 0x1
 7006 1dd1 9C       		.byte	0x9c
 7007 1dd2 0B1E0000 		.4byte	0x1e0b
 7008 1dd6 24       		.uleb128 0x24
 7009 1dd7 4C030000 		.4byte	.LASF264
 7010 1ddb 8801     		.2byte	0x188
 7011 1ddd 1F       		.byte	0x1f
 7012 1dde AE120000 		.4byte	0x12ae
 7013 1de2 01       		.uleb128 0x1
 7014 1de3 50       		.byte	0x50
 7015 1de4 09       		.uleb128 0x9
 7016 1de5 2A200000 		.4byte	0x202a
 7017 1de9 2C000000 		.4byte	.LBI189
 7018 1ded 01       		.byte	.LVU180
 7019 1dee 2C000000 		.4byte	.LBB189
 7020 1df2 2C000000 		.4byte	.LBE189-.LBB189
 7021 1df6 01       		.byte	0x1
 7022 1df7 9301     		.2byte	0x193
 7023 1df9 07       		.byte	0x7
 7024 1dfa 55       		.uleb128 0x55
 7025 1dfb 45200000 		.4byte	0x2045
 7026 1dff 01       		.byte	0x1
 7027 1e00 56       		.uleb128 0x56
 7028 1e01 38200000 		.4byte	0x2038
 7029 1e05 00000100 		.4byte	0x10000
 7030 1e09 00       		.byte	0
 7031 1e0a 00       		.byte	0
 7032 1e0b 1E       		.uleb128 0x1e
 7033 1e0c B0000000 		.4byte	.LASF289
 7034 1e10 6C01     		.2byte	0x16c
 7035 1e12 00000000 		.4byte	.LFB456
 7036 1e16 34000000 		.4byte	.LFE456-.LFB456
 7037 1e1a 01       		.uleb128 0x1
 7038 1e1b 9C       		.byte	0x9c
 7039 1e1c 311E0000 		.4byte	0x1e31
 7040 1e20 08       		.uleb128 0x8
 7041 1e21 0A000000 		.4byte	.LVL24
 7042 1e25 C4120000 		.4byte	0x12c4
 7043 1e29 04       		.uleb128 0x4
 7044 1e2a 01       		.uleb128 0x1
 7045 1e2b 50       		.byte	0x50
 7046 1e2c 02       		.uleb128 0x2
 7047 1e2d 74       		.byte	0x74
 7048 1e2e 00       		.sleb128 0
 7049 1e2f 00       		.byte	0
 7050 1e30 00       		.byte	0
 7051 1e31 22       		.uleb128 0x22
 7052 1e32 9E070000 		.4byte	.LASF296
 7053 1e36 01       		.byte	0x1
 7054 1e37 4E01     		.2byte	0x14e
 7055 1e39 0D       		.byte	0xd
 7056 1e3a 01       		.byte	0x1
 7057 1e3b 701E0000 		.4byte	0x1e70
 7058 1e3f 0E       		.uleb128 0xe
 7059 1e40 4C030000 		.4byte	.LASF264
 7060 1e44 01       		.byte	0x1
ARM GAS  C:\Users\DEVELO~1\AppData\Local\Temp\ccuGzkMt.s 			page 125


 7061 1e45 4E01     		.2byte	0x14e
 7062 1e47 2E       		.byte	0x2e
 7063 1e48 AE120000 		.4byte	0x12ae
 7064 1e4c 1B       		.uleb128 0x1b
 7065 1e4d 6E00     		.ascii	"n\000"
 7066 1e4f 01       		.byte	0x1
 7067 1e50 4F01     		.2byte	0x14f
 7068 1e52 2C       		.byte	0x2c
 7069 1e53 FC000000 		.4byte	0xfc
 7070 1e57 0E       		.uleb128 0xe
 7071 1e58 410E0000 		.4byte	.LASF241
 7072 1e5c 01       		.byte	0x1
 7073 1e5d 5001     		.2byte	0x150
 7074 1e5f 2D       		.byte	0x2d
 7075 1e60 D90F0000 		.4byte	0xfd9
 7076 1e64 3D       		.uleb128 0x3d
 7077 1e65 73746100 		.ascii	"sta\000"
 7078 1e69 5101     		.2byte	0x151
 7079 1e6b FC000000 		.4byte	0xfc
 7080 1e6f 00       		.byte	0
 7081 1e70 57       		.uleb128 0x57
 7082 1e71 FE0C0000 		.4byte	.LASF320
 7083 1e75 01       		.byte	0x1
 7084 1e76 3001     		.2byte	0x130
 7085 1e78 0D       		.byte	0xd
 7086 1e79 00000000 		.4byte	.LFB454
 7087 1e7d 34000000 		.4byte	.LFE454-.LFB454
 7088 1e81 01       		.uleb128 0x1
 7089 1e82 9C       		.byte	0x9c
 7090 1e83 B91E0000 		.4byte	0x1eb9
 7091 1e87 24       		.uleb128 0x24
 7092 1e88 4C030000 		.4byte	.LASF264
 7093 1e8c 3001     		.2byte	0x130
 7094 1e8e 2F       		.byte	0x2f
 7095 1e8f AE120000 		.4byte	0x12ae
 7096 1e93 01       		.uleb128 0x1
 7097 1e94 50       		.byte	0x50
 7098 1e95 3E       		.uleb128 0x3e
 7099 1e96 73746100 		.ascii	"sta\000"
 7100 1e9a 3001     		.2byte	0x130
 7101 1e9c 3E       		.byte	0x3e
 7102 1e9d FC000000 		.4byte	0xfc
 7103 1ea1 01       		.uleb128 0x1
 7104 1ea2 51       		.byte	0x51
 7105 1ea3 58       		.uleb128 0x58
 7106 1ea4 55040000 		.4byte	.LASF237
 7107 1ea8 01       		.byte	0x1
 7108 1ea9 3101     		.2byte	0x131
 7109 1eab 0C       		.byte	0xc
 7110 1eac FC000000 		.4byte	0xfc
 7111 1eb0 B4060000 		.4byte	.LLST0
 7112 1eb4 B0060000 		.4byte	.LVUS0
 7113 1eb8 00       		.byte	0
 7114 1eb9 3F       		.uleb128 0x3f
 7115 1eba 4A0D0000 		.4byte	.LASF290
 7116 1ebe 01       		.byte	0x1
 7117 1ebf 0601     		.2byte	0x106
ARM GAS  C:\Users\DEVELO~1\AppData\Local\Temp\ccuGzkMt.s 			page 126


 7118 1ec1 0D       		.byte	0xd
 7119 1ec2 D70E0000 		.4byte	0xed7
 7120 1ec6 01       		.byte	0x1
 7121 1ec7 F11E0000 		.4byte	0x1ef1
 7122 1ecb 0E       		.uleb128 0xe
 7123 1ecc 4C030000 		.4byte	.LASF264
 7124 1ed0 01       		.byte	0x1
 7125 1ed1 0601     		.2byte	0x106
 7126 1ed3 35       		.byte	0x35
 7127 1ed4 AE120000 		.4byte	0x12ae
 7128 1ed8 1B       		.uleb128 0x1b
 7129 1ed9 6E00     		.ascii	"n\000"
 7130 1edb 01       		.byte	0x1
 7131 1edc 0601     		.2byte	0x106
 7132 1ede 44       		.byte	0x44
 7133 1edf FC000000 		.4byte	0xfc
 7134 1ee3 0E       		.uleb128 0xe
 7135 1ee4 410E0000 		.4byte	.LASF241
 7136 1ee8 01       		.byte	0x1
 7137 1ee9 0701     		.2byte	0x107
 7138 1eeb 34       		.byte	0x34
 7139 1eec D90F0000 		.4byte	0xfd9
 7140 1ef0 00       		.byte	0
 7141 1ef1 28       		.uleb128 0x28
 7142 1ef2 88030000 		.4byte	.LASF291
 7143 1ef6 E1       		.byte	0xe1
 7144 1ef7 0D       		.byte	0xd
 7145 1ef8 D70E0000 		.4byte	0xed7
 7146 1efc 01       		.byte	0x1
 7147 1efd 2C1F0000 		.4byte	0x1f2c
 7148 1f01 1D       		.uleb128 0x1d
 7149 1f02 4C030000 		.4byte	.LASF264
 7150 1f06 E1       		.byte	0xe1
 7151 1f07 2E       		.byte	0x2e
 7152 1f08 AE120000 		.4byte	0x12ae
 7153 1f0c 1D       		.uleb128 0x1d
 7154 1f0d BD0C0000 		.4byte	.LASF267
 7155 1f11 E1       		.byte	0xe1
 7156 1f12 3D       		.byte	0x3d
 7157 1f13 FC000000 		.4byte	0xfc
 7158 1f17 29       		.uleb128 0x29
 7159 1f18 6E00     		.ascii	"n\000"
 7160 1f1a E2       		.byte	0xe2
 7161 1f1b 2C       		.byte	0x2c
 7162 1f1c FC000000 		.4byte	0xfc
 7163 1f20 1D       		.uleb128 0x1d
 7164 1f21 410E0000 		.4byte	.LASF241
 7165 1f25 E2       		.byte	0xe2
 7166 1f26 39       		.byte	0x39
 7167 1f27 D90F0000 		.4byte	0xfd9
 7168 1f2b 00       		.byte	0
 7169 1f2c 28       		.uleb128 0x28
 7170 1f2d AD020000 		.4byte	.LASF292
 7171 1f31 B9       		.byte	0xb9
 7172 1f32 0D       		.byte	0xd
 7173 1f33 D70E0000 		.4byte	0xed7
 7174 1f37 01       		.byte	0x1
ARM GAS  C:\Users\DEVELO~1\AppData\Local\Temp\ccuGzkMt.s 			page 127


 7175 1f38 671F0000 		.4byte	0x1f67
 7176 1f3c 1D       		.uleb128 0x1d
 7177 1f3d 4C030000 		.4byte	.LASF264
 7178 1f41 B9       		.byte	0xb9
 7179 1f42 2D       		.byte	0x2d
 7180 1f43 AE120000 		.4byte	0x12ae
 7181 1f47 1D       		.uleb128 0x1d
 7182 1f48 BD0C0000 		.4byte	.LASF267
 7183 1f4c B9       		.byte	0xb9
 7184 1f4d 3C       		.byte	0x3c
 7185 1f4e FC000000 		.4byte	0xfc
 7186 1f52 29       		.uleb128 0x29
 7187 1f53 6E00     		.ascii	"n\000"
 7188 1f55 BA       		.byte	0xba
 7189 1f56 2B       		.byte	0x2b
 7190 1f57 FC000000 		.4byte	0xfc
 7191 1f5b 1D       		.uleb128 0x1d
 7192 1f5c 410E0000 		.4byte	.LASF241
 7193 1f60 BA       		.byte	0xba
 7194 1f61 38       		.byte	0x38
 7195 1f62 D90F0000 		.4byte	0xfd9
 7196 1f66 00       		.byte	0
 7197 1f67 28       		.uleb128 0x28
 7198 1f68 7F0A0000 		.4byte	.LASF293
 7199 1f6c 8B       		.byte	0x8b
 7200 1f6d 0D       		.byte	0xd
 7201 1f6e D70E0000 		.4byte	0xed7
 7202 1f72 01       		.byte	0x1
 7203 1f73 A21F0000 		.4byte	0x1fa2
 7204 1f77 1D       		.uleb128 0x1d
 7205 1f78 4C030000 		.4byte	.LASF264
 7206 1f7c 8B       		.byte	0x8b
 7207 1f7d 33       		.byte	0x33
 7208 1f7e AE120000 		.4byte	0x12ae
 7209 1f82 29       		.uleb128 0x29
 7210 1f83 62756600 		.ascii	"buf\000"
 7211 1f87 8C       		.byte	0x8c
 7212 1f88 31       		.byte	0x31
 7213 1f89 C9030000 		.4byte	0x3c9
 7214 1f8d 1D       		.uleb128 0x1d
 7215 1f8e AF050000 		.4byte	.LASF276
 7216 1f92 8C       		.byte	0x8c
 7217 1f93 3F       		.byte	0x3f
 7218 1f94 FC000000 		.4byte	0xfc
 7219 1f98 2E       		.uleb128 0x2e
 7220 1f99 F60D0000 		.4byte	.LASF273
 7221 1f9d B21F0000 		.4byte	0x1fb2
 7222 1fa1 00       		.byte	0
 7223 1fa2 15       		.uleb128 0x15
 7224 1fa3 C4000000 		.4byte	0xc4
 7225 1fa7 B21F0000 		.4byte	0x1fb2
 7226 1fab 16       		.uleb128 0x16
 7227 1fac 39000000 		.4byte	0x39
 7228 1fb0 1A       		.byte	0x1a
 7229 1fb1 00       		.byte	0
 7230 1fb2 19       		.uleb128 0x19
 7231 1fb3 A21F0000 		.4byte	0x1fa2
ARM GAS  C:\Users\DEVELO~1\AppData\Local\Temp\ccuGzkMt.s 			page 128


 7232 1fb7 28       		.uleb128 0x28
 7233 1fb8 08020000 		.4byte	.LASF294
 7234 1fbc 77       		.byte	0x77
 7235 1fbd 1F       		.byte	0x1f
 7236 1fbe FC000000 		.4byte	0xfc
 7237 1fc2 03       		.byte	0x3
 7238 1fc3 E91F0000 		.4byte	0x1fe9
 7239 1fc7 1D       		.uleb128 0x1d
 7240 1fc8 4C030000 		.4byte	.LASF264
 7241 1fcc 77       		.byte	0x77
 7242 1fcd 3E       		.byte	0x3e
 7243 1fce AE120000 		.4byte	0x12ae
 7244 1fd2 29       		.uleb128 0x29
 7245 1fd3 6D7300   		.ascii	"ms\000"
 7246 1fd6 78       		.byte	0x78
 7247 1fd7 3C       		.byte	0x3c
 7248 1fd8 FC000000 		.4byte	0xfc
 7249 1fdc 59       		.uleb128 0x59
 7250 1fdd 64697600 		.ascii	"div\000"
 7251 1fe1 01       		.byte	0x1
 7252 1fe2 79       		.byte	0x79
 7253 1fe3 0C       		.byte	0xc
 7254 1fe4 FC000000 		.4byte	0xfc
 7255 1fe8 00       		.byte	0
 7256 1fe9 28       		.uleb128 0x28
 7257 1fea 62080000 		.4byte	.LASF295
 7258 1fee 60       		.byte	0x60
 7259 1fef 11       		.byte	0x11
 7260 1ff0 FC000000 		.4byte	0xfc
 7261 1ff4 01       		.byte	0x1
 7262 1ff5 0E200000 		.4byte	0x200e
 7263 1ff9 1D       		.uleb128 0x1d
 7264 1ffa 4C030000 		.4byte	.LASF264
 7265 1ffe 60       		.byte	0x60
 7266 1fff 2B       		.byte	0x2b
 7267 2000 AE120000 		.4byte	0x12ae
 7268 2004 29       		.uleb128 0x29
 7269 2005 6600     		.ascii	"f\000"
 7270 2007 60       		.byte	0x60
 7271 2008 3A       		.byte	0x3a
 7272 2009 FC000000 		.4byte	0xfc
 7273 200d 00       		.byte	0
 7274 200e 22       		.uleb128 0x22
 7275 200f 5B0A0000 		.4byte	.LASF297
 7276 2013 06       		.byte	0x6
 7277 2014 1C03     		.2byte	0x31c
 7278 2016 16       		.byte	0x16
 7279 2017 03       		.byte	0x3
 7280 2018 2A200000 		.4byte	0x202a
 7281 201c 0E       		.uleb128 0xe
 7282 201d BD070000 		.4byte	.LASF62
 7283 2021 06       		.byte	0x6
 7284 2022 1C03     		.2byte	0x31c
 7285 2024 2E       		.byte	0x2e
 7286 2025 FC000000 		.4byte	0xfc
 7287 2029 00       		.byte	0
 7288 202a 22       		.uleb128 0x22
ARM GAS  C:\Users\DEVELO~1\AppData\Local\Temp\ccuGzkMt.s 			page 129


 7289 202b 310A0000 		.4byte	.LASF298
 7290 202f 06       		.byte	0x6
 7291 2030 FC02     		.2byte	0x2fc
 7292 2032 16       		.byte	0x16
 7293 2033 03       		.byte	0x3
 7294 2034 52200000 		.4byte	0x2052
 7295 2038 0E       		.uleb128 0xe
 7296 2039 BD070000 		.4byte	.LASF62
 7297 203d 06       		.byte	0x6
 7298 203e FC02     		.2byte	0x2fc
 7299 2040 2D       		.byte	0x2d
 7300 2041 FC000000 		.4byte	0xfc
 7301 2045 1B       		.uleb128 0x1b
 7302 2046 6C7000   		.ascii	"lp\000"
 7303 2049 06       		.byte	0x6
 7304 204a FC02     		.2byte	0x2fc
 7305 204c 38       		.byte	0x38
 7306 204d D70E0000 		.4byte	0xed7
 7307 2051 00       		.byte	0
 7308 2052 22       		.uleb128 0x22
 7309 2053 160E0000 		.4byte	.LASF299
 7310 2057 02       		.byte	0x2
 7311 2058 4503     		.2byte	0x345
 7312 205a 14       		.byte	0x14
 7313 205b 03       		.byte	0x3
 7314 205c 7B200000 		.4byte	0x207b
 7315 2060 1B       		.uleb128 0x1b
 7316 2061 74727000 		.ascii	"trp\000"
 7317 2065 02       		.byte	0x2
 7318 2066 4503     		.2byte	0x345
 7319 2068 3A       		.byte	0x3a
 7320 2069 AE0D0000 		.4byte	0xdae
 7321 206d 1B       		.uleb128 0x1b
 7322 206e 6D736700 		.ascii	"msg\000"
 7323 2072 02       		.byte	0x2
 7324 2073 4503     		.2byte	0x345
 7325 2075 45       		.byte	0x45
 7326 2076 6B010000 		.4byte	0x16b
 7327 207a 00       		.byte	0
 7328 207b 3F       		.uleb128 0x3f
 7329 207c 2B030000 		.4byte	.LASF300
 7330 2080 02       		.byte	0x2
 7331 2081 1D03     		.2byte	0x31d
 7332 2083 15       		.byte	0x15
 7333 2084 6B010000 		.4byte	0x16b
 7334 2088 03       		.byte	0x3
 7335 2089 9B200000 		.4byte	0x209b
 7336 208d 1B       		.uleb128 0x1b
 7337 208e 74727000 		.ascii	"trp\000"
 7338 2092 02       		.byte	0x2
 7339 2093 1D03     		.2byte	0x31d
 7340 2095 3C       		.byte	0x3c
 7341 2096 AE0D0000 		.4byte	0xdae
 7342 209a 00       		.byte	0
 7343 209b 22       		.uleb128 0x22
 7344 209c C7070000 		.4byte	.LASF301
 7345 20a0 02       		.byte	0x2
ARM GAS  C:\Users\DEVELO~1\AppData\Local\Temp\ccuGzkMt.s 			page 130


 7346 20a1 0E03     		.2byte	0x30e
 7347 20a3 14       		.byte	0x14
 7348 20a4 03       		.byte	0x3
 7349 20a5 B7200000 		.4byte	0x20b7
 7350 20a9 0E       		.uleb128 0xe
 7351 20aa A30A0000 		.4byte	.LASF302
 7352 20ae 02       		.byte	0x2
 7353 20af 0E03     		.2byte	0x30e
 7354 20b1 32       		.byte	0x32
 7355 20b2 B1030000 		.4byte	0x3b1
 7356 20b6 00       		.byte	0
 7357 20b7 18       		.uleb128 0x18
 7358 20b8 2F0B0000 		.4byte	.LASF303
 7359 20bc 02       		.byte	0x2
 7360 20bd 5E02     		.2byte	0x25e
 7361 20bf 14       		.byte	0x14
 7362 20c0 18       		.uleb128 0x18
 7363 20c1 3D050000 		.4byte	.LASF304
 7364 20c5 02       		.byte	0x2
 7365 20c6 5302     		.2byte	0x253
 7366 20c8 14       		.byte	0x14
 7367 20c9 18       		.uleb128 0x18
 7368 20ca 98040000 		.4byte	.LASF305
 7369 20ce 02       		.byte	0x2
 7370 20cf 4802     		.2byte	0x248
 7371 20d1 14       		.byte	0x14
 7372 20d2 18       		.uleb128 0x18
 7373 20d3 0A0C0000 		.4byte	.LASF306
 7374 20d7 02       		.byte	0x2
 7375 20d8 3D02     		.2byte	0x23d
 7376 20da 14       		.byte	0x14
 7377 20db 18       		.uleb128 0x18
 7378 20dc 0D050000 		.4byte	.LASF307
 7379 20e0 03       		.byte	0x3
 7380 20e1 B601     		.2byte	0x1b6
 7381 20e3 14       		.byte	0x14
 7382 20e4 18       		.uleb128 0x18
 7383 20e5 DD020000 		.4byte	.LASF308
 7384 20e9 03       		.byte	0x3
 7385 20ea A001     		.2byte	0x1a0
 7386 20ec 14       		.byte	0x14
 7387 20ed 22       		.uleb128 0x22
 7388 20ee 8C040000 		.4byte	.LASF309
 7389 20f2 03       		.byte	0x3
 7390 20f3 8201     		.2byte	0x182
 7391 20f5 14       		.byte	0x14
 7392 20f6 03       		.byte	0x3
 7393 20f7 05210000 		.4byte	0x2105
 7394 20fb 2E       		.uleb128 0x2e
 7395 20fc F60D0000 		.4byte	.LASF273
 7396 2100 15210000 		.4byte	0x2115
 7397 2104 00       		.byte	0
 7398 2105 15       		.uleb128 0x15
 7399 2106 C4000000 		.4byte	0xc4
 7400 210a 15210000 		.4byte	0x2115
 7401 210e 16       		.uleb128 0x16
 7402 210f 39000000 		.4byte	0x39
ARM GAS  C:\Users\DEVELO~1\AppData\Local\Temp\ccuGzkMt.s 			page 131


 7403 2113 0B       		.byte	0xb
 7404 2114 00       		.byte	0
 7405 2115 19       		.uleb128 0x19
 7406 2116 05210000 		.4byte	0x2105
 7407 211a 18       		.uleb128 0x18
 7408 211b E6050000 		.4byte	.LASF310
 7409 211f 03       		.byte	0x3
 7410 2120 7401     		.2byte	0x174
 7411 2122 14       		.byte	0x14
 7412 2123 18       		.uleb128 0x18
 7413 2124 690C0000 		.4byte	.LASF311
 7414 2128 04       		.byte	0x4
 7415 2129 7A03     		.2byte	0x37a
 7416 212b 1B       		.byte	0x1b
 7417 212c 18       		.uleb128 0x18
 7418 212d 59020000 		.4byte	.LASF312
 7419 2131 04       		.byte	0x4
 7420 2132 6F03     		.2byte	0x36f
 7421 2134 1B       		.byte	0x1b
 7422 2135 18       		.uleb128 0x18
 7423 2136 280E0000 		.4byte	.LASF313
 7424 213a 04       		.byte	0x4
 7425 213b 6003     		.2byte	0x360
 7426 213d 1B       		.byte	0x1b
 7427 213e 18       		.uleb128 0x18
 7428 213f 32020000 		.4byte	.LASF314
 7429 2143 04       		.byte	0x4
 7430 2144 4803     		.2byte	0x348
 7431 2146 1B       		.byte	0x1b
 7432 2147 22       		.uleb128 0x22
 7433 2148 AF0A0000 		.4byte	.LASF315
 7434 214c 05       		.byte	0x5
 7435 214d EB01     		.2byte	0x1eb
 7436 214f 1B       		.byte	0x1b
 7437 2150 03       		.byte	0x3
 7438 2151 63210000 		.4byte	0x2163
 7439 2155 0E       		.uleb128 0xe
 7440 2156 F3040000 		.4byte	.LASF316
 7441 215a 05       		.byte	0x5
 7442 215b EB01     		.2byte	0x1eb
 7443 215d 32       		.byte	0x32
 7444 215e FC000000 		.4byte	0xfc
 7445 2162 00       		.byte	0
 7446 2163 2F       		.uleb128 0x2f
 7447 2164 B91E0000 		.4byte	0x1eb9
 7448 2168 00000000 		.4byte	.LFB453
 7449 216c 78000000 		.4byte	.LFE453-.LFB453
 7450 2170 01       		.uleb128 0x1
 7451 2171 9C       		.byte	0x9c
 7452 2172 76230000 		.4byte	0x2376
 7453 2176 01       		.uleb128 0x1
 7454 2177 CB1E0000 		.4byte	0x1ecb
 7455 217b CD060000 		.4byte	.LLST1
 7456 217f C5060000 		.4byte	.LVUS1
 7457 2183 01       		.uleb128 0x1
 7458 2184 D81E0000 		.4byte	0x1ed8
 7459 2188 EF060000 		.4byte	.LLST2
ARM GAS  C:\Users\DEVELO~1\AppData\Local\Temp\ccuGzkMt.s 			page 132


 7460 218c E7060000 		.4byte	.LVUS2
 7461 2190 01       		.uleb128 0x1
 7462 2191 E31E0000 		.4byte	0x1ee3
 7463 2195 11070000 		.4byte	.LLST3
 7464 2199 09070000 		.4byte	.LVUS3
 7465 219d 0D       		.uleb128 0xd
 7466 219e D2200000 		.4byte	0x20d2
 7467 21a2 00000000 		.4byte	.LBI154
 7468 21a6 02       		.byte	.LVU30
 7469 21a7 0C000000 		.4byte	.LLRL4
 7470 21ab 0B01     		.2byte	0x10b
 7471 21ad 03       		.byte	0x3
 7472 21ae F9210000 		.4byte	0x21f9
 7473 21b2 10       		.uleb128 0x10
 7474 21b3 1A210000 		.4byte	0x211a
 7475 21b7 00000000 		.4byte	.LBI155
 7476 21bb 04       		.byte	.LVU32
 7477 21bc 0C000000 		.4byte	.LLRL4
 7478 21c0 02       		.byte	0x2
 7479 21c1 3F02     		.2byte	0x23f
 7480 21c3 03       		.byte	0x3
 7481 21c4 10       		.uleb128 0x10
 7482 21c5 3E210000 		.4byte	0x213e
 7483 21c9 00000000 		.4byte	.LBI156
 7484 21cd 06       		.byte	.LVU34
 7485 21ce 0C000000 		.4byte	.LLRL4
 7486 21d2 03       		.byte	0x3
 7487 21d3 7601     		.2byte	0x176
 7488 21d5 03       		.byte	0x3
 7489 21d6 10       		.uleb128 0x10
 7490 21d7 47210000 		.4byte	0x2147
 7491 21db 00000000 		.4byte	.LBI157
 7492 21df 08       		.byte	.LVU36
 7493 21e0 0C000000 		.4byte	.LLRL4
 7494 21e4 04       		.byte	0x4
 7495 21e5 5003     		.2byte	0x350
 7496 21e7 03       		.byte	0x3
 7497 21e8 01       		.uleb128 0x1
 7498 21e9 55210000 		.4byte	0x2155
 7499 21ed 2D070000 		.4byte	.LLST5
 7500 21f1 2B070000 		.4byte	.LVUS5
 7501 21f5 00       		.byte	0
 7502 21f6 00       		.byte	0
 7503 21f7 00       		.byte	0
 7504 21f8 00       		.byte	0
 7505 21f9 27       		.uleb128 0x27
 7506 21fa C9200000 		.4byte	0x20c9
 7507 21fe 2A000000 		.4byte	.LBI169
 7508 2202 01       		.byte	.LVU61
 7509 2203 2A000000 		.4byte	.LBB169
 7510 2207 04000000 		.4byte	.LBE169-.LBB169
 7511 220b 1E01     		.2byte	0x11e
 7512 220d 03       		.byte	0x3
 7513 220e 65220000 		.4byte	0x2265
 7514 2212 09       		.uleb128 0x9
 7515 2213 ED200000 		.4byte	0x20ed
 7516 2217 2A000000 		.4byte	.LBI170
ARM GAS  C:\Users\DEVELO~1\AppData\Local\Temp\ccuGzkMt.s 			page 133


 7517 221b 03       		.byte	.LVU63
 7518 221c 2A000000 		.4byte	.LBB170
 7519 2220 04000000 		.4byte	.LBE170-.LBB170
 7520 2224 02       		.byte	0x2
 7521 2225 4A02     		.2byte	0x24a
 7522 2227 03       		.byte	0x3
 7523 2228 09       		.uleb128 0x9
 7524 2229 35210000 		.4byte	0x2135
 7525 222d 2A000000 		.4byte	.LBI172
 7526 2231 0A       		.byte	.LVU70
 7527 2232 2A000000 		.4byte	.LBB172
 7528 2236 04000000 		.4byte	.LBE172-.LBB172
 7529 223a 03       		.byte	0x3
 7530 223b 8F01     		.2byte	0x18f
 7531 223d 03       		.byte	0x3
 7532 223e 09       		.uleb128 0x9
 7533 223f 47210000 		.4byte	0x2147
 7534 2243 2A000000 		.4byte	.LBI173
 7535 2247 0C       		.byte	.LVU72
 7536 2248 2A000000 		.4byte	.LBB173
 7537 224c 04000000 		.4byte	.LBE173-.LBB173
 7538 2250 04       		.byte	0x4
 7539 2251 6303     		.2byte	0x363
 7540 2253 03       		.byte	0x3
 7541 2254 01       		.uleb128 0x1
 7542 2255 55210000 		.4byte	0x2155
 7543 2259 3A070000 		.4byte	.LLST6
 7544 225d 38070000 		.4byte	.LVUS6
 7545 2261 00       		.byte	0
 7546 2262 00       		.byte	0
 7547 2263 00       		.byte	0
 7548 2264 00       		.byte	0
 7549 2265 27       		.uleb128 0x27
 7550 2266 C9200000 		.4byte	0x20c9
 7551 226a 36000000 		.4byte	.LBI175
 7552 226e 01       		.byte	.LVU80
 7553 226f 36000000 		.4byte	.LBB175
 7554 2273 04000000 		.4byte	.LBE175-.LBB175
 7555 2277 1701     		.2byte	0x117
 7556 2279 05       		.byte	0x5
 7557 227a D1220000 		.4byte	0x22d1
 7558 227e 09       		.uleb128 0x9
 7559 227f ED200000 		.4byte	0x20ed
 7560 2283 36000000 		.4byte	.LBI176
 7561 2287 03       		.byte	.LVU82
 7562 2288 36000000 		.4byte	.LBB176
 7563 228c 04000000 		.4byte	.LBE176-.LBB176
 7564 2290 02       		.byte	0x2
 7565 2291 4A02     		.2byte	0x24a
 7566 2293 03       		.byte	0x3
 7567 2294 09       		.uleb128 0x9
 7568 2295 35210000 		.4byte	0x2135
 7569 2299 36000000 		.4byte	.LBI178
 7570 229d 0A       		.byte	.LVU89
 7571 229e 36000000 		.4byte	.LBB178
 7572 22a2 04000000 		.4byte	.LBE178-.LBB178
 7573 22a6 03       		.byte	0x3
ARM GAS  C:\Users\DEVELO~1\AppData\Local\Temp\ccuGzkMt.s 			page 134


 7574 22a7 8F01     		.2byte	0x18f
 7575 22a9 03       		.byte	0x3
 7576 22aa 09       		.uleb128 0x9
 7577 22ab 47210000 		.4byte	0x2147
 7578 22af 36000000 		.4byte	.LBI179
 7579 22b3 0C       		.byte	.LVU91
 7580 22b4 36000000 		.4byte	.LBB179
 7581 22b8 04000000 		.4byte	.LBE179-.LBB179
 7582 22bc 04       		.byte	0x4
 7583 22bd 6303     		.2byte	0x363
 7584 22bf 03       		.byte	0x3
 7585 22c0 01       		.uleb128 0x1
 7586 22c1 55210000 		.4byte	0x2155
 7587 22c5 46070000 		.4byte	.LLST7
 7588 22c9 44070000 		.4byte	.LVUS7
 7589 22cd 00       		.byte	0
 7590 22ce 00       		.byte	0
 7591 22cf 00       		.byte	0
 7592 22d0 00       		.byte	0
 7593 22d1 0D       		.uleb128 0xd
 7594 22d2 7B200000 		.4byte	0x207b
 7595 22d6 3E000000 		.4byte	.LBI181
 7596 22da 01       		.byte	.LVU98
 7597 22db 1B000000 		.4byte	.LLRL8
 7598 22df 0E01     		.2byte	0x10e
 7599 22e1 0C       		.byte	0xc
 7600 22e2 0B230000 		.4byte	0x230b
 7601 22e6 01       		.uleb128 0x1
 7602 22e7 8D200000 		.4byte	0x208d
 7603 22eb 56070000 		.4byte	.LLST9
 7604 22ef 50070000 		.4byte	.LVUS9
 7605 22f3 08       		.uleb128 0x8
 7606 22f4 48000000 		.4byte	.LVL17
 7607 22f8 7C120000 		.4byte	0x127c
 7608 22fc 04       		.uleb128 0x4
 7609 22fd 01       		.uleb128 0x1
 7610 22fe 50       		.byte	0x50
 7611 22ff 03       		.uleb128 0x3
 7612 2300 75       		.byte	0x75
 7613 2301 C000     		.sleb128 64
 7614 2303 04       		.uleb128 0x4
 7615 2304 01       		.uleb128 0x1
 7616 2305 51       		.byte	0x51
 7617 2306 02       		.uleb128 0x2
 7618 2307 09       		.byte	0x9
 7619 2308 FF       		.byte	0xff
 7620 2309 00       		.byte	0
 7621 230a 00       		.byte	0
 7622 230b 10       		.uleb128 0x10
 7623 230c CC1A0000 		.4byte	0x1acc
 7624 2310 4C000000 		.4byte	.LBI185
 7625 2314 02       		.byte	.LVU108
 7626 2315 27000000 		.4byte	.LLRL10
 7627 2319 01       		.byte	0x1
 7628 231a 2201     		.2byte	0x122
 7629 231c 0C       		.byte	0xc
 7630 231d 01       		.uleb128 0x1
ARM GAS  C:\Users\DEVELO~1\AppData\Local\Temp\ccuGzkMt.s 			page 135


 7631 231e 021B0000 		.4byte	0x1b02
 7632 2322 75070000 		.4byte	.LLST11
 7633 2326 71070000 		.4byte	.LVUS11
 7634 232a 01       		.uleb128 0x1
 7635 232b F51A0000 		.4byte	0x1af5
 7636 232f 89070000 		.4byte	.LLST12
 7637 2333 85070000 		.4byte	.LVUS12
 7638 2337 01       		.uleb128 0x1
 7639 2338 E81A0000 		.4byte	0x1ae8
 7640 233c 9F070000 		.4byte	.LLST13
 7641 2340 9B070000 		.4byte	.LVUS13
 7642 2344 01       		.uleb128 0x1
 7643 2345 DB1A0000 		.4byte	0x1adb
 7644 2349 B5070000 		.4byte	.LLST14
 7645 234d B1070000 		.4byte	.LVUS14
 7646 2351 0B       		.uleb128 0xb
 7647 2352 27000000 		.4byte	.LLRL10
 7648 2356 11       		.uleb128 0x11
 7649 2357 0F1B0000 		.4byte	0x1b0f
 7650 235b C9070000 		.4byte	.LLST15
 7651 235f C5070000 		.4byte	.LVUS15
 7652 2363 08       		.uleb128 0x8
 7653 2364 74000000 		.4byte	.LVL22
 7654 2368 701E0000 		.4byte	0x1e70
 7655 236c 04       		.uleb128 0x4
 7656 236d 01       		.uleb128 0x1
 7657 236e 50       		.byte	0x50
 7658 236f 02       		.uleb128 0x2
 7659 2370 70       		.byte	0x70
 7660 2371 00       		.sleb128 0
 7661 2372 00       		.byte	0
 7662 2373 00       		.byte	0
 7663 2374 00       		.byte	0
 7664 2375 00       		.byte	0
 7665 2376 2F       		.uleb128 0x2f
 7666 2377 CC1A0000 		.4byte	0x1acc
 7667 237b 00000000 		.4byte	.LFB465
 7668 237f 2C000000 		.4byte	.LFE465-.LFB465
 7669 2383 01       		.uleb128 0x1
 7670 2384 9C       		.byte	0x9c
 7671 2385 D4230000 		.4byte	0x23d4
 7672 2389 01       		.uleb128 0x1
 7673 238a DB1A0000 		.4byte	0x1adb
 7674 238e E1070000 		.4byte	.LLST40
 7675 2392 D9070000 		.4byte	.LVUS40
 7676 2396 01       		.uleb128 0x1
 7677 2397 E81A0000 		.4byte	0x1ae8
 7678 239b 05080000 		.4byte	.LLST41
 7679 239f 01080000 		.4byte	.LVUS41
 7680 23a3 01       		.uleb128 0x1
 7681 23a4 F51A0000 		.4byte	0x1af5
 7682 23a8 1C080000 		.4byte	.LLST42
 7683 23ac 18080000 		.4byte	.LVUS42
 7684 23b0 01       		.uleb128 0x1
 7685 23b1 021B0000 		.4byte	0x1b02
 7686 23b5 33080000 		.4byte	.LLST43
 7687 23b9 2F080000 		.4byte	.LVUS43
ARM GAS  C:\Users\DEVELO~1\AppData\Local\Temp\ccuGzkMt.s 			page 136


 7688 23bd 11       		.uleb128 0x11
 7689 23be 0F1B0000 		.4byte	0x1b0f
 7690 23c2 4A080000 		.4byte	.LLST44
 7691 23c6 46080000 		.4byte	.LVUS44
 7692 23ca 2D       		.uleb128 0x2d
 7693 23cb 28000000 		.4byte	.LVL70
 7694 23cf 701E0000 		.4byte	0x1e70
 7695 23d3 00       		.byte	0
 7696 23d4 2F       		.uleb128 0x2f
 7697 23d5 48160000 		.4byte	0x1648
 7698 23d9 00000000 		.4byte	.LFB468
 7699 23dd 74010000 		.4byte	.LFE468-.LFB468
 7700 23e1 01       		.uleb128 0x1
 7701 23e2 9C       		.byte	0x9c
 7702 23e3 60270000 		.4byte	0x2760
 7703 23e7 01       		.uleb128 0x1
 7704 23e8 57160000 		.4byte	0x1657
 7705 23ec 66080000 		.4byte	.LLST81
 7706 23f0 5A080000 		.4byte	.LVUS81
 7707 23f4 01       		.uleb128 0x1
 7708 23f5 64160000 		.4byte	0x1664
 7709 23f9 9D080000 		.4byte	.LLST82
 7710 23fd 93080000 		.4byte	.LVUS82
 7711 2401 01       		.uleb128 0x1
 7712 2402 71160000 		.4byte	0x1671
 7713 2406 CD080000 		.4byte	.LLST83
 7714 240a C3080000 		.4byte	.LVUS83
 7715 240e 01       		.uleb128 0x1
 7716 240f 7E160000 		.4byte	0x167e
 7717 2413 F7080000 		.4byte	.LLST84
 7718 2417 F3080000 		.4byte	.LVUS84
 7719 241b 40       		.uleb128 0x40
 7720 241c B71F0000 		.4byte	0x1fb7
 7721 2420 E2000000 		.4byte	.LLRL85
 7722 2424 D202     		.2byte	0x2d2
 7723 2426 48240000 		.4byte	0x2448
 7724 242a 1C       		.uleb128 0x1c
 7725 242b D21F0000 		.4byte	0x1fd2
 7726 242f 1C       		.uleb128 0x1c
 7727 2430 C71F0000 		.4byte	0x1fc7
 7728 2434 0B       		.uleb128 0xb
 7729 2435 E2000000 		.4byte	.LLRL85
 7730 2439 11       		.uleb128 0x11
 7731 243a DC1F0000 		.4byte	0x1fdc
 7732 243e 0A090000 		.4byte	.LLST86
 7733 2442 08090000 		.4byte	.LVUS86
 7734 2446 00       		.byte	0
 7735 2447 00       		.byte	0
 7736 2448 0D       		.uleb128 0xd
 7737 2449 48160000 		.4byte	0x1648
 7738 244d 40000000 		.4byte	.LBI333
 7739 2451 00       		.byte	.LVU631
 7740 2452 F1000000 		.4byte	.LLRL87
 7741 2456 CD02     		.2byte	0x2cd
 7742 2458 06       		.byte	0x6
 7743 2459 4F270000 		.4byte	0x274f
 7744 245d 01       		.uleb128 0x1
ARM GAS  C:\Users\DEVELO~1\AppData\Local\Temp\ccuGzkMt.s 			page 137


 7745 245e 7E160000 		.4byte	0x167e
 7746 2462 1F090000 		.4byte	.LLST88
 7747 2466 1B090000 		.4byte	.LVUS88
 7748 246a 01       		.uleb128 0x1
 7749 246b 71160000 		.4byte	0x1671
 7750 246f 38090000 		.4byte	.LLST89
 7751 2473 32090000 		.4byte	.LVUS89
 7752 2477 01       		.uleb128 0x1
 7753 2478 64160000 		.4byte	0x1664
 7754 247c 5C090000 		.4byte	.LLST90
 7755 2480 56090000 		.4byte	.LVUS90
 7756 2484 01       		.uleb128 0x1
 7757 2485 57160000 		.4byte	0x1657
 7758 2489 84090000 		.4byte	.LLST91
 7759 248d 7A090000 		.4byte	.LVUS91
 7760 2491 0B       		.uleb128 0xb
 7761 2492 F1000000 		.4byte	.LLRL87
 7762 2496 41       		.uleb128 0x41
 7763 2497 94160000 		.4byte	0x1694
 7764 249b EE000000 		.4byte	.L154
 7765 249f 0D       		.uleb128 0xd
 7766 24a0 2C1F0000 		.4byte	0x1f2c
 7767 24a4 5C000000 		.4byte	.LBI335
 7768 24a8 01       		.byte	.LVU648
 7769 24a9 05010000 		.4byte	.LLRL92
 7770 24ad E402     		.2byte	0x2e4
 7771 24af 07       		.byte	0x7
 7772 24b0 AB250000 		.4byte	0x25ab
 7773 24b4 01       		.uleb128 0x1
 7774 24b5 5B1F0000 		.4byte	0x1f5b
 7775 24b9 B4090000 		.4byte	.LLST93
 7776 24bd AC090000 		.4byte	.LVUS93
 7777 24c1 01       		.uleb128 0x1
 7778 24c2 521F0000 		.4byte	0x1f52
 7779 24c6 DA090000 		.4byte	.LLST94
 7780 24ca D2090000 		.4byte	.LVUS94
 7781 24ce 01       		.uleb128 0x1
 7782 24cf 471F0000 		.4byte	0x1f47
 7783 24d3 000A0000 		.4byte	.LLST95
 7784 24d7 F8090000 		.4byte	.LVUS95
 7785 24db 01       		.uleb128 0x1
 7786 24dc 3C1F0000 		.4byte	0x1f3c
 7787 24e0 260A0000 		.4byte	.LLST96
 7788 24e4 1E0A0000 		.4byte	.LVUS96
 7789 24e8 42       		.uleb128 0x42
 7790 24e9 CC1A0000 		.4byte	0x1acc
 7791 24ed 6C000000 		.4byte	.LBI337
 7792 24f1 01       		.byte	.LVU659
 7793 24f2 1B010000 		.4byte	.LLRL97
 7794 24f6 C3       		.byte	0xc3
 7795 24f7 4B250000 		.4byte	0x254b
 7796 24fb 01       		.uleb128 0x1
 7797 24fc 021B0000 		.4byte	0x1b02
 7798 2500 480A0000 		.4byte	.LLST98
 7799 2504 440A0000 		.4byte	.LVUS98
 7800 2508 1C       		.uleb128 0x1c
 7801 2509 F51A0000 		.4byte	0x1af5
ARM GAS  C:\Users\DEVELO~1\AppData\Local\Temp\ccuGzkMt.s 			page 138


 7802 250d 01       		.uleb128 0x1
 7803 250e E81A0000 		.4byte	0x1ae8
 7804 2512 5E0A0000 		.4byte	.LLST99
 7805 2516 5A0A0000 		.4byte	.LVUS99
 7806 251a 01       		.uleb128 0x1
 7807 251b DB1A0000 		.4byte	0x1adb
 7808 251f 760A0000 		.4byte	.LLST100
 7809 2523 720A0000 		.4byte	.LVUS100
 7810 2527 0B       		.uleb128 0xb
 7811 2528 1B010000 		.4byte	.LLRL97
 7812 252c 11       		.uleb128 0x11
 7813 252d 0F1B0000 		.4byte	0x1b0f
 7814 2531 8C0A0000 		.4byte	.LLST101
 7815 2535 880A0000 		.4byte	.LVUS101
 7816 2539 08       		.uleb128 0x8
 7817 253a 08010000 		.4byte	.LVL140
 7818 253e 701E0000 		.4byte	0x1e70
 7819 2542 04       		.uleb128 0x4
 7820 2543 01       		.uleb128 0x1
 7821 2544 50       		.byte	0x50
 7822 2545 02       		.uleb128 0x2
 7823 2546 70       		.byte	0x70
 7824 2547 00       		.sleb128 0
 7825 2548 00       		.byte	0
 7826 2549 00       		.byte	0
 7827 254a 00       		.byte	0
 7828 254b 43       		.uleb128 0x43
 7829 254c CC1A0000 		.4byte	0x1acc
 7830 2550 B6000000 		.4byte	.LBI344
 7831 2554 02       		.byte	.LVU707
 7832 2555 2F010000 		.4byte	.LLRL102
 7833 2559 CA       		.byte	0xca
 7834 255a 01       		.uleb128 0x1
 7835 255b 021B0000 		.4byte	0x1b02
 7836 255f A20A0000 		.4byte	.LLST103
 7837 2563 9E0A0000 		.4byte	.LVUS103
 7838 2567 1C       		.uleb128 0x1c
 7839 2568 F51A0000 		.4byte	0x1af5
 7840 256c 01       		.uleb128 0x1
 7841 256d E81A0000 		.4byte	0x1ae8
 7842 2571 B80A0000 		.4byte	.LLST104
 7843 2575 B40A0000 		.4byte	.LVUS104
 7844 2579 01       		.uleb128 0x1
 7845 257a DB1A0000 		.4byte	0x1adb
 7846 257e D00A0000 		.4byte	.LLST105
 7847 2582 CC0A0000 		.4byte	.LVUS105
 7848 2586 0B       		.uleb128 0xb
 7849 2587 2F010000 		.4byte	.LLRL102
 7850 258b 11       		.uleb128 0x11
 7851 258c 0F1B0000 		.4byte	0x1b0f
 7852 2590 E60A0000 		.4byte	.LLST106
 7853 2594 E20A0000 		.4byte	.LVUS106
 7854 2598 08       		.uleb128 0x8
 7855 2599 46010000 		.4byte	.LVL147
 7856 259d 701E0000 		.4byte	0x1e70
 7857 25a1 04       		.uleb128 0x4
 7858 25a2 01       		.uleb128 0x1
ARM GAS  C:\Users\DEVELO~1\AppData\Local\Temp\ccuGzkMt.s 			page 139


 7859 25a3 50       		.byte	0x50
 7860 25a4 02       		.uleb128 0x2
 7861 25a5 70       		.byte	0x70
 7862 25a6 00       		.sleb128 0
 7863 25a7 00       		.byte	0
 7864 25a8 00       		.byte	0
 7865 25a9 00       		.byte	0
 7866 25aa 00       		.byte	0
 7867 25ab 0D       		.uleb128 0xd
 7868 25ac 311E0000 		.4byte	0x1e31
 7869 25b0 A8000000 		.4byte	.LBI354
 7870 25b4 00       		.byte	.LVU693
 7871 25b5 40010000 		.4byte	.LLRL107
 7872 25b9 F402     		.2byte	0x2f4
 7873 25bb 03       		.byte	0x3
 7874 25bc 11270000 		.4byte	0x2711
 7875 25c0 01       		.uleb128 0x1
 7876 25c1 571E0000 		.4byte	0x1e57
 7877 25c5 020B0000 		.4byte	.LLST108
 7878 25c9 F80A0000 		.4byte	.LVUS108
 7879 25cd 01       		.uleb128 0x1
 7880 25ce 4C1E0000 		.4byte	0x1e4c
 7881 25d2 320B0000 		.4byte	.LLST109
 7882 25d6 2A0B0000 		.4byte	.LVUS109
 7883 25da 01       		.uleb128 0x1
 7884 25db 3F1E0000 		.4byte	0x1e3f
 7885 25df 5D0B0000 		.4byte	.LLST110
 7886 25e3 4F0B0000 		.4byte	.LVUS110
 7887 25e7 0B       		.uleb128 0xb
 7888 25e8 40010000 		.4byte	.LLRL107
 7889 25ec 11       		.uleb128 0x11
 7890 25ed 641E0000 		.4byte	0x1e64
 7891 25f1 950B0000 		.4byte	.LLST111
 7892 25f5 8D0B0000 		.4byte	.LVUS111
 7893 25f9 0D       		.uleb128 0xd
 7894 25fa 311E0000 		.4byte	0x1e31
 7895 25fe 18010000 		.4byte	.LBI356
 7896 2602 01       		.byte	.LVU774
 7897 2603 6F010000 		.4byte	.LLRL112
 7898 2607 4E01     		.2byte	0x14e
 7899 2609 0D       		.byte	0xd
 7900 260a AB260000 		.4byte	0x26ab
 7901 260e 01       		.uleb128 0x1
 7902 260f 4C1E0000 		.4byte	0x1e4c
 7903 2613 B50B0000 		.4byte	.LLST113
 7904 2617 B10B0000 		.4byte	.LVUS113
 7905 261b 01       		.uleb128 0x1
 7906 261c 571E0000 		.4byte	0x1e57
 7907 2620 C90B0000 		.4byte	.LLST114
 7908 2624 C50B0000 		.4byte	.LVUS114
 7909 2628 01       		.uleb128 0x1
 7910 2629 3F1E0000 		.4byte	0x1e3f
 7911 262d DF0B0000 		.4byte	.LLST115
 7912 2631 D90B0000 		.4byte	.LVUS115
 7913 2635 0B       		.uleb128 0xb
 7914 2636 6F010000 		.4byte	.LLRL112
 7915 263a 44       		.uleb128 0x44
ARM GAS  C:\Users\DEVELO~1\AppData\Local\Temp\ccuGzkMt.s 			page 140


 7916 263b 641E0000 		.4byte	0x1e64
 7917 263f 10       		.uleb128 0x10
 7918 2640 CC1A0000 		.4byte	0x1acc
 7919 2644 18010000 		.4byte	.LBI358
 7920 2648 03       		.byte	.LVU776
 7921 2649 6F010000 		.4byte	.LLRL112
 7922 264d 01       		.byte	0x1
 7923 264e 5B01     		.2byte	0x15b
 7924 2650 05       		.byte	0x5
 7925 2651 01       		.uleb128 0x1
 7926 2652 021B0000 		.4byte	0x1b02
 7927 2656 F80B0000 		.4byte	.LLST116
 7928 265a F40B0000 		.4byte	.LVUS116
 7929 265e 01       		.uleb128 0x1
 7930 265f F51A0000 		.4byte	0x1af5
 7931 2663 0C0C0000 		.4byte	.LLST117
 7932 2667 080C0000 		.4byte	.LVUS117
 7933 266b 01       		.uleb128 0x1
 7934 266c E81A0000 		.4byte	0x1ae8
 7935 2670 220C0000 		.4byte	.LLST118
 7936 2674 1E0C0000 		.4byte	.LVUS118
 7937 2678 01       		.uleb128 0x1
 7938 2679 DB1A0000 		.4byte	0x1adb
 7939 267d 3A0C0000 		.4byte	.LLST119
 7940 2681 340C0000 		.4byte	.LVUS119
 7941 2685 0B       		.uleb128 0xb
 7942 2686 6F010000 		.4byte	.LLRL112
 7943 268a 11       		.uleb128 0x11
 7944 268b 0F1B0000 		.4byte	0x1b0f
 7945 268f 530C0000 		.4byte	.LLST120
 7946 2693 4F0C0000 		.4byte	.LVUS120
 7947 2697 08       		.uleb128 0x8
 7948 2698 6A010000 		.4byte	.LVL152
 7949 269c 701E0000 		.4byte	0x1e70
 7950 26a0 04       		.uleb128 0x4
 7951 26a1 01       		.uleb128 0x1
 7952 26a2 50       		.byte	0x50
 7953 26a3 02       		.uleb128 0x2
 7954 26a4 70       		.byte	0x70
 7955 26a5 00       		.sleb128 0
 7956 26a6 00       		.byte	0
 7957 26a7 00       		.byte	0
 7958 26a8 00       		.byte	0
 7959 26a9 00       		.byte	0
 7960 26aa 00       		.byte	0
 7961 26ab 1F       		.uleb128 0x1f
 7962 26ac B4000000 		.4byte	.LVL129
 7963 26b0 701E0000 		.4byte	0x1e70
 7964 26b4 C5260000 		.4byte	0x26c5
 7965 26b8 04       		.uleb128 0x4
 7966 26b9 01       		.uleb128 0x1
 7967 26ba 50       		.byte	0x50
 7968 26bb 02       		.uleb128 0x2
 7969 26bc 77       		.byte	0x77
 7970 26bd 00       		.sleb128 0
 7971 26be 04       		.uleb128 0x4
 7972 26bf 01       		.uleb128 0x1
ARM GAS  C:\Users\DEVELO~1\AppData\Local\Temp\ccuGzkMt.s 			page 141


 7973 26c0 51       		.byte	0x51
 7974 26c1 02       		.uleb128 0x2
 7975 26c2 71       		.byte	0x71
 7976 26c3 00       		.sleb128 0
 7977 26c4 00       		.byte	0
 7978 26c5 1F       		.uleb128 0x1f
 7979 26c6 00010000 		.4byte	.LVL138
 7980 26ca 701E0000 		.4byte	0x1e70
 7981 26ce DF260000 		.4byte	0x26df
 7982 26d2 04       		.uleb128 0x4
 7983 26d3 01       		.uleb128 0x1
 7984 26d4 50       		.byte	0x50
 7985 26d5 02       		.uleb128 0x2
 7986 26d6 77       		.byte	0x77
 7987 26d7 00       		.sleb128 0
 7988 26d8 04       		.uleb128 0x4
 7989 26d9 01       		.uleb128 0x1
 7990 26da 51       		.byte	0x51
 7991 26db 02       		.uleb128 0x2
 7992 26dc 71       		.byte	0x71
 7993 26dd 00       		.sleb128 0
 7994 26de 00       		.byte	0
 7995 26df 1F       		.uleb128 0x1f
 7996 26e0 18010000 		.4byte	.LVL142
 7997 26e4 701E0000 		.4byte	0x1e70
 7998 26e8 F9260000 		.4byte	0x26f9
 7999 26ec 04       		.uleb128 0x4
 8000 26ed 01       		.uleb128 0x1
 8001 26ee 50       		.byte	0x50
 8002 26ef 02       		.uleb128 0x2
 8003 26f0 77       		.byte	0x77
 8004 26f1 00       		.sleb128 0
 8005 26f2 04       		.uleb128 0x4
 8006 26f3 01       		.uleb128 0x1
 8007 26f4 51       		.byte	0x51
 8008 26f5 02       		.uleb128 0x2
 8009 26f6 71       		.byte	0x71
 8010 26f7 00       		.sleb128 0
 8011 26f8 00       		.byte	0
 8012 26f9 08       		.uleb128 0x8
 8013 26fa 5A010000 		.4byte	.LVL149
 8014 26fe 701E0000 		.4byte	0x1e70
 8015 2702 04       		.uleb128 0x4
 8016 2703 01       		.uleb128 0x1
 8017 2704 50       		.byte	0x50
 8018 2705 02       		.uleb128 0x2
 8019 2706 77       		.byte	0x77
 8020 2707 00       		.sleb128 0
 8021 2708 04       		.uleb128 0x4
 8022 2709 01       		.uleb128 0x1
 8023 270a 51       		.byte	0x51
 8024 270b 02       		.uleb128 0x2
 8025 270c 71       		.byte	0x71
 8026 270d 00       		.sleb128 0
 8027 270e 00       		.byte	0
 8028 270f 00       		.byte	0
 8029 2710 00       		.byte	0
ARM GAS  C:\Users\DEVELO~1\AppData\Local\Temp\ccuGzkMt.s 			page 142


 8030 2711 1F       		.uleb128 0x1f
 8031 2712 9E000000 		.4byte	.LVL126
 8032 2716 B91E0000 		.4byte	0x1eb9
 8033 271a 31270000 		.4byte	0x2731
 8034 271e 04       		.uleb128 0x4
 8035 271f 01       		.uleb128 0x1
 8036 2720 50       		.byte	0x50
 8037 2721 02       		.uleb128 0x2
 8038 2722 77       		.byte	0x77
 8039 2723 00       		.sleb128 0
 8040 2724 04       		.uleb128 0x4
 8041 2725 01       		.uleb128 0x1
 8042 2726 51       		.byte	0x51
 8043 2727 02       		.uleb128 0x2
 8044 2728 78       		.byte	0x78
 8045 2729 00       		.sleb128 0
 8046 272a 04       		.uleb128 0x4
 8047 272b 01       		.uleb128 0x1
 8048 272c 52       		.byte	0x52
 8049 272d 02       		.uleb128 0x2
 8050 272e 76       		.byte	0x76
 8051 272f 00       		.sleb128 0
 8052 2730 00       		.byte	0
 8053 2731 08       		.uleb128 0x8
 8054 2732 E8000000 		.4byte	.LVL135
 8055 2736 B91E0000 		.4byte	0x1eb9
 8056 273a 04       		.uleb128 0x4
 8057 273b 01       		.uleb128 0x1
 8058 273c 50       		.byte	0x50
 8059 273d 02       		.uleb128 0x2
 8060 273e 77       		.byte	0x77
 8061 273f 00       		.sleb128 0
 8062 2740 04       		.uleb128 0x4
 8063 2741 01       		.uleb128 0x1
 8064 2742 51       		.byte	0x51
 8065 2743 02       		.uleb128 0x2
 8066 2744 78       		.byte	0x78
 8067 2745 00       		.sleb128 0
 8068 2746 04       		.uleb128 0x4
 8069 2747 01       		.uleb128 0x1
 8070 2748 52       		.byte	0x52
 8071 2749 02       		.uleb128 0x2
 8072 274a 76       		.byte	0x76
 8073 274b 00       		.sleb128 0
 8074 274c 00       		.byte	0
 8075 274d 00       		.byte	0
 8076 274e 00       		.byte	0
 8077 274f 08       		.uleb128 0x8
 8078 2750 36000000 		.4byte	.LVL115
 8079 2754 98120000 		.4byte	0x1298
 8080 2758 04       		.uleb128 0x4
 8081 2759 01       		.uleb128 0x1
 8082 275a 50       		.byte	0x50
 8083 275b 02       		.uleb128 0x2
 8084 275c 77       		.byte	0x77
 8085 275d 00       		.sleb128 0
 8086 275e 00       		.byte	0
ARM GAS  C:\Users\DEVELO~1\AppData\Local\Temp\ccuGzkMt.s 			page 143


 8087 275f 00       		.byte	0
 8088 2760 2F       		.uleb128 0x2f
 8089 2761 DF150000 		.4byte	0x15df
 8090 2765 00000000 		.4byte	.LFB469
 8091 2769 74010000 		.4byte	.LFE469-.LFB469
 8092 276d 01       		.uleb128 0x1
 8093 276e 9C       		.byte	0x9c
 8094 276f EC2A0000 		.4byte	0x2aec
 8095 2773 01       		.uleb128 0x1
 8096 2774 EE150000 		.4byte	0x15ee
 8097 2778 6F0C0000 		.4byte	.LLST121
 8098 277c 630C0000 		.4byte	.LVUS121
 8099 2780 01       		.uleb128 0x1
 8100 2781 FB150000 		.4byte	0x15fb
 8101 2785 A60C0000 		.4byte	.LLST122
 8102 2789 9C0C0000 		.4byte	.LVUS122
 8103 278d 01       		.uleb128 0x1
 8104 278e 08160000 		.4byte	0x1608
 8105 2792 D60C0000 		.4byte	.LLST123
 8106 2796 CC0C0000 		.4byte	.LVUS123
 8107 279a 01       		.uleb128 0x1
 8108 279b 15160000 		.4byte	0x1615
 8109 279f 000D0000 		.4byte	.LLST124
 8110 27a3 FC0C0000 		.4byte	.LVUS124
 8111 27a7 40       		.uleb128 0x40
 8112 27a8 B71F0000 		.4byte	0x1fb7
 8113 27ac 81010000 		.4byte	.LLRL125
 8114 27b0 0B03     		.2byte	0x30b
 8115 27b2 D4270000 		.4byte	0x27d4
 8116 27b6 1C       		.uleb128 0x1c
 8117 27b7 D21F0000 		.4byte	0x1fd2
 8118 27bb 1C       		.uleb128 0x1c
 8119 27bc C71F0000 		.4byte	0x1fc7
 8120 27c0 0B       		.uleb128 0xb
 8121 27c1 81010000 		.4byte	.LLRL125
 8122 27c5 11       		.uleb128 0x11
 8123 27c6 DC1F0000 		.4byte	0x1fdc
 8124 27ca 130D0000 		.4byte	.LLST126
 8125 27ce 110D0000 		.4byte	.LVUS126
 8126 27d2 00       		.byte	0
 8127 27d3 00       		.byte	0
 8128 27d4 0D       		.uleb128 0xd
 8129 27d5 DF150000 		.4byte	0x15df
 8130 27d9 40000000 		.4byte	.LBI421
 8131 27dd 00       		.byte	.LVU857
 8132 27de 90010000 		.4byte	.LLRL127
 8133 27e2 0603     		.2byte	0x306
 8134 27e4 06       		.byte	0x6
 8135 27e5 DB2A0000 		.4byte	0x2adb
 8136 27e9 01       		.uleb128 0x1
 8137 27ea 15160000 		.4byte	0x1615
 8138 27ee 280D0000 		.4byte	.LLST128
 8139 27f2 240D0000 		.4byte	.LVUS128
 8140 27f6 01       		.uleb128 0x1
 8141 27f7 08160000 		.4byte	0x1608
 8142 27fb 410D0000 		.4byte	.LLST129
 8143 27ff 3B0D0000 		.4byte	.LVUS129
ARM GAS  C:\Users\DEVELO~1\AppData\Local\Temp\ccuGzkMt.s 			page 144


 8144 2803 01       		.uleb128 0x1
 8145 2804 FB150000 		.4byte	0x15fb
 8146 2808 650D0000 		.4byte	.LLST130
 8147 280c 5F0D0000 		.4byte	.LVUS130
 8148 2810 01       		.uleb128 0x1
 8149 2811 EE150000 		.4byte	0x15ee
 8150 2815 8D0D0000 		.4byte	.LLST131
 8151 2819 830D0000 		.4byte	.LVUS131
 8152 281d 0B       		.uleb128 0xb
 8153 281e 90010000 		.4byte	.LLRL127
 8154 2822 41       		.uleb128 0x41
 8155 2823 2B160000 		.4byte	0x162b
 8156 2827 EE000000 		.4byte	.L186
 8157 282b 0D       		.uleb128 0xd
 8158 282c F11E0000 		.4byte	0x1ef1
 8159 2830 5C000000 		.4byte	.LBI423
 8160 2834 01       		.byte	.LVU874
 8161 2835 A4010000 		.4byte	.LLRL132
 8162 2839 1D03     		.2byte	0x31d
 8163 283b 07       		.byte	0x7
 8164 283c 37290000 		.4byte	0x2937
 8165 2840 01       		.uleb128 0x1
 8166 2841 201F0000 		.4byte	0x1f20
 8167 2845 BD0D0000 		.4byte	.LLST133
 8168 2849 B50D0000 		.4byte	.LVUS133
 8169 284d 01       		.uleb128 0x1
 8170 284e 171F0000 		.4byte	0x1f17
 8171 2852 E30D0000 		.4byte	.LLST134
 8172 2856 DB0D0000 		.4byte	.LVUS134
 8173 285a 01       		.uleb128 0x1
 8174 285b 0C1F0000 		.4byte	0x1f0c
 8175 285f 090E0000 		.4byte	.LLST135
 8176 2863 010E0000 		.4byte	.LVUS135
 8177 2867 01       		.uleb128 0x1
 8178 2868 011F0000 		.4byte	0x1f01
 8179 286c 2F0E0000 		.4byte	.LLST136
 8180 2870 270E0000 		.4byte	.LVUS136
 8181 2874 42       		.uleb128 0x42
 8182 2875 CC1A0000 		.4byte	0x1acc
 8183 2879 6C000000 		.4byte	.LBI425
 8184 287d 01       		.byte	.LVU885
 8185 287e BA010000 		.4byte	.LLRL137
 8186 2882 EB       		.byte	0xeb
 8187 2883 D7280000 		.4byte	0x28d7
 8188 2887 01       		.uleb128 0x1
 8189 2888 021B0000 		.4byte	0x1b02
 8190 288c 510E0000 		.4byte	.LLST138
 8191 2890 4D0E0000 		.4byte	.LVUS138
 8192 2894 1C       		.uleb128 0x1c
 8193 2895 F51A0000 		.4byte	0x1af5
 8194 2899 01       		.uleb128 0x1
 8195 289a E81A0000 		.4byte	0x1ae8
 8196 289e 670E0000 		.4byte	.LLST139
 8197 28a2 630E0000 		.4byte	.LVUS139
 8198 28a6 01       		.uleb128 0x1
 8199 28a7 DB1A0000 		.4byte	0x1adb
 8200 28ab 7F0E0000 		.4byte	.LLST140
ARM GAS  C:\Users\DEVELO~1\AppData\Local\Temp\ccuGzkMt.s 			page 145


 8201 28af 7B0E0000 		.4byte	.LVUS140
 8202 28b3 0B       		.uleb128 0xb
 8203 28b4 BA010000 		.4byte	.LLRL137
 8204 28b8 11       		.uleb128 0x11
 8205 28b9 0F1B0000 		.4byte	0x1b0f
 8206 28bd 950E0000 		.4byte	.LLST141
 8207 28c1 910E0000 		.4byte	.LVUS141
 8208 28c5 08       		.uleb128 0x8
 8209 28c6 08010000 		.4byte	.LVL183
 8210 28ca 701E0000 		.4byte	0x1e70
 8211 28ce 04       		.uleb128 0x4
 8212 28cf 01       		.uleb128 0x1
 8213 28d0 50       		.byte	0x50
 8214 28d1 02       		.uleb128 0x2
 8215 28d2 70       		.byte	0x70
 8216 28d3 00       		.sleb128 0
 8217 28d4 00       		.byte	0
 8218 28d5 00       		.byte	0
 8219 28d6 00       		.byte	0
 8220 28d7 43       		.uleb128 0x43
 8221 28d8 CC1A0000 		.4byte	0x1acc
 8222 28dc B6000000 		.4byte	.LBI432
 8223 28e0 02       		.byte	.LVU933
 8224 28e1 CE010000 		.4byte	.LLRL142
 8225 28e5 F2       		.byte	0xf2
 8226 28e6 01       		.uleb128 0x1
 8227 28e7 021B0000 		.4byte	0x1b02
 8228 28eb AB0E0000 		.4byte	.LLST143
 8229 28ef A70E0000 		.4byte	.LVUS143
 8230 28f3 1C       		.uleb128 0x1c
 8231 28f4 F51A0000 		.4byte	0x1af5
 8232 28f8 01       		.uleb128 0x1
 8233 28f9 E81A0000 		.4byte	0x1ae8
 8234 28fd C10E0000 		.4byte	.LLST144
 8235 2901 BD0E0000 		.4byte	.LVUS144
 8236 2905 01       		.uleb128 0x1
 8237 2906 DB1A0000 		.4byte	0x1adb
 8238 290a D90E0000 		.4byte	.LLST145
 8239 290e D50E0000 		.4byte	.LVUS145
 8240 2912 0B       		.uleb128 0xb
 8241 2913 CE010000 		.4byte	.LLRL142
 8242 2917 11       		.uleb128 0x11
 8243 2918 0F1B0000 		.4byte	0x1b0f
 8244 291c EF0E0000 		.4byte	.LLST146
 8245 2920 EB0E0000 		.4byte	.LVUS146
 8246 2924 08       		.uleb128 0x8
 8247 2925 46010000 		.4byte	.LVL190
 8248 2929 701E0000 		.4byte	0x1e70
 8249 292d 04       		.uleb128 0x4
 8250 292e 01       		.uleb128 0x1
 8251 292f 50       		.byte	0x50
 8252 2930 02       		.uleb128 0x2
 8253 2931 70       		.byte	0x70
 8254 2932 00       		.sleb128 0
 8255 2933 00       		.byte	0
 8256 2934 00       		.byte	0
 8257 2935 00       		.byte	0
ARM GAS  C:\Users\DEVELO~1\AppData\Local\Temp\ccuGzkMt.s 			page 146


 8258 2936 00       		.byte	0
 8259 2937 0D       		.uleb128 0xd
 8260 2938 311E0000 		.4byte	0x1e31
 8261 293c A8000000 		.4byte	.LBI442
 8262 2940 00       		.byte	.LVU919
 8263 2941 DF010000 		.4byte	.LLRL147
 8264 2945 2C03     		.2byte	0x32c
 8265 2947 03       		.byte	0x3
 8266 2948 9D2A0000 		.4byte	0x2a9d
 8267 294c 01       		.uleb128 0x1
 8268 294d 571E0000 		.4byte	0x1e57
 8269 2951 0B0F0000 		.4byte	.LLST148
 8270 2955 010F0000 		.4byte	.LVUS148
 8271 2959 01       		.uleb128 0x1
 8272 295a 4C1E0000 		.4byte	0x1e4c
 8273 295e 3B0F0000 		.4byte	.LLST149
 8274 2962 330F0000 		.4byte	.LVUS149
 8275 2966 01       		.uleb128 0x1
 8276 2967 3F1E0000 		.4byte	0x1e3f
 8277 296b 660F0000 		.4byte	.LLST150
 8278 296f 580F0000 		.4byte	.LVUS150
 8279 2973 0B       		.uleb128 0xb
 8280 2974 DF010000 		.4byte	.LLRL147
 8281 2978 11       		.uleb128 0x11
 8282 2979 641E0000 		.4byte	0x1e64
 8283 297d 9E0F0000 		.4byte	.LLST151
 8284 2981 960F0000 		.4byte	.LVUS151
 8285 2985 0D       		.uleb128 0xd
 8286 2986 311E0000 		.4byte	0x1e31
 8287 298a 18010000 		.4byte	.LBI444
 8288 298e 01       		.byte	.LVU1000
 8289 298f 0E020000 		.4byte	.LLRL152
 8290 2993 4E01     		.2byte	0x14e
 8291 2995 0D       		.byte	0xd
 8292 2996 372A0000 		.4byte	0x2a37
 8293 299a 01       		.uleb128 0x1
 8294 299b 4C1E0000 		.4byte	0x1e4c
 8295 299f BE0F0000 		.4byte	.LLST153
 8296 29a3 BA0F0000 		.4byte	.LVUS153
 8297 29a7 01       		.uleb128 0x1
 8298 29a8 571E0000 		.4byte	0x1e57
 8299 29ac D20F0000 		.4byte	.LLST154
 8300 29b0 CE0F0000 		.4byte	.LVUS154
 8301 29b4 01       		.uleb128 0x1
 8302 29b5 3F1E0000 		.4byte	0x1e3f
 8303 29b9 E80F0000 		.4byte	.LLST155
 8304 29bd E20F0000 		.4byte	.LVUS155
 8305 29c1 0B       		.uleb128 0xb
 8306 29c2 0E020000 		.4byte	.LLRL152
 8307 29c6 44       		.uleb128 0x44
 8308 29c7 641E0000 		.4byte	0x1e64
 8309 29cb 10       		.uleb128 0x10
 8310 29cc CC1A0000 		.4byte	0x1acc
 8311 29d0 18010000 		.4byte	.LBI446
 8312 29d4 03       		.byte	.LVU1002
 8313 29d5 0E020000 		.4byte	.LLRL152
 8314 29d9 01       		.byte	0x1
ARM GAS  C:\Users\DEVELO~1\AppData\Local\Temp\ccuGzkMt.s 			page 147


 8315 29da 5B01     		.2byte	0x15b
 8316 29dc 05       		.byte	0x5
 8317 29dd 01       		.uleb128 0x1
 8318 29de 021B0000 		.4byte	0x1b02
 8319 29e2 01100000 		.4byte	.LLST156
 8320 29e6 FD0F0000 		.4byte	.LVUS156
 8321 29ea 01       		.uleb128 0x1
 8322 29eb F51A0000 		.4byte	0x1af5
 8323 29ef 15100000 		.4byte	.LLST157
 8324 29f3 11100000 		.4byte	.LVUS157
 8325 29f7 01       		.uleb128 0x1
 8326 29f8 E81A0000 		.4byte	0x1ae8
 8327 29fc 2B100000 		.4byte	.LLST158
 8328 2a00 27100000 		.4byte	.LVUS158
 8329 2a04 01       		.uleb128 0x1
 8330 2a05 DB1A0000 		.4byte	0x1adb
 8331 2a09 43100000 		.4byte	.LLST159
 8332 2a0d 3D100000 		.4byte	.LVUS159
 8333 2a11 0B       		.uleb128 0xb
 8334 2a12 0E020000 		.4byte	.LLRL152
 8335 2a16 11       		.uleb128 0x11
 8336 2a17 0F1B0000 		.4byte	0x1b0f
 8337 2a1b 5C100000 		.4byte	.LLST160
 8338 2a1f 58100000 		.4byte	.LVUS160
 8339 2a23 08       		.uleb128 0x8
 8340 2a24 6A010000 		.4byte	.LVL195
 8341 2a28 701E0000 		.4byte	0x1e70
 8342 2a2c 04       		.uleb128 0x4
 8343 2a2d 01       		.uleb128 0x1
 8344 2a2e 50       		.byte	0x50
 8345 2a2f 02       		.uleb128 0x2
 8346 2a30 70       		.byte	0x70
 8347 2a31 00       		.sleb128 0
 8348 2a32 00       		.byte	0
 8349 2a33 00       		.byte	0
 8350 2a34 00       		.byte	0
 8351 2a35 00       		.byte	0
 8352 2a36 00       		.byte	0
 8353 2a37 1F       		.uleb128 0x1f
 8354 2a38 B4000000 		.4byte	.LVL172
 8355 2a3c 701E0000 		.4byte	0x1e70
 8356 2a40 512A0000 		.4byte	0x2a51
 8357 2a44 04       		.uleb128 0x4
 8358 2a45 01       		.uleb128 0x1
 8359 2a46 50       		.byte	0x50
 8360 2a47 02       		.uleb128 0x2
 8361 2a48 77       		.byte	0x77
 8362 2a49 00       		.sleb128 0
 8363 2a4a 04       		.uleb128 0x4
 8364 2a4b 01       		.uleb128 0x1
 8365 2a4c 51       		.byte	0x51
 8366 2a4d 02       		.uleb128 0x2
 8367 2a4e 71       		.byte	0x71
 8368 2a4f 00       		.sleb128 0
 8369 2a50 00       		.byte	0
 8370 2a51 1F       		.uleb128 0x1f
 8371 2a52 00010000 		.4byte	.LVL181
ARM GAS  C:\Users\DEVELO~1\AppData\Local\Temp\ccuGzkMt.s 			page 148


 8372 2a56 701E0000 		.4byte	0x1e70
 8373 2a5a 6B2A0000 		.4byte	0x2a6b
 8374 2a5e 04       		.uleb128 0x4
 8375 2a5f 01       		.uleb128 0x1
 8376 2a60 50       		.byte	0x50
 8377 2a61 02       		.uleb128 0x2
 8378 2a62 77       		.byte	0x77
 8379 2a63 00       		.sleb128 0
 8380 2a64 04       		.uleb128 0x4
 8381 2a65 01       		.uleb128 0x1
 8382 2a66 51       		.byte	0x51
 8383 2a67 02       		.uleb128 0x2
 8384 2a68 71       		.byte	0x71
 8385 2a69 00       		.sleb128 0
 8386 2a6a 00       		.byte	0
 8387 2a6b 1F       		.uleb128 0x1f
 8388 2a6c 18010000 		.4byte	.LVL185
 8389 2a70 701E0000 		.4byte	0x1e70
 8390 2a74 852A0000 		.4byte	0x2a85
 8391 2a78 04       		.uleb128 0x4
 8392 2a79 01       		.uleb128 0x1
 8393 2a7a 50       		.byte	0x50
 8394 2a7b 02       		.uleb128 0x2
 8395 2a7c 77       		.byte	0x77
 8396 2a7d 00       		.sleb128 0
 8397 2a7e 04       		.uleb128 0x4
 8398 2a7f 01       		.uleb128 0x1
 8399 2a80 51       		.byte	0x51
 8400 2a81 02       		.uleb128 0x2
 8401 2a82 71       		.byte	0x71
 8402 2a83 00       		.sleb128 0
 8403 2a84 00       		.byte	0
 8404 2a85 08       		.uleb128 0x8
 8405 2a86 5A010000 		.4byte	.LVL192
 8406 2a8a 701E0000 		.4byte	0x1e70
 8407 2a8e 04       		.uleb128 0x4
 8408 2a8f 01       		.uleb128 0x1
 8409 2a90 50       		.byte	0x50
 8410 2a91 02       		.uleb128 0x2
 8411 2a92 77       		.byte	0x77
 8412 2a93 00       		.sleb128 0
 8413 2a94 04       		.uleb128 0x4
 8414 2a95 01       		.uleb128 0x1
 8415 2a96 51       		.byte	0x51
 8416 2a97 02       		.uleb128 0x2
 8417 2a98 71       		.byte	0x71
 8418 2a99 00       		.sleb128 0
 8419 2a9a 00       		.byte	0
 8420 2a9b 00       		.byte	0
 8421 2a9c 00       		.byte	0
 8422 2a9d 1F       		.uleb128 0x1f
 8423 2a9e 9E000000 		.4byte	.LVL169
 8424 2aa2 B91E0000 		.4byte	0x1eb9
 8425 2aa6 BD2A0000 		.4byte	0x2abd
 8426 2aaa 04       		.uleb128 0x4
 8427 2aab 01       		.uleb128 0x1
 8428 2aac 50       		.byte	0x50
ARM GAS  C:\Users\DEVELO~1\AppData\Local\Temp\ccuGzkMt.s 			page 149


 8429 2aad 02       		.uleb128 0x2
 8430 2aae 77       		.byte	0x77
 8431 2aaf 00       		.sleb128 0
 8432 2ab0 04       		.uleb128 0x4
 8433 2ab1 01       		.uleb128 0x1
 8434 2ab2 51       		.byte	0x51
 8435 2ab3 02       		.uleb128 0x2
 8436 2ab4 78       		.byte	0x78
 8437 2ab5 00       		.sleb128 0
 8438 2ab6 04       		.uleb128 0x4
 8439 2ab7 01       		.uleb128 0x1
 8440 2ab8 52       		.byte	0x52
 8441 2ab9 02       		.uleb128 0x2
 8442 2aba 76       		.byte	0x76
 8443 2abb 00       		.sleb128 0
 8444 2abc 00       		.byte	0
 8445 2abd 08       		.uleb128 0x8
 8446 2abe E8000000 		.4byte	.LVL178
 8447 2ac2 B91E0000 		.4byte	0x1eb9
 8448 2ac6 04       		.uleb128 0x4
 8449 2ac7 01       		.uleb128 0x1
 8450 2ac8 50       		.byte	0x50
 8451 2ac9 02       		.uleb128 0x2
 8452 2aca 77       		.byte	0x77
 8453 2acb 00       		.sleb128 0
 8454 2acc 04       		.uleb128 0x4
 8455 2acd 01       		.uleb128 0x1
 8456 2ace 51       		.byte	0x51
 8457 2acf 02       		.uleb128 0x2
 8458 2ad0 78       		.byte	0x78
 8459 2ad1 00       		.sleb128 0
 8460 2ad2 04       		.uleb128 0x4
 8461 2ad3 01       		.uleb128 0x1
 8462 2ad4 52       		.byte	0x52
 8463 2ad5 02       		.uleb128 0x2
 8464 2ad6 76       		.byte	0x76
 8465 2ad7 00       		.sleb128 0
 8466 2ad8 00       		.byte	0
 8467 2ad9 00       		.byte	0
 8468 2ada 00       		.byte	0
 8469 2adb 08       		.uleb128 0x8
 8470 2adc 36000000 		.4byte	.LVL158
 8471 2ae0 98120000 		.4byte	0x1298
 8472 2ae4 04       		.uleb128 0x4
 8473 2ae5 01       		.uleb128 0x1
 8474 2ae6 50       		.byte	0x50
 8475 2ae7 02       		.uleb128 0x2
 8476 2ae8 77       		.byte	0x77
 8477 2ae9 00       		.sleb128 0
 8478 2aea 00       		.byte	0
 8479 2aeb 00       		.byte	0
 8480 2aec 5A       		.uleb128 0x5a
 8481 2aed CB0D0000 		.4byte	.LASF258
 8482 2af1 CC020000 		.4byte	.LASF321
 8483 2af5 1A       		.byte	0x1a
 8484 2af6 00       		.byte	0
 8485 2af7 00       		.byte	0
ARM GAS  C:\Users\DEVELO~1\AppData\Local\Temp\ccuGzkMt.s 			page 150


 8486              		.section	.debug_abbrev,"",%progbits
 8487              	.Ldebug_abbrev0:
 8488 0000 01       		.uleb128 0x1
 8489 0001 05       		.uleb128 0x5
 8490 0002 00       		.byte	0
 8491 0003 31       		.uleb128 0x31
 8492 0004 13       		.uleb128 0x13
 8493 0005 02       		.uleb128 0x2
 8494 0006 17       		.uleb128 0x17
 8495 0007 B742     		.uleb128 0x2137
 8496 0009 17       		.uleb128 0x17
 8497 000a 00       		.byte	0
 8498 000b 00       		.byte	0
 8499 000c 02       		.uleb128 0x2
 8500 000d 0D       		.uleb128 0xd
 8501 000e 00       		.byte	0
 8502 000f 03       		.uleb128 0x3
 8503 0010 0E       		.uleb128 0xe
 8504 0011 3A       		.uleb128 0x3a
 8505 0012 0B       		.uleb128 0xb
 8506 0013 3B       		.uleb128 0x3b
 8507 0014 05       		.uleb128 0x5
 8508 0015 39       		.uleb128 0x39
 8509 0016 0B       		.uleb128 0xb
 8510 0017 49       		.uleb128 0x49
 8511 0018 13       		.uleb128 0x13
 8512 0019 38       		.uleb128 0x38
 8513 001a 0B       		.uleb128 0xb
 8514 001b 00       		.byte	0
 8515 001c 00       		.byte	0
 8516 001d 03       		.uleb128 0x3
 8517 001e 0D       		.uleb128 0xd
 8518 001f 00       		.byte	0
 8519 0020 03       		.uleb128 0x3
 8520 0021 0E       		.uleb128 0xe
 8521 0022 3A       		.uleb128 0x3a
 8522 0023 0B       		.uleb128 0xb
 8523 0024 3B       		.uleb128 0x3b
 8524 0025 0B       		.uleb128 0xb
 8525 0026 39       		.uleb128 0x39
 8526 0027 0B       		.uleb128 0xb
 8527 0028 49       		.uleb128 0x49
 8528 0029 13       		.uleb128 0x13
 8529 002a 38       		.uleb128 0x38
 8530 002b 0B       		.uleb128 0xb
 8531 002c 00       		.byte	0
 8532 002d 00       		.byte	0
 8533 002e 04       		.uleb128 0x4
 8534 002f 49       		.uleb128 0x49
 8535 0030 00       		.byte	0
 8536 0031 02       		.uleb128 0x2
 8537 0032 18       		.uleb128 0x18
 8538 0033 7E       		.uleb128 0x7e
 8539 0034 18       		.uleb128 0x18
 8540 0035 00       		.byte	0
 8541 0036 00       		.byte	0
 8542 0037 05       		.uleb128 0x5
ARM GAS  C:\Users\DEVELO~1\AppData\Local\Temp\ccuGzkMt.s 			page 151


 8543 0038 16       		.uleb128 0x16
 8544 0039 00       		.byte	0
 8545 003a 03       		.uleb128 0x3
 8546 003b 0E       		.uleb128 0xe
 8547 003c 3A       		.uleb128 0x3a
 8548 003d 0B       		.uleb128 0xb
 8549 003e 3B       		.uleb128 0x3b
 8550 003f 0B       		.uleb128 0xb
 8551 0040 39       		.uleb128 0x39
 8552 0041 0B       		.uleb128 0xb
 8553 0042 49       		.uleb128 0x49
 8554 0043 13       		.uleb128 0x13
 8555 0044 00       		.byte	0
 8556 0045 00       		.byte	0
 8557 0046 06       		.uleb128 0x6
 8558 0047 0F       		.uleb128 0xf
 8559 0048 00       		.byte	0
 8560 0049 0B       		.uleb128 0xb
 8561 004a 21       		.uleb128 0x21
 8562 004b 04       		.sleb128 4
 8563 004c 49       		.uleb128 0x49
 8564 004d 13       		.uleb128 0x13
 8565 004e 00       		.byte	0
 8566 004f 00       		.byte	0
 8567 0050 07       		.uleb128 0x7
 8568 0051 05       		.uleb128 0x5
 8569 0052 00       		.byte	0
 8570 0053 49       		.uleb128 0x49
 8571 0054 13       		.uleb128 0x13
 8572 0055 00       		.byte	0
 8573 0056 00       		.byte	0
 8574 0057 08       		.uleb128 0x8
 8575 0058 48       		.uleb128 0x48
 8576 0059 01       		.byte	0x1
 8577 005a 7D       		.uleb128 0x7d
 8578 005b 01       		.uleb128 0x1
 8579 005c 7F       		.uleb128 0x7f
 8580 005d 13       		.uleb128 0x13
 8581 005e 00       		.byte	0
 8582 005f 00       		.byte	0
 8583 0060 09       		.uleb128 0x9
 8584 0061 1D       		.uleb128 0x1d
 8585 0062 01       		.byte	0x1
 8586 0063 31       		.uleb128 0x31
 8587 0064 13       		.uleb128 0x13
 8588 0065 52       		.uleb128 0x52
 8589 0066 01       		.uleb128 0x1
 8590 0067 B842     		.uleb128 0x2138
 8591 0069 0B       		.uleb128 0xb
 8592 006a 11       		.uleb128 0x11
 8593 006b 01       		.uleb128 0x1
 8594 006c 12       		.uleb128 0x12
 8595 006d 06       		.uleb128 0x6
 8596 006e 58       		.uleb128 0x58
 8597 006f 0B       		.uleb128 0xb
 8598 0070 59       		.uleb128 0x59
 8599 0071 05       		.uleb128 0x5
ARM GAS  C:\Users\DEVELO~1\AppData\Local\Temp\ccuGzkMt.s 			page 152


 8600 0072 57       		.uleb128 0x57
 8601 0073 0B       		.uleb128 0xb
 8602 0074 00       		.byte	0
 8603 0075 00       		.byte	0
 8604 0076 0A       		.uleb128 0xa
 8605 0077 0D       		.uleb128 0xd
 8606 0078 00       		.byte	0
 8607 0079 03       		.uleb128 0x3
 8608 007a 08       		.uleb128 0x8
 8609 007b 3A       		.uleb128 0x3a
 8610 007c 0B       		.uleb128 0xb
 8611 007d 3B       		.uleb128 0x3b
 8612 007e 05       		.uleb128 0x5
 8613 007f 39       		.uleb128 0x39
 8614 0080 0B       		.uleb128 0xb
 8615 0081 49       		.uleb128 0x49
 8616 0082 13       		.uleb128 0x13
 8617 0083 38       		.uleb128 0x38
 8618 0084 0B       		.uleb128 0xb
 8619 0085 00       		.byte	0
 8620 0086 00       		.byte	0
 8621 0087 0B       		.uleb128 0xb
 8622 0088 0B       		.uleb128 0xb
 8623 0089 01       		.byte	0x1
 8624 008a 55       		.uleb128 0x55
 8625 008b 17       		.uleb128 0x17
 8626 008c 00       		.byte	0
 8627 008d 00       		.byte	0
 8628 008e 0C       		.uleb128 0xc
 8629 008f 05       		.uleb128 0x5
 8630 0090 00       		.byte	0
 8631 0091 03       		.uleb128 0x3
 8632 0092 0E       		.uleb128 0xe
 8633 0093 3A       		.uleb128 0x3a
 8634 0094 21       		.uleb128 0x21
 8635 0095 01       		.sleb128 1
 8636 0096 3B       		.uleb128 0x3b
 8637 0097 05       		.uleb128 0x5
 8638 0098 39       		.uleb128 0x39
 8639 0099 0B       		.uleb128 0xb
 8640 009a 49       		.uleb128 0x49
 8641 009b 13       		.uleb128 0x13
 8642 009c 02       		.uleb128 0x2
 8643 009d 17       		.uleb128 0x17
 8644 009e B742     		.uleb128 0x2137
 8645 00a0 17       		.uleb128 0x17
 8646 00a1 00       		.byte	0
 8647 00a2 00       		.byte	0
 8648 00a3 0D       		.uleb128 0xd
 8649 00a4 1D       		.uleb128 0x1d
 8650 00a5 01       		.byte	0x1
 8651 00a6 31       		.uleb128 0x31
 8652 00a7 13       		.uleb128 0x13
 8653 00a8 52       		.uleb128 0x52
 8654 00a9 01       		.uleb128 0x1
 8655 00aa B842     		.uleb128 0x2138
 8656 00ac 0B       		.uleb128 0xb
ARM GAS  C:\Users\DEVELO~1\AppData\Local\Temp\ccuGzkMt.s 			page 153


 8657 00ad 55       		.uleb128 0x55
 8658 00ae 17       		.uleb128 0x17
 8659 00af 58       		.uleb128 0x58
 8660 00b0 21       		.uleb128 0x21
 8661 00b1 01       		.sleb128 1
 8662 00b2 59       		.uleb128 0x59
 8663 00b3 05       		.uleb128 0x5
 8664 00b4 57       		.uleb128 0x57
 8665 00b5 0B       		.uleb128 0xb
 8666 00b6 01       		.uleb128 0x1
 8667 00b7 13       		.uleb128 0x13
 8668 00b8 00       		.byte	0
 8669 00b9 00       		.byte	0
 8670 00ba 0E       		.uleb128 0xe
 8671 00bb 05       		.uleb128 0x5
 8672 00bc 00       		.byte	0
 8673 00bd 03       		.uleb128 0x3
 8674 00be 0E       		.uleb128 0xe
 8675 00bf 3A       		.uleb128 0x3a
 8676 00c0 0B       		.uleb128 0xb
 8677 00c1 3B       		.uleb128 0x3b
 8678 00c2 05       		.uleb128 0x5
 8679 00c3 39       		.uleb128 0x39
 8680 00c4 0B       		.uleb128 0xb
 8681 00c5 49       		.uleb128 0x49
 8682 00c6 13       		.uleb128 0x13
 8683 00c7 00       		.byte	0
 8684 00c8 00       		.byte	0
 8685 00c9 0F       		.uleb128 0xf
 8686 00ca 0D       		.uleb128 0xd
 8687 00cb 00       		.byte	0
 8688 00cc 03       		.uleb128 0x3
 8689 00cd 08       		.uleb128 0x8
 8690 00ce 3A       		.uleb128 0x3a
 8691 00cf 0B       		.uleb128 0xb
 8692 00d0 3B       		.uleb128 0x3b
 8693 00d1 0B       		.uleb128 0xb
 8694 00d2 39       		.uleb128 0x39
 8695 00d3 0B       		.uleb128 0xb
 8696 00d4 49       		.uleb128 0x49
 8697 00d5 13       		.uleb128 0x13
 8698 00d6 38       		.uleb128 0x38
 8699 00d7 0B       		.uleb128 0xb
 8700 00d8 00       		.byte	0
 8701 00d9 00       		.byte	0
 8702 00da 10       		.uleb128 0x10
 8703 00db 1D       		.uleb128 0x1d
 8704 00dc 01       		.byte	0x1
 8705 00dd 31       		.uleb128 0x31
 8706 00de 13       		.uleb128 0x13
 8707 00df 52       		.uleb128 0x52
 8708 00e0 01       		.uleb128 0x1
 8709 00e1 B842     		.uleb128 0x2138
 8710 00e3 0B       		.uleb128 0xb
 8711 00e4 55       		.uleb128 0x55
 8712 00e5 17       		.uleb128 0x17
 8713 00e6 58       		.uleb128 0x58
ARM GAS  C:\Users\DEVELO~1\AppData\Local\Temp\ccuGzkMt.s 			page 154


 8714 00e7 0B       		.uleb128 0xb
 8715 00e8 59       		.uleb128 0x59
 8716 00e9 05       		.uleb128 0x5
 8717 00ea 57       		.uleb128 0x57
 8718 00eb 0B       		.uleb128 0xb
 8719 00ec 00       		.byte	0
 8720 00ed 00       		.byte	0
 8721 00ee 11       		.uleb128 0x11
 8722 00ef 34       		.uleb128 0x34
 8723 00f0 00       		.byte	0
 8724 00f1 31       		.uleb128 0x31
 8725 00f2 13       		.uleb128 0x13
 8726 00f3 02       		.uleb128 0x2
 8727 00f4 17       		.uleb128 0x17
 8728 00f5 B742     		.uleb128 0x2137
 8729 00f7 17       		.uleb128 0x17
 8730 00f8 00       		.byte	0
 8731 00f9 00       		.byte	0
 8732 00fa 12       		.uleb128 0x12
 8733 00fb 28       		.uleb128 0x28
 8734 00fc 00       		.byte	0
 8735 00fd 03       		.uleb128 0x3
 8736 00fe 0E       		.uleb128 0xe
 8737 00ff 1C       		.uleb128 0x1c
 8738 0100 0B       		.uleb128 0xb
 8739 0101 00       		.byte	0
 8740 0102 00       		.byte	0
 8741 0103 13       		.uleb128 0x13
 8742 0104 13       		.uleb128 0x13
 8743 0105 01       		.byte	0x1
 8744 0106 03       		.uleb128 0x3
 8745 0107 0E       		.uleb128 0xe
 8746 0108 0B       		.uleb128 0xb
 8747 0109 0B       		.uleb128 0xb
 8748 010a 3A       		.uleb128 0x3a
 8749 010b 0B       		.uleb128 0xb
 8750 010c 3B       		.uleb128 0x3b
 8751 010d 0B       		.uleb128 0xb
 8752 010e 39       		.uleb128 0x39
 8753 010f 0B       		.uleb128 0xb
 8754 0110 01       		.uleb128 0x1
 8755 0111 13       		.uleb128 0x13
 8756 0112 00       		.byte	0
 8757 0113 00       		.byte	0
 8758 0114 14       		.uleb128 0x14
 8759 0115 24       		.uleb128 0x24
 8760 0116 00       		.byte	0
 8761 0117 0B       		.uleb128 0xb
 8762 0118 0B       		.uleb128 0xb
 8763 0119 3E       		.uleb128 0x3e
 8764 011a 0B       		.uleb128 0xb
 8765 011b 03       		.uleb128 0x3
 8766 011c 0E       		.uleb128 0xe
 8767 011d 00       		.byte	0
 8768 011e 00       		.byte	0
 8769 011f 15       		.uleb128 0x15
 8770 0120 01       		.uleb128 0x1
ARM GAS  C:\Users\DEVELO~1\AppData\Local\Temp\ccuGzkMt.s 			page 155


 8771 0121 01       		.byte	0x1
 8772 0122 49       		.uleb128 0x49
 8773 0123 13       		.uleb128 0x13
 8774 0124 01       		.uleb128 0x1
 8775 0125 13       		.uleb128 0x13
 8776 0126 00       		.byte	0
 8777 0127 00       		.byte	0
 8778 0128 16       		.uleb128 0x16
 8779 0129 21       		.uleb128 0x21
 8780 012a 00       		.byte	0
 8781 012b 49       		.uleb128 0x49
 8782 012c 13       		.uleb128 0x13
 8783 012d 2F       		.uleb128 0x2f
 8784 012e 0B       		.uleb128 0xb
 8785 012f 00       		.byte	0
 8786 0130 00       		.byte	0
 8787 0131 17       		.uleb128 0x17
 8788 0132 05       		.uleb128 0x5
 8789 0133 00       		.byte	0
 8790 0134 03       		.uleb128 0x3
 8791 0135 08       		.uleb128 0x8
 8792 0136 3A       		.uleb128 0x3a
 8793 0137 21       		.uleb128 0x21
 8794 0138 01       		.sleb128 1
 8795 0139 3B       		.uleb128 0x3b
 8796 013a 05       		.uleb128 0x5
 8797 013b 39       		.uleb128 0x39
 8798 013c 0B       		.uleb128 0xb
 8799 013d 49       		.uleb128 0x49
 8800 013e 13       		.uleb128 0x13
 8801 013f 02       		.uleb128 0x2
 8802 0140 17       		.uleb128 0x17
 8803 0141 B742     		.uleb128 0x2137
 8804 0143 17       		.uleb128 0x17
 8805 0144 00       		.byte	0
 8806 0145 00       		.byte	0
 8807 0146 18       		.uleb128 0x18
 8808 0147 2E       		.uleb128 0x2e
 8809 0148 00       		.byte	0
 8810 0149 03       		.uleb128 0x3
 8811 014a 0E       		.uleb128 0xe
 8812 014b 3A       		.uleb128 0x3a
 8813 014c 0B       		.uleb128 0xb
 8814 014d 3B       		.uleb128 0x3b
 8815 014e 05       		.uleb128 0x5
 8816 014f 39       		.uleb128 0x39
 8817 0150 0B       		.uleb128 0xb
 8818 0151 27       		.uleb128 0x27
 8819 0152 19       		.uleb128 0x19
 8820 0153 20       		.uleb128 0x20
 8821 0154 21       		.uleb128 0x21
 8822 0155 03       		.sleb128 3
 8823 0156 00       		.byte	0
 8824 0157 00       		.byte	0
 8825 0158 19       		.uleb128 0x19
 8826 0159 26       		.uleb128 0x26
 8827 015a 00       		.byte	0
ARM GAS  C:\Users\DEVELO~1\AppData\Local\Temp\ccuGzkMt.s 			page 156


 8828 015b 49       		.uleb128 0x49
 8829 015c 13       		.uleb128 0x13
 8830 015d 00       		.byte	0
 8831 015e 00       		.byte	0
 8832 015f 1A       		.uleb128 0x1a
 8833 0160 0D       		.uleb128 0xd
 8834 0161 00       		.byte	0
 8835 0162 03       		.uleb128 0x3
 8836 0163 0E       		.uleb128 0xe
 8837 0164 3A       		.uleb128 0x3a
 8838 0165 21       		.uleb128 0x21
 8839 0166 11       		.sleb128 17
 8840 0167 3B       		.uleb128 0x3b
 8841 0168 05       		.uleb128 0x5
 8842 0169 39       		.uleb128 0x39
 8843 016a 0B       		.uleb128 0xb
 8844 016b 49       		.uleb128 0x49
 8845 016c 13       		.uleb128 0x13
 8846 016d 38       		.uleb128 0x38
 8847 016e 05       		.uleb128 0x5
 8848 016f 00       		.byte	0
 8849 0170 00       		.byte	0
 8850 0171 1B       		.uleb128 0x1b
 8851 0172 05       		.uleb128 0x5
 8852 0173 00       		.byte	0
 8853 0174 03       		.uleb128 0x3
 8854 0175 08       		.uleb128 0x8
 8855 0176 3A       		.uleb128 0x3a
 8856 0177 0B       		.uleb128 0xb
 8857 0178 3B       		.uleb128 0x3b
 8858 0179 05       		.uleb128 0x5
 8859 017a 39       		.uleb128 0x39
 8860 017b 0B       		.uleb128 0xb
 8861 017c 49       		.uleb128 0x49
 8862 017d 13       		.uleb128 0x13
 8863 017e 00       		.byte	0
 8864 017f 00       		.byte	0
 8865 0180 1C       		.uleb128 0x1c
 8866 0181 05       		.uleb128 0x5
 8867 0182 00       		.byte	0
 8868 0183 31       		.uleb128 0x31
 8869 0184 13       		.uleb128 0x13
 8870 0185 00       		.byte	0
 8871 0186 00       		.byte	0
 8872 0187 1D       		.uleb128 0x1d
 8873 0188 05       		.uleb128 0x5
 8874 0189 00       		.byte	0
 8875 018a 03       		.uleb128 0x3
 8876 018b 0E       		.uleb128 0xe
 8877 018c 3A       		.uleb128 0x3a
 8878 018d 21       		.uleb128 0x21
 8879 018e 01       		.sleb128 1
 8880 018f 3B       		.uleb128 0x3b
 8881 0190 0B       		.uleb128 0xb
 8882 0191 39       		.uleb128 0x39
 8883 0192 0B       		.uleb128 0xb
 8884 0193 49       		.uleb128 0x49
ARM GAS  C:\Users\DEVELO~1\AppData\Local\Temp\ccuGzkMt.s 			page 157


 8885 0194 13       		.uleb128 0x13
 8886 0195 00       		.byte	0
 8887 0196 00       		.byte	0
 8888 0197 1E       		.uleb128 0x1e
 8889 0198 2E       		.uleb128 0x2e
 8890 0199 01       		.byte	0x1
 8891 019a 3F       		.uleb128 0x3f
 8892 019b 19       		.uleb128 0x19
 8893 019c 03       		.uleb128 0x3
 8894 019d 0E       		.uleb128 0xe
 8895 019e 3A       		.uleb128 0x3a
 8896 019f 21       		.uleb128 0x21
 8897 01a0 01       		.sleb128 1
 8898 01a1 3B       		.uleb128 0x3b
 8899 01a2 05       		.uleb128 0x5
 8900 01a3 39       		.uleb128 0x39
 8901 01a4 21       		.uleb128 0x21
 8902 01a5 06       		.sleb128 6
 8903 01a6 27       		.uleb128 0x27
 8904 01a7 19       		.uleb128 0x19
 8905 01a8 11       		.uleb128 0x11
 8906 01a9 01       		.uleb128 0x1
 8907 01aa 12       		.uleb128 0x12
 8908 01ab 06       		.uleb128 0x6
 8909 01ac 40       		.uleb128 0x40
 8910 01ad 18       		.uleb128 0x18
 8911 01ae 7A       		.uleb128 0x7a
 8912 01af 19       		.uleb128 0x19
 8913 01b0 01       		.uleb128 0x1
 8914 01b1 13       		.uleb128 0x13
 8915 01b2 00       		.byte	0
 8916 01b3 00       		.byte	0
 8917 01b4 1F       		.uleb128 0x1f
 8918 01b5 48       		.uleb128 0x48
 8919 01b6 01       		.byte	0x1
 8920 01b7 7D       		.uleb128 0x7d
 8921 01b8 01       		.uleb128 0x1
 8922 01b9 7F       		.uleb128 0x7f
 8923 01ba 13       		.uleb128 0x13
 8924 01bb 01       		.uleb128 0x1
 8925 01bc 13       		.uleb128 0x13
 8926 01bd 00       		.byte	0
 8927 01be 00       		.byte	0
 8928 01bf 20       		.uleb128 0x20
 8929 01c0 13       		.uleb128 0x13
 8930 01c1 01       		.byte	0x1
 8931 01c2 0B       		.uleb128 0xb
 8932 01c3 0B       		.uleb128 0xb
 8933 01c4 3A       		.uleb128 0x3a
 8934 01c5 0B       		.uleb128 0xb
 8935 01c6 3B       		.uleb128 0x3b
 8936 01c7 0B       		.uleb128 0xb
 8937 01c8 39       		.uleb128 0x39
 8938 01c9 0B       		.uleb128 0xb
 8939 01ca 01       		.uleb128 0x1
 8940 01cb 13       		.uleb128 0x13
 8941 01cc 00       		.byte	0
ARM GAS  C:\Users\DEVELO~1\AppData\Local\Temp\ccuGzkMt.s 			page 158


 8942 01cd 00       		.byte	0
 8943 01ce 21       		.uleb128 0x21
 8944 01cf 0D       		.uleb128 0xd
 8945 01d0 00       		.byte	0
 8946 01d1 03       		.uleb128 0x3
 8947 01d2 0E       		.uleb128 0xe
 8948 01d3 3A       		.uleb128 0x3a
 8949 01d4 21       		.uleb128 0x21
 8950 01d5 0C       		.sleb128 12
 8951 01d6 3B       		.uleb128 0x3b
 8952 01d7 05       		.uleb128 0x5
 8953 01d8 39       		.uleb128 0x39
 8954 01d9 0B       		.uleb128 0xb
 8955 01da 49       		.uleb128 0x49
 8956 01db 13       		.uleb128 0x13
 8957 01dc 00       		.byte	0
 8958 01dd 00       		.byte	0
 8959 01de 22       		.uleb128 0x22
 8960 01df 2E       		.uleb128 0x2e
 8961 01e0 01       		.byte	0x1
 8962 01e1 03       		.uleb128 0x3
 8963 01e2 0E       		.uleb128 0xe
 8964 01e3 3A       		.uleb128 0x3a
 8965 01e4 0B       		.uleb128 0xb
 8966 01e5 3B       		.uleb128 0x3b
 8967 01e6 05       		.uleb128 0x5
 8968 01e7 39       		.uleb128 0x39
 8969 01e8 0B       		.uleb128 0xb
 8970 01e9 27       		.uleb128 0x27
 8971 01ea 19       		.uleb128 0x19
 8972 01eb 20       		.uleb128 0x20
 8973 01ec 0B       		.uleb128 0xb
 8974 01ed 01       		.uleb128 0x1
 8975 01ee 13       		.uleb128 0x13
 8976 01ef 00       		.byte	0
 8977 01f0 00       		.byte	0
 8978 01f1 23       		.uleb128 0x23
 8979 01f2 2E       		.uleb128 0x2e
 8980 01f3 01       		.byte	0x1
 8981 01f4 3F       		.uleb128 0x3f
 8982 01f5 19       		.uleb128 0x19
 8983 01f6 03       		.uleb128 0x3
 8984 01f7 0E       		.uleb128 0xe
 8985 01f8 3A       		.uleb128 0x3a
 8986 01f9 21       		.uleb128 0x21
 8987 01fa 01       		.sleb128 1
 8988 01fb 3B       		.uleb128 0x3b
 8989 01fc 05       		.uleb128 0x5
 8990 01fd 39       		.uleb128 0x39
 8991 01fe 21       		.uleb128 0x21
 8992 01ff 06       		.sleb128 6
 8993 0200 27       		.uleb128 0x27
 8994 0201 19       		.uleb128 0x19
 8995 0202 49       		.uleb128 0x49
 8996 0203 13       		.uleb128 0x13
 8997 0204 11       		.uleb128 0x11
 8998 0205 01       		.uleb128 0x1
ARM GAS  C:\Users\DEVELO~1\AppData\Local\Temp\ccuGzkMt.s 			page 159


 8999 0206 12       		.uleb128 0x12
 9000 0207 06       		.uleb128 0x6
 9001 0208 40       		.uleb128 0x40
 9002 0209 18       		.uleb128 0x18
 9003 020a 7A       		.uleb128 0x7a
 9004 020b 19       		.uleb128 0x19
 9005 020c 01       		.uleb128 0x1
 9006 020d 13       		.uleb128 0x13
 9007 020e 00       		.byte	0
 9008 020f 00       		.byte	0
 9009 0210 24       		.uleb128 0x24
 9010 0211 05       		.uleb128 0x5
 9011 0212 00       		.byte	0
 9012 0213 03       		.uleb128 0x3
 9013 0214 0E       		.uleb128 0xe
 9014 0215 3A       		.uleb128 0x3a
 9015 0216 21       		.uleb128 0x21
 9016 0217 01       		.sleb128 1
 9017 0218 3B       		.uleb128 0x3b
 9018 0219 05       		.uleb128 0x5
 9019 021a 39       		.uleb128 0x39
 9020 021b 0B       		.uleb128 0xb
 9021 021c 49       		.uleb128 0x49
 9022 021d 13       		.uleb128 0x13
 9023 021e 02       		.uleb128 0x2
 9024 021f 18       		.uleb128 0x18
 9025 0220 00       		.byte	0
 9026 0221 00       		.byte	0
 9027 0222 25       		.uleb128 0x25
 9028 0223 0D       		.uleb128 0xd
 9029 0224 00       		.byte	0
 9030 0225 03       		.uleb128 0x3
 9031 0226 0E       		.uleb128 0xe
 9032 0227 3A       		.uleb128 0x3a
 9033 0228 0B       		.uleb128 0xb
 9034 0229 3B       		.uleb128 0x3b
 9035 022a 0B       		.uleb128 0xb
 9036 022b 39       		.uleb128 0x39
 9037 022c 0B       		.uleb128 0xb
 9038 022d 49       		.uleb128 0x49
 9039 022e 13       		.uleb128 0x13
 9040 022f 00       		.byte	0
 9041 0230 00       		.byte	0
 9042 0231 26       		.uleb128 0x26
 9043 0232 34       		.uleb128 0x34
 9044 0233 00       		.byte	0
 9045 0234 03       		.uleb128 0x3
 9046 0235 08       		.uleb128 0x8
 9047 0236 3A       		.uleb128 0x3a
 9048 0237 21       		.uleb128 0x21
 9049 0238 01       		.sleb128 1
 9050 0239 3B       		.uleb128 0x3b
 9051 023a 05       		.uleb128 0x5
 9052 023b 39       		.uleb128 0x39
 9053 023c 0B       		.uleb128 0xb
 9054 023d 49       		.uleb128 0x49
 9055 023e 13       		.uleb128 0x13
ARM GAS  C:\Users\DEVELO~1\AppData\Local\Temp\ccuGzkMt.s 			page 160


 9056 023f 02       		.uleb128 0x2
 9057 0240 17       		.uleb128 0x17
 9058 0241 B742     		.uleb128 0x2137
 9059 0243 17       		.uleb128 0x17
 9060 0244 00       		.byte	0
 9061 0245 00       		.byte	0
 9062 0246 27       		.uleb128 0x27
 9063 0247 1D       		.uleb128 0x1d
 9064 0248 01       		.byte	0x1
 9065 0249 31       		.uleb128 0x31
 9066 024a 13       		.uleb128 0x13
 9067 024b 52       		.uleb128 0x52
 9068 024c 01       		.uleb128 0x1
 9069 024d B842     		.uleb128 0x2138
 9070 024f 0B       		.uleb128 0xb
 9071 0250 11       		.uleb128 0x11
 9072 0251 01       		.uleb128 0x1
 9073 0252 12       		.uleb128 0x12
 9074 0253 06       		.uleb128 0x6
 9075 0254 58       		.uleb128 0x58
 9076 0255 21       		.uleb128 0x21
 9077 0256 01       		.sleb128 1
 9078 0257 59       		.uleb128 0x59
 9079 0258 05       		.uleb128 0x5
 9080 0259 57       		.uleb128 0x57
 9081 025a 0B       		.uleb128 0xb
 9082 025b 01       		.uleb128 0x1
 9083 025c 13       		.uleb128 0x13
 9084 025d 00       		.byte	0
 9085 025e 00       		.byte	0
 9086 025f 28       		.uleb128 0x28
 9087 0260 2E       		.uleb128 0x2e
 9088 0261 01       		.byte	0x1
 9089 0262 03       		.uleb128 0x3
 9090 0263 0E       		.uleb128 0xe
 9091 0264 3A       		.uleb128 0x3a
 9092 0265 21       		.uleb128 0x21
 9093 0266 01       		.sleb128 1
 9094 0267 3B       		.uleb128 0x3b
 9095 0268 0B       		.uleb128 0xb
 9096 0269 39       		.uleb128 0x39
 9097 026a 0B       		.uleb128 0xb
 9098 026b 27       		.uleb128 0x27
 9099 026c 19       		.uleb128 0x19
 9100 026d 49       		.uleb128 0x49
 9101 026e 13       		.uleb128 0x13
 9102 026f 20       		.uleb128 0x20
 9103 0270 0B       		.uleb128 0xb
 9104 0271 01       		.uleb128 0x1
 9105 0272 13       		.uleb128 0x13
 9106 0273 00       		.byte	0
 9107 0274 00       		.byte	0
 9108 0275 29       		.uleb128 0x29
 9109 0276 05       		.uleb128 0x5
 9110 0277 00       		.byte	0
 9111 0278 03       		.uleb128 0x3
 9112 0279 08       		.uleb128 0x8
ARM GAS  C:\Users\DEVELO~1\AppData\Local\Temp\ccuGzkMt.s 			page 161


 9113 027a 3A       		.uleb128 0x3a
 9114 027b 21       		.uleb128 0x21
 9115 027c 01       		.sleb128 1
 9116 027d 3B       		.uleb128 0x3b
 9117 027e 0B       		.uleb128 0xb
 9118 027f 39       		.uleb128 0x39
 9119 0280 0B       		.uleb128 0xb
 9120 0281 49       		.uleb128 0x49
 9121 0282 13       		.uleb128 0x13
 9122 0283 00       		.byte	0
 9123 0284 00       		.byte	0
 9124 0285 2A       		.uleb128 0x2a
 9125 0286 16       		.uleb128 0x16
 9126 0287 00       		.byte	0
 9127 0288 03       		.uleb128 0x3
 9128 0289 0E       		.uleb128 0xe
 9129 028a 3A       		.uleb128 0x3a
 9130 028b 0B       		.uleb128 0xb
 9131 028c 3B       		.uleb128 0x3b
 9132 028d 05       		.uleb128 0x5
 9133 028e 39       		.uleb128 0x39
 9134 028f 21       		.uleb128 0x21
 9135 0290 03       		.sleb128 3
 9136 0291 49       		.uleb128 0x49
 9137 0292 13       		.uleb128 0x13
 9138 0293 00       		.byte	0
 9139 0294 00       		.byte	0
 9140 0295 2B       		.uleb128 0x2b
 9141 0296 13       		.uleb128 0x13
 9142 0297 01       		.byte	0x1
 9143 0298 03       		.uleb128 0x3
 9144 0299 0E       		.uleb128 0xe
 9145 029a 0B       		.uleb128 0xb
 9146 029b 0B       		.uleb128 0xb
 9147 029c 3A       		.uleb128 0x3a
 9148 029d 0B       		.uleb128 0xb
 9149 029e 3B       		.uleb128 0x3b
 9150 029f 05       		.uleb128 0x5
 9151 02a0 39       		.uleb128 0x39
 9152 02a1 0B       		.uleb128 0xb
 9153 02a2 01       		.uleb128 0x1
 9154 02a3 13       		.uleb128 0x13
 9155 02a4 00       		.byte	0
 9156 02a5 00       		.byte	0
 9157 02a6 2C       		.uleb128 0x2c
 9158 02a7 15       		.uleb128 0x15
 9159 02a8 01       		.byte	0x1
 9160 02a9 27       		.uleb128 0x27
 9161 02aa 19       		.uleb128 0x19
 9162 02ab 49       		.uleb128 0x49
 9163 02ac 13       		.uleb128 0x13
 9164 02ad 01       		.uleb128 0x1
 9165 02ae 13       		.uleb128 0x13
 9166 02af 00       		.byte	0
 9167 02b0 00       		.byte	0
 9168 02b1 2D       		.uleb128 0x2d
 9169 02b2 48       		.uleb128 0x48
ARM GAS  C:\Users\DEVELO~1\AppData\Local\Temp\ccuGzkMt.s 			page 162


 9170 02b3 00       		.byte	0
 9171 02b4 7D       		.uleb128 0x7d
 9172 02b5 01       		.uleb128 0x1
 9173 02b6 7F       		.uleb128 0x7f
 9174 02b7 13       		.uleb128 0x13
 9175 02b8 00       		.byte	0
 9176 02b9 00       		.byte	0
 9177 02ba 2E       		.uleb128 0x2e
 9178 02bb 34       		.uleb128 0x34
 9179 02bc 00       		.byte	0
 9180 02bd 03       		.uleb128 0x3
 9181 02be 0E       		.uleb128 0xe
 9182 02bf 49       		.uleb128 0x49
 9183 02c0 13       		.uleb128 0x13
 9184 02c1 34       		.uleb128 0x34
 9185 02c2 19       		.uleb128 0x19
 9186 02c3 00       		.byte	0
 9187 02c4 00       		.byte	0
 9188 02c5 2F       		.uleb128 0x2f
 9189 02c6 2E       		.uleb128 0x2e
 9190 02c7 01       		.byte	0x1
 9191 02c8 31       		.uleb128 0x31
 9192 02c9 13       		.uleb128 0x13
 9193 02ca 11       		.uleb128 0x11
 9194 02cb 01       		.uleb128 0x1
 9195 02cc 12       		.uleb128 0x12
 9196 02cd 06       		.uleb128 0x6
 9197 02ce 40       		.uleb128 0x40
 9198 02cf 18       		.uleb128 0x18
 9199 02d0 7A       		.uleb128 0x7a
 9200 02d1 19       		.uleb128 0x19
 9201 02d2 01       		.uleb128 0x1
 9202 02d3 13       		.uleb128 0x13
 9203 02d4 00       		.byte	0
 9204 02d5 00       		.byte	0
 9205 02d6 30       		.uleb128 0x30
 9206 02d7 35       		.uleb128 0x35
 9207 02d8 00       		.byte	0
 9208 02d9 49       		.uleb128 0x49
 9209 02da 13       		.uleb128 0x13
 9210 02db 00       		.byte	0
 9211 02dc 00       		.byte	0
 9212 02dd 31       		.uleb128 0x31
 9213 02de 0D       		.uleb128 0xd
 9214 02df 00       		.byte	0
 9215 02e0 03       		.uleb128 0x3
 9216 02e1 08       		.uleb128 0x8
 9217 02e2 3A       		.uleb128 0x3a
 9218 02e3 21       		.uleb128 0x21
 9219 02e4 10       		.sleb128 16
 9220 02e5 3B       		.uleb128 0x3b
 9221 02e6 0B       		.uleb128 0xb
 9222 02e7 39       		.uleb128 0x39
 9223 02e8 21       		.uleb128 0x21
 9224 02e9 07       		.sleb128 7
 9225 02ea 49       		.uleb128 0x49
 9226 02eb 13       		.uleb128 0x13
ARM GAS  C:\Users\DEVELO~1\AppData\Local\Temp\ccuGzkMt.s 			page 163


 9227 02ec 00       		.byte	0
 9228 02ed 00       		.byte	0
 9229 02ee 32       		.uleb128 0x32
 9230 02ef 0D       		.uleb128 0xd
 9231 02f0 00       		.byte	0
 9232 02f1 03       		.uleb128 0x3
 9233 02f2 0E       		.uleb128 0xe
 9234 02f3 3A       		.uleb128 0x3a
 9235 02f4 21       		.uleb128 0x21
 9236 02f5 10       		.sleb128 16
 9237 02f6 3B       		.uleb128 0x3b
 9238 02f7 0B       		.uleb128 0xb
 9239 02f8 39       		.uleb128 0x39
 9240 02f9 21       		.uleb128 0x21
 9241 02fa 19       		.sleb128 25
 9242 02fb 49       		.uleb128 0x49
 9243 02fc 13       		.uleb128 0x13
 9244 02fd 0D       		.uleb128 0xd
 9245 02fe 0B       		.uleb128 0xb
 9246 02ff 6B       		.uleb128 0x6b
 9247 0300 0B       		.uleb128 0xb
 9248 0301 00       		.byte	0
 9249 0302 00       		.byte	0
 9250 0303 33       		.uleb128 0x33
 9251 0304 04       		.uleb128 0x4
 9252 0305 01       		.byte	0x1
 9253 0306 3E       		.uleb128 0x3e
 9254 0307 21       		.uleb128 0x21
 9255 0308 07       		.sleb128 7
 9256 0309 0B       		.uleb128 0xb
 9257 030a 21       		.uleb128 0x21
 9258 030b 01       		.sleb128 1
 9259 030c 49       		.uleb128 0x49
 9260 030d 13       		.uleb128 0x13
 9261 030e 3A       		.uleb128 0x3a
 9262 030f 0B       		.uleb128 0xb
 9263 0310 3B       		.uleb128 0x3b
 9264 0311 0B       		.uleb128 0xb
 9265 0312 39       		.uleb128 0x39
 9266 0313 21       		.uleb128 0x21
 9267 0314 0E       		.sleb128 14
 9268 0315 01       		.uleb128 0x1
 9269 0316 13       		.uleb128 0x13
 9270 0317 00       		.byte	0
 9271 0318 00       		.byte	0
 9272 0319 34       		.uleb128 0x34
 9273 031a 34       		.uleb128 0x34
 9274 031b 00       		.byte	0
 9275 031c 03       		.uleb128 0x3
 9276 031d 0E       		.uleb128 0xe
 9277 031e 3A       		.uleb128 0x3a
 9278 031f 21       		.uleb128 0x21
 9279 0320 01       		.sleb128 1
 9280 0321 3B       		.uleb128 0x3b
 9281 0322 0B       		.uleb128 0xb
 9282 0323 39       		.uleb128 0x39
 9283 0324 0B       		.uleb128 0xb
ARM GAS  C:\Users\DEVELO~1\AppData\Local\Temp\ccuGzkMt.s 			page 164


 9284 0325 49       		.uleb128 0x49
 9285 0326 13       		.uleb128 0x13
 9286 0327 02       		.uleb128 0x2
 9287 0328 18       		.uleb128 0x18
 9288 0329 00       		.byte	0
 9289 032a 00       		.byte	0
 9290 032b 35       		.uleb128 0x35
 9291 032c 2E       		.uleb128 0x2e
 9292 032d 01       		.byte	0x1
 9293 032e 3F       		.uleb128 0x3f
 9294 032f 19       		.uleb128 0x19
 9295 0330 03       		.uleb128 0x3
 9296 0331 0E       		.uleb128 0xe
 9297 0332 3A       		.uleb128 0x3a
 9298 0333 21       		.uleb128 0x21
 9299 0334 01       		.sleb128 1
 9300 0335 3B       		.uleb128 0x3b
 9301 0336 05       		.uleb128 0x5
 9302 0337 39       		.uleb128 0x39
 9303 0338 21       		.uleb128 0x21
 9304 0339 06       		.sleb128 6
 9305 033a 27       		.uleb128 0x27
 9306 033b 19       		.uleb128 0x19
 9307 033c 49       		.uleb128 0x49
 9308 033d 13       		.uleb128 0x13
 9309 033e 20       		.uleb128 0x20
 9310 033f 21       		.uleb128 0x21
 9311 0340 01       		.sleb128 1
 9312 0341 01       		.uleb128 0x1
 9313 0342 13       		.uleb128 0x13
 9314 0343 00       		.byte	0
 9315 0344 00       		.byte	0
 9316 0345 36       		.uleb128 0x36
 9317 0346 17       		.uleb128 0x17
 9318 0347 01       		.byte	0x1
 9319 0348 0B       		.uleb128 0xb
 9320 0349 0B       		.uleb128 0xb
 9321 034a 3A       		.uleb128 0x3a
 9322 034b 0B       		.uleb128 0xb
 9323 034c 3B       		.uleb128 0x3b
 9324 034d 0B       		.uleb128 0xb
 9325 034e 39       		.uleb128 0x39
 9326 034f 21       		.uleb128 0x21
 9327 0350 03       		.sleb128 3
 9328 0351 01       		.uleb128 0x1
 9329 0352 13       		.uleb128 0x13
 9330 0353 00       		.byte	0
 9331 0354 00       		.byte	0
 9332 0355 37       		.uleb128 0x37
 9333 0356 13       		.uleb128 0x13
 9334 0357 01       		.byte	0x1
 9335 0358 0B       		.uleb128 0xb
 9336 0359 05       		.uleb128 0x5
 9337 035a 3A       		.uleb128 0x3a
 9338 035b 21       		.uleb128 0x21
 9339 035c 11       		.sleb128 17
 9340 035d 3B       		.uleb128 0x3b
ARM GAS  C:\Users\DEVELO~1\AppData\Local\Temp\ccuGzkMt.s 			page 165


 9341 035e 05       		.uleb128 0x5
 9342 035f 39       		.uleb128 0x39
 9343 0360 21       		.uleb128 0x21
 9344 0361 09       		.sleb128 9
 9345 0362 01       		.uleb128 0x1
 9346 0363 13       		.uleb128 0x13
 9347 0364 00       		.byte	0
 9348 0365 00       		.byte	0
 9349 0366 38       		.uleb128 0x38
 9350 0367 2E       		.uleb128 0x2e
 9351 0368 01       		.byte	0x1
 9352 0369 3F       		.uleb128 0x3f
 9353 036a 19       		.uleb128 0x19
 9354 036b 03       		.uleb128 0x3
 9355 036c 0E       		.uleb128 0xe
 9356 036d 3A       		.uleb128 0x3a
 9357 036e 21       		.uleb128 0x21
 9358 036f 19       		.sleb128 25
 9359 0370 3B       		.uleb128 0x3b
 9360 0371 05       		.uleb128 0x5
 9361 0372 39       		.uleb128 0x39
 9362 0373 21       		.uleb128 0x21
 9363 0374 08       		.sleb128 8
 9364 0375 27       		.uleb128 0x27
 9365 0376 19       		.uleb128 0x19
 9366 0377 3C       		.uleb128 0x3c
 9367 0378 19       		.uleb128 0x19
 9368 0379 01       		.uleb128 0x1
 9369 037a 13       		.uleb128 0x13
 9370 037b 00       		.byte	0
 9371 037c 00       		.byte	0
 9372 037d 39       		.uleb128 0x39
 9373 037e 2E       		.uleb128 0x2e
 9374 037f 01       		.byte	0x1
 9375 0380 3F       		.uleb128 0x3f
 9376 0381 19       		.uleb128 0x19
 9377 0382 03       		.uleb128 0x3
 9378 0383 0E       		.uleb128 0xe
 9379 0384 3A       		.uleb128 0x3a
 9380 0385 0B       		.uleb128 0xb
 9381 0386 3B       		.uleb128 0x3b
 9382 0387 0B       		.uleb128 0xb
 9383 0388 39       		.uleb128 0x39
 9384 0389 0B       		.uleb128 0xb
 9385 038a 27       		.uleb128 0x27
 9386 038b 19       		.uleb128 0x19
 9387 038c 49       		.uleb128 0x49
 9388 038d 13       		.uleb128 0x13
 9389 038e 3C       		.uleb128 0x3c
 9390 038f 19       		.uleb128 0x19
 9391 0390 01       		.uleb128 0x1
 9392 0391 13       		.uleb128 0x13
 9393 0392 00       		.byte	0
 9394 0393 00       		.byte	0
 9395 0394 3A       		.uleb128 0x3a
 9396 0395 0B       		.uleb128 0xb
 9397 0396 01       		.byte	0x1
ARM GAS  C:\Users\DEVELO~1\AppData\Local\Temp\ccuGzkMt.s 			page 166


 9398 0397 55       		.uleb128 0x55
 9399 0398 17       		.uleb128 0x17
 9400 0399 01       		.uleb128 0x1
 9401 039a 13       		.uleb128 0x13
 9402 039b 00       		.byte	0
 9403 039c 00       		.byte	0
 9404 039d 3B       		.uleb128 0x3b
 9405 039e 48       		.uleb128 0x48
 9406 039f 00       		.byte	0
 9407 03a0 7D       		.uleb128 0x7d
 9408 03a1 01       		.uleb128 0x1
 9409 03a2 8201     		.uleb128 0x82
 9410 03a4 19       		.uleb128 0x19
 9411 03a5 7F       		.uleb128 0x7f
 9412 03a6 13       		.uleb128 0x13
 9413 03a7 00       		.byte	0
 9414 03a8 00       		.byte	0
 9415 03a9 3C       		.uleb128 0x3c
 9416 03aa 0A       		.uleb128 0xa
 9417 03ab 00       		.byte	0
 9418 03ac 03       		.uleb128 0x3
 9419 03ad 0E       		.uleb128 0xe
 9420 03ae 3A       		.uleb128 0x3a
 9421 03af 21       		.uleb128 0x21
 9422 03b0 01       		.sleb128 1
 9423 03b1 3B       		.uleb128 0x3b
 9424 03b2 05       		.uleb128 0x5
 9425 03b3 39       		.uleb128 0x39
 9426 03b4 21       		.uleb128 0x21
 9427 03b5 01       		.sleb128 1
 9428 03b6 00       		.byte	0
 9429 03b7 00       		.byte	0
 9430 03b8 3D       		.uleb128 0x3d
 9431 03b9 34       		.uleb128 0x34
 9432 03ba 00       		.byte	0
 9433 03bb 03       		.uleb128 0x3
 9434 03bc 08       		.uleb128 0x8
 9435 03bd 3A       		.uleb128 0x3a
 9436 03be 21       		.uleb128 0x21
 9437 03bf 01       		.sleb128 1
 9438 03c0 3B       		.uleb128 0x3b
 9439 03c1 05       		.uleb128 0x5
 9440 03c2 39       		.uleb128 0x39
 9441 03c3 21       		.uleb128 0x21
 9442 03c4 0C       		.sleb128 12
 9443 03c5 49       		.uleb128 0x49
 9444 03c6 13       		.uleb128 0x13
 9445 03c7 00       		.byte	0
 9446 03c8 00       		.byte	0
 9447 03c9 3E       		.uleb128 0x3e
 9448 03ca 05       		.uleb128 0x5
 9449 03cb 00       		.byte	0
 9450 03cc 03       		.uleb128 0x3
 9451 03cd 08       		.uleb128 0x8
 9452 03ce 3A       		.uleb128 0x3a
 9453 03cf 21       		.uleb128 0x21
 9454 03d0 01       		.sleb128 1
ARM GAS  C:\Users\DEVELO~1\AppData\Local\Temp\ccuGzkMt.s 			page 167


 9455 03d1 3B       		.uleb128 0x3b
 9456 03d2 05       		.uleb128 0x5
 9457 03d3 39       		.uleb128 0x39
 9458 03d4 0B       		.uleb128 0xb
 9459 03d5 49       		.uleb128 0x49
 9460 03d6 13       		.uleb128 0x13
 9461 03d7 02       		.uleb128 0x2
 9462 03d8 18       		.uleb128 0x18
 9463 03d9 00       		.byte	0
 9464 03da 00       		.byte	0
 9465 03db 3F       		.uleb128 0x3f
 9466 03dc 2E       		.uleb128 0x2e
 9467 03dd 01       		.byte	0x1
 9468 03de 03       		.uleb128 0x3
 9469 03df 0E       		.uleb128 0xe
 9470 03e0 3A       		.uleb128 0x3a
 9471 03e1 0B       		.uleb128 0xb
 9472 03e2 3B       		.uleb128 0x3b
 9473 03e3 05       		.uleb128 0x5
 9474 03e4 39       		.uleb128 0x39
 9475 03e5 0B       		.uleb128 0xb
 9476 03e6 27       		.uleb128 0x27
 9477 03e7 19       		.uleb128 0x19
 9478 03e8 49       		.uleb128 0x49
 9479 03e9 13       		.uleb128 0x13
 9480 03ea 20       		.uleb128 0x20
 9481 03eb 0B       		.uleb128 0xb
 9482 03ec 01       		.uleb128 0x1
 9483 03ed 13       		.uleb128 0x13
 9484 03ee 00       		.byte	0
 9485 03ef 00       		.byte	0
 9486 03f0 40       		.uleb128 0x40
 9487 03f1 1D       		.uleb128 0x1d
 9488 03f2 01       		.byte	0x1
 9489 03f3 31       		.uleb128 0x31
 9490 03f4 13       		.uleb128 0x13
 9491 03f5 55       		.uleb128 0x55
 9492 03f6 17       		.uleb128 0x17
 9493 03f7 58       		.uleb128 0x58
 9494 03f8 21       		.uleb128 0x21
 9495 03f9 01       		.sleb128 1
 9496 03fa 59       		.uleb128 0x59
 9497 03fb 05       		.uleb128 0x5
 9498 03fc 57       		.uleb128 0x57
 9499 03fd 21       		.uleb128 0x21
 9500 03fe 19       		.sleb128 25
 9501 03ff 01       		.uleb128 0x1
 9502 0400 13       		.uleb128 0x13
 9503 0401 00       		.byte	0
 9504 0402 00       		.byte	0
 9505 0403 41       		.uleb128 0x41
 9506 0404 0A       		.uleb128 0xa
 9507 0405 00       		.byte	0
 9508 0406 31       		.uleb128 0x31
 9509 0407 13       		.uleb128 0x13
 9510 0408 11       		.uleb128 0x11
 9511 0409 01       		.uleb128 0x1
ARM GAS  C:\Users\DEVELO~1\AppData\Local\Temp\ccuGzkMt.s 			page 168


 9512 040a 00       		.byte	0
 9513 040b 00       		.byte	0
 9514 040c 42       		.uleb128 0x42
 9515 040d 1D       		.uleb128 0x1d
 9516 040e 01       		.byte	0x1
 9517 040f 31       		.uleb128 0x31
 9518 0410 13       		.uleb128 0x13
 9519 0411 52       		.uleb128 0x52
 9520 0412 01       		.uleb128 0x1
 9521 0413 B842     		.uleb128 0x2138
 9522 0415 0B       		.uleb128 0xb
 9523 0416 55       		.uleb128 0x55
 9524 0417 17       		.uleb128 0x17
 9525 0418 58       		.uleb128 0x58
 9526 0419 21       		.uleb128 0x21
 9527 041a 01       		.sleb128 1
 9528 041b 59       		.uleb128 0x59
 9529 041c 0B       		.uleb128 0xb
 9530 041d 57       		.uleb128 0x57
 9531 041e 21       		.uleb128 0x21
 9532 041f 09       		.sleb128 9
 9533 0420 01       		.uleb128 0x1
 9534 0421 13       		.uleb128 0x13
 9535 0422 00       		.byte	0
 9536 0423 00       		.byte	0
 9537 0424 43       		.uleb128 0x43
 9538 0425 1D       		.uleb128 0x1d
 9539 0426 01       		.byte	0x1
 9540 0427 31       		.uleb128 0x31
 9541 0428 13       		.uleb128 0x13
 9542 0429 52       		.uleb128 0x52
 9543 042a 01       		.uleb128 0x1
 9544 042b B842     		.uleb128 0x2138
 9545 042d 0B       		.uleb128 0xb
 9546 042e 55       		.uleb128 0x55
 9547 042f 17       		.uleb128 0x17
 9548 0430 58       		.uleb128 0x58
 9549 0431 21       		.uleb128 0x21
 9550 0432 01       		.sleb128 1
 9551 0433 59       		.uleb128 0x59
 9552 0434 0B       		.uleb128 0xb
 9553 0435 57       		.uleb128 0x57
 9554 0436 21       		.uleb128 0x21
 9555 0437 09       		.sleb128 9
 9556 0438 00       		.byte	0
 9557 0439 00       		.byte	0
 9558 043a 44       		.uleb128 0x44
 9559 043b 34       		.uleb128 0x34
 9560 043c 00       		.byte	0
 9561 043d 31       		.uleb128 0x31
 9562 043e 13       		.uleb128 0x13
 9563 043f 00       		.byte	0
 9564 0440 00       		.byte	0
 9565 0441 45       		.uleb128 0x45
 9566 0442 11       		.uleb128 0x11
 9567 0443 01       		.byte	0x1
 9568 0444 25       		.uleb128 0x25
ARM GAS  C:\Users\DEVELO~1\AppData\Local\Temp\ccuGzkMt.s 			page 169


 9569 0445 0E       		.uleb128 0xe
 9570 0446 13       		.uleb128 0x13
 9571 0447 0B       		.uleb128 0xb
 9572 0448 03       		.uleb128 0x3
 9573 0449 0E       		.uleb128 0xe
 9574 044a 1B       		.uleb128 0x1b
 9575 044b 0E       		.uleb128 0xe
 9576 044c 55       		.uleb128 0x55
 9577 044d 17       		.uleb128 0x17
 9578 044e 11       		.uleb128 0x11
 9579 044f 01       		.uleb128 0x1
 9580 0450 10       		.uleb128 0x10
 9581 0451 17       		.uleb128 0x17
 9582 0452 00       		.byte	0
 9583 0453 00       		.byte	0
 9584 0454 46       		.uleb128 0x46
 9585 0455 24       		.uleb128 0x24
 9586 0456 00       		.byte	0
 9587 0457 0B       		.uleb128 0xb
 9588 0458 0B       		.uleb128 0xb
 9589 0459 3E       		.uleb128 0x3e
 9590 045a 0B       		.uleb128 0xb
 9591 045b 03       		.uleb128 0x3
 9592 045c 08       		.uleb128 0x8
 9593 045d 00       		.byte	0
 9594 045e 00       		.byte	0
 9595 045f 47       		.uleb128 0x47
 9596 0460 0F       		.uleb128 0xf
 9597 0461 00       		.byte	0
 9598 0462 0B       		.uleb128 0xb
 9599 0463 0B       		.uleb128 0xb
 9600 0464 00       		.byte	0
 9601 0465 00       		.byte	0
 9602 0466 48       		.uleb128 0x48
 9603 0467 13       		.uleb128 0x13
 9604 0468 01       		.byte	0x1
 9605 0469 03       		.uleb128 0x3
 9606 046a 0E       		.uleb128 0xe
 9607 046b 0B       		.uleb128 0xb
 9608 046c 05       		.uleb128 0x5
 9609 046d 3A       		.uleb128 0x3a
 9610 046e 0B       		.uleb128 0xb
 9611 046f 3B       		.uleb128 0x3b
 9612 0470 05       		.uleb128 0x5
 9613 0471 39       		.uleb128 0x39
 9614 0472 0B       		.uleb128 0xb
 9615 0473 01       		.uleb128 0x1
 9616 0474 13       		.uleb128 0x13
 9617 0475 00       		.byte	0
 9618 0476 00       		.byte	0
 9619 0477 49       		.uleb128 0x49
 9620 0478 13       		.uleb128 0x13
 9621 0479 01       		.byte	0x1
 9622 047a 0B       		.uleb128 0xb
 9623 047b 05       		.uleb128 0x5
 9624 047c 3A       		.uleb128 0x3a
 9625 047d 0B       		.uleb128 0xb
ARM GAS  C:\Users\DEVELO~1\AppData\Local\Temp\ccuGzkMt.s 			page 170


 9626 047e 3B       		.uleb128 0x3b
 9627 047f 0B       		.uleb128 0xb
 9628 0480 39       		.uleb128 0x39
 9629 0481 0B       		.uleb128 0xb
 9630 0482 01       		.uleb128 0x1
 9631 0483 13       		.uleb128 0x13
 9632 0484 00       		.byte	0
 9633 0485 00       		.byte	0
 9634 0486 4A       		.uleb128 0x4a
 9635 0487 15       		.uleb128 0x15
 9636 0488 01       		.byte	0x1
 9637 0489 27       		.uleb128 0x27
 9638 048a 19       		.uleb128 0x19
 9639 048b 01       		.uleb128 0x1
 9640 048c 13       		.uleb128 0x13
 9641 048d 00       		.byte	0
 9642 048e 00       		.byte	0
 9643 048f 4B       		.uleb128 0x4b
 9644 0490 17       		.uleb128 0x17
 9645 0491 01       		.byte	0x1
 9646 0492 0B       		.uleb128 0xb
 9647 0493 0B       		.uleb128 0xb
 9648 0494 3A       		.uleb128 0x3a
 9649 0495 0B       		.uleb128 0xb
 9650 0496 3B       		.uleb128 0x3b
 9651 0497 05       		.uleb128 0x5
 9652 0498 39       		.uleb128 0x39
 9653 0499 0B       		.uleb128 0xb
 9654 049a 01       		.uleb128 0x1
 9655 049b 13       		.uleb128 0x13
 9656 049c 00       		.byte	0
 9657 049d 00       		.byte	0
 9658 049e 4C       		.uleb128 0x4c
 9659 049f 34       		.uleb128 0x34
 9660 04a0 00       		.byte	0
 9661 04a1 03       		.uleb128 0x3
 9662 04a2 0E       		.uleb128 0xe
 9663 04a3 3A       		.uleb128 0x3a
 9664 04a4 0B       		.uleb128 0xb
 9665 04a5 3B       		.uleb128 0x3b
 9666 04a6 05       		.uleb128 0x5
 9667 04a7 39       		.uleb128 0x39
 9668 04a8 0B       		.uleb128 0xb
 9669 04a9 49       		.uleb128 0x49
 9670 04aa 13       		.uleb128 0x13
 9671 04ab 3F       		.uleb128 0x3f
 9672 04ac 19       		.uleb128 0x19
 9673 04ad 3C       		.uleb128 0x3c
 9674 04ae 19       		.uleb128 0x19
 9675 04af 00       		.byte	0
 9676 04b0 00       		.byte	0
 9677 04b1 4D       		.uleb128 0x4d
 9678 04b2 34       		.uleb128 0x34
 9679 04b3 00       		.byte	0
 9680 04b4 47       		.uleb128 0x47
 9681 04b5 13       		.uleb128 0x13
 9682 04b6 3A       		.uleb128 0x3a
ARM GAS  C:\Users\DEVELO~1\AppData\Local\Temp\ccuGzkMt.s 			page 171


 9683 04b7 0B       		.uleb128 0xb
 9684 04b8 3B       		.uleb128 0x3b
 9685 04b9 0B       		.uleb128 0xb
 9686 04ba 39       		.uleb128 0x39
 9687 04bb 0B       		.uleb128 0xb
 9688 04bc 02       		.uleb128 0x2
 9689 04bd 18       		.uleb128 0x18
 9690 04be 00       		.byte	0
 9691 04bf 00       		.byte	0
 9692 04c0 4E       		.uleb128 0x4e
 9693 04c1 21       		.uleb128 0x21
 9694 04c2 00       		.byte	0
 9695 04c3 49       		.uleb128 0x49
 9696 04c4 13       		.uleb128 0x13
 9697 04c5 2F       		.uleb128 0x2f
 9698 04c6 05       		.uleb128 0x5
 9699 04c7 00       		.byte	0
 9700 04c8 00       		.byte	0
 9701 04c9 4F       		.uleb128 0x4f
 9702 04ca 26       		.uleb128 0x26
 9703 04cb 00       		.byte	0
 9704 04cc 00       		.byte	0
 9705 04cd 00       		.byte	0
 9706 04ce 50       		.uleb128 0x50
 9707 04cf 2E       		.uleb128 0x2e
 9708 04d0 01       		.byte	0x1
 9709 04d1 3F       		.uleb128 0x3f
 9710 04d2 19       		.uleb128 0x19
 9711 04d3 03       		.uleb128 0x3
 9712 04d4 0E       		.uleb128 0xe
 9713 04d5 3A       		.uleb128 0x3a
 9714 04d6 0B       		.uleb128 0xb
 9715 04d7 3B       		.uleb128 0x3b
 9716 04d8 05       		.uleb128 0x5
 9717 04d9 39       		.uleb128 0x39
 9718 04da 0B       		.uleb128 0xb
 9719 04db 27       		.uleb128 0x27
 9720 04dc 19       		.uleb128 0x19
 9721 04dd 49       		.uleb128 0x49
 9722 04de 13       		.uleb128 0x13
 9723 04df 3C       		.uleb128 0x3c
 9724 04e0 19       		.uleb128 0x19
 9725 04e1 01       		.uleb128 0x1
 9726 04e2 13       		.uleb128 0x13
 9727 04e3 00       		.byte	0
 9728 04e4 00       		.byte	0
 9729 04e5 51       		.uleb128 0x51
 9730 04e6 2E       		.uleb128 0x2e
 9731 04e7 01       		.byte	0x1
 9732 04e8 3F       		.uleb128 0x3f
 9733 04e9 19       		.uleb128 0x19
 9734 04ea 03       		.uleb128 0x3
 9735 04eb 0E       		.uleb128 0xe
 9736 04ec 3A       		.uleb128 0x3a
 9737 04ed 0B       		.uleb128 0xb
 9738 04ee 3B       		.uleb128 0x3b
 9739 04ef 0B       		.uleb128 0xb
ARM GAS  C:\Users\DEVELO~1\AppData\Local\Temp\ccuGzkMt.s 			page 172


 9740 04f0 39       		.uleb128 0x39
 9741 04f1 0B       		.uleb128 0xb
 9742 04f2 27       		.uleb128 0x27
 9743 04f3 19       		.uleb128 0x19
 9744 04f4 3C       		.uleb128 0x3c
 9745 04f5 19       		.uleb128 0x19
 9746 04f6 01       		.uleb128 0x1
 9747 04f7 13       		.uleb128 0x13
 9748 04f8 00       		.byte	0
 9749 04f9 00       		.byte	0
 9750 04fa 52       		.uleb128 0x52
 9751 04fb 0A       		.uleb128 0xa
 9752 04fc 00       		.byte	0
 9753 04fd 03       		.uleb128 0x3
 9754 04fe 0E       		.uleb128 0xe
 9755 04ff 3A       		.uleb128 0x3a
 9756 0500 0B       		.uleb128 0xb
 9757 0501 3B       		.uleb128 0x3b
 9758 0502 05       		.uleb128 0x5
 9759 0503 39       		.uleb128 0x39
 9760 0504 0B       		.uleb128 0xb
 9761 0505 11       		.uleb128 0x11
 9762 0506 01       		.uleb128 0x1
 9763 0507 00       		.byte	0
 9764 0508 00       		.byte	0
 9765 0509 53       		.uleb128 0x53
 9766 050a 1D       		.uleb128 0x1d
 9767 050b 01       		.byte	0x1
 9768 050c 31       		.uleb128 0x31
 9769 050d 13       		.uleb128 0x13
 9770 050e 55       		.uleb128 0x55
 9771 050f 17       		.uleb128 0x17
 9772 0510 58       		.uleb128 0x58
 9773 0511 0B       		.uleb128 0xb
 9774 0512 59       		.uleb128 0x59
 9775 0513 0B       		.uleb128 0xb
 9776 0514 57       		.uleb128 0x57
 9777 0515 0B       		.uleb128 0xb
 9778 0516 01       		.uleb128 0x1
 9779 0517 13       		.uleb128 0x13
 9780 0518 00       		.byte	0
 9781 0519 00       		.byte	0
 9782 051a 54       		.uleb128 0x54
 9783 051b 48       		.uleb128 0x48
 9784 051c 01       		.byte	0x1
 9785 051d 7D       		.uleb128 0x7d
 9786 051e 01       		.uleb128 0x1
 9787 051f 8201     		.uleb128 0x82
 9788 0521 19       		.uleb128 0x19
 9789 0522 7F       		.uleb128 0x7f
 9790 0523 13       		.uleb128 0x13
 9791 0524 00       		.byte	0
 9792 0525 00       		.byte	0
 9793 0526 55       		.uleb128 0x55
 9794 0527 05       		.uleb128 0x5
 9795 0528 00       		.byte	0
 9796 0529 31       		.uleb128 0x31
ARM GAS  C:\Users\DEVELO~1\AppData\Local\Temp\ccuGzkMt.s 			page 173


 9797 052a 13       		.uleb128 0x13
 9798 052b 1C       		.uleb128 0x1c
 9799 052c 0B       		.uleb128 0xb
 9800 052d 00       		.byte	0
 9801 052e 00       		.byte	0
 9802 052f 56       		.uleb128 0x56
 9803 0530 05       		.uleb128 0x5
 9804 0531 00       		.byte	0
 9805 0532 31       		.uleb128 0x31
 9806 0533 13       		.uleb128 0x13
 9807 0534 1C       		.uleb128 0x1c
 9808 0535 06       		.uleb128 0x6
 9809 0536 00       		.byte	0
 9810 0537 00       		.byte	0
 9811 0538 57       		.uleb128 0x57
 9812 0539 2E       		.uleb128 0x2e
 9813 053a 01       		.byte	0x1
 9814 053b 03       		.uleb128 0x3
 9815 053c 0E       		.uleb128 0xe
 9816 053d 3A       		.uleb128 0x3a
 9817 053e 0B       		.uleb128 0xb
 9818 053f 3B       		.uleb128 0x3b
 9819 0540 05       		.uleb128 0x5
 9820 0541 39       		.uleb128 0x39
 9821 0542 0B       		.uleb128 0xb
 9822 0543 27       		.uleb128 0x27
 9823 0544 19       		.uleb128 0x19
 9824 0545 11       		.uleb128 0x11
 9825 0546 01       		.uleb128 0x1
 9826 0547 12       		.uleb128 0x12
 9827 0548 06       		.uleb128 0x6
 9828 0549 40       		.uleb128 0x40
 9829 054a 18       		.uleb128 0x18
 9830 054b 7A       		.uleb128 0x7a
 9831 054c 19       		.uleb128 0x19
 9832 054d 01       		.uleb128 0x1
 9833 054e 13       		.uleb128 0x13
 9834 054f 00       		.byte	0
 9835 0550 00       		.byte	0
 9836 0551 58       		.uleb128 0x58
 9837 0552 34       		.uleb128 0x34
 9838 0553 00       		.byte	0
 9839 0554 03       		.uleb128 0x3
 9840 0555 0E       		.uleb128 0xe
 9841 0556 3A       		.uleb128 0x3a
 9842 0557 0B       		.uleb128 0xb
 9843 0558 3B       		.uleb128 0x3b
 9844 0559 05       		.uleb128 0x5
 9845 055a 39       		.uleb128 0x39
 9846 055b 0B       		.uleb128 0xb
 9847 055c 49       		.uleb128 0x49
 9848 055d 13       		.uleb128 0x13
 9849 055e 02       		.uleb128 0x2
 9850 055f 17       		.uleb128 0x17
 9851 0560 B742     		.uleb128 0x2137
 9852 0562 17       		.uleb128 0x17
 9853 0563 00       		.byte	0
ARM GAS  C:\Users\DEVELO~1\AppData\Local\Temp\ccuGzkMt.s 			page 174


 9854 0564 00       		.byte	0
 9855 0565 59       		.uleb128 0x59
 9856 0566 34       		.uleb128 0x34
 9857 0567 00       		.byte	0
 9858 0568 03       		.uleb128 0x3
 9859 0569 08       		.uleb128 0x8
 9860 056a 3A       		.uleb128 0x3a
 9861 056b 0B       		.uleb128 0xb
 9862 056c 3B       		.uleb128 0x3b
 9863 056d 0B       		.uleb128 0xb
 9864 056e 39       		.uleb128 0x39
 9865 056f 0B       		.uleb128 0xb
 9866 0570 49       		.uleb128 0x49
 9867 0571 13       		.uleb128 0x13
 9868 0572 00       		.byte	0
 9869 0573 00       		.byte	0
 9870 0574 5A       		.uleb128 0x5a
 9871 0575 2E       		.uleb128 0x2e
 9872 0576 00       		.byte	0
 9873 0577 3F       		.uleb128 0x3f
 9874 0578 19       		.uleb128 0x19
 9875 0579 3C       		.uleb128 0x3c
 9876 057a 19       		.uleb128 0x19
 9877 057b 6E       		.uleb128 0x6e
 9878 057c 0E       		.uleb128 0xe
 9879 057d 03       		.uleb128 0x3
 9880 057e 0E       		.uleb128 0xe
 9881 057f 3A       		.uleb128 0x3a
 9882 0580 0B       		.uleb128 0xb
 9883 0581 3B       		.uleb128 0x3b
 9884 0582 0B       		.uleb128 0xb
 9885 0583 00       		.byte	0
 9886 0584 00       		.byte	0
 9887 0585 00       		.byte	0
 9888              		.section	.debug_loclists,"",%progbits
 9889 0000 68100000 		.4byte	.Ldebug_loc3-.Ldebug_loc2
 9890              	.Ldebug_loc2:
 9891 0004 0500     		.2byte	0x5
 9892 0006 04       		.byte	0x4
 9893 0007 00       		.byte	0
 9894 0008 00000000 		.4byte	0
 9895              	.Ldebug_loc0:
 9896              	.LVUS174:
 9897 000c 00       		.uleb128 0
 9898 000d 00       		.uleb128 .LVU1132
 9899 000e 00       		.uleb128 .LVU1132
 9900 000f 00       		.uleb128 .LVU1137
 9901 0010 00       		.uleb128 .LVU1137
 9902 0011 00       		.uleb128 0
 9903              	.LLST174:
 9904 0012 06       		.byte	0x6
 9905 0013 00000000 		.4byte	.LVL221
 9906 0017 04       		.byte	0x4
 9907 0018 00       		.uleb128 .LVL221-.LVL221
 9908 0019 0E       		.uleb128 .LVL223-.LVL221
 9909 001a 01       		.uleb128 0x1
 9910 001b 50       		.byte	0x50
ARM GAS  C:\Users\DEVELO~1\AppData\Local\Temp\ccuGzkMt.s 			page 175


 9911 001c 04       		.byte	0x4
 9912 001d 0E       		.uleb128 .LVL223-.LVL221
 9913 001e 15       		.uleb128 .LVL225-1-.LVL221
 9914 001f 03       		.uleb128 0x3
 9915 0020 70       		.byte	0x70
 9916 0021 40       		.sleb128 -64
 9917 0022 9F       		.byte	0x9f
 9918 0023 04       		.byte	0x4
 9919 0024 15       		.uleb128 .LVL225-1-.LVL221
 9920 0025 1C       		.uleb128 .LFE473-.LVL221
 9921 0026 04       		.uleb128 0x4
 9922 0027 A3       		.byte	0xa3
 9923 0028 01       		.uleb128 0x1
 9924 0029 50       		.byte	0x50
 9925 002a 9F       		.byte	0x9f
 9926 002b 00       		.byte	0
 9927              	.LVUS176:
 9928 002c 0A       		.uleb128 .LVU1121
 9929 002d 00       		.uleb128 .LVU1125
 9930              	.LLST176:
 9931 002e 08       		.byte	0x8
 9932 002f 00000000 		.4byte	.LVL221
 9933 0033 08       		.uleb128 .LVL222-.LVL221
 9934 0034 03       		.uleb128 0x3
 9935 0035 08       		.byte	0x8
 9936 0036 30       		.byte	0x30
 9937 0037 9F       		.byte	0x9f
 9938 0038 00       		.byte	0
 9939              	.LVUS178:
 9940 0039 01       		.uleb128 .LVU1135
 9941 003a 00       		.uleb128 .LVU1137
 9942              	.LLST178:
 9943 003b 08       		.byte	0x8
 9944 003c 12000000 		.4byte	.LVL224
 9945 0040 04       		.uleb128 .LVL225-.LVL224
 9946 0041 02       		.uleb128 0x2
 9947 0042 30       		.byte	0x30
 9948 0043 9F       		.byte	0x9f
 9949 0044 00       		.byte	0
 9950              	.LVUS179:
 9951 0045 01       		.uleb128 .LVU1135
 9952 0046 00       		.uleb128 .LVU1137
 9953 0047 00       		.uleb128 .LVU1137
 9954 0048 00       		.uleb128 .LVU1137
 9955              	.LLST179:
 9956 0049 06       		.byte	0x6
 9957 004a 12000000 		.4byte	.LVL224
 9958 004e 04       		.byte	0x4
 9959 004f 00       		.uleb128 .LVL224-.LVL224
 9960 0050 03       		.uleb128 .LVL225-1-.LVL224
 9961 0051 01       		.uleb128 0x1
 9962 0052 50       		.byte	0x50
 9963 0053 04       		.byte	0x4
 9964 0054 03       		.uleb128 .LVL225-1-.LVL224
 9965 0055 04       		.uleb128 .LVL225-.LVL224
 9966 0056 06       		.uleb128 0x6
 9967 0057 A3       		.byte	0xa3
ARM GAS  C:\Users\DEVELO~1\AppData\Local\Temp\ccuGzkMt.s 			page 176


 9968 0058 01       		.uleb128 0x1
 9969 0059 50       		.byte	0x50
 9970 005a 23       		.byte	0x23
 9971 005b 40       		.uleb128 0x40
 9972 005c 9F       		.byte	0x9f
 9973 005d 00       		.byte	0
 9974              	.LVUS180:
 9975 005e 0C       		.uleb128 .LVU1149
 9976 005f 00       		.uleb128 .LVU1151
 9977              	.LLST180:
 9978 0060 08       		.byte	0x8
 9979 0061 16000000 		.4byte	.LVL225
 9980 0065 04       		.uleb128 .LVL226-.LVL225
 9981 0066 02       		.uleb128 0x2
 9982 0067 30       		.byte	0x30
 9983 0068 9F       		.byte	0x9f
 9984 0069 00       		.byte	0
 9985              	.LVUS173:
 9986 006a 00       		.uleb128 0
 9987 006b 00       		.uleb128 .LVU1110
 9988 006c 00       		.uleb128 .LVU1110
 9989 006d 00       		.uleb128 0
 9990              	.LLST173:
 9991 006e 06       		.byte	0x6
 9992 006f 00000000 		.4byte	.LVL219
 9993 0073 04       		.byte	0x4
 9994 0074 00       		.uleb128 .LVL219-.LVL219
 9995 0075 02       		.uleb128 .LVL220-.LVL219
 9996 0076 01       		.uleb128 0x1
 9997 0077 50       		.byte	0x50
 9998 0078 04       		.byte	0x4
 9999 0079 02       		.uleb128 .LVL220-.LVL219
 10000 007a 04       		.uleb128 .LFE472-.LVL219
 10001 007b 04       		.uleb128 0x4
 10002 007c A3       		.byte	0xa3
 10003 007d 01       		.uleb128 0x1
 10004 007e 50       		.byte	0x50
 10005 007f 9F       		.byte	0x9f
 10006 0080 00       		.byte	0
 10007              	.LVUS167:
 10008 0081 00       		.uleb128 0
 10009 0082 00       		.uleb128 .LVU1087
 10010 0083 00       		.uleb128 .LVU1087
 10011 0084 00       		.uleb128 .LVU1101
 10012 0085 00       		.uleb128 .LVU1101
 10013 0086 00       		.uleb128 .LVU1103
 10014 0087 00       		.uleb128 .LVU1103
 10015 0088 00       		.uleb128 .LVU1105
 10016 0089 00       		.uleb128 .LVU1105
 10017 008a 00       		.uleb128 0
 10018              	.LLST167:
 10019 008b 06       		.byte	0x6
 10020 008c 00000000 		.4byte	.LVL208
 10021 0090 04       		.byte	0x4
 10022 0091 00       		.uleb128 .LVL208-.LVL208
 10023 0092 18       		.uleb128 .LVL210-.LVL208
 10024 0093 01       		.uleb128 0x1
ARM GAS  C:\Users\DEVELO~1\AppData\Local\Temp\ccuGzkMt.s 			page 177


 10025 0094 50       		.byte	0x50
 10026 0095 04       		.byte	0x4
 10027 0096 18       		.uleb128 .LVL210-.LVL208
 10028 0097 40       		.uleb128 .LVL216-.LVL208
 10029 0098 01       		.uleb128 0x1
 10030 0099 56       		.byte	0x56
 10031 009a 04       		.byte	0x4
 10032 009b 40       		.uleb128 .LVL216-.LVL208
 10033 009c 46       		.uleb128 .LVL217-.LVL208
 10034 009d 04       		.uleb128 0x4
 10035 009e A3       		.byte	0xa3
 10036 009f 01       		.uleb128 0x1
 10037 00a0 50       		.byte	0x50
 10038 00a1 9F       		.byte	0x9f
 10039 00a2 04       		.byte	0x4
 10040 00a3 46       		.uleb128 .LVL217-.LVL208
 10041 00a4 49       		.uleb128 .LVL218-1-.LVL208
 10042 00a5 01       		.uleb128 0x1
 10043 00a6 50       		.byte	0x50
 10044 00a7 04       		.byte	0x4
 10045 00a8 49       		.uleb128 .LVL218-1-.LVL208
 10046 00a9 4A       		.uleb128 .LFE471-.LVL208
 10047 00aa 04       		.uleb128 0x4
 10048 00ab A3       		.byte	0xa3
 10049 00ac 01       		.uleb128 0x1
 10050 00ad 50       		.byte	0x50
 10051 00ae 9F       		.byte	0x9f
 10052 00af 00       		.byte	0
 10053              	.LVUS168:
 10054 00b0 00       		.uleb128 0
 10055 00b1 00       		.uleb128 .LVU1087
 10056 00b2 00       		.uleb128 .LVU1087
 10057 00b3 00       		.uleb128 .LVU1095
 10058 00b4 00       		.uleb128 .LVU1095
 10059 00b5 00       		.uleb128 .LVU1096
 10060 00b6 00       		.uleb128 .LVU1096
 10061 00b7 01       		.uleb128 .LVU1097
 10062 00b8 01       		.uleb128 .LVU1097
 10063 00b9 00       		.uleb128 .LVU1101
 10064 00ba 00       		.uleb128 .LVU1103
 10065 00bb 00       		.uleb128 .LVU1105
 10066 00bc 00       		.uleb128 .LVU1105
 10067 00bd 00       		.uleb128 0
 10068              	.LLST168:
 10069 00be 06       		.byte	0x6
 10070 00bf 00000000 		.4byte	.LVL208
 10071 00c3 04       		.byte	0x4
 10072 00c4 00       		.uleb128 .LVL208-.LVL208
 10073 00c5 18       		.uleb128 .LVL210-.LVL208
 10074 00c6 01       		.uleb128 0x1
 10075 00c7 51       		.byte	0x51
 10076 00c8 04       		.byte	0x4
 10077 00c9 18       		.uleb128 .LVL210-.LVL208
 10078 00ca 34       		.uleb128 .LVL214-.LVL208
 10079 00cb 01       		.uleb128 0x1
 10080 00cc 54       		.byte	0x54
 10081 00cd 04       		.byte	0x4
ARM GAS  C:\Users\DEVELO~1\AppData\Local\Temp\ccuGzkMt.s 			page 178


 10082 00ce 34       		.uleb128 .LVL214-.LVL208
 10083 00cf 37       		.uleb128 .LVL215-1-.LVL208
 10084 00d0 01       		.uleb128 0x1
 10085 00d1 51       		.byte	0x51
 10086 00d2 04       		.byte	0x4
 10087 00d3 37       		.uleb128 .LVL215-1-.LVL208
 10088 00d4 38       		.uleb128 .LVL215-.LVL208
 10089 00d5 03       		.uleb128 0x3
 10090 00d6 74       		.byte	0x74
 10091 00d7 7F       		.sleb128 -1
 10092 00d8 9F       		.byte	0x9f
 10093 00d9 04       		.byte	0x4
 10094 00da 38       		.uleb128 .LVL215-.LVL208
 10095 00db 40       		.uleb128 .LVL216-.LVL208
 10096 00dc 01       		.uleb128 0x1
 10097 00dd 54       		.byte	0x54
 10098 00de 04       		.byte	0x4
 10099 00df 46       		.uleb128 .LVL217-.LVL208
 10100 00e0 49       		.uleb128 .LVL218-1-.LVL208
 10101 00e1 01       		.uleb128 0x1
 10102 00e2 51       		.byte	0x51
 10103 00e3 04       		.byte	0x4
 10104 00e4 49       		.uleb128 .LVL218-1-.LVL208
 10105 00e5 4A       		.uleb128 .LFE471-.LVL208
 10106 00e6 04       		.uleb128 0x4
 10107 00e7 A3       		.byte	0xa3
 10108 00e8 01       		.uleb128 0x1
 10109 00e9 51       		.byte	0x51
 10110 00ea 9F       		.byte	0x9f
 10111 00eb 00       		.byte	0
 10112              	.LVUS169:
 10113 00ec 00       		.uleb128 0
 10114 00ed 00       		.uleb128 .LVU1087
 10115 00ee 00       		.uleb128 .LVU1087
 10116 00ef 00       		.uleb128 .LVU1090
 10117 00f0 00       		.uleb128 .LVU1090
 10118 00f1 00       		.uleb128 .LVU1091
 10119 00f2 00       		.uleb128 .LVU1091
 10120 00f3 01       		.uleb128 .LVU1092
 10121 00f4 01       		.uleb128 .LVU1092
 10122 00f5 00       		.uleb128 .LVU1101
 10123 00f6 00       		.uleb128 .LVU1103
 10124 00f7 00       		.uleb128 .LVU1105
 10125 00f8 00       		.uleb128 .LVU1105
 10126 00f9 00       		.uleb128 0
 10127              	.LLST169:
 10128 00fa 06       		.byte	0x6
 10129 00fb 00000000 		.4byte	.LVL208
 10130 00ff 04       		.byte	0x4
 10131 0100 00       		.uleb128 .LVL208-.LVL208
 10132 0101 18       		.uleb128 .LVL210-.LVL208
 10133 0102 01       		.uleb128 0x1
 10134 0103 52       		.byte	0x52
 10135 0104 04       		.byte	0x4
 10136 0105 18       		.uleb128 .LVL210-.LVL208
 10137 0106 26       		.uleb128 .LVL212-.LVL208
 10138 0107 01       		.uleb128 0x1
ARM GAS  C:\Users\DEVELO~1\AppData\Local\Temp\ccuGzkMt.s 			page 179


 10139 0108 55       		.byte	0x55
 10140 0109 04       		.byte	0x4
 10141 010a 26       		.uleb128 .LVL212-.LVL208
 10142 010b 29       		.uleb128 .LVL213-1-.LVL208
 10143 010c 01       		.uleb128 0x1
 10144 010d 51       		.byte	0x51
 10145 010e 04       		.byte	0x4
 10146 010f 29       		.uleb128 .LVL213-1-.LVL208
 10147 0110 2A       		.uleb128 .LVL213-.LVL208
 10148 0111 04       		.uleb128 0x4
 10149 0112 75       		.byte	0x75
 10150 0113 807C     		.sleb128 -512
 10151 0115 9F       		.byte	0x9f
 10152 0116 04       		.byte	0x4
 10153 0117 2A       		.uleb128 .LVL213-.LVL208
 10154 0118 40       		.uleb128 .LVL216-.LVL208
 10155 0119 01       		.uleb128 0x1
 10156 011a 55       		.byte	0x55
 10157 011b 04       		.byte	0x4
 10158 011c 46       		.uleb128 .LVL217-.LVL208
 10159 011d 49       		.uleb128 .LVL218-1-.LVL208
 10160 011e 01       		.uleb128 0x1
 10161 011f 52       		.byte	0x52
 10162 0120 04       		.byte	0x4
 10163 0121 49       		.uleb128 .LVL218-1-.LVL208
 10164 0122 4A       		.uleb128 .LFE471-.LVL208
 10165 0123 04       		.uleb128 0x4
 10166 0124 A3       		.byte	0xa3
 10167 0125 01       		.uleb128 0x1
 10168 0126 52       		.byte	0x52
 10169 0127 9F       		.byte	0x9f
 10170 0128 00       		.byte	0
 10171              	.LVUS170:
 10172 0129 00       		.uleb128 0
 10173 012a 00       		.uleb128 .LVU1087
 10174 012b 00       		.uleb128 .LVU1087
 10175 012c 00       		.uleb128 .LVU1103
 10176 012d 00       		.uleb128 .LVU1103
 10177 012e 00       		.uleb128 .LVU1105
 10178 012f 00       		.uleb128 .LVU1105
 10179 0130 00       		.uleb128 0
 10180              	.LLST170:
 10181 0131 06       		.byte	0x6
 10182 0132 00000000 		.4byte	.LVL208
 10183 0136 04       		.byte	0x4
 10184 0137 00       		.uleb128 .LVL208-.LVL208
 10185 0138 18       		.uleb128 .LVL210-.LVL208
 10186 0139 01       		.uleb128 0x1
 10187 013a 53       		.byte	0x53
 10188 013b 04       		.byte	0x4
 10189 013c 18       		.uleb128 .LVL210-.LVL208
 10190 013d 46       		.uleb128 .LVL217-.LVL208
 10191 013e 04       		.uleb128 0x4
 10192 013f A3       		.byte	0xa3
 10193 0140 01       		.uleb128 0x1
 10194 0141 53       		.byte	0x53
 10195 0142 9F       		.byte	0x9f
ARM GAS  C:\Users\DEVELO~1\AppData\Local\Temp\ccuGzkMt.s 			page 180


 10196 0143 04       		.byte	0x4
 10197 0144 46       		.uleb128 .LVL217-.LVL208
 10198 0145 49       		.uleb128 .LVL218-1-.LVL208
 10199 0146 01       		.uleb128 0x1
 10200 0147 53       		.byte	0x53
 10201 0148 04       		.byte	0x4
 10202 0149 49       		.uleb128 .LVL218-1-.LVL208
 10203 014a 4A       		.uleb128 .LFE471-.LVL208
 10204 014b 04       		.uleb128 0x4
 10205 014c A3       		.byte	0xa3
 10206 014d 01       		.uleb128 0x1
 10207 014e 53       		.byte	0x53
 10208 014f 9F       		.byte	0x9f
 10209 0150 00       		.byte	0
 10210              	.LVUS172:
 10211 0151 00       		.uleb128 .LVU1084
 10212 0152 00       		.uleb128 .LVU1103
 10213              	.LLST172:
 10214 0153 08       		.byte	0x8
 10215 0154 06000000 		.4byte	.LVL209
 10216 0158 40       		.uleb128 .LVL217-.LVL209
 10217 0159 02       		.uleb128 0x2
 10218 015a 30       		.byte	0x30
 10219 015b 9F       		.byte	0x9f
 10220 015c 00       		.byte	0
 10221              	.LVUS161:
 10222 015d 00       		.uleb128 0
 10223 015e 00       		.uleb128 .LVU1061
 10224 015f 00       		.uleb128 .LVU1061
 10225 0160 00       		.uleb128 .LVU1076
 10226 0161 00       		.uleb128 .LVU1076
 10227 0162 00       		.uleb128 .LVU1078
 10228 0163 00       		.uleb128 .LVU1078
 10229 0164 00       		.uleb128 .LVU1080
 10230 0165 00       		.uleb128 .LVU1080
 10231 0166 00       		.uleb128 0
 10232              	.LLST161:
 10233 0167 06       		.byte	0x6
 10234 0168 00000000 		.4byte	.LVL196
 10235 016c 04       		.byte	0x4
 10236 016d 00       		.uleb128 .LVL196-.LVL196
 10237 016e 18       		.uleb128 .LVL198-.LVL196
 10238 016f 01       		.uleb128 0x1
 10239 0170 50       		.byte	0x50
 10240 0171 04       		.byte	0x4
 10241 0172 18       		.uleb128 .LVL198-.LVL196
 10242 0173 44       		.uleb128 .LVL205-.LVL196
 10243 0174 01       		.uleb128 0x1
 10244 0175 56       		.byte	0x56
 10245 0176 04       		.byte	0x4
 10246 0177 44       		.uleb128 .LVL205-.LVL196
 10247 0178 4C       		.uleb128 .LVL206-.LVL196
 10248 0179 04       		.uleb128 0x4
 10249 017a A3       		.byte	0xa3
 10250 017b 01       		.uleb128 0x1
 10251 017c 50       		.byte	0x50
 10252 017d 9F       		.byte	0x9f
ARM GAS  C:\Users\DEVELO~1\AppData\Local\Temp\ccuGzkMt.s 			page 181


 10253 017e 04       		.byte	0x4
 10254 017f 4C       		.uleb128 .LVL206-.LVL196
 10255 0180 4F       		.uleb128 .LVL207-1-.LVL196
 10256 0181 01       		.uleb128 0x1
 10257 0182 50       		.byte	0x50
 10258 0183 04       		.byte	0x4
 10259 0184 4F       		.uleb128 .LVL207-1-.LVL196
 10260 0185 50       		.uleb128 .LFE470-.LVL196
 10261 0186 04       		.uleb128 0x4
 10262 0187 A3       		.byte	0xa3
 10263 0188 01       		.uleb128 0x1
 10264 0189 50       		.byte	0x50
 10265 018a 9F       		.byte	0x9f
 10266 018b 00       		.byte	0
 10267              	.LVUS162:
 10268 018c 00       		.uleb128 0
 10269 018d 00       		.uleb128 .LVU1061
 10270 018e 00       		.uleb128 .LVU1061
 10271 018f 02       		.uleb128 .LVU1064
 10272 0190 02       		.uleb128 .LVU1064
 10273 0191 00       		.uleb128 .LVU1071
 10274 0192 00       		.uleb128 .LVU1071
 10275 0193 00       		.uleb128 .LVU1076
 10276 0194 00       		.uleb128 .LVU1078
 10277 0195 00       		.uleb128 .LVU1080
 10278 0196 00       		.uleb128 .LVU1080
 10279 0197 00       		.uleb128 0
 10280              	.LLST162:
 10281 0198 06       		.byte	0x6
 10282 0199 00000000 		.4byte	.LVL196
 10283 019d 04       		.byte	0x4
 10284 019e 00       		.uleb128 .LVL196-.LVL196
 10285 019f 18       		.uleb128 .LVL198-.LVL196
 10286 01a0 01       		.uleb128 0x1
 10287 01a1 51       		.byte	0x51
 10288 01a2 04       		.byte	0x4
 10289 01a3 18       		.uleb128 .LVL198-.LVL196
 10290 01a4 1E       		.uleb128 .LVL199-.LVL196
 10291 01a5 03       		.uleb128 0x3
 10292 01a6 74       		.byte	0x74
 10293 01a7 7F       		.sleb128 -1
 10294 01a8 9F       		.byte	0x9f
 10295 01a9 04       		.byte	0x4
 10296 01aa 1E       		.uleb128 .LVL199-.LVL196
 10297 01ab 36       		.uleb128 .LVL202-.LVL196
 10298 01ac 01       		.uleb128 0x1
 10299 01ad 54       		.byte	0x54
 10300 01ae 04       		.byte	0x4
 10301 01af 36       		.uleb128 .LVL202-.LVL196
 10302 01b0 44       		.uleb128 .LVL205-.LVL196
 10303 01b1 03       		.uleb128 0x3
 10304 01b2 74       		.byte	0x74
 10305 01b3 7F       		.sleb128 -1
 10306 01b4 9F       		.byte	0x9f
 10307 01b5 04       		.byte	0x4
 10308 01b6 4C       		.uleb128 .LVL206-.LVL196
 10309 01b7 4F       		.uleb128 .LVL207-1-.LVL196
ARM GAS  C:\Users\DEVELO~1\AppData\Local\Temp\ccuGzkMt.s 			page 182


 10310 01b8 01       		.uleb128 0x1
 10311 01b9 51       		.byte	0x51
 10312 01ba 04       		.byte	0x4
 10313 01bb 4F       		.uleb128 .LVL207-1-.LVL196
 10314 01bc 50       		.uleb128 .LFE470-.LVL196
 10315 01bd 04       		.uleb128 0x4
 10316 01be A3       		.byte	0xa3
 10317 01bf 01       		.uleb128 0x1
 10318 01c0 51       		.byte	0x51
 10319 01c1 9F       		.byte	0x9f
 10320 01c2 00       		.byte	0
 10321              	.LVUS163:
 10322 01c3 00       		.uleb128 0
 10323 01c4 00       		.uleb128 .LVU1061
 10324 01c5 00       		.uleb128 .LVU1061
 10325 01c6 00       		.uleb128 .LVU1062
 10326 01c7 00       		.uleb128 .LVU1062
 10327 01c8 01       		.uleb128 .LVU1063
 10328 01c9 01       		.uleb128 .LVU1063
 10329 01ca 00       		.uleb128 .LVU1073
 10330 01cb 00       		.uleb128 .LVU1073
 10331 01cc 00       		.uleb128 .LVU1075
 10332 01cd 00       		.uleb128 .LVU1075
 10333 01ce 00       		.uleb128 .LVU1076
 10334 01cf 00       		.uleb128 .LVU1078
 10335 01d0 00       		.uleb128 .LVU1080
 10336 01d1 00       		.uleb128 .LVU1080
 10337 01d2 00       		.uleb128 0
 10338              	.LLST163:
 10339 01d3 06       		.byte	0x6
 10340 01d4 00000000 		.4byte	.LVL196
 10341 01d8 04       		.byte	0x4
 10342 01d9 00       		.uleb128 .LVL196-.LVL196
 10343 01da 18       		.uleb128 .LVL198-.LVL196
 10344 01db 01       		.uleb128 0x1
 10345 01dc 52       		.byte	0x52
 10346 01dd 04       		.byte	0x4
 10347 01de 18       		.uleb128 .LVL198-.LVL196
 10348 01df 1D       		.uleb128 .LVL199-1-.LVL196
 10349 01e0 01       		.uleb128 0x1
 10350 01e1 50       		.byte	0x50
 10351 01e2 04       		.byte	0x4
 10352 01e3 1D       		.uleb128 .LVL199-1-.LVL196
 10353 01e4 1E       		.uleb128 .LVL199-.LVL196
 10354 01e5 04       		.uleb128 0x4
 10355 01e6 75       		.byte	0x75
 10356 01e7 807C     		.sleb128 -512
 10357 01e9 9F       		.byte	0x9f
 10358 01ea 04       		.byte	0x4
 10359 01eb 1E       		.uleb128 .LVL199-.LVL196
 10360 01ec 3A       		.uleb128 .LVL203-.LVL196
 10361 01ed 01       		.uleb128 0x1
 10362 01ee 55       		.byte	0x55
 10363 01ef 04       		.byte	0x4
 10364 01f0 3A       		.uleb128 .LVL203-.LVL196
 10365 01f1 40       		.uleb128 .LVL204-.LVL196
 10366 01f2 01       		.uleb128 0x1
ARM GAS  C:\Users\DEVELO~1\AppData\Local\Temp\ccuGzkMt.s 			page 183


 10367 01f3 50       		.byte	0x50
 10368 01f4 04       		.byte	0x4
 10369 01f5 40       		.uleb128 .LVL204-.LVL196
 10370 01f6 44       		.uleb128 .LVL205-.LVL196
 10371 01f7 04       		.uleb128 0x4
 10372 01f8 75       		.byte	0x75
 10373 01f9 807C     		.sleb128 -512
 10374 01fb 9F       		.byte	0x9f
 10375 01fc 04       		.byte	0x4
 10376 01fd 4C       		.uleb128 .LVL206-.LVL196
 10377 01fe 4F       		.uleb128 .LVL207-1-.LVL196
 10378 01ff 01       		.uleb128 0x1
 10379 0200 52       		.byte	0x52
 10380 0201 04       		.byte	0x4
 10381 0202 4F       		.uleb128 .LVL207-1-.LVL196
 10382 0203 50       		.uleb128 .LFE470-.LVL196
 10383 0204 04       		.uleb128 0x4
 10384 0205 A3       		.byte	0xa3
 10385 0206 01       		.uleb128 0x1
 10386 0207 52       		.byte	0x52
 10387 0208 9F       		.byte	0x9f
 10388 0209 00       		.byte	0
 10389              	.LVUS164:
 10390 020a 00       		.uleb128 0
 10391 020b 00       		.uleb128 .LVU1061
 10392 020c 00       		.uleb128 .LVU1061
 10393 020d 00       		.uleb128 .LVU1078
 10394 020e 00       		.uleb128 .LVU1078
 10395 020f 00       		.uleb128 .LVU1080
 10396 0210 00       		.uleb128 .LVU1080
 10397 0211 00       		.uleb128 0
 10398              	.LLST164:
 10399 0212 06       		.byte	0x6
 10400 0213 00000000 		.4byte	.LVL196
 10401 0217 04       		.byte	0x4
 10402 0218 00       		.uleb128 .LVL196-.LVL196
 10403 0219 18       		.uleb128 .LVL198-.LVL196
 10404 021a 01       		.uleb128 0x1
 10405 021b 53       		.byte	0x53
 10406 021c 04       		.byte	0x4
 10407 021d 18       		.uleb128 .LVL198-.LVL196
 10408 021e 4C       		.uleb128 .LVL206-.LVL196
 10409 021f 04       		.uleb128 0x4
 10410 0220 A3       		.byte	0xa3
 10411 0221 01       		.uleb128 0x1
 10412 0222 53       		.byte	0x53
 10413 0223 9F       		.byte	0x9f
 10414 0224 04       		.byte	0x4
 10415 0225 4C       		.uleb128 .LVL206-.LVL196
 10416 0226 4F       		.uleb128 .LVL207-1-.LVL196
 10417 0227 01       		.uleb128 0x1
 10418 0228 53       		.byte	0x53
 10419 0229 04       		.byte	0x4
 10420 022a 4F       		.uleb128 .LVL207-1-.LVL196
 10421 022b 50       		.uleb128 .LFE470-.LVL196
 10422 022c 04       		.uleb128 0x4
 10423 022d A3       		.byte	0xa3
ARM GAS  C:\Users\DEVELO~1\AppData\Local\Temp\ccuGzkMt.s 			page 184


 10424 022e 01       		.uleb128 0x1
 10425 022f 53       		.byte	0x53
 10426 0230 9F       		.byte	0x9f
 10427 0231 00       		.byte	0
 10428              	.LVUS166:
 10429 0232 00       		.uleb128 .LVU1058
 10430 0233 00       		.uleb128 .LVU1078
 10431              	.LLST166:
 10432 0234 08       		.byte	0x8
 10433 0235 06000000 		.4byte	.LVL197
 10434 0239 46       		.uleb128 .LVL206-.LVL197
 10435 023a 02       		.uleb128 0x2
 10436 023b 30       		.byte	0x30
 10437 023c 9F       		.byte	0x9f
 10438 023d 00       		.byte	0
 10439              	.LVUS50:
 10440 023e 00       		.uleb128 0
 10441 023f 00       		.uleb128 .LVU460
 10442 0240 00       		.uleb128 .LVU460
 10443 0241 00       		.uleb128 0
 10444              	.LLST50:
 10445 0242 06       		.byte	0x6
 10446 0243 00000000 		.4byte	.LVL84
 10447 0247 04       		.byte	0x4
 10448 0248 00       		.uleb128 .LVL84-.LVL84
 10449 0249 33       		.uleb128 .LVL90-1-.LVL84
 10450 024a 01       		.uleb128 0x1
 10451 024b 50       		.byte	0x50
 10452 024c 04       		.byte	0x4
 10453 024d 33       		.uleb128 .LVL90-1-.LVL84
 10454 024e F001     		.uleb128 .LFE467-.LVL84
 10455 0250 01       		.uleb128 0x1
 10456 0251 55       		.byte	0x55
 10457 0252 00       		.byte	0
 10458              	.LVUS51:
 10459 0253 00       		.uleb128 0
 10460 0254 00       		.uleb128 .LVU438
 10461 0255 00       		.uleb128 .LVU438
 10462 0256 00       		.uleb128 0
 10463              	.LLST51:
 10464 0257 06       		.byte	0x6
 10465 0258 00000000 		.4byte	.LVL84
 10466 025c 04       		.byte	0x4
 10467 025d 00       		.uleb128 .LVL84-.LVL84
 10468 025e 0C       		.uleb128 .LVL85-.LVL84
 10469 025f 01       		.uleb128 0x1
 10470 0260 51       		.byte	0x51
 10471 0261 04       		.byte	0x4
 10472 0262 0C       		.uleb128 .LVL85-.LVL84
 10473 0263 F001     		.uleb128 .LFE467-.LVL84
 10474 0265 01       		.uleb128 0x1
 10475 0266 57       		.byte	0x57
 10476 0267 00       		.byte	0
 10477              	.LVUS52:
 10478 0268 00       		.uleb128 0
 10479 0269 00       		.uleb128 .LVU446
 10480 026a 00       		.uleb128 .LVU446
ARM GAS  C:\Users\DEVELO~1\AppData\Local\Temp\ccuGzkMt.s 			page 185


 10481 026b 00       		.uleb128 0
 10482              	.LLST52:
 10483 026c 06       		.byte	0x6
 10484 026d 00000000 		.4byte	.LVL84
 10485 0271 04       		.byte	0x4
 10486 0272 00       		.uleb128 .LVL84-.LVL84
 10487 0273 12       		.uleb128 .LVL87-.LVL84
 10488 0274 01       		.uleb128 0x1
 10489 0275 52       		.byte	0x52
 10490 0276 04       		.byte	0x4
 10491 0277 12       		.uleb128 .LVL87-.LVL84
 10492 0278 F001     		.uleb128 .LFE467-.LVL84
 10493 027a 01       		.uleb128 0x1
 10494 027b 56       		.byte	0x56
 10495 027c 00       		.byte	0
 10496              	.LVUS53:
 10497 027d 00       		.uleb128 0
 10498 027e 00       		.uleb128 .LVU447
 10499 027f 00       		.uleb128 .LVU447
 10500 0280 00       		.uleb128 0
 10501              	.LLST53:
 10502 0281 06       		.byte	0x6
 10503 0282 00000000 		.4byte	.LVL84
 10504 0286 04       		.byte	0x4
 10505 0287 00       		.uleb128 .LVL84-.LVL84
 10506 0288 14       		.uleb128 .LVL88-.LVL84
 10507 0289 01       		.uleb128 0x1
 10508 028a 53       		.byte	0x53
 10509 028b 04       		.byte	0x4
 10510 028c 14       		.uleb128 .LVL88-.LVL84
 10511 028d F001     		.uleb128 .LFE467-.LVL84
 10512 028f 04       		.uleb128 0x4
 10513 0290 A3       		.byte	0xa3
 10514 0291 01       		.uleb128 0x1
 10515 0292 53       		.byte	0x53
 10516 0293 9F       		.byte	0x9f
 10517 0294 00       		.byte	0
 10518              	.LVUS54:
 10519 0295 00       		.uleb128 0
 10520 0296 00       		.uleb128 .LVU523
 10521 0297 00       		.uleb128 .LVU523
 10522 0298 00       		.uleb128 0
 10523              	.LLST54:
 10524 0299 06       		.byte	0x6
 10525 029a 00000000 		.4byte	.LVL84
 10526 029e 04       		.byte	0x4
 10527 029f 00       		.uleb128 .LVL84-.LVL84
 10528 02a0 9601     		.uleb128 .LVL97-.LVL84
 10529 02a2 02       		.uleb128 0x2
 10530 02a3 91       		.byte	0x91
 10531 02a4 00       		.sleb128 0
 10532 02a5 04       		.byte	0x4
 10533 02a6 9601     		.uleb128 .LVL97-.LVL84
 10534 02a8 F001     		.uleb128 .LFE467-.LVL84
 10535 02aa 02       		.uleb128 0x2
 10536 02ab 91       		.byte	0x91
 10537 02ac 00       		.sleb128 0
ARM GAS  C:\Users\DEVELO~1\AppData\Local\Temp\ccuGzkMt.s 			page 186


 10538 02ad 00       		.byte	0
 10539              	.LVUS56:
 10540 02ae 00       		.uleb128 .LVU440
 10541 02af 00       		.uleb128 .LVU446
 10542 02b0 00       		.uleb128 .LVU446
 10543 02b1 01       		.uleb128 .LVU480
 10544 02b2 00       		.uleb128 .LVU523
 10545 02b3 00       		.uleb128 .LVU524
 10546              	.LLST56:
 10547 02b4 06       		.byte	0x6
 10548 02b5 0E000000 		.4byte	.LVL86
 10549 02b9 04       		.byte	0x4
 10550 02ba 00       		.uleb128 .LVL86-.LVL86
 10551 02bb 04       		.uleb128 .LVL87-.LVL86
 10552 02bc 01       		.uleb128 0x1
 10553 02bd 52       		.byte	0x52
 10554 02be 04       		.byte	0x4
 10555 02bf 04       		.uleb128 .LVL87-.LVL86
 10556 02c0 4E       		.uleb128 .LVL91-.LVL86
 10557 02c1 01       		.uleb128 0x1
 10558 02c2 56       		.byte	0x56
 10559 02c3 04       		.byte	0x4
 10560 02c4 8801     		.uleb128 .LVL97-.LVL86
 10561 02c6 8C01     		.uleb128 .LVL98-.LVL86
 10562 02c8 01       		.uleb128 0x1
 10563 02c9 56       		.byte	0x56
 10564 02ca 00       		.byte	0
 10565              	.LVUS57:
 10566 02cb 00       		.uleb128 .LVU440
 10567 02cc 01       		.uleb128 .LVU480
 10568 02cd 00       		.uleb128 .LVU523
 10569 02ce 00       		.uleb128 .LVU524
 10570              	.LLST57:
 10571 02cf 06       		.byte	0x6
 10572 02d0 0E000000 		.4byte	.LVL86
 10573 02d4 04       		.byte	0x4
 10574 02d5 00       		.uleb128 .LVL86-.LVL86
 10575 02d6 4E       		.uleb128 .LVL91-.LVL86
 10576 02d7 01       		.uleb128 0x1
 10577 02d8 57       		.byte	0x57
 10578 02d9 04       		.byte	0x4
 10579 02da 8801     		.uleb128 .LVL97-.LVL86
 10580 02dc 8C01     		.uleb128 .LVL98-.LVL86
 10581 02de 01       		.uleb128 0x1
 10582 02df 57       		.byte	0x57
 10583 02e0 00       		.byte	0
 10584              	.LVUS58:
 10585 02e1 00       		.uleb128 .LVU440
 10586 02e2 00       		.uleb128 .LVU460
 10587 02e3 00       		.uleb128 .LVU460
 10588 02e4 01       		.uleb128 .LVU480
 10589 02e5 00       		.uleb128 .LVU523
 10590 02e6 00       		.uleb128 .LVU524
 10591              	.LLST58:
 10592 02e7 06       		.byte	0x6
 10593 02e8 0E000000 		.4byte	.LVL86
 10594 02ec 04       		.byte	0x4
ARM GAS  C:\Users\DEVELO~1\AppData\Local\Temp\ccuGzkMt.s 			page 187


 10595 02ed 00       		.uleb128 .LVL86-.LVL86
 10596 02ee 25       		.uleb128 .LVL90-1-.LVL86
 10597 02ef 01       		.uleb128 0x1
 10598 02f0 50       		.byte	0x50
 10599 02f1 04       		.byte	0x4
 10600 02f2 25       		.uleb128 .LVL90-1-.LVL86
 10601 02f3 4E       		.uleb128 .LVL91-.LVL86
 10602 02f4 01       		.uleb128 0x1
 10603 02f5 55       		.byte	0x55
 10604 02f6 04       		.byte	0x4
 10605 02f7 8801     		.uleb128 .LVL97-.LVL86
 10606 02f9 8C01     		.uleb128 .LVL98-.LVL86
 10607 02fb 01       		.uleb128 0x1
 10608 02fc 55       		.byte	0x55
 10609 02fd 00       		.byte	0
 10610              	.LVUS60:
 10611 02fe 00       		.uleb128 .LVU447
 10612 02ff 00       		.uleb128 .LVU449
 10613              	.LLST60:
 10614 0300 08       		.byte	0x8
 10615 0301 14000000 		.4byte	.LVL88
 10616 0305 04       		.uleb128 .LVL89-.LVL88
 10617 0306 09       		.uleb128 0x9
 10618 0307 73       		.byte	0x73
 10619 0308 00       		.sleb128 0
 10620 0309 0A       		.byte	0xa
 10621 030a FF03     		.2byte	0x3ff
 10622 030c 1A       		.byte	0x1a
 10623 030d 23       		.byte	0x23
 10624 030e 01       		.uleb128 0x1
 10625 030f 9F       		.byte	0x9f
 10626 0310 00       		.byte	0
 10627              	.LVUS62:
 10628 0311 03       		.uleb128 .LVU482
 10629 0312 01       		.uleb128 .LVU502
 10630 0313 00       		.uleb128 .LVU572
 10631 0314 00       		.uleb128 .LVU573
 10632              	.LLST62:
 10633 0315 06       		.byte	0x6
 10634 0316 5C000000 		.4byte	.LVL91
 10635 031a 04       		.byte	0x4
 10636 031b 00       		.uleb128 .LVL91-.LVL91
 10637 031c 1C       		.uleb128 .LVL93-.LVL91
 10638 031d 03       		.uleb128 0x3
 10639 031e 75       		.byte	0x75
 10640 031f CC00     		.sleb128 76
 10641 0321 04       		.byte	0x4
 10642 0322 6A       		.uleb128 .LVL103-.LVL91
 10643 0323 6F       		.uleb128 .LVL104-1-.LVL91
 10644 0324 03       		.uleb128 0x3
 10645 0325 75       		.byte	0x75
 10646 0326 CC00     		.sleb128 76
 10647 0328 00       		.byte	0
 10648              	.LVUS63:
 10649 0329 03       		.uleb128 .LVU482
 10650 032a 01       		.uleb128 .LVU502
 10651 032b 00       		.uleb128 .LVU572
ARM GAS  C:\Users\DEVELO~1\AppData\Local\Temp\ccuGzkMt.s 			page 188


 10652 032c 00       		.uleb128 .LVU573
 10653 032d 00       		.uleb128 .LVU573
 10654 032e 01       		.uleb128 .LVU574
 10655              	.LLST63:
 10656 032f 06       		.byte	0x6
 10657 0330 5C000000 		.4byte	.LVL91
 10658 0334 04       		.byte	0x4
 10659 0335 00       		.uleb128 .LVL91-.LVL91
 10660 0336 1C       		.uleb128 .LVL93-.LVL91
 10661 0337 02       		.uleb128 0x2
 10662 0338 91       		.byte	0x91
 10663 0339 00       		.sleb128 0
 10664 033a 04       		.byte	0x4
 10665 033b 6A       		.uleb128 .LVL103-.LVL91
 10666 033c 6F       		.uleb128 .LVL104-1-.LVL91
 10667 033d 01       		.uleb128 0x1
 10668 033e 52       		.byte	0x52
 10669 033f 04       		.byte	0x4
 10670 0340 6F       		.uleb128 .LVL104-1-.LVL91
 10671 0341 70       		.uleb128 .LVL104-.LVL91
 10672 0342 02       		.uleb128 0x2
 10673 0343 91       		.byte	0x91
 10674 0344 00       		.sleb128 0
 10675 0345 00       		.byte	0
 10676              	.LVUS64:
 10677 0346 03       		.uleb128 .LVU482
 10678 0347 01       		.uleb128 .LVU502
 10679 0348 00       		.uleb128 .LVU572
 10680 0349 01       		.uleb128 .LVU574
 10681              	.LLST64:
 10682 034a 06       		.byte	0x6
 10683 034b 5C000000 		.4byte	.LVL91
 10684 034f 04       		.byte	0x4
 10685 0350 00       		.uleb128 .LVL91-.LVL91
 10686 0351 1C       		.uleb128 .LVL93-.LVL91
 10687 0352 01       		.uleb128 0x1
 10688 0353 58       		.byte	0x58
 10689 0354 04       		.byte	0x4
 10690 0355 6A       		.uleb128 .LVL103-.LVL91
 10691 0356 70       		.uleb128 .LVL104-.LVL91
 10692 0357 01       		.uleb128 0x1
 10693 0358 58       		.byte	0x58
 10694 0359 00       		.byte	0
 10695              	.LVUS65:
 10696 035a 03       		.uleb128 .LVU482
 10697 035b 01       		.uleb128 .LVU502
 10698 035c 00       		.uleb128 .LVU572
 10699 035d 01       		.uleb128 .LVU574
 10700              	.LLST65:
 10701 035e 06       		.byte	0x6
 10702 035f 5C000000 		.4byte	.LVL91
 10703 0363 04       		.byte	0x4
 10704 0364 00       		.uleb128 .LVL91-.LVL91
 10705 0365 1C       		.uleb128 .LVL93-.LVL91
 10706 0366 01       		.uleb128 0x1
 10707 0367 55       		.byte	0x55
 10708 0368 04       		.byte	0x4
ARM GAS  C:\Users\DEVELO~1\AppData\Local\Temp\ccuGzkMt.s 			page 189


 10709 0369 6A       		.uleb128 .LVL103-.LVL91
 10710 036a 70       		.uleb128 .LVL104-.LVL91
 10711 036b 01       		.uleb128 0x1
 10712 036c 55       		.byte	0x55
 10713 036d 00       		.byte	0
 10714              	.LVUS66:
 10715 036e 00       		.uleb128 .LVU491
 10716 036f 01       		.uleb128 .LVU502
 10717 0370 00       		.uleb128 .LVU572
 10718 0371 01       		.uleb128 .LVU574
 10719              	.LLST66:
 10720 0372 06       		.byte	0x6
 10721 0373 64000000 		.4byte	.LVL92
 10722 0377 04       		.byte	0x4
 10723 0378 00       		.uleb128 .LVL92-.LVL92
 10724 0379 14       		.uleb128 .LVL93-.LVL92
 10725 037a 01       		.uleb128 0x1
 10726 037b 51       		.byte	0x51
 10727 037c 04       		.byte	0x4
 10728 037d 62       		.uleb128 .LVL103-.LVL92
 10729 037e 68       		.uleb128 .LVL104-.LVL92
 10730 037f 01       		.uleb128 0x1
 10731 0380 51       		.byte	0x51
 10732 0381 00       		.byte	0
 10733              	.LVUS68:
 10734 0382 01       		.uleb128 .LVU506
 10735 0383 00       		.uleb128 .LVU520
 10736              	.LLST68:
 10737 0384 08       		.byte	0x8
 10738 0385 7C000000 		.4byte	.LVL94
 10739 0389 13       		.uleb128 .LVL96-1-.LVL94
 10740 038a 03       		.uleb128 0x3
 10741 038b 75       		.byte	0x75
 10742 038c CC00     		.sleb128 76
 10743 038e 00       		.byte	0
 10744              	.LVUS69:
 10745 038f 01       		.uleb128 .LVU506
 10746 0390 01       		.uleb128 .LVU521
 10747              	.LLST69:
 10748 0391 08       		.byte	0x8
 10749 0392 7C000000 		.4byte	.LVL94
 10750 0396 14       		.uleb128 .LVL96-.LVL94
 10751 0397 02       		.uleb128 0x2
 10752 0398 31       		.byte	0x31
 10753 0399 9F       		.byte	0x9f
 10754 039a 00       		.byte	0
 10755              	.LVUS70:
 10756 039b 01       		.uleb128 .LVU506
 10757 039c 01       		.uleb128 .LVU521
 10758              	.LLST70:
 10759 039d 08       		.byte	0x8
 10760 039e 7C000000 		.4byte	.LVL94
 10761 03a2 14       		.uleb128 .LVL96-.LVL94
 10762 03a3 01       		.uleb128 0x1
 10763 03a4 55       		.byte	0x55
 10764 03a5 00       		.byte	0
 10765              	.LVUS71:
ARM GAS  C:\Users\DEVELO~1\AppData\Local\Temp\ccuGzkMt.s 			page 190


 10766 03a6 00       		.uleb128 .LVU510
 10767 03a7 01       		.uleb128 .LVU521
 10768              	.LLST71:
 10769 03a8 08       		.byte	0x8
 10770 03a9 7E000000 		.4byte	.LVL95
 10771 03ad 12       		.uleb128 .LVL96-.LVL95
 10772 03ae 01       		.uleb128 0x1
 10773 03af 51       		.byte	0x51
 10774 03b0 00       		.byte	0
 10775              	.LVUS73:
 10776 03b1 02       		.uleb128 .LVU526
 10777 03b2 00       		.uleb128 .LVU543
 10778 03b3 00       		.uleb128 .LVU594
 10779 03b4 00       		.uleb128 .LVU600
 10780              	.LLST73:
 10781 03b5 06       		.byte	0x6
 10782 03b6 9A000000 		.4byte	.LVL98
 10783 03ba 04       		.byte	0x4
 10784 03bb 00       		.uleb128 .LVL98-.LVL98
 10785 03bc 0C       		.uleb128 .LVL100-.LVL98
 10786 03bd 03       		.uleb128 0x3
 10787 03be 75       		.byte	0x75
 10788 03bf CC00     		.sleb128 76
 10789 03c1 04       		.byte	0x4
 10790 03c2 3C       		.uleb128 .LVL107-.LVL98
 10791 03c3 47       		.uleb128 .LVL109-1-.LVL98
 10792 03c4 03       		.uleb128 0x3
 10793 03c5 75       		.byte	0x75
 10794 03c6 CC00     		.sleb128 76
 10795 03c8 00       		.byte	0
 10796              	.LVUS74:
 10797 03c9 02       		.uleb128 .LVU526
 10798 03ca 02       		.uleb128 .LVU570
 10799 03cb 00       		.uleb128 .LVU575
 10800 03cc 02       		.uleb128 .LVU592
 10801 03cd 00       		.uleb128 .LVU594
 10802 03ce 00       		.uleb128 0
 10803              	.LLST74:
 10804 03cf 06       		.byte	0x6
 10805 03d0 9A000000 		.4byte	.LVL98
 10806 03d4 04       		.byte	0x4
 10807 03d5 00       		.uleb128 .LVL98-.LVL98
 10808 03d6 26       		.uleb128 .LVL102-.LVL98
 10809 03d7 02       		.uleb128 0x2
 10810 03d8 31       		.byte	0x31
 10811 03d9 9F       		.byte	0x9f
 10812 03da 04       		.byte	0x4
 10813 03db 34       		.uleb128 .LVL105-.LVL98
 10814 03dc 38       		.uleb128 .LVL106-.LVL98
 10815 03dd 02       		.uleb128 0x2
 10816 03de 31       		.byte	0x31
 10817 03df 9F       		.byte	0x9f
 10818 03e0 04       		.byte	0x4
 10819 03e1 3C       		.uleb128 .LVL107-.LVL98
 10820 03e2 56       		.uleb128 .LFE467-.LVL98
 10821 03e3 02       		.uleb128 0x2
 10822 03e4 31       		.byte	0x31
ARM GAS  C:\Users\DEVELO~1\AppData\Local\Temp\ccuGzkMt.s 			page 191


 10823 03e5 9F       		.byte	0x9f
 10824 03e6 00       		.byte	0
 10825              	.LVUS75:
 10826 03e7 02       		.uleb128 .LVU526
 10827 03e8 02       		.uleb128 .LVU570
 10828 03e9 00       		.uleb128 .LVU575
 10829 03ea 02       		.uleb128 .LVU592
 10830 03eb 00       		.uleb128 .LVU594
 10831 03ec 00       		.uleb128 0
 10832              	.LLST75:
 10833 03ed 06       		.byte	0x6
 10834 03ee 9A000000 		.4byte	.LVL98
 10835 03f2 04       		.byte	0x4
 10836 03f3 00       		.uleb128 .LVL98-.LVL98
 10837 03f4 26       		.uleb128 .LVL102-.LVL98
 10838 03f5 01       		.uleb128 0x1
 10839 03f6 55       		.byte	0x55
 10840 03f7 04       		.byte	0x4
 10841 03f8 34       		.uleb128 .LVL105-.LVL98
 10842 03f9 38       		.uleb128 .LVL106-.LVL98
 10843 03fa 01       		.uleb128 0x1
 10844 03fb 55       		.byte	0x55
 10845 03fc 04       		.byte	0x4
 10846 03fd 3C       		.uleb128 .LVL107-.LVL98
 10847 03fe 56       		.uleb128 .LFE467-.LVL98
 10848 03ff 01       		.uleb128 0x1
 10849 0400 55       		.byte	0x55
 10850 0401 00       		.byte	0
 10851              	.LVUS76:
 10852 0402 0A       		.uleb128 .LVU534
 10853 0403 00       		.uleb128 .LVU536
 10854              	.LLST76:
 10855 0404 08       		.byte	0x8
 10856 0405 9A000000 		.4byte	.LVL98
 10857 0409 06       		.uleb128 .LVL99-.LVL98
 10858 040a 03       		.uleb128 0x3
 10859 040b 08       		.byte	0x8
 10860 040c 30       		.byte	0x30
 10861 040d 9F       		.byte	0x9f
 10862 040e 00       		.byte	0
 10863              	.LVUS77:
 10864 040f 0C       		.uleb128 .LVU566
 10865 0410 00       		.uleb128 .LVU568
 10866              	.LLST77:
 10867 0411 08       		.byte	0x8
 10868 0412 BC000000 		.4byte	.LVL101
 10869 0416 04       		.uleb128 .LVL102-.LVL101
 10870 0417 02       		.uleb128 0x2
 10871 0418 30       		.byte	0x30
 10872 0419 9F       		.byte	0x9f
 10873 041a 00       		.byte	0
 10874              	.LVUS78:
 10875 041b 0D       		.uleb128 .LVU588
 10876 041c 00       		.uleb128 .LVU590
 10877              	.LLST78:
 10878 041d 08       		.byte	0x8
 10879 041e CE000000 		.4byte	.LVL105
ARM GAS  C:\Users\DEVELO~1\AppData\Local\Temp\ccuGzkMt.s 			page 192


 10880 0422 04       		.uleb128 .LVL106-.LVL105
 10881 0423 02       		.uleb128 0x2
 10882 0424 30       		.byte	0x30
 10883 0425 9F       		.byte	0x9f
 10884 0426 00       		.byte	0
 10885              	.LVUS80:
 10886 0427 02       		.uleb128 .LVU596
 10887 0428 00       		.uleb128 .LVU599
 10888 0429 00       		.uleb128 .LVU599
 10889 042a 00       		.uleb128 .LVU600
 10890 042b 00       		.uleb128 .LVU600
 10891 042c 00       		.uleb128 0
 10892              	.LLST80:
 10893 042d 06       		.byte	0x6
 10894 042e D6000000 		.4byte	.LVL107
 10895 0432 04       		.byte	0x4
 10896 0433 00       		.uleb128 .LVL107-.LVL107
 10897 0434 08       		.uleb128 .LVL108-.LVL107
 10898 0435 04       		.uleb128 0x4
 10899 0436 75       		.byte	0x75
 10900 0437 C000     		.sleb128 64
 10901 0439 9F       		.byte	0x9f
 10902 043a 04       		.byte	0x4
 10903 043b 08       		.uleb128 .LVL108-.LVL107
 10904 043c 0B       		.uleb128 .LVL109-1-.LVL107
 10905 043d 01       		.uleb128 0x1
 10906 043e 50       		.byte	0x50
 10907 043f 04       		.byte	0x4
 10908 0440 0B       		.uleb128 .LVL109-1-.LVL107
 10909 0441 1A       		.uleb128 .LFE467-.LVL107
 10910 0442 04       		.uleb128 0x4
 10911 0443 75       		.byte	0x75
 10912 0444 C000     		.sleb128 64
 10913 0446 9F       		.byte	0x9f
 10914 0447 00       		.byte	0
 10915              	.LVUS45:
 10916 0448 00       		.uleb128 0
 10917 0449 00       		.uleb128 .LVU417
 10918 044a 00       		.uleb128 .LVU417
 10919 044b 00       		.uleb128 .LVU429
 10920 044c 00       		.uleb128 .LVU429
 10921 044d 00       		.uleb128 .LVU432
 10922 044e 00       		.uleb128 .LVU432
 10923 044f 00       		.uleb128 0
 10924              	.LLST45:
 10925 0450 06       		.byte	0x6
 10926 0451 00000000 		.4byte	.LVL72
 10927 0455 04       		.byte	0x4
 10928 0456 00       		.uleb128 .LVL72-.LVL72
 10929 0457 20       		.uleb128 .LVL78-.LVL72
 10930 0458 01       		.uleb128 0x1
 10931 0459 50       		.byte	0x50
 10932 045a 04       		.byte	0x4
 10933 045b 20       		.uleb128 .LVL78-.LVL72
 10934 045c 30       		.uleb128 .LVL81-.LVL72
 10935 045d 04       		.uleb128 0x4
 10936 045e A3       		.byte	0xa3
ARM GAS  C:\Users\DEVELO~1\AppData\Local\Temp\ccuGzkMt.s 			page 193


 10937 045f 01       		.uleb128 0x1
 10938 0460 50       		.byte	0x50
 10939 0461 9F       		.byte	0x9f
 10940 0462 04       		.byte	0x4
 10941 0463 30       		.uleb128 .LVL81-.LVL72
 10942 0464 36       		.uleb128 .LVL83-.LVL72
 10943 0465 01       		.uleb128 0x1
 10944 0466 50       		.byte	0x50
 10945 0467 04       		.byte	0x4
 10946 0468 36       		.uleb128 .LVL83-.LVL72
 10947 0469 38       		.uleb128 .LFE466-.LVL72
 10948 046a 04       		.uleb128 0x4
 10949 046b A3       		.byte	0xa3
 10950 046c 01       		.uleb128 0x1
 10951 046d 50       		.byte	0x50
 10952 046e 9F       		.byte	0x9f
 10953 046f 00       		.byte	0
 10954              	.LVUS46:
 10955 0470 00       		.uleb128 0
 10956 0471 00       		.uleb128 .LVU402
 10957 0472 00       		.uleb128 .LVU402
 10958 0473 00       		.uleb128 0
 10959              	.LLST46:
 10960 0474 06       		.byte	0x6
 10961 0475 00000000 		.4byte	.LVL72
 10962 0479 04       		.byte	0x4
 10963 047a 00       		.uleb128 .LVL72-.LVL72
 10964 047b 06       		.uleb128 .LVL73-.LVL72
 10965 047c 01       		.uleb128 0x1
 10966 047d 51       		.byte	0x51
 10967 047e 04       		.byte	0x4
 10968 047f 06       		.uleb128 .LVL73-.LVL72
 10969 0480 38       		.uleb128 .LFE466-.LVL72
 10970 0481 04       		.uleb128 0x4
 10971 0482 A3       		.byte	0xa3
 10972 0483 01       		.uleb128 0x1
 10973 0484 51       		.byte	0x51
 10974 0485 9F       		.byte	0x9f
 10975 0486 00       		.byte	0
 10976              	.LVUS47:
 10977 0487 00       		.uleb128 0
 10978 0488 01       		.uleb128 .LVU407
 10979 0489 01       		.uleb128 .LVU407
 10980 048a 00       		.uleb128 0
 10981              	.LLST47:
 10982 048b 06       		.byte	0x6
 10983 048c 00000000 		.4byte	.LVL72
 10984 0490 04       		.byte	0x4
 10985 0491 00       		.uleb128 .LVL72-.LVL72
 10986 0492 0C       		.uleb128 .LVL74-.LVL72
 10987 0493 01       		.uleb128 0x1
 10988 0494 52       		.byte	0x52
 10989 0495 04       		.byte	0x4
 10990 0496 0C       		.uleb128 .LVL74-.LVL72
 10991 0497 38       		.uleb128 .LFE466-.LVL72
 10992 0498 04       		.uleb128 0x4
 10993 0499 A3       		.byte	0xa3
ARM GAS  C:\Users\DEVELO~1\AppData\Local\Temp\ccuGzkMt.s 			page 194


 10994 049a 01       		.uleb128 0x1
 10995 049b 52       		.byte	0x52
 10996 049c 9F       		.byte	0x9f
 10997 049d 00       		.byte	0
 10998              	.LVUS48:
 10999 049e 00       		.uleb128 0
 11000 049f 01       		.uleb128 .LVU415
 11001 04a0 01       		.uleb128 .LVU415
 11002 04a1 01       		.uleb128 .LVU419
 11003 04a2 01       		.uleb128 .LVU419
 11004 04a3 01       		.uleb128 .LVU422
 11005 04a4 01       		.uleb128 .LVU422
 11006 04a5 00       		.uleb128 .LVU429
 11007 04a6 00       		.uleb128 .LVU429
 11008 04a7 00       		.uleb128 .LVU430
 11009 04a8 00       		.uleb128 .LVU430
 11010 04a9 00       		.uleb128 0
 11011              	.LLST48:
 11012 04aa 06       		.byte	0x6
 11013 04ab 00000000 		.4byte	.LVL72
 11014 04af 04       		.byte	0x4
 11015 04b0 00       		.uleb128 .LVL72-.LVL72
 11016 04b1 1C       		.uleb128 .LVL76-.LVL72
 11017 04b2 01       		.uleb128 0x1
 11018 04b3 53       		.byte	0x53
 11019 04b4 04       		.byte	0x4
 11020 04b5 1C       		.uleb128 .LVL76-.LVL72
 11021 04b6 22       		.uleb128 .LVL79-.LVL72
 11022 04b7 03       		.uleb128 0x3
 11023 04b8 73       		.byte	0x73
 11024 04b9 04       		.sleb128 4
 11025 04ba 9F       		.byte	0x9f
 11026 04bb 04       		.byte	0x4
 11027 04bc 22       		.uleb128 .LVL79-.LVL72
 11028 04bd 26       		.uleb128 .LVL80-.LVL72
 11029 04be 03       		.uleb128 0x3
 11030 04bf 73       		.byte	0x73
 11031 04c0 08       		.sleb128 8
 11032 04c1 9F       		.byte	0x9f
 11033 04c2 04       		.byte	0x4
 11034 04c3 26       		.uleb128 .LVL80-.LVL72
 11035 04c4 30       		.uleb128 .LVL81-.LVL72
 11036 04c5 03       		.uleb128 0x3
 11037 04c6 73       		.byte	0x73
 11038 04c7 0C       		.sleb128 12
 11039 04c8 9F       		.byte	0x9f
 11040 04c9 04       		.byte	0x4
 11041 04ca 30       		.uleb128 .LVL81-.LVL72
 11042 04cb 33       		.uleb128 .LVL82-1-.LVL72
 11043 04cc 01       		.uleb128 0x1
 11044 04cd 53       		.byte	0x53
 11045 04ce 04       		.byte	0x4
 11046 04cf 33       		.uleb128 .LVL82-1-.LVL72
 11047 04d0 38       		.uleb128 .LFE466-.LVL72
 11048 04d1 04       		.uleb128 0x4
 11049 04d2 A3       		.byte	0xa3
 11050 04d3 01       		.uleb128 0x1
ARM GAS  C:\Users\DEVELO~1\AppData\Local\Temp\ccuGzkMt.s 			page 195


 11051 04d4 53       		.byte	0x53
 11052 04d5 9F       		.byte	0x9f
 11053 04d6 00       		.byte	0
 11054              	.LVUS49:
 11055 04d7 00       		.uleb128 .LVU409
 11056 04d8 00       		.uleb128 .LVU416
 11057 04d9 00       		.uleb128 .LVU429
 11058 04da 00       		.uleb128 0
 11059              	.LLST49:
 11060 04db 06       		.byte	0x6
 11061 04dc 0E000000 		.4byte	.LVL75
 11062 04e0 04       		.byte	0x4
 11063 04e1 00       		.uleb128 .LVL75-.LVL75
 11064 04e2 10       		.uleb128 .LVL77-.LVL75
 11065 04e3 01       		.uleb128 0x1
 11066 04e4 51       		.byte	0x51
 11067 04e5 04       		.byte	0x4
 11068 04e6 22       		.uleb128 .LVL81-.LVL75
 11069 04e7 2A       		.uleb128 .LFE466-.LVL75
 11070 04e8 01       		.uleb128 0x1
 11071 04e9 51       		.byte	0x51
 11072 04ea 00       		.byte	0
 11073              	.LVUS35:
 11074 04eb 00       		.uleb128 0
 11075 04ec 00       		.uleb128 .LVU362
 11076 04ed 00       		.uleb128 .LVU362
 11077 04ee 00       		.uleb128 .LVU365
 11078 04ef 00       		.uleb128 .LVU365
 11079 04f0 00       		.uleb128 .LVU368
 11080 04f1 00       		.uleb128 .LVU368
 11081 04f2 00       		.uleb128 0
 11082              	.LLST35:
 11083 04f3 06       		.byte	0x6
 11084 04f4 00000000 		.4byte	.LVL54
 11085 04f8 04       		.byte	0x4
 11086 04f9 00       		.uleb128 .LVL54-.LVL54
 11087 04fa 20       		.uleb128 .LVL59-.LVL54
 11088 04fb 01       		.uleb128 0x1
 11089 04fc 50       		.byte	0x50
 11090 04fd 04       		.byte	0x4
 11091 04fe 20       		.uleb128 .LVL59-.LVL54
 11092 04ff 24       		.uleb128 .LVL60-.LVL54
 11093 0500 04       		.uleb128 0x4
 11094 0501 A3       		.byte	0xa3
 11095 0502 01       		.uleb128 0x1
 11096 0503 50       		.byte	0x50
 11097 0504 9F       		.byte	0x9f
 11098 0505 04       		.byte	0x4
 11099 0506 24       		.uleb128 .LVL60-.LVL54
 11100 0507 2A       		.uleb128 .LVL62-.LVL54
 11101 0508 01       		.uleb128 0x1
 11102 0509 50       		.byte	0x50
 11103 050a 04       		.byte	0x4
 11104 050b 2A       		.uleb128 .LVL62-.LVL54
 11105 050c 2C       		.uleb128 .LFE464-.LVL54
 11106 050d 04       		.uleb128 0x4
 11107 050e A3       		.byte	0xa3
ARM GAS  C:\Users\DEVELO~1\AppData\Local\Temp\ccuGzkMt.s 			page 196


 11108 050f 01       		.uleb128 0x1
 11109 0510 50       		.byte	0x50
 11110 0511 9F       		.byte	0x9f
 11111 0512 00       		.byte	0
 11112              	.LVUS36:
 11113 0513 00       		.uleb128 0
 11114 0514 00       		.uleb128 .LVU347
 11115 0515 00       		.uleb128 .LVU347
 11116 0516 00       		.uleb128 0
 11117              	.LLST36:
 11118 0517 06       		.byte	0x6
 11119 0518 00000000 		.4byte	.LVL54
 11120 051c 04       		.byte	0x4
 11121 051d 00       		.uleb128 .LVL54-.LVL54
 11122 051e 06       		.uleb128 .LVL55-.LVL54
 11123 051f 01       		.uleb128 0x1
 11124 0520 51       		.byte	0x51
 11125 0521 04       		.byte	0x4
 11126 0522 06       		.uleb128 .LVL55-.LVL54
 11127 0523 2C       		.uleb128 .LFE464-.LVL54
 11128 0524 04       		.uleb128 0x4
 11129 0525 A3       		.byte	0xa3
 11130 0526 01       		.uleb128 0x1
 11131 0527 51       		.byte	0x51
 11132 0528 9F       		.byte	0x9f
 11133 0529 00       		.byte	0
 11134              	.LVUS37:
 11135 052a 00       		.uleb128 0
 11136 052b 01       		.uleb128 .LVU352
 11137 052c 01       		.uleb128 .LVU352
 11138 052d 00       		.uleb128 0
 11139              	.LLST37:
 11140 052e 06       		.byte	0x6
 11141 052f 00000000 		.4byte	.LVL54
 11142 0533 04       		.byte	0x4
 11143 0534 00       		.uleb128 .LVL54-.LVL54
 11144 0535 0C       		.uleb128 .LVL56-.LVL54
 11145 0536 01       		.uleb128 0x1
 11146 0537 52       		.byte	0x52
 11147 0538 04       		.byte	0x4
 11148 0539 0C       		.uleb128 .LVL56-.LVL54
 11149 053a 2C       		.uleb128 .LFE464-.LVL54
 11150 053b 04       		.uleb128 0x4
 11151 053c A3       		.byte	0xa3
 11152 053d 01       		.uleb128 0x1
 11153 053e 52       		.byte	0x52
 11154 053f 9F       		.byte	0x9f
 11155 0540 00       		.byte	0
 11156              	.LVUS38:
 11157 0541 00       		.uleb128 0
 11158 0542 00       		.uleb128 .LVU366
 11159 0543 00       		.uleb128 .LVU366
 11160 0544 00       		.uleb128 0
 11161              	.LLST38:
 11162 0545 06       		.byte	0x6
 11163 0546 00000000 		.4byte	.LVL54
 11164 054a 04       		.byte	0x4
ARM GAS  C:\Users\DEVELO~1\AppData\Local\Temp\ccuGzkMt.s 			page 197


 11165 054b 00       		.uleb128 .LVL54-.LVL54
 11166 054c 27       		.uleb128 .LVL61-1-.LVL54
 11167 054d 01       		.uleb128 0x1
 11168 054e 53       		.byte	0x53
 11169 054f 04       		.byte	0x4
 11170 0550 27       		.uleb128 .LVL61-1-.LVL54
 11171 0551 2C       		.uleb128 .LFE464-.LVL54
 11172 0552 04       		.uleb128 0x4
 11173 0553 A3       		.byte	0xa3
 11174 0554 01       		.uleb128 0x1
 11175 0555 53       		.byte	0x53
 11176 0556 9F       		.byte	0x9f
 11177 0557 00       		.byte	0
 11178              	.LVUS39:
 11179 0558 00       		.uleb128 .LVU354
 11180 0559 00       		.uleb128 .LVU361
 11181 055a 00       		.uleb128 .LVU365
 11182 055b 00       		.uleb128 0
 11183              	.LLST39:
 11184 055c 06       		.byte	0x6
 11185 055d 0E000000 		.4byte	.LVL57
 11186 0561 04       		.byte	0x4
 11187 0562 00       		.uleb128 .LVL57-.LVL57
 11188 0563 10       		.uleb128 .LVL58-.LVL57
 11189 0564 01       		.uleb128 0x1
 11190 0565 51       		.byte	0x51
 11191 0566 04       		.byte	0x4
 11192 0567 16       		.uleb128 .LVL60-.LVL57
 11193 0568 1E       		.uleb128 .LFE464-.LVL57
 11194 0569 01       		.uleb128 0x1
 11195 056a 51       		.byte	0x51
 11196 056b 00       		.byte	0
 11197              	.LVUS33:
 11198 056c 00       		.uleb128 0
 11199 056d 00       		.uleb128 .LVU330
 11200 056e 00       		.uleb128 .LVU330
 11201 056f 00       		.uleb128 0
 11202              	.LLST33:
 11203 0570 06       		.byte	0x6
 11204 0571 00000000 		.4byte	.LVL51
 11205 0575 04       		.byte	0x4
 11206 0576 00       		.uleb128 .LVL51-.LVL51
 11207 0577 02       		.uleb128 .LVL52-.LVL51
 11208 0578 01       		.uleb128 0x1
 11209 0579 50       		.byte	0x50
 11210 057a 04       		.byte	0x4
 11211 057b 02       		.uleb128 .LVL52-.LVL51
 11212 057c 16       		.uleb128 .LFE463-.LVL51
 11213 057d 04       		.uleb128 0x4
 11214 057e A3       		.byte	0xa3
 11215 057f 01       		.uleb128 0x1
 11216 0580 50       		.byte	0x50
 11217 0581 9F       		.byte	0x9f
 11218 0582 00       		.byte	0
 11219              	.LVUS34:
 11220 0583 00       		.uleb128 0
 11221 0584 00       		.uleb128 .LVU331
ARM GAS  C:\Users\DEVELO~1\AppData\Local\Temp\ccuGzkMt.s 			page 198


 11222 0585 00       		.uleb128 .LVU331
 11223 0586 00       		.uleb128 0
 11224              	.LLST34:
 11225 0587 06       		.byte	0x6
 11226 0588 00000000 		.4byte	.LVL51
 11227 058c 04       		.byte	0x4
 11228 058d 00       		.uleb128 .LVL51-.LVL51
 11229 058e 06       		.uleb128 .LVL53-.LVL51
 11230 058f 01       		.uleb128 0x1
 11231 0590 51       		.byte	0x51
 11232 0591 04       		.byte	0x4
 11233 0592 06       		.uleb128 .LVL53-.LVL51
 11234 0593 16       		.uleb128 .LFE463-.LVL51
 11235 0594 04       		.uleb128 0x4
 11236 0595 A3       		.byte	0xa3
 11237 0596 01       		.uleb128 0x1
 11238 0597 51       		.byte	0x51
 11239 0598 9F       		.byte	0x9f
 11240 0599 00       		.byte	0
 11241              	.LVUS32:
 11242 059a 00       		.uleb128 .LVU316
 11243 059b 00       		.uleb128 .LVU320
 11244 059c 00       		.uleb128 .LVU323
 11245 059d 00       		.uleb128 .LVU325
 11246              	.LLST32:
 11247 059e 06       		.byte	0x6
 11248 059f 0A000000 		.4byte	.LVL47
 11249 05a3 04       		.byte	0x4
 11250 05a4 00       		.uleb128 .LVL47-.LVL47
 11251 05a5 0E       		.uleb128 .LVL48-.LVL47
 11252 05a6 01       		.uleb128 0x1
 11253 05a7 53       		.byte	0x53
 11254 05a8 04       		.byte	0x4
 11255 05a9 12       		.uleb128 .LVL49-.LVL47
 11256 05aa 16       		.uleb128 .LVL50-.LVL47
 11257 05ab 01       		.uleb128 0x1
 11258 05ac 53       		.byte	0x53
 11259 05ad 00       		.byte	0
 11260              	.LVUS24:
 11261 05ae 00       		.uleb128 0
 11262 05af 00       		.uleb128 .LVU274
 11263 05b0 00       		.uleb128 .LVU274
 11264 05b1 00       		.uleb128 .LVU282
 11265 05b2 00       		.uleb128 .LVU282
 11266 05b3 00       		.uleb128 .LVU298
 11267 05b4 00       		.uleb128 .LVU298
 11268 05b5 00       		.uleb128 0
 11269              	.LLST24:
 11270 05b6 06       		.byte	0x6
 11271 05b7 00000000 		.4byte	.LVL36
 11272 05bb 04       		.byte	0x4
 11273 05bc 00       		.uleb128 .LVL36-.LVL36
 11274 05bd 20       		.uleb128 .LVL39-.LVL36
 11275 05be 01       		.uleb128 0x1
 11276 05bf 50       		.byte	0x50
 11277 05c0 04       		.byte	0x4
 11278 05c1 20       		.uleb128 .LVL39-.LVL36
ARM GAS  C:\Users\DEVELO~1\AppData\Local\Temp\ccuGzkMt.s 			page 199


 11279 05c2 36       		.uleb128 .LVL41-.LVL36
 11280 05c3 04       		.uleb128 0x4
 11281 05c4 A3       		.byte	0xa3
 11282 05c5 01       		.uleb128 0x1
 11283 05c6 50       		.byte	0x50
 11284 05c7 9F       		.byte	0x9f
 11285 05c8 04       		.byte	0x4
 11286 05c9 36       		.uleb128 .LVL41-.LVL36
 11287 05ca 50       		.uleb128 .LVL43-.LVL36
 11288 05cb 01       		.uleb128 0x1
 11289 05cc 50       		.byte	0x50
 11290 05cd 04       		.byte	0x4
 11291 05ce 50       		.uleb128 .LVL43-.LVL36
 11292 05cf 74       		.uleb128 .LFE460-.LVL36
 11293 05d0 04       		.uleb128 0x4
 11294 05d1 A3       		.byte	0xa3
 11295 05d2 01       		.uleb128 0x1
 11296 05d3 50       		.byte	0x50
 11297 05d4 9F       		.byte	0x9f
 11298 05d5 00       		.byte	0
 11299              	.LVUS25:
 11300 05d6 00       		.uleb128 0
 11301 05d7 00       		.uleb128 .LVU257
 11302 05d8 00       		.uleb128 .LVU257
 11303 05d9 00       		.uleb128 0
 11304              	.LLST25:
 11305 05da 06       		.byte	0x6
 11306 05db 00000000 		.4byte	.LVL36
 11307 05df 04       		.byte	0x4
 11308 05e0 00       		.uleb128 .LVL36-.LVL36
 11309 05e1 06       		.uleb128 .LVL37-.LVL36
 11310 05e2 01       		.uleb128 0x1
 11311 05e3 51       		.byte	0x51
 11312 05e4 04       		.byte	0x4
 11313 05e5 06       		.uleb128 .LVL37-.LVL36
 11314 05e6 74       		.uleb128 .LFE460-.LVL36
 11315 05e7 04       		.uleb128 0x4
 11316 05e8 A3       		.byte	0xa3
 11317 05e9 01       		.uleb128 0x1
 11318 05ea 51       		.byte	0x51
 11319 05eb 9F       		.byte	0x9f
 11320 05ec 00       		.byte	0
 11321              	.LVUS27:
 11322 05ed 00       		.uleb128 .LVU290
 11323 05ee 00       		.uleb128 .LVU301
 11324              	.LLST27:
 11325 05ef 08       		.byte	0x8
 11326 05f0 46000000 		.4byte	.LVL42
 11327 05f4 14       		.uleb128 .LVL44-.LVL42
 11328 05f5 06       		.uleb128 0x6
 11329 05f6 0C       		.byte	0xc
 11330 05f7 80F0FA02 		.4byte	0x2faf080
 11331 05fb 9F       		.byte	0x9f
 11332 05fc 00       		.byte	0
 11333              	.LVUS28:
 11334 05fd 00       		.uleb128 .LVU290
 11335 05fe 00       		.uleb128 .LVU298
ARM GAS  C:\Users\DEVELO~1\AppData\Local\Temp\ccuGzkMt.s 			page 200


 11336 05ff 00       		.uleb128 .LVU298
 11337 0600 00       		.uleb128 .LVU301
 11338              	.LLST28:
 11339 0601 06       		.byte	0x6
 11340 0602 46000000 		.4byte	.LVL42
 11341 0606 04       		.byte	0x4
 11342 0607 00       		.uleb128 .LVL42-.LVL42
 11343 0608 0A       		.uleb128 .LVL43-.LVL42
 11344 0609 01       		.uleb128 0x1
 11345 060a 50       		.byte	0x50
 11346 060b 04       		.byte	0x4
 11347 060c 0A       		.uleb128 .LVL43-.LVL42
 11348 060d 14       		.uleb128 .LVL44-.LVL42
 11349 060e 04       		.uleb128 0x4
 11350 060f A3       		.byte	0xa3
 11351 0610 01       		.uleb128 0x1
 11352 0611 50       		.byte	0x50
 11353 0612 9F       		.byte	0x9f
 11354 0613 00       		.byte	0
 11355              	.LVUS30:
 11356 0614 00       		.uleb128 .LVU266
 11357 0615 00       		.uleb128 .LVU277
 11358              	.LLST30:
 11359 0616 08       		.byte	0x8
 11360 0617 16000000 		.4byte	.LVL38
 11361 061b 14       		.uleb128 .LVL40-.LVL38
 11362 061c 06       		.uleb128 0x6
 11363 061d 0C       		.byte	0xc
 11364 061e 40787D01 		.4byte	0x17d7840
 11365 0622 9F       		.byte	0x9f
 11366 0623 00       		.byte	0
 11367              	.LVUS31:
 11368 0624 00       		.uleb128 .LVU266
 11369 0625 00       		.uleb128 .LVU274
 11370 0626 00       		.uleb128 .LVU274
 11371 0627 00       		.uleb128 .LVU277
 11372              	.LLST31:
 11373 0628 06       		.byte	0x6
 11374 0629 16000000 		.4byte	.LVL38
 11375 062d 04       		.byte	0x4
 11376 062e 00       		.uleb128 .LVL38-.LVL38
 11377 062f 0A       		.uleb128 .LVL39-.LVL38
 11378 0630 01       		.uleb128 0x1
 11379 0631 50       		.byte	0x50
 11380 0632 04       		.byte	0x4
 11381 0633 0A       		.uleb128 .LVL39-.LVL38
 11382 0634 14       		.uleb128 .LVL40-.LVL38
 11383 0635 04       		.uleb128 0x4
 11384 0636 A3       		.byte	0xa3
 11385 0637 01       		.uleb128 0x1
 11386 0638 50       		.byte	0x50
 11387 0639 9F       		.byte	0x9f
 11388 063a 00       		.byte	0
 11389              	.LVUS18:
 11390 063b 00       		.uleb128 0
 11391 063c 00       		.uleb128 .LVU236
 11392 063d 00       		.uleb128 .LVU236
ARM GAS  C:\Users\DEVELO~1\AppData\Local\Temp\ccuGzkMt.s 			page 201


 11393 063e 00       		.uleb128 .LVU249
 11394 063f 00       		.uleb128 .LVU249
 11395 0640 00       		.uleb128 0
 11396              	.LLST18:
 11397 0641 06       		.byte	0x6
 11398 0642 00000000 		.4byte	.LVL30
 11399 0646 04       		.byte	0x4
 11400 0647 00       		.uleb128 .LVL30-.LVL30
 11401 0648 14       		.uleb128 .LVL32-.LVL30
 11402 0649 01       		.uleb128 0x1
 11403 064a 50       		.byte	0x50
 11404 064b 04       		.byte	0x4
 11405 064c 14       		.uleb128 .LVL32-.LVL30
 11406 064d 32       		.uleb128 .LVL35-.LVL30
 11407 064e 04       		.uleb128 0x4
 11408 064f A3       		.byte	0xa3
 11409 0650 01       		.uleb128 0x1
 11410 0651 50       		.byte	0x50
 11411 0652 9F       		.byte	0x9f
 11412 0653 04       		.byte	0x4
 11413 0654 32       		.uleb128 .LVL35-.LVL30
 11414 0655 44       		.uleb128 .LFE459-.LVL30
 11415 0656 01       		.uleb128 0x1
 11416 0657 50       		.byte	0x50
 11417 0658 00       		.byte	0
 11418              	.LVUS20:
 11419 0659 00       		.uleb128 .LVU227
 11420 065a 00       		.uleb128 .LVU239
 11421 065b 00       		.uleb128 .LVU249
 11422 065c 00       		.uleb128 0
 11423              	.LLST20:
 11424 065d 06       		.byte	0x6
 11425 065e 06000000 		.4byte	.LVL31
 11426 0662 04       		.byte	0x4
 11427 0663 00       		.uleb128 .LVL31-.LVL31
 11428 0664 1A       		.uleb128 .LVL33-.LVL31
 11429 0665 06       		.uleb128 0x6
 11430 0666 0C       		.byte	0xc
 11431 0667 801A0600 		.4byte	0x61a80
 11432 066b 9F       		.byte	0x9f
 11433 066c 04       		.byte	0x4
 11434 066d 2C       		.uleb128 .LVL35-.LVL31
 11435 066e 3E       		.uleb128 .LFE459-.LVL31
 11436 066f 06       		.uleb128 0x6
 11437 0670 0C       		.byte	0xc
 11438 0671 801A0600 		.4byte	0x61a80
 11439 0675 9F       		.byte	0x9f
 11440 0676 00       		.byte	0
 11441              	.LVUS21:
 11442 0677 00       		.uleb128 .LVU227
 11443 0678 00       		.uleb128 .LVU236
 11444 0679 00       		.uleb128 .LVU236
 11445 067a 00       		.uleb128 .LVU239
 11446 067b 00       		.uleb128 .LVU249
 11447 067c 00       		.uleb128 0
 11448              	.LLST21:
 11449 067d 06       		.byte	0x6
ARM GAS  C:\Users\DEVELO~1\AppData\Local\Temp\ccuGzkMt.s 			page 202


 11450 067e 06000000 		.4byte	.LVL31
 11451 0682 04       		.byte	0x4
 11452 0683 00       		.uleb128 .LVL31-.LVL31
 11453 0684 0E       		.uleb128 .LVL32-.LVL31
 11454 0685 01       		.uleb128 0x1
 11455 0686 50       		.byte	0x50
 11456 0687 04       		.byte	0x4
 11457 0688 0E       		.uleb128 .LVL32-.LVL31
 11458 0689 1A       		.uleb128 .LVL33-.LVL31
 11459 068a 04       		.uleb128 0x4
 11460 068b A3       		.byte	0xa3
 11461 068c 01       		.uleb128 0x1
 11462 068d 50       		.byte	0x50
 11463 068e 9F       		.byte	0x9f
 11464 068f 04       		.byte	0x4
 11465 0690 2C       		.uleb128 .LVL35-.LVL31
 11466 0691 3E       		.uleb128 .LFE459-.LVL31
 11467 0692 01       		.uleb128 0x1
 11468 0693 50       		.byte	0x50
 11469 0694 00       		.byte	0
 11470              	.LVUS23:
 11471 0695 01       		.uleb128 .LVU247
 11472 0696 00       		.uleb128 .LVU249
 11473              	.LLST23:
 11474 0697 08       		.byte	0x8
 11475 0698 2E000000 		.4byte	.LVL34
 11476 069c 04       		.uleb128 .LVL35-.LVL34
 11477 069d 03       		.uleb128 0x3
 11478 069e 08       		.byte	0x8
 11479 069f 64       		.byte	0x64
 11480 06a0 9F       		.byte	0x9f
 11481 06a1 00       		.byte	0
 11482              	.LVUS17:
 11483 06a2 01       		.uleb128 .LVU213
 11484 06a3 00       		.uleb128 .LVU221
 11485              	.LLST17:
 11486 06a4 08       		.byte	0x8
 11487 06a5 28000000 		.4byte	.LVL28
 11488 06a9 20       		.uleb128 .LVL29-.LVL28
 11489 06aa 04       		.uleb128 0x4
 11490 06ab 40       		.byte	0x40
 11491 06ac 3C       		.byte	0x3c
 11492 06ad 24       		.byte	0x24
 11493 06ae 9F       		.byte	0x9f
 11494 06af 00       		.byte	0
 11495              	.LVUS0:
 11496 06b0 02       		.uleb128 .LVU2
 11497 06b1 00       		.uleb128 .LVU4
 11498 06b2 00       		.uleb128 .LVU4
 11499 06b3 00       		.uleb128 0
 11500              	.LLST0:
 11501 06b4 06       		.byte	0x6
 11502 06b5 00000000 		.4byte	.LVL0
 11503 06b9 04       		.byte	0x4
 11504 06ba 00       		.uleb128 .LVL0-.LVL0
 11505 06bb 04       		.uleb128 .LVL1-.LVL0
 11506 06bc 02       		.uleb128 0x2
ARM GAS  C:\Users\DEVELO~1\AppData\Local\Temp\ccuGzkMt.s 			page 203


 11507 06bd 30       		.byte	0x30
 11508 06be 9F       		.byte	0x9f
 11509 06bf 04       		.byte	0x4
 11510 06c0 04       		.uleb128 .LVL1-.LVL0
 11511 06c1 34       		.uleb128 .LFE454-.LVL0
 11512 06c2 01       		.uleb128 0x1
 11513 06c3 53       		.byte	0x53
 11514 06c4 00       		.byte	0
 11515              	.LVUS1:
 11516 06c5 00       		.uleb128 0
 11517 06c6 00       		.uleb128 .LVU49
 11518 06c7 00       		.uleb128 .LVU49
 11519 06c8 00       		.uleb128 .LVU97
 11520 06c9 00       		.uleb128 .LVU97
 11521 06ca 00       		.uleb128 .LVU102
 11522 06cb 00       		.uleb128 .LVU102
 11523 06cc 00       		.uleb128 0
 11524              	.LLST1:
 11525 06cd 06       		.byte	0x6
 11526 06ce 00000000 		.4byte	.LVL7
 11527 06d2 04       		.byte	0x4
 11528 06d3 00       		.uleb128 .LVL7-.LVL7
 11529 06d4 14       		.uleb128 .LVL9-.LVL7
 11530 06d5 01       		.uleb128 0x1
 11531 06d6 50       		.byte	0x50
 11532 06d7 04       		.byte	0x4
 11533 06d8 14       		.uleb128 .LVL9-.LVL7
 11534 06d9 3E       		.uleb128 .LVL14-.LVL7
 11535 06da 01       		.uleb128 0x1
 11536 06db 55       		.byte	0x55
 11537 06dc 04       		.byte	0x4
 11538 06dd 3E       		.uleb128 .LVL14-.LVL7
 11539 06de 44       		.uleb128 .LVL16-.LVL7
 11540 06df 01       		.uleb128 0x1
 11541 06e0 50       		.byte	0x50
 11542 06e1 04       		.byte	0x4
 11543 06e2 44       		.uleb128 .LVL16-.LVL7
 11544 06e3 78       		.uleb128 .LFE453-.LVL7
 11545 06e4 01       		.uleb128 0x1
 11546 06e5 55       		.byte	0x55
 11547 06e6 00       		.byte	0
 11548              	.LVUS2:
 11549 06e7 00       		.uleb128 0
 11550 06e8 00       		.uleb128 .LVU49
 11551 06e9 00       		.uleb128 .LVU49
 11552 06ea 00       		.uleb128 .LVU97
 11553 06eb 00       		.uleb128 .LVU97
 11554 06ec 00       		.uleb128 .LVU101
 11555 06ed 00       		.uleb128 .LVU101
 11556 06ee 00       		.uleb128 0
 11557              	.LLST2:
 11558 06ef 06       		.byte	0x6
 11559 06f0 00000000 		.4byte	.LVL7
 11560 06f4 04       		.byte	0x4
 11561 06f5 00       		.uleb128 .LVL7-.LVL7
 11562 06f6 14       		.uleb128 .LVL9-.LVL7
 11563 06f7 01       		.uleb128 0x1
ARM GAS  C:\Users\DEVELO~1\AppData\Local\Temp\ccuGzkMt.s 			page 204


 11564 06f8 51       		.byte	0x51
 11565 06f9 04       		.byte	0x4
 11566 06fa 14       		.uleb128 .LVL9-.LVL7
 11567 06fb 3E       		.uleb128 .LVL14-.LVL7
 11568 06fc 01       		.uleb128 0x1
 11569 06fd 57       		.byte	0x57
 11570 06fe 04       		.byte	0x4
 11571 06ff 3E       		.uleb128 .LVL14-.LVL7
 11572 0700 42       		.uleb128 .LVL15-.LVL7
 11573 0701 01       		.uleb128 0x1
 11574 0702 51       		.byte	0x51
 11575 0703 04       		.byte	0x4
 11576 0704 42       		.uleb128 .LVL15-.LVL7
 11577 0705 78       		.uleb128 .LFE453-.LVL7
 11578 0706 01       		.uleb128 0x1
 11579 0707 57       		.byte	0x57
 11580 0708 00       		.byte	0
 11581              	.LVUS3:
 11582 0709 00       		.uleb128 0
 11583 070a 00       		.uleb128 .LVU49
 11584 070b 00       		.uleb128 .LVU49
 11585 070c 00       		.uleb128 .LVU97
 11586 070d 00       		.uleb128 .LVU97
 11587 070e 00       		.uleb128 .LVU103
 11588 070f 00       		.uleb128 .LVU103
 11589 0710 00       		.uleb128 0
 11590              	.LLST3:
 11591 0711 06       		.byte	0x6
 11592 0712 00000000 		.4byte	.LVL7
 11593 0716 04       		.byte	0x4
 11594 0717 00       		.uleb128 .LVL7-.LVL7
 11595 0718 14       		.uleb128 .LVL9-.LVL7
 11596 0719 01       		.uleb128 0x1
 11597 071a 52       		.byte	0x52
 11598 071b 04       		.byte	0x4
 11599 071c 14       		.uleb128 .LVL9-.LVL7
 11600 071d 3E       		.uleb128 .LVL14-.LVL7
 11601 071e 01       		.uleb128 0x1
 11602 071f 56       		.byte	0x56
 11603 0720 04       		.byte	0x4
 11604 0721 3E       		.uleb128 .LVL14-.LVL7
 11605 0722 47       		.uleb128 .LVL17-1-.LVL7
 11606 0723 01       		.uleb128 0x1
 11607 0724 52       		.byte	0x52
 11608 0725 04       		.byte	0x4
 11609 0726 47       		.uleb128 .LVL17-1-.LVL7
 11610 0727 78       		.uleb128 .LFE453-.LVL7
 11611 0728 01       		.uleb128 0x1
 11612 0729 56       		.byte	0x56
 11613 072a 00       		.byte	0
 11614              	.LVUS5:
 11615 072b 08       		.uleb128 .LVU36
 11616 072c 00       		.uleb128 .LVU42
 11617              	.LLST5:
 11618 072d 08       		.byte	0x8
 11619 072e 00000000 		.4byte	.LVL7
 11620 0732 0E       		.uleb128 .LVL8-.LVL7
ARM GAS  C:\Users\DEVELO~1\AppData\Local\Temp\ccuGzkMt.s 			page 205


 11621 0733 03       		.uleb128 0x3
 11622 0734 08       		.byte	0x8
 11623 0735 30       		.byte	0x30
 11624 0736 9F       		.byte	0x9f
 11625 0737 00       		.byte	0
 11626              	.LVUS6:
 11627 0738 0C       		.uleb128 .LVU72
 11628 0739 00       		.uleb128 .LVU74
 11629              	.LLST6:
 11630 073a 08       		.byte	0x8
 11631 073b 2A000000 		.4byte	.LVL10
 11632 073f 04       		.uleb128 .LVL11-.LVL10
 11633 0740 02       		.uleb128 0x2
 11634 0741 30       		.byte	0x30
 11635 0742 9F       		.byte	0x9f
 11636 0743 00       		.byte	0
 11637              	.LVUS7:
 11638 0744 0C       		.uleb128 .LVU91
 11639 0745 00       		.uleb128 .LVU93
 11640              	.LLST7:
 11641 0746 08       		.byte	0x8
 11642 0747 36000000 		.4byte	.LVL12
 11643 074b 04       		.uleb128 .LVL13-.LVL12
 11644 074c 02       		.uleb128 0x2
 11645 074d 30       		.byte	0x30
 11646 074e 9F       		.byte	0x9f
 11647 074f 00       		.byte	0
 11648              	.LVUS9:
 11649 0750 01       		.uleb128 .LVU98
 11650 0751 00       		.uleb128 .LVU102
 11651 0752 00       		.uleb128 .LVU102
 11652 0753 00       		.uleb128 .LVU103
 11653 0754 00       		.uleb128 .LVU103
 11654 0755 00       		.uleb128 .LVU106
 11655              	.LLST9:
 11656 0756 06       		.byte	0x6
 11657 0757 3E000000 		.4byte	.LVL14
 11658 075b 04       		.byte	0x4
 11659 075c 00       		.uleb128 .LVL14-.LVL14
 11660 075d 06       		.uleb128 .LVL16-.LVL14
 11661 075e 04       		.uleb128 0x4
 11662 075f 70       		.byte	0x70
 11663 0760 C000     		.sleb128 64
 11664 0762 9F       		.byte	0x9f
 11665 0763 04       		.byte	0x4
 11666 0764 06       		.uleb128 .LVL16-.LVL14
 11667 0765 09       		.uleb128 .LVL17-1-.LVL14
 11668 0766 01       		.uleb128 0x1
 11669 0767 50       		.byte	0x50
 11670 0768 04       		.byte	0x4
 11671 0769 09       		.uleb128 .LVL17-1-.LVL14
 11672 076a 0E       		.uleb128 .LVL18-.LVL14
 11673 076b 04       		.uleb128 0x4
 11674 076c 75       		.byte	0x75
 11675 076d C000     		.sleb128 64
 11676 076f 9F       		.byte	0x9f
 11677 0770 00       		.byte	0
ARM GAS  C:\Users\DEVELO~1\AppData\Local\Temp\ccuGzkMt.s 			page 206


 11678              	.LVUS11:
 11679 0771 02       		.uleb128 .LVU108
 11680 0772 01       		.uleb128 .LVU129
 11681 0773 00       		.uleb128 .LVU131
 11682 0774 00       		.uleb128 .LVU134
 11683              	.LLST11:
 11684 0775 06       		.byte	0x6
 11685 0776 4C000000 		.4byte	.LVL18
 11686 077a 04       		.byte	0x4
 11687 077b 00       		.uleb128 .LVL18-.LVL18
 11688 077c 20       		.uleb128 .LVL20-.LVL18
 11689 077d 01       		.uleb128 0x1
 11690 077e 56       		.byte	0x56
 11691 077f 04       		.byte	0x4
 11692 0780 22       		.uleb128 .LVL21-.LVL18
 11693 0781 2A       		.uleb128 .LVL23-.LVL18
 11694 0782 01       		.uleb128 0x1
 11695 0783 56       		.byte	0x56
 11696 0784 00       		.byte	0
 11697              	.LVUS12:
 11698 0785 02       		.uleb128 .LVU108
 11699 0786 01       		.uleb128 .LVU129
 11700 0787 00       		.uleb128 .LVU131
 11701 0788 00       		.uleb128 .LVU134
 11702              	.LLST12:
 11703 0789 06       		.byte	0x6
 11704 078a 4C000000 		.4byte	.LVL18
 11705 078e 04       		.byte	0x4
 11706 078f 00       		.uleb128 .LVL18-.LVL18
 11707 0790 20       		.uleb128 .LVL20-.LVL18
 11708 0791 02       		.uleb128 0x2
 11709 0792 30       		.byte	0x30
 11710 0793 9F       		.byte	0x9f
 11711 0794 04       		.byte	0x4
 11712 0795 22       		.uleb128 .LVL21-.LVL18
 11713 0796 2A       		.uleb128 .LVL23-.LVL18
 11714 0797 02       		.uleb128 0x2
 11715 0798 30       		.byte	0x30
 11716 0799 9F       		.byte	0x9f
 11717 079a 00       		.byte	0
 11718              	.LVUS13:
 11719 079b 02       		.uleb128 .LVU108
 11720 079c 01       		.uleb128 .LVU129
 11721 079d 00       		.uleb128 .LVU131
 11722 079e 00       		.uleb128 .LVU134
 11723              	.LLST13:
 11724 079f 06       		.byte	0x6
 11725 07a0 4C000000 		.4byte	.LVL18
 11726 07a4 04       		.byte	0x4
 11727 07a5 00       		.uleb128 .LVL18-.LVL18
 11728 07a6 20       		.uleb128 .LVL20-.LVL18
 11729 07a7 02       		.uleb128 0x2
 11730 07a8 3C       		.byte	0x3c
 11731 07a9 9F       		.byte	0x9f
 11732 07aa 04       		.byte	0x4
 11733 07ab 22       		.uleb128 .LVL21-.LVL18
 11734 07ac 2A       		.uleb128 .LVL23-.LVL18
ARM GAS  C:\Users\DEVELO~1\AppData\Local\Temp\ccuGzkMt.s 			page 207


 11735 07ad 02       		.uleb128 0x2
 11736 07ae 3C       		.byte	0x3c
 11737 07af 9F       		.byte	0x9f
 11738 07b0 00       		.byte	0
 11739              	.LVUS14:
 11740 07b1 02       		.uleb128 .LVU108
 11741 07b2 01       		.uleb128 .LVU129
 11742 07b3 00       		.uleb128 .LVU131
 11743 07b4 00       		.uleb128 .LVU134
 11744              	.LLST14:
 11745 07b5 06       		.byte	0x6
 11746 07b6 4C000000 		.4byte	.LVL18
 11747 07ba 04       		.byte	0x4
 11748 07bb 00       		.uleb128 .LVL18-.LVL18
 11749 07bc 20       		.uleb128 .LVL20-.LVL18
 11750 07bd 01       		.uleb128 0x1
 11751 07be 55       		.byte	0x55
 11752 07bf 04       		.byte	0x4
 11753 07c0 22       		.uleb128 .LVL21-.LVL18
 11754 07c1 2A       		.uleb128 .LVL23-.LVL18
 11755 07c2 01       		.uleb128 0x1
 11756 07c3 55       		.byte	0x55
 11757 07c4 00       		.byte	0
 11758              	.LVUS15:
 11759 07c5 00       		.uleb128 .LVU119
 11760 07c6 01       		.uleb128 .LVU129
 11761 07c7 00       		.uleb128 .LVU131
 11762 07c8 00       		.uleb128 .LVU134
 11763              	.LLST15:
 11764 07c9 06       		.byte	0x6
 11765 07ca 58000000 		.4byte	.LVL19
 11766 07ce 04       		.byte	0x4
 11767 07cf 00       		.uleb128 .LVL19-.LVL19
 11768 07d0 14       		.uleb128 .LVL20-.LVL19
 11769 07d1 01       		.uleb128 0x1
 11770 07d2 51       		.byte	0x51
 11771 07d3 04       		.byte	0x4
 11772 07d4 16       		.uleb128 .LVL21-.LVL19
 11773 07d5 1E       		.uleb128 .LVL23-.LVL19
 11774 07d6 01       		.uleb128 0x1
 11775 07d7 51       		.byte	0x51
 11776 07d8 00       		.byte	0
 11777              	.LVUS40:
 11778 07d9 00       		.uleb128 0
 11779 07da 00       		.uleb128 .LVU389
 11780 07db 00       		.uleb128 .LVU389
 11781 07dc 00       		.uleb128 .LVU392
 11782 07dd 00       		.uleb128 .LVU392
 11783 07de 00       		.uleb128 .LVU395
 11784 07df 00       		.uleb128 .LVU395
 11785 07e0 00       		.uleb128 0
 11786              	.LLST40:
 11787 07e1 06       		.byte	0x6
 11788 07e2 00000000 		.4byte	.LVL63
 11789 07e6 04       		.byte	0x4
 11790 07e7 00       		.uleb128 .LVL63-.LVL63
 11791 07e8 20       		.uleb128 .LVL68-.LVL63
ARM GAS  C:\Users\DEVELO~1\AppData\Local\Temp\ccuGzkMt.s 			page 208


 11792 07e9 01       		.uleb128 0x1
 11793 07ea 50       		.byte	0x50
 11794 07eb 04       		.byte	0x4
 11795 07ec 20       		.uleb128 .LVL68-.LVL63
 11796 07ed 24       		.uleb128 .LVL69-.LVL63
 11797 07ee 04       		.uleb128 0x4
 11798 07ef A3       		.byte	0xa3
 11799 07f0 01       		.uleb128 0x1
 11800 07f1 50       		.byte	0x50
 11801 07f2 9F       		.byte	0x9f
 11802 07f3 04       		.byte	0x4
 11803 07f4 24       		.uleb128 .LVL69-.LVL63
 11804 07f5 2A       		.uleb128 .LVL71-.LVL63
 11805 07f6 01       		.uleb128 0x1
 11806 07f7 50       		.byte	0x50
 11807 07f8 04       		.byte	0x4
 11808 07f9 2A       		.uleb128 .LVL71-.LVL63
 11809 07fa 2C       		.uleb128 .LFE465-.LVL63
 11810 07fb 04       		.uleb128 0x4
 11811 07fc A3       		.byte	0xa3
 11812 07fd 01       		.uleb128 0x1
 11813 07fe 50       		.byte	0x50
 11814 07ff 9F       		.byte	0x9f
 11815 0800 00       		.byte	0
 11816              	.LVUS41:
 11817 0801 00       		.uleb128 0
 11818 0802 00       		.uleb128 .LVU374
 11819 0803 00       		.uleb128 .LVU374
 11820 0804 00       		.uleb128 0
 11821              	.LLST41:
 11822 0805 06       		.byte	0x6
 11823 0806 00000000 		.4byte	.LVL63
 11824 080a 04       		.byte	0x4
 11825 080b 00       		.uleb128 .LVL63-.LVL63
 11826 080c 06       		.uleb128 .LVL64-.LVL63
 11827 080d 01       		.uleb128 0x1
 11828 080e 51       		.byte	0x51
 11829 080f 04       		.byte	0x4
 11830 0810 06       		.uleb128 .LVL64-.LVL63
 11831 0811 2C       		.uleb128 .LFE465-.LVL63
 11832 0812 04       		.uleb128 0x4
 11833 0813 A3       		.byte	0xa3
 11834 0814 01       		.uleb128 0x1
 11835 0815 51       		.byte	0x51
 11836 0816 9F       		.byte	0x9f
 11837 0817 00       		.byte	0
 11838              	.LVUS42:
 11839 0818 00       		.uleb128 0
 11840 0819 01       		.uleb128 .LVU379
 11841 081a 01       		.uleb128 .LVU379
 11842 081b 00       		.uleb128 0
 11843              	.LLST42:
 11844 081c 06       		.byte	0x6
 11845 081d 00000000 		.4byte	.LVL63
 11846 0821 04       		.byte	0x4
 11847 0822 00       		.uleb128 .LVL63-.LVL63
 11848 0823 0C       		.uleb128 .LVL65-.LVL63
ARM GAS  C:\Users\DEVELO~1\AppData\Local\Temp\ccuGzkMt.s 			page 209


 11849 0824 01       		.uleb128 0x1
 11850 0825 52       		.byte	0x52
 11851 0826 04       		.byte	0x4
 11852 0827 0C       		.uleb128 .LVL65-.LVL63
 11853 0828 2C       		.uleb128 .LFE465-.LVL63
 11854 0829 04       		.uleb128 0x4
 11855 082a A3       		.byte	0xa3
 11856 082b 01       		.uleb128 0x1
 11857 082c 52       		.byte	0x52
 11858 082d 9F       		.byte	0x9f
 11859 082e 00       		.byte	0
 11860              	.LVUS43:
 11861 082f 00       		.uleb128 0
 11862 0830 00       		.uleb128 .LVU393
 11863 0831 00       		.uleb128 .LVU393
 11864 0832 00       		.uleb128 0
 11865              	.LLST43:
 11866 0833 06       		.byte	0x6
 11867 0834 00000000 		.4byte	.LVL63
 11868 0838 04       		.byte	0x4
 11869 0839 00       		.uleb128 .LVL63-.LVL63
 11870 083a 27       		.uleb128 .LVL70-1-.LVL63
 11871 083b 01       		.uleb128 0x1
 11872 083c 53       		.byte	0x53
 11873 083d 04       		.byte	0x4
 11874 083e 27       		.uleb128 .LVL70-1-.LVL63
 11875 083f 2C       		.uleb128 .LFE465-.LVL63
 11876 0840 04       		.uleb128 0x4
 11877 0841 A3       		.byte	0xa3
 11878 0842 01       		.uleb128 0x1
 11879 0843 53       		.byte	0x53
 11880 0844 9F       		.byte	0x9f
 11881 0845 00       		.byte	0
 11882              	.LVUS44:
 11883 0846 00       		.uleb128 .LVU381
 11884 0847 00       		.uleb128 .LVU388
 11885 0848 00       		.uleb128 .LVU392
 11886 0849 00       		.uleb128 0
 11887              	.LLST44:
 11888 084a 06       		.byte	0x6
 11889 084b 0E000000 		.4byte	.LVL66
 11890 084f 04       		.byte	0x4
 11891 0850 00       		.uleb128 .LVL66-.LVL66
 11892 0851 10       		.uleb128 .LVL67-.LVL66
 11893 0852 01       		.uleb128 0x1
 11894 0853 51       		.byte	0x51
 11895 0854 04       		.byte	0x4
 11896 0855 16       		.uleb128 .LVL69-.LVL66
 11897 0856 1E       		.uleb128 .LFE465-.LVL66
 11898 0857 01       		.uleb128 0x1
 11899 0858 51       		.byte	0x51
 11900 0859 00       		.byte	0
 11901              	.LVUS81:
 11902 085a 00       		.uleb128 0
 11903 085b 00       		.uleb128 .LVU629
 11904 085c 00       		.uleb128 .LVU629
 11905 085d 01       		.uleb128 .LVU774
ARM GAS  C:\Users\DEVELO~1\AppData\Local\Temp\ccuGzkMt.s 			page 210


 11906 085e 01       		.uleb128 .LVU774
 11907 085f 00       		.uleb128 .LVU800
 11908 0860 00       		.uleb128 .LVU800
 11909 0861 00       		.uleb128 .LVU823
 11910 0862 00       		.uleb128 .LVU823
 11911 0863 00       		.uleb128 .LVU824
 11912 0864 00       		.uleb128 .LVU824
 11913 0865 00       		.uleb128 0
 11914              	.LLST81:
 11915 0866 06       		.byte	0x6
 11916 0867 00000000 		.4byte	.LVL110
 11917 086b 04       		.byte	0x4
 11918 086c 00       		.uleb128 .LVL110-.LVL110
 11919 086d 35       		.uleb128 .LVL115-1-.LVL110
 11920 086e 01       		.uleb128 0x1
 11921 086f 50       		.byte	0x50
 11922 0870 04       		.byte	0x4
 11923 0871 35       		.uleb128 .LVL115-1-.LVL110
 11924 0872 9802     		.uleb128 .LVL142-.LVL110
 11925 0874 01       		.uleb128 0x1
 11926 0875 57       		.byte	0x57
 11927 0876 04       		.byte	0x4
 11928 0877 9802     		.uleb128 .LVL142-.LVL110
 11929 0879 BC02     		.uleb128 .LVL145-.LVL110
 11930 087b 01       		.uleb128 0x1
 11931 087c 50       		.byte	0x50
 11932 087d 04       		.byte	0x4
 11933 087e BC02     		.uleb128 .LVL145-.LVL110
 11934 0880 E002     		.uleb128 .LVL150-.LVL110
 11935 0882 01       		.uleb128 0x1
 11936 0883 57       		.byte	0x57
 11937 0884 04       		.byte	0x4
 11938 0885 E002     		.uleb128 .LVL150-.LVL110
 11939 0887 E202     		.uleb128 .LVL151-.LVL110
 11940 0889 01       		.uleb128 0x1
 11941 088a 50       		.byte	0x50
 11942 088b 04       		.byte	0x4
 11943 088c E202     		.uleb128 .LVL151-.LVL110
 11944 088e F402     		.uleb128 .LFE468-.LVL110
 11945 0890 01       		.uleb128 0x1
 11946 0891 57       		.byte	0x57
 11947 0892 00       		.byte	0
 11948              	.LVUS82:
 11949 0893 00       		.uleb128 0
 11950 0894 00       		.uleb128 .LVU614
 11951 0895 00       		.uleb128 .LVU614
 11952 0896 00       		.uleb128 .LVU630
 11953 0897 00       		.uleb128 .LVU630
 11954 0898 00       		.uleb128 .LVU631
 11955 0899 00       		.uleb128 .LVU631
 11956 089a 00       		.uleb128 .LVU654
 11957 089b 00       		.uleb128 .LVU654
 11958 089c 00       		.uleb128 0
 11959              	.LLST82:
 11960 089d 06       		.byte	0x6
 11961 089e 00000000 		.4byte	.LVL110
 11962 08a2 04       		.byte	0x4
ARM GAS  C:\Users\DEVELO~1\AppData\Local\Temp\ccuGzkMt.s 			page 211


 11963 08a3 00       		.uleb128 .LVL110-.LVL110
 11964 08a4 12       		.uleb128 .LVL111-.LVL110
 11965 08a5 01       		.uleb128 0x1
 11966 08a6 51       		.byte	0x51
 11967 08a7 04       		.byte	0x4
 11968 08a8 12       		.uleb128 .LVL111-.LVL110
 11969 08a9 3A       		.uleb128 .LVL116-.LVL110
 11970 08aa 01       		.uleb128 0x1
 11971 08ab 55       		.byte	0x55
 11972 08ac 04       		.byte	0x4
 11973 08ad 3A       		.uleb128 .LVL116-.LVL110
 11974 08ae 40       		.uleb128 .LVL117-.LVL110
 11975 08af 04       		.uleb128 0x4
 11976 08b0 A3       		.byte	0xa3
 11977 08b1 01       		.uleb128 0x1
 11978 08b2 51       		.byte	0x51
 11979 08b3 9F       		.byte	0x9f
 11980 08b4 04       		.byte	0x4
 11981 08b5 40       		.uleb128 .LVL117-.LVL110
 11982 08b6 64       		.uleb128 .LVL120-.LVL110
 11983 08b7 01       		.uleb128 0x1
 11984 08b8 55       		.byte	0x55
 11985 08b9 04       		.byte	0x4
 11986 08ba 64       		.uleb128 .LVL120-.LVL110
 11987 08bb F402     		.uleb128 .LFE468-.LVL110
 11988 08bd 04       		.uleb128 0x4
 11989 08be A3       		.byte	0xa3
 11990 08bf 01       		.uleb128 0x1
 11991 08c0 51       		.byte	0x51
 11992 08c1 9F       		.byte	0x9f
 11993 08c2 00       		.byte	0
 11994              	.LVUS83:
 11995 08c3 00       		.uleb128 0
 11996 08c4 00       		.uleb128 .LVU617
 11997 08c5 00       		.uleb128 .LVU617
 11998 08c6 00       		.uleb128 .LVU630
 11999 08c7 00       		.uleb128 .LVU630
 12000 08c8 00       		.uleb128 .LVU631
 12001 08c9 00       		.uleb128 .LVU631
 12002 08ca 00       		.uleb128 .LVU641
 12003 08cb 00       		.uleb128 .LVU641
 12004 08cc 00       		.uleb128 0
 12005              	.LLST83:
 12006 08cd 06       		.byte	0x6
 12007 08ce 00000000 		.4byte	.LVL110
 12008 08d2 04       		.byte	0x4
 12009 08d3 00       		.uleb128 .LVL110-.LVL110
 12010 08d4 18       		.uleb128 .LVL112-.LVL110
 12011 08d5 01       		.uleb128 0x1
 12012 08d6 52       		.byte	0x52
 12013 08d7 04       		.byte	0x4
 12014 08d8 18       		.uleb128 .LVL112-.LVL110
 12015 08d9 3A       		.uleb128 .LVL116-.LVL110
 12016 08da 01       		.uleb128 0x1
 12017 08db 56       		.byte	0x56
 12018 08dc 04       		.byte	0x4
 12019 08dd 3A       		.uleb128 .LVL116-.LVL110
ARM GAS  C:\Users\DEVELO~1\AppData\Local\Temp\ccuGzkMt.s 			page 212


 12020 08de 40       		.uleb128 .LVL117-.LVL110
 12021 08df 04       		.uleb128 0x4
 12022 08e0 A3       		.byte	0xa3
 12023 08e1 01       		.uleb128 0x1
 12024 08e2 52       		.byte	0x52
 12025 08e3 9F       		.byte	0x9f
 12026 08e4 04       		.byte	0x4
 12027 08e5 40       		.uleb128 .LVL117-.LVL110
 12028 08e6 4E       		.uleb128 .LVL118-.LVL110
 12029 08e7 01       		.uleb128 0x1
 12030 08e8 56       		.byte	0x56
 12031 08e9 04       		.byte	0x4
 12032 08ea 4E       		.uleb128 .LVL118-.LVL110
 12033 08eb F402     		.uleb128 .LFE468-.LVL110
 12034 08ed 04       		.uleb128 0x4
 12035 08ee A3       		.byte	0xa3
 12036 08ef 01       		.uleb128 0x1
 12037 08f0 52       		.byte	0x52
 12038 08f1 9F       		.byte	0x9f
 12039 08f2 00       		.byte	0
 12040              	.LVUS84:
 12041 08f3 00       		.uleb128 0
 12042 08f4 00       		.uleb128 .LVU618
 12043 08f5 00       		.uleb128 .LVU618
 12044 08f6 00       		.uleb128 0
 12045              	.LLST84:
 12046 08f7 06       		.byte	0x6
 12047 08f8 00000000 		.4byte	.LVL110
 12048 08fc 04       		.byte	0x4
 12049 08fd 00       		.uleb128 .LVL110-.LVL110
 12050 08fe 1A       		.uleb128 .LVL113-.LVL110
 12051 08ff 01       		.uleb128 0x1
 12052 0900 53       		.byte	0x53
 12053 0901 04       		.byte	0x4
 12054 0902 1A       		.uleb128 .LVL113-.LVL110
 12055 0903 F402     		.uleb128 .LFE468-.LVL110
 12056 0905 01       		.uleb128 0x1
 12057 0906 58       		.byte	0x58
 12058 0907 00       		.byte	0
 12059              	.LVUS86:
 12060 0908 00       		.uleb128 .LVU618
 12061 0909 00       		.uleb128 .LVU620
 12062              	.LLST86:
 12063 090a 08       		.byte	0x8
 12064 090b 1A000000 		.4byte	.LVL113
 12065 090f 04       		.uleb128 .LVL114-.LVL113
 12066 0910 09       		.uleb128 0x9
 12067 0911 73       		.byte	0x73
 12068 0912 00       		.sleb128 0
 12069 0913 0A       		.byte	0xa
 12070 0914 FF03     		.2byte	0x3ff
 12071 0916 1A       		.byte	0x1a
 12072 0917 23       		.byte	0x23
 12073 0918 01       		.uleb128 0x1
 12074 0919 9F       		.byte	0x9f
 12075 091a 00       		.byte	0
 12076              	.LVUS88:
ARM GAS  C:\Users\DEVELO~1\AppData\Local\Temp\ccuGzkMt.s 			page 213


 12077 091b 00       		.uleb128 .LVU631
 12078 091c 01       		.uleb128 .LVU798
 12079 091d 00       		.uleb128 .LVU801
 12080 091e 00       		.uleb128 0
 12081              	.LLST88:
 12082 091f 06       		.byte	0x6
 12083 0920 40000000 		.4byte	.LVL117
 12084 0924 04       		.byte	0x4
 12085 0925 00       		.uleb128 .LVL117-.LVL117
 12086 0926 FA01     		.uleb128 .LVL144-.LVL117
 12087 0928 01       		.uleb128 0x1
 12088 0929 58       		.byte	0x58
 12089 092a 04       		.byte	0x4
 12090 092b 8002     		.uleb128 .LVL146-.LVL117
 12091 092d B402     		.uleb128 .LFE468-.LVL117
 12092 092f 01       		.uleb128 0x1
 12093 0930 58       		.byte	0x58
 12094 0931 00       		.byte	0
 12095              	.LVUS89:
 12096 0932 00       		.uleb128 .LVU631
 12097 0933 00       		.uleb128 .LVU641
 12098 0934 00       		.uleb128 .LVU641
 12099 0935 01       		.uleb128 .LVU798
 12100 0936 00       		.uleb128 .LVU801
 12101 0937 00       		.uleb128 0
 12102              	.LLST89:
 12103 0938 06       		.byte	0x6
 12104 0939 40000000 		.4byte	.LVL117
 12105 093d 04       		.byte	0x4
 12106 093e 00       		.uleb128 .LVL117-.LVL117
 12107 093f 0E       		.uleb128 .LVL118-.LVL117
 12108 0940 01       		.uleb128 0x1
 12109 0941 56       		.byte	0x56
 12110 0942 04       		.byte	0x4
 12111 0943 0E       		.uleb128 .LVL118-.LVL117
 12112 0944 FA01     		.uleb128 .LVL144-.LVL117
 12113 0946 04       		.uleb128 0x4
 12114 0947 A3       		.byte	0xa3
 12115 0948 01       		.uleb128 0x1
 12116 0949 52       		.byte	0x52
 12117 094a 9F       		.byte	0x9f
 12118 094b 04       		.byte	0x4
 12119 094c 8002     		.uleb128 .LVL146-.LVL117
 12120 094e B402     		.uleb128 .LFE468-.LVL117
 12121 0950 04       		.uleb128 0x4
 12122 0951 A3       		.byte	0xa3
 12123 0952 01       		.uleb128 0x1
 12124 0953 52       		.byte	0x52
 12125 0954 9F       		.byte	0x9f
 12126 0955 00       		.byte	0
 12127              	.LVUS90:
 12128 0956 00       		.uleb128 .LVU631
 12129 0957 00       		.uleb128 .LVU654
 12130 0958 00       		.uleb128 .LVU654
 12131 0959 01       		.uleb128 .LVU798
 12132 095a 00       		.uleb128 .LVU801
 12133 095b 00       		.uleb128 0
ARM GAS  C:\Users\DEVELO~1\AppData\Local\Temp\ccuGzkMt.s 			page 214


 12134              	.LLST90:
 12135 095c 06       		.byte	0x6
 12136 095d 40000000 		.4byte	.LVL117
 12137 0961 04       		.byte	0x4
 12138 0962 00       		.uleb128 .LVL117-.LVL117
 12139 0963 24       		.uleb128 .LVL120-.LVL117
 12140 0964 01       		.uleb128 0x1
 12141 0965 55       		.byte	0x55
 12142 0966 04       		.byte	0x4
 12143 0967 24       		.uleb128 .LVL120-.LVL117
 12144 0968 FA01     		.uleb128 .LVL144-.LVL117
 12145 096a 04       		.uleb128 0x4
 12146 096b A3       		.byte	0xa3
 12147 096c 01       		.uleb128 0x1
 12148 096d 51       		.byte	0x51
 12149 096e 9F       		.byte	0x9f
 12150 096f 04       		.byte	0x4
 12151 0970 8002     		.uleb128 .LVL146-.LVL117
 12152 0972 B402     		.uleb128 .LFE468-.LVL117
 12153 0974 04       		.uleb128 0x4
 12154 0975 A3       		.byte	0xa3
 12155 0976 01       		.uleb128 0x1
 12156 0977 51       		.byte	0x51
 12157 0978 9F       		.byte	0x9f
 12158 0979 00       		.byte	0
 12159              	.LVUS91:
 12160 097a 00       		.uleb128 .LVU631
 12161 097b 01       		.uleb128 .LVU774
 12162 097c 01       		.uleb128 .LVU774
 12163 097d 01       		.uleb128 .LVU798
 12164 097e 00       		.uleb128 .LVU801
 12165 097f 00       		.uleb128 .LVU823
 12166 0980 00       		.uleb128 .LVU823
 12167 0981 00       		.uleb128 .LVU824
 12168 0982 00       		.uleb128 .LVU824
 12169 0983 00       		.uleb128 0
 12170              	.LLST91:
 12171 0984 06       		.byte	0x6
 12172 0985 40000000 		.4byte	.LVL117
 12173 0989 04       		.byte	0x4
 12174 098a 00       		.uleb128 .LVL117-.LVL117
 12175 098b D801     		.uleb128 .LVL142-.LVL117
 12176 098d 01       		.uleb128 0x1
 12177 098e 57       		.byte	0x57
 12178 098f 04       		.byte	0x4
 12179 0990 D801     		.uleb128 .LVL142-.LVL117
 12180 0992 FA01     		.uleb128 .LVL144-.LVL117
 12181 0994 01       		.uleb128 0x1
 12182 0995 50       		.byte	0x50
 12183 0996 04       		.byte	0x4
 12184 0997 8002     		.uleb128 .LVL146-.LVL117
 12185 0999 A002     		.uleb128 .LVL150-.LVL117
 12186 099b 01       		.uleb128 0x1
 12187 099c 57       		.byte	0x57
 12188 099d 04       		.byte	0x4
 12189 099e A002     		.uleb128 .LVL150-.LVL117
 12190 09a0 A202     		.uleb128 .LVL151-.LVL117
ARM GAS  C:\Users\DEVELO~1\AppData\Local\Temp\ccuGzkMt.s 			page 215


 12191 09a2 01       		.uleb128 0x1
 12192 09a3 50       		.byte	0x50
 12193 09a4 04       		.byte	0x4
 12194 09a5 A202     		.uleb128 .LVL151-.LVL117
 12195 09a7 B402     		.uleb128 .LFE468-.LVL117
 12196 09a9 01       		.uleb128 0x1
 12197 09aa 57       		.byte	0x57
 12198 09ab 00       		.byte	0
 12199              	.LVUS93:
 12200 09ac 01       		.uleb128 .LVU648
 12201 09ad 00       		.uleb128 .LVU681
 12202 09ae 00       		.uleb128 .LVU705
 12203 09af 00       		.uleb128 .LVU729
 12204 09b0 00       		.uleb128 .LVU753
 12205 09b1 03       		.uleb128 .LVU758
 12206 09b2 00       		.uleb128 .LVU801
 12207 09b3 03       		.uleb128 .LVU805
 12208              	.LLST93:
 12209 09b4 06       		.byte	0x6
 12210 09b5 5C000000 		.4byte	.LVL119
 12211 09b9 04       		.byte	0x4
 12212 09ba 00       		.uleb128 .LVL119-.LVL119
 12213 09bb 32       		.uleb128 .LVL125-.LVL119
 12214 09bc 01       		.uleb128 0x1
 12215 09bd 56       		.byte	0x56
 12216 09be 04       		.byte	0x4
 12217 09bf 5A       		.uleb128 .LVL130-.LVL119
 12218 09c0 7C       		.uleb128 .LVL134-.LVL119
 12219 09c1 01       		.uleb128 0x1
 12220 09c2 56       		.byte	0x56
 12221 09c3 04       		.byte	0x4
 12222 09c4 A601     		.uleb128 .LVL139-.LVL119
 12223 09c6 AC01     		.uleb128 .LVL140-.LVL119
 12224 09c8 01       		.uleb128 0x1
 12225 09c9 56       		.byte	0x56
 12226 09ca 04       		.byte	0x4
 12227 09cb E401     		.uleb128 .LVL146-.LVL119
 12228 09cd EA01     		.uleb128 .LVL147-.LVL119
 12229 09cf 01       		.uleb128 0x1
 12230 09d0 56       		.byte	0x56
 12231 09d1 00       		.byte	0
 12232              	.LVUS94:
 12233 09d2 01       		.uleb128 .LVU648
 12234 09d3 00       		.uleb128 .LVU681
 12235 09d4 00       		.uleb128 .LVU705
 12236 09d5 00       		.uleb128 .LVU729
 12237 09d6 00       		.uleb128 .LVU753
 12238 09d7 03       		.uleb128 .LVU758
 12239 09d8 00       		.uleb128 .LVU801
 12240 09d9 03       		.uleb128 .LVU805
 12241              	.LLST94:
 12242 09da 06       		.byte	0x6
 12243 09db 5C000000 		.4byte	.LVL119
 12244 09df 04       		.byte	0x4
 12245 09e0 00       		.uleb128 .LVL119-.LVL119
 12246 09e1 32       		.uleb128 .LVL125-.LVL119
 12247 09e2 01       		.uleb128 0x1
ARM GAS  C:\Users\DEVELO~1\AppData\Local\Temp\ccuGzkMt.s 			page 216


 12248 09e3 58       		.byte	0x58
 12249 09e4 04       		.byte	0x4
 12250 09e5 5A       		.uleb128 .LVL130-.LVL119
 12251 09e6 7C       		.uleb128 .LVL134-.LVL119
 12252 09e7 01       		.uleb128 0x1
 12253 09e8 58       		.byte	0x58
 12254 09e9 04       		.byte	0x4
 12255 09ea A601     		.uleb128 .LVL139-.LVL119
 12256 09ec AC01     		.uleb128 .LVL140-.LVL119
 12257 09ee 01       		.uleb128 0x1
 12258 09ef 58       		.byte	0x58
 12259 09f0 04       		.byte	0x4
 12260 09f1 E401     		.uleb128 .LVL146-.LVL119
 12261 09f3 EA01     		.uleb128 .LVL147-.LVL119
 12262 09f5 01       		.uleb128 0x1
 12263 09f6 58       		.byte	0x58
 12264 09f7 00       		.byte	0
 12265              	.LVUS95:
 12266 09f8 01       		.uleb128 .LVU648
 12267 09f9 00       		.uleb128 .LVU676
 12268 09fa 00       		.uleb128 .LVU705
 12269 09fb 00       		.uleb128 .LVU724
 12270 09fc 00       		.uleb128 .LVU753
 12271 09fd 01       		.uleb128 .LVU756
 12272 09fe 00       		.uleb128 .LVU801
 12273 09ff 01       		.uleb128 .LVU803
 12274              	.LLST95:
 12275 0a00 06       		.byte	0x6
 12276 0a01 5C000000 		.4byte	.LVL119
 12277 0a05 04       		.byte	0x4
 12278 0a06 00       		.uleb128 .LVL119-.LVL119
 12279 0a07 2A       		.uleb128 .LVL123-.LVL119
 12280 0a08 01       		.uleb128 0x1
 12281 0a09 55       		.byte	0x55
 12282 0a0a 04       		.byte	0x4
 12283 0a0b 5A       		.uleb128 .LVL130-.LVL119
 12284 0a0c 74       		.uleb128 .LVL132-.LVL119
 12285 0a0d 01       		.uleb128 0x1
 12286 0a0e 55       		.byte	0x55
 12287 0a0f 04       		.byte	0x4
 12288 0a10 A601     		.uleb128 .LVL139-.LVL119
 12289 0a12 AC01     		.uleb128 .LVL140-.LVL119
 12290 0a14 01       		.uleb128 0x1
 12291 0a15 55       		.byte	0x55
 12292 0a16 04       		.byte	0x4
 12293 0a17 E401     		.uleb128 .LVL146-.LVL119
 12294 0a19 EA01     		.uleb128 .LVL147-.LVL119
 12295 0a1b 01       		.uleb128 0x1
 12296 0a1c 55       		.byte	0x55
 12297 0a1d 00       		.byte	0
 12298              	.LVUS96:
 12299 0a1e 01       		.uleb128 .LVU648
 12300 0a1f 00       		.uleb128 .LVU681
 12301 0a20 00       		.uleb128 .LVU705
 12302 0a21 00       		.uleb128 .LVU729
 12303 0a22 00       		.uleb128 .LVU753
 12304 0a23 03       		.uleb128 .LVU758
ARM GAS  C:\Users\DEVELO~1\AppData\Local\Temp\ccuGzkMt.s 			page 217


 12305 0a24 00       		.uleb128 .LVU801
 12306 0a25 03       		.uleb128 .LVU805
 12307              	.LLST96:
 12308 0a26 06       		.byte	0x6
 12309 0a27 5C000000 		.4byte	.LVL119
 12310 0a2b 04       		.byte	0x4
 12311 0a2c 00       		.uleb128 .LVL119-.LVL119
 12312 0a2d 32       		.uleb128 .LVL125-.LVL119
 12313 0a2e 01       		.uleb128 0x1
 12314 0a2f 57       		.byte	0x57
 12315 0a30 04       		.byte	0x4
 12316 0a31 5A       		.uleb128 .LVL130-.LVL119
 12317 0a32 7C       		.uleb128 .LVL134-.LVL119
 12318 0a33 01       		.uleb128 0x1
 12319 0a34 57       		.byte	0x57
 12320 0a35 04       		.byte	0x4
 12321 0a36 A601     		.uleb128 .LVL139-.LVL119
 12322 0a38 AC01     		.uleb128 .LVL140-.LVL119
 12323 0a3a 01       		.uleb128 0x1
 12324 0a3b 57       		.byte	0x57
 12325 0a3c 04       		.byte	0x4
 12326 0a3d E401     		.uleb128 .LVL146-.LVL119
 12327 0a3f EA01     		.uleb128 .LVL147-.LVL119
 12328 0a41 01       		.uleb128 0x1
 12329 0a42 57       		.byte	0x57
 12330 0a43 00       		.byte	0
 12331              	.LVUS98:
 12332 0a44 01       		.uleb128 .LVU659
 12333 0a45 01       		.uleb128 .LVU678
 12334 0a46 00       		.uleb128 .LVU753
 12335 0a47 01       		.uleb128 .LVU756
 12336              	.LLST98:
 12337 0a48 06       		.byte	0x6
 12338 0a49 6C000000 		.4byte	.LVL121
 12339 0a4d 04       		.byte	0x4
 12340 0a4e 00       		.uleb128 .LVL121-.LVL121
 12341 0a4f 1C       		.uleb128 .LVL124-.LVL121
 12342 0a50 01       		.uleb128 0x1
 12343 0a51 56       		.byte	0x56
 12344 0a52 04       		.byte	0x4
 12345 0a53 9601     		.uleb128 .LVL139-.LVL121
 12346 0a55 9C01     		.uleb128 .LVL140-.LVL121
 12347 0a57 01       		.uleb128 0x1
 12348 0a58 56       		.byte	0x56
 12349 0a59 00       		.byte	0
 12350              	.LVUS99:
 12351 0a5a 01       		.uleb128 .LVU659
 12352 0a5b 01       		.uleb128 .LVU678
 12353 0a5c 00       		.uleb128 .LVU753
 12354 0a5d 01       		.uleb128 .LVU756
 12355              	.LLST99:
 12356 0a5e 06       		.byte	0x6
 12357 0a5f 6C000000 		.4byte	.LVL121
 12358 0a63 04       		.byte	0x4
 12359 0a64 00       		.uleb128 .LVL121-.LVL121
 12360 0a65 1C       		.uleb128 .LVL124-.LVL121
 12361 0a66 02       		.uleb128 0x2
ARM GAS  C:\Users\DEVELO~1\AppData\Local\Temp\ccuGzkMt.s 			page 218


 12362 0a67 42       		.byte	0x42
 12363 0a68 9F       		.byte	0x9f
 12364 0a69 04       		.byte	0x4
 12365 0a6a 9601     		.uleb128 .LVL139-.LVL121
 12366 0a6c 9C01     		.uleb128 .LVL140-.LVL121
 12367 0a6e 02       		.uleb128 0x2
 12368 0a6f 42       		.byte	0x42
 12369 0a70 9F       		.byte	0x9f
 12370 0a71 00       		.byte	0
 12371              	.LVUS100:
 12372 0a72 01       		.uleb128 .LVU659
 12373 0a73 01       		.uleb128 .LVU678
 12374 0a74 00       		.uleb128 .LVU753
 12375 0a75 01       		.uleb128 .LVU756
 12376              	.LLST100:
 12377 0a76 06       		.byte	0x6
 12378 0a77 6C000000 		.4byte	.LVL121
 12379 0a7b 04       		.byte	0x4
 12380 0a7c 00       		.uleb128 .LVL121-.LVL121
 12381 0a7d 1C       		.uleb128 .LVL124-.LVL121
 12382 0a7e 01       		.uleb128 0x1
 12383 0a7f 57       		.byte	0x57
 12384 0a80 04       		.byte	0x4
 12385 0a81 9601     		.uleb128 .LVL139-.LVL121
 12386 0a83 9C01     		.uleb128 .LVL140-.LVL121
 12387 0a85 01       		.uleb128 0x1
 12388 0a86 57       		.byte	0x57
 12389 0a87 00       		.byte	0
 12390              	.LVUS101:
 12391 0a88 00       		.uleb128 .LVU667
 12392 0a89 01       		.uleb128 .LVU678
 12393 0a8a 00       		.uleb128 .LVU753
 12394 0a8b 01       		.uleb128 .LVU756
 12395              	.LLST101:
 12396 0a8c 06       		.byte	0x6
 12397 0a8d 74000000 		.4byte	.LVL122
 12398 0a91 04       		.byte	0x4
 12399 0a92 00       		.uleb128 .LVL122-.LVL122
 12400 0a93 14       		.uleb128 .LVL124-.LVL122
 12401 0a94 01       		.uleb128 0x1
 12402 0a95 51       		.byte	0x51
 12403 0a96 04       		.byte	0x4
 12404 0a97 8E01     		.uleb128 .LVL139-.LVL122
 12405 0a99 9401     		.uleb128 .LVL140-.LVL122
 12406 0a9b 01       		.uleb128 0x1
 12407 0a9c 51       		.byte	0x51
 12408 0a9d 00       		.byte	0
 12409              	.LVUS103:
 12410 0a9e 02       		.uleb128 .LVU707
 12411 0a9f 01       		.uleb128 .LVU726
 12412 0aa0 00       		.uleb128 .LVU801
 12413 0aa1 01       		.uleb128 .LVU803
 12414              	.LLST103:
 12415 0aa2 06       		.byte	0x6
 12416 0aa3 B6000000 		.4byte	.LVL130
 12417 0aa7 04       		.byte	0x4
 12418 0aa8 00       		.uleb128 .LVL130-.LVL130
ARM GAS  C:\Users\DEVELO~1\AppData\Local\Temp\ccuGzkMt.s 			page 219


 12419 0aa9 1C       		.uleb128 .LVL133-.LVL130
 12420 0aaa 01       		.uleb128 0x1
 12421 0aab 56       		.byte	0x56
 12422 0aac 04       		.byte	0x4
 12423 0aad 8A01     		.uleb128 .LVL146-.LVL130
 12424 0aaf 9001     		.uleb128 .LVL147-.LVL130
 12425 0ab1 01       		.uleb128 0x1
 12426 0ab2 56       		.byte	0x56
 12427 0ab3 00       		.byte	0
 12428              	.LVUS104:
 12429 0ab4 02       		.uleb128 .LVU707
 12430 0ab5 01       		.uleb128 .LVU726
 12431 0ab6 00       		.uleb128 .LVU801
 12432 0ab7 01       		.uleb128 .LVU803
 12433              	.LLST104:
 12434 0ab8 06       		.byte	0x6
 12435 0ab9 B6000000 		.4byte	.LVL130
 12436 0abd 04       		.byte	0x4
 12437 0abe 00       		.uleb128 .LVL130-.LVL130
 12438 0abf 1C       		.uleb128 .LVL133-.LVL130
 12439 0ac0 02       		.uleb128 0x2
 12440 0ac1 41       		.byte	0x41
 12441 0ac2 9F       		.byte	0x9f
 12442 0ac3 04       		.byte	0x4
 12443 0ac4 8A01     		.uleb128 .LVL146-.LVL130
 12444 0ac6 9001     		.uleb128 .LVL147-.LVL130
 12445 0ac8 02       		.uleb128 0x2
 12446 0ac9 41       		.byte	0x41
 12447 0aca 9F       		.byte	0x9f
 12448 0acb 00       		.byte	0
 12449              	.LVUS105:
 12450 0acc 02       		.uleb128 .LVU707
 12451 0acd 01       		.uleb128 .LVU726
 12452 0ace 00       		.uleb128 .LVU801
 12453 0acf 01       		.uleb128 .LVU803
 12454              	.LLST105:
 12455 0ad0 06       		.byte	0x6
 12456 0ad1 B6000000 		.4byte	.LVL130
 12457 0ad5 04       		.byte	0x4
 12458 0ad6 00       		.uleb128 .LVL130-.LVL130
 12459 0ad7 1C       		.uleb128 .LVL133-.LVL130
 12460 0ad8 01       		.uleb128 0x1
 12461 0ad9 57       		.byte	0x57
 12462 0ada 04       		.byte	0x4
 12463 0adb 8A01     		.uleb128 .LVL146-.LVL130
 12464 0add 9001     		.uleb128 .LVL147-.LVL130
 12465 0adf 01       		.uleb128 0x1
 12466 0ae0 57       		.byte	0x57
 12467 0ae1 00       		.byte	0
 12468              	.LVUS106:
 12469 0ae2 00       		.uleb128 .LVU715
 12470 0ae3 01       		.uleb128 .LVU726
 12471 0ae4 00       		.uleb128 .LVU801
 12472 0ae5 01       		.uleb128 .LVU803
 12473              	.LLST106:
 12474 0ae6 06       		.byte	0x6
 12475 0ae7 BE000000 		.4byte	.LVL131
ARM GAS  C:\Users\DEVELO~1\AppData\Local\Temp\ccuGzkMt.s 			page 220


 12476 0aeb 04       		.byte	0x4
 12477 0aec 00       		.uleb128 .LVL131-.LVL131
 12478 0aed 14       		.uleb128 .LVL133-.LVL131
 12479 0aee 01       		.uleb128 0x1
 12480 0aef 51       		.byte	0x51
 12481 0af0 04       		.byte	0x4
 12482 0af1 8201     		.uleb128 .LVL146-.LVL131
 12483 0af3 8801     		.uleb128 .LVL147-.LVL131
 12484 0af5 01       		.uleb128 0x1
 12485 0af6 51       		.byte	0x51
 12486 0af7 00       		.byte	0
 12487              	.LVUS108:
 12488 0af8 00       		.uleb128 .LVU693
 12489 0af9 00       		.uleb128 .LVU705
 12490 0afa 01       		.uleb128 .LVU738
 12491 0afb 00       		.uleb128 .LVU752
 12492 0afc 05       		.uleb128 .LVU760
 12493 0afd 01       		.uleb128 .LVU798
 12494 0afe 05       		.uleb128 .LVU807
 12495 0aff 00       		.uleb128 .LVU821
 12496 0b00 00       		.uleb128 .LVU823
 12497 0b01 00       		.uleb128 0
 12498              	.LLST108:
 12499 0b02 06       		.byte	0x6
 12500 0b03 A8000000 		.4byte	.LVL127
 12501 0b07 04       		.byte	0x4
 12502 0b08 00       		.uleb128 .LVL127-.LVL127
 12503 0b09 0E       		.uleb128 .LVL130-.LVL127
 12504 0b0a 01       		.uleb128 0x1
 12505 0b0b 56       		.byte	0x56
 12506 0b0c 04       		.byte	0x4
 12507 0b0d 46       		.uleb128 .LVL136-.LVL127
 12508 0b0e 57       		.uleb128 .LVL138-1-.LVL127
 12509 0b0f 03       		.uleb128 0x3
 12510 0b10 77       		.byte	0x77
 12511 0b11 CC00     		.sleb128 76
 12512 0b13 04       		.byte	0x4
 12513 0b14 60       		.uleb128 .LVL140-.LVL127
 12514 0b15 9201     		.uleb128 .LVL144-.LVL127
 12515 0b17 01       		.uleb128 0x1
 12516 0b18 56       		.byte	0x56
 12517 0b19 04       		.byte	0x4
 12518 0b1a 9E01     		.uleb128 .LVL147-.LVL127
 12519 0b1c B101     		.uleb128 .LVL149-1-.LVL127
 12520 0b1e 03       		.uleb128 0x3
 12521 0b1f 77       		.byte	0x77
 12522 0b20 CC00     		.sleb128 76
 12523 0b22 04       		.byte	0x4
 12524 0b23 B801     		.uleb128 .LVL150-.LVL127
 12525 0b25 CC01     		.uleb128 .LFE468-.LVL127
 12526 0b27 01       		.uleb128 0x1
 12527 0b28 56       		.byte	0x56
 12528 0b29 00       		.byte	0
 12529              	.LVUS109:
 12530 0b2a 00       		.uleb128 .LVU693
 12531 0b2b 00       		.uleb128 .LVU705
 12532 0b2c 01       		.uleb128 .LVU738
ARM GAS  C:\Users\DEVELO~1\AppData\Local\Temp\ccuGzkMt.s 			page 221


 12533 0b2d 00       		.uleb128 .LVU753
 12534 0b2e 05       		.uleb128 .LVU760
 12535 0b2f 01       		.uleb128 .LVU798
 12536 0b30 05       		.uleb128 .LVU807
 12537 0b31 00       		.uleb128 0
 12538              	.LLST109:
 12539 0b32 06       		.byte	0x6
 12540 0b33 A8000000 		.4byte	.LVL127
 12541 0b37 04       		.byte	0x4
 12542 0b38 00       		.uleb128 .LVL127-.LVL127
 12543 0b39 0E       		.uleb128 .LVL130-.LVL127
 12544 0b3a 01       		.uleb128 0x1
 12545 0b3b 58       		.byte	0x58
 12546 0b3c 04       		.byte	0x4
 12547 0b3d 46       		.uleb128 .LVL136-.LVL127
 12548 0b3e 5A       		.uleb128 .LVL139-.LVL127
 12549 0b3f 01       		.uleb128 0x1
 12550 0b40 58       		.byte	0x58
 12551 0b41 04       		.byte	0x4
 12552 0b42 60       		.uleb128 .LVL140-.LVL127
 12553 0b43 9201     		.uleb128 .LVL144-.LVL127
 12554 0b45 01       		.uleb128 0x1
 12555 0b46 58       		.byte	0x58
 12556 0b47 04       		.byte	0x4
 12557 0b48 9E01     		.uleb128 .LVL147-.LVL127
 12558 0b4a CC01     		.uleb128 .LFE468-.LVL127
 12559 0b4c 01       		.uleb128 0x1
 12560 0b4d 58       		.byte	0x58
 12561 0b4e 00       		.byte	0
 12562              	.LVUS110:
 12563 0b4f 00       		.uleb128 .LVU693
 12564 0b50 00       		.uleb128 .LVU705
 12565 0b51 01       		.uleb128 .LVU738
 12566 0b52 00       		.uleb128 .LVU753
 12567 0b53 05       		.uleb128 .LVU760
 12568 0b54 01       		.uleb128 .LVU774
 12569 0b55 01       		.uleb128 .LVU774
 12570 0b56 01       		.uleb128 .LVU798
 12571 0b57 05       		.uleb128 .LVU807
 12572 0b58 00       		.uleb128 .LVU823
 12573 0b59 00       		.uleb128 .LVU823
 12574 0b5a 00       		.uleb128 .LVU824
 12575 0b5b 00       		.uleb128 .LVU824
 12576 0b5c 00       		.uleb128 0
 12577              	.LLST110:
 12578 0b5d 06       		.byte	0x6
 12579 0b5e A8000000 		.4byte	.LVL127
 12580 0b62 04       		.byte	0x4
 12581 0b63 00       		.uleb128 .LVL127-.LVL127
 12582 0b64 0E       		.uleb128 .LVL130-.LVL127
 12583 0b65 01       		.uleb128 0x1
 12584 0b66 57       		.byte	0x57
 12585 0b67 04       		.byte	0x4
 12586 0b68 46       		.uleb128 .LVL136-.LVL127
 12587 0b69 5A       		.uleb128 .LVL139-.LVL127
 12588 0b6a 01       		.uleb128 0x1
 12589 0b6b 57       		.byte	0x57
ARM GAS  C:\Users\DEVELO~1\AppData\Local\Temp\ccuGzkMt.s 			page 222


 12590 0b6c 04       		.byte	0x4
 12591 0b6d 60       		.uleb128 .LVL140-.LVL127
 12592 0b6e 70       		.uleb128 .LVL142-.LVL127
 12593 0b6f 01       		.uleb128 0x1
 12594 0b70 57       		.byte	0x57
 12595 0b71 04       		.byte	0x4
 12596 0b72 70       		.uleb128 .LVL142-.LVL127
 12597 0b73 9201     		.uleb128 .LVL144-.LVL127
 12598 0b75 01       		.uleb128 0x1
 12599 0b76 50       		.byte	0x50
 12600 0b77 04       		.byte	0x4
 12601 0b78 9E01     		.uleb128 .LVL147-.LVL127
 12602 0b7a B801     		.uleb128 .LVL150-.LVL127
 12603 0b7c 01       		.uleb128 0x1
 12604 0b7d 57       		.byte	0x57
 12605 0b7e 04       		.byte	0x4
 12606 0b7f B801     		.uleb128 .LVL150-.LVL127
 12607 0b81 BA01     		.uleb128 .LVL151-.LVL127
 12608 0b83 01       		.uleb128 0x1
 12609 0b84 50       		.byte	0x50
 12610 0b85 04       		.byte	0x4
 12611 0b86 BA01     		.uleb128 .LVL151-.LVL127
 12612 0b88 CC01     		.uleb128 .LFE468-.LVL127
 12613 0b8a 01       		.uleb128 0x1
 12614 0b8b 57       		.byte	0x57
 12615 0b8c 00       		.byte	0
 12616              	.LVUS111:
 12617 0b8d 00       		.uleb128 .LVU697
 12618 0b8e 00       		.uleb128 .LVU705
 12619 0b8f 00       		.uleb128 .LVU745
 12620 0b90 00       		.uleb128 .LVU753
 12621 0b91 00       		.uleb128 .LVU764
 12622 0b92 01       		.uleb128 .LVU774
 12623 0b93 00       		.uleb128 .LVU811
 12624 0b94 00       		.uleb128 .LVU823
 12625              	.LLST111:
 12626 0b95 06       		.byte	0x6
 12627 0b96 AA000000 		.4byte	.LVL128
 12628 0b9a 04       		.byte	0x4
 12629 0b9b 00       		.uleb128 .LVL128-.LVL128
 12630 0b9c 0C       		.uleb128 .LVL130-.LVL128
 12631 0b9d 01       		.uleb128 0x1
 12632 0b9e 51       		.byte	0x51
 12633 0b9f 04       		.byte	0x4
 12634 0ba0 4C       		.uleb128 .LVL137-.LVL128
 12635 0ba1 58       		.uleb128 .LVL139-.LVL128
 12636 0ba2 01       		.uleb128 0x1
 12637 0ba3 51       		.byte	0x51
 12638 0ba4 04       		.byte	0x4
 12639 0ba5 60       		.uleb128 .LVL141-.LVL128
 12640 0ba6 6E       		.uleb128 .LVL142-.LVL128
 12641 0ba7 01       		.uleb128 0x1
 12642 0ba8 51       		.byte	0x51
 12643 0ba9 04       		.byte	0x4
 12644 0baa 9E01     		.uleb128 .LVL148-.LVL128
 12645 0bac B601     		.uleb128 .LVL150-.LVL128
 12646 0bae 01       		.uleb128 0x1
ARM GAS  C:\Users\DEVELO~1\AppData\Local\Temp\ccuGzkMt.s 			page 223


 12647 0baf 51       		.byte	0x51
 12648 0bb0 00       		.byte	0
 12649              	.LVUS113:
 12650 0bb1 02       		.uleb128 .LVU775
 12651 0bb2 01       		.uleb128 .LVU798
 12652 0bb3 00       		.uleb128 .LVU823
 12653 0bb4 00       		.uleb128 0
 12654              	.LLST113:
 12655 0bb5 06       		.byte	0x6
 12656 0bb6 18010000 		.4byte	.LVL142
 12657 0bba 04       		.byte	0x4
 12658 0bbb 00       		.uleb128 .LVL142-.LVL142
 12659 0bbc 22       		.uleb128 .LVL144-.LVL142
 12660 0bbd 01       		.uleb128 0x1
 12661 0bbe 58       		.byte	0x58
 12662 0bbf 04       		.byte	0x4
 12663 0bc0 48       		.uleb128 .LVL150-.LVL142
 12664 0bc1 5C       		.uleb128 .LFE468-.LVL142
 12665 0bc2 01       		.uleb128 0x1
 12666 0bc3 58       		.byte	0x58
 12667 0bc4 00       		.byte	0
 12668              	.LVUS114:
 12669 0bc5 01       		.uleb128 .LVU774
 12670 0bc6 01       		.uleb128 .LVU798
 12671 0bc7 00       		.uleb128 .LVU823
 12672 0bc8 00       		.uleb128 0
 12673              	.LLST114:
 12674 0bc9 06       		.byte	0x6
 12675 0bca 18010000 		.4byte	.LVL142
 12676 0bce 04       		.byte	0x4
 12677 0bcf 00       		.uleb128 .LVL142-.LVL142
 12678 0bd0 22       		.uleb128 .LVL144-.LVL142
 12679 0bd1 01       		.uleb128 0x1
 12680 0bd2 56       		.byte	0x56
 12681 0bd3 04       		.byte	0x4
 12682 0bd4 48       		.uleb128 .LVL150-.LVL142
 12683 0bd5 5C       		.uleb128 .LFE468-.LVL142
 12684 0bd6 01       		.uleb128 0x1
 12685 0bd7 56       		.byte	0x56
 12686 0bd8 00       		.byte	0
 12687              	.LVUS115:
 12688 0bd9 01       		.uleb128 .LVU774
 12689 0bda 01       		.uleb128 .LVU798
 12690 0bdb 00       		.uleb128 .LVU823
 12691 0bdc 00       		.uleb128 .LVU824
 12692 0bdd 00       		.uleb128 .LVU824
 12693 0bde 00       		.uleb128 0
 12694              	.LLST115:
 12695 0bdf 06       		.byte	0x6
 12696 0be0 18010000 		.4byte	.LVL142
 12697 0be4 04       		.byte	0x4
 12698 0be5 00       		.uleb128 .LVL142-.LVL142
 12699 0be6 22       		.uleb128 .LVL144-.LVL142
 12700 0be7 01       		.uleb128 0x1
 12701 0be8 50       		.byte	0x50
 12702 0be9 04       		.byte	0x4
 12703 0bea 48       		.uleb128 .LVL150-.LVL142
ARM GAS  C:\Users\DEVELO~1\AppData\Local\Temp\ccuGzkMt.s 			page 224


 12704 0beb 4A       		.uleb128 .LVL151-.LVL142
 12705 0bec 01       		.uleb128 0x1
 12706 0bed 50       		.byte	0x50
 12707 0bee 04       		.byte	0x4
 12708 0bef 4A       		.uleb128 .LVL151-.LVL142
 12709 0bf0 5C       		.uleb128 .LFE468-.LVL142
 12710 0bf1 01       		.uleb128 0x1
 12711 0bf2 57       		.byte	0x57
 12712 0bf3 00       		.byte	0
 12713              	.LVUS116:
 12714 0bf4 03       		.uleb128 .LVU776
 12715 0bf5 01       		.uleb128 .LVU798
 12716 0bf6 00       		.uleb128 .LVU823
 12717 0bf7 00       		.uleb128 0
 12718              	.LLST116:
 12719 0bf8 06       		.byte	0x6
 12720 0bf9 18010000 		.4byte	.LVL142
 12721 0bfd 04       		.byte	0x4
 12722 0bfe 00       		.uleb128 .LVL142-.LVL142
 12723 0bff 22       		.uleb128 .LVL144-.LVL142
 12724 0c00 01       		.uleb128 0x1
 12725 0c01 56       		.byte	0x56
 12726 0c02 04       		.byte	0x4
 12727 0c03 48       		.uleb128 .LVL150-.LVL142
 12728 0c04 5C       		.uleb128 .LFE468-.LVL142
 12729 0c05 01       		.uleb128 0x1
 12730 0c06 56       		.byte	0x56
 12731 0c07 00       		.byte	0
 12732              	.LVUS117:
 12733 0c08 03       		.uleb128 .LVU776
 12734 0c09 01       		.uleb128 .LVU798
 12735 0c0a 00       		.uleb128 .LVU823
 12736 0c0b 00       		.uleb128 0
 12737              	.LLST117:
 12738 0c0c 06       		.byte	0x6
 12739 0c0d 18010000 		.4byte	.LVL142
 12740 0c11 04       		.byte	0x4
 12741 0c12 00       		.uleb128 .LVL142-.LVL142
 12742 0c13 22       		.uleb128 .LVL144-.LVL142
 12743 0c14 02       		.uleb128 0x2
 12744 0c15 30       		.byte	0x30
 12745 0c16 9F       		.byte	0x9f
 12746 0c17 04       		.byte	0x4
 12747 0c18 48       		.uleb128 .LVL150-.LVL142
 12748 0c19 5C       		.uleb128 .LFE468-.LVL142
 12749 0c1a 02       		.uleb128 0x2
 12750 0c1b 30       		.byte	0x30
 12751 0c1c 9F       		.byte	0x9f
 12752 0c1d 00       		.byte	0
 12753              	.LVUS118:
 12754 0c1e 03       		.uleb128 .LVU776
 12755 0c1f 01       		.uleb128 .LVU798
 12756 0c20 00       		.uleb128 .LVU823
 12757 0c21 00       		.uleb128 0
 12758              	.LLST118:
 12759 0c22 06       		.byte	0x6
 12760 0c23 18010000 		.4byte	.LVL142
ARM GAS  C:\Users\DEVELO~1\AppData\Local\Temp\ccuGzkMt.s 			page 225


 12761 0c27 04       		.byte	0x4
 12762 0c28 00       		.uleb128 .LVL142-.LVL142
 12763 0c29 22       		.uleb128 .LVL144-.LVL142
 12764 0c2a 02       		.uleb128 0x2
 12765 0c2b 3C       		.byte	0x3c
 12766 0c2c 9F       		.byte	0x9f
 12767 0c2d 04       		.byte	0x4
 12768 0c2e 48       		.uleb128 .LVL150-.LVL142
 12769 0c2f 5C       		.uleb128 .LFE468-.LVL142
 12770 0c30 02       		.uleb128 0x2
 12771 0c31 3C       		.byte	0x3c
 12772 0c32 9F       		.byte	0x9f
 12773 0c33 00       		.byte	0
 12774              	.LVUS119:
 12775 0c34 03       		.uleb128 .LVU776
 12776 0c35 01       		.uleb128 .LVU798
 12777 0c36 00       		.uleb128 .LVU823
 12778 0c37 00       		.uleb128 .LVU824
 12779 0c38 00       		.uleb128 .LVU824
 12780 0c39 00       		.uleb128 0
 12781              	.LLST119:
 12782 0c3a 06       		.byte	0x6
 12783 0c3b 18010000 		.4byte	.LVL142
 12784 0c3f 04       		.byte	0x4
 12785 0c40 00       		.uleb128 .LVL142-.LVL142
 12786 0c41 22       		.uleb128 .LVL144-.LVL142
 12787 0c42 01       		.uleb128 0x1
 12788 0c43 50       		.byte	0x50
 12789 0c44 04       		.byte	0x4
 12790 0c45 48       		.uleb128 .LVL150-.LVL142
 12791 0c46 4A       		.uleb128 .LVL151-.LVL142
 12792 0c47 01       		.uleb128 0x1
 12793 0c48 50       		.byte	0x50
 12794 0c49 04       		.byte	0x4
 12795 0c4a 4A       		.uleb128 .LVL151-.LVL142
 12796 0c4b 5C       		.uleb128 .LFE468-.LVL142
 12797 0c4c 01       		.uleb128 0x1
 12798 0c4d 57       		.byte	0x57
 12799 0c4e 00       		.byte	0
 12800              	.LVUS120:
 12801 0c4f 00       		.uleb128 .LVU787
 12802 0c50 01       		.uleb128 .LVU798
 12803 0c51 00       		.uleb128 .LVU823
 12804 0c52 00       		.uleb128 0
 12805              	.LLST120:
 12806 0c53 06       		.byte	0x6
 12807 0c54 24010000 		.4byte	.LVL143
 12808 0c58 04       		.byte	0x4
 12809 0c59 00       		.uleb128 .LVL143-.LVL143
 12810 0c5a 16       		.uleb128 .LVL144-.LVL143
 12811 0c5b 01       		.uleb128 0x1
 12812 0c5c 51       		.byte	0x51
 12813 0c5d 04       		.byte	0x4
 12814 0c5e 3C       		.uleb128 .LVL150-.LVL143
 12815 0c5f 50       		.uleb128 .LFE468-.LVL143
 12816 0c60 01       		.uleb128 0x1
 12817 0c61 51       		.byte	0x51
ARM GAS  C:\Users\DEVELO~1\AppData\Local\Temp\ccuGzkMt.s 			page 226


 12818 0c62 00       		.byte	0
 12819              	.LVUS121:
 12820 0c63 00       		.uleb128 0
 12821 0c64 00       		.uleb128 .LVU855
 12822 0c65 00       		.uleb128 .LVU855
 12823 0c66 01       		.uleb128 .LVU1000
 12824 0c67 01       		.uleb128 .LVU1000
 12825 0c68 00       		.uleb128 .LVU1026
 12826 0c69 00       		.uleb128 .LVU1026
 12827 0c6a 00       		.uleb128 .LVU1049
 12828 0c6b 00       		.uleb128 .LVU1049
 12829 0c6c 00       		.uleb128 .LVU1050
 12830 0c6d 00       		.uleb128 .LVU1050
 12831 0c6e 00       		.uleb128 0
 12832              	.LLST121:
 12833 0c6f 06       		.byte	0x6
 12834 0c70 00000000 		.4byte	.LVL153
 12835 0c74 04       		.byte	0x4
 12836 0c75 00       		.uleb128 .LVL153-.LVL153
 12837 0c76 35       		.uleb128 .LVL158-1-.LVL153
 12838 0c77 01       		.uleb128 0x1
 12839 0c78 50       		.byte	0x50
 12840 0c79 04       		.byte	0x4
 12841 0c7a 35       		.uleb128 .LVL158-1-.LVL153
 12842 0c7b 9802     		.uleb128 .LVL185-.LVL153
 12843 0c7d 01       		.uleb128 0x1
 12844 0c7e 57       		.byte	0x57
 12845 0c7f 04       		.byte	0x4
 12846 0c80 9802     		.uleb128 .LVL185-.LVL153
 12847 0c82 BC02     		.uleb128 .LVL188-.LVL153
 12848 0c84 01       		.uleb128 0x1
 12849 0c85 50       		.byte	0x50
 12850 0c86 04       		.byte	0x4
 12851 0c87 BC02     		.uleb128 .LVL188-.LVL153
 12852 0c89 E002     		.uleb128 .LVL193-.LVL153
 12853 0c8b 01       		.uleb128 0x1
 12854 0c8c 57       		.byte	0x57
 12855 0c8d 04       		.byte	0x4
 12856 0c8e E002     		.uleb128 .LVL193-.LVL153
 12857 0c90 E202     		.uleb128 .LVL194-.LVL153
 12858 0c92 01       		.uleb128 0x1
 12859 0c93 50       		.byte	0x50
 12860 0c94 04       		.byte	0x4
 12861 0c95 E202     		.uleb128 .LVL194-.LVL153
 12862 0c97 F402     		.uleb128 .LFE469-.LVL153
 12863 0c99 01       		.uleb128 0x1
 12864 0c9a 57       		.byte	0x57
 12865 0c9b 00       		.byte	0
 12866              	.LVUS122:
 12867 0c9c 00       		.uleb128 0
 12868 0c9d 00       		.uleb128 .LVU840
 12869 0c9e 00       		.uleb128 .LVU840
 12870 0c9f 00       		.uleb128 .LVU856
 12871 0ca0 00       		.uleb128 .LVU856
 12872 0ca1 00       		.uleb128 .LVU857
 12873 0ca2 00       		.uleb128 .LVU857
 12874 0ca3 00       		.uleb128 .LVU880
ARM GAS  C:\Users\DEVELO~1\AppData\Local\Temp\ccuGzkMt.s 			page 227


 12875 0ca4 00       		.uleb128 .LVU880
 12876 0ca5 00       		.uleb128 0
 12877              	.LLST122:
 12878 0ca6 06       		.byte	0x6
 12879 0ca7 00000000 		.4byte	.LVL153
 12880 0cab 04       		.byte	0x4
 12881 0cac 00       		.uleb128 .LVL153-.LVL153
 12882 0cad 12       		.uleb128 .LVL154-.LVL153
 12883 0cae 01       		.uleb128 0x1
 12884 0caf 51       		.byte	0x51
 12885 0cb0 04       		.byte	0x4
 12886 0cb1 12       		.uleb128 .LVL154-.LVL153
 12887 0cb2 3A       		.uleb128 .LVL159-.LVL153
 12888 0cb3 01       		.uleb128 0x1
 12889 0cb4 55       		.byte	0x55
 12890 0cb5 04       		.byte	0x4
 12891 0cb6 3A       		.uleb128 .LVL159-.LVL153
 12892 0cb7 40       		.uleb128 .LVL160-.LVL153
 12893 0cb8 04       		.uleb128 0x4
 12894 0cb9 A3       		.byte	0xa3
 12895 0cba 01       		.uleb128 0x1
 12896 0cbb 51       		.byte	0x51
 12897 0cbc 9F       		.byte	0x9f
 12898 0cbd 04       		.byte	0x4
 12899 0cbe 40       		.uleb128 .LVL160-.LVL153
 12900 0cbf 64       		.uleb128 .LVL163-.LVL153
 12901 0cc0 01       		.uleb128 0x1
 12902 0cc1 55       		.byte	0x55
 12903 0cc2 04       		.byte	0x4
 12904 0cc3 64       		.uleb128 .LVL163-.LVL153
 12905 0cc4 F402     		.uleb128 .LFE469-.LVL153
 12906 0cc6 04       		.uleb128 0x4
 12907 0cc7 A3       		.byte	0xa3
 12908 0cc8 01       		.uleb128 0x1
 12909 0cc9 51       		.byte	0x51
 12910 0cca 9F       		.byte	0x9f
 12911 0ccb 00       		.byte	0
 12912              	.LVUS123:
 12913 0ccc 00       		.uleb128 0
 12914 0ccd 00       		.uleb128 .LVU843
 12915 0cce 00       		.uleb128 .LVU843
 12916 0ccf 00       		.uleb128 .LVU856
 12917 0cd0 00       		.uleb128 .LVU856
 12918 0cd1 00       		.uleb128 .LVU857
 12919 0cd2 00       		.uleb128 .LVU857
 12920 0cd3 00       		.uleb128 .LVU867
 12921 0cd4 00       		.uleb128 .LVU867
 12922 0cd5 00       		.uleb128 0
 12923              	.LLST123:
 12924 0cd6 06       		.byte	0x6
 12925 0cd7 00000000 		.4byte	.LVL153
 12926 0cdb 04       		.byte	0x4
 12927 0cdc 00       		.uleb128 .LVL153-.LVL153
 12928 0cdd 18       		.uleb128 .LVL155-.LVL153
 12929 0cde 01       		.uleb128 0x1
 12930 0cdf 52       		.byte	0x52
 12931 0ce0 04       		.byte	0x4
ARM GAS  C:\Users\DEVELO~1\AppData\Local\Temp\ccuGzkMt.s 			page 228


 12932 0ce1 18       		.uleb128 .LVL155-.LVL153
 12933 0ce2 3A       		.uleb128 .LVL159-.LVL153
 12934 0ce3 01       		.uleb128 0x1
 12935 0ce4 56       		.byte	0x56
 12936 0ce5 04       		.byte	0x4
 12937 0ce6 3A       		.uleb128 .LVL159-.LVL153
 12938 0ce7 40       		.uleb128 .LVL160-.LVL153
 12939 0ce8 04       		.uleb128 0x4
 12940 0ce9 A3       		.byte	0xa3
 12941 0cea 01       		.uleb128 0x1
 12942 0ceb 52       		.byte	0x52
 12943 0cec 9F       		.byte	0x9f
 12944 0ced 04       		.byte	0x4
 12945 0cee 40       		.uleb128 .LVL160-.LVL153
 12946 0cef 4E       		.uleb128 .LVL161-.LVL153
 12947 0cf0 01       		.uleb128 0x1
 12948 0cf1 56       		.byte	0x56
 12949 0cf2 04       		.byte	0x4
 12950 0cf3 4E       		.uleb128 .LVL161-.LVL153
 12951 0cf4 F402     		.uleb128 .LFE469-.LVL153
 12952 0cf6 04       		.uleb128 0x4
 12953 0cf7 A3       		.byte	0xa3
 12954 0cf8 01       		.uleb128 0x1
 12955 0cf9 52       		.byte	0x52
 12956 0cfa 9F       		.byte	0x9f
 12957 0cfb 00       		.byte	0
 12958              	.LVUS124:
 12959 0cfc 00       		.uleb128 0
 12960 0cfd 00       		.uleb128 .LVU844
 12961 0cfe 00       		.uleb128 .LVU844
 12962 0cff 00       		.uleb128 0
 12963              	.LLST124:
 12964 0d00 06       		.byte	0x6
 12965 0d01 00000000 		.4byte	.LVL153
 12966 0d05 04       		.byte	0x4
 12967 0d06 00       		.uleb128 .LVL153-.LVL153
 12968 0d07 1A       		.uleb128 .LVL156-.LVL153
 12969 0d08 01       		.uleb128 0x1
 12970 0d09 53       		.byte	0x53
 12971 0d0a 04       		.byte	0x4
 12972 0d0b 1A       		.uleb128 .LVL156-.LVL153
 12973 0d0c F402     		.uleb128 .LFE469-.LVL153
 12974 0d0e 01       		.uleb128 0x1
 12975 0d0f 58       		.byte	0x58
 12976 0d10 00       		.byte	0
 12977              	.LVUS126:
 12978 0d11 00       		.uleb128 .LVU844
 12979 0d12 00       		.uleb128 .LVU846
 12980              	.LLST126:
 12981 0d13 08       		.byte	0x8
 12982 0d14 1A000000 		.4byte	.LVL156
 12983 0d18 04       		.uleb128 .LVL157-.LVL156
 12984 0d19 09       		.uleb128 0x9
 12985 0d1a 73       		.byte	0x73
 12986 0d1b 00       		.sleb128 0
 12987 0d1c 0A       		.byte	0xa
 12988 0d1d FF03     		.2byte	0x3ff
ARM GAS  C:\Users\DEVELO~1\AppData\Local\Temp\ccuGzkMt.s 			page 229


 12989 0d1f 1A       		.byte	0x1a
 12990 0d20 23       		.byte	0x23
 12991 0d21 01       		.uleb128 0x1
 12992 0d22 9F       		.byte	0x9f
 12993 0d23 00       		.byte	0
 12994              	.LVUS128:
 12995 0d24 00       		.uleb128 .LVU857
 12996 0d25 01       		.uleb128 .LVU1024
 12997 0d26 00       		.uleb128 .LVU1027
 12998 0d27 00       		.uleb128 0
 12999              	.LLST128:
 13000 0d28 06       		.byte	0x6
 13001 0d29 40000000 		.4byte	.LVL160
 13002 0d2d 04       		.byte	0x4
 13003 0d2e 00       		.uleb128 .LVL160-.LVL160
 13004 0d2f FA01     		.uleb128 .LVL187-.LVL160
 13005 0d31 01       		.uleb128 0x1
 13006 0d32 58       		.byte	0x58
 13007 0d33 04       		.byte	0x4
 13008 0d34 8002     		.uleb128 .LVL189-.LVL160
 13009 0d36 B402     		.uleb128 .LFE469-.LVL160
 13010 0d38 01       		.uleb128 0x1
 13011 0d39 58       		.byte	0x58
 13012 0d3a 00       		.byte	0
 13013              	.LVUS129:
 13014 0d3b 00       		.uleb128 .LVU857
 13015 0d3c 00       		.uleb128 .LVU867
 13016 0d3d 00       		.uleb128 .LVU867
 13017 0d3e 01       		.uleb128 .LVU1024
 13018 0d3f 00       		.uleb128 .LVU1027
 13019 0d40 00       		.uleb128 0
 13020              	.LLST129:
 13021 0d41 06       		.byte	0x6
 13022 0d42 40000000 		.4byte	.LVL160
 13023 0d46 04       		.byte	0x4
 13024 0d47 00       		.uleb128 .LVL160-.LVL160
 13025 0d48 0E       		.uleb128 .LVL161-.LVL160
 13026 0d49 01       		.uleb128 0x1
 13027 0d4a 56       		.byte	0x56
 13028 0d4b 04       		.byte	0x4
 13029 0d4c 0E       		.uleb128 .LVL161-.LVL160
 13030 0d4d FA01     		.uleb128 .LVL187-.LVL160
 13031 0d4f 04       		.uleb128 0x4
 13032 0d50 A3       		.byte	0xa3
 13033 0d51 01       		.uleb128 0x1
 13034 0d52 52       		.byte	0x52
 13035 0d53 9F       		.byte	0x9f
 13036 0d54 04       		.byte	0x4
 13037 0d55 8002     		.uleb128 .LVL189-.LVL160
 13038 0d57 B402     		.uleb128 .LFE469-.LVL160
 13039 0d59 04       		.uleb128 0x4
 13040 0d5a A3       		.byte	0xa3
 13041 0d5b 01       		.uleb128 0x1
 13042 0d5c 52       		.byte	0x52
 13043 0d5d 9F       		.byte	0x9f
 13044 0d5e 00       		.byte	0
 13045              	.LVUS130:
ARM GAS  C:\Users\DEVELO~1\AppData\Local\Temp\ccuGzkMt.s 			page 230


 13046 0d5f 00       		.uleb128 .LVU857
 13047 0d60 00       		.uleb128 .LVU880
 13048 0d61 00       		.uleb128 .LVU880
 13049 0d62 01       		.uleb128 .LVU1024
 13050 0d63 00       		.uleb128 .LVU1027
 13051 0d64 00       		.uleb128 0
 13052              	.LLST130:
 13053 0d65 06       		.byte	0x6
 13054 0d66 40000000 		.4byte	.LVL160
 13055 0d6a 04       		.byte	0x4
 13056 0d6b 00       		.uleb128 .LVL160-.LVL160
 13057 0d6c 24       		.uleb128 .LVL163-.LVL160
 13058 0d6d 01       		.uleb128 0x1
 13059 0d6e 55       		.byte	0x55
 13060 0d6f 04       		.byte	0x4
 13061 0d70 24       		.uleb128 .LVL163-.LVL160
 13062 0d71 FA01     		.uleb128 .LVL187-.LVL160
 13063 0d73 04       		.uleb128 0x4
 13064 0d74 A3       		.byte	0xa3
 13065 0d75 01       		.uleb128 0x1
 13066 0d76 51       		.byte	0x51
 13067 0d77 9F       		.byte	0x9f
 13068 0d78 04       		.byte	0x4
 13069 0d79 8002     		.uleb128 .LVL189-.LVL160
 13070 0d7b B402     		.uleb128 .LFE469-.LVL160
 13071 0d7d 04       		.uleb128 0x4
 13072 0d7e A3       		.byte	0xa3
 13073 0d7f 01       		.uleb128 0x1
 13074 0d80 51       		.byte	0x51
 13075 0d81 9F       		.byte	0x9f
 13076 0d82 00       		.byte	0
 13077              	.LVUS131:
 13078 0d83 00       		.uleb128 .LVU857
 13079 0d84 01       		.uleb128 .LVU1000
 13080 0d85 01       		.uleb128 .LVU1000
 13081 0d86 01       		.uleb128 .LVU1024
 13082 0d87 00       		.uleb128 .LVU1027
 13083 0d88 00       		.uleb128 .LVU1049
 13084 0d89 00       		.uleb128 .LVU1049
 13085 0d8a 00       		.uleb128 .LVU1050
 13086 0d8b 00       		.uleb128 .LVU1050
 13087 0d8c 00       		.uleb128 0
 13088              	.LLST131:
 13089 0d8d 06       		.byte	0x6
 13090 0d8e 40000000 		.4byte	.LVL160
 13091 0d92 04       		.byte	0x4
 13092 0d93 00       		.uleb128 .LVL160-.LVL160
 13093 0d94 D801     		.uleb128 .LVL185-.LVL160
 13094 0d96 01       		.uleb128 0x1
 13095 0d97 57       		.byte	0x57
 13096 0d98 04       		.byte	0x4
 13097 0d99 D801     		.uleb128 .LVL185-.LVL160
 13098 0d9b FA01     		.uleb128 .LVL187-.LVL160
 13099 0d9d 01       		.uleb128 0x1
 13100 0d9e 50       		.byte	0x50
 13101 0d9f 04       		.byte	0x4
 13102 0da0 8002     		.uleb128 .LVL189-.LVL160
ARM GAS  C:\Users\DEVELO~1\AppData\Local\Temp\ccuGzkMt.s 			page 231


 13103 0da2 A002     		.uleb128 .LVL193-.LVL160
 13104 0da4 01       		.uleb128 0x1
 13105 0da5 57       		.byte	0x57
 13106 0da6 04       		.byte	0x4
 13107 0da7 A002     		.uleb128 .LVL193-.LVL160
 13108 0da9 A202     		.uleb128 .LVL194-.LVL160
 13109 0dab 01       		.uleb128 0x1
 13110 0dac 50       		.byte	0x50
 13111 0dad 04       		.byte	0x4
 13112 0dae A202     		.uleb128 .LVL194-.LVL160
 13113 0db0 B402     		.uleb128 .LFE469-.LVL160
 13114 0db2 01       		.uleb128 0x1
 13115 0db3 57       		.byte	0x57
 13116 0db4 00       		.byte	0
 13117              	.LVUS133:
 13118 0db5 01       		.uleb128 .LVU874
 13119 0db6 00       		.uleb128 .LVU907
 13120 0db7 00       		.uleb128 .LVU931
 13121 0db8 00       		.uleb128 .LVU955
 13122 0db9 00       		.uleb128 .LVU979
 13123 0dba 03       		.uleb128 .LVU984
 13124 0dbb 00       		.uleb128 .LVU1027
 13125 0dbc 03       		.uleb128 .LVU1031
 13126              	.LLST133:
 13127 0dbd 06       		.byte	0x6
 13128 0dbe 5C000000 		.4byte	.LVL162
 13129 0dc2 04       		.byte	0x4
 13130 0dc3 00       		.uleb128 .LVL162-.LVL162
 13131 0dc4 32       		.uleb128 .LVL168-.LVL162
 13132 0dc5 01       		.uleb128 0x1
 13133 0dc6 56       		.byte	0x56
 13134 0dc7 04       		.byte	0x4
 13135 0dc8 5A       		.uleb128 .LVL173-.LVL162
 13136 0dc9 7C       		.uleb128 .LVL177-.LVL162
 13137 0dca 01       		.uleb128 0x1
 13138 0dcb 56       		.byte	0x56
 13139 0dcc 04       		.byte	0x4
 13140 0dcd A601     		.uleb128 .LVL182-.LVL162
 13141 0dcf AC01     		.uleb128 .LVL183-.LVL162
 13142 0dd1 01       		.uleb128 0x1
 13143 0dd2 56       		.byte	0x56
 13144 0dd3 04       		.byte	0x4
 13145 0dd4 E401     		.uleb128 .LVL189-.LVL162
 13146 0dd6 EA01     		.uleb128 .LVL190-.LVL162
 13147 0dd8 01       		.uleb128 0x1
 13148 0dd9 56       		.byte	0x56
 13149 0dda 00       		.byte	0
 13150              	.LVUS134:
 13151 0ddb 01       		.uleb128 .LVU874
 13152 0ddc 00       		.uleb128 .LVU907
 13153 0ddd 00       		.uleb128 .LVU931
 13154 0dde 00       		.uleb128 .LVU955
 13155 0ddf 00       		.uleb128 .LVU979
 13156 0de0 03       		.uleb128 .LVU984
 13157 0de1 00       		.uleb128 .LVU1027
 13158 0de2 03       		.uleb128 .LVU1031
 13159              	.LLST134:
ARM GAS  C:\Users\DEVELO~1\AppData\Local\Temp\ccuGzkMt.s 			page 232


 13160 0de3 06       		.byte	0x6
 13161 0de4 5C000000 		.4byte	.LVL162
 13162 0de8 04       		.byte	0x4
 13163 0de9 00       		.uleb128 .LVL162-.LVL162
 13164 0dea 32       		.uleb128 .LVL168-.LVL162
 13165 0deb 01       		.uleb128 0x1
 13166 0dec 58       		.byte	0x58
 13167 0ded 04       		.byte	0x4
 13168 0dee 5A       		.uleb128 .LVL173-.LVL162
 13169 0def 7C       		.uleb128 .LVL177-.LVL162
 13170 0df0 01       		.uleb128 0x1
 13171 0df1 58       		.byte	0x58
 13172 0df2 04       		.byte	0x4
 13173 0df3 A601     		.uleb128 .LVL182-.LVL162
 13174 0df5 AC01     		.uleb128 .LVL183-.LVL162
 13175 0df7 01       		.uleb128 0x1
 13176 0df8 58       		.byte	0x58
 13177 0df9 04       		.byte	0x4
 13178 0dfa E401     		.uleb128 .LVL189-.LVL162
 13179 0dfc EA01     		.uleb128 .LVL190-.LVL162
 13180 0dfe 01       		.uleb128 0x1
 13181 0dff 58       		.byte	0x58
 13182 0e00 00       		.byte	0
 13183              	.LVUS135:
 13184 0e01 01       		.uleb128 .LVU874
 13185 0e02 00       		.uleb128 .LVU902
 13186 0e03 00       		.uleb128 .LVU931
 13187 0e04 00       		.uleb128 .LVU950
 13188 0e05 00       		.uleb128 .LVU979
 13189 0e06 01       		.uleb128 .LVU982
 13190 0e07 00       		.uleb128 .LVU1027
 13191 0e08 01       		.uleb128 .LVU1029
 13192              	.LLST135:
 13193 0e09 06       		.byte	0x6
 13194 0e0a 5C000000 		.4byte	.LVL162
 13195 0e0e 04       		.byte	0x4
 13196 0e0f 00       		.uleb128 .LVL162-.LVL162
 13197 0e10 2A       		.uleb128 .LVL166-.LVL162
 13198 0e11 01       		.uleb128 0x1
 13199 0e12 55       		.byte	0x55
 13200 0e13 04       		.byte	0x4
 13201 0e14 5A       		.uleb128 .LVL173-.LVL162
 13202 0e15 74       		.uleb128 .LVL175-.LVL162
 13203 0e16 01       		.uleb128 0x1
 13204 0e17 55       		.byte	0x55
 13205 0e18 04       		.byte	0x4
 13206 0e19 A601     		.uleb128 .LVL182-.LVL162
 13207 0e1b AC01     		.uleb128 .LVL183-.LVL162
 13208 0e1d 01       		.uleb128 0x1
 13209 0e1e 55       		.byte	0x55
 13210 0e1f 04       		.byte	0x4
 13211 0e20 E401     		.uleb128 .LVL189-.LVL162
 13212 0e22 EA01     		.uleb128 .LVL190-.LVL162
 13213 0e24 01       		.uleb128 0x1
 13214 0e25 55       		.byte	0x55
 13215 0e26 00       		.byte	0
 13216              	.LVUS136:
ARM GAS  C:\Users\DEVELO~1\AppData\Local\Temp\ccuGzkMt.s 			page 233


 13217 0e27 01       		.uleb128 .LVU874
 13218 0e28 00       		.uleb128 .LVU907
 13219 0e29 00       		.uleb128 .LVU931
 13220 0e2a 00       		.uleb128 .LVU955
 13221 0e2b 00       		.uleb128 .LVU979
 13222 0e2c 03       		.uleb128 .LVU984
 13223 0e2d 00       		.uleb128 .LVU1027
 13224 0e2e 03       		.uleb128 .LVU1031
 13225              	.LLST136:
 13226 0e2f 06       		.byte	0x6
 13227 0e30 5C000000 		.4byte	.LVL162
 13228 0e34 04       		.byte	0x4
 13229 0e35 00       		.uleb128 .LVL162-.LVL162
 13230 0e36 32       		.uleb128 .LVL168-.LVL162
 13231 0e37 01       		.uleb128 0x1
 13232 0e38 57       		.byte	0x57
 13233 0e39 04       		.byte	0x4
 13234 0e3a 5A       		.uleb128 .LVL173-.LVL162
 13235 0e3b 7C       		.uleb128 .LVL177-.LVL162
 13236 0e3c 01       		.uleb128 0x1
 13237 0e3d 57       		.byte	0x57
 13238 0e3e 04       		.byte	0x4
 13239 0e3f A601     		.uleb128 .LVL182-.LVL162
 13240 0e41 AC01     		.uleb128 .LVL183-.LVL162
 13241 0e43 01       		.uleb128 0x1
 13242 0e44 57       		.byte	0x57
 13243 0e45 04       		.byte	0x4
 13244 0e46 E401     		.uleb128 .LVL189-.LVL162
 13245 0e48 EA01     		.uleb128 .LVL190-.LVL162
 13246 0e4a 01       		.uleb128 0x1
 13247 0e4b 57       		.byte	0x57
 13248 0e4c 00       		.byte	0
 13249              	.LVUS138:
 13250 0e4d 01       		.uleb128 .LVU885
 13251 0e4e 01       		.uleb128 .LVU904
 13252 0e4f 00       		.uleb128 .LVU979
 13253 0e50 01       		.uleb128 .LVU982
 13254              	.LLST138:
 13255 0e51 06       		.byte	0x6
 13256 0e52 6C000000 		.4byte	.LVL164
 13257 0e56 04       		.byte	0x4
 13258 0e57 00       		.uleb128 .LVL164-.LVL164
 13259 0e58 1C       		.uleb128 .LVL167-.LVL164
 13260 0e59 01       		.uleb128 0x1
 13261 0e5a 56       		.byte	0x56
 13262 0e5b 04       		.byte	0x4
 13263 0e5c 9601     		.uleb128 .LVL182-.LVL164
 13264 0e5e 9C01     		.uleb128 .LVL183-.LVL164
 13265 0e60 01       		.uleb128 0x1
 13266 0e61 56       		.byte	0x56
 13267 0e62 00       		.byte	0
 13268              	.LVUS139:
 13269 0e63 01       		.uleb128 .LVU885
 13270 0e64 01       		.uleb128 .LVU904
 13271 0e65 00       		.uleb128 .LVU979
 13272 0e66 01       		.uleb128 .LVU982
 13273              	.LLST139:
ARM GAS  C:\Users\DEVELO~1\AppData\Local\Temp\ccuGzkMt.s 			page 234


 13274 0e67 06       		.byte	0x6
 13275 0e68 6C000000 		.4byte	.LVL164
 13276 0e6c 04       		.byte	0x4
 13277 0e6d 00       		.uleb128 .LVL164-.LVL164
 13278 0e6e 1C       		.uleb128 .LVL167-.LVL164
 13279 0e6f 02       		.uleb128 0x2
 13280 0e70 49       		.byte	0x49
 13281 0e71 9F       		.byte	0x9f
 13282 0e72 04       		.byte	0x4
 13283 0e73 9601     		.uleb128 .LVL182-.LVL164
 13284 0e75 9C01     		.uleb128 .LVL183-.LVL164
 13285 0e77 02       		.uleb128 0x2
 13286 0e78 49       		.byte	0x49
 13287 0e79 9F       		.byte	0x9f
 13288 0e7a 00       		.byte	0
 13289              	.LVUS140:
 13290 0e7b 01       		.uleb128 .LVU885
 13291 0e7c 01       		.uleb128 .LVU904
 13292 0e7d 00       		.uleb128 .LVU979
 13293 0e7e 01       		.uleb128 .LVU982
 13294              	.LLST140:
 13295 0e7f 06       		.byte	0x6
 13296 0e80 6C000000 		.4byte	.LVL164
 13297 0e84 04       		.byte	0x4
 13298 0e85 00       		.uleb128 .LVL164-.LVL164
 13299 0e86 1C       		.uleb128 .LVL167-.LVL164
 13300 0e87 01       		.uleb128 0x1
 13301 0e88 57       		.byte	0x57
 13302 0e89 04       		.byte	0x4
 13303 0e8a 9601     		.uleb128 .LVL182-.LVL164
 13304 0e8c 9C01     		.uleb128 .LVL183-.LVL164
 13305 0e8e 01       		.uleb128 0x1
 13306 0e8f 57       		.byte	0x57
 13307 0e90 00       		.byte	0
 13308              	.LVUS141:
 13309 0e91 00       		.uleb128 .LVU893
 13310 0e92 01       		.uleb128 .LVU904
 13311 0e93 00       		.uleb128 .LVU979
 13312 0e94 01       		.uleb128 .LVU982
 13313              	.LLST141:
 13314 0e95 06       		.byte	0x6
 13315 0e96 74000000 		.4byte	.LVL165
 13316 0e9a 04       		.byte	0x4
 13317 0e9b 00       		.uleb128 .LVL165-.LVL165
 13318 0e9c 14       		.uleb128 .LVL167-.LVL165
 13319 0e9d 01       		.uleb128 0x1
 13320 0e9e 51       		.byte	0x51
 13321 0e9f 04       		.byte	0x4
 13322 0ea0 8E01     		.uleb128 .LVL182-.LVL165
 13323 0ea2 9401     		.uleb128 .LVL183-.LVL165
 13324 0ea4 01       		.uleb128 0x1
 13325 0ea5 51       		.byte	0x51
 13326 0ea6 00       		.byte	0
 13327              	.LVUS143:
 13328 0ea7 02       		.uleb128 .LVU933
 13329 0ea8 01       		.uleb128 .LVU952
 13330 0ea9 00       		.uleb128 .LVU1027
ARM GAS  C:\Users\DEVELO~1\AppData\Local\Temp\ccuGzkMt.s 			page 235


 13331 0eaa 01       		.uleb128 .LVU1029
 13332              	.LLST143:
 13333 0eab 06       		.byte	0x6
 13334 0eac B6000000 		.4byte	.LVL173
 13335 0eb0 04       		.byte	0x4
 13336 0eb1 00       		.uleb128 .LVL173-.LVL173
 13337 0eb2 1C       		.uleb128 .LVL176-.LVL173
 13338 0eb3 01       		.uleb128 0x1
 13339 0eb4 56       		.byte	0x56
 13340 0eb5 04       		.byte	0x4
 13341 0eb6 8A01     		.uleb128 .LVL189-.LVL173
 13342 0eb8 9001     		.uleb128 .LVL190-.LVL173
 13343 0eba 01       		.uleb128 0x1
 13344 0ebb 56       		.byte	0x56
 13345 0ebc 00       		.byte	0
 13346              	.LVUS144:
 13347 0ebd 02       		.uleb128 .LVU933
 13348 0ebe 01       		.uleb128 .LVU952
 13349 0ebf 00       		.uleb128 .LVU1027
 13350 0ec0 01       		.uleb128 .LVU1029
 13351              	.LLST144:
 13352 0ec1 06       		.byte	0x6
 13353 0ec2 B6000000 		.4byte	.LVL173
 13354 0ec6 04       		.byte	0x4
 13355 0ec7 00       		.uleb128 .LVL173-.LVL173
 13356 0ec8 1C       		.uleb128 .LVL176-.LVL173
 13357 0ec9 02       		.uleb128 0x2
 13358 0eca 48       		.byte	0x48
 13359 0ecb 9F       		.byte	0x9f
 13360 0ecc 04       		.byte	0x4
 13361 0ecd 8A01     		.uleb128 .LVL189-.LVL173
 13362 0ecf 9001     		.uleb128 .LVL190-.LVL173
 13363 0ed1 02       		.uleb128 0x2
 13364 0ed2 48       		.byte	0x48
 13365 0ed3 9F       		.byte	0x9f
 13366 0ed4 00       		.byte	0
 13367              	.LVUS145:
 13368 0ed5 02       		.uleb128 .LVU933
 13369 0ed6 01       		.uleb128 .LVU952
 13370 0ed7 00       		.uleb128 .LVU1027
 13371 0ed8 01       		.uleb128 .LVU1029
 13372              	.LLST145:
 13373 0ed9 06       		.byte	0x6
 13374 0eda B6000000 		.4byte	.LVL173
 13375 0ede 04       		.byte	0x4
 13376 0edf 00       		.uleb128 .LVL173-.LVL173
 13377 0ee0 1C       		.uleb128 .LVL176-.LVL173
 13378 0ee1 01       		.uleb128 0x1
 13379 0ee2 57       		.byte	0x57
 13380 0ee3 04       		.byte	0x4
 13381 0ee4 8A01     		.uleb128 .LVL189-.LVL173
 13382 0ee6 9001     		.uleb128 .LVL190-.LVL173
 13383 0ee8 01       		.uleb128 0x1
 13384 0ee9 57       		.byte	0x57
 13385 0eea 00       		.byte	0
 13386              	.LVUS146:
 13387 0eeb 00       		.uleb128 .LVU941
ARM GAS  C:\Users\DEVELO~1\AppData\Local\Temp\ccuGzkMt.s 			page 236


 13388 0eec 01       		.uleb128 .LVU952
 13389 0eed 00       		.uleb128 .LVU1027
 13390 0eee 01       		.uleb128 .LVU1029
 13391              	.LLST146:
 13392 0eef 06       		.byte	0x6
 13393 0ef0 BE000000 		.4byte	.LVL174
 13394 0ef4 04       		.byte	0x4
 13395 0ef5 00       		.uleb128 .LVL174-.LVL174
 13396 0ef6 14       		.uleb128 .LVL176-.LVL174
 13397 0ef7 01       		.uleb128 0x1
 13398 0ef8 51       		.byte	0x51
 13399 0ef9 04       		.byte	0x4
 13400 0efa 8201     		.uleb128 .LVL189-.LVL174
 13401 0efc 8801     		.uleb128 .LVL190-.LVL174
 13402 0efe 01       		.uleb128 0x1
 13403 0eff 51       		.byte	0x51
 13404 0f00 00       		.byte	0
 13405              	.LVUS148:
 13406 0f01 00       		.uleb128 .LVU919
 13407 0f02 00       		.uleb128 .LVU931
 13408 0f03 01       		.uleb128 .LVU964
 13409 0f04 00       		.uleb128 .LVU978
 13410 0f05 05       		.uleb128 .LVU986
 13411 0f06 01       		.uleb128 .LVU1024
 13412 0f07 05       		.uleb128 .LVU1033
 13413 0f08 00       		.uleb128 .LVU1047
 13414 0f09 00       		.uleb128 .LVU1049
 13415 0f0a 00       		.uleb128 0
 13416              	.LLST148:
 13417 0f0b 06       		.byte	0x6
 13418 0f0c A8000000 		.4byte	.LVL170
 13419 0f10 04       		.byte	0x4
 13420 0f11 00       		.uleb128 .LVL170-.LVL170
 13421 0f12 0E       		.uleb128 .LVL173-.LVL170
 13422 0f13 01       		.uleb128 0x1
 13423 0f14 56       		.byte	0x56
 13424 0f15 04       		.byte	0x4
 13425 0f16 46       		.uleb128 .LVL179-.LVL170
 13426 0f17 57       		.uleb128 .LVL181-1-.LVL170
 13427 0f18 03       		.uleb128 0x3
 13428 0f19 77       		.byte	0x77
 13429 0f1a CC00     		.sleb128 76
 13430 0f1c 04       		.byte	0x4
 13431 0f1d 60       		.uleb128 .LVL183-.LVL170
 13432 0f1e 9201     		.uleb128 .LVL187-.LVL170
 13433 0f20 01       		.uleb128 0x1
 13434 0f21 56       		.byte	0x56
 13435 0f22 04       		.byte	0x4
 13436 0f23 9E01     		.uleb128 .LVL190-.LVL170
 13437 0f25 B101     		.uleb128 .LVL192-1-.LVL170
 13438 0f27 03       		.uleb128 0x3
 13439 0f28 77       		.byte	0x77
 13440 0f29 CC00     		.sleb128 76
 13441 0f2b 04       		.byte	0x4
 13442 0f2c B801     		.uleb128 .LVL193-.LVL170
 13443 0f2e CC01     		.uleb128 .LFE469-.LVL170
 13444 0f30 01       		.uleb128 0x1
ARM GAS  C:\Users\DEVELO~1\AppData\Local\Temp\ccuGzkMt.s 			page 237


 13445 0f31 56       		.byte	0x56
 13446 0f32 00       		.byte	0
 13447              	.LVUS149:
 13448 0f33 00       		.uleb128 .LVU919
 13449 0f34 00       		.uleb128 .LVU931
 13450 0f35 01       		.uleb128 .LVU964
 13451 0f36 00       		.uleb128 .LVU979
 13452 0f37 05       		.uleb128 .LVU986
 13453 0f38 01       		.uleb128 .LVU1024
 13454 0f39 05       		.uleb128 .LVU1033
 13455 0f3a 00       		.uleb128 0
 13456              	.LLST149:
 13457 0f3b 06       		.byte	0x6
 13458 0f3c A8000000 		.4byte	.LVL170
 13459 0f40 04       		.byte	0x4
 13460 0f41 00       		.uleb128 .LVL170-.LVL170
 13461 0f42 0E       		.uleb128 .LVL173-.LVL170
 13462 0f43 01       		.uleb128 0x1
 13463 0f44 58       		.byte	0x58
 13464 0f45 04       		.byte	0x4
 13465 0f46 46       		.uleb128 .LVL179-.LVL170
 13466 0f47 5A       		.uleb128 .LVL182-.LVL170
 13467 0f48 01       		.uleb128 0x1
 13468 0f49 58       		.byte	0x58
 13469 0f4a 04       		.byte	0x4
 13470 0f4b 60       		.uleb128 .LVL183-.LVL170
 13471 0f4c 9201     		.uleb128 .LVL187-.LVL170
 13472 0f4e 01       		.uleb128 0x1
 13473 0f4f 58       		.byte	0x58
 13474 0f50 04       		.byte	0x4
 13475 0f51 9E01     		.uleb128 .LVL190-.LVL170
 13476 0f53 CC01     		.uleb128 .LFE469-.LVL170
 13477 0f55 01       		.uleb128 0x1
 13478 0f56 58       		.byte	0x58
 13479 0f57 00       		.byte	0
 13480              	.LVUS150:
 13481 0f58 00       		.uleb128 .LVU919
 13482 0f59 00       		.uleb128 .LVU931
 13483 0f5a 01       		.uleb128 .LVU964
 13484 0f5b 00       		.uleb128 .LVU979
 13485 0f5c 05       		.uleb128 .LVU986
 13486 0f5d 01       		.uleb128 .LVU1000
 13487 0f5e 01       		.uleb128 .LVU1000
 13488 0f5f 01       		.uleb128 .LVU1024
 13489 0f60 05       		.uleb128 .LVU1033
 13490 0f61 00       		.uleb128 .LVU1049
 13491 0f62 00       		.uleb128 .LVU1049
 13492 0f63 00       		.uleb128 .LVU1050
 13493 0f64 00       		.uleb128 .LVU1050
 13494 0f65 00       		.uleb128 0
 13495              	.LLST150:
 13496 0f66 06       		.byte	0x6
 13497 0f67 A8000000 		.4byte	.LVL170
 13498 0f6b 04       		.byte	0x4
 13499 0f6c 00       		.uleb128 .LVL170-.LVL170
 13500 0f6d 0E       		.uleb128 .LVL173-.LVL170
 13501 0f6e 01       		.uleb128 0x1
ARM GAS  C:\Users\DEVELO~1\AppData\Local\Temp\ccuGzkMt.s 			page 238


 13502 0f6f 57       		.byte	0x57
 13503 0f70 04       		.byte	0x4
 13504 0f71 46       		.uleb128 .LVL179-.LVL170
 13505 0f72 5A       		.uleb128 .LVL182-.LVL170
 13506 0f73 01       		.uleb128 0x1
 13507 0f74 57       		.byte	0x57
 13508 0f75 04       		.byte	0x4
 13509 0f76 60       		.uleb128 .LVL183-.LVL170
 13510 0f77 70       		.uleb128 .LVL185-.LVL170
 13511 0f78 01       		.uleb128 0x1
 13512 0f79 57       		.byte	0x57
 13513 0f7a 04       		.byte	0x4
 13514 0f7b 70       		.uleb128 .LVL185-.LVL170
 13515 0f7c 9201     		.uleb128 .LVL187-.LVL170
 13516 0f7e 01       		.uleb128 0x1
 13517 0f7f 50       		.byte	0x50
 13518 0f80 04       		.byte	0x4
 13519 0f81 9E01     		.uleb128 .LVL190-.LVL170
 13520 0f83 B801     		.uleb128 .LVL193-.LVL170
 13521 0f85 01       		.uleb128 0x1
 13522 0f86 57       		.byte	0x57
 13523 0f87 04       		.byte	0x4
 13524 0f88 B801     		.uleb128 .LVL193-.LVL170
 13525 0f8a BA01     		.uleb128 .LVL194-.LVL170
 13526 0f8c 01       		.uleb128 0x1
 13527 0f8d 50       		.byte	0x50
 13528 0f8e 04       		.byte	0x4
 13529 0f8f BA01     		.uleb128 .LVL194-.LVL170
 13530 0f91 CC01     		.uleb128 .LFE469-.LVL170
 13531 0f93 01       		.uleb128 0x1
 13532 0f94 57       		.byte	0x57
 13533 0f95 00       		.byte	0
 13534              	.LVUS151:
 13535 0f96 00       		.uleb128 .LVU923
 13536 0f97 00       		.uleb128 .LVU931
 13537 0f98 00       		.uleb128 .LVU971
 13538 0f99 00       		.uleb128 .LVU979
 13539 0f9a 00       		.uleb128 .LVU990
 13540 0f9b 01       		.uleb128 .LVU1000
 13541 0f9c 00       		.uleb128 .LVU1037
 13542 0f9d 00       		.uleb128 .LVU1049
 13543              	.LLST151:
 13544 0f9e 06       		.byte	0x6
 13545 0f9f AA000000 		.4byte	.LVL171
 13546 0fa3 04       		.byte	0x4
 13547 0fa4 00       		.uleb128 .LVL171-.LVL171
 13548 0fa5 0C       		.uleb128 .LVL173-.LVL171
 13549 0fa6 01       		.uleb128 0x1
 13550 0fa7 51       		.byte	0x51
 13551 0fa8 04       		.byte	0x4
 13552 0fa9 4C       		.uleb128 .LVL180-.LVL171
 13553 0faa 58       		.uleb128 .LVL182-.LVL171
 13554 0fab 01       		.uleb128 0x1
 13555 0fac 51       		.byte	0x51
 13556 0fad 04       		.byte	0x4
 13557 0fae 60       		.uleb128 .LVL184-.LVL171
 13558 0faf 6E       		.uleb128 .LVL185-.LVL171
ARM GAS  C:\Users\DEVELO~1\AppData\Local\Temp\ccuGzkMt.s 			page 239


 13559 0fb0 01       		.uleb128 0x1
 13560 0fb1 51       		.byte	0x51
 13561 0fb2 04       		.byte	0x4
 13562 0fb3 9E01     		.uleb128 .LVL191-.LVL171
 13563 0fb5 B601     		.uleb128 .LVL193-.LVL171
 13564 0fb7 01       		.uleb128 0x1
 13565 0fb8 51       		.byte	0x51
 13566 0fb9 00       		.byte	0
 13567              	.LVUS153:
 13568 0fba 02       		.uleb128 .LVU1001
 13569 0fbb 01       		.uleb128 .LVU1024
 13570 0fbc 00       		.uleb128 .LVU1049
 13571 0fbd 00       		.uleb128 0
 13572              	.LLST153:
 13573 0fbe 06       		.byte	0x6
 13574 0fbf 18010000 		.4byte	.LVL185
 13575 0fc3 04       		.byte	0x4
 13576 0fc4 00       		.uleb128 .LVL185-.LVL185
 13577 0fc5 22       		.uleb128 .LVL187-.LVL185
 13578 0fc6 01       		.uleb128 0x1
 13579 0fc7 58       		.byte	0x58
 13580 0fc8 04       		.byte	0x4
 13581 0fc9 48       		.uleb128 .LVL193-.LVL185
 13582 0fca 5C       		.uleb128 .LFE469-.LVL185
 13583 0fcb 01       		.uleb128 0x1
 13584 0fcc 58       		.byte	0x58
 13585 0fcd 00       		.byte	0
 13586              	.LVUS154:
 13587 0fce 01       		.uleb128 .LVU1000
 13588 0fcf 01       		.uleb128 .LVU1024
 13589 0fd0 00       		.uleb128 .LVU1049
 13590 0fd1 00       		.uleb128 0
 13591              	.LLST154:
 13592 0fd2 06       		.byte	0x6
 13593 0fd3 18010000 		.4byte	.LVL185
 13594 0fd7 04       		.byte	0x4
 13595 0fd8 00       		.uleb128 .LVL185-.LVL185
 13596 0fd9 22       		.uleb128 .LVL187-.LVL185
 13597 0fda 01       		.uleb128 0x1
 13598 0fdb 56       		.byte	0x56
 13599 0fdc 04       		.byte	0x4
 13600 0fdd 48       		.uleb128 .LVL193-.LVL185
 13601 0fde 5C       		.uleb128 .LFE469-.LVL185
 13602 0fdf 01       		.uleb128 0x1
 13603 0fe0 56       		.byte	0x56
 13604 0fe1 00       		.byte	0
 13605              	.LVUS155:
 13606 0fe2 01       		.uleb128 .LVU1000
 13607 0fe3 01       		.uleb128 .LVU1024
 13608 0fe4 00       		.uleb128 .LVU1049
 13609 0fe5 00       		.uleb128 .LVU1050
 13610 0fe6 00       		.uleb128 .LVU1050
 13611 0fe7 00       		.uleb128 0
 13612              	.LLST155:
 13613 0fe8 06       		.byte	0x6
 13614 0fe9 18010000 		.4byte	.LVL185
 13615 0fed 04       		.byte	0x4
ARM GAS  C:\Users\DEVELO~1\AppData\Local\Temp\ccuGzkMt.s 			page 240


 13616 0fee 00       		.uleb128 .LVL185-.LVL185
 13617 0fef 22       		.uleb128 .LVL187-.LVL185
 13618 0ff0 01       		.uleb128 0x1
 13619 0ff1 50       		.byte	0x50
 13620 0ff2 04       		.byte	0x4
 13621 0ff3 48       		.uleb128 .LVL193-.LVL185
 13622 0ff4 4A       		.uleb128 .LVL194-.LVL185
 13623 0ff5 01       		.uleb128 0x1
 13624 0ff6 50       		.byte	0x50
 13625 0ff7 04       		.byte	0x4
 13626 0ff8 4A       		.uleb128 .LVL194-.LVL185
 13627 0ff9 5C       		.uleb128 .LFE469-.LVL185
 13628 0ffa 01       		.uleb128 0x1
 13629 0ffb 57       		.byte	0x57
 13630 0ffc 00       		.byte	0
 13631              	.LVUS156:
 13632 0ffd 03       		.uleb128 .LVU1002
 13633 0ffe 01       		.uleb128 .LVU1024
 13634 0fff 00       		.uleb128 .LVU1049
 13635 1000 00       		.uleb128 0
 13636              	.LLST156:
 13637 1001 06       		.byte	0x6
 13638 1002 18010000 		.4byte	.LVL185
 13639 1006 04       		.byte	0x4
 13640 1007 00       		.uleb128 .LVL185-.LVL185
 13641 1008 22       		.uleb128 .LVL187-.LVL185
 13642 1009 01       		.uleb128 0x1
 13643 100a 56       		.byte	0x56
 13644 100b 04       		.byte	0x4
 13645 100c 48       		.uleb128 .LVL193-.LVL185
 13646 100d 5C       		.uleb128 .LFE469-.LVL185
 13647 100e 01       		.uleb128 0x1
 13648 100f 56       		.byte	0x56
 13649 1010 00       		.byte	0
 13650              	.LVUS157:
 13651 1011 03       		.uleb128 .LVU1002
 13652 1012 01       		.uleb128 .LVU1024
 13653 1013 00       		.uleb128 .LVU1049
 13654 1014 00       		.uleb128 0
 13655              	.LLST157:
 13656 1015 06       		.byte	0x6
 13657 1016 18010000 		.4byte	.LVL185
 13658 101a 04       		.byte	0x4
 13659 101b 00       		.uleb128 .LVL185-.LVL185
 13660 101c 22       		.uleb128 .LVL187-.LVL185
 13661 101d 02       		.uleb128 0x2
 13662 101e 30       		.byte	0x30
 13663 101f 9F       		.byte	0x9f
 13664 1020 04       		.byte	0x4
 13665 1021 48       		.uleb128 .LVL193-.LVL185
 13666 1022 5C       		.uleb128 .LFE469-.LVL185
 13667 1023 02       		.uleb128 0x2
 13668 1024 30       		.byte	0x30
 13669 1025 9F       		.byte	0x9f
 13670 1026 00       		.byte	0
 13671              	.LVUS158:
 13672 1027 03       		.uleb128 .LVU1002
ARM GAS  C:\Users\DEVELO~1\AppData\Local\Temp\ccuGzkMt.s 			page 241


 13673 1028 01       		.uleb128 .LVU1024
 13674 1029 00       		.uleb128 .LVU1049
 13675 102a 00       		.uleb128 0
 13676              	.LLST158:
 13677 102b 06       		.byte	0x6
 13678 102c 18010000 		.4byte	.LVL185
 13679 1030 04       		.byte	0x4
 13680 1031 00       		.uleb128 .LVL185-.LVL185
 13681 1032 22       		.uleb128 .LVL187-.LVL185
 13682 1033 02       		.uleb128 0x2
 13683 1034 3C       		.byte	0x3c
 13684 1035 9F       		.byte	0x9f
 13685 1036 04       		.byte	0x4
 13686 1037 48       		.uleb128 .LVL193-.LVL185
 13687 1038 5C       		.uleb128 .LFE469-.LVL185
 13688 1039 02       		.uleb128 0x2
 13689 103a 3C       		.byte	0x3c
 13690 103b 9F       		.byte	0x9f
 13691 103c 00       		.byte	0
 13692              	.LVUS159:
 13693 103d 03       		.uleb128 .LVU1002
 13694 103e 01       		.uleb128 .LVU1024
 13695 103f 00       		.uleb128 .LVU1049
 13696 1040 00       		.uleb128 .LVU1050
 13697 1041 00       		.uleb128 .LVU1050
 13698 1042 00       		.uleb128 0
 13699              	.LLST159:
 13700 1043 06       		.byte	0x6
 13701 1044 18010000 		.4byte	.LVL185
 13702 1048 04       		.byte	0x4
 13703 1049 00       		.uleb128 .LVL185-.LVL185
 13704 104a 22       		.uleb128 .LVL187-.LVL185
 13705 104b 01       		.uleb128 0x1
 13706 104c 50       		.byte	0x50
 13707 104d 04       		.byte	0x4
 13708 104e 48       		.uleb128 .LVL193-.LVL185
 13709 104f 4A       		.uleb128 .LVL194-.LVL185
 13710 1050 01       		.uleb128 0x1
 13711 1051 50       		.byte	0x50
 13712 1052 04       		.byte	0x4
 13713 1053 4A       		.uleb128 .LVL194-.LVL185
 13714 1054 5C       		.uleb128 .LFE469-.LVL185
 13715 1055 01       		.uleb128 0x1
 13716 1056 57       		.byte	0x57
 13717 1057 00       		.byte	0
 13718              	.LVUS160:
 13719 1058 00       		.uleb128 .LVU1013
 13720 1059 01       		.uleb128 .LVU1024
 13721 105a 00       		.uleb128 .LVU1049
 13722 105b 00       		.uleb128 0
 13723              	.LLST160:
 13724 105c 06       		.byte	0x6
 13725 105d 24010000 		.4byte	.LVL186
 13726 1061 04       		.byte	0x4
 13727 1062 00       		.uleb128 .LVL186-.LVL186
 13728 1063 16       		.uleb128 .LVL187-.LVL186
 13729 1064 01       		.uleb128 0x1
ARM GAS  C:\Users\DEVELO~1\AppData\Local\Temp\ccuGzkMt.s 			page 242


 13730 1065 51       		.byte	0x51
 13731 1066 04       		.byte	0x4
 13732 1067 3C       		.uleb128 .LVL193-.LVL186
 13733 1068 50       		.uleb128 .LFE469-.LVL186
 13734 1069 01       		.uleb128 0x1
 13735 106a 51       		.byte	0x51
 13736 106b 00       		.byte	0
 13737              	.Ldebug_loc3:
 13738              		.section	.debug_aranges,"",%progbits
 13739 0000 B4000000 		.4byte	0xb4
 13740 0004 0200     		.2byte	0x2
 13741 0006 00000000 		.4byte	.Ldebug_info0
 13742 000a 04       		.byte	0x4
 13743 000b 00       		.byte	0
 13744 000c 0000     		.2byte	0
 13745 000e 0000     		.2byte	0
 13746 0010 00000000 		.4byte	.LFB454
 13747 0014 34000000 		.4byte	.LFE454-.LFB454
 13748 0018 00000000 		.4byte	.LFB453
 13749 001c 78000000 		.4byte	.LFE453-.LFB453
 13750 0020 00000000 		.4byte	.LFB456
 13751 0024 34000000 		.4byte	.LFE456-.LFB456
 13752 0028 00000000 		.4byte	.LFB457
 13753 002c 58000000 		.4byte	.LFE457-.LFB457
 13754 0030 00000000 		.4byte	.LFB458
 13755 0034 54000000 		.4byte	.LFE458-.LFB458
 13756 0038 00000000 		.4byte	.LFB459
 13757 003c 44000000 		.4byte	.LFE459-.LFB459
 13758 0040 00000000 		.4byte	.LFB460
 13759 0044 74000000 		.4byte	.LFE460-.LFB460
 13760 0048 00000000 		.4byte	.LFB461
 13761 004c 0A000000 		.4byte	.LFE461-.LFB461
 13762 0050 00000000 		.4byte	.LFB462
 13763 0054 24000000 		.4byte	.LFE462-.LFB462
 13764 0058 00000000 		.4byte	.LFB463
 13765 005c 16000000 		.4byte	.LFE463-.LFB463
 13766 0060 00000000 		.4byte	.LFB464
 13767 0064 2C000000 		.4byte	.LFE464-.LFB464
 13768 0068 00000000 		.4byte	.LFB465
 13769 006c 2C000000 		.4byte	.LFE465-.LFB465
 13770 0070 00000000 		.4byte	.LFB466
 13771 0074 38000000 		.4byte	.LFE466-.LFB466
 13772 0078 00000000 		.4byte	.LFB467
 13773 007c F0000000 		.4byte	.LFE467-.LFB467
 13774 0080 00000000 		.4byte	.LFB468
 13775 0084 74010000 		.4byte	.LFE468-.LFB468
 13776 0088 00000000 		.4byte	.LFB469
 13777 008c 74010000 		.4byte	.LFE469-.LFB469
 13778 0090 00000000 		.4byte	.LFB470
 13779 0094 50000000 		.4byte	.LFE470-.LFB470
 13780 0098 00000000 		.4byte	.LFB471
 13781 009c 4A000000 		.4byte	.LFE471-.LFB471
 13782 00a0 00000000 		.4byte	.LFB472
 13783 00a4 04000000 		.4byte	.LFE472-.LFB472
 13784 00a8 00000000 		.4byte	.LFB473
 13785 00ac 1C000000 		.4byte	.LFE473-.LFB473
 13786 00b0 00000000 		.4byte	0
ARM GAS  C:\Users\DEVELO~1\AppData\Local\Temp\ccuGzkMt.s 			page 243


 13787 00b4 00000000 		.4byte	0
 13788              		.section	.debug_rnglists,"",%progbits
 13789              	.Ldebug_ranges0:
 13790 0000 CE020000 		.4byte	.Ldebug_ranges3-.Ldebug_ranges2
 13791              	.Ldebug_ranges2:
 13792 0004 0500     		.2byte	0x5
 13793 0006 04       		.byte	0x4
 13794 0007 00       		.byte	0
 13795 0008 00000000 		.4byte	0
 13796              	.LLRL4:
 13797 000c 05       		.byte	0x5
 13798 000d 00000000 		.4byte	.LBB154
 13799 0011 04       		.byte	0x4
 13800 0012 00       		.uleb128 .LBB154-.LBB154
 13801 0013 00       		.uleb128 .LBE154-.LBB154
 13802 0014 04       		.byte	0x4
 13803 0015 02       		.uleb128 .LBB167-.LBB154
 13804 0016 04       		.uleb128 .LBE167-.LBB154
 13805 0017 04       		.byte	0x4
 13806 0018 0A       		.uleb128 .LBB168-.LBB154
 13807 0019 0E       		.uleb128 .LBE168-.LBB154
 13808 001a 00       		.byte	0
 13809              	.LLRL8:
 13810 001b 05       		.byte	0x5
 13811 001c 3E000000 		.4byte	.LBB181
 13812 0020 04       		.byte	0x4
 13813 0021 00       		.uleb128 .LBB181-.LBB181
 13814 0022 0A       		.uleb128 .LBE181-.LBB181
 13815 0023 04       		.byte	0x4
 13816 0024 0C       		.uleb128 .LBB184-.LBB181
 13817 0025 0E       		.uleb128 .LBE184-.LBB181
 13818 0026 00       		.byte	0
 13819              	.LLRL10:
 13820 0027 05       		.byte	0x5
 13821 0028 4C000000 		.4byte	.LBB185
 13822 002c 04       		.byte	0x4
 13823 002d 00       		.uleb128 .LBB185-.LBB185
 13824 002e 20       		.uleb128 .LBE185-.LBB185
 13825 002f 04       		.byte	0x4
 13826 0030 22       		.uleb128 .LBB188-.LBB185
 13827 0031 2A       		.uleb128 .LBE188-.LBB185
 13828 0032 00       		.byte	0
 13829              	.LLRL16:
 13830 0033 05       		.byte	0x5
 13831 0034 28000000 		.4byte	.LBB191
 13832 0038 04       		.byte	0x4
 13833 0039 00       		.uleb128 .LBB191-.LBB191
 13834 003a 02       		.uleb128 .LBE191-.LBB191
 13835 003b 04       		.byte	0x4
 13836 003c 04       		.uleb128 .LBB194-.LBB191
 13837 003d 20       		.uleb128 .LBE194-.LBB191
 13838 003e 00       		.byte	0
 13839              	.LLRL19:
 13840 003f 05       		.byte	0x5
 13841 0040 00000000 		.4byte	.LBB195
 13842 0044 04       		.byte	0x4
 13843 0045 00       		.uleb128 .LBB195-.LBB195
ARM GAS  C:\Users\DEVELO~1\AppData\Local\Temp\ccuGzkMt.s 			page 244


 13844 0046 02       		.uleb128 .LBE195-.LBB195
 13845 0047 04       		.byte	0x4
 13846 0048 06       		.uleb128 .LBB200-.LBB195
 13847 0049 06       		.uleb128 .LBE200-.LBB195
 13848 004a 04       		.byte	0x4
 13849 004b 08       		.uleb128 .LBB201-.LBB195
 13850 004c 20       		.uleb128 .LBE201-.LBB195
 13851 004d 04       		.byte	0x4
 13852 004e 32       		.uleb128 .LBB206-.LBB195
 13853 004f 44       		.uleb128 .LBE206-.LBB195
 13854 0050 00       		.byte	0
 13855              	.LLRL22:
 13856 0051 05       		.byte	0x5
 13857 0052 22000000 		.4byte	.LBB202
 13858 0056 04       		.byte	0x4
 13859 0057 00       		.uleb128 .LBB202-.LBB202
 13860 0058 02       		.uleb128 .LBE202-.LBB202
 13861 0059 04       		.byte	0x4
 13862 005a 0C       		.uleb128 .LBB205-.LBB202
 13863 005b 10       		.uleb128 .LBE205-.LBB202
 13864 005c 00       		.byte	0
 13865              	.LLRL26:
 13866 005d 05       		.byte	0x5
 13867 005e 04000000 		.4byte	.LBB207
 13868 0062 04       		.byte	0x4
 13869 0063 00       		.uleb128 .LBB207-.LBB207
 13870 0064 02       		.uleb128 .LBE207-.LBB207
 13871 0065 04       		.byte	0x4
 13872 0066 38       		.uleb128 .LBB220-.LBB207
 13873 0067 3A       		.uleb128 .LBE220-.LBB207
 13874 0068 04       		.byte	0x4
 13875 0069 3C       		.uleb128 .LBB221-.LBB207
 13876 006a 3E       		.uleb128 .LBE221-.LBB207
 13877 006b 04       		.byte	0x4
 13878 006c 42       		.uleb128 .LBB222-.LBB207
 13879 006d 70       		.uleb128 .LBE222-.LBB207
 13880 006e 00       		.byte	0
 13881              	.LLRL29:
 13882 006f 05       		.byte	0x5
 13883 0070 0C000000 		.4byte	.LBB212
 13884 0074 04       		.byte	0x4
 13885 0075 00       		.uleb128 .LBB212-.LBB212
 13886 0076 02       		.uleb128 .LBE212-.LBB212
 13887 0077 04       		.byte	0x4
 13888 0078 04       		.uleb128 .LBB217-.LBB212
 13889 0079 06       		.uleb128 .LBE217-.LBB212
 13890 007a 04       		.byte	0x4
 13891 007b 0A       		.uleb128 .LBB218-.LBB212
 13892 007c 1E       		.uleb128 .LBE218-.LBB212
 13893 007d 04       		.byte	0x4
 13894 007e 2A       		.uleb128 .LBB219-.LBB212
 13895 007f 30       		.uleb128 .LBE219-.LBB212
 13896 0080 00       		.byte	0
 13897              	.LLRL55:
 13898 0081 05       		.byte	0x5
 13899 0082 0A000000 		.4byte	.LBB254
 13900 0086 04       		.byte	0x4
ARM GAS  C:\Users\DEVELO~1\AppData\Local\Temp\ccuGzkMt.s 			page 245


 13901 0087 00       		.uleb128 .LBB254-.LBB254
 13902 0088 02       		.uleb128 .LBE254-.LBB254
 13903 0089 04       		.byte	0x4
 13904 008a 04       		.uleb128 .LBB264-.LBB254
 13905 008b 32       		.uleb128 .LBE264-.LBB254
 13906 008c 04       		.byte	0x4
 13907 008d 38       		.uleb128 .LBB270-.LBB254
 13908 008e 40       		.uleb128 .LBE270-.LBB254
 13909 008f 04       		.byte	0x4
 13910 0090 42       		.uleb128 .LBB271-.LBB254
 13911 0091 52       		.uleb128 .LBE271-.LBB254
 13912 0092 04       		.byte	0x4
 13913 0093 8C01     		.uleb128 .LBB279-.LBB254
 13914 0095 9001     		.uleb128 .LBE279-.LBB254
 13915 0097 00       		.byte	0
 13916              	.LLRL59:
 13917 0098 05       		.byte	0x5
 13918 0099 0A000000 		.4byte	.LBB256
 13919 009d 04       		.byte	0x4
 13920 009e 00       		.uleb128 .LBB256-.LBB256
 13921 009f 02       		.uleb128 .LBE256-.LBB256
 13922 00a0 04       		.byte	0x4
 13923 00a1 04       		.uleb128 .LBB259-.LBB256
 13924 00a2 24       		.uleb128 .LBE259-.LBB256
 13925 00a3 00       		.byte	0
 13926              	.LLRL61:
 13927 00a4 05       		.byte	0x5
 13928 00a5 3C000000 		.4byte	.LBB265
 13929 00a9 04       		.byte	0x4
 13930 00aa 00       		.uleb128 .LBB265-.LBB265
 13931 00ab 06       		.uleb128 .LBE265-.LBB265
 13932 00ac 04       		.byte	0x4
 13933 00ad 20       		.uleb128 .LBB272-.LBB265
 13934 00ae 38       		.uleb128 .LBE272-.LBB265
 13935 00af 04       		.byte	0x4
 13936 00b0 3A       		.uleb128 .LBB273-.LBB265
 13937 00b1 3C       		.uleb128 .LBE273-.LBB265
 13938 00b2 04       		.byte	0x4
 13939 00b3 8A01     		.uleb128 .LBB305-.LBB265
 13940 00b5 9201     		.uleb128 .LBE305-.LBB265
 13941 00b7 00       		.byte	0
 13942              	.LLRL67:
 13943 00b8 05       		.byte	0x5
 13944 00b9 7C000000 		.4byte	.LBB274
 13945 00bd 04       		.byte	0x4
 13946 00be 00       		.uleb128 .LBB274-.LBB274
 13947 00bf 04       		.uleb128 .LBE274-.LBB274
 13948 00c0 04       		.byte	0x4
 13949 00c1 08       		.uleb128 .LBB278-.LBB274
 13950 00c2 14       		.uleb128 .LBE278-.LBB274
 13951 00c3 04       		.byte	0x4
 13952 00c4 56       		.uleb128 .LBB307-.LBB274
 13953 00c5 5A       		.uleb128 .LBE307-.LBB274
 13954 00c6 00       		.byte	0
 13955              	.LLRL72:
 13956 00c7 05       		.byte	0x5
 13957 00c8 9A000000 		.4byte	.LBB280
ARM GAS  C:\Users\DEVELO~1\AppData\Local\Temp\ccuGzkMt.s 			page 246


 13958 00cc 04       		.byte	0x4
 13959 00cd 00       		.uleb128 .LBB280-.LBB280
 13960 00ce 26       		.uleb128 .LBE280-.LBB280
 13961 00cf 04       		.byte	0x4
 13962 00d0 34       		.uleb128 .LBB306-.LBB280
 13963 00d1 38       		.uleb128 .LBE306-.LBB280
 13964 00d2 04       		.byte	0x4
 13965 00d3 3C       		.uleb128 .LBB308-.LBB280
 13966 00d4 56       		.uleb128 .LBE308-.LBB280
 13967 00d5 00       		.byte	0
 13968              	.LLRL79:
 13969 00d6 05       		.byte	0x5
 13970 00d7 D6000000 		.4byte	.LBB299
 13971 00db 04       		.byte	0x4
 13972 00dc 00       		.uleb128 .LBB299-.LBB299
 13973 00dd 0C       		.uleb128 .LBE299-.LBB299
 13974 00de 04       		.byte	0x4
 13975 00df 0E       		.uleb128 .LBB302-.LBB299
 13976 00e0 1A       		.uleb128 .LBE302-.LBB299
 13977 00e1 00       		.byte	0
 13978              	.LLRL85:
 13979 00e2 05       		.byte	0x5
 13980 00e3 08000000 		.4byte	.LBB327
 13981 00e7 04       		.byte	0x4
 13982 00e8 00       		.uleb128 .LBB327-.LBB327
 13983 00e9 04       		.uleb128 .LBE327-.LBB327
 13984 00ea 04       		.byte	0x4
 13985 00eb 06       		.uleb128 .LBB331-.LBB327
 13986 00ec 0A       		.uleb128 .LBE331-.LBB327
 13987 00ed 04       		.byte	0x4
 13988 00ee 0C       		.uleb128 .LBB332-.LBB327
 13989 00ef 28       		.uleb128 .LBE332-.LBB327
 13990 00f0 00       		.byte	0
 13991              	.LLRL87:
 13992 00f1 05       		.byte	0x5
 13993 00f2 40000000 		.4byte	.LBB333
 13994 00f6 04       		.byte	0x4
 13995 00f7 00       		.uleb128 .LBB333-.LBB333
 13996 00f8 FA01     		.uleb128 .LBE333-.LBB333
 13997 00fa 04       		.byte	0x4
 13998 00fb 8002     		.uleb128 .LBB395-.LBB333
 13999 00fd 9A02     		.uleb128 .LBE395-.LBB333
 14000 00ff 04       		.byte	0x4
 14001 0100 A002     		.uleb128 .LBB396-.LBB333
 14002 0102 B402     		.uleb128 .LBE396-.LBB333
 14003 0104 00       		.byte	0
 14004              	.LLRL92:
 14005 0105 05       		.byte	0x5
 14006 0106 5C000000 		.4byte	.LBB335
 14007 010a 04       		.byte	0x4
 14008 010b 00       		.uleb128 .LBB335-.LBB335
 14009 010c 32       		.uleb128 .LBE335-.LBB335
 14010 010d 04       		.byte	0x4
 14011 010e 5A       		.uleb128 .LBB382-.LBB335
 14012 010f 7C       		.uleb128 .LBE382-.LBB335
 14013 0110 04       		.byte	0x4
 14014 0111 A601     		.uleb128 .LBB385-.LBB335
ARM GAS  C:\Users\DEVELO~1\AppData\Local\Temp\ccuGzkMt.s 			page 247


 14015 0113 AC01     		.uleb128 .LBE385-.LBB335
 14016 0115 04       		.byte	0x4
 14017 0116 E401     		.uleb128 .LBB388-.LBB335
 14018 0118 EA01     		.uleb128 .LBE388-.LBB335
 14019 011a 00       		.byte	0
 14020              	.LLRL97:
 14021 011b 05       		.byte	0x5
 14022 011c 68000000 		.4byte	.LBB337
 14023 0120 04       		.byte	0x4
 14024 0121 00       		.uleb128 .LBB337-.LBB337
 14025 0122 02       		.uleb128 .LBE337-.LBB337
 14026 0123 04       		.byte	0x4
 14027 0124 04       		.uleb128 .LBB342-.LBB337
 14028 0125 1C       		.uleb128 .LBE342-.LBB337
 14029 0126 04       		.byte	0x4
 14030 0127 1E       		.uleb128 .LBB343-.LBB337
 14031 0128 20       		.uleb128 .LBE343-.LBB337
 14032 0129 04       		.byte	0x4
 14033 012a 9A01     		.uleb128 .LBB349-.LBB337
 14034 012c A001     		.uleb128 .LBE349-.LBB337
 14035 012e 00       		.byte	0
 14036              	.LLRL102:
 14037 012f 05       		.byte	0x5
 14038 0130 B6000000 		.4byte	.LBB344
 14039 0134 04       		.byte	0x4
 14040 0135 00       		.uleb128 .LBB344-.LBB344
 14041 0136 18       		.uleb128 .LBE344-.LBB344
 14042 0137 04       		.byte	0x4
 14043 0138 1A       		.uleb128 .LBB348-.LBB344
 14044 0139 1C       		.uleb128 .LBE348-.LBB344
 14045 013a 04       		.byte	0x4
 14046 013b 8A01     		.uleb128 .LBB350-.LBB344
 14047 013d 9001     		.uleb128 .LBE350-.LBB344
 14048 013f 00       		.byte	0
 14049              	.LLRL107:
 14050 0140 05       		.byte	0x5
 14051 0141 A2000000 		.4byte	.LBB354
 14052 0145 04       		.byte	0x4
 14053 0146 00       		.uleb128 .LBB354-.LBB354
 14054 0147 04       		.uleb128 .LBE354-.LBB354
 14055 0148 04       		.byte	0x4
 14056 0149 06       		.uleb128 .LBB381-.LBB354
 14057 014a 14       		.uleb128 .LBE381-.LBB354
 14058 014b 04       		.byte	0x4
 14059 014c 4C       		.uleb128 .LBB383-.LBB354
 14060 014d 50       		.uleb128 .LBE383-.LBB354
 14061 014e 04       		.byte	0x4
 14062 014f 52       		.uleb128 .LBB384-.LBB354
 14063 0150 60       		.uleb128 .LBE384-.LBB354
 14064 0151 04       		.byte	0x4
 14065 0152 66       		.uleb128 .LBB386-.LBB354
 14066 0153 9201     		.uleb128 .LBE386-.LBB354
 14067 0155 04       		.byte	0x4
 14068 0156 9601     		.uleb128 .LBB387-.LBB354
 14069 0158 9801     		.uleb128 .LBE387-.LBB354
 14070 015a 04       		.byte	0x4
 14071 015b A401     		.uleb128 .LBB389-.LBB354
ARM GAS  C:\Users\DEVELO~1\AppData\Local\Temp\ccuGzkMt.s 			page 248


 14072 015d A801     		.uleb128 .LBE389-.LBB354
 14073 015f 04       		.byte	0x4
 14074 0160 AC01     		.uleb128 .LBB390-.LBB354
 14075 0162 B801     		.uleb128 .LBE390-.LBB354
 14076 0164 04       		.byte	0x4
 14077 0165 BE01     		.uleb128 .LBB391-.LBB354
 14078 0167 C001     		.uleb128 .LBE391-.LBB354
 14079 0169 04       		.byte	0x4
 14080 016a C401     		.uleb128 .LBB392-.LBB354
 14081 016c D201     		.uleb128 .LBE392-.LBB354
 14082 016e 00       		.byte	0
 14083              	.LLRL112:
 14084 016f 05       		.byte	0x5
 14085 0170 18010000 		.4byte	.LBB356
 14086 0174 04       		.byte	0x4
 14087 0175 00       		.uleb128 .LBB356-.LBB356
 14088 0176 1C       		.uleb128 .LBE356-.LBB356
 14089 0177 04       		.byte	0x4
 14090 0178 20       		.uleb128 .LBB369-.LBB356
 14091 0179 22       		.uleb128 .LBE369-.LBB356
 14092 017a 04       		.byte	0x4
 14093 017b 48       		.uleb128 .LBB370-.LBB356
 14094 017c 4A       		.uleb128 .LBE370-.LBB356
 14095 017d 04       		.byte	0x4
 14096 017e 4E       		.uleb128 .LBB371-.LBB356
 14097 017f 5C       		.uleb128 .LBE371-.LBB356
 14098 0180 00       		.byte	0
 14099              	.LLRL125:
 14100 0181 05       		.byte	0x5
 14101 0182 08000000 		.4byte	.LBB415
 14102 0186 04       		.byte	0x4
 14103 0187 00       		.uleb128 .LBB415-.LBB415
 14104 0188 04       		.uleb128 .LBE415-.LBB415
 14105 0189 04       		.byte	0x4
 14106 018a 06       		.uleb128 .LBB419-.LBB415
 14107 018b 0A       		.uleb128 .LBE419-.LBB415
 14108 018c 04       		.byte	0x4
 14109 018d 0C       		.uleb128 .LBB420-.LBB415
 14110 018e 28       		.uleb128 .LBE420-.LBB415
 14111 018f 00       		.byte	0
 14112              	.LLRL127:
 14113 0190 05       		.byte	0x5
 14114 0191 40000000 		.4byte	.LBB421
 14115 0195 04       		.byte	0x4
 14116 0196 00       		.uleb128 .LBB421-.LBB421
 14117 0197 FA01     		.uleb128 .LBE421-.LBB421
 14118 0199 04       		.byte	0x4
 14119 019a 8002     		.uleb128 .LBB483-.LBB421
 14120 019c 9A02     		.uleb128 .LBE483-.LBB421
 14121 019e 04       		.byte	0x4
 14122 019f A002     		.uleb128 .LBB484-.LBB421
 14123 01a1 B402     		.uleb128 .LBE484-.LBB421
 14124 01a3 00       		.byte	0
 14125              	.LLRL132:
 14126 01a4 05       		.byte	0x5
 14127 01a5 5C000000 		.4byte	.LBB423
 14128 01a9 04       		.byte	0x4
ARM GAS  C:\Users\DEVELO~1\AppData\Local\Temp\ccuGzkMt.s 			page 249


 14129 01aa 00       		.uleb128 .LBB423-.LBB423
 14130 01ab 32       		.uleb128 .LBE423-.LBB423
 14131 01ac 04       		.byte	0x4
 14132 01ad 5A       		.uleb128 .LBB470-.LBB423
 14133 01ae 7C       		.uleb128 .LBE470-.LBB423
 14134 01af 04       		.byte	0x4
 14135 01b0 A601     		.uleb128 .LBB473-.LBB423
 14136 01b2 AC01     		.uleb128 .LBE473-.LBB423
 14137 01b4 04       		.byte	0x4
 14138 01b5 E401     		.uleb128 .LBB476-.LBB423
 14139 01b7 EA01     		.uleb128 .LBE476-.LBB423
 14140 01b9 00       		.byte	0
 14141              	.LLRL137:
 14142 01ba 05       		.byte	0x5
 14143 01bb 68000000 		.4byte	.LBB425
 14144 01bf 04       		.byte	0x4
 14145 01c0 00       		.uleb128 .LBB425-.LBB425
 14146 01c1 02       		.uleb128 .LBE425-.LBB425
 14147 01c2 04       		.byte	0x4
 14148 01c3 04       		.uleb128 .LBB430-.LBB425
 14149 01c4 1C       		.uleb128 .LBE430-.LBB425
 14150 01c5 04       		.byte	0x4
 14151 01c6 1E       		.uleb128 .LBB431-.LBB425
 14152 01c7 20       		.uleb128 .LBE431-.LBB425
 14153 01c8 04       		.byte	0x4
 14154 01c9 9A01     		.uleb128 .LBB437-.LBB425
 14155 01cb A001     		.uleb128 .LBE437-.LBB425
 14156 01cd 00       		.byte	0
 14157              	.LLRL142:
 14158 01ce 05       		.byte	0x5
 14159 01cf B6000000 		.4byte	.LBB432
 14160 01d3 04       		.byte	0x4
 14161 01d4 00       		.uleb128 .LBB432-.LBB432
 14162 01d5 18       		.uleb128 .LBE432-.LBB432
 14163 01d6 04       		.byte	0x4
 14164 01d7 1A       		.uleb128 .LBB436-.LBB432
 14165 01d8 1C       		.uleb128 .LBE436-.LBB432
 14166 01d9 04       		.byte	0x4
 14167 01da 8A01     		.uleb128 .LBB438-.LBB432
 14168 01dc 9001     		.uleb128 .LBE438-.LBB432
 14169 01de 00       		.byte	0
 14170              	.LLRL147:
 14171 01df 05       		.byte	0x5
 14172 01e0 A2000000 		.4byte	.LBB442
 14173 01e4 04       		.byte	0x4
 14174 01e5 00       		.uleb128 .LBB442-.LBB442
 14175 01e6 04       		.uleb128 .LBE442-.LBB442
 14176 01e7 04       		.byte	0x4
 14177 01e8 06       		.uleb128 .LBB469-.LBB442
 14178 01e9 14       		.uleb128 .LBE469-.LBB442
 14179 01ea 04       		.byte	0x4
 14180 01eb 4C       		.uleb128 .LBB471-.LBB442
 14181 01ec 50       		.uleb128 .LBE471-.LBB442
 14182 01ed 04       		.byte	0x4
 14183 01ee 52       		.uleb128 .LBB472-.LBB442
 14184 01ef 60       		.uleb128 .LBE472-.LBB442
 14185 01f0 04       		.byte	0x4
ARM GAS  C:\Users\DEVELO~1\AppData\Local\Temp\ccuGzkMt.s 			page 250


 14186 01f1 66       		.uleb128 .LBB474-.LBB442
 14187 01f2 9201     		.uleb128 .LBE474-.LBB442
 14188 01f4 04       		.byte	0x4
 14189 01f5 9601     		.uleb128 .LBB475-.LBB442
 14190 01f7 9801     		.uleb128 .LBE475-.LBB442
 14191 01f9 04       		.byte	0x4
 14192 01fa A401     		.uleb128 .LBB477-.LBB442
 14193 01fc A801     		.uleb128 .LBE477-.LBB442
 14194 01fe 04       		.byte	0x4
 14195 01ff AC01     		.uleb128 .LBB478-.LBB442
 14196 0201 B801     		.uleb128 .LBE478-.LBB442
 14197 0203 04       		.byte	0x4
 14198 0204 BE01     		.uleb128 .LBB479-.LBB442
 14199 0206 C001     		.uleb128 .LBE479-.LBB442
 14200 0208 04       		.byte	0x4
 14201 0209 C401     		.uleb128 .LBB480-.LBB442
 14202 020b D201     		.uleb128 .LBE480-.LBB442
 14203 020d 00       		.byte	0
 14204              	.LLRL152:
 14205 020e 05       		.byte	0x5
 14206 020f 18010000 		.4byte	.LBB444
 14207 0213 04       		.byte	0x4
 14208 0214 00       		.uleb128 .LBB444-.LBB444
 14209 0215 1C       		.uleb128 .LBE444-.LBB444
 14210 0216 04       		.byte	0x4
 14211 0217 20       		.uleb128 .LBB457-.LBB444
 14212 0218 22       		.uleb128 .LBE457-.LBB444
 14213 0219 04       		.byte	0x4
 14214 021a 48       		.uleb128 .LBB458-.LBB444
 14215 021b 4A       		.uleb128 .LBE458-.LBB444
 14216 021c 04       		.byte	0x4
 14217 021d 4E       		.uleb128 .LBB459-.LBB444
 14218 021e 5C       		.uleb128 .LBE459-.LBB444
 14219 021f 00       		.byte	0
 14220              	.LLRL165:
 14221 0220 05       		.byte	0x5
 14222 0221 06000000 		.4byte	.LBB485
 14223 0225 04       		.byte	0x4
 14224 0226 00       		.uleb128 .LBB485-.LBB485
 14225 0227 00       		.uleb128 .LBE485-.LBB485
 14226 0228 04       		.byte	0x4
 14227 0229 06       		.uleb128 .LBB486-.LBB485
 14228 022a 38       		.uleb128 .LBE486-.LBB485
 14229 022b 04       		.byte	0x4
 14230 022c 3E       		.uleb128 .LBB487-.LBB485
 14231 022d 40       		.uleb128 .LBE487-.LBB485
 14232 022e 00       		.byte	0
 14233              	.LLRL171:
 14234 022f 05       		.byte	0x5
 14235 0230 06000000 		.4byte	.LBB488
 14236 0234 04       		.byte	0x4
 14237 0235 00       		.uleb128 .LBB488-.LBB488
 14238 0236 00       		.uleb128 .LBE488-.LBB488
 14239 0237 04       		.byte	0x4
 14240 0238 06       		.uleb128 .LBB489-.LBB488
 14241 0239 36       		.uleb128 .LBE489-.LBB488
 14242 023a 04       		.byte	0x4
ARM GAS  C:\Users\DEVELO~1\AppData\Local\Temp\ccuGzkMt.s 			page 251


 14243 023b 3A       		.uleb128 .LBB490-.LBB488
 14244 023c 3C       		.uleb128 .LBE490-.LBB488
 14245 023d 00       		.byte	0
 14246              	.LLRL175:
 14247 023e 05       		.byte	0x5
 14248 023f 00000000 		.4byte	.LBB491
 14249 0243 04       		.byte	0x4
 14250 0244 00       		.uleb128 .LBB491-.LBB491
 14251 0245 02       		.uleb128 .LBE491-.LBB491
 14252 0246 04       		.byte	0x4
 14253 0247 04       		.uleb128 .LBB502-.LBB491
 14254 0248 08       		.uleb128 .LBE502-.LBB491
 14255 0249 00       		.byte	0
 14256              	.LLRL177:
 14257 024a 05       		.byte	0x5
 14258 024b 0C000000 		.4byte	.LBB503
 14259 024f 04       		.byte	0x4
 14260 0250 00       		.uleb128 .LBB503-.LBB503
 14261 0251 04       		.uleb128 .LBE503-.LBB503
 14262 0252 04       		.byte	0x4
 14263 0253 06       		.uleb128 .LBB506-.LBB503
 14264 0254 0A       		.uleb128 .LBE506-.LBB503
 14265 0255 00       		.byte	0
 14266              	.LLRL181:
 14267 0256 07       		.byte	0x7
 14268 0257 00000000 		.4byte	.LFB454
 14269 025b 34       		.uleb128 .LFE454-.LFB454
 14270 025c 07       		.byte	0x7
 14271 025d 00000000 		.4byte	.LFB453
 14272 0261 78       		.uleb128 .LFE453-.LFB453
 14273 0262 07       		.byte	0x7
 14274 0263 00000000 		.4byte	.LFB456
 14275 0267 34       		.uleb128 .LFE456-.LFB456
 14276 0268 07       		.byte	0x7
 14277 0269 00000000 		.4byte	.LFB457
 14278 026d 58       		.uleb128 .LFE457-.LFB457
 14279 026e 07       		.byte	0x7
 14280 026f 00000000 		.4byte	.LFB458
 14281 0273 54       		.uleb128 .LFE458-.LFB458
 14282 0274 07       		.byte	0x7
 14283 0275 00000000 		.4byte	.LFB459
 14284 0279 44       		.uleb128 .LFE459-.LFB459
 14285 027a 07       		.byte	0x7
 14286 027b 00000000 		.4byte	.LFB460
 14287 027f 74       		.uleb128 .LFE460-.LFB460
 14288 0280 07       		.byte	0x7
 14289 0281 00000000 		.4byte	.LFB461
 14290 0285 0A       		.uleb128 .LFE461-.LFB461
 14291 0286 07       		.byte	0x7
 14292 0287 00000000 		.4byte	.LFB462
 14293 028b 24       		.uleb128 .LFE462-.LFB462
 14294 028c 07       		.byte	0x7
 14295 028d 00000000 		.4byte	.LFB463
 14296 0291 16       		.uleb128 .LFE463-.LFB463
 14297 0292 07       		.byte	0x7
 14298 0293 00000000 		.4byte	.LFB464
 14299 0297 2C       		.uleb128 .LFE464-.LFB464
ARM GAS  C:\Users\DEVELO~1\AppData\Local\Temp\ccuGzkMt.s 			page 252


 14300 0298 07       		.byte	0x7
 14301 0299 00000000 		.4byte	.LFB465
 14302 029d 2C       		.uleb128 .LFE465-.LFB465
 14303 029e 07       		.byte	0x7
 14304 029f 00000000 		.4byte	.LFB466
 14305 02a3 38       		.uleb128 .LFE466-.LFB466
 14306 02a4 07       		.byte	0x7
 14307 02a5 00000000 		.4byte	.LFB467
 14308 02a9 F001     		.uleb128 .LFE467-.LFB467
 14309 02ab 07       		.byte	0x7
 14310 02ac 00000000 		.4byte	.LFB468
 14311 02b0 F402     		.uleb128 .LFE468-.LFB468
 14312 02b2 07       		.byte	0x7
 14313 02b3 00000000 		.4byte	.LFB469
 14314 02b7 F402     		.uleb128 .LFE469-.LFB469
 14315 02b9 07       		.byte	0x7
 14316 02ba 00000000 		.4byte	.LFB470
 14317 02be 50       		.uleb128 .LFE470-.LFB470
 14318 02bf 07       		.byte	0x7
 14319 02c0 00000000 		.4byte	.LFB471
 14320 02c4 4A       		.uleb128 .LFE471-.LFB471
 14321 02c5 07       		.byte	0x7
 14322 02c6 00000000 		.4byte	.LFB472
 14323 02ca 04       		.uleb128 .LFE472-.LFB472
 14324 02cb 07       		.byte	0x7
 14325 02cc 00000000 		.4byte	.LFB473
 14326 02d0 1C       		.uleb128 .LFE473-.LFB473
 14327 02d1 00       		.byte	0
 14328              	.Ldebug_ranges3:
 14329              		.section	.debug_line,"",%progbits
 14330              	.Ldebug_line0:
 14331 0000 1A170000 		.section	.debug_str,"MS",%progbits,1
 14331      03000F04 
 14331      00000201 
 14331      FB0E0D00 
 14331      01010101 
 14332              	.LASF255:
 14333 0000 7364635F 		.ascii	"sdc_default_cfg\000"
 14333      64656661 
 14333      756C745F 
 14333      63666700 
 14334              	.LASF117:
 14335 0010 41504231 		.ascii	"APB1HRSTR\000"
 14335      48525354 
 14335      5200
 14336              	.LASF11:
 14337 001a 6C6F6E67 		.ascii	"long int\000"
 14337      20696E74 
 14337      00
 14338              	.LASF205:
 14339 0023 63737461 		.ascii	"cstack_base\000"
 14339      636B5F62 
 14339      61736500 
 14340              	.LASF39:
 14341 002f 6E616D65 		.ascii	"name\000"
 14341      00
 14342              	.LASF288:
ARM GAS  C:\Users\DEVELO~1\AppData\Local\Temp\ccuGzkMt.s 			page 253


 14343 0034 7364635F 		.ascii	"sdc_lld_start\000"
 14343      6C6C645F 
 14343      73746172 
 14343      7400
 14344              	.LASF188:
 14345 0042 74687265 		.ascii	"thread_reference_t\000"
 14345      61645F72 
 14345      65666572 
 14345      656E6365 
 14345      5F7400
 14346              	.LASF233:
 14347 0055 73646366 		.ascii	"sdcflags_t\000"
 14347      6C616773 
 14347      5F7400
 14348              	.LASF32:
 14349 0060 74687265 		.ascii	"thread_t\000"
 14349      61645F74 
 14349      00
 14350              	.LASF41:
 14351 0069 64697370 		.ascii	"dispose\000"
 14351      6F736500 
 14352              	.LASF22:
 14353 0071 706F7274 		.ascii	"port_stkline_t\000"
 14353      5F73746B 
 14353      6C696E65 
 14353      5F7400
 14354              	.LASF185:
 14355 0080 63685F72 		.ascii	"ch_registry\000"
 14355      65676973 
 14355      74727900 
 14356              	.LASF140:
 14357 008c 41504232 		.ascii	"APB2LPENR\000"
 14357      4C50454E 
 14357      5200
 14358              	.LASF235:
 14359 0096 63617061 		.ascii	"capacity\000"
 14359      63697479 
 14359      00
 14360              	.LASF61:
 14361 009f 63685F72 		.ascii	"ch_rfcu\000"
 14361      66637500 
 14362              	.LASF118:
 14363 00a7 41504232 		.ascii	"APB2RSTR\000"
 14363      52535452 
 14363      00
 14364              	.LASF289:
 14365 00b0 7364635F 		.ascii	"sdc_lld_init\000"
 14365      6C6C645F 
 14365      696E6974 
 14365      00
 14366              	.LASF172:
 14367 00bd 70726576 		.ascii	"prev\000"
 14367      00
 14368              	.LASF37:
 14369 00c2 666C6167 		.ascii	"flags\000"
 14369      7300
 14370              	.LASF67:
ARM GAS  C:\Users\DEVELO~1\AppData\Local\Temp\ccuGzkMt.s 			page 254


 14371 00c8 73797374 		.ascii	"systime_t\000"
 14371      696D655F 
 14371      7400
 14372              	.LASF47:
 14373 00d2 7265616C 		.ascii	"realprio\000"
 14373      7072696F 
 14373      00
 14374              	.LASF80:
 14375 00db 62756666 		.ascii	"buffer\000"
 14375      657200
 14376              	.LASF98:
 14377 00e2 504C4C33 		.ascii	"PLL3FRACR\000"
 14377      46524143 
 14377      5200
 14378              	.LASF280:
 14379 00ec 7364635F 		.ascii	"sdc_lld_serve_interrupt\000"
 14379      6C6C645F 
 14379      73657276 
 14379      655F696E 
 14379      74657272 
 14380              	.LASF214:
 14381 0104 424C4B5F 		.ascii	"BLK_ACTIVE\000"
 14381      41435449 
 14381      564500
 14382              	.LASF319:
 14383 010f 433A5C43 		.ascii	"C:\\ChibiStudio\\chibios2111\\demos\\STM32\\RT-STM3"
 14383      68696269 
 14383      53747564 
 14383      696F5C63 
 14383      68696269 
 14384 013d 32483734 		.ascii	"2H743ZI_REV_XY-NUCLEO144 - Copie\000"
 14384      335A495F 
 14384      5245565F 
 14384      58592D4E 
 14384      55434C45 
 14385              	.LASF250:
 14386 015e 64697363 		.ascii	"disconnect\000"
 14386      6F6E6E65 
 14386      637400
 14387              	.LASF45:
 14388 0169 6570656E 		.ascii	"epending\000"
 14388      64696E67 
 14388      00
 14389              	.LASF275:
 14390 0172 7364635F 		.ascii	"sdc_lld_read_special\000"
 14390      6C6C645F 
 14390      72656164 
 14390      5F737065 
 14390      6369616C 
 14391              	.LASF169:
 14392 0187 6E657874 		.ascii	"next\000"
 14392      00
 14393              	.LASF20:
 14394 018c 75696E74 		.ascii	"uint32_t\000"
 14394      33325F74 
 14394      00
 14395              	.LASF78:
ARM GAS  C:\Users\DEVELO~1\AppData\Local\Temp\ccuGzkMt.s 			page 255


 14396 0195 73757370 		.ascii	"suspended\000"
 14396      656E6465 
 14396      6400
 14397              	.LASF222:
 14398 019f 626C6B5F 		.ascii	"blk_size\000"
 14398      73697A65 
 14398      00
 14399              	.LASF54:
 14400 01a8 636F7265 		.ascii	"core_id\000"
 14400      5F696400 
 14401              	.LASF89:
 14402 01b0 44334346 		.ascii	"D3CFGR\000"
 14402      475200
 14403              	.LASF231:
 14404 01b7 73646362 		.ascii	"sdcbusclk_t\000"
 14404      7573636C 
 14404      6B5F7400 
 14405              	.LASF109:
 14406 01c3 42444352 		.ascii	"BDCR\000"
 14406      00
 14407              	.LASF285:
 14408 01c8 7364635F 		.ascii	"sdc_lld_set_data_clk\000"
 14408      6C6C645F 
 14408      7365745F 
 14408      64617461 
 14408      5F636C6B 
 14409              	.LASF38:
 14410 01dd 72656673 		.ascii	"refs\000"
 14410      00
 14411              	.LASF145:
 14412 01e2 434C4B43 		.ascii	"CLKCR\000"
 14412      5200
 14413              	.LASF244:
 14414 01e8 53444343 		.ascii	"SDCConfig\000"
 14414      6F6E6669 
 14414      6700
 14415              	.LASF232:
 14416 01f2 7364636D 		.ascii	"sdcmode_t\000"
 14416      6F64655F 
 14416      7400
 14417              	.LASF143:
 14418 01fc 5243435F 		.ascii	"RCC_TypeDef\000"
 14418      54797065 
 14418      44656600 
 14419              	.LASF294:
 14420 0208 7364635F 		.ascii	"sdc_lld_get_timeout\000"
 14420      6C6C645F 
 14420      6765745F 
 14420      74696D65 
 14420      6F757400 
 14421              	.LASF215:
 14422 021c 424C4B5F 		.ascii	"BLK_CONNECTING\000"
 14422      434F4E4E 
 14422      45435449 
 14422      4E4700
 14423              	.LASF70:
 14424 022b 77746F62 		.ascii	"wtobjp\000"
ARM GAS  C:\Users\DEVELO~1\AppData\Local\Temp\ccuGzkMt.s 			page 256


 14424      6A7000
 14425              	.LASF314:
 14426 0232 706F7274 		.ascii	"port_lock\000"
 14426      5F6C6F63 
 14426      6B00
 14427              	.LASF52:
 14428 023c 76746C69 		.ascii	"vtlist\000"
 14428      737400
 14429              	.LASF97:
 14430 0243 504C4C33 		.ascii	"PLL3DIVR\000"
 14430      44495652 
 14430      00
 14431              	.LASF166:
 14432 024c 706F7274 		.ascii	"port_context\000"
 14432      5F636F6E 
 14432      74657874 
 14432      00
 14433              	.LASF312:
 14434 0259 706F7274 		.ascii	"port_lock_from_isr\000"
 14434      5F6C6F63 
 14434      6B5F6672 
 14434      6F6D5F69 
 14434      737200
 14435              	.LASF170:
 14436 026c 63685F71 		.ascii	"ch_queue_t\000"
 14436      75657565 
 14436      5F7400
 14437              	.LASF201:
 14438 0277 63685F72 		.ascii	"ch_ready_list\000"
 14438      65616479 
 14438      5F6C6973 
 14438      7400
 14439              	.LASF270:
 14440 0285 7364635F 		.ascii	"sdc_lld_read\000"
 14440      6C6C645F 
 14440      72656164 
 14440      00
 14441              	.LASF183:
 14442 0292 6C617374 		.ascii	"laststamp\000"
 14442      7374616D 
 14442      7000
 14443              	.LASF163:
 14444 029c 49505652 		.ascii	"IPVR\000"
 14444      00
 14445              	.LASF198:
 14446 02a1 65776D61 		.ascii	"ewmask\000"
 14446      736B00
 14447              	.LASF283:
 14448 02a8 6D6F6465 		.ascii	"mode\000"
 14448      00
 14449              	.LASF292:
 14450 02ad 7364635F 		.ascii	"sdc_lld_prepare_read\000"
 14450      6C6C645F 
 14450      70726570 
 14450      6172655F 
 14450      72656164 
 14451              	.LASF135:
ARM GAS  C:\Users\DEVELO~1\AppData\Local\Temp\ccuGzkMt.s 			page 257


 14452 02c2 41484232 		.ascii	"AHB2LPENR\000"
 14452      4C50454E 
 14452      5200
 14453              	.LASF321:
 14454 02cc 5F5F6275 		.ascii	"__builtin_memcpy\000"
 14454      696C7469 
 14454      6E5F6D65 
 14454      6D637079 
 14454      00
 14455              	.LASF308:
 14456 02dd 63685379 		.ascii	"chSysLockFromISR\000"
 14456      734C6F63 
 14456      6B46726F 
 14456      6D495352 
 14456      00
 14457              	.LASF168:
 14458 02ee 63685F6C 		.ascii	"ch_list\000"
 14458      69737400 
 14459              	.LASF212:
 14460 02f6 424C4B5F 		.ascii	"BLK_UNINIT\000"
 14460      554E494E 
 14460      495400
 14461              	.LASF127:
 14462 0301 41504233 		.ascii	"APB3ENR\000"
 14462      454E5200 
 14463              	.LASF64:
 14464 0309 63685F73 		.ascii	"ch_system_debug\000"
 14464      79737465 
 14464      6D5F6465 
 14464      62756700 
 14465              	.LASF190:
 14466 0319 6C697374 		.ascii	"list\000"
 14466      00
 14467              	.LASF261:
 14468 031e 63685468 		.ascii	"chThdResumeI\000"
 14468      64526573 
 14468      756D6549 
 14468      00
 14469              	.LASF300:
 14470 032b 6F73616C 		.ascii	"osalThreadSuspendS\000"
 14470      54687265 
 14470      61645375 
 14470      7370656E 
 14470      645300
 14471              	.LASF177:
 14472 033e 63685F64 		.ascii	"ch_delta_list\000"
 14472      656C7461 
 14472      5F6C6973 
 14472      7400
 14473              	.LASF264:
 14474 034c 73646370 		.ascii	"sdcp\000"
 14474      00
 14475              	.LASF195:
 14476 0351 73656E74 		.ascii	"sentmsg\000"
 14476      6D736700 
 14477              	.LASF247:
 14478 0359 69735F69 		.ascii	"is_inserted\000"
ARM GAS  C:\Users\DEVELO~1\AppData\Local\Temp\ccuGzkMt.s 			page 258


 14478      6E736572 
 14478      74656400 
 14479              	.LASF29:
 14480 0365 6576656E 		.ascii	"eventmask_t\000"
 14480      746D6173 
 14480      6B5F7400 
 14481              	.LASF77:
 14482 0371 74726163 		.ascii	"trace_event_t\000"
 14482      655F6576 
 14482      656E745F 
 14482      7400
 14483              	.LASF243:
 14484 037f 736C6F77 		.ascii	"slowdown\000"
 14484      646F776E 
 14484      00
 14485              	.LASF291:
 14486 0388 7364635F 		.ascii	"sdc_lld_prepare_write\000"
 14486      6C6C645F 
 14486      70726570 
 14486      6172655F 
 14486      77726974 
 14487              	.LASF199:
 14488 039e 63685F73 		.ascii	"ch_semaphore\000"
 14488      656D6170 
 14488      686F7265 
 14488      00
 14489              	.LASF124:
 14490 03ab 41484231 		.ascii	"AHB1ENR\000"
 14490      454E5200 
 14491              	.LASF27:
 14492 03b3 74707269 		.ascii	"tprio_t\000"
 14492      6F5F7400 
 14493              	.LASF76:
 14494 03bb 74696D65 		.ascii	"time\000"
 14494      00
 14495              	.LASF105:
 14496 03c0 43494552 		.ascii	"CIER\000"
 14496      00
 14497              	.LASF209:
 14498 03c5 6F735F69 		.ascii	"os_instance_config_t\000"
 14498      6E737461 
 14498      6E63655F 
 14498      636F6E66 
 14498      69675F74 
 14499              	.LASF263:
 14500 03da 7364634F 		.ascii	"sdcObjectInit\000"
 14500      626A6563 
 14500      74496E69 
 14500      7400
 14501              	.LASF72:
 14502 03e8 68616C74 		.ascii	"halt\000"
 14502      00
 14503              	.LASF281:
 14504 03ed 7364635F 		.ascii	"sdc_lld_send_cmd_none\000"
 14504      6C6C645F 
 14504      73656E64 
 14504      5F636D64 
ARM GAS  C:\Users\DEVELO~1\AppData\Local\Temp\ccuGzkMt.s 			page 259


 14504      5F6E6F6E 
 14505              	.LASF15:
 14506 0403 6C6F6E67 		.ascii	"long long unsigned int\000"
 14506      206C6F6E 
 14506      6720756E 
 14506      7369676E 
 14506      65642069 
 14507              	.LASF236:
 14508 041a 63617264 		.ascii	"cardmode\000"
 14508      6D6F6465 
 14508      00
 14509              	.LASF138:
 14510 0423 41504231 		.ascii	"APB1LLPENR\000"
 14510      4C4C5045 
 14510      4E5200
 14511              	.LASF71:
 14512 042e 72656173 		.ascii	"reason\000"
 14512      6F6E00
 14513              	.LASF59:
 14514 0435 74726163 		.ascii	"trace_buffer\000"
 14514      655F6275 
 14514      66666572 
 14514      00
 14515              	.LASF257:
 14516 0442 5F5F6E6F 		.ascii	"__nocache_sd1_wbuf\000"
 14516      63616368 
 14516      655F7364 
 14516      315F7762 
 14516      756600
 14517              	.LASF237:
 14518 0455 6572726F 		.ascii	"errors\000"
 14518      727300
 14519              	.LASF191:
 14520 045c 70717565 		.ascii	"pqueue\000"
 14520      756500
 14521              	.LASF8:
 14522 0463 5F5F7569 		.ascii	"__uint16_t\000"
 14522      6E743136 
 14522      5F7400
 14523              	.LASF30:
 14524 046e 636E745F 		.ascii	"cnt_t\000"
 14524      7400
 14525              	.LASF23:
 14526 0474 73746B6C 		.ascii	"stkline_t\000"
 14526      696E655F 
 14526      7400
 14527              	.LASF226:
 14528 047e 5344435F 		.ascii	"SDC_MODE_4BIT\000"
 14528      4D4F4445 
 14528      5F344249 
 14528      5400
 14529              	.LASF309:
 14530 048c 63685379 		.ascii	"chSysUnlock\000"
 14530      73556E6C 
 14530      6F636B00 
 14531              	.LASF305:
 14532 0498 6F73616C 		.ascii	"osalSysUnlock\000"
ARM GAS  C:\Users\DEVELO~1\AppData\Local\Temp\ccuGzkMt.s 			page 260


 14532      53797355 
 14532      6E6C6F63 
 14532      6B00
 14533              	.LASF33:
 14534 04a6 6F776E65 		.ascii	"owner\000"
 14534      7200
 14535              	.LASF111:
 14536 04ac 41484233 		.ascii	"AHB3RSTR\000"
 14536      52535452 
 14536      00
 14537              	.LASF155:
 14538 04b5 4D41534B 		.ascii	"MASK\000"
 14538      00
 14539              	.LASF46:
 14540 04ba 6D74786C 		.ascii	"mtxlist\000"
 14540      69737400 
 14541              	.LASF179:
 14542 04c2 63685F76 		.ascii	"ch_virtual_timers_list\000"
 14542      69727475 
 14542      616C5F74 
 14542      696D6572 
 14542      735F6C69 
 14543              	.LASF55:
 14544 04d9 72666375 		.ascii	"rfcu\000"
 14544      00
 14545              	.LASF282:
 14546 04de 7364635F 		.ascii	"sdc_lld_set_bus_mode\000"
 14546      6C6C645F 
 14546      7365745F 
 14546      6275735F 
 14546      6D6F6465 
 14547              	.LASF316:
 14548 04f3 62617365 		.ascii	"basePri\000"
 14548      50726900 
 14549              	.LASF286:
 14550 04fb 7364635F 		.ascii	"sdc_lld_start_clk\000"
 14550      6C6C645F 
 14550      73746172 
 14550      745F636C 
 14550      6B00
 14551              	.LASF307:
 14552 050d 63685379 		.ascii	"chSysUnlockFromISR\000"
 14552      73556E6C 
 14552      6F636B46 
 14552      726F6D49 
 14552      535200
 14553              	.LASF73:
 14554 0520 75736572 		.ascii	"user\000"
 14554      00
 14555              	.LASF141:
 14556 0525 41504234 		.ascii	"APB4LPENR\000"
 14556      4C50454E 
 14556      5200
 14557              	.LASF4:
 14558 052f 73697A65 		.ascii	"size_t\000"
 14558      5F7400
 14559              	.LASF192:
ARM GAS  C:\Users\DEVELO~1\AppData\Local\Temp\ccuGzkMt.s 			page 261


 14560 0536 7264796D 		.ascii	"rdymsg\000"
 14560      736700
 14561              	.LASF304:
 14562 053d 6F73616C 		.ascii	"osalSysLockFromISR\000"
 14562      5379734C 
 14562      6F636B46 
 14562      726F6D49 
 14562      535200
 14563              	.LASF173:
 14564 0550 63685F70 		.ascii	"ch_priority_queue_t\000"
 14564      72696F72 
 14564      6974795F 
 14564      71756575 
 14564      655F7400 
 14565              	.LASF211:
 14566 0564 5F426F6F 		.ascii	"_Bool\000"
 14566      6C00
 14567              	.LASF269:
 14568 056a 53444344 		.ascii	"SDCD1\000"
 14568      3100
 14569              	.LASF42:
 14570 0570 6F626A65 		.ascii	"object\000"
 14570      637400
 14571              	.LASF271:
 14572 0577 7364635F 		.ascii	"sdc_lld_write_aligned\000"
 14572      6C6C645F 
 14572      77726974 
 14572      655F616C 
 14572      69676E65 
 14573              	.LASF119:
 14574 058d 41504234 		.ascii	"APB4RSTR\000"
 14574      52535452 
 14574      00
 14575              	.LASF224:
 14576 0596 426C6F63 		.ascii	"BlockDeviceInfo\000"
 14576      6B446576 
 14576      69636549 
 14576      6E666F00 
 14577              	.LASF254:
 14578 05a6 6765745F 		.ascii	"get_info\000"
 14578      696E666F 
 14578      00
 14579              	.LASF276:
 14580 05af 62797465 		.ascii	"bytes\000"
 14580      7300
 14581              	.LASF200:
 14582 05b5 63685F6D 		.ascii	"ch_mutex\000"
 14582      75746578 
 14582      00
 14583              	.LASF158:
 14584 05be 49444D41 		.ascii	"IDMACTRL\000"
 14584      4354524C 
 14584      00
 14585              	.LASF50:
 14586 05c7 63685F6F 		.ascii	"ch_os_instance\000"
 14586      735F696E 
 14586      7374616E 
ARM GAS  C:\Users\DEVELO~1\AppData\Local\Temp\ccuGzkMt.s 			page 262


 14586      636500
 14587              	.LASF125:
 14588 05d6 41484232 		.ascii	"AHB2ENR\000"
 14588      454E5200 
 14589              	.LASF123:
 14590 05de 41484233 		.ascii	"AHB3ENR\000"
 14590      454E5200 
 14591              	.LASF310:
 14592 05e6 63685379 		.ascii	"chSysLock\000"
 14592      734C6F63 
 14592      6B00
 14593              	.LASF101:
 14594 05f0 44324343 		.ascii	"D2CCIP1R\000"
 14594      49503152 
 14594      00
 14595              	.LASF274:
 14596 05f9 6572726F 		.ascii	"error\000"
 14596      7200
 14597              	.LASF175:
 14598 05ff 7072696F 		.ascii	"prio\000"
 14598      00
 14599              	.LASF216:
 14600 0604 424C4B5F 		.ascii	"BLK_DISCONNECTING\000"
 14600      44495343 
 14600      4F4E4E45 
 14600      4354494E 
 14600      4700
 14601              	.LASF219:
 14602 0616 424C4B5F 		.ascii	"BLK_WRITING\000"
 14602      57524954 
 14602      494E4700 
 14603              	.LASF147:
 14604 0622 52455350 		.ascii	"RESP1\000"
 14604      3100
 14605              	.LASF148:
 14606 0628 52455350 		.ascii	"RESP2\000"
 14606      3200
 14607              	.LASF149:
 14608 062e 52455350 		.ascii	"RESP3\000"
 14608      3300
 14609              	.LASF150:
 14610 0634 52455350 		.ascii	"RESP4\000"
 14610      3400
 14611              	.LASF16:
 14612 063a 63686172 		.ascii	"char\000"
 14612      00
 14613              	.LASF176:
 14614 063f 63685F64 		.ascii	"ch_delta_list_t\000"
 14614      656C7461 
 14614      5F6C6973 
 14614      745F7400 
 14615              	.LASF60:
 14616 064f 72666375 		.ascii	"rfcu_mask_t\000"
 14616      5F6D6173 
 14616      6B5F7400 
 14617              	.LASF10:
 14618 065b 5F5F696E 		.ascii	"__int32_t\000"
ARM GAS  C:\Users\DEVELO~1\AppData\Local\Temp\ccuGzkMt.s 			page 263


 14618      7433325F 
 14618      7400
 14619              	.LASF136:
 14620 0665 41484234 		.ascii	"AHB4LPENR\000"
 14620      4C50454E 
 14620      5200
 14621              	.LASF96:
 14622 066f 504C4C32 		.ascii	"PLL2FRACR\000"
 14622      46524143 
 14622      5200
 14623              	.LASF34:
 14624 0679 77616261 		.ascii	"wabase\000"
 14624      736500
 14625              	.LASF25:
 14626 0680 74737461 		.ascii	"tstate_t\000"
 14626      74655F74 
 14626      00
 14627              	.LASF88:
 14628 0689 44324346 		.ascii	"D2CFGR\000"
 14628      475200
 14629              	.LASF223:
 14630 0690 626C6B5F 		.ascii	"blk_num\000"
 14630      6E756D00 
 14631              	.LASF14:
 14632 0698 5F5F7569 		.ascii	"__uint64_t\000"
 14632      6E743634 
 14632      5F7400
 14633              	.LASF0:
 14634 06a3 756E7369 		.ascii	"unsigned int\000"
 14634      676E6564 
 14634      20696E74 
 14634      00
 14635              	.LASF102:
 14636 06b0 44324343 		.ascii	"D2CCIP2R\000"
 14636      49503252 
 14636      00
 14637              	.LASF17:
 14638 06b9 75696E74 		.ascii	"uint8_t\000"
 14638      385F7400 
 14639              	.LASF44:
 14640 06c1 6D736771 		.ascii	"msgqueue\000"
 14640      75657565 
 14640      00
 14641              	.LASF95:
 14642 06ca 504C4C32 		.ascii	"PLL2DIVR\000"
 14642      44495652 
 14642      00
 14643              	.LASF49:
 14644 06d3 63685F74 		.ascii	"ch_thread\000"
 14644      68726561 
 14644      6400
 14645              	.LASF40:
 14646 06dd 72717565 		.ascii	"rqueue\000"
 14646      756500
 14647              	.LASF217:
 14648 06e4 424C4B5F 		.ascii	"BLK_READY\000"
 14648      52454144 
ARM GAS  C:\Users\DEVELO~1\AppData\Local\Temp\ccuGzkMt.s 			page 264


 14648      5900
 14649              	.LASF66:
 14650 06ee 73797374 		.ascii	"system_debug_t\000"
 14650      656D5F64 
 14650      65627567 
 14650      5F7400
 14651              	.LASF234:
 14652 06fd 53444344 		.ascii	"SDCDriver\000"
 14652      72697665 
 14652      7200
 14653              	.LASF277:
 14654 0707 7364635F 		.ascii	"sdc_lld_send_cmd_long_crc\000"
 14654      6C6C645F 
 14654      73656E64 
 14654      5F636D64 
 14654      5F6C6F6E 
 14655              	.LASF265:
 14656 0721 7364635F 		.ascii	"sdc_lld_sync\000"
 14656      6C6C645F 
 14656      73796E63 
 14656      00
 14657              	.LASF1:
 14658 072e 6C6F6E67 		.ascii	"long long int\000"
 14658      206C6F6E 
 14658      6720696E 
 14658      7400
 14659              	.LASF221:
 14660 073c 626C6B73 		.ascii	"blkstate_t\000"
 14660      74617465 
 14660      5F7400
 14661              	.LASF252:
 14662 0747 77726974 		.ascii	"write\000"
 14662      6500
 14663              	.LASF137:
 14664 074d 41504233 		.ascii	"APB3LPENR\000"
 14664      4C50454E 
 14664      5200
 14665              	.LASF28:
 14666 0757 6D73675F 		.ascii	"msg_t\000"
 14666      7400
 14667              	.LASF182:
 14668 075d 6C617374 		.ascii	"lastdelta\000"
 14668      64656C74 
 14668      6100
 14669              	.LASF187:
 14670 0767 72656769 		.ascii	"registry_t\000"
 14670      73747279 
 14670      5F7400
 14671              	.LASF246:
 14672 0772 696E7374 		.ascii	"instance_offset\000"
 14672      616E6365 
 14672      5F6F6666 
 14672      73657400 
 14673              	.LASF213:
 14674 0782 424C4B5F 		.ascii	"BLK_STOP\000"
 14674      53544F50 
 14674      00
ARM GAS  C:\Users\DEVELO~1\AppData\Local\Temp\ccuGzkMt.s 			page 265


 14675              	.LASF79:
 14676 078b 73697A65 		.ascii	"size\000"
 14676      00
 14677              	.LASF208:
 14678 0790 69646C65 		.ascii	"idlestack_end\000"
 14678      73746163 
 14678      6B5F656E 
 14678      6400
 14679              	.LASF296:
 14680 079e 7364635F 		.ascii	"sdc_lld_error_cleanup\000"
 14680      6C6C645F 
 14680      6572726F 
 14680      725F636C 
 14680      65616E75 
 14681              	.LASF115:
 14682 07b4 41504233 		.ascii	"APB3RSTR\000"
 14682      52535452 
 14682      00
 14683              	.LASF62:
 14684 07bd 6D61736B 		.ascii	"mask\000"
 14684      00
 14685              	.LASF162:
 14686 07c2 4649464F 		.ascii	"FIFO\000"
 14686      00
 14687              	.LASF301:
 14688 07c7 6F73616C 		.ascii	"osalThreadSleep\000"
 14688      54687265 
 14688      6164536C 
 14688      65657000 
 14689              	.LASF240:
 14690 07d7 636C6B66 		.ascii	"clkfreq\000"
 14690      72657100 
 14691              	.LASF189:
 14692 07df 74687265 		.ascii	"thread_dispose_t\000"
 14692      61645F64 
 14692      6973706F 
 14692      73655F74 
 14692      00
 14693              	.LASF68:
 14694 07f0 73797369 		.ascii	"sysinterval_t\000"
 14694      6E746572 
 14694      76616C5F 
 14694      7400
 14695              	.LASF130:
 14696 07fe 41504232 		.ascii	"APB2ENR\000"
 14696      454E5200 
 14697              	.LASF268:
 14698 0806 626C6F63 		.ascii	"blocks\000"
 14698      6B7300
 14699              	.LASF65:
 14700 080d 70616E69 		.ascii	"panic_msg\000"
 14700      635F6D73 
 14700      6700
 14701              	.LASF121:
 14702 0817 4433414D 		.ascii	"D3AMR\000"
 14702      5200
 14703              	.LASF207:
ARM GAS  C:\Users\DEVELO~1\AppData\Local\Temp\ccuGzkMt.s 			page 266


 14704 081d 69646C65 		.ascii	"idlestack_base\000"
 14704      73746163 
 14704      6B5F6261 
 14704      736500
 14705              	.LASF81:
 14706 082c 74726163 		.ascii	"trace_buffer_t\000"
 14706      655F6275 
 14706      66666572 
 14706      5F7400
 14707              	.LASF116:
 14708 083b 41504231 		.ascii	"APB1LRSTR\000"
 14708      4C525354 
 14708      5200
 14709              	.LASF24:
 14710 0845 746D6F64 		.ascii	"tmode_t\000"
 14710      655F7400 
 14711              	.LASF134:
 14712 084d 41484231 		.ascii	"AHB1LPENR\000"
 14712      4C50454E 
 14712      5200
 14713              	.LASF57:
 14714 0857 69646C65 		.ascii	"idlethread\000"
 14714      74687265 
 14714      616400
 14715              	.LASF295:
 14716 0862 7364635F 		.ascii	"sdc_lld_clkdiv\000"
 14716      6C6C645F 
 14716      636C6B64 
 14716      697600
 14717              	.LASF2:
 14718 0871 6C6F6E67 		.ascii	"long double\000"
 14718      20646F75 
 14718      626C6500 
 14719              	.LASF18:
 14720 087d 75696E74 		.ascii	"uint16_t\000"
 14720      31365F74 
 14720      00
 14721              	.LASF318:
 14722 0886 2E2F4368 		.ascii	"./ChibiOS/os/hal/ports/STM32/LLD/SDMMCv2/hal_sdc_ll"
 14722      6962694F 
 14722      532F6F73 
 14722      2F68616C 
 14722      2F706F72 
 14723 08b9 642E6300 		.ascii	"d.c\000"
 14724              	.LASF167:
 14725 08bd 63685F6C 		.ascii	"ch_list_t\000"
 14725      6973745F 
 14725      7400
 14726              	.LASF113:
 14727 08c7 41484232 		.ascii	"AHB2RSTR\000"
 14727      52535452 
 14727      00
 14728              	.LASF279:
 14729 08d0 7364635F 		.ascii	"sdc_lld_send_cmd_short\000"
 14729      6C6C645F 
 14729      73656E64 
 14729      5F636D64 
ARM GAS  C:\Users\DEVELO~1\AppData\Local\Temp\ccuGzkMt.s 			page 267


 14729      5F73686F 
 14730              	.LASF107:
 14731 08e7 43494352 		.ascii	"CICR\000"
 14731      00
 14732              	.LASF82:
 14733 08ec 48534943 		.ascii	"HSICFGR\000"
 14733      46475200 
 14734              	.LASF56:
 14735 08f4 636F6E66 		.ascii	"config\000"
 14735      696700
 14736              	.LASF317:
 14737 08fb 474E5520 		.ascii	"GNU C17 11.3.1 20220712 -mcpu=cortex-m7 -mthumb -mf"
 14737      43313720 
 14737      31312E33 
 14737      2E312032 
 14737      30323230 
 14738 092e 6C6F6174 		.ascii	"loat-abi=soft -march=armv7e-m -ggdb -O2 -fomit-fram"
 14738      2D616269 
 14738      3D736F66 
 14738      74202D6D 
 14738      61726368 
 14739 0961 652D706F 		.ascii	"e-pointer -falign-functions=16 -ffunction-sections "
 14739      696E7465 
 14739      72202D66 
 14739      616C6967 
 14739      6E2D6675 
 14740 0994 2D666461 		.ascii	"-fdata-sections -fno-common\000"
 14740      74612D73 
 14740      65637469 
 14740      6F6E7320 
 14740      2D666E6F 
 14741              	.LASF220:
 14742 09b0 424C4B5F 		.ascii	"BLK_SYNCING\000"
 14742      53594E43 
 14742      494E4700 
 14743              	.LASF157:
 14744 09bc 52455345 		.ascii	"RESERVED0\000"
 14744      52564544 
 14744      3000
 14745              	.LASF86:
 14746 09c6 52455345 		.ascii	"RESERVED1\000"
 14746      52564544 
 14746      3100
 14747              	.LASF90:
 14748 09d0 52455345 		.ascii	"RESERVED2\000"
 14748      52564544 
 14748      3200
 14749              	.LASF99:
 14750 09da 52455345 		.ascii	"RESERVED3\000"
 14750      52564544 
 14750      3300
 14751              	.LASF104:
 14752 09e4 52455345 		.ascii	"RESERVED4\000"
 14752      52564544 
 14752      3400
 14753              	.LASF110:
 14754 09ee 52455345 		.ascii	"RESERVED6\000"
ARM GAS  C:\Users\DEVELO~1\AppData\Local\Temp\ccuGzkMt.s 			page 268


 14754      52564544 
 14754      3600
 14755              	.LASF7:
 14756 09f8 73686F72 		.ascii	"short int\000"
 14756      7420696E 
 14756      7400
 14757              	.LASF120:
 14758 0a02 52455345 		.ascii	"RESERVED8\000"
 14758      52564544 
 14758      3800
 14759              	.LASF249:
 14760 0a0c 636F6E6E 		.ascii	"connect\000"
 14760      65637400 
 14761              	.LASF260:
 14762 0a14 5F736463 		.ascii	"_sdc_wait_for_transfer_state\000"
 14762      5F776169 
 14762      745F666F 
 14762      725F7472 
 14762      616E7366 
 14763              	.LASF298:
 14764 0a31 72636345 		.ascii	"rccEnableAHB3\000"
 14764      6E61626C 
 14764      65414842 
 14764      3300
 14765              	.LASF129:
 14766 0a3f 41504231 		.ascii	"APB1HENR\000"
 14766      48454E52 
 14766      00
 14767              	.LASF165:
 14768 0a48 706F7274 		.ascii	"port_intctx\000"
 14768      5F696E74 
 14768      63747800 
 14769              	.LASF151:
 14770 0a54 4454494D 		.ascii	"DTIMER\000"
 14770      455200
 14771              	.LASF297:
 14772 0a5b 72636344 		.ascii	"rccDisableAHB3\000"
 14772      69736162 
 14772      6C654148 
 14772      423300
 14773              	.LASF287:
 14774 0a6a 7364635F 		.ascii	"sdc_lld_stop\000"
 14774      6C6C645F 
 14774      73746F70 
 14774      00
 14775              	.LASF156:
 14776 0a77 41434B54 		.ascii	"ACKTIME\000"
 14776      494D4500 
 14777              	.LASF293:
 14778 0a7f 7364635F 		.ascii	"sdc_lld_prepare_read_bytes\000"
 14778      6C6C645F 
 14778      70726570 
 14778      6172655F 
 14778      72656164 
 14779              	.LASF114:
 14780 0a9a 41484234 		.ascii	"AHB4RSTR\000"
 14780      52535452 
ARM GAS  C:\Users\DEVELO~1\AppData\Local\Temp\ccuGzkMt.s 			page 269


 14780      00
 14781              	.LASF302:
 14782 0aa3 64656C61 		.ascii	"delay\000"
 14782      7900
 14783              	.LASF35:
 14784 0aa9 7761656E 		.ascii	"waend\000"
 14784      6400
 14785              	.LASF315:
 14786 0aaf 5F5F7365 		.ascii	"__set_BASEPRI\000"
 14786      745F4241 
 14786      53455052 
 14786      4900
 14787              	.LASF206:
 14788 0abd 63737461 		.ascii	"cstack_end\000"
 14788      636B5F65 
 14788      6E6400
 14789              	.LASF204:
 14790 0ac8 63685F6F 		.ascii	"ch_os_instance_config\000"
 14790      735F696E 
 14790      7374616E 
 14790      63655F63 
 14790      6F6E6669 
 14791              	.LASF180:
 14792 0ade 646C6973 		.ascii	"dlist\000"
 14792      7400
 14793              	.LASF181:
 14794 0ae4 6C617374 		.ascii	"lasttime\000"
 14794      74696D65 
 14794      00
 14795              	.LASF21:
 14796 0aed 75696E74 		.ascii	"uint64_t\000"
 14796      36345F74 
 14796      00
 14797              	.LASF100:
 14798 0af6 44314343 		.ascii	"D1CCIPR\000"
 14798      49505200 
 14799              	.LASF218:
 14800 0afe 424C4B5F 		.ascii	"BLK_READING\000"
 14800      52454144 
 14800      494E4700 
 14801              	.LASF85:
 14802 0b0a 43464752 		.ascii	"CFGR\000"
 14802      00
 14803              	.LASF152:
 14804 0b0f 444C454E 		.ascii	"DLEN\000"
 14804      00
 14805              	.LASF51:
 14806 0b14 726C6973 		.ascii	"rlist\000"
 14806      7400
 14807              	.LASF272:
 14808 0b1a 7364635F 		.ascii	"sdc_lld_read_aligned\000"
 14808      6C6C645F 
 14808      72656164 
 14808      5F616C69 
 14808      676E6564 
 14809              	.LASF303:
 14810 0b2f 6F73616C 		.ascii	"osalSysUnlockFromISR\000"
ARM GAS  C:\Users\DEVELO~1\AppData\Local\Temp\ccuGzkMt.s 			page 270


 14810      53797355 
 14810      6E6C6F63 
 14810      6B46726F 
 14810      6D495352 
 14811              	.LASF131:
 14812 0b44 41504234 		.ascii	"APB4ENR\000"
 14812      454E5200 
 14813              	.LASF5:
 14814 0b4c 5F5F7569 		.ascii	"__uint8_t\000"
 14814      6E74385F 
 14814      7400
 14815              	.LASF251:
 14816 0b56 72656164 		.ascii	"read\000"
 14816      00
 14817              	.LASF92:
 14818 0b5b 504C4C43 		.ascii	"PLLCFGR\000"
 14818      46475200 
 14819              	.LASF91:
 14820 0b63 504C4C43 		.ascii	"PLLCKSELR\000"
 14820      4B53454C 
 14820      5200
 14821              	.LASF228:
 14822 0b6d 73646362 		.ascii	"sdcbusmode_t\000"
 14822      75736D6F 
 14822      64655F74 
 14822      00
 14823              	.LASF266:
 14824 0b7a 7364635F 		.ascii	"sdc_lld_write\000"
 14824      6C6C645F 
 14824      77726974 
 14824      6500
 14825              	.LASF144:
 14826 0b88 504F5745 		.ascii	"POWER\000"
 14826      5200
 14827              	.LASF153:
 14828 0b8e 44435452 		.ascii	"DCTRL\000"
 14828      4C00
 14829              	.LASF256:
 14830 0b94 5F5F6E6F 		.ascii	"__nocache_sd1_buf\000"
 14830      63616368 
 14830      655F7364 
 14830      315F6275 
 14830      6600
 14831              	.LASF159:
 14832 0ba6 49444D41 		.ascii	"IDMABSIZE\000"
 14832      4253495A 
 14832      4500
 14833              	.LASF133:
 14834 0bb0 41484233 		.ascii	"AHB3LPENR\000"
 14834      4C50454E 
 14834      5200
 14835              	.LASF94:
 14836 0bba 504C4C31 		.ascii	"PLL1FRACR\000"
 14836      46524143 
 14836      5200
 14837              	.LASF26:
 14838 0bc4 74726566 		.ascii	"trefs_t\000"
ARM GAS  C:\Users\DEVELO~1\AppData\Local\Temp\ccuGzkMt.s 			page 271


 14838      735F7400 
 14839              	.LASF87:
 14840 0bcc 44314346 		.ascii	"D1CFGR\000"
 14840      475200
 14841              	.LASF13:
 14842 0bd3 6C6F6E67 		.ascii	"long unsigned int\000"
 14842      20756E73 
 14842      69676E65 
 14842      6420696E 
 14842      7400
 14843              	.LASF242:
 14844 0be5 6275735F 		.ascii	"bus_width\000"
 14844      77696474 
 14844      6800
 14845              	.LASF203:
 14846 0bef 72656164 		.ascii	"ready_list_t\000"
 14846      795F6C69 
 14846      73745F74 
 14846      00
 14847              	.LASF75:
 14848 0bfc 72747374 		.ascii	"rtstamp\000"
 14848      616D7000 
 14849              	.LASF186:
 14850 0c04 71756575 		.ascii	"queue\000"
 14850      6500
 14851              	.LASF306:
 14852 0c0a 6F73616C 		.ascii	"osalSysLock\000"
 14852      5379734C 
 14852      6F636B00 
 14853              	.LASF253:
 14854 0c16 73796E63 		.ascii	"sync\000"
 14854      00
 14855              	.LASF19:
 14856 0c1b 696E7433 		.ascii	"int32_t\000"
 14856      325F7400 
 14857              	.LASF63:
 14858 0c23 72666375 		.ascii	"rfcu_t\000"
 14858      5F7400
 14859              	.LASF238:
 14860 0c2a 74687265 		.ascii	"thread\000"
 14860      616400
 14861              	.LASF196:
 14862 0c31 77747365 		.ascii	"wtsemp\000"
 14862      6D7000
 14863              	.LASF174:
 14864 0c38 63685F70 		.ascii	"ch_priority_queue\000"
 14864      72696F72 
 14864      6974795F 
 14864      71756575 
 14864      6500
 14865              	.LASF93:
 14866 0c4a 504C4C31 		.ascii	"PLL1DIVR\000"
 14866      44495652 
 14866      00
 14867              	.LASF171:
 14868 0c53 63685F71 		.ascii	"ch_queue\000"
 14868      75657565 
ARM GAS  C:\Users\DEVELO~1\AppData\Local\Temp\ccuGzkMt.s 			page 272


 14868      00
 14869              	.LASF210:
 14870 0c5c 6D757465 		.ascii	"mutex_t\000"
 14870      785F7400 
 14871              	.LASF74:
 14872 0c64 74797065 		.ascii	"type\000"
 14872      00
 14873              	.LASF311:
 14874 0c69 706F7274 		.ascii	"port_unlock_from_isr\000"
 14874      5F756E6C 
 14874      6F636B5F 
 14874      66726F6D 
 14874      5F697372 
 14875              	.LASF6:
 14876 0c7e 756E7369 		.ascii	"unsigned char\000"
 14876      676E6564 
 14876      20636861 
 14876      7200
 14877              	.LASF84:
 14878 0c8c 43534943 		.ascii	"CSICFGR\000"
 14878      46475200 
 14879              	.LASF12:
 14880 0c94 5F5F7569 		.ascii	"__uint32_t\000"
 14880      6E743332 
 14880      5F7400
 14881              	.LASF43:
 14882 0c9f 77616974 		.ascii	"waiting\000"
 14882      696E6700 
 14883              	.LASF184:
 14884 0ca7 76697274 		.ascii	"virtual_timers_list_t\000"
 14884      75616C5F 
 14884      74696D65 
 14884      72735F6C 
 14884      6973745F 
 14885              	.LASF267:
 14886 0cbd 73746172 		.ascii	"startblk\000"
 14886      74626C6B 
 14886      00
 14887              	.LASF154:
 14888 0cc6 44434F55 		.ascii	"DCOUNT\000"
 14888      4E5400
 14889              	.LASF106:
 14890 0ccd 43494652 		.ascii	"CIFR\000"
 14890      00
 14891              	.LASF262:
 14892 0cd2 63685468 		.ascii	"chThdSleep\000"
 14892      64536C65 
 14892      657000
 14893              	.LASF122:
 14894 0cdd 52455345 		.ascii	"RESERVED11\000"
 14894      52564544 
 14894      313100
 14895              	.LASF132:
 14896 0ce8 52455345 		.ascii	"RESERVED12\000"
 14896      52564544 
 14896      313200
 14897              	.LASF142:
ARM GAS  C:\Users\DEVELO~1\AppData\Local\Temp\ccuGzkMt.s 			page 273


 14898 0cf3 52455345 		.ascii	"RESERVED13\000"
 14898      52564544 
 14898      313300
 14899              	.LASF320:
 14900 0cfe 7364635F 		.ascii	"sdc_lld_collect_errors\000"
 14900      6C6C645F 
 14900      636F6C6C 
 14900      6563745F 
 14900      6572726F 
 14901              	.LASF58:
 14902 0d15 6D61696E 		.ascii	"mainthread\000"
 14902      74687265 
 14902      616400
 14903              	.LASF36:
 14904 0d20 73746174 		.ascii	"state\000"
 14904      6500
 14905              	.LASF146:
 14906 0d26 52455350 		.ascii	"RESPCMD\000"
 14906      434D4400 
 14907              	.LASF48:
 14908 0d2e 6F735F69 		.ascii	"os_instance_t\000"
 14908      6E737461 
 14908      6E63655F 
 14908      7400
 14909              	.LASF225:
 14910 0d3c 5344435F 		.ascii	"SDC_MODE_1BIT\000"
 14910      4D4F4445 
 14910      5F314249 
 14910      5400
 14911              	.LASF290:
 14912 0d4a 7364635F 		.ascii	"sdc_lld_wait_transaction_end\000"
 14912      6C6C645F 
 14912      77616974 
 14912      5F747261 
 14912      6E736163 
 14913              	.LASF53:
 14914 0d67 7265676C 		.ascii	"reglist\000"
 14914      69737400 
 14915              	.LASF103:
 14916 0d6f 44334343 		.ascii	"D3CCIPR\000"
 14916      49505200 
 14917              	.LASF278:
 14918 0d77 7364635F 		.ascii	"sdc_lld_send_cmd_short_crc\000"
 14918      6C6C645F 
 14918      73656E64 
 14918      5F636D64 
 14918      5F73686F 
 14919              	.LASF3:
 14920 0d92 7369676E 		.ascii	"signed char\000"
 14920      65642063 
 14920      68617200 
 14921              	.LASF178:
 14922 0d9e 64656C74 		.ascii	"delta\000"
 14922      6100
 14923              	.LASF83:
 14924 0da4 43525243 		.ascii	"CRRCR\000"
 14924      5200
ARM GAS  C:\Users\DEVELO~1\AppData\Local\Temp\ccuGzkMt.s 			page 274


 14925              	.LASF9:
 14926 0daa 73686F72 		.ascii	"short unsigned int\000"
 14926      7420756E 
 14926      7369676E 
 14926      65642069 
 14926      6E7400
 14927              	.LASF227:
 14928 0dbd 5344435F 		.ascii	"SDC_MODE_8BIT\000"
 14928      4D4F4445 
 14928      5F384249 
 14928      5400
 14929              	.LASF258:
 14930 0dcb 6D656D63 		.ascii	"memcpy\000"
 14930      707900
 14931              	.LASF229:
 14932 0dd2 5344435F 		.ascii	"SDC_CLK_25MHz\000"
 14932      434C4B5F 
 14932      32354D48 
 14932      7A00
 14933              	.LASF164:
 14934 0de0 53444D4D 		.ascii	"SDMMC_TypeDef\000"
 14934      435F5479 
 14934      70654465 
 14934      6600
 14935              	.LASF202:
 14936 0dee 63757272 		.ascii	"current\000"
 14936      656E7400 
 14937              	.LASF273:
 14938 0df6 5F5F6675 		.ascii	"__func__\000"
 14938      6E635F5F 
 14938      00
 14939              	.LASF284:
 14940 0dff 7364635F 		.ascii	"sdc_lld_stop_clk\000"
 14940      6C6C645F 
 14940      73746F70 
 14940      5F636C6B 
 14940      00
 14941              	.LASF239:
 14942 0e10 73646D6D 		.ascii	"sdmmc\000"
 14942      6300
 14943              	.LASF299:
 14944 0e16 6F73616C 		.ascii	"osalThreadResumeI\000"
 14944      54687265 
 14944      61645265 
 14944      73756D65 
 14944      4900
 14945              	.LASF313:
 14946 0e28 706F7274 		.ascii	"port_unlock\000"
 14946      5F756E6C 
 14946      6F636B00 
 14947              	.LASF248:
 14948 0e34 69735F70 		.ascii	"is_protected\000"
 14948      726F7465 
 14948      63746564 
 14948      00
 14949              	.LASF241:
 14950 0e41 72657370 		.ascii	"resp\000"
ARM GAS  C:\Users\DEVELO~1\AppData\Local\Temp\ccuGzkMt.s 			page 275


 14950      00
 14951              	.LASF69:
 14952 0e46 74696D65 		.ascii	"time_conv_t\000"
 14952      5F636F6E 
 14952      765F7400 
 14953              	.LASF126:
 14954 0e52 41484234 		.ascii	"AHB4ENR\000"
 14954      454E5200 
 14955              	.LASF108:
 14956 0e5a 52455345 		.ascii	"RESERVED5\000"
 14956      52564544 
 14956      3500
 14957              	.LASF160:
 14958 0e64 49444D41 		.ascii	"IDMABASE0\000"
 14958      42415345 
 14958      3000
 14959              	.LASF161:
 14960 0e6e 49444D41 		.ascii	"IDMABASE1\000"
 14960      42415345 
 14960      3100
 14961              	.LASF139:
 14962 0e78 41504231 		.ascii	"APB1HLPENR\000"
 14962      484C5045 
 14962      4E5200
 14963              	.LASF194:
 14964 0e83 77747472 		.ascii	"wttrp\000"
 14964      7000
 14965              	.LASF197:
 14966 0e89 77746D74 		.ascii	"wtmtxp\000"
 14966      787000
 14967              	.LASF193:
 14968 0e90 65786974 		.ascii	"exitcode\000"
 14968      636F6465 
 14968      00
 14969              	.LASF259:
 14970 0e99 63685468 		.ascii	"chThdSuspendTimeoutS\000"
 14970      64537573 
 14970      70656E64 
 14970      54696D65 
 14970      6F757453 
 14971              	.LASF128:
 14972 0eae 41504231 		.ascii	"APB1LENR\000"
 14972      4C454E52 
 14972      00
 14973              	.LASF112:
 14974 0eb7 41484231 		.ascii	"AHB1RSTR\000"
 14974      52535452 
 14974      00
 14975              	.LASF31:
 14976 0ec0 636F7265 		.ascii	"core_id_t\000"
 14976      5F69645F 
 14976      7400
 14977              	.LASF230:
 14978 0eca 5344435F 		.ascii	"SDC_CLK_50MHz\000"
 14978      434C4B5F 
 14978      35304D48 
 14978      7A00
ARM GAS  C:\Users\DEVELO~1\AppData\Local\Temp\ccuGzkMt.s 			page 276


 14979              	.LASF245:
 14980 0ed8 53444344 		.ascii	"SDCDriverVMT\000"
 14980      72697665 
 14980      72564D54 
 14980      00
 14981              		.ident	"GCC: (Arm GNU Toolchain 11.3.Rel1) 11.3.1 20220712"
ARM GAS  C:\Users\DEVELO~1\AppData\Local\Temp\ccuGzkMt.s 			page 277


DEFINED SYMBOLS
                            *ABS*:00000000 hal_sdc_lld.c
C:\Users\DEVELO~1\AppData\Local\Temp\ccuGzkMt.s:18     .text.sdc_lld_collect_errors:00000000 $t
C:\Users\DEVELO~1\AppData\Local\Temp\ccuGzkMt.s:24     .text.sdc_lld_collect_errors:00000000 sdc_lld_collect_errors
C:\Users\DEVELO~1\AppData\Local\Temp\ccuGzkMt.s:90     .text.sdc_lld_wait_transaction_end:00000000 $t
C:\Users\DEVELO~1\AppData\Local\Temp\ccuGzkMt.s:96     .text.sdc_lld_wait_transaction_end:00000000 sdc_lld_wait_transaction_end
C:\Users\DEVELO~1\AppData\Local\Temp\ccuGzkMt.s:396    .text.sdc_lld_init:00000000 $t
C:\Users\DEVELO~1\AppData\Local\Temp\ccuGzkMt.s:403    .text.sdc_lld_init:00000000 sdc_lld_init
C:\Users\DEVELO~1\AppData\Local\Temp\ccuGzkMt.s:446    .text.sdc_lld_init:00000020 $d
C:\Users\DEVELO~1\AppData\Local\Temp\ccuGzkMt.s:455    .text.sdc_lld_start:00000000 $t
C:\Users\DEVELO~1\AppData\Local\Temp\ccuGzkMt.s:462    .text.sdc_lld_start:00000000 sdc_lld_start
C:\Users\DEVELO~1\AppData\Local\Temp\ccuGzkMt.s:545    .text.sdc_lld_start:0000004c $d
C:\Users\DEVELO~1\AppData\Local\Temp\ccuGzkMt.s:554    .text.sdc_lld_stop:00000000 $t
C:\Users\DEVELO~1\AppData\Local\Temp\ccuGzkMt.s:561    .text.sdc_lld_stop:00000000 sdc_lld_stop
C:\Users\DEVELO~1\AppData\Local\Temp\ccuGzkMt.s:656    .text.sdc_lld_stop:0000004c $d
C:\Users\DEVELO~1\AppData\Local\Temp\ccuGzkMt.s:662    .text.sdc_lld_start_clk:00000000 $t
C:\Users\DEVELO~1\AppData\Local\Temp\ccuGzkMt.s:669    .text.sdc_lld_start_clk:00000000 sdc_lld_start_clk
C:\Users\DEVELO~1\AppData\Local\Temp\ccuGzkMt.s:768    .text.sdc_lld_start_clk:00000038 $d
C:\Users\DEVELO~1\AppData\Local\Temp\ccuGzkMt.s:777    .text.sdc_lld_set_data_clk:00000000 $t
C:\Users\DEVELO~1\AppData\Local\Temp\ccuGzkMt.s:784    .text.sdc_lld_set_data_clk:00000000 sdc_lld_set_data_clk
C:\Users\DEVELO~1\AppData\Local\Temp\ccuGzkMt.s:934    .text.sdc_lld_set_data_clk:0000005c $d
C:\Users\DEVELO~1\AppData\Local\Temp\ccuGzkMt.s:946    .text.sdc_lld_stop_clk:00000000 $t
C:\Users\DEVELO~1\AppData\Local\Temp\ccuGzkMt.s:953    .text.sdc_lld_stop_clk:00000000 sdc_lld_stop_clk
C:\Users\DEVELO~1\AppData\Local\Temp\ccuGzkMt.s:977    .text.sdc_lld_set_bus_mode:00000000 $t
C:\Users\DEVELO~1\AppData\Local\Temp\ccuGzkMt.s:984    .text.sdc_lld_set_bus_mode:00000000 sdc_lld_set_bus_mode
C:\Users\DEVELO~1\AppData\Local\Temp\ccuGzkMt.s:1034   .text.sdc_lld_send_cmd_none:00000000 $t
C:\Users\DEVELO~1\AppData\Local\Temp\ccuGzkMt.s:1041   .text.sdc_lld_send_cmd_none:00000000 sdc_lld_send_cmd_none
C:\Users\DEVELO~1\AppData\Local\Temp\ccuGzkMt.s:1080   .text.sdc_lld_send_cmd_short:00000000 $t
C:\Users\DEVELO~1\AppData\Local\Temp\ccuGzkMt.s:1087   .text.sdc_lld_send_cmd_short:00000000 sdc_lld_send_cmd_short
C:\Users\DEVELO~1\AppData\Local\Temp\ccuGzkMt.s:1155   .text.sdc_lld_send_cmd_short_crc:00000000 $t
C:\Users\DEVELO~1\AppData\Local\Temp\ccuGzkMt.s:1162   .text.sdc_lld_send_cmd_short_crc:00000000 sdc_lld_send_cmd_short_crc
C:\Users\DEVELO~1\AppData\Local\Temp\ccuGzkMt.s:1230   .text.sdc_lld_send_cmd_long_crc:00000000 $t
C:\Users\DEVELO~1\AppData\Local\Temp\ccuGzkMt.s:1237   .text.sdc_lld_send_cmd_long_crc:00000000 sdc_lld_send_cmd_long_crc
C:\Users\DEVELO~1\AppData\Local\Temp\ccuGzkMt.s:1324   .text.sdc_lld_read_special:00000000 $t
C:\Users\DEVELO~1\AppData\Local\Temp\ccuGzkMt.s:1331   .text.sdc_lld_read_special:00000000 sdc_lld_read_special
C:\Users\DEVELO~1\AppData\Local\Temp\ccuGzkMt.s:1778   .text.sdc_lld_read_special:000000e8 $d
C:\Users\DEVELO~1\AppData\Local\Temp\ccuGzkMt.s:1788   .text.sdc_lld_read_aligned:00000000 $t
C:\Users\DEVELO~1\AppData\Local\Temp\ccuGzkMt.s:1795   .text.sdc_lld_read_aligned:00000000 sdc_lld_read_aligned
C:\Users\DEVELO~1\AppData\Local\Temp\ccuGzkMt.s:2376   .text.sdc_lld_read_aligned:0000016c $d
C:\Users\DEVELO~1\AppData\Local\Temp\ccuGzkMt.s:2390   .text.sdc_lld_write_aligned:00000000 $t
C:\Users\DEVELO~1\AppData\Local\Temp\ccuGzkMt.s:2397   .text.sdc_lld_write_aligned:00000000 sdc_lld_write_aligned
C:\Users\DEVELO~1\AppData\Local\Temp\ccuGzkMt.s:2978   .text.sdc_lld_write_aligned:0000016c $d
C:\Users\DEVELO~1\AppData\Local\Temp\ccuGzkMt.s:2992   .text.sdc_lld_read:00000000 $t
C:\Users\DEVELO~1\AppData\Local\Temp\ccuGzkMt.s:2999   .text.sdc_lld_read:00000000 sdc_lld_read
C:\Users\DEVELO~1\AppData\Local\Temp\ccuGzkMt.s:3102   .text.sdc_lld_write:00000000 $t
C:\Users\DEVELO~1\AppData\Local\Temp\ccuGzkMt.s:3109   .text.sdc_lld_write:00000000 sdc_lld_write
C:\Users\DEVELO~1\AppData\Local\Temp\ccuGzkMt.s:3207   .text.sdc_lld_sync:00000000 $t
C:\Users\DEVELO~1\AppData\Local\Temp\ccuGzkMt.s:3214   .text.sdc_lld_sync:00000000 sdc_lld_sync
C:\Users\DEVELO~1\AppData\Local\Temp\ccuGzkMt.s:3233   .text.sdc_lld_serve_interrupt:00000000 $t
C:\Users\DEVELO~1\AppData\Local\Temp\ccuGzkMt.s:3240   .text.sdc_lld_serve_interrupt:00000000 sdc_lld_serve_interrupt
C:\Users\DEVELO~1\AppData\Local\Temp\ccuGzkMt.s:3381   .bss.SDCD1:00000000 SDCD1
C:\Users\DEVELO~1\AppData\Local\Temp\ccuGzkMt.s:3377   .bss.SDCD1:00000000 $d
C:\Users\DEVELO~1\AppData\Local\Temp\ccuGzkMt.s:3384   .bss.__nocache_sd1_buf:00000000 $d
C:\Users\DEVELO~1\AppData\Local\Temp\ccuGzkMt.s:3388   .bss.__nocache_sd1_buf:00000000 __nocache_sd1_buf
C:\Users\DEVELO~1\AppData\Local\Temp\ccuGzkMt.s:3391   .bss.__nocache_sd1_wbuf:00000000 $d
C:\Users\DEVELO~1\AppData\Local\Temp\ccuGzkMt.s:3395   .bss.__nocache_sd1_wbuf:00000000 __nocache_sd1_wbuf
C:\Users\DEVELO~1\AppData\Local\Temp\ccuGzkMt.s:3398   .rodata.sdc_default_cfg:00000000 $d
ARM GAS  C:\Users\DEVELO~1\AppData\Local\Temp\ccuGzkMt.s 			page 278


C:\Users\DEVELO~1\AppData\Local\Temp\ccuGzkMt.s:3402   .rodata.sdc_default_cfg:00000000 sdc_default_cfg

UNDEFINED SYMBOLS
chThdSuspendTimeoutS
sdcObjectInit
chThdSleep
_sdc_wait_for_transfer_state
memcpy
chThdResumeI
