ARM GAS  C:\Users\DEVELO~1\AppData\Local\Temp\ccZn21pc.s 			page 1


   1              		.cpu cortex-m7
   2              		.arch armv7e-m
   3              		.fpu softvfp
   4              		.eabi_attribute 20, 1
   5              		.eabi_attribute 21, 1
   6              		.eabi_attribute 23, 3
   7              		.eabi_attribute 24, 1
   8              		.eabi_attribute 25, 1
   9              		.eabi_attribute 26, 1
  10              		.eabi_attribute 30, 2
  11              		.eabi_attribute 34, 1
  12              		.eabi_attribute 18, 4
  13              		.file	"hal_buffered_serial.c"
  14              		.text
  15              	.Ltext0:
  16              		.cfi_sections	.debug_frame
  17              		.section	.text.bsIncomingDataI,"ax",%progbits
  18              		.align	1
  19              		.p2align 4,,15
  20              		.global	bsIncomingDataI
  21              		.syntax unified
  22              		.thumb
  23              		.thumb_func
  24              		.type	bsIncomingDataI, %function
  25              	bsIncomingDataI:
  26              	.LVL0:
  27              	.LFB431:
  28              		.file 1 "../../../os/hal/src/hal_buffered_serial.c"
  29              		.loc 1 60 54 view -0
  30              		.cfi_startproc
  31              		@ args = 0, pretend = 0, frame = 0
  32              		@ frame_needed = 0, uses_anonymous_args = 0
  33              		.loc 1 62 23 view .LVU1
  34              		.loc 1 63 3 view .LVU2
  35              		.loc 1 63 3 view .LVU3
  36              		.loc 1 63 3 view .LVU4
  37              		.loc 1 65 3 view .LVU5
  38              		.loc 1 60 54 is_stmt 0 view .LVU6
  39 0000 38B5     		push	{r3, r4, r5, lr}
  40              		.cfi_def_cfa_offset 16
  41              		.cfi_offset 3, -16
  42              		.cfi_offset 4, -12
  43              		.cfi_offset 5, -8
  44              		.cfi_offset 14, -4
  45              		.loc 1 65 7 view .LVU7
  46 0002 4369     		ldr	r3, [r0, #20]
  47              		.loc 1 60 54 view .LVU8
  48 0004 0446     		mov	r4, r0
  49 0006 0D46     		mov	r5, r1
  50              		.loc 1 65 6 view .LVU9
  51 0008 3BB1     		cbz	r3, .L6
  52              		.loc 1 66 43 is_stmt 1 discriminator 1 view .LVU10
  53              		.loc 1 69 3 discriminator 1 view .LVU11
  54              		.loc 1 69 7 is_stmt 0 discriminator 1 view .LVU12
  55 000a 2946     		mov	r1, r5
  56              	.LVL1:
  57              		.loc 1 69 7 discriminator 1 view .LVU13
ARM GAS  C:\Users\DEVELO~1\AppData\Local\Temp\ccZn21pc.s 			page 2


  58 000c 04F10C00 		add	r0, r4, #12
  59              	.LVL2:
  60              		.loc 1 69 7 discriminator 1 view .LVU14
  61 0010 FFF7FEFF 		bl	iqPutI
  62              	.LVL3:
  63              		.loc 1 69 6 discriminator 1 view .LVU15
  64 0014 0028     		cmp	r0, #0
  65 0016 0BDB     		blt	.L7
  66              	.L1:
  67              		.loc 1 72 1 view .LVU16
  68 0018 38BD     		pop	{r3, r4, r5, pc}
  69              	.LVL4:
  70              	.L6:
  71              		.loc 1 66 5 is_stmt 1 view .LVU17
  72              	.LBB8:
  73              	.LBI8:
  74              		.file 2 "../../../os/hal/osal/rt-nil/osal.h"
  75              		.loc 2 956 20 view .LVU18
  76              	.LBB9:
  77              		.loc 2 959 3 view .LVU19
  78 001a 0421     		movs	r1, #4
  79              	.LVL5:
  80              		.loc 2 959 3 is_stmt 0 view .LVU20
  81 001c 0844     		add	r0, r0, r1
  82              	.LVL6:
  83              		.loc 2 959 3 view .LVU21
  84 001e FFF7FEFF 		bl	chEvtBroadcastFlagsI
  85              	.LVL7:
  86              		.loc 2 959 3 view .LVU22
  87              	.LBE9:
  88              	.LBE8:
  89              		.loc 1 66 43 is_stmt 1 view .LVU23
  90              		.loc 1 69 3 view .LVU24
  91              		.loc 1 69 7 is_stmt 0 view .LVU25
  92 0022 2946     		mov	r1, r5
  93 0024 04F10C00 		add	r0, r4, #12
  94 0028 FFF7FEFF 		bl	iqPutI
  95              	.LVL8:
  96              		.loc 1 69 6 view .LVU26
  97 002c 0028     		cmp	r0, #0
  98 002e F3DA     		bge	.L1
  99              	.L7:
 100              		.loc 1 70 5 is_stmt 1 view .LVU27
 101              	.LVL9:
 102              	.LBB10:
 103              	.LBI10:
 104              		.loc 2 956 20 view .LVU28
 105              	.LBB11:
 106              		.loc 2 959 3 view .LVU29
 107 0030 201D     		adds	r0, r4, #4
 108              	.LVL10:
 109              		.loc 2 959 3 is_stmt 0 view .LVU30
 110 0032 4FF40061 		mov	r1, #2048
 111              	.LBE11:
 112              	.LBE10:
 113              		.loc 1 72 1 view .LVU31
 114 0036 BDE83840 		pop	{r3, r4, r5, lr}
ARM GAS  C:\Users\DEVELO~1\AppData\Local\Temp\ccZn21pc.s 			page 3


 115              		.cfi_restore 14
 116              		.cfi_restore 5
 117              		.cfi_restore 4
 118              		.cfi_restore 3
 119              		.cfi_def_cfa_offset 0
 120              	.LVL11:
 121              	.LBB13:
 122              	.LBB12:
 123              		.loc 2 959 3 view .LVU32
 124 003a FFF7FEBF 		b	chEvtBroadcastFlagsI
 125              	.LVL12:
 126              		.loc 2 959 3 view .LVU33
 127              	.LBE12:
 128              	.LBE13:
 129              		.cfi_endproc
 130              	.LFE431:
 131              		.size	bsIncomingDataI, .-bsIncomingDataI
 132 003e 00BF     		.section	.text.bsRequestDataI,"ax",%progbits
 133              		.align	1
 134              		.p2align 4,,15
 135              		.global	bsRequestDataI
 136              		.syntax unified
 137              		.thumb
 138              		.thumb_func
 139              		.type	bsRequestDataI, %function
 140              	bsRequestDataI:
 141              	.LVL13:
 142              	.LFB432:
 143              		.loc 1 88 43 is_stmt 1 view -0
 144              		.cfi_startproc
 145              		@ args = 0, pretend = 0, frame = 0
 146              		@ frame_needed = 0, uses_anonymous_args = 0
 147              		.loc 1 89 3 view .LVU35
 148              		.loc 1 91 23 view .LVU36
 149              		.loc 1 92 3 view .LVU37
 150              		.loc 1 92 3 view .LVU38
 151              		.loc 1 92 3 view .LVU39
 152              		.loc 1 94 3 view .LVU40
 153              		.loc 1 88 43 is_stmt 0 view .LVU41
 154 0000 38B5     		push	{r3, r4, r5, lr}
 155              		.cfi_def_cfa_offset 16
 156              		.cfi_offset 3, -16
 157              		.cfi_offset 4, -12
 158              		.cfi_offset 5, -8
 159              		.cfi_offset 14, -4
 160              		.loc 1 88 43 view .LVU42
 161 0002 0546     		mov	r5, r0
 162              		.loc 1 94 7 view .LVU43
 163 0004 3030     		adds	r0, r0, #48
 164              	.LVL14:
 165              		.loc 1 94 7 view .LVU44
 166 0006 FFF7FEFF 		bl	oqGetI
 167              	.LVL15:
 168              		.loc 1 95 3 is_stmt 1 view .LVU45
 169              		.loc 1 95 6 is_stmt 0 view .LVU46
 170 000a 041E     		subs	r4, r0, #0
 171 000c 01DB     		blt	.L11
ARM GAS  C:\Users\DEVELO~1\AppData\Local\Temp\ccZn21pc.s 			page 4


 172              		.loc 1 100 1 view .LVU47
 173 000e 2046     		mov	r0, r4
 174              		.loc 1 100 1 view .LVU48
 175 0010 38BD     		pop	{r3, r4, r5, pc}
 176              	.LVL16:
 177              	.L11:
 178              		.loc 1 96 5 is_stmt 1 view .LVU49
 179              	.LBB14:
 180              	.LBI14:
 181              		.loc 2 956 20 view .LVU50
 182              	.LBB15:
 183              		.loc 2 959 3 view .LVU51
 184 0012 281D     		adds	r0, r5, #4
 185              	.LVL17:
 186              		.loc 2 959 3 is_stmt 0 view .LVU52
 187 0014 0821     		movs	r1, #8
 188 0016 FFF7FEFF 		bl	chEvtBroadcastFlagsI
 189              	.LVL18:
 190              		.loc 2 959 3 view .LVU53
 191              	.LBE15:
 192              	.LBE14:
 193              		.loc 1 96 40 is_stmt 1 view .LVU54
 194              		.loc 1 99 3 view .LVU55
 195              		.loc 1 100 1 is_stmt 0 view .LVU56
 196 001a 2046     		mov	r0, r4
 197 001c 38BD     		pop	{r3, r4, r5, pc}
 198              		.loc 1 100 1 view .LVU57
 199              		.cfi_endproc
 200              	.LFE432:
 201              		.size	bsRequestDataI, .-bsRequestDataI
 202 001e 00BF     		.text
 203              	.Letext0:
 204              		.file 3 "c:\\chibistudio\\tools\\gnu tools arm embedded\\11.3 2022.08\\lib\\gcc\\arm-none-eabi\\11
 205              		.file 4 "c:\\chibistudio\\tools\\gnu tools arm embedded\\11.3 2022.08\\arm-none-eabi\\include\\mac
 206              		.file 5 "c:\\chibistudio\\tools\\gnu tools arm embedded\\11.3 2022.08\\arm-none-eabi\\include\\sys
 207              		.file 6 "../../../os/common/ports/ARM-common/chtypes.h"
 208              		.file 7 "../../../os/rt/include/chearly.h"
 209              		.file 8 "../../../os/rt/include/chobjects.h"
 210              		.file 9 "../../../os/rt/include/chrfcu.h"
 211              		.file 10 "../../../os/rt/include/chdebug.h"
 212              		.file 11 "../../../os/rt/include/chtime.h"
 213              		.file 12 "../../../os/rt/include/chlists.h"
 214              		.file 13 "../../../os/rt/include/chtrace.h"
 215              		.file 14 "../../../os/common/ports/ARMv7-M/chcore.h"
 216              		.file 15 "../../../os/rt/include/chsem.h"
 217              		.file 16 "../../../os/rt/include/chmtx.h"
 218              		.file 17 "../../../os/rt/include/chevents.h"
 219              		.file 18 "../../../os/hal/include/hal_queues.h"
 220              		.file 19 "../../../os/hal/include/hal_buffered_serial.h"
 221              		.section	.debug_info,"",%progbits
 222              	.Ldebug_info0:
 223 0000 CC0E0000 		.4byte	0xecc
 224 0004 0500     		.2byte	0x5
 225 0006 01       		.byte	0x1
 226 0007 04       		.byte	0x4
 227 0008 00000000 		.4byte	.Ldebug_abbrev0
 228 000c 1F       		.uleb128 0x1f
ARM GAS  C:\Users\DEVELO~1\AppData\Local\Temp\ccZn21pc.s 			page 5


 229 000d 40010000 		.4byte	.LASF168
 230 0011 1D       		.byte	0x1d
 231 0012 A6050000 		.4byte	.LASF169
 232 0016 55020000 		.4byte	.LASF170
 233 001a 18000000 		.4byte	.LLRL10
 234 001e 00000000 		.4byte	0
 235 0022 00000000 		.4byte	.Ldebug_line0
 236 0026 20       		.uleb128 0x20
 237 0027 04       		.byte	0x4
 238 0028 05       		.byte	0x5
 239 0029 696E7400 		.ascii	"int\000"
 240 002d 02       		.uleb128 0x2
 241 002e 1C000000 		.4byte	.LASF4
 242 0032 03       		.byte	0x3
 243 0033 D1       		.byte	0xd1
 244 0034 17       		.byte	0x17
 245 0035 3E000000 		.4byte	0x3e
 246 0039 13       		.uleb128 0x13
 247 003a 2D000000 		.4byte	0x2d
 248 003e 07       		.uleb128 0x7
 249 003f 04       		.byte	0x4
 250 0040 07       		.byte	0x7
 251 0041 11030000 		.4byte	.LASF0
 252 0045 07       		.uleb128 0x7
 253 0046 08       		.byte	0x8
 254 0047 05       		.byte	0x5
 255 0048 C7000000 		.4byte	.LASF1
 256 004c 07       		.uleb128 0x7
 257 004d 08       		.byte	0x8
 258 004e 04       		.byte	0x4
 259 004f 80060000 		.4byte	.LASF2
 260 0053 07       		.uleb128 0x7
 261 0054 01       		.byte	0x1
 262 0055 06       		.byte	0x6
 263 0056 D5000000 		.4byte	.LASF3
 264 005a 02       		.uleb128 0x2
 265 005b 35000000 		.4byte	.LASF5
 266 005f 04       		.byte	0x4
 267 0060 2B       		.byte	0x2b
 268 0061 18       		.byte	0x18
 269 0062 66000000 		.4byte	0x66
 270 0066 07       		.uleb128 0x7
 271 0067 01       		.byte	0x1
 272 0068 08       		.byte	0x8
 273 0069 91050000 		.4byte	.LASF6
 274 006d 07       		.uleb128 0x7
 275 006e 02       		.byte	0x2
 276 006f 05       		.byte	0x5
 277 0070 00040000 		.4byte	.LASF7
 278 0074 02       		.uleb128 0x2
 279 0075 9F060000 		.4byte	.LASF8
 280 0079 04       		.byte	0x4
 281 007a 39       		.byte	0x39
 282 007b 19       		.byte	0x19
 283 007c 80000000 		.4byte	0x80
 284 0080 07       		.uleb128 0x7
 285 0081 02       		.byte	0x2
ARM GAS  C:\Users\DEVELO~1\AppData\Local\Temp\ccZn21pc.s 			page 6


 286 0082 07       		.byte	0x7
 287 0083 95030000 		.4byte	.LASF9
 288 0087 02       		.uleb128 0x2
 289 0088 0A040000 		.4byte	.LASF10
 290 008c 04       		.byte	0x4
 291 008d 4D       		.byte	0x4d
 292 008e 18       		.byte	0x18
 293 008f 93000000 		.4byte	0x93
 294 0093 07       		.uleb128 0x7
 295 0094 04       		.byte	0x4
 296 0095 05       		.byte	0x5
 297 0096 26010000 		.4byte	.LASF11
 298 009a 02       		.uleb128 0x2
 299 009b A4020000 		.4byte	.LASF12
 300 009f 04       		.byte	0x4
 301 00a0 4F       		.byte	0x4f
 302 00a1 19       		.byte	0x19
 303 00a2 A6000000 		.4byte	0xa6
 304 00a6 07       		.uleb128 0x7
 305 00a7 04       		.byte	0x4
 306 00a8 07       		.byte	0x7
 307 00a9 E1000000 		.4byte	.LASF13
 308 00ad 02       		.uleb128 0x2
 309 00ae 31050000 		.4byte	.LASF14
 310 00b2 04       		.byte	0x4
 311 00b3 69       		.byte	0x69
 312 00b4 19       		.byte	0x19
 313 00b5 B9000000 		.4byte	0xb9
 314 00b9 07       		.uleb128 0x7
 315 00ba 08       		.byte	0x8
 316 00bb 07       		.byte	0x7
 317 00bc 01010000 		.4byte	.LASF15
 318 00c0 02       		.uleb128 0x2
 319 00c1 9D070000 		.4byte	.LASF16
 320 00c5 05       		.byte	0x5
 321 00c6 18       		.byte	0x18
 322 00c7 13       		.byte	0x13
 323 00c8 5A000000 		.4byte	0x5a
 324 00cc 0D       		.uleb128 0xd
 325 00cd C0000000 		.4byte	0xc0
 326 00d1 02       		.uleb128 0x2
 327 00d2 07020000 		.4byte	.LASF17
 328 00d6 05       		.byte	0x5
 329 00d7 24       		.byte	0x24
 330 00d8 14       		.byte	0x14
 331 00d9 74000000 		.4byte	0x74
 332 00dd 02       		.uleb128 0x2
 333 00de 89050000 		.4byte	.LASF18
 334 00e2 05       		.byte	0x5
 335 00e3 2C       		.byte	0x2c
 336 00e4 13       		.byte	0x13
 337 00e5 87000000 		.4byte	0x87
 338 00e9 02       		.uleb128 0x2
 339 00ea 38060000 		.4byte	.LASF19
 340 00ee 05       		.byte	0x5
 341 00ef 30       		.byte	0x30
 342 00f0 14       		.byte	0x14
ARM GAS  C:\Users\DEVELO~1\AppData\Local\Temp\ccZn21pc.s 			page 7


 343 00f1 9A000000 		.4byte	0x9a
 344 00f5 02       		.uleb128 0x2
 345 00f6 C8040000 		.4byte	.LASF20
 346 00fa 05       		.byte	0x5
 347 00fb 3C       		.byte	0x3c
 348 00fc 14       		.byte	0x14
 349 00fd AD000000 		.4byte	0xad
 350 0101 13       		.uleb128 0x13
 351 0102 F5000000 		.4byte	0xf5
 352 0106 02       		.uleb128 0x2
 353 0107 61060000 		.4byte	.LASF21
 354 010b 06       		.byte	0x6
 355 010c 48       		.byte	0x48
 356 010d 1D       		.byte	0x1d
 357 010e F5000000 		.4byte	0xf5
 358 0112 02       		.uleb128 0x2
 359 0113 2A040000 		.4byte	.LASF22
 360 0117 07       		.byte	0x7
 361 0118 50       		.byte	0x50
 362 0119 19       		.byte	0x19
 363 011a 06010000 		.4byte	0x106
 364 011e 02       		.uleb128 0x2
 365 011f D5030000 		.4byte	.LASF23
 366 0123 07       		.byte	0x7
 367 0124 53       		.byte	0x53
 368 0125 19       		.byte	0x19
 369 0126 C0000000 		.4byte	0xc0
 370 012a 02       		.uleb128 0x2
 371 012b 2F010000 		.4byte	.LASF24
 372 012f 07       		.byte	0x7
 373 0130 54       		.byte	0x54
 374 0131 19       		.byte	0x19
 375 0132 C0000000 		.4byte	0xc0
 376 0136 02       		.uleb128 0x2
 377 0137 4C050000 		.4byte	.LASF25
 378 013b 07       		.byte	0x7
 379 013c 55       		.byte	0x55
 380 013d 19       		.byte	0x19
 381 013e C0000000 		.4byte	0xc0
 382 0142 02       		.uleb128 0x2
 383 0143 63050000 		.4byte	.LASF26
 384 0147 07       		.byte	0x7
 385 0148 57       		.byte	0x57
 386 0149 19       		.byte	0x19
 387 014a E9000000 		.4byte	0xe9
 388 014e 02       		.uleb128 0x2
 389 014f BF030000 		.4byte	.LASF27
 390 0153 07       		.byte	0x7
 391 0154 58       		.byte	0x58
 392 0155 19       		.byte	0x19
 393 0156 DD000000 		.4byte	0xdd
 394 015a 02       		.uleb128 0x2
 395 015b F4030000 		.4byte	.LASF28
 396 015f 07       		.byte	0x7
 397 0160 5A       		.byte	0x5a
 398 0161 19       		.byte	0x19
 399 0162 E9000000 		.4byte	0xe9
ARM GAS  C:\Users\DEVELO~1\AppData\Local\Temp\ccZn21pc.s 			page 8


 400 0166 02       		.uleb128 0x2
 401 0167 B2030000 		.4byte	.LASF29
 402 016b 07       		.byte	0x7
 403 016c 5B       		.byte	0x5b
 404 016d 19       		.byte	0x19
 405 016e E9000000 		.4byte	0xe9
 406 0172 02       		.uleb128 0x2
 407 0173 02030000 		.4byte	.LASF30
 408 0177 07       		.byte	0x7
 409 0178 5C       		.byte	0x5c
 410 0179 19       		.byte	0x19
 411 017a DD000000 		.4byte	0xdd
 412 017e 02       		.uleb128 0x2
 413 017f 42050000 		.4byte	.LASF31
 414 0183 07       		.byte	0x7
 415 0184 80       		.byte	0x80
 416 0185 12       		.byte	0x12
 417 0186 3E000000 		.4byte	0x3e
 418 018a 02       		.uleb128 0x2
 419 018b AA060000 		.4byte	.LASF32
 420 018f 07       		.byte	0x7
 421 0190 85       		.byte	0x85
 422 0191 1A       		.byte	0x1a
 423 0192 96010000 		.4byte	0x196
 424 0196 06       		.uleb128 0x6
 425 0197 A8030000 		.4byte	.LASF47
 426 019b 48       		.byte	0x48
 427 019c 08       		.byte	0x8
 428 019d 9C       		.byte	0x9c
 429 019e 08       		.byte	0x8
 430 019f 73020000 		.4byte	0x273
 431 01a3 08       		.uleb128 0x8
 432 01a4 68647200 		.ascii	"hdr\000"
 433 01a8 08       		.byte	0x8
 434 01a9 AD       		.byte	0xad
 435 01aa 05       		.byte	0x5
 436 01ab 5D070000 		.4byte	0x75d
 437 01af 00       		.byte	0
 438 01b0 08       		.uleb128 0x8
 439 01b1 63747800 		.ascii	"ctx\000"
 440 01b5 08       		.byte	0x8
 441 01b6 B1       		.byte	0xb1
 442 01b7 21       		.byte	0x21
 443 01b8 A1060000 		.4byte	0x6a1
 444 01bc 0C       		.byte	0xc
 445 01bd 01       		.uleb128 0x1
 446 01be 58030000 		.4byte	.LASF33
 447 01c2 08       		.byte	0x8
 448 01c3 B6       		.byte	0xb6
 449 01c4 21       		.byte	0x21
 450 01c5 B9030000 		.4byte	0x3b9
 451 01c9 10       		.byte	0x10
 452 01ca 01       		.uleb128 0x1
 453 01cb 71060000 		.4byte	.LASF34
 454 01cf 08       		.byte	0x8
 455 01d0 BB       		.byte	0xbb
 456 01d1 22       		.byte	0x22
ARM GAS  C:\Users\DEVELO~1\AppData\Local\Temp\ccZn21pc.s 			page 9


 457 01d2 5F080000 		.4byte	0x85f
 458 01d6 18       		.byte	0x18
 459 01d7 01       		.uleb128 0x1
 460 01d8 79030000 		.4byte	.LASF35
 461 01dc 08       		.byte	0x8
 462 01dd C0       		.byte	0xc0
 463 01de 22       		.byte	0x22
 464 01df 53030000 		.4byte	0x353
 465 01e3 1C       		.byte	0x1c
 466 01e4 01       		.uleb128 0x1
 467 01e5 8C060000 		.4byte	.LASF36
 468 01e9 08       		.byte	0x8
 469 01ea C9       		.byte	0xc9
 470 01eb 22       		.byte	0x22
 471 01ec 64080000 		.4byte	0x864
 472 01f0 20       		.byte	0x20
 473 01f1 01       		.uleb128 0x1
 474 01f2 20010000 		.4byte	.LASF37
 475 01f6 08       		.byte	0x8
 476 01f7 CE       		.byte	0xce
 477 01f8 21       		.byte	0x21
 478 01f9 2A010000 		.4byte	0x12a
 479 01fd 24       		.byte	0x24
 480 01fe 01       		.uleb128 0x1
 481 01ff AD070000 		.4byte	.LASF38
 482 0203 08       		.byte	0x8
 483 0204 D2       		.byte	0xd2
 484 0205 21       		.byte	0x21
 485 0206 1E010000 		.4byte	0x11e
 486 020a 25       		.byte	0x25
 487 020b 01       		.uleb128 0x1
 488 020c B8000000 		.4byte	.LASF39
 489 0210 08       		.byte	0x8
 490 0211 D7       		.byte	0xd7
 491 0212 21       		.byte	0x21
 492 0213 36010000 		.4byte	0x136
 493 0217 26       		.byte	0x26
 494 0218 09       		.uleb128 0x9
 495 0219 7500     		.ascii	"u\000"
 496 021b 08       		.byte	0x8
 497 021c 2801     		.2byte	0x128
 498 021e 21       		.byte	0x21
 499 021f 8A070000 		.4byte	0x78a
 500 0223 28       		.byte	0x28
 501 0224 05       		.uleb128 0x5
 502 0225 B4020000 		.4byte	.LASF40
 503 0229 2D01     		.2byte	0x12d
 504 022b 21       		.byte	0x21
 505 022c 8D030000 		.4byte	0x38d
 506 0230 2C       		.byte	0x2c
 507 0231 05       		.uleb128 0x5
 508 0232 08030000 		.4byte	.LASF41
 509 0236 3301     		.2byte	0x133
 510 0238 21       		.byte	0x21
 511 0239 B9030000 		.4byte	0x3b9
 512 023d 30       		.byte	0x30
 513 023e 05       		.uleb128 0x5
ARM GAS  C:\Users\DEVELO~1\AppData\Local\Temp\ccZn21pc.s 			page 10


 514 023f C5030000 		.4byte	.LASF42
 515 0243 3901     		.2byte	0x139
 516 0245 21       		.byte	0x21
 517 0246 5A010000 		.4byte	0x15a
 518 024a 38       		.byte	0x38
 519 024b 05       		.uleb128 0x5
 520 024c F8070000 		.4byte	.LASF43
 521 0250 4001     		.2byte	0x140
 522 0252 22       		.byte	0x22
 523 0253 5A080000 		.4byte	0x85a
 524 0257 3C       		.byte	0x3c
 525 0258 05       		.uleb128 0x5
 526 0259 77060000 		.4byte	.LASF44
 527 025d 4401     		.2byte	0x144
 528 025f 21       		.byte	0x21
 529 0260 42010000 		.4byte	0x142
 530 0264 40       		.byte	0x40
 531 0265 05       		.uleb128 0x5
 532 0266 84030000 		.4byte	.LASF45
 533 026a 4B01     		.2byte	0x14b
 534 026c 22       		.byte	0x22
 535 026d A6040000 		.4byte	0x4a6
 536 0271 44       		.byte	0x44
 537 0272 00       		.byte	0
 538 0273 02       		.uleb128 0x2
 539 0274 FE060000 		.4byte	.LASF46
 540 0278 07       		.byte	0x7
 541 0279 8A       		.byte	0x8a
 542 027a 1F       		.byte	0x1f
 543 027b 7F020000 		.4byte	0x27f
 544 027f 21       		.uleb128 0x21
 545 0280 EF060000 		.4byte	.LASF48
 546 0284 9008     		.2byte	0x890
 547 0286 08       		.byte	0x8
 548 0287 8A01     		.2byte	0x18a
 549 0289 08       		.byte	0x8
 550 028a 05030000 		.4byte	0x305
 551 028e 05       		.uleb128 0x5
 552 028f 8A070000 		.4byte	.LASF49
 553 0293 8E01     		.2byte	0x18e
 554 0295 21       		.byte	0x21
 555 0296 92080000 		.4byte	0x892
 556 029a 00       		.byte	0
 557 029b 05       		.uleb128 0x5
 558 029c 50000000 		.4byte	.LASF50
 559 02a0 9201     		.2byte	0x192
 560 02a2 21       		.byte	0x21
 561 02a3 F7060000 		.4byte	0x6f7
 562 02a7 10       		.byte	0x10
 563 02a8 05       		.uleb128 0x5
 564 02a9 0C070000 		.4byte	.LASF51
 565 02ad 9901     		.2byte	0x199
 566 02af 21       		.byte	0x21
 567 02b0 1E070000 		.4byte	0x71e
 568 02b4 28       		.byte	0x28
 569 02b5 05       		.uleb128 0x5
 570 02b6 FA020000 		.4byte	.LASF52
ARM GAS  C:\Users\DEVELO~1\AppData\Local\Temp\ccZn21pc.s 			page 11


 571 02ba 9E01     		.2byte	0x19e
 572 02bc 21       		.byte	0x21
 573 02bd 7E010000 		.4byte	0x17e
 574 02c1 30       		.byte	0x30
 575 02c2 05       		.uleb128 0x5
 576 02c3 2A000000 		.4byte	.LASF53
 577 02c7 A401     		.2byte	0x1a4
 578 02c9 21       		.byte	0x21
 579 02ca 2C030000 		.4byte	0x32c
 580 02ce 34       		.byte	0x34
 581 02cf 05       		.uleb128 0x5
 582 02d0 98060000 		.4byte	.LASF54
 583 02d4 A901     		.2byte	0x1a9
 584 02d6 22       		.byte	0x22
 585 02d7 FD080000 		.4byte	0x8fd
 586 02db 38       		.byte	0x38
 587 02dc 05       		.uleb128 0x5
 588 02dd 78000000 		.4byte	.LASF55
 589 02e1 AD01     		.2byte	0x1ad
 590 02e3 21       		.byte	0x21
 591 02e4 8A010000 		.4byte	0x18a
 592 02e8 3C       		.byte	0x3c
 593 02e9 09       		.uleb128 0x9
 594 02ea 64626700 		.ascii	"dbg\000"
 595 02ee 08       		.byte	0x8
 596 02ef B101     		.2byte	0x1b1
 597 02f1 21       		.byte	0x21
 598 02f2 69030000 		.4byte	0x369
 599 02f6 84       		.byte	0x84
 600 02f7 05       		.uleb128 0x5
 601 02f8 B8070000 		.4byte	.LASF56
 602 02fc B601     		.2byte	0x1b6
 603 02fe 21       		.byte	0x21
 604 02ff FC050000 		.4byte	0x5fc
 605 0303 88       		.byte	0x88
 606 0304 00       		.byte	0
 607 0305 02       		.uleb128 0x2
 608 0306 6B040000 		.4byte	.LASF57
 609 030a 09       		.byte	0x9
 610 030b 3F       		.byte	0x3f
 611 030c 12       		.byte	0x12
 612 030d E9000000 		.4byte	0xe9
 613 0311 06       		.uleb128 0x6
 614 0312 38010000 		.4byte	.LASF58
 615 0316 04       		.byte	0x4
 616 0317 09       		.byte	0x9
 617 0318 44       		.byte	0x44
 618 0319 10       		.byte	0x10
 619 031a 2C030000 		.4byte	0x32c
 620 031e 01       		.uleb128 0x1
 621 031f AF020000 		.4byte	.LASF59
 622 0323 09       		.byte	0x9
 623 0324 48       		.byte	0x48
 624 0325 21       		.byte	0x21
 625 0326 05030000 		.4byte	0x305
 626 032a 00       		.byte	0
 627 032b 00       		.byte	0
ARM GAS  C:\Users\DEVELO~1\AppData\Local\Temp\ccZn21pc.s 			page 12


 628 032c 02       		.uleb128 0x2
 629 032d 9F050000 		.4byte	.LASF60
 630 0331 09       		.byte	0x9
 631 0332 49       		.byte	0x49
 632 0333 03       		.byte	0x3
 633 0334 11030000 		.4byte	0x311
 634 0338 06       		.uleb128 0x6
 635 0339 73050000 		.4byte	.LASF61
 636 033d 04       		.byte	0x4
 637 033e 0A       		.byte	0xa
 638 033f 3E       		.byte	0x3e
 639 0340 10       		.byte	0x10
 640 0341 53030000 		.4byte	0x353
 641 0345 01       		.uleb128 0x1
 642 0346 DE060000 		.4byte	.LASF62
 643 034a 0A       		.byte	0xa
 644 034b 46       		.byte	0x46
 645 034c 24       		.byte	0x24
 646 034d 58030000 		.4byte	0x358
 647 0351 00       		.byte	0
 648 0352 00       		.byte	0
 649 0353 03       		.uleb128 0x3
 650 0354 64030000 		.4byte	0x364
 651 0358 13       		.uleb128 0x13
 652 0359 53030000 		.4byte	0x353
 653 035d 07       		.uleb128 0x7
 654 035e 01       		.byte	0x1
 655 035f 08       		.byte	0x8
 656 0360 93060000 		.4byte	.LASF63
 657 0364 0D       		.uleb128 0xd
 658 0365 5D030000 		.4byte	0x35d
 659 0369 02       		.uleb128 0x2
 660 036a 3C030000 		.4byte	.LASF64
 661 036e 0A       		.byte	0xa
 662 036f 51       		.byte	0x51
 663 0370 03       		.byte	0x3
 664 0371 38030000 		.4byte	0x338
 665 0375 02       		.uleb128 0x2
 666 0376 B9060000 		.4byte	.LASF65
 667 037a 0B       		.byte	0xb
 668 037b 6D       		.byte	0x6d
 669 037c 12       		.byte	0x12
 670 037d E9000000 		.4byte	0xe9
 671 0381 02       		.uleb128 0x2
 672 0382 EC020000 		.4byte	.LASF66
 673 0386 0B       		.byte	0xb
 674 0387 79       		.byte	0x79
 675 0388 12       		.byte	0x12
 676 0389 E9000000 		.4byte	0xe9
 677 038d 02       		.uleb128 0x2
 678 038e B4040000 		.4byte	.LASF67
 679 0392 0C       		.byte	0xc
 680 0393 32       		.byte	0x32
 681 0394 18       		.byte	0x18
 682 0395 99030000 		.4byte	0x399
 683 0399 06       		.uleb128 0x6
 684 039a 18010000 		.4byte	.LASF68
ARM GAS  C:\Users\DEVELO~1\AppData\Local\Temp\ccZn21pc.s 			page 13


 685 039e 04       		.byte	0x4
 686 039f 0C       		.byte	0xc
 687 03a0 38       		.byte	0x38
 688 03a1 08       		.byte	0x8
 689 03a2 B4030000 		.4byte	0x3b4
 690 03a6 01       		.uleb128 0x1
 691 03a7 9C000000 		.4byte	.LASF69
 692 03ab 0C       		.byte	0xc
 693 03ac 39       		.byte	0x39
 694 03ad 1A       		.byte	0x1a
 695 03ae B4030000 		.4byte	0x3b4
 696 03b2 00       		.byte	0
 697 03b3 00       		.byte	0
 698 03b4 03       		.uleb128 0x3
 699 03b5 8D030000 		.4byte	0x38d
 700 03b9 02       		.uleb128 0x2
 701 03ba 5F030000 		.4byte	.LASF70
 702 03be 0C       		.byte	0xc
 703 03bf 3F       		.byte	0x3f
 704 03c0 19       		.byte	0x19
 705 03c1 C5030000 		.4byte	0x3c5
 706 03c5 06       		.uleb128 0x6
 707 03c6 F5010000 		.4byte	.LASF71
 708 03ca 08       		.byte	0x8
 709 03cb 0C       		.byte	0xc
 710 03cc 45       		.byte	0x45
 711 03cd 08       		.byte	0x8
 712 03ce ED030000 		.4byte	0x3ed
 713 03d2 01       		.uleb128 0x1
 714 03d3 9C000000 		.4byte	.LASF69
 715 03d7 0C       		.byte	0xc
 716 03d8 46       		.byte	0x46
 717 03d9 1A       		.byte	0x1a
 718 03da ED030000 		.4byte	0x3ed
 719 03de 00       		.byte	0
 720 03df 01       		.uleb128 0x1
 721 03e0 3F000000 		.4byte	.LASF72
 722 03e4 0C       		.byte	0xc
 723 03e5 47       		.byte	0x47
 724 03e6 1A       		.byte	0x1a
 725 03e7 ED030000 		.4byte	0x3ed
 726 03eb 04       		.byte	0x4
 727 03ec 00       		.byte	0
 728 03ed 03       		.uleb128 0x3
 729 03ee B9030000 		.4byte	0x3b9
 730 03f2 02       		.uleb128 0x2
 731 03f3 CA060000 		.4byte	.LASF73
 732 03f7 0C       		.byte	0xc
 733 03f8 4E       		.byte	0x4e
 734 03f9 22       		.byte	0x22
 735 03fa FE030000 		.4byte	0x3fe
 736 03fe 06       		.uleb128 0x6
 737 03ff 14070000 		.4byte	.LASF74
 738 0403 0C       		.byte	0xc
 739 0404 0C       		.byte	0xc
 740 0405 55       		.byte	0x55
 741 0406 08       		.byte	0x8
ARM GAS  C:\Users\DEVELO~1\AppData\Local\Temp\ccZn21pc.s 			page 14


 742 0407 33040000 		.4byte	0x433
 743 040b 01       		.uleb128 0x1
 744 040c 9C000000 		.4byte	.LASF69
 745 0410 0C       		.byte	0xc
 746 0411 56       		.byte	0x56
 747 0412 1A       		.byte	0x1a
 748 0413 33040000 		.4byte	0x433
 749 0417 00       		.byte	0
 750 0418 01       		.uleb128 0x1
 751 0419 3F000000 		.4byte	.LASF72
 752 041d 0C       		.byte	0xc
 753 041e 57       		.byte	0x57
 754 041f 1A       		.byte	0x1a
 755 0420 33040000 		.4byte	0x433
 756 0424 04       		.byte	0x4
 757 0425 01       		.uleb128 0x1
 758 0426 24050000 		.4byte	.LASF75
 759 042a 0C       		.byte	0xc
 760 042b 58       		.byte	0x58
 761 042c 19       		.byte	0x19
 762 042d 42010000 		.4byte	0x142
 763 0431 08       		.byte	0x8
 764 0432 00       		.byte	0
 765 0433 03       		.uleb128 0x3
 766 0434 F2030000 		.4byte	0x3f2
 767 0438 02       		.uleb128 0x2
 768 0439 26070000 		.4byte	.LASF76
 769 043d 0C       		.byte	0xc
 770 043e 5F       		.byte	0x5f
 771 043f 1E       		.byte	0x1e
 772 0440 44040000 		.4byte	0x444
 773 0444 06       		.uleb128 0x6
 774 0445 F3000000 		.4byte	.LASF77
 775 0449 0C       		.byte	0xc
 776 044a 0C       		.byte	0xc
 777 044b 64       		.byte	0x64
 778 044c 08       		.byte	0x8
 779 044d 79040000 		.4byte	0x479
 780 0451 01       		.uleb128 0x1
 781 0452 9C000000 		.4byte	.LASF69
 782 0456 0C       		.byte	0xc
 783 0457 65       		.byte	0x65
 784 0458 1A       		.byte	0x1a
 785 0459 79040000 		.4byte	0x479
 786 045d 00       		.byte	0
 787 045e 01       		.uleb128 0x1
 788 045f 3F000000 		.4byte	.LASF72
 789 0463 0C       		.byte	0xc
 790 0464 66       		.byte	0x66
 791 0465 1A       		.byte	0x1a
 792 0466 79040000 		.4byte	0x479
 793 046a 04       		.byte	0x4
 794 046b 01       		.uleb128 0x1
 795 046c 8B000000 		.4byte	.LASF78
 796 0470 0C       		.byte	0xc
 797 0471 67       		.byte	0x67
 798 0472 19       		.byte	0x19
ARM GAS  C:\Users\DEVELO~1\AppData\Local\Temp\ccZn21pc.s 			page 15


 799 0473 81030000 		.4byte	0x381
 800 0477 08       		.byte	0x8
 801 0478 00       		.byte	0
 802 0479 03       		.uleb128 0x3
 803 047a 38040000 		.4byte	0x438
 804 047e 0E       		.uleb128 0xe
 805 047f 08       		.byte	0x8
 806 0480 83       		.byte	0x83
 807 0481 05       		.byte	0x5
 808 0482 A1040000 		.4byte	0x4a1
 809 0486 08       		.uleb128 0x8
 810 0487 6E747000 		.ascii	"ntp\000"
 811 048b 0D       		.byte	0xd
 812 048c 87       		.byte	0x87
 813 048d 1E       		.byte	0x1e
 814 048e A1040000 		.4byte	0x4a1
 815 0492 00       		.byte	0
 816 0493 01       		.uleb128 0x1
 817 0494 D0050000 		.4byte	.LASF79
 818 0498 0D       		.byte	0xd
 819 0499 8B       		.byte	0x8b
 820 049a 1E       		.byte	0x1e
 821 049b A6040000 		.4byte	0x4a6
 822 049f 04       		.byte	0x4
 823 04a0 00       		.byte	0
 824 04a1 03       		.uleb128 0x3
 825 04a2 8A010000 		.4byte	0x18a
 826 04a6 22       		.uleb128 0x22
 827 04a7 04       		.byte	0x4
 828 04a8 0E       		.uleb128 0xe
 829 04a9 08       		.byte	0x8
 830 04aa 90       		.byte	0x90
 831 04ab 05       		.byte	0x5
 832 04ac CA040000 		.4byte	0x4ca
 833 04b0 08       		.uleb128 0x8
 834 04b1 747000   		.ascii	"tp\000"
 835 04b4 0D       		.byte	0xd
 836 04b5 94       		.byte	0x94
 837 04b6 1E       		.byte	0x1e
 838 04b7 A1040000 		.4byte	0x4a1
 839 04bb 00       		.byte	0
 840 04bc 08       		.uleb128 0x8
 841 04bd 6D736700 		.ascii	"msg\000"
 842 04c1 0D       		.byte	0xd
 843 04c2 98       		.byte	0x98
 844 04c3 1D       		.byte	0x1d
 845 04c4 4E010000 		.4byte	0x14e
 846 04c8 04       		.byte	0x4
 847 04c9 00       		.byte	0
 848 04ca 0E       		.uleb128 0xe
 849 04cb 04       		.byte	0x4
 850 04cc 9D       		.byte	0x9d
 851 04cd 05       		.byte	0x5
 852 04ce E0040000 		.4byte	0x4e0
 853 04d2 01       		.uleb128 0x1
 854 04d3 79030000 		.4byte	.LASF35
 855 04d7 0D       		.byte	0xd
ARM GAS  C:\Users\DEVELO~1\AppData\Local\Temp\ccZn21pc.s 			page 16


 856 04d8 A1       		.byte	0xa1
 857 04d9 1E       		.byte	0x1e
 858 04da 53030000 		.4byte	0x353
 859 04de 00       		.byte	0
 860 04df 00       		.byte	0
 861 04e0 0E       		.uleb128 0xe
 862 04e1 04       		.byte	0x4
 863 04e2 A6       		.byte	0xa6
 864 04e3 05       		.byte	0x5
 865 04e4 F6040000 		.4byte	0x4f6
 866 04e8 01       		.uleb128 0x1
 867 04e9 02060000 		.4byte	.LASF80
 868 04ed 0D       		.byte	0xd
 869 04ee AA       		.byte	0xaa
 870 04ef 1E       		.byte	0x1e
 871 04f0 53030000 		.4byte	0x353
 872 04f4 00       		.byte	0
 873 04f5 00       		.byte	0
 874 04f6 0E       		.uleb128 0xe
 875 04f7 08       		.byte	0x8
 876 04f8 AF       		.byte	0xaf
 877 04f9 05       		.byte	0x5
 878 04fa 19050000 		.4byte	0x519
 879 04fe 08       		.uleb128 0x8
 880 04ff 75703100 		.ascii	"up1\000"
 881 0503 0D       		.byte	0xd
 882 0504 B3       		.byte	0xb3
 883 0505 1E       		.byte	0x1e
 884 0506 A6040000 		.4byte	0x4a6
 885 050a 00       		.byte	0
 886 050b 08       		.uleb128 0x8
 887 050c 75703200 		.ascii	"up2\000"
 888 0510 0D       		.byte	0xd
 889 0511 B7       		.byte	0xb7
 890 0512 1E       		.byte	0x1e
 891 0513 A6040000 		.4byte	0x4a6
 892 0517 04       		.byte	0x4
 893 0518 00       		.byte	0
 894 0519 14       		.uleb128 0x14
 895 051a 08       		.byte	0x8
 896 051b 0D       		.byte	0xd
 897 051c 7F       		.byte	0x7f
 898 051d 57050000 		.4byte	0x557
 899 0521 15       		.uleb128 0x15
 900 0522 737700   		.ascii	"sw\000"
 901 0525 8C       		.byte	0x8c
 902 0526 7E040000 		.4byte	0x47e
 903 052a 15       		.uleb128 0x15
 904 052b 72647900 		.ascii	"rdy\000"
 905 052f 99       		.byte	0x99
 906 0530 A8040000 		.4byte	0x4a8
 907 0534 15       		.uleb128 0x15
 908 0535 69737200 		.ascii	"isr\000"
 909 0539 A2       		.byte	0xa2
 910 053a CA040000 		.4byte	0x4ca
 911 053e 0C       		.uleb128 0xc
 912 053f 6A000000 		.4byte	.LASF81
ARM GAS  C:\Users\DEVELO~1\AppData\Local\Temp\ccZn21pc.s 			page 17


 913 0543 0D       		.byte	0xd
 914 0544 AB       		.byte	0xab
 915 0545 07       		.byte	0x7
 916 0546 E0040000 		.4byte	0x4e0
 917 054a 0C       		.uleb128 0xc
 918 054b 5E050000 		.4byte	.LASF82
 919 054f 0D       		.byte	0xd
 920 0550 B8       		.byte	0xb8
 921 0551 07       		.byte	0x7
 922 0552 F6040000 		.4byte	0x4f6
 923 0556 00       		.byte	0
 924 0557 0E       		.uleb128 0xe
 925 0558 10       		.byte	0x10
 926 0559 6C       		.byte	0x6c
 927 055a 09       		.byte	0x9
 928 055b 9C050000 		.4byte	0x59c
 929 055f 16       		.uleb128 0x16
 930 0560 57000000 		.4byte	.LASF83
 931 0564 70       		.byte	0x70
 932 0565 E9000000 		.4byte	0xe9
 933 0569 03       		.byte	0x3
 934 056a 00       		.byte	0
 935 056b 16       		.uleb128 0x16
 936 056c 20010000 		.4byte	.LASF37
 937 0570 74       		.byte	0x74
 938 0571 E9000000 		.4byte	0xe9
 939 0575 05       		.byte	0x5
 940 0576 03       		.byte	0x3
 941 0577 16       		.uleb128 0x16
 942 0578 35040000 		.4byte	.LASF84
 943 057c 7A       		.byte	0x7a
 944 057d E9000000 		.4byte	0xe9
 945 0581 18       		.byte	0x18
 946 0582 08       		.byte	0x8
 947 0583 01       		.uleb128 0x1
 948 0584 1F050000 		.4byte	.LASF85
 949 0588 0D       		.byte	0xd
 950 0589 7E       		.byte	0x7e
 951 058a 19       		.byte	0x19
 952 058b 75030000 		.4byte	0x375
 953 058f 04       		.byte	0x4
 954 0590 08       		.uleb128 0x8
 955 0591 7500     		.ascii	"u\000"
 956 0593 0D       		.byte	0xd
 957 0594 B9       		.byte	0xb9
 958 0595 05       		.byte	0x5
 959 0596 19050000 		.4byte	0x519
 960 059a 08       		.byte	0x8
 961 059b 00       		.byte	0
 962 059c 02       		.uleb128 0x2
 963 059d 5C000000 		.4byte	.LASF86
 964 05a1 0D       		.byte	0xd
 965 05a2 BA       		.byte	0xba
 966 05a3 03       		.byte	0x3
 967 05a4 57050000 		.4byte	0x557
 968 05a8 23       		.uleb128 0x23
 969 05a9 0808     		.2byte	0x808
ARM GAS  C:\Users\DEVELO~1\AppData\Local\Temp\ccZn21pc.s 			page 18


 970 05ab 0D       		.byte	0xd
 971 05ac C0       		.byte	0xc0
 972 05ad 09       		.byte	0x9
 973 05ae E7050000 		.4byte	0x5e7
 974 05b2 01       		.uleb128 0x1
 975 05b3 BE040000 		.4byte	.LASF87
 976 05b7 0D       		.byte	0xd
 977 05b8 C4       		.byte	0xc4
 978 05b9 19       		.byte	0x19
 979 05ba D1000000 		.4byte	0xd1
 980 05be 00       		.byte	0
 981 05bf 01       		.uleb128 0x1
 982 05c0 90030000 		.4byte	.LASF88
 983 05c4 0D       		.byte	0xd
 984 05c5 C8       		.byte	0xc8
 985 05c6 19       		.byte	0x19
 986 05c7 D1000000 		.4byte	0xd1
 987 05cb 02       		.byte	0x2
 988 05cc 08       		.uleb128 0x8
 989 05cd 70747200 		.ascii	"ptr\000"
 990 05d1 0D       		.byte	0xd
 991 05d2 CC       		.byte	0xcc
 992 05d3 1A       		.byte	0x1a
 993 05d4 E7050000 		.4byte	0x5e7
 994 05d8 04       		.byte	0x4
 995 05d9 01       		.uleb128 0x1
 996 05da C3060000 		.4byte	.LASF89
 997 05de 0D       		.byte	0xd
 998 05df D0       		.byte	0xd0
 999 05e0 19       		.byte	0x19
 1000 05e1 EC050000 		.4byte	0x5ec
 1001 05e5 08       		.byte	0x8
 1002 05e6 00       		.byte	0
 1003 05e7 03       		.uleb128 0x3
 1004 05e8 9C050000 		.4byte	0x59c
 1005 05ec 17       		.uleb128 0x17
 1006 05ed 9C050000 		.4byte	0x59c
 1007 05f1 FC050000 		.4byte	0x5fc
 1008 05f5 18       		.uleb128 0x18
 1009 05f6 3E000000 		.4byte	0x3e
 1010 05fa 7F       		.byte	0x7f
 1011 05fb 00       		.byte	0
 1012 05fc 02       		.uleb128 0x2
 1013 05fd 1E020000 		.4byte	.LASF90
 1014 0601 0D       		.byte	0xd
 1015 0602 D1       		.byte	0xd1
 1016 0603 03       		.byte	0x3
 1017 0604 A8050000 		.4byte	0x5a8
 1018 0608 07       		.uleb128 0x7
 1019 0609 04       		.byte	0x4
 1020 060a 04       		.byte	0x4
 1021 060b 3C050000 		.4byte	.LASF91
 1022 060f 07       		.uleb128 0x7
 1023 0610 08       		.byte	0x8
 1024 0611 04       		.byte	0x4
 1025 0612 17020000 		.4byte	.LASF92
 1026 0616 03       		.uleb128 0x3
ARM GAS  C:\Users\DEVELO~1\AppData\Local\Temp\ccZn21pc.s 			page 19


 1027 0617 C0000000 		.4byte	0xc0
 1028 061b 11       		.uleb128 0x11
 1029 061c 44000000 		.4byte	.LASF93
 1030 0620 24       		.byte	0x24
 1031 0621 0E       		.byte	0xe
 1032 0622 E001     		.2byte	0x1e0
 1033 0624 08       		.byte	0x8
 1034 0625 A1060000 		.4byte	0x6a1
 1035 0629 09       		.uleb128 0x9
 1036 062a 723400   		.ascii	"r4\000"
 1037 062d 0E       		.byte	0xe
 1038 062e F901     		.2byte	0x1f9
 1039 0630 11       		.byte	0x11
 1040 0631 E9000000 		.4byte	0xe9
 1041 0635 00       		.byte	0
 1042 0636 09       		.uleb128 0x9
 1043 0637 723500   		.ascii	"r5\000"
 1044 063a 0E       		.byte	0xe
 1045 063b FA01     		.2byte	0x1fa
 1046 063d 11       		.byte	0x11
 1047 063e E9000000 		.4byte	0xe9
 1048 0642 04       		.byte	0x4
 1049 0643 09       		.uleb128 0x9
 1050 0644 723600   		.ascii	"r6\000"
 1051 0647 0E       		.byte	0xe
 1052 0648 FB01     		.2byte	0x1fb
 1053 064a 11       		.byte	0x11
 1054 064b E9000000 		.4byte	0xe9
 1055 064f 08       		.byte	0x8
 1056 0650 09       		.uleb128 0x9
 1057 0651 723700   		.ascii	"r7\000"
 1058 0654 0E       		.byte	0xe
 1059 0655 FC01     		.2byte	0x1fc
 1060 0657 11       		.byte	0x11
 1061 0658 E9000000 		.4byte	0xe9
 1062 065c 0C       		.byte	0xc
 1063 065d 09       		.uleb128 0x9
 1064 065e 723800   		.ascii	"r8\000"
 1065 0661 0E       		.byte	0xe
 1066 0662 FD01     		.2byte	0x1fd
 1067 0664 11       		.byte	0x11
 1068 0665 E9000000 		.4byte	0xe9
 1069 0669 10       		.byte	0x10
 1070 066a 09       		.uleb128 0x9
 1071 066b 723900   		.ascii	"r9\000"
 1072 066e 0E       		.byte	0xe
 1073 066f FE01     		.2byte	0x1fe
 1074 0671 11       		.byte	0x11
 1075 0672 E9000000 		.4byte	0xe9
 1076 0676 14       		.byte	0x14
 1077 0677 09       		.uleb128 0x9
 1078 0678 72313000 		.ascii	"r10\000"
 1079 067c 0E       		.byte	0xe
 1080 067d FF01     		.2byte	0x1ff
 1081 067f 11       		.byte	0x11
 1082 0680 E9000000 		.4byte	0xe9
 1083 0684 18       		.byte	0x18
ARM GAS  C:\Users\DEVELO~1\AppData\Local\Temp\ccZn21pc.s 			page 20


 1084 0685 09       		.uleb128 0x9
 1085 0686 72313100 		.ascii	"r11\000"
 1086 068a 0E       		.byte	0xe
 1087 068b 0002     		.2byte	0x200
 1088 068d 11       		.byte	0x11
 1089 068e E9000000 		.4byte	0xe9
 1090 0692 1C       		.byte	0x1c
 1091 0693 09       		.uleb128 0x9
 1092 0694 6C7200   		.ascii	"lr\000"
 1093 0697 0E       		.byte	0xe
 1094 0698 0102     		.2byte	0x201
 1095 069a 11       		.byte	0x11
 1096 069b E9000000 		.4byte	0xe9
 1097 069f 20       		.byte	0x20
 1098 06a0 00       		.byte	0
 1099 06a1 11       		.uleb128 0x11
 1100 06a2 0B050000 		.4byte	.LASF94
 1101 06a6 04       		.byte	0x4
 1102 06a7 0E       		.byte	0xe
 1103 06a8 0A02     		.2byte	0x20a
 1104 06aa 08       		.byte	0x8
 1105 06ab BD060000 		.4byte	0x6bd
 1106 06af 09       		.uleb128 0x9
 1107 06b0 737000   		.ascii	"sp\000"
 1108 06b3 0E       		.byte	0xe
 1109 06b4 0B02     		.2byte	0x20b
 1110 06b6 1A       		.byte	0x1a
 1111 06b7 BD060000 		.4byte	0x6bd
 1112 06bb 00       		.byte	0
 1113 06bc 00       		.byte	0
 1114 06bd 03       		.uleb128 0x3
 1115 06be 1B060000 		.4byte	0x61b
 1116 06c2 06       		.uleb128 0x6
 1117 06c3 93040000 		.4byte	.LASF95
 1118 06c7 18       		.byte	0x18
 1119 06c8 08       		.byte	0x8
 1120 06c9 64       		.byte	0x64
 1121 06ca 10       		.byte	0x10
 1122 06cb F7060000 		.4byte	0x6f7
 1123 06cf 01       		.uleb128 0x1
 1124 06d0 B3060000 		.4byte	.LASF96
 1125 06d4 08       		.byte	0x8
 1126 06d5 68       		.byte	0x68
 1127 06d6 21       		.byte	0x21
 1128 06d7 38040000 		.4byte	0x438
 1129 06db 00       		.byte	0
 1130 06dc 01       		.uleb128 0x1
 1131 06dd 78070000 		.4byte	.LASF97
 1132 06e1 08       		.byte	0x8
 1133 06e2 73       		.byte	0x73
 1134 06e3 21       		.byte	0x21
 1135 06e4 75030000 		.4byte	0x375
 1136 06e8 0C       		.byte	0xc
 1137 06e9 01       		.uleb128 0x1
 1138 06ea 3D040000 		.4byte	.LASF98
 1139 06ee 08       		.byte	0x8
 1140 06ef 79       		.byte	0x79
ARM GAS  C:\Users\DEVELO~1\AppData\Local\Temp\ccZn21pc.s 			page 21


 1141 06f0 21       		.byte	0x21
 1142 06f1 01010000 		.4byte	0x101
 1143 06f5 10       		.byte	0x10
 1144 06f6 00       		.byte	0
 1145 06f7 02       		.uleb128 0x2
 1146 06f8 14040000 		.4byte	.LASF99
 1147 06fc 08       		.byte	0x8
 1148 06fd 7B       		.byte	0x7b
 1149 06fe 03       		.byte	0x3
 1150 06ff C2060000 		.4byte	0x6c2
 1151 0703 06       		.uleb128 0x6
 1152 0704 42020000 		.4byte	.LASF100
 1153 0708 08       		.byte	0x8
 1154 0709 08       		.byte	0x8
 1155 070a 80       		.byte	0x80
 1156 070b 10       		.byte	0x10
 1157 070c 1E070000 		.4byte	0x71e
 1158 0710 01       		.uleb128 0x1
 1159 0711 7E030000 		.4byte	.LASF101
 1160 0715 08       		.byte	0x8
 1161 0716 84       		.byte	0x84
 1162 0717 21       		.byte	0x21
 1163 0718 B9030000 		.4byte	0x3b9
 1164 071c 00       		.byte	0
 1165 071d 00       		.byte	0
 1166 071e 02       		.uleb128 0x2
 1167 071f 26060000 		.4byte	.LASF102
 1168 0723 08       		.byte	0x8
 1169 0724 85       		.byte	0x85
 1170 0725 03       		.byte	0x3
 1171 0726 03070000 		.4byte	0x703
 1172 072a 02       		.uleb128 0x2
 1173 072b 77040000 		.4byte	.LASF103
 1174 072f 08       		.byte	0x8
 1175 0730 8A       		.byte	0x8a
 1176 0731 14       		.byte	0x14
 1177 0732 A1040000 		.4byte	0x4a1
 1178 0736 06       		.uleb128 0x6
 1179 0737 A1000000 		.4byte	.LASF104
 1180 073b 08       		.byte	0x8
 1181 073c 08       		.byte	0x8
 1182 073d 8F       		.byte	0x8f
 1183 073e 10       		.byte	0x10
 1184 073f 51070000 		.4byte	0x751
 1185 0743 01       		.uleb128 0x1
 1186 0744 7E030000 		.4byte	.LASF101
 1187 0748 08       		.byte	0x8
 1188 0749 93       		.byte	0x93
 1189 074a 21       		.byte	0x21
 1190 074b B9030000 		.4byte	0x3b9
 1191 074f 00       		.byte	0
 1192 0750 00       		.byte	0
 1193 0751 02       		.uleb128 0x2
 1194 0752 09060000 		.4byte	.LASF105
 1195 0756 08       		.byte	0x8
 1196 0757 94       		.byte	0x94
 1197 0758 03       		.byte	0x3
ARM GAS  C:\Users\DEVELO~1\AppData\Local\Temp\ccZn21pc.s 			page 22


 1198 0759 36070000 		.4byte	0x736
 1199 075d 14       		.uleb128 0x14
 1200 075e 0C       		.byte	0xc
 1201 075f 08       		.byte	0x8
 1202 0760 A0       		.byte	0xa0
 1203 0761 8A070000 		.4byte	0x78a
 1204 0765 0C       		.uleb128 0xc
 1205 0766 D5070000 		.4byte	.LASF106
 1206 076a 08       		.byte	0x8
 1207 076b A4       		.byte	0xa4
 1208 076c 21       		.byte	0x21
 1209 076d 8D030000 		.4byte	0x38d
 1210 0771 0C       		.uleb128 0xc
 1211 0772 7E030000 		.4byte	.LASF101
 1212 0776 08       		.byte	0x8
 1213 0777 A8       		.byte	0xa8
 1214 0778 21       		.byte	0x21
 1215 0779 B9030000 		.4byte	0x3b9
 1216 077d 0C       		.uleb128 0xc
 1217 077e E8060000 		.4byte	.LASF107
 1218 0782 08       		.byte	0x8
 1219 0783 AC       		.byte	0xac
 1220 0784 21       		.byte	0x21
 1221 0785 F2030000 		.4byte	0x3f2
 1222 0789 00       		.byte	0
 1223 078a 14       		.uleb128 0x14
 1224 078b 04       		.byte	0x4
 1225 078c 08       		.byte	0x8
 1226 078d EB       		.byte	0xeb
 1227 078e F3070000 		.4byte	0x7f3
 1228 0792 0C       		.uleb128 0xc
 1229 0793 23000000 		.4byte	.LASF108
 1230 0797 08       		.byte	0x8
 1231 0798 F2       		.byte	0xf2
 1232 0799 21       		.byte	0x21
 1233 079a 4E010000 		.4byte	0x14e
 1234 079e 0C       		.uleb128 0xc
 1235 079f 6F000000 		.4byte	.LASF109
 1236 07a3 08       		.byte	0x8
 1237 07a4 F9       		.byte	0xf9
 1238 07a5 21       		.byte	0x21
 1239 07a6 4E010000 		.4byte	0x14e
 1240 07aa 0F       		.uleb128 0xf
 1241 07ab D0050000 		.4byte	.LASF79
 1242 07af 0001     		.2byte	0x100
 1243 07b1 22       		.byte	0x22
 1244 07b2 A6040000 		.4byte	0x4a6
 1245 07b6 0F       		.uleb128 0xf
 1246 07b7 52030000 		.4byte	.LASF110
 1247 07bb 0701     		.2byte	0x107
 1248 07bd 22       		.byte	0x22
 1249 07be F3070000 		.4byte	0x7f3
 1250 07c2 0F       		.uleb128 0xf
 1251 07c3 83000000 		.4byte	.LASF111
 1252 07c7 0C01     		.2byte	0x10c
 1253 07c9 21       		.byte	0x21
 1254 07ca 4E010000 		.4byte	0x14e
ARM GAS  C:\Users\DEVELO~1\AppData\Local\Temp\ccZn21pc.s 			page 23


 1255 07ce 0F       		.uleb128 0xf
 1256 07cf 2E030000 		.4byte	.LASF112
 1257 07d3 1501     		.2byte	0x115
 1258 07d5 22       		.byte	0x22
 1259 07d6 20080000 		.4byte	0x820
 1260 07da 0F       		.uleb128 0xf
 1261 07db 41060000 		.4byte	.LASF113
 1262 07df 1E01     		.2byte	0x11e
 1263 07e1 22       		.byte	0x22
 1264 07e2 5A080000 		.4byte	0x85a
 1265 07e6 0F       		.uleb128 0xf
 1266 07e7 D7050000 		.4byte	.LASF114
 1267 07eb 2601     		.2byte	0x126
 1268 07ed 21       		.byte	0x21
 1269 07ee 5A010000 		.4byte	0x15a
 1270 07f2 00       		.byte	0
 1271 07f3 03       		.uleb128 0x3
 1272 07f4 2A070000 		.4byte	0x72a
 1273 07f8 06       		.uleb128 0x6
 1274 07f9 19060000 		.4byte	.LASF115
 1275 07fd 0C       		.byte	0xc
 1276 07fe 0F       		.byte	0xf
 1277 07ff 34       		.byte	0x34
 1278 0800 10       		.byte	0x10
 1279 0801 20080000 		.4byte	0x820
 1280 0805 01       		.uleb128 0x1
 1281 0806 7E030000 		.4byte	.LASF101
 1282 080a 0F       		.byte	0xf
 1283 080b 35       		.byte	0x35
 1284 080c 19       		.byte	0x19
 1285 080d B9030000 		.4byte	0x3b9
 1286 0811 00       		.byte	0
 1287 0812 08       		.uleb128 0x8
 1288 0813 636E7400 		.ascii	"cnt\000"
 1289 0817 0F       		.byte	0xf
 1290 0818 37       		.byte	0x37
 1291 0819 19       		.byte	0x19
 1292 081a 72010000 		.4byte	0x172
 1293 081e 08       		.byte	0x8
 1294 081f 00       		.byte	0
 1295 0820 03       		.uleb128 0x3
 1296 0821 F8070000 		.4byte	0x7f8
 1297 0825 06       		.uleb128 0x6
 1298 0826 6F070000 		.4byte	.LASF116
 1299 082a 10       		.byte	0x10
 1300 082b 10       		.byte	0x10
 1301 082c 39       		.byte	0x39
 1302 082d 08       		.byte	0x8
 1303 082e 5A080000 		.4byte	0x85a
 1304 0832 01       		.uleb128 0x1
 1305 0833 7E030000 		.4byte	.LASF101
 1306 0837 10       		.byte	0x10
 1307 0838 3A       		.byte	0x3a
 1308 0839 19       		.byte	0x19
 1309 083a B9030000 		.4byte	0x3b9
 1310 083e 00       		.byte	0
 1311 083f 01       		.uleb128 0x1
ARM GAS  C:\Users\DEVELO~1\AppData\Local\Temp\ccZn21pc.s 			page 24


 1312 0840 71060000 		.4byte	.LASF34
 1313 0844 10       		.byte	0x10
 1314 0845 3C       		.byte	0x3c
 1315 0846 1A       		.byte	0x1a
 1316 0847 A1040000 		.4byte	0x4a1
 1317 084b 08       		.byte	0x8
 1318 084c 01       		.uleb128 0x1
 1319 084d 9C000000 		.4byte	.LASF69
 1320 0851 10       		.byte	0x10
 1321 0852 3E       		.byte	0x3e
 1322 0853 1A       		.byte	0x1a
 1323 0854 0E090000 		.4byte	0x90e
 1324 0858 0C       		.byte	0xc
 1325 0859 00       		.byte	0
 1326 085a 03       		.uleb128 0x3
 1327 085b 25080000 		.4byte	0x825
 1328 085f 03       		.uleb128 0x3
 1329 0860 73020000 		.4byte	0x273
 1330 0864 03       		.uleb128 0x3
 1331 0865 12010000 		.4byte	0x112
 1332 0869 11       		.uleb128 0x11
 1333 086a E6030000 		.4byte	.LASF117
 1334 086e 10       		.byte	0x10
 1335 086f 08       		.byte	0x8
 1336 0870 5C01     		.2byte	0x15c
 1337 0872 10       		.byte	0x10
 1338 0873 92080000 		.4byte	0x892
 1339 0877 05       		.uleb128 0x5
 1340 0878 E8060000 		.4byte	.LASF107
 1341 087c 6101     		.2byte	0x161
 1342 087e 21       		.byte	0x21
 1343 087f F2030000 		.4byte	0x3f2
 1344 0883 00       		.byte	0
 1345 0884 05       		.uleb128 0x5
 1346 0885 29050000 		.4byte	.LASF118
 1347 0889 6501     		.2byte	0x165
 1348 088b 22       		.byte	0x22
 1349 088c A1040000 		.4byte	0x4a1
 1350 0890 0C       		.byte	0xc
 1351 0891 00       		.byte	0
 1352 0892 1B       		.uleb128 0x1b
 1353 0893 0F000000 		.4byte	.LASF119
 1354 0897 6601     		.2byte	0x166
 1355 0899 69080000 		.4byte	0x869
 1356 089d 11       		.uleb128 0x11
 1357 089e F5040000 		.4byte	.LASF120
 1358 08a2 14       		.byte	0x14
 1359 08a3 08       		.byte	0x8
 1360 08a4 6B01     		.2byte	0x16b
 1361 08a6 10       		.byte	0x10
 1362 08a7 ED080000 		.4byte	0x8ed
 1363 08ab 05       		.uleb128 0x5
 1364 08ac 79030000 		.4byte	.LASF35
 1365 08b0 6F01     		.2byte	0x16f
 1366 08b2 22       		.byte	0x22
 1367 08b3 53030000 		.4byte	0x353
 1368 08b7 00       		.byte	0
ARM GAS  C:\Users\DEVELO~1\AppData\Local\Temp\ccZn21pc.s 			page 25


 1369 08b8 05       		.uleb128 0x5
 1370 08b9 BC020000 		.4byte	.LASF121
 1371 08bd 7501     		.2byte	0x175
 1372 08bf 22       		.byte	0x22
 1373 08c0 64080000 		.4byte	0x864
 1374 08c4 04       		.byte	0x4
 1375 08c5 05       		.uleb128 0x5
 1376 08c6 36070000 		.4byte	.LASF122
 1377 08ca 7901     		.2byte	0x179
 1378 08cc 22       		.byte	0x22
 1379 08cd 64080000 		.4byte	0x864
 1380 08d1 08       		.byte	0x8
 1381 08d2 05       		.uleb128 0x5
 1382 08d3 1E030000 		.4byte	.LASF123
 1383 08d7 7F01     		.2byte	0x17f
 1384 08d9 22       		.byte	0x22
 1385 08da 64080000 		.4byte	0x864
 1386 08de 0C       		.byte	0xc
 1387 08df 05       		.uleb128 0x5
 1388 08e0 E9070000 		.4byte	.LASF124
 1389 08e4 8301     		.2byte	0x183
 1390 08e6 22       		.byte	0x22
 1391 08e7 64080000 		.4byte	0x864
 1392 08eb 10       		.byte	0x10
 1393 08ec 00       		.byte	0
 1394 08ed 1B       		.uleb128 0x1b
 1395 08ee 54070000 		.4byte	.LASF125
 1396 08f2 8501     		.2byte	0x185
 1397 08f4 9D080000 		.4byte	0x89d
 1398 08f8 0D       		.uleb128 0xd
 1399 08f9 ED080000 		.4byte	0x8ed
 1400 08fd 03       		.uleb128 0x3
 1401 08fe F8080000 		.4byte	0x8f8
 1402 0902 02       		.uleb128 0x2
 1403 0903 CC020000 		.4byte	.LASF126
 1404 0907 10       		.byte	0x10
 1405 0908 34       		.byte	0x34
 1406 0909 19       		.byte	0x19
 1407 090a 25080000 		.4byte	0x825
 1408 090e 03       		.uleb128 0x3
 1409 090f 02090000 		.4byte	0x902
 1410 0913 02       		.uleb128 0x2
 1411 0914 47040000 		.4byte	.LASF127
 1412 0918 11       		.byte	0x11
 1413 0919 34       		.byte	0x34
 1414 091a 1F       		.byte	0x1f
 1415 091b 1F090000 		.4byte	0x91f
 1416 091f 06       		.uleb128 0x6
 1417 0920 10080000 		.4byte	.LASF128
 1418 0924 14       		.byte	0x14
 1419 0925 11       		.byte	0x11
 1420 0926 39       		.byte	0x39
 1421 0927 08       		.byte	0x8
 1422 0928 6E090000 		.4byte	0x96e
 1423 092c 01       		.uleb128 0x1
 1424 092d 9C000000 		.4byte	.LASF69
 1425 0931 11       		.byte	0x11
ARM GAS  C:\Users\DEVELO~1\AppData\Local\Temp\ccZn21pc.s 			page 26


 1426 0932 3A       		.byte	0x3a
 1427 0933 1A       		.byte	0x1a
 1428 0934 6E090000 		.4byte	0x96e
 1429 0938 00       		.byte	0
 1430 0939 01       		.uleb128 0x1
 1431 093a 8A040000 		.4byte	.LASF129
 1432 093e 11       		.byte	0x11
 1433 093f 3D       		.byte	0x3d
 1434 0940 1A       		.byte	0x1a
 1435 0941 A1040000 		.4byte	0x4a1
 1436 0945 04       		.byte	0x4
 1437 0946 01       		.uleb128 0x1
 1438 0947 31060000 		.4byte	.LASF130
 1439 094b 11       		.byte	0x11
 1440 094c 3F       		.byte	0x3f
 1441 094d 19       		.byte	0x19
 1442 094e 5A010000 		.4byte	0x15a
 1443 0952 08       		.byte	0x8
 1444 0953 01       		.uleb128 0x1
 1445 0954 AD070000 		.4byte	.LASF38
 1446 0958 11       		.byte	0x11
 1447 0959 41       		.byte	0x41
 1448 095a 19       		.byte	0x19
 1449 095b 66010000 		.4byte	0x166
 1450 095f 0C       		.byte	0xc
 1451 0960 01       		.uleb128 0x1
 1452 0961 4E020000 		.4byte	.LASF131
 1453 0965 11       		.byte	0x11
 1454 0966 43       		.byte	0x43
 1455 0967 19       		.byte	0x19
 1456 0968 66010000 		.4byte	0x166
 1457 096c 10       		.byte	0x10
 1458 096d 00       		.byte	0
 1459 096e 03       		.uleb128 0x3
 1460 096f 13090000 		.4byte	0x913
 1461 0973 06       		.uleb128 0x6
 1462 0974 90070000 		.4byte	.LASF132
 1463 0978 04       		.byte	0x4
 1464 0979 11       		.byte	0x11
 1465 097a 4A       		.byte	0x4a
 1466 097b 10       		.byte	0x10
 1467 097c 8E090000 		.4byte	0x98e
 1468 0980 01       		.uleb128 0x1
 1469 0981 9C000000 		.4byte	.LASF69
 1470 0985 11       		.byte	0x11
 1471 0986 4B       		.byte	0x4b
 1472 0987 1A       		.byte	0x1a
 1473 0988 6E090000 		.4byte	0x96e
 1474 098c 00       		.byte	0
 1475 098d 00       		.byte	0
 1476 098e 02       		.uleb128 0x2
 1477 098f DD020000 		.4byte	.LASF133
 1478 0993 11       		.byte	0x11
 1479 0994 4E       		.byte	0x4e
 1480 0995 03       		.byte	0x3
 1481 0996 73090000 		.4byte	0x973
 1482 099a 07       		.uleb128 0x7
ARM GAS  C:\Users\DEVELO~1\AppData\Local\Temp\ccZn21pc.s 			page 27


 1483 099b 01       		.byte	0x1
 1484 099c 02       		.byte	0x2
 1485 099d 83050000 		.4byte	.LASF134
 1486 09a1 0B       		.uleb128 0xb
 1487 09a2 2D000000 		.4byte	0x2d
 1488 09a6 BA090000 		.4byte	0x9ba
 1489 09aa 04       		.uleb128 0x4
 1490 09ab A6040000 		.4byte	0x4a6
 1491 09af 04       		.uleb128 0x4
 1492 09b0 BA090000 		.4byte	0x9ba
 1493 09b4 04       		.uleb128 0x4
 1494 09b5 2D000000 		.4byte	0x2d
 1495 09b9 00       		.byte	0
 1496 09ba 03       		.uleb128 0x3
 1497 09bb CC000000 		.4byte	0xcc
 1498 09bf 03       		.uleb128 0x3
 1499 09c0 A1090000 		.4byte	0x9a1
 1500 09c4 0B       		.uleb128 0xb
 1501 09c5 2D000000 		.4byte	0x2d
 1502 09c9 DD090000 		.4byte	0x9dd
 1503 09cd 04       		.uleb128 0x4
 1504 09ce A6040000 		.4byte	0x4a6
 1505 09d2 04       		.uleb128 0x4
 1506 09d3 16060000 		.4byte	0x616
 1507 09d7 04       		.uleb128 0x4
 1508 09d8 2D000000 		.4byte	0x2d
 1509 09dc 00       		.byte	0
 1510 09dd 03       		.uleb128 0x3
 1511 09de C4090000 		.4byte	0x9c4
 1512 09e2 0B       		.uleb128 0xb
 1513 09e3 4E010000 		.4byte	0x14e
 1514 09e7 F6090000 		.4byte	0x9f6
 1515 09eb 04       		.uleb128 0x4
 1516 09ec A6040000 		.4byte	0x4a6
 1517 09f0 04       		.uleb128 0x4
 1518 09f1 C0000000 		.4byte	0xc0
 1519 09f5 00       		.byte	0
 1520 09f6 03       		.uleb128 0x3
 1521 09f7 E2090000 		.4byte	0x9e2
 1522 09fb 0B       		.uleb128 0xb
 1523 09fc 4E010000 		.4byte	0x14e
 1524 0a00 0A0A0000 		.4byte	0xa0a
 1525 0a04 04       		.uleb128 0x4
 1526 0a05 A6040000 		.4byte	0x4a6
 1527 0a09 00       		.byte	0
 1528 0a0a 03       		.uleb128 0x3
 1529 0a0b FB090000 		.4byte	0x9fb
 1530 0a0f 0B       		.uleb128 0xb
 1531 0a10 4E010000 		.4byte	0x14e
 1532 0a14 280A0000 		.4byte	0xa28
 1533 0a18 04       		.uleb128 0x4
 1534 0a19 A6040000 		.4byte	0x4a6
 1535 0a1d 04       		.uleb128 0x4
 1536 0a1e C0000000 		.4byte	0xc0
 1537 0a22 04       		.uleb128 0x4
 1538 0a23 81030000 		.4byte	0x381
 1539 0a27 00       		.byte	0
ARM GAS  C:\Users\DEVELO~1\AppData\Local\Temp\ccZn21pc.s 			page 28


 1540 0a28 03       		.uleb128 0x3
 1541 0a29 0F0A0000 		.4byte	0xa0f
 1542 0a2d 0B       		.uleb128 0xb
 1543 0a2e 4E010000 		.4byte	0x14e
 1544 0a32 410A0000 		.4byte	0xa41
 1545 0a36 04       		.uleb128 0x4
 1546 0a37 A6040000 		.4byte	0x4a6
 1547 0a3b 04       		.uleb128 0x4
 1548 0a3c 81030000 		.4byte	0x381
 1549 0a40 00       		.byte	0
 1550 0a41 03       		.uleb128 0x3
 1551 0a42 2D0A0000 		.4byte	0xa2d
 1552 0a46 0B       		.uleb128 0xb
 1553 0a47 2D000000 		.4byte	0x2d
 1554 0a4b 640A0000 		.4byte	0xa64
 1555 0a4f 04       		.uleb128 0x4
 1556 0a50 A6040000 		.4byte	0x4a6
 1557 0a54 04       		.uleb128 0x4
 1558 0a55 BA090000 		.4byte	0x9ba
 1559 0a59 04       		.uleb128 0x4
 1560 0a5a 2D000000 		.4byte	0x2d
 1561 0a5e 04       		.uleb128 0x4
 1562 0a5f 81030000 		.4byte	0x381
 1563 0a63 00       		.byte	0
 1564 0a64 03       		.uleb128 0x3
 1565 0a65 460A0000 		.4byte	0xa46
 1566 0a69 0B       		.uleb128 0xb
 1567 0a6a 2D000000 		.4byte	0x2d
 1568 0a6e 870A0000 		.4byte	0xa87
 1569 0a72 04       		.uleb128 0x4
 1570 0a73 A6040000 		.4byte	0x4a6
 1571 0a77 04       		.uleb128 0x4
 1572 0a78 16060000 		.4byte	0x616
 1573 0a7c 04       		.uleb128 0x4
 1574 0a7d 2D000000 		.4byte	0x2d
 1575 0a81 04       		.uleb128 0x4
 1576 0a82 81030000 		.4byte	0x381
 1577 0a86 00       		.byte	0
 1578 0a87 03       		.uleb128 0x3
 1579 0a88 690A0000 		.4byte	0xa69
 1580 0a8c 0B       		.uleb128 0xb
 1581 0a8d 4E010000 		.4byte	0x14e
 1582 0a91 A50A0000 		.4byte	0xaa5
 1583 0a95 04       		.uleb128 0x4
 1584 0a96 A6040000 		.4byte	0x4a6
 1585 0a9a 04       		.uleb128 0x4
 1586 0a9b 3E000000 		.4byte	0x3e
 1587 0a9f 04       		.uleb128 0x4
 1588 0aa0 A6040000 		.4byte	0x4a6
 1589 0aa4 00       		.byte	0
 1590 0aa5 03       		.uleb128 0x3
 1591 0aa6 8C0A0000 		.4byte	0xa8c
 1592 0aaa 02       		.uleb128 0x2
 1593 0aab 91000000 		.4byte	.LASF135
 1594 0aaf 12       		.byte	0x12
 1595 0ab0 3A       		.byte	0x3a
 1596 0ab1 19       		.byte	0x19
ARM GAS  C:\Users\DEVELO~1\AppData\Local\Temp\ccZn21pc.s 			page 29


 1597 0ab2 B60A0000 		.4byte	0xab6
 1598 0ab6 06       		.uleb128 0x6
 1599 0ab7 D4020000 		.4byte	.LASF136
 1600 0abb 24       		.byte	0x24
 1601 0abc 12       		.byte	0x12
 1602 0abd 4B       		.byte	0x4b
 1603 0abe 08       		.byte	0x8
 1604 0abf 2C0B0000 		.4byte	0xb2c
 1605 0ac3 01       		.uleb128 0x1
 1606 0ac4 BD000000 		.4byte	.LASF137
 1607 0ac8 12       		.byte	0x12
 1608 0ac9 4C       		.byte	0x4c
 1609 0aca 19       		.byte	0x19
 1610 0acb 51070000 		.4byte	0x751
 1611 0acf 00       		.byte	0
 1612 0ad0 01       		.uleb128 0x1
 1613 0ad1 AA040000 		.4byte	.LASF138
 1614 0ad5 12       		.byte	0x12
 1615 0ad6 4D       		.byte	0x4d
 1616 0ad7 19       		.byte	0x19
 1617 0ad8 39000000 		.4byte	0x39
 1618 0adc 08       		.byte	0x8
 1619 0add 01       		.uleb128 0x1
 1620 0ade FE010000 		.4byte	.LASF139
 1621 0ae2 12       		.byte	0x12
 1622 0ae3 4E       		.byte	0x4e
 1623 0ae4 1A       		.byte	0x1a
 1624 0ae5 16060000 		.4byte	0x616
 1625 0ae9 0C       		.byte	0xc
 1626 0aea 01       		.uleb128 0x1
 1627 0aeb 69070000 		.4byte	.LASF140
 1628 0aef 12       		.byte	0x12
 1629 0af0 4F       		.byte	0x4f
 1630 0af1 1A       		.byte	0x1a
 1631 0af2 16060000 		.4byte	0x616
 1632 0af6 10       		.byte	0x10
 1633 0af7 01       		.uleb128 0x1
 1634 0af8 E3040000 		.4byte	.LASF141
 1635 0afc 12       		.byte	0x12
 1636 0afd 51       		.byte	0x51
 1637 0afe 1A       		.byte	0x1a
 1638 0aff 16060000 		.4byte	0x616
 1639 0b03 14       		.byte	0x14
 1640 0b04 01       		.uleb128 0x1
 1641 0b05 6B050000 		.4byte	.LASF142
 1642 0b09 12       		.byte	0x12
 1643 0b0a 52       		.byte	0x52
 1644 0b0b 1A       		.byte	0x1a
 1645 0b0c 16060000 		.4byte	0x616
 1646 0b10 18       		.byte	0x18
 1647 0b11 01       		.uleb128 0x1
 1648 0b12 81070000 		.4byte	.LASF143
 1649 0b16 12       		.byte	0x12
 1650 0b17 53       		.byte	0x53
 1651 0b18 19       		.byte	0x19
 1652 0b19 2C0B0000 		.4byte	0xb2c
 1653 0b1d 1C       		.byte	0x1c
ARM GAS  C:\Users\DEVELO~1\AppData\Local\Temp\ccZn21pc.s 			page 30


 1654 0b1e 01       		.uleb128 0x1
 1655 0b1f 10020000 		.4byte	.LASF144
 1656 0b23 12       		.byte	0x12
 1657 0b24 54       		.byte	0x54
 1658 0b25 1A       		.byte	0x1a
 1659 0b26 A6040000 		.4byte	0x4a6
 1660 0b2a 20       		.byte	0x20
 1661 0b2b 00       		.byte	0
 1662 0b2c 02       		.uleb128 0x2
 1663 0b2d 54050000 		.4byte	.LASF145
 1664 0b31 12       		.byte	0x12
 1665 0b32 41       		.byte	0x41
 1666 0b33 10       		.byte	0x10
 1667 0b34 380B0000 		.4byte	0xb38
 1668 0b38 03       		.uleb128 0x3
 1669 0b39 3D0B0000 		.4byte	0xb3d
 1670 0b3d 24       		.uleb128 0x24
 1671 0b3e 480B0000 		.4byte	0xb48
 1672 0b42 04       		.uleb128 0x4
 1673 0b43 480B0000 		.4byte	0xb48
 1674 0b47 00       		.byte	0
 1675 0b48 03       		.uleb128 0x3
 1676 0b49 AA0A0000 		.4byte	0xaaa
 1677 0b4d 02       		.uleb128 0x2
 1678 0b4e 58040000 		.4byte	.LASF146
 1679 0b52 12       		.byte	0x12
 1680 0b53 61       		.byte	0x61
 1681 0b54 14       		.byte	0x14
 1682 0b55 AA0A0000 		.4byte	0xaaa
 1683 0b59 02       		.uleb128 0x2
 1684 0b5a 45070000 		.4byte	.LASF147
 1685 0b5e 12       		.byte	0x12
 1686 0b5f 6D       		.byte	0x6d
 1687 0b60 14       		.byte	0x14
 1688 0b61 AA0A0000 		.4byte	0xaaa
 1689 0b65 25       		.uleb128 0x25
 1690 0b66 07       		.byte	0x7
 1691 0b67 01       		.byte	0x1
 1692 0b68 66000000 		.4byte	0x66
 1693 0b6c 13       		.byte	0x13
 1694 0b6d 3B       		.byte	0x3b
 1695 0b6e 0E       		.byte	0xe
 1696 0b6f 860B0000 		.4byte	0xb86
 1697 0b73 19       		.uleb128 0x19
 1698 0b74 EB040000 		.4byte	.LASF148
 1699 0b78 00       		.byte	0
 1700 0b79 19       		.uleb128 0x19
 1701 0b7a A5070000 		.4byte	.LASF149
 1702 0b7e 01       		.byte	0x1
 1703 0b7f 19       		.uleb128 0x19
 1704 0b80 DD030000 		.4byte	.LASF150
 1705 0b84 02       		.byte	0x2
 1706 0b85 00       		.byte	0
 1707 0b86 02       		.uleb128 0x2
 1708 0b87 6A030000 		.4byte	.LASF151
 1709 0b8b 13       		.byte	0x13
 1710 0b8c 3F       		.byte	0x3f
ARM GAS  C:\Users\DEVELO~1\AppData\Local\Temp\ccZn21pc.s 			page 31


 1711 0b8d 03       		.byte	0x3
 1712 0b8e 650B0000 		.4byte	0xb65
 1713 0b92 02       		.uleb128 0x2
 1714 0b93 00000000 		.4byte	.LASF152
 1715 0b97 13       		.byte	0x13
 1716 0b98 44       		.byte	0x44
 1717 0b99 24       		.byte	0x24
 1718 0b9a 9E0B0000 		.4byte	0xb9e
 1719 0b9e 06       		.uleb128 0x6
 1720 0b9f E5050000 		.4byte	.LASF153
 1721 0ba3 54       		.byte	0x54
 1722 0ba4 13       		.byte	0x13
 1723 0ba5 68       		.byte	0x68
 1724 0ba6 08       		.byte	0x8
 1725 0ba7 ED0B0000 		.4byte	0xbed
 1726 0bab 08       		.uleb128 0x8
 1727 0bac 766D7400 		.ascii	"vmt\000"
 1728 0bb0 13       		.byte	0x13
 1729 0bb1 6A       		.byte	0x6a
 1730 0bb2 23       		.byte	0x23
 1731 0bb3 820C0000 		.4byte	0xc82
 1732 0bb7 00       		.byte	0
 1733 0bb8 01       		.uleb128 0x1
 1734 0bb9 8A030000 		.4byte	.LASF154
 1735 0bbd 13       		.byte	0x13
 1736 0bbe 6B       		.byte	0x6b
 1737 0bbf 03       		.byte	0x3
 1738 0bc0 8E090000 		.4byte	0x98e
 1739 0bc4 04       		.byte	0x4
 1740 0bc5 01       		.uleb128 0x1
 1741 0bc6 20010000 		.4byte	.LASF37
 1742 0bca 13       		.byte	0x13
 1743 0bcb 6B       		.byte	0x6b
 1744 0bcc 03       		.byte	0x3
 1745 0bcd 860B0000 		.4byte	0xb86
 1746 0bd1 08       		.byte	0x8
 1747 0bd2 01       		.uleb128 0x1
 1748 0bd3 4B030000 		.4byte	.LASF155
 1749 0bd7 13       		.byte	0x13
 1750 0bd8 6B       		.byte	0x6b
 1751 0bd9 03       		.byte	0x3
 1752 0bda 4D0B0000 		.4byte	0xb4d
 1753 0bde 0C       		.byte	0xc
 1754 0bdf 01       		.uleb128 0x1
 1755 0be0 DE050000 		.4byte	.LASF156
 1756 0be4 13       		.byte	0x13
 1757 0be5 6B       		.byte	0x6b
 1758 0be6 03       		.byte	0x3
 1759 0be7 590B0000 		.4byte	0xb59
 1760 0beb 30       		.byte	0x30
 1761 0bec 00       		.byte	0
 1762 0bed 06       		.uleb128 0x6
 1763 0bee D1040000 		.4byte	.LASF157
 1764 0bf2 28       		.byte	0x28
 1765 0bf3 13       		.byte	0x13
 1766 0bf4 51       		.byte	0x51
 1767 0bf5 08       		.byte	0x8
ARM GAS  C:\Users\DEVELO~1\AppData\Local\Temp\ccZn21pc.s 			page 32


 1768 0bf6 7D0C0000 		.4byte	0xc7d
 1769 0bfa 01       		.uleb128 0x1
 1770 0bfb C5070000 		.4byte	.LASF158
 1771 0bff 13       		.byte	0x13
 1772 0c00 52       		.byte	0x52
 1773 0c01 03       		.byte	0x3
 1774 0c02 2D000000 		.4byte	0x2d
 1775 0c06 00       		.byte	0
 1776 0c07 01       		.uleb128 0x1
 1777 0c08 2F000000 		.4byte	.LASF159
 1778 0c0c 13       		.byte	0x13
 1779 0c0d 52       		.byte	0x52
 1780 0c0e 03       		.byte	0x3
 1781 0c0f BF090000 		.4byte	0x9bf
 1782 0c13 04       		.byte	0x4
 1783 0c14 01       		.uleb128 0x1
 1784 0c15 B3070000 		.4byte	.LASF160
 1785 0c19 13       		.byte	0x13
 1786 0c1a 52       		.byte	0x52
 1787 0c1b 03       		.byte	0x3
 1788 0c1c DD090000 		.4byte	0x9dd
 1789 0c20 08       		.byte	0x8
 1790 0c21 08       		.uleb128 0x8
 1791 0c22 70757400 		.ascii	"put\000"
 1792 0c26 13       		.byte	0x13
 1793 0c27 52       		.byte	0x52
 1794 0c28 03       		.byte	0x3
 1795 0c29 F6090000 		.4byte	0x9f6
 1796 0c2d 0C       		.byte	0xc
 1797 0c2e 08       		.uleb128 0x8
 1798 0c2f 67657400 		.ascii	"get\000"
 1799 0c33 13       		.byte	0x13
 1800 0c34 52       		.byte	0x52
 1801 0c35 03       		.byte	0x3
 1802 0c36 0A0A0000 		.4byte	0xa0a
 1803 0c3a 10       		.byte	0x10
 1804 0c3b 01       		.uleb128 0x1
 1805 0c3c 66040000 		.4byte	.LASF161
 1806 0c40 13       		.byte	0x13
 1807 0c41 52       		.byte	0x52
 1808 0c42 03       		.byte	0x3
 1809 0c43 280A0000 		.4byte	0xa28
 1810 0c47 14       		.byte	0x14
 1811 0c48 01       		.uleb128 0x1
 1812 0c49 74030000 		.4byte	.LASF162
 1813 0c4d 13       		.byte	0x13
 1814 0c4e 52       		.byte	0x52
 1815 0c4f 03       		.byte	0x3
 1816 0c50 410A0000 		.4byte	0xa41
 1817 0c54 18       		.byte	0x18
 1818 0c55 01       		.uleb128 0x1
 1819 0c56 CE030000 		.4byte	.LASF163
 1820 0c5a 13       		.byte	0x13
 1821 0c5b 52       		.byte	0x52
 1822 0c5c 03       		.byte	0x3
 1823 0c5d 640A0000 		.4byte	0xa64
 1824 0c61 1C       		.byte	0x1c
ARM GAS  C:\Users\DEVELO~1\AppData\Local\Temp\ccZn21pc.s 			page 33


 1825 0c62 01       		.uleb128 0x1
 1826 0c63 B2000000 		.4byte	.LASF164
 1827 0c67 13       		.byte	0x13
 1828 0c68 52       		.byte	0x52
 1829 0c69 03       		.byte	0x3
 1830 0c6a 870A0000 		.4byte	0xa87
 1831 0c6e 20       		.byte	0x20
 1832 0c6f 08       		.uleb128 0x8
 1833 0c70 63746C00 		.ascii	"ctl\000"
 1834 0c74 13       		.byte	0x13
 1835 0c75 52       		.byte	0x52
 1836 0c76 03       		.byte	0x3
 1837 0c77 A50A0000 		.4byte	0xaa5
 1838 0c7b 24       		.byte	0x24
 1839 0c7c 00       		.byte	0
 1840 0c7d 0D       		.uleb128 0xd
 1841 0c7e ED0B0000 		.4byte	0xbed
 1842 0c82 03       		.uleb128 0x3
 1843 0c83 7D0C0000 		.4byte	0xc7d
 1844 0c87 1C       		.uleb128 0x1c
 1845 0c88 18050000 		.4byte	.LASF165
 1846 0c8c 3D01     		.2byte	0x13d
 1847 0c8e 4E010000 		.4byte	0x14e
 1848 0c92 9C0C0000 		.4byte	0xc9c
 1849 0c96 04       		.uleb128 0x4
 1850 0c97 9C0C0000 		.4byte	0xc9c
 1851 0c9b 00       		.byte	0
 1852 0c9c 03       		.uleb128 0x3
 1853 0c9d 590B0000 		.4byte	0xb59
 1854 0ca1 26       		.uleb128 0x26
 1855 0ca2 2D020000 		.4byte	.LASF171
 1856 0ca6 11       		.byte	0x11
 1857 0ca7 8C       		.byte	0x8c
 1858 0ca8 08       		.byte	0x8
 1859 0ca9 B80C0000 		.4byte	0xcb8
 1860 0cad 04       		.uleb128 0x4
 1861 0cae B80C0000 		.4byte	0xcb8
 1862 0cb2 04       		.uleb128 0x4
 1863 0cb3 66010000 		.4byte	0x166
 1864 0cb7 00       		.byte	0
 1865 0cb8 03       		.uleb128 0x3
 1866 0cb9 8E090000 		.4byte	0x98e
 1867 0cbd 1C       		.uleb128 0x1c
 1868 0cbe 35030000 		.4byte	.LASF166
 1869 0cc2 3101     		.2byte	0x131
 1870 0cc4 4E010000 		.4byte	0x14e
 1871 0cc8 D70C0000 		.4byte	0xcd7
 1872 0ccc 04       		.uleb128 0x4
 1873 0ccd D70C0000 		.4byte	0xcd7
 1874 0cd1 04       		.uleb128 0x4
 1875 0cd2 C0000000 		.4byte	0xc0
 1876 0cd6 00       		.byte	0
 1877 0cd7 03       		.uleb128 0x3
 1878 0cd8 4D0B0000 		.4byte	0xb4d
 1879 0cdc 27       		.uleb128 0x27
 1880 0cdd DA070000 		.4byte	.LASF172
 1881 0ce1 01       		.byte	0x1
ARM GAS  C:\Users\DEVELO~1\AppData\Local\Temp\ccZn21pc.s 			page 34


 1882 0ce2 58       		.byte	0x58
 1883 0ce3 07       		.byte	0x7
 1884 0ce4 4E010000 		.4byte	0x14e
 1885 0ce8 00000000 		.4byte	.LFB432
 1886 0cec 1E000000 		.4byte	.LFE432-.LFB432
 1887 0cf0 01       		.uleb128 0x1
 1888 0cf1 9C       		.byte	0x9c
 1889 0cf2 7C0D0000 		.4byte	0xd7c
 1890 0cf6 1A       		.uleb128 0x1a
 1891 0cf7 62737000 		.ascii	"bsp\000"
 1892 0cfb 58       		.byte	0x58
 1893 0cfc 26       		.byte	0x26
 1894 0cfd 7C0D0000 		.4byte	0xd7c
 1895 0d01 10000000 		.4byte	.LLST6
 1896 0d05 0C000000 		.4byte	.LVUS6
 1897 0d09 28       		.uleb128 0x28
 1898 0d0a 6200     		.ascii	"b\000"
 1899 0d0c 01       		.byte	0x1
 1900 0d0d 59       		.byte	0x59
 1901 0d0e 0A       		.byte	0xa
 1902 0d0f 4E010000 		.4byte	0x14e
 1903 0d13 24000000 		.4byte	.LLST7
 1904 0d17 20000000 		.4byte	.LVUS7
 1905 0d1b 1D       		.uleb128 0x1d
 1906 0d1c F9050000 		.4byte	.LASF167
 1907 0d20 910D0000 		.4byte	0xd91
 1908 0d24 1E       		.uleb128 0x1e
 1909 0d25 AA0E0000 		.4byte	0xeaa
 1910 0d29 12000000 		.4byte	.LBI14
 1911 0d2d 01       		.byte	.LVU50
 1912 0d2e 12000000 		.4byte	.LBB14
 1913 0d32 08000000 		.4byte	.LBE14-.LBB14
 1914 0d36 60       		.byte	0x60
 1915 0d37 6B0D0000 		.4byte	0xd6b
 1916 0d3b 10       		.uleb128 0x10
 1917 0d3c C10E0000 		.4byte	0xec1
 1918 0d40 36000000 		.4byte	.LLST8
 1919 0d44 34000000 		.4byte	.LVUS8
 1920 0d48 10       		.uleb128 0x10
 1921 0d49 B40E0000 		.4byte	0xeb4
 1922 0d4d 46000000 		.4byte	.LLST9
 1923 0d51 40000000 		.4byte	.LVUS9
 1924 0d55 12       		.uleb128 0x12
 1925 0d56 1A000000 		.4byte	.LVL18
 1926 0d5a A10C0000 		.4byte	0xca1
 1927 0d5e 0A       		.uleb128 0xa
 1928 0d5f 01       		.uleb128 0x1
 1929 0d60 50       		.byte	0x50
 1930 0d61 02       		.uleb128 0x2
 1931 0d62 75       		.byte	0x75
 1932 0d63 04       		.sleb128 4
 1933 0d64 0A       		.uleb128 0xa
 1934 0d65 01       		.uleb128 0x1
 1935 0d66 51       		.byte	0x51
 1936 0d67 01       		.uleb128 0x1
 1937 0d68 38       		.byte	0x38
 1938 0d69 00       		.byte	0
ARM GAS  C:\Users\DEVELO~1\AppData\Local\Temp\ccZn21pc.s 			page 35


 1939 0d6a 00       		.byte	0
 1940 0d6b 12       		.uleb128 0x12
 1941 0d6c 0A000000 		.4byte	.LVL15
 1942 0d70 870C0000 		.4byte	0xc87
 1943 0d74 0A       		.uleb128 0xa
 1944 0d75 01       		.uleb128 0x1
 1945 0d76 50       		.byte	0x50
 1946 0d77 02       		.uleb128 0x2
 1947 0d78 75       		.byte	0x75
 1948 0d79 30       		.sleb128 48
 1949 0d7a 00       		.byte	0
 1950 0d7b 00       		.byte	0
 1951 0d7c 03       		.uleb128 0x3
 1952 0d7d 920B0000 		.4byte	0xb92
 1953 0d81 17       		.uleb128 0x17
 1954 0d82 64030000 		.4byte	0x364
 1955 0d86 910D0000 		.4byte	0xd91
 1956 0d8a 18       		.uleb128 0x18
 1957 0d8b 3E000000 		.4byte	0x3e
 1958 0d8f 0E       		.byte	0xe
 1959 0d90 00       		.byte	0
 1960 0d91 0D       		.uleb128 0xd
 1961 0d92 810D0000 		.4byte	0xd81
 1962 0d96 29       		.uleb128 0x29
 1963 0d97 00080000 		.4byte	.LASF173
 1964 0d9b 01       		.byte	0x1
 1965 0d9c 3C       		.byte	0x3c
 1966 0d9d 06       		.byte	0x6
 1967 0d9e 00000000 		.4byte	.LFB431
 1968 0da2 3E000000 		.4byte	.LFE431-.LFB431
 1969 0da6 01       		.uleb128 0x1
 1970 0da7 9C       		.byte	0x9c
 1971 0da8 950E0000 		.4byte	0xe95
 1972 0dac 1A       		.uleb128 0x1a
 1973 0dad 62737000 		.ascii	"bsp\000"
 1974 0db1 3C       		.byte	0x3c
 1975 0db2 26       		.byte	0x26
 1976 0db3 7C0D0000 		.4byte	0xd7c
 1977 0db7 6B000000 		.4byte	.LLST0
 1978 0dbb 5F000000 		.4byte	.LVUS0
 1979 0dbf 1A       		.uleb128 0x1a
 1980 0dc0 6200     		.ascii	"b\000"
 1981 0dc2 3C       		.byte	0x3c
 1982 0dc3 33       		.byte	0x33
 1983 0dc4 C0000000 		.4byte	0xc0
 1984 0dc8 9C000000 		.4byte	.LLST1
 1985 0dcc 94000000 		.4byte	.LVUS1
 1986 0dd0 1D       		.uleb128 0x1d
 1987 0dd1 F9050000 		.4byte	.LASF167
 1988 0dd5 A50E0000 		.4byte	0xea5
 1989 0dd9 1E       		.uleb128 0x1e
 1990 0dda AA0E0000 		.4byte	0xeaa
 1991 0dde 1A000000 		.4byte	.LBI8
 1992 0de2 01       		.byte	.LVU18
 1993 0de3 1A000000 		.4byte	.LBB8
 1994 0de7 08000000 		.4byte	.LBE8-.LBB8
 1995 0deb 42       		.byte	0x42
ARM GAS  C:\Users\DEVELO~1\AppData\Local\Temp\ccZn21pc.s 			page 36


 1996 0dec 200E0000 		.4byte	0xe20
 1997 0df0 10       		.uleb128 0x10
 1998 0df1 C10E0000 		.4byte	0xec1
 1999 0df5 BE000000 		.4byte	.LLST2
 2000 0df9 BC000000 		.4byte	.LVUS2
 2001 0dfd 10       		.uleb128 0x10
 2002 0dfe B40E0000 		.4byte	0xeb4
 2003 0e02 CE000000 		.4byte	.LLST3
 2004 0e06 C8000000 		.4byte	.LVUS3
 2005 0e0a 12       		.uleb128 0x12
 2006 0e0b 22000000 		.4byte	.LVL7
 2007 0e0f A10C0000 		.4byte	0xca1
 2008 0e13 0A       		.uleb128 0xa
 2009 0e14 01       		.uleb128 0x1
 2010 0e15 50       		.byte	0x50
 2011 0e16 02       		.uleb128 0x2
 2012 0e17 74       		.byte	0x74
 2013 0e18 04       		.sleb128 4
 2014 0e19 0A       		.uleb128 0xa
 2015 0e1a 01       		.uleb128 0x1
 2016 0e1b 51       		.byte	0x51
 2017 0e1c 01       		.uleb128 0x1
 2018 0e1d 34       		.byte	0x34
 2019 0e1e 00       		.byte	0
 2020 0e1f 00       		.byte	0
 2021 0e20 2A       		.uleb128 0x2a
 2022 0e21 AA0E0000 		.4byte	0xeaa
 2023 0e25 30000000 		.4byte	.LBI10
 2024 0e29 01       		.byte	.LVU28
 2025 0e2a 0C000000 		.4byte	.LLRL4
 2026 0e2e 01       		.byte	0x1
 2027 0e2f 46       		.byte	0x46
 2028 0e30 05       		.byte	0x5
 2029 0e31 640E0000 		.4byte	0xe64
 2030 0e35 2B       		.uleb128 0x2b
 2031 0e36 C10E0000 		.4byte	0xec1
 2032 0e3a 0008     		.2byte	0x800
 2033 0e3c 10       		.uleb128 0x10
 2034 0e3d B40E0000 		.4byte	0xeb4
 2035 0e41 ED000000 		.4byte	.LLST5
 2036 0e45 E7000000 		.4byte	.LVUS5
 2037 0e49 2C       		.uleb128 0x2c
 2038 0e4a 3E000000 		.4byte	.LVL12
 2039 0e4e A10C0000 		.4byte	0xca1
 2040 0e52 0A       		.uleb128 0xa
 2041 0e53 01       		.uleb128 0x1
 2042 0e54 50       		.byte	0x50
 2043 0e55 05       		.uleb128 0x5
 2044 0e56 A3       		.byte	0xa3
 2045 0e57 01       		.uleb128 0x1
 2046 0e58 50       		.byte	0x50
 2047 0e59 23       		.byte	0x23
 2048 0e5a 04       		.uleb128 0x4
 2049 0e5b 0A       		.uleb128 0xa
 2050 0e5c 01       		.uleb128 0x1
 2051 0e5d 51       		.byte	0x51
 2052 0e5e 03       		.uleb128 0x3
ARM GAS  C:\Users\DEVELO~1\AppData\Local\Temp\ccZn21pc.s 			page 37


 2053 0e5f 0A       		.byte	0xa
 2054 0e60 0008     		.2byte	0x800
 2055 0e62 00       		.byte	0
 2056 0e63 00       		.byte	0
 2057 0e64 2D       		.uleb128 0x2d
 2058 0e65 14000000 		.4byte	.LVL3
 2059 0e69 BD0C0000 		.4byte	0xcbd
 2060 0e6d 7E0E0000 		.4byte	0xe7e
 2061 0e71 0A       		.uleb128 0xa
 2062 0e72 01       		.uleb128 0x1
 2063 0e73 50       		.byte	0x50
 2064 0e74 02       		.uleb128 0x2
 2065 0e75 74       		.byte	0x74
 2066 0e76 0C       		.sleb128 12
 2067 0e77 0A       		.uleb128 0xa
 2068 0e78 01       		.uleb128 0x1
 2069 0e79 51       		.byte	0x51
 2070 0e7a 02       		.uleb128 0x2
 2071 0e7b 75       		.byte	0x75
 2072 0e7c 00       		.sleb128 0
 2073 0e7d 00       		.byte	0
 2074 0e7e 12       		.uleb128 0x12
 2075 0e7f 2C000000 		.4byte	.LVL8
 2076 0e83 BD0C0000 		.4byte	0xcbd
 2077 0e87 0A       		.uleb128 0xa
 2078 0e88 01       		.uleb128 0x1
 2079 0e89 50       		.byte	0x50
 2080 0e8a 02       		.uleb128 0x2
 2081 0e8b 74       		.byte	0x74
 2082 0e8c 0C       		.sleb128 12
 2083 0e8d 0A       		.uleb128 0xa
 2084 0e8e 01       		.uleb128 0x1
 2085 0e8f 51       		.byte	0x51
 2086 0e90 02       		.uleb128 0x2
 2087 0e91 75       		.byte	0x75
 2088 0e92 00       		.sleb128 0
 2089 0e93 00       		.byte	0
 2090 0e94 00       		.byte	0
 2091 0e95 17       		.uleb128 0x17
 2092 0e96 64030000 		.4byte	0x364
 2093 0e9a A50E0000 		.4byte	0xea5
 2094 0e9e 18       		.uleb128 0x18
 2095 0e9f 3E000000 		.4byte	0x3e
 2096 0ea3 0F       		.byte	0xf
 2097 0ea4 00       		.byte	0
 2098 0ea5 0D       		.uleb128 0xd
 2099 0ea6 950E0000 		.4byte	0xe95
 2100 0eaa 2E       		.uleb128 0x2e
 2101 0eab 48060000 		.4byte	.LASF174
 2102 0eaf 02       		.byte	0x2
 2103 0eb0 BC03     		.2byte	0x3bc
 2104 0eb2 14       		.byte	0x14
 2105 0eb3 03       		.byte	0x3
 2106 0eb4 2F       		.uleb128 0x2f
 2107 0eb5 65737000 		.ascii	"esp\000"
 2108 0eb9 02       		.byte	0x2
 2109 0eba BC03     		.2byte	0x3bc
ARM GAS  C:\Users\DEVELO~1\AppData\Local\Temp\ccZn21pc.s 			page 38


 2110 0ebc 3D       		.byte	0x3d
 2111 0ebd B80C0000 		.4byte	0xcb8
 2112 0ec1 30       		.uleb128 0x30
 2113 0ec2 AD070000 		.4byte	.LASF38
 2114 0ec6 02       		.byte	0x2
 2115 0ec7 BD03     		.2byte	0x3bd
 2116 0ec9 3A       		.byte	0x3a
 2117 0eca 66010000 		.4byte	0x166
 2118 0ece 00       		.byte	0
 2119 0ecf 00       		.byte	0
 2120              		.section	.debug_abbrev,"",%progbits
 2121              	.Ldebug_abbrev0:
 2122 0000 01       		.uleb128 0x1
 2123 0001 0D       		.uleb128 0xd
 2124 0002 00       		.byte	0
 2125 0003 03       		.uleb128 0x3
 2126 0004 0E       		.uleb128 0xe
 2127 0005 3A       		.uleb128 0x3a
 2128 0006 0B       		.uleb128 0xb
 2129 0007 3B       		.uleb128 0x3b
 2130 0008 0B       		.uleb128 0xb
 2131 0009 39       		.uleb128 0x39
 2132 000a 0B       		.uleb128 0xb
 2133 000b 49       		.uleb128 0x49
 2134 000c 13       		.uleb128 0x13
 2135 000d 38       		.uleb128 0x38
 2136 000e 0B       		.uleb128 0xb
 2137 000f 00       		.byte	0
 2138 0010 00       		.byte	0
 2139 0011 02       		.uleb128 0x2
 2140 0012 16       		.uleb128 0x16
 2141 0013 00       		.byte	0
 2142 0014 03       		.uleb128 0x3
 2143 0015 0E       		.uleb128 0xe
 2144 0016 3A       		.uleb128 0x3a
 2145 0017 0B       		.uleb128 0xb
 2146 0018 3B       		.uleb128 0x3b
 2147 0019 0B       		.uleb128 0xb
 2148 001a 39       		.uleb128 0x39
 2149 001b 0B       		.uleb128 0xb
 2150 001c 49       		.uleb128 0x49
 2151 001d 13       		.uleb128 0x13
 2152 001e 00       		.byte	0
 2153 001f 00       		.byte	0
 2154 0020 03       		.uleb128 0x3
 2155 0021 0F       		.uleb128 0xf
 2156 0022 00       		.byte	0
 2157 0023 0B       		.uleb128 0xb
 2158 0024 21       		.uleb128 0x21
 2159 0025 04       		.sleb128 4
 2160 0026 49       		.uleb128 0x49
 2161 0027 13       		.uleb128 0x13
 2162 0028 00       		.byte	0
 2163 0029 00       		.byte	0
 2164 002a 04       		.uleb128 0x4
 2165 002b 05       		.uleb128 0x5
 2166 002c 00       		.byte	0
ARM GAS  C:\Users\DEVELO~1\AppData\Local\Temp\ccZn21pc.s 			page 39


 2167 002d 49       		.uleb128 0x49
 2168 002e 13       		.uleb128 0x13
 2169 002f 00       		.byte	0
 2170 0030 00       		.byte	0
 2171 0031 05       		.uleb128 0x5
 2172 0032 0D       		.uleb128 0xd
 2173 0033 00       		.byte	0
 2174 0034 03       		.uleb128 0x3
 2175 0035 0E       		.uleb128 0xe
 2176 0036 3A       		.uleb128 0x3a
 2177 0037 21       		.uleb128 0x21
 2178 0038 08       		.sleb128 8
 2179 0039 3B       		.uleb128 0x3b
 2180 003a 05       		.uleb128 0x5
 2181 003b 39       		.uleb128 0x39
 2182 003c 0B       		.uleb128 0xb
 2183 003d 49       		.uleb128 0x49
 2184 003e 13       		.uleb128 0x13
 2185 003f 38       		.uleb128 0x38
 2186 0040 0B       		.uleb128 0xb
 2187 0041 00       		.byte	0
 2188 0042 00       		.byte	0
 2189 0043 06       		.uleb128 0x6
 2190 0044 13       		.uleb128 0x13
 2191 0045 01       		.byte	0x1
 2192 0046 03       		.uleb128 0x3
 2193 0047 0E       		.uleb128 0xe
 2194 0048 0B       		.uleb128 0xb
 2195 0049 0B       		.uleb128 0xb
 2196 004a 3A       		.uleb128 0x3a
 2197 004b 0B       		.uleb128 0xb
 2198 004c 3B       		.uleb128 0x3b
 2199 004d 0B       		.uleb128 0xb
 2200 004e 39       		.uleb128 0x39
 2201 004f 0B       		.uleb128 0xb
 2202 0050 01       		.uleb128 0x1
 2203 0051 13       		.uleb128 0x13
 2204 0052 00       		.byte	0
 2205 0053 00       		.byte	0
 2206 0054 07       		.uleb128 0x7
 2207 0055 24       		.uleb128 0x24
 2208 0056 00       		.byte	0
 2209 0057 0B       		.uleb128 0xb
 2210 0058 0B       		.uleb128 0xb
 2211 0059 3E       		.uleb128 0x3e
 2212 005a 0B       		.uleb128 0xb
 2213 005b 03       		.uleb128 0x3
 2214 005c 0E       		.uleb128 0xe
 2215 005d 00       		.byte	0
 2216 005e 00       		.byte	0
 2217 005f 08       		.uleb128 0x8
 2218 0060 0D       		.uleb128 0xd
 2219 0061 00       		.byte	0
 2220 0062 03       		.uleb128 0x3
 2221 0063 08       		.uleb128 0x8
 2222 0064 3A       		.uleb128 0x3a
 2223 0065 0B       		.uleb128 0xb
ARM GAS  C:\Users\DEVELO~1\AppData\Local\Temp\ccZn21pc.s 			page 40


 2224 0066 3B       		.uleb128 0x3b
 2225 0067 0B       		.uleb128 0xb
 2226 0068 39       		.uleb128 0x39
 2227 0069 0B       		.uleb128 0xb
 2228 006a 49       		.uleb128 0x49
 2229 006b 13       		.uleb128 0x13
 2230 006c 38       		.uleb128 0x38
 2231 006d 0B       		.uleb128 0xb
 2232 006e 00       		.byte	0
 2233 006f 00       		.byte	0
 2234 0070 09       		.uleb128 0x9
 2235 0071 0D       		.uleb128 0xd
 2236 0072 00       		.byte	0
 2237 0073 03       		.uleb128 0x3
 2238 0074 08       		.uleb128 0x8
 2239 0075 3A       		.uleb128 0x3a
 2240 0076 0B       		.uleb128 0xb
 2241 0077 3B       		.uleb128 0x3b
 2242 0078 05       		.uleb128 0x5
 2243 0079 39       		.uleb128 0x39
 2244 007a 0B       		.uleb128 0xb
 2245 007b 49       		.uleb128 0x49
 2246 007c 13       		.uleb128 0x13
 2247 007d 38       		.uleb128 0x38
 2248 007e 0B       		.uleb128 0xb
 2249 007f 00       		.byte	0
 2250 0080 00       		.byte	0
 2251 0081 0A       		.uleb128 0xa
 2252 0082 49       		.uleb128 0x49
 2253 0083 00       		.byte	0
 2254 0084 02       		.uleb128 0x2
 2255 0085 18       		.uleb128 0x18
 2256 0086 7E       		.uleb128 0x7e
 2257 0087 18       		.uleb128 0x18
 2258 0088 00       		.byte	0
 2259 0089 00       		.byte	0
 2260 008a 0B       		.uleb128 0xb
 2261 008b 15       		.uleb128 0x15
 2262 008c 01       		.byte	0x1
 2263 008d 27       		.uleb128 0x27
 2264 008e 19       		.uleb128 0x19
 2265 008f 49       		.uleb128 0x49
 2266 0090 13       		.uleb128 0x13
 2267 0091 01       		.uleb128 0x1
 2268 0092 13       		.uleb128 0x13
 2269 0093 00       		.byte	0
 2270 0094 00       		.byte	0
 2271 0095 0C       		.uleb128 0xc
 2272 0096 0D       		.uleb128 0xd
 2273 0097 00       		.byte	0
 2274 0098 03       		.uleb128 0x3
 2275 0099 0E       		.uleb128 0xe
 2276 009a 3A       		.uleb128 0x3a
 2277 009b 0B       		.uleb128 0xb
 2278 009c 3B       		.uleb128 0x3b
 2279 009d 0B       		.uleb128 0xb
 2280 009e 39       		.uleb128 0x39
ARM GAS  C:\Users\DEVELO~1\AppData\Local\Temp\ccZn21pc.s 			page 41


 2281 009f 0B       		.uleb128 0xb
 2282 00a0 49       		.uleb128 0x49
 2283 00a1 13       		.uleb128 0x13
 2284 00a2 00       		.byte	0
 2285 00a3 00       		.byte	0
 2286 00a4 0D       		.uleb128 0xd
 2287 00a5 26       		.uleb128 0x26
 2288 00a6 00       		.byte	0
 2289 00a7 49       		.uleb128 0x49
 2290 00a8 13       		.uleb128 0x13
 2291 00a9 00       		.byte	0
 2292 00aa 00       		.byte	0
 2293 00ab 0E       		.uleb128 0xe
 2294 00ac 13       		.uleb128 0x13
 2295 00ad 01       		.byte	0x1
 2296 00ae 0B       		.uleb128 0xb
 2297 00af 0B       		.uleb128 0xb
 2298 00b0 3A       		.uleb128 0x3a
 2299 00b1 21       		.uleb128 0x21
 2300 00b2 0D       		.sleb128 13
 2301 00b3 3B       		.uleb128 0x3b
 2302 00b4 0B       		.uleb128 0xb
 2303 00b5 39       		.uleb128 0x39
 2304 00b6 0B       		.uleb128 0xb
 2305 00b7 01       		.uleb128 0x1
 2306 00b8 13       		.uleb128 0x13
 2307 00b9 00       		.byte	0
 2308 00ba 00       		.byte	0
 2309 00bb 0F       		.uleb128 0xf
 2310 00bc 0D       		.uleb128 0xd
 2311 00bd 00       		.byte	0
 2312 00be 03       		.uleb128 0x3
 2313 00bf 0E       		.uleb128 0xe
 2314 00c0 3A       		.uleb128 0x3a
 2315 00c1 21       		.uleb128 0x21
 2316 00c2 08       		.sleb128 8
 2317 00c3 3B       		.uleb128 0x3b
 2318 00c4 05       		.uleb128 0x5
 2319 00c5 39       		.uleb128 0x39
 2320 00c6 0B       		.uleb128 0xb
 2321 00c7 49       		.uleb128 0x49
 2322 00c8 13       		.uleb128 0x13
 2323 00c9 00       		.byte	0
 2324 00ca 00       		.byte	0
 2325 00cb 10       		.uleb128 0x10
 2326 00cc 05       		.uleb128 0x5
 2327 00cd 00       		.byte	0
 2328 00ce 31       		.uleb128 0x31
 2329 00cf 13       		.uleb128 0x13
 2330 00d0 02       		.uleb128 0x2
 2331 00d1 17       		.uleb128 0x17
 2332 00d2 B742     		.uleb128 0x2137
 2333 00d4 17       		.uleb128 0x17
 2334 00d5 00       		.byte	0
 2335 00d6 00       		.byte	0
 2336 00d7 11       		.uleb128 0x11
 2337 00d8 13       		.uleb128 0x13
ARM GAS  C:\Users\DEVELO~1\AppData\Local\Temp\ccZn21pc.s 			page 42


 2338 00d9 01       		.byte	0x1
 2339 00da 03       		.uleb128 0x3
 2340 00db 0E       		.uleb128 0xe
 2341 00dc 0B       		.uleb128 0xb
 2342 00dd 0B       		.uleb128 0xb
 2343 00de 3A       		.uleb128 0x3a
 2344 00df 0B       		.uleb128 0xb
 2345 00e0 3B       		.uleb128 0x3b
 2346 00e1 05       		.uleb128 0x5
 2347 00e2 39       		.uleb128 0x39
 2348 00e3 0B       		.uleb128 0xb
 2349 00e4 01       		.uleb128 0x1
 2350 00e5 13       		.uleb128 0x13
 2351 00e6 00       		.byte	0
 2352 00e7 00       		.byte	0
 2353 00e8 12       		.uleb128 0x12
 2354 00e9 48       		.uleb128 0x48
 2355 00ea 01       		.byte	0x1
 2356 00eb 7D       		.uleb128 0x7d
 2357 00ec 01       		.uleb128 0x1
 2358 00ed 7F       		.uleb128 0x7f
 2359 00ee 13       		.uleb128 0x13
 2360 00ef 00       		.byte	0
 2361 00f0 00       		.byte	0
 2362 00f1 13       		.uleb128 0x13
 2363 00f2 35       		.uleb128 0x35
 2364 00f3 00       		.byte	0
 2365 00f4 49       		.uleb128 0x49
 2366 00f5 13       		.uleb128 0x13
 2367 00f6 00       		.byte	0
 2368 00f7 00       		.byte	0
 2369 00f8 14       		.uleb128 0x14
 2370 00f9 17       		.uleb128 0x17
 2371 00fa 01       		.byte	0x1
 2372 00fb 0B       		.uleb128 0xb
 2373 00fc 0B       		.uleb128 0xb
 2374 00fd 3A       		.uleb128 0x3a
 2375 00fe 0B       		.uleb128 0xb
 2376 00ff 3B       		.uleb128 0x3b
 2377 0100 0B       		.uleb128 0xb
 2378 0101 39       		.uleb128 0x39
 2379 0102 21       		.uleb128 0x21
 2380 0103 03       		.sleb128 3
 2381 0104 01       		.uleb128 0x1
 2382 0105 13       		.uleb128 0x13
 2383 0106 00       		.byte	0
 2384 0107 00       		.byte	0
 2385 0108 15       		.uleb128 0x15
 2386 0109 0D       		.uleb128 0xd
 2387 010a 00       		.byte	0
 2388 010b 03       		.uleb128 0x3
 2389 010c 08       		.uleb128 0x8
 2390 010d 3A       		.uleb128 0x3a
 2391 010e 21       		.uleb128 0x21
 2392 010f 0D       		.sleb128 13
 2393 0110 3B       		.uleb128 0x3b
 2394 0111 0B       		.uleb128 0xb
ARM GAS  C:\Users\DEVELO~1\AppData\Local\Temp\ccZn21pc.s 			page 43


 2395 0112 39       		.uleb128 0x39
 2396 0113 21       		.uleb128 0x21
 2397 0114 07       		.sleb128 7
 2398 0115 49       		.uleb128 0x49
 2399 0116 13       		.uleb128 0x13
 2400 0117 00       		.byte	0
 2401 0118 00       		.byte	0
 2402 0119 16       		.uleb128 0x16
 2403 011a 0D       		.uleb128 0xd
 2404 011b 00       		.byte	0
 2405 011c 03       		.uleb128 0x3
 2406 011d 0E       		.uleb128 0xe
 2407 011e 3A       		.uleb128 0x3a
 2408 011f 21       		.uleb128 0x21
 2409 0120 0D       		.sleb128 13
 2410 0121 3B       		.uleb128 0x3b
 2411 0122 0B       		.uleb128 0xb
 2412 0123 39       		.uleb128 0x39
 2413 0124 21       		.uleb128 0x21
 2414 0125 19       		.sleb128 25
 2415 0126 49       		.uleb128 0x49
 2416 0127 13       		.uleb128 0x13
 2417 0128 0D       		.uleb128 0xd
 2418 0129 0B       		.uleb128 0xb
 2419 012a 6B       		.uleb128 0x6b
 2420 012b 0B       		.uleb128 0xb
 2421 012c 00       		.byte	0
 2422 012d 00       		.byte	0
 2423 012e 17       		.uleb128 0x17
 2424 012f 01       		.uleb128 0x1
 2425 0130 01       		.byte	0x1
 2426 0131 49       		.uleb128 0x49
 2427 0132 13       		.uleb128 0x13
 2428 0133 01       		.uleb128 0x1
 2429 0134 13       		.uleb128 0x13
 2430 0135 00       		.byte	0
 2431 0136 00       		.byte	0
 2432 0137 18       		.uleb128 0x18
 2433 0138 21       		.uleb128 0x21
 2434 0139 00       		.byte	0
 2435 013a 49       		.uleb128 0x49
 2436 013b 13       		.uleb128 0x13
 2437 013c 2F       		.uleb128 0x2f
 2438 013d 0B       		.uleb128 0xb
 2439 013e 00       		.byte	0
 2440 013f 00       		.byte	0
 2441 0140 19       		.uleb128 0x19
 2442 0141 28       		.uleb128 0x28
 2443 0142 00       		.byte	0
 2444 0143 03       		.uleb128 0x3
 2445 0144 0E       		.uleb128 0xe
 2446 0145 1C       		.uleb128 0x1c
 2447 0146 0B       		.uleb128 0xb
 2448 0147 00       		.byte	0
 2449 0148 00       		.byte	0
 2450 0149 1A       		.uleb128 0x1a
 2451 014a 05       		.uleb128 0x5
ARM GAS  C:\Users\DEVELO~1\AppData\Local\Temp\ccZn21pc.s 			page 44


 2452 014b 00       		.byte	0
 2453 014c 03       		.uleb128 0x3
 2454 014d 08       		.uleb128 0x8
 2455 014e 3A       		.uleb128 0x3a
 2456 014f 21       		.uleb128 0x21
 2457 0150 01       		.sleb128 1
 2458 0151 3B       		.uleb128 0x3b
 2459 0152 0B       		.uleb128 0xb
 2460 0153 39       		.uleb128 0x39
 2461 0154 0B       		.uleb128 0xb
 2462 0155 49       		.uleb128 0x49
 2463 0156 13       		.uleb128 0x13
 2464 0157 02       		.uleb128 0x2
 2465 0158 17       		.uleb128 0x17
 2466 0159 B742     		.uleb128 0x2137
 2467 015b 17       		.uleb128 0x17
 2468 015c 00       		.byte	0
 2469 015d 00       		.byte	0
 2470 015e 1B       		.uleb128 0x1b
 2471 015f 16       		.uleb128 0x16
 2472 0160 00       		.byte	0
 2473 0161 03       		.uleb128 0x3
 2474 0162 0E       		.uleb128 0xe
 2475 0163 3A       		.uleb128 0x3a
 2476 0164 21       		.uleb128 0x21
 2477 0165 08       		.sleb128 8
 2478 0166 3B       		.uleb128 0x3b
 2479 0167 05       		.uleb128 0x5
 2480 0168 39       		.uleb128 0x39
 2481 0169 21       		.uleb128 0x21
 2482 016a 03       		.sleb128 3
 2483 016b 49       		.uleb128 0x49
 2484 016c 13       		.uleb128 0x13
 2485 016d 00       		.byte	0
 2486 016e 00       		.byte	0
 2487 016f 1C       		.uleb128 0x1c
 2488 0170 2E       		.uleb128 0x2e
 2489 0171 01       		.byte	0x1
 2490 0172 3F       		.uleb128 0x3f
 2491 0173 19       		.uleb128 0x19
 2492 0174 03       		.uleb128 0x3
 2493 0175 0E       		.uleb128 0xe
 2494 0176 3A       		.uleb128 0x3a
 2495 0177 21       		.uleb128 0x21
 2496 0178 12       		.sleb128 18
 2497 0179 3B       		.uleb128 0x3b
 2498 017a 05       		.uleb128 0x5
 2499 017b 39       		.uleb128 0x39
 2500 017c 21       		.uleb128 0x21
 2501 017d 09       		.sleb128 9
 2502 017e 27       		.uleb128 0x27
 2503 017f 19       		.uleb128 0x19
 2504 0180 49       		.uleb128 0x49
 2505 0181 13       		.uleb128 0x13
 2506 0182 3C       		.uleb128 0x3c
 2507 0183 19       		.uleb128 0x19
 2508 0184 01       		.uleb128 0x1
ARM GAS  C:\Users\DEVELO~1\AppData\Local\Temp\ccZn21pc.s 			page 45


 2509 0185 13       		.uleb128 0x13
 2510 0186 00       		.byte	0
 2511 0187 00       		.byte	0
 2512 0188 1D       		.uleb128 0x1d
 2513 0189 34       		.uleb128 0x34
 2514 018a 00       		.byte	0
 2515 018b 03       		.uleb128 0x3
 2516 018c 0E       		.uleb128 0xe
 2517 018d 49       		.uleb128 0x49
 2518 018e 13       		.uleb128 0x13
 2519 018f 34       		.uleb128 0x34
 2520 0190 19       		.uleb128 0x19
 2521 0191 00       		.byte	0
 2522 0192 00       		.byte	0
 2523 0193 1E       		.uleb128 0x1e
 2524 0194 1D       		.uleb128 0x1d
 2525 0195 01       		.byte	0x1
 2526 0196 31       		.uleb128 0x31
 2527 0197 13       		.uleb128 0x13
 2528 0198 52       		.uleb128 0x52
 2529 0199 01       		.uleb128 0x1
 2530 019a B842     		.uleb128 0x2138
 2531 019c 0B       		.uleb128 0xb
 2532 019d 11       		.uleb128 0x11
 2533 019e 01       		.uleb128 0x1
 2534 019f 12       		.uleb128 0x12
 2535 01a0 06       		.uleb128 0x6
 2536 01a1 58       		.uleb128 0x58
 2537 01a2 21       		.uleb128 0x21
 2538 01a3 01       		.sleb128 1
 2539 01a4 59       		.uleb128 0x59
 2540 01a5 0B       		.uleb128 0xb
 2541 01a6 57       		.uleb128 0x57
 2542 01a7 21       		.uleb128 0x21
 2543 01a8 05       		.sleb128 5
 2544 01a9 01       		.uleb128 0x1
 2545 01aa 13       		.uleb128 0x13
 2546 01ab 00       		.byte	0
 2547 01ac 00       		.byte	0
 2548 01ad 1F       		.uleb128 0x1f
 2549 01ae 11       		.uleb128 0x11
 2550 01af 01       		.byte	0x1
 2551 01b0 25       		.uleb128 0x25
 2552 01b1 0E       		.uleb128 0xe
 2553 01b2 13       		.uleb128 0x13
 2554 01b3 0B       		.uleb128 0xb
 2555 01b4 03       		.uleb128 0x3
 2556 01b5 0E       		.uleb128 0xe
 2557 01b6 1B       		.uleb128 0x1b
 2558 01b7 0E       		.uleb128 0xe
 2559 01b8 55       		.uleb128 0x55
 2560 01b9 17       		.uleb128 0x17
 2561 01ba 11       		.uleb128 0x11
 2562 01bb 01       		.uleb128 0x1
 2563 01bc 10       		.uleb128 0x10
 2564 01bd 17       		.uleb128 0x17
 2565 01be 00       		.byte	0
ARM GAS  C:\Users\DEVELO~1\AppData\Local\Temp\ccZn21pc.s 			page 46


 2566 01bf 00       		.byte	0
 2567 01c0 20       		.uleb128 0x20
 2568 01c1 24       		.uleb128 0x24
 2569 01c2 00       		.byte	0
 2570 01c3 0B       		.uleb128 0xb
 2571 01c4 0B       		.uleb128 0xb
 2572 01c5 3E       		.uleb128 0x3e
 2573 01c6 0B       		.uleb128 0xb
 2574 01c7 03       		.uleb128 0x3
 2575 01c8 08       		.uleb128 0x8
 2576 01c9 00       		.byte	0
 2577 01ca 00       		.byte	0
 2578 01cb 21       		.uleb128 0x21
 2579 01cc 13       		.uleb128 0x13
 2580 01cd 01       		.byte	0x1
 2581 01ce 03       		.uleb128 0x3
 2582 01cf 0E       		.uleb128 0xe
 2583 01d0 0B       		.uleb128 0xb
 2584 01d1 05       		.uleb128 0x5
 2585 01d2 3A       		.uleb128 0x3a
 2586 01d3 0B       		.uleb128 0xb
 2587 01d4 3B       		.uleb128 0x3b
 2588 01d5 05       		.uleb128 0x5
 2589 01d6 39       		.uleb128 0x39
 2590 01d7 0B       		.uleb128 0xb
 2591 01d8 01       		.uleb128 0x1
 2592 01d9 13       		.uleb128 0x13
 2593 01da 00       		.byte	0
 2594 01db 00       		.byte	0
 2595 01dc 22       		.uleb128 0x22
 2596 01dd 0F       		.uleb128 0xf
 2597 01de 00       		.byte	0
 2598 01df 0B       		.uleb128 0xb
 2599 01e0 0B       		.uleb128 0xb
 2600 01e1 00       		.byte	0
 2601 01e2 00       		.byte	0
 2602 01e3 23       		.uleb128 0x23
 2603 01e4 13       		.uleb128 0x13
 2604 01e5 01       		.byte	0x1
 2605 01e6 0B       		.uleb128 0xb
 2606 01e7 05       		.uleb128 0x5
 2607 01e8 3A       		.uleb128 0x3a
 2608 01e9 0B       		.uleb128 0xb
 2609 01ea 3B       		.uleb128 0x3b
 2610 01eb 0B       		.uleb128 0xb
 2611 01ec 39       		.uleb128 0x39
 2612 01ed 0B       		.uleb128 0xb
 2613 01ee 01       		.uleb128 0x1
 2614 01ef 13       		.uleb128 0x13
 2615 01f0 00       		.byte	0
 2616 01f1 00       		.byte	0
 2617 01f2 24       		.uleb128 0x24
 2618 01f3 15       		.uleb128 0x15
 2619 01f4 01       		.byte	0x1
 2620 01f5 27       		.uleb128 0x27
 2621 01f6 19       		.uleb128 0x19
 2622 01f7 01       		.uleb128 0x1
ARM GAS  C:\Users\DEVELO~1\AppData\Local\Temp\ccZn21pc.s 			page 47


 2623 01f8 13       		.uleb128 0x13
 2624 01f9 00       		.byte	0
 2625 01fa 00       		.byte	0
 2626 01fb 25       		.uleb128 0x25
 2627 01fc 04       		.uleb128 0x4
 2628 01fd 01       		.byte	0x1
 2629 01fe 3E       		.uleb128 0x3e
 2630 01ff 0B       		.uleb128 0xb
 2631 0200 0B       		.uleb128 0xb
 2632 0201 0B       		.uleb128 0xb
 2633 0202 49       		.uleb128 0x49
 2634 0203 13       		.uleb128 0x13
 2635 0204 3A       		.uleb128 0x3a
 2636 0205 0B       		.uleb128 0xb
 2637 0206 3B       		.uleb128 0x3b
 2638 0207 0B       		.uleb128 0xb
 2639 0208 39       		.uleb128 0x39
 2640 0209 0B       		.uleb128 0xb
 2641 020a 01       		.uleb128 0x1
 2642 020b 13       		.uleb128 0x13
 2643 020c 00       		.byte	0
 2644 020d 00       		.byte	0
 2645 020e 26       		.uleb128 0x26
 2646 020f 2E       		.uleb128 0x2e
 2647 0210 01       		.byte	0x1
 2648 0211 3F       		.uleb128 0x3f
 2649 0212 19       		.uleb128 0x19
 2650 0213 03       		.uleb128 0x3
 2651 0214 0E       		.uleb128 0xe
 2652 0215 3A       		.uleb128 0x3a
 2653 0216 0B       		.uleb128 0xb
 2654 0217 3B       		.uleb128 0x3b
 2655 0218 0B       		.uleb128 0xb
 2656 0219 39       		.uleb128 0x39
 2657 021a 0B       		.uleb128 0xb
 2658 021b 27       		.uleb128 0x27
 2659 021c 19       		.uleb128 0x19
 2660 021d 3C       		.uleb128 0x3c
 2661 021e 19       		.uleb128 0x19
 2662 021f 01       		.uleb128 0x1
 2663 0220 13       		.uleb128 0x13
 2664 0221 00       		.byte	0
 2665 0222 00       		.byte	0
 2666 0223 27       		.uleb128 0x27
 2667 0224 2E       		.uleb128 0x2e
 2668 0225 01       		.byte	0x1
 2669 0226 3F       		.uleb128 0x3f
 2670 0227 19       		.uleb128 0x19
 2671 0228 03       		.uleb128 0x3
 2672 0229 0E       		.uleb128 0xe
 2673 022a 3A       		.uleb128 0x3a
 2674 022b 0B       		.uleb128 0xb
 2675 022c 3B       		.uleb128 0x3b
 2676 022d 0B       		.uleb128 0xb
 2677 022e 39       		.uleb128 0x39
 2678 022f 0B       		.uleb128 0xb
 2679 0230 27       		.uleb128 0x27
ARM GAS  C:\Users\DEVELO~1\AppData\Local\Temp\ccZn21pc.s 			page 48


 2680 0231 19       		.uleb128 0x19
 2681 0232 49       		.uleb128 0x49
 2682 0233 13       		.uleb128 0x13
 2683 0234 11       		.uleb128 0x11
 2684 0235 01       		.uleb128 0x1
 2685 0236 12       		.uleb128 0x12
 2686 0237 06       		.uleb128 0x6
 2687 0238 40       		.uleb128 0x40
 2688 0239 18       		.uleb128 0x18
 2689 023a 7A       		.uleb128 0x7a
 2690 023b 19       		.uleb128 0x19
 2691 023c 01       		.uleb128 0x1
 2692 023d 13       		.uleb128 0x13
 2693 023e 00       		.byte	0
 2694 023f 00       		.byte	0
 2695 0240 28       		.uleb128 0x28
 2696 0241 34       		.uleb128 0x34
 2697 0242 00       		.byte	0
 2698 0243 03       		.uleb128 0x3
 2699 0244 08       		.uleb128 0x8
 2700 0245 3A       		.uleb128 0x3a
 2701 0246 0B       		.uleb128 0xb
 2702 0247 3B       		.uleb128 0x3b
 2703 0248 0B       		.uleb128 0xb
 2704 0249 39       		.uleb128 0x39
 2705 024a 0B       		.uleb128 0xb
 2706 024b 49       		.uleb128 0x49
 2707 024c 13       		.uleb128 0x13
 2708 024d 02       		.uleb128 0x2
 2709 024e 17       		.uleb128 0x17
 2710 024f B742     		.uleb128 0x2137
 2711 0251 17       		.uleb128 0x17
 2712 0252 00       		.byte	0
 2713 0253 00       		.byte	0
 2714 0254 29       		.uleb128 0x29
 2715 0255 2E       		.uleb128 0x2e
 2716 0256 01       		.byte	0x1
 2717 0257 3F       		.uleb128 0x3f
 2718 0258 19       		.uleb128 0x19
 2719 0259 03       		.uleb128 0x3
 2720 025a 0E       		.uleb128 0xe
 2721 025b 3A       		.uleb128 0x3a
 2722 025c 0B       		.uleb128 0xb
 2723 025d 3B       		.uleb128 0x3b
 2724 025e 0B       		.uleb128 0xb
 2725 025f 39       		.uleb128 0x39
 2726 0260 0B       		.uleb128 0xb
 2727 0261 27       		.uleb128 0x27
 2728 0262 19       		.uleb128 0x19
 2729 0263 11       		.uleb128 0x11
 2730 0264 01       		.uleb128 0x1
 2731 0265 12       		.uleb128 0x12
 2732 0266 06       		.uleb128 0x6
 2733 0267 40       		.uleb128 0x40
 2734 0268 18       		.uleb128 0x18
 2735 0269 7A       		.uleb128 0x7a
 2736 026a 19       		.uleb128 0x19
ARM GAS  C:\Users\DEVELO~1\AppData\Local\Temp\ccZn21pc.s 			page 49


 2737 026b 01       		.uleb128 0x1
 2738 026c 13       		.uleb128 0x13
 2739 026d 00       		.byte	0
 2740 026e 00       		.byte	0
 2741 026f 2A       		.uleb128 0x2a
 2742 0270 1D       		.uleb128 0x1d
 2743 0271 01       		.byte	0x1
 2744 0272 31       		.uleb128 0x31
 2745 0273 13       		.uleb128 0x13
 2746 0274 52       		.uleb128 0x52
 2747 0275 01       		.uleb128 0x1
 2748 0276 B842     		.uleb128 0x2138
 2749 0278 0B       		.uleb128 0xb
 2750 0279 55       		.uleb128 0x55
 2751 027a 17       		.uleb128 0x17
 2752 027b 58       		.uleb128 0x58
 2753 027c 0B       		.uleb128 0xb
 2754 027d 59       		.uleb128 0x59
 2755 027e 0B       		.uleb128 0xb
 2756 027f 57       		.uleb128 0x57
 2757 0280 0B       		.uleb128 0xb
 2758 0281 01       		.uleb128 0x1
 2759 0282 13       		.uleb128 0x13
 2760 0283 00       		.byte	0
 2761 0284 00       		.byte	0
 2762 0285 2B       		.uleb128 0x2b
 2763 0286 05       		.uleb128 0x5
 2764 0287 00       		.byte	0
 2765 0288 31       		.uleb128 0x31
 2766 0289 13       		.uleb128 0x13
 2767 028a 1C       		.uleb128 0x1c
 2768 028b 05       		.uleb128 0x5
 2769 028c 00       		.byte	0
 2770 028d 00       		.byte	0
 2771 028e 2C       		.uleb128 0x2c
 2772 028f 48       		.uleb128 0x48
 2773 0290 01       		.byte	0x1
 2774 0291 7D       		.uleb128 0x7d
 2775 0292 01       		.uleb128 0x1
 2776 0293 8201     		.uleb128 0x82
 2777 0295 19       		.uleb128 0x19
 2778 0296 7F       		.uleb128 0x7f
 2779 0297 13       		.uleb128 0x13
 2780 0298 00       		.byte	0
 2781 0299 00       		.byte	0
 2782 029a 2D       		.uleb128 0x2d
 2783 029b 48       		.uleb128 0x48
 2784 029c 01       		.byte	0x1
 2785 029d 7D       		.uleb128 0x7d
 2786 029e 01       		.uleb128 0x1
 2787 029f 7F       		.uleb128 0x7f
 2788 02a0 13       		.uleb128 0x13
 2789 02a1 01       		.uleb128 0x1
 2790 02a2 13       		.uleb128 0x13
 2791 02a3 00       		.byte	0
 2792 02a4 00       		.byte	0
 2793 02a5 2E       		.uleb128 0x2e
ARM GAS  C:\Users\DEVELO~1\AppData\Local\Temp\ccZn21pc.s 			page 50


 2794 02a6 2E       		.uleb128 0x2e
 2795 02a7 01       		.byte	0x1
 2796 02a8 03       		.uleb128 0x3
 2797 02a9 0E       		.uleb128 0xe
 2798 02aa 3A       		.uleb128 0x3a
 2799 02ab 0B       		.uleb128 0xb
 2800 02ac 3B       		.uleb128 0x3b
 2801 02ad 05       		.uleb128 0x5
 2802 02ae 39       		.uleb128 0x39
 2803 02af 0B       		.uleb128 0xb
 2804 02b0 27       		.uleb128 0x27
 2805 02b1 19       		.uleb128 0x19
 2806 02b2 20       		.uleb128 0x20
 2807 02b3 0B       		.uleb128 0xb
 2808 02b4 00       		.byte	0
 2809 02b5 00       		.byte	0
 2810 02b6 2F       		.uleb128 0x2f
 2811 02b7 05       		.uleb128 0x5
 2812 02b8 00       		.byte	0
 2813 02b9 03       		.uleb128 0x3
 2814 02ba 08       		.uleb128 0x8
 2815 02bb 3A       		.uleb128 0x3a
 2816 02bc 0B       		.uleb128 0xb
 2817 02bd 3B       		.uleb128 0x3b
 2818 02be 05       		.uleb128 0x5
 2819 02bf 39       		.uleb128 0x39
 2820 02c0 0B       		.uleb128 0xb
 2821 02c1 49       		.uleb128 0x49
 2822 02c2 13       		.uleb128 0x13
 2823 02c3 00       		.byte	0
 2824 02c4 00       		.byte	0
 2825 02c5 30       		.uleb128 0x30
 2826 02c6 05       		.uleb128 0x5
 2827 02c7 00       		.byte	0
 2828 02c8 03       		.uleb128 0x3
 2829 02c9 0E       		.uleb128 0xe
 2830 02ca 3A       		.uleb128 0x3a
 2831 02cb 0B       		.uleb128 0xb
 2832 02cc 3B       		.uleb128 0x3b
 2833 02cd 05       		.uleb128 0x5
 2834 02ce 39       		.uleb128 0x39
 2835 02cf 0B       		.uleb128 0xb
 2836 02d0 49       		.uleb128 0x49
 2837 02d1 13       		.uleb128 0x13
 2838 02d2 00       		.byte	0
 2839 02d3 00       		.byte	0
 2840 02d4 00       		.byte	0
 2841              		.section	.debug_loclists,"",%progbits
 2842 0000 05010000 		.4byte	.Ldebug_loc3-.Ldebug_loc2
 2843              	.Ldebug_loc2:
 2844 0004 0500     		.2byte	0x5
 2845 0006 04       		.byte	0x4
 2846 0007 00       		.byte	0
 2847 0008 00000000 		.4byte	0
 2848              	.Ldebug_loc0:
 2849              	.LVUS6:
 2850 000c 00       		.uleb128 0
ARM GAS  C:\Users\DEVELO~1\AppData\Local\Temp\ccZn21pc.s 			page 51


 2851 000d 00       		.uleb128 .LVU44
 2852 000e 00       		.uleb128 .LVU44
 2853 000f 00       		.uleb128 0
 2854              	.LLST6:
 2855 0010 06       		.byte	0x6
 2856 0011 00000000 		.4byte	.LVL13
 2857 0015 04       		.byte	0x4
 2858 0016 00       		.uleb128 .LVL13-.LVL13
 2859 0017 06       		.uleb128 .LVL14-.LVL13
 2860 0018 01       		.uleb128 0x1
 2861 0019 50       		.byte	0x50
 2862 001a 04       		.byte	0x4
 2863 001b 06       		.uleb128 .LVL14-.LVL13
 2864 001c 1E       		.uleb128 .LFE432-.LVL13
 2865 001d 01       		.uleb128 0x1
 2866 001e 55       		.byte	0x55
 2867 001f 00       		.byte	0
 2868              	.LVUS7:
 2869 0020 00       		.uleb128 .LVU45
 2870 0021 00       		.uleb128 .LVU52
 2871 0022 00       		.uleb128 .LVU52
 2872 0023 00       		.uleb128 0
 2873              	.LLST7:
 2874 0024 06       		.byte	0x6
 2875 0025 0A000000 		.4byte	.LVL15
 2876 0029 04       		.byte	0x4
 2877 002a 00       		.uleb128 .LVL15-.LVL15
 2878 002b 0A       		.uleb128 .LVL17-.LVL15
 2879 002c 01       		.uleb128 0x1
 2880 002d 50       		.byte	0x50
 2881 002e 04       		.byte	0x4
 2882 002f 0A       		.uleb128 .LVL17-.LVL15
 2883 0030 14       		.uleb128 .LFE432-.LVL15
 2884 0031 01       		.uleb128 0x1
 2885 0032 54       		.byte	0x54
 2886 0033 00       		.byte	0
 2887              	.LVUS8:
 2888 0034 01       		.uleb128 .LVU50
 2889 0035 00       		.uleb128 .LVU53
 2890              	.LLST8:
 2891 0036 08       		.byte	0x8
 2892 0037 12000000 		.4byte	.LVL16
 2893 003b 08       		.uleb128 .LVL18-.LVL16
 2894 003c 02       		.uleb128 0x2
 2895 003d 38       		.byte	0x38
 2896 003e 9F       		.byte	0x9f
 2897 003f 00       		.byte	0
 2898              	.LVUS9:
 2899 0040 01       		.uleb128 .LVU50
 2900 0041 00       		.uleb128 .LVU52
 2901 0042 00       		.uleb128 .LVU52
 2902 0043 00       		.uleb128 .LVU53
 2903 0044 00       		.uleb128 .LVU53
 2904 0045 00       		.uleb128 .LVU53
 2905              	.LLST9:
 2906 0046 06       		.byte	0x6
 2907 0047 12000000 		.4byte	.LVL16
ARM GAS  C:\Users\DEVELO~1\AppData\Local\Temp\ccZn21pc.s 			page 52


 2908 004b 04       		.byte	0x4
 2909 004c 00       		.uleb128 .LVL16-.LVL16
 2910 004d 02       		.uleb128 .LVL17-.LVL16
 2911 004e 03       		.uleb128 0x3
 2912 004f 75       		.byte	0x75
 2913 0050 04       		.sleb128 4
 2914 0051 9F       		.byte	0x9f
 2915 0052 04       		.byte	0x4
 2916 0053 02       		.uleb128 .LVL17-.LVL16
 2917 0054 07       		.uleb128 .LVL18-1-.LVL16
 2918 0055 01       		.uleb128 0x1
 2919 0056 50       		.byte	0x50
 2920 0057 04       		.byte	0x4
 2921 0058 07       		.uleb128 .LVL18-1-.LVL16
 2922 0059 08       		.uleb128 .LVL18-.LVL16
 2923 005a 03       		.uleb128 0x3
 2924 005b 75       		.byte	0x75
 2925 005c 04       		.sleb128 4
 2926 005d 9F       		.byte	0x9f
 2927 005e 00       		.byte	0
 2928              	.LVUS0:
 2929 005f 00       		.uleb128 0
 2930 0060 00       		.uleb128 .LVU14
 2931 0061 00       		.uleb128 .LVU14
 2932 0062 00       		.uleb128 .LVU17
 2933 0063 00       		.uleb128 .LVU17
 2934 0064 00       		.uleb128 .LVU21
 2935 0065 00       		.uleb128 .LVU21
 2936 0066 00       		.uleb128 .LVU32
 2937 0067 00       		.uleb128 .LVU32
 2938 0068 00       		.uleb128 .LVU33
 2939 0069 00       		.uleb128 .LVU33
 2940 006a 00       		.uleb128 0
 2941              	.LLST0:
 2942 006b 06       		.byte	0x6
 2943 006c 00000000 		.4byte	.LVL0
 2944 0070 04       		.byte	0x4
 2945 0071 00       		.uleb128 .LVL0-.LVL0
 2946 0072 10       		.uleb128 .LVL2-.LVL0
 2947 0073 01       		.uleb128 0x1
 2948 0074 50       		.byte	0x50
 2949 0075 04       		.byte	0x4
 2950 0076 10       		.uleb128 .LVL2-.LVL0
 2951 0077 1A       		.uleb128 .LVL4-.LVL0
 2952 0078 01       		.uleb128 0x1
 2953 0079 54       		.byte	0x54
 2954 007a 04       		.byte	0x4
 2955 007b 1A       		.uleb128 .LVL4-.LVL0
 2956 007c 1E       		.uleb128 .LVL6-.LVL0
 2957 007d 01       		.uleb128 0x1
 2958 007e 50       		.byte	0x50
 2959 007f 04       		.byte	0x4
 2960 0080 1E       		.uleb128 .LVL6-.LVL0
 2961 0081 3A       		.uleb128 .LVL11-.LVL0
 2962 0082 01       		.uleb128 0x1
 2963 0083 54       		.byte	0x54
 2964 0084 04       		.byte	0x4
ARM GAS  C:\Users\DEVELO~1\AppData\Local\Temp\ccZn21pc.s 			page 53


 2965 0085 3A       		.uleb128 .LVL11-.LVL0
 2966 0086 3D       		.uleb128 .LVL12-1-.LVL0
 2967 0087 03       		.uleb128 0x3
 2968 0088 70       		.byte	0x70
 2969 0089 7C       		.sleb128 -4
 2970 008a 9F       		.byte	0x9f
 2971 008b 04       		.byte	0x4
 2972 008c 3D       		.uleb128 .LVL12-1-.LVL0
 2973 008d 3E       		.uleb128 .LFE431-.LVL0
 2974 008e 04       		.uleb128 0x4
 2975 008f A3       		.byte	0xa3
 2976 0090 01       		.uleb128 0x1
 2977 0091 50       		.byte	0x50
 2978 0092 9F       		.byte	0x9f
 2979 0093 00       		.byte	0
 2980              	.LVUS1:
 2981 0094 00       		.uleb128 0
 2982 0095 00       		.uleb128 .LVU13
 2983 0096 00       		.uleb128 .LVU13
 2984 0097 00       		.uleb128 .LVU17
 2985 0098 00       		.uleb128 .LVU17
 2986 0099 00       		.uleb128 .LVU20
 2987 009a 00       		.uleb128 .LVU20
 2988 009b 00       		.uleb128 0
 2989              	.LLST1:
 2990 009c 06       		.byte	0x6
 2991 009d 00000000 		.4byte	.LVL0
 2992 00a1 04       		.byte	0x4
 2993 00a2 00       		.uleb128 .LVL0-.LVL0
 2994 00a3 0C       		.uleb128 .LVL1-.LVL0
 2995 00a4 01       		.uleb128 0x1
 2996 00a5 51       		.byte	0x51
 2997 00a6 04       		.byte	0x4
 2998 00a7 0C       		.uleb128 .LVL1-.LVL0
 2999 00a8 1A       		.uleb128 .LVL4-.LVL0
 3000 00a9 04       		.uleb128 0x4
 3001 00aa A3       		.byte	0xa3
 3002 00ab 01       		.uleb128 0x1
 3003 00ac 51       		.byte	0x51
 3004 00ad 9F       		.byte	0x9f
 3005 00ae 04       		.byte	0x4
 3006 00af 1A       		.uleb128 .LVL4-.LVL0
 3007 00b0 1C       		.uleb128 .LVL5-.LVL0
 3008 00b1 01       		.uleb128 0x1
 3009 00b2 51       		.byte	0x51
 3010 00b3 04       		.byte	0x4
 3011 00b4 1C       		.uleb128 .LVL5-.LVL0
 3012 00b5 3E       		.uleb128 .LFE431-.LVL0
 3013 00b6 04       		.uleb128 0x4
 3014 00b7 A3       		.byte	0xa3
 3015 00b8 01       		.uleb128 0x1
 3016 00b9 51       		.byte	0x51
 3017 00ba 9F       		.byte	0x9f
 3018 00bb 00       		.byte	0
 3019              	.LVUS2:
 3020 00bc 01       		.uleb128 .LVU18
 3021 00bd 00       		.uleb128 .LVU22
ARM GAS  C:\Users\DEVELO~1\AppData\Local\Temp\ccZn21pc.s 			page 54


 3022              	.LLST2:
 3023 00be 08       		.byte	0x8
 3024 00bf 1A000000 		.4byte	.LVL4
 3025 00c3 08       		.uleb128 .LVL7-.LVL4
 3026 00c4 02       		.uleb128 0x2
 3027 00c5 34       		.byte	0x34
 3028 00c6 9F       		.byte	0x9f
 3029 00c7 00       		.byte	0
 3030              	.LVUS3:
 3031 00c8 01       		.uleb128 .LVU18
 3032 00c9 00       		.uleb128 .LVU21
 3033 00ca 00       		.uleb128 .LVU21
 3034 00cb 00       		.uleb128 .LVU22
 3035 00cc 00       		.uleb128 .LVU22
 3036 00cd 00       		.uleb128 .LVU22
 3037              	.LLST3:
 3038 00ce 06       		.byte	0x6
 3039 00cf 1A000000 		.4byte	.LVL4
 3040 00d3 04       		.byte	0x4
 3041 00d4 00       		.uleb128 .LVL4-.LVL4
 3042 00d5 04       		.uleb128 .LVL6-.LVL4
 3043 00d6 03       		.uleb128 0x3
 3044 00d7 70       		.byte	0x70
 3045 00d8 04       		.sleb128 4
 3046 00d9 9F       		.byte	0x9f
 3047 00da 04       		.byte	0x4
 3048 00db 04       		.uleb128 .LVL6-.LVL4
 3049 00dc 07       		.uleb128 .LVL7-1-.LVL4
 3050 00dd 01       		.uleb128 0x1
 3051 00de 50       		.byte	0x50
 3052 00df 04       		.byte	0x4
 3053 00e0 07       		.uleb128 .LVL7-1-.LVL4
 3054 00e1 08       		.uleb128 .LVL7-.LVL4
 3055 00e2 03       		.uleb128 0x3
 3056 00e3 74       		.byte	0x74
 3057 00e4 04       		.sleb128 4
 3058 00e5 9F       		.byte	0x9f
 3059 00e6 00       		.byte	0
 3060              	.LVUS5:
 3061 00e7 01       		.uleb128 .LVU28
 3062 00e8 00       		.uleb128 .LVU30
 3063 00e9 00       		.uleb128 .LVU30
 3064 00ea 00       		.uleb128 .LVU33
 3065 00eb 00       		.uleb128 .LVU33
 3066 00ec 00       		.uleb128 0
 3067              	.LLST5:
 3068 00ed 06       		.byte	0x6
 3069 00ee 30000000 		.4byte	.LVL9
 3070 00f2 04       		.byte	0x4
 3071 00f3 00       		.uleb128 .LVL9-.LVL9
 3072 00f4 02       		.uleb128 .LVL10-.LVL9
 3073 00f5 03       		.uleb128 0x3
 3074 00f6 74       		.byte	0x74
 3075 00f7 04       		.sleb128 4
 3076 00f8 9F       		.byte	0x9f
 3077 00f9 04       		.byte	0x4
 3078 00fa 02       		.uleb128 .LVL10-.LVL9
ARM GAS  C:\Users\DEVELO~1\AppData\Local\Temp\ccZn21pc.s 			page 55


 3079 00fb 0D       		.uleb128 .LVL12-1-.LVL9
 3080 00fc 01       		.uleb128 0x1
 3081 00fd 50       		.byte	0x50
 3082 00fe 04       		.byte	0x4
 3083 00ff 0D       		.uleb128 .LVL12-1-.LVL9
 3084 0100 0E       		.uleb128 .LFE431-.LVL9
 3085 0101 06       		.uleb128 0x6
 3086 0102 A3       		.byte	0xa3
 3087 0103 01       		.uleb128 0x1
 3088 0104 50       		.byte	0x50
 3089 0105 23       		.byte	0x23
 3090 0106 04       		.uleb128 0x4
 3091 0107 9F       		.byte	0x9f
 3092 0108 00       		.byte	0
 3093              	.Ldebug_loc3:
 3094              		.section	.debug_aranges,"",%progbits
 3095 0000 24000000 		.4byte	0x24
 3096 0004 0200     		.2byte	0x2
 3097 0006 00000000 		.4byte	.Ldebug_info0
 3098 000a 04       		.byte	0x4
 3099 000b 00       		.byte	0
 3100 000c 0000     		.2byte	0
 3101 000e 0000     		.2byte	0
 3102 0010 00000000 		.4byte	.LFB431
 3103 0014 3E000000 		.4byte	.LFE431-.LFB431
 3104 0018 00000000 		.4byte	.LFB432
 3105 001c 1E000000 		.4byte	.LFE432-.LFB432
 3106 0020 00000000 		.4byte	0
 3107 0024 00000000 		.4byte	0
 3108              		.section	.debug_rnglists,"",%progbits
 3109              	.Ldebug_ranges0:
 3110 0000 21000000 		.4byte	.Ldebug_ranges3-.Ldebug_ranges2
 3111              	.Ldebug_ranges2:
 3112 0004 0500     		.2byte	0x5
 3113 0006 04       		.byte	0x4
 3114 0007 00       		.byte	0
 3115 0008 00000000 		.4byte	0
 3116              	.LLRL4:
 3117 000c 05       		.byte	0x5
 3118 000d 30000000 		.4byte	.LBB10
 3119 0011 04       		.byte	0x4
 3120 0012 00       		.uleb128 .LBB10-.LBB10
 3121 0013 06       		.uleb128 .LBE10-.LBB10
 3122 0014 04       		.byte	0x4
 3123 0015 0A       		.uleb128 .LBB13-.LBB10
 3124 0016 0E       		.uleb128 .LBE13-.LBB10
 3125 0017 00       		.byte	0
 3126              	.LLRL10:
 3127 0018 07       		.byte	0x7
 3128 0019 00000000 		.4byte	.LFB431
 3129 001d 3E       		.uleb128 .LFE431-.LFB431
 3130 001e 07       		.byte	0x7
 3131 001f 00000000 		.4byte	.LFB432
 3132 0023 1E       		.uleb128 .LFE432-.LFB432
 3133 0024 00       		.byte	0
 3134              	.Ldebug_ranges3:
 3135              		.section	.debug_line,"",%progbits
ARM GAS  C:\Users\DEVELO~1\AppData\Local\Temp\ccZn21pc.s 			page 56


 3136              	.Ldebug_line0:
 3137 0000 C6030000 		.section	.debug_str,"MS",%progbits,1
 3137      0300D002 
 3137      00000201 
 3137      FB0E0D00 
 3137      01010101 
 3138              	.LASF152:
 3139 0000 42756666 		.ascii	"BufferedSerial\000"
 3139      65726564 
 3139      53657269 
 3139      616C00
 3140              	.LASF119:
 3141 000f 72656164 		.ascii	"ready_list_t\000"
 3141      795F6C69 
 3141      73745F74 
 3141      00
 3142              	.LASF4:
 3143 001c 73697A65 		.ascii	"size_t\000"
 3143      5F7400
 3144              	.LASF108:
 3145 0023 7264796D 		.ascii	"rdymsg\000"
 3145      736700
 3146              	.LASF53:
 3147 002a 72666375 		.ascii	"rfcu\000"
 3147      00
 3148              	.LASF159:
 3149 002f 77726974 		.ascii	"write\000"
 3149      6500
 3150              	.LASF5:
 3151 0035 5F5F7569 		.ascii	"__uint8_t\000"
 3151      6E74385F 
 3151      7400
 3152              	.LASF72:
 3153 003f 70726576 		.ascii	"prev\000"
 3153      00
 3154              	.LASF93:
 3155 0044 706F7274 		.ascii	"port_intctx\000"
 3155      5F696E74 
 3155      63747800 
 3156              	.LASF50:
 3157 0050 76746C69 		.ascii	"vtlist\000"
 3157      737400
 3158              	.LASF83:
 3159 0057 74797065 		.ascii	"type\000"
 3159      00
 3160              	.LASF86:
 3161 005c 74726163 		.ascii	"trace_event_t\000"
 3161      655F6576 
 3161      656E745F 
 3161      7400
 3162              	.LASF81:
 3163 006a 68616C74 		.ascii	"halt\000"
 3163      00
 3164              	.LASF109:
 3165 006f 65786974 		.ascii	"exitcode\000"
 3165      636F6465 
 3165      00
ARM GAS  C:\Users\DEVELO~1\AppData\Local\Temp\ccZn21pc.s 			page 57


 3166              	.LASF55:
 3167 0078 6D61696E 		.ascii	"mainthread\000"
 3167      74687265 
 3167      616400
 3168              	.LASF111:
 3169 0083 73656E74 		.ascii	"sentmsg\000"
 3169      6D736700 
 3170              	.LASF78:
 3171 008b 64656C74 		.ascii	"delta\000"
 3171      6100
 3172              	.LASF135:
 3173 0091 696F5F71 		.ascii	"io_queue_t\000"
 3173      75657565 
 3173      5F7400
 3174              	.LASF69:
 3175 009c 6E657874 		.ascii	"next\000"
 3175      00
 3176              	.LASF104:
 3177 00a1 63685F74 		.ascii	"ch_threads_queue\000"
 3177      68726561 
 3177      64735F71 
 3177      75657565 
 3177      00
 3178              	.LASF164:
 3179 00b2 72656164 		.ascii	"readt\000"
 3179      7400
 3180              	.LASF39:
 3181 00b8 72656673 		.ascii	"refs\000"
 3181      00
 3182              	.LASF137:
 3183 00bd 715F7761 		.ascii	"q_waiting\000"
 3183      6974696E 
 3183      6700
 3184              	.LASF1:
 3185 00c7 6C6F6E67 		.ascii	"long long int\000"
 3185      206C6F6E 
 3185      6720696E 
 3185      7400
 3186              	.LASF3:
 3187 00d5 7369676E 		.ascii	"signed char\000"
 3187      65642063 
 3187      68617200 
 3188              	.LASF13:
 3189 00e1 6C6F6E67 		.ascii	"long unsigned int\000"
 3189      20756E73 
 3189      69676E65 
 3189      6420696E 
 3189      7400
 3190              	.LASF77:
 3191 00f3 63685F64 		.ascii	"ch_delta_list\000"
 3191      656C7461 
 3191      5F6C6973 
 3191      7400
 3192              	.LASF15:
 3193 0101 6C6F6E67 		.ascii	"long long unsigned int\000"
 3193      206C6F6E 
 3193      6720756E 
ARM GAS  C:\Users\DEVELO~1\AppData\Local\Temp\ccZn21pc.s 			page 58


 3193      7369676E 
 3193      65642069 
 3194              	.LASF68:
 3195 0118 63685F6C 		.ascii	"ch_list\000"
 3195      69737400 
 3196              	.LASF37:
 3197 0120 73746174 		.ascii	"state\000"
 3197      6500
 3198              	.LASF11:
 3199 0126 6C6F6E67 		.ascii	"long int\000"
 3199      20696E74 
 3199      00
 3200              	.LASF24:
 3201 012f 74737461 		.ascii	"tstate_t\000"
 3201      74655F74 
 3201      00
 3202              	.LASF58:
 3203 0138 63685F72 		.ascii	"ch_rfcu\000"
 3203      66637500 
 3204              	.LASF168:
 3205 0140 474E5520 		.ascii	"GNU C17 11.3.1 20220712 -mcpu=cortex-m7 -mthumb -mf"
 3205      43313720 
 3205      31312E33 
 3205      2E312032 
 3205      30323230 
 3206 0173 6C6F6174 		.ascii	"loat-abi=soft -march=armv7e-m -ggdb -O2 -fomit-fram"
 3206      2D616269 
 3206      3D736F66 
 3206      74202D6D 
 3206      61726368 
 3207 01a6 652D706F 		.ascii	"e-pointer -falign-functions=16 -ffunction-sections "
 3207      696E7465 
 3207      72202D66 
 3207      616C6967 
 3207      6E2D6675 
 3208 01d9 2D666461 		.ascii	"-fdata-sections -fno-common\000"
 3208      74612D73 
 3208      65637469 
 3208      6F6E7320 
 3208      2D666E6F 
 3209              	.LASF71:
 3210 01f5 63685F71 		.ascii	"ch_queue\000"
 3210      75657565 
 3210      00
 3211              	.LASF139:
 3212 01fe 715F6275 		.ascii	"q_buffer\000"
 3212      66666572 
 3212      00
 3213              	.LASF17:
 3214 0207 75696E74 		.ascii	"uint16_t\000"
 3214      31365F74 
 3214      00
 3215              	.LASF144:
 3216 0210 715F6C69 		.ascii	"q_link\000"
 3216      6E6B00
 3217              	.LASF92:
 3218 0217 646F7562 		.ascii	"double\000"
ARM GAS  C:\Users\DEVELO~1\AppData\Local\Temp\ccZn21pc.s 			page 59


 3218      6C6500
 3219              	.LASF90:
 3220 021e 74726163 		.ascii	"trace_buffer_t\000"
 3220      655F6275 
 3220      66666572 
 3220      5F7400
 3221              	.LASF171:
 3222 022d 63684576 		.ascii	"chEvtBroadcastFlagsI\000"
 3222      7442726F 
 3222      61646361 
 3222      7374466C 
 3222      61677349 
 3223              	.LASF100:
 3224 0242 63685F72 		.ascii	"ch_registry\000"
 3224      65676973 
 3224      74727900 
 3225              	.LASF131:
 3226 024e 77666C61 		.ascii	"wflags\000"
 3226      677300
 3227              	.LASF170:
 3228 0255 433A5C43 		.ascii	"C:\\ChibiStudio\\chibios2111\\demos\\STM32\\RT-STM3"
 3228      68696269 
 3228      53747564 
 3228      696F5C63 
 3228      68696269 
 3229 0283 32483734 		.ascii	"2H743ZI_REV_XY-NUCLEO144 - Copie\000"
 3229      335A495F 
 3229      5245565F 
 3229      58592D4E 
 3229      55434C45 
 3230              	.LASF12:
 3231 02a4 5F5F7569 		.ascii	"__uint32_t\000"
 3231      6E743332 
 3231      5F7400
 3232              	.LASF59:
 3233 02af 6D61736B 		.ascii	"mask\000"
 3233      00
 3234              	.LASF40:
 3235 02b4 77616974 		.ascii	"waiting\000"
 3235      696E6700 
 3236              	.LASF121:
 3237 02bc 6D61696E 		.ascii	"mainthread_base\000"
 3237      74687265 
 3237      61645F62 
 3237      61736500 
 3238              	.LASF126:
 3239 02cc 6D757465 		.ascii	"mutex_t\000"
 3239      785F7400 
 3240              	.LASF136:
 3241 02d4 696F5F71 		.ascii	"io_queue\000"
 3241      75657565 
 3241      00
 3242              	.LASF133:
 3243 02dd 6576656E 		.ascii	"event_source_t\000"
 3243      745F736F 
 3243      75726365 
 3243      5F7400
ARM GAS  C:\Users\DEVELO~1\AppData\Local\Temp\ccZn21pc.s 			page 60


 3244              	.LASF66:
 3245 02ec 73797369 		.ascii	"sysinterval_t\000"
 3245      6E746572 
 3245      76616C5F 
 3245      7400
 3246              	.LASF52:
 3247 02fa 636F7265 		.ascii	"core_id\000"
 3247      5F696400 
 3248              	.LASF30:
 3249 0302 636E745F 		.ascii	"cnt_t\000"
 3249      7400
 3250              	.LASF41:
 3251 0308 6D736771 		.ascii	"msgqueue\000"
 3251      75657565 
 3251      00
 3252              	.LASF0:
 3253 0311 756E7369 		.ascii	"unsigned int\000"
 3253      676E6564 
 3253      20696E74 
 3253      00
 3254              	.LASF123:
 3255 031e 69646C65 		.ascii	"idlethread_base\000"
 3255      74687265 
 3255      61645F62 
 3255      61736500 
 3256              	.LASF112:
 3257 032e 77747365 		.ascii	"wtsemp\000"
 3257      6D7000
 3258              	.LASF166:
 3259 0335 69715075 		.ascii	"iqPutI\000"
 3259      744900
 3260              	.LASF64:
 3261 033c 73797374 		.ascii	"system_debug_t\000"
 3261      656D5F64 
 3261      65627567 
 3261      5F7400
 3262              	.LASF155:
 3263 034b 69717565 		.ascii	"iqueue\000"
 3263      756500
 3264              	.LASF110:
 3265 0352 77747472 		.ascii	"wttrp\000"
 3265      7000
 3266              	.LASF33:
 3267 0358 72717565 		.ascii	"rqueue\000"
 3267      756500
 3268              	.LASF70:
 3269 035f 63685F71 		.ascii	"ch_queue_t\000"
 3269      75657565 
 3269      5F7400
 3270              	.LASF151:
 3271 036a 62737374 		.ascii	"bsstate_t\000"
 3271      6174655F 
 3271      7400
 3272              	.LASF162:
 3273 0374 67657474 		.ascii	"gett\000"
 3273      00
 3274              	.LASF35:
ARM GAS  C:\Users\DEVELO~1\AppData\Local\Temp\ccZn21pc.s 			page 61


 3275 0379 6E616D65 		.ascii	"name\000"
 3275      00
 3276              	.LASF101:
 3277 037e 71756575 		.ascii	"queue\000"
 3277      6500
 3278              	.LASF45:
 3279 0384 6D706F6F 		.ascii	"mpool\000"
 3279      6C00
 3280              	.LASF154:
 3281 038a 6576656E 		.ascii	"event\000"
 3281      7400
 3282              	.LASF88:
 3283 0390 73697A65 		.ascii	"size\000"
 3283      00
 3284              	.LASF9:
 3285 0395 73686F72 		.ascii	"short unsigned int\000"
 3285      7420756E 
 3285      7369676E 
 3285      65642069 
 3285      6E7400
 3286              	.LASF47:
 3287 03a8 63685F74 		.ascii	"ch_thread\000"
 3287      68726561 
 3287      6400
 3288              	.LASF29:
 3289 03b2 6576656E 		.ascii	"eventflags_t\000"
 3289      74666C61 
 3289      67735F74 
 3289      00
 3290              	.LASF27:
 3291 03bf 6D73675F 		.ascii	"msg_t\000"
 3291      7400
 3292              	.LASF42:
 3293 03c5 6570656E 		.ascii	"epending\000"
 3293      64696E67 
 3293      00
 3294              	.LASF163:
 3295 03ce 77726974 		.ascii	"writet\000"
 3295      657400
 3296              	.LASF23:
 3297 03d5 746D6F64 		.ascii	"tmode_t\000"
 3297      655F7400 
 3298              	.LASF150:
 3299 03dd 42535F52 		.ascii	"BS_READY\000"
 3299      45414459 
 3299      00
 3300              	.LASF117:
 3301 03e6 63685F72 		.ascii	"ch_ready_list\000"
 3301      65616479 
 3301      5F6C6973 
 3301      7400
 3302              	.LASF28:
 3303 03f4 6576656E 		.ascii	"eventmask_t\000"
 3303      746D6173 
 3303      6B5F7400 
 3304              	.LASF7:
 3305 0400 73686F72 		.ascii	"short int\000"
ARM GAS  C:\Users\DEVELO~1\AppData\Local\Temp\ccZn21pc.s 			page 62


 3305      7420696E 
 3305      7400
 3306              	.LASF10:
 3307 040a 5F5F696E 		.ascii	"__int32_t\000"
 3307      7433325F 
 3307      7400
 3308              	.LASF99:
 3309 0414 76697274 		.ascii	"virtual_timers_list_t\000"
 3309      75616C5F 
 3309      74696D65 
 3309      72735F6C 
 3309      6973745F 
 3310              	.LASF22:
 3311 042a 73746B61 		.ascii	"stkalign_t\000"
 3311      6C69676E 
 3311      5F7400
 3312              	.LASF84:
 3313 0435 72747374 		.ascii	"rtstamp\000"
 3313      616D7000 
 3314              	.LASF98:
 3315 043d 6C617374 		.ascii	"laststamp\000"
 3315      7374616D 
 3315      7000
 3316              	.LASF127:
 3317 0447 6576656E 		.ascii	"event_listener_t\000"
 3317      745F6C69 
 3317      7374656E 
 3317      65725F74 
 3317      00
 3318              	.LASF146:
 3319 0458 696E7075 		.ascii	"input_queue_t\000"
 3319      745F7175 
 3319      6575655F 
 3319      7400
 3320              	.LASF161:
 3321 0466 70757474 		.ascii	"putt\000"
 3321      00
 3322              	.LASF57:
 3323 046b 72666375 		.ascii	"rfcu_mask_t\000"
 3323      5F6D6173 
 3323      6B5F7400 
 3324              	.LASF103:
 3325 0477 74687265 		.ascii	"thread_reference_t\000"
 3325      61645F72 
 3325      65666572 
 3325      656E6365 
 3325      5F7400
 3326              	.LASF129:
 3327 048a 6C697374 		.ascii	"listener\000"
 3327      656E6572 
 3327      00
 3328              	.LASF95:
 3329 0493 63685F76 		.ascii	"ch_virtual_timers_list\000"
 3329      69727475 
 3329      616C5F74 
 3329      696D6572 
 3329      735F6C69 
ARM GAS  C:\Users\DEVELO~1\AppData\Local\Temp\ccZn21pc.s 			page 63


 3330              	.LASF138:
 3331 04aa 715F636F 		.ascii	"q_counter\000"
 3331      756E7465 
 3331      7200
 3332              	.LASF67:
 3333 04b4 63685F6C 		.ascii	"ch_list_t\000"
 3333      6973745F 
 3333      7400
 3334              	.LASF87:
 3335 04be 73757370 		.ascii	"suspended\000"
 3335      656E6465 
 3335      6400
 3336              	.LASF20:
 3337 04c8 75696E74 		.ascii	"uint64_t\000"
 3337      36345F74 
 3337      00
 3338              	.LASF157:
 3339 04d1 42756666 		.ascii	"BufferedSerialVMT\000"
 3339      65726564 
 3339      53657269 
 3339      616C564D 
 3339      5400
 3340              	.LASF141:
 3341 04e3 715F7772 		.ascii	"q_wrptr\000"
 3341      70747200 
 3342              	.LASF148:
 3343 04eb 42535F55 		.ascii	"BS_UNINIT\000"
 3343      4E494E49 
 3343      5400
 3344              	.LASF120:
 3345 04f5 63685F6F 		.ascii	"ch_os_instance_config\000"
 3345      735F696E 
 3345      7374616E 
 3345      63655F63 
 3345      6F6E6669 
 3346              	.LASF94:
 3347 050b 706F7274 		.ascii	"port_context\000"
 3347      5F636F6E 
 3347      74657874 
 3347      00
 3348              	.LASF165:
 3349 0518 6F714765 		.ascii	"oqGetI\000"
 3349      744900
 3350              	.LASF85:
 3351 051f 74696D65 		.ascii	"time\000"
 3351      00
 3352              	.LASF75:
 3353 0524 7072696F 		.ascii	"prio\000"
 3353      00
 3354              	.LASF118:
 3355 0529 63757272 		.ascii	"current\000"
 3355      656E7400 
 3356              	.LASF14:
 3357 0531 5F5F7569 		.ascii	"__uint64_t\000"
 3357      6E743634 
 3357      5F7400
 3358              	.LASF91:
ARM GAS  C:\Users\DEVELO~1\AppData\Local\Temp\ccZn21pc.s 			page 64


 3359 053c 666C6F61 		.ascii	"float\000"
 3359      7400
 3360              	.LASF31:
 3361 0542 636F7265 		.ascii	"core_id_t\000"
 3361      5F69645F 
 3361      7400
 3362              	.LASF25:
 3363 054c 74726566 		.ascii	"trefs_t\000"
 3363      735F7400 
 3364              	.LASF145:
 3365 0554 716E6F74 		.ascii	"qnotify_t\000"
 3365      6966795F 
 3365      7400
 3366              	.LASF82:
 3367 055e 75736572 		.ascii	"user\000"
 3367      00
 3368              	.LASF26:
 3369 0563 74707269 		.ascii	"tprio_t\000"
 3369      6F5F7400 
 3370              	.LASF142:
 3371 056b 715F7264 		.ascii	"q_rdptr\000"
 3371      70747200 
 3372              	.LASF61:
 3373 0573 63685F73 		.ascii	"ch_system_debug\000"
 3373      79737465 
 3373      6D5F6465 
 3373      62756700 
 3374              	.LASF134:
 3375 0583 5F426F6F 		.ascii	"_Bool\000"
 3375      6C00
 3376              	.LASF18:
 3377 0589 696E7433 		.ascii	"int32_t\000"
 3377      325F7400 
 3378              	.LASF6:
 3379 0591 756E7369 		.ascii	"unsigned char\000"
 3379      676E6564 
 3379      20636861 
 3379      7200
 3380              	.LASF60:
 3381 059f 72666375 		.ascii	"rfcu_t\000"
 3381      5F7400
 3382              	.LASF169:
 3383 05a6 2E2E2F2E 		.ascii	"../../../os/hal/src/hal_buffered_serial.c\000"
 3383      2E2F2E2E 
 3383      2F6F732F 
 3383      68616C2F 
 3383      7372632F 
 3384              	.LASF79:
 3385 05d0 77746F62 		.ascii	"wtobjp\000"
 3385      6A7000
 3386              	.LASF114:
 3387 05d7 65776D61 		.ascii	"ewmask\000"
 3387      736B00
 3388              	.LASF156:
 3389 05de 6F717565 		.ascii	"oqueue\000"
 3389      756500
 3390              	.LASF153:
ARM GAS  C:\Users\DEVELO~1\AppData\Local\Temp\ccZn21pc.s 			page 65


 3391 05e5 68616C5F 		.ascii	"hal_buffered_serial\000"
 3391      62756666 
 3391      65726564 
 3391      5F736572 
 3391      69616C00 
 3392              	.LASF167:
 3393 05f9 5F5F6675 		.ascii	"__func__\000"
 3393      6E635F5F 
 3393      00
 3394              	.LASF80:
 3395 0602 72656173 		.ascii	"reason\000"
 3395      6F6E00
 3396              	.LASF105:
 3397 0609 74687265 		.ascii	"threads_queue_t\000"
 3397      6164735F 
 3397      71756575 
 3397      655F7400 
 3398              	.LASF115:
 3399 0619 63685F73 		.ascii	"ch_semaphore\000"
 3399      656D6170 
 3399      686F7265 
 3399      00
 3400              	.LASF102:
 3401 0626 72656769 		.ascii	"registry_t\000"
 3401      73747279 
 3401      5F7400
 3402              	.LASF130:
 3403 0631 6576656E 		.ascii	"events\000"
 3403      747300
 3404              	.LASF19:
 3405 0638 75696E74 		.ascii	"uint32_t\000"
 3405      33325F74 
 3405      00
 3406              	.LASF113:
 3407 0641 77746D74 		.ascii	"wtmtxp\000"
 3407      787000
 3408              	.LASF174:
 3409 0648 6F73616C 		.ascii	"osalEventBroadcastFlagsI\000"
 3409      4576656E 
 3409      7442726F 
 3409      61646361 
 3409      7374466C 
 3410              	.LASF21:
 3411 0661 706F7274 		.ascii	"port_stkalign_t\000"
 3411      5F73746B 
 3411      616C6967 
 3411      6E5F7400 
 3412              	.LASF34:
 3413 0671 6F776E65 		.ascii	"owner\000"
 3413      7200
 3414              	.LASF44:
 3415 0677 7265616C 		.ascii	"realprio\000"
 3415      7072696F 
 3415      00
 3416              	.LASF2:
 3417 0680 6C6F6E67 		.ascii	"long double\000"
 3417      20646F75 
ARM GAS  C:\Users\DEVELO~1\AppData\Local\Temp\ccZn21pc.s 			page 66


 3417      626C6500 
 3418              	.LASF36:
 3419 068c 77616261 		.ascii	"wabase\000"
 3419      736500
 3420              	.LASF63:
 3421 0693 63686172 		.ascii	"char\000"
 3421      00
 3422              	.LASF54:
 3423 0698 636F6E66 		.ascii	"config\000"
 3423      696700
 3424              	.LASF8:
 3425 069f 5F5F7569 		.ascii	"__uint16_t\000"
 3425      6E743136 
 3425      5F7400
 3426              	.LASF32:
 3427 06aa 74687265 		.ascii	"thread_t\000"
 3427      61645F74 
 3427      00
 3428              	.LASF96:
 3429 06b3 646C6973 		.ascii	"dlist\000"
 3429      7400
 3430              	.LASF65:
 3431 06b9 73797374 		.ascii	"systime_t\000"
 3431      696D655F 
 3431      7400
 3432              	.LASF89:
 3433 06c3 62756666 		.ascii	"buffer\000"
 3433      657200
 3434              	.LASF73:
 3435 06ca 63685F70 		.ascii	"ch_priority_queue_t\000"
 3435      72696F72 
 3435      6974795F 
 3435      71756575 
 3435      655F7400 
 3436              	.LASF62:
 3437 06de 70616E69 		.ascii	"panic_msg\000"
 3437      635F6D73 
 3437      6700
 3438              	.LASF107:
 3439 06e8 70717565 		.ascii	"pqueue\000"
 3439      756500
 3440              	.LASF48:
 3441 06ef 63685F6F 		.ascii	"ch_os_instance\000"
 3441      735F696E 
 3441      7374616E 
 3441      636500
 3442              	.LASF46:
 3443 06fe 6F735F69 		.ascii	"os_instance_t\000"
 3443      6E737461 
 3443      6E63655F 
 3443      7400
 3444              	.LASF51:
 3445 070c 7265676C 		.ascii	"reglist\000"
 3445      69737400 
 3446              	.LASF74:
 3447 0714 63685F70 		.ascii	"ch_priority_queue\000"
 3447      72696F72 
ARM GAS  C:\Users\DEVELO~1\AppData\Local\Temp\ccZn21pc.s 			page 67


 3447      6974795F 
 3447      71756575 
 3447      6500
 3448              	.LASF76:
 3449 0726 63685F64 		.ascii	"ch_delta_list_t\000"
 3449      656C7461 
 3449      5F6C6973 
 3449      745F7400 
 3450              	.LASF122:
 3451 0736 6D61696E 		.ascii	"mainthread_end\000"
 3451      74687265 
 3451      61645F65 
 3451      6E6400
 3452              	.LASF147:
 3453 0745 6F757470 		.ascii	"output_queue_t\000"
 3453      75745F71 
 3453      75657565 
 3453      5F7400
 3454              	.LASF125:
 3455 0754 6F735F69 		.ascii	"os_instance_config_t\000"
 3455      6E737461 
 3455      6E63655F 
 3455      636F6E66 
 3455      69675F74 
 3456              	.LASF140:
 3457 0769 715F746F 		.ascii	"q_top\000"
 3457      7000
 3458              	.LASF116:
 3459 076f 63685F6D 		.ascii	"ch_mutex\000"
 3459      75746578 
 3459      00
 3460              	.LASF97:
 3461 0778 6C617374 		.ascii	"lasttime\000"
 3461      74696D65 
 3461      00
 3462              	.LASF143:
 3463 0781 715F6E6F 		.ascii	"q_notify\000"
 3463      74696679 
 3463      00
 3464              	.LASF49:
 3465 078a 726C6973 		.ascii	"rlist\000"
 3465      7400
 3466              	.LASF132:
 3467 0790 6576656E 		.ascii	"event_source\000"
 3467      745F736F 
 3467      75726365 
 3467      00
 3468              	.LASF16:
 3469 079d 75696E74 		.ascii	"uint8_t\000"
 3469      385F7400 
 3470              	.LASF149:
 3471 07a5 42535F53 		.ascii	"BS_STOP\000"
 3471      544F5000 
 3472              	.LASF38:
 3473 07ad 666C6167 		.ascii	"flags\000"
 3473      7300
 3474              	.LASF160:
ARM GAS  C:\Users\DEVELO~1\AppData\Local\Temp\ccZn21pc.s 			page 68


 3475 07b3 72656164 		.ascii	"read\000"
 3475      00
 3476              	.LASF56:
 3477 07b8 74726163 		.ascii	"trace_buffer\000"
 3477      655F6275 
 3477      66666572 
 3477      00
 3478              	.LASF158:
 3479 07c5 696E7374 		.ascii	"instance_offset\000"
 3479      616E6365 
 3479      5F6F6666 
 3479      73657400 
 3480              	.LASF106:
 3481 07d5 6C697374 		.ascii	"list\000"
 3481      00
 3482              	.LASF172:
 3483 07da 62735265 		.ascii	"bsRequestDataI\000"
 3483      71756573 
 3483      74446174 
 3483      614900
 3484              	.LASF124:
 3485 07e9 69646C65 		.ascii	"idlethread_end\000"
 3485      74687265 
 3485      61645F65 
 3485      6E6400
 3486              	.LASF43:
 3487 07f8 6D74786C 		.ascii	"mtxlist\000"
 3487      69737400 
 3488              	.LASF173:
 3489 0800 6273496E 		.ascii	"bsIncomingDataI\000"
 3489      636F6D69 
 3489      6E674461 
 3489      74614900 
 3490              	.LASF128:
 3491 0810 6576656E 		.ascii	"event_listener\000"
 3491      745F6C69 
 3491      7374656E 
 3491      657200
 3492              		.ident	"GCC: (Arm GNU Toolchain 11.3.Rel1) 11.3.1 20220712"
ARM GAS  C:\Users\DEVELO~1\AppData\Local\Temp\ccZn21pc.s 			page 69


DEFINED SYMBOLS
                            *ABS*:00000000 hal_buffered_serial.c
C:\Users\DEVELO~1\AppData\Local\Temp\ccZn21pc.s:18     .text.bsIncomingDataI:00000000 $t
C:\Users\DEVELO~1\AppData\Local\Temp\ccZn21pc.s:25     .text.bsIncomingDataI:00000000 bsIncomingDataI
C:\Users\DEVELO~1\AppData\Local\Temp\ccZn21pc.s:133    .text.bsRequestDataI:00000000 $t
C:\Users\DEVELO~1\AppData\Local\Temp\ccZn21pc.s:140    .text.bsRequestDataI:00000000 bsRequestDataI

UNDEFINED SYMBOLS
iqPutI
chEvtBroadcastFlagsI
oqGetI
