ARM GAS  C:\Users\DEVELO~1\AppData\Local\Temp\cczpfvaV.s 			page 1


   1              		.cpu cortex-m7
   2              		.arch armv7e-m
   3              		.fpu softvfp
   4              		.eabi_attribute 20, 1
   5              		.eabi_attribute 21, 1
   6              		.eabi_attribute 23, 3
   7              		.eabi_attribute 24, 1
   8              		.eabi_attribute 25, 1
   9              		.eabi_attribute 26, 1
  10              		.eabi_attribute 30, 2
  11              		.eabi_attribute 34, 1
  12              		.eabi_attribute 18, 4
  13              		.file	"hal_i2c_lld.c"
  14              		.text
  15              	.Ltext0:
  16              		.cfi_sections	.debug_frame
  17              		.section	.text.Vector160,"ax",%progbits
  18              		.align	1
  19              		.p2align 4,,15
  20              		.global	Vector160
  21              		.syntax unified
  22              		.thumb
  23              		.thumb_func
  24              		.type	Vector160, %function
  25              	Vector160:
  26              	.LFB460:
  27              		.file 1 "./ChibiOS/os/hal/ports/STM32/LLD/I2Cv3/hal_i2c_lld.c"
  28              		.loc 1 732 44 view -0
  29              		.cfi_startproc
  30              		@ args = 0, pretend = 0, frame = 0
  31              		@ frame_needed = 0, uses_anonymous_args = 0
  32              		.loc 1 733 3 view .LVU1
  33              		.loc 1 732 44 is_stmt 0 view .LVU2
  34 0000 70B5     		push	{r4, r5, r6, lr}
  35              		.cfi_def_cfa_offset 16
  36              		.cfi_offset 4, -16
  37              		.cfi_offset 5, -12
  38              		.cfi_offset 6, -8
  39              		.cfi_offset 14, -4
  40              		.loc 1 733 23 view .LVU3
  41 0002 704D     		ldr	r5, .L34
  42              		.loc 1 735 3 view .LVU4
  43 0004 7048     		ldr	r0, .L34+4
  44              		.loc 1 733 23 view .LVU5
  45 0006 AB6B     		ldr	r3, [r5, #56]
  46              		.loc 1 733 12 view .LVU6
  47 0008 9C69     		ldr	r4, [r3, #24]
  48              	.LVL0:
  49              		.loc 1 735 3 is_stmt 1 view .LVU7
  50              		.loc 1 735 3 view .LVU8
  51              		.loc 1 735 3 view .LVU9
  52              		.loc 1 735 3 view .LVU10
  53              		.loc 1 735 3 view .LVU11
  54 000a FFF7FEFF 		bl	__trace_isr_enter
  55              	.LVL1:
  56              		.loc 1 735 22 view .LVU12
  57              		.loc 1 738 3 view .LVU13
ARM GAS  C:\Users\DEVELO~1\AppData\Local\Temp\cczpfvaV.s 			page 2


  58              		.loc 1 738 8 is_stmt 0 view .LVU14
  59 000e AA6B     		ldr	r2, [r5, #56]
  60              		.loc 1 738 24 view .LVU15
  61 0010 04F0FE03 		and	r3, r4, #254
  62              	.LBB306:
  63              	.LBB307:
  64              		.loc 1 354 6 view .LVU16
  65 0014 14F01001 		ands	r1, r4, #16
  66              	.LBE307:
  67              	.LBE306:
  68              		.loc 1 738 18 view .LVU17
  69 0018 D361     		str	r3, [r2, #28]
  70              		.loc 1 740 3 is_stmt 1 view .LVU18
  71              	.LVL2:
  72              	.LBB388:
  73              	.LBI306:
  74              		.loc 1 346 13 view .LVU19
  75              	.LBB383:
  76              		.loc 1 347 3 view .LVU20
  77              		.loc 1 354 3 view .LVU21
  78              		.loc 1 354 6 is_stmt 0 view .LVU22
  79 001a 4AD1     		bne	.L30
  80              		.loc 1 496 3 is_stmt 1 view .LVU23
  81              		.loc 1 496 6 is_stmt 0 view .LVU24
  82 001c 2006     		lsls	r0, r4, #24
  83 001e 2CD4     		bmi	.L31
  84              		.loc 1 507 3 is_stmt 1 view .LVU25
  85              		.loc 1 507 6 is_stmt 0 view .LVU26
  86 0020 6106     		lsls	r1, r4, #25
  87 0022 23D5     		bpl	.L5
  88              		.loc 1 508 5 is_stmt 1 view .LVU27
  89              		.loc 1 508 8 is_stmt 0 view .LVU28
  90 0024 2B78     		ldrb	r3, [r5]	@ zero_extendqisi2
  91 0026 032B     		cmp	r3, #3
  92 0028 00F08D80 		beq	.L32
  93              		.loc 1 543 7 is_stmt 1 view .LVU29
  94 002c 286B     		ldr	r0, [r5, #48]
  95              	.LBB308:
  96              	.LBI308:
  97              		.loc 1 191 20 view .LVU30
  98              	.LVL3:
  99              	.LBB309:
 100              		.loc 1 208 5 view .LVU31
 101 002e 0168     		ldr	r1, [r0]
 102 0030 0B68     		ldr	r3, [r1]
 103 0032 23F01F03 		bic	r3, r3, #31
 104 0036 0B60     		str	r3, [r1]
 105              		.loc 1 208 5 view .LVU32
 106              	.L14:
 107              		.loc 1 208 5 view .LVU33
 108 0038 0B68     		ldr	r3, [r1]
 109 003a DB07     		lsls	r3, r3, #31
 110 003c FCD4     		bmi	.L14
 111              		.loc 1 208 5 view .LVU34
 112 003e 047B     		ldrb	r4, [r0, #12]	@ zero_extendqisi2
 113              	.LVL4:
 114              		.loc 1 208 5 is_stmt 0 view .LVU35
ARM GAS  C:\Users\DEVELO~1\AppData\Local\Temp\cczpfvaV.s 			page 3


 115 0040 3D23     		movs	r3, #61
 116 0042 4168     		ldr	r1, [r0, #4]
 117 0044 A340     		lsls	r3, r3, r4
 118 0046 0B60     		str	r3, [r1]
 119              		.loc 1 208 5 is_stmt 1 view .LVU36
 120              		.loc 1 208 35 view .LVU37
 121              	.LVL5:
 122              	.L12:
 123              		.loc 1 208 35 is_stmt 0 view .LVU38
 124              	.LBE309:
 125              	.LBE308:
 126              		.loc 1 548 5 is_stmt 1 view .LVU39
 127              		.loc 1 548 13 is_stmt 0 view .LVU40
 128 0048 5368     		ldr	r3, [r2, #4]
 129              	.LBB310:
 130              	.LBB311:
 131              	.LBB312:
 132              	.LBB313:
 133              	.LBB314:
 134              	.LBB315:
 135              		.file 2 "./ChibiOS/os/common/ext/ARM/CMSIS/Core/Include/cmsis_gcc.h"
 136              		.loc 2 493 3 view .LVU41
 137 004a 3021     		movs	r1, #48
 138              	.LBE315:
 139              	.LBE314:
 140              	.LBE313:
 141              	.LBE312:
 142              	.LBE311:
 143              	.LBE310:
 144              		.loc 1 548 13 view .LVU42
 145 004c 43F48043 		orr	r3, r3, #16384
 146 0050 5360     		str	r3, [r2, #4]
 147              		.loc 1 551 5 is_stmt 1 view .LVU43
 148              		.loc 1 551 13 is_stmt 0 view .LVU44
 149 0052 1368     		ldr	r3, [r2]
 150 0054 23F04003 		bic	r3, r3, #64
 151 0058 1360     		str	r3, [r2]
 152              		.loc 1 554 5 is_stmt 1 view .LVU45
 153              		.loc 1 554 5 view .LVU46
 154              	.LBB321:
 155              	.LBI310:
 156              		.file 3 "./ChibiOS/os/hal/osal/rt-nil/osal.h"
 157              		.loc 3 595 20 view .LVU47
 158              		.loc 3 597 3 view .LVU48
 159              	.LBB320:
 160              	.LBI311:
 161              		.file 4 "./ChibiOS/os/rt/include/chsys.h"
 162              		.loc 4 416 20 view .LVU49
 163              		.loc 4 418 3 view .LVU50
 164              	.LBB319:
 165              	.LBI312:
 166              		.file 5 "./ChibiOS/os/common/ports/ARMv7-M/chcore.h"
 167              		.loc 5 879 27 view .LVU51
 168              		.loc 5 881 3 view .LVU52
 169              	.LBB318:
 170              	.LBI313:
 171              		.loc 5 840 27 view .LVU53
ARM GAS  C:\Users\DEVELO~1\AppData\Local\Temp\cczpfvaV.s 			page 4


 172              		.loc 5 848 3 view .LVU54
 173              	.LVL6:
 174              	.LBB317:
 175              	.LBI314:
 176              		.loc 2 491 27 view .LVU55
 177              	.LBB316:
 178              		.loc 2 493 3 view .LVU56
 179              		.syntax unified
 180              	@ 493 "./ChibiOS/os/common/ext/ARM/CMSIS/Core/Include/cmsis_gcc.h" 1
 181 005a 81F31188 		MSR basepri, r1
 182              	@ 0 "" 2
 183              	.LVL7:
 184              		.loc 2 493 3 is_stmt 0 view .LVU57
 185              		.thumb
 186              		.syntax unified
 187              	.LBE316:
 188              	.LBE317:
 189              	.LBE318:
 190              	.LBE319:
 191              		.loc 4 419 35 is_stmt 1 view .LVU58
 192              		.loc 4 420 30 view .LVU59
 193              	.LBE320:
 194              	.LBE321:
 195              		.loc 1 554 5 view .LVU60
 196              	.LBB322:
 197              	.LBI322:
 198              		.loc 3 837 20 view .LVU61
 199              	.LBB323:
 200              		.loc 3 839 3 view .LVU62
 201 005e 0021     		movs	r1, #0
 202 0060 5A48     		ldr	r0, .L34+8
 203 0062 FFF7FEFF 		bl	chThdResumeI
 204              	.LVL8:
 205              		.loc 3 839 3 is_stmt 0 view .LVU63
 206              	.LBE323:
 207              	.LBE322:
 208              		.loc 1 554 5 is_stmt 1 view .LVU64
 209              	.LBB324:
 210              	.LBI324:
 211              		.loc 3 606 20 view .LVU65
 212              	.LBB325:
 213              		.loc 3 608 3 view .LVU66
 214              	.LBB326:
 215              	.LBI326:
 216              		.loc 4 438 20 view .LVU67
 217              		.loc 4 440 32 view .LVU68
 218              		.loc 4 441 34 view .LVU69
 219              		.loc 4 442 3 view .LVU70
 220              	.LBB327:
 221              	.LBI327:
 222              		.loc 5 890 27 view .LVU71
 223              		.loc 5 892 3 view .LVU72
 224              	.LBB328:
 225              	.LBI328:
 226              		.loc 5 864 27 view .LVU73
 227              		.loc 5 867 3 view .LVU74
 228              	.LBB329:
ARM GAS  C:\Users\DEVELO~1\AppData\Local\Temp\cczpfvaV.s 			page 5


 229              	.LBI329:
 230              		.loc 2 491 27 view .LVU75
 231              	.LBB330:
 232              		.loc 2 493 3 view .LVU76
 233 0066 0023     		movs	r3, #0
 234              		.syntax unified
 235              	@ 493 "./ChibiOS/os/common/ext/ARM/CMSIS/Core/Include/cmsis_gcc.h" 1
 236 0068 83F31188 		MSR basepri, r3
 237              	@ 0 "" 2
 238              	.LVL9:
 239              		.thumb
 240              		.syntax unified
 241              	.L5:
 242              		.loc 2 493 3 is_stmt 0 view .LVU77
 243              	.LBE330:
 244              	.LBE329:
 245              	.LBE328:
 246              	.LBE327:
 247              	.LBE326:
 248              	.LBE325:
 249              	.LBE324:
 250              		.loc 1 554 5 is_stmt 1 view .LVU78
 251              		.loc 1 554 5 is_stmt 0 view .LVU79
 252              	.LBE383:
 253              	.LBE388:
 254              		.loc 1 742 3 is_stmt 1 view .LVU80
 255              		.loc 1 742 3 view .LVU81
 256 006c 5648     		ldr	r0, .L34+4
 257 006e FFF7FEFF 		bl	__trace_isr_leave
 258              	.LVL10:
 259              		.loc 1 742 3 view .LVU82
 260              		.loc 1 742 3 view .LVU83
 261              		.loc 1 742 3 view .LVU84
 262              		.loc 1 743 1 is_stmt 0 view .LVU85
 263 0072 BDE87040 		pop	{r4, r5, r6, lr}
 264              		.cfi_remember_state
 265              		.cfi_restore 14
 266              		.cfi_restore 6
 267              		.cfi_restore 5
 268              		.cfi_restore 4
 269              		.cfi_def_cfa_offset 0
 270              		.loc 1 742 3 view .LVU86
 271 0076 FFF7FEBF 		b	__port_irq_epilogue
 272              	.LVL11:
 273              	.L31:
 274              		.cfi_restore_state
 275              	.LBB389:
 276              	.LBB384:
 277              		.loc 1 497 5 is_stmt 1 view .LVU87
 278              		.loc 1 497 8 is_stmt 0 view .LVU88
 279 007a 2B78     		ldrb	r3, [r5]	@ zero_extendqisi2
 280 007c 032B     		cmp	r3, #3
 281 007e 52D0     		beq	.L33
 282              		.loc 1 501 7 is_stmt 1 view .LVU89
 283              	.LVL12:
 284              	.LBB331:
 285              	.LBI331:
ARM GAS  C:\Users\DEVELO~1\AppData\Local\Temp\cczpfvaV.s 			page 6


 286              		.loc 1 262 13 view .LVU90
 287              	.LBB332:
 288              		.loc 1 263 3 view .LVU91
 289              		.loc 1 264 3 view .LVU92
 290              		.loc 1 265 3 view .LVU93
 291              		.loc 1 268 3 view .LVU94
 292              	.LBB333:
 293              	.LBI333:
 294              		.loc 1 100 22 view .LVU95
 295              	.LBB334:
 296              		.loc 1 115 5 view .LVU96
 297              		.loc 1 115 12 is_stmt 0 view .LVU97
 298 0080 2B6B     		ldr	r3, [r5, #48]
 299 0082 1B68     		ldr	r3, [r3]
 300 0084 5B68     		ldr	r3, [r3, #4]
 301              	.LVL13:
 302              		.loc 1 115 12 view .LVU98
 303              	.LBE334:
 304              	.LBE333:
 305              		.loc 1 269 3 is_stmt 1 view .LVU99
 306              		.loc 1 269 6 is_stmt 0 view .LVU100
 307 0086 FF2B     		cmp	r3, #255
 308 0088 00F28C80 		bhi	.L16
 309              		.loc 1 280 33 view .LVU101
 310 008c 1B04     		lsls	r3, r3, #16
 311              	.LVL14:
 312              	.L9:
 313              		.loc 1 279 3 is_stmt 1 view .LVU102
 314              		.loc 1 279 74 is_stmt 0 view .LVU103
 315 008e 6868     		ldr	r0, [r5, #4]
 316              		.loc 1 279 16 view .LVU104
 317 0090 5468     		ldr	r4, [r2, #4]
 318              	.LVL15:
 319              		.loc 1 280 28 view .LVU105
 320 0092 8068     		ldr	r0, [r0, #8]
 321 0094 0343     		orrs	r3, r3, r0
 322              		.loc 1 279 22 view .LVU106
 323 0096 4E48     		ldr	r0, .L34+12
 324 0098 2040     		ands	r0, r0, r4
 325              		.loc 1 280 28 view .LVU107
 326 009a 0343     		orrs	r3, r3, r0
 327              	.LBE332:
 328              	.LBE331:
 329              	.LBE384:
 330              	.LBE389:
 331              		.loc 1 742 3 view .LVU108
 332 009c 4A48     		ldr	r0, .L34+4
 333              	.LBB390:
 334              	.LBB385:
 335              	.LBB337:
 336              	.LBB335:
 337              		.loc 1 280 41 view .LVU109
 338 009e 0B43     		orrs	r3, r3, r1
 339 00a0 43F48063 		orr	r3, r3, #1024
 340              		.loc 1 279 11 view .LVU110
 341 00a4 5360     		str	r3, [r2, #4]
 342              	.LVL16:
ARM GAS  C:\Users\DEVELO~1\AppData\Local\Temp\cczpfvaV.s 			page 7


 343              		.loc 1 279 11 view .LVU111
 344              	.LBE335:
 345              	.LBE337:
 346              		.loc 1 554 5 is_stmt 1 view .LVU112
 347              		.loc 1 554 5 is_stmt 0 view .LVU113
 348              	.LBE385:
 349              	.LBE390:
 350              		.loc 1 742 3 is_stmt 1 view .LVU114
 351              		.loc 1 742 3 view .LVU115
 352 00a6 FFF7FEFF 		bl	__trace_isr_leave
 353              	.LVL17:
 354              		.loc 1 742 3 view .LVU116
 355              		.loc 1 742 3 view .LVU117
 356              		.loc 1 742 3 view .LVU118
 357              		.loc 1 743 1 is_stmt 0 view .LVU119
 358 00aa BDE87040 		pop	{r4, r5, r6, lr}
 359              		.cfi_remember_state
 360              		.cfi_restore 14
 361              		.cfi_restore 6
 362              		.cfi_restore 5
 363              		.cfi_restore 4
 364              		.cfi_def_cfa_offset 0
 365              		.loc 1 742 3 view .LVU120
 366 00ae FFF7FEBF 		b	__port_irq_epilogue
 367              	.LVL18:
 368              	.L30:
 369              		.cfi_restore_state
 370              	.LBB391:
 371              	.LBB386:
 372              		.loc 1 358 5 is_stmt 1 view .LVU121
 373 00b2 286B     		ldr	r0, [r5, #48]
 374              	.LBB338:
 375              	.LBI338:
 376              		.loc 1 191 20 view .LVU122
 377              	.LVL19:
 378              	.LBB339:
 379              		.loc 1 208 5 view .LVU123
 380 00b4 0168     		ldr	r1, [r0]
 381 00b6 0B68     		ldr	r3, [r1]
 382 00b8 23F01F03 		bic	r3, r3, #31
 383 00bc 0B60     		str	r3, [r1]
 384              		.loc 1 208 5 view .LVU124
 385              	.LVL20:
 386              	.L3:
 387              		.loc 1 208 5 view .LVU125
 388 00be 0B68     		ldr	r3, [r1]
 389 00c0 DC07     		lsls	r4, r3, #31
 390 00c2 FCD4     		bmi	.L3
 391              		.loc 1 208 5 view .LVU126
 392 00c4 047B     		ldrb	r4, [r0, #12]	@ zero_extendqisi2
 393 00c6 3D23     		movs	r3, #61
 394 00c8 4168     		ldr	r1, [r0, #4]
 395 00ca A340     		lsls	r3, r3, r4
 396 00cc 686B     		ldr	r0, [r5, #52]
 397 00ce 0B60     		str	r3, [r1]
 398              		.loc 1 208 5 view .LVU127
 399              		.loc 1 208 35 view .LVU128
ARM GAS  C:\Users\DEVELO~1\AppData\Local\Temp\cczpfvaV.s 			page 8


 400              	.LVL21:
 401              		.loc 1 208 35 is_stmt 0 view .LVU129
 402              	.LBE339:
 403              	.LBE338:
 404              		.loc 1 359 5 is_stmt 1 view .LVU130
 405              	.LBB340:
 406              	.LBI340:
 407              		.loc 1 213 20 view .LVU131
 408              	.LBB341:
 409              		.loc 1 230 5 view .LVU132
 410 00d0 0168     		ldr	r1, [r0]
 411 00d2 0B68     		ldr	r3, [r1]
 412 00d4 23F01F03 		bic	r3, r3, #31
 413 00d8 0B60     		str	r3, [r1]
 414              		.loc 1 230 5 view .LVU133
 415              	.L4:
 416              		.loc 1 230 5 view .LVU134
 417 00da 0C68     		ldr	r4, [r1]
 418 00dc 14F00104 		ands	r4, r4, #1
 419 00e0 FBD1     		bne	.L4
 420              		.loc 1 230 5 view .LVU135
 421 00e2 4168     		ldr	r1, [r0, #4]
 422 00e4 3D23     		movs	r3, #61
 423 00e6 007B     		ldrb	r0, [r0, #12]	@ zero_extendqisi2
 424 00e8 8340     		lsls	r3, r3, r0
 425 00ea 0B60     		str	r3, [r1]
 426              		.loc 1 230 5 view .LVU136
 427              		.loc 1 230 35 view .LVU137
 428              	.LVL22:
 429              		.loc 1 230 35 is_stmt 0 view .LVU138
 430              	.LBE341:
 431              	.LBE340:
 432              		.loc 1 375 5 is_stmt 1 view .LVU139
 433              		.loc 1 378 13 is_stmt 0 view .LVU140
 434 00ec 5368     		ldr	r3, [r2, #4]
 435              		.loc 1 375 18 view .LVU141
 436 00ee A968     		ldr	r1, [r5, #8]
 437              		.loc 1 378 13 view .LVU142
 438 00f0 43F48043 		orr	r3, r3, #16384
 439              		.loc 1 375 18 view .LVU143
 440 00f4 41F00401 		orr	r1, r1, #4
 441 00f8 A960     		str	r1, [r5, #8]
 442              		.loc 1 378 5 is_stmt 1 view .LVU144
 443              	.LBB342:
 444              	.LBB343:
 445              	.LBB344:
 446              	.LBB345:
 447              	.LBB346:
 448              	.LBB347:
 449              		.loc 2 493 3 is_stmt 0 view .LVU145
 450 00fa 3021     		movs	r1, #48
 451              	.LBE347:
 452              	.LBE346:
 453              	.LBE345:
 454              	.LBE344:
 455              	.LBE343:
 456              	.LBE342:
ARM GAS  C:\Users\DEVELO~1\AppData\Local\Temp\cczpfvaV.s 			page 9


 457              		.loc 1 378 13 view .LVU146
 458 00fc 5360     		str	r3, [r2, #4]
 459              		.loc 1 381 5 is_stmt 1 view .LVU147
 460              		.loc 1 381 13 is_stmt 0 view .LVU148
 461 00fe 1368     		ldr	r3, [r2]
 462 0100 23F04603 		bic	r3, r3, #70
 463 0104 1360     		str	r3, [r2]
 464              		.loc 1 384 5 is_stmt 1 view .LVU149
 465              		.loc 1 384 5 view .LVU150
 466              	.LBB353:
 467              	.LBI342:
 468              		.loc 3 595 20 view .LVU151
 469              		.loc 3 597 3 view .LVU152
 470              	.LBB352:
 471              	.LBI343:
 472              		.loc 4 416 20 view .LVU153
 473              		.loc 4 418 3 view .LVU154
 474              	.LBB351:
 475              	.LBI344:
 476              		.loc 5 879 27 view .LVU155
 477              		.loc 5 881 3 view .LVU156
 478              	.LBB350:
 479              	.LBI345:
 480              		.loc 5 840 27 view .LVU157
 481              		.loc 5 848 3 view .LVU158
 482              	.LVL23:
 483              	.LBB349:
 484              	.LBI346:
 485              		.loc 2 491 27 view .LVU159
 486              	.LBB348:
 487              		.loc 2 493 3 view .LVU160
 488              		.syntax unified
 489              	@ 493 "./ChibiOS/os/common/ext/ARM/CMSIS/Core/Include/cmsis_gcc.h" 1
 490 0106 81F31188 		MSR basepri, r1
 491              	@ 0 "" 2
 492              	.LVL24:
 493              		.loc 2 493 3 is_stmt 0 view .LVU161
 494              		.thumb
 495              		.syntax unified
 496              	.LBE348:
 497              	.LBE349:
 498              	.LBE350:
 499              	.LBE351:
 500              		.loc 4 419 35 is_stmt 1 view .LVU162
 501              		.loc 4 420 30 view .LVU163
 502              	.LBE352:
 503              	.LBE353:
 504              		.loc 1 384 5 view .LVU164
 505              	.LBB354:
 506              	.LBI354:
 507              		.loc 3 837 20 view .LVU165
 508              	.LBB355:
 509              		.loc 3 839 3 view .LVU166
 510 010a 6FF00101 		mvn	r1, #1
 511 010e 2F48     		ldr	r0, .L34+8
 512 0110 FFF7FEFF 		bl	chThdResumeI
 513              	.LVL25:
ARM GAS  C:\Users\DEVELO~1\AppData\Local\Temp\cczpfvaV.s 			page 10


 514              		.loc 3 839 3 is_stmt 0 view .LVU167
 515              	.LBE355:
 516              	.LBE354:
 517              		.loc 1 384 5 is_stmt 1 view .LVU168
 518              	.LBB356:
 519              	.LBI356:
 520              		.loc 3 606 20 view .LVU169
 521              		.loc 3 608 3 view .LVU170
 522              	.LBB357:
 523              	.LBI357:
 524              		.loc 4 438 20 view .LVU171
 525              		.loc 4 440 32 view .LVU172
 526              		.loc 4 441 34 view .LVU173
 527              		.loc 4 442 3 view .LVU174
 528              	.LBB358:
 529              	.LBI358:
 530              		.loc 5 890 27 view .LVU175
 531              		.loc 5 892 3 view .LVU176
 532              	.LBB359:
 533              	.LBI359:
 534              		.loc 5 864 27 view .LVU177
 535              		.loc 5 867 3 view .LVU178
 536              	.LBB360:
 537              	.LBI360:
 538              		.loc 2 491 27 view .LVU179
 539              	.LBB361:
 540              		.loc 2 493 3 view .LVU180
 541              		.syntax unified
 542              	@ 493 "./ChibiOS/os/common/ext/ARM/CMSIS/Core/Include/cmsis_gcc.h" 1
 543 0114 84F31188 		MSR basepri, r4
 544              	@ 0 "" 2
 545              	.LVL26:
 546              		.loc 2 493 3 is_stmt 0 view .LVU181
 547              		.thumb
 548              		.syntax unified
 549              	.LBE361:
 550              	.LBE360:
 551              	.LBE359:
 552              	.LBE358:
 553              	.LBE357:
 554              	.LBE356:
 555              		.loc 1 384 5 is_stmt 1 view .LVU182
 556              		.loc 1 386 5 view .LVU183
 557              		.loc 1 554 5 view .LVU184
 558              		.loc 1 554 5 is_stmt 0 view .LVU185
 559              	.LBE386:
 560              	.LBE391:
 561              		.loc 1 742 3 is_stmt 1 view .LVU186
 562              		.loc 1 742 3 view .LVU187
 563 0118 2B48     		ldr	r0, .L34+4
 564 011a FFF7FEFF 		bl	__trace_isr_leave
 565              	.LVL27:
 566              		.loc 1 742 3 view .LVU188
 567              		.loc 1 742 3 view .LVU189
 568              		.loc 1 742 3 view .LVU190
 569              		.loc 1 743 1 is_stmt 0 view .LVU191
 570 011e BDE87040 		pop	{r4, r5, r6, lr}
ARM GAS  C:\Users\DEVELO~1\AppData\Local\Temp\cczpfvaV.s 			page 11


 571              		.cfi_remember_state
 572              		.cfi_restore 14
 573              		.cfi_restore 6
 574              		.cfi_restore 5
 575              		.cfi_restore 4
 576              		.cfi_def_cfa_offset 0
 577              		.loc 1 742 3 view .LVU192
 578 0122 FFF7FEBF 		b	__port_irq_epilogue
 579              	.LVL28:
 580              	.L33:
 581              		.cfi_restore_state
 582              	.LBB392:
 583              	.LBB387:
 584              		.loc 1 498 7 is_stmt 1 view .LVU193
 585              	.LBB362:
 586              	.LBI362:
 587              		.loc 1 290 13 view .LVU194
 588              	.LBB363:
 589              		.loc 1 291 3 view .LVU195
 590              		.loc 1 292 3 view .LVU196
 591              		.loc 1 293 3 view .LVU197
 592              		.loc 1 296 3 view .LVU198
 593              	.LBB364:
 594              	.LBI364:
 595              		.loc 1 123 22 view .LVU199
 596              	.LBB365:
 597              		.loc 1 138 5 view .LVU200
 598              		.loc 1 138 12 is_stmt 0 view .LVU201
 599 0126 6B6B     		ldr	r3, [r5, #52]
 600 0128 1B68     		ldr	r3, [r3]
 601 012a 5868     		ldr	r0, [r3, #4]
 602              	.LVL29:
 603              		.loc 1 138 12 view .LVU202
 604              	.LBE365:
 605              	.LBE364:
 606              		.loc 1 297 3 is_stmt 1 view .LVU203
 607              		.loc 1 297 6 is_stmt 0 view .LVU204
 608 012c FF28     		cmp	r0, #255
 609 012e 3ED8     		bhi	.L15
 610              		.loc 1 308 16 view .LVU205
 611 0130 0004     		lsls	r0, r0, #16
 612              	.LVL30:
 613              	.L8:
 614              		.loc 1 307 3 is_stmt 1 view .LVU206
 615              		.loc 1 307 74 is_stmt 0 view .LVU207
 616 0132 6B68     		ldr	r3, [r5, #4]
 617              		.loc 1 307 16 view .LVU208
 618 0134 5668     		ldr	r6, [r2, #4]
 619              		.loc 1 307 60 view .LVU209
 620 0136 9C68     		ldr	r4, [r3, #8]
 621              	.LVL31:
 622              		.loc 1 307 22 view .LVU210
 623 0138 254B     		ldr	r3, .L34+12
 624 013a 3340     		ands	r3, r3, r6
 625              		.loc 1 307 60 view .LVU211
 626 013c 2343     		orrs	r3, r3, r4
 627              		.loc 1 308 24 view .LVU212
ARM GAS  C:\Users\DEVELO~1\AppData\Local\Temp\cczpfvaV.s 			page 12


 628 013e 0343     		orrs	r3, r3, r0
 629 0140 0B43     		orrs	r3, r3, r1
 630              		.loc 1 307 11 view .LVU213
 631 0142 5360     		str	r3, [r2, #4]
 632              		.loc 1 309 1 view .LVU214
 633 0144 92E7     		b	.L5
 634              	.LVL32:
 635              	.L32:
 636              		.loc 1 309 1 view .LVU215
 637              	.LBE363:
 638              	.LBE362:
 639              		.loc 1 513 7 is_stmt 1 view .LVU216
 640 0146 686B     		ldr	r0, [r5, #52]
 641              	.LBB367:
 642              	.LBI367:
 643              		.loc 1 213 20 view .LVU217
 644              	.LVL33:
 645              	.LBB368:
 646              		.loc 1 230 5 view .LVU218
 647 0148 0168     		ldr	r1, [r0]
 648 014a 0B68     		ldr	r3, [r1]
 649 014c 23F01F03 		bic	r3, r3, #31
 650 0150 0B60     		str	r3, [r1]
 651              		.loc 1 230 5 view .LVU219
 652              	.L11:
 653              		.loc 1 230 5 view .LVU220
 654 0152 0B68     		ldr	r3, [r1]
 655 0154 13F00103 		ands	r3, r3, #1
 656 0158 FBD1     		bne	.L11
 657              		.loc 1 230 5 view .LVU221
 658 015a 4468     		ldr	r4, [r0, #4]
 659              	.LVL34:
 660              		.loc 1 230 5 is_stmt 0 view .LVU222
 661 015c 3D21     		movs	r1, #61
 662 015e 007B     		ldrb	r0, [r0, #12]	@ zero_extendqisi2
 663 0160 8140     		lsls	r1, r1, r0
 664 0162 2160     		str	r1, [r4]
 665              		.loc 1 230 5 is_stmt 1 view .LVU223
 666              		.loc 1 230 35 view .LVU224
 667              	.LVL35:
 668              		.loc 1 230 35 is_stmt 0 view .LVU225
 669              	.LBE368:
 670              	.LBE367:
 671              		.loc 1 517 7 is_stmt 1 view .LVU226
 672              	.LBB369:
 673              	.LBI369:
 674              		.loc 1 100 22 view .LVU227
 675              	.LBB370:
 676              		.loc 1 115 5 view .LVU228
 677              		.loc 1 115 12 is_stmt 0 view .LVU229
 678 0164 296B     		ldr	r1, [r5, #48]
 679 0166 0968     		ldr	r1, [r1]
 680 0168 4868     		ldr	r0, [r1, #4]
 681              	.LVL36:
 682              		.loc 1 115 12 view .LVU230
 683              	.LBE370:
 684              	.LBE369:
ARM GAS  C:\Users\DEVELO~1\AppData\Local\Temp\cczpfvaV.s 			page 13


 685              		.loc 1 517 10 view .LVU231
 686 016a 0028     		cmp	r0, #0
 687 016c 3FF46CAF 		beq	.L12
 688              		.loc 1 519 9 is_stmt 1 view .LVU232
 689              	.LVL37:
 690              	.LBB371:
 691              	.LBI371:
 692              		.loc 1 262 13 view .LVU233
 693              	.LBB372:
 694              		.loc 1 263 3 view .LVU234
 695              		.loc 1 264 3 view .LVU235
 696              		.loc 1 265 3 view .LVU236
 697              		.loc 1 268 3 view .LVU237
 698              	.LBB373:
 699              	.LBI373:
 700              		.loc 1 100 22 view .LVU238
 701              	.LBB374:
 702              		.loc 1 115 5 view .LVU239
 703              		.loc 1 115 12 is_stmt 0 view .LVU240
 704 0170 4868     		ldr	r0, [r1, #4]
 705              	.LVL38:
 706              		.loc 1 115 12 view .LVU241
 707              	.LBE374:
 708              	.LBE373:
 709              		.loc 1 269 3 is_stmt 1 view .LVU242
 710              		.loc 1 269 6 is_stmt 0 view .LVU243
 711 0172 FF28     		cmp	r0, #255
 712 0174 20D8     		bhi	.L17
 713              		.loc 1 280 33 view .LVU244
 714 0176 0004     		lsls	r0, r0, #16
 715              	.LVL39:
 716              	.L13:
 717              		.loc 1 279 3 is_stmt 1 view .LVU245
 718              		.loc 1 279 74 is_stmt 0 view .LVU246
 719 0178 6C68     		ldr	r4, [r5, #4]
 720              		.loc 1 279 16 view .LVU247
 721 017a 5668     		ldr	r6, [r2, #4]
 722              		.loc 1 280 28 view .LVU248
 723 017c A468     		ldr	r4, [r4, #8]
 724 017e 2043     		orrs	r0, r0, r4
 725              		.loc 1 279 22 view .LVU249
 726 0180 134C     		ldr	r4, .L34+12
 727 0182 3440     		ands	r4, r4, r6
 728              		.loc 1 280 28 view .LVU250
 729 0184 2043     		orrs	r0, r0, r4
 730              		.loc 1 280 41 view .LVU251
 731 0186 0343     		orrs	r3, r3, r0
 732              	.LVL40:
 733              		.loc 1 280 41 view .LVU252
 734              	.LBE372:
 735              	.LBE371:
 736              		.loc 1 533 21 view .LVU253
 737 0188 0420     		movs	r0, #4
 738              	.LBB377:
 739              	.LBB375:
 740              		.loc 1 280 41 view .LVU254
 741 018a 43F48063 		orr	r3, r3, #1024
ARM GAS  C:\Users\DEVELO~1\AppData\Local\Temp\cczpfvaV.s 			page 14


 742              		.loc 1 279 11 view .LVU255
 743 018e 5360     		str	r3, [r2, #4]
 744              	.LVL41:
 745              		.loc 1 279 11 view .LVU256
 746              	.LBE375:
 747              	.LBE377:
 748              		.loc 1 523 9 is_stmt 1 view .LVU257
 749              	.LBB378:
 750              	.LBI378:
 751              		.loc 1 147 20 view .LVU258
 752              	.LBB379:
 753              		.loc 1 164 5 view .LVU259
 754 0190 0B68     		ldr	r3, [r1]
 755 0192 43F00103 		orr	r3, r3, #1
 756 0196 0B60     		str	r3, [r1]
 757              		.loc 1 164 34 view .LVU260
 758              	.LVL42:
 759              		.loc 1 164 34 is_stmt 0 view .LVU261
 760              	.LBE379:
 761              	.LBE378:
 762              		.loc 1 530 9 is_stmt 1 view .LVU262
 763              		.loc 1 530 17 is_stmt 0 view .LVU263
 764 0198 5368     		ldr	r3, [r2, #4]
 765              		.loc 1 533 21 view .LVU264
 766 019a 2870     		strb	r0, [r5]
 767              		.loc 1 530 17 view .LVU265
 768 019c 43F40053 		orr	r3, r3, #8192
 769 01a0 5360     		str	r3, [r2, #4]
 770              		.loc 1 533 9 is_stmt 1 view .LVU266
 771              		.loc 1 536 9 view .LVU267
 772 01a2 63E7     		b	.L5
 773              	.LVL43:
 774              	.L16:
 775              	.LBB380:
 776              	.LBB336:
 777              		.loc 1 536 9 is_stmt 0 view .LVU268
 778 01a4 4FF47F03 		mov	r3, #16711680
 779              	.LVL44:
 780              		.loc 1 271 12 view .LVU269
 781 01a8 4FF08071 		mov	r1, #16777216
 782 01ac 6FE7     		b	.L9
 783              	.LVL45:
 784              	.L15:
 785              		.loc 1 271 12 view .LVU270
 786              	.LBE336:
 787              	.LBE380:
 788              	.LBB381:
 789              	.LBB366:
 790 01ae 4FF47F00 		mov	r0, #16711680
 791              	.LVL46:
 792              		.loc 1 299 12 view .LVU271
 793 01b2 4FF08071 		mov	r1, #16777216
 794 01b6 BCE7     		b	.L8
 795              	.LVL47:
 796              	.L17:
 797              		.loc 1 299 12 view .LVU272
 798              	.LBE366:
ARM GAS  C:\Users\DEVELO~1\AppData\Local\Temp\cczpfvaV.s 			page 15


 799              	.LBE381:
 800              	.LBB382:
 801              	.LBB376:
 802 01b8 4FF47F00 		mov	r0, #16711680
 803              	.LVL48:
 804              		.loc 1 271 12 view .LVU273
 805 01bc 4FF08073 		mov	r3, #16777216
 806 01c0 DAE7     		b	.L13
 807              	.L35:
 808 01c2 00BF     		.align	2
 809              	.L34:
 810 01c4 00000000 		.word	.LANCHOR0
 811 01c8 00000000 		.word	.LANCHOR1
 812 01cc 1C000000 		.word	.LANCHOR0+28
 813 01d0 FFFF00FE 		.word	-33488897
 814              	.LBE376:
 815              	.LBE382:
 816              	.LBE387:
 817              	.LBE392:
 818              		.cfi_endproc
 819              	.LFE460:
 820              		.size	Vector160, .-Vector160
 821              		.section	.text.Vector164,"ax",%progbits
 822              		.align	1
 823              		.p2align 4,,15
 824              		.global	Vector164
 825              		.syntax unified
 826              		.thumb
 827              		.thumb_func
 828              		.type	Vector164, %function
 829              	Vector164:
 830              	.LFB461:
 831              		.loc 1 745 44 is_stmt 1 view -0
 832              		.cfi_startproc
 833              		@ args = 0, pretend = 0, frame = 0
 834              		@ frame_needed = 0, uses_anonymous_args = 0
 835              		.loc 1 746 3 view .LVU275
 836              		.loc 1 745 44 is_stmt 0 view .LVU276
 837 0000 38B5     		push	{r3, r4, r5, lr}
 838              		.cfi_def_cfa_offset 16
 839              		.cfi_offset 3, -16
 840              		.cfi_offset 4, -12
 841              		.cfi_offset 5, -8
 842              		.cfi_offset 14, -4
 843              		.loc 1 746 23 view .LVU277
 844 0002 2C4C     		ldr	r4, .L55
 845              		.loc 1 748 3 view .LVU278
 846 0004 2C48     		ldr	r0, .L55+4
 847              		.loc 1 746 23 view .LVU279
 848 0006 A36B     		ldr	r3, [r4, #56]
 849              		.loc 1 746 12 view .LVU280
 850 0008 9D69     		ldr	r5, [r3, #24]
 851              	.LVL49:
 852              		.loc 1 748 3 is_stmt 1 view .LVU281
 853              		.loc 1 748 3 view .LVU282
 854              		.loc 1 748 3 view .LVU283
 855              		.loc 1 748 3 view .LVU284
ARM GAS  C:\Users\DEVELO~1\AppData\Local\Temp\cczpfvaV.s 			page 16


 856              		.loc 1 748 3 view .LVU285
 857 000a FFF7FEFF 		bl	__trace_isr_enter
 858              	.LVL50:
 859              		.loc 1 748 22 view .LVU286
 860              		.loc 1 751 3 view .LVU287
 861 000e 216B     		ldr	r1, [r4, #48]
 862              		.loc 1 751 8 is_stmt 0 view .LVU288
 863 0010 A36B     		ldr	r3, [r4, #56]
 864              		.loc 1 751 24 view .LVU289
 865 0012 05F47C52 		and	r2, r5, #16128
 866              		.loc 1 751 18 view .LVU290
 867 0016 DA61     		str	r2, [r3, #28]
 868              		.loc 1 753 3 is_stmt 1 view .LVU291
 869              	.LVL51:
 870              	.LBB429:
 871              	.LBI429:
 872              		.loc 1 566 13 view .LVU292
 873              	.LBB430:
 874              		.loc 1 570 3 view .LVU293
 875              	.LBB431:
 876              	.LBI431:
 877              		.loc 1 191 20 view .LVU294
 878              	.LBB432:
 879              		.loc 1 208 5 view .LVU295
 880 0018 0A68     		ldr	r2, [r1]
 881 001a 1368     		ldr	r3, [r2]
 882 001c 23F01F03 		bic	r3, r3, #31
 883 0020 1360     		str	r3, [r2]
 884              		.loc 1 208 5 view .LVU296
 885              	.L37:
 886              		.loc 1 208 5 view .LVU297
 887 0022 1368     		ldr	r3, [r2]
 888 0024 DB07     		lsls	r3, r3, #31
 889 0026 FCD4     		bmi	.L37
 890              		.loc 1 208 5 view .LVU298
 891 0028 087B     		ldrb	r0, [r1, #12]	@ zero_extendqisi2
 892 002a 3D23     		movs	r3, #61
 893 002c 4A68     		ldr	r2, [r1, #4]
 894 002e 8340     		lsls	r3, r3, r0
 895 0030 616B     		ldr	r1, [r4, #52]
 896 0032 1360     		str	r3, [r2]
 897              		.loc 1 208 5 view .LVU299
 898              		.loc 1 208 35 view .LVU300
 899              	.LVL52:
 900              		.loc 1 208 35 is_stmt 0 view .LVU301
 901              	.LBE432:
 902              	.LBE431:
 903              		.loc 1 571 3 is_stmt 1 view .LVU302
 904              	.LBB433:
 905              	.LBI433:
 906              		.loc 1 213 20 view .LVU303
 907              	.LBB434:
 908              		.loc 1 230 5 view .LVU304
 909 0034 0A68     		ldr	r2, [r1]
 910 0036 1368     		ldr	r3, [r2]
 911 0038 23F01F03 		bic	r3, r3, #31
 912 003c 1360     		str	r3, [r2]
ARM GAS  C:\Users\DEVELO~1\AppData\Local\Temp\cczpfvaV.s 			page 17


 913              		.loc 1 230 5 view .LVU305
 914              	.L38:
 915              		.loc 1 230 5 view .LVU306
 916 003e 1368     		ldr	r3, [r2]
 917 0040 D807     		lsls	r0, r3, #31
 918 0042 FCD4     		bmi	.L38
 919              		.loc 1 230 5 view .LVU307
 920 0044 087B     		ldrb	r0, [r1, #12]	@ zero_extendqisi2
 921 0046 3D23     		movs	r3, #61
 922 0048 4A68     		ldr	r2, [r1, #4]
 923              	.LBE434:
 924              	.LBE433:
 925              		.loc 1 577 6 is_stmt 0 view .LVU308
 926 004a E905     		lsls	r1, r5, #23
 927              	.LBB436:
 928              	.LBB435:
 929              		.loc 1 230 5 view .LVU309
 930 004c 03FA00F3 		lsl	r3, r3, r0
 931 0050 1360     		str	r3, [r2]
 932              		.loc 1 230 5 is_stmt 1 view .LVU310
 933              		.loc 1 230 35 view .LVU311
 934              	.LVL53:
 935              		.loc 1 230 35 is_stmt 0 view .LVU312
 936              	.LBE435:
 937              	.LBE436:
 938              		.loc 1 577 3 is_stmt 1 view .LVU313
 939              		.loc 1 578 5 view .LVU314
 940              		.loc 1 580 3 view .LVU315
 941              		.loc 1 578 18 is_stmt 0 view .LVU316
 942 0052 A368     		ldr	r3, [r4, #8]
 943 0054 44BF     		itt	mi
 944 0056 43F00103 		orrmi	r3, r3, #1
 945 005a A360     		strmi	r3, [r4, #8]
 946              		.loc 1 580 6 view .LVU317
 947 005c AA05     		lsls	r2, r5, #22
 948 005e 02D5     		bpl	.L41
 949              		.loc 1 581 5 is_stmt 1 view .LVU318
 950              		.loc 1 581 18 is_stmt 0 view .LVU319
 951 0060 43F00203 		orr	r3, r3, #2
 952 0064 A360     		str	r3, [r4, #8]
 953              	.L41:
 954              		.loc 1 583 3 is_stmt 1 view .LVU320
 955              		.loc 1 583 6 is_stmt 0 view .LVU321
 956 0066 6805     		lsls	r0, r5, #21
 957 0068 19D5     		bpl	.L42
 958              		.loc 1 584 5 is_stmt 1 view .LVU322
 959              		.loc 1 584 18 is_stmt 0 view .LVU323
 960 006a 43F00803 		orr	r3, r3, #8
 961              		.loc 1 586 6 view .LVU324
 962 006e E904     		lsls	r1, r5, #19
 963              		.loc 1 584 18 view .LVU325
 964 0070 A360     		str	r3, [r4, #8]
 965              		.loc 1 586 3 is_stmt 1 view .LVU326
 966              		.loc 1 586 6 is_stmt 0 view .LVU327
 967 0072 02D5     		bpl	.L44
 968              	.L43:
 969              		.loc 1 587 5 is_stmt 1 view .LVU328
ARM GAS  C:\Users\DEVELO~1\AppData\Local\Temp\cczpfvaV.s 			page 18


 970              		.loc 1 587 18 is_stmt 0 view .LVU329
 971 0074 43F02003 		orr	r3, r3, #32
 972 0078 A360     		str	r3, [r4, #8]
 973              		.loc 1 590 3 is_stmt 1 view .LVU330
 974              	.L44:
 975              		.loc 1 591 5 view .LVU331
 976              		.loc 1 591 5 view .LVU332
 977              	.LBB437:
 978              	.LBI437:
 979              		.loc 3 595 20 view .LVU333
 980              		.loc 3 597 3 view .LVU334
 981              	.LBB438:
 982              	.LBI438:
 983              		.loc 4 416 20 view .LVU335
 984              		.loc 4 418 3 view .LVU336
 985              	.LBB439:
 986              	.LBI439:
 987              		.loc 5 879 27 view .LVU337
 988              		.loc 5 881 3 view .LVU338
 989              	.LBB440:
 990              	.LBI440:
 991              		.loc 5 840 27 view .LVU339
 992              		.loc 5 848 3 view .LVU340
 993              	.LVL54:
 994              	.LBB441:
 995              	.LBI441:
 996              		.loc 2 491 27 view .LVU341
 997              	.LBB442:
 998              		.loc 2 493 3 view .LVU342
 999 007a 3023     		movs	r3, #48
 1000              		.syntax unified
 1001              	@ 493 "./ChibiOS/os/common/ext/ARM/CMSIS/Core/Include/cmsis_gcc.h" 1
 1002 007c 83F31188 		MSR basepri, r3
 1003              	@ 0 "" 2
 1004              	.LVL55:
 1005              		.loc 2 493 3 is_stmt 0 view .LVU343
 1006              		.thumb
 1007              		.syntax unified
 1008              	.LBE442:
 1009              	.LBE441:
 1010              	.LBE440:
 1011              	.LBE439:
 1012              		.loc 4 419 35 is_stmt 1 view .LVU344
 1013              		.loc 4 420 30 view .LVU345
 1014              	.LBE438:
 1015              	.LBE437:
 1016              		.loc 1 591 5 view .LVU346
 1017              	.LBB443:
 1018              	.LBI443:
 1019              		.loc 3 837 20 view .LVU347
 1020              	.LBB444:
 1021              		.loc 3 839 3 view .LVU348
 1022 0080 6FF00101 		mvn	r1, #1
 1023 0084 0D48     		ldr	r0, .L55+8
 1024 0086 FFF7FEFF 		bl	chThdResumeI
 1025              	.LVL56:
 1026              		.loc 3 839 3 is_stmt 0 view .LVU349
ARM GAS  C:\Users\DEVELO~1\AppData\Local\Temp\cczpfvaV.s 			page 19


 1027              	.LBE444:
 1028              	.LBE443:
 1029              		.loc 1 591 5 is_stmt 1 view .LVU350
 1030              	.LBB445:
 1031              	.LBI445:
 1032              		.loc 3 606 20 view .LVU351
 1033              	.LBB446:
 1034              		.loc 3 608 3 view .LVU352
 1035              	.LBB447:
 1036              	.LBI447:
 1037              		.loc 4 438 20 view .LVU353
 1038              		.loc 4 440 32 view .LVU354
 1039              		.loc 4 441 34 view .LVU355
 1040              		.loc 4 442 3 view .LVU356
 1041              	.LBB448:
 1042              	.LBI448:
 1043              		.loc 5 890 27 view .LVU357
 1044              		.loc 5 892 3 view .LVU358
 1045              	.LBB449:
 1046              	.LBI449:
 1047              		.loc 5 864 27 view .LVU359
 1048              		.loc 5 867 3 view .LVU360
 1049              	.LBB450:
 1050              	.LBI450:
 1051              		.loc 2 491 27 view .LVU361
 1052              	.LBB451:
 1053              		.loc 2 493 3 view .LVU362
 1054 008a 0023     		movs	r3, #0
 1055              		.syntax unified
 1056              	@ 493 "./ChibiOS/os/common/ext/ARM/CMSIS/Core/Include/cmsis_gcc.h" 1
 1057 008c 83F31188 		MSR basepri, r3
 1058              	@ 0 "" 2
 1059              	.LVL57:
 1060              		.loc 2 493 3 is_stmt 0 view .LVU363
 1061              		.thumb
 1062              		.syntax unified
 1063              	.LBE451:
 1064              	.LBE450:
 1065              	.LBE449:
 1066              	.LBE448:
 1067              	.LBE447:
 1068              	.LBE446:
 1069              	.LBE445:
 1070              		.loc 1 591 5 is_stmt 1 view .LVU364
 1071              		.loc 1 591 5 is_stmt 0 view .LVU365
 1072              	.LBE430:
 1073              	.LBE429:
 1074              		.loc 1 755 3 is_stmt 1 view .LVU366
 1075              		.loc 1 755 3 view .LVU367
 1076 0090 0948     		ldr	r0, .L55+4
 1077 0092 FFF7FEFF 		bl	__trace_isr_leave
 1078              	.LVL58:
 1079              		.loc 1 755 3 view .LVU368
 1080              		.loc 1 755 3 view .LVU369
 1081              		.loc 1 755 3 view .LVU370
 1082              		.loc 1 756 1 is_stmt 0 view .LVU371
 1083 0096 BDE83840 		pop	{r3, r4, r5, lr}
ARM GAS  C:\Users\DEVELO~1\AppData\Local\Temp\cczpfvaV.s 			page 20


 1084              		.cfi_remember_state
 1085              		.cfi_restore 14
 1086              		.cfi_restore 5
 1087              		.cfi_restore 4
 1088              		.cfi_restore 3
 1089              		.cfi_def_cfa_offset 0
 1090              	.LVL59:
 1091              		.loc 1 755 3 view .LVU372
 1092 009a FFF7FEBF 		b	__port_irq_epilogue
 1093              	.LVL60:
 1094              	.L42:
 1095              		.cfi_restore_state
 1096              	.LBB453:
 1097              	.LBB452:
 1098              		.loc 1 586 3 is_stmt 1 view .LVU373
 1099              		.loc 1 586 6 is_stmt 0 view .LVU374
 1100 009e EA04     		lsls	r2, r5, #19
 1101 00a0 E8D4     		bmi	.L43
 1102              		.loc 1 590 3 is_stmt 1 view .LVU375
 1103              		.loc 1 590 6 is_stmt 0 view .LVU376
 1104 00a2 002B     		cmp	r3, #0
 1105 00a4 E9D1     		bne	.L44
 1106              		.loc 1 591 5 is_stmt 1 view .LVU377
 1107              	.LVL61:
 1108              		.loc 1 591 5 is_stmt 0 view .LVU378
 1109              	.LBE452:
 1110              	.LBE453:
 1111              		.loc 1 755 3 is_stmt 1 view .LVU379
 1112              		.loc 1 755 3 view .LVU380
 1113 00a6 0448     		ldr	r0, .L55+4
 1114 00a8 FFF7FEFF 		bl	__trace_isr_leave
 1115              	.LVL62:
 1116              		.loc 1 755 3 view .LVU381
 1117              		.loc 1 755 3 view .LVU382
 1118              		.loc 1 755 3 view .LVU383
 1119              		.loc 1 756 1 is_stmt 0 view .LVU384
 1120 00ac BDE83840 		pop	{r3, r4, r5, lr}
 1121              		.cfi_restore 14
 1122              		.cfi_restore 5
 1123              		.cfi_restore 4
 1124              		.cfi_restore 3
 1125              		.cfi_def_cfa_offset 0
 1126              	.LVL63:
 1127              		.loc 1 755 3 view .LVU385
 1128 00b0 FFF7FEBF 		b	__port_irq_epilogue
 1129              	.LVL64:
 1130              	.L56:
 1131              		.align	2
 1132              	.L55:
 1133 00b4 00000000 		.word	.LANCHOR0
 1134 00b8 00000000 		.word	.LANCHOR2
 1135 00bc 1C000000 		.word	.LANCHOR0+28
 1136              		.cfi_endproc
 1137              	.LFE461:
 1138              		.size	Vector164, .-Vector164
 1139              		.section	.text.i2c_lld_init,"ax",%progbits
 1140              		.align	1
ARM GAS  C:\Users\DEVELO~1\AppData\Local\Temp\cczpfvaV.s 			page 21


 1141              		.p2align 4,,15
 1142              		.global	i2c_lld_init
 1143              		.syntax unified
 1144              		.thumb
 1145              		.thumb_func
 1146              		.type	i2c_lld_init, %function
 1147              	i2c_lld_init:
 1148              	.LFB462:
 1149              		.loc 1 882 25 is_stmt 1 view -0
 1150              		.cfi_startproc
 1151              		@ args = 0, pretend = 0, frame = 0
 1152              		@ frame_needed = 0, uses_anonymous_args = 0
 1153              		.loc 1 927 3 view .LVU387
 1154              		.loc 1 882 25 is_stmt 0 view .LVU388
 1155 0000 10B5     		push	{r4, lr}
 1156              		.cfi_def_cfa_offset 8
 1157              		.cfi_offset 4, -8
 1158              		.cfi_offset 14, -4
 1159              		.loc 1 927 3 view .LVU389
 1160 0002 0A4C     		ldr	r4, .L59
 1161 0004 2046     		mov	r0, r4
 1162 0006 FFF7FEFF 		bl	i2cObjectInit
 1163              	.LVL65:
 1164              		.loc 1 928 3 is_stmt 1 view .LVU390
 1165              		.loc 1 928 17 is_stmt 0 view .LVU391
 1166 000a 0023     		movs	r3, #0
 1167              		.loc 1 929 17 view .LVU392
 1168 000c 084A     		ldr	r2, .L59+4
 1169              		.loc 1 940 7 view .LVU393
 1170 000e 0521     		movs	r1, #5
 1171 0010 4820     		movs	r0, #72
 1172              		.loc 1 928 17 view .LVU394
 1173 0012 E361     		str	r3, [r4, #28]
 1174              		.loc 1 929 3 is_stmt 1 view .LVU395
 1175              		.loc 1 929 17 is_stmt 0 view .LVU396
 1176 0014 A263     		str	r2, [r4, #56]
 1177              		.loc 1 934 3 is_stmt 1 view .LVU397
 1178              		.loc 1 935 17 is_stmt 0 view .LVU398
 1179 0016 C4E90C33 		strd	r3, r3, [r4, #48]
 1180              		.loc 1 940 7 is_stmt 1 view .LVU399
 1181 001a FFF7FEFF 		bl	nvicEnableVector
 1182              	.LVL66:
 1183              		.loc 1 941 7 view .LVU400
 1184 001e 0521     		movs	r1, #5
 1185 0020 4920     		movs	r0, #73
 1186              		.loc 1 994 1 is_stmt 0 view .LVU401
 1187 0022 BDE81040 		pop	{r4, lr}
 1188              		.cfi_restore 14
 1189              		.cfi_restore 4
 1190              		.cfi_def_cfa_offset 0
 1191              		.loc 1 941 7 view .LVU402
 1192 0026 FFF7FEBF 		b	nvicEnableVector
 1193              	.LVL67:
 1194              	.L60:
 1195 002a 00BF     		.align	2
 1196              	.L59:
 1197 002c 00000000 		.word	.LANCHOR0
ARM GAS  C:\Users\DEVELO~1\AppData\Local\Temp\cczpfvaV.s 			page 22


 1198 0030 005C0040 		.word	1073765376
 1199              		.cfi_endproc
 1200              	.LFE462:
 1201              		.size	i2c_lld_init, .-i2c_lld_init
 1202              		.section	.text.i2c_lld_start,"ax",%progbits
 1203              		.align	1
 1204              		.p2align 4,,15
 1205              		.global	i2c_lld_start
 1206              		.syntax unified
 1207              		.thumb
 1208              		.thumb_func
 1209              		.type	i2c_lld_start, %function
 1210              	i2c_lld_start:
 1211              	.LVL68:
 1212              	.LFB463:
 1213              		.loc 1 1003 37 is_stmt 1 view -0
 1214              		.cfi_startproc
 1215              		@ args = 0, pretend = 0, frame = 0
 1216              		@ frame_needed = 0, uses_anonymous_args = 0
 1217              		.loc 1 1004 3 view .LVU404
 1218              		.loc 1 1003 37 is_stmt 0 view .LVU405
 1219 0000 38B5     		push	{r3, r4, r5, lr}
 1220              		.cfi_def_cfa_offset 16
 1221              		.cfi_offset 3, -16
 1222              		.cfi_offset 4, -12
 1223              		.cfi_offset 5, -8
 1224              		.cfi_offset 14, -4
 1225              		.loc 1 1004 16 view .LVU406
 1226 0002 856B     		ldr	r5, [r0, #56]
 1227              	.LVL69:
 1228              		.loc 1 1007 3 is_stmt 1 view .LVU407
 1229              		.loc 1 1003 37 is_stmt 0 view .LVU408
 1230 0004 0446     		mov	r4, r0
 1231              		.loc 1 1007 11 view .LVU409
 1232 0006 2B68     		ldr	r3, [r5]
 1233 0008 23F00103 		bic	r3, r3, #1
 1234 000c 2B60     		str	r3, [r5]
 1235              		.loc 1 1010 3 is_stmt 1 view .LVU410
 1236              		.loc 1 1010 6 is_stmt 0 view .LVU411
 1237 000e 0378     		ldrb	r3, [r0]	@ zero_extendqisi2
 1238 0010 012B     		cmp	r3, #1
 1239 0012 16D0     		beq	.L66
 1240              	.LVL70:
 1241              	.L63:
 1242              		.loc 1 1204 5 is_stmt 1 view .LVU412
 1243              		.loc 1 1211 17 is_stmt 0 view .LVU413
 1244 0014 6268     		ldr	r2, [r4, #4]
 1245              		.loc 1 1204 5 view .LVU414
 1246 0016 05F12400 		add	r0, r5, #36
 1247              		.loc 1 1205 5 view .LVU415
 1248 001a D4E90C31 		ldrd	r3, r1, [r4, #48]
 1249              		.loc 1 1215 27 view .LVU416
 1250 001e 5468     		ldr	r4, [r2, #4]
 1251              	.LVL71:
 1252              		.loc 1 1204 5 view .LVU417
 1253 0020 1B68     		ldr	r3, [r3]
 1254              		.loc 1 1205 5 view .LVU418
ARM GAS  C:\Users\DEVELO~1\AppData\Local\Temp\cczpfvaV.s 			page 23


 1255 0022 0968     		ldr	r1, [r1]
 1256              		.loc 1 1204 5 view .LVU419
 1257 0024 9860     		str	r0, [r3, #8]
 1258              		.loc 1 1204 52 is_stmt 1 view .LVU420
 1259              		.loc 1 1205 5 view .LVU421
 1260              		.loc 1 1215 27 is_stmt 0 view .LVU422
 1261 0026 4CF29003 		movw	r3, #49296
 1262              		.loc 1 1218 29 view .LVU423
 1263 002a 1268     		ldr	r2, [r2]
 1264              		.loc 1 1205 5 view .LVU424
 1265 002c 05F12800 		add	r0, r5, #40
 1266              		.loc 1 1215 27 view .LVU425
 1267 0030 2343     		orrs	r3, r3, r4
 1268              		.loc 1 1205 5 view .LVU426
 1269 0032 8860     		str	r0, [r1, #8]
 1270              		.loc 1 1205 52 is_stmt 1 view .LVU427
 1271              		.loc 1 1211 3 view .LVU428
 1272              		.loc 1 1211 11 is_stmt 0 view .LVU429
 1273 0034 2B60     		str	r3, [r5]
 1274              		.loc 1 1218 3 is_stmt 1 view .LVU430
 1275              		.loc 1 1218 15 is_stmt 0 view .LVU431
 1276 0036 2A61     		str	r2, [r5, #16]
 1277              		.loc 1 1221 3 is_stmt 1 view .LVU432
 1278              		.loc 1 1221 11 is_stmt 0 view .LVU433
 1279 0038 2B68     		ldr	r3, [r5]
 1280 003a 43F00103 		orr	r3, r3, #1
 1281 003e 2B60     		str	r3, [r5]
 1282              		.loc 1 1222 1 view .LVU434
 1283 0040 38BD     		pop	{r3, r4, r5, pc}
 1284              	.LVL72:
 1285              	.L66:
 1286              		.loc 1 1028 5 is_stmt 1 view .LVU435
 1287              		.loc 1 1089 8 is_stmt 0 view .LVU436
 1288 0042 224B     		ldr	r3, .L67
 1289              		.loc 1 1028 21 view .LVU437
 1290 0044 40F25641 		movw	r1, #1110
 1291              		.loc 1 1029 21 view .LVU438
 1292 0048 40F21642 		movw	r2, #1046
 1293              		.loc 1 1089 8 view .LVU439
 1294 004c 9842     		cmp	r0, r3
 1295              		.loc 1 1029 21 view .LVU440
 1296 004e C0E90A21 		strd	r2, r1, [r0, #40]
 1297              		.loc 1 1089 5 is_stmt 1 view .LVU441
 1298              		.loc 1 1089 8 is_stmt 0 view .LVU442
 1299 0052 DFD1     		bne	.L63
 1300              		.loc 1 1091 7 is_stmt 1 view .LVU443
 1301              	.LVL73:
 1302              	.LBB454:
 1303              	.LBI454:
 1304              		.file 6 "./ChibiOS/os/hal/ports/STM32/STM32H7xx/stm32_rcc.h"
 1305              		.loc 6 207 22 view .LVU444
 1306              		.loc 6 219 3 view .LVU445
 1307              	.LBB455:
 1308              	.LBI455:
 1309              		.loc 6 57 22 view .LVU446
 1310              	.LBB456:
 1311              		.loc 6 60 3 view .LVU447
ARM GAS  C:\Users\DEVELO~1\AppData\Local\Temp\cczpfvaV.s 			page 24


 1312              		.loc 6 60 18 is_stmt 0 view .LVU448
 1313 0054 1E49     		ldr	r1, .L67+4
 1314              	.LBE456:
 1315              	.LBE455:
 1316              	.LBE454:
 1317              		.loc 1 1095 24 view .LVU449
 1318 0056 0023     		movs	r3, #0
 1319 0058 1020     		movs	r0, #16
 1320              	.LVL74:
 1321              	.LBB459:
 1322              	.LBB458:
 1323              	.LBB457:
 1324              		.loc 6 60 18 view .LVU450
 1325 005a D1F89020 		ldr	r2, [r1, #144]
 1326 005e 42F40002 		orr	r2, r2, #8388608
 1327 0062 C1F89020 		str	r2, [r1, #144]
 1328              		.loc 6 61 3 is_stmt 1 view .LVU451
 1329              		.loc 6 61 18 is_stmt 0 view .LVU452
 1330 0066 D1F89020 		ldr	r2, [r1, #144]
 1331 006a 22F40002 		bic	r2, r2, #8388608
 1332 006e C1F89020 		str	r2, [r1, #144]
 1333              		.loc 6 62 3 is_stmt 1 view .LVU453
 1334 0072 D1F89020 		ldr	r2, [r1, #144]
 1335              	.LVL75:
 1336              		.loc 6 62 3 is_stmt 0 view .LVU454
 1337              	.LBE457:
 1338              	.LBE458:
 1339              	.LBE459:
 1340              		.loc 1 1092 7 is_stmt 1 view .LVU455
 1341              	.LBB460:
 1342              	.LBI460:
 1343              		.loc 6 141 22 view .LVU456
 1344              	.LBB461:
 1345              		.loc 6 145 3 view .LVU457
 1346              		.loc 6 145 20 is_stmt 0 view .LVU458
 1347 0076 D1F8E820 		ldr	r2, [r1, #232]
 1348 007a 42F40002 		orr	r2, r2, #8388608
 1349 007e C1F8E820 		str	r2, [r1, #232]
 1350              		.loc 6 146 3 is_stmt 1 view .LVU459
 1351              		.loc 6 147 5 view .LVU460
 1352              		.loc 6 147 24 is_stmt 0 view .LVU461
 1353 0082 D1F81021 		ldr	r2, [r1, #272]
 1354 0086 42F40002 		orr	r2, r2, #8388608
 1355 008a C1F81021 		str	r2, [r1, #272]
 1356              		.loc 6 152 3 is_stmt 1 view .LVU462
 1357              	.LBE461:
 1358              	.LBE460:
 1359              		.loc 1 1095 24 is_stmt 0 view .LVU463
 1360 008e 1A46     		mov	r2, r3
 1361              	.LBB463:
 1362              	.LBB462:
 1363              		.loc 6 152 3 view .LVU464
 1364 0090 D1F81011 		ldr	r1, [r1, #272]
 1365              	.LVL76:
 1366              		.loc 6 152 3 view .LVU465
 1367              	.LBE462:
 1368              	.LBE463:
ARM GAS  C:\Users\DEVELO~1\AppData\Local\Temp\cczpfvaV.s 			page 25


 1369              		.loc 1 1095 9 is_stmt 1 view .LVU466
 1370              		.loc 1 1095 24 is_stmt 0 view .LVU467
 1371 0094 0521     		movs	r1, #5
 1372 0096 FFF7FEFF 		bl	dmaStreamAllocI
 1373              	.LVL77:
 1374              		.loc 1 1100 24 view .LVU468
 1375 009a 0023     		movs	r3, #0
 1376              		.loc 1 1095 22 view .LVU469
 1377 009c 2063     		str	r0, [r4, #48]
 1378              		.loc 1 1099 9 is_stmt 1 view .LVU470
 1379              		.loc 1 1099 9 view .LVU471
 1380              		.loc 1 1099 9 view .LVU472
 1381              		.loc 1 1100 9 view .LVU473
 1382              		.loc 1 1100 24 is_stmt 0 view .LVU474
 1383 009e 0521     		movs	r1, #5
 1384 00a0 1A46     		mov	r2, r3
 1385 00a2 1020     		movs	r0, #16
 1386 00a4 FFF7FEFF 		bl	dmaStreamAllocI
 1387              	.LVL78:
 1388              		.loc 1 1108 9 view .LVU475
 1389 00a8 4921     		movs	r1, #73
 1390              		.loc 1 1100 22 view .LVU476
 1391 00aa 6063     		str	r0, [r4, #52]
 1392              		.loc 1 1104 9 is_stmt 1 view .LVU477
 1393              		.loc 1 1104 9 view .LVU478
 1394              		.loc 1 1104 9 view .LVU479
 1395              		.loc 1 1106 9 view .LVU480
 1396              		.loc 1 1108 9 is_stmt 0 view .LVU481
 1397 00ac 206B     		ldr	r0, [r4, #48]
 1398              		.loc 1 1107 25 view .LVU482
 1399 00ae D4E90A23 		ldrd	r2, r3, [r4, #40]
 1400              		.loc 1 1106 25 view .LVU483
 1401 00b2 42F44032 		orr	r2, r2, #196608
 1402              		.loc 1 1107 25 view .LVU484
 1403 00b6 43F44033 		orr	r3, r3, #196608
 1404              		.loc 1 1106 25 view .LVU485
 1405 00ba A262     		str	r2, [r4, #40]
 1406              		.loc 1 1107 9 is_stmt 1 view .LVU486
 1407              		.loc 1 1107 25 is_stmt 0 view .LVU487
 1408 00bc E362     		str	r3, [r4, #44]
 1409              		.loc 1 1108 9 is_stmt 1 view .LVU488
 1410 00be FFF7FEFF 		bl	dmaSetRequestSource
 1411              	.LVL79:
 1412              		.loc 1 1109 9 view .LVU489
 1413 00c2 4A21     		movs	r1, #74
 1414 00c4 606B     		ldr	r0, [r4, #52]
 1415 00c6 FFF7FEFF 		bl	dmaSetRequestSource
 1416              	.LVL80:
 1417 00ca A3E7     		b	.L63
 1418              	.L68:
 1419              		.align	2
 1420              	.L67:
 1421 00cc 00000000 		.word	.LANCHOR0
 1422 00d0 00440258 		.word	1476543488
 1423              		.cfi_endproc
 1424              	.LFE463:
 1425              		.size	i2c_lld_start, .-i2c_lld_start
ARM GAS  C:\Users\DEVELO~1\AppData\Local\Temp\cczpfvaV.s 			page 26


 1426              		.section	.text.i2c_lld_stop,"ax",%progbits
 1427              		.align	1
 1428              		.p2align 4,,15
 1429              		.global	i2c_lld_stop
 1430              		.syntax unified
 1431              		.thumb
 1432              		.thumb_func
 1433              		.type	i2c_lld_stop, %function
 1434              	i2c_lld_stop:
 1435              	.LVL81:
 1436              	.LFB464:
 1437              		.loc 1 1231 36 view -0
 1438              		.cfi_startproc
 1439              		@ args = 0, pretend = 0, frame = 0
 1440              		@ frame_needed = 0, uses_anonymous_args = 0
 1441              		.loc 1 1234 3 view .LVU491
 1442              		.loc 1 1234 6 is_stmt 0 view .LVU492
 1443 0000 0378     		ldrb	r3, [r0]	@ zero_extendqisi2
 1444 0002 012B     		cmp	r3, #1
 1445 0004 00D1     		bne	.L92
 1446 0006 7047     		bx	lr
 1447              	.L92:
 1448              		.loc 1 1237 5 is_stmt 1 view .LVU493
 1449              	.LVL82:
 1450              	.LBB472:
 1451              	.LBI472:
 1452              		.loc 1 318 13 view .LVU494
 1453              	.LBB473:
 1454              		.loc 1 319 3 view .LVU495
 1455              		.loc 1 319 16 is_stmt 0 view .LVU496
 1456 0008 836B     		ldr	r3, [r0, #56]
 1457              	.LVL83:
 1458              		.loc 1 321 3 is_stmt 1 view .LVU497
 1459              		.loc 1 321 9 is_stmt 0 view .LVU498
 1460 000a 1A68     		ldr	r2, [r3]
 1461              		.loc 1 321 6 view .LVU499
 1462 000c D207     		lsls	r2, r2, #31
 1463              	.LBE473:
 1464              	.LBE472:
 1465              		.loc 1 1231 36 view .LVU500
 1466 000e 10B5     		push	{r4, lr}
 1467              		.cfi_def_cfa_offset 8
 1468              		.cfi_offset 4, -8
 1469              		.cfi_offset 14, -4
 1470 0010 0446     		mov	r4, r0
 1471              	.LBB480:
 1472              	.LBB478:
 1473              		.loc 1 321 6 view .LVU501
 1474 0012 28D4     		bmi	.L91
 1475              	.LVL84:
 1476              	.L72:
 1477              		.loc 1 331 3 is_stmt 1 view .LVU502
 1478 0014 206B     		ldr	r0, [r4, #48]
 1479              	.LBB474:
 1480              	.LBI474:
 1481              		.loc 1 191 20 view .LVU503
 1482              	.LVL85:
ARM GAS  C:\Users\DEVELO~1\AppData\Local\Temp\cczpfvaV.s 			page 27


 1483              	.LBB475:
 1484              		.loc 1 208 5 view .LVU504
 1485 0016 0268     		ldr	r2, [r0]
 1486 0018 1368     		ldr	r3, [r2]
 1487              	.LVL86:
 1488              		.loc 1 208 5 is_stmt 0 view .LVU505
 1489 001a 23F01F03 		bic	r3, r3, #31
 1490 001e 1360     		str	r3, [r2]
 1491              		.loc 1 208 5 is_stmt 1 view .LVU506
 1492              	.L75:
 1493              		.loc 1 208 5 view .LVU507
 1494 0020 1368     		ldr	r3, [r2]
 1495 0022 D907     		lsls	r1, r3, #31
 1496 0024 FCD4     		bmi	.L75
 1497              		.loc 1 208 5 view .LVU508
 1498 0026 90F80CC0 		ldrb	ip, [r0, #12]	@ zero_extendqisi2
 1499 002a 3D23     		movs	r3, #61
 1500 002c 616B     		ldr	r1, [r4, #52]
 1501 002e 4268     		ldr	r2, [r0, #4]
 1502 0030 03FA0CF3 		lsl	r3, r3, ip
 1503 0034 1360     		str	r3, [r2]
 1504              		.loc 1 208 5 view .LVU509
 1505              		.loc 1 208 35 view .LVU510
 1506              	.LVL87:
 1507              		.loc 1 208 35 is_stmt 0 view .LVU511
 1508              	.LBE475:
 1509              	.LBE474:
 1510              		.loc 1 332 3 is_stmt 1 view .LVU512
 1511              	.LBB476:
 1512              	.LBI476:
 1513              		.loc 1 213 20 view .LVU513
 1514              	.LBB477:
 1515              		.loc 1 230 5 view .LVU514
 1516 0036 0A68     		ldr	r2, [r1]
 1517 0038 1368     		ldr	r3, [r2]
 1518 003a 23F01F03 		bic	r3, r3, #31
 1519 003e 1360     		str	r3, [r2]
 1520              		.loc 1 230 5 view .LVU515
 1521              	.L76:
 1522              		.loc 1 230 5 view .LVU516
 1523 0040 1368     		ldr	r3, [r2]
 1524 0042 DB07     		lsls	r3, r3, #31
 1525 0044 FCD4     		bmi	.L76
 1526              		.loc 1 230 5 view .LVU517
 1527 0046 91F80CC0 		ldrb	ip, [r1, #12]	@ zero_extendqisi2
 1528 004a 3D23     		movs	r3, #61
 1529 004c 4A68     		ldr	r2, [r1, #4]
 1530 004e 03FA0CF3 		lsl	r3, r3, ip
 1531 0052 1360     		str	r3, [r2]
 1532              		.loc 1 230 5 view .LVU518
 1533              		.loc 1 230 35 view .LVU519
 1534              	.LVL88:
 1535              		.loc 1 230 35 is_stmt 0 view .LVU520
 1536              	.LBE477:
 1537              	.LBE476:
 1538              	.LBE478:
 1539              	.LBE480:
ARM GAS  C:\Users\DEVELO~1\AppData\Local\Temp\cczpfvaV.s 			page 28


 1540              		.loc 1 1253 7 is_stmt 1 view .LVU521
 1541 0054 FFF7FEFF 		bl	dmaStreamFreeI
 1542              	.LVL89:
 1543              		.loc 1 1254 7 view .LVU522
 1544 0058 606B     		ldr	r0, [r4, #52]
 1545 005a FFF7FEFF 		bl	dmaStreamFreeI
 1546              	.LVL90:
 1547              		.loc 1 1271 5 view .LVU523
 1548              		.loc 1 1271 8 is_stmt 0 view .LVU524
 1549 005e 104B     		ldr	r3, .L94
 1550 0060 9C42     		cmp	r4, r3
 1551 0062 0CD0     		beq	.L93
 1552              		.loc 1 1288 1 view .LVU525
 1553 0064 10BD     		pop	{r4, pc}
 1554              	.LVL91:
 1555              	.L91:
 1556              	.LBB481:
 1557              	.LBB479:
 1558              		.loc 1 323 5 is_stmt 1 view .LVU526
 1559              		.loc 1 323 13 is_stmt 0 view .LVU527
 1560 0066 1A68     		ldr	r2, [r3]
 1561 0068 22F00102 		bic	r2, r2, #1
 1562 006c 1A60     		str	r2, [r3]
 1563              		.loc 1 324 5 is_stmt 1 view .LVU528
 1564              		.loc 1 324 12 view .LVU529
 1565              		.loc 1 324 14 is_stmt 0 view .LVU530
 1566 006e 1A68     		ldr	r2, [r3]
 1567              		.loc 1 324 12 view .LVU531
 1568 0070 D007     		lsls	r0, r2, #31
 1569 0072 F8D4     		bmi	.L91
 1570              		.loc 1 326 5 is_stmt 1 view .LVU532
 1571              		.loc 1 326 13 is_stmt 0 view .LVU533
 1572 0074 1A68     		ldr	r2, [r3]
 1573 0076 42F00102 		orr	r2, r2, #1
 1574 007a 1A60     		str	r2, [r3]
 1575 007c CAE7     		b	.L72
 1576              	.LVL92:
 1577              	.L93:
 1578              		.loc 1 326 13 view .LVU534
 1579              	.LBE479:
 1580              	.LBE481:
 1581              		.loc 1 1272 7 is_stmt 1 view .LVU535
 1582              	.LBB482:
 1583              	.LBI482:
 1584              		.loc 6 173 22 view .LVU536
 1585              	.LBB483:
 1586              		.loc 6 183 3 view .LVU537
 1587              		.loc 6 183 20 is_stmt 0 view .LVU538
 1588 007e 094B     		ldr	r3, .L94+4
 1589 0080 D3F8E820 		ldr	r2, [r3, #232]
 1590 0084 22F40002 		bic	r2, r2, #8388608
 1591 0088 C3F8E820 		str	r2, [r3, #232]
 1592              		.loc 6 184 3 is_stmt 1 view .LVU539
 1593              		.loc 6 184 22 is_stmt 0 view .LVU540
 1594 008c D3F81021 		ldr	r2, [r3, #272]
 1595 0090 22F40002 		bic	r2, r2, #8388608
 1596 0094 C3F81021 		str	r2, [r3, #272]
ARM GAS  C:\Users\DEVELO~1\AppData\Local\Temp\cczpfvaV.s 			page 29


 1597              		.loc 6 185 3 is_stmt 1 view .LVU541
 1598 0098 D3F81031 		ldr	r3, [r3, #272]
 1599              	.LVL93:
 1600              		.loc 6 185 3 is_stmt 0 view .LVU542
 1601              	.LBE483:
 1602              	.LBE482:
 1603              		.loc 1 1288 1 view .LVU543
 1604 009c 10BD     		pop	{r4, pc}
 1605              	.LVL94:
 1606              	.L95:
 1607              		.loc 1 1288 1 view .LVU544
 1608 009e 00BF     		.align	2
 1609              	.L94:
 1610 00a0 00000000 		.word	.LANCHOR0
 1611 00a4 00440258 		.word	1476543488
 1612              		.cfi_endproc
 1613              	.LFE464:
 1614              		.size	i2c_lld_stop, .-i2c_lld_stop
 1615              		.section	.text.i2c_lld_master_receive_timeout,"ax",%progbits
 1616              		.align	1
 1617              		.p2align 4,,15
 1618              		.global	i2c_lld_master_receive_timeout
 1619              		.syntax unified
 1620              		.thumb
 1621              		.thumb_func
 1622              		.type	i2c_lld_master_receive_timeout, %function
 1623              	i2c_lld_master_receive_timeout:
 1624              	.LVL95:
 1625              	.LFB465:
 1626              		.loc 1 1313 61 is_stmt 1 view -0
 1627              		.cfi_startproc
 1628              		@ args = 4, pretend = 0, frame = 0
 1629              		@ frame_needed = 0, uses_anonymous_args = 0
 1630              		.loc 1 1314 3 view .LVU546
 1631              		.loc 1 1315 3 view .LVU547
 1632              		.loc 1 1313 61 is_stmt 0 view .LVU548
 1633 0000 2DE9F843 		push	{r3, r4, r5, r6, r7, r8, r9, lr}
 1634              		.cfi_def_cfa_offset 32
 1635              		.cfi_offset 3, -32
 1636              		.cfi_offset 4, -28
 1637              		.cfi_offset 5, -24
 1638              		.cfi_offset 6, -20
 1639              		.cfi_offset 7, -16
 1640              		.cfi_offset 8, -12
 1641              		.cfi_offset 9, -8
 1642              		.cfi_offset 14, -4
 1643              		.loc 1 1323 16 view .LVU549
 1644 0004 0024     		movs	r4, #0
 1645              		.loc 1 1313 61 view .LVU550
 1646 0006 8046     		mov	r8, r0
 1647 0008 8946     		mov	r9, r1
 1648              		.loc 1 1315 16 view .LVU551
 1649 000a 856B     		ldr	r5, [r0, #56]
 1650              	.LVL96:
 1651              		.loc 1 1316 3 is_stmt 1 view .LVU552
 1652              		.loc 1 1323 3 view .LVU553
 1653              		.loc 1 1323 16 is_stmt 0 view .LVU554
ARM GAS  C:\Users\DEVELO~1\AppData\Local\Temp\cczpfvaV.s 			page 30


 1654 000c 8460     		str	r4, [r0, #8]
 1655              		.loc 1 1326 3 is_stmt 1 view .LVU555
 1656              	.LBB525:
 1657              	.LBI525:
 1658              		.loc 3 584 20 view .LVU556
 1659              		.loc 3 586 3 view .LVU557
 1660              	.LBB526:
 1661              	.LBI526:
 1662              		.loc 4 386 20 view .LVU558
 1663              	.LBB527:
 1664              		.loc 4 388 23 view .LVU559
 1665              		.loc 4 389 34 view .LVU560
 1666              		.loc 4 395 3 view .LVU561
 1667              		.loc 4 395 3 view .LVU562
 1668              		.loc 4 395 3 view .LVU563
 1669              		.loc 4 399 3 view .LVU564
 1670              	.LBB528:
 1671              	.LBI528:
 1672              		.loc 5 864 27 view .LVU565
 1673              		.loc 5 867 3 view .LVU566
 1674              	.LVL97:
 1675              	.LBB529:
 1676              	.LBI529:
 1677              		.loc 2 491 27 view .LVU567
 1678              	.LBB530:
 1679              		.loc 2 493 3 view .LVU568
 1680              		.syntax unified
 1681              	@ 493 "./ChibiOS/os/common/ext/ARM/CMSIS/Core/Include/cmsis_gcc.h" 1
 1682 000e 84F31188 		MSR basepri, r4
 1683              	@ 0 "" 2
 1684              	.LVL98:
 1685              		.loc 2 493 3 is_stmt 0 view .LVU569
 1686              		.thumb
 1687              		.syntax unified
 1688              	.LBE530:
 1689              	.LBE529:
 1690              	.LBE528:
 1691              	.LBE527:
 1692              	.LBE526:
 1693              	.LBE525:
 1694              		.loc 1 1345 5 is_stmt 1 view .LVU570
 1695 0012 016B     		ldr	r1, [r0, #48]
 1696              	.LVL99:
 1697              	.LBB531:
 1698              	.LBB532:
 1699              	.LBB533:
 1700              	.LBB534:
 1701              	.LBB535:
 1702              		.loc 2 493 3 is_stmt 0 view .LVU571
 1703 0014 3026     		movs	r6, #48
 1704              	.LBE535:
 1705              	.LBE534:
 1706              	.LBE533:
 1707              	.LBE532:
 1708              	.LBE531:
 1709              		.loc 1 1345 5 view .LVU572
 1710 0016 806A     		ldr	r0, [r0, #40]
ARM GAS  C:\Users\DEVELO~1\AppData\Local\Temp\cczpfvaV.s 			page 31


 1711              	.LVL100:
 1712              		.loc 1 1345 5 view .LVU573
 1713 0018 0968     		ldr	r1, [r1]
 1714 001a 0860     		str	r0, [r1]
 1715              		.loc 1 1345 52 is_stmt 1 view .LVU574
 1716              		.loc 1 1346 5 view .LVU575
 1717 001c CA60     		str	r2, [r1, #12]
 1718              		.loc 1 1346 45 view .LVU576
 1719              		.loc 1 1347 5 view .LVU577
 1720 001e 4B60     		str	r3, [r1, #4]
 1721              		.loc 1 1347 55 view .LVU578
 1722              		.loc 1 1358 3 view .LVU579
 1723              	.LBB544:
 1724              	.LBI544:
 1725              		.loc 3 698 25 view .LVU580
 1726              		.loc 3 700 3 view .LVU581
 1727              	.LBB545:
 1728              	.LBI545:
 1729              		.file 7 "./ChibiOS/os/rt/include/chvt.h"
 1730              		.loc 7 135 25 view .LVU582
 1731              		.loc 7 140 3 view .LVU583
 1732              	.LBB546:
 1733              	.LBI546:
 1734              		.file 8 "./ChibiOS/os/hal/osal/rt-nil/chcore_timer.h"
 1735              		.loc 8 111 25 view .LVU584
 1736              	.LBB547:
 1737              		.loc 8 113 3 view .LVU585
 1738              		.loc 8 113 10 is_stmt 0 view .LVU586
 1739 0020 FFF7FEFF 		bl	stGetCounter
 1740              	.LVL101:
 1741              		.loc 8 113 10 view .LVU587
 1742              	.LBE547:
 1743              	.LBE546:
 1744              	.LBE545:
 1745              	.LBE544:
 1746              		.loc 1 1359 3 is_stmt 1 view .LVU588
 1747              		.loc 1 1363 3 view .LVU589
 1748              		.loc 1 1364 5 view .LVU590
 1749              	.LBB548:
 1750              	.LBI531:
 1751              		.loc 3 573 20 view .LVU591
 1752              		.loc 3 575 3 view .LVU592
 1753              	.LBB542:
 1754              	.LBI532:
 1755              		.loc 4 372 20 view .LVU593
 1756              		.loc 4 374 3 view .LVU594
 1757              	.LBB540:
 1758              	.LBI533:
 1759              		.loc 5 840 27 view .LVU595
 1760              		.loc 5 848 3 view .LVU596
 1761              	.LBB538:
 1762              	.LBI534:
 1763              		.loc 2 491 27 view .LVU597
 1764              	.LBB536:
 1765              		.loc 2 493 3 view .LVU598
 1766              		.syntax unified
 1767              	@ 493 "./ChibiOS/os/common/ext/ARM/CMSIS/Core/Include/cmsis_gcc.h" 1
ARM GAS  C:\Users\DEVELO~1\AppData\Local\Temp\cczpfvaV.s 			page 32


 1768 0024 86F31188 		MSR basepri, r6
 1769              	@ 0 "" 2
 1770              	.LVL102:
 1771              		.loc 2 493 3 is_stmt 0 view .LVU599
 1772              		.thumb
 1773              		.syntax unified
 1774              	.LBE536:
 1775              	.LBE538:
 1776              	.LBE540:
 1777              		.loc 4 375 35 is_stmt 1 view .LVU600
 1778              		.loc 4 376 21 view .LVU601
 1779              	.LBE542:
 1780              	.LBE548:
 1781              		.loc 1 1368 5 view .LVU602
 1782              		.loc 1 1368 12 is_stmt 0 view .LVU603
 1783 0028 AB69     		ldr	r3, [r5, #24]
 1784              		.loc 1 1368 8 view .LVU604
 1785 002a 1F04     		lsls	r7, r3, #16
 1786 002c 12D5     		bpl	.L101
 1787 002e 0746     		mov	r7, r0
 1788 0030 06E0     		b	.L97
 1789              	.LVL103:
 1790              	.L115:
 1791              	.LBB549:
 1792              	.LBB550:
 1793              	.LBB551:
 1794              	.LBB552:
 1795              	.LBB553:
 1796              	.LBB554:
 1797              		.loc 2 493 3 view .LVU605
 1798              		.syntax unified
 1799              	@ 493 "./ChibiOS/os/common/ext/ARM/CMSIS/Core/Include/cmsis_gcc.h" 1
 1800 0032 84F31188 		MSR basepri, r4
 1801              	@ 0 "" 2
 1802              	.LVL104:
 1803              		.loc 2 493 3 view .LVU606
 1804              		.thumb
 1805              		.syntax unified
 1806              	.LBE554:
 1807              	.LBE553:
 1808              	.LBE552:
 1809              	.LBE551:
 1810              	.LBE550:
 1811              	.LBE549:
 1812              		.loc 1 1363 3 is_stmt 1 view .LVU607
 1813              		.loc 1 1364 5 view .LVU608
 1814              	.LBB560:
 1815              		.loc 3 573 20 view .LVU609
 1816              		.loc 3 575 3 view .LVU610
 1817              	.LBB543:
 1818              		.loc 4 372 20 view .LVU611
 1819              		.loc 4 374 3 view .LVU612
 1820              	.LBB541:
 1821              		.loc 5 840 27 view .LVU613
 1822              		.loc 5 848 3 view .LVU614
 1823              	.LBB539:
 1824              		.loc 2 491 27 view .LVU615
ARM GAS  C:\Users\DEVELO~1\AppData\Local\Temp\cczpfvaV.s 			page 33


 1825              	.LBB537:
 1826              		.loc 2 493 3 view .LVU616
 1827              		.syntax unified
 1828              	@ 493 "./ChibiOS/os/common/ext/ARM/CMSIS/Core/Include/cmsis_gcc.h" 1
 1829 0036 86F31188 		MSR basepri, r6
 1830              	@ 0 "" 2
 1831              	.LVL105:
 1832              		.loc 2 493 3 is_stmt 0 view .LVU617
 1833              		.thumb
 1834              		.syntax unified
 1835              	.LBE537:
 1836              	.LBE539:
 1837              	.LBE541:
 1838              		.loc 4 375 35 is_stmt 1 view .LVU618
 1839              		.loc 4 376 21 view .LVU619
 1840              	.LBE543:
 1841              	.LBE560:
 1842              		.loc 1 1368 5 view .LVU620
 1843              		.loc 1 1368 12 is_stmt 0 view .LVU621
 1844 003a AB69     		ldr	r3, [r5, #24]
 1845              		.loc 1 1368 8 view .LVU622
 1846 003c 1904     		lsls	r1, r3, #16
 1847 003e 09D5     		bpl	.L101
 1848              	.L97:
 1849              		.loc 1 1373 5 is_stmt 1 view .LVU623
 1850              	.LBB561:
 1851              	.LBI561:
 1852              		.loc 3 698 25 view .LVU624
 1853              		.loc 3 700 3 view .LVU625
 1854              	.LBB562:
 1855              	.LBI562:
 1856              		.loc 7 135 25 view .LVU626
 1857              		.loc 7 140 3 view .LVU627
 1858              	.LBB563:
 1859              	.LBI563:
 1860              		.loc 8 111 25 view .LVU628
 1861              	.LBB564:
 1862              		.loc 8 113 3 view .LVU629
 1863              		.loc 8 113 10 is_stmt 0 view .LVU630
 1864 0040 FFF7FEFF 		bl	stGetCounter
 1865              	.LVL106:
 1866              	.LBE564:
 1867              	.LBE563:
 1868              	.LBE562:
 1869              	.LBE561:
 1870              		.loc 1 1377 5 is_stmt 1 view .LVU631
 1871              	.LBB565:
 1872              	.LBI549:
 1873              		.loc 3 584 20 view .LVU632
 1874              		.loc 3 586 3 view .LVU633
 1875              	.LBB559:
 1876              	.LBI550:
 1877              		.loc 4 386 20 view .LVU634
 1878              	.LBB558:
 1879              		.loc 4 388 23 view .LVU635
 1880              		.loc 4 389 34 view .LVU636
 1881              		.loc 4 395 3 view .LVU637
ARM GAS  C:\Users\DEVELO~1\AppData\Local\Temp\cczpfvaV.s 			page 34


 1882              		.loc 4 395 3 view .LVU638
 1883              		.loc 4 395 3 view .LVU639
 1884              		.loc 4 399 3 view .LVU640
 1885              	.LBB557:
 1886              	.LBI552:
 1887              		.loc 5 864 27 view .LVU641
 1888              		.loc 5 867 3 view .LVU642
 1889              	.LBB556:
 1890              	.LBI553:
 1891              		.loc 2 491 27 view .LVU643
 1892              	.LBB555:
 1893              		.loc 2 493 3 view .LVU644
 1894              		.loc 2 493 3 is_stmt 0 view .LVU645
 1895              	.LBE555:
 1896              	.LBE556:
 1897              	.LBE557:
 1898              	.LBE558:
 1899              	.LBE559:
 1900              	.LBE565:
 1901              	.LBB566:
 1902              	.LBI566:
 1903              		.loc 3 746 20 is_stmt 1 view .LVU646
 1904              		.loc 3 750 3 view .LVU647
 1905              	.LBB567:
 1906              	.LBI567:
 1907              		.file 9 "./ChibiOS/os/rt/include/chtime.h"
 1908              		.loc 9 484 20 view .LVU648
 1909              	.LBB568:
 1910              		.loc 9 488 3 view .LVU649
 1911              		.loc 9 488 17 is_stmt 0 view .LVU650
 1912 0044 C01B     		subs	r0, r0, r7
 1913              	.LBE568:
 1914              	.LBE567:
 1915              	.LBE566:
 1916              		.loc 1 1373 8 view .LVU651
 1917 0046 B0F5FA7F 		cmp	r0, #500
 1918 004a F2D3     		bcc	.L115
 1919              		.loc 1 1374 14 view .LVU652
 1920 004c 4FF0FF30 		mov	r0, #-1
 1921              	.LVL107:
 1922              	.L96:
 1923              		.loc 1 1414 1 view .LVU653
 1924 0050 BDE8F883 		pop	{r3, r4, r5, r6, r7, r8, r9, pc}
 1925              	.LVL108:
 1926              	.L101:
 1927              		.loc 1 1381 3 is_stmt 1 view .LVU654
 1928              	.LBB569:
 1929              	.LBI569:
 1930              		.loc 1 245 13 view .LVU655
 1931              	.LBB570:
 1932              		.loc 1 246 3 view .LVU656
 1933              		.loc 1 249 20 is_stmt 0 view .LVU657
 1934 0054 D8F80430 		ldr	r3, [r8, #4]
 1935              		.loc 1 246 16 view .LVU658
 1936 0058 D8F83840 		ldr	r4, [r8, #56]
 1937              	.LVL109:
 1938              		.loc 1 249 3 is_stmt 1 view .LVU659
ARM GAS  C:\Users\DEVELO~1\AppData\Local\Temp\cczpfvaV.s 			page 35


 1939              		.loc 1 249 20 is_stmt 0 view .LVU660
 1940 005c 9B68     		ldr	r3, [r3, #8]
 1941              		.loc 1 249 6 view .LVU661
 1942 005e 1805     		lsls	r0, r3, #20
 1943 0060 3AD5     		bpl	.L98
 1944              		.loc 1 252 5 is_stmt 1 view .LVU662
 1945              	.LBE570:
 1946              	.LBE569:
 1947              	.LBB573:
 1948              	.LBB574:
 1949              	.LBB575:
 1950              	.LBB576:
 1951              		.loc 1 115 12 is_stmt 0 view .LVU663
 1952 0062 D8F83020 		ldr	r2, [r8, #48]
 1953              	.LBE576:
 1954              	.LBE575:
 1955              	.LBE574:
 1956              	.LBE573:
 1957              	.LBB584:
 1958              	.LBB571:
 1959              		.loc 1 252 13 view .LVU664
 1960 0066 C4F80490 		str	r9, [r4, #4]
 1961              	.LVL110:
 1962              		.loc 1 252 13 view .LVU665
 1963              	.LBE571:
 1964              	.LBE584:
 1965              		.loc 1 1384 3 is_stmt 1 view .LVU666
 1966              	.LBB585:
 1967              	.LBI573:
 1968              		.loc 1 262 13 view .LVU667
 1969              	.LBB581:
 1970              		.loc 1 263 3 view .LVU668
 1971              		.loc 1 264 3 view .LVU669
 1972              		.loc 1 265 3 view .LVU670
 1973              		.loc 1 268 3 view .LVU671
 1974              	.LBB579:
 1975              	.LBI575:
 1976              		.loc 1 100 22 view .LVU672
 1977              	.LBB577:
 1978              		.loc 1 115 5 view .LVU673
 1979              		.loc 1 115 12 is_stmt 0 view .LVU674
 1980 006a 1068     		ldr	r0, [r2]
 1981 006c 4168     		ldr	r1, [r0, #4]
 1982              	.LVL111:
 1983              		.loc 1 115 12 view .LVU675
 1984              	.LBE577:
 1985              	.LBE579:
 1986              		.loc 1 269 3 is_stmt 1 view .LVU676
 1987              		.loc 1 269 6 is_stmt 0 view .LVU677
 1988 006e FF29     		cmp	r1, #255
 1989 0070 3BD8     		bhi	.L106
 1990              	.L116:
 1991              		.loc 1 280 33 view .LVU678
 1992 0072 0904     		lsls	r1, r1, #16
 1993              	.LVL112:
 1994              		.loc 1 274 12 view .LVU679
 1995 0074 0022     		movs	r2, #0
ARM GAS  C:\Users\DEVELO~1\AppData\Local\Temp\cczpfvaV.s 			page 36


 1996              	.L103:
 1997              	.LVL113:
 1998              		.loc 1 279 3 is_stmt 1 view .LVU680
 1999              		.loc 1 279 16 is_stmt 0 view .LVU681
 2000 0076 6668     		ldr	r6, [r4, #4]
 2001              		.loc 1 280 41 view .LVU682
 2002 0078 1A43     		orrs	r2, r2, r3
 2003              	.LVL114:
 2004              		.loc 1 279 22 view .LVU683
 2005 007a 1E4B     		ldr	r3, .L117
 2006 007c 3340     		ands	r3, r3, r6
 2007              		.loc 1 280 41 view .LVU684
 2008 007e 1343     		orrs	r3, r3, r2
 2009 0080 0B43     		orrs	r3, r3, r1
 2010              	.LBE581:
 2011              	.LBE585:
 2012              	.LBB586:
 2013              	.LBB587:
 2014              		.loc 3 824 10 view .LVU685
 2015 0082 0899     		ldr	r1, [sp, #32]
 2016              	.LBE587:
 2017              	.LBE586:
 2018              	.LBB590:
 2019              	.LBB582:
 2020              		.loc 1 280 41 view .LVU686
 2021 0084 43F48063 		orr	r3, r3, #1024
 2022              		.loc 1 279 11 view .LVU687
 2023 0088 6360     		str	r3, [r4, #4]
 2024              	.LVL115:
 2025              		.loc 1 279 11 view .LVU688
 2026              	.LBE582:
 2027              	.LBE590:
 2028              		.loc 1 1388 3 is_stmt 1 view .LVU689
 2029              	.LBB591:
 2030              	.LBI591:
 2031              		.loc 1 147 20 view .LVU690
 2032              	.LBB592:
 2033              		.loc 1 164 5 view .LVU691
 2034 008a 0368     		ldr	r3, [r0]
 2035 008c 43F00103 		orr	r3, r3, #1
 2036 0090 0360     		str	r3, [r0]
 2037              		.loc 1 164 34 view .LVU692
 2038              	.LVL116:
 2039              		.loc 1 164 34 is_stmt 0 view .LVU693
 2040              	.LBE592:
 2041              	.LBE591:
 2042              		.loc 1 1391 3 is_stmt 1 view .LVU694
 2043              	.LBB593:
 2044              	.LBB588:
 2045              		.loc 3 824 10 is_stmt 0 view .LVU695
 2046 0092 08F11C00 		add	r0, r8, #28
 2047              	.LBE588:
 2048              	.LBE593:
 2049              		.loc 1 1391 11 view .LVU696
 2050 0096 2B68     		ldr	r3, [r5]
 2051 0098 43F04003 		orr	r3, r3, #64
 2052 009c 2B60     		str	r3, [r5]
ARM GAS  C:\Users\DEVELO~1\AppData\Local\Temp\cczpfvaV.s 			page 37


 2053              		.loc 1 1399 3 is_stmt 1 view .LVU697
 2054              		.loc 1 1399 11 is_stmt 0 view .LVU698
 2055 009e 6B68     		ldr	r3, [r5, #4]
 2056 00a0 43F40053 		orr	r3, r3, #8192
 2057 00a4 6B60     		str	r3, [r5, #4]
 2058              		.loc 1 1402 3 is_stmt 1 view .LVU699
 2059              	.LVL117:
 2060              	.LBB594:
 2061              	.LBI586:
 2062              		.loc 3 821 21 view .LVU700
 2063              	.LBB589:
 2064              		.loc 3 824 3 view .LVU701
 2065              		.loc 3 824 10 is_stmt 0 view .LVU702
 2066 00a6 FFF7FEFF 		bl	chThdSuspendTimeoutS
 2067              	.LVL118:
 2068              		.loc 3 824 10 view .LVU703
 2069              	.LBE589:
 2070              	.LBE594:
 2071              		.loc 1 1406 3 is_stmt 1 view .LVU704
 2072              		.loc 1 1406 6 is_stmt 0 view .LVU705
 2073 00aa 421C     		adds	r2, r0, #1
 2074 00ac D0D1     		bne	.L96
 2075              		.loc 1 1407 5 is_stmt 1 view .LVU706
 2076              		.loc 1 1407 13 is_stmt 0 view .LVU707
 2077 00ae 6B68     		ldr	r3, [r5, #4]
 2078 00b0 D8F83010 		ldr	r1, [r8, #48]
 2079 00b4 43F48043 		orr	r3, r3, #16384
 2080              	.LBB595:
 2081              	.LBB596:
 2082              		.loc 1 208 5 view .LVU708
 2083 00b8 0A68     		ldr	r2, [r1]
 2084              	.LBE596:
 2085              	.LBE595:
 2086              		.loc 1 1407 13 view .LVU709
 2087 00ba 6B60     		str	r3, [r5, #4]
 2088              		.loc 1 1409 5 is_stmt 1 view .LVU710
 2089              	.LBB598:
 2090              	.LBI595:
 2091              		.loc 1 191 20 view .LVU711
 2092              	.LVL119:
 2093              	.LBB597:
 2094              		.loc 1 208 5 view .LVU712
 2095 00bc 1368     		ldr	r3, [r2]
 2096 00be 23F01F03 		bic	r3, r3, #31
 2097 00c2 1360     		str	r3, [r2]
 2098              		.loc 1 208 5 view .LVU713
 2099              	.L104:
 2100              		.loc 1 208 5 view .LVU714
 2101 00c4 1368     		ldr	r3, [r2]
 2102 00c6 DB07     		lsls	r3, r3, #31
 2103 00c8 FCD4     		bmi	.L104
 2104              		.loc 1 208 5 view .LVU715
 2105 00ca 0C7B     		ldrb	r4, [r1, #12]	@ zero_extendqisi2
 2106 00cc 3D23     		movs	r3, #61
 2107 00ce 4A68     		ldr	r2, [r1, #4]
 2108 00d0 A340     		lsls	r3, r3, r4
 2109 00d2 1360     		str	r3, [r2]
ARM GAS  C:\Users\DEVELO~1\AppData\Local\Temp\cczpfvaV.s 			page 38


 2110              		.loc 1 208 5 view .LVU716
 2111              		.loc 1 208 35 view .LVU717
 2112              	.LBE597:
 2113              	.LBE598:
 2114              		.loc 1 1414 1 is_stmt 0 view .LVU718
 2115 00d4 BDE8F883 		pop	{r3, r4, r5, r6, r7, r8, r9, pc}
 2116              	.LVL120:
 2117              	.L98:
 2118              	.LBB599:
 2119              	.LBB572:
 2120              		.loc 1 250 5 is_stmt 1 view .LVU719
 2121              		.loc 1 250 30 is_stmt 0 view .LVU720
 2122 00d8 4FEA4902 		lsl	r2, r9, #1
 2123              		.loc 1 250 13 view .LVU721
 2124 00dc 6260     		str	r2, [r4, #4]
 2125              	.LVL121:
 2126              		.loc 1 250 13 view .LVU722
 2127              	.LBE572:
 2128              	.LBE599:
 2129              		.loc 1 1384 3 is_stmt 1 view .LVU723
 2130              	.LBB600:
 2131              		.loc 1 262 13 view .LVU724
 2132              	.LBB583:
 2133              		.loc 1 263 3 view .LVU725
 2134              		.loc 1 264 3 view .LVU726
 2135              		.loc 1 265 3 view .LVU727
 2136              		.loc 1 268 3 view .LVU728
 2137              	.LBB580:
 2138              		.loc 1 100 22 view .LVU729
 2139              	.LBB578:
 2140              		.loc 1 115 5 view .LVU730
 2141              		.loc 1 115 12 is_stmt 0 view .LVU731
 2142 00de D8F83020 		ldr	r2, [r8, #48]
 2143 00e2 1068     		ldr	r0, [r2]
 2144 00e4 4168     		ldr	r1, [r0, #4]
 2145              	.LVL122:
 2146              		.loc 1 115 12 view .LVU732
 2147              	.LBE578:
 2148              	.LBE580:
 2149              		.loc 1 269 3 is_stmt 1 view .LVU733
 2150              		.loc 1 269 6 is_stmt 0 view .LVU734
 2151 00e6 FF29     		cmp	r1, #255
 2152 00e8 C3D9     		bls	.L116
 2153              	.L106:
 2154              		.loc 1 269 6 view .LVU735
 2155 00ea 4FF47F01 		mov	r1, #16711680
 2156              	.LVL123:
 2157              		.loc 1 271 12 view .LVU736
 2158 00ee 4FF08072 		mov	r2, #16777216
 2159 00f2 C0E7     		b	.L103
 2160              	.L118:
 2161              		.align	2
 2162              	.L117:
 2163 00f4 FFFF00FE 		.word	-33488897
 2164              	.LBE583:
 2165              	.LBE600:
 2166              		.cfi_endproc
ARM GAS  C:\Users\DEVELO~1\AppData\Local\Temp\cczpfvaV.s 			page 39


 2167              	.LFE465:
 2168              		.size	i2c_lld_master_receive_timeout, .-i2c_lld_master_receive_timeout
 2169              		.section	.text.i2c_lld_master_transmit_timeout,"ax",%progbits
 2170              		.align	1
 2171              		.p2align 4,,15
 2172              		.global	i2c_lld_master_transmit_timeout
 2173              		.syntax unified
 2174              		.thumb
 2175              		.thumb_func
 2176              		.type	i2c_lld_master_transmit_timeout, %function
 2177              	i2c_lld_master_transmit_timeout:
 2178              	.LVL124:
 2179              	.LFB466:
 2180              		.loc 1 1442 62 is_stmt 1 view -0
 2181              		.cfi_startproc
 2182              		@ args = 12, pretend = 0, frame = 0
 2183              		@ frame_needed = 0, uses_anonymous_args = 0
 2184              		.loc 1 1443 3 view .LVU738
 2185              		.loc 1 1444 3 view .LVU739
 2186              		.loc 1 1442 62 is_stmt 0 view .LVU740
 2187 0000 2DE9F843 		push	{r3, r4, r5, r6, r7, r8, r9, lr}
 2188              		.cfi_def_cfa_offset 32
 2189              		.cfi_offset 3, -32
 2190              		.cfi_offset 4, -28
 2191              		.cfi_offset 5, -24
 2192              		.cfi_offset 6, -20
 2193              		.cfi_offset 7, -16
 2194              		.cfi_offset 8, -12
 2195              		.cfi_offset 9, -8
 2196              		.cfi_offset 14, -4
 2197              		.loc 1 1452 16 view .LVU741
 2198 0004 0024     		movs	r4, #0
 2199              		.loc 1 1442 62 view .LVU742
 2200 0006 8046     		mov	r8, r0
 2201 0008 8946     		mov	r9, r1
 2202 000a 089F     		ldr	r7, [sp, #32]
 2203 000c 099E     		ldr	r6, [sp, #36]
 2204              		.loc 1 1444 16 view .LVU743
 2205 000e 856B     		ldr	r5, [r0, #56]
 2206              	.LVL125:
 2207              		.loc 1 1445 3 is_stmt 1 view .LVU744
 2208              		.loc 1 1452 3 view .LVU745
 2209              		.loc 1 1455 3 view .LVU746
 2210              	.LBB644:
 2211              	.LBI644:
 2212              		.loc 3 584 20 view .LVU747
 2213              		.loc 3 586 3 view .LVU748
 2214              	.LBB645:
 2215              	.LBI645:
 2216              		.loc 4 386 20 view .LVU749
 2217              	.LBB646:
 2218              		.loc 4 388 23 view .LVU750
 2219              		.loc 4 389 34 view .LVU751
 2220              		.loc 4 395 3 view .LVU752
 2221              		.loc 4 395 3 view .LVU753
 2222              		.loc 4 395 3 view .LVU754
 2223              		.loc 4 399 3 view .LVU755
ARM GAS  C:\Users\DEVELO~1\AppData\Local\Temp\cczpfvaV.s 			page 40


 2224              	.LBB647:
 2225              	.LBI647:
 2226              		.loc 5 864 27 view .LVU756
 2227              		.loc 5 867 3 view .LVU757
 2228              	.LBB648:
 2229              	.LBI648:
 2230              		.loc 2 491 27 view .LVU758
 2231              	.LBB649:
 2232              		.loc 2 493 3 view .LVU759
 2233              	.LBE649:
 2234              	.LBE648:
 2235              	.LBE647:
 2236              	.LBE646:
 2237              	.LBE645:
 2238              	.LBE644:
 2239              		.loc 1 1452 16 is_stmt 0 view .LVU760
 2240 0010 8460     		str	r4, [r0, #8]
 2241              	.LBB655:
 2242              	.LBB654:
 2243              	.LBB653:
 2244              	.LBB652:
 2245              	.LBB651:
 2246              	.LBB650:
 2247              		.loc 2 493 3 view .LVU761
 2248              		.syntax unified
 2249              	@ 493 "./ChibiOS/os/common/ext/ARM/CMSIS/Core/Include/cmsis_gcc.h" 1
 2250 0012 84F31188 		MSR basepri, r4
 2251              	@ 0 "" 2
 2252              	.LVL126:
 2253              		.loc 2 493 3 view .LVU762
 2254              		.thumb
 2255              		.syntax unified
 2256              	.LBE650:
 2257              	.LBE651:
 2258              	.LBE652:
 2259              	.LBE653:
 2260              	.LBE654:
 2261              	.LBE655:
 2262              		.loc 1 1478 5 is_stmt 1 view .LVU763
 2263 0016 416B     		ldr	r1, [r0, #52]
 2264              	.LVL127:
 2265              		.loc 1 1478 5 is_stmt 0 view .LVU764
 2266 0018 D8F82CC0 		ldr	ip, [r8, #44]
 2267 001c 0868     		ldr	r0, [r1]
 2268              	.LVL128:
 2269              		.loc 1 1482 5 view .LVU765
 2270 001e D8F83010 		ldr	r1, [r8, #48]
 2271 0022 0968     		ldr	r1, [r1]
 2272              		.loc 1 1478 5 view .LVU766
 2273 0024 C0F800C0 		str	ip, [r0]
 2274              		.loc 1 1478 52 is_stmt 1 view .LVU767
 2275              		.loc 1 1479 5 view .LVU768
 2276 0028 C260     		str	r2, [r0, #12]
 2277              		.loc 1 1479 45 view .LVU769
 2278              		.loc 1 1480 5 view .LVU770
 2279 002a 4360     		str	r3, [r0, #4]
 2280              		.loc 1 1480 55 view .LVU771
ARM GAS  C:\Users\DEVELO~1\AppData\Local\Temp\cczpfvaV.s 			page 41


 2281              		.loc 1 1482 5 view .LVU772
 2282 002c D8F82830 		ldr	r3, [r8, #40]
 2283              	.LVL129:
 2284              		.loc 1 1482 5 is_stmt 0 view .LVU773
 2285 0030 0B60     		str	r3, [r1]
 2286              	.LVL130:
 2287              		.loc 1 1482 52 is_stmt 1 view .LVU774
 2288              		.loc 1 1483 5 view .LVU775
 2289 0032 CF60     		str	r7, [r1, #12]
 2290              		.loc 1 1483 45 view .LVU776
 2291              		.loc 1 1484 5 view .LVU777
 2292 0034 4E60     		str	r6, [r1, #4]
 2293              		.loc 1 1484 55 view .LVU778
 2294              		.loc 1 1496 3 view .LVU779
 2295              	.LBB656:
 2296              	.LBI656:
 2297              		.loc 3 698 25 view .LVU780
 2298              		.loc 3 700 3 view .LVU781
 2299              	.LBB657:
 2300              	.LBI657:
 2301              		.loc 7 135 25 view .LVU782
 2302              		.loc 7 140 3 view .LVU783
 2303              	.LBB658:
 2304              	.LBI658:
 2305              		.loc 8 111 25 view .LVU784
 2306              	.LBB659:
 2307              		.loc 8 113 3 view .LVU785
 2308              	.LBE659:
 2309              	.LBE658:
 2310              	.LBE657:
 2311              	.LBE656:
 2312              	.LBB663:
 2313              	.LBB664:
 2314              	.LBB665:
 2315              	.LBB666:
 2316              	.LBB667:
 2317              		.loc 2 493 3 is_stmt 0 view .LVU786
 2318 0036 3026     		movs	r6, #48
 2319              	.LBE667:
 2320              	.LBE666:
 2321              	.LBE665:
 2322              	.LBE664:
 2323              	.LBE663:
 2324              	.LBB676:
 2325              	.LBB662:
 2326              	.LBB661:
 2327              	.LBB660:
 2328              		.loc 8 113 10 view .LVU787
 2329 0038 FFF7FEFF 		bl	stGetCounter
 2330              	.LVL131:
 2331              		.loc 8 113 10 view .LVU788
 2332              	.LBE660:
 2333              	.LBE661:
 2334              	.LBE662:
 2335              	.LBE676:
 2336              		.loc 1 1497 3 is_stmt 1 view .LVU789
 2337              		.loc 1 1501 3 view .LVU790
ARM GAS  C:\Users\DEVELO~1\AppData\Local\Temp\cczpfvaV.s 			page 42


 2338              		.loc 1 1502 5 view .LVU791
 2339              	.LBB677:
 2340              	.LBI663:
 2341              		.loc 3 573 20 view .LVU792
 2342              		.loc 3 575 3 view .LVU793
 2343              	.LBB674:
 2344              	.LBI664:
 2345              		.loc 4 372 20 view .LVU794
 2346              		.loc 4 374 3 view .LVU795
 2347              	.LBB672:
 2348              	.LBI665:
 2349              		.loc 5 840 27 view .LVU796
 2350              		.loc 5 848 3 view .LVU797
 2351              	.LBB670:
 2352              	.LBI666:
 2353              		.loc 2 491 27 view .LVU798
 2354              	.LBB668:
 2355              		.loc 2 493 3 view .LVU799
 2356              		.syntax unified
 2357              	@ 493 "./ChibiOS/os/common/ext/ARM/CMSIS/Core/Include/cmsis_gcc.h" 1
 2358 003c 86F31188 		MSR basepri, r6
 2359              	@ 0 "" 2
 2360              	.LVL132:
 2361              		.loc 2 493 3 is_stmt 0 view .LVU800
 2362              		.thumb
 2363              		.syntax unified
 2364              	.LBE668:
 2365              	.LBE670:
 2366              	.LBE672:
 2367              		.loc 4 375 35 is_stmt 1 view .LVU801
 2368              		.loc 4 376 21 view .LVU802
 2369              	.LBE674:
 2370              	.LBE677:
 2371              		.loc 1 1506 5 view .LVU803
 2372              		.loc 1 1506 12 is_stmt 0 view .LVU804
 2373 0040 AB69     		ldr	r3, [r5, #24]
 2374              		.loc 1 1506 8 view .LVU805
 2375 0042 1904     		lsls	r1, r3, #16
 2376 0044 12D5     		bpl	.L124
 2377 0046 0746     		mov	r7, r0
 2378 0048 06E0     		b	.L120
 2379              	.LVL133:
 2380              	.L140:
 2381              	.LBB678:
 2382              	.LBB679:
 2383              	.LBB680:
 2384              	.LBB681:
 2385              	.LBB682:
 2386              	.LBB683:
 2387              		.loc 2 493 3 view .LVU806
 2388              		.syntax unified
 2389              	@ 493 "./ChibiOS/os/common/ext/ARM/CMSIS/Core/Include/cmsis_gcc.h" 1
 2390 004a 84F31188 		MSR basepri, r4
 2391              	@ 0 "" 2
 2392              	.LVL134:
 2393              		.loc 2 493 3 view .LVU807
 2394              		.thumb
ARM GAS  C:\Users\DEVELO~1\AppData\Local\Temp\cczpfvaV.s 			page 43


 2395              		.syntax unified
 2396              	.LBE683:
 2397              	.LBE682:
 2398              	.LBE681:
 2399              	.LBE680:
 2400              	.LBE679:
 2401              	.LBE678:
 2402              		.loc 1 1501 3 is_stmt 1 view .LVU808
 2403              		.loc 1 1502 5 view .LVU809
 2404              	.LBB689:
 2405              		.loc 3 573 20 view .LVU810
 2406              		.loc 3 575 3 view .LVU811
 2407              	.LBB675:
 2408              		.loc 4 372 20 view .LVU812
 2409              		.loc 4 374 3 view .LVU813
 2410              	.LBB673:
 2411              		.loc 5 840 27 view .LVU814
 2412              		.loc 5 848 3 view .LVU815
 2413              	.LBB671:
 2414              		.loc 2 491 27 view .LVU816
 2415              	.LBB669:
 2416              		.loc 2 493 3 view .LVU817
 2417              		.syntax unified
 2418              	@ 493 "./ChibiOS/os/common/ext/ARM/CMSIS/Core/Include/cmsis_gcc.h" 1
 2419 004e 86F31188 		MSR basepri, r6
 2420              	@ 0 "" 2
 2421              	.LVL135:
 2422              		.loc 2 493 3 is_stmt 0 view .LVU818
 2423              		.thumb
 2424              		.syntax unified
 2425              	.LBE669:
 2426              	.LBE671:
 2427              	.LBE673:
 2428              		.loc 4 375 35 is_stmt 1 view .LVU819
 2429              		.loc 4 376 21 view .LVU820
 2430              	.LBE675:
 2431              	.LBE689:
 2432              		.loc 1 1506 5 view .LVU821
 2433              		.loc 1 1506 12 is_stmt 0 view .LVU822
 2434 0052 AB69     		ldr	r3, [r5, #24]
 2435              		.loc 1 1506 8 view .LVU823
 2436 0054 1B04     		lsls	r3, r3, #16
 2437 0056 09D5     		bpl	.L124
 2438              	.L120:
 2439              		.loc 1 1511 5 is_stmt 1 view .LVU824
 2440              	.LBB690:
 2441              	.LBI690:
 2442              		.loc 3 698 25 view .LVU825
 2443              		.loc 3 700 3 view .LVU826
 2444              	.LBB691:
 2445              	.LBI691:
 2446              		.loc 7 135 25 view .LVU827
 2447              		.loc 7 140 3 view .LVU828
 2448              	.LBB692:
 2449              	.LBI692:
 2450              		.loc 8 111 25 view .LVU829
 2451              	.LBB693:
ARM GAS  C:\Users\DEVELO~1\AppData\Local\Temp\cczpfvaV.s 			page 44


 2452              		.loc 8 113 3 view .LVU830
 2453              		.loc 8 113 10 is_stmt 0 view .LVU831
 2454 0058 FFF7FEFF 		bl	stGetCounter
 2455              	.LVL136:
 2456              	.LBE693:
 2457              	.LBE692:
 2458              	.LBE691:
 2459              	.LBE690:
 2460              		.loc 1 1515 5 is_stmt 1 view .LVU832
 2461              	.LBB694:
 2462              	.LBI678:
 2463              		.loc 3 584 20 view .LVU833
 2464              		.loc 3 586 3 view .LVU834
 2465              	.LBB688:
 2466              	.LBI679:
 2467              		.loc 4 386 20 view .LVU835
 2468              	.LBB687:
 2469              		.loc 4 388 23 view .LVU836
 2470              		.loc 4 389 34 view .LVU837
 2471              		.loc 4 395 3 view .LVU838
 2472              		.loc 4 395 3 view .LVU839
 2473              		.loc 4 395 3 view .LVU840
 2474              		.loc 4 399 3 view .LVU841
 2475              	.LBB686:
 2476              	.LBI681:
 2477              		.loc 5 864 27 view .LVU842
 2478              		.loc 5 867 3 view .LVU843
 2479              	.LBB685:
 2480              	.LBI682:
 2481              		.loc 2 491 27 view .LVU844
 2482              	.LBB684:
 2483              		.loc 2 493 3 view .LVU845
 2484              		.loc 2 493 3 is_stmt 0 view .LVU846
 2485              	.LBE684:
 2486              	.LBE685:
 2487              	.LBE686:
 2488              	.LBE687:
 2489              	.LBE688:
 2490              	.LBE694:
 2491              	.LBB695:
 2492              	.LBI695:
 2493              		.loc 3 746 20 is_stmt 1 view .LVU847
 2494              		.loc 3 750 3 view .LVU848
 2495              	.LBB696:
 2496              	.LBI696:
 2497              		.loc 9 484 20 view .LVU849
 2498              	.LBB697:
 2499              		.loc 9 488 3 view .LVU850
 2500              		.loc 9 488 17 is_stmt 0 view .LVU851
 2501 005c C01B     		subs	r0, r0, r7
 2502              	.LBE697:
 2503              	.LBE696:
 2504              	.LBE695:
 2505              		.loc 1 1511 8 view .LVU852
 2506 005e B0F5FA7F 		cmp	r0, #500
 2507 0062 F2D3     		bcc	.L140
 2508              		.loc 1 1512 14 view .LVU853
ARM GAS  C:\Users\DEVELO~1\AppData\Local\Temp\cczpfvaV.s 			page 45


 2509 0064 4FF0FF30 		mov	r0, #-1
 2510              	.LVL137:
 2511              	.L119:
 2512              		.loc 1 1552 1 view .LVU854
 2513 0068 BDE8F883 		pop	{r3, r4, r5, r6, r7, r8, r9, pc}
 2514              	.LVL138:
 2515              	.L124:
 2516              		.loc 1 1519 3 is_stmt 1 view .LVU855
 2517              	.LBB698:
 2518              	.LBI698:
 2519              		.loc 1 245 13 view .LVU856
 2520              	.LBB699:
 2521              		.loc 1 246 3 view .LVU857
 2522              		.loc 1 249 20 is_stmt 0 view .LVU858
 2523 006c D8F80430 		ldr	r3, [r8, #4]
 2524              		.loc 1 246 16 view .LVU859
 2525 0070 D8F83840 		ldr	r4, [r8, #56]
 2526              	.LVL139:
 2527              		.loc 1 249 3 is_stmt 1 view .LVU860
 2528              		.loc 1 249 20 is_stmt 0 view .LVU861
 2529 0074 9968     		ldr	r1, [r3, #8]
 2530              		.loc 1 249 6 view .LVU862
 2531 0076 0A05     		lsls	r2, r1, #20
 2532 0078 47D5     		bpl	.L121
 2533              		.loc 1 252 5 is_stmt 1 view .LVU863
 2534              	.LBE699:
 2535              	.LBE698:
 2536              	.LBB702:
 2537              	.LBB703:
 2538              	.LBB704:
 2539              	.LBB705:
 2540              		.loc 1 138 12 is_stmt 0 view .LVU864
 2541 007a D8F83430 		ldr	r3, [r8, #52]
 2542              	.LBE705:
 2543              	.LBE704:
 2544              	.LBE703:
 2545              	.LBE702:
 2546              	.LBB713:
 2547              	.LBB700:
 2548              		.loc 1 252 13 view .LVU865
 2549 007e C4F80490 		str	r9, [r4, #4]
 2550              	.LVL140:
 2551              		.loc 1 252 13 view .LVU866
 2552              	.LBE700:
 2553              	.LBE713:
 2554              		.loc 1 1522 3 is_stmt 1 view .LVU867
 2555              	.LBB714:
 2556              	.LBI702:
 2557              		.loc 1 290 13 view .LVU868
 2558              	.LBB710:
 2559              		.loc 1 291 3 view .LVU869
 2560              		.loc 1 292 3 view .LVU870
 2561              		.loc 1 293 3 view .LVU871
 2562              		.loc 1 296 3 view .LVU872
 2563              	.LBB708:
 2564              	.LBI704:
 2565              		.loc 1 123 22 view .LVU873
ARM GAS  C:\Users\DEVELO~1\AppData\Local\Temp\cczpfvaV.s 			page 46


 2566              	.LBB706:
 2567              		.loc 1 138 5 view .LVU874
 2568              		.loc 1 138 12 is_stmt 0 view .LVU875
 2569 0082 1868     		ldr	r0, [r3]
 2570 0084 4268     		ldr	r2, [r0, #4]
 2571              	.LVL141:
 2572              		.loc 1 138 12 view .LVU876
 2573              	.LBE706:
 2574              	.LBE708:
 2575              		.loc 1 297 3 is_stmt 1 view .LVU877
 2576              		.loc 1 297 6 is_stmt 0 view .LVU878
 2577 0086 FF2A     		cmp	r2, #255
 2578 0088 48D8     		bhi	.L130
 2579              	.L141:
 2580              		.loc 1 308 16 view .LVU879
 2581 008a 1204     		lsls	r2, r2, #16
 2582              	.LVL142:
 2583              		.loc 1 302 12 view .LVU880
 2584 008c 0027     		movs	r7, #0
 2585              	.L126:
 2586              	.LVL143:
 2587              		.loc 1 307 3 is_stmt 1 view .LVU881
 2588              		.loc 1 307 16 is_stmt 0 view .LVU882
 2589 008e 6668     		ldr	r6, [r4, #4]
 2590              		.loc 1 307 22 view .LVU883
 2591 0090 254B     		ldr	r3, .L142
 2592 0092 3340     		ands	r3, r3, r6
 2593              		.loc 1 308 24 view .LVU884
 2594 0094 0B43     		orrs	r3, r3, r1
 2595              	.LBE710:
 2596              	.LBE714:
 2597              	.LBB715:
 2598              	.LBB716:
 2599              		.loc 3 824 10 view .LVU885
 2600 0096 0A99     		ldr	r1, [sp, #40]
 2601              	.LBE716:
 2602              	.LBE715:
 2603              	.LBB719:
 2604              	.LBB711:
 2605              		.loc 1 308 24 view .LVU886
 2606 0098 3B43     		orrs	r3, r3, r7
 2607 009a 1343     		orrs	r3, r3, r2
 2608              		.loc 1 307 11 view .LVU887
 2609 009c 6360     		str	r3, [r4, #4]
 2610              	.LVL144:
 2611              		.loc 1 307 11 view .LVU888
 2612              	.LBE711:
 2613              	.LBE719:
 2614              		.loc 1 1526 3 is_stmt 1 view .LVU889
 2615              	.LBB720:
 2616              	.LBI720:
 2617              		.loc 1 169 20 view .LVU890
 2618              	.LBB721:
 2619              		.loc 1 186 5 view .LVU891
 2620 009e 0368     		ldr	r3, [r0]
 2621 00a0 43F00103 		orr	r3, r3, #1
 2622 00a4 0360     		str	r3, [r0]
ARM GAS  C:\Users\DEVELO~1\AppData\Local\Temp\cczpfvaV.s 			page 47


 2623              		.loc 1 186 34 view .LVU892
 2624              	.LVL145:
 2625              		.loc 1 186 34 is_stmt 0 view .LVU893
 2626              	.LBE721:
 2627              	.LBE720:
 2628              		.loc 1 1529 3 is_stmt 1 view .LVU894
 2629              	.LBB722:
 2630              	.LBB717:
 2631              		.loc 3 824 10 is_stmt 0 view .LVU895
 2632 00a6 08F11C00 		add	r0, r8, #28
 2633              	.LBE717:
 2634              	.LBE722:
 2635              		.loc 1 1529 11 view .LVU896
 2636 00aa 2B68     		ldr	r3, [r5]
 2637 00ac 43F04003 		orr	r3, r3, #64
 2638 00b0 2B60     		str	r3, [r5]
 2639              		.loc 1 1536 3 is_stmt 1 view .LVU897
 2640              		.loc 1 1536 11 is_stmt 0 view .LVU898
 2641 00b2 6B68     		ldr	r3, [r5, #4]
 2642 00b4 43F40053 		orr	r3, r3, #8192
 2643 00b8 6B60     		str	r3, [r5, #4]
 2644              		.loc 1 1539 3 is_stmt 1 view .LVU899
 2645              	.LVL146:
 2646              	.LBB723:
 2647              	.LBI715:
 2648              		.loc 3 821 21 view .LVU900
 2649              	.LBB718:
 2650              		.loc 3 824 3 view .LVU901
 2651              		.loc 3 824 10 is_stmt 0 view .LVU902
 2652 00ba FFF7FEFF 		bl	chThdSuspendTimeoutS
 2653              	.LVL147:
 2654              		.loc 3 824 10 view .LVU903
 2655              	.LBE718:
 2656              	.LBE723:
 2657              		.loc 1 1543 3 is_stmt 1 view .LVU904
 2658              		.loc 1 1543 6 is_stmt 0 view .LVU905
 2659 00be 441C     		adds	r4, r0, #1
 2660 00c0 D2D1     		bne	.L119
 2661              		.loc 1 1544 5 is_stmt 1 view .LVU906
 2662              		.loc 1 1544 13 is_stmt 0 view .LVU907
 2663 00c2 6B68     		ldr	r3, [r5, #4]
 2664 00c4 D8F83040 		ldr	r4, [r8, #48]
 2665 00c8 43F48043 		orr	r3, r3, #16384
 2666              	.LBB724:
 2667              	.LBB725:
 2668              		.loc 1 208 5 view .LVU908
 2669 00cc 2268     		ldr	r2, [r4]
 2670              	.LBE725:
 2671              	.LBE724:
 2672              		.loc 1 1544 13 view .LVU909
 2673 00ce 6B60     		str	r3, [r5, #4]
 2674              		.loc 1 1546 5 is_stmt 1 view .LVU910
 2675              	.LBB728:
 2676              	.LBI724:
 2677              		.loc 1 191 20 view .LVU911
 2678              	.LVL148:
 2679              	.LBB726:
ARM GAS  C:\Users\DEVELO~1\AppData\Local\Temp\cczpfvaV.s 			page 48


 2680              		.loc 1 208 5 view .LVU912
 2681 00d0 1368     		ldr	r3, [r2]
 2682 00d2 23F01F03 		bic	r3, r3, #31
 2683 00d6 1360     		str	r3, [r2]
 2684              		.loc 1 208 5 view .LVU913
 2685              	.L127:
 2686              		.loc 1 208 5 view .LVU914
 2687 00d8 1368     		ldr	r3, [r2]
 2688 00da D907     		lsls	r1, r3, #31
 2689 00dc FCD4     		bmi	.L127
 2690              		.loc 1 208 5 view .LVU915
 2691 00de 227B     		ldrb	r2, [r4, #12]	@ zero_extendqisi2
 2692 00e0 3D23     		movs	r3, #61
 2693 00e2 D8F83410 		ldr	r1, [r8, #52]
 2694 00e6 9340     		lsls	r3, r3, r2
 2695 00e8 6468     		ldr	r4, [r4, #4]
 2696              	.LBE726:
 2697              	.LBE728:
 2698              	.LBB729:
 2699              	.LBB730:
 2700              		.loc 1 230 5 is_stmt 0 view .LVU916
 2701 00ea 0A68     		ldr	r2, [r1]
 2702              	.LBE730:
 2703              	.LBE729:
 2704              	.LBB732:
 2705              	.LBB727:
 2706              		.loc 1 208 5 view .LVU917
 2707 00ec 2360     		str	r3, [r4]
 2708              		.loc 1 208 5 is_stmt 1 view .LVU918
 2709              		.loc 1 208 35 view .LVU919
 2710              	.LVL149:
 2711              		.loc 1 208 35 is_stmt 0 view .LVU920
 2712              	.LBE727:
 2713              	.LBE732:
 2714              		.loc 1 1547 5 is_stmt 1 view .LVU921
 2715              	.LBB733:
 2716              	.LBI729:
 2717              		.loc 1 213 20 view .LVU922
 2718              	.LBB731:
 2719              		.loc 1 230 5 view .LVU923
 2720 00ee 1368     		ldr	r3, [r2]
 2721 00f0 23F01F03 		bic	r3, r3, #31
 2722 00f4 1360     		str	r3, [r2]
 2723              		.loc 1 230 5 view .LVU924
 2724              	.L128:
 2725              		.loc 1 230 5 view .LVU925
 2726 00f6 1368     		ldr	r3, [r2]
 2727 00f8 DB07     		lsls	r3, r3, #31
 2728 00fa FCD4     		bmi	.L128
 2729              		.loc 1 230 5 view .LVU926
 2730 00fc 0C7B     		ldrb	r4, [r1, #12]	@ zero_extendqisi2
 2731 00fe 3D23     		movs	r3, #61
 2732 0100 4A68     		ldr	r2, [r1, #4]
 2733 0102 A340     		lsls	r3, r3, r4
 2734 0104 1360     		str	r3, [r2]
 2735              		.loc 1 230 5 view .LVU927
 2736              		.loc 1 230 35 view .LVU928
ARM GAS  C:\Users\DEVELO~1\AppData\Local\Temp\cczpfvaV.s 			page 49


 2737              	.LBE731:
 2738              	.LBE733:
 2739              		.loc 1 1552 1 is_stmt 0 view .LVU929
 2740 0106 BDE8F883 		pop	{r3, r4, r5, r6, r7, r8, r9, pc}
 2741              	.LVL150:
 2742              	.L121:
 2743              	.LBB734:
 2744              	.LBB701:
 2745              		.loc 1 250 5 is_stmt 1 view .LVU930
 2746              		.loc 1 250 30 is_stmt 0 view .LVU931
 2747 010a 4FEA4903 		lsl	r3, r9, #1
 2748              		.loc 1 250 13 view .LVU932
 2749 010e 6360     		str	r3, [r4, #4]
 2750              	.LVL151:
 2751              		.loc 1 250 13 view .LVU933
 2752              	.LBE701:
 2753              	.LBE734:
 2754              		.loc 1 1522 3 is_stmt 1 view .LVU934
 2755              	.LBB735:
 2756              		.loc 1 290 13 view .LVU935
 2757              	.LBB712:
 2758              		.loc 1 291 3 view .LVU936
 2759              		.loc 1 292 3 view .LVU937
 2760              		.loc 1 293 3 view .LVU938
 2761              		.loc 1 296 3 view .LVU939
 2762              	.LBB709:
 2763              		.loc 1 123 22 view .LVU940
 2764              	.LBB707:
 2765              		.loc 1 138 5 view .LVU941
 2766              		.loc 1 138 12 is_stmt 0 view .LVU942
 2767 0110 D8F83430 		ldr	r3, [r8, #52]
 2768 0114 1868     		ldr	r0, [r3]
 2769 0116 4268     		ldr	r2, [r0, #4]
 2770              	.LVL152:
 2771              		.loc 1 138 12 view .LVU943
 2772              	.LBE707:
 2773              	.LBE709:
 2774              		.loc 1 297 3 is_stmt 1 view .LVU944
 2775              		.loc 1 297 6 is_stmt 0 view .LVU945
 2776 0118 FF2A     		cmp	r2, #255
 2777 011a B6D9     		bls	.L141
 2778              	.L130:
 2779              		.loc 1 297 6 view .LVU946
 2780 011c 4FF47F02 		mov	r2, #16711680
 2781              	.LVL153:
 2782              		.loc 1 299 12 view .LVU947
 2783 0120 4FF08077 		mov	r7, #16777216
 2784 0124 B3E7     		b	.L126
 2785              	.L143:
 2786 0126 00BF     		.align	2
 2787              	.L142:
 2788 0128 FFFF00FE 		.word	-33488897
 2789              	.LBE712:
 2790              	.LBE735:
 2791              		.cfi_endproc
 2792              	.LFE466:
 2793              		.size	i2c_lld_master_transmit_timeout, .-i2c_lld_master_transmit_timeout
ARM GAS  C:\Users\DEVELO~1\AppData\Local\Temp\cczpfvaV.s 			page 50


 2794              		.global	I2CD3
 2795              		.section	.bss.I2CD3,"aw",%nobits
 2796              		.align	2
 2797              		.set	.LANCHOR0,. + 0
 2798              		.type	I2CD3, %object
 2799              		.size	I2CD3, 60
 2800              	I2CD3:
 2801 0000 00000000 		.space	60
 2801      00000000 
 2801      00000000 
 2801      00000000 
 2801      00000000 
 2802              		.section	.rodata.__func__.0,"a"
 2803              		.align	2
 2804              		.set	.LANCHOR2,. + 0
 2805              		.type	__func__.0, %object
 2806              		.size	__func__.0, 10
 2807              	__func__.0:
 2808 0000 56656374 		.ascii	"Vector164\000"
 2808      6F723136 
 2808      3400
 2809              		.section	.rodata.__func__.1,"a"
 2810              		.align	2
 2811              		.set	.LANCHOR1,. + 0
 2812              		.type	__func__.1, %object
 2813              		.size	__func__.1, 10
 2814              	__func__.1:
 2815 0000 56656374 		.ascii	"Vector160\000"
 2815      6F723136 
 2815      3000
 2816              		.text
 2817              	.Letext0:
 2818              		.file 10 "c:\\chibistudio\\tools\\gnu tools arm embedded\\11.3 2022.08\\lib\\gcc\\arm-none-eabi\\1
 2819              		.file 11 "c:\\chibistudio\\tools\\gnu tools arm embedded\\11.3 2022.08\\arm-none-eabi\\include\\ma
 2820              		.file 12 "c:\\chibistudio\\tools\\gnu tools arm embedded\\11.3 2022.08\\arm-none-eabi\\include\\sy
 2821              		.file 13 "./ChibiOS/os/common/ports/ARM-common/include/chtypes.h"
 2822              		.file 14 "./ChibiOS/os/rt/include/chearly.h"
 2823              		.file 15 "./ChibiOS/os/rt/include/chobjects.h"
 2824              		.file 16 "./ChibiOS/os/rt/include/chrfcu.h"
 2825              		.file 17 "./ChibiOS/os/rt/include/chdebug.h"
 2826              		.file 18 "./ChibiOS/os/rt/include/chtrace.h"
 2827              		.file 19 "./ChibiOS/os/common/ext/ST/STM32H7xx/stm32h743xx.h"
 2828              		.file 20 "./ChibiOS/os/rt/include/chlists.h"
 2829              		.file 21 "./ChibiOS/os/rt/include/chsem.h"
 2830              		.file 22 "./ChibiOS/os/rt/include/chmtx.h"
 2831              		.file 23 "./ChibiOS/os/hal/ports/STM32/LLD/DMAv2/stm32_dma.h"
 2832              		.file 24 "./ChibiOS/os/hal/include/hal_i2c.h"
 2833              		.file 25 "./ChibiOS/os/hal/ports/STM32/LLD/I2Cv3/hal_i2c_lld.h"
 2834              		.file 26 "./ChibiOS/os/rt/include/chthreads.h"
 2835              		.file 27 "./ChibiOS/os/hal/ports/common/ARMCMx/nvic.h"
 2836              		.file 28 "./ChibiOS/os/hal/include/hal_st.h"