ARM GAS  C:\Users\DEVELO~1\AppData\Local\Temp\cc0byXRH.s 			page 1


   1              		.cpu cortex-m7
   2              		.arch armv7e-m
   3              		.fpu softvfp
   4              		.eabi_attribute 20, 1
   5              		.eabi_attribute 21, 1
   6              		.eabi_attribute 23, 3
   7              		.eabi_attribute 24, 1
   8              		.eabi_attribute 25, 1
   9              		.eabi_attribute 26, 1
  10              		.eabi_attribute 30, 2
  11              		.eabi_attribute 34, 1
  12              		.eabi_attribute 18, 4
  13              		.file	"hal_usb_lld.c"
  14              		.text
  15              	.Ltext0:
  16              		.cfi_sections	.debug_frame
  17              		.section	.text.otg_disable_ep.isra.0,"ax",%progbits
  18              		.align	1
  19              		.p2align 4,,15
  20              		.syntax unified
  21              		.thumb
  22              		.thumb_func
  23              		.type	otg_disable_ep.isra.0, %function
  24              	otg_disable_ep.isra.0:
  25              	.LFB463:
  26              		.file 1 "../../../os/hal/ports/STM32/LLD/OTGv1/hal_usb_lld.c"
  27              		.loc 1 154 13 view -0
  28              		.cfi_startproc
  29              		@ args = 0, pretend = 0, frame = 0
  30              		@ frame_needed = 0, uses_anonymous_args = 0
  31              		@ link register save eliminated.
  32              	.LVL0:
  33              		.loc 1 158 17 view .LVU1
  34              		.loc 1 154 13 is_stmt 0 view .LVU2
  35 0000 70B4     		push	{r4, r5, r6}
  36              		.cfi_def_cfa_offset 12
  37              		.cfi_offset 4, -12
  38              		.cfi_offset 5, -8
  39              		.cfi_offset 6, -4
  40              		.loc 1 158 10 view .LVU3
  41 0002 0022     		movs	r2, #0
  42              		.loc 1 168 25 view .LVU4
  43 0004 4FF0FF34 		mov	r4, #-1
  44              		.loc 1 158 35 view .LVU5
  45 0008 8E68     		ldr	r6, [r1, #8]
  46              	.LVL1:
  47              	.L4:
  48              		.loc 1 160 5 is_stmt 1 view .LVU6
  49              		.loc 1 161 7 view .LVU7
  50              		.loc 1 164 5 view .LVU8
  51              		.loc 1 165 7 view .LVU9
  52              		.loc 1 168 5 view .LVU10
  53 000a 00EB4211 		add	r1, r0, r2, lsl #5
  54              		.loc 1 158 53 is_stmt 0 view .LVU11
  55 000e 02F1010C 		add	ip, r2, #1
  56              		.loc 1 160 21 view .LVU12
  57 0012 D1F80059 		ldr	r5, [r1, #2304]
ARM GAS  C:\Users\DEVELO~1\AppData\Local\Temp\cc0byXRH.s 			page 2


  58              		.loc 1 168 25 view .LVU13
  59 0016 0B46     		mov	r3, r1
  60              		.loc 1 160 8 view .LVU14
  61 0018 002D     		cmp	r5, #0
  62 001a 05DA     		bge	.L2
  63              		.loc 1 161 27 view .LVU15
  64 001c D1F80059 		ldr	r5, [r1, #2304]
  65 0020 45F08045 		orr	r5, r5, #1073741824
  66 0024 C1F80059 		str	r5, [r1, #2304]
  67              	.L2:
  68              		.loc 1 164 21 view .LVU16
  69 0028 D1F8005B 		ldr	r5, [r1, #2816]
  70              		.loc 1 164 8 view .LVU17
  71 002c 002D     		cmp	r5, #0
  72 002e 05DA     		bge	.L3
  73              		.loc 1 165 27 view .LVU18
  74 0030 D1F8005B 		ldr	r5, [r1, #2816]
  75 0034 45F08045 		orr	r5, r5, #1073741824
  76 0038 C1F8005B 		str	r5, [r1, #2816]
  77              	.L3:
  78              		.loc 1 158 17 view .LVU19
  79 003c B242     		cmp	r2, r6
  80              		.loc 1 168 25 view .LVU20
  81 003e C3F80849 		str	r4, [r3, #2312]
  82              		.loc 1 169 5 is_stmt 1 view .LVU21
  83 0042 6246     		mov	r2, ip
  84              	.LVL2:
  85              		.loc 1 169 25 is_stmt 0 view .LVU22
  86 0044 C3F8084B 		str	r4, [r3, #2824]
  87              		.loc 1 158 53 is_stmt 1 view .LVU23
  88              	.LVL3:
  89              		.loc 1 158 17 view .LVU24
  90 0048 DFD1     		bne	.L4
  91              		.loc 1 171 3 view .LVU25
  92              		.loc 1 171 18 is_stmt 0 view .LVU26
  93 004a 4FF00113 		mov	r3, #65537
  94              		.loc 1 172 1 view .LVU27
  95 004e 70BC     		pop	{r4, r5, r6}
  96              		.cfi_restore 6
  97              		.cfi_restore 5
  98              		.cfi_restore 4
  99              		.cfi_def_cfa_offset 0
 100              		.loc 1 171 18 view .LVU28
 101 0050 C0F81C38 		str	r3, [r0, #2076]
 102              		.loc 1 172 1 view .LVU29
 103 0054 7047     		bx	lr
 104              		.cfi_endproc
 105              	.LFE463:
 106              		.size	otg_disable_ep.isra.0, .-otg_disable_ep.isra.0
 107 0056 00BF     		.section	.text.usb_lld_init,"ax",%progbits
 108              		.align	1
 109              		.p2align 4,,15
 110              		.global	usb_lld_init
 111              		.syntax unified
 112              		.thumb
 113              		.thumb_func
 114              		.type	usb_lld_init, %function
ARM GAS  C:\Users\DEVELO~1\AppData\Local\Temp\cc0byXRH.s 			page 3


 115              	usb_lld_init:
 116              	.LFB447:
 117              		.loc 1 715 25 is_stmt 1 view -0
 118              		.cfi_startproc
 119              		@ args = 0, pretend = 0, frame = 0
 120              		@ frame_needed = 0, uses_anonymous_args = 0
 121              		.loc 1 719 3 view .LVU31
 122              		.loc 1 715 25 is_stmt 0 view .LVU32
 123 0000 10B5     		push	{r4, lr}
 124              		.cfi_def_cfa_offset 8
 125              		.cfi_offset 4, -8
 126              		.cfi_offset 14, -4
 127              		.loc 1 719 3 view .LVU33
 128 0002 044C     		ldr	r4, .L10
 129 0004 2046     		mov	r0, r4
 130 0006 FFF7FEFF 		bl	usbObjectInit
 131              	.LVL4:
 132              		.loc 1 720 3 is_stmt 1 view .LVU34
 133              		.loc 1 720 19 is_stmt 0 view .LVU35
 134 000a 034A     		ldr	r2, .L10+4
 135              		.loc 1 721 19 view .LVU36
 136 000c 034B     		ldr	r3, .L10+8
 137 000e C4E92423 		strd	r2, r3, [r4, #144]
 138              		.loc 1 730 1 view .LVU37
 139 0012 10BD     		pop	{r4, pc}
 140              	.L11:
 141              		.align	2
 142              	.L10:
 143 0014 00000000 		.word	.LANCHOR0
 144 0018 00000840 		.word	1074266112
 145 001c 00000000 		.word	.LANCHOR1
 146              		.cfi_endproc
 147              	.LFE447:
 148              		.size	usb_lld_init, .-usb_lld_init
 149              		.section	.text.usb_lld_start,"ax",%progbits
 150              		.align	1
 151              		.p2align 4,,15
 152              		.global	usb_lld_start
 153              		.syntax unified
 154              		.thumb
 155              		.thumb_func
 156              		.type	usb_lld_start, %function
 157              	usb_lld_start:
 158              	.LVL5:
 159              	.LFB448:
 160              		.loc 1 742 37 is_stmt 1 view -0
 161              		.cfi_startproc
 162              		@ args = 0, pretend = 0, frame = 0
 163              		@ frame_needed = 0, uses_anonymous_args = 0
 164              		.loc 1 743 3 view .LVU39
 165              		.loc 1 745 3 view .LVU40
 166              		.loc 1 745 6 is_stmt 0 view .LVU41
 167 0000 0378     		ldrb	r3, [r0]	@ zero_extendqisi2
 168 0002 012B     		cmp	r3, #1
 169 0004 00D0     		beq	.L28
 170 0006 7047     		bx	lr
 171              	.L28:
ARM GAS  C:\Users\DEVELO~1\AppData\Local\Temp\cc0byXRH.s 			page 4


 172              		.loc 1 749 8 view .LVU42
 173 0008 324B     		ldr	r3, .L31
 174 000a 9842     		cmp	r0, r3
 175              		.loc 1 742 37 view .LVU43
 176 000c 70B5     		push	{r4, r5, r6, lr}
 177              		.cfi_def_cfa_offset 16
 178              		.cfi_offset 4, -16
 179              		.cfi_offset 5, -12
 180              		.cfi_offset 6, -8
 181              		.cfi_offset 14, -4
 182 000e 0546     		mov	r5, r0
 183              		.loc 1 743 16 view .LVU44
 184 0010 D0F89060 		ldr	r6, [r0, #144]
 185              		.loc 1 749 5 is_stmt 1 view .LVU45
 186              		.loc 1 749 8 is_stmt 0 view .LVU46
 187 0014 35D0     		beq	.L29
 188              		.loc 1 743 16 view .LVU47
 189 0016 3446     		mov	r4, r6
 190              	.LVL6:
 191              	.L14:
 192              		.loc 1 814 5 is_stmt 1 view .LVU48
 193              		.loc 1 817 19 is_stmt 0 view .LVU49
 194 0018 C023     		movs	r3, #192
 195              		.loc 1 814 19 view .LVU50
 196 001a 0022     		movs	r2, #0
 197 001c C6F8002E 		str	r2, [r6, #3584]
 198              		.loc 1 817 5 is_stmt 1 view .LVU51
 199              		.loc 1 817 19 is_stmt 0 view .LVU52
 200 0020 3360     		str	r3, [r6]
 201              		.loc 1 832 5 is_stmt 1 view .LVU53
 202              		.loc 1 832 17 is_stmt 0 view .LVU54
 203 0022 4FF40413 		mov	r3, #2162688
 204 0026 B363     		str	r3, [r6, #56]
 205              		.loc 1 836 5 is_stmt 1 view .LVU55
 206              	.LBB110:
 207              	.LBI110:
 208              		.loc 1 134 13 view .LVU56
 209              	.LVL7:
 210              	.LBB111:
 211              		.loc 1 135 3 view .LVU57
 212              		.loc 1 138 3 view .LVU58
 213              	.L15:
 214              		.loc 1 138 43 view .LVU59
 215              		.loc 1 138 15 is_stmt 0 view .LVU60
 216 0028 2369     		ldr	r3, [r4, #16]
 217              		.loc 1 138 43 view .LVU61
 218 002a 002B     		cmp	r3, #0
 219 002c FCDA     		bge	.L15
 220              		.loc 1 142 3 is_stmt 1 view .LVU62
 221              		.loc 1 142 17 is_stmt 0 view .LVU63
 222 002e 0123     		movs	r3, #1
 223              	.LBB112:
 224              	.LBB113:
 225              		.file 2 "../../../os/hal/osal/rt-nil/osal.h"
 226              		.loc 2 655 3 view .LVU64
 227 0030 0C20     		movs	r0, #12
 228              	.LBE113:
ARM GAS  C:\Users\DEVELO~1\AppData\Local\Temp\cc0byXRH.s 			page 5


 229              	.LBE112:
 230              		.loc 1 142 17 view .LVU65
 231 0032 2361     		str	r3, [r4, #16]
 232              		.loc 1 143 3 is_stmt 1 view .LVU66
 233              	.LVL8:
 234              	.LBB115:
 235              	.LBI112:
 236              		.loc 2 653 20 view .LVU67
 237              	.LBB114:
 238              		.loc 2 655 3 view .LVU68
 239 0034 FFF7FEFF 		bl	chSysPolledDelayX
 240              	.LVL9:
 241              	.L16:
 242              		.loc 2 655 3 is_stmt 0 view .LVU69
 243              	.LBE114:
 244              	.LBE115:
 245              		.loc 1 144 42 is_stmt 1 view .LVU70
 246              		.loc 1 144 15 is_stmt 0 view .LVU71
 247 0038 2369     		ldr	r3, [r4, #16]
 248              		.loc 1 144 42 view .LVU72
 249 003a DB07     		lsls	r3, r3, #31
 250 003c FCD4     		bmi	.L16
 251              		.loc 1 147 3 is_stmt 1 view .LVU73
 252              	.LVL10:
 253              	.LBB116:
 254              	.LBI116:
 255              		.loc 2 653 20 view .LVU74
 256              	.LBB117:
 257              		.loc 2 655 3 view .LVU75
 258 003e 1220     		movs	r0, #18
 259 0040 FFF7FEFF 		bl	chSysPolledDelayX
 260              	.LVL11:
 261              	.L17:
 262              		.loc 2 655 3 is_stmt 0 view .LVU76
 263              	.LBE117:
 264              	.LBE116:
 265              		.loc 1 150 43 is_stmt 1 view .LVU77
 266              		.loc 1 150 15 is_stmt 0 view .LVU78
 267 0044 2369     		ldr	r3, [r4, #16]
 268              		.loc 1 150 43 view .LVU79
 269 0046 002B     		cmp	r3, #0
 270 0048 FCDA     		bge	.L17
 271              	.LVL12:
 272              		.loc 1 150 43 view .LVU80
 273              	.LBE111:
 274              	.LBE110:
 275              		.loc 1 839 5 is_stmt 1 view .LVU81
 276              		.loc 1 839 19 is_stmt 0 view .LVU82
 277 004a 0024     		movs	r4, #0
 278              		.loc 1 842 5 view .LVU83
 279 004c D5E92401 		ldrd	r0, r1, [r5, #144]
 280              		.loc 1 839 19 view .LVU84
 281 0050 B460     		str	r4, [r6, #8]
 282              		.loc 1 842 5 is_stmt 1 view .LVU85
 283 0052 FFF7FEFF 		bl	otg_disable_ep.isra.0
 284              	.LVL13:
 285              		.loc 1 846 5 view .LVU86
ARM GAS  C:\Users\DEVELO~1\AppData\Local\Temp\cc0byXRH.s 			page 6


 286              		.loc 1 849 21 is_stmt 0 view .LVU87
 287 0056 6B68     		ldr	r3, [r5, #4]
 288              		.loc 1 846 20 view .LVU88
 289 0058 C6F81048 		str	r4, [r6, #2064]
 290              		.loc 1 847 5 is_stmt 1 view .LVU89
 291              		.loc 1 849 8 is_stmt 0 view .LVU90
 292 005c DB68     		ldr	r3, [r3, #12]
 293              		.loc 1 847 20 view .LVU91
 294 005e C6F81448 		str	r4, [r6, #2068]
 295              		.loc 1 848 5 is_stmt 1 view .LVU92
 296              		.loc 1 848 20 is_stmt 0 view .LVU93
 297 0062 C6F81C48 		str	r4, [r6, #2076]
 298              		.loc 1 849 5 is_stmt 1 view .LVU94
 299              		.loc 1 849 8 is_stmt 0 view .LVU95
 300 0066 4BB1     		cbz	r3, .L30
 301              		.loc 1 854 7 is_stmt 1 view .LVU96
 302              		.loc 1 854 22 is_stmt 0 view .LVU97
 303 0068 1B4B     		ldr	r3, .L31+4
 304 006a B361     		str	r3, [r6, #24]
 305              	.L19:
 306              		.loc 1 860 5 is_stmt 1 view .LVU98
 307              		.loc 1 860 20 is_stmt 0 view .LVU99
 308 006c 4FF0FF33 		mov	r3, #-1
 309 0070 7361     		str	r3, [r6, #20]
 310              		.loc 1 863 5 is_stmt 1 view .LVU100
 311              		.loc 1 863 19 is_stmt 0 view .LVU101
 312 0072 B368     		ldr	r3, [r6, #8]
 313 0074 43F00103 		orr	r3, r3, #1
 314 0078 B360     		str	r3, [r6, #8]
 315              		.loc 1 865 1 view .LVU102
 316 007a 70BD     		pop	{r4, r5, r6, pc}
 317              	.LVL14:
 318              	.L30:
 319              		.loc 1 850 7 is_stmt 1 view .LVU103
 320              		.loc 1 850 22 is_stmt 0 view .LVU104
 321 007c 174B     		ldr	r3, .L31+8
 322 007e B361     		str	r3, [r6, #24]
 323 0080 F4E7     		b	.L19
 324              	.LVL15:
 325              	.L29:
 326              		.loc 1 751 7 is_stmt 1 view .LVU105
 327              	.LBB118:
 328              	.LBI118:
 329              		.file 3 "../../../os/hal/ports/STM32/STM32H7xx/stm32_rcc.h"
 330              		.loc 3 586 22 view .LVU106
 331              	.LBB119:
 332              		.loc 3 590 3 view .LVU107
 333              		.loc 3 590 19 is_stmt 0 view .LVU108
 334 0082 174B     		ldr	r3, .L31+12
 335              	.LBE119:
 336              	.LBE118:
 337              		.loc 1 755 7 view .LVU109
 338 0084 0E21     		movs	r1, #14
 339 0086 6520     		movs	r0, #101
 340              	.LVL16:
 341              	.LBB121:
 342              	.LBB120:
ARM GAS  C:\Users\DEVELO~1\AppData\Local\Temp\cc0byXRH.s 			page 7


 343              		.loc 3 590 19 view .LVU110
 344 0088 D3F8D820 		ldr	r2, [r3, #216]
 345 008c 42F00062 		orr	r2, r2, #134217728
 346 0090 C3F8D820 		str	r2, [r3, #216]
 347              		.loc 3 591 3 is_stmt 1 view .LVU111
 348              		.loc 3 592 5 view .LVU112
 349              		.loc 3 592 23 is_stmt 0 view .LVU113
 350 0094 D3F80021 		ldr	r2, [r3, #256]
 351 0098 42F00062 		orr	r2, r2, #134217728
 352 009c C3F80021 		str	r2, [r3, #256]
 353              		.loc 3 597 3 is_stmt 1 view .LVU114
 354 00a0 D3F80021 		ldr	r2, [r3, #256]
 355              	.LVL17:
 356              		.loc 3 597 3 is_stmt 0 view .LVU115
 357              	.LBE120:
 358              	.LBE121:
 359              		.loc 1 752 7 is_stmt 1 view .LVU116
 360              	.LBB122:
 361              	.LBI122:
 362              		.loc 3 652 22 view .LVU117
 363              		.loc 3 664 3 view .LVU118
 364              	.LBB123:
 365              	.LBI123:
 366              		.loc 3 97 22 view .LVU119
 367              	.LBB124:
 368              		.loc 3 100 3 view .LVU120
 369              		.loc 3 100 17 is_stmt 0 view .LVU121
 370 00a4 D3F88020 		ldr	r2, [r3, #128]
 371 00a8 42F00062 		orr	r2, r2, #134217728
 372 00ac C3F88020 		str	r2, [r3, #128]
 373              		.loc 3 101 3 is_stmt 1 view .LVU122
 374              		.loc 3 101 17 is_stmt 0 view .LVU123
 375 00b0 D3F88020 		ldr	r2, [r3, #128]
 376 00b4 22F00062 		bic	r2, r2, #134217728
 377 00b8 C3F88020 		str	r2, [r3, #128]
 378              		.loc 3 102 3 is_stmt 1 view .LVU124
 379 00bc D3F88030 		ldr	r3, [r3, #128]
 380              	.LVL18:
 381              		.loc 3 102 3 is_stmt 0 view .LVU125
 382              	.LBE124:
 383              	.LBE123:
 384              	.LBE122:
 385              		.loc 1 755 7 is_stmt 1 view .LVU126
 386 00c0 FFF7FEFF 		bl	nvicEnableVector
 387              	.LVL19:
 388              		.loc 1 760 7 view .LVU127
 389              		.loc 1 760 21 is_stmt 0 view .LVU128
 390 00c4 074A     		ldr	r2, .L31+16
 391              		.loc 1 764 18 view .LVU129
 392 00c6 084B     		ldr	r3, .L31+20
 393 00c8 D5F89040 		ldr	r4, [r5, #144]
 394              		.loc 1 760 21 view .LVU130
 395 00cc F260     		str	r2, [r6, #12]
 396              		.loc 1 764 7 is_stmt 1 view .LVU131
 397              		.loc 1 764 18 is_stmt 0 view .LVU132
 398 00ce C6F80038 		str	r3, [r6, #2048]
 399 00d2 A1E7     		b	.L14
ARM GAS  C:\Users\DEVELO~1\AppData\Local\Temp\cc0byXRH.s 			page 8


 400              	.L32:
 401              		.align	2
 402              	.L31:
 403 00d4 00000000 		.word	.LANCHOR0
 404 00d8 083C30C0 		.word	-1070580728
 405 00dc 003C30C0 		.word	-1070580736
 406 00e0 00440258 		.word	1476543488
 407 00e4 40140040 		.word	1073747008
 408 00e8 03002002 		.word	35651587
 409              		.cfi_endproc
 410              	.LFE448:
 411              		.size	usb_lld_start, .-usb_lld_start
 412              		.section	.text.usb_lld_stop,"ax",%progbits
 413              		.align	1
 414              		.p2align 4,,15
 415              		.global	usb_lld_stop
 416              		.syntax unified
 417              		.thumb
 418              		.thumb_func
 419              		.type	usb_lld_stop, %function
 420              	usb_lld_stop:
 421              	.LVL20:
 422              	.LFB449:
 423              		.loc 1 874 36 is_stmt 1 view -0
 424              		.cfi_startproc
 425              		@ args = 0, pretend = 0, frame = 0
 426              		@ frame_needed = 0, uses_anonymous_args = 0
 427              		.loc 1 875 3 view .LVU134
 428              		.loc 1 874 36 is_stmt 0 view .LVU135
 429 0000 10B5     		push	{r4, lr}
 430              		.cfi_def_cfa_offset 8
 431              		.cfi_offset 4, -8
 432              		.cfi_offset 14, -4
 433              		.loc 1 878 6 view .LVU136
 434 0002 0378     		ldrb	r3, [r0]	@ zero_extendqisi2
 435              		.loc 1 874 36 view .LVU137
 436 0004 0446     		mov	r4, r0
 437              		.loc 1 875 16 view .LVU138
 438 0006 D0F89000 		ldr	r0, [r0, #144]
 439              	.LVL21:
 440              		.loc 1 878 3 is_stmt 1 view .LVU139
 441              		.loc 1 878 6 is_stmt 0 view .LVU140
 442 000a 012B     		cmp	r3, #1
 443 000c 00D1     		bne	.L38
 444              	.L33:
 445              		.loc 1 905 1 view .LVU141
 446 000e 10BD     		pop	{r4, pc}
 447              	.LVL22:
 448              	.L38:
 449              		.loc 1 882 5 is_stmt 1 view .LVU142
 450 0010 D4F89410 		ldr	r1, [r4, #148]
 451 0014 FFF7FEFF 		bl	otg_disable_ep.isra.0
 452              	.LVL23:
 453              		.loc 1 884 5 view .LVU143
 454              		.loc 1 889 8 is_stmt 0 view .LVU144
 455 0018 0D4A     		ldr	r2, .L39
 456              		.loc 1 884 22 view .LVU145
ARM GAS  C:\Users\DEVELO~1\AppData\Local\Temp\cc0byXRH.s 			page 9


 457 001a 0023     		movs	r3, #0
 458              		.loc 1 889 8 view .LVU146
 459 001c 9442     		cmp	r4, r2
 460              		.loc 1 884 22 view .LVU147
 461 001e C0F81C38 		str	r3, [r0, #2076]
 462              		.loc 1 885 5 is_stmt 1 view .LVU148
 463              		.loc 1 885 22 is_stmt 0 view .LVU149
 464 0022 8360     		str	r3, [r0, #8]
 465              		.loc 1 886 5 is_stmt 1 view .LVU150
 466              		.loc 1 886 22 is_stmt 0 view .LVU151
 467 0024 8363     		str	r3, [r0, #56]
 468              		.loc 1 889 5 is_stmt 1 view .LVU152
 469              		.loc 1 889 8 is_stmt 0 view .LVU153
 470 0026 F2D1     		bne	.L33
 471              		.loc 1 890 7 is_stmt 1 view .LVU154
 472 0028 6520     		movs	r0, #101
 473              	.LVL24:
 474              		.loc 1 890 7 is_stmt 0 view .LVU155
 475 002a FFF7FEFF 		bl	nvicDisableVector
 476              	.LVL25:
 477              		.loc 1 891 7 is_stmt 1 view .LVU156
 478              	.LBB125:
 479              	.LBI125:
 480              		.loc 3 618 22 view .LVU157
 481              	.LBB126:
 482              		.loc 3 628 3 view .LVU158
 483              		.loc 3 628 19 is_stmt 0 view .LVU159
 484 002e 094B     		ldr	r3, .L39+4
 485 0030 D3F8D820 		ldr	r2, [r3, #216]
 486 0034 22F00062 		bic	r2, r2, #134217728
 487 0038 C3F8D820 		str	r2, [r3, #216]
 488              		.loc 3 629 3 is_stmt 1 view .LVU160
 489              		.loc 3 629 21 is_stmt 0 view .LVU161
 490 003c D3F80021 		ldr	r2, [r3, #256]
 491 0040 22F00062 		bic	r2, r2, #134217728
 492 0044 C3F80021 		str	r2, [r3, #256]
 493              		.loc 3 630 3 is_stmt 1 view .LVU162
 494 0048 D3F80031 		ldr	r3, [r3, #256]
 495              	.LVL26:
 496              		.loc 3 630 3 is_stmt 0 view .LVU163
 497              	.LBE126:
 498              	.LBE125:
 499              		.loc 1 905 1 view .LVU164
 500 004c 10BD     		pop	{r4, pc}
 501              	.LVL27:
 502              	.L40:
 503              		.loc 1 905 1 view .LVU165
 504 004e 00BF     		.align	2
 505              	.L39:
 506 0050 00000000 		.word	.LANCHOR0
 507 0054 00440258 		.word	1476543488
 508              		.cfi_endproc
 509              	.LFE449:
 510              		.size	usb_lld_stop, .-usb_lld_stop
 511              		.section	.text.usb_lld_reset,"ax",%progbits
 512              		.align	1
 513              		.p2align 4,,15
ARM GAS  C:\Users\DEVELO~1\AppData\Local\Temp\cc0byXRH.s 			page 10


 514              		.global	usb_lld_reset
 515              		.syntax unified
 516              		.thumb
 517              		.thumb_func
 518              		.type	usb_lld_reset, %function
 519              	usb_lld_reset:
 520              	.LVL28:
 521              	.LFB450:
 522              		.loc 1 914 37 is_stmt 1 view -0
 523              		.cfi_startproc
 524              		@ args = 0, pretend = 0, frame = 0
 525              		@ frame_needed = 0, uses_anonymous_args = 0
 526              		.loc 1 915 3 view .LVU167
 527              		.loc 1 916 3 view .LVU168
 528              		.loc 1 914 37 is_stmt 0 view .LVU169
 529 0000 F8B5     		push	{r3, r4, r5, r6, r7, lr}
 530              		.cfi_def_cfa_offset 24
 531              		.cfi_offset 3, -24
 532              		.cfi_offset 4, -20
 533              		.cfi_offset 5, -16
 534              		.cfi_offset 6, -12
 535              		.cfi_offset 7, -8
 536              		.cfi_offset 14, -4
 537              	.LBB143:
 538              	.LBB144:
 539              		.loc 1 187 17 view .LVU170
 540 0002 2023     		movs	r3, #32
 541              	.LBE144:
 542              	.LBE143:
 543              		.loc 1 916 16 view .LVU171
 544 0004 D0F89050 		ldr	r5, [r0, #144]
 545              	.LVL29:
 546              		.loc 1 919 3 is_stmt 1 view .LVU172
 547              		.loc 1 914 37 is_stmt 0 view .LVU173
 548 0008 0746     		mov	r7, r0
 549              	.LVL30:
 550              	.LBB151:
 551              	.LBI143:
 552              		.loc 1 184 13 is_stmt 1 view .LVU174
 553              	.LBB149:
 554              		.loc 1 185 3 view .LVU175
 555              		.loc 1 187 3 view .LVU176
 556              		.loc 1 187 17 is_stmt 0 view .LVU177
 557 000a 2B61     		str	r3, [r5, #16]
 558              		.loc 1 188 3 is_stmt 1 view .LVU178
 559              	.L42:
 560              		.loc 1 188 44 view .LVU179
 561              		.loc 1 188 15 is_stmt 0 view .LVU180
 562 000c 2C69     		ldr	r4, [r5, #16]
 563              		.loc 1 188 44 view .LVU181
 564 000e 14F02004 		ands	r4, r4, #32
 565 0012 FBD1     		bne	.L42
 566              		.loc 1 191 3 is_stmt 1 view .LVU182
 567              	.LVL31:
 568              	.LBB145:
 569              	.LBI145:
 570              		.loc 2 653 20 view .LVU183
ARM GAS  C:\Users\DEVELO~1\AppData\Local\Temp\cc0byXRH.s 			page 11


 571              	.LBB146:
 572              		.loc 2 655 3 view .LVU184
 573 0014 1220     		movs	r0, #18
 574              	.LVL32:
 575              		.loc 2 655 3 is_stmt 0 view .LVU185
 576              	.LBE146:
 577              	.LBE145:
 578              	.LBE149:
 579              	.LBE151:
 580              		.loc 1 927 25 view .LVU186
 581 0016 4FF00066 		mov	r6, #134217728
 582              	.LBB152:
 583              	.LBB150:
 584              	.LBB148:
 585              	.LBB147:
 586              		.loc 2 655 3 view .LVU187
 587 001a FFF7FEFF 		bl	chSysPolledDelayX
 588              	.LVL33:
 589              		.loc 2 655 3 view .LVU188
 590              	.LBE147:
 591              	.LBE148:
 592              	.LBE150:
 593              	.LBE152:
 594              		.loc 1 922 3 is_stmt 1 view .LVU189
 595              		.loc 1 926 24 is_stmt 0 view .LVU190
 596 001e D7F894C0 		ldr	ip, [r7, #148]
 597              		.loc 1 923 20 view .LVU191
 598 0022 4FF00113 		mov	r3, #65537
 599              		.loc 1 929 25 view .LVU192
 600 0026 4FF0FF31 		mov	r1, #-1
 601              		.loc 1 926 35 view .LVU193
 602 002a DCF80800 		ldr	r0, [ip, #8]
 603              		.loc 1 922 20 view .LVU194
 604 002e C5F83448 		str	r4, [r5, #2100]
 605              		.loc 1 923 3 is_stmt 1 view .LVU195
 606              		.loc 1 923 20 is_stmt 0 view .LVU196
 607 0032 C5F81C38 		str	r3, [r5, #2076]
 608              		.loc 1 926 3 is_stmt 1 view .LVU197
 609              	.LVL34:
 610              		.loc 1 926 17 view .LVU198
 611              	.L43:
 612              		.loc 1 927 5 discriminator 3 view .LVU199
 613 0036 05EB4413 		add	r3, r5, r4, lsl #5
 614              		.loc 1 926 17 is_stmt 0 discriminator 3 view .LVU200
 615 003a 8442     		cmp	r4, r0
 616 003c 04F10104 		add	r4, r4, #1
 617              	.LVL35:
 618              		.loc 1 927 25 discriminator 3 view .LVU201
 619 0040 C3F80069 		str	r6, [r3, #2304]
 620              		.loc 1 928 5 is_stmt 1 discriminator 3 view .LVU202
 621              		.loc 1 928 25 is_stmt 0 discriminator 3 view .LVU203
 622 0044 C3F8006B 		str	r6, [r3, #2816]
 623              		.loc 1 929 5 is_stmt 1 discriminator 3 view .LVU204
 624              		.loc 1 929 25 is_stmt 0 discriminator 3 view .LVU205
 625 0048 C3F80819 		str	r1, [r3, #2312]
 626              		.loc 1 930 5 is_stmt 1 discriminator 3 view .LVU206
 627              		.loc 1 930 25 is_stmt 0 discriminator 3 view .LVU207
ARM GAS  C:\Users\DEVELO~1\AppData\Local\Temp\cc0byXRH.s 			page 12


 628 004c C3F8081B 		str	r1, [r3, #2824]
 629              		.loc 1 926 53 is_stmt 1 discriminator 3 view .LVU208
 630              	.LVL36:
 631              		.loc 1 926 17 discriminator 3 view .LVU209
 632 0050 F1D1     		bne	.L43
 633              		.loc 1 934 3 view .LVU210
 634              	.LVL37:
 635              	.LBB153:
 636              	.LBI153:
 637              		.loc 1 201 13 view .LVU211
 638              	.LBB154:
 639              		.loc 1 203 3 view .LVU212
 640              		.loc 1 203 33 is_stmt 0 view .LVU213
 641 0052 DCF80030 		ldr	r3, [ip]
 642              	.LBE154:
 643              	.LBE153:
 644              	.LBB156:
 645              	.LBB157:
 646              		.loc 1 177 17 view .LVU214
 647 0056 1021     		movs	r1, #16
 648 0058 D7F89020 		ldr	r2, [r7, #144]
 649              	.LBE157:
 650              	.LBE156:
 651              	.LBB161:
 652              	.LBB155:
 653              		.loc 1 203 16 view .LVU215
 654 005c C7F89830 		str	r3, [r7, #152]
 655              	.LVL38:
 656              		.loc 1 203 16 view .LVU216
 657              	.LBE155:
 658              	.LBE161:
 659              		.loc 1 937 3 is_stmt 1 view .LVU217
 660              		.loc 1 937 17 is_stmt 0 view .LVU218
 661 0060 6B62     		str	r3, [r5, #36]
 662              		.loc 1 938 3 is_stmt 1 view .LVU219
 663              	.LBB162:
 664              	.LBI156:
 665              		.loc 1 174 13 view .LVU220
 666              	.LVL39:
 667              	.LBB160:
 668              		.loc 1 175 3 view .LVU221
 669              		.loc 1 177 3 view .LVU222
 670              		.loc 1 177 17 is_stmt 0 view .LVU223
 671 0062 1161     		str	r1, [r2, #16]
 672              		.loc 1 178 3 is_stmt 1 view .LVU224
 673              	.L44:
 674              		.loc 1 178 44 view .LVU225
 675              		.loc 1 178 15 is_stmt 0 view .LVU226
 676 0064 1469     		ldr	r4, [r2, #16]
 677              		.loc 1 178 44 view .LVU227
 678 0066 14F01004 		ands	r4, r4, #16
 679 006a FBD1     		bne	.L44
 680              		.loc 1 181 3 is_stmt 1 view .LVU228
 681              	.LVL40:
 682              	.LBB158:
 683              	.LBI158:
 684              		.loc 2 653 20 view .LVU229
ARM GAS  C:\Users\DEVELO~1\AppData\Local\Temp\cc0byXRH.s 			page 13


 685              	.LBB159:
 686              		.loc 2 655 3 view .LVU230
 687 006c 1220     		movs	r0, #18
 688 006e FFF7FEFF 		bl	chSysPolledDelayX
 689              	.LVL41:
 690              		.loc 2 655 3 is_stmt 0 view .LVU231
 691              	.LBE159:
 692              	.LBE158:
 693              	.LBE160:
 694              	.LBE162:
 695              		.loc 1 941 3 is_stmt 1 view .LVU232
 696              		.loc 1 941 21 is_stmt 0 view .LVU233
 697 0072 D5F80028 		ldr	r2, [r5, #2048]
 698              		.loc 1 944 18 view .LVU234
 699 0076 124B     		ldr	r3, .L49
 700              		.loc 1 941 46 view .LVU235
 701 0078 22F4FE62 		bic	r2, r2, #2032
 702              		.loc 1 949 16 view .LVU236
 703 007c 1149     		ldr	r1, .L49+4
 704              		.loc 1 941 14 view .LVU237
 705 007e C5F80028 		str	r2, [r5, #2048]
 706              		.loc 1 944 3 is_stmt 1 view .LVU238
 707              		.loc 1 944 18 is_stmt 0 view .LVU239
 708 0082 AA69     		ldr	r2, [r5, #24]
 709 0084 1343     		orrs	r3, r3, r2
 710              		.loc 1 945 19 view .LVU240
 711 0086 0922     		movs	r2, #9
 712              		.loc 1 944 18 view .LVU241
 713 0088 AB61     		str	r3, [r5, #24]
 714              		.loc 1 945 3 is_stmt 1 view .LVU242
 715              		.loc 1 945 19 is_stmt 0 view .LVU243
 716 008a C5F81028 		str	r2, [r5, #2064]
 717              		.loc 1 946 3 is_stmt 1 view .LVU244
 718              	.LBB163:
 719              	.LBB164:
 720              		.loc 1 217 8 is_stmt 0 view .LVU245
 721 008e D7F89830 		ldr	r3, [r7, #152]
 722              	.LBE164:
 723              	.LBE163:
 724              		.loc 1 946 19 view .LVU246
 725 0092 C5F81428 		str	r2, [r5, #2068]
 726              		.loc 1 949 3 is_stmt 1 view .LVU247
 727              		.loc 1 949 16 is_stmt 0 view .LVU248
 728 0096 F960     		str	r1, [r7, #12]
 729              		.loc 1 950 3 is_stmt 1 view .LVU249
 730              		.loc 1 950 24 is_stmt 0 view .LVU250
 731 0098 4FF0C041 		mov	r1, #1610612736
 732              		.loc 1 951 23 view .LVU251
 733 009c 0A4A     		ldr	r2, .L49+8
 734              		.loc 1 950 24 view .LVU252
 735 009e C5F8101B 		str	r1, [r5, #2832]
 736              		.loc 1 951 3 is_stmt 1 view .LVU253
 737              	.LBB167:
 738              	.LBB165:
 739              		.loc 1 218 16 is_stmt 0 view .LVU254
 740 00a2 03F11001 		add	r1, r3, #16
 741              	.LBE165:
ARM GAS  C:\Users\DEVELO~1\AppData\Local\Temp\cc0byXRH.s 			page 14


 742              	.LBE167:
 743              		.loc 1 956 63 view .LVU255
 744 00a6 43F48013 		orr	r3, r3, #1048576
 745              		.loc 1 951 23 view .LVU256
 746 00aa C5F8002B 		str	r2, [r5, #2816]
 747              		.loc 1 953 3 is_stmt 1 view .LVU257
 748              		.loc 1 953 24 is_stmt 0 view .LVU258
 749 00ae C5F81049 		str	r4, [r5, #2320]
 750              		.loc 1 954 3 is_stmt 1 view .LVU259
 751              		.loc 1 954 23 is_stmt 0 view .LVU260
 752 00b2 C5F80029 		str	r2, [r5, #2304]
 753              		.loc 1 956 3 is_stmt 1 view .LVU261
 754              	.LVL42:
 755              	.LBB168:
 756              	.LBI163:
 757              		.loc 1 214 17 view .LVU262
 758              	.LBB166:
 759              		.loc 1 215 3 view .LVU263
 760              		.loc 1 217 3 view .LVU264
 761              		.loc 1 218 3 view .LVU265
 762              		.loc 1 218 16 is_stmt 0 view .LVU266
 763 00b6 C7F89810 		str	r1, [r7, #152]
 764              		.loc 1 219 3 is_stmt 1 view .LVU267
 765              		.loc 1 219 3 view .LVU268
 766              		.loc 1 219 3 view .LVU269
 767              		.loc 1 221 3 view .LVU270
 768              	.LVL43:
 769              		.loc 1 221 3 is_stmt 0 view .LVU271
 770              	.LBE166:
 771              	.LBE168:
 772              		.loc 1 956 18 view .LVU272
 773 00ba AB62     		str	r3, [r5, #40]
 774              		.loc 1 959 1 view .LVU273
 775 00bc F8BD     		pop	{r3, r4, r5, r6, r7, pc}
 776              	.LVL44:
 777              	.L50:
 778              		.loc 1 959 1 view .LVU274
 779 00be 00BF     		.align	2
 780              	.L49:
 781 00c0 10000C00 		.word	786448
 782 00c4 00000000 		.word	.LANCHOR2
 783 00c8 40800010 		.word	268468288
 784              		.cfi_endproc
 785              	.LFE450:
 786              		.size	usb_lld_reset, .-usb_lld_reset
 787              		.section	.text.usb_lld_set_address,"ax",%progbits
 788              		.align	1
 789              		.p2align 4,,15
 790              		.global	usb_lld_set_address
 791              		.syntax unified
 792              		.thumb
 793              		.thumb_func
 794              		.type	usb_lld_set_address, %function
 795              	usb_lld_set_address:
 796              	.LVL45:
 797              	.LFB451:
 798              		.loc 1 968 43 is_stmt 1 view -0
ARM GAS  C:\Users\DEVELO~1\AppData\Local\Temp\cc0byXRH.s 			page 15


 799              		.cfi_startproc
 800              		@ args = 0, pretend = 0, frame = 0
 801              		@ frame_needed = 0, uses_anonymous_args = 0
 802              		@ link register save eliminated.
 803              		.loc 1 969 3 view .LVU276
 804              		.loc 1 969 16 is_stmt 0 view .LVU277
 805 0000 D0F89020 		ldr	r2, [r0, #144]
 806              	.LVL46:
 807              		.loc 1 971 3 is_stmt 1 view .LVU278
 808              		.loc 1 971 48 is_stmt 0 view .LVU279
 809 0004 90F88A10 		ldrb	r1, [r0, #138]	@ zero_extendqisi2
 810              		.loc 1 971 21 view .LVU280
 811 0008 D2F80038 		ldr	r3, [r2, #2048]
 812              		.loc 1 971 28 view .LVU281
 813 000c 23F4FE63 		bic	r3, r3, #2032
 814              		.loc 1 971 46 view .LVU282
 815 0010 43EA0113 		orr	r3, r3, r1, lsl #4
 816              		.loc 1 971 14 view .LVU283
 817 0014 C2F80038 		str	r3, [r2, #2048]
 818              		.loc 1 972 1 view .LVU284
 819 0018 7047     		bx	lr
 820              		.cfi_endproc
 821              	.LFE451:
 822              		.size	usb_lld_set_address, .-usb_lld_set_address
 823 001a 00BF     		.section	.text.usb_lld_init_endpoint,"ax",%progbits
 824              		.align	1
 825              		.p2align 4,,15
 826              		.global	usb_lld_init_endpoint
 827              		.syntax unified
 828              		.thumb
 829              		.thumb_func
 830              		.type	usb_lld_init_endpoint, %function
 831              	usb_lld_init_endpoint:
 832              	.LVL47:
 833              	.LFB452:
 834              		.loc 1 982 57 is_stmt 1 view -0
 835              		.cfi_startproc
 836              		@ args = 0, pretend = 0, frame = 0
 837              		@ frame_needed = 0, uses_anonymous_args = 0
 838              		.loc 1 983 3 view .LVU286
 839              		.loc 1 984 3 view .LVU287
 840              		.loc 1 987 20 is_stmt 0 view .LVU288
 841 0000 00EB8103 		add	r3, r0, r1, lsl #2
 842 0004 DB68     		ldr	r3, [r3, #12]
 843              		.loc 1 987 34 view .LVU289
 844 0006 1A68     		ldr	r2, [r3]
 845 0008 02F00302 		and	r2, r2, #3
 846              		.loc 1 982 57 view .LVU290
 847 000c 2DE9F041 		push	{r4, r5, r6, r7, r8, lr}
 848              		.cfi_def_cfa_offset 24
 849              		.cfi_offset 4, -24
 850              		.cfi_offset 5, -20
 851              		.cfi_offset 6, -16
 852              		.cfi_offset 7, -12
 853              		.cfi_offset 8, -8
 854              		.cfi_offset 14, -4
 855              		.loc 1 982 57 view .LVU291
ARM GAS  C:\Users\DEVELO~1\AppData\Local\Temp\cc0byXRH.s 			page 16


 856 0010 0D46     		mov	r5, r1
 857              		.loc 1 987 20 view .LVU292
 858 0012 0FFA81F8 		sxth	r8, r1
 859 0016 511E     		subs	r1, r2, #1
 860              	.LVL48:
 861              		.loc 1 984 16 view .LVU293
 862 0018 D0F89040 		ldr	r4, [r0, #144]
 863              	.LVL49:
 864              		.loc 1 987 3 is_stmt 1 view .LVU294
 865              		.loc 1 987 34 is_stmt 0 view .LVU295
 866 001c 464F     		ldr	r7, .L65
 867              		.loc 1 982 57 view .LVU296
 868 001e 0646     		mov	r6, r0
 869 0020 0229     		cmp	r1, #2
 870              		.loc 1 1005 25 view .LVU297
 871 0022 4FF00001 		mov	r1, #0
 872 0026 98BF     		it	ls
 873 0028 07EB8247 		addls	r7, r7, r2, lsl #18
 874              	.LVL50:
 875              		.loc 1 1005 3 is_stmt 1 view .LVU298
 876              		.loc 1 1005 25 is_stmt 0 view .LVU299
 877 002c 04EB4512 		add	r2, r4, r5, lsl #5
 878 0030 C2F8101B 		str	r1, [r2, #2832]
 879              		.loc 1 1006 3 is_stmt 1 view .LVU300
 880              		.loc 1 1005 25 is_stmt 0 view .LVU301
 881 0034 6901     		lsls	r1, r5, #5
 882              		.loc 1 1006 6 view .LVU302
 883 0036 9A69     		ldr	r2, [r3, #24]
 884 0038 002A     		cmp	r2, #0
 885 003a 47D0     		beq	.L54
 886              		.loc 1 1007 5 is_stmt 1 view .LVU303
 887              		.loc 1 1007 34 is_stmt 0 view .LVU304
 888 003c 588A     		ldrh	r0, [r3, #18]
 889              	.LVL51:
 890              		.loc 1 1007 26 view .LVU305
 891 003e 05F15802 		add	r2, r5, #88
 892              		.loc 1 1007 32 view .LVU306
 893 0042 3843     		orrs	r0, r0, r7
 894              		.loc 1 1007 26 view .LVU307
 895 0044 5201     		lsls	r2, r2, #5
 896 0046 A050     		str	r0, [r4, r2]
 897              		.loc 1 1008 5 is_stmt 1 view .LVU308
 898              		.loc 1 1008 23 is_stmt 0 view .LVU309
 899 0048 05F11000 		add	r0, r5, #16
 900 004c 0122     		movs	r2, #1
 901 004e 8240     		lsls	r2, r2, r0
 902              		.loc 1 1008 20 view .LVU310
 903 0050 D4F81C08 		ldr	r0, [r4, #2076]
 904 0054 0243     		orrs	r2, r2, r0
 905 0056 C4F81C28 		str	r2, [r4, #2076]
 906              	.L55:
 907              		.loc 1 1016 3 is_stmt 1 view .LVU311
 908              		.loc 1 1016 25 is_stmt 0 view .LVU312
 909 005a 6218     		adds	r2, r4, r1
 910 005c 0021     		movs	r1, #0
 911 005e C2F81019 		str	r1, [r2, #2320]
 912              		.loc 1 1017 3 is_stmt 1 view .LVU313
ARM GAS  C:\Users\DEVELO~1\AppData\Local\Temp\cc0byXRH.s 			page 17


 913              		.loc 1 1017 6 is_stmt 0 view .LVU314
 914 0062 5A69     		ldr	r2, [r3, #20]
 915 0064 002A     		cmp	r2, #0
 916 0066 45D0     		beq	.L56
 917              		.loc 1 1019 5 is_stmt 1 view .LVU315
 918              		.loc 1 1020 22 is_stmt 0 view .LVU316
 919 0068 998B     		ldrh	r1, [r3, #28]
 920              		.loc 1 1022 27 view .LVU317
 921 006a 05F13F00 		add	r0, r5, #63
 922              		.loc 1 1019 39 view .LVU318
 923 006e 1A8A     		ldrh	r2, [r3, #16]
 924              		.loc 1 1020 8 view .LVU319
 925 0070 0129     		cmp	r1, #1
 926              		.loc 1 1022 27 view .LVU320
 927 0072 04EB8000 		add	r0, r4, r0, lsl #2
 928              		.loc 1 1019 11 view .LVU321
 929 0076 4FEA9203 		lsr	r3, r2, #2
 930              	.LVL52:
 931              		.loc 1 1020 5 is_stmt 1 view .LVU322
 932              		.loc 1 1021 7 view .LVU323
 933              	.LBB179:
 934              	.LBB180:
 935              		.loc 1 217 8 is_stmt 0 view .LVU324
 936 007a D6F89820 		ldr	r2, [r6, #152]
 937              	.LBE180:
 938              	.LBE179:
 939              		.loc 1 1021 13 view .LVU325
 940 007e 88BF     		it	hi
 941 0080 4B43     		mulhi	r3, r1, r3
 942              	.LVL53:
 943              		.loc 1 1022 5 is_stmt 1 view .LVU326
 944              	.LBB184:
 945              	.LBI179:
 946              		.loc 1 214 17 view .LVU327
 947              	.LBB181:
 948              		.loc 1 215 3 view .LVU328
 949              		.loc 1 217 3 view .LVU329
 950              		.loc 1 218 3 view .LVU330
 951              	.LBE181:
 952              	.LBE184:
 953              	.LBB185:
 954              	.LBB186:
 955              		.loc 1 187 19 is_stmt 0 view .LVU331
 956 0082 A901     		lsls	r1, r5, #6
 957              	.LBE186:
 958              	.LBE185:
 959              	.LBB194:
 960              	.LBB182:
 961              		.loc 1 218 16 view .LVU332
 962 0084 03EB020C 		add	ip, r3, r2
 963              	.LBE182:
 964              	.LBE194:
 965              	.LBB195:
 966              	.LBB191:
 967              		.loc 1 187 40 view .LVU333
 968 0088 41F02001 		orr	r1, r1, #32
 969              	.LBE191:
ARM GAS  C:\Users\DEVELO~1\AppData\Local\Temp\cc0byXRH.s 			page 18


 970              	.LBE195:
 971              		.loc 1 1022 53 view .LVU334
 972 008c 42EA0342 		orr	r2, r2, r3, lsl #16
 973              	.LVL54:
 974              	.LBB196:
 975              	.LBB183:
 976              		.loc 1 218 16 view .LVU335
 977 0090 C6F898C0 		str	ip, [r6, #152]
 978              	.LVL55:
 979              		.loc 1 219 3 is_stmt 1 view .LVU336
 980              		.loc 1 219 3 view .LVU337
 981              		.loc 1 219 3 view .LVU338
 982              		.loc 1 221 3 view .LVU339
 983              		.loc 1 221 3 is_stmt 0 view .LVU340
 984              	.LBE183:
 985              	.LBE196:
 986              		.loc 1 1022 27 view .LVU341
 987 0094 4260     		str	r2, [r0, #4]
 988              		.loc 1 1024 5 is_stmt 1 view .LVU342
 989              	.LVL56:
 990              	.LBB197:
 991              	.LBI185:
 992              		.loc 1 184 13 view .LVU343
 993              	.LBB192:
 994              		.loc 1 185 3 view .LVU344
 995              		.loc 1 187 3 view .LVU345
 996              		.loc 1 187 17 is_stmt 0 view .LVU346
 997 0096 2161     		str	r1, [r4, #16]
 998              		.loc 1 188 3 is_stmt 1 view .LVU347
 999              	.LVL57:
 1000              	.L58:
 1001              		.loc 1 188 44 view .LVU348
 1002              		.loc 1 188 15 is_stmt 0 view .LVU349
 1003 0098 2369     		ldr	r3, [r4, #16]
 1004              		.loc 1 188 44 view .LVU350
 1005 009a 9A06     		lsls	r2, r3, #26
 1006 009c FCD4     		bmi	.L58
 1007              		.loc 1 191 3 is_stmt 1 view .LVU351
 1008              	.LVL58:
 1009              	.LBB187:
 1010              	.LBI187:
 1011              		.loc 2 653 20 view .LVU352
 1012              	.LBB188:
 1013              		.loc 2 655 3 view .LVU353
 1014              	.LBE188:
 1015              	.LBE187:
 1016              	.LBE192:
 1017              	.LBE197:
 1018              		.loc 1 1028 28 is_stmt 0 view .LVU354
 1019 009e 06EB8806 		add	r6, r6, r8, lsl #2
 1020              	.LVL59:
 1021              	.LBB198:
 1022              	.LBB193:
 1023              	.LBB190:
 1024              	.LBB189:
 1025              		.loc 2 655 3 view .LVU355
 1026 00a2 1220     		movs	r0, #18
ARM GAS  C:\Users\DEVELO~1\AppData\Local\Temp\cc0byXRH.s 			page 19


 1027 00a4 FFF7FEFF 		bl	chSysPolledDelayX
 1028              	.LVL60:
 1029              		.loc 2 655 3 view .LVU356
 1030              	.LBE189:
 1031              	.LBE190:
 1032              	.LBE193:
 1033              	.LBE198:
 1034              		.loc 1 1026 5 is_stmt 1 view .LVU357
 1035              		.loc 1 1026 26 is_stmt 0 view .LVU358
 1036 00a8 05F14802 		add	r2, r5, #72
 1037              		.loc 1 1028 28 view .LVU359
 1038 00ac F368     		ldr	r3, [r6, #12]
 1039              		.loc 1 1026 26 view .LVU360
 1040 00ae 5201     		lsls	r2, r2, #5
 1041              		.loc 1 1028 28 view .LVU361
 1042 00b0 1B8A     		ldrh	r3, [r3, #16]
 1043              		.loc 1 1027 47 view .LVU362
 1044 00b2 43EA8553 		orr	r3, r3, r5, lsl #22
 1045 00b6 3B43     		orrs	r3, r3, r7
 1046              		.loc 1 1026 26 view .LVU363
 1047 00b8 A350     		str	r3, [r4, r2]
 1048              		.loc 1 1029 5 is_stmt 1 view .LVU364
 1049              		.loc 1 1029 23 is_stmt 0 view .LVU365
 1050 00ba 0123     		movs	r3, #1
 1051              		.loc 1 1029 20 view .LVU366
 1052 00bc D4F81C28 		ldr	r2, [r4, #2076]
 1053              		.loc 1 1029 23 view .LVU367
 1054 00c0 AB40     		lsls	r3, r3, r5
 1055              		.loc 1 1029 20 view .LVU368
 1056 00c2 1343     		orrs	r3, r3, r2
 1057 00c4 C4F81C38 		str	r3, [r4, #2076]
 1058              		.loc 1 1037 1 view .LVU369
 1059 00c8 BDE8F081 		pop	{r4, r5, r6, r7, r8, pc}
 1060              	.LVL61:
 1061              	.L54:
 1062              		.loc 1 1011 5 is_stmt 1 view .LVU370
 1063 00cc 04EB4812 		add	r2, r4, r8, lsl #5
 1064              		.loc 1 1012 24 is_stmt 0 view .LVU371
 1065 00d0 05F1100C 		add	ip, r5, #16
 1066 00d4 0120     		movs	r0, #1
 1067              	.LVL62:
 1068              		.loc 1 1012 24 view .LVU372
 1069 00d6 00FA0CF0 		lsl	r0, r0, ip
 1070              		.loc 1 1011 26 view .LVU373
 1071 00da D2F800CB 		ldr	ip, [r2, #2816]
 1072 00de 2CF4004C 		bic	ip, ip, #32768
 1073 00e2 C2F800CB 		str	ip, [r2, #2816]
 1074              		.loc 1 1012 5 is_stmt 1 view .LVU374
 1075              		.loc 1 1012 20 is_stmt 0 view .LVU375
 1076 00e6 D4F81C28 		ldr	r2, [r4, #2076]
 1077 00ea 22EA0002 		bic	r2, r2, r0
 1078 00ee C4F81C28 		str	r2, [r4, #2076]
 1079 00f2 B2E7     		b	.L55
 1080              	.L56:
 1081              		.loc 1 1032 5 is_stmt 1 view .LVU376
 1082              		.loc 1 1032 27 is_stmt 0 view .LVU377
 1083 00f4 05F13F03 		add	r3, r5, #63
ARM GAS  C:\Users\DEVELO~1\AppData\Local\Temp\cc0byXRH.s 			page 20


 1084 00f8 104A     		ldr	r2, .L65+4
 1085 00fa 04EB8303 		add	r3, r4, r3, lsl #2
 1086 00fe 5A60     		str	r2, [r3, #4]
 1087              		.loc 1 1033 5 is_stmt 1 view .LVU378
 1088              	.LVL63:
 1089              	.LBB199:
 1090              	.LBI199:
 1091              		.loc 1 184 13 view .LVU379
 1092              	.LBB200:
 1093              		.loc 1 185 3 view .LVU380
 1094              		.loc 1 187 3 view .LVU381
 1095              		.loc 1 187 19 is_stmt 0 view .LVU382
 1096 0100 AB01     		lsls	r3, r5, #6
 1097              		.loc 1 187 40 view .LVU383
 1098 0102 43F02003 		orr	r3, r3, #32
 1099              		.loc 1 187 17 view .LVU384
 1100 0106 2361     		str	r3, [r4, #16]
 1101              		.loc 1 188 3 is_stmt 1 view .LVU385
 1102              	.L60:
 1103              		.loc 1 188 44 view .LVU386
 1104              		.loc 1 188 15 is_stmt 0 view .LVU387
 1105 0108 2369     		ldr	r3, [r4, #16]
 1106              		.loc 1 188 44 view .LVU388
 1107 010a 9B06     		lsls	r3, r3, #26
 1108 010c FCD4     		bmi	.L60
 1109              		.loc 1 191 3 is_stmt 1 view .LVU389
 1110              	.LVL64:
 1111              	.LBB201:
 1112              	.LBI201:
 1113              		.loc 2 653 20 view .LVU390
 1114              	.LBB202:
 1115              		.loc 2 655 3 view .LVU391
 1116 010e 04EB4818 		add	r8, r4, r8, lsl #5
 1117 0112 1220     		movs	r0, #18
 1118 0114 FFF7FEFF 		bl	chSysPolledDelayX
 1119              	.LVL65:
 1120              		.loc 2 655 3 is_stmt 0 view .LVU392
 1121              	.LBE202:
 1122              	.LBE201:
 1123              	.LBE200:
 1124              	.LBE199:
 1125              		.loc 1 1034 5 is_stmt 1 view .LVU393
 1126              		.loc 1 1035 24 is_stmt 0 view .LVU394
 1127 0118 0122     		movs	r2, #1
 1128              		.loc 1 1034 26 view .LVU395
 1129 011a D8F80039 		ldr	r3, [r8, #2304]
 1130              		.loc 1 1035 24 view .LVU396
 1131 011e AA40     		lsls	r2, r2, r5
 1132              		.loc 1 1034 26 view .LVU397
 1133 0120 23F40043 		bic	r3, r3, #32768
 1134 0124 C8F80039 		str	r3, [r8, #2304]
 1135              		.loc 1 1035 5 is_stmt 1 view .LVU398
 1136              		.loc 1 1035 20 is_stmt 0 view .LVU399
 1137 0128 D4F81C38 		ldr	r3, [r4, #2076]
 1138 012c 23EA0203 		bic	r3, r3, r2
 1139 0130 C4F81C38 		str	r3, [r4, #2076]
 1140              		.loc 1 1037 1 view .LVU400
ARM GAS  C:\Users\DEVELO~1\AppData\Local\Temp\cc0byXRH.s 			page 21


 1141 0134 BDE8F081 		pop	{r4, r5, r6, r7, r8, pc}
 1142              	.LVL66:
 1143              	.L66:
 1144              		.loc 1 1037 1 view .LVU401
 1145              		.align	2
 1146              	.L65:
 1147 0138 00800010 		.word	268468224
 1148 013c 00040002 		.word	33555456
 1149              		.cfi_endproc
 1150              	.LFE452:
 1151              		.size	usb_lld_init_endpoint, .-usb_lld_init_endpoint
 1152              		.section	.text.usb_lld_disable_endpoints,"ax",%progbits
 1153              		.align	1
 1154              		.p2align 4,,15
 1155              		.global	usb_lld_disable_endpoints
 1156              		.syntax unified
 1157              		.thumb
 1158              		.thumb_func
 1159              		.type	usb_lld_disable_endpoints, %function
 1160              	usb_lld_disable_endpoints:
 1161              	.LVL67:
 1162              	.LFB453:
 1163              		.loc 1 1046 49 is_stmt 1 view -0
 1164              		.cfi_startproc
 1165              		@ args = 0, pretend = 0, frame = 0
 1166              		@ frame_needed = 0, uses_anonymous_args = 0
 1167              		@ link register save eliminated.
 1168              		.loc 1 1049 3 view .LVU403
 1169              		.loc 1 1046 49 is_stmt 0 view .LVU404
 1170 0000 0346     		mov	r3, r0
 1171              	.LVL68:
 1172              	.LBB203:
 1173              	.LBI203:
 1174              		.loc 1 201 13 is_stmt 1 view .LVU405
 1175              	.LBB204:
 1176              		.loc 1 203 3 view .LVU406
 1177              	.LBE204:
 1178              	.LBE203:
 1179              		.loc 1 1052 3 is_stmt 0 view .LVU407
 1180 0002 D0E92401 		ldrd	r0, r1, [r0, #144]
 1181              	.LVL69:
 1182              	.LBB206:
 1183              	.LBB205:
 1184              		.loc 1 203 16 view .LVU408
 1185 0006 0A68     		ldr	r2, [r1]
 1186 0008 C3F89820 		str	r2, [r3, #152]
 1187              	.LVL70:
 1188              		.loc 1 203 16 view .LVU409
 1189              	.LBE205:
 1190              	.LBE206:
 1191              		.loc 1 1052 3 is_stmt 1 view .LVU410
 1192 000c FFF7FEBF 		b	otg_disable_ep.isra.0
 1193              	.LVL71:
 1194              		.loc 1 1052 3 is_stmt 0 view .LVU411
 1195              		.cfi_endproc
 1196              	.LFE453:
 1197              		.size	usb_lld_disable_endpoints, .-usb_lld_disable_endpoints
ARM GAS  C:\Users\DEVELO~1\AppData\Local\Temp\cc0byXRH.s 			page 22


 1198              		.section	.text.usb_lld_get_status_out,"ax",%progbits
 1199              		.align	1
 1200              		.p2align 4,,15
 1201              		.global	usb_lld_get_status_out
 1202              		.syntax unified
 1203              		.thumb
 1204              		.thumb_func
 1205              		.type	usb_lld_get_status_out, %function
 1206              	usb_lld_get_status_out:
 1207              	.LVL72:
 1208              	.LFB454:
 1209              		.loc 1 1067 67 is_stmt 1 view -0
 1210              		.cfi_startproc
 1211              		@ args = 0, pretend = 0, frame = 0
 1212              		@ frame_needed = 0, uses_anonymous_args = 0
 1213              		@ link register save eliminated.
 1214              		.loc 1 1068 3 view .LVU413
 1215              		.loc 1 1070 3 view .LVU414
 1216              		.loc 1 1072 3 view .LVU415
 1217              		.loc 1 1072 7 is_stmt 0 view .LVU416
 1218 0000 5831     		adds	r1, r1, #88
 1219              	.LVL73:
 1220              		.loc 1 1072 13 view .LVU417
 1221 0002 D0F89030 		ldr	r3, [r0, #144]
 1222              		.loc 1 1072 7 view .LVU418
 1223 0006 4901     		lsls	r1, r1, #5
 1224 0008 5B58     		ldr	r3, [r3, r1]
 1225              	.LVL74:
 1226              		.loc 1 1073 3 is_stmt 1 view .LVU419
 1227              		.loc 1 1073 6 is_stmt 0 view .LVU420
 1228 000a 13F40040 		ands	r0, r3, #32768
 1229              	.LVL75:
 1230              		.loc 1 1073 6 view .LVU421
 1231 000e 04D0     		beq	.L69
 1232              		.loc 1 1075 3 is_stmt 1 view .LVU422
 1233              		.loc 1 1076 12 is_stmt 0 view .LVU423
 1234 0010 13F4001F 		tst	r3, #2097152
 1235 0014 0CBF     		ite	eq
 1236 0016 0220     		moveq	r0, #2
 1237 0018 0120     		movne	r0, #1
 1238              	.L69:
 1239              		.loc 1 1078 1 view .LVU424
 1240 001a 7047     		bx	lr
 1241              		.cfi_endproc
 1242              	.LFE454:
 1243              		.size	usb_lld_get_status_out, .-usb_lld_get_status_out
 1244              		.section	.text.usb_lld_get_status_in,"ax",%progbits
 1245              		.align	1
 1246              		.p2align 4,,15
 1247              		.global	usb_lld_get_status_in
 1248              		.syntax unified
 1249              		.thumb
 1250              		.thumb_func
 1251              		.type	usb_lld_get_status_in, %function
 1252              	usb_lld_get_status_in:
 1253              	.LVL76:
 1254              	.LFB455:
ARM GAS  C:\Users\DEVELO~1\AppData\Local\Temp\cc0byXRH.s 			page 23


 1255              		.loc 1 1092 66 is_stmt 1 view -0
 1256              		.cfi_startproc
 1257              		@ args = 0, pretend = 0, frame = 0
 1258              		@ frame_needed = 0, uses_anonymous_args = 0
 1259              		@ link register save eliminated.
 1260              		.loc 1 1093 3 view .LVU426
 1261              		.loc 1 1095 3 view .LVU427
 1262              		.loc 1 1097 3 view .LVU428
 1263              		.loc 1 1097 7 is_stmt 0 view .LVU429
 1264 0000 4831     		adds	r1, r1, #72
 1265              	.LVL77:
 1266              		.loc 1 1097 13 view .LVU430
 1267 0002 D0F89030 		ldr	r3, [r0, #144]
 1268              		.loc 1 1097 7 view .LVU431
 1269 0006 4901     		lsls	r1, r1, #5
 1270 0008 5B58     		ldr	r3, [r3, r1]
 1271              	.LVL78:
 1272              		.loc 1 1098 3 is_stmt 1 view .LVU432
 1273              		.loc 1 1098 6 is_stmt 0 view .LVU433
 1274 000a 13F40040 		ands	r0, r3, #32768
 1275              	.LVL79:
 1276              		.loc 1 1098 6 view .LVU434
 1277 000e 04D0     		beq	.L73
 1278              		.loc 1 1100 3 is_stmt 1 view .LVU435
 1279              		.loc 1 1101 12 is_stmt 0 view .LVU436
 1280 0010 13F4001F 		tst	r3, #2097152
 1281 0014 0CBF     		ite	eq
 1282 0016 0220     		moveq	r0, #2
 1283 0018 0120     		movne	r0, #1
 1284              	.L73:
 1285              		.loc 1 1103 1 view .LVU437
 1286 001a 7047     		bx	lr
 1287              		.cfi_endproc
 1288              	.LFE455:
 1289              		.size	usb_lld_get_status_in, .-usb_lld_get_status_in
 1290              		.section	.text.usb_lld_read_setup,"ax",%progbits
 1291              		.align	1
 1292              		.p2align 4,,15
 1293              		.global	usb_lld_read_setup
 1294              		.syntax unified
 1295              		.thumb
 1296              		.thumb_func
 1297              		.type	usb_lld_read_setup, %function
 1298              	usb_lld_read_setup:
 1299              	.LVL80:
 1300              	.LFB456:
 1301              		.loc 1 1119 68 is_stmt 1 view -0
 1302              		.cfi_startproc
 1303              		@ args = 0, pretend = 0, frame = 0
 1304              		@ frame_needed = 0, uses_anonymous_args = 0
 1305              		@ link register save eliminated.
 1306              		.loc 1 1121 3 view .LVU439
 1307              		.loc 1 1121 24 is_stmt 0 view .LVU440
 1308 0000 00EB8100 		add	r0, r0, r1, lsl #2
 1309              	.LVL81:
 1310              		.loc 1 1121 28 view .LVU441
 1311 0004 C368     		ldr	r3, [r0, #12]
ARM GAS  C:\Users\DEVELO~1\AppData\Local\Temp\cc0byXRH.s 			page 24


 1312              		.loc 1 1121 3 view .LVU442
 1313 0006 1B6A     		ldr	r3, [r3, #32]
 1314 0008 1968     		ldr	r1, [r3]	@ unaligned
 1315              	.LVL82:
 1316              		.loc 1 1121 3 view .LVU443
 1317 000a 5B68     		ldr	r3, [r3, #4]	@ unaligned
 1318 000c 1160     		str	r1, [r2]	@ unaligned
 1319 000e 5360     		str	r3, [r2, #4]	@ unaligned
 1320              		.loc 1 1122 1 view .LVU444
 1321 0010 7047     		bx	lr
 1322              		.cfi_endproc
 1323              	.LFE456:
 1324              		.size	usb_lld_read_setup, .-usb_lld_read_setup
 1325 0012 00BF     		.section	.text.usb_lld_start_out,"ax",%progbits
 1326              		.align	1
 1327              		.p2align 4,,15
 1328              		.global	usb_lld_start_out
 1329              		.syntax unified
 1330              		.thumb
 1331              		.thumb_func
 1332              		.type	usb_lld_start_out, %function
 1333              	usb_lld_start_out:
 1334              	.LVL83:
 1335              	.LFB457:
 1336              		.loc 1 1132 53 is_stmt 1 view -0
 1337              		.cfi_startproc
 1338              		@ args = 0, pretend = 0, frame = 0
 1339              		@ frame_needed = 0, uses_anonymous_args = 0
 1340              		@ link register save eliminated.
 1341              		.loc 1 1133 3 view .LVU446
 1342              		.loc 1 1134 3 view .LVU447
 1343              		.loc 1 1134 39 is_stmt 0 view .LVU448
 1344 0000 00EB8103 		add	r3, r0, r1, lsl #2
 1345 0004 DA68     		ldr	r2, [r3, #12]
 1346              		.loc 1 1134 24 view .LVU449
 1347 0006 9369     		ldr	r3, [r2, #24]
 1348              	.LVL84:
 1349              		.loc 1 1137 3 is_stmt 1 view .LVU450
 1350              		.loc 1 1132 53 is_stmt 0 view .LVU451
 1351 0008 10B4     		push	{r4}
 1352              		.cfi_def_cfa_offset 4
 1353              		.cfi_offset 4, -4
 1354              		.loc 1 1137 21 view .LVU452
 1355 000a 1C68     		ldr	r4, [r3]
 1356              		.loc 1 1137 16 view .LVU453
 1357 000c DC60     		str	r4, [r3, #12]
 1358              		.loc 1 1138 3 is_stmt 1 view .LVU454
 1359              		.loc 1 1138 17 is_stmt 0 view .LVU455
 1360 000e 09B9     		cbnz	r1, .L78
 1361 0010 402C     		cmp	r4, #64
 1362 0012 25D8     		bhi	.L90
 1363              	.L78:
 1364              		.loc 1 1146 3 is_stmt 1 view .LVU456
 1365              		.loc 1 1146 40 is_stmt 0 view .LVU457
 1366 0014 538A     		ldrh	r3, [r2, #18]
 1367              	.LVL85:
 1368              		.loc 1 1155 31 view .LVU458
ARM GAS  C:\Users\DEVELO~1\AppData\Local\Temp\cc0byXRH.s 			page 25


 1369 0016 1268     		ldr	r2, [r2]
 1370              	.LVL86:
 1371              		.loc 1 1151 7 view .LVU459
 1372 0018 D0F89000 		ldr	r0, [r0, #144]
 1373              	.LVL87:
 1374              		.loc 1 1155 31 view .LVU460
 1375 001c 02F0030C 		and	ip, r2, #3
 1376              		.loc 1 1146 54 view .LVU461
 1377 0020 5A1E     		subs	r2, r3, #1
 1378 0022 2244     		add	r2, r2, r4
 1379              		.loc 1 1155 6 view .LVU462
 1380 0024 BCF1010F 		cmp	ip, #1
 1381              		.loc 1 1146 10 view .LVU463
 1382 0028 B2FBF3F2 		udiv	r2, r2, r3
 1383              	.LVL88:
 1384              		.loc 1 1148 3 is_stmt 1 view .LVU464
 1385              		.loc 1 1151 3 view .LVU465
 1386              		.loc 1 1148 18 is_stmt 0 view .LVU466
 1387 002c 02FB03F3 		mul	r3, r2, r3
 1388              	.LVL89:
 1389              		.loc 1 1148 47 view .LVU467
 1390 0030 03F10303 		add	r3, r3, #3
 1391              		.loc 1 1148 10 view .LVU468
 1392 0034 23F00303 		bic	r3, r3, #3
 1393              	.LVL90:
 1394              		.loc 1 1151 76 view .LVU469
 1395 0038 43EAC243 		orr	r3, r3, r2, lsl #19
 1396              	.LVL91:
 1397              		.loc 1 1151 30 view .LVU470
 1398 003c 00EB4112 		add	r2, r0, r1, lsl #5
 1399              	.LVL92:
 1400              		.loc 1 1151 76 view .LVU471
 1401 0040 43F0C043 		orr	r3, r3, #1610612736
 1402              		.loc 1 1151 30 view .LVU472
 1403 0044 C2F8103B 		str	r3, [r2, #2832]
 1404              		.loc 1 1155 3 is_stmt 1 view .LVU473
 1405              		.loc 1 1155 6 is_stmt 0 view .LVU474
 1406 0048 0DD0     		beq	.L88
 1407 004a 09B2     		sxth	r1, r1
 1408              	.LVL93:
 1409              	.L79:
 1410              		.loc 1 1164 3 is_stmt 1 view .LVU475
 1411 004c 00EB4110 		add	r0, r0, r1, lsl #5
 1412              		.loc 1 1165 1 is_stmt 0 view .LVU476
 1413 0050 10BC     		pop	{r4}
 1414              		.cfi_remember_state
 1415              		.cfi_restore 4
 1416              		.cfi_def_cfa_offset 0
 1417              		.loc 1 1164 29 view .LVU477
 1418 0052 D0F8003B 		ldr	r3, [r0, #2816]
 1419 0056 43F00443 		orr	r3, r3, #-2080374784
 1420 005a C0F8003B 		str	r3, [r0, #2816]
 1421              		.loc 1 1165 1 view .LVU478
 1422 005e 7047     		bx	lr
 1423              	.LVL94:
 1424              	.L90:
 1425              		.cfi_restore_state
ARM GAS  C:\Users\DEVELO~1\AppData\Local\Temp\cc0byXRH.s 			page 26


 1426              		.loc 1 1139 7 is_stmt 1 view .LVU479
 1427              		.loc 1 1139 19 is_stmt 0 view .LVU480
 1428 0060 4024     		movs	r4, #64
 1429 0062 1C60     		str	r4, [r3]
 1430 0064 D6E7     		b	.L78
 1431              	.LVL95:
 1432              	.L88:
 1433              		.loc 1 1157 5 is_stmt 1 view .LVU481
 1434              		.loc 1 1158 7 view .LVU482
 1435              		.loc 1 1160 7 view .LVU483
 1436              		.loc 1 1157 18 is_stmt 0 view .LVU484
 1437 0066 D0F80838 		ldr	r3, [r0, #2056]
 1438 006a 00EB4112 		add	r2, r0, r1, lsl #5
 1439 006e 09B2     		sxth	r1, r1
 1440              	.LVL96:
 1441              		.loc 1 1157 8 view .LVU485
 1442 0070 13F4807F 		tst	r3, #256
 1443              		.loc 1 1158 33 view .LVU486
 1444 0074 D2F8003B 		ldr	r3, [r2, #2816]
 1445 0078 14BF     		ite	ne
 1446 007a 43F08053 		orrne	r3, r3, #268435456
 1447              		.loc 1 1160 33 view .LVU487
 1448 007e 43F00053 		orreq	r3, r3, #536870912
 1449 0082 C2F8003B 		str	r3, [r2, #2816]
 1450 0086 E1E7     		b	.L79
 1451              		.cfi_endproc
 1452              	.LFE457:
 1453              		.size	usb_lld_start_out, .-usb_lld_start_out
 1454              		.section	.text.otg_epout_handler.constprop.0,"ax",%progbits
 1455              		.align	1
 1456              		.p2align 4,,15
 1457              		.syntax unified
 1458              		.thumb
 1459              		.thumb_func
 1460              		.type	otg_epout_handler.constprop.0, %function
 1461              	otg_epout_handler.constprop.0:
 1462              	.LVL97:
 1463              	.LFB467:
 1464              		.loc 1 417 13 is_stmt 1 view -0
 1465              		.cfi_startproc
 1466              		@ args = 0, pretend = 0, frame = 0
 1467              		@ frame_needed = 0, uses_anonymous_args = 0
 1468              		.loc 1 418 3 view .LVU489
 1469              		.loc 1 417 13 is_stmt 0 view .LVU490
 1470 0000 2DE9F041 		push	{r4, r5, r6, r7, r8, lr}
 1471              		.cfi_def_cfa_offset 24
 1472              		.cfi_offset 4, -24
 1473              		.cfi_offset 5, -20
 1474              		.cfi_offset 6, -16
 1475              		.cfi_offset 7, -12
 1476              		.cfi_offset 8, -8
 1477              		.cfi_offset 14, -4
 1478              		.loc 1 418 16 view .LVU491
 1479 0004 244F     		ldr	r7, .L112
 1480              		.loc 1 417 13 view .LVU492
 1481 0006 0446     		mov	r4, r0
 1482              		.loc 1 418 16 view .LVU493
ARM GAS  C:\Users\DEVELO~1\AppData\Local\Temp\cc0byXRH.s 			page 27


 1483 0008 D7F89060 		ldr	r6, [r7, #144]
 1484              	.LVL98:
 1485              		.loc 1 419 3 is_stmt 1 view .LVU494
 1486              		.loc 1 419 12 is_stmt 0 view .LVU495
 1487 000c 06EB4013 		add	r3, r6, r0, lsl #5
 1488 0010 D3F8085B 		ldr	r5, [r3, #2824]
 1489              	.LVL99:
 1490              		.loc 1 422 3 is_stmt 1 view .LVU496
 1491              		.loc 1 424 6 is_stmt 0 view .LVU497
 1492 0014 2807     		lsls	r0, r5, #28
 1493              	.LVL100:
 1494              		.loc 1 422 24 view .LVU498
 1495 0016 C3F8085B 		str	r5, [r3, #2824]
 1496              		.loc 1 424 3 is_stmt 1 view .LVU499
 1497              		.loc 1 424 6 is_stmt 0 view .LVU500
 1498 001a 03D5     		bpl	.L92
 1499              		.loc 1 424 38 view .LVU501
 1500 001c D6F81438 		ldr	r3, [r6, #2068]
 1501              		.loc 1 424 30 view .LVU502
 1502 0020 1907     		lsls	r1, r3, #28
 1503 0022 31D4     		bmi	.L110
 1504              	.L92:
 1505              		.loc 1 427 39 is_stmt 1 view .LVU503
 1506              		.loc 1 430 3 view .LVU504
 1507              		.loc 1 430 6 is_stmt 0 view .LVU505
 1508 0024 EA07     		lsls	r2, r5, #31
 1509 0026 2DD5     		bpl	.L91
 1510              		.loc 1 430 38 view .LVU506
 1511 0028 D6F81438 		ldr	r3, [r6, #2068]
 1512              		.loc 1 430 30 view .LVU507
 1513 002c DB07     		lsls	r3, r3, #31
 1514 002e 29D5     		bpl	.L91
 1515              	.LBB220:
 1516              		.loc 1 431 5 is_stmt 1 view .LVU508
 1517              		.loc 1 434 5 view .LVU509
 1518              		.loc 1 434 20 is_stmt 0 view .LVU510
 1519 0030 07EB8403 		add	r3, r7, r4, lsl #2
 1520 0034 D968     		ldr	r1, [r3, #12]
 1521              		.loc 1 434 9 view .LVU511
 1522 0036 8A69     		ldr	r2, [r1, #24]
 1523              	.LVL101:
 1524              		.loc 1 437 5 is_stmt 1 view .LVU512
 1525              		.loc 1 437 8 is_stmt 0 view .LVU513
 1526 0038 54B9     		cbnz	r4, .L96
 1527              		.loc 1 451 7 is_stmt 1 view .LVU514
 1528              		.loc 1 451 39 is_stmt 0 view .LVU515
 1529 003a 488A     		ldrh	r0, [r1, #18]
 1530              		.loc 1 451 24 view .LVU516
 1531 003c 5368     		ldr	r3, [r2, #4]
 1532 003e B3FBF0F5 		udiv	r5, r3, r0
 1533              	.LVL102:
 1534              		.loc 1 451 24 view .LVU517
 1535 0042 00FB1533 		mls	r3, r0, r5, r3
 1536              		.loc 1 451 10 view .LVU518
 1537 0046 1BB9     		cbnz	r3, .L96
 1538              		.loc 1 452 15 view .LVU519
 1539 0048 1068     		ldr	r0, [r2]
ARM GAS  C:\Users\DEVELO~1\AppData\Local\Temp\cc0byXRH.s 			page 28


 1540              		.loc 1 452 29 view .LVU520
 1541 004a D368     		ldr	r3, [r2, #12]
 1542              		.loc 1 451 60 view .LVU521
 1543 004c 9842     		cmp	r0, r3
 1544 004e 0DD3     		bcc	.L111
 1545              	.L96:
 1546              		.loc 1 463 5 is_stmt 1 view .LVU522
 1547 0050 0122     		movs	r2, #1
 1548              	.LVL103:
 1549              		.loc 1 463 5 is_stmt 0 view .LVU523
 1550 0052 7B89     		ldrh	r3, [r7, #10]
 1551 0054 CD68     		ldr	r5, [r1, #12]
 1552 0056 A240     		lsls	r2, r2, r4
 1553 0058 23EA0203 		bic	r3, r3, r2
 1554 005c 7B81     		strh	r3, [r7, #10]	@ movhi
 1555              		.loc 1 463 5 is_stmt 1 view .LVU524
 1556 005e 8DB1     		cbz	r5, .L91
 1557              		.loc 1 463 5 view .LVU525
 1558 0060 2146     		mov	r1, r4
 1559              	.LVL104:
 1560              		.loc 1 463 5 is_stmt 0 view .LVU526
 1561 0062 2B46     		mov	r3, r5
 1562 0064 0C48     		ldr	r0, .L112
 1563              	.LBE220:
 1564              		.loc 1 465 1 view .LVU527
 1565 0066 BDE8F041 		pop	{r4, r5, r6, r7, r8, lr}
 1566              		.cfi_remember_state
 1567              		.cfi_restore 14
 1568              		.cfi_restore 8
 1569              		.cfi_restore 7
 1570              		.cfi_restore 6
 1571              		.cfi_restore 5
 1572              		.cfi_restore 4
 1573              		.cfi_def_cfa_offset 0
 1574              	.LVL105:
 1575              	.LBB239:
 1576              		.loc 1 463 5 view .LVU528
 1577 006a 1847     		bx	r3	@ indirect register sibling call
 1578              	.LVL106:
 1579              	.L111:
 1580              		.cfi_restore_state
 1581              		.loc 1 453 9 is_stmt 1 view .LVU529
 1582              		.loc 1 453 36 is_stmt 0 view .LVU530
 1583 006c 1B1A     		subs	r3, r3, r0
 1584              		.loc 1 454 21 view .LVU531
 1585 006e 5460     		str	r4, [r2, #4]
 1586              	.LBB221:
 1587              	.LBB222:
 1588              	.LBB223:
 1589              	.LBB224:
 1590              	.LBB225:
 1591              	.LBB226:
 1592              		.file 4 "../../../os/common/ext/ARM/CMSIS/Core/Include/cmsis_gcc.h"
 1593              		.loc 4 493 3 view .LVU532
 1594 0070 3021     		movs	r1, #48
 1595              	.LBE226:
 1596              	.LBE225:
ARM GAS  C:\Users\DEVELO~1\AppData\Local\Temp\cc0byXRH.s 			page 29


 1597              	.LBE224:
 1598              	.LBE223:
 1599              	.LBE222:
 1600              	.LBE221:
 1601              		.loc 1 453 21 view .LVU533
 1602 0072 1360     		str	r3, [r2]
 1603              		.loc 1 454 9 is_stmt 1 view .LVU534
 1604              		.loc 1 455 9 view .LVU535
 1605              	.LBB232:
 1606              	.LBI221:
 1607              		.loc 2 595 20 view .LVU536
 1608              		.loc 2 597 3 view .LVU537
 1609              	.LBB231:
 1610              	.LBI222:
 1611              		.file 5 "../../../os/rt/include/chsys.h"
 1612              		.loc 5 451 20 view .LVU538
 1613              		.loc 5 453 3 view .LVU539
 1614              	.LBB230:
 1615              	.LBI223:
 1616              		.file 6 "../../../os/common/ports/ARMv7-M/chcore.h"
 1617              		.loc 6 845 27 view .LVU540
 1618              		.loc 6 847 3 view .LVU541
 1619              	.LBB229:
 1620              	.LBI224:
 1621              		.loc 6 806 27 view .LVU542
 1622              		.loc 6 814 3 view .LVU543
 1623              	.LVL107:
 1624              	.LBB228:
 1625              	.LBI225:
 1626              		.loc 4 491 27 view .LVU544
 1627              	.LBB227:
 1628              		.loc 4 493 3 view .LVU545
 1629              		.syntax unified
 1630              	@ 493 "../../../os/common/ext/ARM/CMSIS/Core/Include/cmsis_gcc.h" 1
 1631 0074 81F31188 		MSR basepri, r1
 1632              	@ 0 "" 2
 1633              	.LVL108:
 1634              		.loc 4 493 3 is_stmt 0 view .LVU546
 1635              		.thumb
 1636              		.syntax unified
 1637              	.LBE227:
 1638              	.LBE228:
 1639              	.LBE229:
 1640              	.LBE230:
 1641              		.loc 5 454 35 is_stmt 1 view .LVU547
 1642              		.loc 5 455 30 view .LVU548
 1643              	.LBE231:
 1644              	.LBE232:
 1645              		.loc 1 456 9 view .LVU549
 1646 0078 0748     		ldr	r0, .L112
 1647 007a 2146     		mov	r1, r4
 1648 007c FFF7FEFF 		bl	usb_lld_start_out
 1649              	.LVL109:
 1650              		.loc 1 457 9 view .LVU550
 1651              	.LBB233:
 1652              	.LBI233:
 1653              		.loc 2 606 20 view .LVU551
ARM GAS  C:\Users\DEVELO~1\AppData\Local\Temp\cc0byXRH.s 			page 30


 1654              		.loc 2 608 3 view .LVU552
 1655              	.LBB234:
 1656              	.LBI234:
 1657              		.loc 5 473 20 view .LVU553
 1658              		.loc 5 475 32 view .LVU554
 1659              		.loc 5 476 34 view .LVU555
 1660              		.loc 5 477 3 view .LVU556
 1661              	.LBB235:
 1662              	.LBI235:
 1663              		.loc 6 856 27 view .LVU557
 1664              		.loc 6 858 3 view .LVU558
 1665              	.LBB236:
 1666              	.LBI236:
 1667              		.loc 6 830 27 view .LVU559
 1668              		.loc 6 833 3 view .LVU560
 1669              	.LBB237:
 1670              	.LBI237:
 1671              		.loc 4 491 27 view .LVU561
 1672              	.LBB238:
 1673              		.loc 4 493 3 view .LVU562
 1674              		.syntax unified
 1675              	@ 493 "../../../os/common/ext/ARM/CMSIS/Core/Include/cmsis_gcc.h" 1
 1676 0080 84F31188 		MSR basepri, r4
 1677              	@ 0 "" 2
 1678              	.LVL110:
 1679              		.loc 4 493 3 is_stmt 0 view .LVU563
 1680              		.thumb
 1681              		.syntax unified
 1682              	.LBE238:
 1683              	.LBE237:
 1684              	.LBE236:
 1685              	.LBE235:
 1686              	.LBE234:
 1687              	.LBE233:
 1688              		.loc 1 458 9 is_stmt 1 view .LVU564
 1689              	.L91:
 1690              		.loc 1 458 9 is_stmt 0 view .LVU565
 1691              	.LBE239:
 1692              		.loc 1 465 1 view .LVU566
 1693 0084 BDE8F081 		pop	{r4, r5, r6, r7, r8, pc}
 1694              	.LVL111:
 1695              	.L110:
 1696              		.loc 1 427 5 is_stmt 1 view .LVU567
 1697 0088 07EB8403 		add	r3, r7, r4, lsl #2
 1698 008c 2146     		mov	r1, r4
 1699 008e 3846     		mov	r0, r7
 1700 0090 DB68     		ldr	r3, [r3, #12]
 1701 0092 5B68     		ldr	r3, [r3, #4]
 1702 0094 9847     		blx	r3
 1703              	.LVL112:
 1704 0096 C5E7     		b	.L92
 1705              	.L113:
 1706              		.align	2
 1707              	.L112:
 1708 0098 00000000 		.word	.LANCHOR0
 1709              		.cfi_endproc
 1710              	.LFE467:
ARM GAS  C:\Users\DEVELO~1\AppData\Local\Temp\cc0byXRH.s 			page 31


 1711              		.size	otg_epout_handler.constprop.0, .-otg_epout_handler.constprop.0
 1712              		.section	.text.usb_lld_start_in,"ax",%progbits
 1713              		.align	1
 1714              		.p2align 4,,15
 1715              		.global	usb_lld_start_in
 1716              		.syntax unified
 1717              		.thumb
 1718              		.thumb_func
 1719              		.type	usb_lld_start_in, %function
 1720              	usb_lld_start_in:
 1721              	.LVL113:
 1722              	.LFB458:
 1723              		.loc 1 1175 52 view -0
 1724              		.cfi_startproc
 1725              		@ args = 0, pretend = 0, frame = 0
 1726              		@ frame_needed = 0, uses_anonymous_args = 0
 1727              		@ link register save eliminated.
 1728              		.loc 1 1176 3 view .LVU569
 1729              		.loc 1 1176 38 is_stmt 0 view .LVU570
 1730 0000 00EB8103 		add	r3, r0, r1, lsl #2
 1731              		.loc 1 1175 52 view .LVU571
 1732 0004 10B4     		push	{r4}
 1733              		.cfi_def_cfa_offset 4
 1734              		.cfi_offset 4, -4
 1735              		.loc 1 1176 38 view .LVU572
 1736 0006 DC68     		ldr	r4, [r3, #12]
 1737              		.loc 1 1176 23 view .LVU573
 1738 0008 6269     		ldr	r2, [r4, #20]
 1739              	.LVL114:
 1740              		.loc 1 1179 3 is_stmt 1 view .LVU574
 1741              		.loc 1 1179 21 is_stmt 0 view .LVU575
 1742 000a 1368     		ldr	r3, [r2]
 1743              		.loc 1 1179 16 view .LVU576
 1744 000c D360     		str	r3, [r2, #12]
 1745              		.loc 1 1180 3 is_stmt 1 view .LVU577
 1746              		.loc 1 1180 6 is_stmt 0 view .LVU578
 1747 000e F3B9     		cbnz	r3, .L115
 1748              		.loc 1 1182 5 is_stmt 1 view .LVU579
 1749              		.loc 1 1182 9 is_stmt 0 view .LVU580
 1750 0010 D0F89020 		ldr	r2, [r0, #144]
 1751              	.LVL115:
 1752              		.loc 1 1182 32 view .LVU581
 1753 0014 4FF40020 		mov	r0, #524288
 1754              	.LVL116:
 1755              		.loc 1 1182 32 view .LVU582
 1756 0018 02EB4113 		add	r3, r2, r1, lsl #5
 1757 001c C3F81009 		str	r0, [r3, #2320]
 1758              		.loc 1 1197 3 is_stmt 1 view .LVU583
 1759              		.loc 1 1197 31 is_stmt 0 view .LVU584
 1760 0020 2368     		ldr	r3, [r4]
 1761 0022 03F00303 		and	r3, r3, #3
 1762              		.loc 1 1197 6 view .LVU585
 1763 0026 012B     		cmp	r3, #1
 1764 0028 2AD0     		beq	.L127
 1765              	.L130:
 1766 002a 08B2     		sxth	r0, r1
 1767              	.LVL117:
ARM GAS  C:\Users\DEVELO~1\AppData\Local\Temp\cc0byXRH.s 			page 32


 1768              	.L118:
 1769              		.loc 1 1206 3 is_stmt 1 view .LVU586
 1770 002c 02EB4010 		add	r0, r2, r0, lsl #5
 1771              		.loc 1 1207 28 is_stmt 0 view .LVU587
 1772 0030 0123     		movs	r3, #1
 1773              		.loc 1 1206 29 view .LVU588
 1774 0032 D0F80049 		ldr	r4, [r0, #2304]
 1775              		.loc 1 1207 28 view .LVU589
 1776 0036 8B40     		lsls	r3, r3, r1
 1777              		.loc 1 1206 29 view .LVU590
 1778 0038 44F00444 		orr	r4, r4, #-2080374784
 1779 003c C0F80049 		str	r4, [r0, #2304]
 1780              		.loc 1 1207 3 is_stmt 1 view .LVU591
 1781              		.loc 1 1207 25 is_stmt 0 view .LVU592
 1782 0040 D2F83418 		ldr	r1, [r2, #2100]
 1783              	.LVL118:
 1784              		.loc 1 1208 1 view .LVU593
 1785 0044 10BC     		pop	{r4}
 1786              		.cfi_remember_state
 1787              		.cfi_restore 4
 1788              		.cfi_def_cfa_offset 0
 1789              		.loc 1 1207 25 view .LVU594
 1790 0046 0B43     		orrs	r3, r3, r1
 1791 0048 C2F83438 		str	r3, [r2, #2100]
 1792              		.loc 1 1208 1 view .LVU595
 1793 004c 7047     		bx	lr
 1794              	.LVL119:
 1795              	.L115:
 1796              		.cfi_restore_state
 1797              	.LBB240:
 1798              		.loc 1 1185 5 is_stmt 1 discriminator 1 view .LVU596
 1799              		.loc 1 1185 19 is_stmt 0 discriminator 1 view .LVU597
 1800 004e 09B9     		cbnz	r1, .L117
 1801 0050 402B     		cmp	r3, #64
 1802 0052 26D8     		bhi	.L129
 1803              	.L117:
 1804              		.loc 1 1189 5 is_stmt 1 view .LVU598
 1805              		.loc 1 1189 49 is_stmt 0 view .LVU599
 1806 0054 B4F810C0 		ldrh	ip, [r4, #16]
 1807              	.LVL120:
 1808              		.loc 1 1192 5 is_stmt 1 view .LVU600
 1809              		.loc 1 1192 9 is_stmt 0 view .LVU601
 1810 0058 D0F89020 		ldr	r2, [r0, #144]
 1811              	.LVL121:
 1812              		.loc 1 1189 62 view .LVU602
 1813 005c 0CF1FF30 		add	r0, ip, #-1
 1814              	.LVL122:
 1815              		.loc 1 1189 62 view .LVU603
 1816 0060 1844     		add	r0, r0, r3
 1817              		.loc 1 1189 14 view .LVU604
 1818 0062 B0FBFCF0 		udiv	r0, r0, ip
 1819              		.loc 1 1192 75 view .LVU605
 1820 0066 43EAC043 		orr	r3, r3, r0, lsl #19
 1821              	.LVL123:
 1822              		.loc 1 1192 32 view .LVU606
 1823 006a 02EB4110 		add	r0, r2, r1, lsl #5
 1824              		.loc 1 1192 75 view .LVU607
ARM GAS  C:\Users\DEVELO~1\AppData\Local\Temp\cc0byXRH.s 			page 33


 1825 006e 43F00053 		orr	r3, r3, #536870912
 1826              		.loc 1 1192 32 view .LVU608
 1827 0072 C0F81039 		str	r3, [r0, #2320]
 1828              	.LBE240:
 1829              		.loc 1 1197 3 is_stmt 1 view .LVU609
 1830              		.loc 1 1197 31 is_stmt 0 view .LVU610
 1831 0076 2368     		ldr	r3, [r4]
 1832 0078 03F00303 		and	r3, r3, #3
 1833              		.loc 1 1197 6 view .LVU611
 1834 007c 012B     		cmp	r3, #1
 1835 007e D4D1     		bne	.L130
 1836              	.L127:
 1837              		.loc 1 1199 5 is_stmt 1 view .LVU612
 1838              		.loc 1 1200 7 view .LVU613
 1839              		.loc 1 1202 7 view .LVU614
 1840              		.loc 1 1199 18 is_stmt 0 view .LVU615
 1841 0080 D2F80838 		ldr	r3, [r2, #2056]
 1842 0084 08B2     		sxth	r0, r1
 1843              		.loc 1 1199 8 view .LVU616
 1844 0086 13F4807F 		tst	r3, #256
 1845 008a 02EB4113 		add	r3, r2, r1, lsl #5
 1846              		.loc 1 1200 33 view .LVU617
 1847 008e D3F80049 		ldr	r4, [r3, #2304]
 1848              	.LVL124:
 1849              		.loc 1 1200 33 view .LVU618
 1850 0092 14BF     		ite	ne
 1851 0094 44F08054 		orrne	r4, r4, #268435456
 1852              		.loc 1 1202 33 view .LVU619
 1853 0098 44F00054 		orreq	r4, r4, #536870912
 1854 009c C3F80049 		str	r4, [r3, #2304]
 1855 00a0 C4E7     		b	.L118
 1856              	.LVL125:
 1857              	.L129:
 1858              	.LBB241:
 1859              		.loc 1 1186 7 is_stmt 1 view .LVU620
 1860              		.loc 1 1186 19 is_stmt 0 view .LVU621
 1861 00a2 4023     		movs	r3, #64
 1862 00a4 1360     		str	r3, [r2]
 1863 00a6 D5E7     		b	.L117
 1864              	.LBE241:
 1865              		.cfi_endproc
 1866              	.LFE458:
 1867              		.size	usb_lld_start_in, .-usb_lld_start_in
 1868              		.section	.text.otg_epin_handler.constprop.0,"ax",%progbits
 1869              		.align	1
 1870              		.p2align 4,,15
 1871              		.syntax unified
 1872              		.thumb
 1873              		.thumb_func
 1874              		.type	otg_epin_handler.constprop.0, %function
 1875              	otg_epin_handler.constprop.0:
 1876              	.LVL126:
 1877              	.LFB468:
 1878              		.loc 1 374 13 is_stmt 1 view -0
 1879              		.cfi_startproc
 1880              		@ args = 0, pretend = 0, frame = 0
 1881              		@ frame_needed = 0, uses_anonymous_args = 0
ARM GAS  C:\Users\DEVELO~1\AppData\Local\Temp\cc0byXRH.s 			page 34


 1882              		.loc 1 375 3 view .LVU623
 1883              		.loc 1 374 13 is_stmt 0 view .LVU624
 1884 0000 2DE9F84F 		push	{r3, r4, r5, r6, r7, r8, r9, r10, fp, lr}
 1885              		.cfi_def_cfa_offset 40
 1886              		.cfi_offset 3, -40
 1887              		.cfi_offset 4, -36
 1888              		.cfi_offset 5, -32
 1889              		.cfi_offset 6, -28
 1890              		.cfi_offset 7, -24
 1891              		.cfi_offset 8, -20
 1892              		.cfi_offset 9, -16
 1893              		.cfi_offset 10, -12
 1894              		.cfi_offset 11, -8
 1895              		.cfi_offset 14, -4
 1896              		.loc 1 375 16 view .LVU625
 1897 0004 DFF80491 		ldr	r9, .L162
 1898              		.loc 1 374 13 view .LVU626
 1899 0008 0446     		mov	r4, r0
 1900              		.loc 1 376 12 view .LVU627
 1901 000a 4FEA401B 		lsl	fp, r0, #5
 1902              		.loc 1 375 16 view .LVU628
 1903 000e D9F89060 		ldr	r6, [r9, #144]
 1904              	.LVL127:
 1905              		.loc 1 376 3 is_stmt 1 view .LVU629
 1906              		.loc 1 376 12 is_stmt 0 view .LVU630
 1907 0012 06EB4013 		add	r3, r6, r0, lsl #5
 1908 0016 D3F80859 		ldr	r5, [r3, #2312]
 1909              	.LVL128:
 1910              		.loc 1 378 3 is_stmt 1 view .LVU631
 1911              		.loc 1 383 6 is_stmt 0 view .LVU632
 1912 001a E907     		lsls	r1, r5, #31
 1913              		.loc 1 378 24 view .LVU633
 1914 001c C3F80859 		str	r5, [r3, #2312]
 1915              		.loc 1 380 3 is_stmt 1 view .LVU634
 1916              		.loc 1 382 3 view .LVU635
 1917              		.loc 1 383 3 view .LVU636
 1918              		.loc 1 383 6 is_stmt 0 view .LVU637
 1919 0020 03D5     		bpl	.L133
 1920              		.loc 1 383 38 view .LVU638
 1921 0022 D6F81038 		ldr	r3, [r6, #2064]
 1922              		.loc 1 383 30 view .LVU639
 1923 0026 DA07     		lsls	r2, r3, #31
 1924 0028 0CD4     		bmi	.L158
 1925              	.LVL129:
 1926              	.L133:
 1927              	.LBB281:
 1928              		.loc 1 399 38 is_stmt 1 view .LVU640
 1929              	.LBE281:
 1930              		.loc 1 402 3 view .LVU641
 1931              		.loc 1 402 6 is_stmt 0 view .LVU642
 1932 002a 2B06     		lsls	r3, r5, #24
 1933 002c 08D5     		bpl	.L131
 1934              		.loc 1 403 27 view .LVU643
 1935 002e 4FF00108 		mov	r8, #1
 1936              		.loc 1 403 12 view .LVU644
 1937 0032 D6F83438 		ldr	r3, [r6, #2100]
 1938              		.loc 1 403 27 view .LVU645
ARM GAS  C:\Users\DEVELO~1\AppData\Local\Temp\cc0byXRH.s 			page 35


 1939 0036 08FA04F8 		lsl	r8, r8, r4
 1940              		.loc 1 402 30 view .LVU646
 1941 003a 13EA080F 		tst	r3, r8
 1942 003e 18D1     		bne	.L159
 1943              	.LVL130:
 1944              	.L131:
 1945              		.loc 1 407 1 view .LVU647
 1946 0040 BDE8F88F 		pop	{r3, r4, r5, r6, r7, r8, r9, r10, fp, pc}
 1947              	.LVL131:
 1948              	.L158:
 1949              	.LBB295:
 1950              		.loc 1 385 5 is_stmt 1 view .LVU648
 1951              		.loc 1 385 40 is_stmt 0 view .LVU649
 1952 0044 09EB8003 		add	r3, r9, r0, lsl #2
 1953 0048 D968     		ldr	r1, [r3, #12]
 1954              		.loc 1 385 25 view .LVU650
 1955 004a 4B69     		ldr	r3, [r1, #20]
 1956              	.LVL132:
 1957              		.loc 1 387 5 is_stmt 1 view .LVU651
 1958              		.loc 1 387 12 is_stmt 0 view .LVU652
 1959 004c 1868     		ldr	r0, [r3]
 1960              	.LVL133:
 1961              		.loc 1 387 26 view .LVU653
 1962 004e DA68     		ldr	r2, [r3, #12]
 1963              		.loc 1 387 8 view .LVU654
 1964 0050 9042     		cmp	r0, r2
 1965 0052 4AD3     		bcc	.L160
 1966              		.loc 1 399 7 is_stmt 1 view .LVU655
 1967 0054 0122     		movs	r2, #1
 1968 0056 B9F80830 		ldrh	r3, [r9, #8]
 1969              	.LVL134:
 1970              		.loc 1 399 7 is_stmt 0 view .LVU656
 1971 005a 8F68     		ldr	r7, [r1, #8]
 1972 005c A240     		lsls	r2, r2, r4
 1973 005e 23EA0203 		bic	r3, r3, r2
 1974 0062 A9F80830 		strh	r3, [r9, #8]	@ movhi
 1975              		.loc 1 399 7 is_stmt 1 view .LVU657
 1976 0066 002F     		cmp	r7, #0
 1977 0068 DFD0     		beq	.L133
 1978              		.loc 1 399 7 view .LVU658
 1979 006a 2146     		mov	r1, r4
 1980              	.LVL135:
 1981              		.loc 1 399 7 is_stmt 0 view .LVU659
 1982 006c 4846     		mov	r0, r9
 1983 006e B847     		blx	r7
 1984              	.LVL136:
 1985              		.loc 1 399 7 view .LVU660
 1986 0070 DBE7     		b	.L133
 1987              	.L159:
 1988              		.loc 1 399 7 view .LVU661
 1989              	.LBE295:
 1990              	.LBB296:
 1991              		.loc 1 331 3 is_stmt 1 view .LVU662
 1992              	.LBB297:
 1993              		.loc 1 332 5 view .LVU663
 1994              		.loc 1 335 5 view .LVU664
 1995              		.loc 1 335 18 is_stmt 0 view .LVU665
ARM GAS  C:\Users\DEVELO~1\AppData\Local\Temp\cc0byXRH.s 			page 36


 1996 0072 09EB8403 		add	r3, r9, r4, lsl #2
 1997 0076 DB68     		ldr	r3, [r3, #12]
 1998              		.loc 1 335 22 view .LVU666
 1999 0078 5E69     		ldr	r6, [r3, #20]
 2000              	.LVL137:
 2001              		.loc 1 335 66 view .LVU667
 2002 007a D6E90075 		ldrd	r7, r5, [r6]
 2003              	.LVL138:
 2004              		.loc 1 335 8 view .LVU668
 2005 007e AF42     		cmp	r7, r5
 2006 0080 41D9     		bls	.L161
 2007              		.loc 1 355 47 view .LVU669
 2008 0082 0134     		adds	r4, r4, #1
 2009              		.loc 1 349 15 view .LVU670
 2010 0084 D9F890A0 		ldr	r10, [r9, #144]
 2011              		.loc 1 344 26 view .LVU671
 2012 0088 B3F81090 		ldrh	r9, [r3, #16]
 2013              		.loc 1 355 47 view .LVU672
 2014 008c E4B2     		uxtb	r4, r4
 2015              		.loc 1 349 28 view .LVU673
 2016 008e 0AEB0B0E 		add	lr, r10, fp
 2017              		.loc 1 355 47 view .LVU674
 2018 0092 0AEB0430 		add	r0, r10, r4, lsl #12
 2019              	.L141:
 2020              		.loc 1 343 5 is_stmt 1 view .LVU675
 2021              	.LVL139:
 2022              		.loc 1 344 5 view .LVU676
 2023              		.loc 1 343 7 is_stmt 0 view .LVU677
 2024 0096 A7EB050C 		sub	ip, r7, r5
 2025              	.LVL140:
 2026              		.loc 1 349 28 view .LVU678
 2027 009a DEF81839 		ldr	r3, [lr, #2328]
 2028 009e CC45     		cmp	ip, r9
 2029              		.loc 1 349 37 view .LVU679
 2030 00a0 9BB2     		uxth	r3, r3
 2031 00a2 28BF     		it	cs
 2032 00a4 CC46     		movcs	ip, r9
 2033              	.LVL141:
 2034              		.loc 1 349 5 is_stmt 1 view .LVU680
 2035              		.loc 1 349 8 is_stmt 0 view .LVU681
 2036 00a6 BCEB830F 		cmp	ip, r3, lsl #2
 2037 00aa C9D8     		bhi	.L131
 2038              		.loc 1 355 5 is_stmt 1 view .LVU682
 2039 00ac B468     		ldr	r4, [r6, #8]
 2040              	.LVL142:
 2041              	.LBB298:
 2042              	.LBI298:
 2043              		.loc 1 233 13 view .LVU683
 2044              	.LBB299:
 2045              		.loc 1 237 3 view .LVU684
 2046              		.loc 1 237 3 view .LVU685
 2047              		.loc 1 237 3 view .LVU686
 2048              		.loc 1 239 3 view .LVU687
 2049              		.loc 1 240 5 view .LVU688
 2050              		.loc 1 241 8 is_stmt 0 view .LVU689
 2051 00ae BCF1040F 		cmp	ip, #4
 2052              		.loc 1 240 14 view .LVU690
ARM GAS  C:\Users\DEVELO~1\AppData\Local\Temp\cc0byXRH.s 			page 37


 2053 00b2 2368     		ldr	r3, [r4]
 2054              		.loc 1 240 12 view .LVU691
 2055 00b4 0360     		str	r3, [r0]
 2056              		.loc 1 241 5 is_stmt 1 view .LVU692
 2057              		.loc 1 241 8 is_stmt 0 view .LVU693
 2058 00b6 0BD9     		bls	.L142
 2059 00b8 ACF10501 		sub	r1, ip, #5
 2060 00bc 2346     		mov	r3, r4
 2061 00be 21F00301 		bic	r1, r1, #3
 2062 00c2 0431     		adds	r1, r1, #4
 2063 00c4 2144     		add	r1, r1, r4
 2064              	.LVL143:
 2065              	.L143:
 2066              		.loc 1 244 5 is_stmt 1 view .LVU694
 2067              		.loc 1 245 5 view .LVU695
 2068              		.loc 1 239 9 view .LVU696
 2069              		.loc 1 237 3 view .LVU697
 2070              		.loc 1 239 3 view .LVU698
 2071              		.loc 1 240 5 view .LVU699
 2072              		.loc 1 240 14 is_stmt 0 view .LVU700
 2073 00c6 53F8042F 		ldr	r2, [r3, #4]!
 2074              	.LVL144:
 2075              		.loc 1 241 8 view .LVU701
 2076 00ca 9942     		cmp	r1, r3
 2077              		.loc 1 240 12 view .LVU702
 2078 00cc 0260     		str	r2, [r0]
 2079              		.loc 1 241 5 is_stmt 1 view .LVU703
 2080              		.loc 1 241 8 is_stmt 0 view .LVU704
 2081 00ce FAD1     		bne	.L143
 2082              	.LVL145:
 2083              	.L142:
 2084              		.loc 1 241 8 view .LVU705
 2085              	.LBE299:
 2086              	.LBE298:
 2087              		.loc 1 358 5 is_stmt 1 view .LVU706
 2088              		.loc 1 359 36 is_stmt 0 view .LVU707
 2089 00d0 6544     		add	r5, r5, ip
 2090              		.loc 1 358 36 view .LVU708
 2091 00d2 6444     		add	r4, r4, ip
 2092              		.loc 1 335 8 view .LVU709
 2093 00d4 BD42     		cmp	r5, r7
 2094              		.loc 1 359 36 view .LVU710
 2095 00d6 C6E90154 		strd	r5, r4, [r6, #4]
 2096              	.LBE297:
 2097              		.loc 1 331 9 is_stmt 1 view .LVU711
 2098              		.loc 1 331 3 view .LVU712
 2099              	.LBB300:
 2100              		.loc 1 332 5 view .LVU713
 2101              		.loc 1 335 5 view .LVU714
 2102              		.loc 1 335 8 is_stmt 0 view .LVU715
 2103 00da DCD3     		bcc	.L141
 2104              	.LVL146:
 2105              	.L140:
 2106              		.loc 1 337 7 is_stmt 1 view .LVU716
 2107              		.loc 1 337 29 is_stmt 0 view .LVU717
 2108 00dc DAF83438 		ldr	r3, [r10, #2100]
 2109 00e0 23EA0803 		bic	r3, r3, r8
ARM GAS  C:\Users\DEVELO~1\AppData\Local\Temp\cc0byXRH.s 			page 38


 2110 00e4 CAF83438 		str	r3, [r10, #2100]
 2111              		.loc 1 339 7 is_stmt 1 view .LVU718
 2112              		.loc 1 339 14 is_stmt 0 view .LVU719
 2113 00e8 AAE7     		b	.L131
 2114              	.LVL147:
 2115              	.L160:
 2116              		.loc 1 339 14 view .LVU720
 2117              	.LBE300:
 2118              	.LBE296:
 2119              	.LBB302:
 2120              		.loc 1 391 7 is_stmt 1 view .LVU721
 2121              		.loc 1 391 34 is_stmt 0 view .LVU722
 2122 00ea 121A     		subs	r2, r2, r0
 2123              		.loc 1 392 19 view .LVU723
 2124 00ec 0027     		movs	r7, #0
 2125              		.loc 1 391 19 view .LVU724
 2126 00ee 1A60     		str	r2, [r3]
 2127              		.loc 1 392 7 is_stmt 1 view .LVU725
 2128              		.loc 1 392 19 is_stmt 0 view .LVU726
 2129 00f0 5F60     		str	r7, [r3, #4]
 2130              		.loc 1 393 7 is_stmt 1 view .LVU727
 2131              	.LBB282:
 2132              	.LBI282:
 2133              		.loc 2 595 20 view .LVU728
 2134              		.loc 2 597 3 view .LVU729
 2135              	.LBB283:
 2136              	.LBI283:
 2137              		.loc 5 451 20 view .LVU730
 2138              		.loc 5 453 3 view .LVU731
 2139              	.LBB284:
 2140              	.LBI284:
 2141              		.loc 6 845 27 view .LVU732
 2142              		.loc 6 847 3 view .LVU733
 2143              	.LBB285:
 2144              	.LBI285:
 2145              		.loc 6 806 27 view .LVU734
 2146              		.loc 6 814 3 view .LVU735
 2147              	.LVL148:
 2148              	.LBB286:
 2149              	.LBI286:
 2150              		.loc 4 491 27 view .LVU736
 2151              	.LBB287:
 2152              		.loc 4 493 3 view .LVU737
 2153 00f2 3023     		movs	r3, #48
 2154              	.LVL149:
 2155              		.loc 4 493 3 is_stmt 0 view .LVU738
 2156              		.syntax unified
 2157              	@ 493 "../../../os/common/ext/ARM/CMSIS/Core/Include/cmsis_gcc.h" 1
 2158 00f4 83F31188 		MSR basepri, r3
 2159              	@ 0 "" 2
 2160              	.LVL150:
 2161              		.loc 4 493 3 view .LVU739
 2162              		.thumb
 2163              		.syntax unified
 2164              	.LBE287:
 2165              	.LBE286:
 2166              	.LBE285:
ARM GAS  C:\Users\DEVELO~1\AppData\Local\Temp\cc0byXRH.s 			page 39


 2167              	.LBE284:
 2168              		.loc 5 454 35 is_stmt 1 view .LVU740
 2169              		.loc 5 455 30 view .LVU741
 2170              	.LBE283:
 2171              	.LBE282:
 2172              		.loc 1 394 7 view .LVU742
 2173 00f8 2146     		mov	r1, r4
 2174              	.LVL151:
 2175              		.loc 1 394 7 is_stmt 0 view .LVU743
 2176 00fa 4846     		mov	r0, r9
 2177 00fc FFF7FEFF 		bl	usb_lld_start_in
 2178              	.LVL152:
 2179              		.loc 1 395 7 is_stmt 1 view .LVU744
 2180              	.LBB288:
 2181              	.LBI288:
 2182              		.loc 2 606 20 view .LVU745
 2183              	.LBB289:
 2184              		.loc 2 608 3 view .LVU746
 2185              	.LBB290:
 2186              	.LBI290:
 2187              		.loc 5 473 20 view .LVU747
 2188              		.loc 5 475 32 view .LVU748
 2189              		.loc 5 476 34 view .LVU749
 2190              		.loc 5 477 3 view .LVU750
 2191              	.LBB291:
 2192              	.LBI291:
 2193              		.loc 6 856 27 view .LVU751
 2194              		.loc 6 858 3 view .LVU752
 2195              	.LBB292:
 2196              	.LBI292:
 2197              		.loc 6 830 27 view .LVU753
 2198              		.loc 6 833 3 view .LVU754
 2199              	.LBB293:
 2200              	.LBI293:
 2201              		.loc 4 491 27 view .LVU755
 2202              	.LBB294:
 2203              		.loc 4 493 3 view .LVU756
 2204              		.syntax unified
 2205              	@ 493 "../../../os/common/ext/ARM/CMSIS/Core/Include/cmsis_gcc.h" 1
 2206 0100 87F31188 		MSR basepri, r7
 2207              	@ 0 "" 2
 2208              	.LVL153:
 2209              		.loc 4 493 3 is_stmt 0 view .LVU757
 2210              		.thumb
 2211              		.syntax unified
 2212              	.LBE294:
 2213              	.LBE293:
 2214              	.LBE292:
 2215              	.LBE291:
 2216              	.LBE290:
 2217              		.loc 2 609 1 view .LVU758
 2218 0104 91E7     		b	.L133
 2219              	.LVL154:
 2220              	.L161:
 2221              		.loc 2 609 1 view .LVU759
 2222              	.LBE289:
 2223              	.LBE288:
ARM GAS  C:\Users\DEVELO~1\AppData\Local\Temp\cc0byXRH.s 			page 40


 2224              	.LBE302:
 2225              	.LBB303:
 2226              	.LBB301:
 2227              		.loc 1 337 11 view .LVU760
 2228 0106 D9F890A0 		ldr	r10, [r9, #144]
 2229 010a E7E7     		b	.L140
 2230              	.L163:
 2231              		.align	2
 2232              	.L162:
 2233 010c 00000000 		.word	.LANCHOR0
 2234              	.LBE301:
 2235              	.LBE303:
 2236              		.cfi_endproc
 2237              	.LFE468:
 2238              		.size	otg_epin_handler.constprop.0, .-otg_epin_handler.constprop.0
 2239              		.section	.text.Vector1D4,"ax",%progbits
 2240              		.align	1
 2241              		.p2align 4,,15
 2242              		.global	Vector1D4
 2243              		.syntax unified
 2244              		.thumb
 2245              		.thumb_func
 2246              		.type	Vector1D4, %function
 2247              	Vector1D4:
 2248              	.LFB446:
 2249              		.loc 1 680 38 is_stmt 1 view -0
 2250              		.cfi_startproc
 2251              		@ args = 0, pretend = 0, frame = 0
 2252              		@ frame_needed = 0, uses_anonymous_args = 0
 2253              		.loc 1 682 3 view .LVU762
 2254              		.loc 1 682 3 view .LVU763
 2255              		.loc 1 682 3 view .LVU764
 2256              		.loc 1 682 3 view .LVU765
 2257              		.loc 1 682 3 view .LVU766
 2258              		.loc 1 680 38 is_stmt 0 view .LVU767
 2259 0000 2DE9F84F 		push	{r3, r4, r5, r6, r7, r8, r9, r10, fp, lr}
 2260              		.cfi_def_cfa_offset 40
 2261              		.cfi_offset 3, -40
 2262              		.cfi_offset 4, -36
 2263              		.cfi_offset 5, -32
 2264              		.cfi_offset 6, -28
 2265              		.cfi_offset 7, -24
 2266              		.cfi_offset 8, -20
 2267              		.cfi_offset 9, -16
 2268              		.cfi_offset 10, -12
 2269              		.cfi_offset 11, -8
 2270              		.cfi_offset 14, -4
 2271              	.LBB320:
 2272              	.LBB321:
 2273              		.loc 1 532 16 view .LVU768
 2274 0004 A64E     		ldr	r6, .L332
 2275              	.LBE321:
 2276              	.LBE320:
 2277              		.loc 1 682 3 view .LVU769
 2278 0006 A748     		ldr	r0, .L332+4
 2279 0008 FFF7FEFF 		bl	__trace_isr_enter
 2280              	.LVL155:
ARM GAS  C:\Users\DEVELO~1\AppData\Local\Temp\cc0byXRH.s 			page 41


 2281              		.loc 1 682 22 is_stmt 1 view .LVU770
 2282              		.loc 1 684 3 view .LVU771
 2283              	.LBB343:
 2284              	.LBI320:
 2285              		.loc 1 531 13 view .LVU772
 2286              	.LBB339:
 2287              		.loc 1 532 3 view .LVU773
 2288              		.loc 1 532 16 is_stmt 0 view .LVU774
 2289 000c D6F89070 		ldr	r7, [r6, #144]
 2290              	.LVL156:
 2291              		.loc 1 533 3 is_stmt 1 view .LVU775
 2292              		.loc 1 535 3 view .LVU776
 2293              		.loc 1 535 8 is_stmt 0 view .LVU777
 2294 0010 7D69     		ldr	r5, [r7, #20]
 2295              	.LVL157:
 2296              		.loc 1 536 3 is_stmt 1 view .LVU778
 2297              		.loc 1 536 14 is_stmt 0 view .LVU779
 2298 0012 BB69     		ldr	r3, [r7, #24]
 2299              		.loc 1 536 7 view .LVU780
 2300 0014 1D40     		ands	r5, r5, r3
 2301              	.LVL158:
 2302              		.loc 1 537 3 is_stmt 1 view .LVU781
 2303              		.loc 1 540 6 is_stmt 0 view .LVU782
 2304 0016 15F48058 		ands	r8, r5, #4096
 2305              		.loc 1 537 17 view .LVU783
 2306 001a 7D61     		str	r5, [r7, #20]
 2307              		.loc 1 540 3 is_stmt 1 view .LVU784
 2308              		.loc 1 540 6 is_stmt 0 view .LVU785
 2309 001c 40F02481 		bne	.L307
 2310              		.loc 1 549 3 is_stmt 1 view .LVU786
 2311              		.loc 1 549 6 is_stmt 0 view .LVU787
 2312 0020 002D     		cmp	r5, #0
 2313 0022 C0F2AB80 		blt	.L308
 2314              		.loc 1 564 3 is_stmt 1 view .LVU788
 2315              		.loc 1 564 6 is_stmt 0 view .LVU789
 2316 0026 2905     		lsls	r1, r5, #20
 2317 0028 00F1BE80 		bmi	.L309
 2318              	.L169:
 2319              		.loc 1 573 3 is_stmt 1 view .LVU790
 2320              		.loc 1 573 6 is_stmt 0 view .LVU791
 2321 002c AA04     		lsls	r2, r5, #18
 2322 002e 0CD5     		bpl	.L170
 2323              		.loc 1 575 5 is_stmt 1 view .LVU792
 2324              		.loc 1 575 14 is_stmt 0 view .LVU793
 2325 0030 D7F80838 		ldr	r3, [r7, #2056]
 2326              		.loc 1 575 8 view .LVU794
 2327 0034 13F0060F 		tst	r3, #6
 2328              		.loc 1 576 28 view .LVU795
 2329 0038 FB68     		ldr	r3, [r7, #12]
 2330              		.loc 1 576 38 view .LVU796
 2331 003a 23F47053 		bic	r3, r3, #15360
 2332              		.loc 1 576 7 is_stmt 1 view .LVU797
 2333              		.loc 1 576 62 is_stmt 0 view .LVU798
 2334 003e 0CBF     		ite	eq
 2335 0040 43F41053 		orreq	r3, r3, #9216
 2336              		.loc 1 580 7 is_stmt 1 view .LVU799
 2337              		.loc 1 580 62 is_stmt 0 view .LVU800
ARM GAS  C:\Users\DEVELO~1\AppData\Local\Temp\cc0byXRH.s 			page 42


 2338 0044 43F4A053 		orrne	r3, r3, #5120
 2339              		.loc 1 580 21 view .LVU801
 2340 0048 FB60     		str	r3, [r7, #12]
 2341              	.L170:
 2342              		.loc 1 586 3 is_stmt 1 view .LVU802
 2343              		.loc 1 586 6 is_stmt 0 view .LVU803
 2344 004a 2B07     		lsls	r3, r5, #28
 2345 004c 4AD4     		bmi	.L310
 2346              	.L172:
 2347              		.loc 1 587 33 is_stmt 1 view .LVU804
 2348              		.loc 1 591 3 view .LVU805
 2349              		.loc 1 591 6 is_stmt 0 view .LVU806
 2350 004e EC02     		lsls	r4, r5, #11
 2351 0050 50D4     		bmi	.L173
 2352              	.L182:
 2353              		.loc 1 596 3 is_stmt 1 view .LVU807
 2354              		.loc 1 596 6 is_stmt 0 view .LVU808
 2355 0052 A802     		lsls	r0, r5, #10
 2356 0054 00F1DB80 		bmi	.L311
 2357              	.L175:
 2358              		.loc 1 602 3 is_stmt 1 view .LVU809
 2359              		.loc 1 602 6 is_stmt 0 view .LVU810
 2360 0058 EB06     		lsls	r3, r5, #27
 2361 005a 00F1AD80 		bmi	.L312
 2362              	.L189:
 2363              		.loc 1 607 3 is_stmt 1 view .LVU811
 2364              		.loc 1 608 6 is_stmt 0 view .LVU812
 2365 005e 2B03     		lsls	r3, r5, #12
 2366              		.loc 1 607 7 view .LVU813
 2367 0060 D7F81848 		ldr	r4, [r7, #2072]
 2368              	.LVL159:
 2369              		.loc 1 608 3 is_stmt 1 view .LVU814
 2370              		.loc 1 608 6 is_stmt 0 view .LVU815
 2371 0064 1AD5     		bpl	.L199
 2372              		.loc 1 609 5 is_stmt 1 view .LVU816
 2373              		.loc 1 609 8 is_stmt 0 view .LVU817
 2374 0066 E703     		lsls	r7, r4, #15
 2375              	.LVL160:
 2376              		.loc 1 609 8 view .LVU818
 2377 0068 00F19A81 		bmi	.L313
 2378              	.L200:
 2379              		.loc 1 611 5 is_stmt 1 view .LVU819
 2380              		.loc 1 611 8 is_stmt 0 view .LVU820
 2381 006c A603     		lsls	r6, r4, #14
 2382 006e 00F19381 		bmi	.L314
 2383              	.L201:
 2384              		.loc 1 613 5 is_stmt 1 view .LVU821
 2385              		.loc 1 613 8 is_stmt 0 view .LVU822
 2386 0072 6003     		lsls	r0, r4, #13
 2387 0074 00F18C81 		bmi	.L315
 2388              	.L202:
 2389              		.loc 1 615 5 is_stmt 1 view .LVU823
 2390              		.loc 1 615 8 is_stmt 0 view .LVU824
 2391 0078 2103     		lsls	r1, r4, #12
 2392 007a 00F16D81 		bmi	.L316
 2393              		.loc 1 618 5 is_stmt 1 view .LVU825
 2394              		.loc 1 618 8 is_stmt 0 view .LVU826
ARM GAS  C:\Users\DEVELO~1\AppData\Local\Temp\cc0byXRH.s 			page 43


 2395 007e E202     		lsls	r2, r4, #11
 2396 0080 00F17081 		bmi	.L317
 2397              	.L204:
 2398              		.loc 1 622 5 is_stmt 1 view .LVU827
 2399              		.loc 1 622 8 is_stmt 0 view .LVU828
 2400 0084 A302     		lsls	r3, r4, #10
 2401 0086 00F17381 		bmi	.L318
 2402              	.L205:
 2403              		.loc 1 626 5 is_stmt 1 view .LVU829
 2404              		.loc 1 626 8 is_stmt 0 view .LVU830
 2405 008a 6702     		lsls	r7, r4, #9
 2406 008c 00F17681 		bmi	.L319
 2407              	.L206:
 2408              		.loc 1 630 5 is_stmt 1 view .LVU831
 2409              		.loc 1 630 8 is_stmt 0 view .LVU832
 2410 0090 2602     		lsls	r6, r4, #8
 2411 0092 00F17981 		bmi	.L320
 2412              	.L207:
 2413              		.loc 1 634 5 is_stmt 1 view .LVU833
 2414              		.loc 1 634 8 is_stmt 0 view .LVU834
 2415 0096 E001     		lsls	r0, r4, #7
 2416 0098 00F1F080 		bmi	.L321
 2417              	.L199:
 2418              		.loc 1 638 3 is_stmt 1 view .LVU835
 2419              		.loc 1 638 6 is_stmt 0 view .LVU836
 2420 009c 6903     		lsls	r1, r5, #13
 2421 009e 1AD5     		bpl	.L166
 2422              	.L331:
 2423              		.loc 1 639 5 is_stmt 1 view .LVU837
 2424              		.loc 1 639 8 is_stmt 0 view .LVU838
 2425 00a0 E207     		lsls	r2, r4, #31
 2426 00a2 00F12B81 		bmi	.L322
 2427              		.loc 1 641 5 is_stmt 1 view .LVU839
 2428              		.loc 1 641 8 is_stmt 0 view .LVU840
 2429 00a6 A307     		lsls	r3, r4, #30
 2430 00a8 00F12E81 		bmi	.L323
 2431              	.L211:
 2432              		.loc 1 643 5 is_stmt 1 view .LVU841
 2433              		.loc 1 643 8 is_stmt 0 view .LVU842
 2434 00ac 6707     		lsls	r7, r4, #29
 2435 00ae 00F13181 		bmi	.L324
 2436              	.L212:
 2437              		.loc 1 645 5 is_stmt 1 view .LVU843
 2438              		.loc 1 645 8 is_stmt 0 view .LVU844
 2439 00b2 2607     		lsls	r6, r4, #28
 2440 00b4 00F13481 		bmi	.L325
 2441              	.L213:
 2442              		.loc 1 648 5 is_stmt 1 view .LVU845
 2443              		.loc 1 648 8 is_stmt 0 view .LVU846
 2444 00b8 E506     		lsls	r5, r4, #27
 2445              	.LVL161:
 2446              		.loc 1 648 8 view .LVU847
 2447 00ba 00F13781 		bmi	.L326
 2448              	.L214:
 2449              		.loc 1 652 5 is_stmt 1 view .LVU848
 2450              		.loc 1 652 8 is_stmt 0 view .LVU849
 2451 00be A006     		lsls	r0, r4, #26
ARM GAS  C:\Users\DEVELO~1\AppData\Local\Temp\cc0byXRH.s 			page 44


 2452 00c0 00F13A81 		bmi	.L327
 2453              	.L215:
 2454              		.loc 1 656 5 is_stmt 1 view .LVU850
 2455              		.loc 1 656 8 is_stmt 0 view .LVU851
 2456 00c4 6106     		lsls	r1, r4, #25
 2457 00c6 00F13D81 		bmi	.L328
 2458              	.L216:
 2459              		.loc 1 660 5 is_stmt 1 view .LVU852
 2460              		.loc 1 660 8 is_stmt 0 view .LVU853
 2461 00ca 2206     		lsls	r2, r4, #24
 2462 00cc 00F14081 		bmi	.L329
 2463              	.L217:
 2464              		.loc 1 664 5 is_stmt 1 view .LVU854
 2465              		.loc 1 664 8 is_stmt 0 view .LVU855
 2466 00d0 E305     		lsls	r3, r4, #23
 2467 00d2 00F1DA80 		bmi	.L330
 2468              	.L166:
 2469              	.LVL162:
 2470              		.loc 1 664 8 view .LVU856
 2471              	.LBE339:
 2472              	.LBE343:
 2473              		.loc 1 686 3 is_stmt 1 view .LVU857
 2474              		.loc 1 686 3 view .LVU858
 2475 00d6 7348     		ldr	r0, .L332+4
 2476 00d8 FFF7FEFF 		bl	__trace_isr_leave
 2477              	.LVL163:
 2478              		.loc 1 686 3 view .LVU859
 2479              		.loc 1 686 3 view .LVU860
 2480              		.loc 1 686 3 view .LVU861
 2481              		.loc 1 687 1 is_stmt 0 view .LVU862
 2482 00dc BDE8F84F 		pop	{r3, r4, r5, r6, r7, r8, r9, r10, fp, lr}
 2483              		.cfi_remember_state
 2484              		.cfi_restore 14
 2485              		.cfi_restore 11
 2486              		.cfi_restore 10
 2487              		.cfi_restore 9
 2488              		.cfi_restore 8
 2489              		.cfi_restore 7
 2490              		.cfi_restore 6
 2491              		.cfi_restore 5
 2492              		.cfi_restore 4
 2493              		.cfi_restore 3
 2494              		.cfi_def_cfa_offset 0
 2495              		.loc 1 686 3 view .LVU863
 2496 00e0 FFF7FEBF 		b	__port_irq_epilogue
 2497              	.LVL164:
 2498              	.L310:
 2499              		.cfi_restore_state
 2500              	.LBB344:
 2501              	.LBB340:
 2502              		.loc 1 587 5 is_stmt 1 view .LVU864
 2503 00e4 7368     		ldr	r3, [r6, #4]
 2504 00e6 DB68     		ldr	r3, [r3, #12]
 2505 00e8 002B     		cmp	r3, #0
 2506 00ea B0D0     		beq	.L172
 2507              		.loc 1 587 5 view .LVU865
 2508 00ec 6C48     		ldr	r0, .L332
ARM GAS  C:\Users\DEVELO~1\AppData\Local\Temp\cc0byXRH.s 			page 45


 2509 00ee 9847     		blx	r3
 2510              	.LVL165:
 2511              		.loc 1 587 33 view .LVU866
 2512              		.loc 1 591 3 view .LVU867
 2513              		.loc 1 591 6 is_stmt 0 view .LVU868
 2514 00f0 EC02     		lsls	r4, r5, #11
 2515 00f2 AED5     		bpl	.L182
 2516              	.L173:
 2517              		.loc 1 592 5 is_stmt 1 view .LVU869
 2518              	.LBB322:
 2519              	.LBI322:
 2520              		.loc 1 474 13 view .LVU870
 2521              	.LVL166:
 2522              	.LBB323:
 2523              		.loc 1 475 3 view .LVU871
 2524              		.loc 1 476 3 view .LVU872
 2525              		.loc 1 478 19 is_stmt 0 view .LVU873
 2526 00f4 0021     		movs	r1, #0
 2527              		.loc 1 476 16 view .LVU874
 2528 00f6 D6F890B0 		ldr	fp, [r6, #144]
 2529              	.LVL167:
 2530              		.loc 1 478 3 is_stmt 1 view .LVU875
 2531              		.loc 1 478 19 view .LVU876
 2532              		.loc 1 491 7 is_stmt 0 view .LVU877
 2533 00fa 4FF00109 		mov	r9, #1
 2534 00fe DFF8A0A1 		ldr	r10, .L332
 2535              		.loc 1 478 11 view .LVU878
 2536 0102 0C46     		mov	r4, r1
 2537 0104 07E0     		b	.L181
 2538              	.LVL168:
 2539              	.L177:
 2540              		.loc 1 491 38 is_stmt 1 view .LVU879
 2541              		.loc 1 478 56 view .LVU880
 2542 0106 0134     		adds	r4, r4, #1
 2543              	.LVL169:
 2544              		.loc 1 478 37 is_stmt 0 view .LVU881
 2545 0108 D6F89430 		ldr	r3, [r6, #148]
 2546              		.loc 1 478 56 view .LVU882
 2547 010c E4B2     		uxtb	r4, r4
 2548              	.LVL170:
 2549              		.loc 1 478 19 is_stmt 1 view .LVU883
 2550 010e 9B68     		ldr	r3, [r3, #8]
 2551 0110 9C42     		cmp	r4, r3
 2552 0112 2146     		mov	r1, r4
 2553 0114 9DD8     		bhi	.L182
 2554              	.LVL171:
 2555              	.L181:
 2556              		.loc 1 479 5 view .LVU884
 2557 0116 0BEB4412 		add	r2, fp, r4, lsl #5
 2558              		.loc 1 479 23 is_stmt 0 view .LVU885
 2559 011a D2F80039 		ldr	r3, [r2, #2304]
 2560              		.loc 1 479 32 view .LVU886
 2561 011e 03F44023 		and	r3, r3, #786432
 2562              		.loc 1 479 8 view .LVU887
 2563 0122 B3F5802F 		cmp	r3, #262144
 2564 0126 EED1     		bne	.L177
 2565              		.loc 1 480 23 view .LVU888
ARM GAS  C:\Users\DEVELO~1\AppData\Local\Temp\cc0byXRH.s 			page 46


 2566 0128 D2F80039 		ldr	r3, [r2, #2304]
 2567              		.loc 1 479 76 view .LVU889
 2568 012c 002B     		cmp	r3, #0
 2569 012e EADA     		bge	.L177
 2570              		.loc 1 483 7 is_stmt 1 view .LVU890
 2571              		.loc 1 483 28 is_stmt 0 view .LVU891
 2572 0130 D2F80039 		ldr	r3, [r2, #2304]
 2573 0134 43F09043 		orr	r3, r3, #1207959552
 2574 0138 C2F80039 		str	r3, [r2, #2304]
 2575              		.loc 1 484 7 is_stmt 1 view .LVU892
 2576              	.L179:
 2577              		.loc 1 484 14 view .LVU893
 2578              		.loc 1 484 26 is_stmt 0 view .LVU894
 2579 013c D2F80039 		ldr	r3, [r2, #2304]
 2580              		.loc 1 484 14 view .LVU895
 2581 0140 002B     		cmp	r3, #0
 2582 0142 FBDB     		blt	.L179
 2583              		.loc 1 488 7 is_stmt 1 view .LVU896
 2584              	.LBB324:
 2585              	.LBB325:
 2586              		.loc 1 187 19 is_stmt 0 view .LVU897
 2587 0144 8901     		lsls	r1, r1, #6
 2588 0146 D6F89020 		ldr	r2, [r6, #144]
 2589              	.LVL172:
 2590              		.loc 1 187 19 view .LVU898
 2591              	.LBE325:
 2592              	.LBI324:
 2593              		.loc 1 184 13 is_stmt 1 view .LVU899
 2594              	.LBB328:
 2595              		.loc 1 185 3 view .LVU900
 2596              		.loc 1 187 3 view .LVU901
 2597              		.loc 1 187 40 is_stmt 0 view .LVU902
 2598 014a 41F02001 		orr	r1, r1, #32
 2599              		.loc 1 187 17 view .LVU903
 2600 014e 1161     		str	r1, [r2, #16]
 2601              		.loc 1 188 3 is_stmt 1 view .LVU904
 2602              	.L180:
 2603              		.loc 1 188 44 view .LVU905
 2604              		.loc 1 188 15 is_stmt 0 view .LVU906
 2605 0150 1369     		ldr	r3, [r2, #16]
 2606              		.loc 1 188 44 view .LVU907
 2607 0152 9906     		lsls	r1, r3, #26
 2608 0154 FCD4     		bmi	.L180
 2609              		.loc 1 191 3 is_stmt 1 view .LVU908
 2610              	.LVL173:
 2611              	.LBB326:
 2612              	.LBI326:
 2613              		.loc 2 653 20 view .LVU909
 2614              	.LBB327:
 2615              		.loc 2 655 3 view .LVU910
 2616 0156 1220     		movs	r0, #18
 2617 0158 FFF7FEFF 		bl	chSysPolledDelayX
 2618              	.LVL174:
 2619              		.loc 2 655 3 is_stmt 0 view .LVU911
 2620              	.LBE327:
 2621              	.LBE326:
 2622              	.LBE328:
ARM GAS  C:\Users\DEVELO~1\AppData\Local\Temp\cc0byXRH.s 			page 47


 2623              	.LBE324:
 2624              		.loc 1 491 7 is_stmt 1 view .LVU912
 2625 015c 09FA04F1 		lsl	r1, r9, r4
 2626 0160 06EB8403 		add	r3, r6, r4, lsl #2
 2627 0164 DB68     		ldr	r3, [r3, #12]
 2628 0166 9A68     		ldr	r2, [r3, #8]
 2629 0168 3389     		ldrh	r3, [r6, #8]
 2630 016a 23EA0103 		bic	r3, r3, r1
 2631 016e 3381     		strh	r3, [r6, #8]	@ movhi
 2632              		.loc 1 491 7 view .LVU913
 2633 0170 002A     		cmp	r2, #0
 2634 0172 C8D0     		beq	.L177
 2635              		.loc 1 491 7 view .LVU914
 2636 0174 2146     		mov	r1, r4
 2637 0176 5046     		mov	r0, r10
 2638 0178 9047     		blx	r2
 2639              	.LVL175:
 2640 017a C4E7     		b	.L177
 2641              	.LVL176:
 2642              	.L308:
 2643              		.loc 1 491 7 is_stmt 0 view .LVU915
 2644              	.LBE323:
 2645              	.LBE322:
 2646              		.loc 1 552 5 is_stmt 1 view .LVU916
 2647              		.loc 1 552 13 is_stmt 0 view .LVU917
 2648 017c D7F8003E 		ldr	r3, [r7, #3584]
 2649              		.loc 1 552 8 view .LVU918
 2650 0180 9807     		lsls	r0, r3, #30
 2651 0182 05D0     		beq	.L168
 2652              		.loc 1 554 7 is_stmt 1 view .LVU919
 2653              		.loc 1 554 21 is_stmt 0 view .LVU920
 2654 0184 D7F8003E 		ldr	r3, [r7, #3584]
 2655 0188 23F00303 		bic	r3, r3, #3
 2656 018c C7F8003E 		str	r3, [r7, #3584]
 2657              	.L168:
 2658              		.loc 1 558 5 is_stmt 1 view .LVU921
 2659              		.loc 1 558 16 is_stmt 0 view .LVU922
 2660 0190 D7F80438 		ldr	r3, [r7, #2052]
 2661              		.loc 1 560 5 view .LVU923
 2662 0194 4248     		ldr	r0, .L332
 2663              		.loc 1 558 16 view .LVU924
 2664 0196 23F00103 		bic	r3, r3, #1
 2665 019a C7F80438 		str	r3, [r7, #2052]
 2666              		.loc 1 560 5 is_stmt 1 view .LVU925
 2667 019e FFF7FEFF 		bl	_usb_wakeup
 2668              	.LVL177:
 2669              		.loc 1 564 3 view .LVU926
 2670              		.loc 1 564 6 is_stmt 0 view .LVU927
 2671 01a2 2905     		lsls	r1, r5, #20
 2672 01a4 7FF542AF 		bpl	.L169
 2673              	.L309:
 2674              		.loc 1 566 5 is_stmt 1 view .LVU928
 2675 01a8 D6E92401 		ldrd	r0, r1, [r6, #144]
 2676 01ac FFF7FEFF 		bl	otg_disable_ep.isra.0
 2677              	.LVL178:
 2678              		.loc 1 569 5 view .LVU929
 2679 01b0 3B48     		ldr	r0, .L332
ARM GAS  C:\Users\DEVELO~1\AppData\Local\Temp\cc0byXRH.s 			page 48


 2680 01b2 FFF7FEFF 		bl	_usb_suspend
 2681              	.LVL179:
 2682 01b6 39E7     		b	.L169
 2683              	.L312:
 2684              		.loc 1 603 5 view .LVU930
 2685              	.LBB329:
 2686              	.LBI329:
 2687              		.loc 1 285 13 view .LVU931
 2688              	.LVL180:
 2689              	.LBB330:
 2690              		.loc 1 286 3 view .LVU932
 2691              		.loc 1 289 3 view .LVU933
 2692              		.loc 1 289 13 is_stmt 0 view .LVU934
 2693 01b8 D6F89010 		ldr	r1, [r6, #144]
 2694              		.loc 1 289 7 view .LVU935
 2695 01bc 0B6A     		ldr	r3, [r1, #32]
 2696              	.LVL181:
 2697              		.loc 1 292 3 is_stmt 1 view .LVU936
 2698              		.loc 1 295 15 is_stmt 0 view .LVU937
 2699 01be 03F4F010 		and	r0, r3, #1966080
 2700              		.loc 1 292 7 view .LVU938
 2701 01c2 C3F30A12 		ubfx	r2, r3, #4, #11
 2702              	.LVL182:
 2703              		.loc 1 293 3 is_stmt 1 view .LVU939
 2704              		.loc 1 293 7 is_stmt 0 view .LVU940
 2705 01c6 03F00F03 		and	r3, r3, #15
 2706              	.LVL183:
 2707              		.loc 1 295 3 is_stmt 1 view .LVU941
 2708 01ca B0F5802F 		cmp	r0, #262144
 2709 01ce 6BD0     		beq	.L190
 2710 01d0 B0F5402F 		cmp	r0, #786432
 2711 01d4 7FF443AF 		bne	.L189
 2712              		.loc 1 297 5 view .LVU942
 2713              		.loc 1 297 58 is_stmt 0 view .LVU943
 2714 01d8 06EB8303 		add	r3, r6, r3, lsl #2
 2715              	.LVL184:
 2716              		.loc 1 297 62 view .LVU944
 2717 01dc DB68     		ldr	r3, [r3, #12]
 2718 01de 186A     		ldr	r0, [r3, #32]
 2719              	.LVL185:
 2720              	.LBB331:
 2721              	.LBI331:
 2722              		.loc 1 259 13 is_stmt 1 view .LVU945
 2723              	.LBB332:
 2724              		.loc 1 263 3 view .LVU946
 2725              		.loc 1 264 3 view .LVU947
 2726              		.loc 1 266 3 view .LVU948
 2727              		.loc 1 266 12 view .LVU949
 2728 01e0 002A     		cmp	r2, #0
 2729 01e2 3FF43CAF 		beq	.L189
 2730              		.loc 1 268 9 is_stmt 0 view .LVU950
 2731 01e6 01F58054 		add	r4, r1, #4096
 2732              	.LVL186:
 2733              		.loc 1 264 10 view .LVU951
 2734 01ea 0023     		movs	r3, #0
 2735              	.LVL187:
 2736              	.L193:
ARM GAS  C:\Users\DEVELO~1\AppData\Local\Temp\cc0byXRH.s 			page 49


 2737              		.loc 1 267 5 is_stmt 1 view .LVU952
 2738              		.loc 1 268 7 view .LVU953
 2739              		.loc 1 270 5 view .LVU954
 2740              		.loc 1 271 7 view .LVU955
 2741              		.loc 1 267 8 is_stmt 0 view .LVU956
 2742 01ec 9E07     		lsls	r6, r3, #30
 2743              		.loc 1 271 11 view .LVU957
 2744 01ee 0146     		mov	r1, r0
 2745              	.LVL188:
 2746              		.loc 1 267 8 view .LVU958
 2747 01f0 01D1     		bne	.L191
 2748              		.loc 1 268 9 view .LVU959
 2749 01f2 D4F80080 		ldr	r8, [r4]
 2750              	.L191:
 2751              		.loc 1 270 8 view .LVU960
 2752 01f6 072B     		cmp	r3, #7
 2753              		.loc 1 274 6 view .LVU961
 2754 01f8 03F10103 		add	r3, r3, #1
 2755              	.LVL189:
 2756              		.loc 1 270 8 view .LVU962
 2757 01fc 04D8     		bhi	.L192
 2758              		.loc 1 271 16 view .LVU963
 2759 01fe 01F8018B 		strb	r8, [r1], #1
 2760              		.loc 1 272 7 is_stmt 1 view .LVU964
 2761              	.LVL190:
 2762              		.loc 1 272 9 is_stmt 0 view .LVU965
 2763 0202 4FEA1828 		lsr	r8, r8, #8
 2764              	.LVL191:
 2765              		.loc 1 271 11 view .LVU966
 2766 0206 0846     		mov	r0, r1
 2767              	.LVL192:
 2768              	.L192:
 2769              		.loc 1 274 5 is_stmt 1 view .LVU967
 2770              		.loc 1 266 12 view .LVU968
 2771 0208 9A42     		cmp	r2, r3
 2772 020a EFD1     		bne	.L193
 2773 020c 27E7     		b	.L189
 2774              	.LVL193:
 2775              	.L311:
 2776              		.loc 1 266 12 is_stmt 0 view .LVU969
 2777              	.LBE332:
 2778              	.LBE331:
 2779              	.LBE330:
 2780              	.LBE329:
 2781              		.loc 1 597 5 is_stmt 1 view .LVU970
 2782              	.LBB336:
 2783              	.LBI336:
 2784              		.loc 1 503 13 view .LVU971
 2785              	.LBB337:
 2786              		.loc 1 504 3 view .LVU972
 2787              		.loc 1 505 3 view .LVU973
 2788              		.loc 1 505 16 is_stmt 0 view .LVU974
 2789 020e D6F89090 		ldr	r9, [r6, #144]
 2790              	.LVL194:
 2791              		.loc 1 507 3 is_stmt 1 view .LVU975
 2792              		.loc 1 507 19 view .LVU976
 2793              		.loc 1 507 11 is_stmt 0 view .LVU977
ARM GAS  C:\Users\DEVELO~1\AppData\Local\Temp\cc0byXRH.s 			page 50


 2794 0212 0024     		movs	r4, #0
 2795              		.loc 1 519 7 view .LVU978
 2796 0214 4FF0010A 		mov	r10, #1
 2797 0218 DFF884B0 		ldr	fp, .L332
 2798 021c 07E0     		b	.L188
 2799              	.LVL195:
 2800              	.L186:
 2801              		.loc 1 519 39 is_stmt 1 view .LVU979
 2802              		.loc 1 507 56 view .LVU980
 2803 021e 0134     		adds	r4, r4, #1
 2804              	.LVL196:
 2805              		.loc 1 507 37 is_stmt 0 view .LVU981
 2806 0220 D6F89430 		ldr	r3, [r6, #148]
 2807              		.loc 1 507 56 view .LVU982
 2808 0224 E4B2     		uxtb	r4, r4
 2809              	.LVL197:
 2810              		.loc 1 507 19 is_stmt 1 view .LVU983
 2811 0226 9B68     		ldr	r3, [r3, #8]
 2812 0228 9C42     		cmp	r4, r3
 2813 022a 3FF615AF 		bhi	.L175
 2814              	.LVL198:
 2815              	.L188:
 2816              		.loc 1 508 5 view .LVU984
 2817 022e 09EB4412 		add	r2, r9, r4, lsl #5
 2818              		.loc 1 508 23 is_stmt 0 view .LVU985
 2819 0232 D2F8003B 		ldr	r3, [r2, #2816]
 2820              		.loc 1 508 32 view .LVU986
 2821 0236 03F44023 		and	r3, r3, #786432
 2822              		.loc 1 508 8 view .LVU987
 2823 023a B3F5802F 		cmp	r3, #262144
 2824 023e EED1     		bne	.L186
 2825              		.loc 1 519 7 is_stmt 1 view .LVU988
 2826              		.loc 1 509 23 is_stmt 0 view .LVU989
 2827 0240 D2F8003B 		ldr	r3, [r2, #2816]
 2828              		.loc 1 519 7 view .LVU990
 2829 0244 0AFA04F1 		lsl	r1, r10, r4
 2830              		.loc 1 508 76 view .LVU991
 2831 0248 002B     		cmp	r3, #0
 2832 024a E8DA     		bge	.L186
 2833              		.loc 1 519 7 is_stmt 1 view .LVU992
 2834 024c 06EB8403 		add	r3, r6, r4, lsl #2
 2835 0250 DB68     		ldr	r3, [r3, #12]
 2836 0252 DA68     		ldr	r2, [r3, #12]
 2837 0254 7389     		ldrh	r3, [r6, #10]
 2838 0256 23EA0103 		bic	r3, r3, r1
 2839 025a 7381     		strh	r3, [r6, #10]	@ movhi
 2840              		.loc 1 519 7 view .LVU993
 2841 025c 002A     		cmp	r2, #0
 2842 025e DED0     		beq	.L186
 2843 0260 2146     		mov	r1, r4
 2844 0262 5846     		mov	r0, fp
 2845 0264 9047     		blx	r2
 2846              	.LVL199:
 2847 0266 DAE7     		b	.L186
 2848              	.LVL200:
 2849              	.L307:
 2850              		.loc 1 519 7 is_stmt 0 view .LVU994
ARM GAS  C:\Users\DEVELO~1\AppData\Local\Temp\cc0byXRH.s 			page 51


 2851              	.LBE337:
 2852              	.LBE336:
 2853              		.loc 1 542 5 is_stmt 1 view .LVU995
 2854 0268 3046     		mov	r0, r6
 2855 026a FFF7FEFF 		bl	_usb_reset
 2856              	.LVL201:
 2857              		.loc 1 545 5 view .LVU996
 2858              		.loc 1 545 5 is_stmt 0 view .LVU997
 2859              	.LBE340:
 2860              	.LBE344:
 2861              		.loc 1 686 3 is_stmt 1 view .LVU998
 2862              		.loc 1 686 3 view .LVU999
 2863 026e 0D48     		ldr	r0, .L332+4
 2864 0270 FFF7FEFF 		bl	__trace_isr_leave
 2865              	.LVL202:
 2866              		.loc 1 686 3 view .LVU1000
 2867              		.loc 1 686 3 view .LVU1001
 2868              		.loc 1 686 3 view .LVU1002
 2869              		.loc 1 687 1 is_stmt 0 view .LVU1003
 2870 0274 BDE8F84F 		pop	{r3, r4, r5, r6, r7, r8, r9, r10, fp, lr}
 2871              		.cfi_remember_state
 2872              		.cfi_restore 14
 2873              		.cfi_restore 11
 2874              		.cfi_restore 10
 2875              		.cfi_restore 9
 2876              		.cfi_restore 8
 2877              		.cfi_restore 7
 2878              		.cfi_restore 6
 2879              		.cfi_restore 5
 2880              		.cfi_restore 4
 2881              		.cfi_restore 3
 2882              		.cfi_def_cfa_offset 0
 2883              		.loc 1 686 3 view .LVU1004
 2884 0278 FFF7FEBF 		b	__port_irq_epilogue
 2885              	.LVL203:
 2886              	.L321:
 2887              		.cfi_restore_state
 2888              	.LBB345:
 2889              	.LBB341:
 2890              		.loc 1 635 7 is_stmt 1 view .LVU1005
 2891 027c 0820     		movs	r0, #8
 2892 027e FFF7FEFF 		bl	otg_epout_handler.constprop.0
 2893              	.LVL204:
 2894              		.loc 1 638 3 view .LVU1006
 2895              		.loc 1 638 6 is_stmt 0 view .LVU1007
 2896 0282 6903     		lsls	r1, r5, #13
 2897 0284 7FF527AF 		bpl	.L166
 2898 0288 0AE7     		b	.L331
 2899              	.LVL205:
 2900              	.L330:
 2901              		.loc 1 665 7 is_stmt 1 view .LVU1008
 2902 028a 0820     		movs	r0, #8
 2903 028c FFF7FEFF 		bl	otg_epin_handler.constprop.0
 2904              	.LVL206:
 2905              		.loc 1 665 7 is_stmt 0 view .LVU1009
 2906              	.LBE341:
 2907              	.LBE345:
ARM GAS  C:\Users\DEVELO~1\AppData\Local\Temp\cc0byXRH.s 			page 52


 2908              		.loc 1 686 3 is_stmt 1 view .LVU1010
 2909              		.loc 1 686 3 view .LVU1011
 2910 0290 0448     		ldr	r0, .L332+4
 2911 0292 FFF7FEFF 		bl	__trace_isr_leave
 2912              	.LVL207:
 2913              		.loc 1 686 3 view .LVU1012
 2914              		.loc 1 686 3 view .LVU1013
 2915              		.loc 1 686 3 view .LVU1014
 2916              		.loc 1 687 1 is_stmt 0 view .LVU1015
 2917 0296 BDE8F84F 		pop	{r3, r4, r5, r6, r7, r8, r9, r10, fp, lr}
 2918              		.cfi_remember_state
 2919              		.cfi_restore 14
 2920              		.cfi_restore 11
 2921              		.cfi_restore 10
 2922              		.cfi_restore 9
 2923              		.cfi_restore 8
 2924              		.cfi_restore 7
 2925              		.cfi_restore 6
 2926              		.cfi_restore 5
 2927              		.cfi_restore 4
 2928              		.cfi_restore 3
 2929              		.cfi_def_cfa_offset 0
 2930              		.loc 1 686 3 view .LVU1016
 2931 029a FFF7FEBF 		b	__port_irq_epilogue
 2932              	.LVL208:
 2933              	.L333:
 2934 029e 00BF     		.align	2
 2935              	.L332:
 2936 02a0 00000000 		.word	.LANCHOR0
 2937 02a4 00000000 		.word	.LANCHOR3
 2938              	.LVL209:
 2939              	.L190:
 2940              		.cfi_restore_state
 2941              	.LBB346:
 2942              	.LBB342:
 2943              	.LBB338:
 2944              	.LBB335:
 2945              		.loc 1 303 5 is_stmt 1 view .LVU1017
 2946              		.loc 1 304 38 is_stmt 0 view .LVU1018
 2947 02a8 981C     		adds	r0, r3, #2
 2948 02aa 06EB8003 		add	r3, r6, r0, lsl #2
 2949              	.LVL210:
 2950              		.loc 1 304 42 view .LVU1019
 2951 02ae 5B68     		ldr	r3, [r3, #4]
 2952 02b0 9B69     		ldr	r3, [r3, #24]
 2953              		.loc 1 303 5 view .LVU1020
 2954 02b2 D3E90049 		ldrd	r4, r9, [r3]
 2955 02b6 A4EB090E 		sub	lr, r4, r9
 2956              	.LVL211:
 2957              		.loc 1 303 5 view .LVU1021
 2958 02ba 9C68     		ldr	r4, [r3, #8]
 2959              	.LVL212:
 2960              	.LBB333:
 2961              	.LBI333:
 2962              		.loc 1 259 13 is_stmt 1 view .LVU1022
 2963              	.LBB334:
 2964              		.loc 1 263 3 view .LVU1023
ARM GAS  C:\Users\DEVELO~1\AppData\Local\Temp\cc0byXRH.s 			page 53


 2965              		.loc 1 264 3 view .LVU1024
 2966              		.loc 1 266 3 view .LVU1025
 2967              		.loc 1 266 12 view .LVU1026
 2968 02bc CAB1     		cbz	r2, .L194
 2969              		.loc 1 268 9 is_stmt 0 view .LVU1027
 2970 02be 01F5805C 		add	ip, r1, #4096
 2971              	.LVL213:
 2972              		.loc 1 264 10 view .LVU1028
 2973 02c2 0023     		movs	r3, #0
 2974              	.LVL214:
 2975              	.L197:
 2976              		.loc 1 267 5 is_stmt 1 view .LVU1029
 2977              		.loc 1 268 7 view .LVU1030
 2978              		.loc 1 270 5 view .LVU1031
 2979              		.loc 1 271 7 view .LVU1032
 2980              		.loc 1 267 8 is_stmt 0 view .LVU1033
 2981 02c4 13F0030F 		tst	r3, #3
 2982              		.loc 1 271 11 view .LVU1034
 2983 02c8 2146     		mov	r1, r4
 2984              	.LVL215:
 2985              		.loc 1 267 8 view .LVU1035
 2986 02ca 01D1     		bne	.L195
 2987              	.LVL216:
 2988              		.loc 1 268 9 view .LVU1036
 2989 02cc DCF80080 		ldr	r8, [ip]
 2990              	.L195:
 2991              		.loc 1 270 8 view .LVU1037
 2992 02d0 9E45     		cmp	lr, r3
 2993              		.loc 1 274 6 view .LVU1038
 2994 02d2 03F10103 		add	r3, r3, #1
 2995              	.LVL217:
 2996              		.loc 1 270 8 view .LVU1039
 2997 02d6 04D9     		bls	.L196
 2998              		.loc 1 271 16 view .LVU1040
 2999 02d8 01F8018B 		strb	r8, [r1], #1
 3000              	.LVL218:
 3001              		.loc 1 272 7 is_stmt 1 view .LVU1041
 3002              		.loc 1 272 9 is_stmt 0 view .LVU1042
 3003 02dc 4FEA1828 		lsr	r8, r8, #8
 3004              	.LVL219:
 3005              		.loc 1 271 11 view .LVU1043
 3006 02e0 0C46     		mov	r4, r1
 3007              	.LVL220:
 3008              	.L196:
 3009              		.loc 1 274 5 is_stmt 1 view .LVU1044
 3010              		.loc 1 266 12 view .LVU1045
 3011 02e2 9A42     		cmp	r2, r3
 3012 02e4 EED1     		bne	.L197
 3013              	.LBE334:
 3014              	.LBE333:
 3015              		.loc 1 308 14 is_stmt 0 view .LVU1046
 3016 02e6 06EB8006 		add	r6, r6, r0, lsl #2
 3017              		.loc 1 308 18 view .LVU1047
 3018 02ea 7368     		ldr	r3, [r6, #4]
 3019              	.LVL221:
 3020              		.loc 1 308 18 view .LVU1048
 3021 02ec 9B69     		ldr	r3, [r3, #24]
ARM GAS  C:\Users\DEVELO~1\AppData\Local\Temp\cc0byXRH.s 			page 54


 3022              		.loc 1 309 37 view .LVU1049
 3023 02ee D3E90194 		ldrd	r9, r4, [r3, #4]
 3024              	.LVL222:
 3025              	.L194:
 3026              		.loc 1 308 5 is_stmt 1 view .LVU1050
 3027              		.loc 1 308 37 is_stmt 0 view .LVU1051
 3028 02f2 1444     		add	r4, r4, r2
 3029              		.loc 1 309 37 view .LVU1052
 3030 02f4 4A44     		add	r2, r2, r9
 3031              	.LVL223:
 3032              		.loc 1 309 37 view .LVU1053
 3033 02f6 C3E90124 		strd	r2, r4, [r3, #4]
 3034              		.loc 1 310 5 is_stmt 1 view .LVU1054
 3035 02fa B0E6     		b	.L189
 3036              	.LVL224:
 3037              	.L322:
 3038              		.loc 1 310 5 is_stmt 0 view .LVU1055
 3039              	.LBE335:
 3040              	.LBE338:
 3041              		.loc 1 640 7 is_stmt 1 view .LVU1056
 3042 02fc 0020     		movs	r0, #0
 3043 02fe FFF7FEFF 		bl	otg_epin_handler.constprop.0
 3044              	.LVL225:
 3045              		.loc 1 641 5 view .LVU1057
 3046              		.loc 1 641 8 is_stmt 0 view .LVU1058
 3047 0302 A307     		lsls	r3, r4, #30
 3048 0304 7FF5D2AE 		bpl	.L211
 3049              	.L323:
 3050              		.loc 1 642 7 is_stmt 1 view .LVU1059
 3051 0308 0120     		movs	r0, #1
 3052 030a FFF7FEFF 		bl	otg_epin_handler.constprop.0
 3053              	.LVL226:
 3054              		.loc 1 643 5 view .LVU1060
 3055              		.loc 1 643 8 is_stmt 0 view .LVU1061
 3056 030e 6707     		lsls	r7, r4, #29
 3057 0310 7FF5CFAE 		bpl	.L212
 3058              	.L324:
 3059              		.loc 1 644 7 is_stmt 1 view .LVU1062
 3060 0314 0220     		movs	r0, #2
 3061 0316 FFF7FEFF 		bl	otg_epin_handler.constprop.0
 3062              	.LVL227:
 3063              		.loc 1 645 5 view .LVU1063
 3064              		.loc 1 645 8 is_stmt 0 view .LVU1064
 3065 031a 2607     		lsls	r6, r4, #28
 3066 031c 7FF5CCAE 		bpl	.L213
 3067              	.L325:
 3068              		.loc 1 646 7 is_stmt 1 view .LVU1065
 3069 0320 0320     		movs	r0, #3
 3070 0322 FFF7FEFF 		bl	otg_epin_handler.constprop.0
 3071              	.LVL228:
 3072              		.loc 1 648 5 view .LVU1066
 3073              		.loc 1 648 8 is_stmt 0 view .LVU1067
 3074 0326 E506     		lsls	r5, r4, #27
 3075              	.LVL229:
 3076              		.loc 1 648 8 view .LVU1068
 3077 0328 7FF5C9AE 		bpl	.L214
 3078              	.L326:
ARM GAS  C:\Users\DEVELO~1\AppData\Local\Temp\cc0byXRH.s 			page 55


 3079              		.loc 1 649 7 is_stmt 1 view .LVU1069
 3080 032c 0420     		movs	r0, #4
 3081 032e FFF7FEFF 		bl	otg_epin_handler.constprop.0
 3082              	.LVL230:
 3083              		.loc 1 652 5 view .LVU1070
 3084              		.loc 1 652 8 is_stmt 0 view .LVU1071
 3085 0332 A006     		lsls	r0, r4, #26
 3086 0334 7FF5C6AE 		bpl	.L215
 3087              	.L327:
 3088              		.loc 1 653 7 is_stmt 1 view .LVU1072
 3089 0338 0520     		movs	r0, #5
 3090 033a FFF7FEFF 		bl	otg_epin_handler.constprop.0
 3091              	.LVL231:
 3092              		.loc 1 656 5 view .LVU1073
 3093              		.loc 1 656 8 is_stmt 0 view .LVU1074
 3094 033e 6106     		lsls	r1, r4, #25
 3095 0340 7FF5C3AE 		bpl	.L216
 3096              	.L328:
 3097              		.loc 1 657 7 is_stmt 1 view .LVU1075
 3098 0344 0620     		movs	r0, #6
 3099 0346 FFF7FEFF 		bl	otg_epin_handler.constprop.0
 3100              	.LVL232:
 3101              		.loc 1 660 5 view .LVU1076
 3102              		.loc 1 660 8 is_stmt 0 view .LVU1077
 3103 034a 2206     		lsls	r2, r4, #24
 3104 034c 7FF5C0AE 		bpl	.L217
 3105              	.L329:
 3106              		.loc 1 661 7 is_stmt 1 view .LVU1078
 3107 0350 0720     		movs	r0, #7
 3108 0352 FFF7FEFF 		bl	otg_epin_handler.constprop.0
 3109              	.LVL233:
 3110 0356 BBE6     		b	.L217
 3111              	.LVL234:
 3112              	.L316:
 3113              		.loc 1 616 7 view .LVU1079
 3114 0358 0320     		movs	r0, #3
 3115 035a FFF7FEFF 		bl	otg_epout_handler.constprop.0
 3116              	.LVL235:
 3117              		.loc 1 618 5 view .LVU1080
 3118              		.loc 1 618 8 is_stmt 0 view .LVU1081
 3119 035e E202     		lsls	r2, r4, #11
 3120 0360 7FF590AE 		bpl	.L204
 3121              	.L317:
 3122              		.loc 1 619 7 is_stmt 1 view .LVU1082
 3123 0364 0420     		movs	r0, #4
 3124 0366 FFF7FEFF 		bl	otg_epout_handler.constprop.0
 3125              	.LVL236:
 3126              		.loc 1 622 5 view .LVU1083
 3127              		.loc 1 622 8 is_stmt 0 view .LVU1084
 3128 036a A302     		lsls	r3, r4, #10
 3129 036c 7FF58DAE 		bpl	.L205
 3130              	.L318:
 3131              		.loc 1 623 7 is_stmt 1 view .LVU1085
 3132 0370 0520     		movs	r0, #5
 3133 0372 FFF7FEFF 		bl	otg_epout_handler.constprop.0
 3134              	.LVL237:
 3135              		.loc 1 626 5 view .LVU1086
ARM GAS  C:\Users\DEVELO~1\AppData\Local\Temp\cc0byXRH.s 			page 56


 3136              		.loc 1 626 8 is_stmt 0 view .LVU1087
 3137 0376 6702     		lsls	r7, r4, #9
 3138 0378 7FF58AAE 		bpl	.L206
 3139              	.L319:
 3140              		.loc 1 627 7 is_stmt 1 view .LVU1088
 3141 037c 0620     		movs	r0, #6
 3142 037e FFF7FEFF 		bl	otg_epout_handler.constprop.0
 3143              	.LVL238:
 3144              		.loc 1 630 5 view .LVU1089
 3145              		.loc 1 630 8 is_stmt 0 view .LVU1090
 3146 0382 2602     		lsls	r6, r4, #8
 3147 0384 7FF587AE 		bpl	.L207
 3148              	.L320:
 3149              		.loc 1 631 7 is_stmt 1 view .LVU1091
 3150 0388 0720     		movs	r0, #7
 3151 038a FFF7FEFF 		bl	otg_epout_handler.constprop.0
 3152              	.LVL239:
 3153 038e 82E6     		b	.L207
 3154              	.L315:
 3155              		.loc 1 614 7 view .LVU1092
 3156 0390 0220     		movs	r0, #2
 3157 0392 FFF7FEFF 		bl	otg_epout_handler.constprop.0
 3158              	.LVL240:
 3159 0396 6FE6     		b	.L202
 3160              	.L314:
 3161              		.loc 1 612 7 view .LVU1093
 3162 0398 0120     		movs	r0, #1
 3163 039a FFF7FEFF 		bl	otg_epout_handler.constprop.0
 3164              	.LVL241:
 3165 039e 68E6     		b	.L201
 3166              	.L313:
 3167              		.loc 1 610 7 view .LVU1094
 3168 03a0 0020     		movs	r0, #0
 3169 03a2 FFF7FEFF 		bl	otg_epout_handler.constprop.0
 3170              	.LVL242:
 3171 03a6 61E6     		b	.L200
 3172              	.LBE342:
 3173              	.LBE346:
 3174              		.cfi_endproc
 3175              	.LFE446:
 3176              		.size	Vector1D4, .-Vector1D4
 3177              		.section	.text.usb_lld_stall_out,"ax",%progbits
 3178              		.align	1
 3179              		.p2align 4,,15
 3180              		.global	usb_lld_stall_out
 3181              		.syntax unified
 3182              		.thumb
 3183              		.thumb_func
 3184              		.type	usb_lld_stall_out, %function
 3185              	usb_lld_stall_out:
 3186              	.LVL243:
 3187              	.LFB459:
 3188              		.loc 1 1218 53 view -0
 3189              		.cfi_startproc
 3190              		@ args = 0, pretend = 0, frame = 0
 3191              		@ frame_needed = 0, uses_anonymous_args = 0
 3192              		@ link register save eliminated.
ARM GAS  C:\Users\DEVELO~1\AppData\Local\Temp\cc0byXRH.s 			page 57


 3193              		.loc 1 1220 3 view .LVU1096
 3194 0000 D0F89030 		ldr	r3, [r0, #144]
 3195 0004 03EB4111 		add	r1, r3, r1, lsl #5
 3196              	.LVL244:
 3197              		.loc 1 1220 29 is_stmt 0 view .LVU1097
 3198 0008 D1F8003B 		ldr	r3, [r1, #2816]
 3199 000c 43F40013 		orr	r3, r3, #2097152
 3200 0010 C1F8003B 		str	r3, [r1, #2816]
 3201              		.loc 1 1221 1 view .LVU1098
 3202 0014 7047     		bx	lr
 3203              		.cfi_endproc
 3204              	.LFE459:
 3205              		.size	usb_lld_stall_out, .-usb_lld_stall_out
 3206 0016 00BF     		.section	.text.usb_lld_stall_in,"ax",%progbits
 3207              		.align	1
 3208              		.p2align 4,,15
 3209              		.global	usb_lld_stall_in
 3210              		.syntax unified
 3211              		.thumb
 3212              		.thumb_func
 3213              		.type	usb_lld_stall_in, %function
 3214              	usb_lld_stall_in:
 3215              	.LVL245:
 3216              	.LFB460:
 3217              		.loc 1 1231 52 is_stmt 1 view -0
 3218              		.cfi_startproc
 3219              		@ args = 0, pretend = 0, frame = 0
 3220              		@ frame_needed = 0, uses_anonymous_args = 0
 3221              		@ link register save eliminated.
 3222              		.loc 1 1233 3 view .LVU1100
 3223 0000 D0F89030 		ldr	r3, [r0, #144]
 3224 0004 03EB4111 		add	r1, r3, r1, lsl #5
 3225              	.LVL246:
 3226              		.loc 1 1233 29 is_stmt 0 view .LVU1101
 3227 0008 D1F80039 		ldr	r3, [r1, #2304]
 3228 000c 43F40013 		orr	r3, r3, #2097152
 3229 0010 C1F80039 		str	r3, [r1, #2304]
 3230              		.loc 1 1234 1 view .LVU1102
 3231 0014 7047     		bx	lr
 3232              		.cfi_endproc
 3233              	.LFE460:
 3234              		.size	usb_lld_stall_in, .-usb_lld_stall_in
 3235 0016 00BF     		.section	.text.usb_lld_clear_out,"ax",%progbits
 3236              		.align	1
 3237              		.p2align 4,,15
 3238              		.global	usb_lld_clear_out
 3239              		.syntax unified
 3240              		.thumb
 3241              		.thumb_func
 3242              		.type	usb_lld_clear_out, %function
 3243              	usb_lld_clear_out:
 3244              	.LVL247:
 3245              	.LFB461:
 3246              		.loc 1 1244 53 is_stmt 1 view -0
 3247              		.cfi_startproc
 3248              		@ args = 0, pretend = 0, frame = 0
 3249              		@ frame_needed = 0, uses_anonymous_args = 0
ARM GAS  C:\Users\DEVELO~1\AppData\Local\Temp\cc0byXRH.s 			page 58


 3250              		@ link register save eliminated.
 3251              		.loc 1 1246 3 view .LVU1104
 3252 0000 D0F89030 		ldr	r3, [r0, #144]
 3253 0004 03EB4111 		add	r1, r3, r1, lsl #5
 3254              	.LVL248:
 3255              		.loc 1 1246 29 is_stmt 0 view .LVU1105
 3256 0008 D1F8003B 		ldr	r3, [r1, #2816]
 3257 000c 23F40013 		bic	r3, r3, #2097152
 3258 0010 C1F8003B 		str	r3, [r1, #2816]
 3259              		.loc 1 1247 1 view .LVU1106
 3260 0014 7047     		bx	lr
 3261              		.cfi_endproc
 3262              	.LFE461:
 3263              		.size	usb_lld_clear_out, .-usb_lld_clear_out
 3264 0016 00BF     		.section	.text.usb_lld_clear_in,"ax",%progbits
 3265              		.align	1
 3266              		.p2align 4,,15
 3267              		.global	usb_lld_clear_in
 3268              		.syntax unified
 3269              		.thumb
 3270              		.thumb_func
 3271              		.type	usb_lld_clear_in, %function
 3272              	usb_lld_clear_in:
 3273              	.LVL249:
 3274              	.LFB462:
 3275              		.loc 1 1257 52 is_stmt 1 view -0
 3276              		.cfi_startproc
 3277              		@ args = 0, pretend = 0, frame = 0
 3278              		@ frame_needed = 0, uses_anonymous_args = 0
 3279              		@ link register save eliminated.
 3280              		.loc 1 1259 3 view .LVU1108
 3281 0000 D0F89030 		ldr	r3, [r0, #144]
 3282 0004 03EB4111 		add	r1, r3, r1, lsl #5
 3283              	.LVL250:
 3284              		.loc 1 1259 29 is_stmt 0 view .LVU1109
 3285 0008 D1F80039 		ldr	r3, [r1, #2304]
 3286 000c 23F40013 		bic	r3, r3, #2097152
 3287 0010 C1F80039 		str	r3, [r1, #2304]
 3288              		.loc 1 1260 1 view .LVU1110
 3289 0014 7047     		bx	lr
 3290              		.cfi_endproc
 3291              	.LFE462:
 3292              		.size	usb_lld_clear_in, .-usb_lld_clear_in
 3293              		.global	USBD1
 3294 0016 00BF     		.section	.bss.USBD1,"aw",%nobits
 3295              		.align	2
 3296              		.set	.LANCHOR0,. + 0
 3297              		.type	USBD1, %object
 3298              		.size	USBD1, 156
 3299              	USBD1:
 3300 0000 00000000 		.space	156
 3300      00000000 
 3300      00000000 
 3300      00000000 
 3300      00000000 
 3301              		.section	.bss.ep0_state,"aw",%nobits
 3302              		.align	2
ARM GAS  C:\Users\DEVELO~1\AppData\Local\Temp\cc0byXRH.s 			page 59


 3303              		.type	ep0_state, %object
 3304              		.size	ep0_state, 16
 3305              	ep0_state:
 3306 0000 00000000 		.space	16
 3306      00000000 
 3306      00000000 
 3306      00000000 
 3307              		.section	.bss.ep0setup_buffer,"aw",%nobits
 3308              		.align	2
 3309              		.type	ep0setup_buffer, %object
 3310              		.size	ep0setup_buffer, 8
 3311              	ep0setup_buffer:
 3312 0000 00000000 		.space	8
 3312      00000000 
 3313              		.section	.rodata.__func__.0,"a"
 3314              		.align	2
 3315              		.set	.LANCHOR3,. + 0
 3316              		.type	__func__.0, %object
 3317              		.size	__func__.0, 10
 3318              	__func__.0:
 3319 0000 56656374 		.ascii	"Vector1D4\000"
 3319      6F723144 
 3319      3400
 3320              		.section	.rodata.ep0config,"a"
 3321              		.align	2
 3322              		.set	.LANCHOR2,. + 0
 3323              		.type	ep0config, %object
 3324              		.size	ep0config, 36
 3325              	ep0config:
 3326 0000 00000000 		.word	0
 3327 0004 00000000 		.word	_usb_ep0setup
 3328 0008 00000000 		.word	_usb_ep0in
 3329 000c 00000000 		.word	_usb_ep0out
 3330 0010 4000     		.short	64
 3331 0012 4000     		.short	64
 3332 0014 00000000 		.word	ep0_state
 3333 0018 00000000 		.word	ep0_state
 3334 001c 0100     		.short	1
 3335 001e 0000     		.space	2
 3336 0020 00000000 		.word	ep0setup_buffer
 3337              		.section	.rodata.fsparams,"a"
 3338              		.align	2
 3339              		.set	.LANCHOR1,. + 0
 3340              		.type	fsparams, %object
 3341              		.size	fsparams, 12
 3342              	fsparams:
 3343 0000 80000000 		.word	128
 3344 0004 40010000 		.word	320
 3345 0008 08000000 		.word	8
 3346              		.text
 3347              	.Letext0:
 3348              		.file 7 "c:\\chibistudio\\tools\\gnu tools arm embedded\\11.3 2022.08\\lib\\gcc\\arm-none-eabi\\11
 3349              		.file 8 "c:\\chibistudio\\tools\\gnu tools arm embedded\\11.3 2022.08\\arm-none-eabi\\include\\mac
 3350              		.file 9 "c:\\chibistudio\\tools\\gnu tools arm embedded\\11.3 2022.08\\arm-none-eabi\\include\\sys
 3351              		.file 10 "../../../os/common/ports/ARM-common/chtypes.h"
 3352              		.file 11 "../../../os/rt/include/chearly.h"
 3353              		.file 12 "../../../os/common/ext/ST/STM32H7xx/stm32h743xx.h"
ARM GAS  C:\Users\DEVELO~1\AppData\Local\Temp\cc0byXRH.s 			page 60


 3354              		.file 13 "../../../os/hal/include/hal_usb.h"
 3355              		.file 14 "../../../os/hal/ports/STM32/LLD/OTGv1/hal_usb_lld.h"
 3356              		.file 15 "../../../os/hal/ports/STM32/LLD/OTGv1/stm32_otg.h"
 3357              		.file 16 "../../../os/hal/ports/common/ARMCMx/nvic.h"
 3358              		.file 17 "../../../os/rt/include/chtrace.h"
 3359              		.file 18 "c:\\chibistudio\\tools\\gnu tools arm embedded\\11.3 2022.08\\arm-none-eabi\\include\\st
 3360              		.section	.debug_info,"",%progbits
 3361              	.Ldebug_info0:
 3362 0000 81270000 		.4byte	0x2781
 3363 0004 0500     		.2byte	0x5
 3364 0006 01       		.byte	0x1
 3365 0007 04       		.byte	0x4
 3366 0008 00000000 		.4byte	.Ldebug_abbrev0
 3367 000c 41       		.uleb128 0x41
 3368 000d 00000000 		.4byte	.LASF319
 3369 0011 1D       		.byte	0x1d
 3370 0012 680D0000 		.4byte	.LASF320
 3371 0016 77010000 		.4byte	.LASF321
 3372 001a 2C010000 		.4byte	.LLRL132
 3373 001e 00000000 		.4byte	0
 3374 0022 00000000 		.4byte	.Ldebug_line0
 3375 0026 11       		.uleb128 0x11
 3376 0027 04       		.byte	0x4
 3377 0028 07       		.byte	0x7
 3378 0029 C6010000 		.4byte	.LASF0
 3379 002d 42       		.uleb128 0x42
 3380 002e 04       		.byte	0x4
 3381 002f 05       		.byte	0x5
 3382 0030 696E7400 		.ascii	"int\000"
 3383 0034 12       		.uleb128 0x12
 3384 0035 5F050000 		.4byte	.LASF4
 3385 0039 07       		.byte	0x7
 3386 003a D1       		.byte	0xd1
 3387 003b 17       		.byte	0x17
 3388 003c 26000000 		.4byte	0x26
 3389 0040 11       		.uleb128 0x11
 3390 0041 08       		.byte	0x8
 3391 0042 05       		.byte	0x5
 3392 0043 9E070000 		.4byte	.LASF1
 3393 0047 11       		.uleb128 0x11
 3394 0048 08       		.byte	0x8
 3395 0049 04       		.byte	0x4
 3396 004a 71080000 		.4byte	.LASF2
 3397 004e 11       		.uleb128 0x11
 3398 004f 01       		.byte	0x1
 3399 0050 06       		.byte	0x6
 3400 0051 AA030000 		.4byte	.LASF3
 3401 0055 12       		.uleb128 0x12
 3402 0056 B80B0000 		.4byte	.LASF5
 3403 005a 08       		.byte	0x8
 3404 005b 2B       		.byte	0x2b
 3405 005c 18       		.byte	0x18
 3406 005d 61000000 		.4byte	0x61
 3407 0061 11       		.uleb128 0x11
 3408 0062 01       		.byte	0x1
 3409 0063 08       		.byte	0x8
 3410 0064 3F0A0000 		.4byte	.LASF6
ARM GAS  C:\Users\DEVELO~1\AppData\Local\Temp\cc0byXRH.s 			page 61


 3411 0068 11       		.uleb128 0x11
 3412 0069 02       		.byte	0x2
 3413 006a 05       		.byte	0x5
 3414 006b A0080000 		.4byte	.LASF7
 3415 006f 12       		.uleb128 0x12
 3416 0070 AD040000 		.4byte	.LASF8
 3417 0074 08       		.byte	0x8
 3418 0075 39       		.byte	0x39
 3419 0076 19       		.byte	0x19
 3420 0077 7B000000 		.4byte	0x7b
 3421 007b 11       		.uleb128 0x11
 3422 007c 02       		.byte	0x2
 3423 007d 07       		.byte	0x7
 3424 007e 170E0000 		.4byte	.LASF9
 3425 0082 11       		.uleb128 0x11
 3426 0083 04       		.byte	0x4
 3427 0084 05       		.byte	0x5
 3428 0085 EF0A0000 		.4byte	.LASF10
 3429 0089 12       		.uleb128 0x12
 3430 008a A2040000 		.4byte	.LASF11
 3431 008e 08       		.byte	0x8
 3432 008f 4F       		.byte	0x4f
 3433 0090 19       		.byte	0x19
 3434 0091 95000000 		.4byte	0x95
 3435 0095 11       		.uleb128 0x11
 3436 0096 04       		.byte	0x4
 3437 0097 07       		.byte	0x7
 3438 0098 600C0000 		.4byte	.LASF12
 3439 009c 11       		.uleb128 0x11
 3440 009d 08       		.byte	0x8
 3441 009e 07       		.byte	0x7
 3442 009f 4C040000 		.4byte	.LASF13
 3443 00a3 43       		.uleb128 0x43
 3444 00a4 04       		.byte	0x4
 3445 00a5 11       		.uleb128 0x11
 3446 00a6 01       		.byte	0x1
 3447 00a7 08       		.byte	0x8
 3448 00a8 6D060000 		.4byte	.LASF14
 3449 00ac 1E       		.uleb128 0x1e
 3450 00ad A5000000 		.4byte	0xa5
 3451 00b1 0D       		.uleb128 0xd
 3452 00b2 AC000000 		.4byte	0xac
 3453 00b6 12       		.uleb128 0x12
 3454 00b7 FC060000 		.4byte	.LASF15
 3455 00bb 09       		.byte	0x9
 3456 00bc 18       		.byte	0x18
 3457 00bd 13       		.byte	0x13
 3458 00be 55000000 		.4byte	0x55
 3459 00c2 1E       		.uleb128 0x1e
 3460 00c3 B6000000 		.4byte	0xb6
 3461 00c7 12       		.uleb128 0x12
 3462 00c8 93090000 		.4byte	.LASF16
 3463 00cc 09       		.byte	0x9
 3464 00cd 24       		.byte	0x24
 3465 00ce 14       		.byte	0x14
 3466 00cf 6F000000 		.4byte	0x6f
 3467 00d3 12       		.uleb128 0x12
ARM GAS  C:\Users\DEVELO~1\AppData\Local\Temp\cc0byXRH.s 			page 62


 3468 00d4 BF030000 		.4byte	.LASF17
 3469 00d8 09       		.byte	0x9
 3470 00d9 30       		.byte	0x30
 3471 00da 14       		.byte	0x14
 3472 00db 89000000 		.4byte	0x89
 3473 00df 18       		.uleb128 0x18
 3474 00e0 D3000000 		.4byte	0xd3
 3475 00e4 12       		.uleb128 0x12
 3476 00e5 1F030000 		.4byte	.LASF18
 3477 00e9 0A       		.byte	0xa
 3478 00ea 36       		.byte	0x36
 3479 00eb 1D       		.byte	0x1d
 3480 00ec D3000000 		.4byte	0xd3
 3481 00f0 12       		.uleb128 0x12
 3482 00f1 050A0000 		.4byte	.LASF19
 3483 00f5 0B       		.byte	0xb
 3484 00f6 4D       		.byte	0x4d
 3485 00f7 19       		.byte	0x19
 3486 00f8 E4000000 		.4byte	0xe4
 3487 00fc 0B       		.uleb128 0xb
 3488 00fd D3000000 		.4byte	0xd3
 3489 0101 0C010000 		.4byte	0x10c
 3490 0105 0C       		.uleb128 0xc
 3491 0106 26000000 		.4byte	0x26
 3492 010a 03       		.byte	0x3
 3493 010b 00       		.byte	0
 3494 010c 0B       		.uleb128 0xb
 3495 010d D3000000 		.4byte	0xd3
 3496 0111 1C010000 		.4byte	0x11c
 3497 0115 0C       		.uleb128 0xc
 3498 0116 26000000 		.4byte	0x26
 3499 011a 08       		.byte	0x8
 3500 011b 00       		.byte	0
 3501 011c 0B       		.uleb128 0xb
 3502 011d DF000000 		.4byte	0xdf
 3503 0121 2C010000 		.4byte	0x12c
 3504 0125 0C       		.uleb128 0xc
 3505 0126 26000000 		.4byte	0x26
 3506 012a 0F       		.byte	0xf
 3507 012b 00       		.byte	0
 3508 012c 18       		.uleb128 0x18
 3509 012d 1C010000 		.4byte	0x11c
 3510 0131 44       		.uleb128 0x44
 3511 0132 3001     		.2byte	0x130
 3512 0134 0C       		.byte	0xc
 3513 0135 CE04     		.2byte	0x4ce
 3514 0137 09       		.byte	0x9
 3515 0138 CA040000 		.4byte	0x4ca
 3516 013c 27       		.uleb128 0x27
 3517 013d 435200   		.ascii	"CR\000"
 3518 0140 0C       		.byte	0xc
 3519 0141 D004     		.2byte	0x4d0
 3520 0143 10       		.byte	0x10
 3521 0144 DF000000 		.4byte	0xdf
 3522 0148 00       		.byte	0
 3523 0149 01       		.uleb128 0x1
 3524 014a 2B010000 		.4byte	.LASF20
ARM GAS  C:\Users\DEVELO~1\AppData\Local\Temp\cc0byXRH.s 			page 63


 3525 014e 0C       		.byte	0xc
 3526 014f D104     		.2byte	0x4d1
 3527 0151 10       		.byte	0x10
 3528 0152 DF000000 		.4byte	0xdf
 3529 0156 04       		.byte	0x4
 3530 0157 01       		.uleb128 0x1
 3531 0158 43020000 		.4byte	.LASF21
 3532 015c 0C       		.byte	0xc
 3533 015d D204     		.2byte	0x4d2
 3534 015f 10       		.byte	0x10
 3535 0160 DF000000 		.4byte	0xdf
 3536 0164 08       		.byte	0x8
 3537 0165 01       		.uleb128 0x1
 3538 0166 CC0C0000 		.4byte	.LASF22
 3539 016a 0C       		.byte	0xc
 3540 016b D304     		.2byte	0x4d3
 3541 016d 10       		.byte	0x10
 3542 016e DF000000 		.4byte	0xdf
 3543 0172 0C       		.byte	0xc
 3544 0173 01       		.uleb128 0x1
 3545 0174 810B0000 		.4byte	.LASF23
 3546 0178 0C       		.byte	0xc
 3547 0179 D404     		.2byte	0x4d4
 3548 017b 10       		.byte	0x10
 3549 017c DF000000 		.4byte	0xdf
 3550 0180 10       		.byte	0x10
 3551 0181 01       		.uleb128 0x1
 3552 0182 6C0A0000 		.4byte	.LASF24
 3553 0186 0C       		.byte	0xc
 3554 0187 D504     		.2byte	0x4d5
 3555 0189 0F       		.byte	0xf
 3556 018a D3000000 		.4byte	0xd3
 3557 018e 14       		.byte	0x14
 3558 018f 01       		.uleb128 0x1
 3559 0190 470C0000 		.4byte	.LASF25
 3560 0194 0C       		.byte	0xc
 3561 0195 D604     		.2byte	0x4d6
 3562 0197 10       		.byte	0x10
 3563 0198 DF000000 		.4byte	0xdf
 3564 019c 18       		.byte	0x18
 3565 019d 01       		.uleb128 0x1
 3566 019e B9060000 		.4byte	.LASF26
 3567 01a2 0C       		.byte	0xc
 3568 01a3 D704     		.2byte	0x4d7
 3569 01a5 10       		.byte	0x10
 3570 01a6 DF000000 		.4byte	0xdf
 3571 01aa 1C       		.byte	0x1c
 3572 01ab 01       		.uleb128 0x1
 3573 01ac 12020000 		.4byte	.LASF27
 3574 01b0 0C       		.byte	0xc
 3575 01b1 D804     		.2byte	0x4d8
 3576 01b3 10       		.byte	0x10
 3577 01b4 DF000000 		.4byte	0xdf
 3578 01b8 20       		.byte	0x20
 3579 01b9 01       		.uleb128 0x1
 3580 01ba 760A0000 		.4byte	.LASF28
 3581 01be 0C       		.byte	0xc
ARM GAS  C:\Users\DEVELO~1\AppData\Local\Temp\cc0byXRH.s 			page 64


 3582 01bf D904     		.2byte	0x4d9
 3583 01c1 0F       		.byte	0xf
 3584 01c2 D3000000 		.4byte	0xd3
 3585 01c6 24       		.byte	0x24
 3586 01c7 01       		.uleb128 0x1
 3587 01c8 EC0B0000 		.4byte	.LASF29
 3588 01cc 0C       		.byte	0xc
 3589 01cd DA04     		.2byte	0x4da
 3590 01cf 10       		.byte	0x10
 3591 01d0 DF000000 		.4byte	0xdf
 3592 01d4 28       		.byte	0x28
 3593 01d5 01       		.uleb128 0x1
 3594 01d6 F4060000 		.4byte	.LASF30
 3595 01da 0C       		.byte	0xc
 3596 01db DB04     		.2byte	0x4db
 3597 01dd 10       		.byte	0x10
 3598 01de DF000000 		.4byte	0xdf
 3599 01e2 2C       		.byte	0x2c
 3600 01e3 01       		.uleb128 0x1
 3601 01e4 9D0C0000 		.4byte	.LASF31
 3602 01e8 0C       		.byte	0xc
 3603 01e9 DC04     		.2byte	0x4dc
 3604 01eb 10       		.byte	0x10
 3605 01ec DF000000 		.4byte	0xdf
 3606 01f0 30       		.byte	0x30
 3607 01f1 01       		.uleb128 0x1
 3608 01f2 380C0000 		.4byte	.LASF32
 3609 01f6 0C       		.byte	0xc
 3610 01f7 DD04     		.2byte	0x4dd
 3611 01f9 10       		.byte	0x10
 3612 01fa DF000000 		.4byte	0xdf
 3613 01fe 34       		.byte	0x34
 3614 01ff 01       		.uleb128 0x1
 3615 0200 3C070000 		.4byte	.LASF33
 3616 0204 0C       		.byte	0xc
 3617 0205 DE04     		.2byte	0x4de
 3618 0207 10       		.byte	0x10
 3619 0208 DF000000 		.4byte	0xdf
 3620 020c 38       		.byte	0x38
 3621 020d 01       		.uleb128 0x1
 3622 020e 85060000 		.4byte	.LASF34
 3623 0212 0C       		.byte	0xc
 3624 0213 DF04     		.2byte	0x4df
 3625 0215 10       		.byte	0x10
 3626 0216 DF000000 		.4byte	0xdf
 3627 021a 3C       		.byte	0x3c
 3628 021b 01       		.uleb128 0x1
 3629 021c AE020000 		.4byte	.LASF35
 3630 0220 0C       		.byte	0xc
 3631 0221 E004     		.2byte	0x4e0
 3632 0223 10       		.byte	0x10
 3633 0224 DF000000 		.4byte	0xdf
 3634 0228 40       		.byte	0x40
 3635 0229 01       		.uleb128 0x1
 3636 022a 55010000 		.4byte	.LASF36
 3637 022e 0C       		.byte	0xc
 3638 022f E104     		.2byte	0x4e1
ARM GAS  C:\Users\DEVELO~1\AppData\Local\Temp\cc0byXRH.s 			page 65


 3639 0231 10       		.byte	0x10
 3640 0232 DF000000 		.4byte	0xdf
 3641 0236 44       		.byte	0x44
 3642 0237 01       		.uleb128 0x1
 3643 0238 800A0000 		.4byte	.LASF37
 3644 023c 0C       		.byte	0xc
 3645 023d E204     		.2byte	0x4e2
 3646 023f 10       		.byte	0x10
 3647 0240 D3000000 		.4byte	0xd3
 3648 0244 48       		.byte	0x48
 3649 0245 01       		.uleb128 0x1
 3650 0246 610B0000 		.4byte	.LASF38
 3651 024a 0C       		.byte	0xc
 3652 024b E304     		.2byte	0x4e3
 3653 024d 11       		.byte	0x11
 3654 024e DF000000 		.4byte	0xdf
 3655 0252 4C       		.byte	0x4c
 3656 0253 01       		.uleb128 0x1
 3657 0254 30060000 		.4byte	.LASF39
 3658 0258 0C       		.byte	0xc
 3659 0259 E404     		.2byte	0x4e4
 3660 025b 11       		.byte	0x11
 3661 025c DF000000 		.4byte	0xdf
 3662 0260 50       		.byte	0x50
 3663 0261 01       		.uleb128 0x1
 3664 0262 E0020000 		.4byte	.LASF40
 3665 0266 0C       		.byte	0xc
 3666 0267 E504     		.2byte	0x4e5
 3667 0269 11       		.byte	0x11
 3668 026a DF000000 		.4byte	0xdf
 3669 026e 54       		.byte	0x54
 3670 026f 01       		.uleb128 0x1
 3671 0270 C50D0000 		.4byte	.LASF41
 3672 0274 0C       		.byte	0xc
 3673 0275 E604     		.2byte	0x4e6
 3674 0277 11       		.byte	0x11
 3675 0278 DF000000 		.4byte	0xdf
 3676 027c 58       		.byte	0x58
 3677 027d 01       		.uleb128 0x1
 3678 027e 8A0A0000 		.4byte	.LASF42
 3679 0282 0C       		.byte	0xc
 3680 0283 E704     		.2byte	0x4e7
 3681 0285 10       		.byte	0x10
 3682 0286 D3000000 		.4byte	0xd3
 3683 028a 5C       		.byte	0x5c
 3684 028b 01       		.uleb128 0x1
 3685 028c 420C0000 		.4byte	.LASF43
 3686 0290 0C       		.byte	0xc
 3687 0291 E804     		.2byte	0x4e8
 3688 0293 11       		.byte	0x11
 3689 0294 DF000000 		.4byte	0xdf
 3690 0298 60       		.byte	0x60
 3691 0299 01       		.uleb128 0x1
 3692 029a 00030000 		.4byte	.LASF44
 3693 029e 0C       		.byte	0xc
 3694 029f E904     		.2byte	0x4e9
 3695 02a1 11       		.byte	0x11
ARM GAS  C:\Users\DEVELO~1\AppData\Local\Temp\cc0byXRH.s 			page 66


 3696 02a2 DF000000 		.4byte	0xdf
 3697 02a6 64       		.byte	0x64
 3698 02a7 01       		.uleb128 0x1
 3699 02a8 3A0A0000 		.4byte	.LASF45
 3700 02ac 0C       		.byte	0xc
 3701 02ad EA04     		.2byte	0x4ea
 3702 02af 11       		.byte	0x11
 3703 02b0 DF000000 		.4byte	0xdf
 3704 02b4 68       		.byte	0x68
 3705 02b5 01       		.uleb128 0x1
 3706 02b6 940A0000 		.4byte	.LASF46
 3707 02ba 0C       		.byte	0xc
 3708 02bb EB04     		.2byte	0x4eb
 3709 02bd 0F       		.byte	0xf
 3710 02be D3000000 		.4byte	0xd3
 3711 02c2 6C       		.byte	0x6c
 3712 02c3 01       		.uleb128 0x1
 3713 02c4 20020000 		.4byte	.LASF47
 3714 02c8 0C       		.byte	0xc
 3715 02c9 EC04     		.2byte	0x4ec
 3716 02cb 11       		.byte	0x11
 3717 02cc DF000000 		.4byte	0xdf
 3718 02d0 70       		.byte	0x70
 3719 02d1 27       		.uleb128 0x27
 3720 02d2 43535200 		.ascii	"CSR\000"
 3721 02d6 0C       		.byte	0xc
 3722 02d7 ED04     		.2byte	0x4ed
 3723 02d9 11       		.byte	0x11
 3724 02da DF000000 		.4byte	0xdf
 3725 02de 74       		.byte	0x74
 3726 02df 01       		.uleb128 0x1
 3727 02e0 9E0A0000 		.4byte	.LASF48
 3728 02e4 0C       		.byte	0xc
 3729 02e5 EE04     		.2byte	0x4ee
 3730 02e7 0F       		.byte	0xf
 3731 02e8 D3000000 		.4byte	0xd3
 3732 02ec 78       		.byte	0x78
 3733 02ed 01       		.uleb128 0x1
 3734 02ee F7040000 		.4byte	.LASF49
 3735 02f2 0C       		.byte	0xc
 3736 02f3 EF04     		.2byte	0x4ef
 3737 02f5 10       		.byte	0x10
 3738 02f6 DF000000 		.4byte	0xdf
 3739 02fa 7C       		.byte	0x7c
 3740 02fb 01       		.uleb128 0x1
 3741 02fc 0B0F0000 		.4byte	.LASF50
 3742 0300 0C       		.byte	0xc
 3743 0301 F004     		.2byte	0x4f0
 3744 0303 10       		.byte	0x10
 3745 0304 DF000000 		.4byte	0xdf
 3746 0308 80       		.byte	0x80
 3747 0309 01       		.uleb128 0x1
 3748 030a DD090000 		.4byte	.LASF51
 3749 030e 0C       		.byte	0xc
 3750 030f F104     		.2byte	0x4f1
 3751 0311 10       		.byte	0x10
 3752 0312 DF000000 		.4byte	0xdf
ARM GAS  C:\Users\DEVELO~1\AppData\Local\Temp\cc0byXRH.s 			page 67


 3753 0316 84       		.byte	0x84
 3754 0317 01       		.uleb128 0x1
 3755 0318 720E0000 		.4byte	.LASF52
 3756 031c 0C       		.byte	0xc
 3757 031d F204     		.2byte	0x4f2
 3758 031f 10       		.byte	0x10
 3759 0320 DF000000 		.4byte	0xdf
 3760 0324 88       		.byte	0x88
 3761 0325 01       		.uleb128 0x1
 3762 0326 200B0000 		.4byte	.LASF53
 3763 032a 0C       		.byte	0xc
 3764 032b F304     		.2byte	0x4f3
 3765 032d 10       		.byte	0x10
 3766 032e DF000000 		.4byte	0xdf
 3767 0332 8C       		.byte	0x8c
 3768 0333 01       		.uleb128 0x1
 3769 0334 2C090000 		.4byte	.LASF54
 3770 0338 0C       		.byte	0xc
 3771 0339 F404     		.2byte	0x4f4
 3772 033b 10       		.byte	0x10
 3773 033c DF000000 		.4byte	0xdf
 3774 0340 90       		.byte	0x90
 3775 0341 01       		.uleb128 0x1
 3776 0342 B5000000 		.4byte	.LASF55
 3777 0346 0C       		.byte	0xc
 3778 0347 F504     		.2byte	0x4f5
 3779 0349 10       		.byte	0x10
 3780 034a DF000000 		.4byte	0xdf
 3781 034e 94       		.byte	0x94
 3782 034f 01       		.uleb128 0x1
 3783 0350 11010000 		.4byte	.LASF56
 3784 0354 0C       		.byte	0xc
 3785 0355 F604     		.2byte	0x4f6
 3786 0357 10       		.byte	0x10
 3787 0358 DF000000 		.4byte	0xdf
 3788 035c 98       		.byte	0x98
 3789 035d 01       		.uleb128 0x1
 3790 035e DA050000 		.4byte	.LASF57
 3791 0362 0C       		.byte	0xc
 3792 0363 F704     		.2byte	0x4f7
 3793 0365 10       		.byte	0x10
 3794 0366 DF000000 		.4byte	0xdf
 3795 036a 9C       		.byte	0x9c
 3796 036b 27       		.uleb128 0x27
 3797 036c 47435200 		.ascii	"GCR\000"
 3798 0370 0C       		.byte	0xc
 3799 0371 F804     		.2byte	0x4f8
 3800 0373 10       		.byte	0x10
 3801 0374 DF000000 		.4byte	0xdf
 3802 0378 A0       		.byte	0xa0
 3803 0379 01       		.uleb128 0x1
 3804 037a AE0A0000 		.4byte	.LASF58
 3805 037e 0C       		.byte	0xc
 3806 037f F904     		.2byte	0x4f9
 3807 0381 0F       		.byte	0xf
 3808 0382 D3000000 		.4byte	0xd3
 3809 0386 A4       		.byte	0xa4
ARM GAS  C:\Users\DEVELO~1\AppData\Local\Temp\cc0byXRH.s 			page 68


 3810 0387 01       		.uleb128 0x1
 3811 0388 06090000 		.4byte	.LASF59
 3812 038c 0C       		.byte	0xc
 3813 038d FA04     		.2byte	0x4fa
 3814 038f 10       		.byte	0x10
 3815 0390 DF000000 		.4byte	0xdf
 3816 0394 A8       		.byte	0xa8
 3817 0395 01       		.uleb128 0x1
 3818 0396 280D0000 		.4byte	.LASF60
 3819 039a 0C       		.byte	0xc
 3820 039b FB04     		.2byte	0x4fb
 3821 039d 0F       		.byte	0xf
 3822 039e 0C010000 		.4byte	0x10c
 3823 03a2 AC       		.byte	0xac
 3824 03a3 27       		.uleb128 0x27
 3825 03a4 52535200 		.ascii	"RSR\000"
 3826 03a8 0C       		.byte	0xc
 3827 03a9 FC04     		.2byte	0x4fc
 3828 03ab 10       		.byte	0x10
 3829 03ac DF000000 		.4byte	0xdf
 3830 03b0 D0       		.byte	0xd0
 3831 03b1 01       		.uleb128 0x1
 3832 03b2 1F060000 		.4byte	.LASF61
 3833 03b6 0C       		.byte	0xc
 3834 03b7 FD04     		.2byte	0x4fd
 3835 03b9 10       		.byte	0x10
 3836 03ba DF000000 		.4byte	0xdf
 3837 03be D4       		.byte	0xd4
 3838 03bf 01       		.uleb128 0x1
 3839 03c0 0D040000 		.4byte	.LASF62
 3840 03c4 0C       		.byte	0xc
 3841 03c5 FE04     		.2byte	0x4fe
 3842 03c7 10       		.byte	0x10
 3843 03c8 DF000000 		.4byte	0xdf
 3844 03cc D8       		.byte	0xd8
 3845 03cd 01       		.uleb128 0x1
 3846 03ce 950C0000 		.4byte	.LASF63
 3847 03d2 0C       		.byte	0xc
 3848 03d3 FF04     		.2byte	0x4ff
 3849 03d5 10       		.byte	0x10
 3850 03d6 DF000000 		.4byte	0xdf
 3851 03da DC       		.byte	0xdc
 3852 03db 01       		.uleb128 0x1
 3853 03dc 48080000 		.4byte	.LASF64
 3854 03e0 0C       		.byte	0xc
 3855 03e1 0005     		.2byte	0x500
 3856 03e3 10       		.byte	0x10
 3857 03e4 DF000000 		.4byte	0xdf
 3858 03e8 E0       		.byte	0xe0
 3859 03e9 01       		.uleb128 0x1
 3860 03ea 6F030000 		.4byte	.LASF65
 3861 03ee 0C       		.byte	0xc
 3862 03ef 0105     		.2byte	0x501
 3863 03f1 10       		.byte	0x10
 3864 03f2 DF000000 		.4byte	0xdf
 3865 03f6 E4       		.byte	0xe4
 3866 03f7 01       		.uleb128 0x1
ARM GAS  C:\Users\DEVELO~1\AppData\Local\Temp\cc0byXRH.s 			page 69


 3867 03f8 020F0000 		.4byte	.LASF66
 3868 03fc 0C       		.byte	0xc
 3869 03fd 0205     		.2byte	0x502
 3870 03ff 10       		.byte	0x10
 3871 0400 DF000000 		.4byte	0xdf
 3872 0404 E8       		.byte	0xe8
 3873 0405 01       		.uleb128 0x1
 3874 0406 CD0A0000 		.4byte	.LASF67
 3875 040a 0C       		.byte	0xc
 3876 040b 0305     		.2byte	0x503
 3877 040d 10       		.byte	0x10
 3878 040e DF000000 		.4byte	0xdf
 3879 0412 EC       		.byte	0xec
 3880 0413 01       		.uleb128 0x1
 3881 0414 3C0B0000 		.4byte	.LASF68
 3882 0418 0C       		.byte	0xc
 3883 0419 0405     		.2byte	0x504
 3884 041b 10       		.byte	0x10
 3885 041c DF000000 		.4byte	0xdf
 3886 0420 F0       		.byte	0xf0
 3887 0421 01       		.uleb128 0x1
 3888 0422 B00B0000 		.4byte	.LASF69
 3889 0426 0C       		.byte	0xc
 3890 0427 0505     		.2byte	0x505
 3891 0429 10       		.byte	0x10
 3892 042a DF000000 		.4byte	0xdf
 3893 042e F4       		.byte	0xf4
 3894 042f 01       		.uleb128 0x1
 3895 0430 330D0000 		.4byte	.LASF70
 3896 0434 0C       		.byte	0xc
 3897 0435 0605     		.2byte	0x506
 3898 0437 10       		.byte	0x10
 3899 0438 D3000000 		.4byte	0xd3
 3900 043c F8       		.byte	0xf8
 3901 043d 01       		.uleb128 0x1
 3902 043e 2E0C0000 		.4byte	.LASF71
 3903 0442 0C       		.byte	0xc
 3904 0443 0705     		.2byte	0x507
 3905 0445 10       		.byte	0x10
 3906 0446 DF000000 		.4byte	0xdf
 3907 044a FC       		.byte	0xfc
 3908 044b 1F       		.uleb128 0x1f
 3909 044c 36090000 		.4byte	.LASF72
 3910 0450 0805     		.2byte	0x508
 3911 0452 10       		.byte	0x10
 3912 0453 DF000000 		.4byte	0xdf
 3913 0457 0001     		.2byte	0x100
 3914 0459 1F       		.uleb128 0x1f
 3915 045a 2C030000 		.4byte	.LASF73
 3916 045e 0905     		.2byte	0x509
 3917 0460 10       		.byte	0x10
 3918 0461 DF000000 		.4byte	0xdf
 3919 0465 0401     		.2byte	0x104
 3920 0467 1F       		.uleb128 0x1f
 3921 0468 7B060000 		.4byte	.LASF74
 3922 046c 0A05     		.2byte	0x50a
 3923 046e 10       		.byte	0x10
ARM GAS  C:\Users\DEVELO~1\AppData\Local\Temp\cc0byXRH.s 			page 70


 3924 046f DF000000 		.4byte	0xdf
 3925 0473 0801     		.2byte	0x108
 3926 0475 1F       		.uleb128 0x1f
 3927 0476 C30A0000 		.4byte	.LASF75
 3928 047a 0B05     		.2byte	0x50b
 3929 047c 10       		.byte	0x10
 3930 047d DF000000 		.4byte	0xdf
 3931 0481 0C01     		.2byte	0x10c
 3932 0483 1F       		.uleb128 0x1f
 3933 0484 D3010000 		.4byte	.LASF76
 3934 0488 0C05     		.2byte	0x50c
 3935 048a 10       		.byte	0x10
 3936 048b DF000000 		.4byte	0xdf
 3937 048f 1001     		.2byte	0x110
 3938 0491 1F       		.uleb128 0x1f
 3939 0492 8A0C0000 		.4byte	.LASF77
 3940 0496 0D05     		.2byte	0x50d
 3941 0498 10       		.byte	0x10
 3942 0499 DF000000 		.4byte	0xdf
 3943 049d 1401     		.2byte	0x114
 3944 049f 1F       		.uleb128 0x1f
 3945 04a0 F6000000 		.4byte	.LASF78
 3946 04a4 0E05     		.2byte	0x50e
 3947 04a6 10       		.byte	0x10
 3948 04a7 DF000000 		.4byte	0xdf
 3949 04ab 1801     		.2byte	0x118
 3950 04ad 1F       		.uleb128 0x1f
 3951 04ae 55050000 		.4byte	.LASF79
 3952 04b2 0F05     		.2byte	0x50f
 3953 04b4 10       		.byte	0x10
 3954 04b5 DF000000 		.4byte	0xdf
 3955 04b9 1C01     		.2byte	0x11c
 3956 04bb 1F       		.uleb128 0x1f
 3957 04bc 3E0D0000 		.4byte	.LASF80
 3958 04c0 1005     		.2byte	0x510
 3959 04c2 0F       		.byte	0xf
 3960 04c3 FC000000 		.4byte	0xfc
 3961 04c7 2001     		.2byte	0x120
 3962 04c9 00       		.byte	0
 3963 04ca 0E       		.uleb128 0xe
 3964 04cb 71020000 		.4byte	.LASF81
 3965 04cf 0C       		.byte	0xc
 3966 04d0 1205     		.2byte	0x512
 3967 04d2 03       		.byte	0x3
 3968 04d3 31010000 		.4byte	0x131
 3969 04d7 0B       		.uleb128 0xb
 3970 04d8 DF000000 		.4byte	0xdf
 3971 04dc E7040000 		.4byte	0x4e7
 3972 04e0 0C       		.uleb128 0xc
 3973 04e1 26000000 		.4byte	0x26
 3974 04e5 0E       		.byte	0xe
 3975 04e6 00       		.byte	0
 3976 04e7 18       		.uleb128 0x18
 3977 04e8 D7040000 		.4byte	0x4d7
 3978 04ec 11       		.uleb128 0x11
 3979 04ed 04       		.byte	0x4
 3980 04ee 04       		.byte	0x4
ARM GAS  C:\Users\DEVELO~1\AppData\Local\Temp\cc0byXRH.s 			page 71


 3981 04ef E4030000 		.4byte	.LASF82
 3982 04f3 11       		.uleb128 0x11
 3983 04f4 08       		.byte	0x8
 3984 04f5 04       		.byte	0x4
 3985 04f6 CF070000 		.4byte	.LASF83
 3986 04fa 0D       		.uleb128 0xd
 3987 04fb B6000000 		.4byte	0xb6
 3988 04ff 11       		.uleb128 0x11
 3989 0500 01       		.byte	0x1
 3990 0501 02       		.byte	0x2
 3991 0502 BC050000 		.4byte	.LASF84
 3992 0506 0D       		.uleb128 0xd
 3993 0507 DF000000 		.4byte	0xdf
 3994 050b 0D       		.uleb128 0xd
 3995 050c C2000000 		.4byte	0xc2
 3996 0510 0E       		.uleb128 0xe
 3997 0511 040E0000 		.4byte	.LASF85
 3998 0515 0D       		.byte	0xd
 3999 0516 0301     		.2byte	0x103
 4000 0518 1A       		.byte	0x1a
 4001 0519 1D050000 		.4byte	0x51d
 4002 051d 45       		.uleb128 0x45
 4003 051e 040E0000 		.4byte	.LASF85
 4004 0522 9C       		.byte	0x9c
 4005 0523 0E       		.byte	0xe
 4006 0524 A501     		.2byte	0x1a5
 4007 0526 08       		.byte	0x8
 4008 0527 36060000 		.4byte	0x636
 4009 052b 01       		.uleb128 0x1
 4010 052c 9C0D0000 		.4byte	.LASF86
 4011 0530 0E       		.byte	0xe
 4012 0531 A901     		.2byte	0x1a9
 4013 0533 21       		.byte	0x21
 4014 0534 73060000 		.4byte	0x673
 4015 0538 00       		.byte	0
 4016 0539 01       		.uleb128 0x1
 4017 053a 4D0A0000 		.4byte	.LASF87
 4018 053e 0E       		.byte	0xe
 4019 053f AD01     		.2byte	0x1ad
 4020 0541 22       		.byte	0x22
 4021 0542 D00E0000 		.4byte	0xed0
 4022 0546 04       		.byte	0x4
 4023 0547 01       		.uleb128 0x1
 4024 0548 83040000 		.4byte	.LASF88
 4025 054c 0E       		.byte	0xe
 4026 054d B101     		.2byte	0x1b1
 4027 054f 21       		.byte	0x21
 4028 0550 C7000000 		.4byte	0xc7
 4029 0554 08       		.byte	0x8
 4030 0555 01       		.uleb128 0x1
 4031 0556 F9070000 		.4byte	.LASF89
 4032 055a 0E       		.byte	0xe
 4033 055b B501     		.2byte	0x1b5
 4034 055d 21       		.byte	0x21
 4035 055e C7000000 		.4byte	0xc7
 4036 0562 0A       		.byte	0xa
 4037 0563 27       		.uleb128 0x27
ARM GAS  C:\Users\DEVELO~1\AppData\Local\Temp\cc0byXRH.s 			page 72


 4038 0564 65706300 		.ascii	"epc\000"
 4039 0568 0E       		.byte	0xe
 4040 0569 B901     		.2byte	0x1b9
 4041 056b 22       		.byte	0x22
 4042 056c D50E0000 		.4byte	0xed5
 4043 0570 0C       		.byte	0xc
 4044 0571 01       		.uleb128 0x1
 4045 0572 27080000 		.4byte	.LASF90
 4046 0576 0E       		.byte	0xe
 4047 0577 C001     		.2byte	0x1c0
 4048 0579 22       		.byte	0x22
 4049 057a EA0E0000 		.4byte	0xeea
 4050 057e 30       		.byte	0x30
 4051 057f 01       		.uleb128 0x1
 4052 0580 D60A0000 		.4byte	.LASF91
 4053 0584 0E       		.byte	0xe
 4054 0585 C701     		.2byte	0x1c7
 4055 0587 22       		.byte	0x22
 4056 0588 EA0E0000 		.4byte	0xeea
 4057 058c 50       		.byte	0x50
 4058 058d 01       		.uleb128 0x1
 4059 058e 63090000 		.4byte	.LASF92
 4060 0592 0E       		.byte	0xe
 4061 0593 CB01     		.2byte	0x1cb
 4062 0595 21       		.byte	0x21
 4063 0596 E1060000 		.4byte	0x6e1
 4064 059a 70       		.byte	0x70
 4065 059b 01       		.uleb128 0x1
 4066 059c C0060000 		.4byte	.LASF93
 4067 05a0 0E       		.byte	0xe
 4068 05a1 CF01     		.2byte	0x1cf
 4069 05a3 22       		.byte	0x22
 4070 05a4 FA040000 		.4byte	0x4fa
 4071 05a8 74       		.byte	0x74
 4072 05a9 01       		.uleb128 0x1
 4073 05aa E4070000 		.4byte	.LASF94
 4074 05ae 0E       		.byte	0xe
 4075 05af D301     		.2byte	0x1d3
 4076 05b1 21       		.byte	0x21
 4077 05b2 34000000 		.4byte	0x34
 4078 05b6 78       		.byte	0x78
 4079 05b7 01       		.uleb128 0x1
 4080 05b8 9A020000 		.4byte	.LASF95
 4081 05bc 0E       		.byte	0xe
 4082 05bd D701     		.2byte	0x1d7
 4083 05bf 21       		.byte	0x21
 4084 05c0 69070000 		.4byte	0x769
 4085 05c4 7C       		.byte	0x7c
 4086 05c5 01       		.uleb128 0x1
 4087 05c6 33040000 		.4byte	.LASF96
 4088 05ca 0E       		.byte	0xe
 4089 05cb DB01     		.2byte	0x1db
 4090 05cd 21       		.byte	0x21
 4091 05ce FA0E0000 		.4byte	0xefa
 4092 05d2 80       		.byte	0x80
 4093 05d3 01       		.uleb128 0x1
 4094 05d4 04070000 		.4byte	.LASF97
ARM GAS  C:\Users\DEVELO~1\AppData\Local\Temp\cc0byXRH.s 			page 73


 4095 05d8 0E       		.byte	0xe
 4096 05d9 DF01     		.2byte	0x1df
 4097 05db 21       		.byte	0x21
 4098 05dc C7000000 		.4byte	0xc7
 4099 05e0 88       		.byte	0x88
 4100 05e1 01       		.uleb128 0x1
 4101 05e2 720C0000 		.4byte	.LASF98
 4102 05e6 0E       		.byte	0xe
 4103 05e7 E301     		.2byte	0x1e3
 4104 05e9 21       		.byte	0x21
 4105 05ea B6000000 		.4byte	0xb6
 4106 05ee 8A       		.byte	0x8a
 4107 05ef 01       		.uleb128 0x1
 4108 05f0 8F050000 		.4byte	.LASF99
 4109 05f4 0E       		.byte	0xe
 4110 05f5 E701     		.2byte	0x1e7
 4111 05f7 21       		.byte	0x21
 4112 05f8 B6000000 		.4byte	0xb6
 4113 05fc 8B       		.byte	0x8b
 4114 05fd 01       		.uleb128 0x1
 4115 05fe 140B0000 		.4byte	.LASF100
 4116 0602 0E       		.byte	0xe
 4117 0603 EB01     		.2byte	0x1eb
 4118 0605 21       		.byte	0x21
 4119 0606 73060000 		.4byte	0x673
 4120 060a 8C       		.byte	0x8c
 4121 060b 27       		.uleb128 0x27
 4122 060c 6F746700 		.ascii	"otg\000"
 4123 0610 0E       		.byte	0xe
 4124 0611 F301     		.2byte	0x1f3
 4125 0613 22       		.byte	0x22
 4126 0614 0A0F0000 		.4byte	0xf0a
 4127 0618 90       		.byte	0x90
 4128 0619 01       		.uleb128 0x1
 4129 061a 4B0E0000 		.4byte	.LASF101
 4130 061e 0E       		.byte	0xe
 4131 061f F701     		.2byte	0x1f7
 4132 0621 22       		.byte	0x22
 4133 0622 0F0F0000 		.4byte	0xf0f
 4134 0626 94       		.byte	0x94
 4135 0627 01       		.uleb128 0x1
 4136 0628 610D0000 		.4byte	.LASF102
 4137 062c 0E       		.byte	0xe
 4138 062d FB01     		.2byte	0x1fb
 4139 062f 21       		.byte	0x21
 4140 0630 D3000000 		.4byte	0xd3
 4141 0634 98       		.byte	0x98
 4142 0635 00       		.byte	0
 4143 0636 0E       		.uleb128 0xe
 4144 0637 FE0C0000 		.4byte	.LASF103
 4145 063b 0D       		.byte	0xd
 4146 063c 0801     		.2byte	0x108
 4147 063e 11       		.byte	0x11
 4148 063f B6000000 		.4byte	0xb6
 4149 0643 2D       		.uleb128 0x2d
 4150 0644 61000000 		.4byte	0x61
 4151 0648 0D01     		.2byte	0x10d
ARM GAS  C:\Users\DEVELO~1\AppData\Local\Temp\cc0byXRH.s 			page 74


 4152 064a 73060000 		.4byte	0x673
 4153 064e 09       		.uleb128 0x9
 4154 064f AE060000 		.4byte	.LASF104
 4155 0653 00       		.byte	0
 4156 0654 09       		.uleb128 0x9
 4157 0655 F90E0000 		.4byte	.LASF105
 4158 0659 01       		.byte	0x1
 4159 065a 09       		.uleb128 0x9
 4160 065b 21010000 		.4byte	.LASF106
 4161 065f 02       		.byte	0x2
 4162 0660 09       		.uleb128 0x9
 4163 0661 A30B0000 		.4byte	.LASF107
 4164 0665 03       		.byte	0x3
 4165 0666 09       		.uleb128 0x9
 4166 0667 9D050000 		.4byte	.LASF108
 4167 066b 04       		.byte	0x4
 4168 066c 09       		.uleb128 0x9
 4169 066d B4080000 		.4byte	.LASF109
 4170 0671 05       		.byte	0x5
 4171 0672 00       		.byte	0
 4172 0673 0E       		.uleb128 0xe
 4173 0674 7D070000 		.4byte	.LASF110
 4174 0678 0D       		.byte	0xd
 4175 0679 1401     		.2byte	0x114
 4176 067b 03       		.byte	0x3
 4177 067c 43060000 		.4byte	0x643
 4178 0680 2D       		.uleb128 0x2d
 4179 0681 61000000 		.4byte	0x61
 4180 0685 1901     		.2byte	0x119
 4181 0687 9E060000 		.4byte	0x69e
 4182 068b 09       		.uleb128 0x9
 4183 068c 39040000 		.4byte	.LASF111
 4184 0690 00       		.byte	0
 4185 0691 09       		.uleb128 0x9
 4186 0692 69040000 		.4byte	.LASF112
 4187 0696 01       		.byte	0x1
 4188 0697 09       		.uleb128 0x9
 4189 0698 D20B0000 		.4byte	.LASF113
 4190 069c 02       		.byte	0x2
 4191 069d 00       		.byte	0
 4192 069e 0E       		.uleb128 0xe
 4193 069f A60C0000 		.4byte	.LASF114
 4194 06a3 0D       		.byte	0xd
 4195 06a4 1D01     		.2byte	0x11d
 4196 06a6 03       		.byte	0x3
 4197 06a7 80060000 		.4byte	0x680
 4198 06ab 2D       		.uleb128 0x2d
 4199 06ac 61000000 		.4byte	0x61
 4200 06b0 2201     		.2byte	0x122
 4201 06b2 E1060000 		.4byte	0x6e1
 4202 06b6 09       		.uleb128 0x9
 4203 06b7 A8050000 		.4byte	.LASF115
 4204 06bb 00       		.byte	0
 4205 06bc 09       		.uleb128 0x9
 4206 06bd 76090000 		.4byte	.LASF116
 4207 06c1 09       		.byte	0x9
 4208 06c2 09       		.uleb128 0x9
ARM GAS  C:\Users\DEVELO~1\AppData\Local\Temp\cc0byXRH.s 			page 75


 4209 06c3 E0040000 		.4byte	.LASF117
 4210 06c7 0A       		.byte	0xa
 4211 06c8 09       		.uleb128 0x9
 4212 06c9 140F0000 		.4byte	.LASF118
 4213 06cd 0B       		.byte	0xb
 4214 06ce 09       		.uleb128 0x9
 4215 06cf 540A0000 		.4byte	.LASF119
 4216 06d3 14       		.byte	0x14
 4217 06d4 09       		.uleb128 0x9
 4218 06d5 E9020000 		.4byte	.LASF120
 4219 06d9 15       		.byte	0x15
 4220 06da 09       		.uleb128 0x9
 4221 06db EA0C0000 		.4byte	.LASF121
 4222 06df 06       		.byte	0x6
 4223 06e0 00       		.byte	0
 4224 06e1 0E       		.uleb128 0xe
 4225 06e2 D30E0000 		.4byte	.LASF122
 4226 06e6 0D       		.byte	0xd
 4227 06e7 2A01     		.2byte	0x12a
 4228 06e9 03       		.byte	0x3
 4229 06ea AB060000 		.4byte	0x6ab
 4230 06ee 2D       		.uleb128 0x2d
 4231 06ef 61000000 		.4byte	0x61
 4232 06f3 2F01     		.2byte	0x12f
 4233 06f5 24070000 		.4byte	0x724
 4234 06f9 09       		.uleb128 0x9
 4235 06fa 58030000 		.4byte	.LASF123
 4236 06fe 00       		.byte	0
 4237 06ff 09       		.uleb128 0x9
 4238 0700 41060000 		.4byte	.LASF124
 4239 0704 01       		.byte	0x1
 4240 0705 09       		.uleb128 0x9
 4241 0706 15040000 		.4byte	.LASF125
 4242 070a 02       		.byte	0x2
 4243 070b 09       		.uleb128 0x9
 4244 070c EF080000 		.4byte	.LASF126
 4245 0710 03       		.byte	0x3
 4246 0711 09       		.uleb128 0x9
 4247 0712 33010000 		.4byte	.LASF127
 4248 0716 04       		.byte	0x4
 4249 0717 09       		.uleb128 0x9
 4250 0718 310F0000 		.4byte	.LASF128
 4251 071c 05       		.byte	0x5
 4252 071d 09       		.uleb128 0x9
 4253 071e 8E080000 		.4byte	.LASF129
 4254 0722 06       		.byte	0x6
 4255 0723 00       		.byte	0
 4256 0724 0E       		.uleb128 0xe
 4257 0725 9B0E0000 		.4byte	.LASF130
 4258 0729 0D       		.byte	0xd
 4259 072a 3701     		.2byte	0x137
 4260 072c 03       		.byte	0x3
 4261 072d EE060000 		.4byte	0x6ee
 4262 0731 28       		.uleb128 0x28
 4263 0732 08       		.byte	0x8
 4264 0733 0D       		.byte	0xd
 4265 0734 3C01     		.2byte	0x13c
ARM GAS  C:\Users\DEVELO~1\AppData\Local\Temp\cc0byXRH.s 			page 76


 4266 0736 57070000 		.4byte	0x757
 4267 073a 01       		.uleb128 0x1
 4268 073b DC030000 		.4byte	.LASF131
 4269 073f 0D       		.byte	0xd
 4270 0740 4001     		.2byte	0x140
 4271 0742 21       		.byte	0x21
 4272 0743 34000000 		.4byte	0x34
 4273 0747 00       		.byte	0
 4274 0748 01       		.uleb128 0x1
 4275 0749 520D0000 		.4byte	.LASF132
 4276 074d 0D       		.byte	0xd
 4277 074e 4401     		.2byte	0x144
 4278 0750 22       		.byte	0x22
 4279 0751 0B050000 		.4byte	0x50b
 4280 0755 04       		.byte	0x4
 4281 0756 00       		.byte	0
 4282 0757 0E       		.uleb128 0xe
 4283 0758 0C090000 		.4byte	.LASF133
 4284 075c 0D       		.byte	0xd
 4285 075d 4501     		.2byte	0x145
 4286 075f 03       		.byte	0x3
 4287 0760 31070000 		.4byte	0x731
 4288 0764 1E       		.uleb128 0x1e
 4289 0765 57070000 		.4byte	0x757
 4290 0769 0E       		.uleb128 0xe
 4291 076a E10E0000 		.4byte	.LASF134
 4292 076e 0D       		.byte	0xd
 4293 076f 4D01     		.2byte	0x14d
 4294 0771 10       		.byte	0x10
 4295 0772 76070000 		.4byte	0x776
 4296 0776 0D       		.uleb128 0xd
 4297 0777 7B070000 		.4byte	0x77b
 4298 077b 31       		.uleb128 0x31
 4299 077c 86070000 		.4byte	0x786
 4300 0780 06       		.uleb128 0x6
 4301 0781 86070000 		.4byte	0x786
 4302 0785 00       		.byte	0
 4303 0786 0D       		.uleb128 0xd
 4304 0787 10050000 		.4byte	0x510
 4305 078b 0E       		.uleb128 0xe
 4306 078c C20B0000 		.4byte	.LASF135
 4307 0790 0D       		.byte	0xd
 4308 0791 5601     		.2byte	0x156
 4309 0793 10       		.byte	0x10
 4310 0794 98070000 		.4byte	0x798
 4311 0798 0D       		.uleb128 0xd
 4312 0799 9D070000 		.4byte	0x79d
 4313 079d 31       		.uleb128 0x31
 4314 079e AD070000 		.4byte	0x7ad
 4315 07a2 06       		.uleb128 0x6
 4316 07a3 86070000 		.4byte	0x786
 4317 07a7 06       		.uleb128 0x6
 4318 07a8 36060000 		.4byte	0x636
 4319 07ac 00       		.byte	0
 4320 07ad 0E       		.uleb128 0xe
 4321 07ae B7020000 		.4byte	.LASF136
 4322 07b2 0D       		.byte	0xd
ARM GAS  C:\Users\DEVELO~1\AppData\Local\Temp\cc0byXRH.s 			page 77


 4323 07b3 5F01     		.2byte	0x15f
 4324 07b5 10       		.byte	0x10
 4325 07b6 BA070000 		.4byte	0x7ba
 4326 07ba 0D       		.uleb128 0xd
 4327 07bb BF070000 		.4byte	0x7bf
 4328 07bf 31       		.uleb128 0x31
 4329 07c0 CF070000 		.4byte	0x7cf
 4330 07c4 06       		.uleb128 0x6
 4331 07c5 86070000 		.4byte	0x786
 4332 07c9 06       		.uleb128 0x6
 4333 07ca 24070000 		.4byte	0x724
 4334 07ce 00       		.byte	0
 4335 07cf 0E       		.uleb128 0xe
 4336 07d0 85020000 		.4byte	.LASF137
 4337 07d4 0D       		.byte	0xd
 4338 07d5 6B01     		.2byte	0x16b
 4339 07d7 10       		.byte	0x10
 4340 07d8 DC070000 		.4byte	0x7dc
 4341 07dc 0D       		.uleb128 0xd
 4342 07dd E1070000 		.4byte	0x7e1
 4343 07e1 37       		.uleb128 0x37
 4344 07e2 FF040000 		.4byte	0x4ff
 4345 07e6 F0070000 		.4byte	0x7f0
 4346 07ea 06       		.uleb128 0x6
 4347 07eb 86070000 		.4byte	0x786
 4348 07ef 00       		.byte	0
 4349 07f0 0E       		.uleb128 0xe
 4350 07f1 290B0000 		.4byte	.LASF138
 4351 07f5 0D       		.byte	0xd
 4352 07f6 7001     		.2byte	0x170
 4353 07f8 21       		.byte	0x21
 4354 07f9 FD070000 		.4byte	0x7fd
 4355 07fd 0D       		.uleb128 0xd
 4356 07fe 02080000 		.4byte	0x802
 4357 0802 37       		.uleb128 0x37
 4358 0803 20080000 		.4byte	0x820
 4359 0807 20080000 		.4byte	0x820
 4360 080b 06       		.uleb128 0x6
 4361 080c 86070000 		.4byte	0x786
 4362 0810 06       		.uleb128 0x6
 4363 0811 B6000000 		.4byte	0xb6
 4364 0815 06       		.uleb128 0x6
 4365 0816 B6000000 		.4byte	0xb6
 4366 081a 06       		.uleb128 0x6
 4367 081b C7000000 		.4byte	0xc7
 4368 081f 00       		.byte	0
 4369 0820 0D       		.uleb128 0xd
 4370 0821 64070000 		.4byte	0x764
 4371 0825 32       		.uleb128 0x32
 4372 0826 29       		.byte	0x29
 4373 0827 84080000 		.4byte	0x884
 4374 082b 04       		.uleb128 0x4
 4375 082c E3050000 		.4byte	.LASF139
 4376 0830 2A       		.byte	0x2a
 4377 0831 DF000000 		.4byte	0xdf
 4378 0835 00       		.byte	0
 4379 0836 04       		.uleb128 0x4
ARM GAS  C:\Users\DEVELO~1\AppData\Local\Temp\cc0byXRH.s 			page 78


 4380 0837 0E0D0000 		.4byte	.LASF140
 4381 083b 2C       		.byte	0x2c
 4382 083c DF000000 		.4byte	0xdf
 4383 0840 04       		.byte	0x4
 4384 0841 04       		.uleb128 0x4
 4385 0842 A80A0000 		.4byte	.LASF141
 4386 0846 2D       		.byte	0x2d
 4387 0847 DF000000 		.4byte	0xdf
 4388 084b 08       		.byte	0x8
 4389 084c 04       		.uleb128 0x4
 4390 084d 72060000 		.4byte	.LASF142
 4391 0851 2E       		.byte	0x2e
 4392 0852 DF000000 		.4byte	0xdf
 4393 0856 0C       		.byte	0xc
 4394 0857 04       		.uleb128 0x4
 4395 0858 18060000 		.4byte	.LASF143
 4396 085c 30       		.byte	0x30
 4397 085d DF000000 		.4byte	0xdf
 4398 0861 10       		.byte	0x10
 4399 0862 04       		.uleb128 0x4
 4400 0863 25020000 		.4byte	.LASF144
 4401 0867 32       		.byte	0x32
 4402 0868 DF000000 		.4byte	0xdf
 4403 086c 14       		.byte	0x14
 4404 086d 04       		.uleb128 0x4
 4405 086e 35020000 		.4byte	.LASF145
 4406 0872 33       		.byte	0x33
 4407 0873 DF000000 		.4byte	0xdf
 4408 0877 18       		.byte	0x18
 4409 0878 04       		.uleb128 0x4
 4410 0879 05030000 		.4byte	.LASF146
 4411 087d 34       		.byte	0x34
 4412 087e DF000000 		.4byte	0xdf
 4413 0882 1C       		.byte	0x1c
 4414 0883 00       		.byte	0
 4415 0884 12       		.uleb128 0x12
 4416 0885 5C080000 		.4byte	.LASF147
 4417 0889 0F       		.byte	0xf
 4418 088a 35       		.byte	0x35
 4419 088b 03       		.byte	0x3
 4420 088c 25080000 		.4byte	0x825
 4421 0890 32       		.uleb128 0x32
 4422 0891 3A       		.byte	0x3a
 4423 0892 EF080000 		.4byte	0x8ef
 4424 0896 04       		.uleb128 0x4
 4425 0897 0C0B0000 		.4byte	.LASF148
 4426 089b 3B       		.byte	0x3b
 4427 089c DF000000 		.4byte	0xdf
 4428 08a0 00       		.byte	0
 4429 08a1 04       		.uleb128 0x4
 4430 08a2 1A010000 		.4byte	.LASF149
 4431 08a6 3D       		.byte	0x3d
 4432 08a7 DF000000 		.4byte	0xdf
 4433 08ab 04       		.byte	0x4
 4434 08ac 04       		.uleb128 0x4
 4435 08ad A20D0000 		.4byte	.LASF150
 4436 08b1 3E       		.byte	0x3e
ARM GAS  C:\Users\DEVELO~1\AppData\Local\Temp\cc0byXRH.s 			page 79


 4437 08b2 DF000000 		.4byte	0xdf
 4438 08b6 08       		.byte	0x8
 4439 08b7 04       		.uleb128 0x4
 4440 08b8 5F010000 		.4byte	.LASF151
 4441 08bc 40       		.byte	0x40
 4442 08bd DF000000 		.4byte	0xdf
 4443 08c1 0C       		.byte	0xc
 4444 08c2 04       		.uleb128 0x4
 4445 08c3 D4000000 		.4byte	.LASF152
 4446 08c7 41       		.byte	0x41
 4447 08c8 DF000000 		.4byte	0xdf
 4448 08cc 10       		.byte	0x10
 4449 08cd 04       		.uleb128 0x4
 4450 08ce 25020000 		.4byte	.LASF144
 4451 08d2 43       		.byte	0x43
 4452 08d3 DF000000 		.4byte	0xdf
 4453 08d7 14       		.byte	0x14
 4454 08d8 04       		.uleb128 0x4
 4455 08d9 31080000 		.4byte	.LASF153
 4456 08dd 44       		.byte	0x44
 4457 08de DF000000 		.4byte	0xdf
 4458 08e2 18       		.byte	0x18
 4459 08e3 04       		.uleb128 0x4
 4460 08e4 49020000 		.4byte	.LASF154
 4461 08e8 46       		.byte	0x46
 4462 08e9 DF000000 		.4byte	0xdf
 4463 08ed 1C       		.byte	0x1c
 4464 08ee 00       		.byte	0
 4465 08ef 12       		.uleb128 0x12
 4466 08f0 3E050000 		.4byte	.LASF155
 4467 08f4 0F       		.byte	0xf
 4468 08f5 47       		.byte	0x47
 4469 08f6 03       		.byte	0x3
 4470 08f7 90080000 		.4byte	0x890
 4471 08fb 32       		.uleb128 0x32
 4472 08fc 4C       		.byte	0x4c
 4473 08fd 5A090000 		.4byte	0x95a
 4474 0901 04       		.uleb128 0x4
 4475 0902 B4070000 		.4byte	.LASF156
 4476 0906 4D       		.byte	0x4d
 4477 0907 DF000000 		.4byte	0xdf
 4478 090b 00       		.byte	0
 4479 090c 04       		.uleb128 0x4
 4480 090d 1A010000 		.4byte	.LASF149
 4481 0911 4F       		.byte	0x4f
 4482 0912 DF000000 		.4byte	0xdf
 4483 0916 04       		.byte	0x4
 4484 0917 04       		.uleb128 0x4
 4485 0918 AC070000 		.4byte	.LASF157
 4486 091c 50       		.byte	0x50
 4487 091d DF000000 		.4byte	0xdf
 4488 0921 08       		.byte	0x8
 4489 0922 04       		.uleb128 0x4
 4490 0923 5F010000 		.4byte	.LASF151
 4491 0927 52       		.byte	0x52
 4492 0928 DF000000 		.4byte	0xdf
 4493 092c 0C       		.byte	0xc
ARM GAS  C:\Users\DEVELO~1\AppData\Local\Temp\cc0byXRH.s 			page 80


 4494 092d 04       		.uleb128 0x4
 4495 092e 00050000 		.4byte	.LASF158
 4496 0932 53       		.byte	0x53
 4497 0933 DF000000 		.4byte	0xdf
 4498 0937 10       		.byte	0x10
 4499 0938 04       		.uleb128 0x4
 4500 0939 25020000 		.4byte	.LASF144
 4501 093d 55       		.byte	0x55
 4502 093e DF000000 		.4byte	0xdf
 4503 0942 14       		.byte	0x14
 4504 0943 04       		.uleb128 0x4
 4505 0944 35020000 		.4byte	.LASF145
 4506 0948 56       		.byte	0x56
 4507 0949 DF000000 		.4byte	0xdf
 4508 094d 18       		.byte	0x18
 4509 094e 04       		.uleb128 0x4
 4510 094f 49020000 		.4byte	.LASF154
 4511 0953 57       		.byte	0x57
 4512 0954 DF000000 		.4byte	0xdf
 4513 0958 1C       		.byte	0x1c
 4514 0959 00       		.byte	0
 4515 095a 12       		.uleb128 0x12
 4516 095b F8050000 		.4byte	.LASF159
 4517 095f 0F       		.byte	0xf
 4518 0960 58       		.byte	0x58
 4519 0961 03       		.byte	0x3
 4520 0962 FB080000 		.4byte	0x8fb
 4521 0966 46       		.uleb128 0x46
 4522 0967 00100100 		.4byte	0x11000
 4523 096b 0F       		.byte	0xf
 4524 096c 5D       		.byte	0x5d
 4525 096d 09       		.byte	0x9
 4526 096e 100C0000 		.4byte	0xc10
 4527 0972 04       		.uleb128 0x4
 4528 0973 FE0B0000 		.4byte	.LASF160
 4529 0977 5E       		.byte	0x5e
 4530 0978 DF000000 		.4byte	0xdf
 4531 097c 00       		.byte	0
 4532 097d 04       		.uleb128 0x4
 4533 097e F60B0000 		.4byte	.LASF161
 4534 0982 5F       		.byte	0x5f
 4535 0983 DF000000 		.4byte	0xdf
 4536 0987 04       		.byte	0x4
 4537 0988 04       		.uleb128 0x4
 4538 0989 9C090000 		.4byte	.LASF162
 4539 098d 60       		.byte	0x60
 4540 098e DF000000 		.4byte	0xdf
 4541 0992 08       		.byte	0x8
 4542 0993 04       		.uleb128 0x4
 4543 0994 50030000 		.4byte	.LASF163
 4544 0998 61       		.byte	0x61
 4545 0999 DF000000 		.4byte	0xdf
 4546 099d 0C       		.byte	0xc
 4547 099e 04       		.uleb128 0x4
 4548 099f 98060000 		.4byte	.LASF164
 4549 09a3 62       		.byte	0x62
 4550 09a4 DF000000 		.4byte	0xdf
ARM GAS  C:\Users\DEVELO~1\AppData\Local\Temp\cc0byXRH.s 			page 81


 4551 09a8 10       		.byte	0x10
 4552 09a9 04       		.uleb128 0x4
 4553 09aa 2D020000 		.4byte	.LASF165
 4554 09ae 63       		.byte	0x63
 4555 09af DF000000 		.4byte	0xdf
 4556 09b3 14       		.byte	0x14
 4557 09b4 04       		.uleb128 0x4
 4558 09b5 FD090000 		.4byte	.LASF166
 4559 09b9 64       		.byte	0x64
 4560 09ba DF000000 		.4byte	0xdf
 4561 09be 18       		.byte	0x18
 4562 09bf 04       		.uleb128 0x4
 4563 09c0 820C0000 		.4byte	.LASF167
 4564 09c4 65       		.byte	0x65
 4565 09c5 DF000000 		.4byte	0xdf
 4566 09c9 1C       		.byte	0x1c
 4567 09ca 04       		.uleb128 0x4
 4568 09cb 7A0C0000 		.4byte	.LASF168
 4569 09cf 67       		.byte	0x67
 4570 09d0 DF000000 		.4byte	0xdf
 4571 09d4 20       		.byte	0x20
 4572 09d5 04       		.uleb128 0x4
 4573 09d6 7B040000 		.4byte	.LASF169
 4574 09da 69       		.byte	0x69
 4575 09db DF000000 		.4byte	0xdf
 4576 09df 24       		.byte	0x24
 4577 09e0 04       		.uleb128 0x4
 4578 09e1 E30B0000 		.4byte	.LASF170
 4579 09e5 6A       		.byte	0x6a
 4580 09e6 DF000000 		.4byte	0xdf
 4581 09ea 28       		.byte	0x28
 4582 09eb 04       		.uleb128 0x4
 4583 09ec B40C0000 		.4byte	.LASF171
 4584 09f0 6C       		.byte	0x6c
 4585 09f1 DF000000 		.4byte	0xdf
 4586 09f5 2C       		.byte	0x2c
 4587 09f6 04       		.uleb128 0x4
 4588 09f7 05040000 		.4byte	.LASF172
 4589 09fb 6E       		.byte	0x6e
 4590 09fc DF000000 		.4byte	0xdf
 4591 0a00 30       		.byte	0x30
 4592 0a01 04       		.uleb128 0x4
 4593 0a02 F6010000 		.4byte	.LASF173
 4594 0a06 6F       		.byte	0x6f
 4595 0a07 DF000000 		.4byte	0xdf
 4596 0a0b 34       		.byte	0x34
 4597 0a0c 04       		.uleb128 0x4
 4598 0a0d 3D020000 		.4byte	.LASF174
 4599 0a11 70       		.byte	0x70
 4600 0a12 DF000000 		.4byte	0xdf
 4601 0a16 38       		.byte	0x38
 4602 0a17 47       		.uleb128 0x47
 4603 0a18 43494400 		.ascii	"CID\000"
 4604 0a1c 0F       		.byte	0xf
 4605 0a1d 71       		.byte	0x71
 4606 0a1e 15       		.byte	0x15
 4607 0a1f DF000000 		.4byte	0xdf
ARM GAS  C:\Users\DEVELO~1\AppData\Local\Temp\cc0byXRH.s 			page 82


 4608 0a23 3C       		.byte	0x3c
 4609 0a24 04       		.uleb128 0x4
 4610 0a25 EA050000 		.4byte	.LASF175
 4611 0a29 72       		.byte	0x72
 4612 0a2a 200C0000 		.4byte	0xc20
 4613 0a2e 40       		.byte	0x40
 4614 0a2f 05       		.uleb128 0x5
 4615 0a30 200A0000 		.4byte	.LASF176
 4616 0a34 73       		.byte	0x73
 4617 0a35 DF000000 		.4byte	0xdf
 4618 0a39 0001     		.2byte	0x100
 4619 0a3b 05       		.uleb128 0x5
 4620 0a3c AF0D0000 		.4byte	.LASF177
 4621 0a40 75       		.byte	0x75
 4622 0a41 E7040000 		.4byte	0x4e7
 4623 0a45 0401     		.2byte	0x104
 4624 0a47 05       		.uleb128 0x5
 4625 0a48 B6030000 		.4byte	.LASF178
 4626 0a4c 77       		.byte	0x77
 4627 0a4d 350C0000 		.4byte	0xc35
 4628 0a51 4001     		.2byte	0x140
 4629 0a53 05       		.uleb128 0x5
 4630 0a54 CF050000 		.4byte	.LASF179
 4631 0a58 78       		.byte	0x78
 4632 0a59 DF000000 		.4byte	0xdf
 4633 0a5d 0004     		.2byte	0x400
 4634 0a5f 05       		.uleb128 0x5
 4635 0a60 AA0D0000 		.4byte	.LASF180
 4636 0a64 79       		.byte	0x79
 4637 0a65 DF000000 		.4byte	0xdf
 4638 0a69 0404     		.2byte	0x404
 4639 0a6b 05       		.uleb128 0x5
 4640 0a6c F80C0000 		.4byte	.LASF181
 4641 0a70 7A       		.byte	0x7a
 4642 0a71 DF000000 		.4byte	0xdf
 4643 0a75 0804     		.2byte	0x408
 4644 0a77 05       		.uleb128 0x5
 4645 0a78 85030000 		.4byte	.LASF182
 4646 0a7c 7C       		.byte	0x7c
 4647 0a7d DF000000 		.4byte	0xdf
 4648 0a81 0C04     		.2byte	0x40c
 4649 0a83 05       		.uleb128 0x5
 4650 0a84 F8020000 		.4byte	.LASF183
 4651 0a88 7D       		.byte	0x7d
 4652 0a89 DF000000 		.4byte	0xdf
 4653 0a8d 1004     		.2byte	0x410
 4654 0a8f 05       		.uleb128 0x5
 4655 0a90 E9070000 		.4byte	.LASF184
 4656 0a94 7F       		.byte	0x7f
 4657 0a95 DF000000 		.4byte	0xdf
 4658 0a99 1404     		.2byte	0x414
 4659 0a9b 05       		.uleb128 0x5
 4660 0a9c 53060000 		.4byte	.LASF185
 4661 0aa0 81       		.byte	0x81
 4662 0aa1 DF000000 		.4byte	0xdf
 4663 0aa5 1804     		.2byte	0x418
 4664 0aa7 05       		.uleb128 0x5
ARM GAS  C:\Users\DEVELO~1\AppData\Local\Temp\cc0byXRH.s 			page 83


 4665 0aa8 C8030000 		.4byte	.LASF186
 4666 0aac 83       		.byte	0x83
 4667 0aad 4A0C0000 		.4byte	0xc4a
 4668 0ab1 1C04     		.2byte	0x41c
 4669 0ab3 05       		.uleb128 0x5
 4670 0ab4 09050000 		.4byte	.LASF187
 4671 0ab8 84       		.byte	0x84
 4672 0ab9 DF000000 		.4byte	0xdf
 4673 0abd 4004     		.2byte	0x440
 4674 0abf 05       		.uleb128 0x5
 4675 0ac0 27060000 		.4byte	.LASF188
 4676 0ac4 86       		.byte	0x86
 4677 0ac5 5F0C0000 		.4byte	0xc5f
 4678 0ac9 4404     		.2byte	0x444
 4679 0acb 33       		.uleb128 0x33
 4680 0acc 686300   		.ascii	"hc\000"
 4681 0acf 87       		.byte	0x87
 4682 0ad0 18       		.byte	0x18
 4683 0ad1 640C0000 		.4byte	0xc64
 4684 0ad5 0005     		.2byte	0x500
 4685 0ad7 05       		.uleb128 0x5
 4686 0ad8 16050000 		.4byte	.LASF189
 4687 0adc 88       		.byte	0x88
 4688 0add 840C0000 		.4byte	0xc84
 4689 0ae1 0007     		.2byte	0x700
 4690 0ae3 05       		.uleb128 0x5
 4691 0ae4 F1000000 		.4byte	.LASF190
 4692 0ae8 89       		.byte	0x89
 4693 0ae9 DF000000 		.4byte	0xdf
 4694 0aed 0008     		.2byte	0x800
 4695 0aef 05       		.uleb128 0x5
 4696 0af0 B70D0000 		.4byte	.LASF191
 4697 0af4 8A       		.byte	0x8a
 4698 0af5 DF000000 		.4byte	0xdf
 4699 0af9 0408     		.2byte	0x804
 4700 0afb 05       		.uleb128 0x5
 4701 0afc 50050000 		.4byte	.LASF192
 4702 0b00 8B       		.byte	0x8b
 4703 0b01 DF000000 		.4byte	0xdf
 4704 0b05 0808     		.2byte	0x808
 4705 0b07 05       		.uleb128 0x5
 4706 0b08 580B0000 		.4byte	.LASF193
 4707 0b0c 8C       		.byte	0x8c
 4708 0b0d DF000000 		.4byte	0xdf
 4709 0b11 0C08     		.2byte	0x80c
 4710 0b13 05       		.uleb128 0x5
 4711 0b14 210C0000 		.4byte	.LASF194
 4712 0b18 8D       		.byte	0x8d
 4713 0b19 DF000000 		.4byte	0xdf
 4714 0b1d 1008     		.2byte	0x810
 4715 0b1f 05       		.uleb128 0x5
 4716 0b20 39060000 		.4byte	.LASF195
 4717 0b24 8F       		.byte	0x8f
 4718 0b25 DF000000 		.4byte	0xdf
 4719 0b29 1408     		.2byte	0x814
 4720 0b2b 05       		.uleb128 0x5
 4721 0b2c 6C0E0000 		.4byte	.LASF196
ARM GAS  C:\Users\DEVELO~1\AppData\Local\Temp\cc0byXRH.s 			page 84


 4722 0b30 91       		.byte	0x91
 4723 0b31 DF000000 		.4byte	0xdf
 4724 0b35 1808     		.2byte	0x818
 4725 0b37 05       		.uleb128 0x5
 4726 0b38 060C0000 		.4byte	.LASF197
 4727 0b3c 93       		.byte	0x93
 4728 0b3d DF000000 		.4byte	0xdf
 4729 0b41 1C08     		.2byte	0x81c
 4730 0b43 05       		.uleb128 0x5
 4731 0b44 C30C0000 		.4byte	.LASF198
 4732 0b48 95       		.byte	0x95
 4733 0b49 DF000000 		.4byte	0xdf
 4734 0b4d 2008     		.2byte	0x820
 4735 0b4f 05       		.uleb128 0x5
 4736 0b50 E10C0000 		.4byte	.LASF199
 4737 0b54 96       		.byte	0x96
 4738 0b55 DF000000 		.4byte	0xdf
 4739 0b59 2408     		.2byte	0x824
 4740 0b5b 05       		.uleb128 0x5
 4741 0b5c 47030000 		.4byte	.LASF200
 4742 0b60 97       		.byte	0x97
 4743 0b61 DF000000 		.4byte	0xdf
 4744 0b65 2808     		.2byte	0x828
 4745 0b67 05       		.uleb128 0x5
 4746 0b68 DA080000 		.4byte	.LASF201
 4747 0b6c 99       		.byte	0x99
 4748 0b6d DF000000 		.4byte	0xdf
 4749 0b71 2C08     		.2byte	0x82c
 4750 0b73 05       		.uleb128 0x5
 4751 0b74 D90D0000 		.4byte	.LASF202
 4752 0b78 9B       		.byte	0x9b
 4753 0b79 DF000000 		.4byte	0xdf
 4754 0b7d 3008     		.2byte	0x830
 4755 0b7f 05       		.uleb128 0x5
 4756 0b80 D1030000 		.4byte	.LASF203
 4757 0b84 9C       		.byte	0x9c
 4758 0b85 DF000000 		.4byte	0xdf
 4759 0b89 3408     		.2byte	0x834
 4760 0b8b 05       		.uleb128 0x5
 4761 0b8c E80D0000 		.4byte	.LASF204
 4762 0b90 9E       		.byte	0x9e
 4763 0b91 DF000000 		.4byte	0xdf
 4764 0b95 3808     		.2byte	0x838
 4765 0b97 05       		.uleb128 0x5
 4766 0b98 0E0E0000 		.4byte	.LASF205
 4767 0b9c 9F       		.byte	0x9f
 4768 0b9d DF000000 		.4byte	0xdf
 4769 0ba1 3C08     		.2byte	0x83c
 4770 0ba3 05       		.uleb128 0x5
 4771 0ba4 B80E0000 		.4byte	.LASF206
 4772 0ba8 A0       		.byte	0xa0
 4773 0ba9 2C010000 		.4byte	0x12c
 4774 0bad 4008     		.2byte	0x840
 4775 0baf 05       		.uleb128 0x5
 4776 0bb0 2A040000 		.4byte	.LASF207
 4777 0bb4 A1       		.byte	0xa1
 4778 0bb5 2C010000 		.4byte	0x12c
ARM GAS  C:\Users\DEVELO~1\AppData\Local\Temp\cc0byXRH.s 			page 85


 4779 0bb9 8008     		.2byte	0x880
 4780 0bbb 05       		.uleb128 0x5
 4781 0bbc 8B0E0000 		.4byte	.LASF208
 4782 0bc0 A2       		.byte	0xa2
 4783 0bc1 2C010000 		.4byte	0x12c
 4784 0bc5 C008     		.2byte	0x8c0
 4785 0bc7 33       		.uleb128 0x33
 4786 0bc8 696500   		.ascii	"ie\000"
 4787 0bcb A3       		.byte	0xa3
 4788 0bcc 15       		.byte	0x15
 4789 0bcd 890C0000 		.4byte	0xc89
 4790 0bd1 0009     		.2byte	0x900
 4791 0bd3 33       		.uleb128 0x33
 4792 0bd4 6F6500   		.ascii	"oe\000"
 4793 0bd7 A4       		.byte	0xa4
 4794 0bd8 16       		.byte	0x16
 4795 0bd9 990C0000 		.4byte	0xc99
 4796 0bdd 000B     		.2byte	0xb00
 4797 0bdf 05       		.uleb128 0x5
 4798 0be0 19070000 		.4byte	.LASF209
 4799 0be4 A5       		.byte	0xa5
 4800 0be5 840C0000 		.4byte	0xc84
 4801 0be9 000D     		.2byte	0xd00
 4802 0beb 05       		.uleb128 0x5
 4803 0bec 860B0000 		.4byte	.LASF210
 4804 0bf0 A6       		.byte	0xa6
 4805 0bf1 DF000000 		.4byte	0xdf
 4806 0bf5 000E     		.2byte	0xe00
 4807 0bf7 05       		.uleb128 0x5
 4808 0bf8 490D0000 		.4byte	.LASF211
 4809 0bfc A8       		.byte	0xa8
 4810 0bfd B90C0000 		.4byte	0xcb9
 4811 0c01 040E     		.2byte	0xe04
 4812 0c03 05       		.uleb128 0x5
 4813 0c04 AF080000 		.4byte	.LASF212
 4814 0c08 A9       		.byte	0xa9
 4815 0c09 D50C0000 		.4byte	0xcd5
 4816 0c0d 0010     		.2byte	0x1000
 4817 0c0f 00       		.byte	0
 4818 0c10 0B       		.uleb128 0xb
 4819 0c11 DF000000 		.4byte	0xdf
 4820 0c15 200C0000 		.4byte	0xc20
 4821 0c19 0C       		.uleb128 0xc
 4822 0c1a 26000000 		.4byte	0x26
 4823 0c1e 2F       		.byte	0x2f
 4824 0c1f 00       		.byte	0
 4825 0c20 18       		.uleb128 0x18
 4826 0c21 100C0000 		.4byte	0xc10
 4827 0c25 0B       		.uleb128 0xb
 4828 0c26 DF000000 		.4byte	0xdf
 4829 0c2a 350C0000 		.4byte	0xc35
 4830 0c2e 0C       		.uleb128 0xc
 4831 0c2f 26000000 		.4byte	0x26
 4832 0c33 AF       		.byte	0xaf
 4833 0c34 00       		.byte	0
 4834 0c35 18       		.uleb128 0x18
 4835 0c36 250C0000 		.4byte	0xc25
ARM GAS  C:\Users\DEVELO~1\AppData\Local\Temp\cc0byXRH.s 			page 86


 4836 0c3a 0B       		.uleb128 0xb
 4837 0c3b DF000000 		.4byte	0xdf
 4838 0c3f 4A0C0000 		.4byte	0xc4a
 4839 0c43 0C       		.uleb128 0xc
 4840 0c44 26000000 		.4byte	0x26
 4841 0c48 08       		.byte	0x8
 4842 0c49 00       		.byte	0
 4843 0c4a 18       		.uleb128 0x18
 4844 0c4b 3A0C0000 		.4byte	0xc3a
 4845 0c4f 0B       		.uleb128 0xb
 4846 0c50 DF000000 		.4byte	0xdf
 4847 0c54 5F0C0000 		.4byte	0xc5f
 4848 0c58 0C       		.uleb128 0xc
 4849 0c59 26000000 		.4byte	0x26
 4850 0c5d 2E       		.byte	0x2e
 4851 0c5e 00       		.byte	0
 4852 0c5f 18       		.uleb128 0x18
 4853 0c60 4F0C0000 		.4byte	0xc4f
 4854 0c64 0B       		.uleb128 0xb
 4855 0c65 84080000 		.4byte	0x884
 4856 0c69 740C0000 		.4byte	0xc74
 4857 0c6d 0C       		.uleb128 0xc
 4858 0c6e 26000000 		.4byte	0x26
 4859 0c72 0F       		.byte	0xf
 4860 0c73 00       		.byte	0
 4861 0c74 0B       		.uleb128 0xb
 4862 0c75 DF000000 		.4byte	0xdf
 4863 0c79 840C0000 		.4byte	0xc84
 4864 0c7d 0C       		.uleb128 0xc
 4865 0c7e 26000000 		.4byte	0x26
 4866 0c82 3F       		.byte	0x3f
 4867 0c83 00       		.byte	0
 4868 0c84 18       		.uleb128 0x18
 4869 0c85 740C0000 		.4byte	0xc74
 4870 0c89 0B       		.uleb128 0xb
 4871 0c8a EF080000 		.4byte	0x8ef
 4872 0c8e 990C0000 		.4byte	0xc99
 4873 0c92 0C       		.uleb128 0xc
 4874 0c93 26000000 		.4byte	0x26
 4875 0c97 0F       		.byte	0xf
 4876 0c98 00       		.byte	0
 4877 0c99 0B       		.uleb128 0xb
 4878 0c9a 5A090000 		.4byte	0x95a
 4879 0c9e A90C0000 		.4byte	0xca9
 4880 0ca2 0C       		.uleb128 0xc
 4881 0ca3 26000000 		.4byte	0x26
 4882 0ca7 0F       		.byte	0xf
 4883 0ca8 00       		.byte	0
 4884 0ca9 0B       		.uleb128 0xb
 4885 0caa DF000000 		.4byte	0xdf
 4886 0cae B90C0000 		.4byte	0xcb9
 4887 0cb2 0C       		.uleb128 0xc
 4888 0cb3 26000000 		.4byte	0x26
 4889 0cb7 7E       		.byte	0x7e
 4890 0cb8 00       		.byte	0
 4891 0cb9 18       		.uleb128 0x18
 4892 0cba A90C0000 		.4byte	0xca9
ARM GAS  C:\Users\DEVELO~1\AppData\Local\Temp\cc0byXRH.s 			page 87


 4893 0cbe 0B       		.uleb128 0xb
 4894 0cbf DF000000 		.4byte	0xdf
 4895 0cc3 D50C0000 		.4byte	0xcd5
 4896 0cc7 0C       		.uleb128 0xc
 4897 0cc8 26000000 		.4byte	0x26
 4898 0ccc 0F       		.byte	0xf
 4899 0ccd 48       		.uleb128 0x48
 4900 0cce 26000000 		.4byte	0x26
 4901 0cd2 FF03     		.2byte	0x3ff
 4902 0cd4 00       		.byte	0
 4903 0cd5 18       		.uleb128 0x18
 4904 0cd6 BE0C0000 		.4byte	0xcbe
 4905 0cda 12       		.uleb128 0x12
 4906 0cdb A4090000 		.4byte	.LASF213
 4907 0cdf 0F       		.byte	0xf
 4908 0ce0 AA       		.byte	0xaa
 4909 0ce1 03       		.byte	0x3
 4910 0ce2 66090000 		.4byte	0x966
 4911 0ce6 28       		.uleb128 0x28
 4912 0ce7 0C       		.byte	0xc
 4913 0ce8 0E       		.byte	0xe
 4914 0ce9 0401     		.2byte	0x104
 4915 0ceb 1A0D0000 		.4byte	0xd1a
 4916 0cef 01       		.uleb128 0x1
 4917 0cf0 C2050000 		.4byte	.LASF214
 4918 0cf4 0E       		.byte	0xe
 4919 0cf5 0501     		.2byte	0x105
 4920 0cf7 21       		.byte	0x21
 4921 0cf8 D3000000 		.4byte	0xd3
 4922 0cfc 00       		.byte	0
 4923 0cfd 01       		.uleb128 0x1
 4924 0cfe 51020000 		.4byte	.LASF215
 4925 0d02 0E       		.byte	0xe
 4926 0d03 0601     		.2byte	0x106
 4927 0d05 21       		.byte	0x21
 4928 0d06 D3000000 		.4byte	0xd3
 4929 0d0a 04       		.byte	0x4
 4930 0d0b 01       		.uleb128 0x1
 4931 0d0c 77030000 		.4byte	.LASF216
 4932 0d10 0E       		.byte	0xe
 4933 0d11 0701     		.2byte	0x107
 4934 0d13 21       		.byte	0x21
 4935 0d14 D3000000 		.4byte	0xd3
 4936 0d18 08       		.byte	0x8
 4937 0d19 00       		.byte	0
 4938 0d1a 0E       		.uleb128 0xe
 4939 0d1b BC070000 		.4byte	.LASF217
 4940 0d1f 0E       		.byte	0xe
 4941 0d20 0801     		.2byte	0x108
 4942 0d22 03       		.byte	0x3
 4943 0d23 E60C0000 		.4byte	0xce6
 4944 0d27 1E       		.uleb128 0x1e
 4945 0d28 1A0D0000 		.4byte	0xd1a
 4946 0d2c 28       		.uleb128 0x28
 4947 0d2d 10       		.byte	0x10
 4948 0d2e 0E       		.byte	0xe
 4949 0d2f 0D01     		.2byte	0x10d
ARM GAS  C:\Users\DEVELO~1\AppData\Local\Temp\cc0byXRH.s 			page 88


 4950 0d31 6E0D0000 		.4byte	0xd6e
 4951 0d35 01       		.uleb128 0x1
 4952 0d36 EA000000 		.4byte	.LASF218
 4953 0d3a 0E       		.byte	0xe
 4954 0d3b 1101     		.2byte	0x111
 4955 0d3d 21       		.byte	0x21
 4956 0d3e 34000000 		.4byte	0x34
 4957 0d42 00       		.byte	0
 4958 0d43 01       		.uleb128 0x1
 4959 0d44 63040000 		.4byte	.LASF219
 4960 0d48 0E       		.byte	0xe
 4961 0d49 1501     		.2byte	0x115
 4962 0d4b 21       		.byte	0x21
 4963 0d4c 34000000 		.4byte	0x34
 4964 0d50 04       		.byte	0x4
 4965 0d51 01       		.uleb128 0x1
 4966 0d52 520B0000 		.4byte	.LASF220
 4967 0d56 0E       		.byte	0xe
 4968 0d57 1901     		.2byte	0x119
 4969 0d59 22       		.byte	0x22
 4970 0d5a 0B050000 		.4byte	0x50b
 4971 0d5e 08       		.byte	0x8
 4972 0d5f 01       		.uleb128 0x1
 4973 0d60 060D0000 		.4byte	.LASF221
 4974 0d64 0E       		.byte	0xe
 4975 0d65 2401     		.2byte	0x124
 4976 0d67 21       		.byte	0x21
 4977 0d68 34000000 		.4byte	0x34
 4978 0d6c 0C       		.byte	0xc
 4979 0d6d 00       		.byte	0
 4980 0d6e 0E       		.uleb128 0xe
 4981 0d6f F10D0000 		.4byte	.LASF222
 4982 0d73 0E       		.byte	0xe
 4983 0d74 2501     		.2byte	0x125
 4984 0d76 03       		.byte	0x3
 4985 0d77 2C0D0000 		.4byte	0xd2c
 4986 0d7b 28       		.uleb128 0x28
 4987 0d7c 10       		.byte	0x10
 4988 0d7d 0E       		.byte	0xe
 4989 0d7e 2A01     		.2byte	0x12a
 4990 0d80 BD0D0000 		.4byte	0xdbd
 4991 0d84 01       		.uleb128 0x1
 4992 0d85 68030000 		.4byte	.LASF223
 4993 0d89 0E       		.byte	0xe
 4994 0d8a 2E01     		.2byte	0x12e
 4995 0d8c 21       		.byte	0x21
 4996 0d8d 34000000 		.4byte	0x34
 4997 0d91 00       		.byte	0
 4998 0d92 01       		.uleb128 0x1
 4999 0d93 7B0E0000 		.4byte	.LASF224
 5000 0d97 0E       		.byte	0xe
 5001 0d98 3201     		.2byte	0x132
 5002 0d9a 21       		.byte	0x21
 5003 0d9b 34000000 		.4byte	0x34
 5004 0d9f 04       		.byte	0x4
 5005 0da0 01       		.uleb128 0x1
 5006 0da1 2B0F0000 		.4byte	.LASF225
ARM GAS  C:\Users\DEVELO~1\AppData\Local\Temp\cc0byXRH.s 			page 89


 5007 0da5 0E       		.byte	0xe
 5008 0da6 3601     		.2byte	0x136
 5009 0da8 22       		.byte	0x22
 5010 0da9 FA040000 		.4byte	0x4fa
 5011 0dad 08       		.byte	0x8
 5012 0dae 01       		.uleb128 0x1
 5013 0daf 060D0000 		.4byte	.LASF221
 5014 0db3 0E       		.byte	0xe
 5015 0db4 4101     		.2byte	0x141
 5016 0db6 21       		.byte	0x21
 5017 0db7 34000000 		.4byte	0x34
 5018 0dbb 0C       		.byte	0xc
 5019 0dbc 00       		.byte	0
 5020 0dbd 0E       		.uleb128 0xe
 5021 0dbe F80A0000 		.4byte	.LASF226
 5022 0dc2 0E       		.byte	0xe
 5023 0dc3 4201     		.2byte	0x142
 5024 0dc5 03       		.byte	0x3
 5025 0dc6 7B0D0000 		.4byte	0xd7b
 5026 0dca 28       		.uleb128 0x28
 5027 0dcb 24       		.byte	0x24
 5028 0dcc 0E       		.byte	0xe
 5029 0dcd 4801     		.2byte	0x148
 5030 0dcf 600E0000 		.4byte	0xe60
 5031 0dd3 01       		.uleb128 0x1
 5032 0dd4 7D020000 		.4byte	.LASF227
 5033 0dd8 0E       		.byte	0xe
 5034 0dd9 4C01     		.2byte	0x14c
 5035 0ddb 21       		.byte	0x21
 5036 0ddc D3000000 		.4byte	0xd3
 5037 0de0 00       		.byte	0
 5038 0de1 01       		.uleb128 0x1
 5039 0de2 150D0000 		.4byte	.LASF228
 5040 0de6 0E       		.byte	0xe
 5041 0de7 5701     		.2byte	0x157
 5042 0de9 21       		.byte	0x21
 5043 0dea 8B070000 		.4byte	0x78b
 5044 0dee 04       		.byte	0x4
 5045 0def 01       		.uleb128 0x1
 5046 0df0 22070000 		.4byte	.LASF229
 5047 0df4 0E       		.byte	0xe
 5048 0df5 5C01     		.2byte	0x15c
 5049 0df7 21       		.byte	0x21
 5050 0df8 8B070000 		.4byte	0x78b
 5051 0dfc 08       		.byte	0x8
 5052 0dfd 01       		.uleb128 0x1
 5053 0dfe 19020000 		.4byte	.LASF230
 5054 0e02 0E       		.byte	0xe
 5055 0e03 6101     		.2byte	0x161
 5056 0e05 21       		.byte	0x21
 5057 0e06 8B070000 		.4byte	0x78b
 5058 0e0a 0C       		.byte	0xc
 5059 0e0b 01       		.uleb128 0x1
 5060 0e0c C4040000 		.4byte	.LASF231
 5061 0e10 0E       		.byte	0xe
 5062 0e11 6601     		.2byte	0x166
 5063 0e13 21       		.byte	0x21
ARM GAS  C:\Users\DEVELO~1\AppData\Local\Temp\cc0byXRH.s 			page 90


 5064 0e14 C7000000 		.4byte	0xc7
 5065 0e18 10       		.byte	0x10
 5066 0e19 01       		.uleb128 0x1
 5067 0e1a CD0D0000 		.4byte	.LASF232
 5068 0e1e 0E       		.byte	0xe
 5069 0e1f 6B01     		.2byte	0x16b
 5070 0e21 21       		.byte	0x21
 5071 0e22 C7000000 		.4byte	0xc7
 5072 0e26 12       		.byte	0x12
 5073 0e27 01       		.uleb128 0x1
 5074 0e28 8F060000 		.4byte	.LASF233
 5075 0e2c 0E       		.byte	0xe
 5076 0e2d 7101     		.2byte	0x171
 5077 0e2f 22       		.byte	0x22
 5078 0e30 600E0000 		.4byte	0xe60
 5079 0e34 14       		.byte	0x14
 5080 0e35 01       		.uleb128 0x1
 5081 0e36 EF070000 		.4byte	.LASF234
 5082 0e3a 0E       		.byte	0xe
 5083 0e3b 7701     		.2byte	0x177
 5084 0e3d 22       		.byte	0x22
 5085 0e3e 650E0000 		.4byte	0xe65
 5086 0e42 18       		.byte	0x18
 5087 0e43 01       		.uleb128 0x1
 5088 0e44 550E0000 		.4byte	.LASF235
 5089 0e48 0E       		.byte	0xe
 5090 0e49 7E01     		.2byte	0x17e
 5091 0e4b 21       		.byte	0x21
 5092 0e4c C7000000 		.4byte	0xc7
 5093 0e50 1C       		.byte	0x1c
 5094 0e51 01       		.uleb128 0x1
 5095 0e52 C2080000 		.4byte	.LASF236
 5096 0e56 0E       		.byte	0xe
 5097 0e57 8401     		.2byte	0x184
 5098 0e59 22       		.byte	0x22
 5099 0e5a FA040000 		.4byte	0x4fa
 5100 0e5e 20       		.byte	0x20
 5101 0e5f 00       		.byte	0
 5102 0e60 0D       		.uleb128 0xd
 5103 0e61 6E0D0000 		.4byte	0xd6e
 5104 0e65 0D       		.uleb128 0xd
 5105 0e66 BD0D0000 		.4byte	0xdbd
 5106 0e6a 0E       		.uleb128 0xe
 5107 0e6b 90040000 		.4byte	.LASF237
 5108 0e6f 0E       		.byte	0xe
 5109 0e70 8501     		.2byte	0x185
 5110 0e72 03       		.byte	0x3
 5111 0e73 CA0D0000 		.4byte	0xdca
 5112 0e77 1E       		.uleb128 0x1e
 5113 0e78 6A0E0000 		.4byte	0xe6a
 5114 0e7c 28       		.uleb128 0x28
 5115 0e7d 10       		.byte	0x10
 5116 0e7e 0E       		.byte	0xe
 5117 0e7f 8A01     		.2byte	0x18a
 5118 0e81 BE0E0000 		.4byte	0xebe
 5119 0e85 01       		.uleb128 0x1
 5120 0e86 BC0D0000 		.4byte	.LASF238
ARM GAS  C:\Users\DEVELO~1\AppData\Local\Temp\cc0byXRH.s 			page 91


 5121 0e8a 0E       		.byte	0xe
 5122 0e8b 8F01     		.2byte	0x18f
 5123 0e8d 21       		.byte	0x21
 5124 0e8e AD070000 		.4byte	0x7ad
 5125 0e92 00       		.byte	0
 5126 0e93 01       		.uleb128 0x1
 5127 0e94 1A090000 		.4byte	.LASF239
 5128 0e98 0E       		.byte	0xe
 5129 0e99 9401     		.2byte	0x194
 5130 0e9b 21       		.byte	0x21
 5131 0e9c F0070000 		.4byte	0x7f0
 5132 0ea0 04       		.byte	0x4
 5133 0ea1 01       		.uleb128 0x1
 5134 0ea2 66010000 		.4byte	.LASF240
 5135 0ea6 0E       		.byte	0xe
 5136 0ea7 9A01     		.2byte	0x19a
 5137 0ea9 21       		.byte	0x21
 5138 0eaa CF070000 		.4byte	0x7cf
 5139 0eae 08       		.byte	0x8
 5140 0eaf 01       		.uleb128 0x1
 5141 0eb0 50080000 		.4byte	.LASF241
 5142 0eb4 0E       		.byte	0xe
 5143 0eb5 9E01     		.2byte	0x19e
 5144 0eb7 21       		.byte	0x21
 5145 0eb8 69070000 		.4byte	0x769
 5146 0ebc 0C       		.byte	0xc
 5147 0ebd 00       		.byte	0
 5148 0ebe 0E       		.uleb128 0xe
 5149 0ebf 6C090000 		.4byte	.LASF242
 5150 0ec3 0E       		.byte	0xe
 5151 0ec4 A001     		.2byte	0x1a0
 5152 0ec6 03       		.byte	0x3
 5153 0ec7 7C0E0000 		.4byte	0xe7c
 5154 0ecb 1E       		.uleb128 0x1e
 5155 0ecc BE0E0000 		.4byte	0xebe
 5156 0ed0 0D       		.uleb128 0xd
 5157 0ed1 CB0E0000 		.4byte	0xecb
 5158 0ed5 0B       		.uleb128 0xb
 5159 0ed6 E50E0000 		.4byte	0xee5
 5160 0eda E50E0000 		.4byte	0xee5
 5161 0ede 0C       		.uleb128 0xc
 5162 0edf 26000000 		.4byte	0x26
 5163 0ee3 08       		.byte	0x8
 5164 0ee4 00       		.byte	0
 5165 0ee5 0D       		.uleb128 0xd
 5166 0ee6 770E0000 		.4byte	0xe77
 5167 0eea 0B       		.uleb128 0xb
 5168 0eeb A3000000 		.4byte	0xa3
 5169 0eef FA0E0000 		.4byte	0xefa
 5170 0ef3 0C       		.uleb128 0xc
 5171 0ef4 26000000 		.4byte	0x26
 5172 0ef8 07       		.byte	0x7
 5173 0ef9 00       		.byte	0
 5174 0efa 0B       		.uleb128 0xb
 5175 0efb B6000000 		.4byte	0xb6
 5176 0eff 0A0F0000 		.4byte	0xf0a
 5177 0f03 0C       		.uleb128 0xc
ARM GAS  C:\Users\DEVELO~1\AppData\Local\Temp\cc0byXRH.s 			page 92


 5178 0f04 26000000 		.4byte	0x26
 5179 0f08 07       		.byte	0x7
 5180 0f09 00       		.byte	0
 5181 0f0a 0D       		.uleb128 0xd
 5182 0f0b DA0C0000 		.4byte	0xcda
 5183 0f0f 0D       		.uleb128 0xd
 5184 0f10 270D0000 		.4byte	0xd27
 5185 0f14 49       		.uleb128 0x49
 5186 0f15 E20D0000 		.4byte	.LASF265
 5187 0f19 0E       		.byte	0xe
 5188 0f1a 3A02     		.2byte	0x23a
 5189 0f1c 12       		.byte	0x12
 5190 0f1d 10050000 		.4byte	0x510
 5191 0f21 4A       		.uleb128 0x4a
 5192 0f22 140F0000 		.4byte	0xf14
 5193 0f26 01       		.byte	0x1
 5194 0f27 41       		.byte	0x41
 5195 0f28 0B       		.byte	0xb
 5196 0f29 05       		.uleb128 0x5
 5197 0f2a 03       		.byte	0x3
 5198 0f2b 00000000 		.4byte	USBD1
 5199 0f2f 4B       		.uleb128 0x4b
 5200 0f30 10       		.byte	0x10
 5201 0f31 01       		.byte	0x1
 5202 0f32 52       		.byte	0x52
 5203 0f33 08       		.byte	0x8
 5204 0f34 4E0F0000 		.4byte	0xf4e
 5205 0f38 38       		.uleb128 0x38
 5206 0f39 696E00   		.ascii	"in\000"
 5207 0f3c 56       		.byte	0x56
 5208 0f3d 16       		.byte	0x16
 5209 0f3e 6E0D0000 		.4byte	0xd6e
 5210 0f42 38       		.uleb128 0x38
 5211 0f43 6F757400 		.ascii	"out\000"
 5212 0f47 5A       		.byte	0x5a
 5213 0f48 17       		.byte	0x17
 5214 0f49 BD0D0000 		.4byte	0xdbd
 5215 0f4d 00       		.byte	0
 5216 0f4e 2E       		.uleb128 0x2e
 5217 0f4f 810E0000 		.4byte	.LASF243
 5218 0f53 5B       		.byte	0x5b
 5219 0f54 03       		.byte	0x3
 5220 0f55 2F0F0000 		.4byte	0xf2f
 5221 0f59 05       		.uleb128 0x5
 5222 0f5a 03       		.byte	0x3
 5223 0f5b 00000000 		.4byte	ep0_state
 5224 0f5f 2E       		.uleb128 0x2e
 5225 0f60 45010000 		.4byte	.LASF244
 5226 0f64 60       		.byte	0x60
 5227 0f65 10       		.byte	0x10
 5228 0f66 FA0E0000 		.4byte	0xefa
 5229 0f6a 05       		.uleb128 0x5
 5230 0f6b 03       		.byte	0x3
 5231 0f6c 00000000 		.4byte	ep0setup_buffer
 5232 0f70 2E       		.uleb128 0x2e
 5233 0f71 E5080000 		.4byte	.LASF245
 5234 0f75 65       		.byte	0x65
ARM GAS  C:\Users\DEVELO~1\AppData\Local\Temp\cc0byXRH.s 			page 93


 5235 0f76 20       		.byte	0x20
 5236 0f77 770E0000 		.4byte	0xe77
 5237 0f7b 05       		.uleb128 0x5
 5238 0f7c 03       		.byte	0x3
 5239 0f7d 00000000 		.4byte	ep0config
 5240 0f81 2E       		.uleb128 0x2e
 5241 0f82 D7020000 		.4byte	.LASF246
 5242 0f86 73       		.byte	0x73
 5243 0f87 21       		.byte	0x21
 5244 0f88 270D0000 		.4byte	0xd27
 5245 0f8c 05       		.uleb128 0x5
 5246 0f8d 03       		.byte	0x3
 5247 0f8e 00000000 		.4byte	fsparams
 5248 0f92 4C       		.uleb128 0x4c
 5249 0f93 2A0E0000 		.4byte	.LASF322
 5250 0f97 12       		.byte	0x12
 5251 0f98 1F       		.byte	0x1f
 5252 0f99 09       		.byte	0x9
 5253 0f9a A3000000 		.4byte	0xa3
 5254 0f9e B20F0000 		.4byte	0xfb2
 5255 0fa2 06       		.uleb128 0x6
 5256 0fa3 A3000000 		.4byte	0xa3
 5257 0fa7 06       		.uleb128 0x6
 5258 0fa8 B20F0000 		.4byte	0xfb2
 5259 0fac 06       		.uleb128 0x6
 5260 0fad 34000000 		.4byte	0x34
 5261 0fb1 00       		.byte	0
 5262 0fb2 0D       		.uleb128 0xd
 5263 0fb3 B70F0000 		.4byte	0xfb7
 5264 0fb7 4D       		.uleb128 0x4d
 5265 0fb8 22       		.uleb128 0x22
 5266 0fb9 B8040000 		.4byte	.LASF247
 5267 0fbd 0D       		.byte	0xd
 5268 0fbe 7502     		.2byte	0x275
 5269 0fc0 CF0F0000 		.4byte	0xfcf
 5270 0fc4 06       		.uleb128 0x6
 5271 0fc5 86070000 		.4byte	0x786
 5272 0fc9 06       		.uleb128 0x6
 5273 0fca 36060000 		.4byte	0x636
 5274 0fce 00       		.byte	0
 5275 0fcf 22       		.uleb128 0x22
 5276 0fd0 B80A0000 		.4byte	.LASF248
 5277 0fd4 0D       		.byte	0xd
 5278 0fd5 7402     		.2byte	0x274
 5279 0fd7 E60F0000 		.4byte	0xfe6
 5280 0fdb 06       		.uleb128 0x6
 5281 0fdc 86070000 		.4byte	0x786
 5282 0fe0 06       		.uleb128 0x6
 5283 0fe1 36060000 		.4byte	0x636
 5284 0fe5 00       		.byte	0
 5285 0fe6 22       		.uleb128 0x22
 5286 0fe7 CC080000 		.4byte	.LASF249
 5287 0feb 0D       		.byte	0xd
 5288 0fec 7302     		.2byte	0x273
 5289 0fee FD0F0000 		.4byte	0xffd
 5290 0ff2 06       		.uleb128 0x6
 5291 0ff3 86070000 		.4byte	0x786
ARM GAS  C:\Users\DEVELO~1\AppData\Local\Temp\cc0byXRH.s 			page 94


 5292 0ff7 06       		.uleb128 0x6
 5293 0ff8 36060000 		.4byte	0x636
 5294 0ffc 00       		.byte	0
 5295 0ffd 2F       		.uleb128 0x2f
 5296 0ffe 0D030000 		.4byte	.LASF250
 5297 1002 10       		.byte	0x10
 5298 1003 50       		.byte	0x50
 5299 1004 0E100000 		.4byte	0x100e
 5300 1008 06       		.uleb128 0x6
 5301 1009 D3000000 		.4byte	0xd3
 5302 100d 00       		.byte	0
 5303 100e 2F       		.uleb128 0x2f
 5304 100f 290A0000 		.4byte	.LASF251
 5305 1013 10       		.byte	0x10
 5306 1014 4F       		.byte	0x4f
 5307 1015 24100000 		.4byte	0x1024
 5308 1019 06       		.uleb128 0x6
 5309 101a D3000000 		.4byte	0xd3
 5310 101e 06       		.uleb128 0x6
 5311 101f D3000000 		.4byte	0xd3
 5312 1023 00       		.byte	0
 5313 1024 22       		.uleb128 0x22
 5314 1025 A0060000 		.4byte	.LASF252
 5315 1029 0D       		.byte	0xd
 5316 102a 5E02     		.2byte	0x25e
 5317 102c 36100000 		.4byte	0x1036
 5318 1030 06       		.uleb128 0x6
 5319 1031 86070000 		.4byte	0x786
 5320 1035 00       		.byte	0
 5321 1036 22       		.uleb128 0x22
 5322 1037 CB090000 		.4byte	.LASF253
 5323 103b 05       		.byte	0x5
 5324 103c 5601     		.2byte	0x156
 5325 103e 48100000 		.4byte	0x1048
 5326 1042 06       		.uleb128 0x6
 5327 1043 F0000000 		.4byte	0xf0
 5328 1047 00       		.byte	0
 5329 1048 22       		.uleb128 0x22
 5330 1049 DD000000 		.4byte	.LASF254
 5331 104d 0D       		.byte	0xd
 5332 104e 7102     		.2byte	0x271
 5333 1050 5A100000 		.4byte	0x105a
 5334 1054 06       		.uleb128 0x6
 5335 1055 86070000 		.4byte	0x786
 5336 1059 00       		.byte	0
 5337 105a 22       		.uleb128 0x22
 5338 105b 1B080000 		.4byte	.LASF255
 5339 105f 0D       		.byte	0xd
 5340 1060 7202     		.2byte	0x272
 5341 1062 6C100000 		.4byte	0x106c
 5342 1066 06       		.uleb128 0x6
 5343 1067 86070000 		.4byte	0x786
 5344 106b 00       		.byte	0
 5345 106c 22       		.uleb128 0x22
 5346 106d A3020000 		.4byte	.LASF256
 5347 1071 0D       		.byte	0xd
 5348 1072 7002     		.2byte	0x270
ARM GAS  C:\Users\DEVELO~1\AppData\Local\Temp\cc0byXRH.s 			page 95


 5349 1074 7E100000 		.4byte	0x107e
 5350 1078 06       		.uleb128 0x6
 5351 1079 86070000 		.4byte	0x786
 5352 107d 00       		.byte	0
 5353 107e 4E       		.uleb128 0x4e
 5354 107f 69070000 		.4byte	.LASF323
 5355 1083 06       		.byte	0x6
 5356 1084 E302     		.2byte	0x2e3
 5357 1086 08       		.byte	0x8
 5358 1087 2F       		.uleb128 0x2f
 5359 1088 4E0C0000 		.4byte	.LASF257
 5360 108c 11       		.byte	0x11
 5361 108d FF       		.byte	0xff
 5362 108e 98100000 		.4byte	0x1098
 5363 1092 06       		.uleb128 0x6
 5364 1093 B1000000 		.4byte	0xb1
 5365 1097 00       		.byte	0
 5366 1098 2F       		.uleb128 0x2f
 5367 1099 A60E0000 		.4byte	.LASF258
 5368 109d 11       		.byte	0x11
 5369 109e FE       		.byte	0xfe
 5370 109f A9100000 		.4byte	0x10a9
 5371 10a3 06       		.uleb128 0x6
 5372 10a4 B1000000 		.4byte	0xb1
 5373 10a8 00       		.byte	0
 5374 10a9 10       		.uleb128 0x10
 5375 10aa 8D070000 		.4byte	.LASF259
 5376 10ae E904     		.2byte	0x4e9
 5377 10b0 06       		.byte	0x6
 5378 10b1 00000000 		.4byte	.LFB462
 5379 10b5 16000000 		.4byte	.LFE462-.LFB462
 5380 10b9 01       		.uleb128 0x1
 5381 10ba 9C       		.byte	0x9c
 5382 10bb E1100000 		.4byte	0x10e1
 5383 10bf 2A       		.uleb128 0x2a
 5384 10c0 95020000 		.4byte	.LASF261
 5385 10c4 E904     		.2byte	0x4e9
 5386 10c6 22       		.byte	0x22
 5387 10c7 86070000 		.4byte	0x786
 5388 10cb 01       		.uleb128 0x1
 5389 10cc 50       		.byte	0x50
 5390 10cd 19       		.uleb128 0x19
 5391 10ce 657000   		.ascii	"ep\000"
 5392 10d1 E904     		.2byte	0x4e9
 5393 10d3 30       		.byte	0x30
 5394 10d4 36060000 		.4byte	0x636
 5395 10d8 10000000 		.4byte	.LLST131
 5396 10dc 0C000000 		.4byte	.LVUS131
 5397 10e0 00       		.byte	0
 5398 10e1 10       		.uleb128 0x10
 5399 10e2 C10E0000 		.4byte	.LASF260
 5400 10e6 DC04     		.2byte	0x4dc
 5401 10e8 06       		.byte	0x6
 5402 10e9 00000000 		.4byte	.LFB461
 5403 10ed 16000000 		.4byte	.LFE461-.LFB461
 5404 10f1 01       		.uleb128 0x1
 5405 10f2 9C       		.byte	0x9c
ARM GAS  C:\Users\DEVELO~1\AppData\Local\Temp\cc0byXRH.s 			page 96


 5406 10f3 19110000 		.4byte	0x1119
 5407 10f7 2A       		.uleb128 0x2a
 5408 10f8 95020000 		.4byte	.LASF261
 5409 10fc DC04     		.2byte	0x4dc
 5410 10fe 23       		.byte	0x23
 5411 10ff 86070000 		.4byte	0x786
 5412 1103 01       		.uleb128 0x1
 5413 1104 50       		.byte	0x50
 5414 1105 19       		.uleb128 0x19
 5415 1106 657000   		.ascii	"ep\000"
 5416 1109 DC04     		.2byte	0x4dc
 5417 110b 31       		.byte	0x31
 5418 110c 36060000 		.4byte	0x636
 5419 1110 27000000 		.4byte	.LLST130
 5420 1114 23000000 		.4byte	.LVUS130
 5421 1118 00       		.byte	0
 5422 1119 10       		.uleb128 0x10
 5423 111a 00010000 		.4byte	.LASF262
 5424 111e CF04     		.2byte	0x4cf
 5425 1120 06       		.byte	0x6
 5426 1121 00000000 		.4byte	.LFB460
 5427 1125 16000000 		.4byte	.LFE460-.LFB460
 5428 1129 01       		.uleb128 0x1
 5429 112a 9C       		.byte	0x9c
 5430 112b 51110000 		.4byte	0x1151
 5431 112f 2A       		.uleb128 0x2a
 5432 1130 95020000 		.4byte	.LASF261
 5433 1134 CF04     		.2byte	0x4cf
 5434 1136 22       		.byte	0x22
 5435 1137 86070000 		.4byte	0x786
 5436 113b 01       		.uleb128 0x1
 5437 113c 50       		.byte	0x50
 5438 113d 19       		.uleb128 0x19
 5439 113e 657000   		.ascii	"ep\000"
 5440 1141 CF04     		.2byte	0x4cf
 5441 1143 30       		.byte	0x30
 5442 1144 36060000 		.4byte	0x636
 5443 1148 3E000000 		.4byte	.LLST129
 5444 114c 3A000000 		.4byte	.LVUS129
 5445 1150 00       		.byte	0
 5446 1151 10       		.uleb128 0x10
 5447 1152 4F0F0000 		.4byte	.LASF263
 5448 1156 C204     		.2byte	0x4c2
 5449 1158 06       		.byte	0x6
 5450 1159 00000000 		.4byte	.LFB459
 5451 115d 16000000 		.4byte	.LFE459-.LFB459
 5452 1161 01       		.uleb128 0x1
 5453 1162 9C       		.byte	0x9c
 5454 1163 89110000 		.4byte	0x1189
 5455 1167 2A       		.uleb128 0x2a
 5456 1168 95020000 		.4byte	.LASF261
 5457 116c C204     		.2byte	0x4c2
 5458 116e 23       		.byte	0x23
 5459 116f 86070000 		.4byte	0x786
 5460 1173 01       		.uleb128 0x1
 5461 1174 50       		.byte	0x50
 5462 1175 19       		.uleb128 0x19
ARM GAS  C:\Users\DEVELO~1\AppData\Local\Temp\cc0byXRH.s 			page 97


 5463 1176 657000   		.ascii	"ep\000"
 5464 1179 C204     		.2byte	0x4c2
 5465 117b 31       		.byte	0x31
 5466 117c 36060000 		.4byte	0x636
 5467 1180 55000000 		.4byte	.LLST128
 5468 1184 51000000 		.4byte	.LVUS128
 5469 1188 00       		.byte	0
 5470 1189 10       		.uleb128 0x10
 5471 118a 7D080000 		.4byte	.LASF264
 5472 118e 9704     		.2byte	0x497
 5473 1190 06       		.byte	0x6
 5474 1191 00000000 		.4byte	.LFB458
 5475 1195 A8000000 		.4byte	.LFE458-.LFB458
 5476 1199 01       		.uleb128 0x1
 5477 119a 9C       		.byte	0x9c
 5478 119b F5110000 		.4byte	0x11f5
 5479 119f 1A       		.uleb128 0x1a
 5480 11a0 95020000 		.4byte	.LASF261
 5481 11a4 9704     		.2byte	0x497
 5482 11a6 22       		.byte	0x22
 5483 11a7 86070000 		.4byte	0x786
 5484 11ab 72000000 		.4byte	.LLST79
 5485 11af 68000000 		.4byte	.LVUS79
 5486 11b3 19       		.uleb128 0x19
 5487 11b4 657000   		.ascii	"ep\000"
 5488 11b7 9704     		.2byte	0x497
 5489 11b9 30       		.byte	0x30
 5490 11ba 36060000 		.4byte	0x636
 5491 11be A0000000 		.4byte	.LLST80
 5492 11c2 9A000000 		.4byte	.LVUS80
 5493 11c6 29       		.uleb128 0x29
 5494 11c7 69737000 		.ascii	"isp\000"
 5495 11cb 9804     		.2byte	0x498
 5496 11cd 17       		.byte	0x17
 5497 11ce 600E0000 		.4byte	0xe60
 5498 11d2 C7000000 		.4byte	.LLST81
 5499 11d6 B9000000 		.4byte	.LVUS81
 5500 11da 20       		.uleb128 0x20
 5501 11db BA000000 		.4byte	.LLRL82
 5502 11df 21       		.uleb128 0x21
 5503 11e0 290C0000 		.4byte	.LASF266
 5504 11e4 A504     		.2byte	0x4a5
 5505 11e6 0E       		.byte	0xe
 5506 11e7 D3000000 		.4byte	0xd3
 5507 11eb 11010000 		.4byte	.LLST83
 5508 11ef 0F010000 		.4byte	.LVUS83
 5509 11f3 00       		.byte	0
 5510 11f4 00       		.byte	0
 5511 11f5 10       		.uleb128 0x10
 5512 11f6 0F0C0000 		.4byte	.LASF267
 5513 11fa 6C04     		.2byte	0x46c
 5514 11fc 06       		.byte	0x6
 5515 11fd 00000000 		.4byte	.LFB457
 5516 1201 88000000 		.4byte	.LFE457-.LFB457
 5517 1205 01       		.uleb128 0x1
 5518 1206 9C       		.byte	0x9c
 5519 1207 6F120000 		.4byte	0x126f
ARM GAS  C:\Users\DEVELO~1\AppData\Local\Temp\cc0byXRH.s 			page 98


 5520 120b 1A       		.uleb128 0x1a
 5521 120c 95020000 		.4byte	.LASF261
 5522 1210 6C04     		.2byte	0x46c
 5523 1212 23       		.byte	0x23
 5524 1213 86070000 		.4byte	0x786
 5525 1217 32010000 		.4byte	.LLST66
 5526 121b 2A010000 		.4byte	.LVUS66
 5527 121f 19       		.uleb128 0x19
 5528 1220 657000   		.ascii	"ep\000"
 5529 1223 6C04     		.2byte	0x46c
 5530 1225 31       		.byte	0x31
 5531 1226 36060000 		.4byte	0x636
 5532 122a 5B010000 		.4byte	.LLST67
 5533 122e 53010000 		.4byte	.LVUS67
 5534 1232 21       		.uleb128 0x21
 5535 1233 290C0000 		.4byte	.LASF266
 5536 1237 6D04     		.2byte	0x46d
 5537 1239 0C       		.byte	0xc
 5538 123a D3000000 		.4byte	0xd3
 5539 123e 82010000 		.4byte	.LLST68
 5540 1242 7C010000 		.4byte	.LVUS68
 5541 1246 21       		.uleb128 0x21
 5542 1247 68030000 		.4byte	.LASF223
 5543 124b 6D04     		.2byte	0x46d
 5544 124d 12       		.byte	0x12
 5545 124e D3000000 		.4byte	0xd3
 5546 1252 07020000 		.4byte	.LLST69
 5547 1256 FB010000 		.4byte	.LVUS69
 5548 125a 29       		.uleb128 0x29
 5549 125b 6F737000 		.ascii	"osp\000"
 5550 125f 6E04     		.2byte	0x46e
 5551 1261 18       		.byte	0x18
 5552 1262 650E0000 		.4byte	0xe65
 5553 1266 0D030000 		.4byte	.LLST70
 5554 126a 01030000 		.4byte	.LVUS70
 5555 126e 00       		.byte	0
 5556 126f 10       		.uleb128 0x10
 5557 1270 0D0A0000 		.4byte	.LASF268
 5558 1274 5F04     		.2byte	0x45f
 5559 1276 06       		.byte	0x6
 5560 1277 00000000 		.4byte	.LFB456
 5561 127b 12000000 		.4byte	.LFE456-.LFB456
 5562 127f 01       		.uleb128 0x1
 5563 1280 9C       		.byte	0x9c
 5564 1281 BC120000 		.4byte	0x12bc
 5565 1285 1A       		.uleb128 0x1a
 5566 1286 95020000 		.4byte	.LASF261
 5567 128a 5F04     		.2byte	0x45f
 5568 128c 24       		.byte	0x24
 5569 128d 86070000 		.4byte	0x786
 5570 1291 59030000 		.4byte	.LLST64
 5571 1295 55030000 		.4byte	.LVUS64
 5572 1299 19       		.uleb128 0x19
 5573 129a 657000   		.ascii	"ep\000"
 5574 129d 5F04     		.2byte	0x45f
 5575 129f 32       		.byte	0x32
 5576 12a0 36060000 		.4byte	0x636
ARM GAS  C:\Users\DEVELO~1\AppData\Local\Temp\cc0byXRH.s 			page 99


 5577 12a4 70030000 		.4byte	.LLST65
 5578 12a8 6C030000 		.4byte	.LVUS65
 5579 12ac 4F       		.uleb128 0x4f
 5580 12ad 62756600 		.ascii	"buf\000"
 5581 12b1 01       		.byte	0x1
 5582 12b2 5F04     		.2byte	0x45f
 5583 12b4 3F       		.byte	0x3f
 5584 12b5 FA040000 		.4byte	0x4fa
 5585 12b9 01       		.uleb128 0x1
 5586 12ba 52       		.byte	0x52
 5587 12bb 00       		.byte	0
 5588 12bc 39       		.uleb128 0x39
 5589 12bd 79050000 		.4byte	.LASF269
 5590 12c1 4404     		.2byte	0x444
 5591 12c3 9E060000 		.4byte	0x69e
 5592 12c7 00000000 		.4byte	.LFB455
 5593 12cb 1C000000 		.4byte	.LFE455-.LFB455
 5594 12cf 01       		.uleb128 0x1
 5595 12d0 9C       		.byte	0x9c
 5596 12d1 11130000 		.4byte	0x1311
 5597 12d5 1A       		.uleb128 0x1a
 5598 12d6 95020000 		.4byte	.LASF261
 5599 12da 4404     		.2byte	0x444
 5600 12dc 30       		.byte	0x30
 5601 12dd 86070000 		.4byte	0x786
 5602 12e1 87030000 		.4byte	.LLST61
 5603 12e5 83030000 		.4byte	.LVUS61
 5604 12e9 19       		.uleb128 0x19
 5605 12ea 657000   		.ascii	"ep\000"
 5606 12ed 4404     		.2byte	0x444
 5607 12ef 3E       		.byte	0x3e
 5608 12f0 36060000 		.4byte	0x636
 5609 12f4 9E030000 		.4byte	.LLST62
 5610 12f8 9A030000 		.4byte	.LVUS62
 5611 12fc 29       		.uleb128 0x29
 5612 12fd 63746C00 		.ascii	"ctl\000"
 5613 1301 4504     		.2byte	0x445
 5614 1303 0C       		.byte	0xc
 5615 1304 D3000000 		.4byte	0xd3
 5616 1308 B3030000 		.4byte	.LLST63
 5617 130c B1030000 		.4byte	.LVUS63
 5618 1310 00       		.byte	0
 5619 1311 39       		.uleb128 0x39
 5620 1312 E6090000 		.4byte	.LASF270
 5621 1316 2B04     		.2byte	0x42b
 5622 1318 9E060000 		.4byte	0x69e
 5623 131c 00000000 		.4byte	.LFB454
 5624 1320 1C000000 		.4byte	.LFE454-.LFB454
 5625 1324 01       		.uleb128 0x1
 5626 1325 9C       		.byte	0x9c
 5627 1326 66130000 		.4byte	0x1366
 5628 132a 1A       		.uleb128 0x1a
 5629 132b 95020000 		.4byte	.LASF261
 5630 132f 2B04     		.2byte	0x42b
 5631 1331 31       		.byte	0x31
 5632 1332 86070000 		.4byte	0x786
 5633 1336 C0030000 		.4byte	.LLST58
ARM GAS  C:\Users\DEVELO~1\AppData\Local\Temp\cc0byXRH.s 			page 100


 5634 133a BC030000 		.4byte	.LVUS58
 5635 133e 19       		.uleb128 0x19
 5636 133f 657000   		.ascii	"ep\000"
 5637 1342 2B04     		.2byte	0x42b
 5638 1344 3F       		.byte	0x3f
 5639 1345 36060000 		.4byte	0x636
 5640 1349 D7030000 		.4byte	.LLST59
 5641 134d D3030000 		.4byte	.LVUS59
 5642 1351 29       		.uleb128 0x29
 5643 1352 63746C00 		.ascii	"ctl\000"
 5644 1356 2C04     		.2byte	0x42c
 5645 1358 0C       		.byte	0xc
 5646 1359 D3000000 		.4byte	0xd3
 5647 135d EC030000 		.4byte	.LLST60
 5648 1361 EA030000 		.4byte	.LVUS60
 5649 1365 00       		.byte	0
 5650 1366 10       		.uleb128 0x10
 5651 1367 310E0000 		.4byte	.LASF271
 5652 136b 1604     		.2byte	0x416
 5653 136d 06       		.byte	0x6
 5654 136e 00000000 		.4byte	.LFB453
 5655 1372 10000000 		.4byte	.LFE453-.LFB453
 5656 1376 01       		.uleb128 0x1
 5657 1377 9C       		.byte	0x9c
 5658 1378 CE130000 		.4byte	0x13ce
 5659 137c 1A       		.uleb128 0x1a
 5660 137d 95020000 		.4byte	.LASF261
 5661 1381 1604     		.2byte	0x416
 5662 1383 2B       		.byte	0x2b
 5663 1384 86070000 		.4byte	0x786
 5664 1388 FB030000 		.4byte	.LLST55
 5665 138c F5030000 		.4byte	.LVUS55
 5666 1390 1B       		.uleb128 0x1b
 5667 1391 F2210000 		.4byte	0x21f2
 5668 1395 02000000 		.4byte	.LBI203
 5669 1399 0000     		.2byte	.LVU405
 5670 139b 96000000 		.4byte	.LLRL56
 5671 139f 1904     		.2byte	0x419
 5672 13a1 03       		.byte	0x3
 5673 13a2 B4130000 		.4byte	0x13b4
 5674 13a6 03       		.uleb128 0x3
 5675 13a7 FF210000 		.4byte	0x21ff
 5676 13ab 17040000 		.4byte	.LLST57
 5677 13af 13040000 		.4byte	.LVUS57
 5678 13b3 00       		.byte	0
 5679 13b4 50       		.uleb128 0x50
 5680 13b5 10000000 		.4byte	.LVL71
 5681 13b9 B0230000 		.4byte	0x23b0
 5682 13bd 02       		.uleb128 0x2
 5683 13be 01       		.uleb128 0x1
 5684 13bf 50       		.byte	0x50
 5685 13c0 02       		.uleb128 0x2
 5686 13c1 70       		.byte	0x70
 5687 13c2 00       		.sleb128 0
 5688 13c3 0A       		.uleb128 0xa
 5689 13c4 6F220000 		.4byte	0x226f
 5690 13c8 03       		.uleb128 0x3
ARM GAS  C:\Users\DEVELO~1\AppData\Local\Temp\cc0byXRH.s 			page 101


 5691 13c9 A3       		.byte	0xa3
 5692 13ca 01       		.uleb128 0x1
 5693 13cb 50       		.byte	0x50
 5694 13cc 00       		.byte	0
 5695 13cd 00       		.byte	0
 5696 13ce 10       		.uleb128 0x10
 5697 13cf 45070000 		.4byte	.LASF272
 5698 13d3 D603     		.2byte	0x3d6
 5699 13d5 06       		.byte	0x6
 5700 13d6 00000000 		.4byte	.LFB452
 5701 13da 40010000 		.4byte	.LFE452-.LFB452
 5702 13de 01       		.uleb128 0x1
 5703 13df 9C       		.byte	0x9c
 5704 13e0 77150000 		.4byte	0x1577
 5705 13e4 1A       		.uleb128 0x1a
 5706 13e5 95020000 		.4byte	.LASF261
 5707 13e9 D603     		.2byte	0x3d6
 5708 13eb 27       		.byte	0x27
 5709 13ec 86070000 		.4byte	0x786
 5710 13f0 33040000 		.4byte	.LLST36
 5711 13f4 27040000 		.4byte	.LVUS36
 5712 13f8 19       		.uleb128 0x19
 5713 13f9 657000   		.ascii	"ep\000"
 5714 13fc D603     		.2byte	0x3d6
 5715 13fe 35       		.byte	0x35
 5716 13ff 36060000 		.4byte	0x636
 5717 1403 6A040000 		.4byte	.LLST37
 5718 1407 66040000 		.4byte	.LVUS37
 5719 140b 29       		.uleb128 0x29
 5720 140c 63746C00 		.ascii	"ctl\000"
 5721 1410 D703     		.2byte	0x3d7
 5722 1412 0C       		.byte	0xc
 5723 1413 D3000000 		.4byte	0xd3
 5724 1417 80040000 		.4byte	.LLST38
 5725 141b 7E040000 		.4byte	.LVUS38
 5726 141f 21       		.uleb128 0x21
 5727 1420 F2050000 		.4byte	.LASF273
 5728 1424 D703     		.2byte	0x3d7
 5729 1426 11       		.byte	0x11
 5730 1427 D3000000 		.4byte	0xd3
 5731 142b 8C040000 		.4byte	.LLST39
 5732 142f 8A040000 		.4byte	.LVUS39
 5733 1433 21       		.uleb128 0x21
 5734 1434 88070000 		.4byte	.LASF274
 5735 1438 D803     		.2byte	0x3d8
 5736 143a 10       		.byte	0x10
 5737 143b 0A0F0000 		.4byte	0xf0a
 5738 143f 97040000 		.4byte	.LLST40
 5739 1443 95040000 		.4byte	.LVUS40
 5740 1447 1B       		.uleb128 0x1b
 5741 1448 9F210000 		.4byte	0x219f
 5742 144c 82000000 		.4byte	.LBI179
 5743 1450 0100     		.2byte	.LVU327
 5744 1452 66000000 		.4byte	.LLRL41
 5745 1456 FF03     		.2byte	0x3ff
 5746 1458 1D       		.byte	0x1d
 5747 1459 8B140000 		.4byte	0x148b
ARM GAS  C:\Users\DEVELO~1\AppData\Local\Temp\cc0byXRH.s 			page 102


 5748 145d 03       		.uleb128 0x3
 5749 145e BC210000 		.4byte	0x21bc
 5750 1462 A3040000 		.4byte	.LLST42
 5751 1466 A1040000 		.4byte	.LVUS42
 5752 146a 03       		.uleb128 0x3
 5753 146b B0210000 		.4byte	0x21b0
 5754 146f AE040000 		.4byte	.LLST43
 5755 1473 AC040000 		.4byte	.LVUS43
 5756 1477 20       		.uleb128 0x20
 5757 1478 66000000 		.4byte	.LLRL41
 5758 147c 07       		.uleb128 0x7
 5759 147d C8210000 		.4byte	0x21c8
 5760 1481 BB040000 		.4byte	.LLST44
 5761 1485 B7040000 		.4byte	.LVUS44
 5762 1489 00       		.byte	0
 5763 148a 00       		.byte	0
 5764 148b 1B       		.uleb128 0x1b
 5765 148c 0C220000 		.4byte	0x220c
 5766 1490 96000000 		.4byte	.LBI185
 5767 1494 0100     		.2byte	.LVU343
 5768 1496 78000000 		.4byte	.LLRL45
 5769 149a 0004     		.2byte	0x400
 5770 149c 05       		.byte	0x5
 5771 149d 01150000 		.4byte	0x1501
 5772 14a1 17       		.uleb128 0x17
 5773 14a2 19220000 		.4byte	0x2219
 5774 14a6 03       		.uleb128 0x3
 5775 14a7 19220000 		.4byte	0x2219
 5776 14ab D1040000 		.4byte	.LLST46
 5777 14af CD040000 		.4byte	.LVUS46
 5778 14b3 03       		.uleb128 0x3
 5779 14b4 25220000 		.4byte	0x2225
 5780 14b8 E6040000 		.4byte	.LLST47
 5781 14bc E4040000 		.4byte	.LVUS47
 5782 14c0 20       		.uleb128 0x20
 5783 14c1 78000000 		.4byte	.LLRL45
 5784 14c5 07       		.uleb128 0x7
 5785 14c6 31220000 		.4byte	0x2231
 5786 14ca F6040000 		.4byte	.LLST48
 5787 14ce F4040000 		.4byte	.LVUS48
 5788 14d2 3A       		.uleb128 0x3a
 5789 14d3 30230000 		.4byte	0x2330
 5790 14d7 9E000000 		.4byte	.LBI187
 5791 14db 0100     		.2byte	.LVU352
 5792 14dd 8A000000 		.4byte	.LLRL49
 5793 14e1 BF       		.byte	0xbf
 5794 14e2 03       		.uleb128 0x3
 5795 14e3 3E230000 		.4byte	0x233e
 5796 14e7 01050000 		.4byte	.LLST50
 5797 14eb FF040000 		.4byte	.LVUS50
 5798 14ef 13       		.uleb128 0x13
 5799 14f0 A8000000 		.4byte	.LVL60
 5800 14f4 36100000 		.4byte	0x1036
 5801 14f8 02       		.uleb128 0x2
 5802 14f9 01       		.uleb128 0x1
 5803 14fa 50       		.byte	0x50
 5804 14fb 01       		.uleb128 0x1
ARM GAS  C:\Users\DEVELO~1\AppData\Local\Temp\cc0byXRH.s 			page 103


 5805 14fc 42       		.byte	0x42
 5806 14fd 00       		.byte	0
 5807 14fe 00       		.byte	0
 5808 14ff 00       		.byte	0
 5809 1500 00       		.byte	0
 5810 1501 0F       		.uleb128 0xf
 5811 1502 0C220000 		.4byte	0x220c
 5812 1506 00010000 		.4byte	.LBI199
 5813 150a 0100     		.2byte	.LVU379
 5814 150c 00010000 		.4byte	.LBB199
 5815 1510 18000000 		.4byte	.LBE199-.LBB199
 5816 1514 01       		.byte	0x1
 5817 1515 0904     		.2byte	0x409
 5818 1517 05       		.byte	0x5
 5819 1518 17       		.uleb128 0x17
 5820 1519 19220000 		.4byte	0x2219
 5821 151d 03       		.uleb128 0x3
 5822 151e 19220000 		.4byte	0x2219
 5823 1522 0D050000 		.4byte	.LLST51
 5824 1526 0B050000 		.4byte	.LVUS51
 5825 152a 03       		.uleb128 0x3
 5826 152b 25220000 		.4byte	0x2225
 5827 152f 18050000 		.4byte	.LLST52
 5828 1533 16050000 		.4byte	.LVUS52
 5829 1537 07       		.uleb128 0x7
 5830 1538 31220000 		.4byte	0x2231
 5831 153c 28050000 		.4byte	.LLST53
 5832 1540 26050000 		.4byte	.LVUS53
 5833 1544 30       		.uleb128 0x30
 5834 1545 30230000 		.4byte	0x2330
 5835 1549 0E010000 		.4byte	.LBI201
 5836 154d 0100     		.2byte	.LVU390
 5837 154f 0E010000 		.4byte	.LBB201
 5838 1553 0A000000 		.4byte	.LBE201-.LBB201
 5839 1557 BF       		.byte	0xbf
 5840 1558 03       		.uleb128 0x3
 5841 1559 3E230000 		.4byte	0x233e
 5842 155d 33050000 		.4byte	.LLST54
 5843 1561 31050000 		.4byte	.LVUS54
 5844 1565 13       		.uleb128 0x13
 5845 1566 18010000 		.4byte	.LVL65
 5846 156a 36100000 		.4byte	0x1036
 5847 156e 02       		.uleb128 0x2
 5848 156f 01       		.uleb128 0x1
 5849 1570 50       		.byte	0x50
 5850 1571 01       		.uleb128 0x1
 5851 1572 42       		.byte	0x42
 5852 1573 00       		.byte	0
 5853 1574 00       		.byte	0
 5854 1575 00       		.byte	0
 5855 1576 00       		.byte	0
 5856 1577 10       		.uleb128 0x10
 5857 1578 28070000 		.4byte	.LASF275
 5858 157c C803     		.2byte	0x3c8
 5859 157e 06       		.byte	0x6
 5860 157f 00000000 		.4byte	.LFB451
 5861 1583 1A000000 		.4byte	.LFE451-.LFB451
ARM GAS  C:\Users\DEVELO~1\AppData\Local\Temp\cc0byXRH.s 			page 104


 5862 1587 01       		.uleb128 0x1
 5863 1588 9C       		.byte	0x9c
 5864 1589 B0150000 		.4byte	0x15b0
 5865 158d 2A       		.uleb128 0x2a
 5866 158e 95020000 		.4byte	.LASF261
 5867 1592 C803     		.2byte	0x3c8
 5868 1594 25       		.byte	0x25
 5869 1595 86070000 		.4byte	0x786
 5870 1599 01       		.uleb128 0x1
 5871 159a 50       		.byte	0x50
 5872 159b 21       		.uleb128 0x21
 5873 159c 88070000 		.4byte	.LASF274
 5874 15a0 C903     		.2byte	0x3c9
 5875 15a2 10       		.byte	0x10
 5876 15a3 0A0F0000 		.4byte	0xf0a
 5877 15a7 3F050000 		.4byte	.LLST35
 5878 15ab 3D050000 		.4byte	.LVUS35
 5879 15af 00       		.byte	0
 5880 15b0 10       		.uleb128 0x10
 5881 15b1 0B070000 		.4byte	.LASF276
 5882 15b5 9203     		.2byte	0x392
 5883 15b7 06       		.byte	0x6
 5884 15b8 00000000 		.4byte	.LFB450
 5885 15bc CC000000 		.4byte	.LFE450-.LFB450
 5886 15c0 01       		.uleb128 0x1
 5887 15c1 9C       		.byte	0x9c
 5888 15c2 41170000 		.4byte	0x1741
 5889 15c6 1A       		.uleb128 0x1a
 5890 15c7 95020000 		.4byte	.LASF261
 5891 15cb 9203     		.2byte	0x392
 5892 15cd 1F       		.byte	0x1f
 5893 15ce 86070000 		.4byte	0x786
 5894 15d2 4E050000 		.4byte	.LLST17
 5895 15d6 48050000 		.4byte	.LVUS17
 5896 15da 29       		.uleb128 0x29
 5897 15db 6900     		.ascii	"i\000"
 5898 15dd 9303     		.2byte	0x393
 5899 15df 0C       		.byte	0xc
 5900 15e0 26000000 		.4byte	0x26
 5901 15e4 6F050000 		.4byte	.LLST18
 5902 15e8 69050000 		.4byte	.LVUS18
 5903 15ec 21       		.uleb128 0x21
 5904 15ed 88070000 		.4byte	.LASF274
 5905 15f1 9403     		.2byte	0x394
 5906 15f3 10       		.byte	0x10
 5907 15f4 0A0F0000 		.4byte	0xf0a
 5908 15f8 89050000 		.4byte	.LLST19
 5909 15fc 87050000 		.4byte	.LVUS19
 5910 1600 1B       		.uleb128 0x1b
 5911 1601 0C220000 		.4byte	0x220c
 5912 1605 0A000000 		.4byte	.LBI143
 5913 1609 0000     		.2byte	.LVU174
 5914 160b 24000000 		.4byte	.LLRL20
 5915 160f 9703     		.2byte	0x397
 5916 1611 03       		.byte	0x3
 5917 1612 76160000 		.4byte	0x1676
 5918 1616 17       		.uleb128 0x17
ARM GAS  C:\Users\DEVELO~1\AppData\Local\Temp\cc0byXRH.s 			page 105


 5919 1617 19220000 		.4byte	0x2219
 5920 161b 03       		.uleb128 0x3
 5921 161c 19220000 		.4byte	0x2219
 5922 1620 97050000 		.4byte	.LLST21
 5923 1624 93050000 		.4byte	.LVUS21
 5924 1628 03       		.uleb128 0x3
 5925 1629 25220000 		.4byte	0x2225
 5926 162d A9050000 		.4byte	.LLST22
 5927 1631 A7050000 		.4byte	.LVUS22
 5928 1635 20       		.uleb128 0x20
 5929 1636 24000000 		.4byte	.LLRL20
 5930 163a 07       		.uleb128 0x7
 5931 163b 31220000 		.4byte	0x2231
 5932 163f B5050000 		.4byte	.LLST23
 5933 1643 B3050000 		.4byte	.LVUS23
 5934 1647 3A       		.uleb128 0x3a
 5935 1648 30230000 		.4byte	0x2330
 5936 164c 14000000 		.4byte	.LBI145
 5937 1650 0100     		.2byte	.LVU183
 5938 1652 33000000 		.4byte	.LLRL24
 5939 1656 BF       		.byte	0xbf
 5940 1657 03       		.uleb128 0x3
 5941 1658 3E230000 		.4byte	0x233e
 5942 165c C0050000 		.4byte	.LLST25
 5943 1660 BE050000 		.4byte	.LVUS25
 5944 1664 13       		.uleb128 0x13
 5945 1665 1E000000 		.4byte	.LVL33
 5946 1669 36100000 		.4byte	0x1036
 5947 166d 02       		.uleb128 0x2
 5948 166e 01       		.uleb128 0x1
 5949 166f 50       		.byte	0x50
 5950 1670 01       		.uleb128 0x1
 5951 1671 42       		.byte	0x42
 5952 1672 00       		.byte	0
 5953 1673 00       		.byte	0
 5954 1674 00       		.byte	0
 5955 1675 00       		.byte	0
 5956 1676 1B       		.uleb128 0x1b
 5957 1677 F2210000 		.4byte	0x21f2
 5958 167b 52000000 		.4byte	.LBI153
 5959 167f 0100     		.2byte	.LVU211
 5960 1681 3F000000 		.4byte	.LLRL26
 5961 1685 A603     		.2byte	0x3a6
 5962 1687 03       		.byte	0x3
 5963 1688 9A160000 		.4byte	0x169a
 5964 168c 03       		.uleb128 0x3
 5965 168d FF210000 		.4byte	0x21ff
 5966 1691 CC050000 		.4byte	.LLST27
 5967 1695 CA050000 		.4byte	.LVUS27
 5968 1699 00       		.byte	0
 5969 169a 1B       		.uleb128 0x1b
 5970 169b 3D220000 		.4byte	0x223d
 5971 169f 62000000 		.4byte	.LBI156
 5972 16a3 0100     		.2byte	.LVU220
 5973 16a5 4B000000 		.4byte	.LLRL28
 5974 16a9 AA03     		.2byte	0x3aa
 5975 16ab 03       		.byte	0x3
ARM GAS  C:\Users\DEVELO~1\AppData\Local\Temp\cc0byXRH.s 			page 106


 5976 16ac 07170000 		.4byte	0x1707
 5977 16b0 17       		.uleb128 0x17
 5978 16b1 4A220000 		.4byte	0x224a
 5979 16b5 03       		.uleb128 0x3
 5980 16b6 4A220000 		.4byte	0x224a
 5981 16ba D7050000 		.4byte	.LLST29
 5982 16be D5050000 		.4byte	.LVUS29
 5983 16c2 20       		.uleb128 0x20
 5984 16c3 4B000000 		.4byte	.LLRL28
 5985 16c7 07       		.uleb128 0x7
 5986 16c8 56220000 		.4byte	0x2256
 5987 16cc E2050000 		.4byte	.LLST30
 5988 16d0 E0050000 		.4byte	.LVUS30
 5989 16d4 30       		.uleb128 0x30
 5990 16d5 30230000 		.4byte	0x2330
 5991 16d9 6C000000 		.4byte	.LBI158
 5992 16dd 0100     		.2byte	.LVU229
 5993 16df 6C000000 		.4byte	.LBB158
 5994 16e3 06000000 		.4byte	.LBE158-.LBB158
 5995 16e7 B5       		.byte	0xb5
 5996 16e8 03       		.uleb128 0x3
 5997 16e9 3E230000 		.4byte	0x233e
 5998 16ed ED050000 		.4byte	.LLST31
 5999 16f1 EB050000 		.4byte	.LVUS31
 6000 16f5 13       		.uleb128 0x13
 6001 16f6 72000000 		.4byte	.LVL41
 6002 16fa 36100000 		.4byte	0x1036
 6003 16fe 02       		.uleb128 0x2
 6004 16ff 01       		.uleb128 0x1
 6005 1700 50       		.byte	0x50
 6006 1701 01       		.uleb128 0x1
 6007 1702 42       		.byte	0x42
 6008 1703 00       		.byte	0
 6009 1704 00       		.byte	0
 6010 1705 00       		.byte	0
 6011 1706 00       		.byte	0
 6012 1707 2B       		.uleb128 0x2b
 6013 1708 9F210000 		.4byte	0x219f
 6014 170c B6000000 		.4byte	.LBI163
 6015 1710 0100     		.2byte	.LVU262
 6016 1712 57000000 		.4byte	.LLRL32
 6017 1716 01       		.byte	0x1
 6018 1717 BD03     		.2byte	0x3bd
 6019 1719 14       		.byte	0x14
 6020 171a 03       		.uleb128 0x3
 6021 171b BC210000 		.4byte	0x21bc
 6022 171f F9050000 		.4byte	.LLST33
 6023 1723 F7050000 		.4byte	.LVUS33
 6024 1727 03       		.uleb128 0x3
 6025 1728 B0210000 		.4byte	0x21b0
 6026 172c 05060000 		.4byte	.LLST34
 6027 1730 03060000 		.4byte	.LVUS34
 6028 1734 20       		.uleb128 0x20
 6029 1735 57000000 		.4byte	.LLRL32
 6030 1739 3B       		.uleb128 0x3b
 6031 173a C8210000 		.4byte	0x21c8
 6032 173e 00       		.byte	0
ARM GAS  C:\Users\DEVELO~1\AppData\Local\Temp\cc0byXRH.s 			page 107


 6033 173f 00       		.byte	0
 6034 1740 00       		.byte	0
 6035 1741 10       		.uleb128 0x10
 6036 1742 0B060000 		.4byte	.LASF277
 6037 1746 6A03     		.2byte	0x36a
 6038 1748 06       		.byte	0x6
 6039 1749 00000000 		.4byte	.LFB449
 6040 174d 58000000 		.4byte	.LFE449-.LFB449
 6041 1751 01       		.uleb128 0x1
 6042 1752 9C       		.byte	0x9c
 6043 1753 CE170000 		.4byte	0x17ce
 6044 1757 1A       		.uleb128 0x1a
 6045 1758 95020000 		.4byte	.LASF261
 6046 175c 6A03     		.2byte	0x36a
 6047 175e 1E       		.byte	0x1e
 6048 175f 86070000 		.4byte	0x786
 6049 1763 14060000 		.4byte	.LLST14
 6050 1767 0E060000 		.4byte	.LVUS14
 6051 176b 21       		.uleb128 0x21
 6052 176c 88070000 		.4byte	.LASF274
 6053 1770 6B03     		.2byte	0x36b
 6054 1772 10       		.byte	0x10
 6055 1773 0A0F0000 		.4byte	0xf0a
 6056 1777 2E060000 		.4byte	.LLST15
 6057 177b 2C060000 		.4byte	.LVUS15
 6058 177f 1C       		.uleb128 0x1c
 6059 1780 D2220000 		.4byte	0x22d2
 6060 1784 2E000000 		.4byte	.LBI125
 6061 1788 0100     		.2byte	.LVU157
 6062 178a 2E000000 		.4byte	.LBB125
 6063 178e 1E000000 		.4byte	.LBE125-.LBB125
 6064 1792 7B03     		.2byte	0x37b
 6065 1794 07       		.byte	0x7
 6066 1795 A7170000 		.4byte	0x17a7
 6067 1799 03       		.uleb128 0x3
 6068 179a E0220000 		.4byte	0x22e0
 6069 179e 39060000 		.4byte	.LLST16
 6070 17a2 37060000 		.4byte	.LVUS16
 6071 17a6 00       		.byte	0
 6072 17a7 08       		.uleb128 0x8
 6073 17a8 18000000 		.4byte	.LVL23
 6074 17ac B0230000 		.4byte	0x23b0
 6075 17b0 BD170000 		.4byte	0x17bd
 6076 17b4 0A       		.uleb128 0xa
 6077 17b5 6F220000 		.4byte	0x226f
 6078 17b9 02       		.uleb128 0x2
 6079 17ba 74       		.byte	0x74
 6080 17bb 00       		.sleb128 0
 6081 17bc 00       		.byte	0
 6082 17bd 13       		.uleb128 0x13
 6083 17be 2E000000 		.4byte	.LVL25
 6084 17c2 FD0F0000 		.4byte	0xffd
 6085 17c6 02       		.uleb128 0x2
 6086 17c7 01       		.uleb128 0x1
 6087 17c8 50       		.byte	0x50
 6088 17c9 02       		.uleb128 0x2
 6089 17ca 08       		.byte	0x8
ARM GAS  C:\Users\DEVELO~1\AppData\Local\Temp\cc0byXRH.s 			page 108


 6090 17cb 65       		.byte	0x65
 6091 17cc 00       		.byte	0
 6092 17cd 00       		.byte	0
 6093 17ce 10       		.uleb128 0x10
 6094 17cf 5B070000 		.4byte	.LASF278
 6095 17d3 E602     		.2byte	0x2e6
 6096 17d5 06       		.byte	0x6
 6097 17d6 00000000 		.4byte	.LFB448
 6098 17da EC000000 		.4byte	.LFE448-.LFB448
 6099 17de 01       		.uleb128 0x1
 6100 17df 9C       		.byte	0x9c
 6101 17e0 5A190000 		.4byte	0x195a
 6102 17e4 1A       		.uleb128 0x1a
 6103 17e5 95020000 		.4byte	.LASF261
 6104 17e9 E602     		.2byte	0x2e6
 6105 17eb 1F       		.byte	0x1f
 6106 17ec 86070000 		.4byte	0x786
 6107 17f0 4D060000 		.4byte	.LLST2
 6108 17f4 45060000 		.4byte	.LVUS2
 6109 17f8 21       		.uleb128 0x21
 6110 17f9 88070000 		.4byte	.LASF274
 6111 17fd E702     		.2byte	0x2e7
 6112 17ff 10       		.byte	0x10
 6113 1800 0A0F0000 		.4byte	0xf0a
 6114 1804 72060000 		.4byte	.LLST3
 6115 1808 6C060000 		.4byte	.LVUS3
 6116 180c 1C       		.uleb128 0x1c
 6117 180d 91220000 		.4byte	0x2291
 6118 1811 28000000 		.4byte	.LBI110
 6119 1815 0100     		.2byte	.LVU56
 6120 1817 28000000 		.4byte	.LBB110
 6121 181b 22000000 		.4byte	.LBE110-.LBB110
 6122 181f 4403     		.2byte	0x344
 6123 1821 05       		.byte	0x5
 6124 1822 AA180000 		.4byte	0x18aa
 6125 1826 17       		.uleb128 0x17
 6126 1827 9E220000 		.4byte	0x229e
 6127 182b 03       		.uleb128 0x3
 6128 182c 9E220000 		.4byte	0x229e
 6129 1830 93060000 		.4byte	.LLST4
 6130 1834 91060000 		.4byte	.LVUS4
 6131 1838 07       		.uleb128 0x7
 6132 1839 AA220000 		.4byte	0x22aa
 6133 183d 9E060000 		.4byte	.LLST5
 6134 1841 9C060000 		.4byte	.LVUS5
 6135 1845 51       		.uleb128 0x51
 6136 1846 30230000 		.4byte	0x2330
 6137 184a 34000000 		.4byte	.LBI112
 6138 184e 0100     		.2byte	.LVU67
 6139 1850 0C000000 		.4byte	.LLRL6
 6140 1854 01       		.byte	0x1
 6141 1855 8F       		.byte	0x8f
 6142 1856 03       		.byte	0x3
 6143 1857 78180000 		.4byte	0x1878
 6144 185b 03       		.uleb128 0x3
 6145 185c 3E230000 		.4byte	0x233e
 6146 1860 AB060000 		.4byte	.LLST7
ARM GAS  C:\Users\DEVELO~1\AppData\Local\Temp\cc0byXRH.s 			page 109


 6147 1864 A9060000 		.4byte	.LVUS7
 6148 1868 13       		.uleb128 0x13
 6149 1869 38000000 		.4byte	.LVL9
 6150 186d 36100000 		.4byte	0x1036
 6151 1871 02       		.uleb128 0x2
 6152 1872 01       		.uleb128 0x1
 6153 1873 50       		.byte	0x50
 6154 1874 01       		.uleb128 0x1
 6155 1875 3C       		.byte	0x3c
 6156 1876 00       		.byte	0
 6157 1877 00       		.byte	0
 6158 1878 30       		.uleb128 0x30
 6159 1879 30230000 		.4byte	0x2330
 6160 187d 3E000000 		.4byte	.LBI116
 6161 1881 0100     		.2byte	.LVU74
 6162 1883 3E000000 		.4byte	.LBB116
 6163 1887 06000000 		.4byte	.LBE116-.LBB116
 6164 188b 93       		.byte	0x93
 6165 188c 03       		.uleb128 0x3
 6166 188d 3E230000 		.4byte	0x233e
 6167 1891 B7060000 		.4byte	.LLST8
 6168 1895 B5060000 		.4byte	.LVUS8
 6169 1899 13       		.uleb128 0x13
 6170 189a 44000000 		.4byte	.LVL11
 6171 189e 36100000 		.4byte	0x1036
 6172 18a2 02       		.uleb128 0x2
 6173 18a3 01       		.uleb128 0x1
 6174 18a4 50       		.byte	0x50
 6175 18a5 01       		.uleb128 0x1
 6176 18a6 42       		.byte	0x42
 6177 18a7 00       		.byte	0
 6178 18a8 00       		.byte	0
 6179 18a9 00       		.byte	0
 6180 18aa 1B       		.uleb128 0x1b
 6181 18ab EE220000 		.4byte	0x22ee
 6182 18af 82000000 		.4byte	.LBI118
 6183 18b3 0100     		.2byte	.LVU106
 6184 18b5 18000000 		.4byte	.LLRL9
 6185 18b9 EF02     		.2byte	0x2ef
 6186 18bb 07       		.byte	0x7
 6187 18bc DB180000 		.4byte	0x18db
 6188 18c0 03       		.uleb128 0x3
 6189 18c1 09230000 		.4byte	0x2309
 6190 18c5 C3060000 		.4byte	.LLST10
 6191 18c9 C1060000 		.4byte	.LVUS10
 6192 18cd 03       		.uleb128 0x3
 6193 18ce FC220000 		.4byte	0x22fc
 6194 18d2 CF060000 		.4byte	.LLST11
 6195 18d6 CD060000 		.4byte	.LVUS11
 6196 18da 00       		.byte	0
 6197 18db 1C       		.uleb128 0x1c
 6198 18dc B6220000 		.4byte	0x22b6
 6199 18e0 A4000000 		.4byte	.LBI122
 6200 18e4 0200     		.2byte	.LVU117
 6201 18e6 A4000000 		.4byte	.LBB122
 6202 18ea 1C000000 		.4byte	.LBE122-.LBB122
 6203 18ee F002     		.2byte	0x2f0
ARM GAS  C:\Users\DEVELO~1\AppData\Local\Temp\cc0byXRH.s 			page 110


 6204 18f0 07       		.byte	0x7
 6205 18f1 28190000 		.4byte	0x1928
 6206 18f5 03       		.uleb128 0x3
 6207 18f6 C4220000 		.4byte	0x22c4
 6208 18fa DD060000 		.4byte	.LLST12
 6209 18fe DB060000 		.4byte	.LVUS12
 6210 1902 0F       		.uleb128 0xf
 6211 1903 16230000 		.4byte	0x2316
 6212 1907 A4000000 		.4byte	.LBI123
 6213 190b 0400     		.2byte	.LVU119
 6214 190d A4000000 		.4byte	.LBB123
 6215 1911 1C000000 		.4byte	.LBE123-.LBB123
 6216 1915 03       		.byte	0x3
 6217 1916 9802     		.2byte	0x298
 6218 1918 03       		.byte	0x3
 6219 1919 03       		.uleb128 0x3
 6220 191a 23230000 		.4byte	0x2323
 6221 191e EB060000 		.4byte	.LLST13
 6222 1922 E9060000 		.4byte	.LVUS13
 6223 1926 00       		.byte	0
 6224 1927 00       		.byte	0
 6225 1928 08       		.uleb128 0x8
 6226 1929 56000000 		.4byte	.LVL13
 6227 192d B0230000 		.4byte	0x23b0
 6228 1931 44190000 		.4byte	0x1944
 6229 1935 02       		.uleb128 0x2
 6230 1936 01       		.uleb128 0x1
 6231 1937 50       		.byte	0x50
 6232 1938 02       		.uleb128 0x2
 6233 1939 70       		.byte	0x70
 6234 193a 00       		.sleb128 0
 6235 193b 0A       		.uleb128 0xa
 6236 193c 6F220000 		.4byte	0x226f
 6237 1940 02       		.uleb128 0x2
 6238 1941 75       		.byte	0x75
 6239 1942 00       		.sleb128 0
 6240 1943 00       		.byte	0
 6241 1944 13       		.uleb128 0x13
 6242 1945 C4000000 		.4byte	.LVL19
 6243 1949 0E100000 		.4byte	0x100e
 6244 194d 02       		.uleb128 0x2
 6245 194e 01       		.uleb128 0x1
 6246 194f 50       		.byte	0x50
 6247 1950 02       		.uleb128 0x2
 6248 1951 08       		.byte	0x8
 6249 1952 65       		.byte	0x65
 6250 1953 02       		.uleb128 0x2
 6251 1954 01       		.uleb128 0x1
 6252 1955 51       		.byte	0x51
 6253 1956 01       		.uleb128 0x1
 6254 1957 3E       		.byte	0x3e
 6255 1958 00       		.byte	0
 6256 1959 00       		.byte	0
 6257 195a 10       		.uleb128 0x10
 6258 195b D40C0000 		.4byte	.LASF279
 6259 195f CB02     		.2byte	0x2cb
 6260 1961 06       		.byte	0x6
ARM GAS  C:\Users\DEVELO~1\AppData\Local\Temp\cc0byXRH.s 			page 111


 6261 1962 00000000 		.4byte	.LFB447
 6262 1966 20000000 		.4byte	.LFE447-.LFB447
 6263 196a 01       		.uleb128 0x1
 6264 196b 9C       		.byte	0x9c
 6265 196c 81190000 		.4byte	0x1981
 6266 1970 13       		.uleb128 0x13
 6267 1971 0A000000 		.4byte	.LVL4
 6268 1975 24100000 		.4byte	0x1024
 6269 1979 02       		.uleb128 0x2
 6270 197a 01       		.uleb128 0x1
 6271 197b 50       		.byte	0x50
 6272 197c 02       		.uleb128 0x2
 6273 197d 74       		.byte	0x74
 6274 197e 00       		.sleb128 0
 6275 197f 00       		.byte	0
 6276 1980 00       		.byte	0
 6277 1981 10       		.uleb128 0x10
 6278 1982 1E0D0000 		.4byte	.LASF280
 6279 1986 A802     		.2byte	0x2a8
 6280 1988 01       		.byte	0x1
 6281 1989 00000000 		.4byte	.LFB446
 6282 198d A8030000 		.4byte	.LFE446-.LFB446
 6283 1991 01       		.uleb128 0x1
 6284 1992 9C       		.byte	0x9c
 6285 1993 301F0000 		.4byte	0x1f30
 6286 1997 52       		.uleb128 0x52
 6287 1998 630E0000 		.4byte	.LASF295
 6288 199c 401F0000 		.4byte	0x1f40
 6289 19a0 05       		.uleb128 0x5
 6290 19a1 03       		.byte	0x3
 6291 19a2 00000000 		.4byte	__func__.0
 6292 19a6 1B       		.uleb128 0x1b
 6293 19a7 451F0000 		.4byte	0x1f45
 6294 19ab 0C000000 		.4byte	.LBI320
 6295 19af 0200     		.2byte	.LVU772
 6296 19b1 F6000000 		.4byte	.LLRL96
 6297 19b5 AC02     		.2byte	0x2ac
 6298 19b7 03       		.byte	0x3
 6299 19b8 B81E0000 		.4byte	0x1eb8
 6300 19bc 03       		.uleb128 0x3
 6301 19bd 531F0000 		.4byte	0x1f53
 6302 19c1 FF060000 		.4byte	.LLST97
 6303 19c5 F7060000 		.4byte	.LVUS97
 6304 19c9 20       		.uleb128 0x20
 6305 19ca F6000000 		.4byte	.LLRL96
 6306 19ce 07       		.uleb128 0x7
 6307 19cf 601F0000 		.4byte	0x1f60
 6308 19d3 3A070000 		.4byte	.LLST98
 6309 19d7 34070000 		.4byte	.LVUS98
 6310 19db 07       		.uleb128 0x7
 6311 19dc 6C1F0000 		.4byte	0x1f6c
 6312 19e0 5D070000 		.4byte	.LLST99
 6313 19e4 53070000 		.4byte	.LVUS99
 6314 19e8 07       		.uleb128 0x7
 6315 19e9 781F0000 		.4byte	0x1f78
 6316 19ed 8B070000 		.4byte	.LLST100
 6317 19f1 85070000 		.4byte	.LVUS100
ARM GAS  C:\Users\DEVELO~1\AppData\Local\Temp\cc0byXRH.s 			page 112


 6318 19f5 1C       		.uleb128 0x1c
 6319 19f6 B81F0000 		.4byte	0x1fb8
 6320 19fa F4000000 		.4byte	.LBI322
 6321 19fe 0100     		.2byte	.LVU870
 6322 1a00 F4000000 		.4byte	.LBB322
 6323 1a04 88000000 		.4byte	.LBE322-.LBB322
 6324 1a08 5002     		.2byte	0x250
 6325 1a0a 05       		.byte	0x5
 6326 1a0b BF1A0000 		.4byte	0x1abf
 6327 1a0f 03       		.uleb128 0x3
 6328 1a10 C61F0000 		.4byte	0x1fc6
 6329 1a14 A6070000 		.4byte	.LLST101
 6330 1a18 A4070000 		.4byte	.LVUS101
 6331 1a1c 07       		.uleb128 0x7
 6332 1a1d D31F0000 		.4byte	0x1fd3
 6333 1a21 BB070000 		.4byte	.LLST102
 6334 1a25 B5070000 		.4byte	.LVUS102
 6335 1a29 07       		.uleb128 0x7
 6336 1a2a DE1F0000 		.4byte	0x1fde
 6337 1a2e D4070000 		.4byte	.LLST103
 6338 1a32 D2070000 		.4byte	.LVUS103
 6339 1a36 1C       		.uleb128 0x1c
 6340 1a37 0C220000 		.4byte	0x220c
 6341 1a3b 4A010000 		.4byte	.LBI324
 6342 1a3f 0100     		.2byte	.LVU899
 6343 1a41 44010000 		.4byte	.LBB324
 6344 1a45 18000000 		.4byte	.LBE324-.LBB324
 6345 1a49 E801     		.2byte	0x1e8
 6346 1a4b 07       		.byte	0x7
 6347 1a4c AC1A0000 		.4byte	0x1aac
 6348 1a50 17       		.uleb128 0x17
 6349 1a51 19220000 		.4byte	0x2219
 6350 1a55 03       		.uleb128 0x3
 6351 1a56 19220000 		.4byte	0x2219
 6352 1a5a E0070000 		.4byte	.LLST104
 6353 1a5e DE070000 		.4byte	.LVUS104
 6354 1a62 17       		.uleb128 0x17
 6355 1a63 25220000 		.4byte	0x2225
 6356 1a67 20       		.uleb128 0x20
 6357 1a68 12010000 		.4byte	.LLRL105
 6358 1a6c 07       		.uleb128 0x7
 6359 1a6d 31220000 		.4byte	0x2231
 6360 1a71 F0070000 		.4byte	.LLST106
 6361 1a75 EE070000 		.4byte	.LVUS106
 6362 1a79 30       		.uleb128 0x30
 6363 1a7a 30230000 		.4byte	0x2330
 6364 1a7e 56010000 		.4byte	.LBI326
 6365 1a82 0100     		.2byte	.LVU909
 6366 1a84 56010000 		.4byte	.LBB326
 6367 1a88 06000000 		.4byte	.LBE326-.LBB326
 6368 1a8c BF       		.byte	0xbf
 6369 1a8d 03       		.uleb128 0x3
 6370 1a8e 3E230000 		.4byte	0x233e
 6371 1a92 FB070000 		.4byte	.LLST107
 6372 1a96 F9070000 		.4byte	.LVUS107
 6373 1a9a 13       		.uleb128 0x13
 6374 1a9b 5C010000 		.4byte	.LVL174
ARM GAS  C:\Users\DEVELO~1\AppData\Local\Temp\cc0byXRH.s 			page 113


 6375 1a9f 36100000 		.4byte	0x1036
 6376 1aa3 02       		.uleb128 0x2
 6377 1aa4 01       		.uleb128 0x1
 6378 1aa5 50       		.byte	0x50
 6379 1aa6 01       		.uleb128 0x1
 6380 1aa7 42       		.byte	0x42
 6381 1aa8 00       		.byte	0
 6382 1aa9 00       		.byte	0
 6383 1aaa 00       		.byte	0
 6384 1aab 00       		.byte	0
 6385 1aac 34       		.uleb128 0x34
 6386 1aad 7A010000 		.4byte	.LVL175
 6387 1ab1 02       		.uleb128 0x2
 6388 1ab2 01       		.uleb128 0x1
 6389 1ab3 50       		.byte	0x50
 6390 1ab4 02       		.uleb128 0x2
 6391 1ab5 76       		.byte	0x76
 6392 1ab6 00       		.sleb128 0
 6393 1ab7 02       		.uleb128 0x2
 6394 1ab8 01       		.uleb128 0x1
 6395 1ab9 51       		.byte	0x51
 6396 1aba 02       		.uleb128 0x2
 6397 1abb 74       		.byte	0x74
 6398 1abc 00       		.sleb128 0
 6399 1abd 00       		.byte	0
 6400 1abe 00       		.byte	0
 6401 1abf 1B       		.uleb128 0x1b
 6402 1ac0 BF200000 		.4byte	0x20bf
 6403 1ac4 B8010000 		.4byte	.LBI329
 6404 1ac8 0100     		.2byte	.LVU931
 6405 1aca 1E010000 		.4byte	.LLRL108
 6406 1ace 5B02     		.2byte	0x25b
 6407 1ad0 05       		.byte	0x5
 6408 1ad1 DF1B0000 		.4byte	0x1bdf
 6409 1ad5 03       		.uleb128 0x3
 6410 1ad6 CD200000 		.4byte	0x20cd
 6411 1ada 09080000 		.4byte	.LLST109
 6412 1ade 05080000 		.4byte	.LVUS109
 6413 1ae2 20       		.uleb128 0x20
 6414 1ae3 1E010000 		.4byte	.LLRL108
 6415 1ae7 07       		.uleb128 0x7
 6416 1ae8 DA200000 		.4byte	0x20da
 6417 1aec 27080000 		.4byte	.LLST110
 6418 1af0 25080000 		.4byte	.LVUS110
 6419 1af4 07       		.uleb128 0x7
 6420 1af5 E6200000 		.4byte	0x20e6
 6421 1af9 34080000 		.4byte	.LLST111
 6422 1afd 30080000 		.4byte	.LVUS111
 6423 1b01 07       		.uleb128 0x7
 6424 1b02 F2200000 		.4byte	0x20f2
 6425 1b06 4C080000 		.4byte	.LLST112
 6426 1b0a 46080000 		.4byte	.LVUS112
 6427 1b0e 1C       		.uleb128 0x1c
 6428 1b0f FE200000 		.4byte	0x20fe
 6429 1b13 E0010000 		.4byte	.LBI331
 6430 1b17 0000     		.2byte	.LVU945
 6431 1b19 E0010000 		.4byte	.LBB331
ARM GAS  C:\Users\DEVELO~1\AppData\Local\Temp\cc0byXRH.s 			page 114


 6432 1b1d 2E000000 		.4byte	.LBE331-.LBB331
 6433 1b21 2901     		.2byte	0x129
 6434 1b23 05       		.byte	0x5
 6435 1b24 771B0000 		.4byte	0x1b77
 6436 1b28 03       		.uleb128 0x3
 6437 1b29 31210000 		.4byte	0x2131
 6438 1b2d 69080000 		.4byte	.LLST113
 6439 1b31 67080000 		.4byte	.LVUS113
 6440 1b35 03       		.uleb128 0x3
 6441 1b36 26210000 		.4byte	0x2126
 6442 1b3a 75080000 		.4byte	.LLST114
 6443 1b3e 73080000 		.4byte	.LVUS114
 6444 1b42 03       		.uleb128 0x3
 6445 1b43 19210000 		.4byte	0x2119
 6446 1b47 84080000 		.4byte	.LLST115
 6447 1b4b 7E080000 		.4byte	.LVUS115
 6448 1b4f 03       		.uleb128 0x3
 6449 1b50 0C210000 		.4byte	0x210c
 6450 1b54 9F080000 		.4byte	.LLST116
 6451 1b58 9B080000 		.4byte	.LVUS116
 6452 1b5c 07       		.uleb128 0x7
 6453 1b5d 3E210000 		.4byte	0x213e
 6454 1b61 B8080000 		.4byte	.LLST117
 6455 1b65 B2080000 		.4byte	.LVUS117
 6456 1b69 07       		.uleb128 0x7
 6457 1b6a 48210000 		.4byte	0x2148
 6458 1b6e DA080000 		.4byte	.LLST118
 6459 1b72 D2080000 		.4byte	.LVUS118
 6460 1b76 00       		.byte	0
 6461 1b77 0F       		.uleb128 0xf
 6462 1b78 FE200000 		.4byte	0x20fe
 6463 1b7c BC020000 		.4byte	.LBI333
 6464 1b80 0000     		.2byte	.LVU1022
 6465 1b82 BC020000 		.4byte	.LBB333
 6466 1b86 2A000000 		.4byte	.LBE333-.LBB333
 6467 1b8a 01       		.byte	0x1
 6468 1b8b 2F01     		.2byte	0x12f
 6469 1b8d 05       		.byte	0x5
 6470 1b8e 03       		.uleb128 0x3
 6471 1b8f 31210000 		.4byte	0x2131
 6472 1b93 F9080000 		.4byte	.LLST119
 6473 1b97 F7080000 		.4byte	.LVUS119
 6474 1b9b 03       		.uleb128 0x3
 6475 1b9c 26210000 		.4byte	0x2126
 6476 1ba0 04090000 		.4byte	.LLST120
 6477 1ba4 02090000 		.4byte	.LVUS120
 6478 1ba8 03       		.uleb128 0x3
 6479 1ba9 19210000 		.4byte	0x2119
 6480 1bad 17090000 		.4byte	.LLST121
 6481 1bb1 0D090000 		.4byte	.LVUS121
 6482 1bb5 03       		.uleb128 0x3
 6483 1bb6 0C210000 		.4byte	0x210c
 6484 1bba 40090000 		.4byte	.LLST122
 6485 1bbe 3C090000 		.4byte	.LVUS122
 6486 1bc2 07       		.uleb128 0x7
 6487 1bc3 3E210000 		.4byte	0x213e
 6488 1bc7 59090000 		.4byte	.LLST123
ARM GAS  C:\Users\DEVELO~1\AppData\Local\Temp\cc0byXRH.s 			page 115


 6489 1bcb 53090000 		.4byte	.LVUS123
 6490 1bcf 07       		.uleb128 0x7
 6491 1bd0 48210000 		.4byte	0x2148
 6492 1bd4 7B090000 		.4byte	.LLST124
 6493 1bd8 73090000 		.4byte	.LVUS124
 6494 1bdc 00       		.byte	0
 6495 1bdd 00       		.byte	0
 6496 1bde 00       		.byte	0
 6497 1bdf 1C       		.uleb128 0x1c
 6498 1be0 851F0000 		.4byte	0x1f85
 6499 1be4 0E020000 		.4byte	.LBI336
 6500 1be8 0200     		.2byte	.LVU971
 6501 1bea 0E020000 		.4byte	.LBB336
 6502 1bee 5A000000 		.4byte	.LBE336-.LBB336
 6503 1bf2 5502     		.2byte	0x255
 6504 1bf4 05       		.byte	0x5
 6505 1bf5 331C0000 		.4byte	0x1c33
 6506 1bf9 03       		.uleb128 0x3
 6507 1bfa 931F0000 		.4byte	0x1f93
 6508 1bfe 9A090000 		.4byte	.LLST125
 6509 1c02 98090000 		.4byte	.LVUS125
 6510 1c06 07       		.uleb128 0x7
 6511 1c07 A01F0000 		.4byte	0x1fa0
 6512 1c0b AE090000 		.4byte	.LLST126
 6513 1c0f A8090000 		.4byte	.LVUS126
 6514 1c13 07       		.uleb128 0x7
 6515 1c14 AB1F0000 		.4byte	0x1fab
 6516 1c18 C6090000 		.4byte	.LLST127
 6517 1c1c C4090000 		.4byte	.LVUS127
 6518 1c20 34       		.uleb128 0x34
 6519 1c21 66020000 		.4byte	.LVL199
 6520 1c25 02       		.uleb128 0x2
 6521 1c26 01       		.uleb128 0x1
 6522 1c27 50       		.byte	0x50
 6523 1c28 02       		.uleb128 0x2
 6524 1c29 76       		.byte	0x76
 6525 1c2a 00       		.sleb128 0
 6526 1c2b 02       		.uleb128 0x2
 6527 1c2c 01       		.uleb128 0x1
 6528 1c2d 51       		.byte	0x51
 6529 1c2e 02       		.uleb128 0x2
 6530 1c2f 74       		.byte	0x74
 6531 1c30 00       		.sleb128 0
 6532 1c31 00       		.byte	0
 6533 1c32 00       		.byte	0
 6534 1c33 53       		.uleb128 0x53
 6535 1c34 F0000000 		.4byte	.LVL165
 6536 1c38 431C0000 		.4byte	0x1c43
 6537 1c3c 02       		.uleb128 0x2
 6538 1c3d 01       		.uleb128 0x1
 6539 1c3e 50       		.byte	0x50
 6540 1c3f 02       		.uleb128 0x2
 6541 1c40 76       		.byte	0x76
 6542 1c41 00       		.sleb128 0
 6543 1c42 00       		.byte	0
 6544 1c43 08       		.uleb128 0x8
 6545 1c44 A2010000 		.4byte	.LVL177
ARM GAS  C:\Users\DEVELO~1\AppData\Local\Temp\cc0byXRH.s 			page 116


 6546 1c48 5A100000 		.4byte	0x105a
 6547 1c4c 571C0000 		.4byte	0x1c57
 6548 1c50 02       		.uleb128 0x2
 6549 1c51 01       		.uleb128 0x1
 6550 1c52 50       		.byte	0x50
 6551 1c53 02       		.uleb128 0x2
 6552 1c54 76       		.byte	0x76
 6553 1c55 00       		.sleb128 0
 6554 1c56 00       		.byte	0
 6555 1c57 08       		.uleb128 0x8
 6556 1c58 B0010000 		.4byte	.LVL178
 6557 1c5c B0230000 		.4byte	0x23b0
 6558 1c60 761C0000 		.4byte	0x1c76
 6559 1c64 02       		.uleb128 0x2
 6560 1c65 01       		.uleb128 0x1
 6561 1c66 50       		.byte	0x50
 6562 1c67 02       		.uleb128 0x2
 6563 1c68 70       		.byte	0x70
 6564 1c69 00       		.sleb128 0
 6565 1c6a 0A       		.uleb128 0xa
 6566 1c6b 6F220000 		.4byte	0x226f
 6567 1c6f 05       		.uleb128 0x5
 6568 1c70 03       		.byte	0x3
 6569 1c71 00000000 		.4byte	USBD1
 6570 1c75 00       		.byte	0
 6571 1c76 08       		.uleb128 0x8
 6572 1c77 B6010000 		.4byte	.LVL179
 6573 1c7b 48100000 		.4byte	0x1048
 6574 1c7f 8A1C0000 		.4byte	0x1c8a
 6575 1c83 02       		.uleb128 0x2
 6576 1c84 01       		.uleb128 0x1
 6577 1c85 50       		.byte	0x50
 6578 1c86 02       		.uleb128 0x2
 6579 1c87 76       		.byte	0x76
 6580 1c88 00       		.sleb128 0
 6581 1c89 00       		.byte	0
 6582 1c8a 08       		.uleb128 0x8
 6583 1c8b 6E020000 		.4byte	.LVL201
 6584 1c8f 6C100000 		.4byte	0x106c
 6585 1c93 9E1C0000 		.4byte	0x1c9e
 6586 1c97 02       		.uleb128 0x2
 6587 1c98 01       		.uleb128 0x1
 6588 1c99 50       		.byte	0x50
 6589 1c9a 02       		.uleb128 0x2
 6590 1c9b 76       		.byte	0x76
 6591 1c9c 00       		.sleb128 0
 6592 1c9d 00       		.byte	0
 6593 1c9e 08       		.uleb128 0x8
 6594 1c9f 82020000 		.4byte	.LVL204
 6595 1ca3 E8230000 		.4byte	0x23e8
 6596 1ca7 BC1C0000 		.4byte	0x1cbc
 6597 1cab 02       		.uleb128 0x2
 6598 1cac 01       		.uleb128 0x1
 6599 1cad 50       		.byte	0x50
 6600 1cae 01       		.uleb128 0x1
 6601 1caf 38       		.byte	0x38
 6602 1cb0 0A       		.uleb128 0xa
ARM GAS  C:\Users\DEVELO~1\AppData\Local\Temp\cc0byXRH.s 			page 117


 6603 1cb1 F91F0000 		.4byte	0x1ff9
 6604 1cb5 05       		.uleb128 0x5
 6605 1cb6 03       		.byte	0x3
 6606 1cb7 00000000 		.4byte	USBD1
 6607 1cbb 00       		.byte	0
 6608 1cbc 08       		.uleb128 0x8
 6609 1cbd 90020000 		.4byte	.LVL206
 6610 1cc1 81250000 		.4byte	0x2581
 6611 1cc5 DA1C0000 		.4byte	0x1cda
 6612 1cc9 02       		.uleb128 0x2
 6613 1cca 01       		.uleb128 0x1
 6614 1ccb 50       		.byte	0x50
 6615 1ccc 01       		.uleb128 0x1
 6616 1ccd 38       		.byte	0x38
 6617 1cce 0A       		.uleb128 0xa
 6618 1ccf 47200000 		.4byte	0x2047
 6619 1cd3 05       		.uleb128 0x5
 6620 1cd4 03       		.byte	0x3
 6621 1cd5 00000000 		.4byte	USBD1
 6622 1cd9 00       		.byte	0
 6623 1cda 08       		.uleb128 0x8
 6624 1cdb 02030000 		.4byte	.LVL225
 6625 1cdf 81250000 		.4byte	0x2581
 6626 1ce3 F81C0000 		.4byte	0x1cf8
 6627 1ce7 02       		.uleb128 0x2
 6628 1ce8 01       		.uleb128 0x1
 6629 1ce9 50       		.byte	0x50
 6630 1cea 01       		.uleb128 0x1
 6631 1ceb 30       		.byte	0x30
 6632 1cec 0A       		.uleb128 0xa
 6633 1ced 47200000 		.4byte	0x2047
 6634 1cf1 05       		.uleb128 0x5
 6635 1cf2 03       		.byte	0x3
 6636 1cf3 00000000 		.4byte	USBD1
 6637 1cf7 00       		.byte	0
 6638 1cf8 08       		.uleb128 0x8
 6639 1cf9 0E030000 		.4byte	.LVL226
 6640 1cfd 81250000 		.4byte	0x2581
 6641 1d01 161D0000 		.4byte	0x1d16
 6642 1d05 02       		.uleb128 0x2
 6643 1d06 01       		.uleb128 0x1
 6644 1d07 50       		.byte	0x50
 6645 1d08 01       		.uleb128 0x1
 6646 1d09 31       		.byte	0x31
 6647 1d0a 0A       		.uleb128 0xa
 6648 1d0b 47200000 		.4byte	0x2047
 6649 1d0f 05       		.uleb128 0x5
 6650 1d10 03       		.byte	0x3
 6651 1d11 00000000 		.4byte	USBD1
 6652 1d15 00       		.byte	0
 6653 1d16 08       		.uleb128 0x8
 6654 1d17 1A030000 		.4byte	.LVL227
 6655 1d1b 81250000 		.4byte	0x2581
 6656 1d1f 341D0000 		.4byte	0x1d34
 6657 1d23 02       		.uleb128 0x2
 6658 1d24 01       		.uleb128 0x1
 6659 1d25 50       		.byte	0x50
ARM GAS  C:\Users\DEVELO~1\AppData\Local\Temp\cc0byXRH.s 			page 118


 6660 1d26 01       		.uleb128 0x1
 6661 1d27 32       		.byte	0x32
 6662 1d28 0A       		.uleb128 0xa
 6663 1d29 47200000 		.4byte	0x2047
 6664 1d2d 05       		.uleb128 0x5
 6665 1d2e 03       		.byte	0x3
 6666 1d2f 00000000 		.4byte	USBD1
 6667 1d33 00       		.byte	0
 6668 1d34 08       		.uleb128 0x8
 6669 1d35 26030000 		.4byte	.LVL228
 6670 1d39 81250000 		.4byte	0x2581
 6671 1d3d 521D0000 		.4byte	0x1d52
 6672 1d41 02       		.uleb128 0x2
 6673 1d42 01       		.uleb128 0x1
 6674 1d43 50       		.byte	0x50
 6675 1d44 01       		.uleb128 0x1
 6676 1d45 33       		.byte	0x33
 6677 1d46 0A       		.uleb128 0xa
 6678 1d47 47200000 		.4byte	0x2047
 6679 1d4b 05       		.uleb128 0x5
 6680 1d4c 03       		.byte	0x3
 6681 1d4d 00000000 		.4byte	USBD1
 6682 1d51 00       		.byte	0
 6683 1d52 08       		.uleb128 0x8
 6684 1d53 32030000 		.4byte	.LVL230
 6685 1d57 81250000 		.4byte	0x2581
 6686 1d5b 701D0000 		.4byte	0x1d70
 6687 1d5f 02       		.uleb128 0x2
 6688 1d60 01       		.uleb128 0x1
 6689 1d61 50       		.byte	0x50
 6690 1d62 01       		.uleb128 0x1
 6691 1d63 34       		.byte	0x34
 6692 1d64 0A       		.uleb128 0xa
 6693 1d65 47200000 		.4byte	0x2047
 6694 1d69 05       		.uleb128 0x5
 6695 1d6a 03       		.byte	0x3
 6696 1d6b 00000000 		.4byte	USBD1
 6697 1d6f 00       		.byte	0
 6698 1d70 08       		.uleb128 0x8
 6699 1d71 3E030000 		.4byte	.LVL231
 6700 1d75 81250000 		.4byte	0x2581
 6701 1d79 8E1D0000 		.4byte	0x1d8e
 6702 1d7d 02       		.uleb128 0x2
 6703 1d7e 01       		.uleb128 0x1
 6704 1d7f 50       		.byte	0x50
 6705 1d80 01       		.uleb128 0x1
 6706 1d81 35       		.byte	0x35
 6707 1d82 0A       		.uleb128 0xa
 6708 1d83 47200000 		.4byte	0x2047
 6709 1d87 05       		.uleb128 0x5
 6710 1d88 03       		.byte	0x3
 6711 1d89 00000000 		.4byte	USBD1
 6712 1d8d 00       		.byte	0
 6713 1d8e 08       		.uleb128 0x8
 6714 1d8f 4A030000 		.4byte	.LVL232
 6715 1d93 81250000 		.4byte	0x2581
 6716 1d97 AC1D0000 		.4byte	0x1dac
ARM GAS  C:\Users\DEVELO~1\AppData\Local\Temp\cc0byXRH.s 			page 119


 6717 1d9b 02       		.uleb128 0x2
 6718 1d9c 01       		.uleb128 0x1
 6719 1d9d 50       		.byte	0x50
 6720 1d9e 01       		.uleb128 0x1
 6721 1d9f 36       		.byte	0x36
 6722 1da0 0A       		.uleb128 0xa
 6723 1da1 47200000 		.4byte	0x2047
 6724 1da5 05       		.uleb128 0x5
 6725 1da6 03       		.byte	0x3
 6726 1da7 00000000 		.4byte	USBD1
 6727 1dab 00       		.byte	0
 6728 1dac 08       		.uleb128 0x8
 6729 1dad 56030000 		.4byte	.LVL233
 6730 1db1 81250000 		.4byte	0x2581
 6731 1db5 CA1D0000 		.4byte	0x1dca
 6732 1db9 02       		.uleb128 0x2
 6733 1dba 01       		.uleb128 0x1
 6734 1dbb 50       		.byte	0x50
 6735 1dbc 01       		.uleb128 0x1
 6736 1dbd 37       		.byte	0x37
 6737 1dbe 0A       		.uleb128 0xa
 6738 1dbf 47200000 		.4byte	0x2047
 6739 1dc3 05       		.uleb128 0x5
 6740 1dc4 03       		.byte	0x3
 6741 1dc5 00000000 		.4byte	USBD1
 6742 1dc9 00       		.byte	0
 6743 1dca 08       		.uleb128 0x8
 6744 1dcb 5E030000 		.4byte	.LVL235
 6745 1dcf E8230000 		.4byte	0x23e8
 6746 1dd3 E81D0000 		.4byte	0x1de8
 6747 1dd7 02       		.uleb128 0x2
 6748 1dd8 01       		.uleb128 0x1
 6749 1dd9 50       		.byte	0x50
 6750 1dda 01       		.uleb128 0x1
 6751 1ddb 33       		.byte	0x33
 6752 1ddc 0A       		.uleb128 0xa
 6753 1ddd F91F0000 		.4byte	0x1ff9
 6754 1de1 05       		.uleb128 0x5
 6755 1de2 03       		.byte	0x3
 6756 1de3 00000000 		.4byte	USBD1
 6757 1de7 00       		.byte	0
 6758 1de8 08       		.uleb128 0x8
 6759 1de9 6A030000 		.4byte	.LVL236
 6760 1ded E8230000 		.4byte	0x23e8
 6761 1df1 061E0000 		.4byte	0x1e06
 6762 1df5 02       		.uleb128 0x2
 6763 1df6 01       		.uleb128 0x1
 6764 1df7 50       		.byte	0x50
 6765 1df8 01       		.uleb128 0x1
 6766 1df9 34       		.byte	0x34
 6767 1dfa 0A       		.uleb128 0xa
 6768 1dfb F91F0000 		.4byte	0x1ff9
 6769 1dff 05       		.uleb128 0x5
 6770 1e00 03       		.byte	0x3
 6771 1e01 00000000 		.4byte	USBD1
 6772 1e05 00       		.byte	0
 6773 1e06 08       		.uleb128 0x8
ARM GAS  C:\Users\DEVELO~1\AppData\Local\Temp\cc0byXRH.s 			page 120


 6774 1e07 76030000 		.4byte	.LVL237
 6775 1e0b E8230000 		.4byte	0x23e8
 6776 1e0f 241E0000 		.4byte	0x1e24
 6777 1e13 02       		.uleb128 0x2
 6778 1e14 01       		.uleb128 0x1
 6779 1e15 50       		.byte	0x50
 6780 1e16 01       		.uleb128 0x1
 6781 1e17 35       		.byte	0x35
 6782 1e18 0A       		.uleb128 0xa
 6783 1e19 F91F0000 		.4byte	0x1ff9
 6784 1e1d 05       		.uleb128 0x5
 6785 1e1e 03       		.byte	0x3
 6786 1e1f 00000000 		.4byte	USBD1
 6787 1e23 00       		.byte	0
 6788 1e24 08       		.uleb128 0x8
 6789 1e25 82030000 		.4byte	.LVL238
 6790 1e29 E8230000 		.4byte	0x23e8
 6791 1e2d 421E0000 		.4byte	0x1e42
 6792 1e31 02       		.uleb128 0x2
 6793 1e32 01       		.uleb128 0x1
 6794 1e33 50       		.byte	0x50
 6795 1e34 01       		.uleb128 0x1
 6796 1e35 36       		.byte	0x36
 6797 1e36 0A       		.uleb128 0xa
 6798 1e37 F91F0000 		.4byte	0x1ff9
 6799 1e3b 05       		.uleb128 0x5
 6800 1e3c 03       		.byte	0x3
 6801 1e3d 00000000 		.4byte	USBD1
 6802 1e41 00       		.byte	0
 6803 1e42 08       		.uleb128 0x8
 6804 1e43 8E030000 		.4byte	.LVL239
 6805 1e47 E8230000 		.4byte	0x23e8
 6806 1e4b 601E0000 		.4byte	0x1e60
 6807 1e4f 02       		.uleb128 0x2
 6808 1e50 01       		.uleb128 0x1
 6809 1e51 50       		.byte	0x50
 6810 1e52 01       		.uleb128 0x1
 6811 1e53 37       		.byte	0x37
 6812 1e54 0A       		.uleb128 0xa
 6813 1e55 F91F0000 		.4byte	0x1ff9
 6814 1e59 05       		.uleb128 0x5
 6815 1e5a 03       		.byte	0x3
 6816 1e5b 00000000 		.4byte	USBD1
 6817 1e5f 00       		.byte	0
 6818 1e60 08       		.uleb128 0x8
 6819 1e61 96030000 		.4byte	.LVL240
 6820 1e65 E8230000 		.4byte	0x23e8
 6821 1e69 7E1E0000 		.4byte	0x1e7e
 6822 1e6d 02       		.uleb128 0x2
 6823 1e6e 01       		.uleb128 0x1
 6824 1e6f 50       		.byte	0x50
 6825 1e70 01       		.uleb128 0x1
 6826 1e71 32       		.byte	0x32
 6827 1e72 0A       		.uleb128 0xa
 6828 1e73 F91F0000 		.4byte	0x1ff9
 6829 1e77 05       		.uleb128 0x5
 6830 1e78 03       		.byte	0x3
ARM GAS  C:\Users\DEVELO~1\AppData\Local\Temp\cc0byXRH.s 			page 121


 6831 1e79 00000000 		.4byte	USBD1
 6832 1e7d 00       		.byte	0
 6833 1e7e 08       		.uleb128 0x8
 6834 1e7f 9E030000 		.4byte	.LVL241
 6835 1e83 E8230000 		.4byte	0x23e8
 6836 1e87 9C1E0000 		.4byte	0x1e9c
 6837 1e8b 02       		.uleb128 0x2
 6838 1e8c 01       		.uleb128 0x1
 6839 1e8d 50       		.byte	0x50
 6840 1e8e 01       		.uleb128 0x1
 6841 1e8f 31       		.byte	0x31
 6842 1e90 0A       		.uleb128 0xa
 6843 1e91 F91F0000 		.4byte	0x1ff9
 6844 1e95 05       		.uleb128 0x5
 6845 1e96 03       		.byte	0x3
 6846 1e97 00000000 		.4byte	USBD1
 6847 1e9b 00       		.byte	0
 6848 1e9c 13       		.uleb128 0x13
 6849 1e9d A6030000 		.4byte	.LVL242
 6850 1ea1 E8230000 		.4byte	0x23e8
 6851 1ea5 02       		.uleb128 0x2
 6852 1ea6 01       		.uleb128 0x1
 6853 1ea7 50       		.byte	0x50
 6854 1ea8 01       		.uleb128 0x1
 6855 1ea9 30       		.byte	0x30
 6856 1eaa 0A       		.uleb128 0xa
 6857 1eab F91F0000 		.4byte	0x1ff9
 6858 1eaf 05       		.uleb128 0x5
 6859 1eb0 03       		.byte	0x3
 6860 1eb1 00000000 		.4byte	USBD1
 6861 1eb5 00       		.byte	0
 6862 1eb6 00       		.byte	0
 6863 1eb7 00       		.byte	0
 6864 1eb8 08       		.uleb128 0x8
 6865 1eb9 0C000000 		.4byte	.LVL155
 6866 1ebd 98100000 		.4byte	0x1098
 6867 1ec1 CF1E0000 		.4byte	0x1ecf
 6868 1ec5 02       		.uleb128 0x2
 6869 1ec6 01       		.uleb128 0x1
 6870 1ec7 50       		.byte	0x50
 6871 1ec8 05       		.uleb128 0x5
 6872 1ec9 03       		.byte	0x3
 6873 1eca 00000000 		.4byte	.LANCHOR3
 6874 1ece 00       		.byte	0
 6875 1ecf 08       		.uleb128 0x8
 6876 1ed0 DC000000 		.4byte	.LVL163
 6877 1ed4 87100000 		.4byte	0x1087
 6878 1ed8 E61E0000 		.4byte	0x1ee6
 6879 1edc 02       		.uleb128 0x2
 6880 1edd 01       		.uleb128 0x1
 6881 1ede 50       		.byte	0x50
 6882 1edf 05       		.uleb128 0x5
 6883 1ee0 03       		.byte	0x3
 6884 1ee1 00000000 		.4byte	.LANCHOR3
 6885 1ee5 00       		.byte	0
 6886 1ee6 35       		.uleb128 0x35
 6887 1ee7 E4000000 		.4byte	.LVL164
ARM GAS  C:\Users\DEVELO~1\AppData\Local\Temp\cc0byXRH.s 			page 122


 6888 1eeb 7E100000 		.4byte	0x107e
 6889 1eef 08       		.uleb128 0x8
 6890 1ef0 74020000 		.4byte	.LVL202
 6891 1ef4 87100000 		.4byte	0x1087
 6892 1ef8 061F0000 		.4byte	0x1f06
 6893 1efc 02       		.uleb128 0x2
 6894 1efd 01       		.uleb128 0x1
 6895 1efe 50       		.byte	0x50
 6896 1eff 05       		.uleb128 0x5
 6897 1f00 03       		.byte	0x3
 6898 1f01 00000000 		.4byte	.LANCHOR3
 6899 1f05 00       		.byte	0
 6900 1f06 35       		.uleb128 0x35
 6901 1f07 7C020000 		.4byte	.LVL203
 6902 1f0b 7E100000 		.4byte	0x107e
 6903 1f0f 08       		.uleb128 0x8
 6904 1f10 96020000 		.4byte	.LVL207
 6905 1f14 87100000 		.4byte	0x1087
 6906 1f18 261F0000 		.4byte	0x1f26
 6907 1f1c 02       		.uleb128 0x2
 6908 1f1d 01       		.uleb128 0x1
 6909 1f1e 50       		.byte	0x50
 6910 1f1f 05       		.uleb128 0x5
 6911 1f20 03       		.byte	0x3
 6912 1f21 00000000 		.4byte	.LANCHOR3
 6913 1f25 00       		.byte	0
 6914 1f26 35       		.uleb128 0x35
 6915 1f27 9E020000 		.4byte	.LVL208
 6916 1f2b 7E100000 		.4byte	0x107e
 6917 1f2f 00       		.byte	0
 6918 1f30 0B       		.uleb128 0xb
 6919 1f31 AC000000 		.4byte	0xac
 6920 1f35 401F0000 		.4byte	0x1f40
 6921 1f39 0C       		.uleb128 0xc
 6922 1f3a 26000000 		.4byte	0x26
 6923 1f3e 09       		.byte	0x9
 6924 1f3f 00       		.byte	0
 6925 1f40 1E       		.uleb128 0x1e
 6926 1f41 301F0000 		.4byte	0x1f30
 6927 1f45 15       		.uleb128 0x15
 6928 1f46 03080000 		.4byte	.LASF281
 6929 1f4a 01       		.byte	0x1
 6930 1f4b 1302     		.2byte	0x213
 6931 1f4d 0D       		.byte	0xd
 6932 1f4e 01       		.byte	0x1
 6933 1f4f 851F0000 		.4byte	0x1f85
 6934 1f53 14       		.uleb128 0x14
 6935 1f54 95020000 		.4byte	.LASF261
 6936 1f58 01       		.byte	0x1
 6937 1f59 1302     		.2byte	0x213
 6938 1f5b 30       		.byte	0x30
 6939 1f5c 86070000 		.4byte	0x786
 6940 1f60 24       		.uleb128 0x24
 6941 1f61 88070000 		.4byte	.LASF274
 6942 1f65 1402     		.2byte	0x214
 6943 1f67 10       		.byte	0x10
 6944 1f68 0A0F0000 		.4byte	0xf0a
ARM GAS  C:\Users\DEVELO~1\AppData\Local\Temp\cc0byXRH.s 			page 123


 6945 1f6c 16       		.uleb128 0x16
 6946 1f6d 73747300 		.ascii	"sts\000"
 6947 1f71 1502     		.2byte	0x215
 6948 1f73 0C       		.byte	0xc
 6949 1f74 D3000000 		.4byte	0xd3
 6950 1f78 16       		.uleb128 0x16
 6951 1f79 73726300 		.ascii	"src\000"
 6952 1f7d 1502     		.2byte	0x215
 6953 1f7f 11       		.byte	0x11
 6954 1f80 D3000000 		.4byte	0xd3
 6955 1f84 00       		.byte	0
 6956 1f85 15       		.uleb128 0x15
 6957 1f86 8E030000 		.4byte	.LASF282
 6958 1f8a 01       		.byte	0x1
 6959 1f8b F701     		.2byte	0x1f7
 6960 1f8d 0D       		.byte	0xd
 6961 1f8e 01       		.byte	0x1
 6962 1f8f B81F0000 		.4byte	0x1fb8
 6963 1f93 14       		.uleb128 0x14
 6964 1f94 95020000 		.4byte	.LASF261
 6965 1f98 01       		.byte	0x1
 6966 1f99 F701     		.2byte	0x1f7
 6967 1f9b 34       		.byte	0x34
 6968 1f9c 86070000 		.4byte	0x786
 6969 1fa0 16       		.uleb128 0x16
 6970 1fa1 657000   		.ascii	"ep\000"
 6971 1fa4 F801     		.2byte	0x1f8
 6972 1fa6 0B       		.byte	0xb
 6973 1fa7 36060000 		.4byte	0x636
 6974 1fab 24       		.uleb128 0x24
 6975 1fac 88070000 		.4byte	.LASF274
 6976 1fb0 F901     		.2byte	0x1f9
 6977 1fb2 10       		.byte	0x10
 6978 1fb3 0A0F0000 		.4byte	0xf0a
 6979 1fb7 00       		.byte	0
 6980 1fb8 15       		.uleb128 0x15
 6981 1fb9 B0090000 		.4byte	.LASF283
 6982 1fbd 01       		.byte	0x1
 6983 1fbe DA01     		.2byte	0x1da
 6984 1fc0 0D       		.byte	0xd
 6985 1fc1 01       		.byte	0x1
 6986 1fc2 EB1F0000 		.4byte	0x1feb
 6987 1fc6 14       		.uleb128 0x14
 6988 1fc7 95020000 		.4byte	.LASF261
 6989 1fcb 01       		.byte	0x1
 6990 1fcc DA01     		.2byte	0x1da
 6991 1fce 33       		.byte	0x33
 6992 1fcf 86070000 		.4byte	0x786
 6993 1fd3 16       		.uleb128 0x16
 6994 1fd4 657000   		.ascii	"ep\000"
 6995 1fd7 DB01     		.2byte	0x1db
 6996 1fd9 0B       		.byte	0xb
 6997 1fda 36060000 		.4byte	0x636
 6998 1fde 24       		.uleb128 0x24
 6999 1fdf 88070000 		.4byte	.LASF274
 7000 1fe3 DC01     		.2byte	0x1dc
 7001 1fe5 10       		.byte	0x10
ARM GAS  C:\Users\DEVELO~1\AppData\Local\Temp\cc0byXRH.s 			page 124


 7002 1fe6 0A0F0000 		.4byte	0xf0a
 7003 1fea 00       		.byte	0
 7004 1feb 15       		.uleb128 0x15
 7005 1fec 40090000 		.4byte	.LASF284
 7006 1ff0 01       		.byte	0x1
 7007 1ff1 A101     		.2byte	0x1a1
 7008 1ff3 0D       		.byte	0xd
 7009 1ff4 01       		.byte	0x1
 7010 1ff5 39200000 		.4byte	0x2039
 7011 1ff9 14       		.uleb128 0x14
 7012 1ffa 95020000 		.4byte	.LASF261
 7013 1ffe 01       		.byte	0x1
 7014 1fff A101     		.2byte	0x1a1
 7015 2001 2A       		.byte	0x2a
 7016 2002 86070000 		.4byte	0x786
 7017 2006 25       		.uleb128 0x25
 7018 2007 657000   		.ascii	"ep\000"
 7019 200a 01       		.byte	0x1
 7020 200b A101     		.2byte	0x1a1
 7021 200d 38       		.byte	0x38
 7022 200e 36060000 		.4byte	0x636
 7023 2012 24       		.uleb128 0x24
 7024 2013 88070000 		.4byte	.LASF274
 7025 2017 A201     		.2byte	0x1a2
 7026 2019 10       		.byte	0x10
 7027 201a 0A0F0000 		.4byte	0xf0a
 7028 201e 24       		.uleb128 0x24
 7029 201f D4050000 		.4byte	.LASF285
 7030 2023 A301     		.2byte	0x1a3
 7031 2025 0C       		.byte	0xc
 7032 2026 D3000000 		.4byte	0xd3
 7033 202a 36       		.uleb128 0x36
 7034 202b 16       		.uleb128 0x16
 7035 202c 6F737000 		.ascii	"osp\000"
 7036 2030 AF01     		.2byte	0x1af
 7037 2032 1A       		.byte	0x1a
 7038 2033 650E0000 		.4byte	0xe65
 7039 2037 00       		.byte	0
 7040 2038 00       		.byte	0
 7041 2039 15       		.uleb128 0x15
 7042 203a 5C060000 		.4byte	.LASF286
 7043 203e 01       		.byte	0x1
 7044 203f 7601     		.2byte	0x176
 7045 2041 0D       		.byte	0xd
 7046 2042 01       		.byte	0x1
 7047 2043 87200000 		.4byte	0x2087
 7048 2047 14       		.uleb128 0x14
 7049 2048 95020000 		.4byte	.LASF261
 7050 204c 01       		.byte	0x1
 7051 204d 7601     		.2byte	0x176
 7052 204f 29       		.byte	0x29
 7053 2050 86070000 		.4byte	0x786
 7054 2054 25       		.uleb128 0x25
 7055 2055 657000   		.ascii	"ep\000"
 7056 2058 01       		.byte	0x1
 7057 2059 7601     		.2byte	0x176
 7058 205b 37       		.byte	0x37
ARM GAS  C:\Users\DEVELO~1\AppData\Local\Temp\cc0byXRH.s 			page 125


 7059 205c 36060000 		.4byte	0x636
 7060 2060 24       		.uleb128 0x24
 7061 2061 88070000 		.4byte	.LASF274
 7062 2065 7701     		.2byte	0x177
 7063 2067 10       		.byte	0x10
 7064 2068 0A0F0000 		.4byte	0xf0a
 7065 206c 24       		.uleb128 0x24
 7066 206d D4050000 		.4byte	.LASF285
 7067 2071 7801     		.2byte	0x178
 7068 2073 0C       		.byte	0xc
 7069 2074 D3000000 		.4byte	0xd3
 7070 2078 36       		.uleb128 0x36
 7071 2079 16       		.uleb128 0x16
 7072 207a 69737000 		.ascii	"isp\000"
 7073 207e 8101     		.2byte	0x181
 7074 2080 19       		.byte	0x19
 7075 2081 600E0000 		.4byte	0xe60
 7076 2085 00       		.byte	0
 7077 2086 00       		.byte	0
 7078 2087 54       		.uleb128 0x54
 7079 2088 5E020000 		.4byte	.LASF291
 7080 208c 01       		.byte	0x1
 7081 208d 4801     		.2byte	0x148
 7082 208f 0D       		.byte	0xd
 7083 2090 FF040000 		.4byte	0x4ff
 7084 2094 01       		.byte	0x1
 7085 2095 BF200000 		.4byte	0x20bf
 7086 2099 14       		.uleb128 0x14
 7087 209a 95020000 		.4byte	.LASF261
 7088 209e 01       		.byte	0x1
 7089 209f 4801     		.2byte	0x148
 7090 20a1 2B       		.byte	0x2b
 7091 20a2 86070000 		.4byte	0x786
 7092 20a6 25       		.uleb128 0x25
 7093 20a7 657000   		.ascii	"ep\000"
 7094 20aa 01       		.byte	0x1
 7095 20ab 4801     		.2byte	0x148
 7096 20ad 39       		.byte	0x39
 7097 20ae 36060000 		.4byte	0x636
 7098 20b2 36       		.uleb128 0x36
 7099 20b3 16       		.uleb128 0x16
 7100 20b4 6E00     		.ascii	"n\000"
 7101 20b6 4C01     		.2byte	0x14c
 7102 20b8 0E       		.byte	0xe
 7103 20b9 D3000000 		.4byte	0xd3
 7104 20bd 00       		.byte	0
 7105 20be 00       		.byte	0
 7106 20bf 15       		.uleb128 0x15
 7107 20c0 E3010000 		.4byte	.LASF287
 7108 20c4 01       		.byte	0x1
 7109 20c5 1D01     		.2byte	0x11d
 7110 20c7 0D       		.byte	0xd
 7111 20c8 01       		.byte	0x1
 7112 20c9 FE200000 		.4byte	0x20fe
 7113 20cd 14       		.uleb128 0x14
 7114 20ce 95020000 		.4byte	.LASF261
 7115 20d2 01       		.byte	0x1
ARM GAS  C:\Users\DEVELO~1\AppData\Local\Temp\cc0byXRH.s 			page 126


 7116 20d3 1D01     		.2byte	0x11d
 7117 20d5 2B       		.byte	0x2b
 7118 20d6 86070000 		.4byte	0x786
 7119 20da 16       		.uleb128 0x16
 7120 20db 73747300 		.ascii	"sts\000"
 7121 20df 1E01     		.2byte	0x11e
 7122 20e1 0C       		.byte	0xc
 7123 20e2 D3000000 		.4byte	0xd3
 7124 20e6 16       		.uleb128 0x16
 7125 20e7 636E7400 		.ascii	"cnt\000"
 7126 20eb 1E01     		.2byte	0x11e
 7127 20ed 11       		.byte	0x11
 7128 20ee D3000000 		.4byte	0xd3
 7129 20f2 16       		.uleb128 0x16
 7130 20f3 657000   		.ascii	"ep\000"
 7131 20f6 1E01     		.2byte	0x11e
 7132 20f8 16       		.byte	0x16
 7133 20f9 D3000000 		.4byte	0xd3
 7134 20fd 00       		.byte	0
 7135 20fe 15       		.uleb128 0x15
 7136 20ff 690B0000 		.4byte	.LASF288
 7137 2103 01       		.byte	0x1
 7138 2104 0301     		.2byte	0x103
 7139 2106 0D       		.byte	0xd
 7140 2107 01       		.byte	0x1
 7141 2108 53210000 		.4byte	0x2153
 7142 210c 14       		.uleb128 0x14
 7143 210d BD0C0000 		.4byte	.LASF289
 7144 2111 01       		.byte	0x1
 7145 2112 0301     		.2byte	0x103
 7146 2114 38       		.byte	0x38
 7147 2115 06050000 		.4byte	0x506
 7148 2119 25       		.uleb128 0x25
 7149 211a 62756600 		.ascii	"buf\000"
 7150 211e 01       		.byte	0x1
 7151 211f 0401     		.2byte	0x104
 7152 2121 2E       		.byte	0x2e
 7153 2122 FA040000 		.4byte	0x4fa
 7154 2126 25       		.uleb128 0x25
 7155 2127 6E00     		.ascii	"n\000"
 7156 2129 01       		.byte	0x1
 7157 212a 0501     		.2byte	0x105
 7158 212c 2C       		.byte	0x2c
 7159 212d 34000000 		.4byte	0x34
 7160 2131 25       		.uleb128 0x25
 7161 2132 6D617800 		.ascii	"max\000"
 7162 2136 01       		.byte	0x1
 7163 2137 0601     		.2byte	0x106
 7164 2139 2C       		.byte	0x2c
 7165 213a 34000000 		.4byte	0x34
 7166 213e 16       		.uleb128 0x16
 7167 213f 7700     		.ascii	"w\000"
 7168 2141 0701     		.2byte	0x107
 7169 2143 0C       		.byte	0xc
 7170 2144 D3000000 		.4byte	0xd3
 7171 2148 16       		.uleb128 0x16
 7172 2149 6900     		.ascii	"i\000"
ARM GAS  C:\Users\DEVELO~1\AppData\Local\Temp\cc0byXRH.s 			page 127


 7173 214b 0801     		.2byte	0x108
 7174 214d 0A       		.byte	0xa
 7175 214e 34000000 		.4byte	0x34
 7176 2152 00       		.byte	0
 7177 2153 26       		.uleb128 0x26
 7178 2154 EA030000 		.4byte	.LASF290
 7179 2158 01       		.byte	0x1
 7180 2159 E9       		.byte	0xe9
 7181 215a 0D       		.byte	0xd
 7182 215b 01       		.byte	0x1
 7183 215c 8A210000 		.4byte	0x218a
 7184 2160 1D       		.uleb128 0x1d
 7185 2161 BD0C0000 		.4byte	.LASF289
 7186 2165 01       		.byte	0x1
 7187 2166 E9       		.byte	0xe9
 7188 2167 3B       		.byte	0x3b
 7189 2168 06050000 		.4byte	0x506
 7190 216c 3C       		.uleb128 0x3c
 7191 216d 62756600 		.ascii	"buf\000"
 7192 2171 EA       		.byte	0xea
 7193 2172 37       		.byte	0x37
 7194 2173 0B050000 		.4byte	0x50b
 7195 2177 3C       		.uleb128 0x3c
 7196 2178 6E00     		.ascii	"n\000"
 7197 217a EB       		.byte	0xeb
 7198 217b 2F       		.byte	0x2f
 7199 217c 34000000 		.4byte	0x34
 7200 2180 3D       		.uleb128 0x3d
 7201 2181 630E0000 		.4byte	.LASF295
 7202 2185 9A210000 		.4byte	0x219a
 7203 2189 00       		.byte	0
 7204 218a 0B       		.uleb128 0xb
 7205 218b AC000000 		.4byte	0xac
 7206 218f 9A210000 		.4byte	0x219a
 7207 2193 0C       		.uleb128 0xc
 7208 2194 26000000 		.4byte	0x26
 7209 2198 1A       		.byte	0x1a
 7210 2199 00       		.byte	0
 7211 219a 1E       		.uleb128 0x1e
 7212 219b 8A210000 		.4byte	0x218a
 7213 219f 55       		.uleb128 0x55
 7214 21a0 D6070000 		.4byte	.LASF292
 7215 21a4 01       		.byte	0x1
 7216 21a5 D6       		.byte	0xd6
 7217 21a6 11       		.byte	0x11
 7218 21a7 D3000000 		.4byte	0xd3
 7219 21ab 01       		.byte	0x1
 7220 21ac DD210000 		.4byte	0x21dd
 7221 21b0 1D       		.uleb128 0x1d
 7222 21b1 95020000 		.4byte	.LASF261
 7223 21b5 01       		.byte	0x1
 7224 21b6 D6       		.byte	0xd6
 7225 21b7 2A       		.byte	0x2a
 7226 21b8 86070000 		.4byte	0x786
 7227 21bc 1D       		.uleb128 0x1d
 7228 21bd 57080000 		.4byte	.LASF293
 7229 21c1 01       		.byte	0x1
ARM GAS  C:\Users\DEVELO~1\AppData\Local\Temp\cc0byXRH.s 			page 128


 7230 21c2 D6       		.byte	0xd6
 7231 21c3 37       		.byte	0x37
 7232 21c4 34000000 		.4byte	0x34
 7233 21c8 2C       		.uleb128 0x2c
 7234 21c9 DE010000 		.4byte	.LASF294
 7235 21cd D7       		.byte	0xd7
 7236 21ce 0C       		.byte	0xc
 7237 21cf D3000000 		.4byte	0xd3
 7238 21d3 3D       		.uleb128 0x3d
 7239 21d4 630E0000 		.4byte	.LASF295
 7240 21d8 ED210000 		.4byte	0x21ed
 7241 21dc 00       		.byte	0
 7242 21dd 0B       		.uleb128 0xb
 7243 21de AC000000 		.4byte	0xac
 7244 21e2 ED210000 		.4byte	0x21ed
 7245 21e6 0C       		.uleb128 0xc
 7246 21e7 26000000 		.4byte	0x26
 7247 21eb 0D       		.byte	0xd
 7248 21ec 00       		.byte	0
 7249 21ed 1E       		.uleb128 0x1e
 7250 21ee DD210000 		.4byte	0x21dd
 7251 21f2 26       		.uleb128 0x26
 7252 21f3 E10A0000 		.4byte	.LASF296
 7253 21f7 01       		.byte	0x1
 7254 21f8 C9       		.byte	0xc9
 7255 21f9 0D       		.byte	0xd
 7256 21fa 01       		.byte	0x1
 7257 21fb 0C220000 		.4byte	0x220c
 7258 21ff 1D       		.uleb128 0x1d
 7259 2200 95020000 		.4byte	.LASF261
 7260 2204 01       		.byte	0x1
 7261 2205 C9       		.byte	0xc9
 7262 2206 26       		.byte	0x26
 7263 2207 86070000 		.4byte	0x786
 7264 220b 00       		.byte	0
 7265 220c 26       		.uleb128 0x26
 7266 220d CF040000 		.4byte	.LASF297
 7267 2211 01       		.byte	0x1
 7268 2212 B8       		.byte	0xb8
 7269 2213 0D       		.byte	0xd
 7270 2214 01       		.byte	0x1
 7271 2215 3D220000 		.4byte	0x223d
 7272 2219 1D       		.uleb128 0x1d
 7273 221a 95020000 		.4byte	.LASF261
 7274 221e 01       		.byte	0x1
 7275 221f B8       		.byte	0xb8
 7276 2220 29       		.byte	0x29
 7277 2221 86070000 		.4byte	0x786
 7278 2225 1D       		.uleb128 0x1d
 7279 2226 5C0D0000 		.4byte	.LASF298
 7280 222a 01       		.byte	0x1
 7281 222b B8       		.byte	0xb8
 7282 222c 38       		.byte	0x38
 7283 222d D3000000 		.4byte	0xd3
 7284 2231 2C       		.uleb128 0x2c
 7285 2232 88070000 		.4byte	.LASF274
 7286 2236 B9       		.byte	0xb9
ARM GAS  C:\Users\DEVELO~1\AppData\Local\Temp\cc0byXRH.s 			page 129


 7287 2237 10       		.byte	0x10
 7288 2238 0A0F0000 		.4byte	0xf0a
 7289 223c 00       		.byte	0
 7290 223d 26       		.uleb128 0x26
 7291 223e 52090000 		.4byte	.LASF299
 7292 2242 01       		.byte	0x1
 7293 2243 AE       		.byte	0xae
 7294 2244 0D       		.byte	0xd
 7295 2245 01       		.byte	0x1
 7296 2246 62220000 		.4byte	0x2262
 7297 224a 1D       		.uleb128 0x1d
 7298 224b 95020000 		.4byte	.LASF261
 7299 224f 01       		.byte	0x1
 7300 2250 AE       		.byte	0xae
 7301 2251 29       		.byte	0x29
 7302 2252 86070000 		.4byte	0x786
 7303 2256 2C       		.uleb128 0x2c
 7304 2257 88070000 		.4byte	.LASF274
 7305 225b AF       		.byte	0xaf
 7306 225c 10       		.byte	0x10
 7307 225d 0A0F0000 		.4byte	0xf0a
 7308 2261 00       		.byte	0
 7309 2262 26       		.uleb128 0x26
 7310 2263 C8060000 		.4byte	.LASF300
 7311 2267 01       		.byte	0x1
 7312 2268 9A       		.byte	0x9a
 7313 2269 0D       		.byte	0xd
 7314 226a 01       		.byte	0x1
 7315 226b 91220000 		.4byte	0x2291
 7316 226f 1D       		.uleb128 0x1d
 7317 2270 95020000 		.4byte	.LASF261
 7318 2274 01       		.byte	0x1
 7319 2275 9A       		.byte	0x9a
 7320 2276 27       		.byte	0x27
 7321 2277 86070000 		.4byte	0x786
 7322 227b 2C       		.uleb128 0x2c
 7323 227c 88070000 		.4byte	.LASF274
 7324 2280 9B       		.byte	0x9b
 7325 2281 10       		.byte	0x10
 7326 2282 0A0F0000 		.4byte	0xf0a
 7327 2286 56       		.uleb128 0x56
 7328 2287 6900     		.ascii	"i\000"
 7329 2289 01       		.byte	0x1
 7330 228a 9C       		.byte	0x9c
 7331 228b 0C       		.byte	0xc
 7332 228c 26000000 		.4byte	0x26
 7333 2290 00       		.byte	0
 7334 2291 26       		.uleb128 0x26
 7335 2292 84090000 		.4byte	.LASF301
 7336 2296 01       		.byte	0x1
 7337 2297 86       		.byte	0x86
 7338 2298 0D       		.byte	0xd
 7339 2299 01       		.byte	0x1
 7340 229a B6220000 		.4byte	0x22b6
 7341 229e 1D       		.uleb128 0x1d
 7342 229f 95020000 		.4byte	.LASF261
 7343 22a3 01       		.byte	0x1
ARM GAS  C:\Users\DEVELO~1\AppData\Local\Temp\cc0byXRH.s 			page 130


 7344 22a4 86       		.byte	0x86
 7345 22a5 27       		.byte	0x27
 7346 22a6 86070000 		.4byte	0x786
 7347 22aa 2C       		.uleb128 0x2c
 7348 22ab 88070000 		.4byte	.LASF274
 7349 22af 87       		.byte	0x87
 7350 22b0 10       		.byte	0x10
 7351 22b1 0A0F0000 		.4byte	0xf0a
 7352 22b5 00       		.byte	0
 7353 22b6 15       		.uleb128 0x15
 7354 22b7 420F0000 		.4byte	.LASF302
 7355 22bb 03       		.byte	0x3
 7356 22bc 8C02     		.2byte	0x28c
 7357 22be 16       		.byte	0x16
 7358 22bf 03       		.byte	0x3
 7359 22c0 D2220000 		.4byte	0x22d2
 7360 22c4 14       		.uleb128 0x14
 7361 22c5 AA080000 		.4byte	.LASF303
 7362 22c9 03       		.byte	0x3
 7363 22ca 8C02     		.2byte	0x28c
 7364 22cc 2C       		.byte	0x2c
 7365 22cd D3000000 		.4byte	0xd3
 7366 22d1 00       		.byte	0
 7367 22d2 15       		.uleb128 0x15
 7368 22d3 39080000 		.4byte	.LASF304
 7369 22d7 03       		.byte	0x3
 7370 22d8 6A02     		.2byte	0x26a
 7371 22da 16       		.byte	0x16
 7372 22db 03       		.byte	0x3
 7373 22dc EE220000 		.4byte	0x22ee
 7374 22e0 14       		.uleb128 0x14
 7375 22e1 AA080000 		.4byte	.LASF303
 7376 22e5 03       		.byte	0x3
 7377 22e6 6A02     		.2byte	0x26a
 7378 22e8 2E       		.byte	0x2e
 7379 22e9 D3000000 		.4byte	0xd3
 7380 22ed 00       		.byte	0
 7381 22ee 15       		.uleb128 0x15
 7382 22ef E6060000 		.4byte	.LASF305
 7383 22f3 03       		.byte	0x3
 7384 22f4 4A02     		.2byte	0x24a
 7385 22f6 16       		.byte	0x16
 7386 22f7 03       		.byte	0x3
 7387 22f8 16230000 		.4byte	0x2316
 7388 22fc 14       		.uleb128 0x14
 7389 22fd AA080000 		.4byte	.LASF303
 7390 2301 03       		.byte	0x3
 7391 2302 4A02     		.2byte	0x24a
 7392 2304 2D       		.byte	0x2d
 7393 2305 D3000000 		.4byte	0xd3
 7394 2309 25       		.uleb128 0x25
 7395 230a 6C7000   		.ascii	"lp\000"
 7396 230d 03       		.byte	0x3
 7397 230e 4A02     		.2byte	0x24a
 7398 2310 38       		.byte	0x38
 7399 2311 FF040000 		.4byte	0x4ff
 7400 2315 00       		.byte	0
ARM GAS  C:\Users\DEVELO~1\AppData\Local\Temp\cc0byXRH.s 			page 131


 7401 2316 26       		.uleb128 0x26
 7402 2317 D7060000 		.4byte	.LASF306
 7403 231b 03       		.byte	0x3
 7404 231c 61       		.byte	0x61
 7405 231d 16       		.byte	0x16
 7406 231e 03       		.byte	0x3
 7407 231f 30230000 		.4byte	0x2330
 7408 2323 1D       		.uleb128 0x1d
 7409 2324 AA080000 		.4byte	.LASF303
 7410 2328 03       		.byte	0x3
 7411 2329 61       		.byte	0x61
 7412 232a 2E       		.byte	0x2e
 7413 232b D3000000 		.4byte	0xd3
 7414 232f 00       		.byte	0
 7415 2330 15       		.uleb128 0x15
 7416 2331 FE010000 		.4byte	.LASF307
 7417 2335 02       		.byte	0x2
 7418 2336 8D02     		.2byte	0x28d
 7419 2338 14       		.byte	0x14
 7420 2339 03       		.byte	0x3
 7421 233a 4C230000 		.4byte	0x234c
 7422 233e 14       		.uleb128 0x14
 7423 233f 940E0000 		.4byte	.LASF308
 7424 2343 02       		.byte	0x2
 7425 2344 8D02     		.2byte	0x28d
 7426 2346 30       		.byte	0x30
 7427 2347 F0000000 		.4byte	0xf0
 7428 234b 00       		.byte	0
 7429 234c 23       		.uleb128 0x23
 7430 234d 8E0B0000 		.4byte	.LASF309
 7431 2351 02       		.byte	0x2
 7432 2352 5E02     		.2byte	0x25e
 7433 2354 14       		.byte	0x14
 7434 2355 23       		.uleb128 0x23
 7435 2356 66050000 		.4byte	.LASF310
 7436 235a 02       		.byte	0x2
 7437 235b 5302     		.2byte	0x253
 7438 235d 14       		.byte	0x14
 7439 235e 23       		.uleb128 0x23
 7440 235f 2B050000 		.4byte	.LASF311
 7441 2363 05       		.byte	0x5
 7442 2364 D901     		.2byte	0x1d9
 7443 2366 14       		.byte	0x14
 7444 2367 23       		.uleb128 0x23
 7445 2368 36030000 		.4byte	.LASF312
 7446 236c 05       		.byte	0x5
 7447 236d C301     		.2byte	0x1c3
 7448 236f 14       		.byte	0x14
 7449 2370 23       		.uleb128 0x23
 7450 2371 BF000000 		.4byte	.LASF313
 7451 2375 06       		.byte	0x6
 7452 2376 5803     		.2byte	0x358
 7453 2378 1B       		.byte	0x1b
 7454 2379 23       		.uleb128 0x23
 7455 237a C4020000 		.4byte	.LASF314
 7456 237e 06       		.byte	0x6
 7457 237f 4D03     		.2byte	0x34d
ARM GAS  C:\Users\DEVELO~1\AppData\Local\Temp\cc0byXRH.s 			page 132


 7458 2381 1B       		.byte	0x1b
 7459 2382 23       		.uleb128 0x23
 7460 2383 1F050000 		.4byte	.LASF315
 7461 2387 06       		.byte	0x6
 7462 2388 3E03     		.2byte	0x33e
 7463 238a 1B       		.byte	0x1b
 7464 238b 23       		.uleb128 0x23
 7465 238c EF0E0000 		.4byte	.LASF316
 7466 2390 06       		.byte	0x6
 7467 2391 2603     		.2byte	0x326
 7468 2393 1B       		.byte	0x1b
 7469 2394 15       		.uleb128 0x15
 7470 2395 440B0000 		.4byte	.LASF317
 7471 2399 04       		.byte	0x4
 7472 239a EB01     		.2byte	0x1eb
 7473 239c 1B       		.byte	0x1b
 7474 239d 03       		.byte	0x3
 7475 239e B0230000 		.4byte	0x23b0
 7476 23a2 14       		.uleb128 0x14
 7477 23a3 0E050000 		.4byte	.LASF318
 7478 23a7 04       		.byte	0x4
 7479 23a8 EB01     		.2byte	0x1eb
 7480 23aa 32       		.byte	0x32
 7481 23ab D3000000 		.4byte	0xd3
 7482 23af 00       		.byte	0
 7483 23b0 3E       		.uleb128 0x3e
 7484 23b1 62220000 		.4byte	0x2262
 7485 23b5 00000000 		.4byte	.LFB463
 7486 23b9 56000000 		.4byte	.LFE463-.LFB463
 7487 23bd 01       		.uleb128 0x1
 7488 23be 9C       		.byte	0x9c
 7489 23bf E8230000 		.4byte	0x23e8
 7490 23c3 3B       		.uleb128 0x3b
 7491 23c4 7B220000 		.4byte	0x227b
 7492 23c8 07       		.uleb128 0x7
 7493 23c9 86220000 		.4byte	0x2286
 7494 23cd D7090000 		.4byte	.LLST0
 7495 23d1 CF090000 		.4byte	.LVUS0
 7496 23d5 03       		.uleb128 0x3
 7497 23d6 6F220000 		.4byte	0x226f
 7498 23da F6090000 		.4byte	.LLST1
 7499 23de F4090000 		.4byte	.LVUS1
 7500 23e2 17       		.uleb128 0x17
 7501 23e3 6F220000 		.4byte	0x226f
 7502 23e7 00       		.byte	0
 7503 23e8 3E       		.uleb128 0x3e
 7504 23e9 EB1F0000 		.4byte	0x1feb
 7505 23ed 00000000 		.4byte	.LFB467
 7506 23f1 9C000000 		.4byte	.LFE467-.LFB467
 7507 23f5 01       		.uleb128 0x1
 7508 23f6 9C       		.byte	0x9c
 7509 23f7 81250000 		.4byte	0x2581
 7510 23fb 03       		.uleb128 0x3
 7511 23fc 06200000 		.4byte	0x2006
 7512 2400 080A0000 		.4byte	.LLST71
 7513 2404 040A0000 		.4byte	.LVUS71
 7514 2408 07       		.uleb128 0x7
ARM GAS  C:\Users\DEVELO~1\AppData\Local\Temp\cc0byXRH.s 			page 133


 7515 2409 12200000 		.4byte	0x2012
 7516 240d 200A0000 		.4byte	.LLST72
 7517 2411 1C0A0000 		.4byte	.LVUS72
 7518 2415 07       		.uleb128 0x7
 7519 2416 1E200000 		.4byte	0x201e
 7520 241a 350A0000 		.4byte	.LLST73
 7521 241e 310A0000 		.4byte	.LVUS73
 7522 2422 3F       		.uleb128 0x3f
 7523 2423 F91F0000 		.4byte	0x1ff9
 7524 2427 06       		.uleb128 0x6
 7525 2428 03       		.byte	0x3
 7526 2429 00000000 		.4byte	USBD1
 7527 242d 9F       		.byte	0x9f
 7528 242e 40       		.uleb128 0x40
 7529 242f 2A200000 		.4byte	0x202a
 7530 2433 A2000000 		.4byte	.LLRL74
 7531 2437 6E250000 		.4byte	0x256e
 7532 243b 07       		.uleb128 0x7
 7533 243c 2B200000 		.4byte	0x202b
 7534 2440 500A0000 		.4byte	.LLST75
 7535 2444 460A0000 		.4byte	.LVUS75
 7536 2448 1B       		.uleb128 0x1b
 7537 2449 55230000 		.4byte	0x2355
 7538 244d 74000000 		.4byte	.LBI221
 7539 2451 0200     		.2byte	.LVU536
 7540 2453 AE000000 		.4byte	.LLRL76
 7541 2457 C701     		.2byte	0x1c7
 7542 2459 09       		.byte	0x9
 7543 245a BC240000 		.4byte	0x24bc
 7544 245e 2B       		.uleb128 0x2b
 7545 245f 67230000 		.4byte	0x2367
 7546 2463 74000000 		.4byte	.LBI222
 7547 2467 0400     		.2byte	.LVU538
 7548 2469 AE000000 		.4byte	.LLRL76
 7549 246d 02       		.byte	0x2
 7550 246e 5502     		.2byte	0x255
 7551 2470 03       		.byte	0x3
 7552 2471 2B       		.uleb128 0x2b
 7553 2472 79230000 		.4byte	0x2379
 7554 2476 74000000 		.4byte	.LBI223
 7555 247a 0600     		.2byte	.LVU540
 7556 247c AE000000 		.4byte	.LLRL76
 7557 2480 05       		.byte	0x5
 7558 2481 C501     		.2byte	0x1c5
 7559 2483 03       		.byte	0x3
 7560 2484 2B       		.uleb128 0x2b
 7561 2485 8B230000 		.4byte	0x238b
 7562 2489 74000000 		.4byte	.LBI224
 7563 248d 0800     		.2byte	.LVU542
 7564 248f AE000000 		.4byte	.LLRL76
 7565 2493 06       		.byte	0x6
 7566 2494 4F03     		.2byte	0x34f
 7567 2496 03       		.byte	0x3
 7568 2497 2B       		.uleb128 0x2b
 7569 2498 94230000 		.4byte	0x2394
 7570 249c 74000000 		.4byte	.LBI225
 7571 24a0 0A00     		.2byte	.LVU544
ARM GAS  C:\Users\DEVELO~1\AppData\Local\Temp\cc0byXRH.s 			page 134


 7572 24a2 AE000000 		.4byte	.LLRL76
 7573 24a6 06       		.byte	0x6
 7574 24a7 2E03     		.2byte	0x32e
 7575 24a9 03       		.byte	0x3
 7576 24aa 03       		.uleb128 0x3
 7577 24ab A2230000 		.4byte	0x23a2
 7578 24af 880A0000 		.4byte	.LLST77
 7579 24b3 860A0000 		.4byte	.LVUS77
 7580 24b7 00       		.byte	0
 7581 24b8 00       		.byte	0
 7582 24b9 00       		.byte	0
 7583 24ba 00       		.byte	0
 7584 24bb 00       		.byte	0
 7585 24bc 1C       		.uleb128 0x1c
 7586 24bd 4C230000 		.4byte	0x234c
 7587 24c1 80000000 		.4byte	.LBI233
 7588 24c5 0100     		.2byte	.LVU551
 7589 24c7 80000000 		.4byte	.LBB233
 7590 24cb 04000000 		.4byte	.LBE233-.LBB233
 7591 24cf C901     		.2byte	0x1c9
 7592 24d1 09       		.byte	0x9
 7593 24d2 44250000 		.4byte	0x2544
 7594 24d6 0F       		.uleb128 0xf
 7595 24d7 5E230000 		.4byte	0x235e
 7596 24db 80000000 		.4byte	.LBI234
 7597 24df 0300     		.2byte	.LVU553
 7598 24e1 80000000 		.4byte	.LBB234
 7599 24e5 04000000 		.4byte	.LBE234-.LBB234
 7600 24e9 02       		.byte	0x2
 7601 24ea 6002     		.2byte	0x260
 7602 24ec 03       		.byte	0x3
 7603 24ed 0F       		.uleb128 0xf
 7604 24ee 70230000 		.4byte	0x2370
 7605 24f2 80000000 		.4byte	.LBI235
 7606 24f6 0700     		.2byte	.LVU557
 7607 24f8 80000000 		.4byte	.LBB235
 7608 24fc 04000000 		.4byte	.LBE235-.LBB235
 7609 2500 05       		.byte	0x5
 7610 2501 DD01     		.2byte	0x1dd
 7611 2503 03       		.byte	0x3
 7612 2504 0F       		.uleb128 0xf
 7613 2505 82230000 		.4byte	0x2382
 7614 2509 80000000 		.4byte	.LBI236
 7615 250d 0900     		.2byte	.LVU559
 7616 250f 80000000 		.4byte	.LBB236
 7617 2513 04000000 		.4byte	.LBE236-.LBB236
 7618 2517 06       		.byte	0x6
 7619 2518 5A03     		.2byte	0x35a
 7620 251a 03       		.byte	0x3
 7621 251b 0F       		.uleb128 0xf
 7622 251c 94230000 		.4byte	0x2394
 7623 2520 80000000 		.4byte	.LBI237
 7624 2524 0B00     		.2byte	.LVU561
 7625 2526 80000000 		.4byte	.LBB237
 7626 252a 04000000 		.4byte	.LBE237-.LBB237
 7627 252e 06       		.byte	0x6
 7628 252f 4103     		.2byte	0x341
ARM GAS  C:\Users\DEVELO~1\AppData\Local\Temp\cc0byXRH.s 			page 135


 7629 2531 03       		.byte	0x3
 7630 2532 03       		.uleb128 0x3
 7631 2533 A2230000 		.4byte	0x23a2
 7632 2537 950A0000 		.4byte	.LLST78
 7633 253b 930A0000 		.4byte	.LVUS78
 7634 253f 00       		.byte	0
 7635 2540 00       		.byte	0
 7636 2541 00       		.byte	0
 7637 2542 00       		.byte	0
 7638 2543 00       		.byte	0
 7639 2544 57       		.uleb128 0x57
 7640 2545 6C000000 		.4byte	.LVL106
 7641 2549 57250000 		.4byte	0x2557
 7642 254d 02       		.uleb128 0x2
 7643 254e 01       		.uleb128 0x1
 7644 254f 50       		.byte	0x50
 7645 2550 05       		.uleb128 0x5
 7646 2551 03       		.byte	0x3
 7647 2552 00000000 		.4byte	.LANCHOR0
 7648 2556 00       		.byte	0
 7649 2557 13       		.uleb128 0x13
 7650 2558 80000000 		.4byte	.LVL109
 7651 255c F5110000 		.4byte	0x11f5
 7652 2560 02       		.uleb128 0x2
 7653 2561 01       		.uleb128 0x1
 7654 2562 50       		.byte	0x50
 7655 2563 02       		.uleb128 0x2
 7656 2564 77       		.byte	0x77
 7657 2565 00       		.sleb128 0
 7658 2566 02       		.uleb128 0x2
 7659 2567 01       		.uleb128 0x1
 7660 2568 51       		.byte	0x51
 7661 2569 02       		.uleb128 0x2
 7662 256a 74       		.byte	0x74
 7663 256b 00       		.sleb128 0
 7664 256c 00       		.byte	0
 7665 256d 00       		.byte	0
 7666 256e 34       		.uleb128 0x34
 7667 256f 96000000 		.4byte	.LVL112
 7668 2573 02       		.uleb128 0x2
 7669 2574 01       		.uleb128 0x1
 7670 2575 50       		.byte	0x50
 7671 2576 02       		.uleb128 0x2
 7672 2577 77       		.byte	0x77
 7673 2578 00       		.sleb128 0
 7674 2579 02       		.uleb128 0x2
 7675 257a 01       		.uleb128 0x1
 7676 257b 51       		.byte	0x51
 7677 257c 02       		.uleb128 0x2
 7678 257d 74       		.byte	0x74
 7679 257e 00       		.sleb128 0
 7680 257f 00       		.byte	0
 7681 2580 00       		.byte	0
 7682 2581 58       		.uleb128 0x58
 7683 2582 39200000 		.4byte	0x2039
 7684 2586 00000000 		.4byte	.LFB468
 7685 258a 10010000 		.4byte	.LFE468-.LFB468
ARM GAS  C:\Users\DEVELO~1\AppData\Local\Temp\cc0byXRH.s 			page 136


 7686 258e 01       		.uleb128 0x1
 7687 258f 9C       		.byte	0x9c
 7688 2590 03       		.uleb128 0x3
 7689 2591 54200000 		.4byte	0x2054
 7690 2595 A70A0000 		.4byte	.LLST84
 7691 2599 9F0A0000 		.4byte	.LVUS84
 7692 259d 07       		.uleb128 0x7
 7693 259e 60200000 		.4byte	0x2060
 7694 25a2 CE0A0000 		.4byte	.LLST85
 7695 25a6 C80A0000 		.4byte	.LVUS85
 7696 25aa 07       		.uleb128 0x7
 7697 25ab 6C200000 		.4byte	0x206c
 7698 25af EB0A0000 		.4byte	.LLST86
 7699 25b3 E50A0000 		.4byte	.LVUS86
 7700 25b7 3F       		.uleb128 0x3f
 7701 25b8 47200000 		.4byte	0x2047
 7702 25bc 06       		.uleb128 0x6
 7703 25bd 03       		.byte	0x3
 7704 25be 00000000 		.4byte	USBD1
 7705 25c2 9F       		.byte	0x9f
 7706 25c3 40       		.uleb128 0x40
 7707 25c4 78200000 		.4byte	0x2078
 7708 25c8 C6000000 		.4byte	.LLRL87
 7709 25cc 1D270000 		.4byte	0x271d
 7710 25d0 07       		.uleb128 0x7
 7711 25d1 79200000 		.4byte	0x2079
 7712 25d5 0E0B0000 		.4byte	.LLST88
 7713 25d9 020B0000 		.4byte	.LVUS88
 7714 25dd 1C       		.uleb128 0x1c
 7715 25de 55230000 		.4byte	0x2355
 7716 25e2 F2000000 		.4byte	.LBI282
 7717 25e6 0100     		.2byte	.LVU728
 7718 25e8 F2000000 		.4byte	.LBB282
 7719 25ec 06000000 		.4byte	.LBE282-.LBB282
 7720 25f0 8901     		.2byte	0x189
 7721 25f2 07       		.byte	0x7
 7722 25f3 65260000 		.4byte	0x2665
 7723 25f7 0F       		.uleb128 0xf
 7724 25f8 67230000 		.4byte	0x2367
 7725 25fc F2000000 		.4byte	.LBI283
 7726 2600 0300     		.2byte	.LVU730
 7727 2602 F2000000 		.4byte	.LBB283
 7728 2606 06000000 		.4byte	.LBE283-.LBB283
 7729 260a 02       		.byte	0x2
 7730 260b 5502     		.2byte	0x255
 7731 260d 03       		.byte	0x3
 7732 260e 0F       		.uleb128 0xf
 7733 260f 79230000 		.4byte	0x2379
 7734 2613 F2000000 		.4byte	.LBI284
 7735 2617 0500     		.2byte	.LVU732
 7736 2619 F2000000 		.4byte	.LBB284
 7737 261d 06000000 		.4byte	.LBE284-.LBB284
 7738 2621 05       		.byte	0x5
 7739 2622 C501     		.2byte	0x1c5
 7740 2624 03       		.byte	0x3
 7741 2625 0F       		.uleb128 0xf
 7742 2626 8B230000 		.4byte	0x238b
ARM GAS  C:\Users\DEVELO~1\AppData\Local\Temp\cc0byXRH.s 			page 137


 7743 262a F2000000 		.4byte	.LBI285
 7744 262e 0700     		.2byte	.LVU734
 7745 2630 F2000000 		.4byte	.LBB285
 7746 2634 06000000 		.4byte	.LBE285-.LBB285
 7747 2638 06       		.byte	0x6
 7748 2639 4F03     		.2byte	0x34f
 7749 263b 03       		.byte	0x3
 7750 263c 0F       		.uleb128 0xf
 7751 263d 94230000 		.4byte	0x2394
 7752 2641 F2000000 		.4byte	.LBI286
 7753 2645 0900     		.2byte	.LVU736
 7754 2647 F2000000 		.4byte	.LBB286
 7755 264b 06000000 		.4byte	.LBE286-.LBB286
 7756 264f 06       		.byte	0x6
 7757 2650 2E03     		.2byte	0x32e
 7758 2652 03       		.byte	0x3
 7759 2653 03       		.uleb128 0x3
 7760 2654 A2230000 		.4byte	0x23a2
 7761 2658 520B0000 		.4byte	.LLST89
 7762 265c 500B0000 		.4byte	.LVUS89
 7763 2660 00       		.byte	0
 7764 2661 00       		.byte	0
 7765 2662 00       		.byte	0
 7766 2663 00       		.byte	0
 7767 2664 00       		.byte	0
 7768 2665 1C       		.uleb128 0x1c
 7769 2666 4C230000 		.4byte	0x234c
 7770 266a 00010000 		.4byte	.LBI288
 7771 266e 0100     		.2byte	.LVU745
 7772 2670 00010000 		.4byte	.LBB288
 7773 2674 06000000 		.4byte	.LBE288-.LBB288
 7774 2678 8B01     		.2byte	0x18b
 7775 267a 07       		.byte	0x7
 7776 267b ED260000 		.4byte	0x26ed
 7777 267f 0F       		.uleb128 0xf
 7778 2680 5E230000 		.4byte	0x235e
 7779 2684 00010000 		.4byte	.LBI290
 7780 2688 0300     		.2byte	.LVU747
 7781 268a 00010000 		.4byte	.LBB290
 7782 268e 04000000 		.4byte	.LBE290-.LBB290
 7783 2692 02       		.byte	0x2
 7784 2693 6002     		.2byte	0x260
 7785 2695 03       		.byte	0x3
 7786 2696 0F       		.uleb128 0xf
 7787 2697 70230000 		.4byte	0x2370
 7788 269b 00010000 		.4byte	.LBI291
 7789 269f 0700     		.2byte	.LVU751
 7790 26a1 00010000 		.4byte	.LBB291
 7791 26a5 04000000 		.4byte	.LBE291-.LBB291
 7792 26a9 05       		.byte	0x5
 7793 26aa DD01     		.2byte	0x1dd
 7794 26ac 03       		.byte	0x3
 7795 26ad 0F       		.uleb128 0xf
 7796 26ae 82230000 		.4byte	0x2382
 7797 26b2 00010000 		.4byte	.LBI292
 7798 26b6 0900     		.2byte	.LVU753
 7799 26b8 00010000 		.4byte	.LBB292
ARM GAS  C:\Users\DEVELO~1\AppData\Local\Temp\cc0byXRH.s 			page 138


 7800 26bc 04000000 		.4byte	.LBE292-.LBB292
 7801 26c0 06       		.byte	0x6
 7802 26c1 5A03     		.2byte	0x35a
 7803 26c3 03       		.byte	0x3
 7804 26c4 0F       		.uleb128 0xf
 7805 26c5 94230000 		.4byte	0x2394
 7806 26c9 00010000 		.4byte	.LBI293
 7807 26cd 0B00     		.2byte	.LVU755
 7808 26cf 00010000 		.4byte	.LBB293
 7809 26d3 04000000 		.4byte	.LBE293-.LBB293
 7810 26d7 06       		.byte	0x6
 7811 26d8 4103     		.2byte	0x341
 7812 26da 03       		.byte	0x3
 7813 26db 03       		.uleb128 0x3
 7814 26dc A2230000 		.4byte	0x23a2
 7815 26e0 5F0B0000 		.4byte	.LLST90
 7816 26e4 5D0B0000 		.4byte	.LVUS90
 7817 26e8 00       		.byte	0
 7818 26e9 00       		.byte	0
 7819 26ea 00       		.byte	0
 7820 26eb 00       		.byte	0
 7821 26ec 00       		.byte	0
 7822 26ed 59       		.uleb128 0x59
 7823 26ee 70000000 		.4byte	.LVL136
 7824 26f2 02       		.uleb128 0x2
 7825 26f3 77       		.byte	0x77
 7826 26f4 00       		.sleb128 0
 7827 26f5 06270000 		.4byte	0x2706
 7828 26f9 02       		.uleb128 0x2
 7829 26fa 01       		.uleb128 0x1
 7830 26fb 50       		.byte	0x50
 7831 26fc 02       		.uleb128 0x2
 7832 26fd 79       		.byte	0x79
 7833 26fe 00       		.sleb128 0
 7834 26ff 02       		.uleb128 0x2
 7835 2700 01       		.uleb128 0x1
 7836 2701 51       		.byte	0x51
 7837 2702 02       		.uleb128 0x2
 7838 2703 74       		.byte	0x74
 7839 2704 00       		.sleb128 0
 7840 2705 00       		.byte	0
 7841 2706 13       		.uleb128 0x13
 7842 2707 00010000 		.4byte	.LVL152
 7843 270b 89110000 		.4byte	0x1189
 7844 270f 02       		.uleb128 0x2
 7845 2710 01       		.uleb128 0x1
 7846 2711 50       		.byte	0x50
 7847 2712 02       		.uleb128 0x2
 7848 2713 79       		.byte	0x79
 7849 2714 00       		.sleb128 0
 7850 2715 02       		.uleb128 0x2
 7851 2716 01       		.uleb128 0x1
 7852 2717 51       		.byte	0x51
 7853 2718 02       		.uleb128 0x2
 7854 2719 74       		.byte	0x74
 7855 271a 00       		.sleb128 0
 7856 271b 00       		.byte	0
ARM GAS  C:\Users\DEVELO~1\AppData\Local\Temp\cc0byXRH.s 			page 139


 7857 271c 00       		.byte	0
 7858 271d 5A       		.uleb128 0x5a
 7859 271e 87200000 		.4byte	0x2087
 7860 2722 D7000000 		.4byte	.LLRL91
 7861 2726 01       		.byte	0x1
 7862 2727 9501     		.2byte	0x195
 7863 2729 05       		.byte	0x5
 7864 272a 17       		.uleb128 0x17
 7865 272b 99200000 		.4byte	0x2099
 7866 272f 17       		.uleb128 0x17
 7867 2730 A6200000 		.4byte	0x20a6
 7868 2734 5B       		.uleb128 0x5b
 7869 2735 B2200000 		.4byte	0x20b2
 7870 2739 E5000000 		.4byte	.LLRL92
 7871 273d 07       		.uleb128 0x7
 7872 273e B3200000 		.4byte	0x20b3
 7873 2742 6D0B0000 		.4byte	.LLST93
 7874 2746 690B0000 		.4byte	.LVUS93
 7875 274a 0F       		.uleb128 0xf
 7876 274b 53210000 		.4byte	0x2153
 7877 274f AE000000 		.4byte	.LBI298
 7878 2753 0000     		.2byte	.LVU683
 7879 2755 AE000000 		.4byte	.LBB298
 7880 2759 22000000 		.4byte	.LBE298-.LBB298
 7881 275d 01       		.byte	0x1
 7882 275e 6301     		.2byte	0x163
 7883 2760 05       		.byte	0x5
 7884 2761 03       		.uleb128 0x3
 7885 2762 77210000 		.4byte	0x2177
 7886 2766 840B0000 		.4byte	.LLST94
 7887 276a 820B0000 		.4byte	.LVUS94
 7888 276e 03       		.uleb128 0x3
 7889 276f 6C210000 		.4byte	0x216c
 7890 2773 950B0000 		.4byte	.LLST95
 7891 2777 8D0B0000 		.4byte	.LVUS95
 7892 277b 17       		.uleb128 0x17
 7893 277c 60210000 		.4byte	0x2160
 7894 2780 00       		.byte	0
 7895 2781 00       		.byte	0
 7896 2782 00       		.byte	0
 7897 2783 00       		.byte	0
 7898 2784 00       		.byte	0
 7899              		.section	.debug_abbrev,"",%progbits
 7900              	.Ldebug_abbrev0:
 7901 0000 01       		.uleb128 0x1
 7902 0001 0D       		.uleb128 0xd
 7903 0002 00       		.byte	0
 7904 0003 03       		.uleb128 0x3
 7905 0004 0E       		.uleb128 0xe
 7906 0005 3A       		.uleb128 0x3a
 7907 0006 0B       		.uleb128 0xb
 7908 0007 3B       		.uleb128 0x3b
 7909 0008 05       		.uleb128 0x5
 7910 0009 39       		.uleb128 0x39
 7911 000a 0B       		.uleb128 0xb
 7912 000b 49       		.uleb128 0x49
 7913 000c 13       		.uleb128 0x13
ARM GAS  C:\Users\DEVELO~1\AppData\Local\Temp\cc0byXRH.s 			page 140


 7914 000d 38       		.uleb128 0x38
 7915 000e 0B       		.uleb128 0xb
 7916 000f 00       		.byte	0
 7917 0010 00       		.byte	0
 7918 0011 02       		.uleb128 0x2
 7919 0012 49       		.uleb128 0x49
 7920 0013 00       		.byte	0
 7921 0014 02       		.uleb128 0x2
 7922 0015 18       		.uleb128 0x18
 7923 0016 7E       		.uleb128 0x7e
 7924 0017 18       		.uleb128 0x18
 7925 0018 00       		.byte	0
 7926 0019 00       		.byte	0
 7927 001a 03       		.uleb128 0x3
 7928 001b 05       		.uleb128 0x5
 7929 001c 00       		.byte	0
 7930 001d 31       		.uleb128 0x31
 7931 001e 13       		.uleb128 0x13
 7932 001f 02       		.uleb128 0x2
 7933 0020 17       		.uleb128 0x17
 7934 0021 B742     		.uleb128 0x2137
 7935 0023 17       		.uleb128 0x17
 7936 0024 00       		.byte	0
 7937 0025 00       		.byte	0
 7938 0026 04       		.uleb128 0x4
 7939 0027 0D       		.uleb128 0xd
 7940 0028 00       		.byte	0
 7941 0029 03       		.uleb128 0x3
 7942 002a 0E       		.uleb128 0xe
 7943 002b 3A       		.uleb128 0x3a
 7944 002c 21       		.uleb128 0x21
 7945 002d 0F       		.sleb128 15
 7946 002e 3B       		.uleb128 0x3b
 7947 002f 0B       		.uleb128 0xb
 7948 0030 39       		.uleb128 0x39
 7949 0031 21       		.uleb128 0x21
 7950 0032 15       		.sleb128 21
 7951 0033 49       		.uleb128 0x49
 7952 0034 13       		.uleb128 0x13
 7953 0035 38       		.uleb128 0x38
 7954 0036 0B       		.uleb128 0xb
 7955 0037 00       		.byte	0
 7956 0038 00       		.byte	0
 7957 0039 05       		.uleb128 0x5
 7958 003a 0D       		.uleb128 0xd
 7959 003b 00       		.byte	0
 7960 003c 03       		.uleb128 0x3
 7961 003d 0E       		.uleb128 0xe
 7962 003e 3A       		.uleb128 0x3a
 7963 003f 21       		.uleb128 0x21
 7964 0040 0F       		.sleb128 15
 7965 0041 3B       		.uleb128 0x3b
 7966 0042 0B       		.uleb128 0xb
 7967 0043 39       		.uleb128 0x39
 7968 0044 21       		.uleb128 0x21
 7969 0045 15       		.sleb128 21
 7970 0046 49       		.uleb128 0x49
ARM GAS  C:\Users\DEVELO~1\AppData\Local\Temp\cc0byXRH.s 			page 141


 7971 0047 13       		.uleb128 0x13
 7972 0048 38       		.uleb128 0x38
 7973 0049 05       		.uleb128 0x5
 7974 004a 00       		.byte	0
 7975 004b 00       		.byte	0
 7976 004c 06       		.uleb128 0x6
 7977 004d 05       		.uleb128 0x5
 7978 004e 00       		.byte	0
 7979 004f 49       		.uleb128 0x49
 7980 0050 13       		.uleb128 0x13
 7981 0051 00       		.byte	0
 7982 0052 00       		.byte	0
 7983 0053 07       		.uleb128 0x7
 7984 0054 34       		.uleb128 0x34
 7985 0055 00       		.byte	0
 7986 0056 31       		.uleb128 0x31
 7987 0057 13       		.uleb128 0x13
 7988 0058 02       		.uleb128 0x2
 7989 0059 17       		.uleb128 0x17
 7990 005a B742     		.uleb128 0x2137
 7991 005c 17       		.uleb128 0x17
 7992 005d 00       		.byte	0
 7993 005e 00       		.byte	0
 7994 005f 08       		.uleb128 0x8
 7995 0060 48       		.uleb128 0x48
 7996 0061 01       		.byte	0x1
 7997 0062 7D       		.uleb128 0x7d
 7998 0063 01       		.uleb128 0x1
 7999 0064 7F       		.uleb128 0x7f
 8000 0065 13       		.uleb128 0x13
 8001 0066 01       		.uleb128 0x1
 8002 0067 13       		.uleb128 0x13
 8003 0068 00       		.byte	0
 8004 0069 00       		.byte	0
 8005 006a 09       		.uleb128 0x9
 8006 006b 28       		.uleb128 0x28
 8007 006c 00       		.byte	0
 8008 006d 03       		.uleb128 0x3
 8009 006e 0E       		.uleb128 0xe
 8010 006f 1C       		.uleb128 0x1c
 8011 0070 0B       		.uleb128 0xb
 8012 0071 00       		.byte	0
 8013 0072 00       		.byte	0
 8014 0073 0A       		.uleb128 0xa
 8015 0074 49       		.uleb128 0x49
 8016 0075 00       		.byte	0
 8017 0076 8001     		.uleb128 0x80
 8018 0078 13       		.uleb128 0x13
 8019 0079 7E       		.uleb128 0x7e
 8020 007a 18       		.uleb128 0x18
 8021 007b 00       		.byte	0
 8022 007c 00       		.byte	0
 8023 007d 0B       		.uleb128 0xb
 8024 007e 01       		.uleb128 0x1
 8025 007f 01       		.byte	0x1
 8026 0080 49       		.uleb128 0x49
 8027 0081 13       		.uleb128 0x13
ARM GAS  C:\Users\DEVELO~1\AppData\Local\Temp\cc0byXRH.s 			page 142


 8028 0082 01       		.uleb128 0x1
 8029 0083 13       		.uleb128 0x13
 8030 0084 00       		.byte	0
 8031 0085 00       		.byte	0
 8032 0086 0C       		.uleb128 0xc
 8033 0087 21       		.uleb128 0x21
 8034 0088 00       		.byte	0
 8035 0089 49       		.uleb128 0x49
 8036 008a 13       		.uleb128 0x13
 8037 008b 2F       		.uleb128 0x2f
 8038 008c 0B       		.uleb128 0xb
 8039 008d 00       		.byte	0
 8040 008e 00       		.byte	0
 8041 008f 0D       		.uleb128 0xd
 8042 0090 0F       		.uleb128 0xf
 8043 0091 00       		.byte	0
 8044 0092 0B       		.uleb128 0xb
 8045 0093 21       		.uleb128 0x21
 8046 0094 04       		.sleb128 4
 8047 0095 49       		.uleb128 0x49
 8048 0096 13       		.uleb128 0x13
 8049 0097 00       		.byte	0
 8050 0098 00       		.byte	0
 8051 0099 0E       		.uleb128 0xe
 8052 009a 16       		.uleb128 0x16
 8053 009b 00       		.byte	0
 8054 009c 03       		.uleb128 0x3
 8055 009d 0E       		.uleb128 0xe
 8056 009e 3A       		.uleb128 0x3a
 8057 009f 0B       		.uleb128 0xb
 8058 00a0 3B       		.uleb128 0x3b
 8059 00a1 05       		.uleb128 0x5
 8060 00a2 39       		.uleb128 0x39
 8061 00a3 0B       		.uleb128 0xb
 8062 00a4 49       		.uleb128 0x49
 8063 00a5 13       		.uleb128 0x13
 8064 00a6 00       		.byte	0
 8065 00a7 00       		.byte	0
 8066 00a8 0F       		.uleb128 0xf
 8067 00a9 1D       		.uleb128 0x1d
 8068 00aa 01       		.byte	0x1
 8069 00ab 31       		.uleb128 0x31
 8070 00ac 13       		.uleb128 0x13
 8071 00ad 52       		.uleb128 0x52
 8072 00ae 01       		.uleb128 0x1
 8073 00af B842     		.uleb128 0x2138
 8074 00b1 05       		.uleb128 0x5
 8075 00b2 11       		.uleb128 0x11
 8076 00b3 01       		.uleb128 0x1
 8077 00b4 12       		.uleb128 0x12
 8078 00b5 06       		.uleb128 0x6
 8079 00b6 58       		.uleb128 0x58
 8080 00b7 0B       		.uleb128 0xb
 8081 00b8 59       		.uleb128 0x59
 8082 00b9 05       		.uleb128 0x5
 8083 00ba 57       		.uleb128 0x57
 8084 00bb 0B       		.uleb128 0xb
ARM GAS  C:\Users\DEVELO~1\AppData\Local\Temp\cc0byXRH.s 			page 143


 8085 00bc 00       		.byte	0
 8086 00bd 00       		.byte	0
 8087 00be 10       		.uleb128 0x10
 8088 00bf 2E       		.uleb128 0x2e
 8089 00c0 01       		.byte	0x1
 8090 00c1 3F       		.uleb128 0x3f
 8091 00c2 19       		.uleb128 0x19
 8092 00c3 03       		.uleb128 0x3
 8093 00c4 0E       		.uleb128 0xe
 8094 00c5 3A       		.uleb128 0x3a
 8095 00c6 21       		.uleb128 0x21
 8096 00c7 01       		.sleb128 1
 8097 00c8 3B       		.uleb128 0x3b
 8098 00c9 05       		.uleb128 0x5
 8099 00ca 39       		.uleb128 0x39
 8100 00cb 0B       		.uleb128 0xb
 8101 00cc 27       		.uleb128 0x27
 8102 00cd 19       		.uleb128 0x19
 8103 00ce 11       		.uleb128 0x11
 8104 00cf 01       		.uleb128 0x1
 8105 00d0 12       		.uleb128 0x12
 8106 00d1 06       		.uleb128 0x6
 8107 00d2 40       		.uleb128 0x40
 8108 00d3 18       		.uleb128 0x18
 8109 00d4 7A       		.uleb128 0x7a
 8110 00d5 19       		.uleb128 0x19
 8111 00d6 01       		.uleb128 0x1
 8112 00d7 13       		.uleb128 0x13
 8113 00d8 00       		.byte	0
 8114 00d9 00       		.byte	0
 8115 00da 11       		.uleb128 0x11
 8116 00db 24       		.uleb128 0x24
 8117 00dc 00       		.byte	0
 8118 00dd 0B       		.uleb128 0xb
 8119 00de 0B       		.uleb128 0xb
 8120 00df 3E       		.uleb128 0x3e
 8121 00e0 0B       		.uleb128 0xb
 8122 00e1 03       		.uleb128 0x3
 8123 00e2 0E       		.uleb128 0xe
 8124 00e3 00       		.byte	0
 8125 00e4 00       		.byte	0
 8126 00e5 12       		.uleb128 0x12
 8127 00e6 16       		.uleb128 0x16
 8128 00e7 00       		.byte	0
 8129 00e8 03       		.uleb128 0x3
 8130 00e9 0E       		.uleb128 0xe
 8131 00ea 3A       		.uleb128 0x3a
 8132 00eb 0B       		.uleb128 0xb
 8133 00ec 3B       		.uleb128 0x3b
 8134 00ed 0B       		.uleb128 0xb
 8135 00ee 39       		.uleb128 0x39
 8136 00ef 0B       		.uleb128 0xb
 8137 00f0 49       		.uleb128 0x49
 8138 00f1 13       		.uleb128 0x13
 8139 00f2 00       		.byte	0
 8140 00f3 00       		.byte	0
 8141 00f4 13       		.uleb128 0x13
ARM GAS  C:\Users\DEVELO~1\AppData\Local\Temp\cc0byXRH.s 			page 144


 8142 00f5 48       		.uleb128 0x48
 8143 00f6 01       		.byte	0x1
 8144 00f7 7D       		.uleb128 0x7d
 8145 00f8 01       		.uleb128 0x1
 8146 00f9 7F       		.uleb128 0x7f
 8147 00fa 13       		.uleb128 0x13
 8148 00fb 00       		.byte	0
 8149 00fc 00       		.byte	0
 8150 00fd 14       		.uleb128 0x14
 8151 00fe 05       		.uleb128 0x5
 8152 00ff 00       		.byte	0
 8153 0100 03       		.uleb128 0x3
 8154 0101 0E       		.uleb128 0xe
 8155 0102 3A       		.uleb128 0x3a
 8156 0103 0B       		.uleb128 0xb
 8157 0104 3B       		.uleb128 0x3b
 8158 0105 05       		.uleb128 0x5
 8159 0106 39       		.uleb128 0x39
 8160 0107 0B       		.uleb128 0xb
 8161 0108 49       		.uleb128 0x49
 8162 0109 13       		.uleb128 0x13
 8163 010a 00       		.byte	0
 8164 010b 00       		.byte	0
 8165 010c 15       		.uleb128 0x15
 8166 010d 2E       		.uleb128 0x2e
 8167 010e 01       		.byte	0x1
 8168 010f 03       		.uleb128 0x3
 8169 0110 0E       		.uleb128 0xe
 8170 0111 3A       		.uleb128 0x3a
 8171 0112 0B       		.uleb128 0xb
 8172 0113 3B       		.uleb128 0x3b
 8173 0114 05       		.uleb128 0x5
 8174 0115 39       		.uleb128 0x39
 8175 0116 0B       		.uleb128 0xb
 8176 0117 27       		.uleb128 0x27
 8177 0118 19       		.uleb128 0x19
 8178 0119 20       		.uleb128 0x20
 8179 011a 0B       		.uleb128 0xb
 8180 011b 01       		.uleb128 0x1
 8181 011c 13       		.uleb128 0x13
 8182 011d 00       		.byte	0
 8183 011e 00       		.byte	0
 8184 011f 16       		.uleb128 0x16
 8185 0120 34       		.uleb128 0x34
 8186 0121 00       		.byte	0
 8187 0122 03       		.uleb128 0x3
 8188 0123 08       		.uleb128 0x8
 8189 0124 3A       		.uleb128 0x3a
 8190 0125 21       		.uleb128 0x21
 8191 0126 01       		.sleb128 1
 8192 0127 3B       		.uleb128 0x3b
 8193 0128 05       		.uleb128 0x5
 8194 0129 39       		.uleb128 0x39
 8195 012a 0B       		.uleb128 0xb
 8196 012b 49       		.uleb128 0x49
 8197 012c 13       		.uleb128 0x13
 8198 012d 00       		.byte	0
ARM GAS  C:\Users\DEVELO~1\AppData\Local\Temp\cc0byXRH.s 			page 145


 8199 012e 00       		.byte	0
 8200 012f 17       		.uleb128 0x17
 8201 0130 05       		.uleb128 0x5
 8202 0131 00       		.byte	0
 8203 0132 31       		.uleb128 0x31
 8204 0133 13       		.uleb128 0x13
 8205 0134 00       		.byte	0
 8206 0135 00       		.byte	0
 8207 0136 18       		.uleb128 0x18
 8208 0137 35       		.uleb128 0x35
 8209 0138 00       		.byte	0
 8210 0139 49       		.uleb128 0x49
 8211 013a 13       		.uleb128 0x13
 8212 013b 00       		.byte	0
 8213 013c 00       		.byte	0
 8214 013d 19       		.uleb128 0x19
 8215 013e 05       		.uleb128 0x5
 8216 013f 00       		.byte	0
 8217 0140 03       		.uleb128 0x3
 8218 0141 08       		.uleb128 0x8
 8219 0142 3A       		.uleb128 0x3a
 8220 0143 21       		.uleb128 0x21
 8221 0144 01       		.sleb128 1
 8222 0145 3B       		.uleb128 0x3b
 8223 0146 05       		.uleb128 0x5
 8224 0147 39       		.uleb128 0x39
 8225 0148 0B       		.uleb128 0xb
 8226 0149 49       		.uleb128 0x49
 8227 014a 13       		.uleb128 0x13
 8228 014b 02       		.uleb128 0x2
 8229 014c 17       		.uleb128 0x17
 8230 014d B742     		.uleb128 0x2137
 8231 014f 17       		.uleb128 0x17
 8232 0150 00       		.byte	0
 8233 0151 00       		.byte	0
 8234 0152 1A       		.uleb128 0x1a
 8235 0153 05       		.uleb128 0x5
 8236 0154 00       		.byte	0
 8237 0155 03       		.uleb128 0x3
 8238 0156 0E       		.uleb128 0xe
 8239 0157 3A       		.uleb128 0x3a
 8240 0158 21       		.uleb128 0x21
 8241 0159 01       		.sleb128 1
 8242 015a 3B       		.uleb128 0x3b
 8243 015b 05       		.uleb128 0x5
 8244 015c 39       		.uleb128 0x39
 8245 015d 0B       		.uleb128 0xb
 8246 015e 49       		.uleb128 0x49
 8247 015f 13       		.uleb128 0x13
 8248 0160 02       		.uleb128 0x2
 8249 0161 17       		.uleb128 0x17
 8250 0162 B742     		.uleb128 0x2137
 8251 0164 17       		.uleb128 0x17
 8252 0165 00       		.byte	0
 8253 0166 00       		.byte	0
 8254 0167 1B       		.uleb128 0x1b
 8255 0168 1D       		.uleb128 0x1d
ARM GAS  C:\Users\DEVELO~1\AppData\Local\Temp\cc0byXRH.s 			page 146


 8256 0169 01       		.byte	0x1
 8257 016a 31       		.uleb128 0x31
 8258 016b 13       		.uleb128 0x13
 8259 016c 52       		.uleb128 0x52
 8260 016d 01       		.uleb128 0x1
 8261 016e B842     		.uleb128 0x2138
 8262 0170 05       		.uleb128 0x5
 8263 0171 55       		.uleb128 0x55
 8264 0172 17       		.uleb128 0x17
 8265 0173 58       		.uleb128 0x58
 8266 0174 21       		.uleb128 0x21
 8267 0175 01       		.sleb128 1
 8268 0176 59       		.uleb128 0x59
 8269 0177 05       		.uleb128 0x5
 8270 0178 57       		.uleb128 0x57
 8271 0179 0B       		.uleb128 0xb
 8272 017a 01       		.uleb128 0x1
 8273 017b 13       		.uleb128 0x13
 8274 017c 00       		.byte	0
 8275 017d 00       		.byte	0
 8276 017e 1C       		.uleb128 0x1c
 8277 017f 1D       		.uleb128 0x1d
 8278 0180 01       		.byte	0x1
 8279 0181 31       		.uleb128 0x31
 8280 0182 13       		.uleb128 0x13
 8281 0183 52       		.uleb128 0x52
 8282 0184 01       		.uleb128 0x1
 8283 0185 B842     		.uleb128 0x2138
 8284 0187 05       		.uleb128 0x5
 8285 0188 11       		.uleb128 0x11
 8286 0189 01       		.uleb128 0x1
 8287 018a 12       		.uleb128 0x12
 8288 018b 06       		.uleb128 0x6
 8289 018c 58       		.uleb128 0x58
 8290 018d 21       		.uleb128 0x21
 8291 018e 01       		.sleb128 1
 8292 018f 59       		.uleb128 0x59
 8293 0190 05       		.uleb128 0x5
 8294 0191 57       		.uleb128 0x57
 8295 0192 0B       		.uleb128 0xb
 8296 0193 01       		.uleb128 0x1
 8297 0194 13       		.uleb128 0x13
 8298 0195 00       		.byte	0
 8299 0196 00       		.byte	0
 8300 0197 1D       		.uleb128 0x1d
 8301 0198 05       		.uleb128 0x5
 8302 0199 00       		.byte	0
 8303 019a 03       		.uleb128 0x3
 8304 019b 0E       		.uleb128 0xe
 8305 019c 3A       		.uleb128 0x3a
 8306 019d 0B       		.uleb128 0xb
 8307 019e 3B       		.uleb128 0x3b
 8308 019f 0B       		.uleb128 0xb
 8309 01a0 39       		.uleb128 0x39
 8310 01a1 0B       		.uleb128 0xb
 8311 01a2 49       		.uleb128 0x49
 8312 01a3 13       		.uleb128 0x13
ARM GAS  C:\Users\DEVELO~1\AppData\Local\Temp\cc0byXRH.s 			page 147


 8313 01a4 00       		.byte	0
 8314 01a5 00       		.byte	0
 8315 01a6 1E       		.uleb128 0x1e
 8316 01a7 26       		.uleb128 0x26
 8317 01a8 00       		.byte	0
 8318 01a9 49       		.uleb128 0x49
 8319 01aa 13       		.uleb128 0x13
 8320 01ab 00       		.byte	0
 8321 01ac 00       		.byte	0
 8322 01ad 1F       		.uleb128 0x1f
 8323 01ae 0D       		.uleb128 0xd
 8324 01af 00       		.byte	0
 8325 01b0 03       		.uleb128 0x3
 8326 01b1 0E       		.uleb128 0xe
 8327 01b2 3A       		.uleb128 0x3a
 8328 01b3 21       		.uleb128 0x21
 8329 01b4 0C       		.sleb128 12
 8330 01b5 3B       		.uleb128 0x3b
 8331 01b6 05       		.uleb128 0x5
 8332 01b7 39       		.uleb128 0x39
 8333 01b8 0B       		.uleb128 0xb
 8334 01b9 49       		.uleb128 0x49
 8335 01ba 13       		.uleb128 0x13
 8336 01bb 38       		.uleb128 0x38
 8337 01bc 05       		.uleb128 0x5
 8338 01bd 00       		.byte	0
 8339 01be 00       		.byte	0
 8340 01bf 20       		.uleb128 0x20
 8341 01c0 0B       		.uleb128 0xb
 8342 01c1 01       		.byte	0x1
 8343 01c2 55       		.uleb128 0x55
 8344 01c3 17       		.uleb128 0x17
 8345 01c4 00       		.byte	0
 8346 01c5 00       		.byte	0
 8347 01c6 21       		.uleb128 0x21
 8348 01c7 34       		.uleb128 0x34
 8349 01c8 00       		.byte	0
 8350 01c9 03       		.uleb128 0x3
 8351 01ca 0E       		.uleb128 0xe
 8352 01cb 3A       		.uleb128 0x3a
 8353 01cc 21       		.uleb128 0x21
 8354 01cd 01       		.sleb128 1
 8355 01ce 3B       		.uleb128 0x3b
 8356 01cf 05       		.uleb128 0x5
 8357 01d0 39       		.uleb128 0x39
 8358 01d1 0B       		.uleb128 0xb
 8359 01d2 49       		.uleb128 0x49
 8360 01d3 13       		.uleb128 0x13
 8361 01d4 02       		.uleb128 0x2
 8362 01d5 17       		.uleb128 0x17
 8363 01d6 B742     		.uleb128 0x2137
 8364 01d8 17       		.uleb128 0x17
 8365 01d9 00       		.byte	0
 8366 01da 00       		.byte	0
 8367 01db 22       		.uleb128 0x22
 8368 01dc 2E       		.uleb128 0x2e
 8369 01dd 01       		.byte	0x1
ARM GAS  C:\Users\DEVELO~1\AppData\Local\Temp\cc0byXRH.s 			page 148


 8370 01de 3F       		.uleb128 0x3f
 8371 01df 19       		.uleb128 0x19
 8372 01e0 03       		.uleb128 0x3
 8373 01e1 0E       		.uleb128 0xe
 8374 01e2 3A       		.uleb128 0x3a
 8375 01e3 0B       		.uleb128 0xb
 8376 01e4 3B       		.uleb128 0x3b
 8377 01e5 05       		.uleb128 0x5
 8378 01e6 39       		.uleb128 0x39
 8379 01e7 21       		.uleb128 0x21
 8380 01e8 08       		.sleb128 8
 8381 01e9 27       		.uleb128 0x27
 8382 01ea 19       		.uleb128 0x19
 8383 01eb 3C       		.uleb128 0x3c
 8384 01ec 19       		.uleb128 0x19
 8385 01ed 01       		.uleb128 0x1
 8386 01ee 13       		.uleb128 0x13
 8387 01ef 00       		.byte	0
 8388 01f0 00       		.byte	0
 8389 01f1 23       		.uleb128 0x23
 8390 01f2 2E       		.uleb128 0x2e
 8391 01f3 00       		.byte	0
 8392 01f4 03       		.uleb128 0x3
 8393 01f5 0E       		.uleb128 0xe
 8394 01f6 3A       		.uleb128 0x3a
 8395 01f7 0B       		.uleb128 0xb
 8396 01f8 3B       		.uleb128 0x3b
 8397 01f9 05       		.uleb128 0x5
 8398 01fa 39       		.uleb128 0x39
 8399 01fb 0B       		.uleb128 0xb
 8400 01fc 27       		.uleb128 0x27
 8401 01fd 19       		.uleb128 0x19
 8402 01fe 20       		.uleb128 0x20
 8403 01ff 21       		.uleb128 0x21
 8404 0200 03       		.sleb128 3
 8405 0201 00       		.byte	0
 8406 0202 00       		.byte	0
 8407 0203 24       		.uleb128 0x24
 8408 0204 34       		.uleb128 0x34
 8409 0205 00       		.byte	0
 8410 0206 03       		.uleb128 0x3
 8411 0207 0E       		.uleb128 0xe
 8412 0208 3A       		.uleb128 0x3a
 8413 0209 21       		.uleb128 0x21
 8414 020a 01       		.sleb128 1
 8415 020b 3B       		.uleb128 0x3b
 8416 020c 05       		.uleb128 0x5
 8417 020d 39       		.uleb128 0x39
 8418 020e 0B       		.uleb128 0xb
 8419 020f 49       		.uleb128 0x49
 8420 0210 13       		.uleb128 0x13
 8421 0211 00       		.byte	0
 8422 0212 00       		.byte	0
 8423 0213 25       		.uleb128 0x25
 8424 0214 05       		.uleb128 0x5
 8425 0215 00       		.byte	0
 8426 0216 03       		.uleb128 0x3
ARM GAS  C:\Users\DEVELO~1\AppData\Local\Temp\cc0byXRH.s 			page 149


 8427 0217 08       		.uleb128 0x8
 8428 0218 3A       		.uleb128 0x3a
 8429 0219 0B       		.uleb128 0xb
 8430 021a 3B       		.uleb128 0x3b
 8431 021b 05       		.uleb128 0x5
 8432 021c 39       		.uleb128 0x39
 8433 021d 0B       		.uleb128 0xb
 8434 021e 49       		.uleb128 0x49
 8435 021f 13       		.uleb128 0x13
 8436 0220 00       		.byte	0
 8437 0221 00       		.byte	0
 8438 0222 26       		.uleb128 0x26
 8439 0223 2E       		.uleb128 0x2e
 8440 0224 01       		.byte	0x1
 8441 0225 03       		.uleb128 0x3
 8442 0226 0E       		.uleb128 0xe
 8443 0227 3A       		.uleb128 0x3a
 8444 0228 0B       		.uleb128 0xb
 8445 0229 3B       		.uleb128 0x3b
 8446 022a 0B       		.uleb128 0xb
 8447 022b 39       		.uleb128 0x39
 8448 022c 0B       		.uleb128 0xb
 8449 022d 27       		.uleb128 0x27
 8450 022e 19       		.uleb128 0x19
 8451 022f 20       		.uleb128 0x20
 8452 0230 0B       		.uleb128 0xb
 8453 0231 01       		.uleb128 0x1
 8454 0232 13       		.uleb128 0x13
 8455 0233 00       		.byte	0
 8456 0234 00       		.byte	0
 8457 0235 27       		.uleb128 0x27
 8458 0236 0D       		.uleb128 0xd
 8459 0237 00       		.byte	0
 8460 0238 03       		.uleb128 0x3
 8461 0239 08       		.uleb128 0x8
 8462 023a 3A       		.uleb128 0x3a
 8463 023b 0B       		.uleb128 0xb
 8464 023c 3B       		.uleb128 0x3b
 8465 023d 05       		.uleb128 0x5
 8466 023e 39       		.uleb128 0x39
 8467 023f 0B       		.uleb128 0xb
 8468 0240 49       		.uleb128 0x49
 8469 0241 13       		.uleb128 0x13
 8470 0242 38       		.uleb128 0x38
 8471 0243 0B       		.uleb128 0xb
 8472 0244 00       		.byte	0
 8473 0245 00       		.byte	0
 8474 0246 28       		.uleb128 0x28
 8475 0247 13       		.uleb128 0x13
 8476 0248 01       		.byte	0x1
 8477 0249 0B       		.uleb128 0xb
 8478 024a 0B       		.uleb128 0xb
 8479 024b 3A       		.uleb128 0x3a
 8480 024c 0B       		.uleb128 0xb
 8481 024d 3B       		.uleb128 0x3b
 8482 024e 05       		.uleb128 0x5
 8483 024f 39       		.uleb128 0x39
ARM GAS  C:\Users\DEVELO~1\AppData\Local\Temp\cc0byXRH.s 			page 150


 8484 0250 21       		.uleb128 0x21
 8485 0251 09       		.sleb128 9
 8486 0252 01       		.uleb128 0x1
 8487 0253 13       		.uleb128 0x13
 8488 0254 00       		.byte	0
 8489 0255 00       		.byte	0
 8490 0256 29       		.uleb128 0x29
 8491 0257 34       		.uleb128 0x34
 8492 0258 00       		.byte	0
 8493 0259 03       		.uleb128 0x3
 8494 025a 08       		.uleb128 0x8
 8495 025b 3A       		.uleb128 0x3a
 8496 025c 21       		.uleb128 0x21
 8497 025d 01       		.sleb128 1
 8498 025e 3B       		.uleb128 0x3b
 8499 025f 05       		.uleb128 0x5
 8500 0260 39       		.uleb128 0x39
 8501 0261 0B       		.uleb128 0xb
 8502 0262 49       		.uleb128 0x49
 8503 0263 13       		.uleb128 0x13
 8504 0264 02       		.uleb128 0x2
 8505 0265 17       		.uleb128 0x17
 8506 0266 B742     		.uleb128 0x2137
 8507 0268 17       		.uleb128 0x17
 8508 0269 00       		.byte	0
 8509 026a 00       		.byte	0
 8510 026b 2A       		.uleb128 0x2a
 8511 026c 05       		.uleb128 0x5
 8512 026d 00       		.byte	0
 8513 026e 03       		.uleb128 0x3
 8514 026f 0E       		.uleb128 0xe
 8515 0270 3A       		.uleb128 0x3a
 8516 0271 21       		.uleb128 0x21
 8517 0272 01       		.sleb128 1
 8518 0273 3B       		.uleb128 0x3b
 8519 0274 05       		.uleb128 0x5
 8520 0275 39       		.uleb128 0x39
 8521 0276 0B       		.uleb128 0xb
 8522 0277 49       		.uleb128 0x49
 8523 0278 13       		.uleb128 0x13
 8524 0279 02       		.uleb128 0x2
 8525 027a 18       		.uleb128 0x18
 8526 027b 00       		.byte	0
 8527 027c 00       		.byte	0
 8528 027d 2B       		.uleb128 0x2b
 8529 027e 1D       		.uleb128 0x1d
 8530 027f 01       		.byte	0x1
 8531 0280 31       		.uleb128 0x31
 8532 0281 13       		.uleb128 0x13
 8533 0282 52       		.uleb128 0x52
 8534 0283 01       		.uleb128 0x1
 8535 0284 B842     		.uleb128 0x2138
 8536 0286 05       		.uleb128 0x5
 8537 0287 55       		.uleb128 0x55
 8538 0288 17       		.uleb128 0x17
 8539 0289 58       		.uleb128 0x58
 8540 028a 0B       		.uleb128 0xb
ARM GAS  C:\Users\DEVELO~1\AppData\Local\Temp\cc0byXRH.s 			page 151


 8541 028b 59       		.uleb128 0x59
 8542 028c 05       		.uleb128 0x5
 8543 028d 57       		.uleb128 0x57
 8544 028e 0B       		.uleb128 0xb
 8545 028f 00       		.byte	0
 8546 0290 00       		.byte	0
 8547 0291 2C       		.uleb128 0x2c
 8548 0292 34       		.uleb128 0x34
 8549 0293 00       		.byte	0
 8550 0294 03       		.uleb128 0x3
 8551 0295 0E       		.uleb128 0xe
 8552 0296 3A       		.uleb128 0x3a
 8553 0297 21       		.uleb128 0x21
 8554 0298 01       		.sleb128 1
 8555 0299 3B       		.uleb128 0x3b
 8556 029a 0B       		.uleb128 0xb
 8557 029b 39       		.uleb128 0x39
 8558 029c 0B       		.uleb128 0xb
 8559 029d 49       		.uleb128 0x49
 8560 029e 13       		.uleb128 0x13
 8561 029f 00       		.byte	0
 8562 02a0 00       		.byte	0
 8563 02a1 2D       		.uleb128 0x2d
 8564 02a2 04       		.uleb128 0x4
 8565 02a3 01       		.byte	0x1
 8566 02a4 3E       		.uleb128 0x3e
 8567 02a5 21       		.uleb128 0x21
 8568 02a6 07       		.sleb128 7
 8569 02a7 0B       		.uleb128 0xb
 8570 02a8 21       		.uleb128 0x21
 8571 02a9 01       		.sleb128 1
 8572 02aa 49       		.uleb128 0x49
 8573 02ab 13       		.uleb128 0x13
 8574 02ac 3A       		.uleb128 0x3a
 8575 02ad 21       		.uleb128 0x21
 8576 02ae 0D       		.sleb128 13
 8577 02af 3B       		.uleb128 0x3b
 8578 02b0 05       		.uleb128 0x5
 8579 02b1 39       		.uleb128 0x39
 8580 02b2 21       		.uleb128 0x21
 8581 02b3 0E       		.sleb128 14
 8582 02b4 01       		.uleb128 0x1
 8583 02b5 13       		.uleb128 0x13
 8584 02b6 00       		.byte	0
 8585 02b7 00       		.byte	0
 8586 02b8 2E       		.uleb128 0x2e
 8587 02b9 34       		.uleb128 0x34
 8588 02ba 00       		.byte	0
 8589 02bb 03       		.uleb128 0x3
 8590 02bc 0E       		.uleb128 0xe
 8591 02bd 3A       		.uleb128 0x3a
 8592 02be 21       		.uleb128 0x21
 8593 02bf 01       		.sleb128 1
 8594 02c0 3B       		.uleb128 0x3b
 8595 02c1 0B       		.uleb128 0xb
 8596 02c2 39       		.uleb128 0x39
 8597 02c3 0B       		.uleb128 0xb
ARM GAS  C:\Users\DEVELO~1\AppData\Local\Temp\cc0byXRH.s 			page 152


 8598 02c4 49       		.uleb128 0x49
 8599 02c5 13       		.uleb128 0x13
 8600 02c6 02       		.uleb128 0x2
 8601 02c7 18       		.uleb128 0x18
 8602 02c8 00       		.byte	0
 8603 02c9 00       		.byte	0
 8604 02ca 2F       		.uleb128 0x2f
 8605 02cb 2E       		.uleb128 0x2e
 8606 02cc 01       		.byte	0x1
 8607 02cd 3F       		.uleb128 0x3f
 8608 02ce 19       		.uleb128 0x19
 8609 02cf 03       		.uleb128 0x3
 8610 02d0 0E       		.uleb128 0xe
 8611 02d1 3A       		.uleb128 0x3a
 8612 02d2 0B       		.uleb128 0xb
 8613 02d3 3B       		.uleb128 0x3b
 8614 02d4 0B       		.uleb128 0xb
 8615 02d5 39       		.uleb128 0x39
 8616 02d6 21       		.uleb128 0x21
 8617 02d7 08       		.sleb128 8
 8618 02d8 27       		.uleb128 0x27
 8619 02d9 19       		.uleb128 0x19
 8620 02da 3C       		.uleb128 0x3c
 8621 02db 19       		.uleb128 0x19
 8622 02dc 01       		.uleb128 0x1
 8623 02dd 13       		.uleb128 0x13
 8624 02de 00       		.byte	0
 8625 02df 00       		.byte	0
 8626 02e0 30       		.uleb128 0x30
 8627 02e1 1D       		.uleb128 0x1d
 8628 02e2 01       		.byte	0x1
 8629 02e3 31       		.uleb128 0x31
 8630 02e4 13       		.uleb128 0x13
 8631 02e5 52       		.uleb128 0x52
 8632 02e6 01       		.uleb128 0x1
 8633 02e7 B842     		.uleb128 0x2138
 8634 02e9 05       		.uleb128 0x5
 8635 02ea 11       		.uleb128 0x11
 8636 02eb 01       		.uleb128 0x1
 8637 02ec 12       		.uleb128 0x12
 8638 02ed 06       		.uleb128 0x6
 8639 02ee 58       		.uleb128 0x58
 8640 02ef 21       		.uleb128 0x21
 8641 02f0 01       		.sleb128 1
 8642 02f1 59       		.uleb128 0x59
 8643 02f2 0B       		.uleb128 0xb
 8644 02f3 57       		.uleb128 0x57
 8645 02f4 21       		.uleb128 0x21
 8646 02f5 03       		.sleb128 3
 8647 02f6 00       		.byte	0
 8648 02f7 00       		.byte	0
 8649 02f8 31       		.uleb128 0x31
 8650 02f9 15       		.uleb128 0x15
 8651 02fa 01       		.byte	0x1
 8652 02fb 27       		.uleb128 0x27
 8653 02fc 19       		.uleb128 0x19
 8654 02fd 01       		.uleb128 0x1
ARM GAS  C:\Users\DEVELO~1\AppData\Local\Temp\cc0byXRH.s 			page 153


 8655 02fe 13       		.uleb128 0x13
 8656 02ff 00       		.byte	0
 8657 0300 00       		.byte	0
 8658 0301 32       		.uleb128 0x32
 8659 0302 13       		.uleb128 0x13
 8660 0303 01       		.byte	0x1
 8661 0304 0B       		.uleb128 0xb
 8662 0305 21       		.uleb128 0x21
 8663 0306 20       		.sleb128 32
 8664 0307 3A       		.uleb128 0x3a
 8665 0308 21       		.uleb128 0x21
 8666 0309 0F       		.sleb128 15
 8667 030a 3B       		.uleb128 0x3b
 8668 030b 0B       		.uleb128 0xb
 8669 030c 39       		.uleb128 0x39
 8670 030d 21       		.uleb128 0x21
 8671 030e 09       		.sleb128 9
 8672 030f 01       		.uleb128 0x1
 8673 0310 13       		.uleb128 0x13
 8674 0311 00       		.byte	0
 8675 0312 00       		.byte	0
 8676 0313 33       		.uleb128 0x33
 8677 0314 0D       		.uleb128 0xd
 8678 0315 00       		.byte	0
 8679 0316 03       		.uleb128 0x3
 8680 0317 08       		.uleb128 0x8
 8681 0318 3A       		.uleb128 0x3a
 8682 0319 21       		.uleb128 0x21
 8683 031a 0F       		.sleb128 15
 8684 031b 3B       		.uleb128 0x3b
 8685 031c 0B       		.uleb128 0xb
 8686 031d 39       		.uleb128 0x39
 8687 031e 0B       		.uleb128 0xb
 8688 031f 49       		.uleb128 0x49
 8689 0320 13       		.uleb128 0x13
 8690 0321 38       		.uleb128 0x38
 8691 0322 05       		.uleb128 0x5
 8692 0323 00       		.byte	0
 8693 0324 00       		.byte	0
 8694 0325 34       		.uleb128 0x34
 8695 0326 48       		.uleb128 0x48
 8696 0327 01       		.byte	0x1
 8697 0328 7D       		.uleb128 0x7d
 8698 0329 01       		.uleb128 0x1
 8699 032a 00       		.byte	0
 8700 032b 00       		.byte	0
 8701 032c 35       		.uleb128 0x35
 8702 032d 48       		.uleb128 0x48
 8703 032e 00       		.byte	0
 8704 032f 7D       		.uleb128 0x7d
 8705 0330 01       		.uleb128 0x1
 8706 0331 8201     		.uleb128 0x82
 8707 0333 19       		.uleb128 0x19
 8708 0334 7F       		.uleb128 0x7f
 8709 0335 13       		.uleb128 0x13
 8710 0336 00       		.byte	0
 8711 0337 00       		.byte	0
ARM GAS  C:\Users\DEVELO~1\AppData\Local\Temp\cc0byXRH.s 			page 154


 8712 0338 36       		.uleb128 0x36
 8713 0339 0B       		.uleb128 0xb
 8714 033a 01       		.byte	0x1
 8715 033b 00       		.byte	0
 8716 033c 00       		.byte	0
 8717 033d 37       		.uleb128 0x37
 8718 033e 15       		.uleb128 0x15
 8719 033f 01       		.byte	0x1
 8720 0340 27       		.uleb128 0x27
 8721 0341 19       		.uleb128 0x19
 8722 0342 49       		.uleb128 0x49
 8723 0343 13       		.uleb128 0x13
 8724 0344 01       		.uleb128 0x1
 8725 0345 13       		.uleb128 0x13
 8726 0346 00       		.byte	0
 8727 0347 00       		.byte	0
 8728 0348 38       		.uleb128 0x38
 8729 0349 0D       		.uleb128 0xd
 8730 034a 00       		.byte	0
 8731 034b 03       		.uleb128 0x3
 8732 034c 08       		.uleb128 0x8
 8733 034d 3A       		.uleb128 0x3a
 8734 034e 21       		.uleb128 0x21
 8735 034f 01       		.sleb128 1
 8736 0350 3B       		.uleb128 0x3b
 8737 0351 0B       		.uleb128 0xb
 8738 0352 39       		.uleb128 0x39
 8739 0353 0B       		.uleb128 0xb
 8740 0354 49       		.uleb128 0x49
 8741 0355 13       		.uleb128 0x13
 8742 0356 00       		.byte	0
 8743 0357 00       		.byte	0
 8744 0358 39       		.uleb128 0x39
 8745 0359 2E       		.uleb128 0x2e
 8746 035a 01       		.byte	0x1
 8747 035b 3F       		.uleb128 0x3f
 8748 035c 19       		.uleb128 0x19
 8749 035d 03       		.uleb128 0x3
 8750 035e 0E       		.uleb128 0xe
 8751 035f 3A       		.uleb128 0x3a
 8752 0360 21       		.uleb128 0x21
 8753 0361 01       		.sleb128 1
 8754 0362 3B       		.uleb128 0x3b
 8755 0363 05       		.uleb128 0x5
 8756 0364 39       		.uleb128 0x39
 8757 0365 21       		.uleb128 0x21
 8758 0366 0F       		.sleb128 15
 8759 0367 27       		.uleb128 0x27
 8760 0368 19       		.uleb128 0x19
 8761 0369 49       		.uleb128 0x49
 8762 036a 13       		.uleb128 0x13
 8763 036b 11       		.uleb128 0x11
 8764 036c 01       		.uleb128 0x1
 8765 036d 12       		.uleb128 0x12
 8766 036e 06       		.uleb128 0x6
 8767 036f 40       		.uleb128 0x40
 8768 0370 18       		.uleb128 0x18
ARM GAS  C:\Users\DEVELO~1\AppData\Local\Temp\cc0byXRH.s 			page 155


 8769 0371 7A       		.uleb128 0x7a
 8770 0372 19       		.uleb128 0x19
 8771 0373 01       		.uleb128 0x1
 8772 0374 13       		.uleb128 0x13
 8773 0375 00       		.byte	0
 8774 0376 00       		.byte	0
 8775 0377 3A       		.uleb128 0x3a
 8776 0378 1D       		.uleb128 0x1d
 8777 0379 01       		.byte	0x1
 8778 037a 31       		.uleb128 0x31
 8779 037b 13       		.uleb128 0x13
 8780 037c 52       		.uleb128 0x52
 8781 037d 01       		.uleb128 0x1
 8782 037e B842     		.uleb128 0x2138
 8783 0380 05       		.uleb128 0x5
 8784 0381 55       		.uleb128 0x55
 8785 0382 17       		.uleb128 0x17
 8786 0383 58       		.uleb128 0x58
 8787 0384 21       		.uleb128 0x21
 8788 0385 01       		.sleb128 1
 8789 0386 59       		.uleb128 0x59
 8790 0387 0B       		.uleb128 0xb
 8791 0388 57       		.uleb128 0x57
 8792 0389 21       		.uleb128 0x21
 8793 038a 03       		.sleb128 3
 8794 038b 00       		.byte	0
 8795 038c 00       		.byte	0
 8796 038d 3B       		.uleb128 0x3b
 8797 038e 34       		.uleb128 0x34
 8798 038f 00       		.byte	0
 8799 0390 31       		.uleb128 0x31
 8800 0391 13       		.uleb128 0x13
 8801 0392 00       		.byte	0
 8802 0393 00       		.byte	0
 8803 0394 3C       		.uleb128 0x3c
 8804 0395 05       		.uleb128 0x5
 8805 0396 00       		.byte	0
 8806 0397 03       		.uleb128 0x3
 8807 0398 08       		.uleb128 0x8
 8808 0399 3A       		.uleb128 0x3a
 8809 039a 21       		.uleb128 0x21
 8810 039b 01       		.sleb128 1
 8811 039c 3B       		.uleb128 0x3b
 8812 039d 0B       		.uleb128 0xb
 8813 039e 39       		.uleb128 0x39
 8814 039f 0B       		.uleb128 0xb
 8815 03a0 49       		.uleb128 0x49
 8816 03a1 13       		.uleb128 0x13
 8817 03a2 00       		.byte	0
 8818 03a3 00       		.byte	0
 8819 03a4 3D       		.uleb128 0x3d
 8820 03a5 34       		.uleb128 0x34
 8821 03a6 00       		.byte	0
 8822 03a7 03       		.uleb128 0x3
 8823 03a8 0E       		.uleb128 0xe
 8824 03a9 49       		.uleb128 0x49
 8825 03aa 13       		.uleb128 0x13
ARM GAS  C:\Users\DEVELO~1\AppData\Local\Temp\cc0byXRH.s 			page 156


 8826 03ab 34       		.uleb128 0x34
 8827 03ac 19       		.uleb128 0x19
 8828 03ad 00       		.byte	0
 8829 03ae 00       		.byte	0
 8830 03af 3E       		.uleb128 0x3e
 8831 03b0 2E       		.uleb128 0x2e
 8832 03b1 01       		.byte	0x1
 8833 03b2 31       		.uleb128 0x31
 8834 03b3 13       		.uleb128 0x13
 8835 03b4 11       		.uleb128 0x11
 8836 03b5 01       		.uleb128 0x1
 8837 03b6 12       		.uleb128 0x12
 8838 03b7 06       		.uleb128 0x6
 8839 03b8 40       		.uleb128 0x40
 8840 03b9 18       		.uleb128 0x18
 8841 03ba 7A       		.uleb128 0x7a
 8842 03bb 19       		.uleb128 0x19
 8843 03bc 01       		.uleb128 0x1
 8844 03bd 13       		.uleb128 0x13
 8845 03be 00       		.byte	0
 8846 03bf 00       		.byte	0
 8847 03c0 3F       		.uleb128 0x3f
 8848 03c1 05       		.uleb128 0x5
 8849 03c2 00       		.byte	0
 8850 03c3 31       		.uleb128 0x31
 8851 03c4 13       		.uleb128 0x13
 8852 03c5 02       		.uleb128 0x2
 8853 03c6 18       		.uleb128 0x18
 8854 03c7 00       		.byte	0
 8855 03c8 00       		.byte	0
 8856 03c9 40       		.uleb128 0x40
 8857 03ca 0B       		.uleb128 0xb
 8858 03cb 01       		.byte	0x1
 8859 03cc 31       		.uleb128 0x31
 8860 03cd 13       		.uleb128 0x13
 8861 03ce 55       		.uleb128 0x55
 8862 03cf 17       		.uleb128 0x17
 8863 03d0 01       		.uleb128 0x1
 8864 03d1 13       		.uleb128 0x13
 8865 03d2 00       		.byte	0
 8866 03d3 00       		.byte	0
 8867 03d4 41       		.uleb128 0x41
 8868 03d5 11       		.uleb128 0x11
 8869 03d6 01       		.byte	0x1
 8870 03d7 25       		.uleb128 0x25
 8871 03d8 0E       		.uleb128 0xe
 8872 03d9 13       		.uleb128 0x13
 8873 03da 0B       		.uleb128 0xb
 8874 03db 03       		.uleb128 0x3
 8875 03dc 0E       		.uleb128 0xe
 8876 03dd 1B       		.uleb128 0x1b
 8877 03de 0E       		.uleb128 0xe
 8878 03df 55       		.uleb128 0x55
 8879 03e0 17       		.uleb128 0x17
 8880 03e1 11       		.uleb128 0x11
 8881 03e2 01       		.uleb128 0x1
 8882 03e3 10       		.uleb128 0x10
ARM GAS  C:\Users\DEVELO~1\AppData\Local\Temp\cc0byXRH.s 			page 157


 8883 03e4 17       		.uleb128 0x17
 8884 03e5 00       		.byte	0
 8885 03e6 00       		.byte	0
 8886 03e7 42       		.uleb128 0x42
 8887 03e8 24       		.uleb128 0x24
 8888 03e9 00       		.byte	0
 8889 03ea 0B       		.uleb128 0xb
 8890 03eb 0B       		.uleb128 0xb
 8891 03ec 3E       		.uleb128 0x3e
 8892 03ed 0B       		.uleb128 0xb
 8893 03ee 03       		.uleb128 0x3
 8894 03ef 08       		.uleb128 0x8
 8895 03f0 00       		.byte	0
 8896 03f1 00       		.byte	0
 8897 03f2 43       		.uleb128 0x43
 8898 03f3 0F       		.uleb128 0xf
 8899 03f4 00       		.byte	0
 8900 03f5 0B       		.uleb128 0xb
 8901 03f6 0B       		.uleb128 0xb
 8902 03f7 00       		.byte	0
 8903 03f8 00       		.byte	0
 8904 03f9 44       		.uleb128 0x44
 8905 03fa 13       		.uleb128 0x13
 8906 03fb 01       		.byte	0x1
 8907 03fc 0B       		.uleb128 0xb
 8908 03fd 05       		.uleb128 0x5
 8909 03fe 3A       		.uleb128 0x3a
 8910 03ff 0B       		.uleb128 0xb
 8911 0400 3B       		.uleb128 0x3b
 8912 0401 05       		.uleb128 0x5
 8913 0402 39       		.uleb128 0x39
 8914 0403 0B       		.uleb128 0xb
 8915 0404 01       		.uleb128 0x1
 8916 0405 13       		.uleb128 0x13
 8917 0406 00       		.byte	0
 8918 0407 00       		.byte	0
 8919 0408 45       		.uleb128 0x45
 8920 0409 13       		.uleb128 0x13
 8921 040a 01       		.byte	0x1
 8922 040b 03       		.uleb128 0x3
 8923 040c 0E       		.uleb128 0xe
 8924 040d 0B       		.uleb128 0xb
 8925 040e 0B       		.uleb128 0xb
 8926 040f 3A       		.uleb128 0x3a
 8927 0410 0B       		.uleb128 0xb
 8928 0411 3B       		.uleb128 0x3b
 8929 0412 05       		.uleb128 0x5
 8930 0413 39       		.uleb128 0x39
 8931 0414 0B       		.uleb128 0xb
 8932 0415 01       		.uleb128 0x1
 8933 0416 13       		.uleb128 0x13
 8934 0417 00       		.byte	0
 8935 0418 00       		.byte	0
 8936 0419 46       		.uleb128 0x46
 8937 041a 13       		.uleb128 0x13
 8938 041b 01       		.byte	0x1
 8939 041c 0B       		.uleb128 0xb
ARM GAS  C:\Users\DEVELO~1\AppData\Local\Temp\cc0byXRH.s 			page 158


 8940 041d 06       		.uleb128 0x6
 8941 041e 3A       		.uleb128 0x3a
 8942 041f 0B       		.uleb128 0xb
 8943 0420 3B       		.uleb128 0x3b
 8944 0421 0B       		.uleb128 0xb
 8945 0422 39       		.uleb128 0x39
 8946 0423 0B       		.uleb128 0xb
 8947 0424 01       		.uleb128 0x1
 8948 0425 13       		.uleb128 0x13
 8949 0426 00       		.byte	0
 8950 0427 00       		.byte	0
 8951 0428 47       		.uleb128 0x47
 8952 0429 0D       		.uleb128 0xd
 8953 042a 00       		.byte	0
 8954 042b 03       		.uleb128 0x3
 8955 042c 08       		.uleb128 0x8
 8956 042d 3A       		.uleb128 0x3a
 8957 042e 0B       		.uleb128 0xb
 8958 042f 3B       		.uleb128 0x3b
 8959 0430 0B       		.uleb128 0xb
 8960 0431 39       		.uleb128 0x39
 8961 0432 0B       		.uleb128 0xb
 8962 0433 49       		.uleb128 0x49
 8963 0434 13       		.uleb128 0x13
 8964 0435 38       		.uleb128 0x38
 8965 0436 0B       		.uleb128 0xb
 8966 0437 00       		.byte	0
 8967 0438 00       		.byte	0
 8968 0439 48       		.uleb128 0x48
 8969 043a 21       		.uleb128 0x21
 8970 043b 00       		.byte	0
 8971 043c 49       		.uleb128 0x49
 8972 043d 13       		.uleb128 0x13
 8973 043e 2F       		.uleb128 0x2f
 8974 043f 05       		.uleb128 0x5
 8975 0440 00       		.byte	0
 8976 0441 00       		.byte	0
 8977 0442 49       		.uleb128 0x49
 8978 0443 34       		.uleb128 0x34
 8979 0444 00       		.byte	0
 8980 0445 03       		.uleb128 0x3
 8981 0446 0E       		.uleb128 0xe
 8982 0447 3A       		.uleb128 0x3a
 8983 0448 0B       		.uleb128 0xb
 8984 0449 3B       		.uleb128 0x3b
 8985 044a 05       		.uleb128 0x5
 8986 044b 39       		.uleb128 0x39
 8987 044c 0B       		.uleb128 0xb
 8988 044d 49       		.uleb128 0x49
 8989 044e 13       		.uleb128 0x13
 8990 044f 3F       		.uleb128 0x3f
 8991 0450 19       		.uleb128 0x19
 8992 0451 3C       		.uleb128 0x3c
 8993 0452 19       		.uleb128 0x19
 8994 0453 00       		.byte	0
 8995 0454 00       		.byte	0
 8996 0455 4A       		.uleb128 0x4a
ARM GAS  C:\Users\DEVELO~1\AppData\Local\Temp\cc0byXRH.s 			page 159


 8997 0456 34       		.uleb128 0x34
 8998 0457 00       		.byte	0
 8999 0458 47       		.uleb128 0x47
 9000 0459 13       		.uleb128 0x13
 9001 045a 3A       		.uleb128 0x3a
 9002 045b 0B       		.uleb128 0xb
 9003 045c 3B       		.uleb128 0x3b
 9004 045d 0B       		.uleb128 0xb
 9005 045e 39       		.uleb128 0x39
 9006 045f 0B       		.uleb128 0xb
 9007 0460 02       		.uleb128 0x2
 9008 0461 18       		.uleb128 0x18
 9009 0462 00       		.byte	0
 9010 0463 00       		.byte	0
 9011 0464 4B       		.uleb128 0x4b
 9012 0465 17       		.uleb128 0x17
 9013 0466 01       		.byte	0x1
 9014 0467 0B       		.uleb128 0xb
 9015 0468 0B       		.uleb128 0xb
 9016 0469 3A       		.uleb128 0x3a
 9017 046a 0B       		.uleb128 0xb
 9018 046b 3B       		.uleb128 0x3b
 9019 046c 0B       		.uleb128 0xb
 9020 046d 39       		.uleb128 0x39
 9021 046e 0B       		.uleb128 0xb
 9022 046f 01       		.uleb128 0x1
 9023 0470 13       		.uleb128 0x13
 9024 0471 00       		.byte	0
 9025 0472 00       		.byte	0
 9026 0473 4C       		.uleb128 0x4c
 9027 0474 2E       		.uleb128 0x2e
 9028 0475 01       		.byte	0x1
 9029 0476 3F       		.uleb128 0x3f
 9030 0477 19       		.uleb128 0x19
 9031 0478 03       		.uleb128 0x3
 9032 0479 0E       		.uleb128 0xe
 9033 047a 3A       		.uleb128 0x3a
 9034 047b 0B       		.uleb128 0xb
 9035 047c 3B       		.uleb128 0x3b
 9036 047d 0B       		.uleb128 0xb
 9037 047e 39       		.uleb128 0x39
 9038 047f 0B       		.uleb128 0xb
 9039 0480 27       		.uleb128 0x27
 9040 0481 19       		.uleb128 0x19
 9041 0482 49       		.uleb128 0x49
 9042 0483 13       		.uleb128 0x13
 9043 0484 3C       		.uleb128 0x3c
 9044 0485 19       		.uleb128 0x19
 9045 0486 01       		.uleb128 0x1
 9046 0487 13       		.uleb128 0x13
 9047 0488 00       		.byte	0
 9048 0489 00       		.byte	0
 9049 048a 4D       		.uleb128 0x4d
 9050 048b 26       		.uleb128 0x26
 9051 048c 00       		.byte	0
 9052 048d 00       		.byte	0
 9053 048e 00       		.byte	0
ARM GAS  C:\Users\DEVELO~1\AppData\Local\Temp\cc0byXRH.s 			page 160


 9054 048f 4E       		.uleb128 0x4e
 9055 0490 2E       		.uleb128 0x2e
 9056 0491 00       		.byte	0
 9057 0492 3F       		.uleb128 0x3f
 9058 0493 19       		.uleb128 0x19
 9059 0494 03       		.uleb128 0x3
 9060 0495 0E       		.uleb128 0xe
 9061 0496 3A       		.uleb128 0x3a
 9062 0497 0B       		.uleb128 0xb
 9063 0498 3B       		.uleb128 0x3b
 9064 0499 05       		.uleb128 0x5
 9065 049a 39       		.uleb128 0x39
 9066 049b 0B       		.uleb128 0xb
 9067 049c 27       		.uleb128 0x27
 9068 049d 19       		.uleb128 0x19
 9069 049e 3C       		.uleb128 0x3c
 9070 049f 19       		.uleb128 0x19
 9071 04a0 00       		.byte	0
 9072 04a1 00       		.byte	0
 9073 04a2 4F       		.uleb128 0x4f
 9074 04a3 05       		.uleb128 0x5
 9075 04a4 00       		.byte	0
 9076 04a5 03       		.uleb128 0x3
 9077 04a6 08       		.uleb128 0x8
 9078 04a7 3A       		.uleb128 0x3a
 9079 04a8 0B       		.uleb128 0xb
 9080 04a9 3B       		.uleb128 0x3b
 9081 04aa 05       		.uleb128 0x5
 9082 04ab 39       		.uleb128 0x39
 9083 04ac 0B       		.uleb128 0xb
 9084 04ad 49       		.uleb128 0x49
 9085 04ae 13       		.uleb128 0x13
 9086 04af 02       		.uleb128 0x2
 9087 04b0 18       		.uleb128 0x18
 9088 04b1 00       		.byte	0
 9089 04b2 00       		.byte	0
 9090 04b3 50       		.uleb128 0x50
 9091 04b4 48       		.uleb128 0x48
 9092 04b5 01       		.byte	0x1
 9093 04b6 7D       		.uleb128 0x7d
 9094 04b7 01       		.uleb128 0x1
 9095 04b8 8201     		.uleb128 0x82
 9096 04ba 19       		.uleb128 0x19
 9097 04bb 7F       		.uleb128 0x7f
 9098 04bc 13       		.uleb128 0x13
 9099 04bd 00       		.byte	0
 9100 04be 00       		.byte	0
 9101 04bf 51       		.uleb128 0x51
 9102 04c0 1D       		.uleb128 0x1d
 9103 04c1 01       		.byte	0x1
 9104 04c2 31       		.uleb128 0x31
 9105 04c3 13       		.uleb128 0x13
 9106 04c4 52       		.uleb128 0x52
 9107 04c5 01       		.uleb128 0x1
 9108 04c6 B842     		.uleb128 0x2138
 9109 04c8 05       		.uleb128 0x5
 9110 04c9 55       		.uleb128 0x55
ARM GAS  C:\Users\DEVELO~1\AppData\Local\Temp\cc0byXRH.s 			page 161


 9111 04ca 17       		.uleb128 0x17
 9112 04cb 58       		.uleb128 0x58
 9113 04cc 0B       		.uleb128 0xb
 9114 04cd 59       		.uleb128 0x59
 9115 04ce 0B       		.uleb128 0xb
 9116 04cf 57       		.uleb128 0x57
 9117 04d0 0B       		.uleb128 0xb
 9118 04d1 01       		.uleb128 0x1
 9119 04d2 13       		.uleb128 0x13
 9120 04d3 00       		.byte	0
 9121 04d4 00       		.byte	0
 9122 04d5 52       		.uleb128 0x52
 9123 04d6 34       		.uleb128 0x34
 9124 04d7 00       		.byte	0
 9125 04d8 03       		.uleb128 0x3
 9126 04d9 0E       		.uleb128 0xe
 9127 04da 49       		.uleb128 0x49
 9128 04db 13       		.uleb128 0x13
 9129 04dc 34       		.uleb128 0x34
 9130 04dd 19       		.uleb128 0x19
 9131 04de 02       		.uleb128 0x2
 9132 04df 18       		.uleb128 0x18
 9133 04e0 00       		.byte	0
 9134 04e1 00       		.byte	0
 9135 04e2 53       		.uleb128 0x53
 9136 04e3 48       		.uleb128 0x48
 9137 04e4 01       		.byte	0x1
 9138 04e5 7D       		.uleb128 0x7d
 9139 04e6 01       		.uleb128 0x1
 9140 04e7 01       		.uleb128 0x1
 9141 04e8 13       		.uleb128 0x13
 9142 04e9 00       		.byte	0
 9143 04ea 00       		.byte	0
 9144 04eb 54       		.uleb128 0x54
 9145 04ec 2E       		.uleb128 0x2e
 9146 04ed 01       		.byte	0x1
 9147 04ee 03       		.uleb128 0x3
 9148 04ef 0E       		.uleb128 0xe
 9149 04f0 3A       		.uleb128 0x3a
 9150 04f1 0B       		.uleb128 0xb
 9151 04f2 3B       		.uleb128 0x3b
 9152 04f3 05       		.uleb128 0x5
 9153 04f4 39       		.uleb128 0x39
 9154 04f5 0B       		.uleb128 0xb
 9155 04f6 27       		.uleb128 0x27
 9156 04f7 19       		.uleb128 0x19
 9157 04f8 49       		.uleb128 0x49
 9158 04f9 13       		.uleb128 0x13
 9159 04fa 20       		.uleb128 0x20
 9160 04fb 0B       		.uleb128 0xb
 9161 04fc 01       		.uleb128 0x1
 9162 04fd 13       		.uleb128 0x13
 9163 04fe 00       		.byte	0
 9164 04ff 00       		.byte	0
 9165 0500 55       		.uleb128 0x55
 9166 0501 2E       		.uleb128 0x2e
 9167 0502 01       		.byte	0x1
ARM GAS  C:\Users\DEVELO~1\AppData\Local\Temp\cc0byXRH.s 			page 162


 9168 0503 03       		.uleb128 0x3
 9169 0504 0E       		.uleb128 0xe
 9170 0505 3A       		.uleb128 0x3a
 9171 0506 0B       		.uleb128 0xb
 9172 0507 3B       		.uleb128 0x3b
 9173 0508 0B       		.uleb128 0xb
 9174 0509 39       		.uleb128 0x39
 9175 050a 0B       		.uleb128 0xb
 9176 050b 27       		.uleb128 0x27
 9177 050c 19       		.uleb128 0x19
 9178 050d 49       		.uleb128 0x49
 9179 050e 13       		.uleb128 0x13
 9180 050f 20       		.uleb128 0x20
 9181 0510 0B       		.uleb128 0xb
 9182 0511 01       		.uleb128 0x1
 9183 0512 13       		.uleb128 0x13
 9184 0513 00       		.byte	0
 9185 0514 00       		.byte	0
 9186 0515 56       		.uleb128 0x56
 9187 0516 34       		.uleb128 0x34
 9188 0517 00       		.byte	0
 9189 0518 03       		.uleb128 0x3
 9190 0519 08       		.uleb128 0x8
 9191 051a 3A       		.uleb128 0x3a
 9192 051b 0B       		.uleb128 0xb
 9193 051c 3B       		.uleb128 0x3b
 9194 051d 0B       		.uleb128 0xb
 9195 051e 39       		.uleb128 0x39
 9196 051f 0B       		.uleb128 0xb
 9197 0520 49       		.uleb128 0x49
 9198 0521 13       		.uleb128 0x13
 9199 0522 00       		.byte	0
 9200 0523 00       		.byte	0
 9201 0524 57       		.uleb128 0x57
 9202 0525 48       		.uleb128 0x48
 9203 0526 01       		.byte	0x1
 9204 0527 7D       		.uleb128 0x7d
 9205 0528 01       		.uleb128 0x1
 9206 0529 8201     		.uleb128 0x82
 9207 052b 19       		.uleb128 0x19
 9208 052c 01       		.uleb128 0x1
 9209 052d 13       		.uleb128 0x13
 9210 052e 00       		.byte	0
 9211 052f 00       		.byte	0
 9212 0530 58       		.uleb128 0x58
 9213 0531 2E       		.uleb128 0x2e
 9214 0532 01       		.byte	0x1
 9215 0533 31       		.uleb128 0x31
 9216 0534 13       		.uleb128 0x13
 9217 0535 11       		.uleb128 0x11
 9218 0536 01       		.uleb128 0x1
 9219 0537 12       		.uleb128 0x12
 9220 0538 06       		.uleb128 0x6
 9221 0539 40       		.uleb128 0x40
 9222 053a 18       		.uleb128 0x18
 9223 053b 7A       		.uleb128 0x7a
 9224 053c 19       		.uleb128 0x19
ARM GAS  C:\Users\DEVELO~1\AppData\Local\Temp\cc0byXRH.s 			page 163


 9225 053d 00       		.byte	0
 9226 053e 00       		.byte	0
 9227 053f 59       		.uleb128 0x59
 9228 0540 48       		.uleb128 0x48
 9229 0541 01       		.byte	0x1
 9230 0542 7D       		.uleb128 0x7d
 9231 0543 01       		.uleb128 0x1
 9232 0544 8301     		.uleb128 0x83
 9233 0546 18       		.uleb128 0x18
 9234 0547 01       		.uleb128 0x1
 9235 0548 13       		.uleb128 0x13
 9236 0549 00       		.byte	0
 9237 054a 00       		.byte	0
 9238 054b 5A       		.uleb128 0x5a
 9239 054c 1D       		.uleb128 0x1d
 9240 054d 01       		.byte	0x1
 9241 054e 31       		.uleb128 0x31
 9242 054f 13       		.uleb128 0x13
 9243 0550 55       		.uleb128 0x55
 9244 0551 17       		.uleb128 0x17
 9245 0552 58       		.uleb128 0x58
 9246 0553 0B       		.uleb128 0xb
 9247 0554 59       		.uleb128 0x59
 9248 0555 05       		.uleb128 0x5
 9249 0556 57       		.uleb128 0x57
 9250 0557 0B       		.uleb128 0xb
 9251 0558 00       		.byte	0
 9252 0559 00       		.byte	0
 9253 055a 5B       		.uleb128 0x5b
 9254 055b 0B       		.uleb128 0xb
 9255 055c 01       		.byte	0x1
 9256 055d 31       		.uleb128 0x31
 9257 055e 13       		.uleb128 0x13
 9258 055f 55       		.uleb128 0x55
 9259 0560 17       		.uleb128 0x17
 9260 0561 00       		.byte	0
 9261 0562 00       		.byte	0
 9262 0563 00       		.byte	0
 9263              		.section	.debug_loclists,"",%progbits
 9264 0000 AD0B0000 		.4byte	.Ldebug_loc3-.Ldebug_loc2
 9265              	.Ldebug_loc2:
 9266 0004 0500     		.2byte	0x5
 9267 0006 04       		.byte	0x4
 9268 0007 00       		.byte	0
 9269 0008 00000000 		.4byte	0
 9270              	.Ldebug_loc0:
 9271              	.LVUS131:
 9272 000c 00       		.uleb128 0
 9273 000d 00       		.uleb128 .LVU1109
 9274 000e 00       		.uleb128 .LVU1109
 9275 000f 00       		.uleb128 0
 9276              	.LLST131:
 9277 0010 06       		.byte	0x6
 9278 0011 00000000 		.4byte	.LVL249
 9279 0015 04       		.byte	0x4
 9280 0016 00       		.uleb128 .LVL249-.LVL249
 9281 0017 08       		.uleb128 .LVL250-.LVL249
ARM GAS  C:\Users\DEVELO~1\AppData\Local\Temp\cc0byXRH.s 			page 164


 9282 0018 01       		.uleb128 0x1
 9283 0019 51       		.byte	0x51
 9284 001a 04       		.byte	0x4
 9285 001b 08       		.uleb128 .LVL250-.LVL249
 9286 001c 16       		.uleb128 .LFE462-.LVL249
 9287 001d 04       		.uleb128 0x4
 9288 001e A3       		.byte	0xa3
 9289 001f 01       		.uleb128 0x1
 9290 0020 51       		.byte	0x51
 9291 0021 9F       		.byte	0x9f
 9292 0022 00       		.byte	0
 9293              	.LVUS130:
 9294 0023 00       		.uleb128 0
 9295 0024 00       		.uleb128 .LVU1105
 9296 0025 00       		.uleb128 .LVU1105
 9297 0026 00       		.uleb128 0
 9298              	.LLST130:
 9299 0027 06       		.byte	0x6
 9300 0028 00000000 		.4byte	.LVL247
 9301 002c 04       		.byte	0x4
 9302 002d 00       		.uleb128 .LVL247-.LVL247
 9303 002e 08       		.uleb128 .LVL248-.LVL247
 9304 002f 01       		.uleb128 0x1
 9305 0030 51       		.byte	0x51
 9306 0031 04       		.byte	0x4
 9307 0032 08       		.uleb128 .LVL248-.LVL247
 9308 0033 16       		.uleb128 .LFE461-.LVL247
 9309 0034 04       		.uleb128 0x4
 9310 0035 A3       		.byte	0xa3
 9311 0036 01       		.uleb128 0x1
 9312 0037 51       		.byte	0x51
 9313 0038 9F       		.byte	0x9f
 9314 0039 00       		.byte	0
 9315              	.LVUS129:
 9316 003a 00       		.uleb128 0
 9317 003b 00       		.uleb128 .LVU1101
 9318 003c 00       		.uleb128 .LVU1101
 9319 003d 00       		.uleb128 0
 9320              	.LLST129:
 9321 003e 06       		.byte	0x6
 9322 003f 00000000 		.4byte	.LVL245
 9323 0043 04       		.byte	0x4
 9324 0044 00       		.uleb128 .LVL245-.LVL245
 9325 0045 08       		.uleb128 .LVL246-.LVL245
 9326 0046 01       		.uleb128 0x1
 9327 0047 51       		.byte	0x51
 9328 0048 04       		.byte	0x4
 9329 0049 08       		.uleb128 .LVL246-.LVL245
 9330 004a 16       		.uleb128 .LFE460-.LVL245
 9331 004b 04       		.uleb128 0x4
 9332 004c A3       		.byte	0xa3
 9333 004d 01       		.uleb128 0x1
 9334 004e 51       		.byte	0x51
 9335 004f 9F       		.byte	0x9f
 9336 0050 00       		.byte	0
 9337              	.LVUS128:
 9338 0051 00       		.uleb128 0
ARM GAS  C:\Users\DEVELO~1\AppData\Local\Temp\cc0byXRH.s 			page 165


 9339 0052 00       		.uleb128 .LVU1097
 9340 0053 00       		.uleb128 .LVU1097
 9341 0054 00       		.uleb128 0
 9342              	.LLST128:
 9343 0055 06       		.byte	0x6
 9344 0056 00000000 		.4byte	.LVL243
 9345 005a 04       		.byte	0x4
 9346 005b 00       		.uleb128 .LVL243-.LVL243
 9347 005c 08       		.uleb128 .LVL244-.LVL243
 9348 005d 01       		.uleb128 0x1
 9349 005e 51       		.byte	0x51
 9350 005f 04       		.byte	0x4
 9351 0060 08       		.uleb128 .LVL244-.LVL243
 9352 0061 16       		.uleb128 .LFE459-.LVL243
 9353 0062 04       		.uleb128 0x4
 9354 0063 A3       		.byte	0xa3
 9355 0064 01       		.uleb128 0x1
 9356 0065 51       		.byte	0x51
 9357 0066 9F       		.byte	0x9f
 9358 0067 00       		.byte	0
 9359              	.LVUS79:
 9360 0068 00       		.uleb128 0
 9361 0069 00       		.uleb128 .LVU582
 9362 006a 00       		.uleb128 .LVU582
 9363 006b 00       		.uleb128 .LVU596
 9364 006c 00       		.uleb128 .LVU596
 9365 006d 00       		.uleb128 .LVU603
 9366 006e 00       		.uleb128 .LVU603
 9367 006f 00       		.uleb128 .LVU620
 9368 0070 00       		.uleb128 .LVU620
 9369 0071 00       		.uleb128 0
 9370              	.LLST79:
 9371 0072 06       		.byte	0x6
 9372 0073 00000000 		.4byte	.LVL113
 9373 0077 04       		.byte	0x4
 9374 0078 00       		.uleb128 .LVL113-.LVL113
 9375 0079 18       		.uleb128 .LVL116-.LVL113
 9376 007a 01       		.uleb128 0x1
 9377 007b 50       		.byte	0x50
 9378 007c 04       		.byte	0x4
 9379 007d 18       		.uleb128 .LVL116-.LVL113
 9380 007e 4E       		.uleb128 .LVL119-.LVL113
 9381 007f 04       		.uleb128 0x4
 9382 0080 A3       		.byte	0xa3
 9383 0081 01       		.uleb128 0x1
 9384 0082 50       		.byte	0x50
 9385 0083 9F       		.byte	0x9f
 9386 0084 04       		.byte	0x4
 9387 0085 4E       		.uleb128 .LVL119-.LVL113
 9388 0086 60       		.uleb128 .LVL122-.LVL113
 9389 0087 01       		.uleb128 0x1
 9390 0088 50       		.byte	0x50
 9391 0089 04       		.byte	0x4
 9392 008a 60       		.uleb128 .LVL122-.LVL113
 9393 008b A201     		.uleb128 .LVL125-.LVL113
 9394 008d 04       		.uleb128 0x4
 9395 008e A3       		.byte	0xa3
ARM GAS  C:\Users\DEVELO~1\AppData\Local\Temp\cc0byXRH.s 			page 166


 9396 008f 01       		.uleb128 0x1
 9397 0090 50       		.byte	0x50
 9398 0091 9F       		.byte	0x9f
 9399 0092 04       		.byte	0x4
 9400 0093 A201     		.uleb128 .LVL125-.LVL113
 9401 0095 A801     		.uleb128 .LFE458-.LVL113
 9402 0097 01       		.uleb128 0x1
 9403 0098 50       		.byte	0x50
 9404 0099 00       		.byte	0
 9405              	.LVUS80:
 9406 009a 00       		.uleb128 0
 9407 009b 00       		.uleb128 .LVU593
 9408 009c 00       		.uleb128 .LVU593
 9409 009d 00       		.uleb128 .LVU596
 9410 009e 00       		.uleb128 .LVU596
 9411 009f 00       		.uleb128 0
 9412              	.LLST80:
 9413 00a0 06       		.byte	0x6
 9414 00a1 00000000 		.4byte	.LVL113
 9415 00a5 04       		.byte	0x4
 9416 00a6 00       		.uleb128 .LVL113-.LVL113
 9417 00a7 44       		.uleb128 .LVL118-.LVL113
 9418 00a8 01       		.uleb128 0x1
 9419 00a9 51       		.byte	0x51
 9420 00aa 04       		.byte	0x4
 9421 00ab 44       		.uleb128 .LVL118-.LVL113
 9422 00ac 4E       		.uleb128 .LVL119-.LVL113
 9423 00ad 04       		.uleb128 0x4
 9424 00ae A3       		.byte	0xa3
 9425 00af 01       		.uleb128 0x1
 9426 00b0 51       		.byte	0x51
 9427 00b1 9F       		.byte	0x9f
 9428 00b2 04       		.byte	0x4
 9429 00b3 4E       		.uleb128 .LVL119-.LVL113
 9430 00b4 A801     		.uleb128 .LFE458-.LVL113
 9431 00b6 01       		.uleb128 0x1
 9432 00b7 51       		.byte	0x51
 9433 00b8 00       		.byte	0
 9434              	.LVUS81:
 9435 00b9 00       		.uleb128 .LVU574
 9436 00ba 00       		.uleb128 .LVU581
 9437 00bb 00       		.uleb128 .LVU581
 9438 00bc 00       		.uleb128 .LVU586
 9439 00bd 00       		.uleb128 .LVU586
 9440 00be 00       		.uleb128 .LVU593
 9441 00bf 00       		.uleb128 .LVU596
 9442 00c0 00       		.uleb128 .LVU602
 9443 00c1 00       		.uleb128 .LVU602
 9444 00c2 00       		.uleb128 .LVU618
 9445 00c3 00       		.uleb128 .LVU618
 9446 00c4 00       		.uleb128 .LVU620
 9447 00c5 00       		.uleb128 .LVU620
 9448 00c6 00       		.uleb128 0
 9449              	.LLST81:
 9450 00c7 06       		.byte	0x6
 9451 00c8 0A000000 		.4byte	.LVL114
 9452 00cc 04       		.byte	0x4
ARM GAS  C:\Users\DEVELO~1\AppData\Local\Temp\cc0byXRH.s 			page 167


 9453 00cd 00       		.uleb128 .LVL114-.LVL114
 9454 00ce 0A       		.uleb128 .LVL115-.LVL114
 9455 00cf 01       		.uleb128 0x1
 9456 00d0 52       		.byte	0x52
 9457 00d1 04       		.byte	0x4
 9458 00d2 0A       		.uleb128 .LVL115-.LVL114
 9459 00d3 22       		.uleb128 .LVL117-.LVL114
 9460 00d4 02       		.uleb128 0x2
 9461 00d5 74       		.byte	0x74
 9462 00d6 14       		.sleb128 20
 9463 00d7 04       		.byte	0x4
 9464 00d8 22       		.uleb128 .LVL117-.LVL114
 9465 00d9 3A       		.uleb128 .LVL118-.LVL114
 9466 00da 0D       		.uleb128 0xd
 9467 00db 71       		.byte	0x71
 9468 00dc 00       		.sleb128 0
 9469 00dd 32       		.byte	0x32
 9470 00de 24       		.byte	0x24
 9471 00df A3       		.byte	0xa3
 9472 00e0 01       		.uleb128 0x1
 9473 00e1 50       		.byte	0x50
 9474 00e2 22       		.byte	0x22
 9475 00e3 23       		.byte	0x23
 9476 00e4 0C       		.uleb128 0xc
 9477 00e5 06       		.byte	0x6
 9478 00e6 23       		.byte	0x23
 9479 00e7 14       		.uleb128 0x14
 9480 00e8 04       		.byte	0x4
 9481 00e9 44       		.uleb128 .LVL119-.LVL114
 9482 00ea 52       		.uleb128 .LVL121-.LVL114
 9483 00eb 01       		.uleb128 0x1
 9484 00ec 52       		.byte	0x52
 9485 00ed 04       		.byte	0x4
 9486 00ee 52       		.uleb128 .LVL121-.LVL114
 9487 00ef 8801     		.uleb128 .LVL124-.LVL114
 9488 00f1 02       		.uleb128 0x2
 9489 00f2 74       		.byte	0x74
 9490 00f3 14       		.sleb128 20
 9491 00f4 04       		.byte	0x4
 9492 00f5 8801     		.uleb128 .LVL124-.LVL114
 9493 00f7 9801     		.uleb128 .LVL125-.LVL114
 9494 00f9 0D       		.uleb128 0xd
 9495 00fa 71       		.byte	0x71
 9496 00fb 00       		.sleb128 0
 9497 00fc 32       		.byte	0x32
 9498 00fd 24       		.byte	0x24
 9499 00fe A3       		.byte	0xa3
 9500 00ff 01       		.uleb128 0x1
 9501 0100 50       		.byte	0x50
 9502 0101 22       		.byte	0x22
 9503 0102 23       		.byte	0x23
 9504 0103 0C       		.uleb128 0xc
 9505 0104 06       		.byte	0x6
 9506 0105 23       		.byte	0x23
 9507 0106 14       		.uleb128 0x14
 9508 0107 04       		.byte	0x4
 9509 0108 9801     		.uleb128 .LVL125-.LVL114
ARM GAS  C:\Users\DEVELO~1\AppData\Local\Temp\cc0byXRH.s 			page 168


 9510 010a 9E01     		.uleb128 .LFE458-.LVL114
 9511 010c 01       		.uleb128 0x1
 9512 010d 52       		.byte	0x52
 9513 010e 00       		.byte	0
 9514              	.LVUS83:
 9515 010f 00       		.uleb128 .LVU600
 9516 0110 00       		.uleb128 .LVU606
 9517              	.LLST83:
 9518 0111 08       		.byte	0x8
 9519 0112 58000000 		.4byte	.LVL120
 9520 0116 12       		.uleb128 .LVL123-.LVL120
 9521 0117 11       		.uleb128 0x11
 9522 0118 73       		.byte	0x73
 9523 0119 00       		.sleb128 0
 9524 011a 7C       		.byte	0x7c
 9525 011b 00       		.sleb128 0
 9526 011c 22       		.byte	0x22
 9527 011d 31       		.byte	0x31
 9528 011e 1C       		.byte	0x1c
 9529 011f A8       		.byte	0xa8
 9530 0120 26       		.uleb128 0x26
 9531 0121 7C       		.byte	0x7c
 9532 0122 00       		.sleb128 0
 9533 0123 A8       		.byte	0xa8
 9534 0124 26       		.uleb128 0x26
 9535 0125 1B       		.byte	0x1b
 9536 0126 A8       		.byte	0xa8
 9537 0127 00       		.uleb128 0
 9538 0128 9F       		.byte	0x9f
 9539 0129 00       		.byte	0
 9540              	.LVUS66:
 9541 012a 00       		.uleb128 0
 9542 012b 00       		.uleb128 .LVU460
 9543 012c 00       		.uleb128 .LVU460
 9544 012d 00       		.uleb128 .LVU479
 9545 012e 00       		.uleb128 .LVU479
 9546 012f 00       		.uleb128 .LVU481
 9547 0130 00       		.uleb128 .LVU481
 9548 0131 00       		.uleb128 0
 9549              	.LLST66:
 9550 0132 06       		.byte	0x6
 9551 0133 00000000 		.4byte	.LVL83
 9552 0137 04       		.byte	0x4
 9553 0138 00       		.uleb128 .LVL83-.LVL83
 9554 0139 1C       		.uleb128 .LVL87-.LVL83
 9555 013a 01       		.uleb128 0x1
 9556 013b 50       		.byte	0x50
 9557 013c 04       		.byte	0x4
 9558 013d 1C       		.uleb128 .LVL87-.LVL83
 9559 013e 60       		.uleb128 .LVL94-.LVL83
 9560 013f 04       		.uleb128 0x4
 9561 0140 A3       		.byte	0xa3
 9562 0141 01       		.uleb128 0x1
 9563 0142 50       		.byte	0x50
 9564 0143 9F       		.byte	0x9f
 9565 0144 04       		.byte	0x4
 9566 0145 60       		.uleb128 .LVL94-.LVL83
ARM GAS  C:\Users\DEVELO~1\AppData\Local\Temp\cc0byXRH.s 			page 169


 9567 0146 66       		.uleb128 .LVL95-.LVL83
 9568 0147 01       		.uleb128 0x1
 9569 0148 50       		.byte	0x50
 9570 0149 04       		.byte	0x4
 9571 014a 66       		.uleb128 .LVL95-.LVL83
 9572 014b 8801     		.uleb128 .LFE457-.LVL83
 9573 014d 04       		.uleb128 0x4
 9574 014e A3       		.byte	0xa3
 9575 014f 01       		.uleb128 0x1
 9576 0150 50       		.byte	0x50
 9577 0151 9F       		.byte	0x9f
 9578 0152 00       		.byte	0
 9579              	.LVUS67:
 9580 0153 00       		.uleb128 0
 9581 0154 00       		.uleb128 .LVU475
 9582 0155 00       		.uleb128 .LVU475
 9583 0156 00       		.uleb128 .LVU479
 9584 0157 00       		.uleb128 .LVU479
 9585 0158 00       		.uleb128 .LVU485
 9586 0159 00       		.uleb128 .LVU485
 9587 015a 00       		.uleb128 0
 9588              	.LLST67:
 9589 015b 06       		.byte	0x6
 9590 015c 00000000 		.4byte	.LVL83
 9591 0160 04       		.byte	0x4
 9592 0161 00       		.uleb128 .LVL83-.LVL83
 9593 0162 4C       		.uleb128 .LVL93-.LVL83
 9594 0163 01       		.uleb128 0x1
 9595 0164 51       		.byte	0x51
 9596 0165 04       		.byte	0x4
 9597 0166 4C       		.uleb128 .LVL93-.LVL83
 9598 0167 60       		.uleb128 .LVL94-.LVL83
 9599 0168 04       		.uleb128 0x4
 9600 0169 A3       		.byte	0xa3
 9601 016a 01       		.uleb128 0x1
 9602 016b 51       		.byte	0x51
 9603 016c 9F       		.byte	0x9f
 9604 016d 04       		.byte	0x4
 9605 016e 60       		.uleb128 .LVL94-.LVL83
 9606 016f 70       		.uleb128 .LVL96-.LVL83
 9607 0170 01       		.uleb128 0x1
 9608 0171 51       		.byte	0x51
 9609 0172 04       		.byte	0x4
 9610 0173 70       		.uleb128 .LVL96-.LVL83
 9611 0174 8801     		.uleb128 .LFE457-.LVL83
 9612 0176 04       		.uleb128 0x4
 9613 0177 A3       		.byte	0xa3
 9614 0178 01       		.uleb128 0x1
 9615 0179 51       		.byte	0x51
 9616 017a 9F       		.byte	0x9f
 9617 017b 00       		.byte	0
 9618              	.LVUS68:
 9619 017c 00       		.uleb128 .LVU464
 9620 017d 00       		.uleb128 .LVU471
 9621 017e 00       		.uleb128 .LVU471
 9622 017f 00       		.uleb128 .LVU475
 9623 0180 00       		.uleb128 .LVU481
ARM GAS  C:\Users\DEVELO~1\AppData\Local\Temp\cc0byXRH.s 			page 170


 9624 0181 00       		.uleb128 .LVU485
 9625              	.LLST68:
 9626 0182 06       		.byte	0x6
 9627 0183 2C000000 		.4byte	.LVL88
 9628 0187 04       		.byte	0x4
 9629 0188 00       		.uleb128 .LVL88-.LVL88
 9630 0189 14       		.uleb128 .LVL92-.LVL88
 9631 018a 01       		.uleb128 0x1
 9632 018b 52       		.byte	0x52
 9633 018c 04       		.byte	0x4
 9634 018d 14       		.uleb128 .LVL92-.LVL88
 9635 018e 20       		.uleb128 .LVL93-.LVL88
 9636 018f 33       		.uleb128 0x33
 9637 0190 71       		.byte	0x71
 9638 0191 00       		.sleb128 0
 9639 0192 32       		.byte	0x32
 9640 0193 24       		.byte	0x24
 9641 0194 A3       		.byte	0xa3
 9642 0195 01       		.uleb128 0x1
 9643 0196 50       		.byte	0x50
 9644 0197 22       		.byte	0x22
 9645 0198 23       		.byte	0x23
 9646 0199 0C       		.uleb128 0xc
 9647 019a 06       		.byte	0x6
 9648 019b 23       		.byte	0x23
 9649 019c 12       		.uleb128 0x12
 9650 019d 94       		.byte	0x94
 9651 019e 02       		.byte	0x2
 9652 019f 0A       		.byte	0xa
 9653 01a0 FFFF     		.2byte	0xffff
 9654 01a2 1A       		.byte	0x1a
 9655 01a3 74       		.byte	0x74
 9656 01a4 00       		.sleb128 0
 9657 01a5 22       		.byte	0x22
 9658 01a6 31       		.byte	0x31
 9659 01a7 1C       		.byte	0x1c
 9660 01a8 A8       		.byte	0xa8
 9661 01a9 26       		.uleb128 0x26
 9662 01aa 71       		.byte	0x71
 9663 01ab 00       		.sleb128 0
 9664 01ac 32       		.byte	0x32
 9665 01ad 24       		.byte	0x24
 9666 01ae A3       		.byte	0xa3
 9667 01af 01       		.uleb128 0x1
 9668 01b0 50       		.byte	0x50
 9669 01b1 22       		.byte	0x22
 9670 01b2 23       		.byte	0x23
 9671 01b3 0C       		.uleb128 0xc
 9672 01b4 06       		.byte	0x6
 9673 01b5 23       		.byte	0x23
 9674 01b6 12       		.uleb128 0x12
 9675 01b7 94       		.byte	0x94
 9676 01b8 02       		.byte	0x2
 9677 01b9 0A       		.byte	0xa
 9678 01ba FFFF     		.2byte	0xffff
 9679 01bc 1A       		.byte	0x1a
 9680 01bd A8       		.byte	0xa8
ARM GAS  C:\Users\DEVELO~1\AppData\Local\Temp\cc0byXRH.s 			page 171


 9681 01be 26       		.uleb128 0x26
 9682 01bf 1B       		.byte	0x1b
 9683 01c0 A8       		.byte	0xa8
 9684 01c1 00       		.uleb128 0
 9685 01c2 9F       		.byte	0x9f
 9686 01c3 04       		.byte	0x4
 9687 01c4 3A       		.uleb128 .LVL95-.LVL88
 9688 01c5 44       		.uleb128 .LVL96-.LVL88
 9689 01c6 33       		.uleb128 0x33
 9690 01c7 71       		.byte	0x71
 9691 01c8 00       		.sleb128 0
 9692 01c9 32       		.byte	0x32
 9693 01ca 24       		.byte	0x24
 9694 01cb A3       		.byte	0xa3
 9695 01cc 01       		.uleb128 0x1
 9696 01cd 50       		.byte	0x50
 9697 01ce 22       		.byte	0x22
 9698 01cf 23       		.byte	0x23
 9699 01d0 0C       		.uleb128 0xc
 9700 01d1 06       		.byte	0x6
 9701 01d2 23       		.byte	0x23
 9702 01d3 12       		.uleb128 0x12
 9703 01d4 94       		.byte	0x94
 9704 01d5 02       		.byte	0x2
 9705 01d6 0A       		.byte	0xa
 9706 01d7 FFFF     		.2byte	0xffff
 9707 01d9 1A       		.byte	0x1a
 9708 01da 74       		.byte	0x74
 9709 01db 00       		.sleb128 0
 9710 01dc 22       		.byte	0x22
 9711 01dd 31       		.byte	0x31
 9712 01de 1C       		.byte	0x1c
 9713 01df A8       		.byte	0xa8
 9714 01e0 26       		.uleb128 0x26
 9715 01e1 71       		.byte	0x71
 9716 01e2 00       		.sleb128 0
 9717 01e3 32       		.byte	0x32
 9718 01e4 24       		.byte	0x24
 9719 01e5 A3       		.byte	0xa3
 9720 01e6 01       		.uleb128 0x1
 9721 01e7 50       		.byte	0x50
 9722 01e8 22       		.byte	0x22
 9723 01e9 23       		.byte	0x23
 9724 01ea 0C       		.uleb128 0xc
 9725 01eb 06       		.byte	0x6
 9726 01ec 23       		.byte	0x23
 9727 01ed 12       		.uleb128 0x12
 9728 01ee 94       		.byte	0x94
 9729 01ef 02       		.byte	0x2
 9730 01f0 0A       		.byte	0xa
 9731 01f1 FFFF     		.2byte	0xffff
 9732 01f3 1A       		.byte	0x1a
 9733 01f4 A8       		.byte	0xa8
 9734 01f5 26       		.uleb128 0x26
 9735 01f6 1B       		.byte	0x1b
 9736 01f7 A8       		.byte	0xa8
 9737 01f8 00       		.uleb128 0
ARM GAS  C:\Users\DEVELO~1\AppData\Local\Temp\cc0byXRH.s 			page 172


 9738 01f9 9F       		.byte	0x9f
 9739 01fa 00       		.byte	0
 9740              	.LVUS69:
 9741 01fb 01       		.uleb128 .LVU465
 9742 01fc 00       		.uleb128 .LVU467
 9743 01fd 00       		.uleb128 .LVU467
 9744 01fe 00       		.uleb128 .LVU469
 9745 01ff 00       		.uleb128 .LVU469
 9746 0200 00       		.uleb128 .LVU470
 9747 0201 00       		.uleb128 .LVU470
 9748 0202 00       		.uleb128 .LVU471
 9749 0203 00       		.uleb128 .LVU471
 9750 0204 00       		.uleb128 .LVU475
 9751 0205 00       		.uleb128 .LVU481
 9752 0206 00       		.uleb128 .LVU485
 9753              	.LLST69:
 9754 0207 06       		.byte	0x6
 9755 0208 2C000000 		.4byte	.LVL88
 9756 020c 04       		.byte	0x4
 9757 020d 00       		.uleb128 .LVL88-.LVL88
 9758 020e 04       		.uleb128 .LVL89-.LVL88
 9759 020f 0B       		.uleb128 0xb
 9760 0210 73       		.byte	0x73
 9761 0211 00       		.sleb128 0
 9762 0212 72       		.byte	0x72
 9763 0213 00       		.sleb128 0
 9764 0214 1E       		.byte	0x1e
 9765 0215 23       		.byte	0x23
 9766 0216 03       		.uleb128 0x3
 9767 0217 09       		.byte	0x9
 9768 0218 FC       		.byte	0xfc
 9769 0219 1A       		.byte	0x1a
 9770 021a 9F       		.byte	0x9f
 9771 021b 04       		.byte	0x4
 9772 021c 04       		.uleb128 .LVL89-.LVL88
 9773 021d 0C       		.uleb128 .LVL90-.LVL88
 9774 021e 1C       		.uleb128 0x1c
 9775 021f 71       		.byte	0x71
 9776 0220 00       		.sleb128 0
 9777 0221 32       		.byte	0x32
 9778 0222 24       		.byte	0x24
 9779 0223 A3       		.byte	0xa3
 9780 0224 01       		.uleb128 0x1
 9781 0225 50       		.byte	0x50
 9782 0226 22       		.byte	0x22
 9783 0227 23       		.byte	0x23
 9784 0228 0C       		.uleb128 0xc
 9785 0229 06       		.byte	0x6
 9786 022a 23       		.byte	0x23
 9787 022b 12       		.uleb128 0x12
 9788 022c 94       		.byte	0x94
 9789 022d 02       		.byte	0x2
 9790 022e 0A       		.byte	0xa
 9791 022f FFFF     		.2byte	0xffff
 9792 0231 1A       		.byte	0x1a
 9793 0232 72       		.byte	0x72
 9794 0233 00       		.sleb128 0
ARM GAS  C:\Users\DEVELO~1\AppData\Local\Temp\cc0byXRH.s 			page 173


 9795 0234 1E       		.byte	0x1e
 9796 0235 23       		.byte	0x23
 9797 0236 03       		.uleb128 0x3
 9798 0237 09       		.byte	0x9
 9799 0238 FC       		.byte	0xfc
 9800 0239 1A       		.byte	0x1a
 9801 023a 9F       		.byte	0x9f
 9802 023b 04       		.byte	0x4
 9803 023c 0C       		.uleb128 .LVL90-.LVL88
 9804 023d 10       		.uleb128 .LVL91-.LVL88
 9805 023e 01       		.uleb128 0x1
 9806 023f 53       		.byte	0x53
 9807 0240 04       		.byte	0x4
 9808 0241 10       		.uleb128 .LVL91-.LVL88
 9809 0242 14       		.uleb128 .LVL92-.LVL88
 9810 0243 1C       		.uleb128 0x1c
 9811 0244 71       		.byte	0x71
 9812 0245 00       		.sleb128 0
 9813 0246 32       		.byte	0x32
 9814 0247 24       		.byte	0x24
 9815 0248 A3       		.byte	0xa3
 9816 0249 01       		.uleb128 0x1
 9817 024a 50       		.byte	0x50
 9818 024b 22       		.byte	0x22
 9819 024c 23       		.byte	0x23
 9820 024d 0C       		.uleb128 0xc
 9821 024e 06       		.byte	0x6
 9822 024f 23       		.byte	0x23
 9823 0250 12       		.uleb128 0x12
 9824 0251 94       		.byte	0x94
 9825 0252 02       		.byte	0x2
 9826 0253 0A       		.byte	0xa
 9827 0254 FFFF     		.2byte	0xffff
 9828 0256 1A       		.byte	0x1a
 9829 0257 72       		.byte	0x72
 9830 0258 00       		.sleb128 0
 9831 0259 1E       		.byte	0x1e
 9832 025a 23       		.byte	0x23
 9833 025b 03       		.uleb128 0x3
 9834 025c 09       		.byte	0x9
 9835 025d FC       		.byte	0xfc
 9836 025e 1A       		.byte	0x1a
 9837 025f 9F       		.byte	0x9f
 9838 0260 04       		.byte	0x4
 9839 0261 14       		.uleb128 .LVL92-.LVL88
 9840 0262 20       		.uleb128 .LVL93-.LVL88
 9841 0263 4C       		.uleb128 0x4c
 9842 0264 71       		.byte	0x71
 9843 0265 00       		.sleb128 0
 9844 0266 32       		.byte	0x32
 9845 0267 24       		.byte	0x24
 9846 0268 A3       		.byte	0xa3
 9847 0269 01       		.uleb128 0x1
 9848 026a 50       		.byte	0x50
 9849 026b 22       		.byte	0x22
 9850 026c 23       		.byte	0x23
 9851 026d 0C       		.uleb128 0xc
ARM GAS  C:\Users\DEVELO~1\AppData\Local\Temp\cc0byXRH.s 			page 174


 9852 026e 06       		.byte	0x6
 9853 026f 23       		.byte	0x23
 9854 0270 12       		.uleb128 0x12
 9855 0271 94       		.byte	0x94
 9856 0272 02       		.byte	0x2
 9857 0273 0A       		.byte	0xa
 9858 0274 FFFF     		.2byte	0xffff
 9859 0276 1A       		.byte	0x1a
 9860 0277 74       		.byte	0x74
 9861 0278 00       		.sleb128 0
 9862 0279 22       		.byte	0x22
 9863 027a 31       		.byte	0x31
 9864 027b 1C       		.byte	0x1c
 9865 027c A8       		.byte	0xa8
 9866 027d 26       		.uleb128 0x26
 9867 027e 71       		.byte	0x71
 9868 027f 00       		.sleb128 0
 9869 0280 32       		.byte	0x32
 9870 0281 24       		.byte	0x24
 9871 0282 A3       		.byte	0xa3
 9872 0283 01       		.uleb128 0x1
 9873 0284 50       		.byte	0x50
 9874 0285 22       		.byte	0x22
 9875 0286 23       		.byte	0x23
 9876 0287 0C       		.uleb128 0xc
 9877 0288 06       		.byte	0x6
 9878 0289 23       		.byte	0x23
 9879 028a 12       		.uleb128 0x12
 9880 028b 94       		.byte	0x94
 9881 028c 02       		.byte	0x2
 9882 028d 0A       		.byte	0xa
 9883 028e FFFF     		.2byte	0xffff
 9884 0290 1A       		.byte	0x1a
 9885 0291 A8       		.byte	0xa8
 9886 0292 26       		.uleb128 0x26
 9887 0293 1B       		.byte	0x1b
 9888 0294 A8       		.byte	0xa8
 9889 0295 00       		.uleb128 0
 9890 0296 71       		.byte	0x71
 9891 0297 00       		.sleb128 0
 9892 0298 32       		.byte	0x32
 9893 0299 24       		.byte	0x24
 9894 029a A3       		.byte	0xa3
 9895 029b 01       		.uleb128 0x1
 9896 029c 50       		.byte	0x50
 9897 029d 22       		.byte	0x22
 9898 029e 23       		.byte	0x23
 9899 029f 0C       		.uleb128 0xc
 9900 02a0 06       		.byte	0x6
 9901 02a1 23       		.byte	0x23
 9902 02a2 12       		.uleb128 0x12
 9903 02a3 94       		.byte	0x94
 9904 02a4 02       		.byte	0x2
 9905 02a5 0A       		.byte	0xa
 9906 02a6 FFFF     		.2byte	0xffff
 9907 02a8 1A       		.byte	0x1a
 9908 02a9 1E       		.byte	0x1e
ARM GAS  C:\Users\DEVELO~1\AppData\Local\Temp\cc0byXRH.s 			page 175


 9909 02aa 23       		.byte	0x23
 9910 02ab 03       		.uleb128 0x3
 9911 02ac 09       		.byte	0x9
 9912 02ad FC       		.byte	0xfc
 9913 02ae 1A       		.byte	0x1a
 9914 02af 9F       		.byte	0x9f
 9915 02b0 04       		.byte	0x4
 9916 02b1 3A       		.uleb128 .LVL95-.LVL88
 9917 02b2 44       		.uleb128 .LVL96-.LVL88
 9918 02b3 4C       		.uleb128 0x4c
 9919 02b4 71       		.byte	0x71
 9920 02b5 00       		.sleb128 0
 9921 02b6 32       		.byte	0x32
 9922 02b7 24       		.byte	0x24
 9923 02b8 A3       		.byte	0xa3
 9924 02b9 01       		.uleb128 0x1
 9925 02ba 50       		.byte	0x50
 9926 02bb 22       		.byte	0x22
 9927 02bc 23       		.byte	0x23
 9928 02bd 0C       		.uleb128 0xc
 9929 02be 06       		.byte	0x6
 9930 02bf 23       		.byte	0x23
 9931 02c0 12       		.uleb128 0x12
 9932 02c1 94       		.byte	0x94
 9933 02c2 02       		.byte	0x2
 9934 02c3 0A       		.byte	0xa
 9935 02c4 FFFF     		.2byte	0xffff
 9936 02c6 1A       		.byte	0x1a
 9937 02c7 74       		.byte	0x74
 9938 02c8 00       		.sleb128 0
 9939 02c9 22       		.byte	0x22
 9940 02ca 31       		.byte	0x31
 9941 02cb 1C       		.byte	0x1c
 9942 02cc A8       		.byte	0xa8
 9943 02cd 26       		.uleb128 0x26
 9944 02ce 71       		.byte	0x71
 9945 02cf 00       		.sleb128 0
 9946 02d0 32       		.byte	0x32
 9947 02d1 24       		.byte	0x24
 9948 02d2 A3       		.byte	0xa3
 9949 02d3 01       		.uleb128 0x1
 9950 02d4 50       		.byte	0x50
 9951 02d5 22       		.byte	0x22
 9952 02d6 23       		.byte	0x23
 9953 02d7 0C       		.uleb128 0xc
 9954 02d8 06       		.byte	0x6
 9955 02d9 23       		.byte	0x23
 9956 02da 12       		.uleb128 0x12
 9957 02db 94       		.byte	0x94
 9958 02dc 02       		.byte	0x2
 9959 02dd 0A       		.byte	0xa
 9960 02de FFFF     		.2byte	0xffff
 9961 02e0 1A       		.byte	0x1a
 9962 02e1 A8       		.byte	0xa8
 9963 02e2 26       		.uleb128 0x26
 9964 02e3 1B       		.byte	0x1b
 9965 02e4 A8       		.byte	0xa8
ARM GAS  C:\Users\DEVELO~1\AppData\Local\Temp\cc0byXRH.s 			page 176


 9966 02e5 00       		.uleb128 0
 9967 02e6 71       		.byte	0x71
 9968 02e7 00       		.sleb128 0
 9969 02e8 32       		.byte	0x32
 9970 02e9 24       		.byte	0x24
 9971 02ea A3       		.byte	0xa3
 9972 02eb 01       		.uleb128 0x1
 9973 02ec 50       		.byte	0x50
 9974 02ed 22       		.byte	0x22
 9975 02ee 23       		.byte	0x23
 9976 02ef 0C       		.uleb128 0xc
 9977 02f0 06       		.byte	0x6
 9978 02f1 23       		.byte	0x23
 9979 02f2 12       		.uleb128 0x12
 9980 02f3 94       		.byte	0x94
 9981 02f4 02       		.byte	0x2
 9982 02f5 0A       		.byte	0xa
 9983 02f6 FFFF     		.2byte	0xffff
 9984 02f8 1A       		.byte	0x1a
 9985 02f9 1E       		.byte	0x1e
 9986 02fa 23       		.byte	0x23
 9987 02fb 03       		.uleb128 0x3
 9988 02fc 09       		.byte	0x9
 9989 02fd FC       		.byte	0xfc
 9990 02fe 1A       		.byte	0x1a
 9991 02ff 9F       		.byte	0x9f
 9992 0300 00       		.byte	0
 9993              	.LVUS70:
 9994 0301 00       		.uleb128 .LVU450
 9995 0302 00       		.uleb128 .LVU458
 9996 0303 00       		.uleb128 .LVU458
 9997 0304 00       		.uleb128 .LVU459
 9998 0305 00       		.uleb128 .LVU459
 9999 0306 00       		.uleb128 .LVU460
 10000 0307 00       		.uleb128 .LVU460
 10001 0308 00       		.uleb128 .LVU475
 10002 0309 00       		.uleb128 .LVU479
 10003 030a 00       		.uleb128 .LVU481
 10004 030b 00       		.uleb128 .LVU481
 10005 030c 00       		.uleb128 .LVU485
 10006              	.LLST70:
 10007 030d 06       		.byte	0x6
 10008 030e 08000000 		.4byte	.LVL84
 10009 0312 04       		.byte	0x4
 10010 0313 00       		.uleb128 .LVL84-.LVL84
 10011 0314 0E       		.uleb128 .LVL85-.LVL84
 10012 0315 01       		.uleb128 0x1
 10013 0316 53       		.byte	0x53
 10014 0317 04       		.byte	0x4
 10015 0318 0E       		.uleb128 .LVL85-.LVL84
 10016 0319 10       		.uleb128 .LVL86-.LVL84
 10017 031a 02       		.uleb128 0x2
 10018 031b 72       		.byte	0x72
 10019 031c 18       		.sleb128 24
 10020 031d 04       		.byte	0x4
 10021 031e 10       		.uleb128 .LVL86-.LVL84
 10022 031f 14       		.uleb128 .LVL87-.LVL84
ARM GAS  C:\Users\DEVELO~1\AppData\Local\Temp\cc0byXRH.s 			page 177


 10023 0320 0C       		.uleb128 0xc
 10024 0321 71       		.byte	0x71
 10025 0322 00       		.sleb128 0
 10026 0323 32       		.byte	0x32
 10027 0324 24       		.byte	0x24
 10028 0325 70       		.byte	0x70
 10029 0326 00       		.sleb128 0
 10030 0327 22       		.byte	0x22
 10031 0328 23       		.byte	0x23
 10032 0329 0C       		.uleb128 0xc
 10033 032a 06       		.byte	0x6
 10034 032b 23       		.byte	0x23
 10035 032c 18       		.uleb128 0x18
 10036 032d 04       		.byte	0x4
 10037 032e 14       		.uleb128 .LVL87-.LVL84
 10038 032f 44       		.uleb128 .LVL93-.LVL84
 10039 0330 0D       		.uleb128 0xd
 10040 0331 71       		.byte	0x71
 10041 0332 00       		.sleb128 0
 10042 0333 32       		.byte	0x32
 10043 0334 24       		.byte	0x24
 10044 0335 A3       		.byte	0xa3
 10045 0336 01       		.uleb128 0x1
 10046 0337 50       		.byte	0x50
 10047 0338 22       		.byte	0x22
 10048 0339 23       		.byte	0x23
 10049 033a 0C       		.uleb128 0xc
 10050 033b 06       		.byte	0x6
 10051 033c 23       		.byte	0x23
 10052 033d 18       		.uleb128 0x18
 10053 033e 04       		.byte	0x4
 10054 033f 58       		.uleb128 .LVL94-.LVL84
 10055 0340 5E       		.uleb128 .LVL95-.LVL84
 10056 0341 01       		.uleb128 0x1
 10057 0342 53       		.byte	0x53
 10058 0343 04       		.byte	0x4
 10059 0344 5E       		.uleb128 .LVL95-.LVL84
 10060 0345 68       		.uleb128 .LVL96-.LVL84
 10061 0346 0D       		.uleb128 0xd
 10062 0347 71       		.byte	0x71
 10063 0348 00       		.sleb128 0
 10064 0349 32       		.byte	0x32
 10065 034a 24       		.byte	0x24
 10066 034b A3       		.byte	0xa3
 10067 034c 01       		.uleb128 0x1
 10068 034d 50       		.byte	0x50
 10069 034e 22       		.byte	0x22
 10070 034f 23       		.byte	0x23
 10071 0350 0C       		.uleb128 0xc
 10072 0351 06       		.byte	0x6
 10073 0352 23       		.byte	0x23
 10074 0353 18       		.uleb128 0x18
 10075 0354 00       		.byte	0
 10076              	.LVUS64:
 10077 0355 00       		.uleb128 0
 10078 0356 00       		.uleb128 .LVU441
 10079 0357 00       		.uleb128 .LVU441
ARM GAS  C:\Users\DEVELO~1\AppData\Local\Temp\cc0byXRH.s 			page 178


 10080 0358 00       		.uleb128 0
 10081              	.LLST64:
 10082 0359 06       		.byte	0x6
 10083 035a 00000000 		.4byte	.LVL80
 10084 035e 04       		.byte	0x4
 10085 035f 00       		.uleb128 .LVL80-.LVL80
 10086 0360 04       		.uleb128 .LVL81-.LVL80
 10087 0361 01       		.uleb128 0x1
 10088 0362 50       		.byte	0x50
 10089 0363 04       		.byte	0x4
 10090 0364 04       		.uleb128 .LVL81-.LVL80
 10091 0365 12       		.uleb128 .LFE456-.LVL80
 10092 0366 04       		.uleb128 0x4
 10093 0367 A3       		.byte	0xa3
 10094 0368 01       		.uleb128 0x1
 10095 0369 50       		.byte	0x50
 10096 036a 9F       		.byte	0x9f
 10097 036b 00       		.byte	0
 10098              	.LVUS65:
 10099 036c 00       		.uleb128 0
 10100 036d 00       		.uleb128 .LVU443
 10101 036e 00       		.uleb128 .LVU443
 10102 036f 00       		.uleb128 0
 10103              	.LLST65:
 10104 0370 06       		.byte	0x6
 10105 0371 00000000 		.4byte	.LVL80
 10106 0375 04       		.byte	0x4
 10107 0376 00       		.uleb128 .LVL80-.LVL80
 10108 0377 0A       		.uleb128 .LVL82-.LVL80
 10109 0378 01       		.uleb128 0x1
 10110 0379 51       		.byte	0x51
 10111 037a 04       		.byte	0x4
 10112 037b 0A       		.uleb128 .LVL82-.LVL80
 10113 037c 12       		.uleb128 .LFE456-.LVL80
 10114 037d 04       		.uleb128 0x4
 10115 037e A3       		.byte	0xa3
 10116 037f 01       		.uleb128 0x1
 10117 0380 51       		.byte	0x51
 10118 0381 9F       		.byte	0x9f
 10119 0382 00       		.byte	0
 10120              	.LVUS61:
 10121 0383 00       		.uleb128 0
 10122 0384 00       		.uleb128 .LVU434
 10123 0385 00       		.uleb128 .LVU434
 10124 0386 00       		.uleb128 0
 10125              	.LLST61:
 10126 0387 06       		.byte	0x6
 10127 0388 00000000 		.4byte	.LVL76
 10128 038c 04       		.byte	0x4
 10129 038d 00       		.uleb128 .LVL76-.LVL76
 10130 038e 0E       		.uleb128 .LVL79-.LVL76
 10131 038f 01       		.uleb128 0x1
 10132 0390 50       		.byte	0x50
 10133 0391 04       		.byte	0x4
 10134 0392 0E       		.uleb128 .LVL79-.LVL76
 10135 0393 1C       		.uleb128 .LFE455-.LVL76
 10136 0394 04       		.uleb128 0x4
ARM GAS  C:\Users\DEVELO~1\AppData\Local\Temp\cc0byXRH.s 			page 179


 10137 0395 A3       		.byte	0xa3
 10138 0396 01       		.uleb128 0x1
 10139 0397 50       		.byte	0x50
 10140 0398 9F       		.byte	0x9f
 10141 0399 00       		.byte	0
 10142              	.LVUS62:
 10143 039a 00       		.uleb128 0
 10144 039b 00       		.uleb128 .LVU430
 10145 039c 00       		.uleb128 .LVU430
 10146 039d 00       		.uleb128 0
 10147              	.LLST62:
 10148 039e 06       		.byte	0x6
 10149 039f 00000000 		.4byte	.LVL76
 10150 03a3 04       		.byte	0x4
 10151 03a4 00       		.uleb128 .LVL76-.LVL76
 10152 03a5 02       		.uleb128 .LVL77-.LVL76
 10153 03a6 01       		.uleb128 0x1
 10154 03a7 51       		.byte	0x51
 10155 03a8 04       		.byte	0x4
 10156 03a9 02       		.uleb128 .LVL77-.LVL76
 10157 03aa 1C       		.uleb128 .LFE455-.LVL76
 10158 03ab 04       		.uleb128 0x4
 10159 03ac A3       		.byte	0xa3
 10160 03ad 01       		.uleb128 0x1
 10161 03ae 51       		.byte	0x51
 10162 03af 9F       		.byte	0x9f
 10163 03b0 00       		.byte	0
 10164              	.LVUS63:
 10165 03b1 00       		.uleb128 .LVU432
 10166 03b2 00       		.uleb128 0
 10167              	.LLST63:
 10168 03b3 08       		.byte	0x8
 10169 03b4 0A000000 		.4byte	.LVL78
 10170 03b8 12       		.uleb128 .LFE455-.LVL78
 10171 03b9 01       		.uleb128 0x1
 10172 03ba 53       		.byte	0x53
 10173 03bb 00       		.byte	0
 10174              	.LVUS58:
 10175 03bc 00       		.uleb128 0
 10176 03bd 00       		.uleb128 .LVU421
 10177 03be 00       		.uleb128 .LVU421
 10178 03bf 00       		.uleb128 0
 10179              	.LLST58:
 10180 03c0 06       		.byte	0x6
 10181 03c1 00000000 		.4byte	.LVL72
 10182 03c5 04       		.byte	0x4
 10183 03c6 00       		.uleb128 .LVL72-.LVL72
 10184 03c7 0E       		.uleb128 .LVL75-.LVL72
 10185 03c8 01       		.uleb128 0x1
 10186 03c9 50       		.byte	0x50
 10187 03ca 04       		.byte	0x4
 10188 03cb 0E       		.uleb128 .LVL75-.LVL72
 10189 03cc 1C       		.uleb128 .LFE454-.LVL72
 10190 03cd 04       		.uleb128 0x4
 10191 03ce A3       		.byte	0xa3
 10192 03cf 01       		.uleb128 0x1
 10193 03d0 50       		.byte	0x50
ARM GAS  C:\Users\DEVELO~1\AppData\Local\Temp\cc0byXRH.s 			page 180


 10194 03d1 9F       		.byte	0x9f
 10195 03d2 00       		.byte	0
 10196              	.LVUS59:
 10197 03d3 00       		.uleb128 0
 10198 03d4 00       		.uleb128 .LVU417
 10199 03d5 00       		.uleb128 .LVU417
 10200 03d6 00       		.uleb128 0
 10201              	.LLST59:
 10202 03d7 06       		.byte	0x6
 10203 03d8 00000000 		.4byte	.LVL72
 10204 03dc 04       		.byte	0x4
 10205 03dd 00       		.uleb128 .LVL72-.LVL72
 10206 03de 02       		.uleb128 .LVL73-.LVL72
 10207 03df 01       		.uleb128 0x1
 10208 03e0 51       		.byte	0x51
 10209 03e1 04       		.byte	0x4
 10210 03e2 02       		.uleb128 .LVL73-.LVL72
 10211 03e3 1C       		.uleb128 .LFE454-.LVL72
 10212 03e4 04       		.uleb128 0x4
 10213 03e5 A3       		.byte	0xa3
 10214 03e6 01       		.uleb128 0x1
 10215 03e7 51       		.byte	0x51
 10216 03e8 9F       		.byte	0x9f
 10217 03e9 00       		.byte	0
 10218              	.LVUS60:
 10219 03ea 00       		.uleb128 .LVU419
 10220 03eb 00       		.uleb128 0
 10221              	.LLST60:
 10222 03ec 08       		.byte	0x8
 10223 03ed 0A000000 		.4byte	.LVL74
 10224 03f1 12       		.uleb128 .LFE454-.LVL74
 10225 03f2 01       		.uleb128 0x1
 10226 03f3 53       		.byte	0x53
 10227 03f4 00       		.byte	0
 10228              	.LVUS55:
 10229 03f5 00       		.uleb128 0
 10230 03f6 00       		.uleb128 .LVU408
 10231 03f7 00       		.uleb128 .LVU408
 10232 03f8 00       		.uleb128 .LVU411
 10233 03f9 00       		.uleb128 .LVU411
 10234 03fa 00       		.uleb128 0
 10235              	.LLST55:
 10236 03fb 06       		.byte	0x6
 10237 03fc 00000000 		.4byte	.LVL67
 10238 0400 04       		.byte	0x4
 10239 0401 00       		.uleb128 .LVL67-.LVL67
 10240 0402 06       		.uleb128 .LVL69-.LVL67
 10241 0403 01       		.uleb128 0x1
 10242 0404 50       		.byte	0x50
 10243 0405 04       		.byte	0x4
 10244 0406 06       		.uleb128 .LVL69-.LVL67
 10245 0407 0F       		.uleb128 .LVL71-1-.LVL67
 10246 0408 01       		.uleb128 0x1
 10247 0409 53       		.byte	0x53
 10248 040a 04       		.byte	0x4
 10249 040b 0F       		.uleb128 .LVL71-1-.LVL67
 10250 040c 10       		.uleb128 .LFE453-.LVL67
ARM GAS  C:\Users\DEVELO~1\AppData\Local\Temp\cc0byXRH.s 			page 181


 10251 040d 04       		.uleb128 0x4
 10252 040e A3       		.byte	0xa3
 10253 040f 01       		.uleb128 0x1
 10254 0410 50       		.byte	0x50
 10255 0411 9F       		.byte	0x9f
 10256 0412 00       		.byte	0
 10257              	.LVUS57:
 10258 0413 00       		.uleb128 .LVU405
 10259 0414 00       		.uleb128 .LVU408
 10260 0415 00       		.uleb128 .LVU408
 10261 0416 00       		.uleb128 .LVU409
 10262              	.LLST57:
 10263 0417 06       		.byte	0x6
 10264 0418 02000000 		.4byte	.LVL68
 10265 041c 04       		.byte	0x4
 10266 041d 00       		.uleb128 .LVL68-.LVL68
 10267 041e 04       		.uleb128 .LVL69-.LVL68
 10268 041f 01       		.uleb128 0x1
 10269 0420 50       		.byte	0x50
 10270 0421 04       		.byte	0x4
 10271 0422 04       		.uleb128 .LVL69-.LVL68
 10272 0423 0A       		.uleb128 .LVL70-.LVL68
 10273 0424 01       		.uleb128 0x1
 10274 0425 53       		.byte	0x53
 10275 0426 00       		.byte	0
 10276              	.LVUS36:
 10277 0427 00       		.uleb128 0
 10278 0428 00       		.uleb128 .LVU305
 10279 0429 00       		.uleb128 .LVU305
 10280 042a 00       		.uleb128 .LVU355
 10281 042b 00       		.uleb128 .LVU355
 10282 042c 00       		.uleb128 .LVU370
 10283 042d 00       		.uleb128 .LVU370
 10284 042e 00       		.uleb128 .LVU372
 10285 042f 00       		.uleb128 .LVU372
 10286 0430 00       		.uleb128 .LVU401
 10287 0431 00       		.uleb128 .LVU401
 10288 0432 00       		.uleb128 0
 10289              	.LLST36:
 10290 0433 06       		.byte	0x6
 10291 0434 00000000 		.4byte	.LVL47
 10292 0438 04       		.byte	0x4
 10293 0439 00       		.uleb128 .LVL47-.LVL47
 10294 043a 3E       		.uleb128 .LVL51-.LVL47
 10295 043b 01       		.uleb128 0x1
 10296 043c 50       		.byte	0x50
 10297 043d 04       		.byte	0x4
 10298 043e 3E       		.uleb128 .LVL51-.LVL47
 10299 043f A201     		.uleb128 .LVL59-.LVL47
 10300 0441 01       		.uleb128 0x1
 10301 0442 56       		.byte	0x56
 10302 0443 04       		.byte	0x4
 10303 0444 A201     		.uleb128 .LVL59-.LVL47
 10304 0446 CC01     		.uleb128 .LVL61-.LVL47
 10305 0448 04       		.uleb128 0x4
 10306 0449 A3       		.byte	0xa3
 10307 044a 01       		.uleb128 0x1
ARM GAS  C:\Users\DEVELO~1\AppData\Local\Temp\cc0byXRH.s 			page 182


 10308 044b 50       		.byte	0x50
 10309 044c 9F       		.byte	0x9f
 10310 044d 04       		.byte	0x4
 10311 044e CC01     		.uleb128 .LVL61-.LVL47
 10312 0450 D601     		.uleb128 .LVL62-.LVL47
 10313 0452 01       		.uleb128 0x1
 10314 0453 50       		.byte	0x50
 10315 0454 04       		.byte	0x4
 10316 0455 D601     		.uleb128 .LVL62-.LVL47
 10317 0457 B802     		.uleb128 .LVL66-.LVL47
 10318 0459 01       		.uleb128 0x1
 10319 045a 56       		.byte	0x56
 10320 045b 04       		.byte	0x4
 10321 045c B802     		.uleb128 .LVL66-.LVL47
 10322 045e C002     		.uleb128 .LFE452-.LVL47
 10323 0460 04       		.uleb128 0x4
 10324 0461 A3       		.byte	0xa3
 10325 0462 01       		.uleb128 0x1
 10326 0463 50       		.byte	0x50
 10327 0464 9F       		.byte	0x9f
 10328 0465 00       		.byte	0
 10329              	.LVUS37:
 10330 0466 00       		.uleb128 0
 10331 0467 00       		.uleb128 .LVU293
 10332 0468 00       		.uleb128 .LVU293
 10333 0469 00       		.uleb128 0
 10334              	.LLST37:
 10335 046a 06       		.byte	0x6
 10336 046b 00000000 		.4byte	.LVL47
 10337 046f 04       		.byte	0x4
 10338 0470 00       		.uleb128 .LVL47-.LVL47
 10339 0471 18       		.uleb128 .LVL48-.LVL47
 10340 0472 01       		.uleb128 0x1
 10341 0473 51       		.byte	0x51
 10342 0474 04       		.byte	0x4
 10343 0475 18       		.uleb128 .LVL48-.LVL47
 10344 0476 C002     		.uleb128 .LFE452-.LVL47
 10345 0478 04       		.uleb128 0x4
 10346 0479 A3       		.byte	0xa3
 10347 047a 01       		.uleb128 0x1
 10348 047b 51       		.byte	0x51
 10349 047c 9F       		.byte	0x9f
 10350 047d 00       		.byte	0
 10351              	.LVUS38:
 10352 047e 00       		.uleb128 .LVU298
 10353 047f 00       		.uleb128 .LVU401
 10354              	.LLST38:
 10355 0480 08       		.byte	0x8
 10356 0481 2C000000 		.4byte	.LVL50
 10357 0485 8C02     		.uleb128 .LVL66-.LVL50
 10358 0487 01       		.uleb128 0x1
 10359 0488 57       		.byte	0x57
 10360 0489 00       		.byte	0
 10361              	.LVUS39:
 10362 048a 00       		.uleb128 .LVU322
 10363 048b 01       		.uleb128 .LVU348
 10364              	.LLST39:
ARM GAS  C:\Users\DEVELO~1\AppData\Local\Temp\cc0byXRH.s 			page 183


 10365 048c 08       		.byte	0x8
 10366 048d 7A000000 		.4byte	.LVL52
 10367 0491 1E       		.uleb128 .LVL57-.LVL52
 10368 0492 01       		.uleb128 0x1
 10369 0493 53       		.byte	0x53
 10370 0494 00       		.byte	0
 10371              	.LVUS40:
 10372 0495 00       		.uleb128 .LVU294
 10373 0496 00       		.uleb128 .LVU401
 10374              	.LLST40:
 10375 0497 08       		.byte	0x8
 10376 0498 1C000000 		.4byte	.LVL49
 10377 049c 9C02     		.uleb128 .LVL66-.LVL49
 10378 049e 01       		.uleb128 0x1
 10379 049f 54       		.byte	0x54
 10380 04a0 00       		.byte	0
 10381              	.LVUS42:
 10382 04a1 01       		.uleb128 .LVU327
 10383 04a2 04       		.uleb128 .LVU340
 10384              	.LLST42:
 10385 04a3 08       		.byte	0x8
 10386 04a4 82000000 		.4byte	.LVL53
 10387 04a8 12       		.uleb128 .LVL55-.LVL53
 10388 04a9 01       		.uleb128 0x1
 10389 04aa 53       		.byte	0x53
 10390 04ab 00       		.byte	0
 10391              	.LVUS43:
 10392 04ac 01       		.uleb128 .LVU327
 10393 04ad 04       		.uleb128 .LVU340
 10394              	.LLST43:
 10395 04ae 08       		.byte	0x8
 10396 04af 82000000 		.4byte	.LVL53
 10397 04b3 12       		.uleb128 .LVL55-.LVL53
 10398 04b4 01       		.uleb128 0x1
 10399 04b5 56       		.byte	0x56
 10400 04b6 00       		.byte	0
 10401              	.LVUS44:
 10402 04b7 04       		.uleb128 .LVU330
 10403 04b8 00       		.uleb128 .LVU335
 10404 04b9 00       		.uleb128 .LVU335
 10405 04ba 00       		.uleb128 .LVU336
 10406              	.LLST44:
 10407 04bb 06       		.byte	0x6
 10408 04bc 82000000 		.4byte	.LVL53
 10409 04c0 04       		.byte	0x4
 10410 04c1 00       		.uleb128 .LVL53-.LVL53
 10411 04c2 0E       		.uleb128 .LVL54-.LVL53
 10412 04c3 01       		.uleb128 0x1
 10413 04c4 52       		.byte	0x52
 10414 04c5 04       		.byte	0x4
 10415 04c6 0E       		.uleb128 .LVL54-.LVL53
 10416 04c7 12       		.uleb128 .LVL55-.LVL53
 10417 04c8 03       		.uleb128 0x3
 10418 04c9 76       		.byte	0x76
 10419 04ca 9801     		.sleb128 152
 10420 04cc 00       		.byte	0
 10421              	.LVUS46:
ARM GAS  C:\Users\DEVELO~1\AppData\Local\Temp\cc0byXRH.s 			page 184


 10422 04cd 02       		.uleb128 .LVU344
 10423 04ce 00       		.uleb128 .LVU355
 10424 04cf 00       		.uleb128 .LVU355
 10425 04d0 00       		.uleb128 .LVU356
 10426              	.LLST46:
 10427 04d1 06       		.byte	0x6
 10428 04d2 96000000 		.4byte	.LVL56
 10429 04d6 04       		.byte	0x4
 10430 04d7 00       		.uleb128 .LVL56-.LVL56
 10431 04d8 0C       		.uleb128 .LVL59-.LVL56
 10432 04d9 01       		.uleb128 0x1
 10433 04da 56       		.byte	0x56
 10434 04db 04       		.byte	0x4
 10435 04dc 0C       		.uleb128 .LVL59-.LVL56
 10436 04dd 12       		.uleb128 .LVL60-.LVL56
 10437 04de 04       		.uleb128 0x4
 10438 04df A3       		.byte	0xa3
 10439 04e0 01       		.uleb128 0x1
 10440 04e1 50       		.byte	0x50
 10441 04e2 9F       		.byte	0x9f
 10442 04e3 00       		.byte	0
 10443              	.LVUS47:
 10444 04e4 01       		.uleb128 .LVU343
 10445 04e5 00       		.uleb128 .LVU356
 10446              	.LLST47:
 10447 04e6 08       		.byte	0x8
 10448 04e7 96000000 		.4byte	.LVL56
 10449 04eb 12       		.uleb128 .LVL60-.LVL56
 10450 04ec 06       		.uleb128 0x6
 10451 04ed 75       		.byte	0x75
 10452 04ee 00       		.sleb128 0
 10453 04ef 08       		.byte	0x8
 10454 04f0 FF       		.byte	0xff
 10455 04f1 1A       		.byte	0x1a
 10456 04f2 9F       		.byte	0x9f
 10457 04f3 00       		.byte	0
 10458              	.LVUS48:
 10459 04f4 03       		.uleb128 .LVU345
 10460 04f5 00       		.uleb128 .LVU356
 10461              	.LLST48:
 10462 04f6 08       		.byte	0x8
 10463 04f7 96000000 		.4byte	.LVL56
 10464 04fb 12       		.uleb128 .LVL60-.LVL56
 10465 04fc 01       		.uleb128 0x1
 10466 04fd 54       		.byte	0x54
 10467 04fe 00       		.byte	0
 10468              	.LVUS50:
 10469 04ff 01       		.uleb128 .LVU352
 10470 0500 00       		.uleb128 .LVU356
 10471              	.LLST50:
 10472 0501 08       		.byte	0x8
 10473 0502 9E000000 		.4byte	.LVL58
 10474 0506 0A       		.uleb128 .LVL60-.LVL58
 10475 0507 02       		.uleb128 0x2
 10476 0508 42       		.byte	0x42
 10477 0509 9F       		.byte	0x9f
 10478 050a 00       		.byte	0
ARM GAS  C:\Users\DEVELO~1\AppData\Local\Temp\cc0byXRH.s 			page 185


 10479              	.LVUS51:
 10480 050b 02       		.uleb128 .LVU380
 10481 050c 00       		.uleb128 .LVU392
 10482              	.LLST51:
 10483 050d 08       		.byte	0x8
 10484 050e 00010000 		.4byte	.LVL63
 10485 0512 18       		.uleb128 .LVL65-.LVL63
 10486 0513 01       		.uleb128 0x1
 10487 0514 56       		.byte	0x56
 10488 0515 00       		.byte	0
 10489              	.LVUS52:
 10490 0516 01       		.uleb128 .LVU379
 10491 0517 00       		.uleb128 .LVU392
 10492              	.LLST52:
 10493 0518 08       		.byte	0x8
 10494 0519 00010000 		.4byte	.LVL63
 10495 051d 18       		.uleb128 .LVL65-.LVL63
 10496 051e 06       		.uleb128 0x6
 10497 051f 75       		.byte	0x75
 10498 0520 00       		.sleb128 0
 10499 0521 08       		.byte	0x8
 10500 0522 FF       		.byte	0xff
 10501 0523 1A       		.byte	0x1a
 10502 0524 9F       		.byte	0x9f
 10503 0525 00       		.byte	0
 10504              	.LVUS53:
 10505 0526 03       		.uleb128 .LVU381
 10506 0527 00       		.uleb128 .LVU392
 10507              	.LLST53:
 10508 0528 08       		.byte	0x8
 10509 0529 00010000 		.4byte	.LVL63
 10510 052d 18       		.uleb128 .LVL65-.LVL63
 10511 052e 01       		.uleb128 0x1
 10512 052f 54       		.byte	0x54
 10513 0530 00       		.byte	0
 10514              	.LVUS54:
 10515 0531 01       		.uleb128 .LVU390
 10516 0532 00       		.uleb128 .LVU392
 10517              	.LLST54:
 10518 0533 08       		.byte	0x8
 10519 0534 0E010000 		.4byte	.LVL64
 10520 0538 0A       		.uleb128 .LVL65-.LVL64
 10521 0539 02       		.uleb128 0x2
 10522 053a 42       		.byte	0x42
 10523 053b 9F       		.byte	0x9f
 10524 053c 00       		.byte	0
 10525              	.LVUS35:
 10526 053d 00       		.uleb128 .LVU278
 10527 053e 00       		.uleb128 0
 10528              	.LLST35:
 10529 053f 08       		.byte	0x8
 10530 0540 04000000 		.4byte	.LVL46
 10531 0544 16       		.uleb128 .LFE451-.LVL46
 10532 0545 01       		.uleb128 0x1
 10533 0546 52       		.byte	0x52
 10534 0547 00       		.byte	0
 10535              	.LVUS17:
ARM GAS  C:\Users\DEVELO~1\AppData\Local\Temp\cc0byXRH.s 			page 186


 10536 0548 00       		.uleb128 0
 10537 0549 00       		.uleb128 .LVU185
 10538 054a 00       		.uleb128 .LVU185
 10539 054b 00       		.uleb128 .LVU274
 10540 054c 00       		.uleb128 .LVU274
 10541 054d 00       		.uleb128 0
 10542              	.LLST17:
 10543 054e 06       		.byte	0x6
 10544 054f 00000000 		.4byte	.LVL28
 10545 0553 04       		.byte	0x4
 10546 0554 00       		.uleb128 .LVL28-.LVL28
 10547 0555 16       		.uleb128 .LVL32-.LVL28
 10548 0556 01       		.uleb128 0x1
 10549 0557 50       		.byte	0x50
 10550 0558 04       		.byte	0x4
 10551 0559 16       		.uleb128 .LVL32-.LVL28
 10552 055a BE01     		.uleb128 .LVL44-.LVL28
 10553 055c 01       		.uleb128 0x1
 10554 055d 57       		.byte	0x57
 10555 055e 04       		.byte	0x4
 10556 055f BE01     		.uleb128 .LVL44-.LVL28
 10557 0561 CC01     		.uleb128 .LFE450-.LVL28
 10558 0563 04       		.uleb128 0x4
 10559 0564 A3       		.byte	0xa3
 10560 0565 01       		.uleb128 0x1
 10561 0566 50       		.byte	0x50
 10562 0567 9F       		.byte	0x9f
 10563 0568 00       		.byte	0
 10564              	.LVUS18:
 10565 0569 01       		.uleb128 .LVU198
 10566 056a 02       		.uleb128 .LVU199
 10567 056b 02       		.uleb128 .LVU199
 10568 056c 00       		.uleb128 .LVU201
 10569 056d 00       		.uleb128 .LVU201
 10570 056e 01       		.uleb128 .LVU209
 10571              	.LLST18:
 10572 056f 06       		.byte	0x6
 10573 0570 36000000 		.4byte	.LVL34
 10574 0574 04       		.byte	0x4
 10575 0575 00       		.uleb128 .LVL34-.LVL34
 10576 0576 00       		.uleb128 .LVL34-.LVL34
 10577 0577 02       		.uleb128 0x2
 10578 0578 30       		.byte	0x30
 10579 0579 9F       		.byte	0x9f
 10580 057a 04       		.byte	0x4
 10581 057b 00       		.uleb128 .LVL34-.LVL34
 10582 057c 0A       		.uleb128 .LVL35-.LVL34
 10583 057d 01       		.uleb128 0x1
 10584 057e 54       		.byte	0x54
 10585 057f 04       		.byte	0x4
 10586 0580 0A       		.uleb128 .LVL35-.LVL34
 10587 0581 1A       		.uleb128 .LVL36-.LVL34
 10588 0582 03       		.uleb128 0x3
 10589 0583 74       		.byte	0x74
 10590 0584 7F       		.sleb128 -1
 10591 0585 9F       		.byte	0x9f
 10592 0586 00       		.byte	0
ARM GAS  C:\Users\DEVELO~1\AppData\Local\Temp\cc0byXRH.s 			page 187


 10593              	.LVUS19:
 10594 0587 00       		.uleb128 .LVU172
 10595 0588 00       		.uleb128 .LVU274
 10596              	.LLST19:
 10597 0589 08       		.byte	0x8
 10598 058a 08000000 		.4byte	.LVL29
 10599 058e B601     		.uleb128 .LVL44-.LVL29
 10600 0590 01       		.uleb128 0x1
 10601 0591 55       		.byte	0x55
 10602 0592 00       		.byte	0
 10603              	.LVUS21:
 10604 0593 01       		.uleb128 .LVU175
 10605 0594 00       		.uleb128 .LVU185
 10606 0595 00       		.uleb128 .LVU185
 10607 0596 00       		.uleb128 .LVU188
 10608              	.LLST21:
 10609 0597 06       		.byte	0x6
 10610 0598 0A000000 		.4byte	.LVL30
 10611 059c 04       		.byte	0x4
 10612 059d 00       		.uleb128 .LVL30-.LVL30
 10613 059e 0C       		.uleb128 .LVL32-.LVL30
 10614 059f 01       		.uleb128 0x1
 10615 05a0 50       		.byte	0x50
 10616 05a1 04       		.byte	0x4
 10617 05a2 0C       		.uleb128 .LVL32-.LVL30
 10618 05a3 14       		.uleb128 .LVL33-.LVL30
 10619 05a4 01       		.uleb128 0x1
 10620 05a5 57       		.byte	0x57
 10621 05a6 00       		.byte	0
 10622              	.LVUS22:
 10623 05a7 00       		.uleb128 .LVU174
 10624 05a8 00       		.uleb128 .LVU188
 10625              	.LLST22:
 10626 05a9 08       		.byte	0x8
 10627 05aa 0A000000 		.4byte	.LVL30
 10628 05ae 14       		.uleb128 .LVL33-.LVL30
 10629 05af 02       		.uleb128 0x2
 10630 05b0 30       		.byte	0x30
 10631 05b1 9F       		.byte	0x9f
 10632 05b2 00       		.byte	0
 10633              	.LVUS23:
 10634 05b3 02       		.uleb128 .LVU176
 10635 05b4 00       		.uleb128 .LVU188
 10636              	.LLST23:
 10637 05b5 08       		.byte	0x8
 10638 05b6 0A000000 		.4byte	.LVL30
 10639 05ba 14       		.uleb128 .LVL33-.LVL30
 10640 05bb 01       		.uleb128 0x1
 10641 05bc 55       		.byte	0x55
 10642 05bd 00       		.byte	0
 10643              	.LVUS25:
 10644 05be 01       		.uleb128 .LVU183
 10645 05bf 00       		.uleb128 .LVU188
 10646              	.LLST25:
 10647 05c0 08       		.byte	0x8
 10648 05c1 14000000 		.4byte	.LVL31
 10649 05c5 0A       		.uleb128 .LVL33-.LVL31
ARM GAS  C:\Users\DEVELO~1\AppData\Local\Temp\cc0byXRH.s 			page 188


 10650 05c6 02       		.uleb128 0x2
 10651 05c7 42       		.byte	0x42
 10652 05c8 9F       		.byte	0x9f
 10653 05c9 00       		.byte	0
 10654              	.LVUS27:
 10655 05ca 01       		.uleb128 .LVU211
 10656 05cb 00       		.uleb128 .LVU216
 10657              	.LLST27:
 10658 05cc 08       		.byte	0x8
 10659 05cd 52000000 		.4byte	.LVL37
 10660 05d1 0E       		.uleb128 .LVL38-.LVL37
 10661 05d2 01       		.uleb128 0x1
 10662 05d3 57       		.byte	0x57
 10663 05d4 00       		.byte	0
 10664              	.LVUS29:
 10665 05d5 02       		.uleb128 .LVU221
 10666 05d6 00       		.uleb128 .LVU231
 10667              	.LLST29:
 10668 05d7 08       		.byte	0x8
 10669 05d8 62000000 		.4byte	.LVL39
 10670 05dc 10       		.uleb128 .LVL41-.LVL39
 10671 05dd 01       		.uleb128 0x1
 10672 05de 57       		.byte	0x57
 10673 05df 00       		.byte	0
 10674              	.LVUS30:
 10675 05e0 03       		.uleb128 .LVU222
 10676 05e1 00       		.uleb128 .LVU231
 10677              	.LLST30:
 10678 05e2 08       		.byte	0x8
 10679 05e3 62000000 		.4byte	.LVL39
 10680 05e7 0F       		.uleb128 .LVL41-1-.LVL39
 10681 05e8 01       		.uleb128 0x1
 10682 05e9 52       		.byte	0x52
 10683 05ea 00       		.byte	0
 10684              	.LVUS31:
 10685 05eb 01       		.uleb128 .LVU229
 10686 05ec 00       		.uleb128 .LVU231
 10687              	.LLST31:
 10688 05ed 08       		.byte	0x8
 10689 05ee 6C000000 		.4byte	.LVL40
 10690 05f2 06       		.uleb128 .LVL41-.LVL40
 10691 05f3 02       		.uleb128 0x2
 10692 05f4 42       		.byte	0x42
 10693 05f5 9F       		.byte	0x9f
 10694 05f6 00       		.byte	0
 10695              	.LVUS33:
 10696 05f7 01       		.uleb128 .LVU262
 10697 05f8 04       		.uleb128 .LVU271
 10698              	.LLST33:
 10699 05f9 08       		.byte	0x8
 10700 05fa B6000000 		.4byte	.LVL42
 10701 05fe 04       		.uleb128 .LVL43-.LVL42
 10702 05ff 02       		.uleb128 0x2
 10703 0600 40       		.byte	0x40
 10704 0601 9F       		.byte	0x9f
 10705 0602 00       		.byte	0
 10706              	.LVUS34:
ARM GAS  C:\Users\DEVELO~1\AppData\Local\Temp\cc0byXRH.s 			page 189


 10707 0603 01       		.uleb128 .LVU262
 10708 0604 04       		.uleb128 .LVU271
 10709              	.LLST34:
 10710 0605 08       		.byte	0x8
 10711 0606 B6000000 		.4byte	.LVL42
 10712 060a 04       		.uleb128 .LVL43-.LVL42
 10713 060b 01       		.uleb128 0x1
 10714 060c 57       		.byte	0x57
 10715 060d 00       		.byte	0
 10716              	.LVUS14:
 10717 060e 00       		.uleb128 0
 10718 060f 00       		.uleb128 .LVU139
 10719 0610 00       		.uleb128 .LVU139
 10720 0611 00       		.uleb128 .LVU165
 10721 0612 00       		.uleb128 .LVU165
 10722 0613 00       		.uleb128 0
 10723              	.LLST14:
 10724 0614 06       		.byte	0x6
 10725 0615 00000000 		.4byte	.LVL20
 10726 0619 04       		.byte	0x4
 10727 061a 00       		.uleb128 .LVL20-.LVL20
 10728 061b 0A       		.uleb128 .LVL21-.LVL20
 10729 061c 01       		.uleb128 0x1
 10730 061d 50       		.byte	0x50
 10731 061e 04       		.byte	0x4
 10732 061f 0A       		.uleb128 .LVL21-.LVL20
 10733 0620 4E       		.uleb128 .LVL27-.LVL20
 10734 0621 01       		.uleb128 0x1
 10735 0622 54       		.byte	0x54
 10736 0623 04       		.byte	0x4
 10737 0624 4E       		.uleb128 .LVL27-.LVL20
 10738 0625 58       		.uleb128 .LFE449-.LVL20
 10739 0626 04       		.uleb128 0x4
 10740 0627 A3       		.byte	0xa3
 10741 0628 01       		.uleb128 0x1
 10742 0629 50       		.byte	0x50
 10743 062a 9F       		.byte	0x9f
 10744 062b 00       		.byte	0
 10745              	.LVUS15:
 10746 062c 00       		.uleb128 .LVU139
 10747 062d 00       		.uleb128 .LVU155
 10748              	.LLST15:
 10749 062e 08       		.byte	0x8
 10750 062f 0A000000 		.4byte	.LVL21
 10751 0633 20       		.uleb128 .LVL24-.LVL21
 10752 0634 01       		.uleb128 0x1
 10753 0635 50       		.byte	0x50
 10754 0636 00       		.byte	0
 10755              	.LVUS16:
 10756 0637 01       		.uleb128 .LVU157
 10757 0638 00       		.uleb128 .LVU163
 10758              	.LLST16:
 10759 0639 08       		.byte	0x8
 10760 063a 2E000000 		.4byte	.LVL25
 10761 063e 1E       		.uleb128 .LVL26-.LVL25
 10762 063f 04       		.uleb128 0x4
 10763 0640 40       		.byte	0x40
ARM GAS  C:\Users\DEVELO~1\AppData\Local\Temp\cc0byXRH.s 			page 190


 10764 0641 47       		.byte	0x47
 10765 0642 24       		.byte	0x24
 10766 0643 9F       		.byte	0x9f
 10767 0644 00       		.byte	0
 10768              	.LVUS2:
 10769 0645 00       		.uleb128 0
 10770 0646 00       		.uleb128 .LVU48
 10771 0647 00       		.uleb128 .LVU48
 10772 0648 00       		.uleb128 .LVU105
 10773 0649 00       		.uleb128 .LVU105
 10774 064a 00       		.uleb128 .LVU110
 10775 064b 00       		.uleb128 .LVU110
 10776 064c 00       		.uleb128 0
 10777              	.LLST2:
 10778 064d 06       		.byte	0x6
 10779 064e 00000000 		.4byte	.LVL5
 10780 0652 04       		.byte	0x4
 10781 0653 00       		.uleb128 .LVL5-.LVL5
 10782 0654 18       		.uleb128 .LVL6-.LVL5
 10783 0655 01       		.uleb128 0x1
 10784 0656 50       		.byte	0x50
 10785 0657 04       		.byte	0x4
 10786 0658 18       		.uleb128 .LVL6-.LVL5
 10787 0659 8201     		.uleb128 .LVL15-.LVL5
 10788 065b 01       		.uleb128 0x1
 10789 065c 55       		.byte	0x55
 10790 065d 04       		.byte	0x4
 10791 065e 8201     		.uleb128 .LVL15-.LVL5
 10792 0660 8801     		.uleb128 .LVL16-.LVL5
 10793 0662 01       		.uleb128 0x1
 10794 0663 50       		.byte	0x50
 10795 0664 04       		.byte	0x4
 10796 0665 8801     		.uleb128 .LVL16-.LVL5
 10797 0667 EC01     		.uleb128 .LFE448-.LVL5
 10798 0669 01       		.uleb128 0x1
 10799 066a 55       		.byte	0x55
 10800 066b 00       		.byte	0
 10801              	.LVUS3:
 10802 066c 02       		.uleb128 .LVU40
 10803 066d 00       		.uleb128 .LVU48
 10804 066e 00       		.uleb128 .LVU105
 10805 066f 00       		.uleb128 .LVU110
 10806 0670 00       		.uleb128 .LVU110
 10807 0671 00       		.uleb128 .LVU127
 10808              	.LLST3:
 10809 0672 06       		.byte	0x6
 10810 0673 00000000 		.4byte	.LVL5
 10811 0677 04       		.byte	0x4
 10812 0678 00       		.uleb128 .LVL5-.LVL5
 10813 0679 18       		.uleb128 .LVL6-.LVL5
 10814 067a 03       		.uleb128 0x3
 10815 067b 70       		.byte	0x70
 10816 067c 9001     		.sleb128 144
 10817 067e 04       		.byte	0x4
 10818 067f 8201     		.uleb128 .LVL15-.LVL5
 10819 0681 8801     		.uleb128 .LVL16-.LVL5
 10820 0683 03       		.uleb128 0x3
ARM GAS  C:\Users\DEVELO~1\AppData\Local\Temp\cc0byXRH.s 			page 191


 10821 0684 70       		.byte	0x70
 10822 0685 9001     		.sleb128 144
 10823 0687 04       		.byte	0x4
 10824 0688 8801     		.uleb128 .LVL16-.LVL5
 10825 068a C301     		.uleb128 .LVL19-1-.LVL5
 10826 068c 03       		.uleb128 0x3
 10827 068d 75       		.byte	0x75
 10828 068e 9001     		.sleb128 144
 10829 0690 00       		.byte	0
 10830              	.LVUS4:
 10831 0691 02       		.uleb128 .LVU57
 10832 0692 00       		.uleb128 .LVU80
 10833              	.LLST4:
 10834 0693 08       		.byte	0x8
 10835 0694 28000000 		.4byte	.LVL7
 10836 0698 22       		.uleb128 .LVL12-.LVL7
 10837 0699 01       		.uleb128 0x1
 10838 069a 55       		.byte	0x55
 10839 069b 00       		.byte	0
 10840              	.LVUS5:
 10841 069c 03       		.uleb128 .LVU58
 10842 069d 00       		.uleb128 .LVU69
 10843              	.LLST5:
 10844 069e 08       		.byte	0x8
 10845 069f 28000000 		.4byte	.LVL7
 10846 06a3 0F       		.uleb128 .LVL9-1-.LVL7
 10847 06a4 03       		.uleb128 0x3
 10848 06a5 75       		.byte	0x75
 10849 06a6 9001     		.sleb128 144
 10850 06a8 00       		.byte	0
 10851              	.LVUS7:
 10852 06a9 01       		.uleb128 .LVU67
 10853 06aa 00       		.uleb128 .LVU69
 10854              	.LLST7:
 10855 06ab 08       		.byte	0x8
 10856 06ac 34000000 		.4byte	.LVL8
 10857 06b0 04       		.uleb128 .LVL9-.LVL8
 10858 06b1 02       		.uleb128 0x2
 10859 06b2 3C       		.byte	0x3c
 10860 06b3 9F       		.byte	0x9f
 10861 06b4 00       		.byte	0
 10862              	.LVUS8:
 10863 06b5 01       		.uleb128 .LVU74
 10864 06b6 00       		.uleb128 .LVU76
 10865              	.LLST8:
 10866 06b7 08       		.byte	0x8
 10867 06b8 3E000000 		.4byte	.LVL10
 10868 06bc 06       		.uleb128 .LVL11-.LVL10
 10869 06bd 02       		.uleb128 0x2
 10870 06be 42       		.byte	0x42
 10871 06bf 9F       		.byte	0x9f
 10872 06c0 00       		.byte	0
 10873              	.LVUS10:
 10874 06c1 01       		.uleb128 .LVU106
 10875 06c2 00       		.uleb128 .LVU115
 10876              	.LLST10:
 10877 06c3 08       		.byte	0x8
ARM GAS  C:\Users\DEVELO~1\AppData\Local\Temp\cc0byXRH.s 			page 192


 10878 06c4 82000000 		.4byte	.LVL15
 10879 06c8 22       		.uleb128 .LVL17-.LVL15
 10880 06c9 02       		.uleb128 0x2
 10881 06ca 31       		.byte	0x31
 10882 06cb 9F       		.byte	0x9f
 10883 06cc 00       		.byte	0
 10884              	.LVUS11:
 10885 06cd 01       		.uleb128 .LVU106
 10886 06ce 00       		.uleb128 .LVU115
 10887              	.LLST11:
 10888 06cf 08       		.byte	0x8
 10889 06d0 82000000 		.4byte	.LVL15
 10890 06d4 22       		.uleb128 .LVL17-.LVL15
 10891 06d5 04       		.uleb128 0x4
 10892 06d6 40       		.byte	0x40
 10893 06d7 47       		.byte	0x47
 10894 06d8 24       		.byte	0x24
 10895 06d9 9F       		.byte	0x9f
 10896 06da 00       		.byte	0
 10897              	.LVUS12:
 10898 06db 02       		.uleb128 .LVU117
 10899 06dc 00       		.uleb128 .LVU125
 10900              	.LLST12:
 10901 06dd 08       		.byte	0x8
 10902 06de A4000000 		.4byte	.LVL17
 10903 06e2 1C       		.uleb128 .LVL18-.LVL17
 10904 06e3 04       		.uleb128 0x4
 10905 06e4 40       		.byte	0x40
 10906 06e5 47       		.byte	0x47
 10907 06e6 24       		.byte	0x24
 10908 06e7 9F       		.byte	0x9f
 10909 06e8 00       		.byte	0
 10910              	.LVUS13:
 10911 06e9 04       		.uleb128 .LVU119
 10912 06ea 00       		.uleb128 .LVU125
 10913              	.LLST13:
 10914 06eb 08       		.byte	0x8
 10915 06ec A4000000 		.4byte	.LVL17
 10916 06f0 1C       		.uleb128 .LVL18-.LVL17
 10917 06f1 04       		.uleb128 0x4
 10918 06f2 40       		.byte	0x40
 10919 06f3 47       		.byte	0x47
 10920 06f4 24       		.byte	0x24
 10921 06f5 9F       		.byte	0x9f
 10922 06f6 00       		.byte	0
 10923              	.LVUS97:
 10924 06f7 03       		.uleb128 .LVU773
 10925 06f8 00       		.uleb128 .LVU856
 10926 06f9 00       		.uleb128 .LVU864
 10927 06fa 01       		.uleb128 .LVU997
 10928 06fb 00       		.uleb128 .LVU1005
 10929 06fc 00       		.uleb128 .LVU1009
 10930 06fd 00       		.uleb128 .LVU1017
 10931 06fe 00       		.uleb128 0
 10932              	.LLST97:
 10933 06ff 06       		.byte	0x6
 10934 0700 0C000000 		.4byte	.LVL155
ARM GAS  C:\Users\DEVELO~1\AppData\Local\Temp\cc0byXRH.s 			page 193


 10935 0704 04       		.byte	0x4
 10936 0705 00       		.uleb128 .LVL155-.LVL155
 10937 0706 CA01     		.uleb128 .LVL162-.LVL155
 10938 0708 06       		.uleb128 0x6
 10939 0709 03       		.byte	0x3
 10940 070a 00000000 		.4byte	USBD1
 10941 070e 9F       		.byte	0x9f
 10942 070f 04       		.byte	0x4
 10943 0710 D801     		.uleb128 .LVL164-.LVL155
 10944 0712 E204     		.uleb128 .LVL201-.LVL155
 10945 0714 06       		.uleb128 0x6
 10946 0715 03       		.byte	0x3
 10947 0716 00000000 		.4byte	USBD1
 10948 071a 9F       		.byte	0x9f
 10949 071b 04       		.byte	0x4
 10950 071c F004     		.uleb128 .LVL203-.LVL155
 10951 071e 8405     		.uleb128 .LVL206-.LVL155
 10952 0720 06       		.uleb128 0x6
 10953 0721 03       		.byte	0x3
 10954 0722 00000000 		.4byte	USBD1
 10955 0726 9F       		.byte	0x9f
 10956 0727 04       		.byte	0x4
 10957 0728 9C05     		.uleb128 .LVL209-.LVL155
 10958 072a 9C07     		.uleb128 .LFE446-.LVL155
 10959 072c 06       		.uleb128 0x6
 10960 072d 03       		.byte	0x3
 10961 072e 00000000 		.4byte	USBD1
 10962 0732 9F       		.byte	0x9f
 10963 0733 00       		.byte	0
 10964              	.LVUS98:
 10965 0734 00       		.uleb128 .LVU775
 10966 0735 00       		.uleb128 .LVU818
 10967 0736 00       		.uleb128 .LVU864
 10968 0737 01       		.uleb128 .LVU997
 10969 0738 00       		.uleb128 .LVU1017
 10970 0739 00       		.uleb128 .LVU1055
 10971              	.LLST98:
 10972 073a 06       		.byte	0x6
 10973 073b 10000000 		.4byte	.LVL156
 10974 073f 04       		.byte	0x4
 10975 0740 00       		.uleb128 .LVL156-.LVL156
 10976 0741 58       		.uleb128 .LVL160-.LVL156
 10977 0742 01       		.uleb128 0x1
 10978 0743 57       		.byte	0x57
 10979 0744 04       		.byte	0x4
 10980 0745 D401     		.uleb128 .LVL164-.LVL156
 10981 0747 DE04     		.uleb128 .LVL201-.LVL156
 10982 0749 01       		.uleb128 0x1
 10983 074a 57       		.byte	0x57
 10984 074b 04       		.byte	0x4
 10985 074c 9805     		.uleb128 .LVL209-.LVL156
 10986 074e EC05     		.uleb128 .LVL224-.LVL156
 10987 0750 01       		.uleb128 0x1
 10988 0751 57       		.byte	0x57
 10989 0752 00       		.byte	0
 10990              	.LVUS99:
 10991 0753 00       		.uleb128 .LVU778
ARM GAS  C:\Users\DEVELO~1\AppData\Local\Temp\cc0byXRH.s 			page 194


 10992 0754 00       		.uleb128 .LVU847
 10993 0755 00       		.uleb128 .LVU864
 10994 0756 01       		.uleb128 .LVU997
 10995 0757 00       		.uleb128 .LVU1005
 10996 0758 00       		.uleb128 .LVU1008
 10997 0759 00       		.uleb128 .LVU1017
 10998 075a 00       		.uleb128 .LVU1068
 10999 075b 00       		.uleb128 .LVU1079
 11000 075c 00       		.uleb128 0
 11001              	.LLST99:
 11002 075d 06       		.byte	0x6
 11003 075e 12000000 		.4byte	.LVL157
 11004 0762 04       		.byte	0x4
 11005 0763 00       		.uleb128 .LVL157-.LVL157
 11006 0764 A801     		.uleb128 .LVL161-.LVL157
 11007 0766 01       		.uleb128 0x1
 11008 0767 55       		.byte	0x55
 11009 0768 04       		.byte	0x4
 11010 0769 D201     		.uleb128 .LVL164-.LVL157
 11011 076b DC04     		.uleb128 .LVL201-.LVL157
 11012 076d 01       		.uleb128 0x1
 11013 076e 55       		.byte	0x55
 11014 076f 04       		.byte	0x4
 11015 0770 EA04     		.uleb128 .LVL203-.LVL157
 11016 0772 F804     		.uleb128 .LVL205-.LVL157
 11017 0774 01       		.uleb128 0x1
 11018 0775 55       		.byte	0x55
 11019 0776 04       		.byte	0x4
 11020 0777 9605     		.uleb128 .LVL209-.LVL157
 11021 0779 9606     		.uleb128 .LVL229-.LVL157
 11022 077b 01       		.uleb128 0x1
 11023 077c 55       		.byte	0x55
 11024 077d 04       		.byte	0x4
 11025 077e C606     		.uleb128 .LVL234-.LVL157
 11026 0780 9607     		.uleb128 .LFE446-.LVL157
 11027 0782 01       		.uleb128 0x1
 11028 0783 55       		.byte	0x55
 11029 0784 00       		.byte	0
 11030              	.LVUS100:
 11031 0785 00       		.uleb128 .LVU814
 11032 0786 00       		.uleb128 .LVU856
 11033 0787 00       		.uleb128 .LVU1005
 11034 0788 00       		.uleb128 .LVU1009
 11035 0789 00       		.uleb128 .LVU1055
 11036 078a 00       		.uleb128 0
 11037              	.LLST100:
 11038 078b 06       		.byte	0x6
 11039 078c 64000000 		.4byte	.LVL159
 11040 0790 04       		.byte	0x4
 11041 0791 00       		.uleb128 .LVL159-.LVL159
 11042 0792 72       		.uleb128 .LVL162-.LVL159
 11043 0793 01       		.uleb128 0x1
 11044 0794 54       		.byte	0x54
 11045 0795 04       		.byte	0x4
 11046 0796 9804     		.uleb128 .LVL203-.LVL159
 11047 0798 AC04     		.uleb128 .LVL206-.LVL159
 11048 079a 01       		.uleb128 0x1
ARM GAS  C:\Users\DEVELO~1\AppData\Local\Temp\cc0byXRH.s 			page 195


 11049 079b 54       		.byte	0x54
 11050 079c 04       		.byte	0x4
 11051 079d 9805     		.uleb128 .LVL224-.LVL159
 11052 079f C406     		.uleb128 .LFE446-.LVL159
 11053 07a1 01       		.uleb128 0x1
 11054 07a2 54       		.byte	0x54
 11055 07a3 00       		.byte	0
 11056              	.LVUS101:
 11057 07a4 02       		.uleb128 .LVU871
 11058 07a5 00       		.uleb128 .LVU915
 11059              	.LLST101:
 11060 07a6 08       		.byte	0x8
 11061 07a7 F4000000 		.4byte	.LVL166
 11062 07ab 8801     		.uleb128 .LVL176-.LVL166
 11063 07ad 06       		.uleb128 0x6
 11064 07ae 03       		.byte	0x3
 11065 07af 00000000 		.4byte	USBD1
 11066 07b3 9F       		.byte	0x9f
 11067 07b4 00       		.byte	0
 11068              	.LVUS102:
 11069 07b5 01       		.uleb128 .LVU876
 11070 07b6 00       		.uleb128 .LVU879
 11071 07b7 00       		.uleb128 .LVU879
 11072 07b8 00       		.uleb128 .LVU881
 11073 07b9 00       		.uleb128 .LVU883
 11074 07ba 00       		.uleb128 .LVU915
 11075              	.LLST102:
 11076 07bb 06       		.byte	0x6
 11077 07bc FA000000 		.4byte	.LVL167
 11078 07c0 04       		.byte	0x4
 11079 07c1 00       		.uleb128 .LVL167-.LVL167
 11080 07c2 0C       		.uleb128 .LVL168-.LVL167
 11081 07c3 02       		.uleb128 0x2
 11082 07c4 30       		.byte	0x30
 11083 07c5 9F       		.byte	0x9f
 11084 07c6 04       		.byte	0x4
 11085 07c7 0C       		.uleb128 .LVL168-.LVL167
 11086 07c8 0E       		.uleb128 .LVL169-.LVL167
 11087 07c9 01       		.uleb128 0x1
 11088 07ca 54       		.byte	0x54
 11089 07cb 04       		.byte	0x4
 11090 07cc 14       		.uleb128 .LVL170-.LVL167
 11091 07cd 8201     		.uleb128 .LVL176-.LVL167
 11092 07cf 01       		.uleb128 0x1
 11093 07d0 54       		.byte	0x54
 11094 07d1 00       		.byte	0
 11095              	.LVUS103:
 11096 07d2 00       		.uleb128 .LVU875
 11097 07d3 00       		.uleb128 .LVU915
 11098              	.LLST103:
 11099 07d4 08       		.byte	0x8
 11100 07d5 FA000000 		.4byte	.LVL167
 11101 07d9 8201     		.uleb128 .LVL176-.LVL167
 11102 07db 01       		.uleb128 0x1
 11103 07dc 5B       		.byte	0x5b
 11104 07dd 00       		.byte	0
 11105              	.LVUS104:
ARM GAS  C:\Users\DEVELO~1\AppData\Local\Temp\cc0byXRH.s 			page 196


 11106 07de 02       		.uleb128 .LVU900
 11107 07df 00       		.uleb128 .LVU911
 11108              	.LLST104:
 11109 07e0 08       		.byte	0x8
 11110 07e1 4A010000 		.4byte	.LVL172
 11111 07e5 12       		.uleb128 .LVL174-.LVL172
 11112 07e6 06       		.uleb128 0x6
 11113 07e7 03       		.byte	0x3
 11114 07e8 00000000 		.4byte	USBD1
 11115 07ec 9F       		.byte	0x9f
 11116 07ed 00       		.byte	0
 11117              	.LVUS106:
 11118 07ee 03       		.uleb128 .LVU901
 11119 07ef 00       		.uleb128 .LVU911
 11120              	.LLST106:
 11121 07f0 08       		.byte	0x8
 11122 07f1 4A010000 		.4byte	.LVL172
 11123 07f5 11       		.uleb128 .LVL174-1-.LVL172
 11124 07f6 01       		.uleb128 0x1
 11125 07f7 52       		.byte	0x52
 11126 07f8 00       		.byte	0
 11127              	.LVUS107:
 11128 07f9 01       		.uleb128 .LVU909
 11129 07fa 00       		.uleb128 .LVU911
 11130              	.LLST107:
 11131 07fb 08       		.byte	0x8
 11132 07fc 56010000 		.4byte	.LVL173
 11133 0800 06       		.uleb128 .LVL174-.LVL173
 11134 0801 02       		.uleb128 0x2
 11135 0802 42       		.byte	0x42
 11136 0803 9F       		.byte	0x9f
 11137 0804 00       		.byte	0
 11138              	.LVUS109:
 11139 0805 02       		.uleb128 .LVU932
 11140 0806 00       		.uleb128 .LVU969
 11141 0807 00       		.uleb128 .LVU1017
 11142 0808 00       		.uleb128 .LVU1055
 11143              	.LLST109:
 11144 0809 06       		.byte	0x6
 11145 080a B8010000 		.4byte	.LVL180
 11146 080e 04       		.byte	0x4
 11147 080f 00       		.uleb128 .LVL180-.LVL180
 11148 0810 56       		.uleb128 .LVL193-.LVL180
 11149 0811 06       		.uleb128 0x6
 11150 0812 03       		.byte	0x3
 11151 0813 00000000 		.4byte	USBD1
 11152 0817 9F       		.byte	0x9f
 11153 0818 04       		.byte	0x4
 11154 0819 F001     		.uleb128 .LVL209-.LVL180
 11155 081b C402     		.uleb128 .LVL224-.LVL180
 11156 081d 06       		.uleb128 0x6
 11157 081e 03       		.byte	0x3
 11158 081f 00000000 		.4byte	USBD1
 11159 0823 9F       		.byte	0x9f
 11160 0824 00       		.byte	0
 11161              	.LVUS110:
 11162 0825 00       		.uleb128 .LVU936
ARM GAS  C:\Users\DEVELO~1\AppData\Local\Temp\cc0byXRH.s 			page 197


 11163 0826 00       		.uleb128 .LVU941
 11164              	.LLST110:
 11165 0827 08       		.byte	0x8
 11166 0828 BE010000 		.4byte	.LVL181
 11167 082c 0C       		.uleb128 .LVL183-.LVL181
 11168 082d 01       		.uleb128 0x1
 11169 082e 53       		.byte	0x53
 11170 082f 00       		.byte	0
 11171              	.LVUS111:
 11172 0830 00       		.uleb128 .LVU939
 11173 0831 00       		.uleb128 .LVU969
 11174 0832 00       		.uleb128 .LVU1017
 11175 0833 00       		.uleb128 .LVU1053
 11176              	.LLST111:
 11177 0834 06       		.byte	0x6
 11178 0835 C6010000 		.4byte	.LVL182
 11179 0839 04       		.byte	0x4
 11180 083a 00       		.uleb128 .LVL182-.LVL182
 11181 083b 48       		.uleb128 .LVL193-.LVL182
 11182 083c 01       		.uleb128 0x1
 11183 083d 52       		.byte	0x52
 11184 083e 04       		.byte	0x4
 11185 083f E201     		.uleb128 .LVL209-.LVL182
 11186 0841 B002     		.uleb128 .LVL223-.LVL182
 11187 0843 01       		.uleb128 0x1
 11188 0844 52       		.byte	0x52
 11189 0845 00       		.byte	0
 11190              	.LVUS112:
 11191 0846 00       		.uleb128 .LVU941
 11192 0847 00       		.uleb128 .LVU944
 11193 0848 00       		.uleb128 .LVU1017
 11194 0849 00       		.uleb128 .LVU1019
 11195 084a 00       		.uleb128 .LVU1019
 11196 084b 00       		.uleb128 .LVU1055
 11197              	.LLST112:
 11198 084c 06       		.byte	0x6
 11199 084d CA010000 		.4byte	.LVL183
 11200 0851 04       		.byte	0x4
 11201 0852 00       		.uleb128 .LVL183-.LVL183
 11202 0853 12       		.uleb128 .LVL184-.LVL183
 11203 0854 01       		.uleb128 0x1
 11204 0855 53       		.byte	0x53
 11205 0856 04       		.byte	0x4
 11206 0857 DE01     		.uleb128 .LVL209-.LVL183
 11207 0859 E401     		.uleb128 .LVL210-.LVL183
 11208 085b 01       		.uleb128 0x1
 11209 085c 53       		.byte	0x53
 11210 085d 04       		.byte	0x4
 11211 085e E401     		.uleb128 .LVL210-.LVL183
 11212 0860 B202     		.uleb128 .LVL224-.LVL183
 11213 0862 03       		.uleb128 0x3
 11214 0863 70       		.byte	0x70
 11215 0864 7E       		.sleb128 -2
 11216 0865 9F       		.byte	0x9f
 11217 0866 00       		.byte	0
 11218              	.LVUS113:
 11219 0867 00       		.uleb128 .LVU945
ARM GAS  C:\Users\DEVELO~1\AppData\Local\Temp\cc0byXRH.s 			page 198


 11220 0868 00       		.uleb128 .LVU969
 11221              	.LLST113:
 11222 0869 08       		.byte	0x8
 11223 086a E0010000 		.4byte	.LVL185
 11224 086e 2E       		.uleb128 .LVL193-.LVL185
 11225 086f 02       		.uleb128 0x2
 11226 0870 38       		.byte	0x38
 11227 0871 9F       		.byte	0x9f
 11228 0872 00       		.byte	0
 11229              	.LVUS114:
 11230 0873 00       		.uleb128 .LVU945
 11231 0874 00       		.uleb128 .LVU969
 11232              	.LLST114:
 11233 0875 08       		.byte	0x8
 11234 0876 E0010000 		.4byte	.LVL185
 11235 087a 2E       		.uleb128 .LVL193-.LVL185
 11236 087b 01       		.uleb128 0x1
 11237 087c 52       		.byte	0x52
 11238 087d 00       		.byte	0
 11239              	.LVUS115:
 11240 087e 00       		.uleb128 .LVU945
 11241 087f 00       		.uleb128 .LVU958
 11242 0880 00       		.uleb128 .LVU958
 11243 0881 00       		.uleb128 .LVU967
 11244 0882 00       		.uleb128 .LVU967
 11245 0883 00       		.uleb128 .LVU969
 11246              	.LLST115:
 11247 0884 06       		.byte	0x6
 11248 0885 E0010000 		.4byte	.LVL185
 11249 0889 04       		.byte	0x4
 11250 088a 00       		.uleb128 .LVL185-.LVL185
 11251 088b 10       		.uleb128 .LVL188-.LVL185
 11252 088c 01       		.uleb128 0x1
 11253 088d 50       		.byte	0x50
 11254 088e 04       		.byte	0x4
 11255 088f 10       		.uleb128 .LVL188-.LVL185
 11256 0890 28       		.uleb128 .LVL192-.LVL185
 11257 0891 03       		.uleb128 0x3
 11258 0892 70       		.byte	0x70
 11259 0893 01       		.sleb128 1
 11260 0894 9F       		.byte	0x9f
 11261 0895 04       		.byte	0x4
 11262 0896 28       		.uleb128 .LVL192-.LVL185
 11263 0897 2E       		.uleb128 .LVL193-.LVL185
 11264 0898 01       		.uleb128 0x1
 11265 0899 50       		.byte	0x50
 11266 089a 00       		.byte	0
 11267              	.LVUS116:
 11268 089b 00       		.uleb128 .LVU945
 11269 089c 00       		.uleb128 .LVU951
 11270 089d 00       		.uleb128 .LVU951
 11271 089e 00       		.uleb128 .LVU969
 11272              	.LLST116:
 11273 089f 06       		.byte	0x6
 11274 08a0 E0010000 		.4byte	.LVL185
 11275 08a4 04       		.byte	0x4
 11276 08a5 00       		.uleb128 .LVL185-.LVL185
ARM GAS  C:\Users\DEVELO~1\AppData\Local\Temp\cc0byXRH.s 			page 199


 11277 08a6 0A       		.uleb128 .LVL186-.LVL185
 11278 08a7 04       		.uleb128 0x4
 11279 08a8 71       		.byte	0x71
 11280 08a9 8020     		.sleb128 4096
 11281 08ab 9F       		.byte	0x9f
 11282 08ac 04       		.byte	0x4
 11283 08ad 0A       		.uleb128 .LVL186-.LVL185
 11284 08ae 2E       		.uleb128 .LVL193-.LVL185
 11285 08af 01       		.uleb128 0x1
 11286 08b0 54       		.byte	0x54
 11287 08b1 00       		.byte	0
 11288              	.LVUS117:
 11289 08b2 02       		.uleb128 .LVU947
 11290 08b3 00       		.uleb128 .LVU952
 11291 08b4 01       		.uleb128 .LVU965
 11292 08b5 00       		.uleb128 .LVU966
 11293 08b6 00       		.uleb128 .LVU966
 11294 08b7 00       		.uleb128 .LVU967
 11295              	.LLST117:
 11296 08b8 06       		.byte	0x6
 11297 08b9 E0010000 		.4byte	.LVL185
 11298 08bd 04       		.byte	0x4
 11299 08be 00       		.uleb128 .LVL185-.LVL185
 11300 08bf 0C       		.uleb128 .LVL187-.LVL185
 11301 08c0 02       		.uleb128 0x2
 11302 08c1 30       		.byte	0x30
 11303 08c2 9F       		.byte	0x9f
 11304 08c3 04       		.byte	0x4
 11305 08c4 22       		.uleb128 .LVL190-.LVL185
 11306 08c5 26       		.uleb128 .LVL191-.LVL185
 11307 08c6 05       		.uleb128 0x5
 11308 08c7 78       		.byte	0x78
 11309 08c8 00       		.sleb128 0
 11310 08c9 38       		.byte	0x38
 11311 08ca 25       		.byte	0x25
 11312 08cb 9F       		.byte	0x9f
 11313 08cc 04       		.byte	0x4
 11314 08cd 26       		.uleb128 .LVL191-.LVL185
 11315 08ce 28       		.uleb128 .LVL192-.LVL185
 11316 08cf 01       		.uleb128 0x1
 11317 08d0 58       		.byte	0x58
 11318 08d1 00       		.byte	0
 11319              	.LVUS118:
 11320 08d2 03       		.uleb128 .LVU948
 11321 08d3 00       		.uleb128 .LVU952
 11322 08d4 00       		.uleb128 .LVU952
 11323 08d5 00       		.uleb128 .LVU962
 11324 08d6 00       		.uleb128 .LVU962
 11325 08d7 01       		.uleb128 .LVU968
 11326 08d8 01       		.uleb128 .LVU968
 11327 08d9 00       		.uleb128 .LVU969
 11328              	.LLST118:
 11329 08da 06       		.byte	0x6
 11330 08db E0010000 		.4byte	.LVL185
 11331 08df 04       		.byte	0x4
 11332 08e0 00       		.uleb128 .LVL185-.LVL185
 11333 08e1 0C       		.uleb128 .LVL187-.LVL185
ARM GAS  C:\Users\DEVELO~1\AppData\Local\Temp\cc0byXRH.s 			page 200


 11334 08e2 02       		.uleb128 0x2
 11335 08e3 30       		.byte	0x30
 11336 08e4 9F       		.byte	0x9f
 11337 08e5 04       		.byte	0x4
 11338 08e6 0C       		.uleb128 .LVL187-.LVL185
 11339 08e7 1C       		.uleb128 .LVL189-.LVL185
 11340 08e8 01       		.uleb128 0x1
 11341 08e9 53       		.byte	0x53
 11342 08ea 04       		.byte	0x4
 11343 08eb 1C       		.uleb128 .LVL189-.LVL185
 11344 08ec 28       		.uleb128 .LVL192-.LVL185
 11345 08ed 03       		.uleb128 0x3
 11346 08ee 73       		.byte	0x73
 11347 08ef 7F       		.sleb128 -1
 11348 08f0 9F       		.byte	0x9f
 11349 08f1 04       		.byte	0x4
 11350 08f2 28       		.uleb128 .LVL192-.LVL185
 11351 08f3 2E       		.uleb128 .LVL193-.LVL185
 11352 08f4 01       		.uleb128 0x1
 11353 08f5 53       		.byte	0x53
 11354 08f6 00       		.byte	0
 11355              	.LVUS119:
 11356 08f7 00       		.uleb128 .LVU1022
 11357 08f8 00       		.uleb128 .LVU1050
 11358              	.LLST119:
 11359 08f9 08       		.byte	0x8
 11360 08fa BC020000 		.4byte	.LVL212
 11361 08fe 36       		.uleb128 .LVL222-.LVL212
 11362 08ff 01       		.uleb128 0x1
 11363 0900 5E       		.byte	0x5e
 11364 0901 00       		.byte	0
 11365              	.LVUS120:
 11366 0902 00       		.uleb128 .LVU1022
 11367 0903 00       		.uleb128 .LVU1050
 11368              	.LLST120:
 11369 0904 08       		.byte	0x8
 11370 0905 BC020000 		.4byte	.LVL212
 11371 0909 36       		.uleb128 .LVL222-.LVL212
 11372 090a 01       		.uleb128 0x1
 11373 090b 52       		.byte	0x52
 11374 090c 00       		.byte	0
 11375              	.LVUS121:
 11376 090d 00       		.uleb128 .LVU1022
 11377 090e 00       		.uleb128 .LVU1035
 11378 090f 00       		.uleb128 .LVU1035
 11379 0910 00       		.uleb128 .LVU1036
 11380 0911 00       		.uleb128 .LVU1036
 11381 0912 00       		.uleb128 .LVU1041
 11382 0913 00       		.uleb128 .LVU1041
 11383 0914 00       		.uleb128 .LVU1044
 11384 0915 00       		.uleb128 .LVU1044
 11385 0916 00       		.uleb128 .LVU1050
 11386              	.LLST121:
 11387 0917 06       		.byte	0x6
 11388 0918 BC020000 		.4byte	.LVL212
 11389 091c 04       		.byte	0x4
 11390 091d 00       		.uleb128 .LVL212-.LVL212
ARM GAS  C:\Users\DEVELO~1\AppData\Local\Temp\cc0byXRH.s 			page 201


 11391 091e 0E       		.uleb128 .LVL215-.LVL212
 11392 091f 01       		.uleb128 0x1
 11393 0920 54       		.byte	0x54
 11394 0921 04       		.byte	0x4
 11395 0922 0E       		.uleb128 .LVL215-.LVL212
 11396 0923 10       		.uleb128 .LVL216-.LVL212
 11397 0924 03       		.uleb128 0x3
 11398 0925 74       		.byte	0x74
 11399 0926 01       		.sleb128 1
 11400 0927 9F       		.byte	0x9f
 11401 0928 04       		.byte	0x4
 11402 0929 10       		.uleb128 .LVL216-.LVL212
 11403 092a 20       		.uleb128 .LVL218-.LVL212
 11404 092b 03       		.uleb128 0x3
 11405 092c 71       		.byte	0x71
 11406 092d 01       		.sleb128 1
 11407 092e 9F       		.byte	0x9f
 11408 092f 04       		.byte	0x4
 11409 0930 20       		.uleb128 .LVL218-.LVL212
 11410 0931 26       		.uleb128 .LVL220-.LVL212
 11411 0932 03       		.uleb128 0x3
 11412 0933 74       		.byte	0x74
 11413 0934 01       		.sleb128 1
 11414 0935 9F       		.byte	0x9f
 11415 0936 04       		.byte	0x4
 11416 0937 26       		.uleb128 .LVL220-.LVL212
 11417 0938 36       		.uleb128 .LVL222-.LVL212
 11418 0939 01       		.uleb128 0x1
 11419 093a 54       		.byte	0x54
 11420 093b 00       		.byte	0
 11421              	.LVUS122:
 11422 093c 00       		.uleb128 .LVU1021
 11423 093d 00       		.uleb128 .LVU1028
 11424 093e 00       		.uleb128 .LVU1028
 11425 093f 00       		.uleb128 .LVU1050
 11426              	.LLST122:
 11427 0940 06       		.byte	0x6
 11428 0941 BA020000 		.4byte	.LVL211
 11429 0945 04       		.byte	0x4
 11430 0946 00       		.uleb128 .LVL211-.LVL211
 11431 0947 08       		.uleb128 .LVL213-.LVL211
 11432 0948 04       		.uleb128 0x4
 11433 0949 71       		.byte	0x71
 11434 094a 8020     		.sleb128 4096
 11435 094c 9F       		.byte	0x9f
 11436 094d 04       		.byte	0x4
 11437 094e 08       		.uleb128 .LVL213-.LVL211
 11438 094f 38       		.uleb128 .LVL222-.LVL211
 11439 0950 01       		.uleb128 0x1
 11440 0951 5C       		.byte	0x5c
 11441 0952 00       		.byte	0
 11442              	.LVUS123:
 11443 0953 02       		.uleb128 .LVU1024
 11444 0954 00       		.uleb128 .LVU1029
 11445 0955 01       		.uleb128 .LVU1042
 11446 0956 00       		.uleb128 .LVU1043
 11447 0957 00       		.uleb128 .LVU1043
ARM GAS  C:\Users\DEVELO~1\AppData\Local\Temp\cc0byXRH.s 			page 202


 11448 0958 00       		.uleb128 .LVU1044
 11449              	.LLST123:
 11450 0959 06       		.byte	0x6
 11451 095a BC020000 		.4byte	.LVL212
 11452 095e 04       		.byte	0x4
 11453 095f 00       		.uleb128 .LVL212-.LVL212
 11454 0960 08       		.uleb128 .LVL214-.LVL212
 11455 0961 02       		.uleb128 0x2
 11456 0962 30       		.byte	0x30
 11457 0963 9F       		.byte	0x9f
 11458 0964 04       		.byte	0x4
 11459 0965 20       		.uleb128 .LVL218-.LVL212
 11460 0966 24       		.uleb128 .LVL219-.LVL212
 11461 0967 05       		.uleb128 0x5
 11462 0968 78       		.byte	0x78
 11463 0969 00       		.sleb128 0
 11464 096a 38       		.byte	0x38
 11465 096b 25       		.byte	0x25
 11466 096c 9F       		.byte	0x9f
 11467 096d 04       		.byte	0x4
 11468 096e 24       		.uleb128 .LVL219-.LVL212
 11469 096f 26       		.uleb128 .LVL220-.LVL212
 11470 0970 01       		.uleb128 0x1
 11471 0971 58       		.byte	0x58
 11472 0972 00       		.byte	0
 11473              	.LVUS124:
 11474 0973 03       		.uleb128 .LVU1025
 11475 0974 00       		.uleb128 .LVU1029
 11476 0975 00       		.uleb128 .LVU1029
 11477 0976 00       		.uleb128 .LVU1039
 11478 0977 00       		.uleb128 .LVU1039
 11479 0978 01       		.uleb128 .LVU1045
 11480 0979 01       		.uleb128 .LVU1045
 11481 097a 00       		.uleb128 .LVU1048
 11482              	.LLST124:
 11483 097b 06       		.byte	0x6
 11484 097c BC020000 		.4byte	.LVL212
 11485 0980 04       		.byte	0x4
 11486 0981 00       		.uleb128 .LVL212-.LVL212
 11487 0982 08       		.uleb128 .LVL214-.LVL212
 11488 0983 02       		.uleb128 0x2
 11489 0984 30       		.byte	0x30
 11490 0985 9F       		.byte	0x9f
 11491 0986 04       		.byte	0x4
 11492 0987 08       		.uleb128 .LVL214-.LVL212
 11493 0988 1A       		.uleb128 .LVL217-.LVL212
 11494 0989 01       		.uleb128 0x1
 11495 098a 53       		.byte	0x53
 11496 098b 04       		.byte	0x4
 11497 098c 1A       		.uleb128 .LVL217-.LVL212
 11498 098d 26       		.uleb128 .LVL220-.LVL212
 11499 098e 03       		.uleb128 0x3
 11500 098f 73       		.byte	0x73
 11501 0990 7F       		.sleb128 -1
 11502 0991 9F       		.byte	0x9f
 11503 0992 04       		.byte	0x4
 11504 0993 26       		.uleb128 .LVL220-.LVL212
ARM GAS  C:\Users\DEVELO~1\AppData\Local\Temp\cc0byXRH.s 			page 203


 11505 0994 30       		.uleb128 .LVL221-.LVL212
 11506 0995 01       		.uleb128 0x1
 11507 0996 53       		.byte	0x53
 11508 0997 00       		.byte	0
 11509              	.LVUS125:
 11510 0998 03       		.uleb128 .LVU972
 11511 0999 00       		.uleb128 .LVU994
 11512              	.LLST125:
 11513 099a 08       		.byte	0x8
 11514 099b 0E020000 		.4byte	.LVL193
 11515 099f 5A       		.uleb128 .LVL200-.LVL193
 11516 09a0 06       		.uleb128 0x6
 11517 09a1 03       		.byte	0x3
 11518 09a2 00000000 		.4byte	USBD1
 11519 09a6 9F       		.byte	0x9f
 11520 09a7 00       		.byte	0
 11521              	.LVUS126:
 11522 09a8 01       		.uleb128 .LVU976
 11523 09a9 00       		.uleb128 .LVU979
 11524 09aa 00       		.uleb128 .LVU979
 11525 09ab 00       		.uleb128 .LVU981
 11526 09ac 00       		.uleb128 .LVU983
 11527 09ad 00       		.uleb128 .LVU994
 11528              	.LLST126:
 11529 09ae 06       		.byte	0x6
 11530 09af 12020000 		.4byte	.LVL194
 11531 09b3 04       		.byte	0x4
 11532 09b4 00       		.uleb128 .LVL194-.LVL194
 11533 09b5 0C       		.uleb128 .LVL195-.LVL194
 11534 09b6 02       		.uleb128 0x2
 11535 09b7 30       		.byte	0x30
 11536 09b8 9F       		.byte	0x9f
 11537 09b9 04       		.byte	0x4
 11538 09ba 0C       		.uleb128 .LVL195-.LVL194
 11539 09bb 0E       		.uleb128 .LVL196-.LVL194
 11540 09bc 01       		.uleb128 0x1
 11541 09bd 54       		.byte	0x54
 11542 09be 04       		.byte	0x4
 11543 09bf 14       		.uleb128 .LVL197-.LVL194
 11544 09c0 56       		.uleb128 .LVL200-.LVL194
 11545 09c1 01       		.uleb128 0x1
 11546 09c2 54       		.byte	0x54
 11547 09c3 00       		.byte	0
 11548              	.LVUS127:
 11549 09c4 00       		.uleb128 .LVU975
 11550 09c5 00       		.uleb128 .LVU994
 11551              	.LLST127:
 11552 09c6 08       		.byte	0x8
 11553 09c7 12020000 		.4byte	.LVL194
 11554 09cb 56       		.uleb128 .LVL200-.LVL194
 11555 09cc 01       		.uleb128 0x1
 11556 09cd 59       		.byte	0x59
 11557 09ce 00       		.byte	0
 11558              	.LVUS0:
 11559 09cf 01       		.uleb128 .LVU1
 11560 09d0 00       		.uleb128 .LVU6
 11561 09d1 00       		.uleb128 .LVU6
ARM GAS  C:\Users\DEVELO~1\AppData\Local\Temp\cc0byXRH.s 			page 204


 11562 09d2 00       		.uleb128 .LVU22
 11563 09d3 00       		.uleb128 .LVU22
 11564 09d4 01       		.uleb128 .LVU24
 11565 09d5 01       		.uleb128 .LVU24
 11566 09d6 00       		.uleb128 0
 11567              	.LLST0:
 11568 09d7 06       		.byte	0x6
 11569 09d8 00000000 		.4byte	.LVL0
 11570 09dc 04       		.byte	0x4
 11571 09dd 00       		.uleb128 .LVL0-.LVL0
 11572 09de 0A       		.uleb128 .LVL1-.LVL0
 11573 09df 02       		.uleb128 0x2
 11574 09e0 30       		.byte	0x30
 11575 09e1 9F       		.byte	0x9f
 11576 09e2 04       		.byte	0x4
 11577 09e3 0A       		.uleb128 .LVL1-.LVL0
 11578 09e4 44       		.uleb128 .LVL2-.LVL0
 11579 09e5 01       		.uleb128 0x1
 11580 09e6 52       		.byte	0x52
 11581 09e7 04       		.byte	0x4
 11582 09e8 44       		.uleb128 .LVL2-.LVL0
 11583 09e9 48       		.uleb128 .LVL3-.LVL0
 11584 09ea 03       		.uleb128 0x3
 11585 09eb 7C       		.byte	0x7c
 11586 09ec 7F       		.sleb128 -1
 11587 09ed 9F       		.byte	0x9f
 11588 09ee 04       		.byte	0x4
 11589 09ef 48       		.uleb128 .LVL3-.LVL0
 11590 09f0 56       		.uleb128 .LFE463-.LVL0
 11591 09f1 01       		.uleb128 0x1
 11592 09f2 52       		.byte	0x52
 11593 09f3 00       		.byte	0
 11594              	.LVUS1:
 11595 09f4 01       		.uleb128 .LVU1
 11596 09f5 00       		.uleb128 0
 11597              	.LLST1:
 11598 09f6 08       		.byte	0x8
 11599 09f7 00000000 		.4byte	.LVL0
 11600 09fb 56       		.uleb128 .LFE463-.LVL0
 11601 09fc 06       		.uleb128 0x6
 11602 09fd FA       		.byte	0xfa
 11603 09fe 6F220000 		.4byte	0x226f
 11604 0a02 9F       		.byte	0x9f
 11605 0a03 00       		.byte	0
 11606              	.LVUS71:
 11607 0a04 00       		.uleb128 0
 11608 0a05 00       		.uleb128 .LVU498
 11609 0a06 00       		.uleb128 .LVU498
 11610 0a07 00       		.uleb128 0
 11611              	.LLST71:
 11612 0a08 06       		.byte	0x6
 11613 0a09 00000000 		.4byte	.LVL97
 11614 0a0d 04       		.byte	0x4
 11615 0a0e 00       		.uleb128 .LVL97-.LVL97
 11616 0a0f 16       		.uleb128 .LVL100-.LVL97
 11617 0a10 01       		.uleb128 0x1
 11618 0a11 50       		.byte	0x50
ARM GAS  C:\Users\DEVELO~1\AppData\Local\Temp\cc0byXRH.s 			page 205


 11619 0a12 04       		.byte	0x4
 11620 0a13 16       		.uleb128 .LVL100-.LVL97
 11621 0a14 9C01     		.uleb128 .LFE467-.LVL97
 11622 0a16 04       		.uleb128 0x4
 11623 0a17 A3       		.byte	0xa3
 11624 0a18 01       		.uleb128 0x1
 11625 0a19 50       		.byte	0x50
 11626 0a1a 9F       		.byte	0x9f
 11627 0a1b 00       		.byte	0
 11628              	.LVUS72:
 11629 0a1c 00       		.uleb128 .LVU494
 11630 0a1d 00       		.uleb128 .LVU528
 11631 0a1e 00       		.uleb128 .LVU529
 11632 0a1f 00       		.uleb128 0
 11633              	.LLST72:
 11634 0a20 06       		.byte	0x6
 11635 0a21 0C000000 		.4byte	.LVL98
 11636 0a25 04       		.byte	0x4
 11637 0a26 00       		.uleb128 .LVL98-.LVL98
 11638 0a27 5E       		.uleb128 .LVL105-.LVL98
 11639 0a28 01       		.uleb128 0x1
 11640 0a29 56       		.byte	0x56
 11641 0a2a 04       		.byte	0x4
 11642 0a2b 60       		.uleb128 .LVL106-.LVL98
 11643 0a2c 9001     		.uleb128 .LFE467-.LVL98
 11644 0a2e 01       		.uleb128 0x1
 11645 0a2f 56       		.byte	0x56
 11646 0a30 00       		.byte	0
 11647              	.LVUS73:
 11648 0a31 00       		.uleb128 .LVU496
 11649 0a32 00       		.uleb128 .LVU517
 11650 0a33 00       		.uleb128 .LVU567
 11651 0a34 00       		.uleb128 0
 11652              	.LLST73:
 11653 0a35 06       		.byte	0x6
 11654 0a36 14000000 		.4byte	.LVL99
 11655 0a3a 04       		.byte	0x4
 11656 0a3b 00       		.uleb128 .LVL99-.LVL99
 11657 0a3c 2E       		.uleb128 .LVL102-.LVL99
 11658 0a3d 01       		.uleb128 0x1
 11659 0a3e 55       		.byte	0x55
 11660 0a3f 04       		.byte	0x4
 11661 0a40 74       		.uleb128 .LVL111-.LVL99
 11662 0a41 8801     		.uleb128 .LFE467-.LVL99
 11663 0a43 01       		.uleb128 0x1
 11664 0a44 55       		.byte	0x55
 11665 0a45 00       		.byte	0
 11666              	.LVUS75:
 11667 0a46 00       		.uleb128 .LVU512
 11668 0a47 00       		.uleb128 .LVU523
 11669 0a48 00       		.uleb128 .LVU523
 11670 0a49 00       		.uleb128 .LVU526
 11671 0a4a 00       		.uleb128 .LVU526
 11672 0a4b 00       		.uleb128 .LVU528
 11673 0a4c 00       		.uleb128 .LVU528
 11674 0a4d 00       		.uleb128 .LVU529
 11675 0a4e 00       		.uleb128 .LVU529
ARM GAS  C:\Users\DEVELO~1\AppData\Local\Temp\cc0byXRH.s 			page 206


 11676 0a4f 00       		.uleb128 .LVU550
 11677              	.LLST75:
 11678 0a50 06       		.byte	0x6
 11679 0a51 38000000 		.4byte	.LVL101
 11680 0a55 04       		.byte	0x4
 11681 0a56 00       		.uleb128 .LVL101-.LVL101
 11682 0a57 1A       		.uleb128 .LVL103-.LVL101
 11683 0a58 01       		.uleb128 0x1
 11684 0a59 52       		.byte	0x52
 11685 0a5a 04       		.byte	0x4
 11686 0a5b 1A       		.uleb128 .LVL103-.LVL101
 11687 0a5c 2A       		.uleb128 .LVL104-.LVL101
 11688 0a5d 02       		.uleb128 0x2
 11689 0a5e 71       		.byte	0x71
 11690 0a5f 18       		.sleb128 24
 11691 0a60 04       		.byte	0x4
 11692 0a61 2A       		.uleb128 .LVL104-.LVL101
 11693 0a62 32       		.uleb128 .LVL105-.LVL101
 11694 0a63 0C       		.uleb128 0xc
 11695 0a64 74       		.byte	0x74
 11696 0a65 00       		.sleb128 0
 11697 0a66 32       		.byte	0x32
 11698 0a67 24       		.byte	0x24
 11699 0a68 77       		.byte	0x77
 11700 0a69 00       		.sleb128 0
 11701 0a6a 22       		.byte	0x22
 11702 0a6b 23       		.byte	0x23
 11703 0a6c 0C       		.uleb128 0xc
 11704 0a6d 06       		.byte	0x6
 11705 0a6e 23       		.byte	0x23
 11706 0a6f 18       		.uleb128 0x18
 11707 0a70 04       		.byte	0x4
 11708 0a71 32       		.uleb128 .LVL105-.LVL101
 11709 0a72 33       		.uleb128 .LVL106-1-.LVL101
 11710 0a73 0C       		.uleb128 0xc
 11711 0a74 71       		.byte	0x71
 11712 0a75 00       		.sleb128 0
 11713 0a76 32       		.byte	0x32
 11714 0a77 24       		.byte	0x24
 11715 0a78 70       		.byte	0x70
 11716 0a79 00       		.sleb128 0
 11717 0a7a 22       		.byte	0x22
 11718 0a7b 23       		.byte	0x23
 11719 0a7c 0C       		.uleb128 0xc
 11720 0a7d 06       		.byte	0x6
 11721 0a7e 23       		.byte	0x23
 11722 0a7f 18       		.uleb128 0x18
 11723 0a80 04       		.byte	0x4
 11724 0a81 34       		.uleb128 .LVL106-.LVL101
 11725 0a82 47       		.uleb128 .LVL109-1-.LVL101
 11726 0a83 01       		.uleb128 0x1
 11727 0a84 52       		.byte	0x52
 11728 0a85 00       		.byte	0
 11729              	.LVUS77:
 11730 0a86 0A       		.uleb128 .LVU544
 11731 0a87 00       		.uleb128 .LVU546
 11732              	.LLST77:
ARM GAS  C:\Users\DEVELO~1\AppData\Local\Temp\cc0byXRH.s 			page 207


 11733 0a88 08       		.byte	0x8
 11734 0a89 74000000 		.4byte	.LVL107
 11735 0a8d 04       		.uleb128 .LVL108-.LVL107
 11736 0a8e 03       		.uleb128 0x3
 11737 0a8f 08       		.byte	0x8
 11738 0a90 30       		.byte	0x30
 11739 0a91 9F       		.byte	0x9f
 11740 0a92 00       		.byte	0
 11741              	.LVUS78:
 11742 0a93 0B       		.uleb128 .LVU561
 11743 0a94 00       		.uleb128 .LVU563
 11744              	.LLST78:
 11745 0a95 08       		.byte	0x8
 11746 0a96 80000000 		.4byte	.LVL109
 11747 0a9a 04       		.uleb128 .LVL110-.LVL109
 11748 0a9b 02       		.uleb128 0x2
 11749 0a9c 30       		.byte	0x30
 11750 0a9d 9F       		.byte	0x9f
 11751 0a9e 00       		.byte	0
 11752              	.LVUS84:
 11753 0a9f 00       		.uleb128 0
 11754 0aa0 00       		.uleb128 .LVU640
 11755 0aa1 00       		.uleb128 .LVU640
 11756 0aa2 00       		.uleb128 .LVU648
 11757 0aa3 00       		.uleb128 .LVU648
 11758 0aa4 00       		.uleb128 .LVU653
 11759 0aa5 00       		.uleb128 .LVU653
 11760 0aa6 00       		.uleb128 0
 11761              	.LLST84:
 11762 0aa7 06       		.byte	0x6
 11763 0aa8 00000000 		.4byte	.LVL126
 11764 0aac 04       		.byte	0x4
 11765 0aad 00       		.uleb128 .LVL126-.LVL126
 11766 0aae 2A       		.uleb128 .LVL129-.LVL126
 11767 0aaf 01       		.uleb128 0x1
 11768 0ab0 50       		.byte	0x50
 11769 0ab1 04       		.byte	0x4
 11770 0ab2 2A       		.uleb128 .LVL129-.LVL126
 11771 0ab3 44       		.uleb128 .LVL131-.LVL126
 11772 0ab4 04       		.uleb128 0x4
 11773 0ab5 A3       		.byte	0xa3
 11774 0ab6 01       		.uleb128 0x1
 11775 0ab7 50       		.byte	0x50
 11776 0ab8 9F       		.byte	0x9f
 11777 0ab9 04       		.byte	0x4
 11778 0aba 44       		.uleb128 .LVL131-.LVL126
 11779 0abb 4E       		.uleb128 .LVL133-.LVL126
 11780 0abc 01       		.uleb128 0x1
 11781 0abd 50       		.byte	0x50
 11782 0abe 04       		.byte	0x4
 11783 0abf 4E       		.uleb128 .LVL133-.LVL126
 11784 0ac0 9002     		.uleb128 .LFE468-.LVL126
 11785 0ac2 04       		.uleb128 0x4
 11786 0ac3 A3       		.byte	0xa3
 11787 0ac4 01       		.uleb128 0x1
 11788 0ac5 50       		.byte	0x50
 11789 0ac6 9F       		.byte	0x9f
ARM GAS  C:\Users\DEVELO~1\AppData\Local\Temp\cc0byXRH.s 			page 208


 11790 0ac7 00       		.byte	0
 11791              	.LVUS85:
 11792 0ac8 00       		.uleb128 .LVU629
 11793 0ac9 00       		.uleb128 .LVU647
 11794 0aca 00       		.uleb128 .LVU648
 11795 0acb 00       		.uleb128 .LVU667
 11796 0acc 00       		.uleb128 .LVU720
 11797 0acd 00       		.uleb128 .LVU759
 11798              	.LLST85:
 11799 0ace 06       		.byte	0x6
 11800 0acf 12000000 		.4byte	.LVL127
 11801 0ad3 04       		.byte	0x4
 11802 0ad4 00       		.uleb128 .LVL127-.LVL127
 11803 0ad5 2E       		.uleb128 .LVL130-.LVL127
 11804 0ad6 01       		.uleb128 0x1
 11805 0ad7 56       		.byte	0x56
 11806 0ad8 04       		.byte	0x4
 11807 0ad9 32       		.uleb128 .LVL131-.LVL127
 11808 0ada 68       		.uleb128 .LVL137-.LVL127
 11809 0adb 01       		.uleb128 0x1
 11810 0adc 56       		.byte	0x56
 11811 0add 04       		.byte	0x4
 11812 0ade D801     		.uleb128 .LVL147-.LVL127
 11813 0ae0 F401     		.uleb128 .LVL154-.LVL127
 11814 0ae2 01       		.uleb128 0x1
 11815 0ae3 56       		.byte	0x56
 11816 0ae4 00       		.byte	0
 11817              	.LVUS86:
 11818 0ae5 00       		.uleb128 .LVU631
 11819 0ae6 00       		.uleb128 .LVU647
 11820 0ae7 00       		.uleb128 .LVU648
 11821 0ae8 00       		.uleb128 .LVU668
 11822 0ae9 00       		.uleb128 .LVU720
 11823 0aea 00       		.uleb128 .LVU759
 11824              	.LLST86:
 11825 0aeb 06       		.byte	0x6
 11826 0aec 1A000000 		.4byte	.LVL128
 11827 0af0 04       		.byte	0x4
 11828 0af1 00       		.uleb128 .LVL128-.LVL128
 11829 0af2 26       		.uleb128 .LVL130-.LVL128
 11830 0af3 01       		.uleb128 0x1
 11831 0af4 55       		.byte	0x55
 11832 0af5 04       		.byte	0x4
 11833 0af6 2A       		.uleb128 .LVL131-.LVL128
 11834 0af7 64       		.uleb128 .LVL138-.LVL128
 11835 0af8 01       		.uleb128 0x1
 11836 0af9 55       		.byte	0x55
 11837 0afa 04       		.byte	0x4
 11838 0afb D001     		.uleb128 .LVL147-.LVL128
 11839 0afd EC01     		.uleb128 .LVL154-.LVL128
 11840 0aff 01       		.uleb128 0x1
 11841 0b00 55       		.byte	0x55
 11842 0b01 00       		.byte	0
 11843              	.LVUS88:
 11844 0b02 00       		.uleb128 .LVU651
 11845 0b03 00       		.uleb128 .LVU656
 11846 0b04 00       		.uleb128 .LVU656
ARM GAS  C:\Users\DEVELO~1\AppData\Local\Temp\cc0byXRH.s 			page 209


 11847 0b05 00       		.uleb128 .LVU659
 11848 0b06 00       		.uleb128 .LVU659
 11849 0b07 00       		.uleb128 .LVU660
 11850 0b08 00       		.uleb128 .LVU720
 11851 0b09 00       		.uleb128 .LVU738
 11852 0b0a 00       		.uleb128 .LVU738
 11853 0b0b 00       		.uleb128 .LVU743
 11854 0b0c 00       		.uleb128 .LVU743
 11855 0b0d 00       		.uleb128 .LVU744
 11856              	.LLST88:
 11857 0b0e 06       		.byte	0x6
 11858 0b0f 4C000000 		.4byte	.LVL132
 11859 0b13 04       		.byte	0x4
 11860 0b14 00       		.uleb128 .LVL132-.LVL132
 11861 0b15 0E       		.uleb128 .LVL134-.LVL132
 11862 0b16 01       		.uleb128 0x1
 11863 0b17 53       		.byte	0x53
 11864 0b18 04       		.byte	0x4
 11865 0b19 0E       		.uleb128 .LVL134-.LVL132
 11866 0b1a 20       		.uleb128 .LVL135-.LVL132
 11867 0b1b 02       		.uleb128 0x2
 11868 0b1c 71       		.byte	0x71
 11869 0b1d 14       		.sleb128 20
 11870 0b1e 04       		.byte	0x4
 11871 0b1f 20       		.uleb128 .LVL135-.LVL132
 11872 0b20 23       		.uleb128 .LVL136-1-.LVL132
 11873 0b21 0C       		.uleb128 0xc
 11874 0b22 74       		.byte	0x74
 11875 0b23 00       		.sleb128 0
 11876 0b24 32       		.byte	0x32
 11877 0b25 24       		.byte	0x24
 11878 0b26 79       		.byte	0x79
 11879 0b27 00       		.sleb128 0
 11880 0b28 22       		.byte	0x22
 11881 0b29 23       		.byte	0x23
 11882 0b2a 0C       		.uleb128 0xc
 11883 0b2b 06       		.byte	0x6
 11884 0b2c 23       		.byte	0x23
 11885 0b2d 14       		.uleb128 0x14
 11886 0b2e 04       		.byte	0x4
 11887 0b2f 9E01     		.uleb128 .LVL147-.LVL132
 11888 0b31 A801     		.uleb128 .LVL149-.LVL132
 11889 0b33 01       		.uleb128 0x1
 11890 0b34 53       		.byte	0x53
 11891 0b35 04       		.byte	0x4
 11892 0b36 A801     		.uleb128 .LVL149-.LVL132
 11893 0b38 AE01     		.uleb128 .LVL151-.LVL132
 11894 0b3a 02       		.uleb128 0x2
 11895 0b3b 71       		.byte	0x71
 11896 0b3c 14       		.sleb128 20
 11897 0b3d 04       		.byte	0x4
 11898 0b3e AE01     		.uleb128 .LVL151-.LVL132
 11899 0b40 B301     		.uleb128 .LVL152-1-.LVL132
 11900 0b42 0C       		.uleb128 0xc
 11901 0b43 74       		.byte	0x74
 11902 0b44 00       		.sleb128 0
 11903 0b45 32       		.byte	0x32
ARM GAS  C:\Users\DEVELO~1\AppData\Local\Temp\cc0byXRH.s 			page 210


 11904 0b46 24       		.byte	0x24
 11905 0b47 79       		.byte	0x79
 11906 0b48 00       		.sleb128 0
 11907 0b49 22       		.byte	0x22
 11908 0b4a 23       		.byte	0x23
 11909 0b4b 0C       		.uleb128 0xc
 11910 0b4c 06       		.byte	0x6
 11911 0b4d 23       		.byte	0x23
 11912 0b4e 14       		.uleb128 0x14
 11913 0b4f 00       		.byte	0
 11914              	.LVUS89:
 11915 0b50 09       		.uleb128 .LVU736
 11916 0b51 00       		.uleb128 .LVU739
 11917              	.LLST89:
 11918 0b52 08       		.byte	0x8
 11919 0b53 F2000000 		.4byte	.LVL148
 11920 0b57 06       		.uleb128 .LVL150-.LVL148
 11921 0b58 03       		.uleb128 0x3
 11922 0b59 08       		.byte	0x8
 11923 0b5a 30       		.byte	0x30
 11924 0b5b 9F       		.byte	0x9f
 11925 0b5c 00       		.byte	0
 11926              	.LVUS90:
 11927 0b5d 0B       		.uleb128 .LVU755
 11928 0b5e 00       		.uleb128 .LVU757
 11929              	.LLST90:
 11930 0b5f 08       		.byte	0x8
 11931 0b60 00010000 		.4byte	.LVL152
 11932 0b64 04       		.uleb128 .LVL153-.LVL152
 11933 0b65 02       		.uleb128 0x2
 11934 0b66 30       		.byte	0x30
 11935 0b67 9F       		.byte	0x9f
 11936 0b68 00       		.byte	0
 11937              	.LVUS93:
 11938 0b69 01       		.uleb128 .LVU676
 11939 0b6a 00       		.uleb128 .LVU678
 11940 0b6b 00       		.uleb128 .LVU678
 11941 0b6c 00       		.uleb128 .LVU716
 11942              	.LLST93:
 11943 0b6d 06       		.byte	0x6
 11944 0b6e 96000000 		.4byte	.LVL139
 11945 0b72 04       		.byte	0x4
 11946 0b73 00       		.uleb128 .LVL139-.LVL139
 11947 0b74 04       		.uleb128 .LVL140-.LVL139
 11948 0b75 06       		.uleb128 0x6
 11949 0b76 77       		.byte	0x77
 11950 0b77 00       		.sleb128 0
 11951 0b78 75       		.byte	0x75
 11952 0b79 00       		.sleb128 0
 11953 0b7a 1C       		.byte	0x1c
 11954 0b7b 9F       		.byte	0x9f
 11955 0b7c 04       		.byte	0x4
 11956 0b7d 04       		.uleb128 .LVL140-.LVL139
 11957 0b7e 46       		.uleb128 .LVL146-.LVL139
 11958 0b7f 01       		.uleb128 0x1
 11959 0b80 5C       		.byte	0x5c
 11960 0b81 00       		.byte	0
ARM GAS  C:\Users\DEVELO~1\AppData\Local\Temp\cc0byXRH.s 			page 211


 11961              	.LVUS94:
 11962 0b82 00       		.uleb128 .LVU683
 11963 0b83 00       		.uleb128 .LVU694
 11964              	.LLST94:
 11965 0b84 08       		.byte	0x8
 11966 0b85 AE000000 		.4byte	.LVL142
 11967 0b89 18       		.uleb128 .LVL143-.LVL142
 11968 0b8a 01       		.uleb128 0x1
 11969 0b8b 5C       		.byte	0x5c
 11970 0b8c 00       		.byte	0
 11971              	.LVUS95:
 11972 0b8d 00       		.uleb128 .LVU683
 11973 0b8e 00       		.uleb128 .LVU694
 11974 0b8f 00       		.uleb128 .LVU694
 11975 0b90 02       		.uleb128 .LVU696
 11976 0b91 02       		.uleb128 .LVU696
 11977 0b92 00       		.uleb128 .LVU701
 11978 0b93 00       		.uleb128 .LVU701
 11979 0b94 00       		.uleb128 .LVU705
 11980              	.LLST95:
 11981 0b95 06       		.byte	0x6
 11982 0b96 AE000000 		.4byte	.LVL142
 11983 0b9a 04       		.byte	0x4
 11984 0b9b 00       		.uleb128 .LVL142-.LVL142
 11985 0b9c 18       		.uleb128 .LVL143-.LVL142
 11986 0b9d 01       		.uleb128 0x1
 11987 0b9e 54       		.byte	0x54
 11988 0b9f 04       		.byte	0x4
 11989 0ba0 18       		.uleb128 .LVL143-.LVL142
 11990 0ba1 18       		.uleb128 .LVL143-.LVL142
 11991 0ba2 01       		.uleb128 0x1
 11992 0ba3 53       		.byte	0x53
 11993 0ba4 04       		.byte	0x4
 11994 0ba5 18       		.uleb128 .LVL143-.LVL142
 11995 0ba6 1C       		.uleb128 .LVL144-.LVL142
 11996 0ba7 03       		.uleb128 0x3
 11997 0ba8 73       		.byte	0x73
 11998 0ba9 04       		.sleb128 4
 11999 0baa 9F       		.byte	0x9f
 12000 0bab 04       		.byte	0x4
 12001 0bac 1C       		.uleb128 .LVL144-.LVL142
 12002 0bad 22       		.uleb128 .LVL145-.LVL142
 12003 0bae 01       		.uleb128 0x1
 12004 0baf 53       		.byte	0x53
 12005 0bb0 00       		.byte	0
 12006              	.Ldebug_loc3:
 12007              		.section	.debug_aranges,"",%progbits
 12008 0000 B4000000 		.4byte	0xb4
 12009 0004 0200     		.2byte	0x2
 12010 0006 00000000 		.4byte	.Ldebug_info0
 12011 000a 04       		.byte	0x4
 12012 000b 00       		.byte	0
 12013 000c 0000     		.2byte	0
 12014 000e 0000     		.2byte	0
 12015 0010 00000000 		.4byte	.LFB463
 12016 0014 56000000 		.4byte	.LFE463-.LFB463
 12017 0018 00000000 		.4byte	.LFB447
ARM GAS  C:\Users\DEVELO~1\AppData\Local\Temp\cc0byXRH.s 			page 212


 12018 001c 20000000 		.4byte	.LFE447-.LFB447
 12019 0020 00000000 		.4byte	.LFB448
 12020 0024 EC000000 		.4byte	.LFE448-.LFB448
 12021 0028 00000000 		.4byte	.LFB449
 12022 002c 58000000 		.4byte	.LFE449-.LFB449
 12023 0030 00000000 		.4byte	.LFB450
 12024 0034 CC000000 		.4byte	.LFE450-.LFB450
 12025 0038 00000000 		.4byte	.LFB451
 12026 003c 1A000000 		.4byte	.LFE451-.LFB451
 12027 0040 00000000 		.4byte	.LFB452
 12028 0044 40010000 		.4byte	.LFE452-.LFB452
 12029 0048 00000000 		.4byte	.LFB453
 12030 004c 10000000 		.4byte	.LFE453-.LFB453
 12031 0050 00000000 		.4byte	.LFB454
 12032 0054 1C000000 		.4byte	.LFE454-.LFB454
 12033 0058 00000000 		.4byte	.LFB455
 12034 005c 1C000000 		.4byte	.LFE455-.LFB455
 12035 0060 00000000 		.4byte	.LFB456
 12036 0064 12000000 		.4byte	.LFE456-.LFB456
 12037 0068 00000000 		.4byte	.LFB457
 12038 006c 88000000 		.4byte	.LFE457-.LFB457
 12039 0070 00000000 		.4byte	.LFB467
 12040 0074 9C000000 		.4byte	.LFE467-.LFB467
 12041 0078 00000000 		.4byte	.LFB458
 12042 007c A8000000 		.4byte	.LFE458-.LFB458
 12043 0080 00000000 		.4byte	.LFB468
 12044 0084 10010000 		.4byte	.LFE468-.LFB468
 12045 0088 00000000 		.4byte	.LFB446
 12046 008c A8030000 		.4byte	.LFE446-.LFB446
 12047 0090 00000000 		.4byte	.LFB459
 12048 0094 16000000 		.4byte	.LFE459-.LFB459
 12049 0098 00000000 		.4byte	.LFB460
 12050 009c 16000000 		.4byte	.LFE460-.LFB460
 12051 00a0 00000000 		.4byte	.LFB461
 12052 00a4 16000000 		.4byte	.LFE461-.LFB461
 12053 00a8 00000000 		.4byte	.LFB462
 12054 00ac 16000000 		.4byte	.LFE462-.LFB462
 12055 00b0 00000000 		.4byte	0
 12056 00b4 00000000 		.4byte	0
 12057              		.section	.debug_rnglists,"",%progbits
 12058              	.Ldebug_ranges0:
 12059 0000 A9010000 		.4byte	.Ldebug_ranges3-.Ldebug_ranges2
 12060              	.Ldebug_ranges2:
 12061 0004 0500     		.2byte	0x5
 12062 0006 04       		.byte	0x4
 12063 0007 00       		.byte	0
 12064 0008 00000000 		.4byte	0
 12065              	.LLRL6:
 12066 000c 05       		.byte	0x5
 12067 000d 30000000 		.4byte	.LBB112
 12068 0011 04       		.byte	0x4
 12069 0012 00       		.uleb128 .LBB112-.LBB112
 12070 0013 02       		.uleb128 .LBE112-.LBB112
 12071 0014 04       		.byte	0x4
 12072 0015 04       		.uleb128 .LBB115-.LBB112
 12073 0016 08       		.uleb128 .LBE115-.LBB112
 12074 0017 00       		.byte	0
ARM GAS  C:\Users\DEVELO~1\AppData\Local\Temp\cc0byXRH.s 			page 213


 12075              	.LLRL9:
 12076 0018 05       		.byte	0x5
 12077 0019 82000000 		.4byte	.LBB118
 12078 001d 04       		.byte	0x4
 12079 001e 00       		.uleb128 .LBB118-.LBB118
 12080 001f 02       		.uleb128 .LBE118-.LBB118
 12081 0020 04       		.byte	0x4
 12082 0021 06       		.uleb128 .LBB121-.LBB118
 12083 0022 22       		.uleb128 .LBE121-.LBB118
 12084 0023 00       		.byte	0
 12085              	.LLRL20:
 12086 0024 05       		.byte	0x5
 12087 0025 02000000 		.4byte	.LBB143
 12088 0029 04       		.byte	0x4
 12089 002a 00       		.uleb128 .LBB143-.LBB143
 12090 002b 02       		.uleb128 .LBE143-.LBB143
 12091 002c 04       		.byte	0x4
 12092 002d 08       		.uleb128 .LBB151-.LBB143
 12093 002e 14       		.uleb128 .LBE151-.LBB143
 12094 002f 04       		.byte	0x4
 12095 0030 18       		.uleb128 .LBB152-.LBB143
 12096 0031 1C       		.uleb128 .LBE152-.LBB143
 12097 0032 00       		.byte	0
 12098              	.LLRL24:
 12099 0033 05       		.byte	0x5
 12100 0034 14000000 		.4byte	.LBB145
 12101 0038 04       		.byte	0x4
 12102 0039 00       		.uleb128 .LBB145-.LBB145
 12103 003a 02       		.uleb128 .LBE145-.LBB145
 12104 003b 04       		.byte	0x4
 12105 003c 06       		.uleb128 .LBB148-.LBB145
 12106 003d 0A       		.uleb128 .LBE148-.LBB145
 12107 003e 00       		.byte	0
 12108              	.LLRL26:
 12109 003f 05       		.byte	0x5
 12110 0040 52000000 		.4byte	.LBB153
 12111 0044 04       		.byte	0x4
 12112 0045 00       		.uleb128 .LBB153-.LBB153
 12113 0046 04       		.uleb128 .LBE153-.LBB153
 12114 0047 04       		.byte	0x4
 12115 0048 0A       		.uleb128 .LBB161-.LBB153
 12116 0049 0E       		.uleb128 .LBE161-.LBB153
 12117 004a 00       		.byte	0
 12118              	.LLRL28:
 12119 004b 05       		.byte	0x5
 12120 004c 56000000 		.4byte	.LBB156
 12121 0050 04       		.byte	0x4
 12122 0051 00       		.uleb128 .LBB156-.LBB156
 12123 0052 06       		.uleb128 .LBE156-.LBB156
 12124 0053 04       		.byte	0x4
 12125 0054 0C       		.uleb128 .LBB162-.LBB156
 12126 0055 1C       		.uleb128 .LBE162-.LBB156
 12127 0056 00       		.byte	0
 12128              	.LLRL32:
 12129 0057 05       		.byte	0x5
 12130 0058 8E000000 		.4byte	.LBB163
 12131 005c 04       		.byte	0x4
ARM GAS  C:\Users\DEVELO~1\AppData\Local\Temp\cc0byXRH.s 			page 214


 12132 005d 00       		.uleb128 .LBB163-.LBB163
 12133 005e 04       		.uleb128 .LBE163-.LBB163
 12134 005f 04       		.byte	0x4
 12135 0060 14       		.uleb128 .LBB167-.LBB163
 12136 0061 18       		.uleb128 .LBE167-.LBB163
 12137 0062 04       		.byte	0x4
 12138 0063 28       		.uleb128 .LBB168-.LBB163
 12139 0064 2C       		.uleb128 .LBE168-.LBB163
 12140 0065 00       		.byte	0
 12141              	.LLRL41:
 12142 0066 05       		.byte	0x5
 12143 0067 7A000000 		.4byte	.LBB179
 12144 006b 04       		.byte	0x4
 12145 006c 00       		.uleb128 .LBB179-.LBB179
 12146 006d 04       		.uleb128 .LBE179-.LBB179
 12147 006e 04       		.byte	0x4
 12148 006f 08       		.uleb128 .LBB184-.LBB179
 12149 0070 08       		.uleb128 .LBE184-.LBB179
 12150 0071 04       		.byte	0x4
 12151 0072 0A       		.uleb128 .LBB194-.LBB179
 12152 0073 0E       		.uleb128 .LBE194-.LBB179
 12153 0074 04       		.byte	0x4
 12154 0075 16       		.uleb128 .LBB196-.LBB179
 12155 0076 1A       		.uleb128 .LBE196-.LBB179
 12156 0077 00       		.byte	0
 12157              	.LLRL45:
 12158 0078 05       		.byte	0x5
 12159 0079 82000000 		.4byte	.LBB185
 12160 007d 04       		.byte	0x4
 12161 007e 00       		.uleb128 .LBB185-.LBB185
 12162 007f 02       		.uleb128 .LBE185-.LBB185
 12163 0080 04       		.byte	0x4
 12164 0081 06       		.uleb128 .LBB195-.LBB185
 12165 0082 0A       		.uleb128 .LBE195-.LBB185
 12166 0083 04       		.byte	0x4
 12167 0084 14       		.uleb128 .LBB197-.LBB185
 12168 0085 1C       		.uleb128 .LBE197-.LBB185
 12169 0086 04       		.byte	0x4
 12170 0087 20       		.uleb128 .LBB198-.LBB185
 12171 0088 26       		.uleb128 .LBE198-.LBB185
 12172 0089 00       		.byte	0
 12173              	.LLRL49:
 12174 008a 05       		.byte	0x5
 12175 008b 9E000000 		.4byte	.LBB187
 12176 008f 04       		.byte	0x4
 12177 0090 00       		.uleb128 .LBB187-.LBB187
 12178 0091 00       		.uleb128 .LBE187-.LBB187
 12179 0092 04       		.byte	0x4
 12180 0093 04       		.uleb128 .LBB190-.LBB187
 12181 0094 0A       		.uleb128 .LBE190-.LBB187
 12182 0095 00       		.byte	0
 12183              	.LLRL56:
 12184 0096 05       		.byte	0x5
 12185 0097 02000000 		.4byte	.LBB203
 12186 009b 04       		.byte	0x4
 12187 009c 00       		.uleb128 .LBB203-.LBB203
 12188 009d 00       		.uleb128 .LBE203-.LBB203
ARM GAS  C:\Users\DEVELO~1\AppData\Local\Temp\cc0byXRH.s 			page 215


 12189 009e 04       		.byte	0x4
 12190 009f 04       		.uleb128 .LBB206-.LBB203
 12191 00a0 0A       		.uleb128 .LBE206-.LBB203
 12192 00a1 00       		.byte	0
 12193              	.LLRL74:
 12194 00a2 05       		.byte	0x5
 12195 00a3 30000000 		.4byte	.LBB220
 12196 00a7 04       		.byte	0x4
 12197 00a8 00       		.uleb128 .LBB220-.LBB220
 12198 00a9 36       		.uleb128 .LBE220-.LBB220
 12199 00aa 04       		.byte	0x4
 12200 00ab 3A       		.uleb128 .LBB239-.LBB220
 12201 00ac 54       		.uleb128 .LBE239-.LBB220
 12202 00ad 00       		.byte	0
 12203              	.LLRL76:
 12204 00ae 05       		.byte	0x5
 12205 00af 70000000 		.4byte	.LBB221
 12206 00b3 04       		.byte	0x4
 12207 00b4 00       		.uleb128 .LBB221-.LBB221
 12208 00b5 02       		.uleb128 .LBE221-.LBB221
 12209 00b6 04       		.byte	0x4
 12210 00b7 04       		.uleb128 .LBB232-.LBB221
 12211 00b8 08       		.uleb128 .LBE232-.LBB221
 12212 00b9 00       		.byte	0
 12213              	.LLRL82:
 12214 00ba 05       		.byte	0x5
 12215 00bb 4E000000 		.4byte	.LBB240
 12216 00bf 04       		.byte	0x4
 12217 00c0 00       		.uleb128 .LBB240-.LBB240
 12218 00c1 28       		.uleb128 .LBE240-.LBB240
 12219 00c2 04       		.byte	0x4
 12220 00c3 54       		.uleb128 .LBB241-.LBB240
 12221 00c4 5A       		.uleb128 .LBE241-.LBB240
 12222 00c5 00       		.byte	0
 12223              	.LLRL87:
 12224 00c6 05       		.byte	0x5
 12225 00c7 2A000000 		.4byte	.LBB281
 12226 00cb 04       		.byte	0x4
 12227 00cc 00       		.uleb128 .LBB281-.LBB281
 12228 00cd 00       		.uleb128 .LBE281-.LBB281
 12229 00ce 04       		.byte	0x4
 12230 00cf 1A       		.uleb128 .LBB295-.LBB281
 12231 00d0 48       		.uleb128 .LBE295-.LBB281
 12232 00d1 04       		.byte	0x4
 12233 00d2 C001     		.uleb128 .LBB302-.LBB281
 12234 00d4 DC01     		.uleb128 .LBE302-.LBB281
 12235 00d6 00       		.byte	0
 12236              	.LLRL91:
 12237 00d7 05       		.byte	0x5
 12238 00d8 72000000 		.4byte	.LBB296
 12239 00dc 04       		.byte	0x4
 12240 00dd 00       		.uleb128 .LBB296-.LBB296
 12241 00de 78       		.uleb128 .LBE296-.LBB296
 12242 00df 04       		.byte	0x4
 12243 00e0 9401     		.uleb128 .LBB303-.LBB296
 12244 00e2 9E01     		.uleb128 .LBE303-.LBB296
 12245 00e4 00       		.byte	0
ARM GAS  C:\Users\DEVELO~1\AppData\Local\Temp\cc0byXRH.s 			page 216


 12246              	.LLRL92:
 12247 00e5 05       		.byte	0x5
 12248 00e6 72000000 		.4byte	.LBB297
 12249 00ea 04       		.byte	0x4
 12250 00eb 00       		.uleb128 .LBB297-.LBB297
 12251 00ec 68       		.uleb128 .LBE297-.LBB297
 12252 00ed 04       		.byte	0x4
 12253 00ee 68       		.uleb128 .LBB300-.LBB297
 12254 00ef 78       		.uleb128 .LBE300-.LBB297
 12255 00f0 04       		.byte	0x4
 12256 00f1 9401     		.uleb128 .LBB301-.LBB297
 12257 00f3 9E01     		.uleb128 .LBE301-.LBB297
 12258 00f5 00       		.byte	0
 12259              	.LLRL96:
 12260 00f6 05       		.byte	0x5
 12261 00f7 04000000 		.4byte	.LBB320
 12262 00fb 04       		.byte	0x4
 12263 00fc 00       		.uleb128 .LBB320-.LBB320
 12264 00fd 02       		.uleb128 .LBE320-.LBB320
 12265 00fe 04       		.byte	0x4
 12266 00ff 08       		.uleb128 .LBB343-.LBB320
 12267 0100 D201     		.uleb128 .LBE343-.LBB320
 12268 0102 04       		.byte	0x4
 12269 0103 E001     		.uleb128 .LBB344-.LBB320
 12270 0105 EA04     		.uleb128 .LBE344-.LBB320
 12271 0107 04       		.byte	0x4
 12272 0108 F804     		.uleb128 .LBB345-.LBB320
 12273 010a 8C05     		.uleb128 .LBE345-.LBB320
 12274 010c 04       		.byte	0x4
 12275 010d A405     		.uleb128 .LBB346-.LBB320
 12276 010f A407     		.uleb128 .LBE346-.LBB320
 12277 0111 00       		.byte	0
 12278              	.LLRL105:
 12279 0112 05       		.byte	0x5
 12280 0113 44010000 		.4byte	.LBB325
 12281 0117 04       		.byte	0x4
 12282 0118 00       		.uleb128 .LBB325-.LBB325
 12283 0119 06       		.uleb128 .LBE325-.LBB325
 12284 011a 04       		.byte	0x4
 12285 011b 06       		.uleb128 .LBB328-.LBB325
 12286 011c 18       		.uleb128 .LBE328-.LBB325
 12287 011d 00       		.byte	0
 12288              	.LLRL108:
 12289 011e 05       		.byte	0x5
 12290 011f B8010000 		.4byte	.LBB329
 12291 0123 04       		.byte	0x4
 12292 0124 00       		.uleb128 .LBB329-.LBB329
 12293 0125 56       		.uleb128 .LBE329-.LBB329
 12294 0126 04       		.byte	0x4
 12295 0127 F001     		.uleb128 .LBB338-.LBB329
 12296 0129 C402     		.uleb128 .LBE338-.LBB329
 12297 012b 00       		.byte	0
 12298              	.LLRL132:
 12299 012c 07       		.byte	0x7
 12300 012d 00000000 		.4byte	.LFB463
 12301 0131 56       		.uleb128 .LFE463-.LFB463
 12302 0132 07       		.byte	0x7
ARM GAS  C:\Users\DEVELO~1\AppData\Local\Temp\cc0byXRH.s 			page 217


 12303 0133 00000000 		.4byte	.LFB447
 12304 0137 20       		.uleb128 .LFE447-.LFB447
 12305 0138 07       		.byte	0x7
 12306 0139 00000000 		.4byte	.LFB448
 12307 013d EC01     		.uleb128 .LFE448-.LFB448
 12308 013f 07       		.byte	0x7
 12309 0140 00000000 		.4byte	.LFB449
 12310 0144 58       		.uleb128 .LFE449-.LFB449
 12311 0145 07       		.byte	0x7
 12312 0146 00000000 		.4byte	.LFB450
 12313 014a CC01     		.uleb128 .LFE450-.LFB450
 12314 014c 07       		.byte	0x7
 12315 014d 00000000 		.4byte	.LFB451
 12316 0151 1A       		.uleb128 .LFE451-.LFB451
 12317 0152 07       		.byte	0x7
 12318 0153 00000000 		.4byte	.LFB452
 12319 0157 C002     		.uleb128 .LFE452-.LFB452
 12320 0159 07       		.byte	0x7
 12321 015a 00000000 		.4byte	.LFB453
 12322 015e 10       		.uleb128 .LFE453-.LFB453
 12323 015f 07       		.byte	0x7
 12324 0160 00000000 		.4byte	.LFB454
 12325 0164 1C       		.uleb128 .LFE454-.LFB454
 12326 0165 07       		.byte	0x7
 12327 0166 00000000 		.4byte	.LFB455
 12328 016a 1C       		.uleb128 .LFE455-.LFB455
 12329 016b 07       		.byte	0x7
 12330 016c 00000000 		.4byte	.LFB456
 12331 0170 12       		.uleb128 .LFE456-.LFB456
 12332 0171 07       		.byte	0x7
 12333 0172 00000000 		.4byte	.LFB457
 12334 0176 8801     		.uleb128 .LFE457-.LFB457
 12335 0178 07       		.byte	0x7
 12336 0179 00000000 		.4byte	.LFB467
 12337 017d 9C01     		.uleb128 .LFE467-.LFB467
 12338 017f 07       		.byte	0x7
 12339 0180 00000000 		.4byte	.LFB458
 12340 0184 A801     		.uleb128 .LFE458-.LFB458
 12341 0186 07       		.byte	0x7
 12342 0187 00000000 		.4byte	.LFB468
 12343 018b 9002     		.uleb128 .LFE468-.LFB468
 12344 018d 07       		.byte	0x7
 12345 018e 00000000 		.4byte	.LFB446
 12346 0192 A807     		.uleb128 .LFE446-.LFB446
 12347 0194 07       		.byte	0x7
 12348 0195 00000000 		.4byte	.LFB459
 12349 0199 16       		.uleb128 .LFE459-.LFB459
 12350 019a 07       		.byte	0x7
 12351 019b 00000000 		.4byte	.LFB460
 12352 019f 16       		.uleb128 .LFE460-.LFB460
 12353 01a0 07       		.byte	0x7
 12354 01a1 00000000 		.4byte	.LFB461
 12355 01a5 16       		.uleb128 .LFE461-.LFB461
 12356 01a6 07       		.byte	0x7
 12357 01a7 00000000 		.4byte	.LFB462
 12358 01ab 16       		.uleb128 .LFE462-.LFB462
 12359 01ac 00       		.byte	0
ARM GAS  C:\Users\DEVELO~1\AppData\Local\Temp\cc0byXRH.s 			page 218


 12360              	.Ldebug_ranges3:
 12361              		.section	.debug_line,"",%progbits
 12362              	.Ldebug_line0:
 12363 0000 15150000 		.section	.debug_str,"MS",%progbits,1
 12363      0300B403 
 12363      00000201 
 12363      FB0E0D00 
 12363      01010101 
 12364              	.LASF319:
 12365 0000 474E5520 		.ascii	"GNU C17 11.3.1 20220712 -mcpu=cortex-m7 -mthumb -mf"
 12365      43313720 
 12365      31312E33 
 12365      2E312032 
 12365      30323230 
 12366 0033 6C6F6174 		.ascii	"loat-abi=soft -march=armv7e-m -ggdb -O2 -fomit-fram"
 12366      2D616269 
 12366      3D736F66 
 12366      74202D6D 
 12366      61726368 
 12367 0066 652D706F 		.ascii	"e-pointer -falign-functions=16 -ffunction-sections "
 12367      696E7465 
 12367      72202D66 
 12367      616C6967 
 12367      6E2D6675 
 12368 0099 2D666461 		.ascii	"-fdata-sections -fno-common\000"
 12368      74612D73 
 12368      65637469 
 12368      6F6E7320 
 12368      2D666E6F 
 12369              	.LASF55:
 12370 00b5 41504231 		.ascii	"APB1HRSTR\000"
 12370      48525354 
 12370      5200
 12371              	.LASF313:
 12372 00bf 706F7274 		.ascii	"port_unlock_from_isr\000"
 12372      5F756E6C 
 12372      6F636B5F 
 12372      66726F6D 
 12372      5F697372 
 12373              	.LASF152:
 12374 00d4 44494550 		.ascii	"DIEPTSIZ\000"
 12374      5453495A 
 12374      00
 12375              	.LASF254:
 12376 00dd 5F757362 		.ascii	"_usb_suspend\000"
 12376      5F737573 
 12376      70656E64 
 12376      00
 12377              	.LASF218:
 12378 00ea 74787369 		.ascii	"txsize\000"
 12378      7A6500
 12379              	.LASF190:
 12380 00f1 44434647 		.ascii	"DCFG\000"
 12380      00
 12381              	.LASF78:
 12382 00f6 41504232 		.ascii	"APB2LPENR\000"
 12382      4C50454E 
ARM GAS  C:\Users\DEVELO~1\AppData\Local\Temp\cc0byXRH.s 			page 219


 12382      5200
 12383              	.LASF262:
 12384 0100 7573625F 		.ascii	"usb_lld_stall_in\000"
 12384      6C6C645F 
 12384      7374616C 
 12384      6C5F696E 
 12384      00
 12385              	.LASF56:
 12386 0111 41504232 		.ascii	"APB2RSTR\000"
 12386      52535452 
 12386      00
 12387              	.LASF149:
 12388 011a 72657376 		.ascii	"resvd4\000"
 12388      643400
 12389              	.LASF106:
 12390 0121 5553425F 		.ascii	"USB_READY\000"
 12390      52454144 
 12390      5900
 12391              	.LASF20:
 12392 012b 48534943 		.ascii	"HSICFGR\000"
 12392      46475200 
 12393              	.LASF127:
 12394 0133 5553425F 		.ascii	"USB_EVENT_SUSPEND\000"
 12394      4556454E 
 12394      545F5355 
 12394      5350454E 
 12394      4400
 12395              	.LASF244:
 12396 0145 65703073 		.ascii	"ep0setup_buffer\000"
 12396      65747570 
 12396      5F627566 
 12396      66657200 
 12397              	.LASF36:
 12398 0155 504C4C33 		.ascii	"PLL3FRACR\000"
 12398      46524143 
 12398      5200
 12399              	.LASF151:
 12400 015f 72657376 		.ascii	"resvdC\000"
 12400      644300
 12401              	.LASF240:
 12402 0166 72657175 		.ascii	"requests_hook_cb\000"
 12402      65737473 
 12402      5F686F6F 
 12402      6B5F6362 
 12402      00
 12403              	.LASF321:
 12404 0177 433A5C43 		.ascii	"C:\\ChibiStudio\\chibios2111\\demos\\STM32\\RT-STM3"
 12404      68696269 
 12404      53747564 
 12404      696F5C63 
 12404      68696269 
 12405 01a5 32483734 		.ascii	"2H743ZI_REV_XY-NUCLEO144 - Copie\000"
 12405      335A495F 
 12405      5245565F 
 12405      58592D4E 
 12405      55434C45 
 12406              	.LASF0:
ARM GAS  C:\Users\DEVELO~1\AppData\Local\Temp\cc0byXRH.s 			page 220


 12407 01c6 756E7369 		.ascii	"unsigned int\000"
 12407      676E6564 
 12407      20696E74 
 12407      00
 12408              	.LASF76:
 12409 01d3 41504231 		.ascii	"APB1LLPENR\000"
 12409      4C4C5045 
 12409      4E5200
 12410              	.LASF294:
 12411 01de 6E657874 		.ascii	"next\000"
 12411      00
 12412              	.LASF287:
 12413 01e3 6F74675F 		.ascii	"otg_rxfifo_handler\000"
 12413      72786669 
 12413      666F5F68 
 12413      616E646C 
 12413      657200
 12414              	.LASF173:
 12415 01f6 72657376 		.ascii	"resvd34\000"
 12415      64333400 
 12416              	.LASF307:
 12417 01fe 6F73616C 		.ascii	"osalSysPolledDelayX\000"
 12417      53797350 
 12417      6F6C6C65 
 12417      6444656C 
 12417      61795800 
 12418              	.LASF27:
 12419 0212 44334346 		.ascii	"D3CFGR\000"
 12419      475200
 12420              	.LASF230:
 12421 0219 6F75745F 		.ascii	"out_cb\000"
 12421      636200
 12422              	.LASF47:
 12423 0220 42444352 		.ascii	"BDCR\000"
 12423      00
 12424              	.LASF144:
 12425 0225 72657376 		.ascii	"resvd14\000"
 12425      64313400 
 12426              	.LASF165:
 12427 022d 47494E54 		.ascii	"GINTSTS\000"
 12427      53545300 
 12428              	.LASF145:
 12429 0235 72657376 		.ascii	"resvd18\000"
 12429      64313800 
 12430              	.LASF174:
 12431 023d 47434346 		.ascii	"GCCFG\000"
 12431      4700
 12432              	.LASF21:
 12433 0243 43525243 		.ascii	"CRRCR\000"
 12433      5200
 12434              	.LASF154:
 12435 0249 72657376 		.ascii	"resvd1C\000"
 12435      64314300 
 12436              	.LASF215:
 12437 0251 6F74675F 		.ascii	"otg_ram_size\000"
 12437      72616D5F 
 12437      73697A65 
ARM GAS  C:\Users\DEVELO~1\AppData\Local\Temp\cc0byXRH.s 			page 221


 12437      00
 12438              	.LASF291:
 12439 025e 6F74675F 		.ascii	"otg_txfifo_handler\000"
 12439      74786669 
 12439      666F5F68 
 12439      616E646C 
 12439      657200
 12440              	.LASF81:
 12441 0271 5243435F 		.ascii	"RCC_TypeDef\000"
 12441      54797065 
 12441      44656600 
 12442              	.LASF227:
 12443 027d 65705F6D 		.ascii	"ep_mode\000"
 12443      6F646500 
 12444              	.LASF137:
 12445 0285 75736272 		.ascii	"usbreqhandler_t\000"
 12445      65716861 
 12445      6E646C65 
 12445      725F7400 
 12446              	.LASF261:
 12447 0295 75736270 		.ascii	"usbp\000"
 12447      00
 12448              	.LASF95:
 12449 029a 65703065 		.ascii	"ep0endcb\000"
 12449      6E646362 
 12449      00
 12450              	.LASF256:
 12451 02a3 5F757362 		.ascii	"_usb_reset\000"
 12451      5F726573 
 12451      657400
 12452              	.LASF35:
 12453 02ae 504C4C33 		.ascii	"PLL3DIVR\000"
 12453      44495652 
 12453      00
 12454              	.LASF136:
 12455 02b7 75736265 		.ascii	"usbeventcb_t\000"
 12455      76656E74 
 12455      63625F74 
 12455      00
 12456              	.LASF314:
 12457 02c4 706F7274 		.ascii	"port_lock_from_isr\000"
 12457      5F6C6F63 
 12457      6B5F6672 
 12457      6F6D5F69 
 12457      737200
 12458              	.LASF246:
 12459 02d7 66737061 		.ascii	"fsparams\000"
 12459      72616D73 
 12459      00
 12460              	.LASF40:
 12461 02e0 44324343 		.ascii	"D2CCIP2R\000"
 12461      49503252 
 12461      00
 12462              	.LASF120:
 12463 02e9 5553425F 		.ascii	"USB_EP0_OUT_RX\000"
 12463      4550305F 
 12463      4F55545F 
ARM GAS  C:\Users\DEVELO~1\AppData\Local\Temp\cc0byXRH.s 			page 222


 12463      525800
 12464              	.LASF183:
 12465 02f8 48505458 		.ascii	"HPTXSTS\000"
 12465      53545300 
 12466              	.LASF44:
 12467 0300 43494652 		.ascii	"CIFR\000"
 12467      00
 12468              	.LASF146:
 12469 0305 72657376 		.ascii	"resvd1c\000"
 12469      64316300 
 12470              	.LASF250:
 12471 030d 6E766963 		.ascii	"nvicDisableVector\000"
 12471      44697361 
 12471      626C6556 
 12471      6563746F 
 12471      7200
 12472              	.LASF18:
 12473 031f 706F7274 		.ascii	"port_rtcnt_t\000"
 12473      5F727463 
 12473      6E745F74 
 12473      00
 12474              	.LASF73:
 12475 032c 41484232 		.ascii	"AHB2LPENR\000"
 12475      4C50454E 
 12475      5200
 12476              	.LASF312:
 12477 0336 63685379 		.ascii	"chSysLockFromISR\000"
 12477      734C6F63 
 12477      6B46726F 
 12477      6D495352 
 12477      00
 12478              	.LASF200:
 12479 0347 44564255 		.ascii	"DVBUSDIS\000"
 12479      53444953 
 12479      00
 12480              	.LASF163:
 12481 0350 47555342 		.ascii	"GUSBCFG\000"
 12481      43464700 
 12482              	.LASF123:
 12483 0358 5553425F 		.ascii	"USB_EVENT_RESET\000"
 12483      4556454E 
 12483      545F5245 
 12483      53455400 
 12484              	.LASF223:
 12485 0368 72787369 		.ascii	"rxsize\000"
 12485      7A6500
 12486              	.LASF65:
 12487 036f 41504233 		.ascii	"APB3ENR\000"
 12487      454E5200 
 12488              	.LASF216:
 12489 0377 6E756D5F 		.ascii	"num_endpoints\000"
 12489      656E6470 
 12489      6F696E74 
 12489      7300
 12490              	.LASF182:
 12491 0385 72657376 		.ascii	"resvd40C\000"
 12491      64343043 
ARM GAS  C:\Users\DEVELO~1\AppData\Local\Temp\cc0byXRH.s 			page 223


 12491      00
 12492              	.LASF282:
 12493 038e 6F74675F 		.ascii	"otg_isoc_out_failed_handler\000"
 12493      69736F63 
 12493      5F6F7574 
 12493      5F666169 
 12493      6C65645F 
 12494              	.LASF3:
 12495 03aa 7369676E 		.ascii	"signed char\000"
 12495      65642063 
 12495      68617200 
 12496              	.LASF178:
 12497 03b6 72657376 		.ascii	"resvd140\000"
 12497      64313430 
 12497      00
 12498              	.LASF17:
 12499 03bf 75696E74 		.ascii	"uint32_t\000"
 12499      33325F74 
 12499      00
 12500              	.LASF186:
 12501 03c8 72657376 		.ascii	"resvd41C\000"
 12501      64343143 
 12501      00
 12502              	.LASF203:
 12503 03d1 44494550 		.ascii	"DIEPEMPMSK\000"
 12503      454D504D 
 12503      534B00
 12504              	.LASF131:
 12505 03dc 75645F73 		.ascii	"ud_size\000"
 12505      697A6500 
 12506              	.LASF82:
 12507 03e4 666C6F61 		.ascii	"float\000"
 12507      7400
 12508              	.LASF290:
 12509 03ea 6F74675F 		.ascii	"otg_fifo_write_from_buffer\000"
 12509      6669666F 
 12509      5F777269 
 12509      74655F66 
 12509      726F6D5F 
 12510              	.LASF172:
 12511 0405 72657376 		.ascii	"resvd30\000"
 12511      64333000 
 12512              	.LASF62:
 12513 040d 41484231 		.ascii	"AHB1ENR\000"
 12513      454E5200 
 12514              	.LASF125:
 12515 0415 5553425F 		.ascii	"USB_EVENT_CONFIGURED\000"
 12515      4556454E 
 12515      545F434F 
 12515      4E464947 
 12515      55524544 
 12516              	.LASF207:
 12517 042a 72657376 		.ascii	"resvd880\000"
 12517      64383830 
 12517      00
 12518              	.LASF96:
 12519 0433 73657475 		.ascii	"setup\000"
ARM GAS  C:\Users\DEVELO~1\AppData\Local\Temp\cc0byXRH.s 			page 224


 12519      7000
 12520              	.LASF111:
 12521 0439 45505F53 		.ascii	"EP_STATUS_DISABLED\000"
 12521      54415455 
 12521      535F4449 
 12521      5341424C 
 12521      454400
 12522              	.LASF13:
 12523 044c 6C6F6E67 		.ascii	"long long unsigned int\000"
 12523      206C6F6E 
 12523      6720756E 
 12523      7369676E 
 12523      65642069 
 12524              	.LASF219:
 12525 0463 7478636E 		.ascii	"txcnt\000"
 12525      7400
 12526              	.LASF112:
 12527 0469 45505F53 		.ascii	"EP_STATUS_STALLED\000"
 12527      54415455 
 12527      535F5354 
 12527      414C4C45 
 12527      4400
 12528              	.LASF169:
 12529 047b 47525846 		.ascii	"GRXFSIZ\000"
 12529      53495A00 
 12530              	.LASF88:
 12531 0483 7472616E 		.ascii	"transmitting\000"
 12531      736D6974 
 12531      74696E67 
 12531      00
 12532              	.LASF237:
 12533 0490 55534245 		.ascii	"USBEndpointConfig\000"
 12533      6E64706F 
 12533      696E7443 
 12533      6F6E6669 
 12533      6700
 12534              	.LASF11:
 12535 04a2 5F5F7569 		.ascii	"__uint32_t\000"
 12535      6E743332 
 12535      5F7400
 12536              	.LASF8:
 12537 04ad 5F5F7569 		.ascii	"__uint16_t\000"
 12537      6E743136 
 12537      5F7400
 12538              	.LASF247:
 12539 04b8 5F757362 		.ascii	"_usb_ep0out\000"
 12539      5F657030 
 12539      6F757400 
 12540              	.LASF231:
 12541 04c4 696E5F6D 		.ascii	"in_maxsize\000"
 12541      61787369 
 12541      7A6500
 12542              	.LASF297:
 12543 04cf 6F74675F 		.ascii	"otg_txfifo_flush\000"
 12543      74786669 
 12543      666F5F66 
 12543      6C757368 
ARM GAS  C:\Users\DEVELO~1\AppData\Local\Temp\cc0byXRH.s 			page 225


 12543      00
 12544              	.LASF117:
 12545 04e0 5553425F 		.ascii	"USB_EP0_IN_WAITING_TX0\000"
 12545      4550305F 
 12545      494E5F57 
 12545      41495449 
 12545      4E475F54 
 12546              	.LASF49:
 12547 04f7 41484233 		.ascii	"AHB3RSTR\000"
 12547      52535452 
 12547      00
 12548              	.LASF158:
 12549 0500 444F4550 		.ascii	"DOEPTSIZ\000"
 12549      5453495A 
 12549      00
 12550              	.LASF187:
 12551 0509 48505254 		.ascii	"HPRT\000"
 12551      00
 12552              	.LASF318:
 12553 050e 62617365 		.ascii	"basePri\000"
 12553      50726900 
 12554              	.LASF189:
 12555 0516 72657376 		.ascii	"resvd700\000"
 12555      64373030 
 12555      00
 12556              	.LASF315:
 12557 051f 706F7274 		.ascii	"port_unlock\000"
 12557      5F756E6C 
 12557      6F636B00 
 12558              	.LASF311:
 12559 052b 63685379 		.ascii	"chSysUnlockFromISR\000"
 12559      73556E6C 
 12559      6F636B46 
 12559      726F6D49 
 12559      535200
 12560              	.LASF155:
 12561 053e 73746D33 		.ascii	"stm32_otg_in_ep_t\000"
 12561      325F6F74 
 12561      675F696E 
 12561      5F65705F 
 12561      7400
 12562              	.LASF192:
 12563 0550 44535453 		.ascii	"DSTS\000"
 12563      00
 12564              	.LASF79:
 12565 0555 41504234 		.ascii	"APB4LPENR\000"
 12565      4C50454E 
 12565      5200
 12566              	.LASF4:
 12567 055f 73697A65 		.ascii	"size_t\000"
 12567      5F7400
 12568              	.LASF310:
 12569 0566 6F73616C 		.ascii	"osalSysLockFromISR\000"
 12569      5379734C 
 12569      6F636B46 
 12569      726F6D49 
 12569      535200
ARM GAS  C:\Users\DEVELO~1\AppData\Local\Temp\cc0byXRH.s 			page 226


 12570              	.LASF269:
 12571 0579 7573625F 		.ascii	"usb_lld_get_status_in\000"
 12571      6C6C645F 
 12571      6765745F 
 12571      73746174 
 12571      75735F69 
 12572              	.LASF99:
 12573 058f 636F6E66 		.ascii	"configuration\000"
 12573      69677572 
 12573      6174696F 
 12573      6E00
 12574              	.LASF108:
 12575 059d 5553425F 		.ascii	"USB_ACTIVE\000"
 12575      41435449 
 12575      564500
 12576              	.LASF115:
 12577 05a8 5553425F 		.ascii	"USB_EP0_STP_WAITING\000"
 12577      4550305F 
 12577      5354505F 
 12577      57414954 
 12577      494E4700 
 12578              	.LASF84:
 12579 05bc 5F426F6F 		.ascii	"_Bool\000"
 12579      6C00
 12580              	.LASF214:
 12581 05c2 72785F66 		.ascii	"rx_fifo_size\000"
 12581      69666F5F 
 12581      73697A65 
 12581      00
 12582              	.LASF179:
 12583 05cf 48434647 		.ascii	"HCFG\000"
 12583      00
 12584              	.LASF285:
 12585 05d4 6570696E 		.ascii	"epint\000"
 12585      7400
 12586              	.LASF57:
 12587 05da 41504234 		.ascii	"APB4RSTR\000"
 12587      52535452 
 12587      00
 12588              	.LASF139:
 12589 05e3 48434348 		.ascii	"HCCHAR\000"
 12589      415200
 12590              	.LASF175:
 12591 05ea 72657376 		.ascii	"resvd58\000"
 12591      64353800 
 12592              	.LASF273:
 12593 05f2 6673697A 		.ascii	"fsize\000"
 12593      6500
 12594              	.LASF159:
 12595 05f8 73746D33 		.ascii	"stm32_otg_out_ep_t\000"
 12595      325F6F74 
 12595      675F6F75 
 12595      745F6570 
 12595      5F7400
 12596              	.LASF277:
 12597 060b 7573625F 		.ascii	"usb_lld_stop\000"
 12597      6C6C645F 
ARM GAS  C:\Users\DEVELO~1\AppData\Local\Temp\cc0byXRH.s 			page 227


 12597      73746F70 
 12597      00
 12598              	.LASF143:
 12599 0618 48435453 		.ascii	"HCTSIZ\000"
 12599      495A00
 12600              	.LASF61:
 12601 061f 41484233 		.ascii	"AHB3ENR\000"
 12601      454E5200 
 12602              	.LASF188:
 12603 0627 72657376 		.ascii	"resvd444\000"
 12603      64343434 
 12603      00
 12604              	.LASF39:
 12605 0630 44324343 		.ascii	"D2CCIP1R\000"
 12605      49503152 
 12605      00
 12606              	.LASF195:
 12607 0639 444F4550 		.ascii	"DOEPMSK\000"
 12607      4D534B00 
 12608              	.LASF124:
 12609 0641 5553425F 		.ascii	"USB_EVENT_ADDRESS\000"
 12609      4556454E 
 12609      545F4144 
 12609      44524553 
 12609      5300
 12610              	.LASF185:
 12611 0653 4841494E 		.ascii	"HAINTMSK\000"
 12611      544D534B 
 12611      00
 12612              	.LASF286:
 12613 065c 6F74675F 		.ascii	"otg_epin_handler\000"
 12613      6570696E 
 12613      5F68616E 
 12613      646C6572 
 12613      00
 12614              	.LASF14:
 12615 066d 63686172 		.ascii	"char\000"
 12615      00
 12616              	.LASF142:
 12617 0672 4843494E 		.ascii	"HCINTMSK\000"
 12617      544D534B 
 12617      00
 12618              	.LASF74:
 12619 067b 41484234 		.ascii	"AHB4LPENR\000"
 12619      4C50454E 
 12619      5200
 12620              	.LASF34:
 12621 0685 504C4C32 		.ascii	"PLL2FRACR\000"
 12621      46524143 
 12621      5200
 12622              	.LASF233:
 12623 068f 696E5F73 		.ascii	"in_state\000"
 12623      74617465 
 12623      00
 12624              	.LASF164:
 12625 0698 47525354 		.ascii	"GRSTCTL\000"
 12625      43544C00 
ARM GAS  C:\Users\DEVELO~1\AppData\Local\Temp\cc0byXRH.s 			page 228


 12626              	.LASF252:
 12627 06a0 7573624F 		.ascii	"usbObjectInit\000"
 12627      626A6563 
 12627      74496E69 
 12627      7400
 12628              	.LASF104:
 12629 06ae 5553425F 		.ascii	"USB_UNINIT\000"
 12629      554E494E 
 12629      495400
 12630              	.LASF26:
 12631 06b9 44324346 		.ascii	"D2CFGR\000"
 12631      475200
 12632              	.LASF93:
 12633 06c0 6570306E 		.ascii	"ep0next\000"
 12633      65787400 
 12634              	.LASF300:
 12635 06c8 6F74675F 		.ascii	"otg_disable_ep\000"
 12635      64697361 
 12635      626C655F 
 12635      657000
 12636              	.LASF306:
 12637 06d7 5F5F7263 		.ascii	"__rccResetAHB1\000"
 12637      63526573 
 12637      65744148 
 12637      423100
 12638              	.LASF305:
 12639 06e6 72636345 		.ascii	"rccEnableAHB1\000"
 12639      6E61626C 
 12639      65414842 
 12639      3100
 12640              	.LASF30:
 12641 06f4 504C4C43 		.ascii	"PLLCFGR\000"
 12641      46475200 
 12642              	.LASF15:
 12643 06fc 75696E74 		.ascii	"uint8_t\000"
 12643      385F7400 
 12644              	.LASF97:
 12645 0704 73746174 		.ascii	"status\000"
 12645      757300
 12646              	.LASF276:
 12647 070b 7573625F 		.ascii	"usb_lld_reset\000"
 12647      6C6C645F 
 12647      72657365 
 12647      7400
 12648              	.LASF209:
 12649 0719 72657376 		.ascii	"resvdD00\000"
 12649      64443030 
 12649      00
 12650              	.LASF229:
 12651 0722 696E5F63 		.ascii	"in_cb\000"
 12651      6200
 12652              	.LASF275:
 12653 0728 7573625F 		.ascii	"usb_lld_set_address\000"
 12653      6C6C645F 
 12653      7365745F 
 12653      61646472 
 12653      65737300 
ARM GAS  C:\Users\DEVELO~1\AppData\Local\Temp\cc0byXRH.s 			page 229


 12654              	.LASF33:
 12655 073c 504C4C32 		.ascii	"PLL2DIVR\000"
 12655      44495652 
 12655      00
 12656              	.LASF272:
 12657 0745 7573625F 		.ascii	"usb_lld_init_endpoint\000"
 12657      6C6C645F 
 12657      696E6974 
 12657      5F656E64 
 12657      706F696E 
 12658              	.LASF278:
 12659 075b 7573625F 		.ascii	"usb_lld_start\000"
 12659      6C6C645F 
 12659      73746172 
 12659      7400
 12660              	.LASF323:
 12661 0769 5F5F706F 		.ascii	"__port_irq_epilogue\000"
 12661      72745F69 
 12661      72715F65 
 12661      70696C6F 
 12661      67756500 
 12662              	.LASF110:
 12663 077d 75736273 		.ascii	"usbstate_t\000"
 12663      74617465 
 12663      5F7400
 12664              	.LASF274:
 12665 0788 6F746770 		.ascii	"otgp\000"
 12665      00
 12666              	.LASF259:
 12667 078d 7573625F 		.ascii	"usb_lld_clear_in\000"
 12667      6C6C645F 
 12667      636C6561 
 12667      725F696E 
 12667      00
 12668              	.LASF1:
 12669 079e 6C6F6E67 		.ascii	"long long int\000"
 12669      206C6F6E 
 12669      6720696E 
 12669      7400
 12670              	.LASF157:
 12671 07ac 444F4550 		.ascii	"DOEPINT\000"
 12671      494E5400 
 12672              	.LASF156:
 12673 07b4 444F4550 		.ascii	"DOEPCTL\000"
 12673      43544C00 
 12674              	.LASF217:
 12675 07bc 73746D33 		.ascii	"stm32_otg_params_t\000"
 12675      325F6F74 
 12675      675F7061 
 12675      72616D73 
 12675      5F7400
 12676              	.LASF83:
 12677 07cf 646F7562 		.ascii	"double\000"
 12677      6C6500
 12678              	.LASF292:
 12679 07d6 6F74675F 		.ascii	"otg_ram_alloc\000"
 12679      72616D5F 
ARM GAS  C:\Users\DEVELO~1\AppData\Local\Temp\cc0byXRH.s 			page 230


 12679      616C6C6F 
 12679      6300
 12680              	.LASF94:
 12681 07e4 6570306E 		.ascii	"ep0n\000"
 12681      00
 12682              	.LASF184:
 12683 07e9 4841494E 		.ascii	"HAINT\000"
 12683      5400
 12684              	.LASF234:
 12685 07ef 6F75745F 		.ascii	"out_state\000"
 12685      73746174 
 12685      6500
 12686              	.LASF89:
 12687 07f9 72656365 		.ascii	"receiving\000"
 12687      6976696E 
 12687      6700
 12688              	.LASF281:
 12689 0803 7573625F 		.ascii	"usb_lld_serve_interrupt\000"
 12689      6C6C645F 
 12689      73657276 
 12689      655F696E 
 12689      74657272 
 12690              	.LASF255:
 12691 081b 5F757362 		.ascii	"_usb_wakeup\000"
 12691      5F77616B 
 12691      65757000 
 12692              	.LASF90:
 12693 0827 696E5F70 		.ascii	"in_params\000"
 12693      6172616D 
 12693      7300
 12694              	.LASF153:
 12695 0831 44545846 		.ascii	"DTXFSTS\000"
 12695      53545300 
 12696              	.LASF304:
 12697 0839 72636344 		.ascii	"rccDisableAHB1\000"
 12697      69736162 
 12697      6C654148 
 12697      423100
 12698              	.LASF64:
 12699 0848 41484234 		.ascii	"AHB4ENR\000"
 12699      454E5200 
 12700              	.LASF241:
 12701 0850 736F665F 		.ascii	"sof_cb\000"
 12701      636200
 12702              	.LASF293:
 12703 0857 73697A65 		.ascii	"size\000"
 12703      00
 12704              	.LASF147:
 12705 085c 73746D33 		.ascii	"stm32_otg_host_chn_t\000"
 12705      325F6F74 
 12705      675F686F 
 12705      73745F63 
 12705      686E5F74 
 12706              	.LASF2:
 12707 0871 6C6F6E67 		.ascii	"long double\000"
 12707      20646F75 
 12707      626C6500 
ARM GAS  C:\Users\DEVELO~1\AppData\Local\Temp\cc0byXRH.s 			page 231


 12708              	.LASF264:
 12709 087d 7573625F 		.ascii	"usb_lld_start_in\000"
 12709      6C6C645F 
 12709      73746172 
 12709      745F696E 
 12709      00
 12710              	.LASF129:
 12711 088e 5553425F 		.ascii	"USB_EVENT_STALLED\000"
 12711      4556454E 
 12711      545F5354 
 12711      414C4C45 
 12711      4400
 12712              	.LASF7:
 12713 08a0 73686F72 		.ascii	"short int\000"
 12713      7420696E 
 12713      7400
 12714              	.LASF303:
 12715 08aa 6D61736B 		.ascii	"mask\000"
 12715      00
 12716              	.LASF212:
 12717 08af 4649464F 		.ascii	"FIFO\000"
 12717      00
 12718              	.LASF109:
 12719 08b4 5553425F 		.ascii	"USB_SUSPENDED\000"
 12719      53555350 
 12719      454E4445 
 12719      4400
 12720              	.LASF236:
 12721 08c2 73657475 		.ascii	"setup_buf\000"
 12721      705F6275 
 12721      6600
 12722              	.LASF249:
 12723 08cc 5F757362 		.ascii	"_usb_ep0setup\000"
 12723      5F657030 
 12723      73657475 
 12723      7000
 12724              	.LASF201:
 12725 08da 44564255 		.ascii	"DVBUSPULSE\000"
 12725      5350554C 
 12725      534500
 12726              	.LASF245:
 12727 08e5 65703063 		.ascii	"ep0config\000"
 12727      6F6E6669 
 12727      6700
 12728              	.LASF126:
 12729 08ef 5553425F 		.ascii	"USB_EVENT_UNCONFIGURED\000"
 12729      4556454E 
 12729      545F554E 
 12729      434F4E46 
 12729      49475552 
 12730              	.LASF59:
 12731 0906 4433414D 		.ascii	"D3AMR\000"
 12731      5200
 12732              	.LASF133:
 12733 090c 55534244 		.ascii	"USBDescriptor\000"
 12733      65736372 
 12733      6970746F 
ARM GAS  C:\Users\DEVELO~1\AppData\Local\Temp\cc0byXRH.s 			page 232


 12733      7200
 12734              	.LASF239:
 12735 091a 6765745F 		.ascii	"get_descriptor_cb\000"
 12735      64657363 
 12735      72697074 
 12735      6F725F63 
 12735      6200
 12736              	.LASF54:
 12737 092c 41504231 		.ascii	"APB1LRSTR\000"
 12737      4C525354 
 12737      5200
 12738              	.LASF72:
 12739 0936 41484231 		.ascii	"AHB1LPENR\000"
 12739      4C50454E 
 12739      5200
 12740              	.LASF284:
 12741 0940 6F74675F 		.ascii	"otg_epout_handler\000"
 12741      65706F75 
 12741      745F6861 
 12741      6E646C65 
 12741      7200
 12742              	.LASF299:
 12743 0952 6F74675F 		.ascii	"otg_rxfifo_flush\000"
 12743      72786669 
 12743      666F5F66 
 12743      6C757368 
 12743      00
 12744              	.LASF92:
 12745 0963 65703073 		.ascii	"ep0state\000"
 12745      74617465 
 12745      00
 12746              	.LASF242:
 12747 096c 55534243 		.ascii	"USBConfig\000"
 12747      6F6E6669 
 12747      6700
 12748              	.LASF116:
 12749 0976 5553425F 		.ascii	"USB_EP0_IN_TX\000"
 12749      4550305F 
 12749      494E5F54 
 12749      5800
 12750              	.LASF301:
 12751 0984 6F74675F 		.ascii	"otg_core_reset\000"
 12751      636F7265 
 12751      5F726573 
 12751      657400
 12752              	.LASF16:
 12753 0993 75696E74 		.ascii	"uint16_t\000"
 12753      31365F74 
 12753      00
 12754              	.LASF162:
 12755 099c 47414842 		.ascii	"GAHBCFG\000"
 12755      43464700 
 12756              	.LASF213:
 12757 09a4 73746D33 		.ascii	"stm32_otg_t\000"
 12757      325F6F74 
 12757      675F7400 
 12758              	.LASF283:
ARM GAS  C:\Users\DEVELO~1\AppData\Local\Temp\cc0byXRH.s 			page 233


 12759 09b0 6F74675F 		.ascii	"otg_isoc_in_failed_handler\000"
 12759      69736F63 
 12759      5F696E5F 
 12759      6661696C 
 12759      65645F68 
 12760              	.LASF253:
 12761 09cb 63685379 		.ascii	"chSysPolledDelayX\000"
 12761      73506F6C 
 12761      6C656444 
 12761      656C6179 
 12761      5800
 12762              	.LASF51:
 12763 09dd 41484232 		.ascii	"AHB2RSTR\000"
 12763      52535452 
 12763      00
 12764              	.LASF270:
 12765 09e6 7573625F 		.ascii	"usb_lld_get_status_out\000"
 12765      6C6C645F 
 12765      6765745F 
 12765      73746174 
 12765      75735F6F 
 12766              	.LASF166:
 12767 09fd 47494E54 		.ascii	"GINTMSK\000"
 12767      4D534B00 
 12768              	.LASF19:
 12769 0a05 7274636E 		.ascii	"rtcnt_t\000"
 12769      745F7400 
 12770              	.LASF268:
 12771 0a0d 7573625F 		.ascii	"usb_lld_read_setup\000"
 12771      6C6C645F 
 12771      72656164 
 12771      5F736574 
 12771      757000
 12772              	.LASF176:
 12773 0a20 48505458 		.ascii	"HPTXFSIZ\000"
 12773      4653495A 
 12773      00
 12774              	.LASF251:
 12775 0a29 6E766963 		.ascii	"nvicEnableVector\000"
 12775      456E6162 
 12775      6C655665 
 12775      63746F72 
 12775      00
 12776              	.LASF45:
 12777 0a3a 43494352 		.ascii	"CICR\000"
 12777      00
 12778              	.LASF6:
 12779 0a3f 756E7369 		.ascii	"unsigned char\000"
 12779      676E6564 
 12779      20636861 
 12779      7200
 12780              	.LASF87:
 12781 0a4d 636F6E66 		.ascii	"config\000"
 12781      696700
 12782              	.LASF119:
 12783 0a54 5553425F 		.ascii	"USB_EP0_OUT_WAITING_STS\000"
 12783      4550305F 
ARM GAS  C:\Users\DEVELO~1\AppData\Local\Temp\cc0byXRH.s 			page 234


 12783      4F55545F 
 12783      57414954 
 12783      494E475F 
 12784              	.LASF24:
 12785 0a6c 52455345 		.ascii	"RESERVED1\000"
 12785      52564544 
 12785      3100
 12786              	.LASF28:
 12787 0a76 52455345 		.ascii	"RESERVED2\000"
 12787      52564544 
 12787      3200
 12788              	.LASF37:
 12789 0a80 52455345 		.ascii	"RESERVED3\000"
 12789      52564544 
 12789      3300
 12790              	.LASF42:
 12791 0a8a 52455345 		.ascii	"RESERVED4\000"
 12791      52564544 
 12791      3400
 12792              	.LASF46:
 12793 0a94 52455345 		.ascii	"RESERVED5\000"
 12793      52564544 
 12793      3500
 12794              	.LASF48:
 12795 0a9e 52455345 		.ascii	"RESERVED6\000"
 12795      52564544 
 12795      3600
 12796              	.LASF141:
 12797 0aa8 4843494E 		.ascii	"HCINT\000"
 12797      5400
 12798              	.LASF58:
 12799 0aae 52455345 		.ascii	"RESERVED8\000"
 12799      52564544 
 12799      3800
 12800              	.LASF248:
 12801 0ab8 5F757362 		.ascii	"_usb_ep0in\000"
 12801      5F657030 
 12801      696E00
 12802              	.LASF75:
 12803 0ac3 41504233 		.ascii	"APB3LPENR\000"
 12803      4C50454E 
 12803      5200
 12804              	.LASF67:
 12805 0acd 41504231 		.ascii	"APB1HENR\000"
 12805      48454E52 
 12805      00
 12806              	.LASF91:
 12807 0ad6 6F75745F 		.ascii	"out_params\000"
 12807      70617261 
 12807      6D7300
 12808              	.LASF296:
 12809 0ae1 6F74675F 		.ascii	"otg_ram_reset\000"
 12809      72616D5F 
 12809      72657365 
 12809      7400
 12810              	.LASF10:
 12811 0aef 6C6F6E67 		.ascii	"long int\000"
ARM GAS  C:\Users\DEVELO~1\AppData\Local\Temp\cc0byXRH.s 			page 235


 12811      20696E74 
 12811      00
 12812              	.LASF226:
 12813 0af8 5553424F 		.ascii	"USBOutEndpointState\000"
 12813      7574456E 
 12813      64706F69 
 12813      6E745374 
 12813      61746500 
 12814              	.LASF148:
 12815 0b0c 44494550 		.ascii	"DIEPCTL\000"
 12815      43544C00 
 12816              	.LASF100:
 12817 0b14 73617665 		.ascii	"saved_state\000"
 12817      645F7374 
 12817      61746500 
 12818              	.LASF53:
 12819 0b20 41504233 		.ascii	"APB3RSTR\000"
 12819      52535452 
 12819      00
 12820              	.LASF138:
 12821 0b29 75736267 		.ascii	"usbgetdescriptor_t\000"
 12821      65746465 
 12821      73637269 
 12821      70746F72 
 12821      5F7400
 12822              	.LASF68:
 12823 0b3c 41504232 		.ascii	"APB2ENR\000"
 12823      454E5200 
 12824              	.LASF317:
 12825 0b44 5F5F7365 		.ascii	"__set_BASEPRI\000"
 12825      745F4241 
 12825      53455052 
 12825      4900
 12826              	.LASF220:
 12827 0b52 74786275 		.ascii	"txbuf\000"
 12827      6600
 12828              	.LASF193:
 12829 0b58 72657376 		.ascii	"resvd80C\000"
 12829      64383043 
 12829      00
 12830              	.LASF38:
 12831 0b61 44314343 		.ascii	"D1CCIPR\000"
 12831      49505200 
 12832              	.LASF288:
 12833 0b69 6F74675F 		.ascii	"otg_fifo_read_to_buffer\000"
 12833      6669666F 
 12833      5F726561 
 12833      645F746F 
 12833      5F627566 
 12834              	.LASF23:
 12835 0b81 43464752 		.ascii	"CFGR\000"
 12835      00
 12836              	.LASF210:
 12837 0b86 50434743 		.ascii	"PCGCCTL\000"
 12837      43544C00 
 12838              	.LASF309:
 12839 0b8e 6F73616C 		.ascii	"osalSysUnlockFromISR\000"
ARM GAS  C:\Users\DEVELO~1\AppData\Local\Temp\cc0byXRH.s 			page 236


 12839      53797355 
 12839      6E6C6F63 
 12839      6B46726F 
 12839      6D495352 
 12840              	.LASF107:
 12841 0ba3 5553425F 		.ascii	"USB_SELECTED\000"
 12841      53454C45 
 12841      43544544 
 12841      00
 12842              	.LASF69:
 12843 0bb0 41504234 		.ascii	"APB4ENR\000"
 12843      454E5200 
 12844              	.LASF5:
 12845 0bb8 5F5F7569 		.ascii	"__uint8_t\000"
 12845      6E74385F 
 12845      7400
 12846              	.LASF135:
 12847 0bc2 75736265 		.ascii	"usbepcallback_t\000"
 12847      7063616C 
 12847      6C626163 
 12847      6B5F7400 
 12848              	.LASF113:
 12849 0bd2 45505F53 		.ascii	"EP_STATUS_ACTIVE\000"
 12849      54415455 
 12849      535F4143 
 12849      54495645 
 12849      00
 12850              	.LASF170:
 12851 0be3 44494550 		.ascii	"DIEPTXF0\000"
 12851      54584630 
 12851      00
 12852              	.LASF29:
 12853 0bec 504C4C43 		.ascii	"PLLCKSELR\000"
 12853      4B53454C 
 12853      5200
 12854              	.LASF161:
 12855 0bf6 474F5447 		.ascii	"GOTGINT\000"
 12855      494E5400 
 12856              	.LASF160:
 12857 0bfe 474F5447 		.ascii	"GOTGCTL\000"
 12857      43544C00 
 12858              	.LASF197:
 12859 0c06 4441494E 		.ascii	"DAINTMSK\000"
 12859      544D534B 
 12859      00
 12860              	.LASF267:
 12861 0c0f 7573625F 		.ascii	"usb_lld_start_out\000"
 12861      6C6C645F 
 12861      73746172 
 12861      745F6F75 
 12861      7400
 12862              	.LASF194:
 12863 0c21 44494550 		.ascii	"DIEPMSK\000"
 12863      4D534B00 
 12864              	.LASF266:
 12865 0c29 70636E74 		.ascii	"pcnt\000"
 12865      00
ARM GAS  C:\Users\DEVELO~1\AppData\Local\Temp\cc0byXRH.s 			page 237


 12866              	.LASF71:
 12867 0c2e 41484233 		.ascii	"AHB3LPENR\000"
 12867      4C50454E 
 12867      5200
 12868              	.LASF32:
 12869 0c38 504C4C31 		.ascii	"PLL1FRACR\000"
 12869      46524143 
 12869      5200
 12870              	.LASF43:
 12871 0c42 43494552 		.ascii	"CIER\000"
 12871      00
 12872              	.LASF25:
 12873 0c47 44314346 		.ascii	"D1CFGR\000"
 12873      475200
 12874              	.LASF257:
 12875 0c4e 5F5F7472 		.ascii	"__trace_isr_leave\000"
 12875      6163655F 
 12875      6973725F 
 12875      6C656176 
 12875      6500
 12876              	.LASF12:
 12877 0c60 6C6F6E67 		.ascii	"long unsigned int\000"
 12877      20756E73 
 12877      69676E65 
 12877      6420696E 
 12877      7400
 12878              	.LASF98:
 12879 0c72 61646472 		.ascii	"address\000"
 12879      65737300 
 12880              	.LASF168:
 12881 0c7a 47525853 		.ascii	"GRXSTSP\000"
 12881      54535000 
 12882              	.LASF167:
 12883 0c82 47525853 		.ascii	"GRXSTSR\000"
 12883      54535200 
 12884              	.LASF77:
 12885 0c8a 41504231 		.ascii	"APB1HLPENR\000"
 12885      484C5045 
 12885      4E5200
 12886              	.LASF63:
 12887 0c95 41484232 		.ascii	"AHB2ENR\000"
 12887      454E5200 
 12888              	.LASF31:
 12889 0c9d 504C4C31 		.ascii	"PLL1DIVR\000"
 12889      44495652 
 12889      00
 12890              	.LASF114:
 12891 0ca6 75736265 		.ascii	"usbepstatus_t\000"
 12891      70737461 
 12891      7475735F 
 12891      7400
 12892              	.LASF171:
 12893 0cb4 484E5054 		.ascii	"HNPTXSTS\000"
 12893      58535453 
 12893      00
 12894              	.LASF289:
 12895 0cbd 6669666F 		.ascii	"fifop\000"
ARM GAS  C:\Users\DEVELO~1\AppData\Local\Temp\cc0byXRH.s 			page 238


 12895      7000
 12896              	.LASF198:
 12897 0cc3 72657376 		.ascii	"resvd820\000"
 12897      64383230 
 12897      00
 12898              	.LASF22:
 12899 0ccc 43534943 		.ascii	"CSICFGR\000"
 12899      46475200 
 12900              	.LASF279:
 12901 0cd4 7573625F 		.ascii	"usb_lld_init\000"
 12901      6C6C645F 
 12901      696E6974 
 12901      00
 12902              	.LASF199:
 12903 0ce1 72657376 		.ascii	"resvd824\000"
 12903      64383234 
 12903      00
 12904              	.LASF121:
 12905 0cea 5553425F 		.ascii	"USB_EP0_ERROR\000"
 12905      4550305F 
 12905      4552524F 
 12905      5200
 12906              	.LASF181:
 12907 0cf8 48464E55 		.ascii	"HFNUM\000"
 12907      4D00
 12908              	.LASF103:
 12909 0cfe 75736265 		.ascii	"usbep_t\000"
 12909      705F7400 
 12910              	.LASF221:
 12911 0d06 746F7473 		.ascii	"totsize\000"
 12911      697A6500 
 12912              	.LASF140:
 12913 0d0e 72657376 		.ascii	"resvd8\000"
 12913      643800
 12914              	.LASF228:
 12915 0d15 73657475 		.ascii	"setup_cb\000"
 12915      705F6362 
 12915      00
 12916              	.LASF280:
 12917 0d1e 56656374 		.ascii	"Vector1D4\000"
 12917      6F723144 
 12917      3400
 12918              	.LASF60:
 12919 0d28 52455345 		.ascii	"RESERVED11\000"
 12919      52564544 
 12919      313100
 12920              	.LASF70:
 12921 0d33 52455345 		.ascii	"RESERVED12\000"
 12921      52564544 
 12921      313200
 12922              	.LASF80:
 12923 0d3e 52455345 		.ascii	"RESERVED13\000"
 12923      52564544 
 12923      313300
 12924              	.LASF211:
 12925 0d49 72657376 		.ascii	"resvdE04\000"
 12925      64453034 
ARM GAS  C:\Users\DEVELO~1\AppData\Local\Temp\cc0byXRH.s 			page 239


 12925      00
 12926              	.LASF132:
 12927 0d52 75645F73 		.ascii	"ud_string\000"
 12927      7472696E 
 12927      6700
 12928              	.LASF298:
 12929 0d5c 6669666F 		.ascii	"fifo\000"
 12929      00
 12930              	.LASF102:
 12931 0d61 706D6E65 		.ascii	"pmnext\000"
 12931      787400
 12932              	.LASF320:
 12933 0d68 2E2E2F2E 		.ascii	"../../../os/hal/ports/STM32/LLD/OTGv1/hal_usb_lld.c"
 12933      2E2F2E2E 
 12933      2F6F732F 
 12933      68616C2F 
 12933      706F7274 
 12934 0d9b 00       		.ascii	"\000"
 12935              	.LASF86:
 12936 0d9c 73746174 		.ascii	"state\000"
 12936      6500
 12937              	.LASF150:
 12938 0da2 44494550 		.ascii	"DIEPINT\000"
 12938      494E5400 
 12939              	.LASF180:
 12940 0daa 48464952 		.ascii	"HFIR\000"
 12940      00
 12941              	.LASF177:
 12942 0daf 44494550 		.ascii	"DIEPTXF\000"
 12942      54584600 
 12943              	.LASF191:
 12944 0db7 4443544C 		.ascii	"DCTL\000"
 12944      00
 12945              	.LASF238:
 12946 0dbc 6576656E 		.ascii	"event_cb\000"
 12946      745F6362 
 12946      00
 12947              	.LASF41:
 12948 0dc5 44334343 		.ascii	"D3CCIPR\000"
 12948      49505200 
 12949              	.LASF232:
 12950 0dcd 6F75745F 		.ascii	"out_maxsize\000"
 12950      6D617873 
 12950      697A6500 
 12951              	.LASF202:
 12952 0dd9 72657376 		.ascii	"resvd830\000"
 12952      64383330 
 12952      00
 12953              	.LASF265:
 12954 0de2 55534244 		.ascii	"USBD1\000"
 12954      3100
 12955              	.LASF204:
 12956 0de8 72657376 		.ascii	"resvd838\000"
 12956      64383338 
 12956      00
 12957              	.LASF222:
 12958 0df1 55534249 		.ascii	"USBInEndpointState\000"
ARM GAS  C:\Users\DEVELO~1\AppData\Local\Temp\cc0byXRH.s 			page 240


 12958      6E456E64 
 12958      706F696E 
 12958      74537461 
 12958      746500
 12959              	.LASF85:
 12960 0e04 55534244 		.ascii	"USBDriver\000"
 12960      72697665 
 12960      7200
 12961              	.LASF205:
 12962 0e0e 72657376 		.ascii	"resvd83C\000"
 12962      64383343 
 12962      00
 12963              	.LASF9:
 12964 0e17 73686F72 		.ascii	"short unsigned int\000"
 12964      7420756E 
 12964      7369676E 
 12964      65642069 
 12964      6E7400
 12965              	.LASF322:
 12966 0e2a 6D656D63 		.ascii	"memcpy\000"
 12966      707900
 12967              	.LASF271:
 12968 0e31 7573625F 		.ascii	"usb_lld_disable_endpoints\000"
 12968      6C6C645F 
 12968      64697361 
 12968      626C655F 
 12968      656E6470 
 12969              	.LASF101:
 12970 0e4b 6F746770 		.ascii	"otgparams\000"
 12970      6172616D 
 12970      7300
 12971              	.LASF235:
 12972 0e55 696E5F6D 		.ascii	"in_multiplier\000"
 12972      756C7469 
 12972      706C6965 
 12972      7200
 12973              	.LASF295:
 12974 0e63 5F5F6675 		.ascii	"__func__\000"
 12974      6E635F5F 
 12974      00
 12975              	.LASF196:
 12976 0e6c 4441494E 		.ascii	"DAINT\000"
 12976      5400
 12977              	.LASF52:
 12978 0e72 41484234 		.ascii	"AHB4RSTR\000"
 12978      52535452 
 12978      00
 12979              	.LASF224:
 12980 0e7b 7278636E 		.ascii	"rxcnt\000"
 12980      7400
 12981              	.LASF243:
 12982 0e81 6570305F 		.ascii	"ep0_state\000"
 12982      73746174 
 12982      6500
 12983              	.LASF208:
 12984 0e8b 72657376 		.ascii	"resvd8C0\000"
 12984      64384330 
ARM GAS  C:\Users\DEVELO~1\AppData\Local\Temp\cc0byXRH.s 			page 241


 12984      00
 12985              	.LASF308:
 12986 0e94 6379636C 		.ascii	"cycles\000"
 12986      657300
 12987              	.LASF130:
 12988 0e9b 75736265 		.ascii	"usbevent_t\000"
 12988      76656E74 
 12988      5F7400
 12989              	.LASF258:
 12990 0ea6 5F5F7472 		.ascii	"__trace_isr_enter\000"
 12990      6163655F 
 12990      6973725F 
 12990      656E7465 
 12990      7200
 12991              	.LASF206:
 12992 0eb8 72657376 		.ascii	"resvd840\000"
 12992      64383430 
 12992      00
 12993              	.LASF260:
 12994 0ec1 7573625F 		.ascii	"usb_lld_clear_out\000"
 12994      6C6C645F 
 12994      636C6561 
 12994      725F6F75 
 12994      7400
 12995              	.LASF122:
 12996 0ed3 75736265 		.ascii	"usbep0state_t\000"
 12996      70307374 
 12996      6174655F 
 12996      7400
 12997              	.LASF134:
 12998 0ee1 75736263 		.ascii	"usbcallback_t\000"
 12998      616C6C62 
 12998      61636B5F 
 12998      7400
 12999              	.LASF316:
 13000 0eef 706F7274 		.ascii	"port_lock\000"
 13000      5F6C6F63 
 13000      6B00
 13001              	.LASF105:
 13002 0ef9 5553425F 		.ascii	"USB_STOP\000"
 13002      53544F50 
 13002      00
 13003              	.LASF66:
 13004 0f02 41504231 		.ascii	"APB1LENR\000"
 13004      4C454E52 
 13004      00
 13005              	.LASF50:
 13006 0f0b 41484231 		.ascii	"AHB1RSTR\000"
 13006      52535452 
 13006      00
 13007              	.LASF118:
 13008 0f14 5553425F 		.ascii	"USB_EP0_IN_SENDING_STS\000"
 13008      4550305F 
 13008      494E5F53 
 13008      454E4449 
 13008      4E475F53 
 13009              	.LASF225:
ARM GAS  C:\Users\DEVELO~1\AppData\Local\Temp\cc0byXRH.s 			page 242


 13010 0f2b 72786275 		.ascii	"rxbuf\000"
 13010      6600
 13011              	.LASF128:
 13012 0f31 5553425F 		.ascii	"USB_EVENT_WAKEUP\000"
 13012      4556454E 
 13012      545F5741 
 13012      4B455550 
 13012      00
 13013              	.LASF302:
 13014 0f42 72636352 		.ascii	"rccResetAHB1\000"
 13014      65736574 
 13014      41484231 
 13014      00
 13015              	.LASF263:
 13016 0f4f 7573625F 		.ascii	"usb_lld_stall_out\000"
 13016      6C6C645F 
 13016      7374616C 
 13016      6C5F6F75 
 13016      7400
 13017              		.ident	"GCC: (Arm GNU Toolchain 11.3.Rel1) 11.3.1 20220712"
ARM GAS  C:\Users\DEVELO~1\AppData\Local\Temp\cc0byXRH.s 			page 243


DEFINED SYMBOLS
                            *ABS*:00000000 hal_usb_lld.c
C:\Users\DEVELO~1\AppData\Local\Temp\cc0byXRH.s:18     .text.otg_disable_ep.isra.0:00000000 $t
C:\Users\DEVELO~1\AppData\Local\Temp\cc0byXRH.s:24     .text.otg_disable_ep.isra.0:00000000 otg_disable_ep.isra.0
C:\Users\DEVELO~1\AppData\Local\Temp\cc0byXRH.s:108    .text.usb_lld_init:00000000 $t
C:\Users\DEVELO~1\AppData\Local\Temp\cc0byXRH.s:115    .text.usb_lld_init:00000000 usb_lld_init
C:\Users\DEVELO~1\AppData\Local\Temp\cc0byXRH.s:143    .text.usb_lld_init:00000014 $d
C:\Users\DEVELO~1\AppData\Local\Temp\cc0byXRH.s:150    .text.usb_lld_start:00000000 $t
C:\Users\DEVELO~1\AppData\Local\Temp\cc0byXRH.s:157    .text.usb_lld_start:00000000 usb_lld_start
C:\Users\DEVELO~1\AppData\Local\Temp\cc0byXRH.s:403    .text.usb_lld_start:000000d4 $d
C:\Users\DEVELO~1\AppData\Local\Temp\cc0byXRH.s:413    .text.usb_lld_stop:00000000 $t
C:\Users\DEVELO~1\AppData\Local\Temp\cc0byXRH.s:420    .text.usb_lld_stop:00000000 usb_lld_stop
C:\Users\DEVELO~1\AppData\Local\Temp\cc0byXRH.s:506    .text.usb_lld_stop:00000050 $d
C:\Users\DEVELO~1\AppData\Local\Temp\cc0byXRH.s:512    .text.usb_lld_reset:00000000 $t
C:\Users\DEVELO~1\AppData\Local\Temp\cc0byXRH.s:519    .text.usb_lld_reset:00000000 usb_lld_reset
C:\Users\DEVELO~1\AppData\Local\Temp\cc0byXRH.s:781    .text.usb_lld_reset:000000c0 $d
C:\Users\DEVELO~1\AppData\Local\Temp\cc0byXRH.s:788    .text.usb_lld_set_address:00000000 $t
C:\Users\DEVELO~1\AppData\Local\Temp\cc0byXRH.s:795    .text.usb_lld_set_address:00000000 usb_lld_set_address
C:\Users\DEVELO~1\AppData\Local\Temp\cc0byXRH.s:824    .text.usb_lld_init_endpoint:00000000 $t
C:\Users\DEVELO~1\AppData\Local\Temp\cc0byXRH.s:831    .text.usb_lld_init_endpoint:00000000 usb_lld_init_endpoint
C:\Users\DEVELO~1\AppData\Local\Temp\cc0byXRH.s:1147   .text.usb_lld_init_endpoint:00000138 $d
C:\Users\DEVELO~1\AppData\Local\Temp\cc0byXRH.s:1153   .text.usb_lld_disable_endpoints:00000000 $t
C:\Users\DEVELO~1\AppData\Local\Temp\cc0byXRH.s:1160   .text.usb_lld_disable_endpoints:00000000 usb_lld_disable_endpoints
C:\Users\DEVELO~1\AppData\Local\Temp\cc0byXRH.s:1199   .text.usb_lld_get_status_out:00000000 $t
C:\Users\DEVELO~1\AppData\Local\Temp\cc0byXRH.s:1206   .text.usb_lld_get_status_out:00000000 usb_lld_get_status_out
C:\Users\DEVELO~1\AppData\Local\Temp\cc0byXRH.s:1245   .text.usb_lld_get_status_in:00000000 $t
C:\Users\DEVELO~1\AppData\Local\Temp\cc0byXRH.s:1252   .text.usb_lld_get_status_in:00000000 usb_lld_get_status_in
C:\Users\DEVELO~1\AppData\Local\Temp\cc0byXRH.s:1291   .text.usb_lld_read_setup:00000000 $t
C:\Users\DEVELO~1\AppData\Local\Temp\cc0byXRH.s:1298   .text.usb_lld_read_setup:00000000 usb_lld_read_setup
C:\Users\DEVELO~1\AppData\Local\Temp\cc0byXRH.s:1326   .text.usb_lld_start_out:00000000 $t
C:\Users\DEVELO~1\AppData\Local\Temp\cc0byXRH.s:1333   .text.usb_lld_start_out:00000000 usb_lld_start_out
C:\Users\DEVELO~1\AppData\Local\Temp\cc0byXRH.s:1455   .text.otg_epout_handler.constprop.0:00000000 $t
C:\Users\DEVELO~1\AppData\Local\Temp\cc0byXRH.s:1461   .text.otg_epout_handler.constprop.0:00000000 otg_epout_handler.constprop.0
C:\Users\DEVELO~1\AppData\Local\Temp\cc0byXRH.s:1708   .text.otg_epout_handler.constprop.0:00000098 $d
C:\Users\DEVELO~1\AppData\Local\Temp\cc0byXRH.s:1713   .text.usb_lld_start_in:00000000 $t
C:\Users\DEVELO~1\AppData\Local\Temp\cc0byXRH.s:1720   .text.usb_lld_start_in:00000000 usb_lld_start_in
C:\Users\DEVELO~1\AppData\Local\Temp\cc0byXRH.s:1869   .text.otg_epin_handler.constprop.0:00000000 $t
C:\Users\DEVELO~1\AppData\Local\Temp\cc0byXRH.s:1875   .text.otg_epin_handler.constprop.0:00000000 otg_epin_handler.constprop.0
C:\Users\DEVELO~1\AppData\Local\Temp\cc0byXRH.s:2233   .text.otg_epin_handler.constprop.0:0000010c $d
C:\Users\DEVELO~1\AppData\Local\Temp\cc0byXRH.s:2240   .text.Vector1D4:00000000 $t
C:\Users\DEVELO~1\AppData\Local\Temp\cc0byXRH.s:2247   .text.Vector1D4:00000000 Vector1D4
C:\Users\DEVELO~1\AppData\Local\Temp\cc0byXRH.s:2936   .text.Vector1D4:000002a0 $d
C:\Users\DEVELO~1\AppData\Local\Temp\cc0byXRH.s:2947   .text.Vector1D4:000002a8 $t
C:\Users\DEVELO~1\AppData\Local\Temp\cc0byXRH.s:3178   .text.usb_lld_stall_out:00000000 $t
C:\Users\DEVELO~1\AppData\Local\Temp\cc0byXRH.s:3185   .text.usb_lld_stall_out:00000000 usb_lld_stall_out
C:\Users\DEVELO~1\AppData\Local\Temp\cc0byXRH.s:3207   .text.usb_lld_stall_in:00000000 $t
C:\Users\DEVELO~1\AppData\Local\Temp\cc0byXRH.s:3214   .text.usb_lld_stall_in:00000000 usb_lld_stall_in
C:\Users\DEVELO~1\AppData\Local\Temp\cc0byXRH.s:3236   .text.usb_lld_clear_out:00000000 $t
C:\Users\DEVELO~1\AppData\Local\Temp\cc0byXRH.s:3243   .text.usb_lld_clear_out:00000000 usb_lld_clear_out
C:\Users\DEVELO~1\AppData\Local\Temp\cc0byXRH.s:3265   .text.usb_lld_clear_in:00000000 $t
C:\Users\DEVELO~1\AppData\Local\Temp\cc0byXRH.s:3272   .text.usb_lld_clear_in:00000000 usb_lld_clear_in
C:\Users\DEVELO~1\AppData\Local\Temp\cc0byXRH.s:3299   .bss.USBD1:00000000 USBD1
C:\Users\DEVELO~1\AppData\Local\Temp\cc0byXRH.s:3295   .bss.USBD1:00000000 $d
C:\Users\DEVELO~1\AppData\Local\Temp\cc0byXRH.s:3302   .bss.ep0_state:00000000 $d
C:\Users\DEVELO~1\AppData\Local\Temp\cc0byXRH.s:3305   .bss.ep0_state:00000000 ep0_state
C:\Users\DEVELO~1\AppData\Local\Temp\cc0byXRH.s:3308   .bss.ep0setup_buffer:00000000 $d
C:\Users\DEVELO~1\AppData\Local\Temp\cc0byXRH.s:3311   .bss.ep0setup_buffer:00000000 ep0setup_buffer
ARM GAS  C:\Users\DEVELO~1\AppData\Local\Temp\cc0byXRH.s 			page 244


C:\Users\DEVELO~1\AppData\Local\Temp\cc0byXRH.s:3314   .rodata.__func__.0:00000000 $d
C:\Users\DEVELO~1\AppData\Local\Temp\cc0byXRH.s:3318   .rodata.__func__.0:00000000 __func__.0
C:\Users\DEVELO~1\AppData\Local\Temp\cc0byXRH.s:3321   .rodata.ep0config:00000000 $d
C:\Users\DEVELO~1\AppData\Local\Temp\cc0byXRH.s:3325   .rodata.ep0config:00000000 ep0config
C:\Users\DEVELO~1\AppData\Local\Temp\cc0byXRH.s:3338   .rodata.fsparams:00000000 $d
C:\Users\DEVELO~1\AppData\Local\Temp\cc0byXRH.s:3342   .rodata.fsparams:00000000 fsparams

UNDEFINED SYMBOLS
usbObjectInit
chSysPolledDelayX
nvicEnableVector
nvicDisableVector
__trace_isr_enter
__trace_isr_leave
__port_irq_epilogue
_usb_wakeup
_usb_suspend
_usb_reset
_usb_ep0setup
_usb_ep0in
_usb_ep0out
