ARM GAS  C:\Users\DEVELO~1\AppData\Local\Temp\ccASuyx8.s 			page 1


   1              		.cpu cortex-m7
   2              		.arch armv7e-m
   3              		.fpu softvfp
   4              		.eabi_attribute 20, 1
   5              		.eabi_attribute 21, 1
   6              		.eabi_attribute 23, 3
   7              		.eabi_attribute 24, 1
   8              		.eabi_attribute 25, 1
   9              		.eabi_attribute 26, 1
  10              		.eabi_attribute 30, 2
  11              		.eabi_attribute 34, 1
  12              		.eabi_attribute 18, 4
  13              		.file	"hal_lld.c"
  14              		.text
  15              	.Ltext0:
  16              		.cfi_sections	.debug_frame
  17              		.section	.text.hal_lld_init,"ax",%progbits
  18              		.align	1
  19              		.p2align 4,,15
  20              		.global	hal_lld_init
  21              		.syntax unified
  22              		.thumb
  23              		.thumb_func
  24              		.type	hal_lld_init, %function
  25              	hal_lld_init:
  26              	.LFB433:
  27              		.file 1 "../../../os/hal/ports/STM32/STM32H7xx/hal_lld.c"
  28              		.loc 1 146 25 view -0
  29              		.cfi_startproc
  30              		@ args = 0, pretend = 0, frame = 0
  31              		@ frame_needed = 0, uses_anonymous_args = 0
  32              		.loc 1 153 3 view .LVU1
  33              	.LVL0:
  34              	.LBB29:
  35              	.LBI29:
  36              		.file 2 "../../../os/hal/ports/STM32/STM32H7xx/stm32_rcc.h"
  37              		.loc 2 97 22 view .LVU2
  38              	.LBB30:
  39              		.loc 2 100 3 view .LVU3
  40              	.LBE30:
  41              	.LBE29:
  42              		.loc 1 146 25 is_stmt 0 view .LVU4
  43 0000 38B5     		push	{r3, r4, r5, lr}
  44              		.cfi_def_cfa_offset 16
  45              		.cfi_offset 3, -16
  46              		.cfi_offset 4, -12
  47              		.cfi_offset 5, -8
  48              		.cfi_offset 14, -4
  49              	.LBB33:
  50              	.LBB31:
  51              		.loc 2 101 17 view .LVU5
  52 0002 0022     		movs	r2, #0
  53              		.loc 2 100 17 view .LVU6
  54 0004 334B     		ldr	r3, .L4
  55 0006 4FF0FF31 		mov	r1, #-1
  56              	.LBE31:
  57              	.LBE33:
ARM GAS  C:\Users\DEVELO~1\AppData\Local\Temp\ccASuyx8.s 			page 2


  58              	.LBB34:
  59              	.LBB35:
  60              		.loc 2 116 17 view .LVU7
  61 000a 334C     		ldr	r4, .L4+4
  62              	.LBE35:
  63              	.LBE34:
  64              	.LBB38:
  65              	.LBB32:
  66              		.loc 2 100 17 view .LVU8
  67 000c D3F88000 		ldr	r0, [r3, #128]
  68 0010 C3F88010 		str	r1, [r3, #128]
  69              		.loc 2 101 3 is_stmt 1 view .LVU9
  70              		.loc 2 101 17 is_stmt 0 view .LVU10
  71 0014 D3F88000 		ldr	r0, [r3, #128]
  72 0018 C3F88020 		str	r2, [r3, #128]
  73              		.loc 2 102 3 is_stmt 1 view .LVU11
  74 001c D3F88000 		ldr	r0, [r3, #128]
  75              	.LVL1:
  76              		.loc 2 102 3 is_stmt 0 view .LVU12
  77              	.LBE32:
  78              	.LBE38:
  79              		.loc 1 154 3 is_stmt 1 view .LVU13
  80              	.LBB39:
  81              	.LBI39:
  82              		.loc 2 105 22 view .LVU14
  83              	.LBB40:
  84              		.loc 2 108 3 view .LVU15
  85              		.loc 2 108 17 is_stmt 0 view .LVU16
  86 0020 D3F88400 		ldr	r0, [r3, #132]
  87 0024 C3F88410 		str	r1, [r3, #132]
  88              		.loc 2 109 3 is_stmt 1 view .LVU17
  89              		.loc 2 109 17 is_stmt 0 view .LVU18
  90 0028 D3F88400 		ldr	r0, [r3, #132]
  91 002c C3F88420 		str	r2, [r3, #132]
  92              		.loc 2 110 3 is_stmt 1 view .LVU19
  93 0030 D3F88400 		ldr	r0, [r3, #132]
  94              	.LVL2:
  95              		.loc 2 110 3 is_stmt 0 view .LVU20
  96              	.LBE40:
  97              	.LBE39:
  98              		.loc 1 155 3 is_stmt 1 view .LVU21
  99              	.LBB41:
 100              	.LBI34:
 101              		.loc 2 113 22 view .LVU22
 102              	.LBB36:
 103              		.loc 2 116 3 view .LVU23
 104              		.loc 2 116 17 is_stmt 0 view .LVU24
 105 0034 D86F     		ldr	r0, [r3, #124]
 106              		.loc 2 117 17 view .LVU25
 107 0036 294D     		ldr	r5, .L4+8
 108              		.loc 2 116 17 view .LVU26
 109 0038 2043     		orrs	r0, r0, r4
 110 003a D867     		str	r0, [r3, #124]
 111              		.loc 2 117 3 is_stmt 1 view .LVU27
 112              		.loc 2 117 17 is_stmt 0 view .LVU28
 113 003c DC6F     		ldr	r4, [r3, #124]
 114              	.LBE36:
ARM GAS  C:\Users\DEVELO~1\AppData\Local\Temp\ccASuyx8.s 			page 3


 115              	.LBE41:
 116              	.LBB42:
 117              	.LBB43:
 118              		.loc 2 124 17 view .LVU29
 119 003e 2848     		ldr	r0, .L4+12
 120              	.LBE43:
 121              	.LBE42:
 122              	.LBB45:
 123              	.LBB37:
 124              		.loc 2 117 17 view .LVU30
 125 0040 2C40     		ands	r4, r4, r5
 126 0042 DC67     		str	r4, [r3, #124]
 127              		.loc 2 118 3 is_stmt 1 view .LVU31
 128 0044 DC6F     		ldr	r4, [r3, #124]
 129              	.LVL3:
 130              		.loc 2 118 3 is_stmt 0 view .LVU32
 131              	.LBE37:
 132              	.LBE45:
 133              		.loc 1 157 3 is_stmt 1 view .LVU33
 134              	.LBB46:
 135              	.LBI42:
 136              		.loc 2 121 22 view .LVU34
 137              	.LBB44:
 138              		.loc 2 124 3 view .LVU35
 139              		.loc 2 124 17 is_stmt 0 view .LVU36
 140 0046 D3F88840 		ldr	r4, [r3, #136]
 141 004a 2043     		orrs	r0, r0, r4
 142 004c C3F88800 		str	r0, [r3, #136]
 143              		.loc 2 125 3 is_stmt 1 view .LVU37
 144              		.loc 2 125 17 is_stmt 0 view .LVU38
 145 0050 D3F88800 		ldr	r0, [r3, #136]
 146 0054 C0F30A00 		ubfx	r0, r0, #0, #11
 147 0058 C3F88800 		str	r0, [r3, #136]
 148              		.loc 2 126 3 is_stmt 1 view .LVU39
 149 005c D3F88800 		ldr	r0, [r3, #136]
 150              	.LVL4:
 151              		.loc 2 126 3 is_stmt 0 view .LVU40
 152              	.LBE44:
 153              	.LBE46:
 154              		.loc 1 158 3 is_stmt 1 view .LVU41
 155              	.LBB47:
 156              	.LBI47:
 157              		.loc 2 57 22 view .LVU42
 158              	.LBB48:
 159              		.loc 2 60 3 view .LVU43
 160              		.loc 2 60 18 is_stmt 0 view .LVU44
 161 0060 D3F89000 		ldr	r0, [r3, #144]
 162 0064 C3F89010 		str	r1, [r3, #144]
 163              		.loc 2 61 3 is_stmt 1 view .LVU45
 164              		.loc 2 61 18 is_stmt 0 view .LVU46
 165 0068 D3F89000 		ldr	r0, [r3, #144]
 166 006c C3F89020 		str	r2, [r3, #144]
 167              		.loc 2 62 3 is_stmt 1 view .LVU47
 168 0070 D3F89000 		ldr	r0, [r3, #144]
 169              	.LVL5:
 170              		.loc 2 62 3 is_stmt 0 view .LVU48
 171              	.LBE48:
ARM GAS  C:\Users\DEVELO~1\AppData\Local\Temp\ccASuyx8.s 			page 4


 172              	.LBE47:
 173              		.loc 1 159 3 is_stmt 1 view .LVU49
 174              	.LBB49:
 175              	.LBI49:
 176              		.loc 2 65 22 view .LVU50
 177              	.LBB50:
 178              		.loc 2 68 3 view .LVU51
 179              		.loc 2 68 18 is_stmt 0 view .LVU52
 180 0074 D3F89400 		ldr	r0, [r3, #148]
 181 0078 C3F89410 		str	r1, [r3, #148]
 182              		.loc 2 69 3 is_stmt 1 view .LVU53
 183              		.loc 2 69 18 is_stmt 0 view .LVU54
 184 007c D3F89400 		ldr	r0, [r3, #148]
 185 0080 C3F89420 		str	r2, [r3, #148]
 186              		.loc 2 70 3 is_stmt 1 view .LVU55
 187 0084 D3F89400 		ldr	r0, [r3, #148]
 188              	.LVL6:
 189              		.loc 2 70 3 is_stmt 0 view .LVU56
 190              	.LBE50:
 191              	.LBE49:
 192              		.loc 1 160 3 is_stmt 1 view .LVU57
 193              	.LBB51:
 194              	.LBI51:
 195              		.loc 2 73 22 view .LVU58
 196              	.LBB52:
 197              		.loc 2 76 3 view .LVU59
 198              		.loc 2 76 17 is_stmt 0 view .LVU60
 199 0088 D3F89800 		ldr	r0, [r3, #152]
 200 008c C3F89810 		str	r1, [r3, #152]
 201              		.loc 2 77 3 is_stmt 1 view .LVU61
 202              		.loc 2 77 17 is_stmt 0 view .LVU62
 203 0090 D3F89800 		ldr	r0, [r3, #152]
 204 0094 C3F89820 		str	r2, [r3, #152]
 205              		.loc 2 78 3 is_stmt 1 view .LVU63
 206 0098 D3F89800 		ldr	r0, [r3, #152]
 207              	.LVL7:
 208              		.loc 2 78 3 is_stmt 0 view .LVU64
 209              	.LBE52:
 210              	.LBE51:
 211              		.loc 1 161 3 is_stmt 1 view .LVU65
 212              	.LBB53:
 213              	.LBI53:
 214              		.loc 2 81 22 view .LVU66
 215              	.LBB54:
 216              		.loc 2 84 3 view .LVU67
 217              		.loc 2 84 17 is_stmt 0 view .LVU68
 218 009c D3F88C00 		ldr	r0, [r3, #140]
 219 00a0 C3F88C10 		str	r1, [r3, #140]
 220              		.loc 2 85 3 is_stmt 1 view .LVU69
 221              		.loc 2 85 17 is_stmt 0 view .LVU70
 222 00a4 D3F88C00 		ldr	r0, [r3, #140]
 223 00a8 C3F88C20 		str	r2, [r3, #140]
 224              		.loc 2 86 3 is_stmt 1 view .LVU71
 225 00ac D3F88C00 		ldr	r0, [r3, #140]
 226              	.LVL8:
 227              		.loc 2 86 3 is_stmt 0 view .LVU72
 228              	.LBE54:
ARM GAS  C:\Users\DEVELO~1\AppData\Local\Temp\ccASuyx8.s 			page 5


 229              	.LBE53:
 230              		.loc 1 162 3 is_stmt 1 view .LVU73
 231              	.LBB55:
 232              	.LBI55:
 233              		.loc 2 89 22 view .LVU74
 234              	.LBB56:
 235              		.loc 2 92 3 view .LVU75
 236              		.loc 2 92 17 is_stmt 0 view .LVU76
 237 00b0 D3F89C00 		ldr	r0, [r3, #156]
 238 00b4 C3F89C10 		str	r1, [r3, #156]
 239              		.loc 2 93 3 is_stmt 1 view .LVU77
 240              		.loc 2 93 17 is_stmt 0 view .LVU78
 241 00b8 D3F89C10 		ldr	r1, [r3, #156]
 242 00bc C3F89C20 		str	r2, [r3, #156]
 243              		.loc 2 94 3 is_stmt 1 view .LVU79
 244 00c0 D3F89C30 		ldr	r3, [r3, #156]
 245              	.LVL9:
 246              		.loc 2 94 3 is_stmt 0 view .LVU80
 247              	.LBE56:
 248              	.LBE55:
 249              		.loc 1 167 3 is_stmt 1 view .LVU81
 250 00c4 FFF7FEFF 		bl	bdmaInit
 251              	.LVL10:
 252              		.loc 1 170 3 view .LVU82
 253 00c8 FFF7FEFF 		bl	dmaInit
 254              	.LVL11:
 255              		.loc 1 177 3 view .LVU83
 256              		.loc 1 198 1 is_stmt 0 view .LVU84
 257 00cc BDE83840 		pop	{r3, r4, r5, lr}
 258              		.cfi_restore 14
 259              		.cfi_restore 5
 260              		.cfi_restore 4
 261              		.cfi_restore 3
 262              		.cfi_def_cfa_offset 0
 263              		.loc 1 177 3 view .LVU85
 264 00d0 FFF7FEBF 		b	irqInit
 265              	.LVL12:
 266              	.L5:
 267              		.align	2
 268              	.L4:
 269 00d4 00440258 		.word	1476543488
 270 00d8 FFEFFF7F 		.word	2147479551
 271 00dc 00100080 		.word	-2147479552
 272 00e0 00F8FFFF 		.word	-2048
 273              		.cfi_endproc
 274              	.LFE433:
 275              		.size	hal_lld_init, .-hal_lld_init
 276              		.section	.text.stm32_clock_init,"ax",%progbits
 277              		.align	1
 278              		.p2align 4,,15
 279              		.global	stm32_clock_init
 280              		.syntax unified
 281              		.thumb
 282              		.thumb_func
 283              		.type	stm32_clock_init, %function
 284              	stm32_clock_init:
 285              	.LFB434:
ARM GAS  C:\Users\DEVELO~1\AppData\Local\Temp\ccASuyx8.s 			page 6


 286              		.loc 1 207 29 is_stmt 1 view -0
 287              		.cfi_startproc
 288              		@ args = 0, pretend = 0, frame = 0
 289              		@ frame_needed = 0, uses_anonymous_args = 0
 290              		@ link register save eliminated.
 291              		.loc 1 209 3 view .LVU87
 292              		.loc 1 220 3 view .LVU88
 293              	.LBB70:
 294              	.LBB71:
 295              		.loc 2 501 19 is_stmt 0 view .LVU89
 296 0000 6F4B     		ldr	r3, .L44
 297              	.LBE71:
 298              	.LBE70:
 299              	.LBB73:
 300              	.LBB74:
 301              		.loc 1 102 14 view .LVU90
 302 0002 0220     		movs	r0, #2
 303              	.LBE74:
 304              	.LBE73:
 305              		.loc 1 220 58 view .LVU91
 306 0004 6F49     		ldr	r1, .L44+4
 307              	.LBB77:
 308              	.LBB75:
 309              		.loc 1 102 14 view .LVU92
 310 0006 704A     		ldr	r2, .L44+8
 311              	.LBE75:
 312              	.LBE77:
 313              		.loc 1 207 29 view .LVU93
 314 0008 10B4     		push	{r4}
 315              		.cfi_def_cfa_offset 4
 316              		.cfi_offset 4, -4
 317              		.loc 1 220 58 view .LVU94
 318 000a 0124     		movs	r4, #1
 319 000c C1F80841 		str	r4, [r1, #264]
 320              		.loc 1 225 3 is_stmt 1 view .LVU95
 321              	.LVL13:
 322              	.LBB78:
 323              	.LBI70:
 324              		.loc 2 497 22 view .LVU96
 325              	.LBB72:
 326              		.loc 2 501 3 view .LVU97
 327              		.loc 2 501 19 is_stmt 0 view .LVU98
 328 0010 D3F8F410 		ldr	r1, [r3, #244]
 329 0014 0143     		orrs	r1, r1, r0
 330 0016 C3F8F410 		str	r1, [r3, #244]
 331              		.loc 2 502 3 is_stmt 1 view .LVU99
 332              		.loc 2 503 5 view .LVU100
 333              		.loc 2 503 23 is_stmt 0 view .LVU101
 334 001a D3F81C11 		ldr	r1, [r3, #284]
 335 001e 0143     		orrs	r1, r1, r0
 336 0020 C3F81C11 		str	r1, [r3, #284]
 337              		.loc 2 508 3 is_stmt 1 view .LVU102
 338 0024 D3F81C31 		ldr	r3, [r3, #284]
 339              	.LVL14:
 340              		.loc 2 508 3 is_stmt 0 view .LVU103
 341              	.LBE72:
 342              	.LBE78:
ARM GAS  C:\Users\DEVELO~1\AppData\Local\Temp\ccASuyx8.s 			page 7


 343              		.loc 1 228 3 is_stmt 1 view .LVU104
 344              	.LBB79:
 345              	.LBI73:
 346              		.loc 1 94 20 view .LVU105
 347              	.LBB76:
 348              		.loc 1 102 3 view .LVU106
 349              		.loc 1 102 14 is_stmt 0 view .LVU107
 350 0028 D060     		str	r0, [r2, #12]
 351              		.loc 1 103 3 is_stmt 1 view .LVU108
 352              	.L7:
 353              		.loc 1 103 43 view .LVU109
 354              		.loc 1 103 14 is_stmt 0 view .LVU110
 355 002a 5368     		ldr	r3, [r2, #4]
 356              		.loc 1 103 43 view .LVU111
 357 002c 9C04     		lsls	r4, r3, #18
 358 002e FCD5     		bpl	.L7
 359              		.loc 1 106 3 is_stmt 1 view .LVU112
 360              		.loc 1 106 14 is_stmt 0 view .LVU113
 361 0030 6649     		ldr	r1, .L44+12
 362              		.loc 1 107 14 view .LVU114
 363 0032 0123     		movs	r3, #1
 364              		.loc 1 108 14 view .LVU115
 365 0034 664C     		ldr	r4, .L44+16
 366              		.loc 1 109 14 view .LVU116
 367 0036 0020     		movs	r0, #0
 368              		.loc 1 106 14 view .LVU117
 369 0038 1160     		str	r1, [r2]
 370              		.loc 1 107 3 is_stmt 1 view .LVU118
 371              		.loc 1 107 14 is_stmt 0 view .LVU119
 372 003a 9360     		str	r3, [r2, #8]
 373              		.loc 1 108 3 is_stmt 1 view .LVU120
 374              		.loc 1 113 14 is_stmt 0 view .LVU121
 375 003c 4FF44043 		mov	r3, #49152
 376              		.loc 1 123 14 view .LVU122
 377 0040 6149     		ldr	r1, .L44+8
 378              		.loc 1 108 14 view .LVU123
 379 0042 D460     		str	r4, [r2, #12]
 380              		.loc 1 109 3 is_stmt 1 view .LVU124
 381              		.loc 1 109 14 is_stmt 0 view .LVU125
 382 0044 1061     		str	r0, [r2, #16]
 383              		.loc 1 113 3 is_stmt 1 view .LVU126
 384              		.loc 1 113 14 is_stmt 0 view .LVU127
 385 0046 9361     		str	r3, [r2, #24]
 386              		.loc 1 123 3 is_stmt 1 view .LVU128
 387              	.L8:
 388              		.loc 1 123 40 view .LVU129
 389              		.loc 1 123 14 is_stmt 0 view .LVU130
 390 0048 8B69     		ldr	r3, [r1, #24]
 391              		.loc 1 123 40 view .LVU131
 392 004a 9804     		lsls	r0, r3, #18
 393 004c FCD5     		bpl	.L8
 394              	.LBE76:
 395              	.LBE79:
 396              		.loc 1 231 3 is_stmt 1 view .LVU132
 397              	.LBB80:
 398              	.LBI80:
 399              		.loc 1 54 20 view .LVU133
ARM GAS  C:\Users\DEVELO~1\AppData\Local\Temp\ccASuyx8.s 			page 8


 400              	.LBB81:
 401              		.loc 1 57 3 view .LVU134
 402              		.loc 1 57 12 is_stmt 0 view .LVU135
 403 004e 0B68     		ldr	r3, [r1]
 404              		.loc 1 60 11 view .LVU136
 405 0050 5B4A     		ldr	r2, .L44
 406              		.loc 1 57 12 view .LVU137
 407 0052 43F48073 		orr	r3, r3, #256
 408 0056 0B60     		str	r3, [r1]
 409              		.loc 1 60 3 is_stmt 1 view .LVU138
 410              		.loc 1 60 11 is_stmt 0 view .LVU139
 411 0058 136F     		ldr	r3, [r2, #112]
 412              		.loc 1 60 18 view .LVU140
 413 005a 03F44073 		and	r3, r3, #768
 414              		.loc 1 60 6 view .LVU141
 415 005e B3F5807F 		cmp	r3, #256
 416 0062 04D0     		beq	.L9
 417              		.loc 1 62 5 is_stmt 1 view .LVU142
 418              		.loc 1 62 15 is_stmt 0 view .LVU143
 419 0064 4FF48031 		mov	r1, #65536
 420              		.loc 1 63 15 view .LVU144
 421 0068 0023     		movs	r3, #0
 422              		.loc 1 62 15 view .LVU145
 423 006a 1167     		str	r1, [r2, #112]
 424              		.loc 1 63 5 is_stmt 1 view .LVU146
 425              		.loc 1 63 15 is_stmt 0 view .LVU147
 426 006c 1367     		str	r3, [r2, #112]
 427              	.L9:
 428              		.loc 1 72 3 is_stmt 1 view .LVU148
 429              		.loc 1 72 13 is_stmt 0 view .LVU149
 430 006e 544A     		ldr	r2, .L44
 431 0070 136F     		ldr	r3, [r2, #112]
 432 0072 43F01903 		orr	r3, r3, #25
 433 0076 1367     		str	r3, [r2, #112]
 434              		.loc 1 74 3 is_stmt 1 view .LVU150
 435              	.L10:
 436              		.loc 1 74 40 view .LVU151
 437              		.loc 1 74 14 is_stmt 0 view .LVU152
 438 0078 136F     		ldr	r3, [r2, #112]
 439              		.loc 1 74 40 view .LVU153
 440 007a 9907     		lsls	r1, r3, #30
 441 007c FCD5     		bpl	.L10
 442              	.LBE81:
 443              	.LBE80:
 444              		.loc 1 235 3 is_stmt 1 view .LVU154
 445              		.loc 1 235 11 is_stmt 0 view .LVU155
 446 007e 1368     		ldr	r3, [r2]
 447              		.loc 1 236 15 view .LVU156
 448 0080 4F49     		ldr	r1, .L44
 449              		.loc 1 235 11 view .LVU157
 450 0082 43F00103 		orr	r3, r3, #1
 451 0086 1360     		str	r3, [r2]
 452              		.loc 1 236 3 is_stmt 1 view .LVU158
 453              	.L11:
 454              		.loc 1 236 10 discriminator 1 view .LVU159
 455              		.loc 1 236 15 is_stmt 0 discriminator 1 view .LVU160
 456 0088 0B68     		ldr	r3, [r1]
ARM GAS  C:\Users\DEVELO~1\AppData\Local\Temp\ccASuyx8.s 			page 9


 457              		.loc 1 236 10 discriminator 1 view .LVU161
 458 008a 5B07     		lsls	r3, r3, #29
 459 008c FCD5     		bpl	.L11
 460              		.loc 1 242 3 is_stmt 1 view .LVU162
 461              		.loc 1 242 16 is_stmt 0 view .LVU163
 462 008e 0023     		movs	r3, #0
 463              		.loc 1 243 14 view .LVU164
 464 0090 4B4A     		ldr	r2, .L44
 465              		.loc 1 242 16 view .LVU165
 466 0092 0B61     		str	r3, [r1, #16]
 467              		.loc 1 243 3 is_stmt 1 view .LVU166
 468              	.L12:
 469              		.loc 1 243 37 discriminator 1 view .LVU167
 470              		.loc 1 243 14 is_stmt 0 discriminator 1 view .LVU168
 471 0094 1369     		ldr	r3, [r2, #16]
 472              		.loc 1 243 37 discriminator 1 view .LVU169
 473 0096 13F03803 		ands	r3, r3, #56
 474 009a FBD1     		bne	.L12
 475              		.loc 1 247 3 is_stmt 1 view .LVU170
 476              		.loc 1 248 16 is_stmt 0 view .LVU171
 477 009c 4FF08041 		mov	r1, #1073741824
 478              		.loc 1 247 16 view .LVU172
 479 00a0 0124     		movs	r4, #1
 480              		.loc 1 253 16 view .LVU173
 481 00a2 4C48     		ldr	r0, .L44+20
 482              		.loc 1 247 16 view .LVU174
 483 00a4 1460     		str	r4, [r2]
 484              		.loc 1 248 3 is_stmt 1 view .LVU175
 485              		.loc 1 248 16 is_stmt 0 view .LVU176
 486 00a6 5160     		str	r1, [r2, #4]
 487              		.loc 1 252 3 is_stmt 1 view .LVU177
 488              		.loc 1 267 13 is_stmt 0 view .LVU178
 489 00a8 4B49     		ldr	r1, .L44+24
 490              		.loc 1 252 16 view .LVU179
 491 00aa 5367     		str	r3, [r2, #116]
 492              		.loc 1 253 3 is_stmt 1 view .LVU180
 493              		.loc 1 253 16 is_stmt 0 view .LVU181
 494 00ac D062     		str	r0, [r2, #44]
 495              		.loc 1 257 3 is_stmt 1 view .LVU182
 496              	.LVL15:
 497              		.loc 1 262 3 view .LVU183
 498              		.loc 1 265 3 view .LVU184
 499              		.loc 1 267 3 view .LVU185
 500              		.loc 1 267 13 is_stmt 0 view .LVU186
 501 00ae 1161     		str	r1, [r2, #16]
 502              		.loc 1 274 3 is_stmt 1 view .LVU187
 503              		.loc 1 274 11 is_stmt 0 view .LVU188
 504 00b0 1368     		ldr	r3, [r2]
 505              		.loc 1 276 14 view .LVU189
 506 00b2 4348     		ldr	r0, .L44
 507              		.loc 1 274 11 view .LVU190
 508 00b4 43F48033 		orr	r3, r3, #65536
 509 00b8 1360     		str	r3, [r2]
 510              		.loc 1 276 3 is_stmt 1 view .LVU191
 511              	.L13:
 512              		.loc 1 276 36 discriminator 1 view .LVU192
 513              		.loc 1 276 14 is_stmt 0 discriminator 1 view .LVU193
ARM GAS  C:\Users\DEVELO~1\AppData\Local\Temp\ccASuyx8.s 			page 10


 514 00ba 0368     		ldr	r3, [r0]
 515              		.loc 1 276 36 discriminator 1 view .LVU194
 516 00bc 9C03     		lsls	r4, r3, #14
 517 00be FCD5     		bpl	.L13
 518              		.loc 1 282 3 is_stmt 1 view .LVU195
 519              		.loc 1 282 11 is_stmt 0 view .LVU196
 520 00c0 0368     		ldr	r3, [r0]
 521              		.loc 1 283 14 view .LVU197
 522 00c2 3F49     		ldr	r1, .L44
 523              		.loc 1 282 11 view .LVU198
 524 00c4 43F48053 		orr	r3, r3, #4096
 525 00c8 0360     		str	r3, [r0]
 526              		.loc 1 283 3 is_stmt 1 view .LVU199
 527              	.L14:
 528              		.loc 1 283 38 discriminator 1 view .LVU200
 529              		.loc 1 283 14 is_stmt 0 discriminator 1 view .LVU201
 530 00ca 0B68     		ldr	r3, [r1]
 531              		.loc 1 283 38 discriminator 1 view .LVU202
 532 00cc 9804     		lsls	r0, r3, #18
 533 00ce FCD5     		bpl	.L14
 534              		.loc 1 290 3 is_stmt 1 view .LVU203
 535              		.loc 1 290 11 is_stmt 0 view .LVU204
 536 00d0 0B68     		ldr	r3, [r1]
 537              		.loc 1 291 14 view .LVU205
 538 00d2 3B4A     		ldr	r2, .L44
 539              		.loc 1 290 11 view .LVU206
 540 00d4 43F08003 		orr	r3, r3, #128
 541 00d8 0B60     		str	r3, [r1]
 542              		.loc 1 291 3 is_stmt 1 view .LVU207
 543              	.L15:
 544              		.loc 1 291 36 discriminator 1 view .LVU208
 545              		.loc 1 291 14 is_stmt 0 discriminator 1 view .LVU209
 546 00da 1368     		ldr	r3, [r2]
 547              		.loc 1 291 36 discriminator 1 view .LVU210
 548 00dc D905     		lsls	r1, r3, #23
 549 00de FCD5     		bpl	.L15
 550              		.loc 1 297 3 is_stmt 1 view .LVU211
 551              		.loc 1 297 12 is_stmt 0 view .LVU212
 552 00e0 516F     		ldr	r1, [r2, #116]
 553              		.loc 1 298 14 view .LVU213
 554 00e2 374B     		ldr	r3, .L44
 555              		.loc 1 297 12 view .LVU214
 556 00e4 41F00101 		orr	r1, r1, #1
 557 00e8 5167     		str	r1, [r2, #116]
 558              		.loc 1 298 3 is_stmt 1 view .LVU215
 559              	.L16:
 560              		.loc 1 298 38 discriminator 1 view .LVU216
 561              		.loc 1 298 14 is_stmt 0 discriminator 1 view .LVU217
 562 00ea 5A6F     		ldr	r2, [r3, #116]
 563              		.loc 1 298 38 discriminator 1 view .LVU218
 564 00ec 9207     		lsls	r2, r2, #30
 565 00ee FCD5     		bpl	.L16
 566              	.LBB82:
 567              		.loc 1 308 5 is_stmt 1 view .LVU219
 568              	.LVL16:
 569              		.loc 1 309 5 view .LVU220
 570              		.loc 1 310 5 view .LVU221
ARM GAS  C:\Users\DEVELO~1\AppData\Local\Temp\ccASuyx8.s 			page 11


 571              		.loc 1 312 5 view .LVU222
 572              		.loc 1 322 20 is_stmt 0 view .LVU223
 573 00f0 0022     		movs	r2, #0
 574              		.loc 1 312 20 view .LVU224
 575 00f2 3A48     		ldr	r0, .L44+28
 576              		.loc 1 323 20 view .LVU225
 577 00f4 3A49     		ldr	r1, .L44+32
 578              		.loc 1 312 20 view .LVU226
 579 00f6 9862     		str	r0, [r3, #40]
 580              		.loc 1 317 5 is_stmt 1 view .LVU227
 581              	.LVL17:
 582              		.loc 1 322 5 view .LVU228
 583              		.loc 1 340 20 is_stmt 0 view .LVU229
 584 00f8 3A4C     		ldr	r4, .L44+36
 585              		.loc 1 322 20 view .LVU230
 586 00fa 5A63     		str	r2, [r3, #52]
 587              		.loc 1 323 5 is_stmt 1 view .LVU231
 588              		.loc 1 357 20 is_stmt 0 view .LVU232
 589 00fc 3A48     		ldr	r0, .L44+40
 590              		.loc 1 323 20 view .LVU233
 591 00fe 1963     		str	r1, [r3, #48]
 592              		.loc 1 325 5 is_stmt 1 view .LVU234
 593              	.LVL18:
 594              		.loc 1 326 5 view .LVU235
 595              		.loc 1 328 5 view .LVU236
 596              		.loc 1 331 5 view .LVU237
 597              		.loc 1 334 5 view .LVU238
 598              		.loc 1 339 5 view .LVU239
 599              		.loc 1 373 18 is_stmt 0 view .LVU240
 600 0100 3A49     		ldr	r1, .L44+44
 601              		.loc 1 339 20 view .LVU241
 602 0102 DA63     		str	r2, [r3, #60]
 603              		.loc 1 340 5 is_stmt 1 view .LVU242
 604              		.loc 1 340 20 is_stmt 0 view .LVU243
 605 0104 9C63     		str	r4, [r3, #56]
 606              		.loc 1 342 5 is_stmt 1 view .LVU244
 607              	.LVL19:
 608              		.loc 1 343 5 view .LVU245
 609              		.loc 1 345 5 view .LVU246
 610              		.loc 1 348 5 view .LVU247
 611              		.loc 1 351 5 view .LVU248
 612              		.loc 1 356 5 view .LVU249
 613              		.loc 1 356 20 is_stmt 0 view .LVU250
 614 0106 5A64     		str	r2, [r3, #68]
 615              		.loc 1 357 5 is_stmt 1 view .LVU251
 616              		.loc 1 357 20 is_stmt 0 view .LVU252
 617 0108 1864     		str	r0, [r3, #64]
 618              		.loc 1 359 5 is_stmt 1 view .LVU253
 619              	.LVL20:
 620              		.loc 1 360 5 view .LVU254
 621              		.loc 1 362 5 view .LVU255
 622              		.loc 1 365 5 view .LVU256
 623              		.loc 1 368 5 view .LVU257
 624              		.loc 1 373 5 view .LVU258
 625              		.loc 1 373 18 is_stmt 0 view .LVU259
 626 010a D962     		str	r1, [r3, #44]
 627              		.loc 1 374 5 is_stmt 1 view .LVU260
ARM GAS  C:\Users\DEVELO~1\AppData\Local\Temp\ccASuyx8.s 			page 12


 628              		.loc 1 374 17 is_stmt 0 view .LVU261
 629 010c 1968     		ldr	r1, [r3]
 630              		.loc 1 375 16 view .LVU262
 631 010e 2C4A     		ldr	r2, .L44
 632              		.loc 1 374 17 view .LVU263
 633 0110 41F0A851 		orr	r1, r1, #352321536
 634 0114 1960     		str	r1, [r3]
 635              		.loc 1 375 5 is_stmt 1 view .LVU264
 636              	.L17:
 637              		.loc 1 375 32 discriminator 1 view .LVU265
 638              		.loc 1 375 16 is_stmt 0 discriminator 1 view .LVU266
 639 0116 1368     		ldr	r3, [r2]
 640              		.loc 1 375 21 discriminator 1 view .LVU267
 641 0118 03F02853 		and	r3, r3, #704643072
 642              		.loc 1 375 32 discriminator 1 view .LVU268
 643 011c B3F1285F 		cmp	r3, #704643072
 644 0120 F9D1     		bne	.L17
 645              	.LBE82:
 646              		.loc 1 386 3 is_stmt 1 view .LVU269
 647              		.loc 1 386 15 is_stmt 0 view .LVU270
 648 0122 4824     		movs	r4, #72
 649              		.loc 1 387 15 view .LVU271
 650 0124 4FF48861 		mov	r1, #1088
 651              		.loc 1 388 15 view .LVU272
 652 0128 4020     		movs	r0, #64
 653              		.loc 1 395 17 view .LVU273
 654 012a 0023     		movs	r3, #0
 655              		.loc 1 386 15 view .LVU274
 656 012c 9461     		str	r4, [r2, #24]
 657              		.loc 1 387 3 is_stmt 1 view .LVU275
 658              		.loc 1 398 17 is_stmt 0 view .LVU276
 659 012e 4FF44014 		mov	r4, #3145728
 660              		.loc 1 387 15 view .LVU277
 661 0132 D161     		str	r1, [r2, #28]
 662              		.loc 1 388 3 is_stmt 1 view .LVU278
 663              		.loc 1 393 17 is_stmt 0 view .LVU279
 664 0134 4FF00051 		mov	r1, #536870912
 665              		.loc 1 388 15 view .LVU280
 666 0138 1062     		str	r0, [r2, #32]
 667              		.loc 1 393 3 is_stmt 1 view .LVU281
 668              		.loc 1 432 14 is_stmt 0 view .LVU282
 669 013a 3220     		movs	r0, #50
 670              		.loc 1 393 17 view .LVU283
 671 013c D164     		str	r1, [r2, #76]
 672              		.loc 1 395 3 is_stmt 1 view .LVU284
 673              		.loc 1 432 14 is_stmt 0 view .LVU285
 674 013e 2C49     		ldr	r1, .L44+48
 675              		.loc 1 395 17 view .LVU286
 676 0140 1365     		str	r3, [r2, #80]
 677              		.loc 1 398 3 is_stmt 1 view .LVU287
 678              		.loc 1 398 17 is_stmt 0 view .LVU288
 679 0142 5465     		str	r4, [r2, #84]
 680              		.loc 1 401 3 is_stmt 1 view .LVU289
 681              		.loc 1 401 17 is_stmt 0 view .LVU290
 682 0144 9365     		str	r3, [r2, #88]
 683              		.loc 1 432 3 is_stmt 1 view .LVU291
 684              		.loc 1 432 14 is_stmt 0 view .LVU292
ARM GAS  C:\Users\DEVELO~1\AppData\Local\Temp\ccASuyx8.s 			page 13


 685 0146 0860     		str	r0, [r1]
 686              		.loc 1 434 3 is_stmt 1 view .LVU293
 687              	.L18:
 688              		.loc 1 436 3 discriminator 1 view .LVU294
 689              		.loc 1 434 43 discriminator 1 view .LVU295
 690              		.loc 1 434 16 is_stmt 0 discriminator 1 view .LVU296
 691 0148 0B68     		ldr	r3, [r1]
 692              		.loc 1 434 22 discriminator 1 view .LVU297
 693 014a 03F00F03 		and	r3, r3, #15
 694              		.loc 1 434 43 discriminator 1 view .LVU298
 695 014e 022B     		cmp	r3, #2
 696 0150 FAD1     		bne	.L18
 697              		.loc 1 441 3 is_stmt 1 view .LVU299
 698              		.loc 1 441 13 is_stmt 0 view .LVU300
 699 0152 1B4A     		ldr	r2, .L44
 700 0154 1369     		ldr	r3, [r2, #16]
 701 0156 43F00303 		orr	r3, r3, #3
 702 015a 1361     		str	r3, [r2, #16]
 703              		.loc 1 442 3 is_stmt 1 view .LVU301
 704              	.L19:
 705              		.loc 1 442 41 discriminator 1 view .LVU302
 706              		.loc 1 442 14 is_stmt 0 discriminator 1 view .LVU303
 707 015c 1369     		ldr	r3, [r2, #16]
 708              		.loc 1 442 21 discriminator 1 view .LVU304
 709 015e 03F03803 		and	r3, r3, #56
 710              		.loc 1 442 41 discriminator 1 view .LVU305
 711 0162 182B     		cmp	r3, #24
 712 0164 FAD1     		bne	.L19
 713              		.loc 1 457 3 is_stmt 1 view .LVU306
 714              	.LVL21:
 715              	.LBB83:
 716              	.LBI83:
 717              		.loc 2 675 22 view .LVU307
 718              	.LBB84:
 719              		.loc 2 679 3 view .LVU308
 720              		.loc 2 679 19 is_stmt 0 view .LVU309
 721 0166 D2F8DC30 		ldr	r3, [r2, #220]
 722              	.LBE84:
 723              	.LBE83:
 724              		.loc 1 463 1 view .LVU310
 725 016a 10BC     		pop	{r4}
 726              		.cfi_restore 4
 727              		.cfi_def_cfa_offset 0
 728              	.LBB86:
 729              	.LBB85:
 730              		.loc 2 679 19 view .LVU311
 731 016c 43F00053 		orr	r3, r3, #536870912
 732 0170 C2F8DC30 		str	r3, [r2, #220]
 733              		.loc 2 680 3 is_stmt 1 view .LVU312
 734              		.loc 2 681 5 view .LVU313
 735              		.loc 2 681 23 is_stmt 0 view .LVU314
 736 0174 D2F80431 		ldr	r3, [r2, #260]
 737 0178 43F00053 		orr	r3, r3, #536870912
 738 017c C2F80431 		str	r3, [r2, #260]
 739              		.loc 2 686 3 is_stmt 1 view .LVU315
 740 0180 D2F80431 		ldr	r3, [r2, #260]
 741              	.LVL22:
ARM GAS  C:\Users\DEVELO~1\AppData\Local\Temp\ccASuyx8.s 			page 14


 742              		.loc 2 686 3 is_stmt 0 view .LVU316
 743              	.LBE85:
 744              	.LBE86:
 745              		.loc 1 458 3 is_stmt 1 view .LVU317
 746              	.LBB87:
 747              	.LBI87:
 748              		.loc 2 675 22 view .LVU318
 749              	.LBB88:
 750              		.loc 2 679 3 view .LVU319
 751              		.loc 2 679 19 is_stmt 0 view .LVU320
 752 0184 D2F8DC30 		ldr	r3, [r2, #220]
 753 0188 43F08043 		orr	r3, r3, #1073741824
 754 018c C2F8DC30 		str	r3, [r2, #220]
 755              		.loc 2 680 3 is_stmt 1 view .LVU321
 756              		.loc 2 681 5 view .LVU322
 757              		.loc 2 681 23 is_stmt 0 view .LVU323
 758 0190 D2F80431 		ldr	r3, [r2, #260]
 759 0194 43F08043 		orr	r3, r3, #1073741824
 760 0198 C2F80431 		str	r3, [r2, #260]
 761              		.loc 2 686 3 is_stmt 1 view .LVU324
 762 019c D2F80431 		ldr	r3, [r2, #260]
 763              	.LVL23:
 764              		.loc 2 686 3 is_stmt 0 view .LVU325
 765              	.LBE88:
 766              	.LBE87:
 767              		.loc 1 460 3 is_stmt 1 view .LVU326
 768              	.LBB89:
 769              	.LBI89:
 770              		.loc 2 675 22 view .LVU327
 771              	.LBB90:
 772              		.loc 2 679 3 view .LVU328
 773              		.loc 2 679 19 is_stmt 0 view .LVU329
 774 01a0 D2F8DC30 		ldr	r3, [r2, #220]
 775 01a4 43F00043 		orr	r3, r3, #-2147483648
 776 01a8 C2F8DC30 		str	r3, [r2, #220]
 777              		.loc 2 680 3 is_stmt 1 view .LVU330
 778              		.loc 2 681 5 view .LVU331
 779              		.loc 2 681 23 is_stmt 0 view .LVU332
 780 01ac D2F80431 		ldr	r3, [r2, #260]
 781 01b0 43F00043 		orr	r3, r3, #-2147483648
 782 01b4 C2F80431 		str	r3, [r2, #260]
 783              		.loc 2 686 3 is_stmt 1 view .LVU333
 784 01b8 D2F80431 		ldr	r3, [r2, #260]
 785              	.LVL24:
 786              		.loc 2 686 3 is_stmt 0 view .LVU334
 787              	.LBE90:
 788              	.LBE89:
 789              		.loc 1 463 1 view .LVU335
 790 01bc 7047     		bx	lr
 791              	.L45:
 792 01be 00BF     		.align	2
 793              	.L44:
 794 01c0 00440258 		.word	1476543488
 795 01c4 00800051 		.word	1358987264
 796 01c8 00480258 		.word	1476544512
 797 01cc 00C000F0 		.word	-268386304
 798 01d0 02000001 		.word	16777218
ARM GAS  C:\Users\DEVELO~1\AppData\Local\Temp\ccASuyx8.s 			page 15


 799 01d4 0000FF01 		.word	33488896
 800 01d8 00881008 		.word	135301120
 801 01dc 42404000 		.word	4210754
 802 01e0 8F030F07 		.word	118424463
 803 01e4 8F4F0707 		.word	117919631
 804 01e8 8F0F0707 		.word	117903247
 805 01ec 5505FF01 		.word	33490261
 806 01f0 00200052 		.word	1375739904
 807              		.cfi_endproc
 808              	.LFE434:
 809              		.size	stm32_clock_init, .-stm32_clock_init
 810              		.global	SystemCoreClock
 811              		.section	.data.SystemCoreClock,"aw"
 812              		.align	2
 813              		.type	SystemCoreClock, %object
 814              		.size	SystemCoreClock, 4
 815              	SystemCoreClock:
 816 0000 0084D717 		.word	400000000
 817              		.text
 818              	.Letext0:
 819              		.file 3 "c:\\chibistudio\\tools\\gnu tools arm embedded\\11.3 2022.08\\arm-none-eabi\\include\\mac
 820              		.file 4 "c:\\chibistudio\\tools\\gnu tools arm embedded\\11.3 2022.08\\arm-none-eabi\\include\\sys
 821              		.file 5 "../../../os/common/ext/ST/STM32H7xx/stm32h743xx.h"
 822              		.file 6 "../../../os/hal/ports/STM32/STM32H7xx/stm32_isr.h"
 823              		.file 7 "../../../os/hal/ports/STM32/LLD/DMAv2/stm32_dma.h"
 824              		.file 8 "../../../os/hal/ports/STM32/LLD/BDMAv1/stm32_bdma.h"
 825              		.file 9 "../../../os/common/ext/ST/STM32H7xx/system_stm32h7xx.h"
 826              		.section	.debug_info,"",%progbits
 827              	.Ldebug_info0:
 828 0000 5D0B0000 		.4byte	0xb5d
 829 0004 0500     		.2byte	0x5
 830 0006 01       		.byte	0x1
 831 0007 04       		.byte	0x4
 832 0008 00000000 		.4byte	.Ldebug_abbrev0
 833 000c 18       		.uleb128 0x18
 834 000d 8A020000 		.4byte	.LASF143
 835 0011 1D       		.byte	0x1d
 836 0012 57000000 		.4byte	.LASF144
 837 0016 A2010000 		.4byte	.LASF145
 838 001a 5D000000 		.4byte	.LLRL27
 839 001e 00000000 		.4byte	0
 840 0022 00000000 		.4byte	.Ldebug_line0
 841 0026 19       		.uleb128 0x19
 842 0027 04       		.byte	0x4
 843 0028 05       		.byte	0x5
 844 0029 696E7400 		.ascii	"int\000"
 845 002d 04       		.uleb128 0x4
 846 002e 04       		.byte	0x4
 847 002f 07       		.byte	0x7
 848 0030 41020000 		.4byte	.LASF0
 849 0034 04       		.uleb128 0x4
 850 0035 08       		.byte	0x8
 851 0036 05       		.byte	0x5
 852 0037 D1000000 		.4byte	.LASF1
 853 003b 04       		.uleb128 0x4
 854 003c 08       		.byte	0x8
 855 003d 04       		.byte	0x4
ARM GAS  C:\Users\DEVELO~1\AppData\Local\Temp\ccASuyx8.s 			page 16


 856 003e A7050000 		.4byte	.LASF2
 857 0042 04       		.uleb128 0x4
 858 0043 01       		.byte	0x1
 859 0044 06       		.byte	0x6
 860 0045 1D000000 		.4byte	.LASF3
 861 0049 04       		.uleb128 0x4
 862 004a 01       		.byte	0x1
 863 004b 08       		.byte	0x8
 864 004c 24050000 		.4byte	.LASF4
 865 0050 04       		.uleb128 0x4
 866 0051 02       		.byte	0x2
 867 0052 05       		.byte	0x5
 868 0053 32050000 		.4byte	.LASF5
 869 0057 04       		.uleb128 0x4
 870 0058 02       		.byte	0x2
 871 0059 07       		.byte	0x7
 872 005a 48030000 		.4byte	.LASF6
 873 005e 04       		.uleb128 0x4
 874 005f 04       		.byte	0x4
 875 0060 05       		.byte	0x5
 876 0061 34000000 		.4byte	.LASF7
 877 0065 0F       		.uleb128 0xf
 878 0066 05020000 		.4byte	.LASF10
 879 006a 03       		.byte	0x3
 880 006b 4F       		.byte	0x4f
 881 006c 19       		.byte	0x19
 882 006d 71000000 		.4byte	0x71
 883 0071 04       		.uleb128 0x4
 884 0072 04       		.byte	0x4
 885 0073 07       		.byte	0x7
 886 0074 66020000 		.4byte	.LASF8
 887 0078 04       		.uleb128 0x4
 888 0079 08       		.byte	0x8
 889 007a 07       		.byte	0x7
 890 007b 04010000 		.4byte	.LASF9
 891 007f 0F       		.uleb128 0xf
 892 0080 89050000 		.4byte	.LASF11
 893 0084 04       		.byte	0x4
 894 0085 30       		.byte	0x30
 895 0086 14       		.byte	0x14
 896 0087 65000000 		.4byte	0x65
 897 008b 1A       		.uleb128 0x1a
 898 008c 7F000000 		.4byte	0x7f
 899 0090 04       		.uleb128 0x4
 900 0091 01       		.byte	0x1
 901 0092 08       		.byte	0x8
 902 0093 B3050000 		.4byte	.LASF12
 903 0097 09       		.uleb128 0x9
 904 0098 7F000000 		.4byte	0x7f
 905 009c A7000000 		.4byte	0xa7
 906 00a0 0A       		.uleb128 0xa
 907 00a1 2D000000 		.4byte	0x2d
 908 00a5 01       		.byte	0x1
 909 00a6 00       		.byte	0
 910 00a7 1B       		.uleb128 0x1b
 911 00a8 56020000 		.4byte	.LASF123
 912 00ac 09       		.byte	0x9
ARM GAS  C:\Users\DEVELO~1\AppData\Local\Temp\ccASuyx8.s 			page 17


 913 00ad 39       		.byte	0x39
 914 00ae 11       		.byte	0x11
 915 00af 7F000000 		.4byte	0x7f
 916 00b3 09       		.uleb128 0x9
 917 00b4 7F000000 		.4byte	0x7f
 918 00b8 C3000000 		.4byte	0xc3
 919 00bc 0A       		.uleb128 0xa
 920 00bd 2D000000 		.4byte	0x2d
 921 00c1 03       		.byte	0x3
 922 00c2 00       		.byte	0
 923 00c3 09       		.uleb128 0x9
 924 00c4 7F000000 		.4byte	0x7f
 925 00c8 D3000000 		.4byte	0xd3
 926 00cc 0A       		.uleb128 0xa
 927 00cd 2D000000 		.4byte	0x2d
 928 00d1 08       		.byte	0x8
 929 00d2 00       		.byte	0
 930 00d3 10       		.uleb128 0x10
 931 00d4 6401     		.2byte	0x164
 932 00d6 9303     		.2byte	0x393
 933 00d8 1C030000 		.4byte	0x31c
 934 00dc 05       		.uleb128 0x5
 935 00dd 41435200 		.ascii	"ACR\000"
 936 00e1 9503     		.2byte	0x395
 937 00e3 11       		.byte	0x11
 938 00e4 8B000000 		.4byte	0x8b
 939 00e8 00       		.byte	0
 940 00e9 01       		.uleb128 0x1
 941 00ea DB050000 		.4byte	.LASF13
 942 00ee 9603     		.2byte	0x396
 943 00f0 11       		.byte	0x11
 944 00f1 8B000000 		.4byte	0x8b
 945 00f5 04       		.byte	0x4
 946 00f6 01       		.uleb128 0x1
 947 00f7 77010000 		.4byte	.LASF14
 948 00fb 9703     		.2byte	0x397
 949 00fd 11       		.byte	0x11
 950 00fe 8B000000 		.4byte	0x8b
 951 0102 08       		.byte	0x8
 952 0103 05       		.uleb128 0x5
 953 0104 43523100 		.ascii	"CR1\000"
 954 0108 9803     		.2byte	0x398
 955 010a 11       		.byte	0x11
 956 010b 8B000000 		.4byte	0x8b
 957 010f 0C       		.byte	0xc
 958 0110 05       		.uleb128 0x5
 959 0111 53523100 		.ascii	"SR1\000"
 960 0115 9903     		.2byte	0x399
 961 0117 11       		.byte	0x11
 962 0118 8B000000 		.4byte	0x8b
 963 011c 10       		.byte	0x10
 964 011d 01       		.uleb128 0x1
 965 011e 27060000 		.4byte	.LASF15
 966 0122 9A03     		.2byte	0x39a
 967 0124 11       		.byte	0x11
 968 0125 8B000000 		.4byte	0x8b
 969 0129 14       		.byte	0x14
ARM GAS  C:\Users\DEVELO~1\AppData\Local\Temp\ccASuyx8.s 			page 18


 970 012a 01       		.uleb128 0x1
 971 012b 3D000000 		.4byte	.LASF16
 972 012f 9B03     		.2byte	0x39b
 973 0131 11       		.byte	0x11
 974 0132 8B000000 		.4byte	0x8b
 975 0136 18       		.byte	0x18
 976 0137 01       		.uleb128 0x1
 977 0138 40040000 		.4byte	.LASF17
 978 013c 9C03     		.2byte	0x39c
 979 013e 11       		.byte	0x11
 980 013f 8B000000 		.4byte	0x8b
 981 0143 1C       		.byte	0x1c
 982 0144 01       		.uleb128 0x1
 983 0145 B8050000 		.4byte	.LASF18
 984 0149 9D03     		.2byte	0x39d
 985 014b 11       		.byte	0x11
 986 014c 8B000000 		.4byte	0x8b
 987 0150 20       		.byte	0x20
 988 0151 01       		.uleb128 0x1
 989 0152 1B010000 		.4byte	.LASF19
 990 0156 9E03     		.2byte	0x39e
 991 0158 11       		.byte	0x11
 992 0159 8B000000 		.4byte	0x8b
 993 015d 24       		.byte	0x24
 994 015e 01       		.uleb128 0x1
 995 015f 88030000 		.4byte	.LASF20
 996 0163 9F03     		.2byte	0x39f
 997 0165 11       		.byte	0x11
 998 0166 8B000000 		.4byte	0x8b
 999 016a 28       		.byte	0x28
 1000 016b 01       		.uleb128 0x1
 1001 016c 43000000 		.4byte	.LASF21
 1002 0170 A003     		.2byte	0x3a0
 1003 0172 11       		.byte	0x11
 1004 0173 8B000000 		.4byte	0x8b
 1005 0177 2C       		.byte	0x2c
 1006 0178 01       		.uleb128 0x1
 1007 0179 7F010000 		.4byte	.LASF22
 1008 017d A103     		.2byte	0x3a1
 1009 017f 11       		.byte	0x11
 1010 0180 8B000000 		.4byte	0x8b
 1011 0184 30       		.byte	0x30
 1012 0185 01       		.uleb128 0x1
 1013 0186 CF030000 		.4byte	.LASF23
 1014 018a A203     		.2byte	0x3a2
 1015 018c 11       		.byte	0x11
 1016 018d 8B000000 		.4byte	0x8b
 1017 0191 34       		.byte	0x34
 1018 0192 01       		.uleb128 0x1
 1019 0193 08060000 		.4byte	.LASF24
 1020 0197 A303     		.2byte	0x3a3
 1021 0199 11       		.byte	0x11
 1022 019a 8B000000 		.4byte	0x8b
 1023 019e 38       		.byte	0x38
 1024 019f 01       		.uleb128 0x1
 1025 01a0 F9030000 		.4byte	.LASF25
 1026 01a4 A403     		.2byte	0x3a4
ARM GAS  C:\Users\DEVELO~1\AppData\Local\Temp\ccASuyx8.s 			page 19


 1027 01a6 11       		.byte	0x11
 1028 01a7 8B000000 		.4byte	0x8b
 1029 01ab 3C       		.byte	0x3c
 1030 01ac 01       		.uleb128 0x1
 1031 01ad DF000000 		.4byte	.LASF26
 1032 01b1 A503     		.2byte	0x3a5
 1033 01b3 11       		.byte	0x11
 1034 01b4 8B000000 		.4byte	0x8b
 1035 01b8 40       		.byte	0x40
 1036 01b9 01       		.uleb128 0x1
 1037 01ba 3F030000 		.4byte	.LASF27
 1038 01be A603     		.2byte	0x3a6
 1039 01c0 11       		.byte	0x11
 1040 01c1 8B000000 		.4byte	0x8b
 1041 01c5 44       		.byte	0x44
 1042 01c6 01       		.uleb128 0x1
 1043 01c7 C8040000 		.4byte	.LASF28
 1044 01cb A703     		.2byte	0x3a7
 1045 01cd 11       		.byte	0x11
 1046 01ce 97000000 		.4byte	0x97
 1047 01d2 48       		.byte	0x48
 1048 01d3 01       		.uleb128 0x1
 1049 01d4 32040000 		.4byte	.LASF29
 1050 01d8 A803     		.2byte	0x3a8
 1051 01da 11       		.byte	0x11
 1052 01db 8B000000 		.4byte	0x8b
 1053 01df 50       		.byte	0x50
 1054 01e0 01       		.uleb128 0x1
 1055 01e1 56060000 		.4byte	.LASF30
 1056 01e5 A903     		.2byte	0x3a9
 1057 01e7 11       		.byte	0x11
 1058 01e8 8B000000 		.4byte	0x8b
 1059 01ec 54       		.byte	0x54
 1060 01ed 01       		.uleb128 0x1
 1061 01ee 0D040000 		.4byte	.LASF31
 1062 01f2 AA03     		.2byte	0x3aa
 1063 01f4 11       		.byte	0x11
 1064 01f5 8B000000 		.4byte	0x8b
 1065 01f9 58       		.byte	0x58
 1066 01fa 01       		.uleb128 0x1
 1067 01fb 6F010000 		.4byte	.LASF32
 1068 01ff AB03     		.2byte	0x3ab
 1069 0201 11       		.byte	0x11
 1070 0202 8B000000 		.4byte	0x8b
 1071 0206 5C       		.byte	0x5c
 1072 0207 01       		.uleb128 0x1
 1073 0208 50050000 		.4byte	.LASF33
 1074 020c AC03     		.2byte	0x3ac
 1075 020e 11       		.byte	0x11
 1076 020f 8B000000 		.4byte	0x8b
 1077 0213 60       		.byte	0x60
 1078 0214 01       		.uleb128 0x1
 1079 0215 D2040000 		.4byte	.LASF34
 1080 0219 AD03     		.2byte	0x3ad
 1081 021b 11       		.byte	0x11
 1082 021c 1C030000 		.4byte	0x31c
 1083 0220 64       		.byte	0x64
ARM GAS  C:\Users\DEVELO~1\AppData\Local\Temp\ccASuyx8.s 			page 20


 1084 0221 02       		.uleb128 0x2
 1085 0222 CB050000 		.4byte	.LASF35
 1086 0226 AE03     		.2byte	0x3ae
 1087 0228 11       		.byte	0x11
 1088 0229 8B000000 		.4byte	0x8b
 1089 022d 0401     		.2byte	0x104
 1090 022f 02       		.uleb128 0x2
 1091 0230 DC040000 		.4byte	.LASF36
 1092 0234 AF03     		.2byte	0x3af
 1093 0236 11       		.byte	0x11
 1094 0237 7F000000 		.4byte	0x7f
 1095 023b 0801     		.2byte	0x108
 1096 023d 11       		.uleb128 0x11
 1097 023e 43523200 		.ascii	"CR2\000"
 1098 0242 B003     		.2byte	0x3b0
 1099 0244 8B000000 		.4byte	0x8b
 1100 0248 0C01     		.2byte	0x10c
 1101 024a 11       		.uleb128 0x11
 1102 024b 53523200 		.ascii	"SR2\000"
 1103 024f B103     		.2byte	0x3b1
 1104 0251 8B000000 		.4byte	0x8b
 1105 0255 1001     		.2byte	0x110
 1106 0257 02       		.uleb128 0x2
 1107 0258 2C060000 		.4byte	.LASF37
 1108 025c B203     		.2byte	0x3b2
 1109 025e 11       		.byte	0x11
 1110 025f 8B000000 		.4byte	0x8b
 1111 0263 1401     		.2byte	0x114
 1112 0265 02       		.uleb128 0x2
 1113 0266 E6040000 		.4byte	.LASF38
 1114 026a B303     		.2byte	0x3b3
 1115 026c 11       		.byte	0x11
 1116 026d B3000000 		.4byte	0xb3
 1117 0271 1801     		.2byte	0x118
 1118 0273 02       		.uleb128 0x2
 1119 0274 92030000 		.4byte	.LASF39
 1120 0278 B403     		.2byte	0x3b4
 1121 027a 11       		.byte	0x11
 1122 027b 8B000000 		.4byte	0x8b
 1123 027f 2801     		.2byte	0x128
 1124 0281 02       		.uleb128 0x2
 1125 0282 4D000000 		.4byte	.LASF40
 1126 0286 B503     		.2byte	0x3b5
 1127 0288 11       		.byte	0x11
 1128 0289 8B000000 		.4byte	0x8b
 1129 028d 2C01     		.2byte	0x12c
 1130 028f 02       		.uleb128 0x2
 1131 0290 91010000 		.4byte	.LASF41
 1132 0294 B603     		.2byte	0x3b6
 1133 0296 11       		.byte	0x11
 1134 0297 8B000000 		.4byte	0x8b
 1135 029b 3001     		.2byte	0x130
 1136 029d 02       		.uleb128 0x2
 1137 029e D9030000 		.4byte	.LASF42
 1138 02a2 B703     		.2byte	0x3b7
 1139 02a4 11       		.byte	0x11
 1140 02a5 8B000000 		.4byte	0x8b
ARM GAS  C:\Users\DEVELO~1\AppData\Local\Temp\ccASuyx8.s 			page 21


 1141 02a9 3401     		.2byte	0x134
 1142 02ab 02       		.uleb128 0x2
 1143 02ac 12060000 		.4byte	.LASF43
 1144 02b0 B803     		.2byte	0x3b8
 1145 02b2 11       		.byte	0x11
 1146 02b3 8B000000 		.4byte	0x8b
 1147 02b7 3801     		.2byte	0x138
 1148 02b9 02       		.uleb128 0x2
 1149 02ba 03040000 		.4byte	.LASF44
 1150 02be B903     		.2byte	0x3b9
 1151 02c0 11       		.byte	0x11
 1152 02c1 8B000000 		.4byte	0x8b
 1153 02c5 3C01     		.2byte	0x13c
 1154 02c7 02       		.uleb128 0x2
 1155 02c8 7F050000 		.4byte	.LASF45
 1156 02cc BA03     		.2byte	0x3ba
 1157 02ce 11       		.byte	0x11
 1158 02cf B3000000 		.4byte	0xb3
 1159 02d3 4001     		.2byte	0x140
 1160 02d5 02       		.uleb128 0x2
 1161 02d6 39040000 		.4byte	.LASF46
 1162 02da BB03     		.2byte	0x3bb
 1163 02dc 11       		.byte	0x11
 1164 02dd 8B000000 		.4byte	0x8b
 1165 02e1 5001     		.2byte	0x150
 1166 02e3 02       		.uleb128 0x2
 1167 02e4 5F060000 		.4byte	.LASF47
 1168 02e8 BC03     		.2byte	0x3bc
 1169 02ea 11       		.byte	0x11
 1170 02eb 8B000000 		.4byte	0x8b
 1171 02ef 5401     		.2byte	0x154
 1172 02f1 02       		.uleb128 0x2
 1173 02f2 16040000 		.4byte	.LASF48
 1174 02f6 BD03     		.2byte	0x3bd
 1175 02f8 11       		.byte	0x11
 1176 02f9 8B000000 		.4byte	0x8b
 1177 02fd 5801     		.2byte	0x158
 1178 02ff 02       		.uleb128 0x2
 1179 0300 43010000 		.4byte	.LASF49
 1180 0304 BE03     		.2byte	0x3be
 1181 0306 11       		.byte	0x11
 1182 0307 8B000000 		.4byte	0x8b
 1183 030b 5C01     		.2byte	0x15c
 1184 030d 02       		.uleb128 0x2
 1185 030e 58050000 		.4byte	.LASF50
 1186 0312 BF03     		.2byte	0x3bf
 1187 0314 11       		.byte	0x11
 1188 0315 8B000000 		.4byte	0x8b
 1189 0319 6001     		.2byte	0x160
 1190 031b 00       		.byte	0
 1191 031c 09       		.uleb128 0x9
 1192 031d 7F000000 		.4byte	0x7f
 1193 0321 2C030000 		.4byte	0x32c
 1194 0325 0A       		.uleb128 0xa
 1195 0326 2D000000 		.4byte	0x2d
 1196 032a 27       		.byte	0x27
 1197 032b 00       		.byte	0
ARM GAS  C:\Users\DEVELO~1\AppData\Local\Temp\ccASuyx8.s 			page 22


 1198 032c 0C       		.uleb128 0xc
 1199 032d F6000000 		.4byte	.LASF51
 1200 0331 C003     		.2byte	0x3c0
 1201 0333 D3000000 		.4byte	0xd3
 1202 0337 1C       		.uleb128 0x1c
 1203 0338 2C       		.byte	0x2c
 1204 0339 05       		.byte	0x5
 1205 033a BB04     		.2byte	0x4bb
 1206 033c 09       		.byte	0x9
 1207 033d D1030000 		.4byte	0x3d1
 1208 0341 05       		.uleb128 0x5
 1209 0342 43523100 		.ascii	"CR1\000"
 1210 0346 BD04     		.2byte	0x4bd
 1211 0348 11       		.byte	0x11
 1212 0349 8B000000 		.4byte	0x8b
 1213 034d 00       		.byte	0
 1214 034e 01       		.uleb128 0x1
 1215 034f 83060000 		.4byte	.LASF52
 1216 0353 BE04     		.2byte	0x4be
 1217 0355 11       		.byte	0x11
 1218 0356 8B000000 		.4byte	0x8b
 1219 035a 04       		.byte	0x4
 1220 035b 05       		.uleb128 0x5
 1221 035c 43523200 		.ascii	"CR2\000"
 1222 0360 BF04     		.2byte	0x4bf
 1223 0362 11       		.byte	0x11
 1224 0363 8B000000 		.4byte	0x8b
 1225 0367 08       		.byte	0x8
 1226 0368 05       		.uleb128 0x5
 1227 0369 43523300 		.ascii	"CR3\000"
 1228 036d C004     		.2byte	0x4c0
 1229 036f 11       		.byte	0x11
 1230 0370 8B000000 		.4byte	0x8b
 1231 0374 0C       		.byte	0xc
 1232 0375 01       		.uleb128 0x1
 1233 0376 78020000 		.4byte	.LASF53
 1234 037a C104     		.2byte	0x4c1
 1235 037c 11       		.byte	0x11
 1236 037d 8B000000 		.4byte	0x8b
 1237 0381 10       		.byte	0x10
 1238 0382 01       		.uleb128 0x1
 1239 0383 C8040000 		.4byte	.LASF28
 1240 0387 C204     		.2byte	0x4c2
 1241 0389 11       		.byte	0x11
 1242 038a 7F000000 		.4byte	0x7f
 1243 038e 14       		.byte	0x14
 1244 038f 01       		.uleb128 0x1
 1245 0390 92050000 		.4byte	.LASF54
 1246 0394 C304     		.2byte	0x4c3
 1247 0396 11       		.byte	0x11
 1248 0397 8B000000 		.4byte	0x8b
 1249 039b 18       		.byte	0x18
 1250 039c 01       		.uleb128 0x1
 1251 039d D2040000 		.4byte	.LASF34
 1252 03a1 C404     		.2byte	0x4c4
 1253 03a3 11       		.byte	0x11
 1254 03a4 7F000000 		.4byte	0x7f
ARM GAS  C:\Users\DEVELO~1\AppData\Local\Temp\ccASuyx8.s 			page 23


 1255 03a8 1C       		.byte	0x1c
 1256 03a9 01       		.uleb128 0x1
 1257 03aa E8000000 		.4byte	.LASF55
 1258 03ae C504     		.2byte	0x4c5
 1259 03b0 11       		.byte	0x11
 1260 03b1 8B000000 		.4byte	0x8b
 1261 03b5 20       		.byte	0x20
 1262 03b6 01       		.uleb128 0x1
 1263 03b7 16000000 		.4byte	.LASF56
 1264 03bb C604     		.2byte	0x4c6
 1265 03bd 11       		.byte	0x11
 1266 03be 8B000000 		.4byte	0x8b
 1267 03c2 24       		.byte	0x24
 1268 03c3 01       		.uleb128 0x1
 1269 03c4 4E020000 		.4byte	.LASF57
 1270 03c8 C704     		.2byte	0x4c7
 1271 03ca 11       		.byte	0x11
 1272 03cb 8B000000 		.4byte	0x8b
 1273 03cf 28       		.byte	0x28
 1274 03d0 00       		.byte	0
 1275 03d1 0C       		.uleb128 0xc
 1276 03d2 C3030000 		.4byte	.LASF58
 1277 03d6 C804     		.2byte	0x4c8
 1278 03d8 37030000 		.4byte	0x337
 1279 03dc 10       		.uleb128 0x10
 1280 03dd 3001     		.2byte	0x130
 1281 03df CE04     		.2byte	0x4ce
 1282 03e1 3B070000 		.4byte	0x73b
 1283 03e5 05       		.uleb128 0x5
 1284 03e6 435200   		.ascii	"CR\000"
 1285 03e9 D004     		.2byte	0x4d0
 1286 03eb 10       		.byte	0x10
 1287 03ec 8B000000 		.4byte	0x8b
 1288 03f0 00       		.byte	0
 1289 03f1 01       		.uleb128 0x1
 1290 03f2 65030000 		.4byte	.LASF59
 1291 03f6 D104     		.2byte	0x4d1
 1292 03f8 10       		.byte	0x10
 1293 03f9 8B000000 		.4byte	0x8b
 1294 03fd 04       		.byte	0x4
 1295 03fe 01       		.uleb128 0x1
 1296 03ff F1010000 		.4byte	.LASF60
 1297 0403 D204     		.2byte	0x4d2
 1298 0405 10       		.byte	0x10
 1299 0406 8B000000 		.4byte	0x8b
 1300 040a 08       		.byte	0x8
 1301 040b 01       		.uleb128 0x1
 1302 040c F7050000 		.4byte	.LASF61
 1303 0410 D304     		.2byte	0x4d3
 1304 0412 10       		.byte	0x10
 1305 0413 8B000000 		.4byte	0x8b
 1306 0417 0C       		.byte	0xc
 1307 0418 01       		.uleb128 0x1
 1308 0419 75060000 		.4byte	.LASF62
 1309 041d D404     		.2byte	0x4d4
 1310 041f 10       		.byte	0x10
 1311 0420 8B000000 		.4byte	0x8b
ARM GAS  C:\Users\DEVELO~1\AppData\Local\Temp\ccASuyx8.s 			page 24


 1312 0424 10       		.byte	0x10
 1313 0425 01       		.uleb128 0x1
 1314 0426 D2040000 		.4byte	.LASF34
 1315 042a D504     		.2byte	0x4d5
 1316 042c 0F       		.byte	0xf
 1317 042d 7F000000 		.4byte	0x7f
 1318 0431 14       		.byte	0x14
 1319 0432 01       		.uleb128 0x1
 1320 0433 98060000 		.4byte	.LASF63
 1321 0437 D604     		.2byte	0x4d6
 1322 0439 10       		.byte	0x10
 1323 043a 8B000000 		.4byte	0x8b
 1324 043e 18       		.byte	0x18
 1325 043f 01       		.uleb128 0x1
 1326 0440 F0040000 		.4byte	.LASF64
 1327 0444 D704     		.2byte	0x4d7
 1328 0446 10       		.byte	0x10
 1329 0447 8B000000 		.4byte	0x8b
 1330 044b 1C       		.byte	0x1c
 1331 044c 01       		.uleb128 0x1
 1332 044d 9B010000 		.4byte	.LASF65
 1333 0451 D804     		.2byte	0x4d8
 1334 0453 10       		.byte	0x10
 1335 0454 8B000000 		.4byte	0x8b
 1336 0458 20       		.byte	0x20
 1337 0459 01       		.uleb128 0x1
 1338 045a DC040000 		.4byte	.LASF36
 1339 045e D904     		.2byte	0x4d9
 1340 0460 0F       		.byte	0xf
 1341 0461 7F000000 		.4byte	0x7f
 1342 0465 24       		.byte	0x24
 1343 0466 01       		.uleb128 0x1
 1344 0467 5B030000 		.4byte	.LASF66
 1345 046b DA04     		.2byte	0x4da
 1346 046d 10       		.byte	0x10
 1347 046e 8B000000 		.4byte	0x8b
 1348 0472 28       		.byte	0x28
 1349 0473 01       		.uleb128 0x1
 1350 0474 9A040000 		.4byte	.LASF67
 1351 0478 DB04     		.2byte	0x4db
 1352 047a 10       		.byte	0x10
 1353 047b 8B000000 		.4byte	0x8b
 1354 047f 2C       		.byte	0x2c
 1355 0480 01       		.uleb128 0x1
 1356 0481 0D000000 		.4byte	.LASF68
 1357 0485 DC04     		.2byte	0x4dc
 1358 0487 10       		.byte	0x10
 1359 0488 8B000000 		.4byte	0x8b
 1360 048c 30       		.byte	0x30
 1361 048d 01       		.uleb128 0x1
 1362 048e 4C010000 		.4byte	.LASF69
 1363 0492 DD04     		.2byte	0x4dd
 1364 0494 10       		.byte	0x10
 1365 0495 8B000000 		.4byte	0x8b
 1366 0499 34       		.byte	0x34
 1367 049a 01       		.uleb128 0x1
 1368 049b 1B050000 		.4byte	.LASF70
ARM GAS  C:\Users\DEVELO~1\AppData\Local\Temp\ccASuyx8.s 			page 25


 1369 049f DE04     		.2byte	0x4de
 1370 04a1 10       		.byte	0x10
 1371 04a2 8B000000 		.4byte	0x8b
 1372 04a6 38       		.byte	0x38
 1373 04a7 01       		.uleb128 0x1
 1374 04a8 37020000 		.4byte	.LASF71
 1375 04ac DF04     		.2byte	0x4df
 1376 04ae 10       		.byte	0x10
 1377 04af 8B000000 		.4byte	0x8b
 1378 04b3 3C       		.byte	0x3c
 1379 04b4 01       		.uleb128 0x1
 1380 04b5 FC010000 		.4byte	.LASF72
 1381 04b9 E004     		.2byte	0x4e0
 1382 04bb 10       		.byte	0x10
 1383 04bc 8B000000 		.4byte	0x8b
 1384 04c0 40       		.byte	0x40
 1385 04c1 01       		.uleb128 0x1
 1386 04c2 B0030000 		.4byte	.LASF73
 1387 04c6 E104     		.2byte	0x4e1
 1388 04c8 10       		.byte	0x10
 1389 04c9 8B000000 		.4byte	0x8b
 1390 04cd 44       		.byte	0x44
 1391 04ce 01       		.uleb128 0x1
 1392 04cf E6040000 		.4byte	.LASF38
 1393 04d3 E204     		.2byte	0x4e2
 1394 04d5 10       		.byte	0x10
 1395 04d6 7F000000 		.4byte	0x7f
 1396 04da 48       		.byte	0x48
 1397 04db 01       		.uleb128 0x1
 1398 04dc 97050000 		.4byte	.LASF74
 1399 04e0 E304     		.2byte	0x4e3
 1400 04e2 11       		.byte	0x11
 1401 04e3 8B000000 		.4byte	0x8b
 1402 04e7 4C       		.byte	0x4c
 1403 04e8 01       		.uleb128 0x1
 1404 04e9 15020000 		.4byte	.LASF75
 1405 04ed E404     		.2byte	0x4e4
 1406 04ef 11       		.byte	0x11
 1407 04f0 8B000000 		.4byte	0x8b
 1408 04f4 50       		.byte	0x50
 1409 04f5 01       		.uleb128 0x1
 1410 04f6 7F030000 		.4byte	.LASF76
 1411 04fa E504     		.2byte	0x4e5
 1412 04fc 11       		.byte	0x11
 1413 04fd 8B000000 		.4byte	0x8b
 1414 0501 54       		.byte	0x54
 1415 0502 01       		.uleb128 0x1
 1416 0503 1E020000 		.4byte	.LASF77
 1417 0507 E604     		.2byte	0x4e6
 1418 0509 11       		.byte	0x11
 1419 050a 8B000000 		.4byte	0x8b
 1420 050e 58       		.byte	0x58
 1421 050f 01       		.uleb128 0x1
 1422 0510 7F050000 		.4byte	.LASF45
 1423 0514 E704     		.2byte	0x4e7
 1424 0516 10       		.byte	0x10
 1425 0517 7F000000 		.4byte	0x7f
ARM GAS  C:\Users\DEVELO~1\AppData\Local\Temp\ccASuyx8.s 			page 26


 1426 051b 5C       		.byte	0x5c
 1427 051c 01       		.uleb128 0x1
 1428 051d C3000000 		.4byte	.LASF78
 1429 0521 E804     		.2byte	0x4e8
 1430 0523 11       		.byte	0x11
 1431 0524 8B000000 		.4byte	0x8b
 1432 0528 60       		.byte	0x60
 1433 0529 01       		.uleb128 0x1
 1434 052a F7010000 		.4byte	.LASF79
 1435 052e E904     		.2byte	0x4e9
 1436 0530 11       		.byte	0x11
 1437 0531 8B000000 		.4byte	0x8b
 1438 0535 64       		.byte	0x64
 1439 0536 01       		.uleb128 0x1
 1440 0537 31060000 		.4byte	.LASF80
 1441 053b EA04     		.2byte	0x4ea
 1442 053d 11       		.byte	0x11
 1443 053e 8B000000 		.4byte	0x8b
 1444 0542 68       		.byte	0x68
 1445 0543 01       		.uleb128 0x1
 1446 0544 F7040000 		.4byte	.LASF81
 1447 0548 EB04     		.2byte	0x4eb
 1448 054a 0F       		.byte	0xf
 1449 054b 7F000000 		.4byte	0x7f
 1450 054f 6C       		.byte	0x6c
 1451 0550 01       		.uleb128 0x1
 1452 0551 E1050000 		.4byte	.LASF82
 1453 0555 EC04     		.2byte	0x4ec
 1454 0557 11       		.byte	0x11
 1455 0558 8B000000 		.4byte	0x8b
 1456 055c 70       		.byte	0x70
 1457 055d 05       		.uleb128 0x5
 1458 055e 43535200 		.ascii	"CSR\000"
 1459 0562 ED04     		.2byte	0x4ed
 1460 0564 11       		.byte	0x11
 1461 0565 8B000000 		.4byte	0x8b
 1462 0569 74       		.byte	0x74
 1463 056a 01       		.uleb128 0x1
 1464 056b 01050000 		.4byte	.LASF83
 1465 056f EE04     		.2byte	0x4ee
 1466 0571 0F       		.byte	0xf
 1467 0572 7F000000 		.4byte	0x7f
 1468 0576 78       		.byte	0x78
 1469 0577 01       		.uleb128 0x1
 1470 0578 6D030000 		.4byte	.LASF84
 1471 057c EF04     		.2byte	0x4ef
 1472 057e 10       		.byte	0x10
 1473 057f 8B000000 		.4byte	0x8b
 1474 0583 7C       		.byte	0x7c
 1475 0584 01       		.uleb128 0x1
 1476 0585 FF050000 		.4byte	.LASF85
 1477 0589 F004     		.2byte	0x4f0
 1478 058b 10       		.byte	0x10
 1479 058c 8B000000 		.4byte	0x8b
 1480 0590 80       		.byte	0x80
 1481 0591 01       		.uleb128 0x1
 1482 0592 C2050000 		.4byte	.LASF86
ARM GAS  C:\Users\DEVELO~1\AppData\Local\Temp\ccASuyx8.s 			page 27


 1483 0596 F104     		.2byte	0x4f1
 1484 0598 10       		.byte	0x10
 1485 0599 8B000000 		.4byte	0x8b
 1486 059d 84       		.byte	0x84
 1487 059e 01       		.uleb128 0x1
 1488 059f C8000000 		.4byte	.LASF87
 1489 05a3 F204     		.2byte	0x4f2
 1490 05a5 10       		.byte	0x10
 1491 05a6 8B000000 		.4byte	0x8b
 1492 05aa 88       		.byte	0x88
 1493 05ab 01       		.uleb128 0x1
 1494 05ac EE050000 		.4byte	.LASF88
 1495 05b0 F304     		.2byte	0x4f3
 1496 05b2 10       		.byte	0x10
 1497 05b3 8B000000 		.4byte	0x8b
 1498 05b7 8C       		.byte	0x8c
 1499 05b8 01       		.uleb128 0x1
 1500 05b9 9C030000 		.4byte	.LASF89
 1501 05bd F404     		.2byte	0x4f4
 1502 05bf 10       		.byte	0x10
 1503 05c0 8B000000 		.4byte	0x8b
 1504 05c4 90       		.byte	0x90
 1505 05c5 01       		.uleb128 0x1
 1506 05c6 28040000 		.4byte	.LASF90
 1507 05ca F504     		.2byte	0x4f5
 1508 05cc 10       		.byte	0x10
 1509 05cd 8B000000 		.4byte	0x8b
 1510 05d1 94       		.byte	0x94
 1511 05d2 01       		.uleb128 0x1
 1512 05d3 56010000 		.4byte	.LASF91
 1513 05d7 F604     		.2byte	0x4f6
 1514 05d9 10       		.byte	0x10
 1515 05da 8B000000 		.4byte	0x8b
 1516 05de 98       		.byte	0x98
 1517 05df 01       		.uleb128 0x1
 1518 05e0 BA030000 		.4byte	.LASF92
 1519 05e4 F704     		.2byte	0x4f7
 1520 05e6 10       		.byte	0x10
 1521 05e7 8B000000 		.4byte	0x8b
 1522 05eb 9C       		.byte	0x9c
 1523 05ec 05       		.uleb128 0x5
 1524 05ed 47435200 		.ascii	"GCR\000"
 1525 05f1 F804     		.2byte	0x4f8
 1526 05f3 10       		.byte	0x10
 1527 05f4 8B000000 		.4byte	0x8b
 1528 05f8 A0       		.byte	0xa0
 1529 05f9 01       		.uleb128 0x1
 1530 05fa 0B050000 		.4byte	.LASF93
 1531 05fe F904     		.2byte	0x4f9
 1532 0600 0F       		.byte	0xf
 1533 0601 7F000000 		.4byte	0x7f
 1534 0605 A4       		.byte	0xa4
 1535 0606 01       		.uleb128 0x1
 1536 0607 96000000 		.4byte	.LASF94
 1537 060b FA04     		.2byte	0x4fa
 1538 060d 10       		.byte	0x10
 1539 060e 8B000000 		.4byte	0x8b
ARM GAS  C:\Users\DEVELO~1\AppData\Local\Temp\ccASuyx8.s 			page 28


 1540 0612 A8       		.byte	0xa8
 1541 0613 01       		.uleb128 0x1
 1542 0614 22010000 		.4byte	.LASF95
 1543 0618 FB04     		.2byte	0x4fb
 1544 061a 0F       		.byte	0xf
 1545 061b C3000000 		.4byte	0xc3
 1546 061f AC       		.byte	0xac
 1547 0620 05       		.uleb128 0x5
 1548 0621 52535200 		.ascii	"RSR\000"
 1549 0625 FC04     		.2byte	0x4fc
 1550 0627 10       		.byte	0x10
 1551 0628 8B000000 		.4byte	0x8b
 1552 062c D0       		.byte	0xd0
 1553 062d 01       		.uleb128 0x1
 1554 062e 68050000 		.4byte	.LASF96
 1555 0632 FD04     		.2byte	0x4fd
 1556 0634 10       		.byte	0x10
 1557 0635 8B000000 		.4byte	0x8b
 1558 0639 D4       		.byte	0xd4
 1559 063a 01       		.uleb128 0x1
 1560 063b 6D060000 		.4byte	.LASF97
 1561 063f FE04     		.2byte	0x4fe
 1562 0641 10       		.byte	0x10
 1563 0642 8B000000 		.4byte	0x8b
 1564 0646 D8       		.byte	0xd8
 1565 0647 01       		.uleb128 0x1
 1566 0648 E6050000 		.4byte	.LASF98
 1567 064c FF04     		.2byte	0x4ff
 1568 064e 10       		.byte	0x10
 1569 064f 8B000000 		.4byte	0x8b
 1570 0653 DC       		.byte	0xdc
 1571 0654 01       		.uleb128 0x1
 1572 0655 C0040000 		.4byte	.LASF99
 1573 0659 0005     		.2byte	0x500
 1574 065b 10       		.byte	0x10
 1575 065c 8B000000 		.4byte	0x8b
 1576 0660 E0       		.byte	0xe0
 1577 0661 01       		.uleb128 0x1
 1578 0662 B0040000 		.4byte	.LASF100
 1579 0666 0105     		.2byte	0x501
 1580 0668 10       		.byte	0x10
 1581 0669 8B000000 		.4byte	0x8b
 1582 066d E4       		.byte	0xe4
 1583 066e 01       		.uleb128 0x1
 1584 066f 7A060000 		.4byte	.LASF101
 1585 0673 0205     		.2byte	0x502
 1586 0675 10       		.byte	0x10
 1587 0676 8B000000 		.4byte	0x8b
 1588 067a E8       		.byte	0xe8
 1589 067b 01       		.uleb128 0x1
 1590 067c 76030000 		.4byte	.LASF102
 1591 0680 0305     		.2byte	0x503
 1592 0682 10       		.byte	0x10
 1593 0683 8B000000 		.4byte	0x8b
 1594 0687 EC       		.byte	0xec
 1595 0688 01       		.uleb128 0x1
 1596 0689 60050000 		.4byte	.LASF103
ARM GAS  C:\Users\DEVELO~1\AppData\Local\Temp\ccASuyx8.s 			page 29


 1597 068d 0405     		.2byte	0x504
 1598 068f 10       		.byte	0x10
 1599 0690 8B000000 		.4byte	0x8b
 1600 0694 F0       		.byte	0xf0
 1601 0695 01       		.uleb128 0x1
 1602 0696 E3030000 		.4byte	.LASF104
 1603 069a 0505     		.2byte	0x505
 1604 069c 10       		.byte	0x10
 1605 069d 8B000000 		.4byte	0x8b
 1606 06a1 F4       		.byte	0xf4
 1607 06a2 01       		.uleb128 0x1
 1608 06a3 2D010000 		.4byte	.LASF105
 1609 06a7 0605     		.2byte	0x506
 1610 06a9 10       		.byte	0x10
 1611 06aa 7F000000 		.4byte	0x7f
 1612 06ae F8       		.byte	0xf8
 1613 06af 01       		.uleb128 0x1
 1614 06b0 3C050000 		.4byte	.LASF106
 1615 06b4 0705     		.2byte	0x507
 1616 06b6 10       		.byte	0x10
 1617 06b7 8B000000 		.4byte	0x8b
 1618 06bb FC       		.byte	0xfc
 1619 06bc 02       		.uleb128 0x2
 1620 06bd B9000000 		.4byte	.LASF107
 1621 06c1 0805     		.2byte	0x508
 1622 06c3 10       		.byte	0x10
 1623 06c4 8B000000 		.4byte	0x8b
 1624 06c8 0001     		.2byte	0x100
 1625 06ca 02       		.uleb128 0x2
 1626 06cb 86040000 		.4byte	.LASF108
 1627 06cf 0905     		.2byte	0x509
 1628 06d1 10       		.byte	0x10
 1629 06d2 8B000000 		.4byte	0x8b
 1630 06d6 0401     		.2byte	0x104
 1631 06d8 02       		.uleb128 0x2
 1632 06d9 D1050000 		.4byte	.LASF109
 1633 06dd 0A05     		.2byte	0x50a
 1634 06df 10       		.byte	0x10
 1635 06e0 8B000000 		.4byte	0x8b
 1636 06e4 0801     		.2byte	0x108
 1637 06e6 02       		.uleb128 0x2
 1638 06e7 90040000 		.4byte	.LASF110
 1639 06eb 0B05     		.2byte	0x50b
 1640 06ed 10       		.byte	0x10
 1641 06ee 8B000000 		.4byte	0x8b
 1642 06f2 0C01     		.2byte	0x10c
 1643 06f4 02       		.uleb128 0x2
 1644 06f5 1C060000 		.4byte	.LASF111
 1645 06f9 0C05     		.2byte	0x50c
 1646 06fb 10       		.byte	0x10
 1647 06fc 8B000000 		.4byte	0x8b
 1648 0700 1001     		.2byte	0x110
 1649 0702 02       		.uleb128 0x2
 1650 0703 29000000 		.4byte	.LASF112
 1651 0707 0D05     		.2byte	0x50d
 1652 0709 10       		.byte	0x10
 1653 070a 8B000000 		.4byte	0x8b
ARM GAS  C:\Users\DEVELO~1\AppData\Local\Temp\ccASuyx8.s 			page 30


 1654 070e 1401     		.2byte	0x114
 1655 0710 02       		.uleb128 0x2
 1656 0711 A6030000 		.4byte	.LASF113
 1657 0715 0E05     		.2byte	0x50e
 1658 0717 10       		.byte	0x10
 1659 0718 8B000000 		.4byte	0x8b
 1660 071c 1801     		.2byte	0x118
 1661 071e 02       		.uleb128 0x2
 1662 071f 46050000 		.4byte	.LASF114
 1663 0723 0F05     		.2byte	0x50f
 1664 0725 10       		.byte	0x10
 1665 0726 8B000000 		.4byte	0x8b
 1666 072a 1C01     		.2byte	0x11c
 1667 072c 02       		.uleb128 0x2
 1668 072d 38010000 		.4byte	.LASF115
 1669 0731 1005     		.2byte	0x510
 1670 0733 0F       		.byte	0xf
 1671 0734 B3000000 		.4byte	0xb3
 1672 0738 2001     		.2byte	0x120
 1673 073a 00       		.byte	0
 1674 073b 0C       		.uleb128 0xc
 1675 073c 7E020000 		.4byte	.LASF116
 1676 0740 1205     		.2byte	0x512
 1677 0742 DC030000 		.4byte	0x3dc
 1678 0746 04       		.uleb128 0x4
 1679 0747 04       		.byte	0x4
 1680 0748 04       		.byte	0x4
 1681 0749 AA040000 		.4byte	.LASF117
 1682 074d 04       		.uleb128 0x4
 1683 074e 08       		.byte	0x8
 1684 074f 04       		.byte	0x4
 1685 0750 88060000 		.4byte	.LASF118
 1686 0754 04       		.uleb128 0x4
 1687 0755 01       		.byte	0x1
 1688 0756 02       		.byte	0x2
 1689 0757 15050000 		.4byte	.LASF119
 1690 075b 1D       		.uleb128 0x1d
 1691 075c A7000000 		.4byte	0xa7
 1692 0760 01       		.byte	0x1
 1693 0761 27       		.byte	0x27
 1694 0762 0A       		.byte	0xa
 1695 0763 05       		.uleb128 0x5
 1696 0764 03       		.byte	0x3
 1697 0765 00000000 		.4byte	SystemCoreClock
 1698 0769 0D       		.uleb128 0xd
 1699 076a B8040000 		.4byte	.LASF120
 1700 076e 06       		.byte	0x6
 1701 076f 8701     		.2byte	0x187
 1702 0771 0D       		.uleb128 0xd
 1703 0772 9F050000 		.4byte	.LASF121
 1704 0776 07       		.byte	0x7
 1705 0777 9B02     		.2byte	0x29b
 1706 0779 0D       		.uleb128 0xd
 1707 077a 8F060000 		.4byte	.LASF122
 1708 077e 08       		.byte	0x8
 1709 077f CC01     		.2byte	0x1cc
 1710 0781 12       		.uleb128 0x12
ARM GAS  C:\Users\DEVELO~1\AppData\Local\Temp\ccASuyx8.s 			page 31


 1711 0782 26020000 		.4byte	.LASF128
 1712 0786 CF       		.byte	0xcf
 1713 0787 00000000 		.4byte	.LFB434
 1714 078b F4010000 		.4byte	.LFE434-.LFB434
 1715 078f 01       		.uleb128 0x1
 1716 0790 9C       		.byte	0x9c
 1717 0791 DC080000 		.4byte	0x8dc
 1718 0795 1E       		.uleb128 0x1e
 1719 0796 68060000 		.4byte	.LASF124
 1720 079a 01       		.byte	0x1
 1721 079b D1       		.byte	0xd1
 1722 079c 0C       		.byte	0xc
 1723 079d 7F000000 		.4byte	0x7f
 1724 07a1 10000000 		.4byte	.LLST12
 1725 07a5 0C000000 		.4byte	.LVUS12
 1726 07a9 1F       		.uleb128 0x1f
 1727 07aa F0000000 		.4byte	.LBB82
 1728 07ae 32000000 		.4byte	.LBE82-.LBB82
 1729 07b2 F0070000 		.4byte	0x7f0
 1730 07b6 0E       		.uleb128 0xe
 1731 07b7 EF000000 		.4byte	.LASF125
 1732 07bb 3401     		.2byte	0x134
 1733 07bd 7F000000 		.4byte	0x7f
 1734 07c1 33000000 		.4byte	.LLST17
 1735 07c5 2B000000 		.4byte	.LVUS17
 1736 07c9 0E       		.uleb128 0xe
 1737 07ca A2040000 		.4byte	.LASF126
 1738 07ce 3501     		.2byte	0x135
 1739 07d0 7F000000 		.4byte	0x7f
 1740 07d4 60000000 		.4byte	.LLST18
 1741 07d8 58000000 		.4byte	.LVUS18
 1742 07dc 0E       		.uleb128 0xe
 1743 07dd 89010000 		.4byte	.LASF127
 1744 07e1 3601     		.2byte	0x136
 1745 07e3 7F000000 		.4byte	0x7f
 1746 07e7 9B000000 		.4byte	.LLST19
 1747 07eb 85000000 		.4byte	.LVUS19
 1748 07ef 00       		.byte	0
 1749 07f0 0B       		.uleb128 0xb
 1750 07f1 7A0A0000 		.4byte	0xa7a
 1751 07f5 10000000 		.4byte	.LBI70
 1752 07f9 01       		.byte	.LVU96
 1753 07fa 36000000 		.4byte	.LLRL13
 1754 07fe E1       		.byte	0xe1
 1755 07ff 1E080000 		.4byte	0x81e
 1756 0803 03       		.uleb128 0x3
 1757 0804 900A0000 		.4byte	0xa90
 1758 0808 0C010000 		.4byte	.LLST14
 1759 080c 0A010000 		.4byte	.LVUS14
 1760 0810 03       		.uleb128 0x3
 1761 0811 850A0000 		.4byte	0xa85
 1762 0815 18010000 		.4byte	.LLST15
 1763 0819 16010000 		.4byte	.LVUS15
 1764 081d 00       		.byte	0
 1765 081e 20       		.uleb128 0x20
 1766 081f 4D0A0000 		.4byte	0xa4d
 1767 0823 28000000 		.4byte	.LBI73
ARM GAS  C:\Users\DEVELO~1\AppData\Local\Temp\ccASuyx8.s 			page 32


 1768 0827 02       		.byte	.LVU105
 1769 0828 42000000 		.4byte	.LLRL16
 1770 082c 01       		.byte	0x1
 1771 082d E4       		.byte	0xe4
 1772 082e 03       		.byte	0x3
 1773 082f 21       		.uleb128 0x21
 1774 0830 530A0000 		.4byte	0xa53
 1775 0834 4E000000 		.4byte	.LBI80
 1776 0838 01       		.byte	.LVU133
 1777 0839 4E000000 		.4byte	.LBB80
 1778 083d 30000000 		.4byte	.LBE80-.LBB80
 1779 0841 01       		.byte	0x1
 1780 0842 E7       		.byte	0xe7
 1781 0843 03       		.byte	0x3
 1782 0844 22       		.uleb128 0x22
 1783 0845 590A0000 		.4byte	0xa59
 1784 0849 66010000 		.4byte	.LBI83
 1785 084d 01       		.byte	.LVU307
 1786 084e 51000000 		.4byte	.LLRL20
 1787 0852 01       		.byte	0x1
 1788 0853 C901     		.2byte	0x1c9
 1789 0855 03       		.byte	0x3
 1790 0856 75080000 		.4byte	0x875
 1791 085a 03       		.uleb128 0x3
 1792 085b 6F0A0000 		.4byte	0xa6f
 1793 085f 24010000 		.4byte	.LLST21
 1794 0863 22010000 		.4byte	.LVUS21
 1795 0867 03       		.uleb128 0x3
 1796 0868 640A0000 		.4byte	0xa64
 1797 086c 30010000 		.4byte	.LLST22
 1798 0870 2E010000 		.4byte	.LVUS22
 1799 0874 00       		.byte	0
 1800 0875 23       		.uleb128 0x23
 1801 0876 590A0000 		.4byte	0xa59
 1802 087a 84010000 		.4byte	.LBI87
 1803 087e 02       		.byte	.LVU318
 1804 087f 84010000 		.4byte	.LBB87
 1805 0883 1C000000 		.4byte	.LBE87-.LBB87
 1806 0887 01       		.byte	0x1
 1807 0888 CA01     		.2byte	0x1ca
 1808 088a 03       		.byte	0x3
 1809 088b AA080000 		.4byte	0x8aa
 1810 088f 03       		.uleb128 0x3
 1811 0890 6F0A0000 		.4byte	0xa6f
 1812 0894 3E010000 		.4byte	.LLST23
 1813 0898 3C010000 		.4byte	.LVUS23
 1814 089c 03       		.uleb128 0x3
 1815 089d 640A0000 		.4byte	0xa64
 1816 08a1 4A010000 		.4byte	.LLST24
 1817 08a5 48010000 		.4byte	.LVUS24
 1818 08a9 00       		.byte	0
 1819 08aa 24       		.uleb128 0x24
 1820 08ab 590A0000 		.4byte	0xa59
 1821 08af A0010000 		.4byte	.LBI89
 1822 08b3 02       		.byte	.LVU327
 1823 08b4 A0010000 		.4byte	.LBB89
 1824 08b8 1C000000 		.4byte	.LBE89-.LBB89
ARM GAS  C:\Users\DEVELO~1\AppData\Local\Temp\ccASuyx8.s 			page 33


 1825 08bc 01       		.byte	0x1
 1826 08bd CC01     		.2byte	0x1cc
 1827 08bf 03       		.byte	0x3
 1828 08c0 03       		.uleb128 0x3
 1829 08c1 6F0A0000 		.4byte	0xa6f
 1830 08c5 58010000 		.4byte	.LLST25
 1831 08c9 56010000 		.4byte	.LVUS25
 1832 08cd 03       		.uleb128 0x3
 1833 08ce 640A0000 		.4byte	0xa64
 1834 08d2 64010000 		.4byte	.LLST26
 1835 08d6 62010000 		.4byte	.LVUS26
 1836 08da 00       		.byte	0
 1837 08db 00       		.byte	0
 1838 08dc 12       		.uleb128 0x12
 1839 08dd 00000000 		.4byte	.LASF129
 1840 08e1 92       		.byte	0x92
 1841 08e2 00000000 		.4byte	.LFB433
 1842 08e6 E4000000 		.4byte	.LFE433-.LFB433
 1843 08ea 01       		.uleb128 0x1
 1844 08eb 9C       		.byte	0x9c
 1845 08ec 4D0A0000 		.4byte	0xa4d
 1846 08f0 0B       		.uleb128 0xb
 1847 08f1 DD0A0000 		.4byte	0xadd
 1848 08f5 00000000 		.4byte	.LBI29
 1849 08f9 02       		.byte	.LVU2
 1850 08fa 0C000000 		.4byte	.LLRL0
 1851 08fe 99       		.byte	0x99
 1852 08ff 11090000 		.4byte	0x911
 1853 0903 03       		.uleb128 0x3
 1854 0904 E70A0000 		.4byte	0xae7
 1855 0908 73010000 		.4byte	.LLST1
 1856 090c 71010000 		.4byte	.LVUS1
 1857 0910 00       		.byte	0
 1858 0911 0B       		.uleb128 0xb
 1859 0912 B10A0000 		.4byte	0xab1
 1860 0916 34000000 		.4byte	.LBI34
 1861 091a 02       		.byte	.LVU22
 1862 091b 1B000000 		.4byte	.LLRL2
 1863 091f 9B       		.byte	0x9b
 1864 0920 32090000 		.4byte	0x932
 1865 0924 03       		.uleb128 0x3
 1866 0925 BB0A0000 		.4byte	0xabb
 1867 0929 80010000 		.4byte	.LLST3
 1868 092d 7E010000 		.4byte	.LVUS3
 1869 0931 00       		.byte	0
 1870 0932 08       		.uleb128 0x8
 1871 0933 C70A0000 		.4byte	0xac7
 1872 0937 20000000 		.4byte	.LBI39
 1873 093b 02       		.byte	.LVU14
 1874 093c 20000000 		.4byte	.LBB39
 1875 0940 14000000 		.4byte	.LBE39-.LBB39
 1876 0944 9A       		.byte	0x9a
 1877 0945 57090000 		.4byte	0x957
 1878 0949 03       		.uleb128 0x3
 1879 094a D10A0000 		.4byte	0xad1
 1880 094e 90010000 		.4byte	.LLST4
 1881 0952 8E010000 		.4byte	.LVUS4
ARM GAS  C:\Users\DEVELO~1\AppData\Local\Temp\ccASuyx8.s 			page 34


 1882 0956 00       		.byte	0
 1883 0957 0B       		.uleb128 0xb
 1884 0958 9B0A0000 		.4byte	0xa9b
 1885 095c 46000000 		.4byte	.LBI42
 1886 0960 02       		.byte	.LVU34
 1887 0961 2A000000 		.4byte	.LLRL5
 1888 0965 9D       		.byte	0x9d
 1889 0966 78090000 		.4byte	0x978
 1890 096a 03       		.uleb128 0x3
 1891 096b A50A0000 		.4byte	0xaa5
 1892 096f 9D010000 		.4byte	.LLST6
 1893 0973 9B010000 		.4byte	.LVUS6
 1894 0977 00       		.byte	0
 1895 0978 08       		.uleb128 0x8
 1896 0979 4B0B0000 		.4byte	0xb4b
 1897 097d 60000000 		.4byte	.LBI47
 1898 0981 02       		.byte	.LVU42
 1899 0982 60000000 		.4byte	.LBB47
 1900 0986 14000000 		.4byte	.LBE47-.LBB47
 1901 098a 9E       		.byte	0x9e
 1902 098b 9D090000 		.4byte	0x99d
 1903 098f 03       		.uleb128 0x3
 1904 0990 540B0000 		.4byte	0xb54
 1905 0994 AB010000 		.4byte	.LLST7
 1906 0998 A9010000 		.4byte	.LVUS7
 1907 099c 00       		.byte	0
 1908 099d 08       		.uleb128 0x8
 1909 099e 350B0000 		.4byte	0xb35
 1910 09a2 74000000 		.4byte	.LBI49
 1911 09a6 02       		.byte	.LVU50
 1912 09a7 74000000 		.4byte	.LBB49
 1913 09ab 14000000 		.4byte	.LBE49-.LBB49
 1914 09af 9F       		.byte	0x9f
 1915 09b0 C2090000 		.4byte	0x9c2
 1916 09b4 03       		.uleb128 0x3
 1917 09b5 3F0B0000 		.4byte	0xb3f
 1918 09b9 B8010000 		.4byte	.LLST8
 1919 09bd B6010000 		.4byte	.LVUS8
 1920 09c1 00       		.byte	0
 1921 09c2 08       		.uleb128 0x8
 1922 09c3 1F0B0000 		.4byte	0xb1f
 1923 09c7 88000000 		.4byte	.LBI51
 1924 09cb 02       		.byte	.LVU58
 1925 09cc 88000000 		.4byte	.LBB51
 1926 09d0 14000000 		.4byte	.LBE51-.LBB51
 1927 09d4 A0       		.byte	0xa0
 1928 09d5 E7090000 		.4byte	0x9e7
 1929 09d9 03       		.uleb128 0x3
 1930 09da 290B0000 		.4byte	0xb29
 1931 09de C5010000 		.4byte	.LLST9
 1932 09e2 C3010000 		.4byte	.LVUS9
 1933 09e6 00       		.byte	0
 1934 09e7 08       		.uleb128 0x8
 1935 09e8 090B0000 		.4byte	0xb09
 1936 09ec 9C000000 		.4byte	.LBI53
 1937 09f0 02       		.byte	.LVU66
 1938 09f1 9C000000 		.4byte	.LBB53
ARM GAS  C:\Users\DEVELO~1\AppData\Local\Temp\ccASuyx8.s 			page 35


 1939 09f5 14000000 		.4byte	.LBE53-.LBB53
 1940 09f9 A1       		.byte	0xa1
 1941 09fa 0C0A0000 		.4byte	0xa0c
 1942 09fe 03       		.uleb128 0x3
 1943 09ff 130B0000 		.4byte	0xb13
 1944 0a03 D2010000 		.4byte	.LLST10
 1945 0a07 D0010000 		.4byte	.LVUS10
 1946 0a0b 00       		.byte	0
 1947 0a0c 08       		.uleb128 0x8
 1948 0a0d F30A0000 		.4byte	0xaf3
 1949 0a11 B0000000 		.4byte	.LBI55
 1950 0a15 02       		.byte	.LVU74
 1951 0a16 B0000000 		.4byte	.LBB55
 1952 0a1a 14000000 		.4byte	.LBE55-.LBB55
 1953 0a1e A2       		.byte	0xa2
 1954 0a1f 310A0000 		.4byte	0xa31
 1955 0a23 03       		.uleb128 0x3
 1956 0a24 FD0A0000 		.4byte	0xafd
 1957 0a28 DF010000 		.4byte	.LLST11
 1958 0a2c DD010000 		.4byte	.LVUS11
 1959 0a30 00       		.byte	0
 1960 0a31 13       		.uleb128 0x13
 1961 0a32 C8000000 		.4byte	.LVL10
 1962 0a36 79070000 		.4byte	0x779
 1963 0a3a 13       		.uleb128 0x13
 1964 0a3b CC000000 		.4byte	.LVL11
 1965 0a3f 71070000 		.4byte	0x771
 1966 0a43 25       		.uleb128 0x25
 1967 0a44 D4000000 		.4byte	.LVL12
 1968 0a48 69070000 		.4byte	0x769
 1969 0a4c 00       		.byte	0
 1970 0a4d 14       		.uleb128 0x14
 1971 0a4e 1F040000 		.4byte	.LASF130
 1972 0a52 5E       		.byte	0x5e
 1973 0a53 14       		.uleb128 0x14
 1974 0a54 5F010000 		.4byte	.LASF131
 1975 0a58 36       		.byte	0x36
 1976 0a59 15       		.uleb128 0x15
 1977 0a5a AB000000 		.4byte	.LASF133
 1978 0a5e A302     		.2byte	0x2a3
 1979 0a60 7A0A0000 		.4byte	0xa7a
 1980 0a64 16       		.uleb128 0x16
 1981 0a65 10020000 		.4byte	.LASF132
 1982 0a69 A302     		.2byte	0x2a3
 1983 0a6b 7F000000 		.4byte	0x7f
 1984 0a6f 17       		.uleb128 0x17
 1985 0a70 6C7000   		.ascii	"lp\000"
 1986 0a73 A302     		.2byte	0x2a3
 1987 0a75 54070000 		.4byte	0x754
 1988 0a79 00       		.byte	0
 1989 0a7a 15       		.uleb128 0x15
 1990 0a7b EB030000 		.4byte	.LASF134
 1991 0a7f F101     		.2byte	0x1f1
 1992 0a81 9B0A0000 		.4byte	0xa9b
 1993 0a85 16       		.uleb128 0x16
 1994 0a86 10020000 		.4byte	.LASF132
 1995 0a8a F101     		.2byte	0x1f1
ARM GAS  C:\Users\DEVELO~1\AppData\Local\Temp\ccASuyx8.s 			page 36


 1996 0a8c 7F000000 		.4byte	0x7f
 1997 0a90 17       		.uleb128 0x17
 1998 0a91 6C7000   		.ascii	"lp\000"
 1999 0a94 F101     		.2byte	0x1f1
 2000 0a96 54070000 		.4byte	0x754
 2001 0a9a 00       		.byte	0
 2002 0a9b 07       		.uleb128 0x7
 2003 0a9c 77040000 		.4byte	.LASF135
 2004 0aa0 79       		.byte	0x79
 2005 0aa1 B10A0000 		.4byte	0xab1
 2006 0aa5 06       		.uleb128 0x6
 2007 0aa6 10020000 		.4byte	.LASF132
 2008 0aaa 79       		.byte	0x79
 2009 0aab 2E       		.byte	0x2e
 2010 0aac 7F000000 		.4byte	0x7f
 2011 0ab0 00       		.byte	0
 2012 0ab1 07       		.uleb128 0x7
 2013 0ab2 68040000 		.4byte	.LASF136
 2014 0ab6 71       		.byte	0x71
 2015 0ab7 C70A0000 		.4byte	0xac7
 2016 0abb 06       		.uleb128 0x6
 2017 0abc 10020000 		.4byte	.LASF132
 2018 0ac0 71       		.byte	0x71
 2019 0ac1 2E       		.byte	0x2e
 2020 0ac2 7F000000 		.4byte	0x7f
 2021 0ac6 00       		.byte	0
 2022 0ac7 07       		.uleb128 0x7
 2023 0ac8 59040000 		.4byte	.LASF137
 2024 0acc 69       		.byte	0x69
 2025 0acd DD0A0000 		.4byte	0xadd
 2026 0ad1 06       		.uleb128 0x6
 2027 0ad2 10020000 		.4byte	.LASF132
 2028 0ad6 69       		.byte	0x69
 2029 0ad7 2E       		.byte	0x2e
 2030 0ad8 7F000000 		.4byte	0x7f
 2031 0adc 00       		.byte	0
 2032 0add 07       		.uleb128 0x7
 2033 0ade 4A040000 		.4byte	.LASF138
 2034 0ae2 61       		.byte	0x61
 2035 0ae3 F30A0000 		.4byte	0xaf3
 2036 0ae7 06       		.uleb128 0x6
 2037 0ae8 10020000 		.4byte	.LASF132
 2038 0aec 61       		.byte	0x61
 2039 0aed 2E       		.byte	0x2e
 2040 0aee 7F000000 		.4byte	0x7f
 2041 0af2 00       		.byte	0
 2042 0af3 07       		.uleb128 0x7
 2043 0af4 9C000000 		.4byte	.LASF139
 2044 0af8 59       		.byte	0x59
 2045 0af9 090B0000 		.4byte	0xb09
 2046 0afd 06       		.uleb128 0x6
 2047 0afe 10020000 		.4byte	.LASF132
 2048 0b02 59       		.byte	0x59
 2049 0b03 2E       		.byte	0x2e
 2050 0b04 7F000000 		.4byte	0x7f
 2051 0b08 00       		.byte	0
 2052 0b09 07       		.uleb128 0x7
ARM GAS  C:\Users\DEVELO~1\AppData\Local\Temp\ccASuyx8.s 			page 37


 2053 0b0a 70050000 		.4byte	.LASF140
 2054 0b0e 51       		.byte	0x51
 2055 0b0f 1F0B0000 		.4byte	0xb1f
 2056 0b13 06       		.uleb128 0x6
 2057 0b14 10020000 		.4byte	.LASF132
 2058 0b18 51       		.byte	0x51
 2059 0b19 2E       		.byte	0x2e
 2060 0b1a 7F000000 		.4byte	0x7f
 2061 0b1e 00       		.byte	0
 2062 0b1f 07       		.uleb128 0x7
 2063 0b20 87000000 		.4byte	.LASF141
 2064 0b24 49       		.byte	0x49
 2065 0b25 350B0000 		.4byte	0xb35
 2066 0b29 06       		.uleb128 0x6
 2067 0b2a 10020000 		.4byte	.LASF132
 2068 0b2e 49       		.byte	0x49
 2069 0b2f 2E       		.byte	0x2e
 2070 0b30 7F000000 		.4byte	0x7f
 2071 0b34 00       		.byte	0
 2072 0b35 07       		.uleb128 0x7
 2073 0b36 36060000 		.4byte	.LASF142
 2074 0b3a 41       		.byte	0x41
 2075 0b3b 4B0B0000 		.4byte	0xb4b
 2076 0b3f 06       		.uleb128 0x6
 2077 0b40 10020000 		.4byte	.LASF132
 2078 0b44 41       		.byte	0x41
 2079 0b45 2F       		.byte	0x2f
 2080 0b46 7F000000 		.4byte	0x7f
 2081 0b4a 00       		.byte	0
 2082 0b4b 26       		.uleb128 0x26
 2083 0b4c 46060000 		.4byte	.LASF146
 2084 0b50 02       		.byte	0x2
 2085 0b51 39       		.byte	0x39
 2086 0b52 16       		.byte	0x16
 2087 0b53 03       		.byte	0x3
 2088 0b54 06       		.uleb128 0x6
 2089 0b55 10020000 		.4byte	.LASF132
 2090 0b59 39       		.byte	0x39
 2091 0b5a 2F       		.byte	0x2f
 2092 0b5b 7F000000 		.4byte	0x7f
 2093 0b5f 00       		.byte	0
 2094 0b60 00       		.byte	0
 2095              		.section	.debug_abbrev,"",%progbits
 2096              	.Ldebug_abbrev0:
 2097 0000 01       		.uleb128 0x1
 2098 0001 0D       		.uleb128 0xd
 2099 0002 00       		.byte	0
 2100 0003 03       		.uleb128 0x3
 2101 0004 0E       		.uleb128 0xe
 2102 0005 3A       		.uleb128 0x3a
 2103 0006 21       		.uleb128 0x21
 2104 0007 05       		.sleb128 5
 2105 0008 3B       		.uleb128 0x3b
 2106 0009 05       		.uleb128 0x5
 2107 000a 39       		.uleb128 0x39
 2108 000b 0B       		.uleb128 0xb
 2109 000c 49       		.uleb128 0x49
ARM GAS  C:\Users\DEVELO~1\AppData\Local\Temp\ccASuyx8.s 			page 38


 2110 000d 13       		.uleb128 0x13
 2111 000e 38       		.uleb128 0x38
 2112 000f 0B       		.uleb128 0xb
 2113 0010 00       		.byte	0
 2114 0011 00       		.byte	0
 2115 0012 02       		.uleb128 0x2
 2116 0013 0D       		.uleb128 0xd
 2117 0014 00       		.byte	0
 2118 0015 03       		.uleb128 0x3
 2119 0016 0E       		.uleb128 0xe
 2120 0017 3A       		.uleb128 0x3a
 2121 0018 21       		.uleb128 0x21
 2122 0019 05       		.sleb128 5
 2123 001a 3B       		.uleb128 0x3b
 2124 001b 05       		.uleb128 0x5
 2125 001c 39       		.uleb128 0x39
 2126 001d 0B       		.uleb128 0xb
 2127 001e 49       		.uleb128 0x49
 2128 001f 13       		.uleb128 0x13
 2129 0020 38       		.uleb128 0x38
 2130 0021 05       		.uleb128 0x5
 2131 0022 00       		.byte	0
 2132 0023 00       		.byte	0
 2133 0024 03       		.uleb128 0x3
 2134 0025 05       		.uleb128 0x5
 2135 0026 00       		.byte	0
 2136 0027 31       		.uleb128 0x31
 2137 0028 13       		.uleb128 0x13
 2138 0029 02       		.uleb128 0x2
 2139 002a 17       		.uleb128 0x17
 2140 002b B742     		.uleb128 0x2137
 2141 002d 17       		.uleb128 0x17
 2142 002e 00       		.byte	0
 2143 002f 00       		.byte	0
 2144 0030 04       		.uleb128 0x4
 2145 0031 24       		.uleb128 0x24
 2146 0032 00       		.byte	0
 2147 0033 0B       		.uleb128 0xb
 2148 0034 0B       		.uleb128 0xb
 2149 0035 3E       		.uleb128 0x3e
 2150 0036 0B       		.uleb128 0xb
 2151 0037 03       		.uleb128 0x3
 2152 0038 0E       		.uleb128 0xe
 2153 0039 00       		.byte	0
 2154 003a 00       		.byte	0
 2155 003b 05       		.uleb128 0x5
 2156 003c 0D       		.uleb128 0xd
 2157 003d 00       		.byte	0
 2158 003e 03       		.uleb128 0x3
 2159 003f 08       		.uleb128 0x8
 2160 0040 3A       		.uleb128 0x3a
 2161 0041 21       		.uleb128 0x21
 2162 0042 05       		.sleb128 5
 2163 0043 3B       		.uleb128 0x3b
 2164 0044 05       		.uleb128 0x5
 2165 0045 39       		.uleb128 0x39
 2166 0046 0B       		.uleb128 0xb
ARM GAS  C:\Users\DEVELO~1\AppData\Local\Temp\ccASuyx8.s 			page 39


 2167 0047 49       		.uleb128 0x49
 2168 0048 13       		.uleb128 0x13
 2169 0049 38       		.uleb128 0x38
 2170 004a 0B       		.uleb128 0xb
 2171 004b 00       		.byte	0
 2172 004c 00       		.byte	0
 2173 004d 06       		.uleb128 0x6
 2174 004e 05       		.uleb128 0x5
 2175 004f 00       		.byte	0
 2176 0050 03       		.uleb128 0x3
 2177 0051 0E       		.uleb128 0xe
 2178 0052 3A       		.uleb128 0x3a
 2179 0053 21       		.uleb128 0x21
 2180 0054 02       		.sleb128 2
 2181 0055 3B       		.uleb128 0x3b
 2182 0056 0B       		.uleb128 0xb
 2183 0057 39       		.uleb128 0x39
 2184 0058 0B       		.uleb128 0xb
 2185 0059 49       		.uleb128 0x49
 2186 005a 13       		.uleb128 0x13
 2187 005b 00       		.byte	0
 2188 005c 00       		.byte	0
 2189 005d 07       		.uleb128 0x7
 2190 005e 2E       		.uleb128 0x2e
 2191 005f 01       		.byte	0x1
 2192 0060 03       		.uleb128 0x3
 2193 0061 0E       		.uleb128 0xe
 2194 0062 3A       		.uleb128 0x3a
 2195 0063 21       		.uleb128 0x21
 2196 0064 02       		.sleb128 2
 2197 0065 3B       		.uleb128 0x3b
 2198 0066 0B       		.uleb128 0xb
 2199 0067 39       		.uleb128 0x39
 2200 0068 21       		.uleb128 0x21
 2201 0069 16       		.sleb128 22
 2202 006a 27       		.uleb128 0x27
 2203 006b 19       		.uleb128 0x19
 2204 006c 20       		.uleb128 0x20
 2205 006d 21       		.uleb128 0x21
 2206 006e 03       		.sleb128 3
 2207 006f 01       		.uleb128 0x1
 2208 0070 13       		.uleb128 0x13
 2209 0071 00       		.byte	0
 2210 0072 00       		.byte	0
 2211 0073 08       		.uleb128 0x8
 2212 0074 1D       		.uleb128 0x1d
 2213 0075 01       		.byte	0x1
 2214 0076 31       		.uleb128 0x31
 2215 0077 13       		.uleb128 0x13
 2216 0078 52       		.uleb128 0x52
 2217 0079 01       		.uleb128 0x1
 2218 007a B842     		.uleb128 0x2138
 2219 007c 0B       		.uleb128 0xb
 2220 007d 11       		.uleb128 0x11
 2221 007e 01       		.uleb128 0x1
 2222 007f 12       		.uleb128 0x12
 2223 0080 06       		.uleb128 0x6
ARM GAS  C:\Users\DEVELO~1\AppData\Local\Temp\ccASuyx8.s 			page 40


 2224 0081 58       		.uleb128 0x58
 2225 0082 21       		.uleb128 0x21
 2226 0083 01       		.sleb128 1
 2227 0084 59       		.uleb128 0x59
 2228 0085 0B       		.uleb128 0xb
 2229 0086 57       		.uleb128 0x57
 2230 0087 21       		.uleb128 0x21
 2231 0088 03       		.sleb128 3
 2232 0089 01       		.uleb128 0x1
 2233 008a 13       		.uleb128 0x13
 2234 008b 00       		.byte	0
 2235 008c 00       		.byte	0
 2236 008d 09       		.uleb128 0x9
 2237 008e 01       		.uleb128 0x1
 2238 008f 01       		.byte	0x1
 2239 0090 49       		.uleb128 0x49
 2240 0091 13       		.uleb128 0x13
 2241 0092 01       		.uleb128 0x1
 2242 0093 13       		.uleb128 0x13
 2243 0094 00       		.byte	0
 2244 0095 00       		.byte	0
 2245 0096 0A       		.uleb128 0xa
 2246 0097 21       		.uleb128 0x21
 2247 0098 00       		.byte	0
 2248 0099 49       		.uleb128 0x49
 2249 009a 13       		.uleb128 0x13
 2250 009b 2F       		.uleb128 0x2f
 2251 009c 0B       		.uleb128 0xb
 2252 009d 00       		.byte	0
 2253 009e 00       		.byte	0
 2254 009f 0B       		.uleb128 0xb
 2255 00a0 1D       		.uleb128 0x1d
 2256 00a1 01       		.byte	0x1
 2257 00a2 31       		.uleb128 0x31
 2258 00a3 13       		.uleb128 0x13
 2259 00a4 52       		.uleb128 0x52
 2260 00a5 01       		.uleb128 0x1
 2261 00a6 B842     		.uleb128 0x2138
 2262 00a8 0B       		.uleb128 0xb
 2263 00a9 55       		.uleb128 0x55
 2264 00aa 17       		.uleb128 0x17
 2265 00ab 58       		.uleb128 0x58
 2266 00ac 21       		.uleb128 0x21
 2267 00ad 01       		.sleb128 1
 2268 00ae 59       		.uleb128 0x59
 2269 00af 0B       		.uleb128 0xb
 2270 00b0 57       		.uleb128 0x57
 2271 00b1 21       		.uleb128 0x21
 2272 00b2 03       		.sleb128 3
 2273 00b3 01       		.uleb128 0x1
 2274 00b4 13       		.uleb128 0x13
 2275 00b5 00       		.byte	0
 2276 00b6 00       		.byte	0
 2277 00b7 0C       		.uleb128 0xc
 2278 00b8 16       		.uleb128 0x16
 2279 00b9 00       		.byte	0
 2280 00ba 03       		.uleb128 0x3
ARM GAS  C:\Users\DEVELO~1\AppData\Local\Temp\ccASuyx8.s 			page 41


 2281 00bb 0E       		.uleb128 0xe
 2282 00bc 3A       		.uleb128 0x3a
 2283 00bd 21       		.uleb128 0x21
 2284 00be 05       		.sleb128 5
 2285 00bf 3B       		.uleb128 0x3b
 2286 00c0 05       		.uleb128 0x5
 2287 00c1 39       		.uleb128 0x39
 2288 00c2 21       		.uleb128 0x21
 2289 00c3 03       		.sleb128 3
 2290 00c4 49       		.uleb128 0x49
 2291 00c5 13       		.uleb128 0x13
 2292 00c6 00       		.byte	0
 2293 00c7 00       		.byte	0
 2294 00c8 0D       		.uleb128 0xd
 2295 00c9 2E       		.uleb128 0x2e
 2296 00ca 00       		.byte	0
 2297 00cb 3F       		.uleb128 0x3f
 2298 00cc 19       		.uleb128 0x19
 2299 00cd 03       		.uleb128 0x3
 2300 00ce 0E       		.uleb128 0xe
 2301 00cf 3A       		.uleb128 0x3a
 2302 00d0 0B       		.uleb128 0xb
 2303 00d1 3B       		.uleb128 0x3b
 2304 00d2 05       		.uleb128 0x5
 2305 00d3 39       		.uleb128 0x39
 2306 00d4 21       		.uleb128 0x21
 2307 00d5 08       		.sleb128 8
 2308 00d6 27       		.uleb128 0x27
 2309 00d7 19       		.uleb128 0x19
 2310 00d8 3C       		.uleb128 0x3c
 2311 00d9 19       		.uleb128 0x19
 2312 00da 00       		.byte	0
 2313 00db 00       		.byte	0
 2314 00dc 0E       		.uleb128 0xe
 2315 00dd 34       		.uleb128 0x34
 2316 00de 00       		.byte	0
 2317 00df 03       		.uleb128 0x3
 2318 00e0 0E       		.uleb128 0xe
 2319 00e1 3A       		.uleb128 0x3a
 2320 00e2 21       		.uleb128 0x21
 2321 00e3 01       		.sleb128 1
 2322 00e4 3B       		.uleb128 0x3b
 2323 00e5 05       		.uleb128 0x5
 2324 00e6 39       		.uleb128 0x39
 2325 00e7 21       		.uleb128 0x21
 2326 00e8 0E       		.sleb128 14
 2327 00e9 49       		.uleb128 0x49
 2328 00ea 13       		.uleb128 0x13
 2329 00eb 02       		.uleb128 0x2
 2330 00ec 17       		.uleb128 0x17
 2331 00ed B742     		.uleb128 0x2137
 2332 00ef 17       		.uleb128 0x17
 2333 00f0 00       		.byte	0
 2334 00f1 00       		.byte	0
 2335 00f2 0F       		.uleb128 0xf
 2336 00f3 16       		.uleb128 0x16
 2337 00f4 00       		.byte	0
ARM GAS  C:\Users\DEVELO~1\AppData\Local\Temp\ccASuyx8.s 			page 42


 2338 00f5 03       		.uleb128 0x3
 2339 00f6 0E       		.uleb128 0xe
 2340 00f7 3A       		.uleb128 0x3a
 2341 00f8 0B       		.uleb128 0xb
 2342 00f9 3B       		.uleb128 0x3b
 2343 00fa 0B       		.uleb128 0xb
 2344 00fb 39       		.uleb128 0x39
 2345 00fc 0B       		.uleb128 0xb
 2346 00fd 49       		.uleb128 0x49
 2347 00fe 13       		.uleb128 0x13
 2348 00ff 00       		.byte	0
 2349 0100 00       		.byte	0
 2350 0101 10       		.uleb128 0x10
 2351 0102 13       		.uleb128 0x13
 2352 0103 01       		.byte	0x1
 2353 0104 0B       		.uleb128 0xb
 2354 0105 05       		.uleb128 0x5
 2355 0106 3A       		.uleb128 0x3a
 2356 0107 21       		.uleb128 0x21
 2357 0108 05       		.sleb128 5
 2358 0109 3B       		.uleb128 0x3b
 2359 010a 05       		.uleb128 0x5
 2360 010b 39       		.uleb128 0x39
 2361 010c 21       		.uleb128 0x21
 2362 010d 09       		.sleb128 9
 2363 010e 01       		.uleb128 0x1
 2364 010f 13       		.uleb128 0x13
 2365 0110 00       		.byte	0
 2366 0111 00       		.byte	0
 2367 0112 11       		.uleb128 0x11
 2368 0113 0D       		.uleb128 0xd
 2369 0114 00       		.byte	0
 2370 0115 03       		.uleb128 0x3
 2371 0116 08       		.uleb128 0x8
 2372 0117 3A       		.uleb128 0x3a
 2373 0118 21       		.uleb128 0x21
 2374 0119 05       		.sleb128 5
 2375 011a 3B       		.uleb128 0x3b
 2376 011b 05       		.uleb128 0x5
 2377 011c 39       		.uleb128 0x39
 2378 011d 21       		.uleb128 0x21
 2379 011e 11       		.sleb128 17
 2380 011f 49       		.uleb128 0x49
 2381 0120 13       		.uleb128 0x13
 2382 0121 38       		.uleb128 0x38
 2383 0122 05       		.uleb128 0x5
 2384 0123 00       		.byte	0
 2385 0124 00       		.byte	0
 2386 0125 12       		.uleb128 0x12
 2387 0126 2E       		.uleb128 0x2e
 2388 0127 01       		.byte	0x1
 2389 0128 3F       		.uleb128 0x3f
 2390 0129 19       		.uleb128 0x19
 2391 012a 03       		.uleb128 0x3
 2392 012b 0E       		.uleb128 0xe
 2393 012c 3A       		.uleb128 0x3a
 2394 012d 21       		.uleb128 0x21
ARM GAS  C:\Users\DEVELO~1\AppData\Local\Temp\ccASuyx8.s 			page 43


 2395 012e 01       		.sleb128 1
 2396 012f 3B       		.uleb128 0x3b
 2397 0130 0B       		.uleb128 0xb
 2398 0131 39       		.uleb128 0x39
 2399 0132 21       		.uleb128 0x21
 2400 0133 06       		.sleb128 6
 2401 0134 27       		.uleb128 0x27
 2402 0135 19       		.uleb128 0x19
 2403 0136 11       		.uleb128 0x11
 2404 0137 01       		.uleb128 0x1
 2405 0138 12       		.uleb128 0x12
 2406 0139 06       		.uleb128 0x6
 2407 013a 40       		.uleb128 0x40
 2408 013b 18       		.uleb128 0x18
 2409 013c 7A       		.uleb128 0x7a
 2410 013d 19       		.uleb128 0x19
 2411 013e 01       		.uleb128 0x1
 2412 013f 13       		.uleb128 0x13
 2413 0140 00       		.byte	0
 2414 0141 00       		.byte	0
 2415 0142 13       		.uleb128 0x13
 2416 0143 48       		.uleb128 0x48
 2417 0144 00       		.byte	0
 2418 0145 7D       		.uleb128 0x7d
 2419 0146 01       		.uleb128 0x1
 2420 0147 7F       		.uleb128 0x7f
 2421 0148 13       		.uleb128 0x13
 2422 0149 00       		.byte	0
 2423 014a 00       		.byte	0
 2424 014b 14       		.uleb128 0x14
 2425 014c 2E       		.uleb128 0x2e
 2426 014d 00       		.byte	0
 2427 014e 03       		.uleb128 0x3
 2428 014f 0E       		.uleb128 0xe
 2429 0150 3A       		.uleb128 0x3a
 2430 0151 21       		.uleb128 0x21
 2431 0152 01       		.sleb128 1
 2432 0153 3B       		.uleb128 0x3b
 2433 0154 0B       		.uleb128 0xb
 2434 0155 39       		.uleb128 0x39
 2435 0156 21       		.uleb128 0x21
 2436 0157 14       		.sleb128 20
 2437 0158 27       		.uleb128 0x27
 2438 0159 19       		.uleb128 0x19
 2439 015a 20       		.uleb128 0x20
 2440 015b 21       		.uleb128 0x21
 2441 015c 03       		.sleb128 3
 2442 015d 00       		.byte	0
 2443 015e 00       		.byte	0
 2444 015f 15       		.uleb128 0x15
 2445 0160 2E       		.uleb128 0x2e
 2446 0161 01       		.byte	0x1
 2447 0162 03       		.uleb128 0x3
 2448 0163 0E       		.uleb128 0xe
 2449 0164 3A       		.uleb128 0x3a
 2450 0165 21       		.uleb128 0x21
 2451 0166 02       		.sleb128 2
ARM GAS  C:\Users\DEVELO~1\AppData\Local\Temp\ccASuyx8.s 			page 44


 2452 0167 3B       		.uleb128 0x3b
 2453 0168 05       		.uleb128 0x5
 2454 0169 39       		.uleb128 0x39
 2455 016a 21       		.uleb128 0x21
 2456 016b 16       		.sleb128 22
 2457 016c 27       		.uleb128 0x27
 2458 016d 19       		.uleb128 0x19
 2459 016e 20       		.uleb128 0x20
 2460 016f 21       		.uleb128 0x21
 2461 0170 03       		.sleb128 3
 2462 0171 01       		.uleb128 0x1
 2463 0172 13       		.uleb128 0x13
 2464 0173 00       		.byte	0
 2465 0174 00       		.byte	0
 2466 0175 16       		.uleb128 0x16
 2467 0176 05       		.uleb128 0x5
 2468 0177 00       		.byte	0
 2469 0178 03       		.uleb128 0x3
 2470 0179 0E       		.uleb128 0xe
 2471 017a 3A       		.uleb128 0x3a
 2472 017b 21       		.uleb128 0x21
 2473 017c 02       		.sleb128 2
 2474 017d 3B       		.uleb128 0x3b
 2475 017e 05       		.uleb128 0x5
 2476 017f 39       		.uleb128 0x39
 2477 0180 21       		.uleb128 0x21
 2478 0181 2D       		.sleb128 45
 2479 0182 49       		.uleb128 0x49
 2480 0183 13       		.uleb128 0x13
 2481 0184 00       		.byte	0
 2482 0185 00       		.byte	0
 2483 0186 17       		.uleb128 0x17
 2484 0187 05       		.uleb128 0x5
 2485 0188 00       		.byte	0
 2486 0189 03       		.uleb128 0x3
 2487 018a 08       		.uleb128 0x8
 2488 018b 3A       		.uleb128 0x3a
 2489 018c 21       		.uleb128 0x21
 2490 018d 02       		.sleb128 2
 2491 018e 3B       		.uleb128 0x3b
 2492 018f 05       		.uleb128 0x5
 2493 0190 39       		.uleb128 0x39
 2494 0191 21       		.uleb128 0x21
 2495 0192 38       		.sleb128 56
 2496 0193 49       		.uleb128 0x49
 2497 0194 13       		.uleb128 0x13
 2498 0195 00       		.byte	0
 2499 0196 00       		.byte	0
 2500 0197 18       		.uleb128 0x18
 2501 0198 11       		.uleb128 0x11
 2502 0199 01       		.byte	0x1
 2503 019a 25       		.uleb128 0x25
 2504 019b 0E       		.uleb128 0xe
 2505 019c 13       		.uleb128 0x13
 2506 019d 0B       		.uleb128 0xb
 2507 019e 03       		.uleb128 0x3
 2508 019f 0E       		.uleb128 0xe
ARM GAS  C:\Users\DEVELO~1\AppData\Local\Temp\ccASuyx8.s 			page 45


 2509 01a0 1B       		.uleb128 0x1b
 2510 01a1 0E       		.uleb128 0xe
 2511 01a2 55       		.uleb128 0x55
 2512 01a3 17       		.uleb128 0x17
 2513 01a4 11       		.uleb128 0x11
 2514 01a5 01       		.uleb128 0x1
 2515 01a6 10       		.uleb128 0x10
 2516 01a7 17       		.uleb128 0x17
 2517 01a8 00       		.byte	0
 2518 01a9 00       		.byte	0
 2519 01aa 19       		.uleb128 0x19
 2520 01ab 24       		.uleb128 0x24
 2521 01ac 00       		.byte	0
 2522 01ad 0B       		.uleb128 0xb
 2523 01ae 0B       		.uleb128 0xb
 2524 01af 3E       		.uleb128 0x3e
 2525 01b0 0B       		.uleb128 0xb
 2526 01b1 03       		.uleb128 0x3
 2527 01b2 08       		.uleb128 0x8
 2528 01b3 00       		.byte	0
 2529 01b4 00       		.byte	0
 2530 01b5 1A       		.uleb128 0x1a
 2531 01b6 35       		.uleb128 0x35
 2532 01b7 00       		.byte	0
 2533 01b8 49       		.uleb128 0x49
 2534 01b9 13       		.uleb128 0x13
 2535 01ba 00       		.byte	0
 2536 01bb 00       		.byte	0
 2537 01bc 1B       		.uleb128 0x1b
 2538 01bd 34       		.uleb128 0x34
 2539 01be 00       		.byte	0
 2540 01bf 03       		.uleb128 0x3
 2541 01c0 0E       		.uleb128 0xe
 2542 01c1 3A       		.uleb128 0x3a
 2543 01c2 0B       		.uleb128 0xb
 2544 01c3 3B       		.uleb128 0x3b
 2545 01c4 0B       		.uleb128 0xb
 2546 01c5 39       		.uleb128 0x39
 2547 01c6 0B       		.uleb128 0xb
 2548 01c7 49       		.uleb128 0x49
 2549 01c8 13       		.uleb128 0x13
 2550 01c9 3F       		.uleb128 0x3f
 2551 01ca 19       		.uleb128 0x19
 2552 01cb 3C       		.uleb128 0x3c
 2553 01cc 19       		.uleb128 0x19
 2554 01cd 00       		.byte	0
 2555 01ce 00       		.byte	0
 2556 01cf 1C       		.uleb128 0x1c
 2557 01d0 13       		.uleb128 0x13
 2558 01d1 01       		.byte	0x1
 2559 01d2 0B       		.uleb128 0xb
 2560 01d3 0B       		.uleb128 0xb
 2561 01d4 3A       		.uleb128 0x3a
 2562 01d5 0B       		.uleb128 0xb
 2563 01d6 3B       		.uleb128 0x3b
 2564 01d7 05       		.uleb128 0x5
 2565 01d8 39       		.uleb128 0x39
ARM GAS  C:\Users\DEVELO~1\AppData\Local\Temp\ccASuyx8.s 			page 46


 2566 01d9 0B       		.uleb128 0xb
 2567 01da 01       		.uleb128 0x1
 2568 01db 13       		.uleb128 0x13
 2569 01dc 00       		.byte	0
 2570 01dd 00       		.byte	0
 2571 01de 1D       		.uleb128 0x1d
 2572 01df 34       		.uleb128 0x34
 2573 01e0 00       		.byte	0
 2574 01e1 47       		.uleb128 0x47
 2575 01e2 13       		.uleb128 0x13
 2576 01e3 3A       		.uleb128 0x3a
 2577 01e4 0B       		.uleb128 0xb
 2578 01e5 3B       		.uleb128 0x3b
 2579 01e6 0B       		.uleb128 0xb
 2580 01e7 39       		.uleb128 0x39
 2581 01e8 0B       		.uleb128 0xb
 2582 01e9 02       		.uleb128 0x2
 2583 01ea 18       		.uleb128 0x18
 2584 01eb 00       		.byte	0
 2585 01ec 00       		.byte	0
 2586 01ed 1E       		.uleb128 0x1e
 2587 01ee 34       		.uleb128 0x34
 2588 01ef 00       		.byte	0
 2589 01f0 03       		.uleb128 0x3
 2590 01f1 0E       		.uleb128 0xe
 2591 01f2 3A       		.uleb128 0x3a
 2592 01f3 0B       		.uleb128 0xb
 2593 01f4 3B       		.uleb128 0x3b
 2594 01f5 0B       		.uleb128 0xb
 2595 01f6 39       		.uleb128 0x39
 2596 01f7 0B       		.uleb128 0xb
 2597 01f8 49       		.uleb128 0x49
 2598 01f9 13       		.uleb128 0x13
 2599 01fa 02       		.uleb128 0x2
 2600 01fb 17       		.uleb128 0x17
 2601 01fc B742     		.uleb128 0x2137
 2602 01fe 17       		.uleb128 0x17
 2603 01ff 00       		.byte	0
 2604 0200 00       		.byte	0
 2605 0201 1F       		.uleb128 0x1f
 2606 0202 0B       		.uleb128 0xb
 2607 0203 01       		.byte	0x1
 2608 0204 11       		.uleb128 0x11
 2609 0205 01       		.uleb128 0x1
 2610 0206 12       		.uleb128 0x12
 2611 0207 06       		.uleb128 0x6
 2612 0208 01       		.uleb128 0x1
 2613 0209 13       		.uleb128 0x13
 2614 020a 00       		.byte	0
 2615 020b 00       		.byte	0
 2616 020c 20       		.uleb128 0x20
 2617 020d 1D       		.uleb128 0x1d
 2618 020e 00       		.byte	0
 2619 020f 31       		.uleb128 0x31
 2620 0210 13       		.uleb128 0x13
 2621 0211 52       		.uleb128 0x52
 2622 0212 01       		.uleb128 0x1
ARM GAS  C:\Users\DEVELO~1\AppData\Local\Temp\ccASuyx8.s 			page 47


 2623 0213 B842     		.uleb128 0x2138
 2624 0215 0B       		.uleb128 0xb
 2625 0216 55       		.uleb128 0x55
 2626 0217 17       		.uleb128 0x17
 2627 0218 58       		.uleb128 0x58
 2628 0219 0B       		.uleb128 0xb
 2629 021a 59       		.uleb128 0x59
 2630 021b 0B       		.uleb128 0xb
 2631 021c 57       		.uleb128 0x57
 2632 021d 0B       		.uleb128 0xb
 2633 021e 00       		.byte	0
 2634 021f 00       		.byte	0
 2635 0220 21       		.uleb128 0x21
 2636 0221 1D       		.uleb128 0x1d
 2637 0222 00       		.byte	0
 2638 0223 31       		.uleb128 0x31
 2639 0224 13       		.uleb128 0x13
 2640 0225 52       		.uleb128 0x52
 2641 0226 01       		.uleb128 0x1
 2642 0227 B842     		.uleb128 0x2138
 2643 0229 0B       		.uleb128 0xb
 2644 022a 11       		.uleb128 0x11
 2645 022b 01       		.uleb128 0x1
 2646 022c 12       		.uleb128 0x12
 2647 022d 06       		.uleb128 0x6
 2648 022e 58       		.uleb128 0x58
 2649 022f 0B       		.uleb128 0xb
 2650 0230 59       		.uleb128 0x59
 2651 0231 0B       		.uleb128 0xb
 2652 0232 57       		.uleb128 0x57
 2653 0233 0B       		.uleb128 0xb
 2654 0234 00       		.byte	0
 2655 0235 00       		.byte	0
 2656 0236 22       		.uleb128 0x22
 2657 0237 1D       		.uleb128 0x1d
 2658 0238 01       		.byte	0x1
 2659 0239 31       		.uleb128 0x31
 2660 023a 13       		.uleb128 0x13
 2661 023b 52       		.uleb128 0x52
 2662 023c 01       		.uleb128 0x1
 2663 023d B842     		.uleb128 0x2138
 2664 023f 0B       		.uleb128 0xb
 2665 0240 55       		.uleb128 0x55
 2666 0241 17       		.uleb128 0x17
 2667 0242 58       		.uleb128 0x58
 2668 0243 0B       		.uleb128 0xb
 2669 0244 59       		.uleb128 0x59
 2670 0245 05       		.uleb128 0x5
 2671 0246 57       		.uleb128 0x57
 2672 0247 0B       		.uleb128 0xb
 2673 0248 01       		.uleb128 0x1
 2674 0249 13       		.uleb128 0x13
 2675 024a 00       		.byte	0
 2676 024b 00       		.byte	0
 2677 024c 23       		.uleb128 0x23
 2678 024d 1D       		.uleb128 0x1d
 2679 024e 01       		.byte	0x1
ARM GAS  C:\Users\DEVELO~1\AppData\Local\Temp\ccASuyx8.s 			page 48


 2680 024f 31       		.uleb128 0x31
 2681 0250 13       		.uleb128 0x13
 2682 0251 52       		.uleb128 0x52
 2683 0252 01       		.uleb128 0x1
 2684 0253 B842     		.uleb128 0x2138
 2685 0255 0B       		.uleb128 0xb
 2686 0256 11       		.uleb128 0x11
 2687 0257 01       		.uleb128 0x1
 2688 0258 12       		.uleb128 0x12
 2689 0259 06       		.uleb128 0x6
 2690 025a 58       		.uleb128 0x58
 2691 025b 0B       		.uleb128 0xb
 2692 025c 59       		.uleb128 0x59
 2693 025d 05       		.uleb128 0x5
 2694 025e 57       		.uleb128 0x57
 2695 025f 0B       		.uleb128 0xb
 2696 0260 01       		.uleb128 0x1
 2697 0261 13       		.uleb128 0x13
 2698 0262 00       		.byte	0
 2699 0263 00       		.byte	0
 2700 0264 24       		.uleb128 0x24
 2701 0265 1D       		.uleb128 0x1d
 2702 0266 01       		.byte	0x1
 2703 0267 31       		.uleb128 0x31
 2704 0268 13       		.uleb128 0x13
 2705 0269 52       		.uleb128 0x52
 2706 026a 01       		.uleb128 0x1
 2707 026b B842     		.uleb128 0x2138
 2708 026d 0B       		.uleb128 0xb
 2709 026e 11       		.uleb128 0x11
 2710 026f 01       		.uleb128 0x1
 2711 0270 12       		.uleb128 0x12
 2712 0271 06       		.uleb128 0x6
 2713 0272 58       		.uleb128 0x58
 2714 0273 0B       		.uleb128 0xb
 2715 0274 59       		.uleb128 0x59
 2716 0275 05       		.uleb128 0x5
 2717 0276 57       		.uleb128 0x57
 2718 0277 0B       		.uleb128 0xb
 2719 0278 00       		.byte	0
 2720 0279 00       		.byte	0
 2721 027a 25       		.uleb128 0x25
 2722 027b 48       		.uleb128 0x48
 2723 027c 00       		.byte	0
 2724 027d 7D       		.uleb128 0x7d
 2725 027e 01       		.uleb128 0x1
 2726 027f 8201     		.uleb128 0x82
 2727 0281 19       		.uleb128 0x19
 2728 0282 7F       		.uleb128 0x7f
 2729 0283 13       		.uleb128 0x13
 2730 0284 00       		.byte	0
 2731 0285 00       		.byte	0
 2732 0286 26       		.uleb128 0x26
 2733 0287 2E       		.uleb128 0x2e
 2734 0288 01       		.byte	0x1
 2735 0289 03       		.uleb128 0x3
 2736 028a 0E       		.uleb128 0xe
ARM GAS  C:\Users\DEVELO~1\AppData\Local\Temp\ccASuyx8.s 			page 49


 2737 028b 3A       		.uleb128 0x3a
 2738 028c 0B       		.uleb128 0xb
 2739 028d 3B       		.uleb128 0x3b
 2740 028e 0B       		.uleb128 0xb
 2741 028f 39       		.uleb128 0x39
 2742 0290 0B       		.uleb128 0xb
 2743 0291 27       		.uleb128 0x27
 2744 0292 19       		.uleb128 0x19
 2745 0293 20       		.uleb128 0x20
 2746 0294 0B       		.uleb128 0xb
 2747 0295 00       		.byte	0
 2748 0296 00       		.byte	0
 2749 0297 00       		.byte	0
 2750              		.section	.debug_loclists,"",%progbits
 2751 0000 E6010000 		.4byte	.Ldebug_loc3-.Ldebug_loc2
 2752              	.Ldebug_loc2:
 2753 0004 0500     		.2byte	0x5
 2754 0006 04       		.byte	0x4
 2755 0007 00       		.byte	0
 2756 0008 00000000 		.4byte	0
 2757              	.Ldebug_loc0:
 2758              	.LVUS12:
 2759 000c 01       		.uleb128 .LVU183
 2760 000d 03       		.uleb128 .LVU185
 2761 000e 03       		.uleb128 .LVU185
 2762 000f 00       		.uleb128 0
 2763              	.LLST12:
 2764 0010 06       		.byte	0x6
 2765 0011 AE000000 		.4byte	.LVL15
 2766 0015 04       		.byte	0x4
 2767 0016 00       		.uleb128 .LVL15-.LVL15
 2768 0017 00       		.uleb128 .LVL15-.LVL15
 2769 0018 06       		.uleb128 0x6
 2770 0019 0C       		.byte	0xc
 2771 001a 00081008 		.4byte	0x8100800
 2772 001e 9F       		.byte	0x9f
 2773 001f 04       		.byte	0x4
 2774 0020 00       		.uleb128 .LVL15-.LVL15
 2775 0021 C602     		.uleb128 .LFE434-.LVL15
 2776 0023 06       		.uleb128 0x6
 2777 0024 0C       		.byte	0xc
 2778 0025 00881008 		.4byte	0x8108800
 2779 0029 9F       		.byte	0x9f
 2780 002a 00       		.byte	0
 2781              	.LVUS17:
 2782 002b 01       		.uleb128 .LVU220
 2783 002c 01       		.uleb128 .LVU235
 2784 002d 01       		.uleb128 .LVU235
 2785 002e 01       		.uleb128 .LVU245
 2786 002f 01       		.uleb128 .LVU245
 2787 0030 01       		.uleb128 .LVU254
 2788 0031 01       		.uleb128 .LVU254
 2789 0032 00       		.uleb128 0
 2790              	.LLST17:
 2791 0033 06       		.byte	0x6
 2792 0034 F0000000 		.4byte	.LVL16
 2793 0038 04       		.byte	0x4
ARM GAS  C:\Users\DEVELO~1\AppData\Local\Temp\ccASuyx8.s 			page 50


 2794 0039 00       		.uleb128 .LVL16-.LVL16
 2795 003a 10       		.uleb128 .LVL18-.LVL16
 2796 003b 02       		.uleb128 0x2
 2797 003c 30       		.byte	0x30
 2798 003d 9F       		.byte	0x9f
 2799 003e 04       		.byte	0x4
 2800 003f 10       		.uleb128 .LVL18-.LVL16
 2801 0040 16       		.uleb128 .LVL19-.LVL16
 2802 0041 04       		.uleb128 0x4
 2803 0042 40       		.byte	0x40
 2804 0043 44       		.byte	0x44
 2805 0044 24       		.byte	0x24
 2806 0045 9F       		.byte	0x9f
 2807 0046 04       		.byte	0x4
 2808 0047 16       		.uleb128 .LVL19-.LVL16
 2809 0048 1A       		.uleb128 .LVL20-.LVL16
 2810 0049 04       		.uleb128 0x4
 2811 004a 44       		.byte	0x44
 2812 004b 46       		.byte	0x46
 2813 004c 24       		.byte	0x24
 2814 004d 9F       		.byte	0x9f
 2815 004e 04       		.byte	0x4
 2816 004f 1A       		.uleb128 .LVL20-.LVL16
 2817 0050 8402     		.uleb128 .LFE434-.LVL16
 2818 0052 04       		.uleb128 0x4
 2819 0053 45       		.byte	0x45
 2820 0054 48       		.byte	0x48
 2821 0055 24       		.byte	0x24
 2822 0056 9F       		.byte	0x9f
 2823 0057 00       		.byte	0
 2824              	.LVUS18:
 2825 0058 02       		.uleb128 .LVU221
 2826 0059 02       		.uleb128 .LVU236
 2827 005a 02       		.uleb128 .LVU236
 2828 005b 02       		.uleb128 .LVU246
 2829 005c 02       		.uleb128 .LVU246
 2830 005d 02       		.uleb128 .LVU255
 2831 005e 02       		.uleb128 .LVU255
 2832 005f 00       		.uleb128 0
 2833              	.LLST18:
 2834 0060 06       		.byte	0x6
 2835 0061 F0000000 		.4byte	.LVL16
 2836 0065 04       		.byte	0x4
 2837 0066 00       		.uleb128 .LVL16-.LVL16
 2838 0067 10       		.uleb128 .LVL18-.LVL16
 2839 0068 02       		.uleb128 0x2
 2840 0069 30       		.byte	0x30
 2841 006a 9F       		.byte	0x9f
 2842 006b 04       		.byte	0x4
 2843 006c 10       		.uleb128 .LVL18-.LVL16
 2844 006d 16       		.uleb128 .LVL19-.LVL16
 2845 006e 04       		.uleb128 0x4
 2846 006f 40       		.byte	0x40
 2847 0070 45       		.byte	0x45
 2848 0071 24       		.byte	0x24
 2849 0072 9F       		.byte	0x9f
 2850 0073 04       		.byte	0x4
ARM GAS  C:\Users\DEVELO~1\AppData\Local\Temp\ccASuyx8.s 			page 51


 2851 0074 16       		.uleb128 .LVL19-.LVL16
 2852 0075 1A       		.uleb128 .LVL20-.LVL16
 2853 0076 04       		.uleb128 0x4
 2854 0077 44       		.byte	0x44
 2855 0078 47       		.byte	0x47
 2856 0079 24       		.byte	0x24
 2857 007a 9F       		.byte	0x9f
 2858 007b 04       		.byte	0x4
 2859 007c 1A       		.uleb128 .LVL20-.LVL16
 2860 007d 8402     		.uleb128 .LFE434-.LVL16
 2861 007f 04       		.uleb128 0x4
 2862 0080 45       		.byte	0x45
 2863 0081 49       		.byte	0x49
 2864 0082 24       		.byte	0x24
 2865 0083 9F       		.byte	0x9f
 2866 0084 00       		.byte	0
 2867              	.LVUS19:
 2868 0085 03       		.uleb128 .LVU222
 2869 0086 01       		.uleb128 .LVU228
 2870 0087 01       		.uleb128 .LVU228
 2871 0088 03       		.uleb128 .LVU237
 2872 0089 03       		.uleb128 .LVU237
 2873 008a 04       		.uleb128 .LVU238
 2874 008b 04       		.uleb128 .LVU238
 2875 008c 05       		.uleb128 .LVU239
 2876 008d 05       		.uleb128 .LVU239
 2877 008e 03       		.uleb128 .LVU247
 2878 008f 03       		.uleb128 .LVU247
 2879 0090 04       		.uleb128 .LVU248
 2880 0091 04       		.uleb128 .LVU248
 2881 0092 05       		.uleb128 .LVU249
 2882 0093 05       		.uleb128 .LVU249
 2883 0094 03       		.uleb128 .LVU256
 2884 0095 03       		.uleb128 .LVU256
 2885 0096 04       		.uleb128 .LVU257
 2886 0097 04       		.uleb128 .LVU257
 2887 0098 05       		.uleb128 .LVU258
 2888 0099 05       		.uleb128 .LVU258
 2889 009a 00       		.uleb128 0
 2890              	.LLST19:
 2891 009b 06       		.byte	0x6
 2892 009c F0000000 		.4byte	.LVL16
 2893 00a0 04       		.byte	0x4
 2894 00a1 00       		.uleb128 .LVL16-.LVL16
 2895 00a2 08       		.uleb128 .LVL17-.LVL16
 2896 00a3 02       		.uleb128 0x2
 2897 00a4 30       		.byte	0x30
 2898 00a5 9F       		.byte	0x9f
 2899 00a6 04       		.byte	0x4
 2900 00a7 08       		.uleb128 .LVL17-.LVL16
 2901 00a8 10       		.uleb128 .LVL18-.LVL16
 2902 00a9 04       		.uleb128 0x4
 2903 00aa 0A       		.byte	0xa
 2904 00ab 5505     		.2byte	0x555
 2905 00ad 9F       		.byte	0x9f
 2906 00ae 04       		.byte	0x4
 2907 00af 10       		.uleb128 .LVL18-.LVL16
ARM GAS  C:\Users\DEVELO~1\AppData\Local\Temp\ccASuyx8.s 			page 52


 2908 00b0 10       		.uleb128 .LVL18-.LVL16
 2909 00b1 06       		.uleb128 0x6
 2910 00b2 0C       		.byte	0xc
 2911 00b3 55050100 		.4byte	0x10555
 2912 00b7 9F       		.byte	0x9f
 2913 00b8 04       		.byte	0x4
 2914 00b9 10       		.uleb128 .LVL18-.LVL16
 2915 00ba 10       		.uleb128 .LVL18-.LVL16
 2916 00bb 06       		.uleb128 0x6
 2917 00bc 0C       		.byte	0xc
 2918 00bd 55050300 		.4byte	0x30555
 2919 00c1 9F       		.byte	0x9f
 2920 00c2 04       		.byte	0x4
 2921 00c3 10       		.uleb128 .LVL18-.LVL16
 2922 00c4 16       		.uleb128 .LVL19-.LVL16
 2923 00c5 06       		.uleb128 0x6
 2924 00c6 0C       		.byte	0xc
 2925 00c7 55050700 		.4byte	0x70555
 2926 00cb 9F       		.byte	0x9f
 2927 00cc 04       		.byte	0x4
 2928 00cd 16       		.uleb128 .LVL19-.LVL16
 2929 00ce 16       		.uleb128 .LVL19-.LVL16
 2930 00cf 06       		.uleb128 0x6
 2931 00d0 0C       		.byte	0xc
 2932 00d1 55050F00 		.4byte	0xf0555
 2933 00d5 9F       		.byte	0x9f
 2934 00d6 04       		.byte	0x4
 2935 00d7 16       		.uleb128 .LVL19-.LVL16
 2936 00d8 16       		.uleb128 .LVL19-.LVL16
 2937 00d9 06       		.uleb128 0x6
 2938 00da 0C       		.byte	0xc
 2939 00db 55051F00 		.4byte	0x1f0555
 2940 00df 9F       		.byte	0x9f
 2941 00e0 04       		.byte	0x4
 2942 00e1 16       		.uleb128 .LVL19-.LVL16
 2943 00e2 1A       		.uleb128 .LVL20-.LVL16
 2944 00e3 06       		.uleb128 0x6
 2945 00e4 0C       		.byte	0xc
 2946 00e5 55053F00 		.4byte	0x3f0555
 2947 00e9 9F       		.byte	0x9f
 2948 00ea 04       		.byte	0x4
 2949 00eb 1A       		.uleb128 .LVL20-.LVL16
 2950 00ec 1A       		.uleb128 .LVL20-.LVL16
 2951 00ed 06       		.uleb128 0x6
 2952 00ee 0C       		.byte	0xc
 2953 00ef 55057F00 		.4byte	0x7f0555
 2954 00f3 9F       		.byte	0x9f
 2955 00f4 04       		.byte	0x4
 2956 00f5 1A       		.uleb128 .LVL20-.LVL16
 2957 00f6 1A       		.uleb128 .LVL20-.LVL16
 2958 00f7 06       		.uleb128 0x6
 2959 00f8 0C       		.byte	0xc
 2960 00f9 5505FF00 		.4byte	0xff0555
 2961 00fd 9F       		.byte	0x9f
 2962 00fe 04       		.byte	0x4
 2963 00ff 1A       		.uleb128 .LVL20-.LVL16
 2964 0100 8402     		.uleb128 .LFE434-.LVL16
ARM GAS  C:\Users\DEVELO~1\AppData\Local\Temp\ccASuyx8.s 			page 53


 2965 0102 06       		.uleb128 0x6
 2966 0103 0C       		.byte	0xc
 2967 0104 5505FF01 		.4byte	0x1ff0555
 2968 0108 9F       		.byte	0x9f
 2969 0109 00       		.byte	0
 2970              	.LVUS14:
 2971 010a 01       		.uleb128 .LVU96
 2972 010b 00       		.uleb128 .LVU103
 2973              	.LLST14:
 2974 010c 08       		.byte	0x8
 2975 010d 10000000 		.4byte	.LVL13
 2976 0111 18       		.uleb128 .LVL14-.LVL13
 2977 0112 02       		.uleb128 0x2
 2978 0113 31       		.byte	0x31
 2979 0114 9F       		.byte	0x9f
 2980 0115 00       		.byte	0
 2981              	.LVUS15:
 2982 0116 01       		.uleb128 .LVU96
 2983 0117 00       		.uleb128 .LVU103
 2984              	.LLST15:
 2985 0118 08       		.byte	0x8
 2986 0119 10000000 		.4byte	.LVL13
 2987 011d 18       		.uleb128 .LVL14-.LVL13
 2988 011e 02       		.uleb128 0x2
 2989 011f 32       		.byte	0x32
 2990 0120 9F       		.byte	0x9f
 2991 0121 00       		.byte	0
 2992              	.LVUS21:
 2993 0122 01       		.uleb128 .LVU307
 2994 0123 00       		.uleb128 .LVU316
 2995              	.LLST21:
 2996 0124 08       		.byte	0x8
 2997 0125 66010000 		.4byte	.LVL21
 2998 0129 1E       		.uleb128 .LVL22-.LVL21
 2999 012a 02       		.uleb128 0x2
 3000 012b 31       		.byte	0x31
 3001 012c 9F       		.byte	0x9f
 3002 012d 00       		.byte	0
 3003              	.LVUS22:
 3004 012e 01       		.uleb128 .LVU307
 3005 012f 00       		.uleb128 .LVU316
 3006              	.LLST22:
 3007 0130 08       		.byte	0x8
 3008 0131 66010000 		.4byte	.LVL21
 3009 0135 1E       		.uleb128 .LVL22-.LVL21
 3010 0136 04       		.uleb128 0x4
 3011 0137 40       		.byte	0x40
 3012 0138 49       		.byte	0x49
 3013 0139 24       		.byte	0x24
 3014 013a 9F       		.byte	0x9f
 3015 013b 00       		.byte	0
 3016              	.LVUS23:
 3017 013c 02       		.uleb128 .LVU318
 3018 013d 00       		.uleb128 .LVU325
 3019              	.LLST23:
 3020 013e 08       		.byte	0x8
 3021 013f 84010000 		.4byte	.LVL22
ARM GAS  C:\Users\DEVELO~1\AppData\Local\Temp\ccASuyx8.s 			page 54


 3022 0143 1C       		.uleb128 .LVL23-.LVL22
 3023 0144 02       		.uleb128 0x2
 3024 0145 31       		.byte	0x31
 3025 0146 9F       		.byte	0x9f
 3026 0147 00       		.byte	0
 3027              	.LVUS24:
 3028 0148 02       		.uleb128 .LVU318
 3029 0149 00       		.uleb128 .LVU325
 3030              	.LLST24:
 3031 014a 08       		.byte	0x8
 3032 014b 84010000 		.4byte	.LVL22
 3033 014f 1C       		.uleb128 .LVL23-.LVL22
 3034 0150 04       		.uleb128 0x4
 3035 0151 40       		.byte	0x40
 3036 0152 4A       		.byte	0x4a
 3037 0153 24       		.byte	0x24
 3038 0154 9F       		.byte	0x9f
 3039 0155 00       		.byte	0
 3040              	.LVUS25:
 3041 0156 02       		.uleb128 .LVU327
 3042 0157 00       		.uleb128 .LVU334
 3043              	.LLST25:
 3044 0158 08       		.byte	0x8
 3045 0159 A0010000 		.4byte	.LVL23
 3046 015d 1C       		.uleb128 .LVL24-.LVL23
 3047 015e 02       		.uleb128 0x2
 3048 015f 31       		.byte	0x31
 3049 0160 9F       		.byte	0x9f
 3050 0161 00       		.byte	0
 3051              	.LVUS26:
 3052 0162 02       		.uleb128 .LVU327
 3053 0163 00       		.uleb128 .LVU334
 3054              	.LLST26:
 3055 0164 08       		.byte	0x8
 3056 0165 A0010000 		.4byte	.LVL23
 3057 0169 1C       		.uleb128 .LVL24-.LVL23
 3058 016a 05       		.uleb128 0x5
 3059 016b 40       		.byte	0x40
 3060 016c 4B       		.byte	0x4b
 3061 016d 24       		.byte	0x24
 3062 016e 1F       		.byte	0x1f
 3063 016f 9F       		.byte	0x9f
 3064 0170 00       		.byte	0
 3065              	.LVUS1:
 3066 0171 02       		.uleb128 .LVU2
 3067 0172 00       		.uleb128 .LVU12
 3068              	.LLST1:
 3069 0173 08       		.byte	0x8
 3070 0174 00000000 		.4byte	.LVL0
 3071 0178 20       		.uleb128 .LVL1-.LVL0
 3072 0179 03       		.uleb128 0x3
 3073 017a 09       		.byte	0x9
 3074 017b FF       		.byte	0xff
 3075 017c 9F       		.byte	0x9f
 3076 017d 00       		.byte	0
 3077              	.LVUS3:
 3078 017e 02       		.uleb128 .LVU22
ARM GAS  C:\Users\DEVELO~1\AppData\Local\Temp\ccASuyx8.s 			page 55


 3079 017f 00       		.uleb128 .LVU32
 3080              	.LLST3:
 3081 0180 08       		.byte	0x8
 3082 0181 34000000 		.4byte	.LVL2
 3083 0185 12       		.uleb128 .LVL3-.LVL2
 3084 0186 06       		.uleb128 0x6
 3085 0187 0C       		.byte	0xc
 3086 0188 FFEFFF7F 		.4byte	0x7fffefff
 3087 018c 9F       		.byte	0x9f
 3088 018d 00       		.byte	0
 3089              	.LVUS4:
 3090 018e 02       		.uleb128 .LVU14
 3091 018f 00       		.uleb128 .LVU20
 3092              	.LLST4:
 3093 0190 08       		.byte	0x8
 3094 0191 20000000 		.4byte	.LVL1
 3095 0195 14       		.uleb128 .LVL2-.LVL1
 3096 0196 03       		.uleb128 0x3
 3097 0197 09       		.byte	0x9
 3098 0198 FF       		.byte	0xff
 3099 0199 9F       		.byte	0x9f
 3100 019a 00       		.byte	0
 3101              	.LVUS6:
 3102 019b 02       		.uleb128 .LVU34
 3103 019c 00       		.uleb128 .LVU40
 3104              	.LLST6:
 3105 019d 08       		.byte	0x8
 3106 019e 46000000 		.4byte	.LVL3
 3107 01a2 1A       		.uleb128 .LVL4-.LVL3
 3108 01a3 04       		.uleb128 0x4
 3109 01a4 0B       		.byte	0xb
 3110 01a5 00F8     		.2byte	0xf800
 3111 01a7 9F       		.byte	0x9f
 3112 01a8 00       		.byte	0
 3113              	.LVUS7:
 3114 01a9 02       		.uleb128 .LVU42
 3115 01aa 00       		.uleb128 .LVU48
 3116              	.LLST7:
 3117 01ab 08       		.byte	0x8
 3118 01ac 60000000 		.4byte	.LVL4
 3119 01b0 14       		.uleb128 .LVL5-.LVL4
 3120 01b1 03       		.uleb128 0x3
 3121 01b2 09       		.byte	0x9
 3122 01b3 FF       		.byte	0xff
 3123 01b4 9F       		.byte	0x9f
 3124 01b5 00       		.byte	0
 3125              	.LVUS8:
 3126 01b6 02       		.uleb128 .LVU50
 3127 01b7 00       		.uleb128 .LVU56
 3128              	.LLST8:
 3129 01b8 08       		.byte	0x8
 3130 01b9 74000000 		.4byte	.LVL5
 3131 01bd 14       		.uleb128 .LVL6-.LVL5
 3132 01be 03       		.uleb128 0x3
 3133 01bf 09       		.byte	0x9
 3134 01c0 FF       		.byte	0xff
 3135 01c1 9F       		.byte	0x9f
ARM GAS  C:\Users\DEVELO~1\AppData\Local\Temp\ccASuyx8.s 			page 56


 3136 01c2 00       		.byte	0
 3137              	.LVUS9:
 3138 01c3 02       		.uleb128 .LVU58
 3139 01c4 00       		.uleb128 .LVU64
 3140              	.LLST9:
 3141 01c5 08       		.byte	0x8
 3142 01c6 88000000 		.4byte	.LVL6
 3143 01ca 14       		.uleb128 .LVL7-.LVL6
 3144 01cb 03       		.uleb128 0x3
 3145 01cc 09       		.byte	0x9
 3146 01cd FF       		.byte	0xff
 3147 01ce 9F       		.byte	0x9f
 3148 01cf 00       		.byte	0
 3149              	.LVUS10:
 3150 01d0 02       		.uleb128 .LVU66
 3151 01d1 00       		.uleb128 .LVU72
 3152              	.LLST10:
 3153 01d2 08       		.byte	0x8
 3154 01d3 9C000000 		.4byte	.LVL7
 3155 01d7 14       		.uleb128 .LVL8-.LVL7
 3156 01d8 03       		.uleb128 0x3
 3157 01d9 09       		.byte	0x9
 3158 01da FF       		.byte	0xff
 3159 01db 9F       		.byte	0x9f
 3160 01dc 00       		.byte	0
 3161              	.LVUS11:
 3162 01dd 02       		.uleb128 .LVU74
 3163 01de 00       		.uleb128 .LVU80
 3164              	.LLST11:
 3165 01df 08       		.byte	0x8
 3166 01e0 B0000000 		.4byte	.LVL8
 3167 01e4 14       		.uleb128 .LVL9-.LVL8
 3168 01e5 03       		.uleb128 0x3
 3169 01e6 09       		.byte	0x9
 3170 01e7 FF       		.byte	0xff
 3171 01e8 9F       		.byte	0x9f
 3172 01e9 00       		.byte	0
 3173              	.Ldebug_loc3:
 3174              		.section	.debug_aranges,"",%progbits
 3175 0000 24000000 		.4byte	0x24
 3176 0004 0200     		.2byte	0x2
 3177 0006 00000000 		.4byte	.Ldebug_info0
 3178 000a 04       		.byte	0x4
 3179 000b 00       		.byte	0
 3180 000c 0000     		.2byte	0
 3181 000e 0000     		.2byte	0
 3182 0010 00000000 		.4byte	.LFB433
 3183 0014 E4000000 		.4byte	.LFE433-.LFB433
 3184 0018 00000000 		.4byte	.LFB434
 3185 001c F4010000 		.4byte	.LFE434-.LFB434
 3186 0020 00000000 		.4byte	0
 3187 0024 00000000 		.4byte	0
 3188              		.section	.debug_rnglists,"",%progbits
 3189              	.Ldebug_ranges0:
 3190 0000 68000000 		.4byte	.Ldebug_ranges3-.Ldebug_ranges2
 3191              	.Ldebug_ranges2:
 3192 0004 0500     		.2byte	0x5
ARM GAS  C:\Users\DEVELO~1\AppData\Local\Temp\ccASuyx8.s 			page 57


 3193 0006 04       		.byte	0x4
 3194 0007 00       		.byte	0
 3195 0008 00000000 		.4byte	0
 3196              	.LLRL0:
 3197 000c 05       		.byte	0x5
 3198 000d 00000000 		.4byte	.LBB29
 3199 0011 04       		.byte	0x4
 3200 0012 00       		.uleb128 .LBB29-.LBB29
 3201 0013 00       		.uleb128 .LBE29-.LBB29
 3202 0014 04       		.byte	0x4
 3203 0015 02       		.uleb128 .LBB33-.LBB29
 3204 0016 0A       		.uleb128 .LBE33-.LBB29
 3205 0017 04       		.byte	0x4
 3206 0018 0C       		.uleb128 .LBB38-.LBB29
 3207 0019 20       		.uleb128 .LBE38-.LBB29
 3208 001a 00       		.byte	0
 3209              	.LLRL2:
 3210 001b 05       		.byte	0x5
 3211 001c 0A000000 		.4byte	.LBB34
 3212 0020 04       		.byte	0x4
 3213 0021 00       		.uleb128 .LBB34-.LBB34
 3214 0022 02       		.uleb128 .LBE34-.LBB34
 3215 0023 04       		.byte	0x4
 3216 0024 2A       		.uleb128 .LBB41-.LBB34
 3217 0025 34       		.uleb128 .LBE41-.LBB34
 3218 0026 04       		.byte	0x4
 3219 0027 36       		.uleb128 .LBB45-.LBB34
 3220 0028 3C       		.uleb128 .LBE45-.LBB34
 3221 0029 00       		.byte	0
 3222              	.LLRL5:
 3223 002a 05       		.byte	0x5
 3224 002b 3E000000 		.4byte	.LBB42
 3225 002f 04       		.byte	0x4
 3226 0030 00       		.uleb128 .LBB42-.LBB42
 3227 0031 02       		.uleb128 .LBE42-.LBB42
 3228 0032 04       		.byte	0x4
 3229 0033 08       		.uleb128 .LBB46-.LBB42
 3230 0034 22       		.uleb128 .LBE46-.LBB42
 3231 0035 00       		.byte	0
 3232              	.LLRL13:
 3233 0036 05       		.byte	0x5
 3234 0037 00000000 		.4byte	.LBB70
 3235 003b 04       		.byte	0x4
 3236 003c 00       		.uleb128 .LBB70-.LBB70
 3237 003d 02       		.uleb128 .LBE70-.LBB70
 3238 003e 04       		.byte	0x4
 3239 003f 10       		.uleb128 .LBB78-.LBB70
 3240 0040 28       		.uleb128 .LBE78-.LBB70
 3241 0041 00       		.byte	0
 3242              	.LLRL16:
 3243 0042 05       		.byte	0x5
 3244 0043 02000000 		.4byte	.LBB73
 3245 0047 04       		.byte	0x4
 3246 0048 00       		.uleb128 .LBB73-.LBB73
 3247 0049 02       		.uleb128 .LBE73-.LBB73
 3248 004a 04       		.byte	0x4
 3249 004b 04       		.uleb128 .LBB77-.LBB73
ARM GAS  C:\Users\DEVELO~1\AppData\Local\Temp\ccASuyx8.s 			page 58


 3250 004c 06       		.uleb128 .LBE77-.LBB73
 3251 004d 04       		.byte	0x4
 3252 004e 26       		.uleb128 .LBB79-.LBB73
 3253 004f 4C       		.uleb128 .LBE79-.LBB73
 3254 0050 00       		.byte	0
 3255              	.LLRL20:
 3256 0051 05       		.byte	0x5
 3257 0052 66010000 		.4byte	.LBB83
 3258 0056 04       		.byte	0x4
 3259 0057 00       		.uleb128 .LBB83-.LBB83
 3260 0058 04       		.uleb128 .LBE83-.LBB83
 3261 0059 04       		.byte	0x4
 3262 005a 06       		.uleb128 .LBB86-.LBB83
 3263 005b 1E       		.uleb128 .LBE86-.LBB83
 3264 005c 00       		.byte	0
 3265              	.LLRL27:
 3266 005d 07       		.byte	0x7
 3267 005e 00000000 		.4byte	.LFB433
 3268 0062 E401     		.uleb128 .LFE433-.LFB433
 3269 0064 07       		.byte	0x7
 3270 0065 00000000 		.4byte	.LFB434
 3271 0069 F403     		.uleb128 .LFE434-.LFB434
 3272 006b 00       		.byte	0
 3273              	.Ldebug_ranges3:
 3274              		.section	.debug_line,"",%progbits
 3275              	.Ldebug_line0:
 3276 0000 87070000 		.section	.debug_str,"MS",%progbits,1
 3276      0300E601 
 3276      00000201 
 3276      FB0E0D00 
 3276      01010101 
 3277              	.LASF129:
 3278 0000 68616C5F 		.ascii	"hal_lld_init\000"
 3278      6C6C645F 
 3278      696E6974 
 3278      00
 3279              	.LASF68:
 3280 000d 504C4C31 		.ascii	"PLL1DIVR\000"
 3280      44495652 
 3280      00
 3281              	.LASF56:
 3282 0016 574B5550 		.ascii	"WKUPFR\000"
 3282      465200
 3283              	.LASF3:
 3284 001d 7369676E 		.ascii	"signed char\000"
 3284      65642063 
 3284      68617200 
 3285              	.LASF112:
 3286 0029 41504231 		.ascii	"APB1HLPENR\000"
 3286      484C5045 
 3286      4E5200
 3287              	.LASF7:
 3288 0034 6C6F6E67 		.ascii	"long int\000"
 3288      20696E74 
 3288      00
 3289              	.LASF16:
 3290 003d 4F505443 		.ascii	"OPTCR\000"
ARM GAS  C:\Users\DEVELO~1\AppData\Local\Temp\ccASuyx8.s 			page 59


 3290      5200
 3291              	.LASF21:
 3292 0043 50524152 		.ascii	"PRAR_PRG1\000"
 3292      5F505247 
 3292      3100
 3293              	.LASF40:
 3294 004d 50524152 		.ascii	"PRAR_PRG2\000"
 3294      5F505247 
 3294      3200
 3295              	.LASF144:
 3296 0057 2E2E2F2E 		.ascii	"../../../os/hal/ports/STM32/STM32H7xx/hal_lld.c\000"
 3296      2E2F2E2E 
 3296      2F6F732F 
 3296      68616C2F 
 3296      706F7274 
 3297              	.LASF141:
 3298 0087 5F5F7263 		.ascii	"__rccResetAPB2\000"
 3298      63526573 
 3298      65744150 
 3298      423200
 3299              	.LASF94:
 3300 0096 4433414D 		.ascii	"D3AMR\000"
 3300      5200
 3301              	.LASF139:
 3302 009c 5F5F7263 		.ascii	"__rccResetAPB4\000"
 3302      63526573 
 3302      65744150 
 3302      423400
 3303              	.LASF133:
 3304 00ab 72636345 		.ascii	"rccEnableAHB2\000"
 3304      6E61626C 
 3304      65414842 
 3304      3200
 3305              	.LASF107:
 3306 00b9 41484231 		.ascii	"AHB1LPENR\000"
 3306      4C50454E 
 3306      5200
 3307              	.LASF78:
 3308 00c3 43494552 		.ascii	"CIER\000"
 3308      00
 3309              	.LASF87:
 3310 00c8 41484234 		.ascii	"AHB4RSTR\000"
 3310      52535452 
 3310      00
 3311              	.LASF1:
 3312 00d1 6C6F6E67 		.ascii	"long long int\000"
 3312      206C6F6E 
 3312      6720696E 
 3312      7400
 3313              	.LASF26:
 3314 00df 424F4F54 		.ascii	"BOOT_CUR\000"
 3314      5F435552 
 3314      00
 3315              	.LASF55:
 3316 00e8 574B5550 		.ascii	"WKUPCR\000"
 3316      435200
 3317              	.LASF125:
ARM GAS  C:\Users\DEVELO~1\AppData\Local\Temp\ccASuyx8.s 			page 60


 3318 00ef 6F6E6D61 		.ascii	"onmask\000"
 3318      736B00
 3319              	.LASF51:
 3320 00f6 464C4153 		.ascii	"FLASH_TypeDef\000"
 3320      485F5479 
 3320      70654465 
 3320      6600
 3321              	.LASF9:
 3322 0104 6C6F6E67 		.ascii	"long long unsigned int\000"
 3322      206C6F6E 
 3322      6720756E 
 3322      7369676E 
 3322      65642069 
 3323              	.LASF19:
 3324 011b 4F505443 		.ascii	"OPTCCR\000"
 3324      435200
 3325              	.LASF95:
 3326 0122 52455345 		.ascii	"RESERVED11\000"
 3326      52564544 
 3326      313100
 3327              	.LASF105:
 3328 012d 52455345 		.ascii	"RESERVED12\000"
 3328      52564544 
 3328      313200
 3329              	.LASF115:
 3330 0138 52455345 		.ascii	"RESERVED13\000"
 3330      52564544 
 3330      313300
 3331              	.LASF49:
 3332 0143 43524344 		.ascii	"CRCDATA2\000"
 3332      41544132 
 3332      00
 3333              	.LASF69:
 3334 014c 504C4C31 		.ascii	"PLL1FRACR\000"
 3334      46524143 
 3334      5200
 3335              	.LASF91:
 3336 0156 41504232 		.ascii	"APB2RSTR\000"
 3336      52535452 
 3336      00
 3337              	.LASF131:
 3338 015f 696E6974 		.ascii	"init_bkp_domain\000"
 3338      5F626B70 
 3338      5F646F6D 
 3338      61696E00 
 3339              	.LASF32:
 3340 016f 43524344 		.ascii	"CRCDATA\000"
 3340      41544100 
 3341              	.LASF14:
 3342 0177 4F50544B 		.ascii	"OPTKEYR\000"
 3342      45595200 
 3343              	.LASF22:
 3344 017f 53434152 		.ascii	"SCAR_CUR1\000"
 3344      5F435552 
 3344      3100
 3345              	.LASF127:
 3346 0189 6366676D 		.ascii	"cfgmask\000"
ARM GAS  C:\Users\DEVELO~1\AppData\Local\Temp\ccASuyx8.s 			page 61


 3346      61736B00 
 3347              	.LASF41:
 3348 0191 53434152 		.ascii	"SCAR_CUR2\000"
 3348      5F435552 
 3348      3200
 3349              	.LASF65:
 3350 019b 44334346 		.ascii	"D3CFGR\000"
 3350      475200
 3351              	.LASF145:
 3352 01a2 433A5C43 		.ascii	"C:\\ChibiStudio\\chibios2111\\demos\\STM32\\RT-STM3"
 3352      68696269 
 3352      53747564 
 3352      696F5C63 
 3352      68696269 
 3353 01d0 32483734 		.ascii	"2H743ZI_REV_XY-NUCLEO144 - Copie\000"
 3353      335A495F 
 3353      5245565F 
 3353      58592D4E 
 3353      55434C45 
 3354              	.LASF60:
 3355 01f1 43525243 		.ascii	"CRRCR\000"
 3355      5200
 3356              	.LASF79:
 3357 01f7 43494652 		.ascii	"CIFR\000"
 3357      00
 3358              	.LASF72:
 3359 01fc 504C4C33 		.ascii	"PLL3DIVR\000"
 3359      44495652 
 3359      00
 3360              	.LASF10:
 3361 0205 5F5F7569 		.ascii	"__uint32_t\000"
 3361      6E743332 
 3361      5F7400
 3362              	.LASF132:
 3363 0210 6D61736B 		.ascii	"mask\000"
 3363      00
 3364              	.LASF75:
 3365 0215 44324343 		.ascii	"D2CCIP1R\000"
 3365      49503152 
 3365      00
 3366              	.LASF77:
 3367 021e 44334343 		.ascii	"D3CCIPR\000"
 3367      49505200 
 3368              	.LASF128:
 3369 0226 73746D33 		.ascii	"stm32_clock_init\000"
 3369      325F636C 
 3369      6F636B5F 
 3369      696E6974 
 3369      00
 3370              	.LASF71:
 3371 0237 504C4C32 		.ascii	"PLL2FRACR\000"
 3371      46524143 
 3371      5200
 3372              	.LASF0:
 3373 0241 756E7369 		.ascii	"unsigned int\000"
 3373      676E6564 
 3373      20696E74 
ARM GAS  C:\Users\DEVELO~1\AppData\Local\Temp\ccASuyx8.s 			page 62


 3373      00
 3374              	.LASF57:
 3375 024e 574B5550 		.ascii	"WKUPEPR\000"
 3375      45505200 
 3376              	.LASF123:
 3377 0256 53797374 		.ascii	"SystemCoreClock\000"
 3377      656D436F 
 3377      7265436C 
 3377      6F636B00 
 3378              	.LASF8:
 3379 0266 6C6F6E67 		.ascii	"long unsigned int\000"
 3379      20756E73 
 3379      69676E65 
 3379      6420696E 
 3379      7400
 3380              	.LASF53:
 3381 0278 43505543 		.ascii	"CPUCR\000"
 3381      5200
 3382              	.LASF116:
 3383 027e 5243435F 		.ascii	"RCC_TypeDef\000"
 3383      54797065 
 3383      44656600 
 3384              	.LASF143:
 3385 028a 474E5520 		.ascii	"GNU C17 11.3.1 20220712 -mcpu=cortex-m7 -mthumb -mf"
 3385      43313720 
 3385      31312E33 
 3385      2E312032 
 3385      30323230 
 3386 02bd 6C6F6174 		.ascii	"loat-abi=soft -march=armv7e-m -ggdb -O2 -fomit-fram"
 3386      2D616269 
 3386      3D736F66 
 3386      74202D6D 
 3386      61726368 
 3387 02f0 652D706F 		.ascii	"e-pointer -falign-functions=16 -ffunction-sections "
 3387      696E7465 
 3387      72202D66 
 3387      616C6967 
 3387      6E2D6675 
 3388 0323 2D666461 		.ascii	"-fdata-sections -fno-common\000"
 3388      74612D73 
 3388      65637469 
 3388      6F6E7320 
 3388      2D666E6F 
 3389              	.LASF27:
 3390 033f 424F4F54 		.ascii	"BOOT_PRG\000"
 3390      5F505247 
 3390      00
 3391              	.LASF6:
 3392 0348 73686F72 		.ascii	"short unsigned int\000"
 3392      7420756E 
 3392      7369676E 
 3392      65642069 
 3392      6E7400
 3393              	.LASF66:
 3394 035b 504C4C43 		.ascii	"PLLCKSELR\000"
 3394      4B53454C 
 3394      5200
ARM GAS  C:\Users\DEVELO~1\AppData\Local\Temp\ccASuyx8.s 			page 63


 3395              	.LASF59:
 3396 0365 48534943 		.ascii	"HSICFGR\000"
 3396      46475200 
 3397              	.LASF84:
 3398 036d 41484233 		.ascii	"AHB3RSTR\000"
 3398      52535452 
 3398      00
 3399              	.LASF102:
 3400 0376 41504231 		.ascii	"APB1HENR\000"
 3400      48454E52 
 3400      00
 3401              	.LASF76:
 3402 037f 44324343 		.ascii	"D2CCIP2R\000"
 3402      49503252 
 3402      00
 3403              	.LASF20:
 3404 0388 50524152 		.ascii	"PRAR_CUR1\000"
 3404      5F435552 
 3404      3100
 3405              	.LASF39:
 3406 0392 50524152 		.ascii	"PRAR_CUR2\000"
 3406      5F435552 
 3406      3200
 3407              	.LASF89:
 3408 039c 41504231 		.ascii	"APB1LRSTR\000"
 3408      4C525354 
 3408      5200
 3409              	.LASF113:
 3410 03a6 41504232 		.ascii	"APB2LPENR\000"
 3410      4C50454E 
 3410      5200
 3411              	.LASF73:
 3412 03b0 504C4C33 		.ascii	"PLL3FRACR\000"
 3412      46524143 
 3412      5200
 3413              	.LASF92:
 3414 03ba 41504234 		.ascii	"APB4RSTR\000"
 3414      52535452 
 3414      00
 3415              	.LASF58:
 3416 03c3 5057525F 		.ascii	"PWR_TypeDef\000"
 3416      54797065 
 3416      44656600 
 3417              	.LASF23:
 3418 03cf 53434152 		.ascii	"SCAR_PRG1\000"
 3418      5F505247 
 3418      3100
 3419              	.LASF42:
 3420 03d9 53434152 		.ascii	"SCAR_PRG2\000"
 3420      5F505247 
 3420      3200
 3421              	.LASF104:
 3422 03e3 41504234 		.ascii	"APB4ENR\000"
 3422      454E5200 
 3423              	.LASF134:
 3424 03eb 72636345 		.ascii	"rccEnableAPB4\000"
 3424      6E61626C 
ARM GAS  C:\Users\DEVELO~1\AppData\Local\Temp\ccASuyx8.s 			page 64


 3424      65415042 
 3424      3400
 3425              	.LASF25:
 3426 03f9 5750534E 		.ascii	"WPSN_PRG1\000"
 3426      5F505247 
 3426      3100
 3427              	.LASF44:
 3428 0403 5750534E 		.ascii	"WPSN_PRG2\000"
 3428      5F505247 
 3428      3200
 3429              	.LASF31:
 3430 040d 43524345 		.ascii	"CRCEADD1\000"
 3430      41444431 
 3430      00
 3431              	.LASF48:
 3432 0416 43524345 		.ascii	"CRCEADD2\000"
 3432      41444432 
 3432      00
 3433              	.LASF130:
 3434 041f 696E6974 		.ascii	"init_pwr\000"
 3434      5F707772 
 3434      00
 3435              	.LASF90:
 3436 0428 41504231 		.ascii	"APB1HRSTR\000"
 3436      48525354 
 3436      5200
 3437              	.LASF29:
 3438 0432 43524343 		.ascii	"CRCCR1\000"
 3438      523100
 3439              	.LASF46:
 3440 0439 43524343 		.ascii	"CRCCR2\000"
 3440      523200
 3441              	.LASF17:
 3442 0440 4F505453 		.ascii	"OPTSR_CUR\000"
 3442      525F4355 
 3442      5200
 3443              	.LASF138:
 3444 044a 5F5F7263 		.ascii	"__rccResetAHB1\000"
 3444      63526573 
 3444      65744148 
 3444      423100
 3445              	.LASF137:
 3446 0459 5F5F7263 		.ascii	"__rccResetAHB2\000"
 3446      63526573 
 3446      65744148 
 3446      423200
 3447              	.LASF136:
 3448 0468 5F5F7263 		.ascii	"__rccResetAHB3\000"
 3448      63526573 
 3448      65744148 
 3448      423300
 3449              	.LASF135:
 3450 0477 5F5F7263 		.ascii	"__rccResetAHB4\000"
 3450      63526573 
 3450      65744148 
 3450      423400
 3451              	.LASF108:
ARM GAS  C:\Users\DEVELO~1\AppData\Local\Temp\ccASuyx8.s 			page 65


 3452 0486 41484232 		.ascii	"AHB2LPENR\000"
 3452      4C50454E 
 3452      5200
 3453              	.LASF110:
 3454 0490 41504233 		.ascii	"APB3LPENR\000"
 3454      4C50454E 
 3454      5200
 3455              	.LASF67:
 3456 049a 504C4C43 		.ascii	"PLLCFGR\000"
 3456      46475200 
 3457              	.LASF126:
 3458 04a2 7264796D 		.ascii	"rdymask\000"
 3458      61736B00 
 3459              	.LASF117:
 3460 04aa 666C6F61 		.ascii	"float\000"
 3460      7400
 3461              	.LASF100:
 3462 04b0 41504233 		.ascii	"APB3ENR\000"
 3462      454E5200 
 3463              	.LASF120:
 3464 04b8 69727149 		.ascii	"irqInit\000"
 3464      6E697400 
 3465              	.LASF99:
 3466 04c0 41484234 		.ascii	"AHB4ENR\000"
 3466      454E5200 
 3467              	.LASF28:
 3468 04c8 52455345 		.ascii	"RESERVED0\000"
 3468      52564544 
 3468      3000
 3469              	.LASF34:
 3470 04d2 52455345 		.ascii	"RESERVED1\000"
 3470      52564544 
 3470      3100
 3471              	.LASF36:
 3472 04dc 52455345 		.ascii	"RESERVED2\000"
 3472      52564544 
 3472      3200
 3473              	.LASF38:
 3474 04e6 52455345 		.ascii	"RESERVED3\000"
 3474      52564544 
 3474      3300
 3475              	.LASF64:
 3476 04f0 44324346 		.ascii	"D2CFGR\000"
 3476      475200
 3477              	.LASF81:
 3478 04f7 52455345 		.ascii	"RESERVED5\000"
 3478      52564544 
 3478      3500
 3479              	.LASF83:
 3480 0501 52455345 		.ascii	"RESERVED6\000"
 3480      52564544 
 3480      3600
 3481              	.LASF93:
 3482 050b 52455345 		.ascii	"RESERVED8\000"
 3482      52564544 
 3482      3800
 3483              	.LASF119:
ARM GAS  C:\Users\DEVELO~1\AppData\Local\Temp\ccASuyx8.s 			page 66


 3484 0515 5F426F6F 		.ascii	"_Bool\000"
 3484      6C00
 3485              	.LASF70:
 3486 051b 504C4C32 		.ascii	"PLL2DIVR\000"
 3486      44495652 
 3486      00
 3487              	.LASF4:
 3488 0524 756E7369 		.ascii	"unsigned char\000"
 3488      676E6564 
 3488      20636861 
 3488      7200
 3489              	.LASF5:
 3490 0532 73686F72 		.ascii	"short int\000"
 3490      7420696E 
 3490      7400
 3491              	.LASF106:
 3492 053c 41484233 		.ascii	"AHB3LPENR\000"
 3492      4C50454E 
 3492      5200
 3493              	.LASF114:
 3494 0546 41504234 		.ascii	"APB4LPENR\000"
 3494      4C50454E 
 3494      5200
 3495              	.LASF33:
 3496 0550 4543435F 		.ascii	"ECC_FA1\000"
 3496      46413100 
 3497              	.LASF50:
 3498 0558 4543435F 		.ascii	"ECC_FA2\000"
 3498      46413200 
 3499              	.LASF103:
 3500 0560 41504232 		.ascii	"APB2ENR\000"
 3500      454E5200 
 3501              	.LASF96:
 3502 0568 41484233 		.ascii	"AHB3ENR\000"
 3502      454E5200 
 3503              	.LASF140:
 3504 0570 5F5F7263 		.ascii	"__rccResetAPB3\000"
 3504      63526573 
 3504      65744150 
 3504      423300
 3505              	.LASF45:
 3506 057f 52455345 		.ascii	"RESERVED4\000"
 3506      52564544 
 3506      3400
 3507              	.LASF11:
 3508 0589 75696E74 		.ascii	"uint32_t\000"
 3508      33325F74 
 3508      00
 3509              	.LASF54:
 3510 0592 44334352 		.ascii	"D3CR\000"
 3510      00
 3511              	.LASF74:
 3512 0597 44314343 		.ascii	"D1CCIPR\000"
 3512      49505200 
 3513              	.LASF121:
 3514 059f 646D6149 		.ascii	"dmaInit\000"
 3514      6E697400 
ARM GAS  C:\Users\DEVELO~1\AppData\Local\Temp\ccASuyx8.s 			page 67


 3515              	.LASF2:
 3516 05a7 6C6F6E67 		.ascii	"long double\000"
 3516      20646F75 
 3516      626C6500 
 3517              	.LASF12:
 3518 05b3 63686172 		.ascii	"char\000"
 3518      00
 3519              	.LASF18:
 3520 05b8 4F505453 		.ascii	"OPTSR_PRG\000"
 3520      525F5052 
 3520      4700
 3521              	.LASF86:
 3522 05c2 41484232 		.ascii	"AHB2RSTR\000"
 3522      52535452 
 3522      00
 3523              	.LASF35:
 3524 05cb 4B455952 		.ascii	"KEYR2\000"
 3524      3200
 3525              	.LASF109:
 3526 05d1 41484234 		.ascii	"AHB4LPENR\000"
 3526      4C50454E 
 3526      5200
 3527              	.LASF13:
 3528 05db 4B455952 		.ascii	"KEYR1\000"
 3528      3100
 3529              	.LASF82:
 3530 05e1 42444352 		.ascii	"BDCR\000"
 3530      00
 3531              	.LASF98:
 3532 05e6 41484232 		.ascii	"AHB2ENR\000"
 3532      454E5200 
 3533              	.LASF88:
 3534 05ee 41504233 		.ascii	"APB3RSTR\000"
 3534      52535452 
 3534      00
 3535              	.LASF61:
 3536 05f7 43534943 		.ascii	"CSICFGR\000"
 3536      46475200 
 3537              	.LASF85:
 3538 05ff 41484231 		.ascii	"AHB1RSTR\000"
 3538      52535452 
 3538      00
 3539              	.LASF24:
 3540 0608 5750534E 		.ascii	"WPSN_CUR1\000"
 3540      5F435552 
 3540      3100
 3541              	.LASF43:
 3542 0612 5750534E 		.ascii	"WPSN_CUR2\000"
 3542      5F435552 
 3542      3200
 3543              	.LASF111:
 3544 061c 41504231 		.ascii	"APB1LLPENR\000"
 3544      4C4C5045 
 3544      4E5200
 3545              	.LASF15:
 3546 0627 43435231 		.ascii	"CCR1\000"
 3546      00
ARM GAS  C:\Users\DEVELO~1\AppData\Local\Temp\ccASuyx8.s 			page 68


 3547              	.LASF37:
 3548 062c 43435232 		.ascii	"CCR2\000"
 3548      00
 3549              	.LASF80:
 3550 0631 43494352 		.ascii	"CICR\000"
 3550      00
 3551              	.LASF142:
 3552 0636 5F5F7263 		.ascii	"__rccResetAPB1H\000"
 3552      63526573 
 3552      65744150 
 3552      42314800 
 3553              	.LASF146:
 3554 0646 5F5F7263 		.ascii	"__rccResetAPB1L\000"
 3554      63526573 
 3554      65744150 
 3554      42314C00 
 3555              	.LASF30:
 3556 0656 43524353 		.ascii	"CRCSADD1\000"
 3556      41444431 
 3556      00
 3557              	.LASF47:
 3558 065f 43524353 		.ascii	"CRCSADD2\000"
 3558      41444432 
 3558      00
 3559              	.LASF124:
 3560 0668 63666772 		.ascii	"cfgr\000"
 3560      00
 3561              	.LASF97:
 3562 066d 41484231 		.ascii	"AHB1ENR\000"
 3562      454E5200 
 3563              	.LASF62:
 3564 0675 43464752 		.ascii	"CFGR\000"
 3564      00
 3565              	.LASF101:
 3566 067a 41504231 		.ascii	"APB1LENR\000"
 3566      4C454E52 
 3566      00
 3567              	.LASF52:
 3568 0683 43535231 		.ascii	"CSR1\000"
 3568      00
 3569              	.LASF118:
 3570 0688 646F7562 		.ascii	"double\000"
 3570      6C6500
 3571              	.LASF122:
 3572 068f 62646D61 		.ascii	"bdmaInit\000"
 3572      496E6974 
 3572      00
 3573              	.LASF63:
 3574 0698 44314346 		.ascii	"D1CFGR\000"
 3574      475200
 3575              		.ident	"GCC: (Arm GNU Toolchain 11.3.Rel1) 11.3.1 20220712"
ARM GAS  C:\Users\DEVELO~1\AppData\Local\Temp\ccASuyx8.s 			page 69


DEFINED SYMBOLS
                            *ABS*:00000000 hal_lld.c
C:\Users\DEVELO~1\AppData\Local\Temp\ccASuyx8.s:18     .text.hal_lld_init:00000000 $t
C:\Users\DEVELO~1\AppData\Local\Temp\ccASuyx8.s:25     .text.hal_lld_init:00000000 hal_lld_init
C:\Users\DEVELO~1\AppData\Local\Temp\ccASuyx8.s:269    .text.hal_lld_init:000000d4 $d
C:\Users\DEVELO~1\AppData\Local\Temp\ccASuyx8.s:277    .text.stm32_clock_init:00000000 $t
C:\Users\DEVELO~1\AppData\Local\Temp\ccASuyx8.s:284    .text.stm32_clock_init:00000000 stm32_clock_init
C:\Users\DEVELO~1\AppData\Local\Temp\ccASuyx8.s:794    .text.stm32_clock_init:000001c0 $d
C:\Users\DEVELO~1\AppData\Local\Temp\ccASuyx8.s:815    .data.SystemCoreClock:00000000 SystemCoreClock
C:\Users\DEVELO~1\AppData\Local\Temp\ccASuyx8.s:812    .data.SystemCoreClock:00000000 $d

UNDEFINED SYMBOLS
bdmaInit
dmaInit
irqInit
