ARM GAS  C:\Users\DEVELO~1\AppData\Local\Temp\cc2saCCQ.s 			page 1


   1              		.cpu cortex-m7
   2              		.arch armv7e-m
   3              		.fpu softvfp
   4              		.eabi_attribute 20, 1
   5              		.eabi_attribute 21, 1
   6              		.eabi_attribute 23, 3
   7              		.eabi_attribute 24, 1
   8              		.eabi_attribute 25, 1
   9              		.eabi_attribute 26, 1
  10              		.eabi_attribute 30, 2
  11              		.eabi_attribute 34, 1
  12              		.eabi_attribute 18, 4
  13              		.file	"hal_spi_v2_lld.c"
  14              		.text
  15              	.Ltext0:
  16              		.cfi_sections	.debug_frame
  17              		.section	.text.spi_lld_configure.isra.0,"ax",%progbits
  18              		.align	1
  19              		.p2align 4,,15
  20              		.syntax unified
  21              		.thumb
  22              		.thumb_func
  23              		.type	spi_lld_configure.isra.0, %function
  24              	spi_lld_configure.isra.0:
  25              	.LFB461:
  26              		.file 1 "../../../os/hal/ports/STM32/LLD/SPIv3/hal_spi_v2_lld.c"
  27              		.loc 1 75 13 view -0
  28              		.cfi_startproc
  29              		@ args = 0, pretend = 0, frame = 0
  30              		@ frame_needed = 0, uses_anonymous_args = 0
  31              		@ link register save eliminated.
  32              	.LVL0:
  33              		.loc 1 78 3 view .LVU1
  34              		.loc 1 78 19 is_stmt 0 view .LVU2
  35 0000 0022     		movs	r2, #0
  36              		.loc 1 83 38 view .LVU3
  37 0002 124B     		ldr	r3, .L6
  38              		.loc 1 78 19 view .LVU4
  39 0004 0A60     		str	r2, [r1]
  40              		.loc 1 79 3 is_stmt 1 view .LVU5
  41              		.loc 1 79 19 is_stmt 0 view .LVU6
  42 0006 4A60     		str	r2, [r1, #4]
  43              		.loc 1 80 3 is_stmt 1 view .LVU7
  44              		.loc 1 83 38 is_stmt 0 view .LVU8
  45 0008 4269     		ldr	r2, [r0, #20]
  46              		.loc 1 75 13 view .LVU9
  47 000a 10B4     		push	{r4}
  48              		.cfi_def_cfa_offset 4
  49              		.cfi_offset 4, -4
  50              		.loc 1 83 38 view .LVU10
  51 000c 1340     		ands	r3, r3, r2
  52              		.loc 1 80 19 view .LVU11
  53 000e 4024     		movs	r4, #64
  54              		.loc 1 84 6 view .LVU12
  55 0010 4278     		ldrb	r2, [r0, #1]	@ zero_extendqisi2
  56              		.loc 1 80 19 view .LVU13
  57 0012 0C61     		str	r4, [r1, #16]
ARM GAS  C:\Users\DEVELO~1\AppData\Local\Temp\cc2saCCQ.s 			page 2


  58              		.loc 1 81 3 is_stmt 1 view .LVU14
  59              		.loc 1 83 38 is_stmt 0 view .LVU15
  60 0014 43F44043 		orr	r3, r3, #49152
  61              		.loc 1 81 19 view .LVU16
  62 0018 4FF0FF34 		mov	r4, #-1
  63 001c 8C61     		str	r4, [r1, #24]
  64              		.loc 1 82 3 is_stmt 1 view .LVU17
  65              		.loc 1 82 19 is_stmt 0 view .LVU18
  66 001e 8B60     		str	r3, [r1, #8]
  67              		.loc 1 84 3 is_stmt 1 view .LVU19
  68              		.loc 1 84 6 is_stmt 0 view .LVU20
  69 0020 42B1     		cbz	r2, .L2
  70              		.loc 1 85 5 is_stmt 1 view .LVU21
  71              		.loc 1 85 42 is_stmt 0 view .LVU22
  72 0022 8369     		ldr	r3, [r0, #24]
  73              		.loc 1 92 1 view .LVU23
  74 0024 10BC     		pop	{r4}
  75              		.cfi_remember_state
  76              		.cfi_restore 4
  77              		.cfi_def_cfa_offset 0
  78              		.loc 1 85 42 view .LVU24
  79 0026 23F4C023 		bic	r3, r3, #393216
  80              		.loc 1 85 21 view .LVU25
  81 002a CB60     		str	r3, [r1, #12]
  82              		.loc 1 91 3 is_stmt 1 view .LVU26
  83              		.loc 1 91 19 is_stmt 0 view .LVU27
  84 002c 40F20113 		movw	r3, #257
  85 0030 0B60     		str	r3, [r1]
  86              		.loc 1 92 1 view .LVU28
  87 0032 7047     		bx	lr
  88              	.L2:
  89              		.cfi_restore_state
  90              		.loc 1 88 5 is_stmt 1 view .LVU29
  91              		.loc 1 88 78 is_stmt 0 view .LVU30
  92 0034 8269     		ldr	r2, [r0, #24]
  93 0036 064B     		ldr	r3, .L6+4
  94              		.loc 1 92 1 view .LVU31
  95 0038 10BC     		pop	{r4}
  96              		.cfi_restore 4
  97              		.cfi_def_cfa_offset 0
  98              		.loc 1 88 78 view .LVU32
  99 003a 1340     		ands	r3, r3, r2
 100 003c 43F00153 		orr	r3, r3, #541065216
 101              		.loc 1 88 21 view .LVU33
 102 0040 CB60     		str	r3, [r1, #12]
 103              		.loc 1 91 3 is_stmt 1 view .LVU34
 104              		.loc 1 91 19 is_stmt 0 view .LVU35
 105 0042 40F20113 		movw	r3, #257
 106 0046 0B60     		str	r3, [r1]
 107              		.loc 1 92 1 view .LVU36
 108 0048 7047     		bx	lr
 109              	.L7:
 110 004a 00BF     		.align	2
 111              	.L6:
 112 004c 1F3EFFFF 		.word	-49633
 113 0050 FFFFB9DF 		.word	-541458433
 114              		.cfi_endproc
ARM GAS  C:\Users\DEVELO~1\AppData\Local\Temp\cc2saCCQ.s 			page 3


 115              	.LFE461:
 116              		.size	spi_lld_configure.isra.0, .-spi_lld_configure.isra.0
 117              		.section	.text.spi_lld_stop_abort,"ax",%progbits
 118              		.align	1
 119              		.p2align 4,,15
 120              		.syntax unified
 121              		.thumb
 122              		.thumb_func
 123              		.type	spi_lld_stop_abort, %function
 124              	spi_lld_stop_abort:
 125              	.LVL1:
 126              	.LFB434:
 127              		.loc 1 114 49 is_stmt 1 view -0
 128              		.cfi_startproc
 129              		@ args = 0, pretend = 0, frame = 0
 130              		@ frame_needed = 0, uses_anonymous_args = 0
 131              		@ link register save eliminated.
 132              		.loc 1 118 3 view .LVU38
 133              		.loc 1 118 6 is_stmt 0 view .LVU39
 134 0000 90F82030 		ldrb	r3, [r0, #32]	@ zero_extendqisi2
 135              		.loc 1 114 49 view .LVU40
 136 0004 10B4     		push	{r4}
 137              		.cfi_def_cfa_offset 4
 138              		.cfi_offset 4, -4
 139              		.loc 1 118 6 view .LVU41
 140 0006 002B     		cmp	r3, #0
 141 0008 34D0     		beq	.L9
 142              		.loc 1 122 5 is_stmt 1 view .LVU42
 143 000a 836A     		ldr	r3, [r0, #40]
 144 000c D3E90041 		ldrd	r4, r1, [r3]
 145 0010 0A68     		ldr	r2, [r1]
 146 0012 22F00F02 		bic	r2, r2, #15
 147 0016 0A60     		str	r2, [r1]
 148              		.loc 1 122 5 view .LVU43
 149 0018 197A     		ldrb	r1, [r3, #8]	@ zero_extendqisi2
 150 001a 0E23     		movs	r3, #14
 151              		.loc 1 123 5 is_stmt 0 view .LVU44
 152 001c 426A     		ldr	r2, [r0, #36]
 153              		.loc 1 122 5 view .LVU45
 154 001e 03FA01F1 		lsl	r1, r3, r1
 155 0022 6160     		str	r1, [r4, #4]
 156              		.loc 1 122 5 is_stmt 1 view .LVU46
 157              		.loc 1 122 37 view .LVU47
 158              		.loc 1 123 5 view .LVU48
 159 0024 5468     		ldr	r4, [r2, #4]
 160 0026 2168     		ldr	r1, [r4]
 161 0028 21F00F01 		bic	r1, r1, #15
 162 002c 2160     		str	r1, [r4]
 163              		.loc 1 123 5 view .LVU49
 164 002e 117A     		ldrb	r1, [r2, #8]	@ zero_extendqisi2
 165 0030 1268     		ldr	r2, [r2]
 166 0032 8B40     		lsls	r3, r3, r1
 167 0034 5360     		str	r3, [r2, #4]
 168              		.loc 1 123 5 view .LVU50
 169              		.loc 1 123 37 view .LVU51
 170              		.loc 1 132 5 view .LVU52
 171              		.loc 1 132 35 view .LVU53
ARM GAS  C:\Users\DEVELO~1\AppData\Local\Temp\cc2saCCQ.s 			page 4


 172              		.loc 1 138 3 view .LVU54
 173              		.loc 1 142 8 view .LVU55
 174              		.loc 1 142 11 is_stmt 0 view .LVU56
 175 0036 474B     		ldr	r3, .L25
 176 0038 9842     		cmp	r0, r3
 177 003a 3AD0     		beq	.L21
 178              	.L13:
 179              		.loc 1 148 8 is_stmt 1 view .LVU57
 180              		.loc 1 148 11 is_stmt 0 view .LVU58
 181 003c 464B     		ldr	r3, .L25+4
 182 003e 9842     		cmp	r0, r3
 183 0040 4BD0     		beq	.L22
 184              		.loc 1 154 8 is_stmt 1 view .LVU59
 185              		.loc 1 154 11 is_stmt 0 view .LVU60
 186 0042 464B     		ldr	r3, .L25+8
 187 0044 9842     		cmp	r0, r3
 188 0046 5CD0     		beq	.L23
 189              		.loc 1 166 8 is_stmt 1 view .LVU61
 190              		.loc 1 166 11 is_stmt 0 view .LVU62
 191 0048 454B     		ldr	r3, .L25+12
 192 004a 9842     		cmp	r0, r3
 193 004c 6DD0     		beq	.L24
 194              		.loc 1 172 8 is_stmt 1 view .LVU63
 195              		.loc 1 172 11 is_stmt 0 view .LVU64
 196 004e 454B     		ldr	r3, .L25+16
 197 0050 9842     		cmp	r0, r3
 198 0052 51D1     		bne	.L14
 199              		.loc 1 173 5 is_stmt 1 view .LVU65
 200              	.LVL2:
 201              	.LBB271:
 202              	.LBI271:
 203              		.file 2 "../../../os/hal/ports/STM32/STM32H7xx/stm32_rcc.h"
 204              		.loc 2 563 22 view .LVU66
 205              	.LBB272:
 206              		.loc 2 575 3 view .LVU67
 207              	.LBB273:
 208              	.LBI273:
 209              		.loc 2 89 22 view .LVU68
 210              	.LBB274:
 211              		.loc 2 92 3 view .LVU69
 212              		.loc 2 92 17 is_stmt 0 view .LVU70
 213 0054 444B     		ldr	r3, .L25+20
 214 0056 D3F89C20 		ldr	r2, [r3, #156]
 215 005a 42F02002 		orr	r2, r2, #32
 216 005e C3F89C20 		str	r2, [r3, #156]
 217              		.loc 2 93 3 is_stmt 1 view .LVU71
 218              		.loc 2 93 17 is_stmt 0 view .LVU72
 219 0062 D3F89C20 		ldr	r2, [r3, #156]
 220 0066 22F02002 		bic	r2, r2, #32
 221 006a C3F89C20 		str	r2, [r3, #156]
 222              		.loc 2 94 3 is_stmt 1 view .LVU73
 223 006e D3F89C30 		ldr	r3, [r3, #156]
 224              	.LVL3:
 225              		.loc 2 94 3 is_stmt 0 view .LVU74
 226              	.LBE274:
 227              	.LBE273:
 228              		.loc 2 576 1 view .LVU75
ARM GAS  C:\Users\DEVELO~1\AppData\Local\Temp\cc2saCCQ.s 			page 5


 229 0072 41E0     		b	.L14
 230              	.LVL4:
 231              	.L9:
 232              		.loc 2 576 1 view .LVU76
 233              	.LBE272:
 234              	.LBE271:
 235              		.loc 1 131 5 is_stmt 1 view .LVU77
 236 0074 846A     		ldr	r4, [r0, #40]
 237 0076 2268     		ldr	r2, [r4]
 238 0078 1368     		ldr	r3, [r2]
 239 007a 23F01F03 		bic	r3, r3, #31
 240 007e 1360     		str	r3, [r2]
 241              		.loc 1 131 5 view .LVU78
 242              	.L11:
 243              		.loc 1 131 5 discriminator 2 view .LVU79
 244 0080 1368     		ldr	r3, [r2]
 245 0082 D907     		lsls	r1, r3, #31
 246 0084 FCD4     		bmi	.L11
 247              		.loc 1 131 5 discriminator 3 view .LVU80
 248 0086 227B     		ldrb	r2, [r4, #12]	@ zero_extendqisi2
 249 0088 3D23     		movs	r3, #61
 250              		.loc 1 132 5 is_stmt 0 discriminator 3 view .LVU81
 251 008a 416A     		ldr	r1, [r0, #36]
 252              		.loc 1 131 5 discriminator 3 view .LVU82
 253 008c 9340     		lsls	r3, r3, r2
 254 008e 6468     		ldr	r4, [r4, #4]
 255              		.loc 1 132 5 discriminator 3 view .LVU83
 256 0090 0A68     		ldr	r2, [r1]
 257              		.loc 1 131 5 discriminator 3 view .LVU84
 258 0092 2360     		str	r3, [r4]
 259              		.loc 1 131 5 is_stmt 1 discriminator 3 view .LVU85
 260              		.loc 1 131 35 discriminator 3 view .LVU86
 261              		.loc 1 132 5 discriminator 3 view .LVU87
 262 0094 1368     		ldr	r3, [r2]
 263 0096 23F01F03 		bic	r3, r3, #31
 264 009a 1360     		str	r3, [r2]
 265              		.loc 1 132 5 discriminator 3 view .LVU88
 266              	.L12:
 267              		.loc 1 132 5 discriminator 2 view .LVU89
 268 009c 1368     		ldr	r3, [r2]
 269 009e DB07     		lsls	r3, r3, #31
 270 00a0 FCD4     		bmi	.L12
 271              		.loc 1 132 5 discriminator 3 view .LVU90
 272 00a2 0C7B     		ldrb	r4, [r1, #12]	@ zero_extendqisi2
 273 00a4 3D23     		movs	r3, #61
 274 00a6 4A68     		ldr	r2, [r1, #4]
 275 00a8 A340     		lsls	r3, r3, r4
 276 00aa 1360     		str	r3, [r2]
 277              		.loc 1 132 5 discriminator 3 view .LVU91
 278              		.loc 1 132 35 discriminator 3 view .LVU92
 279              		.loc 1 138 3 discriminator 3 view .LVU93
 280              		.loc 1 142 8 discriminator 3 view .LVU94
 281              		.loc 1 142 11 is_stmt 0 discriminator 3 view .LVU95
 282 00ac 294B     		ldr	r3, .L25
 283 00ae 9842     		cmp	r0, r3
 284 00b0 C4D1     		bne	.L13
 285              	.L21:
ARM GAS  C:\Users\DEVELO~1\AppData\Local\Temp\cc2saCCQ.s 			page 6


 286              		.loc 1 143 5 is_stmt 1 view .LVU96
 287              	.LVL5:
 288              	.LBB275:
 289              	.LBI275:
 290              		.loc 2 385 22 view .LVU97
 291              	.LBB276:
 292              		.loc 2 397 3 view .LVU98
 293              	.LBB277:
 294              	.LBI277:
 295              		.loc 2 73 22 view .LVU99
 296              	.LBB278:
 297              		.loc 2 76 3 view .LVU100
 298              		.loc 2 76 17 is_stmt 0 view .LVU101
 299 00b2 2D4B     		ldr	r3, .L25+20
 300              	.LBE278:
 301              	.LBE277:
 302              	.LBE276:
 303              	.LBE275:
 304              		.loc 1 182 3 view .LVU102
 305 00b4 C169     		ldr	r1, [r0, #28]
 306              	.LBB288:
 307              	.LBB285:
 308              	.LBB282:
 309              	.LBB279:
 310              		.loc 2 76 17 view .LVU103
 311 00b6 D3F89820 		ldr	r2, [r3, #152]
 312              	.LBE279:
 313              	.LBE282:
 314              	.LBE285:
 315              	.LBE288:
 316              		.loc 1 182 3 view .LVU104
 317 00ba 4068     		ldr	r0, [r0, #4]
 318              	.LVL6:
 319              	.LBB289:
 320              	.LBB286:
 321              	.LBB283:
 322              	.LBB280:
 323              		.loc 2 76 17 view .LVU105
 324 00bc 42F48052 		orr	r2, r2, #4096
 325              	.LBE280:
 326              	.LBE283:
 327              	.LBE286:
 328              	.LBE289:
 329              		.loc 1 183 1 view .LVU106
 330 00c0 10BC     		pop	{r4}
 331              		.cfi_remember_state
 332              		.cfi_restore 4
 333              		.cfi_def_cfa_offset 0
 334              	.LBB290:
 335              	.LBB287:
 336              	.LBB284:
 337              	.LBB281:
 338              		.loc 2 76 17 view .LVU107
 339 00c2 C3F89820 		str	r2, [r3, #152]
 340              		.loc 2 77 3 is_stmt 1 view .LVU108
 341              		.loc 2 77 17 is_stmt 0 view .LVU109
 342 00c6 D3F89820 		ldr	r2, [r3, #152]
ARM GAS  C:\Users\DEVELO~1\AppData\Local\Temp\cc2saCCQ.s 			page 7


 343 00ca 22F48052 		bic	r2, r2, #4096
 344 00ce C3F89820 		str	r2, [r3, #152]
 345              		.loc 2 78 3 is_stmt 1 view .LVU110
 346 00d2 D3F89830 		ldr	r3, [r3, #152]
 347              	.LVL7:
 348              		.loc 2 78 3 is_stmt 0 view .LVU111
 349              	.LBE281:
 350              	.LBE284:
 351              	.LBE287:
 352              	.LBE290:
 353              		.loc 1 178 5 is_stmt 1 view .LVU112
 354              		.loc 1 182 3 view .LVU113
 355 00d6 FFF7FEBF 		b	spi_lld_configure.isra.0
 356              	.LVL8:
 357              	.L22:
 358              		.cfi_restore_state
 359              		.loc 1 149 5 view .LVU114
 360              	.LBB291:
 361              	.LBI291:
 362              		.loc 2 207 22 view .LVU115
 363              	.LBB292:
 364              		.loc 2 219 3 view .LVU116
 365              	.LBB293:
 366              	.LBI293:
 367              		.loc 2 57 22 view .LVU117
 368              	.LBB294:
 369              		.loc 2 60 3 view .LVU118
 370              		.loc 2 60 18 is_stmt 0 view .LVU119
 371 00da 234B     		ldr	r3, .L25+20
 372 00dc D3F89020 		ldr	r2, [r3, #144]
 373 00e0 42F48042 		orr	r2, r2, #16384
 374 00e4 C3F89020 		str	r2, [r3, #144]
 375              		.loc 2 61 3 is_stmt 1 view .LVU120
 376              		.loc 2 61 18 is_stmt 0 view .LVU121
 377 00e8 D3F89020 		ldr	r2, [r3, #144]
 378 00ec 22F48042 		bic	r2, r2, #16384
 379 00f0 C3F89020 		str	r2, [r3, #144]
 380              		.loc 2 62 3 is_stmt 1 view .LVU122
 381 00f4 D3F89030 		ldr	r3, [r3, #144]
 382              	.LVL9:
 383              	.L14:
 384              		.loc 2 62 3 is_stmt 0 view .LVU123
 385              	.LBE294:
 386              	.LBE293:
 387              	.LBE292:
 388              	.LBE291:
 389              		.loc 1 178 5 is_stmt 1 discriminator 5 view .LVU124
 390              		.loc 1 182 3 discriminator 5 view .LVU125
 391 00f8 C169     		ldr	r1, [r0, #28]
 392              		.loc 1 183 1 is_stmt 0 discriminator 5 view .LVU126
 393 00fa 10BC     		pop	{r4}
 394              		.cfi_remember_state
 395              		.cfi_restore 4
 396              		.cfi_def_cfa_offset 0
 397              		.loc 1 182 3 discriminator 5 view .LVU127
 398 00fc 4068     		ldr	r0, [r0, #4]
 399              	.LVL10:
ARM GAS  C:\Users\DEVELO~1\AppData\Local\Temp\cc2saCCQ.s 			page 8


 400              		.loc 1 182 3 discriminator 5 view .LVU128
 401 00fe FFF7FEBF 		b	spi_lld_configure.isra.0
 402              	.LVL11:
 403              	.L23:
 404              		.cfi_restore_state
 405              		.loc 1 155 5 is_stmt 1 view .LVU129
 406              	.LBB295:
 407              	.LBI295:
 408              		.loc 2 207 22 view .LVU130
 409              	.LBB296:
 410              		.loc 2 219 3 view .LVU131
 411              	.LBB297:
 412              	.LBI297:
 413              		.loc 2 57 22 view .LVU132
 414              	.LBB298:
 415              		.loc 2 60 3 view .LVU133
 416              		.loc 2 60 18 is_stmt 0 view .LVU134
 417 0102 194B     		ldr	r3, .L25+20
 418              	.LBE298:
 419              	.LBE297:
 420              	.LBE296:
 421              	.LBE295:
 422              		.loc 1 182 3 view .LVU135
 423 0104 C169     		ldr	r1, [r0, #28]
 424              	.LBB308:
 425              	.LBB305:
 426              	.LBB302:
 427              	.LBB299:
 428              		.loc 2 60 18 view .LVU136
 429 0106 D3F89020 		ldr	r2, [r3, #144]
 430              	.LBE299:
 431              	.LBE302:
 432              	.LBE305:
 433              	.LBE308:
 434              		.loc 1 182 3 view .LVU137
 435 010a 4068     		ldr	r0, [r0, #4]
 436              	.LVL12:
 437              	.LBB309:
 438              	.LBB306:
 439              	.LBB303:
 440              	.LBB300:
 441              		.loc 2 60 18 view .LVU138
 442 010c 42F40042 		orr	r2, r2, #32768
 443              	.LBE300:
 444              	.LBE303:
 445              	.LBE306:
 446              	.LBE309:
 447              		.loc 1 183 1 view .LVU139
 448 0110 10BC     		pop	{r4}
 449              		.cfi_remember_state
 450              		.cfi_restore 4
 451              		.cfi_def_cfa_offset 0
 452              	.LBB310:
 453              	.LBB307:
 454              	.LBB304:
 455              	.LBB301:
 456              		.loc 2 60 18 view .LVU140
ARM GAS  C:\Users\DEVELO~1\AppData\Local\Temp\cc2saCCQ.s 			page 9


 457 0112 C3F89020 		str	r2, [r3, #144]
 458              		.loc 2 61 3 is_stmt 1 view .LVU141
 459              		.loc 2 61 18 is_stmt 0 view .LVU142
 460 0116 D3F89020 		ldr	r2, [r3, #144]
 461 011a 22F40042 		bic	r2, r2, #32768
 462 011e C3F89020 		str	r2, [r3, #144]
 463              		.loc 2 62 3 is_stmt 1 view .LVU143
 464 0122 D3F89030 		ldr	r3, [r3, #144]
 465              	.LVL13:
 466              		.loc 2 62 3 is_stmt 0 view .LVU144
 467              	.LBE301:
 468              	.LBE304:
 469              	.LBE307:
 470              	.LBE310:
 471              		.loc 1 178 5 is_stmt 1 view .LVU145
 472              		.loc 1 182 3 view .LVU146
 473 0126 FFF7FEBF 		b	spi_lld_configure.isra.0
 474              	.LVL14:
 475              	.L24:
 476              		.cfi_restore_state
 477              		.loc 1 167 5 view .LVU147
 478              	.LBB311:
 479              	.LBI311:
 480              		.loc 2 385 22 view .LVU148
 481              	.LBB312:
 482              		.loc 2 397 3 view .LVU149
 483              	.LBB313:
 484              	.LBI313:
 485              		.loc 2 73 22 view .LVU150
 486              	.LBB314:
 487              		.loc 2 76 3 view .LVU151
 488              		.loc 2 76 17 is_stmt 0 view .LVU152
 489 012a 0F4B     		ldr	r3, .L25+20
 490              	.LBE314:
 491              	.LBE313:
 492              	.LBE312:
 493              	.LBE311:
 494              		.loc 1 182 3 view .LVU153
 495 012c C169     		ldr	r1, [r0, #28]
 496              	.LBB324:
 497              	.LBB321:
 498              	.LBB318:
 499              	.LBB315:
 500              		.loc 2 76 17 view .LVU154
 501 012e D3F89820 		ldr	r2, [r3, #152]
 502              	.LBE315:
 503              	.LBE318:
 504              	.LBE321:
 505              	.LBE324:
 506              		.loc 1 182 3 view .LVU155
 507 0132 4068     		ldr	r0, [r0, #4]
 508              	.LVL15:
 509              	.LBB325:
 510              	.LBB322:
 511              	.LBB319:
 512              	.LBB316:
 513              		.loc 2 76 17 view .LVU156
ARM GAS  C:\Users\DEVELO~1\AppData\Local\Temp\cc2saCCQ.s 			page 10


 514 0134 42F48012 		orr	r2, r2, #1048576
 515              	.LBE316:
 516              	.LBE319:
 517              	.LBE322:
 518              	.LBE325:
 519              		.loc 1 183 1 view .LVU157
 520 0138 10BC     		pop	{r4}
 521              		.cfi_restore 4
 522              		.cfi_def_cfa_offset 0
 523              	.LBB326:
 524              	.LBB323:
 525              	.LBB320:
 526              	.LBB317:
 527              		.loc 2 76 17 view .LVU158
 528 013a C3F89820 		str	r2, [r3, #152]
 529              		.loc 2 77 3 is_stmt 1 view .LVU159
 530              		.loc 2 77 17 is_stmt 0 view .LVU160
 531 013e D3F89820 		ldr	r2, [r3, #152]
 532 0142 22F48012 		bic	r2, r2, #1048576
 533 0146 C3F89820 		str	r2, [r3, #152]
 534              		.loc 2 78 3 is_stmt 1 view .LVU161
 535 014a D3F89830 		ldr	r3, [r3, #152]
 536              	.LVL16:
 537              		.loc 2 78 3 is_stmt 0 view .LVU162
 538              	.LBE317:
 539              	.LBE320:
 540              	.LBE323:
 541              	.LBE326:
 542              		.loc 1 178 5 is_stmt 1 view .LVU163
 543              		.loc 1 182 3 view .LVU164
 544 014e FFF7FEBF 		b	spi_lld_configure.isra.0
 545              	.LVL17:
 546              	.L26:
 547 0152 00BF     		.align	2
 548              	.L25:
 549 0154 00000000 		.word	.LANCHOR0
 550 0158 00000000 		.word	.LANCHOR1
 551 015c 00000000 		.word	.LANCHOR2
 552 0160 00000000 		.word	.LANCHOR3
 553 0164 00000000 		.word	.LANCHOR4
 554 0168 00440258 		.word	1476543488
 555              		.cfi_endproc
 556              	.LFE434:
 557              		.size	spi_lld_stop_abort, .-spi_lld_stop_abort
 558              		.section	.text.spi_lld_stop_nicely,"ax",%progbits
 559              		.align	1
 560              		.p2align 4,,15
 561              		.syntax unified
 562              		.thumb
 563              		.thumb_func
 564              		.type	spi_lld_stop_nicely, %function
 565              	spi_lld_stop_nicely:
 566              	.LVL18:
 567              	.LFB435:
 568              		.loc 1 190 51 view -0
 569              		.cfi_startproc
 570              		@ args = 0, pretend = 0, frame = 0
ARM GAS  C:\Users\DEVELO~1\AppData\Local\Temp\cc2saCCQ.s 			page 11


 571              		@ frame_needed = 0, uses_anonymous_args = 0
 572              		.loc 1 192 3 view .LVU166
 573              		.loc 1 192 19 is_stmt 0 view .LVU167
 574 0000 4368     		ldr	r3, [r0, #4]
 575              		.loc 1 192 6 view .LVU168
 576 0002 5B78     		ldrb	r3, [r3, #1]	@ zero_extendqisi2
 577              		.loc 1 190 51 view .LVU169
 578 0004 10B5     		push	{r4, lr}
 579              		.cfi_def_cfa_offset 8
 580              		.cfi_offset 4, -8
 581              		.cfi_offset 14, -4
 582              		.loc 1 192 6 view .LVU170
 583 0006 002B     		cmp	r3, #0
 584 0008 50D1     		bne	.L43
 585              		.loc 1 201 3 is_stmt 1 view .LVU171
 586              		.loc 1 201 6 is_stmt 0 view .LVU172
 587 000a 90F82030 		ldrb	r3, [r0, #32]	@ zero_extendqisi2
 588 000e 0146     		mov	r1, r0
 589 0010 DBB1     		cbz	r3, .L30
 590              		.loc 1 205 5 is_stmt 1 view .LVU173
 591 0012 836A     		ldr	r3, [r0, #40]
 592 0014 D3E90040 		ldrd	r4, r0, [r3]
 593              	.LVL19:
 594              		.loc 1 205 5 is_stmt 0 view .LVU174
 595 0018 0268     		ldr	r2, [r0]
 596 001a 22F00F02 		bic	r2, r2, #15
 597 001e 0260     		str	r2, [r0]
 598              		.loc 1 205 5 is_stmt 1 view .LVU175
 599 0020 0E22     		movs	r2, #14
 600 0022 187A     		ldrb	r0, [r3, #8]	@ zero_extendqisi2
 601              		.loc 1 208 17 is_stmt 0 view .LVU176
 602 0024 CB69     		ldr	r3, [r1, #28]
 603              		.loc 1 205 5 view .LVU177
 604 0026 8240     		lsls	r2, r2, r0
 605 0028 6260     		str	r2, [r4, #4]
 606              		.loc 1 205 5 is_stmt 1 view .LVU178
 607              		.loc 1 205 37 view .LVU179
 608              		.loc 1 208 5 view .LVU180
 609              	.L31:
 610              		.loc 1 210 5 discriminator 1 view .LVU181
 611              		.loc 1 208 61 discriminator 1 view .LVU182
 612              		.loc 1 208 22 is_stmt 0 discriminator 1 view .LVU183
 613 002a 5A69     		ldr	r2, [r3, #20]
 614              		.loc 1 208 61 discriminator 1 view .LVU184
 615 002c 12F4604F 		tst	r2, #57344
 616 0030 FBD1     		bne	.L31
 617              		.loc 1 212 5 is_stmt 1 view .LVU185
 618 0032 496A     		ldr	r1, [r1, #36]
 619              	.LVL20:
 620              		.loc 1 212 5 is_stmt 0 view .LVU186
 621 0034 D1E90040 		ldrd	r4, r0, [r1]
 622 0038 0268     		ldr	r2, [r0]
 623 003a 22F00F02 		bic	r2, r2, #15
 624 003e 0260     		str	r2, [r0]
 625              		.loc 1 212 5 is_stmt 1 view .LVU187
 626 0040 0E22     		movs	r2, #14
 627 0042 097A     		ldrb	r1, [r1, #8]	@ zero_extendqisi2
ARM GAS  C:\Users\DEVELO~1\AppData\Local\Temp\cc2saCCQ.s 			page 12


 628 0044 8A40     		lsls	r2, r2, r1
 629 0046 6260     		str	r2, [r4, #4]
 630              		.loc 1 212 5 view .LVU188
 631              		.loc 1 212 37 view .LVU189
 632 0048 24E0     		b	.L32
 633              	.LVL21:
 634              	.L30:
 635              		.loc 1 220 5 view .LVU190
 636 004a 806A     		ldr	r0, [r0, #40]
 637              	.LVL22:
 638              		.loc 1 220 5 is_stmt 0 view .LVU191
 639 004c 0268     		ldr	r2, [r0]
 640 004e 1368     		ldr	r3, [r2]
 641 0050 23F01F03 		bic	r3, r3, #31
 642 0054 1360     		str	r3, [r2]
 643              		.loc 1 220 5 is_stmt 1 view .LVU192
 644              	.L33:
 645              		.loc 1 220 5 discriminator 2 view .LVU193
 646 0056 1368     		ldr	r3, [r2]
 647 0058 DB07     		lsls	r3, r3, #31
 648 005a FCD4     		bmi	.L33
 649              		.loc 1 220 5 discriminator 3 view .LVU194
 650 005c 90F80CC0 		ldrb	ip, [r0, #12]	@ zero_extendqisi2
 651 0060 3D22     		movs	r2, #61
 652 0062 4068     		ldr	r0, [r0, #4]
 653 0064 02FA0CF2 		lsl	r2, r2, ip
 654              		.loc 1 223 17 is_stmt 0 discriminator 3 view .LVU195
 655 0068 CB69     		ldr	r3, [r1, #28]
 656              		.loc 1 220 5 discriminator 3 view .LVU196
 657 006a 0260     		str	r2, [r0]
 658              		.loc 1 220 5 is_stmt 1 discriminator 3 view .LVU197
 659              		.loc 1 220 35 discriminator 3 view .LVU198
 660              		.loc 1 223 5 discriminator 3 view .LVU199
 661              	.L34:
 662              		.loc 1 225 5 discriminator 1 view .LVU200
 663              		.loc 1 223 61 discriminator 1 view .LVU201
 664              		.loc 1 223 22 is_stmt 0 discriminator 1 view .LVU202
 665 006c 5A69     		ldr	r2, [r3, #20]
 666              		.loc 1 223 61 discriminator 1 view .LVU203
 667 006e 12F4604F 		tst	r2, #57344
 668 0072 FBD1     		bne	.L34
 669              		.loc 1 227 5 is_stmt 1 view .LVU204
 670 0074 486A     		ldr	r0, [r1, #36]
 671 0076 0168     		ldr	r1, [r0]
 672              	.LVL23:
 673              		.loc 1 227 5 is_stmt 0 view .LVU205
 674 0078 0A68     		ldr	r2, [r1]
 675 007a 22F01F02 		bic	r2, r2, #31
 676 007e 0A60     		str	r2, [r1]
 677              		.loc 1 227 5 is_stmt 1 view .LVU206
 678              	.L35:
 679              		.loc 1 227 5 discriminator 2 view .LVU207
 680 0080 0A68     		ldr	r2, [r1]
 681 0082 D407     		lsls	r4, r2, #31
 682 0084 FCD4     		bmi	.L35
 683              		.loc 1 227 5 discriminator 3 view .LVU208
 684 0086 90F80CC0 		ldrb	ip, [r0, #12]	@ zero_extendqisi2
ARM GAS  C:\Users\DEVELO~1\AppData\Local\Temp\cc2saCCQ.s 			page 13


 685 008a 3D22     		movs	r2, #61
 686 008c 4168     		ldr	r1, [r0, #4]
 687 008e 02FA0CF2 		lsl	r2, r2, ip
 688 0092 0A60     		str	r2, [r1]
 689              	.L32:
 690              		.loc 1 227 5 discriminator 4 view .LVU209
 691              		.loc 1 227 35 discriminator 4 view .LVU210
 692              		.loc 1 232 3 discriminator 4 view .LVU211
 693              	.LBB329:
 694              	.LBI329:
 695              		.loc 1 101 13 discriminator 4 view .LVU212
 696              	.LVL24:
 697              	.LBB330:
 698              		.loc 1 103 3 discriminator 4 view .LVU213
 699              		.loc 1 104 5 discriminator 4 view .LVU214
 700              		.loc 1 104 20 is_stmt 0 discriminator 4 view .LVU215
 701 0094 1A68     		ldr	r2, [r3]
 702 0096 42F48062 		orr	r2, r2, #1024
 703 009a 1A60     		str	r2, [r3]
 704              		.loc 1 105 5 is_stmt 1 discriminator 4 view .LVU216
 705              	.L36:
 706              		.loc 1 106 5 view .LVU217
 707              		.loc 1 105 46 view .LVU218
 708              		.loc 1 105 22 is_stmt 0 view .LVU219
 709 009c 1A68     		ldr	r2, [r3]
 710              		.loc 1 105 46 view .LVU220
 711 009e 9205     		lsls	r2, r2, #22
 712 00a0 FCD4     		bmi	.L36
 713              		.loc 1 108 3 is_stmt 1 view .LVU221
 714              		.loc 1 108 19 is_stmt 0 view .LVU222
 715 00a2 4FF0FF32 		mov	r2, #-1
 716              	.LBE330:
 717              	.LBE329:
 718              		.loc 1 236 1 view .LVU223
 719 00a6 0020     		movs	r0, #0
 720              	.LBB332:
 721              	.LBB331:
 722              		.loc 1 108 19 view .LVU224
 723 00a8 9A61     		str	r2, [r3, #24]
 724              	.LVL25:
 725              		.loc 1 108 19 view .LVU225
 726              	.LBE331:
 727              	.LBE332:
 728              		.loc 1 236 1 view .LVU226
 729 00aa 10BD     		pop	{r4, pc}
 730              	.LVL26:
 731              	.L43:
 732              		.loc 1 194 5 is_stmt 1 view .LVU227
 733 00ac FFF7FEFF 		bl	spi_lld_stop_abort
 734              	.LVL27:
 735              		.loc 1 196 5 view .LVU228
 736              		.loc 1 236 1 is_stmt 0 view .LVU229
 737 00b0 0020     		movs	r0, #0
 738 00b2 10BD     		pop	{r4, pc}
 739              		.cfi_endproc
 740              	.LFE435:
 741              		.size	spi_lld_stop_nicely, .-spi_lld_stop_nicely
ARM GAS  C:\Users\DEVELO~1\AppData\Local\Temp\cc2saCCQ.s 			page 14


 742              		.section	.rodata.spi_lld_serve_dma_tx_interrupt.part.0.str1.4,"aMS",%progbits,1
 743              		.align	2
 744              	.LC0:
 745 0000 444D4120 		.ascii	"DMA failure\000"
 745      6661696C 
 745      75726500 
 746              		.section	.text.spi_lld_serve_dma_tx_interrupt.part.0,"ax",%progbits
 747              		.align	1
 748              		.p2align 4,,15
 749              		.syntax unified
 750              		.thumb
 751              		.thumb_func
 752              		.type	spi_lld_serve_dma_tx_interrupt.part.0, %function
 753              	spi_lld_serve_dma_tx_interrupt.part.0:
 754              	.LVL28:
 755              	.LFB459:
 756              		.loc 1 349 13 is_stmt 1 view -0
 757              		.cfi_startproc
 758              		@ args = 0, pretend = 0, frame = 0
 759              		@ frame_needed = 0, uses_anonymous_args = 0
 760              		.loc 1 354 5 view .LVU231
 761              	.LBB333:
 762              	.LBI333:
 763              		.file 3 "../../../os/hal/osal/rt-nil/osal.h"
 764              		.loc 3 542 20 view .LVU232
 765              	.LBB334:
 766              		.loc 3 544 3 view .LVU233
 767              	.LBE334:
 768              	.LBE333:
 769              		.loc 1 349 13 is_stmt 0 view .LVU234
 770 0000 10B5     		push	{r4, lr}
 771              		.cfi_def_cfa_offset 8
 772              		.cfi_offset 4, -8
 773              		.cfi_offset 14, -4
 774              		.loc 1 349 13 view .LVU235
 775 0002 0446     		mov	r4, r0
 776              	.LBB336:
 777              	.LBB335:
 778              		.loc 3 544 3 view .LVU236
 779 0004 0B48     		ldr	r0, .L50
 780              	.LVL29:
 781              		.loc 3 544 3 view .LVU237
 782 0006 FFF7FEFF 		bl	chSysHalt
 783              	.LVL30:
 784              		.loc 3 544 3 view .LVU238
 785              	.LBE335:
 786              	.LBE336:
 787              		.loc 1 358 5 is_stmt 1 view .LVU239
 788 000a 2046     		mov	r0, r4
 789 000c FFF7FEFF 		bl	spi_lld_stop_abort
 790              	.LVL31:
 791              		.loc 1 361 5 view .LVU240
 792 0010 6368     		ldr	r3, [r4, #4]
 793 0012 9B68     		ldr	r3, [r3, #8]
 794 0014 0BB1     		cbz	r3, .L45
 795              		.loc 1 361 5 view .LVU241
 796 0016 2046     		mov	r0, r4
ARM GAS  C:\Users\DEVELO~1\AppData\Local\Temp\cc2saCCQ.s 			page 15


 797 0018 9847     		blx	r3
 798              	.LVL32:
 799              	.L45:
 800              		.loc 1 361 5 view .LVU242
 801              	.LBB337:
 802              	.LBI337:
 803              		.loc 3 595 20 view .LVU243
 804              		.loc 3 597 3 view .LVU244
 805              	.LBB338:
 806              	.LBI338:
 807              		.file 4 "../../../os/rt/include/chsys.h"
 808              		.loc 4 451 20 view .LVU245
 809              		.loc 4 453 3 view .LVU246
 810              	.LBB339:
 811              	.LBI339:
 812              		.file 5 "../../../os/common/ports/ARMv7-M/chcore.h"
 813              		.loc 5 845 27 view .LVU247
 814              		.loc 5 847 3 view .LVU248
 815              	.LBB340:
 816              	.LBI340:
 817              		.loc 5 806 27 view .LVU249
 818              		.loc 5 814 3 view .LVU250
 819              	.LBB341:
 820              	.LBI341:
 821              		.file 6 "../../../os/common/ext/ARM/CMSIS/Core/Include/cmsis_gcc.h"
 822              		.loc 6 491 27 view .LVU251
 823              	.LBB342:
 824              		.loc 6 493 3 view .LVU252
 825 001a 3023     		movs	r3, #48
 826              		.syntax unified
 827              	@ 493 "../../../os/common/ext/ARM/CMSIS/Core/Include/cmsis_gcc.h" 1
 828 001c 83F31188 		MSR basepri, r3
 829              	@ 0 "" 2
 830              	.LVL33:
 831              		.loc 6 493 3 is_stmt 0 view .LVU253
 832              		.thumb
 833              		.syntax unified
 834              	.LBE342:
 835              	.LBE341:
 836              	.LBE340:
 837              	.LBE339:
 838              		.loc 4 454 35 is_stmt 1 view .LVU254
 839              		.loc 4 455 30 view .LVU255
 840              	.LBE338:
 841              	.LBE337:
 842              		.loc 1 361 5 view .LVU256
 843              	.LBB343:
 844              	.LBI343:
 845              		.loc 3 837 20 view .LVU257
 846              	.LBB344:
 847              		.loc 3 839 3 view .LVU258
 848 0020 0021     		movs	r1, #0
 849 0022 04F10800 		add	r0, r4, #8
 850              	.LVL34:
 851              		.loc 3 839 3 is_stmt 0 view .LVU259
 852 0026 FFF7FEFF 		bl	chThdResumeI
 853              	.LVL35:
ARM GAS  C:\Users\DEVELO~1\AppData\Local\Temp\cc2saCCQ.s 			page 16


 854              		.loc 3 839 3 view .LVU260
 855              	.LBE344:
 856              	.LBE343:
 857              		.loc 1 361 5 is_stmt 1 view .LVU261
 858              	.LBB345:
 859              	.LBI345:
 860              		.loc 3 606 20 view .LVU262
 861              		.loc 3 608 3 view .LVU263
 862              	.LBB346:
 863              	.LBI346:
 864              		.loc 4 473 20 view .LVU264
 865              		.loc 4 475 32 view .LVU265
 866              		.loc 4 476 34 view .LVU266
 867              		.loc 4 477 3 view .LVU267
 868              	.LBB347:
 869              	.LBI347:
 870              		.loc 5 856 27 view .LVU268
 871              		.loc 5 858 3 view .LVU269
 872              	.LBB348:
 873              	.LBI348:
 874              		.loc 5 830 27 view .LVU270
 875              		.loc 5 833 3 view .LVU271
 876              	.LBB349:
 877              	.LBI349:
 878              		.loc 6 491 27 view .LVU272
 879              	.LBB350:
 880              		.loc 6 493 3 view .LVU273
 881 002a 0023     		movs	r3, #0
 882              		.syntax unified
 883              	@ 493 "../../../os/common/ext/ARM/CMSIS/Core/Include/cmsis_gcc.h" 1
 884 002c 83F31188 		MSR basepri, r3
 885              	@ 0 "" 2
 886              	.LVL36:
 887              		.loc 6 493 3 is_stmt 0 view .LVU274
 888              		.thumb
 889              		.syntax unified
 890              	.LBE350:
 891              	.LBE349:
 892              	.LBE348:
 893              	.LBE347:
 894              	.LBE346:
 895              	.LBE345:
 896              		.loc 1 361 5 is_stmt 1 view .LVU275
 897              		.loc 1 361 51 view .LVU276
 898              		.loc 1 363 1 is_stmt 0 view .LVU277
 899 0030 10BD     		pop	{r4, pc}
 900              	.LVL37:
 901              	.L51:
 902              		.loc 1 363 1 view .LVU278
 903 0032 00BF     		.align	2
 904              	.L50:
 905 0034 00000000 		.word	.LC0
 906              		.cfi_endproc
 907              	.LFE459:
 908              		.size	spi_lld_serve_dma_tx_interrupt.part.0, .-spi_lld_serve_dma_tx_interrupt.part.0
 909              		.thumb_set spi_lld_serve_bdma_tx_interrupt.part.0,spi_lld_serve_dma_tx_interrupt.part.0
 910              		.section	.text.spi_lld_serve_bdma_tx_interrupt,"ax",%progbits
ARM GAS  C:\Users\DEVELO~1\AppData\Local\Temp\cc2saCCQ.s 			page 17


 911              		.align	1
 912              		.p2align 4,,15
 913              		.syntax unified
 914              		.thumb
 915              		.thumb_func
 916              		.type	spi_lld_serve_bdma_tx_interrupt, %function
 917              	spi_lld_serve_bdma_tx_interrupt:
 918              	.LVL38:
 919              	.LFB437:
 920              		.loc 1 285 78 is_stmt 1 view -0
 921              		.cfi_startproc
 922              		@ args = 0, pretend = 0, frame = 0
 923              		@ frame_needed = 0, uses_anonymous_args = 0
 924              		@ link register save eliminated.
 925              		.loc 1 288 3 view .LVU280
 926              		.loc 1 288 6 is_stmt 0 view .LVU281
 927 0000 0B07     		lsls	r3, r1, #28
 928 0002 00D4     		bmi	.L54
 929              		.loc 1 299 1 view .LVU282
 930 0004 7047     		bx	lr
 931              	.L54:
 932 0006 FFF7FEBF 		b	spi_lld_serve_bdma_tx_interrupt.part.0
 933              	.LVL39:
 934              		.loc 1 299 1 view .LVU283
 935              		.cfi_endproc
 936              	.LFE437:
 937              		.size	spi_lld_serve_bdma_tx_interrupt, .-spi_lld_serve_bdma_tx_interrupt
 938 000a 00BF     		.section	.text.spi_lld_serve_dma_tx_interrupt,"ax",%progbits
 939              		.align	1
 940              		.p2align 4,,15
 941              		.syntax unified
 942              		.thumb
 943              		.thumb_func
 944              		.type	spi_lld_serve_dma_tx_interrupt, %function
 945              	spi_lld_serve_dma_tx_interrupt:
 946              	.LVL40:
 947              	.LFB439:
 948              		.loc 1 349 77 is_stmt 1 view -0
 949              		.cfi_startproc
 950              		@ args = 0, pretend = 0, frame = 0
 951              		@ frame_needed = 0, uses_anonymous_args = 0
 952              		@ link register save eliminated.
 953              		.loc 1 352 3 view .LVU285
 954              		.loc 1 352 6 is_stmt 0 view .LVU286
 955 0000 11F00C0F 		tst	r1, #12
 956 0004 00D1     		bne	.L57
 957              		.loc 1 363 1 view .LVU287
 958 0006 7047     		bx	lr
 959              	.L57:
 960 0008 FFF7FEBF 		b	spi_lld_serve_dma_tx_interrupt.part.0
 961              	.LVL41:
 962              		.loc 1 363 1 view .LVU288
 963              		.cfi_endproc
 964              	.LFE439:
 965              		.size	spi_lld_serve_dma_tx_interrupt, .-spi_lld_serve_dma_tx_interrupt
 966              		.section	.text.spi_lld_serve_dma_rx_interrupt,"ax",%progbits
 967              		.align	1
ARM GAS  C:\Users\DEVELO~1\AppData\Local\Temp\cc2saCCQ.s 			page 18


 968              		.p2align 4,,15
 969              		.syntax unified
 970              		.thumb
 971              		.thumb_func
 972              		.type	spi_lld_serve_dma_rx_interrupt, %function
 973              	spi_lld_serve_dma_rx_interrupt:
 974              	.LVL42:
 975              	.LFB438:
 976              		.loc 1 309 77 is_stmt 1 view -0
 977              		.cfi_startproc
 978              		@ args = 0, pretend = 0, frame = 0
 979              		@ frame_needed = 0, uses_anonymous_args = 0
 980              		.loc 1 312 3 view .LVU290
 981              		.loc 1 312 6 is_stmt 0 view .LVU291
 982 0000 11F00C0F 		tst	r1, #12
 983              		.loc 1 309 77 view .LVU292
 984 0004 70B5     		push	{r4, r5, r6, lr}
 985              		.cfi_def_cfa_offset 16
 986              		.cfi_offset 4, -16
 987              		.cfi_offset 5, -12
 988              		.cfi_offset 6, -8
 989              		.cfi_offset 14, -4
 990              		.loc 1 309 77 view .LVU293
 991 0006 0D46     		mov	r5, r1
 992 0008 0446     		mov	r4, r0
 993              		.loc 1 312 6 view .LVU294
 994 000a 2DD1     		bne	.L89
 995              	.LVL43:
 996              	.L59:
 997              		.loc 1 321 5 is_stmt 1 discriminator 4 view .LVU295
 998              		.loc 1 321 51 discriminator 4 view .LVU296
 999              		.loc 1 324 3 discriminator 4 view .LVU297
 1000              		.loc 1 324 11 is_stmt 0 discriminator 4 view .LVU298
 1001 000c 6668     		ldr	r6, [r4, #4]
 1002              		.loc 1 324 6 discriminator 4 view .LVU299
 1003 000e 3378     		ldrb	r3, [r6]	@ zero_extendqisi2
 1004 0010 93B1     		cbz	r3, .L61
 1005              		.loc 1 325 5 is_stmt 1 view .LVU300
 1006              		.loc 1 325 8 is_stmt 0 view .LVU301
 1007 0012 EA06     		lsls	r2, r5, #27
 1008 0014 03D5     		bpl	.L62
 1009              		.loc 1 327 7 is_stmt 1 view .LVU302
 1010 0016 7368     		ldr	r3, [r6, #4]
 1011 0018 6BB1     		cbz	r3, .L58
 1012              		.loc 1 327 7 discriminator 1 view .LVU303
 1013 001a 2046     		mov	r0, r4
 1014 001c 9847     		blx	r3
 1015              	.LVL44:
 1016              	.L62:
 1017              		.loc 1 327 32 discriminator 3 view .LVU304
 1018              		.loc 1 329 5 discriminator 3 view .LVU305
 1019              		.loc 1 329 8 is_stmt 0 discriminator 3 view .LVU306
 1020 001e AB06     		lsls	r3, r5, #26
 1021 0020 09D5     		bpl	.L58
 1022              		.loc 1 331 7 is_stmt 1 view .LVU307
 1023 0022 6368     		ldr	r3, [r4, #4]
 1024 0024 5B68     		ldr	r3, [r3, #4]
ARM GAS  C:\Users\DEVELO~1\AppData\Local\Temp\cc2saCCQ.s 			page 19


 1025 0026 33B1     		cbz	r3, .L58
 1026              		.loc 1 331 7 discriminator 1 view .LVU308
 1027 0028 0422     		movs	r2, #4
 1028 002a 2046     		mov	r0, r4
 1029 002c 2270     		strb	r2, [r4]
 1030              		.loc 1 331 7 discriminator 1 view .LVU309
 1031 002e 9847     		blx	r3
 1032              	.LVL45:
 1033              		.loc 1 331 7 discriminator 1 view .LVU310
 1034 0030 2378     		ldrb	r3, [r4]	@ zero_extendqisi2
 1035 0032 042B     		cmp	r3, #4
 1036 0034 2FD0     		beq	.L90
 1037              	.L58:
 1038              		.loc 1 341 1 is_stmt 0 view .LVU311
 1039 0036 70BD     		pop	{r4, r5, r6, pc}
 1040              	.LVL46:
 1041              	.L61:
 1042              		.loc 1 336 5 is_stmt 1 view .LVU312
 1043              		.loc 1 336 12 is_stmt 0 view .LVU313
 1044 0038 2046     		mov	r0, r4
 1045 003a FFF7FEFF 		bl	spi_lld_stop_nicely
 1046              	.LVL47:
 1047              		.loc 1 339 5 is_stmt 1 view .LVU314
 1048 003e 7368     		ldr	r3, [r6, #4]
 1049 0040 63B3     		cbz	r3, .L65
 1050              		.loc 1 339 5 discriminator 1 view .LVU315
 1051 0042 0422     		movs	r2, #4
 1052 0044 2046     		mov	r0, r4
 1053 0046 2270     		strb	r2, [r4]
 1054              		.loc 1 339 5 discriminator 1 view .LVU316
 1055 0048 9847     		blx	r3
 1056              	.LVL48:
 1057              		.loc 1 339 5 discriminator 1 view .LVU317
 1058 004a 2378     		ldrb	r3, [r4]	@ zero_extendqisi2
 1059 004c 042B     		cmp	r3, #4
 1060 004e 25D0     		beq	.L65
 1061              	.L66:
 1062              		.loc 1 339 5 discriminator 4 view .LVU318
 1063              	.LBB351:
 1064              	.LBI351:
 1065              		.loc 3 595 20 discriminator 4 view .LVU319
 1066              		.loc 3 597 3 discriminator 4 view .LVU320
 1067              	.LBB352:
 1068              	.LBI352:
 1069              		.loc 4 451 20 discriminator 4 view .LVU321
 1070              		.loc 4 453 3 discriminator 4 view .LVU322
 1071              	.LBB353:
 1072              	.LBI353:
 1073              		.loc 5 845 27 discriminator 4 view .LVU323
 1074              		.loc 5 847 3 discriminator 4 view .LVU324
 1075              	.LBB354:
 1076              	.LBI354:
 1077              		.loc 5 806 27 discriminator 4 view .LVU325
 1078              		.loc 5 814 3 discriminator 4 view .LVU326
 1079              	.LVL49:
 1080              	.LBB355:
 1081              	.LBI355:
ARM GAS  C:\Users\DEVELO~1\AppData\Local\Temp\cc2saCCQ.s 			page 20


 1082              		.loc 6 491 27 discriminator 4 view .LVU327
 1083              	.LBB356:
 1084              		.loc 6 493 3 discriminator 4 view .LVU328
 1085 0050 3023     		movs	r3, #48
 1086              		.syntax unified
 1087              	@ 493 "../../../os/common/ext/ARM/CMSIS/Core/Include/cmsis_gcc.h" 1
 1088 0052 83F31188 		MSR basepri, r3
 1089              	@ 0 "" 2
 1090              	.LVL50:
 1091              		.loc 6 493 3 is_stmt 0 discriminator 4 view .LVU329
 1092              		.thumb
 1093              		.syntax unified
 1094              	.LBE356:
 1095              	.LBE355:
 1096              	.LBE354:
 1097              	.LBE353:
 1098              		.loc 4 454 35 is_stmt 1 discriminator 4 view .LVU330
 1099              		.loc 4 455 30 discriminator 4 view .LVU331
 1100              	.LBE352:
 1101              	.LBE351:
 1102              		.loc 1 339 5 discriminator 4 view .LVU332
 1103              	.LBB357:
 1104              	.LBI357:
 1105              		.loc 3 837 20 discriminator 4 view .LVU333
 1106              	.LBB358:
 1107              		.loc 3 839 3 discriminator 4 view .LVU334
 1108 0056 0021     		movs	r1, #0
 1109 0058 04F10800 		add	r0, r4, #8
 1110              	.LVL51:
 1111              		.loc 3 839 3 is_stmt 0 discriminator 4 view .LVU335
 1112 005c FFF7FEFF 		bl	chThdResumeI
 1113              	.LVL52:
 1114              		.loc 3 839 3 discriminator 4 view .LVU336
 1115              	.LBE358:
 1116              	.LBE357:
 1117              		.loc 1 339 5 is_stmt 1 discriminator 4 view .LVU337
 1118              	.LBB359:
 1119              	.LBI359:
 1120              		.loc 3 606 20 discriminator 4 view .LVU338
 1121              	.LBB360:
 1122              		.loc 3 608 3 discriminator 4 view .LVU339
 1123              	.LBB361:
 1124              	.LBI361:
 1125              		.loc 4 473 20 discriminator 4 view .LVU340
 1126              		.loc 4 475 32 discriminator 4 view .LVU341
 1127              		.loc 4 476 34 discriminator 4 view .LVU342
 1128              		.loc 4 477 3 discriminator 4 view .LVU343
 1129              	.LBB362:
 1130              	.LBI362:
 1131              		.loc 5 856 27 discriminator 4 view .LVU344
 1132              		.loc 5 858 3 discriminator 4 view .LVU345
 1133              	.LBB363:
 1134              	.LBI363:
 1135              		.loc 5 830 27 discriminator 4 view .LVU346
 1136              		.loc 5 833 3 discriminator 4 view .LVU347
 1137              	.LBB364:
 1138              	.LBI364:
ARM GAS  C:\Users\DEVELO~1\AppData\Local\Temp\cc2saCCQ.s 			page 21


 1139              		.loc 6 491 27 discriminator 4 view .LVU348
 1140              	.LBB365:
 1141              		.loc 6 493 3 discriminator 4 view .LVU349
 1142 0060 0023     		movs	r3, #0
 1143              		.syntax unified
 1144              	@ 493 "../../../os/common/ext/ARM/CMSIS/Core/Include/cmsis_gcc.h" 1
 1145 0062 83F31188 		MSR basepri, r3
 1146              	@ 0 "" 2
 1147              	.LVL53:
 1148              		.loc 6 493 3 is_stmt 0 discriminator 4 view .LVU350
 1149              		.thumb
 1150              		.syntax unified
 1151              	.LBE365:
 1152              	.LBE364:
 1153              	.LBE363:
 1154              	.LBE362:
 1155              	.LBE361:
 1156              	.LBE360:
 1157              	.LBE359:
 1158              		.loc 1 339 5 is_stmt 1 discriminator 4 view .LVU351
 1159              		.loc 1 339 34 discriminator 4 view .LVU352
 1160              		.loc 1 341 1 is_stmt 0 discriminator 4 view .LVU353
 1161 0066 70BD     		pop	{r4, r5, r6, pc}
 1162              	.LVL54:
 1163              	.L89:
 1164              		.loc 1 314 5 is_stmt 1 view .LVU354
 1165              	.LBB366:
 1166              	.LBI366:
 1167              		.loc 3 542 20 view .LVU355
 1168              	.LBB367:
 1169              		.loc 3 544 3 view .LVU356
 1170 0068 0E48     		ldr	r0, .L91
 1171              	.LVL55:
 1172              		.loc 3 544 3 is_stmt 0 view .LVU357
 1173 006a FFF7FEFF 		bl	chSysHalt
 1174              	.LVL56:
 1175              		.loc 3 544 3 view .LVU358
 1176              	.LBE367:
 1177              	.LBE366:
 1178              		.loc 1 318 5 is_stmt 1 view .LVU359
 1179 006e 2046     		mov	r0, r4
 1180 0070 FFF7FEFF 		bl	spi_lld_stop_abort
 1181              	.LVL57:
 1182              		.loc 1 321 5 view .LVU360
 1183 0074 6368     		ldr	r3, [r4, #4]
 1184 0076 9B68     		ldr	r3, [r3, #8]
 1185 0078 0BB1     		cbz	r3, .L60
 1186              		.loc 1 321 5 discriminator 1 view .LVU361
 1187 007a 2046     		mov	r0, r4
 1188 007c 9847     		blx	r3
 1189              	.LVL58:
 1190              	.L60:
 1191              		.loc 1 321 5 discriminator 3 view .LVU362
 1192              	.LBB368:
 1193              	.LBI368:
 1194              		.loc 3 595 20 discriminator 3 view .LVU363
 1195              		.loc 3 597 3 discriminator 3 view .LVU364
ARM GAS  C:\Users\DEVELO~1\AppData\Local\Temp\cc2saCCQ.s 			page 22


 1196              	.LBB369:
 1197              	.LBI369:
 1198              		.loc 4 451 20 discriminator 3 view .LVU365
 1199              		.loc 4 453 3 discriminator 3 view .LVU366
 1200              	.LBB370:
 1201              	.LBI370:
 1202              		.loc 5 845 27 discriminator 3 view .LVU367
 1203              		.loc 5 847 3 discriminator 3 view .LVU368
 1204              	.LBB371:
 1205              	.LBI371:
 1206              		.loc 5 806 27 discriminator 3 view .LVU369
 1207              		.loc 5 814 3 discriminator 3 view .LVU370
 1208              	.LBB372:
 1209              	.LBI372:
 1210              		.loc 6 491 27 discriminator 3 view .LVU371
 1211              	.LBB373:
 1212              		.loc 6 493 3 discriminator 3 view .LVU372
 1213 007e 3023     		movs	r3, #48
 1214              		.syntax unified
 1215              	@ 493 "../../../os/common/ext/ARM/CMSIS/Core/Include/cmsis_gcc.h" 1
 1216 0080 83F31188 		MSR basepri, r3
 1217              	@ 0 "" 2
 1218              	.LVL59:
 1219              		.loc 6 493 3 is_stmt 0 discriminator 3 view .LVU373
 1220              		.thumb
 1221              		.syntax unified
 1222              	.LBE373:
 1223              	.LBE372:
 1224              	.LBE371:
 1225              	.LBE370:
 1226              		.loc 4 454 35 is_stmt 1 discriminator 3 view .LVU374
 1227              		.loc 4 455 30 discriminator 3 view .LVU375
 1228              	.LBE369:
 1229              	.LBE368:
 1230              		.loc 1 321 5 discriminator 3 view .LVU376
 1231              	.LBB374:
 1232              	.LBI374:
 1233              		.loc 3 837 20 discriminator 3 view .LVU377
 1234              	.LBB375:
 1235              		.loc 3 839 3 discriminator 3 view .LVU378
 1236 0084 0021     		movs	r1, #0
 1237 0086 04F10800 		add	r0, r4, #8
 1238              	.LVL60:
 1239              		.loc 3 839 3 is_stmt 0 discriminator 3 view .LVU379
 1240 008a FFF7FEFF 		bl	chThdResumeI
 1241              	.LVL61:
 1242              		.loc 3 839 3 discriminator 3 view .LVU380
 1243              	.LBE375:
 1244              	.LBE374:
 1245              		.loc 1 321 5 is_stmt 1 discriminator 3 view .LVU381
 1246              	.LBB376:
 1247              	.LBI376:
 1248              		.loc 3 606 20 discriminator 3 view .LVU382
 1249              	.LBB377:
 1250              		.loc 3 608 3 discriminator 3 view .LVU383
 1251              	.LBB378:
 1252              	.LBI378:
ARM GAS  C:\Users\DEVELO~1\AppData\Local\Temp\cc2saCCQ.s 			page 23


 1253              		.loc 4 473 20 discriminator 3 view .LVU384
 1254              		.loc 4 475 32 discriminator 3 view .LVU385
 1255              		.loc 4 476 34 discriminator 3 view .LVU386
 1256              		.loc 4 477 3 discriminator 3 view .LVU387
 1257              	.LBB379:
 1258              	.LBI379:
 1259              		.loc 5 856 27 discriminator 3 view .LVU388
 1260              		.loc 5 858 3 discriminator 3 view .LVU389
 1261              	.LBB380:
 1262              	.LBI380:
 1263              		.loc 5 830 27 discriminator 3 view .LVU390
 1264              		.loc 5 833 3 discriminator 3 view .LVU391
 1265              	.LBB381:
 1266              	.LBI381:
 1267              		.loc 6 491 27 discriminator 3 view .LVU392
 1268              	.LBB382:
 1269              		.loc 6 493 3 discriminator 3 view .LVU393
 1270 008e 0023     		movs	r3, #0
 1271              		.syntax unified
 1272              	@ 493 "../../../os/common/ext/ARM/CMSIS/Core/Include/cmsis_gcc.h" 1
 1273 0090 83F31188 		MSR basepri, r3
 1274              	@ 0 "" 2
 1275              	.LVL62:
 1276              		.loc 6 493 3 is_stmt 0 discriminator 3 view .LVU394
 1277              		.thumb
 1278              		.syntax unified
 1279              	.LBE382:
 1280              	.LBE381:
 1281              	.LBE380:
 1282              	.LBE379:
 1283              	.LBE378:
 1284              		.loc 3 609 1 discriminator 3 view .LVU395
 1285 0094 BAE7     		b	.L59
 1286              	.L90:
 1287              		.loc 3 609 1 discriminator 3 view .LVU396
 1288              	.LBE377:
 1289              	.LBE376:
 1290              		.loc 1 331 7 is_stmt 1 discriminator 3 view .LVU397
 1291 0096 0323     		movs	r3, #3
 1292 0098 2370     		strb	r3, [r4]
 1293              		.loc 1 341 1 is_stmt 0 discriminator 3 view .LVU398
 1294 009a 70BD     		pop	{r4, r5, r6, pc}
 1295              	.LVL63:
 1296              	.L65:
 1297              		.loc 1 339 5 is_stmt 1 discriminator 3 view .LVU399
 1298 009c 0223     		movs	r3, #2
 1299 009e 2370     		strb	r3, [r4]
 1300 00a0 D6E7     		b	.L66
 1301              	.L92:
 1302 00a2 00BF     		.align	2
 1303              	.L91:
 1304 00a4 00000000 		.word	.LC0
 1305              		.cfi_endproc
 1306              	.LFE438:
 1307              		.size	spi_lld_serve_dma_rx_interrupt, .-spi_lld_serve_dma_rx_interrupt
 1308              		.section	.text.spi_lld_serve_bdma_rx_interrupt,"ax",%progbits
 1309              		.align	1
ARM GAS  C:\Users\DEVELO~1\AppData\Local\Temp\cc2saCCQ.s 			page 24


 1310              		.p2align 4,,15
 1311              		.syntax unified
 1312              		.thumb
 1313              		.thumb_func
 1314              		.type	spi_lld_serve_bdma_rx_interrupt, %function
 1315              	spi_lld_serve_bdma_rx_interrupt:
 1316              	.LVL64:
 1317              	.LFB436:
 1318              		.loc 1 245 78 view -0
 1319              		.cfi_startproc
 1320              		@ args = 0, pretend = 0, frame = 0
 1321              		@ frame_needed = 0, uses_anonymous_args = 0
 1322              		.loc 1 248 3 view .LVU401
 1323              		.loc 1 245 78 is_stmt 0 view .LVU402
 1324 0000 70B5     		push	{r4, r5, r6, lr}
 1325              		.cfi_def_cfa_offset 16
 1326              		.cfi_offset 4, -16
 1327              		.cfi_offset 5, -12
 1328              		.cfi_offset 6, -8
 1329              		.cfi_offset 14, -4
 1330              		.loc 1 245 78 view .LVU403
 1331 0002 0D46     		mov	r5, r1
 1332              		.loc 1 248 6 view .LVU404
 1333 0004 0907     		lsls	r1, r1, #28
 1334              	.LVL65:
 1335              		.loc 1 245 78 view .LVU405
 1336 0006 0446     		mov	r4, r0
 1337              		.loc 1 248 6 view .LVU406
 1338 0008 2DD4     		bmi	.L124
 1339              	.LVL66:
 1340              	.L94:
 1341              		.loc 1 257 5 is_stmt 1 discriminator 4 view .LVU407
 1342              		.loc 1 257 51 discriminator 4 view .LVU408
 1343              		.loc 1 260 3 discriminator 4 view .LVU409
 1344              		.loc 1 260 11 is_stmt 0 discriminator 4 view .LVU410
 1345 000a 6668     		ldr	r6, [r4, #4]
 1346              		.loc 1 260 6 discriminator 4 view .LVU411
 1347 000c 3378     		ldrb	r3, [r6]	@ zero_extendqisi2
 1348 000e 93B1     		cbz	r3, .L96
 1349              		.loc 1 261 5 is_stmt 1 view .LVU412
 1350              		.loc 1 261 8 is_stmt 0 view .LVU413
 1351 0010 6A07     		lsls	r2, r5, #29
 1352 0012 03D5     		bpl	.L97
 1353              		.loc 1 263 7 is_stmt 1 view .LVU414
 1354 0014 7368     		ldr	r3, [r6, #4]
 1355 0016 6BB1     		cbz	r3, .L93
 1356              		.loc 1 263 7 discriminator 1 view .LVU415
 1357 0018 2046     		mov	r0, r4
 1358 001a 9847     		blx	r3
 1359              	.LVL67:
 1360              	.L97:
 1361              		.loc 1 263 32 discriminator 3 view .LVU416
 1362              		.loc 1 265 5 discriminator 3 view .LVU417
 1363              		.loc 1 265 8 is_stmt 0 discriminator 3 view .LVU418
 1364 001c AB07     		lsls	r3, r5, #30
 1365 001e 09D5     		bpl	.L93
 1366              		.loc 1 267 7 is_stmt 1 view .LVU419
ARM GAS  C:\Users\DEVELO~1\AppData\Local\Temp\cc2saCCQ.s 			page 25


 1367 0020 6368     		ldr	r3, [r4, #4]
 1368 0022 5B68     		ldr	r3, [r3, #4]
 1369 0024 33B1     		cbz	r3, .L93
 1370              		.loc 1 267 7 discriminator 1 view .LVU420
 1371 0026 0422     		movs	r2, #4
 1372 0028 2046     		mov	r0, r4
 1373 002a 2270     		strb	r2, [r4]
 1374              		.loc 1 267 7 discriminator 1 view .LVU421
 1375 002c 9847     		blx	r3
 1376              	.LVL68:
 1377              		.loc 1 267 7 discriminator 1 view .LVU422
 1378 002e 2378     		ldrb	r3, [r4]	@ zero_extendqisi2
 1379 0030 042B     		cmp	r3, #4
 1380 0032 2FD0     		beq	.L125
 1381              	.L93:
 1382              		.loc 1 277 1 is_stmt 0 view .LVU423
 1383 0034 70BD     		pop	{r4, r5, r6, pc}
 1384              	.LVL69:
 1385              	.L96:
 1386              		.loc 1 272 5 is_stmt 1 view .LVU424
 1387              		.loc 1 272 12 is_stmt 0 view .LVU425
 1388 0036 2046     		mov	r0, r4
 1389 0038 FFF7FEFF 		bl	spi_lld_stop_nicely
 1390              	.LVL70:
 1391              		.loc 1 275 5 is_stmt 1 view .LVU426
 1392 003c 7368     		ldr	r3, [r6, #4]
 1393 003e 63B3     		cbz	r3, .L100
 1394              		.loc 1 275 5 discriminator 1 view .LVU427
 1395 0040 0422     		movs	r2, #4
 1396 0042 2046     		mov	r0, r4
 1397 0044 2270     		strb	r2, [r4]
 1398              		.loc 1 275 5 discriminator 1 view .LVU428
 1399 0046 9847     		blx	r3
 1400              	.LVL71:
 1401              		.loc 1 275 5 discriminator 1 view .LVU429
 1402 0048 2378     		ldrb	r3, [r4]	@ zero_extendqisi2
 1403 004a 042B     		cmp	r3, #4
 1404 004c 25D0     		beq	.L100
 1405              	.L101:
 1406              		.loc 1 275 5 discriminator 4 view .LVU430
 1407              	.LBB383:
 1408              	.LBI383:
 1409              		.loc 3 595 20 discriminator 4 view .LVU431
 1410              		.loc 3 597 3 discriminator 4 view .LVU432
 1411              	.LBB384:
 1412              	.LBI384:
 1413              		.loc 4 451 20 discriminator 4 view .LVU433
 1414              		.loc 4 453 3 discriminator 4 view .LVU434
 1415              	.LBB385:
 1416              	.LBI385:
 1417              		.loc 5 845 27 discriminator 4 view .LVU435
 1418              		.loc 5 847 3 discriminator 4 view .LVU436
 1419              	.LBB386:
 1420              	.LBI386:
 1421              		.loc 5 806 27 discriminator 4 view .LVU437
 1422              		.loc 5 814 3 discriminator 4 view .LVU438
 1423              	.LVL72:
ARM GAS  C:\Users\DEVELO~1\AppData\Local\Temp\cc2saCCQ.s 			page 26


 1424              	.LBB387:
 1425              	.LBI387:
 1426              		.loc 6 491 27 discriminator 4 view .LVU439
 1427              	.LBB388:
 1428              		.loc 6 493 3 discriminator 4 view .LVU440
 1429 004e 3023     		movs	r3, #48
 1430              		.syntax unified
 1431              	@ 493 "../../../os/common/ext/ARM/CMSIS/Core/Include/cmsis_gcc.h" 1
 1432 0050 83F31188 		MSR basepri, r3
 1433              	@ 0 "" 2
 1434              	.LVL73:
 1435              		.loc 6 493 3 is_stmt 0 discriminator 4 view .LVU441
 1436              		.thumb
 1437              		.syntax unified
 1438              	.LBE388:
 1439              	.LBE387:
 1440              	.LBE386:
 1441              	.LBE385:
 1442              		.loc 4 454 35 is_stmt 1 discriminator 4 view .LVU442
 1443              		.loc 4 455 30 discriminator 4 view .LVU443
 1444              	.LBE384:
 1445              	.LBE383:
 1446              		.loc 1 275 5 discriminator 4 view .LVU444
 1447              	.LBB389:
 1448              	.LBI389:
 1449              		.loc 3 837 20 discriminator 4 view .LVU445
 1450              	.LBB390:
 1451              		.loc 3 839 3 discriminator 4 view .LVU446
 1452 0054 0021     		movs	r1, #0
 1453 0056 04F10800 		add	r0, r4, #8
 1454              	.LVL74:
 1455              		.loc 3 839 3 is_stmt 0 discriminator 4 view .LVU447
 1456 005a FFF7FEFF 		bl	chThdResumeI
 1457              	.LVL75:
 1458              		.loc 3 839 3 discriminator 4 view .LVU448
 1459              	.LBE390:
 1460              	.LBE389:
 1461              		.loc 1 275 5 is_stmt 1 discriminator 4 view .LVU449
 1462              	.LBB391:
 1463              	.LBI391:
 1464              		.loc 3 606 20 discriminator 4 view .LVU450
 1465              	.LBB392:
 1466              		.loc 3 608 3 discriminator 4 view .LVU451
 1467              	.LBB393:
 1468              	.LBI393:
 1469              		.loc 4 473 20 discriminator 4 view .LVU452
 1470              		.loc 4 475 32 discriminator 4 view .LVU453
 1471              		.loc 4 476 34 discriminator 4 view .LVU454
 1472              		.loc 4 477 3 discriminator 4 view .LVU455
 1473              	.LBB394:
 1474              	.LBI394:
 1475              		.loc 5 856 27 discriminator 4 view .LVU456
 1476              		.loc 5 858 3 discriminator 4 view .LVU457
 1477              	.LBB395:
 1478              	.LBI395:
 1479              		.loc 5 830 27 discriminator 4 view .LVU458
 1480              		.loc 5 833 3 discriminator 4 view .LVU459
ARM GAS  C:\Users\DEVELO~1\AppData\Local\Temp\cc2saCCQ.s 			page 27


 1481              	.LBB396:
 1482              	.LBI396:
 1483              		.loc 6 491 27 discriminator 4 view .LVU460
 1484              	.LBB397:
 1485              		.loc 6 493 3 discriminator 4 view .LVU461
 1486 005e 0023     		movs	r3, #0
 1487              		.syntax unified
 1488              	@ 493 "../../../os/common/ext/ARM/CMSIS/Core/Include/cmsis_gcc.h" 1
 1489 0060 83F31188 		MSR basepri, r3
 1490              	@ 0 "" 2
 1491              	.LVL76:
 1492              		.loc 6 493 3 is_stmt 0 discriminator 4 view .LVU462
 1493              		.thumb
 1494              		.syntax unified
 1495              	.LBE397:
 1496              	.LBE396:
 1497              	.LBE395:
 1498              	.LBE394:
 1499              	.LBE393:
 1500              	.LBE392:
 1501              	.LBE391:
 1502              		.loc 1 275 5 is_stmt 1 discriminator 4 view .LVU463
 1503              		.loc 1 275 34 discriminator 4 view .LVU464
 1504              		.loc 1 277 1 is_stmt 0 discriminator 4 view .LVU465
 1505 0064 70BD     		pop	{r4, r5, r6, pc}
 1506              	.LVL77:
 1507              	.L124:
 1508              		.loc 1 250 5 is_stmt 1 view .LVU466
 1509              	.LBB398:
 1510              	.LBI398:
 1511              		.loc 3 542 20 view .LVU467
 1512              	.LBB399:
 1513              		.loc 3 544 3 view .LVU468
 1514 0066 0E48     		ldr	r0, .L126
 1515              	.LVL78:
 1516              		.loc 3 544 3 is_stmt 0 view .LVU469
 1517 0068 FFF7FEFF 		bl	chSysHalt
 1518              	.LVL79:
 1519              		.loc 3 544 3 view .LVU470
 1520              	.LBE399:
 1521              	.LBE398:
 1522              		.loc 1 254 5 is_stmt 1 view .LVU471
 1523 006c 2046     		mov	r0, r4
 1524 006e FFF7FEFF 		bl	spi_lld_stop_abort
 1525              	.LVL80:
 1526              		.loc 1 257 5 view .LVU472
 1527 0072 6368     		ldr	r3, [r4, #4]
 1528 0074 9B68     		ldr	r3, [r3, #8]
 1529 0076 0BB1     		cbz	r3, .L95
 1530              		.loc 1 257 5 discriminator 1 view .LVU473
 1531 0078 2046     		mov	r0, r4
 1532 007a 9847     		blx	r3
 1533              	.LVL81:
 1534              	.L95:
 1535              		.loc 1 257 5 discriminator 3 view .LVU474
 1536              	.LBB400:
 1537              	.LBI400:
ARM GAS  C:\Users\DEVELO~1\AppData\Local\Temp\cc2saCCQ.s 			page 28


 1538              		.loc 3 595 20 discriminator 3 view .LVU475
 1539              		.loc 3 597 3 discriminator 3 view .LVU476
 1540              	.LBB401:
 1541              	.LBI401:
 1542              		.loc 4 451 20 discriminator 3 view .LVU477
 1543              		.loc 4 453 3 discriminator 3 view .LVU478
 1544              	.LBB402:
 1545              	.LBI402:
 1546              		.loc 5 845 27 discriminator 3 view .LVU479
 1547              		.loc 5 847 3 discriminator 3 view .LVU480
 1548              	.LBB403:
 1549              	.LBI403:
 1550              		.loc 5 806 27 discriminator 3 view .LVU481
 1551              		.loc 5 814 3 discriminator 3 view .LVU482
 1552              	.LBB404:
 1553              	.LBI404:
 1554              		.loc 6 491 27 discriminator 3 view .LVU483
 1555              	.LBB405:
 1556              		.loc 6 493 3 discriminator 3 view .LVU484
 1557 007c 3023     		movs	r3, #48
 1558              		.syntax unified
 1559              	@ 493 "../../../os/common/ext/ARM/CMSIS/Core/Include/cmsis_gcc.h" 1
 1560 007e 83F31188 		MSR basepri, r3
 1561              	@ 0 "" 2
 1562              	.LVL82:
 1563              		.loc 6 493 3 is_stmt 0 discriminator 3 view .LVU485
 1564              		.thumb
 1565              		.syntax unified
 1566              	.LBE405:
 1567              	.LBE404:
 1568              	.LBE403:
 1569              	.LBE402:
 1570              		.loc 4 454 35 is_stmt 1 discriminator 3 view .LVU486
 1571              		.loc 4 455 30 discriminator 3 view .LVU487
 1572              	.LBE401:
 1573              	.LBE400:
 1574              		.loc 1 257 5 discriminator 3 view .LVU488
 1575              	.LBB406:
 1576              	.LBI406:
 1577              		.loc 3 837 20 discriminator 3 view .LVU489
 1578              	.LBB407:
 1579              		.loc 3 839 3 discriminator 3 view .LVU490
 1580 0082 0021     		movs	r1, #0
 1581 0084 04F10800 		add	r0, r4, #8
 1582              	.LVL83:
 1583              		.loc 3 839 3 is_stmt 0 discriminator 3 view .LVU491
 1584 0088 FFF7FEFF 		bl	chThdResumeI
 1585              	.LVL84:
 1586              		.loc 3 839 3 discriminator 3 view .LVU492
 1587              	.LBE407:
 1588              	.LBE406:
 1589              		.loc 1 257 5 is_stmt 1 discriminator 3 view .LVU493
 1590              	.LBB408:
 1591              	.LBI408:
 1592              		.loc 3 606 20 discriminator 3 view .LVU494
 1593              	.LBB409:
 1594              		.loc 3 608 3 discriminator 3 view .LVU495
ARM GAS  C:\Users\DEVELO~1\AppData\Local\Temp\cc2saCCQ.s 			page 29


 1595              	.LBB410:
 1596              	.LBI410:
 1597              		.loc 4 473 20 discriminator 3 view .LVU496
 1598              		.loc 4 475 32 discriminator 3 view .LVU497
 1599              		.loc 4 476 34 discriminator 3 view .LVU498
 1600              		.loc 4 477 3 discriminator 3 view .LVU499
 1601              	.LBB411:
 1602              	.LBI411:
 1603              		.loc 5 856 27 discriminator 3 view .LVU500
 1604              		.loc 5 858 3 discriminator 3 view .LVU501
 1605              	.LBB412:
 1606              	.LBI412:
 1607              		.loc 5 830 27 discriminator 3 view .LVU502
 1608              		.loc 5 833 3 discriminator 3 view .LVU503
 1609              	.LBB413:
 1610              	.LBI413:
 1611              		.loc 6 491 27 discriminator 3 view .LVU504
 1612              	.LBB414:
 1613              		.loc 6 493 3 discriminator 3 view .LVU505
 1614 008c 0023     		movs	r3, #0
 1615              		.syntax unified
 1616              	@ 493 "../../../os/common/ext/ARM/CMSIS/Core/Include/cmsis_gcc.h" 1
 1617 008e 83F31188 		MSR basepri, r3
 1618              	@ 0 "" 2
 1619              	.LVL85:
 1620              		.loc 6 493 3 is_stmt 0 discriminator 3 view .LVU506
 1621              		.thumb
 1622              		.syntax unified
 1623              	.LBE414:
 1624              	.LBE413:
 1625              	.LBE412:
 1626              	.LBE411:
 1627              	.LBE410:
 1628              		.loc 3 609 1 discriminator 3 view .LVU507
 1629 0092 BAE7     		b	.L94
 1630              	.L125:
 1631              		.loc 3 609 1 discriminator 3 view .LVU508
 1632              	.LBE409:
 1633              	.LBE408:
 1634              		.loc 1 267 7 is_stmt 1 discriminator 3 view .LVU509
 1635 0094 0323     		movs	r3, #3
 1636 0096 2370     		strb	r3, [r4]
 1637              		.loc 1 277 1 is_stmt 0 discriminator 3 view .LVU510
 1638 0098 70BD     		pop	{r4, r5, r6, pc}
 1639              	.LVL86:
 1640              	.L100:
 1641              		.loc 1 275 5 is_stmt 1 discriminator 3 view .LVU511
 1642 009a 0223     		movs	r3, #2
 1643 009c 2370     		strb	r3, [r4]
 1644 009e D6E7     		b	.L101
 1645              	.L127:
 1646              		.align	2
 1647              	.L126:
 1648 00a0 00000000 		.word	.LC0
 1649              		.cfi_endproc
 1650              	.LFE436:
 1651              		.size	spi_lld_serve_bdma_rx_interrupt, .-spi_lld_serve_bdma_rx_interrupt
ARM GAS  C:\Users\DEVELO~1\AppData\Local\Temp\cc2saCCQ.s 			page 30


 1652              		.section	.text.VectorCC,"ax",%progbits
 1653              		.align	1
 1654              		.p2align 4,,15
 1655              		.global	VectorCC
 1656              		.syntax unified
 1657              		.thumb
 1658              		.thumb_func
 1659              		.type	VectorCC, %function
 1660              	VectorCC:
 1661              	.LFB443:
 1662              		.loc 1 465 38 view -0
 1663              		.cfi_startproc
 1664              		@ args = 0, pretend = 0, frame = 0
 1665              		@ frame_needed = 0, uses_anonymous_args = 0
 1666              		.loc 1 467 3 view .LVU513
 1667              		.loc 1 467 3 view .LVU514
 1668              		.loc 1 467 3 view .LVU515
 1669              		.loc 1 467 3 view .LVU516
 1670              		.loc 1 467 3 view .LVU517
 1671              		.loc 1 465 38 is_stmt 0 view .LVU518
 1672 0000 10B5     		push	{r4, lr}
 1673              		.cfi_def_cfa_offset 8
 1674              		.cfi_offset 4, -8
 1675              		.cfi_offset 14, -4
 1676              	.LBB434:
 1677              	.LBB435:
 1678              		.loc 1 374 12 view .LVU519
 1679 0002 154C     		ldr	r4, .L139
 1680              	.LBE435:
 1681              	.LBE434:
 1682              		.loc 1 467 3 view .LVU520
 1683 0004 1548     		ldr	r0, .L139+4
 1684 0006 FFF7FEFF 		bl	__trace_isr_enter
 1685              	.LVL87:
 1686              		.loc 1 467 22 is_stmt 1 view .LVU521
 1687              		.loc 1 469 3 view .LVU522
 1688              	.LBB454:
 1689              	.LBI434:
 1690              		.loc 1 371 13 view .LVU523
 1691              	.LBB452:
 1692              		.loc 1 372 3 view .LVU524
 1693              		.loc 1 374 3 view .LVU525
 1694              		.loc 1 374 12 is_stmt 0 view .LVU526
 1695 000a E269     		ldr	r2, [r4, #28]
 1696              		.loc 1 374 17 view .LVU527
 1697 000c 5369     		ldr	r3, [r2, #20]
 1698              		.loc 1 374 33 view .LVU528
 1699 000e 1169     		ldr	r1, [r2, #16]
 1700              		.loc 1 374 6 view .LVU529
 1701 0010 0B40     		ands	r3, r3, r1
 1702              	.LVL88:
 1703              		.loc 1 375 3 is_stmt 1 view .LVU530
 1704              		.loc 1 375 19 is_stmt 0 view .LVU531
 1705 0012 9361     		str	r3, [r2, #24]
 1706              		.loc 1 377 3 is_stmt 1 view .LVU532
 1707              		.loc 1 377 6 is_stmt 0 view .LVU533
 1708 0014 5B06     		lsls	r3, r3, #25
ARM GAS  C:\Users\DEVELO~1\AppData\Local\Temp\cc2saCCQ.s 			page 31


 1709              	.LVL89:
 1710              		.loc 1 377 6 view .LVU534
 1711 0016 06D4     		bmi	.L138
 1712              		.loc 1 383 5 is_stmt 1 view .LVU535
 1713              		.loc 1 383 51 view .LVU536
 1714              	.LVL90:
 1715              		.loc 1 383 51 is_stmt 0 view .LVU537
 1716              	.LBE452:
 1717              	.LBE454:
 1718              		.loc 1 471 3 is_stmt 1 view .LVU538
 1719              		.loc 1 471 3 view .LVU539
 1720 0018 1048     		ldr	r0, .L139+4
 1721 001a FFF7FEFF 		bl	__trace_isr_leave
 1722              	.LVL91:
 1723              		.loc 1 471 3 view .LVU540
 1724              		.loc 1 471 3 view .LVU541
 1725              		.loc 1 471 3 view .LVU542
 1726              		.loc 1 472 1 is_stmt 0 view .LVU543
 1727 001e BDE81040 		pop	{r4, lr}
 1728              		.cfi_remember_state
 1729              		.cfi_restore 14
 1730              		.cfi_restore 4
 1731              		.cfi_def_cfa_offset 0
 1732              		.loc 1 471 3 view .LVU544
 1733 0022 FFF7FEBF 		b	__port_irq_epilogue
 1734              	.LVL92:
 1735              	.L138:
 1736              		.cfi_restore_state
 1737              	.LBB455:
 1738              	.LBB453:
 1739              	.LBB436:
 1740              	.LBI436:
 1741              		.loc 1 371 13 is_stmt 1 view .LVU545
 1742              	.LBB437:
 1743              		.loc 1 380 5 view .LVU546
 1744 0026 2046     		mov	r0, r4
 1745 0028 FFF7FEFF 		bl	spi_lld_stop_abort
 1746              	.LVL93:
 1747              		.loc 1 383 5 view .LVU547
 1748 002c 6368     		ldr	r3, [r4, #4]
 1749 002e 9B68     		ldr	r3, [r3, #8]
 1750 0030 0BB1     		cbz	r3, .L130
 1751              		.loc 1 383 5 view .LVU548
 1752 0032 2046     		mov	r0, r4
 1753 0034 9847     		blx	r3
 1754              	.LVL94:
 1755              	.L130:
 1756              		.loc 1 383 5 view .LVU549
 1757              	.LBB438:
 1758              	.LBI438:
 1759              		.loc 3 595 20 view .LVU550
 1760              		.loc 3 597 3 view .LVU551
 1761              	.LBB439:
 1762              	.LBI439:
 1763              		.loc 4 451 20 view .LVU552
 1764              		.loc 4 453 3 view .LVU553
 1765              	.LBB440:
ARM GAS  C:\Users\DEVELO~1\AppData\Local\Temp\cc2saCCQ.s 			page 32


 1766              	.LBI440:
 1767              		.loc 5 845 27 view .LVU554
 1768              		.loc 5 847 3 view .LVU555
 1769              	.LBB441:
 1770              	.LBI441:
 1771              		.loc 5 806 27 view .LVU556
 1772              		.loc 5 814 3 view .LVU557
 1773              	.LBB442:
 1774              	.LBI442:
 1775              		.loc 6 491 27 view .LVU558
 1776              	.LBB443:
 1777              		.loc 6 493 3 view .LVU559
 1778 0036 3023     		movs	r3, #48
 1779              		.syntax unified
 1780              	@ 493 "../../../os/common/ext/ARM/CMSIS/Core/Include/cmsis_gcc.h" 1
 1781 0038 83F31188 		MSR basepri, r3
 1782              	@ 0 "" 2
 1783              	.LVL95:
 1784              		.loc 6 493 3 is_stmt 0 view .LVU560
 1785              		.thumb
 1786              		.syntax unified
 1787              	.LBE443:
 1788              	.LBE442:
 1789              	.LBE441:
 1790              	.LBE440:
 1791              		.loc 4 454 35 is_stmt 1 view .LVU561
 1792              		.loc 4 455 30 view .LVU562
 1793              	.LBE439:
 1794              	.LBE438:
 1795              		.loc 1 383 5 view .LVU563
 1796              	.LBB444:
 1797              	.LBI444:
 1798              		.loc 3 837 20 view .LVU564
 1799              	.LBB445:
 1800              		.loc 3 839 3 view .LVU565
 1801 003c 0021     		movs	r1, #0
 1802 003e 0848     		ldr	r0, .L139+8
 1803 0040 FFF7FEFF 		bl	chThdResumeI
 1804              	.LVL96:
 1805              		.loc 3 839 3 is_stmt 0 view .LVU566
 1806              	.LBE445:
 1807              	.LBE444:
 1808              		.loc 1 383 5 is_stmt 1 view .LVU567
 1809              	.LBB446:
 1810              	.LBI446:
 1811              		.loc 3 606 20 view .LVU568
 1812              		.loc 3 608 3 view .LVU569
 1813              	.LBB447:
 1814              	.LBI447:
 1815              		.loc 4 473 20 view .LVU570
 1816              		.loc 4 475 32 view .LVU571
 1817              		.loc 4 476 34 view .LVU572
 1818              		.loc 4 477 3 view .LVU573
 1819              	.LBB448:
 1820              	.LBI448:
 1821              		.loc 5 856 27 view .LVU574
 1822              		.loc 5 858 3 view .LVU575
ARM GAS  C:\Users\DEVELO~1\AppData\Local\Temp\cc2saCCQ.s 			page 33


 1823              	.LBB449:
 1824              	.LBI449:
 1825              		.loc 5 830 27 view .LVU576
 1826              		.loc 5 833 3 view .LVU577
 1827              	.LBB450:
 1828              	.LBI450:
 1829              		.loc 6 491 27 view .LVU578
 1830              	.LBB451:
 1831              		.loc 6 493 3 view .LVU579
 1832 0044 0023     		movs	r3, #0
 1833              		.syntax unified
 1834              	@ 493 "../../../os/common/ext/ARM/CMSIS/Core/Include/cmsis_gcc.h" 1
 1835 0046 83F31188 		MSR basepri, r3
 1836              	@ 0 "" 2
 1837              	.LVL97:
 1838              		.loc 6 493 3 is_stmt 0 view .LVU580
 1839              		.thumb
 1840              		.syntax unified
 1841              	.LBE451:
 1842              	.LBE450:
 1843              	.LBE449:
 1844              	.LBE448:
 1845              	.LBE447:
 1846              	.LBE446:
 1847              		.loc 1 383 5 is_stmt 1 view .LVU581
 1848              		.loc 1 383 51 view .LVU582
 1849              		.loc 1 383 51 is_stmt 0 view .LVU583
 1850              	.LBE437:
 1851              	.LBE436:
 1852              		.loc 1 383 5 is_stmt 1 view .LVU584
 1853              		.loc 1 383 51 view .LVU585
 1854              		.loc 1 383 51 is_stmt 0 view .LVU586
 1855              	.LBE453:
 1856              	.LBE455:
 1857              		.loc 1 471 3 is_stmt 1 view .LVU587
 1858              		.loc 1 471 3 view .LVU588
 1859 004a 0448     		ldr	r0, .L139+4
 1860 004c FFF7FEFF 		bl	__trace_isr_leave
 1861              	.LVL98:
 1862              		.loc 1 471 3 view .LVU589
 1863              		.loc 1 471 3 view .LVU590
 1864              		.loc 1 471 3 view .LVU591
 1865              		.loc 1 472 1 is_stmt 0 view .LVU592
 1866 0050 BDE81040 		pop	{r4, lr}
 1867              		.cfi_restore 14
 1868              		.cfi_restore 4
 1869              		.cfi_def_cfa_offset 0
 1870              		.loc 1 471 3 view .LVU593
 1871 0054 FFF7FEBF 		b	__port_irq_epilogue
 1872              	.LVL99:
 1873              	.L140:
 1874              		.align	2
 1875              	.L139:
 1876 0058 00000000 		.word	.LANCHOR0
 1877 005c 00000000 		.word	.LANCHOR5
 1878 0060 08000000 		.word	.LANCHOR0+8
 1879              		.cfi_endproc
ARM GAS  C:\Users\DEVELO~1\AppData\Local\Temp\cc2saCCQ.s 			page 34


 1880              	.LFE443:
 1881              		.size	VectorCC, .-VectorCC
 1882              		.section	.text.VectorD0,"ax",%progbits
 1883              		.align	1
 1884              		.p2align 4,,15
 1885              		.global	VectorD0
 1886              		.syntax unified
 1887              		.thumb
 1888              		.thumb_func
 1889              		.type	VectorD0, %function
 1890              	VectorD0:
 1891              	.LFB444:
 1892              		.loc 1 486 38 is_stmt 1 view -0
 1893              		.cfi_startproc
 1894              		@ args = 0, pretend = 0, frame = 0
 1895              		@ frame_needed = 0, uses_anonymous_args = 0
 1896              		.loc 1 488 3 view .LVU595
 1897              		.loc 1 488 3 view .LVU596
 1898              		.loc 1 488 3 view .LVU597
 1899              		.loc 1 488 3 view .LVU598
 1900              		.loc 1 488 3 view .LVU599
 1901              		.loc 1 486 38 is_stmt 0 view .LVU600
 1902 0000 10B5     		push	{r4, lr}
 1903              		.cfi_def_cfa_offset 8
 1904              		.cfi_offset 4, -8
 1905              		.cfi_offset 14, -4
 1906              	.LBB475:
 1907              	.LBB476:
 1908              		.loc 1 374 12 view .LVU601
 1909 0002 154C     		ldr	r4, .L152
 1910              	.LBE476:
 1911              	.LBE475:
 1912              		.loc 1 488 3 view .LVU602
 1913 0004 1548     		ldr	r0, .L152+4
 1914 0006 FFF7FEFF 		bl	__trace_isr_enter
 1915              	.LVL100:
 1916              		.loc 1 488 22 is_stmt 1 view .LVU603
 1917              		.loc 1 490 3 view .LVU604
 1918              	.LBB495:
 1919              	.LBI475:
 1920              		.loc 1 371 13 view .LVU605
 1921              	.LBB493:
 1922              		.loc 1 372 3 view .LVU606
 1923              		.loc 1 374 3 view .LVU607
 1924              		.loc 1 374 12 is_stmt 0 view .LVU608
 1925 000a E269     		ldr	r2, [r4, #28]
 1926              		.loc 1 374 17 view .LVU609
 1927 000c 5369     		ldr	r3, [r2, #20]
 1928              		.loc 1 374 33 view .LVU610
 1929 000e 1169     		ldr	r1, [r2, #16]
 1930              		.loc 1 374 6 view .LVU611
 1931 0010 0B40     		ands	r3, r3, r1
 1932              	.LVL101:
 1933              		.loc 1 375 3 is_stmt 1 view .LVU612
 1934              		.loc 1 375 19 is_stmt 0 view .LVU613
 1935 0012 9361     		str	r3, [r2, #24]
 1936              		.loc 1 377 3 is_stmt 1 view .LVU614
ARM GAS  C:\Users\DEVELO~1\AppData\Local\Temp\cc2saCCQ.s 			page 35


 1937              		.loc 1 377 6 is_stmt 0 view .LVU615
 1938 0014 5B06     		lsls	r3, r3, #25
 1939              	.LVL102:
 1940              		.loc 1 377 6 view .LVU616
 1941 0016 06D4     		bmi	.L151
 1942              		.loc 1 383 5 is_stmt 1 view .LVU617
 1943              		.loc 1 383 51 view .LVU618
 1944              	.LVL103:
 1945              		.loc 1 383 51 is_stmt 0 view .LVU619
 1946              	.LBE493:
 1947              	.LBE495:
 1948              		.loc 1 492 3 is_stmt 1 view .LVU620
 1949              		.loc 1 492 3 view .LVU621
 1950 0018 1048     		ldr	r0, .L152+4
 1951 001a FFF7FEFF 		bl	__trace_isr_leave
 1952              	.LVL104:
 1953              		.loc 1 492 3 view .LVU622
 1954              		.loc 1 492 3 view .LVU623
 1955              		.loc 1 492 3 view .LVU624
 1956              		.loc 1 493 1 is_stmt 0 view .LVU625
 1957 001e BDE81040 		pop	{r4, lr}
 1958              		.cfi_remember_state
 1959              		.cfi_restore 14
 1960              		.cfi_restore 4
 1961              		.cfi_def_cfa_offset 0
 1962              		.loc 1 492 3 view .LVU626
 1963 0022 FFF7FEBF 		b	__port_irq_epilogue
 1964              	.LVL105:
 1965              	.L151:
 1966              		.cfi_restore_state
 1967              	.LBB496:
 1968              	.LBB494:
 1969              	.LBB477:
 1970              	.LBI477:
 1971              		.loc 1 371 13 is_stmt 1 view .LVU627
 1972              	.LBB478:
 1973              		.loc 1 380 5 view .LVU628
 1974 0026 2046     		mov	r0, r4
 1975 0028 FFF7FEFF 		bl	spi_lld_stop_abort
 1976              	.LVL106:
 1977              		.loc 1 383 5 view .LVU629
 1978 002c 6368     		ldr	r3, [r4, #4]
 1979 002e 9B68     		ldr	r3, [r3, #8]
 1980 0030 0BB1     		cbz	r3, .L143
 1981              		.loc 1 383 5 view .LVU630
 1982 0032 2046     		mov	r0, r4
 1983 0034 9847     		blx	r3
 1984              	.LVL107:
 1985              	.L143:
 1986              		.loc 1 383 5 view .LVU631
 1987              	.LBB479:
 1988              	.LBI479:
 1989              		.loc 3 595 20 view .LVU632
 1990              		.loc 3 597 3 view .LVU633
 1991              	.LBB480:
 1992              	.LBI480:
 1993              		.loc 4 451 20 view .LVU634
ARM GAS  C:\Users\DEVELO~1\AppData\Local\Temp\cc2saCCQ.s 			page 36


 1994              		.loc 4 453 3 view .LVU635
 1995              	.LBB481:
 1996              	.LBI481:
 1997              		.loc 5 845 27 view .LVU636
 1998              		.loc 5 847 3 view .LVU637
 1999              	.LBB482:
 2000              	.LBI482:
 2001              		.loc 5 806 27 view .LVU638
 2002              		.loc 5 814 3 view .LVU639
 2003              	.LBB483:
 2004              	.LBI483:
 2005              		.loc 6 491 27 view .LVU640
 2006              	.LBB484:
 2007              		.loc 6 493 3 view .LVU641
 2008 0036 3023     		movs	r3, #48
 2009              		.syntax unified
 2010              	@ 493 "../../../os/common/ext/ARM/CMSIS/Core/Include/cmsis_gcc.h" 1
 2011 0038 83F31188 		MSR basepri, r3
 2012              	@ 0 "" 2
 2013              	.LVL108:
 2014              		.loc 6 493 3 is_stmt 0 view .LVU642
 2015              		.thumb
 2016              		.syntax unified
 2017              	.LBE484:
 2018              	.LBE483:
 2019              	.LBE482:
 2020              	.LBE481:
 2021              		.loc 4 454 35 is_stmt 1 view .LVU643
 2022              		.loc 4 455 30 view .LVU644
 2023              	.LBE480:
 2024              	.LBE479:
 2025              		.loc 1 383 5 view .LVU645
 2026              	.LBB485:
 2027              	.LBI485:
 2028              		.loc 3 837 20 view .LVU646
 2029              	.LBB486:
 2030              		.loc 3 839 3 view .LVU647
 2031 003c 0021     		movs	r1, #0
 2032 003e 0848     		ldr	r0, .L152+8
 2033 0040 FFF7FEFF 		bl	chThdResumeI
 2034              	.LVL109:
 2035              		.loc 3 839 3 is_stmt 0 view .LVU648
 2036              	.LBE486:
 2037              	.LBE485:
 2038              		.loc 1 383 5 is_stmt 1 view .LVU649
 2039              	.LBB487:
 2040              	.LBI487:
 2041              		.loc 3 606 20 view .LVU650
 2042              		.loc 3 608 3 view .LVU651
 2043              	.LBB488:
 2044              	.LBI488:
 2045              		.loc 4 473 20 view .LVU652
 2046              		.loc 4 475 32 view .LVU653
 2047              		.loc 4 476 34 view .LVU654
 2048              		.loc 4 477 3 view .LVU655
 2049              	.LBB489:
 2050              	.LBI489:
ARM GAS  C:\Users\DEVELO~1\AppData\Local\Temp\cc2saCCQ.s 			page 37


 2051              		.loc 5 856 27 view .LVU656
 2052              		.loc 5 858 3 view .LVU657
 2053              	.LBB490:
 2054              	.LBI490:
 2055              		.loc 5 830 27 view .LVU658
 2056              		.loc 5 833 3 view .LVU659
 2057              	.LBB491:
 2058              	.LBI491:
 2059              		.loc 6 491 27 view .LVU660
 2060              	.LBB492:
 2061              		.loc 6 493 3 view .LVU661
 2062 0044 0023     		movs	r3, #0
 2063              		.syntax unified
 2064              	@ 493 "../../../os/common/ext/ARM/CMSIS/Core/Include/cmsis_gcc.h" 1
 2065 0046 83F31188 		MSR basepri, r3
 2066              	@ 0 "" 2
 2067              	.LVL110:
 2068              		.loc 6 493 3 is_stmt 0 view .LVU662
 2069              		.thumb
 2070              		.syntax unified
 2071              	.LBE492:
 2072              	.LBE491:
 2073              	.LBE490:
 2074              	.LBE489:
 2075              	.LBE488:
 2076              	.LBE487:
 2077              		.loc 1 383 5 is_stmt 1 view .LVU663
 2078              		.loc 1 383 51 view .LVU664
 2079              		.loc 1 383 51 is_stmt 0 view .LVU665
 2080              	.LBE478:
 2081              	.LBE477:
 2082              		.loc 1 383 5 is_stmt 1 view .LVU666
 2083              		.loc 1 383 51 view .LVU667
 2084              		.loc 1 383 51 is_stmt 0 view .LVU668
 2085              	.LBE494:
 2086              	.LBE496:
 2087              		.loc 1 492 3 is_stmt 1 view .LVU669
 2088              		.loc 1 492 3 view .LVU670
 2089 004a 0448     		ldr	r0, .L152+4
 2090 004c FFF7FEFF 		bl	__trace_isr_leave
 2091              	.LVL111:
 2092              		.loc 1 492 3 view .LVU671
 2093              		.loc 1 492 3 view .LVU672
 2094              		.loc 1 492 3 view .LVU673
 2095              		.loc 1 493 1 is_stmt 0 view .LVU674
 2096 0050 BDE81040 		pop	{r4, lr}
 2097              		.cfi_restore 14
 2098              		.cfi_restore 4
 2099              		.cfi_def_cfa_offset 0
 2100              		.loc 1 492 3 view .LVU675
 2101 0054 FFF7FEBF 		b	__port_irq_epilogue
 2102              	.LVL112:
 2103              	.L153:
 2104              		.align	2
 2105              	.L152:
 2106 0058 00000000 		.word	.LANCHOR1
 2107 005c 00000000 		.word	.LANCHOR6
ARM GAS  C:\Users\DEVELO~1\AppData\Local\Temp\cc2saCCQ.s 			page 38


 2108 0060 08000000 		.word	.LANCHOR1+8
 2109              		.cfi_endproc
 2110              	.LFE444:
 2111              		.size	VectorD0, .-VectorD0
 2112              		.section	.text.Vector10C,"ax",%progbits
 2113              		.align	1
 2114              		.p2align 4,,15
 2115              		.global	Vector10C
 2116              		.syntax unified
 2117              		.thumb
 2118              		.thumb_func
 2119              		.type	Vector10C, %function
 2120              	Vector10C:
 2121              	.LFB445:
 2122              		.loc 1 507 38 is_stmt 1 view -0
 2123              		.cfi_startproc
 2124              		@ args = 0, pretend = 0, frame = 0
 2125              		@ frame_needed = 0, uses_anonymous_args = 0
 2126              		.loc 1 509 3 view .LVU677
 2127              		.loc 1 509 3 view .LVU678
 2128              		.loc 1 509 3 view .LVU679
 2129              		.loc 1 509 3 view .LVU680
 2130              		.loc 1 509 3 view .LVU681
 2131              		.loc 1 507 38 is_stmt 0 view .LVU682
 2132 0000 10B5     		push	{r4, lr}
 2133              		.cfi_def_cfa_offset 8
 2134              		.cfi_offset 4, -8
 2135              		.cfi_offset 14, -4
 2136              	.LBB516:
 2137              	.LBB517:
 2138              		.loc 1 374 12 view .LVU683
 2139 0002 154C     		ldr	r4, .L165
 2140              	.LBE517:
 2141              	.LBE516:
 2142              		.loc 1 509 3 view .LVU684
 2143 0004 1548     		ldr	r0, .L165+4
 2144 0006 FFF7FEFF 		bl	__trace_isr_enter
 2145              	.LVL113:
 2146              		.loc 1 509 22 is_stmt 1 view .LVU685
 2147              		.loc 1 511 3 view .LVU686
 2148              	.LBB536:
 2149              	.LBI516:
 2150              		.loc 1 371 13 view .LVU687
 2151              	.LBB534:
 2152              		.loc 1 372 3 view .LVU688
 2153              		.loc 1 374 3 view .LVU689
 2154              		.loc 1 374 12 is_stmt 0 view .LVU690
 2155 000a E269     		ldr	r2, [r4, #28]
 2156              		.loc 1 374 17 view .LVU691
 2157 000c 5369     		ldr	r3, [r2, #20]
 2158              		.loc 1 374 33 view .LVU692
 2159 000e 1169     		ldr	r1, [r2, #16]
 2160              		.loc 1 374 6 view .LVU693
 2161 0010 0B40     		ands	r3, r3, r1
 2162              	.LVL114:
 2163              		.loc 1 375 3 is_stmt 1 view .LVU694
 2164              		.loc 1 375 19 is_stmt 0 view .LVU695
ARM GAS  C:\Users\DEVELO~1\AppData\Local\Temp\cc2saCCQ.s 			page 39


 2165 0012 9361     		str	r3, [r2, #24]
 2166              		.loc 1 377 3 is_stmt 1 view .LVU696
 2167              		.loc 1 377 6 is_stmt 0 view .LVU697
 2168 0014 5B06     		lsls	r3, r3, #25
 2169              	.LVL115:
 2170              		.loc 1 377 6 view .LVU698
 2171 0016 06D4     		bmi	.L164
 2172              		.loc 1 383 5 is_stmt 1 view .LVU699
 2173              		.loc 1 383 51 view .LVU700
 2174              	.LVL116:
 2175              		.loc 1 383 51 is_stmt 0 view .LVU701
 2176              	.LBE534:
 2177              	.LBE536:
 2178              		.loc 1 513 3 is_stmt 1 view .LVU702
 2179              		.loc 1 513 3 view .LVU703
 2180 0018 1048     		ldr	r0, .L165+4
 2181 001a FFF7FEFF 		bl	__trace_isr_leave
 2182              	.LVL117:
 2183              		.loc 1 513 3 view .LVU704
 2184              		.loc 1 513 3 view .LVU705
 2185              		.loc 1 513 3 view .LVU706
 2186              		.loc 1 514 1 is_stmt 0 view .LVU707
 2187 001e BDE81040 		pop	{r4, lr}
 2188              		.cfi_remember_state
 2189              		.cfi_restore 14
 2190              		.cfi_restore 4
 2191              		.cfi_def_cfa_offset 0
 2192              		.loc 1 513 3 view .LVU708
 2193 0022 FFF7FEBF 		b	__port_irq_epilogue
 2194              	.LVL118:
 2195              	.L164:
 2196              		.cfi_restore_state
 2197              	.LBB537:
 2198              	.LBB535:
 2199              	.LBB518:
 2200              	.LBI518:
 2201              		.loc 1 371 13 is_stmt 1 view .LVU709
 2202              	.LBB519:
 2203              		.loc 1 380 5 view .LVU710
 2204 0026 2046     		mov	r0, r4
 2205 0028 FFF7FEFF 		bl	spi_lld_stop_abort
 2206              	.LVL119:
 2207              		.loc 1 383 5 view .LVU711
 2208 002c 6368     		ldr	r3, [r4, #4]
 2209 002e 9B68     		ldr	r3, [r3, #8]
 2210 0030 0BB1     		cbz	r3, .L156
 2211              		.loc 1 383 5 view .LVU712
 2212 0032 2046     		mov	r0, r4
 2213 0034 9847     		blx	r3
 2214              	.LVL120:
 2215              	.L156:
 2216              		.loc 1 383 5 view .LVU713
 2217              	.LBB520:
 2218              	.LBI520:
 2219              		.loc 3 595 20 view .LVU714
 2220              		.loc 3 597 3 view .LVU715
 2221              	.LBB521:
ARM GAS  C:\Users\DEVELO~1\AppData\Local\Temp\cc2saCCQ.s 			page 40


 2222              	.LBI521:
 2223              		.loc 4 451 20 view .LVU716
 2224              		.loc 4 453 3 view .LVU717
 2225              	.LBB522:
 2226              	.LBI522:
 2227              		.loc 5 845 27 view .LVU718
 2228              		.loc 5 847 3 view .LVU719
 2229              	.LBB523:
 2230              	.LBI523:
 2231              		.loc 5 806 27 view .LVU720
 2232              		.loc 5 814 3 view .LVU721
 2233              	.LBB524:
 2234              	.LBI524:
 2235              		.loc 6 491 27 view .LVU722
 2236              	.LBB525:
 2237              		.loc 6 493 3 view .LVU723
 2238 0036 3023     		movs	r3, #48
 2239              		.syntax unified
 2240              	@ 493 "../../../os/common/ext/ARM/CMSIS/Core/Include/cmsis_gcc.h" 1
 2241 0038 83F31188 		MSR basepri, r3
 2242              	@ 0 "" 2
 2243              	.LVL121:
 2244              		.loc 6 493 3 is_stmt 0 view .LVU724
 2245              		.thumb
 2246              		.syntax unified
 2247              	.LBE525:
 2248              	.LBE524:
 2249              	.LBE523:
 2250              	.LBE522:
 2251              		.loc 4 454 35 is_stmt 1 view .LVU725
 2252              		.loc 4 455 30 view .LVU726
 2253              	.LBE521:
 2254              	.LBE520:
 2255              		.loc 1 383 5 view .LVU727
 2256              	.LBB526:
 2257              	.LBI526:
 2258              		.loc 3 837 20 view .LVU728
 2259              	.LBB527:
 2260              		.loc 3 839 3 view .LVU729
 2261 003c 0021     		movs	r1, #0
 2262 003e 0848     		ldr	r0, .L165+8
 2263 0040 FFF7FEFF 		bl	chThdResumeI
 2264              	.LVL122:
 2265              		.loc 3 839 3 is_stmt 0 view .LVU730
 2266              	.LBE527:
 2267              	.LBE526:
 2268              		.loc 1 383 5 is_stmt 1 view .LVU731
 2269              	.LBB528:
 2270              	.LBI528:
 2271              		.loc 3 606 20 view .LVU732
 2272              		.loc 3 608 3 view .LVU733
 2273              	.LBB529:
 2274              	.LBI529:
 2275              		.loc 4 473 20 view .LVU734
 2276              		.loc 4 475 32 view .LVU735
 2277              		.loc 4 476 34 view .LVU736
 2278              		.loc 4 477 3 view .LVU737
ARM GAS  C:\Users\DEVELO~1\AppData\Local\Temp\cc2saCCQ.s 			page 41


 2279              	.LBB530:
 2280              	.LBI530:
 2281              		.loc 5 856 27 view .LVU738
 2282              		.loc 5 858 3 view .LVU739
 2283              	.LBB531:
 2284              	.LBI531:
 2285              		.loc 5 830 27 view .LVU740
 2286              		.loc 5 833 3 view .LVU741
 2287              	.LBB532:
 2288              	.LBI532:
 2289              		.loc 6 491 27 view .LVU742
 2290              	.LBB533:
 2291              		.loc 6 493 3 view .LVU743
 2292 0044 0023     		movs	r3, #0
 2293              		.syntax unified
 2294              	@ 493 "../../../os/common/ext/ARM/CMSIS/Core/Include/cmsis_gcc.h" 1
 2295 0046 83F31188 		MSR basepri, r3
 2296              	@ 0 "" 2
 2297              	.LVL123:
 2298              		.loc 6 493 3 is_stmt 0 view .LVU744
 2299              		.thumb
 2300              		.syntax unified
 2301              	.LBE533:
 2302              	.LBE532:
 2303              	.LBE531:
 2304              	.LBE530:
 2305              	.LBE529:
 2306              	.LBE528:
 2307              		.loc 1 383 5 is_stmt 1 view .LVU745
 2308              		.loc 1 383 51 view .LVU746
 2309              		.loc 1 383 51 is_stmt 0 view .LVU747
 2310              	.LBE519:
 2311              	.LBE518:
 2312              		.loc 1 383 5 is_stmt 1 view .LVU748
 2313              		.loc 1 383 51 view .LVU749
 2314              		.loc 1 383 51 is_stmt 0 view .LVU750
 2315              	.LBE535:
 2316              	.LBE537:
 2317              		.loc 1 513 3 is_stmt 1 view .LVU751
 2318              		.loc 1 513 3 view .LVU752
 2319 004a 0448     		ldr	r0, .L165+4
 2320 004c FFF7FEFF 		bl	__trace_isr_leave
 2321              	.LVL124:
 2322              		.loc 1 513 3 view .LVU753
 2323              		.loc 1 513 3 view .LVU754
 2324              		.loc 1 513 3 view .LVU755
 2325              		.loc 1 514 1 is_stmt 0 view .LVU756
 2326 0050 BDE81040 		pop	{r4, lr}
 2327              		.cfi_restore 14
 2328              		.cfi_restore 4
 2329              		.cfi_def_cfa_offset 0
 2330              		.loc 1 513 3 view .LVU757
 2331 0054 FFF7FEBF 		b	__port_irq_epilogue
 2332              	.LVL125:
 2333              	.L166:
 2334              		.align	2
 2335              	.L165:
ARM GAS  C:\Users\DEVELO~1\AppData\Local\Temp\cc2saCCQ.s 			page 42


 2336 0058 00000000 		.word	.LANCHOR2
 2337 005c 00000000 		.word	.LANCHOR7
 2338 0060 08000000 		.word	.LANCHOR2+8
 2339              		.cfi_endproc
 2340              	.LFE445:
 2341              		.size	Vector10C, .-Vector10C
 2342              		.section	.text.Vector194,"ax",%progbits
 2343              		.align	1
 2344              		.p2align 4,,15
 2345              		.global	Vector194
 2346              		.syntax unified
 2347              		.thumb
 2348              		.thumb_func
 2349              		.type	Vector194, %function
 2350              	Vector194:
 2351              	.LFB446:
 2352              		.loc 1 549 38 is_stmt 1 view -0
 2353              		.cfi_startproc
 2354              		@ args = 0, pretend = 0, frame = 0
 2355              		@ frame_needed = 0, uses_anonymous_args = 0
 2356              		.loc 1 551 3 view .LVU759
 2357              		.loc 1 551 3 view .LVU760
 2358              		.loc 1 551 3 view .LVU761
 2359              		.loc 1 551 3 view .LVU762
 2360              		.loc 1 551 3 view .LVU763
 2361              		.loc 1 549 38 is_stmt 0 view .LVU764
 2362 0000 10B5     		push	{r4, lr}
 2363              		.cfi_def_cfa_offset 8
 2364              		.cfi_offset 4, -8
 2365              		.cfi_offset 14, -4
 2366              	.LBB557:
 2367              	.LBB558:
 2368              		.loc 1 374 12 view .LVU765
 2369 0002 154C     		ldr	r4, .L178
 2370              	.LBE558:
 2371              	.LBE557:
 2372              		.loc 1 551 3 view .LVU766
 2373 0004 1548     		ldr	r0, .L178+4
 2374 0006 FFF7FEFF 		bl	__trace_isr_enter
 2375              	.LVL126:
 2376              		.loc 1 551 22 is_stmt 1 view .LVU767
 2377              		.loc 1 553 3 view .LVU768
 2378              	.LBB577:
 2379              	.LBI557:
 2380              		.loc 1 371 13 view .LVU769
 2381              	.LBB575:
 2382              		.loc 1 372 3 view .LVU770
 2383              		.loc 1 374 3 view .LVU771
 2384              		.loc 1 374 12 is_stmt 0 view .LVU772
 2385 000a E269     		ldr	r2, [r4, #28]
 2386              		.loc 1 374 17 view .LVU773
 2387 000c 5369     		ldr	r3, [r2, #20]
 2388              		.loc 1 374 33 view .LVU774
 2389 000e 1169     		ldr	r1, [r2, #16]
 2390              		.loc 1 374 6 view .LVU775
 2391 0010 0B40     		ands	r3, r3, r1
 2392              	.LVL127:
ARM GAS  C:\Users\DEVELO~1\AppData\Local\Temp\cc2saCCQ.s 			page 43


 2393              		.loc 1 375 3 is_stmt 1 view .LVU776
 2394              		.loc 1 375 19 is_stmt 0 view .LVU777
 2395 0012 9361     		str	r3, [r2, #24]
 2396              		.loc 1 377 3 is_stmt 1 view .LVU778
 2397              		.loc 1 377 6 is_stmt 0 view .LVU779
 2398 0014 5B06     		lsls	r3, r3, #25
 2399              	.LVL128:
 2400              		.loc 1 377 6 view .LVU780
 2401 0016 06D4     		bmi	.L177
 2402              		.loc 1 383 5 is_stmt 1 view .LVU781
 2403              		.loc 1 383 51 view .LVU782
 2404              	.LVL129:
 2405              		.loc 1 383 51 is_stmt 0 view .LVU783
 2406              	.LBE575:
 2407              	.LBE577:
 2408              		.loc 1 555 3 is_stmt 1 view .LVU784
 2409              		.loc 1 555 3 view .LVU785
 2410 0018 1048     		ldr	r0, .L178+4
 2411 001a FFF7FEFF 		bl	__trace_isr_leave
 2412              	.LVL130:
 2413              		.loc 1 555 3 view .LVU786
 2414              		.loc 1 555 3 view .LVU787
 2415              		.loc 1 555 3 view .LVU788
 2416              		.loc 1 556 1 is_stmt 0 view .LVU789
 2417 001e BDE81040 		pop	{r4, lr}
 2418              		.cfi_remember_state
 2419              		.cfi_restore 14
 2420              		.cfi_restore 4
 2421              		.cfi_def_cfa_offset 0
 2422              		.loc 1 555 3 view .LVU790
 2423 0022 FFF7FEBF 		b	__port_irq_epilogue
 2424              	.LVL131:
 2425              	.L177:
 2426              		.cfi_restore_state
 2427              	.LBB578:
 2428              	.LBB576:
 2429              	.LBB559:
 2430              	.LBI559:
 2431              		.loc 1 371 13 is_stmt 1 view .LVU791
 2432              	.LBB560:
 2433              		.loc 1 380 5 view .LVU792
 2434 0026 2046     		mov	r0, r4
 2435 0028 FFF7FEFF 		bl	spi_lld_stop_abort
 2436              	.LVL132:
 2437              		.loc 1 383 5 view .LVU793
 2438 002c 6368     		ldr	r3, [r4, #4]
 2439 002e 9B68     		ldr	r3, [r3, #8]
 2440 0030 0BB1     		cbz	r3, .L169
 2441              		.loc 1 383 5 view .LVU794
 2442 0032 2046     		mov	r0, r4
 2443 0034 9847     		blx	r3
 2444              	.LVL133:
 2445              	.L169:
 2446              		.loc 1 383 5 view .LVU795
 2447              	.LBB561:
 2448              	.LBI561:
 2449              		.loc 3 595 20 view .LVU796
ARM GAS  C:\Users\DEVELO~1\AppData\Local\Temp\cc2saCCQ.s 			page 44


 2450              		.loc 3 597 3 view .LVU797
 2451              	.LBB562:
 2452              	.LBI562:
 2453              		.loc 4 451 20 view .LVU798
 2454              		.loc 4 453 3 view .LVU799
 2455              	.LBB563:
 2456              	.LBI563:
 2457              		.loc 5 845 27 view .LVU800
 2458              		.loc 5 847 3 view .LVU801
 2459              	.LBB564:
 2460              	.LBI564:
 2461              		.loc 5 806 27 view .LVU802
 2462              		.loc 5 814 3 view .LVU803
 2463              	.LBB565:
 2464              	.LBI565:
 2465              		.loc 6 491 27 view .LVU804
 2466              	.LBB566:
 2467              		.loc 6 493 3 view .LVU805
 2468 0036 3023     		movs	r3, #48
 2469              		.syntax unified
 2470              	@ 493 "../../../os/common/ext/ARM/CMSIS/Core/Include/cmsis_gcc.h" 1
 2471 0038 83F31188 		MSR basepri, r3
 2472              	@ 0 "" 2
 2473              	.LVL134:
 2474              		.loc 6 493 3 is_stmt 0 view .LVU806
 2475              		.thumb
 2476              		.syntax unified
 2477              	.LBE566:
 2478              	.LBE565:
 2479              	.LBE564:
 2480              	.LBE563:
 2481              		.loc 4 454 35 is_stmt 1 view .LVU807
 2482              		.loc 4 455 30 view .LVU808
 2483              	.LBE562:
 2484              	.LBE561:
 2485              		.loc 1 383 5 view .LVU809
 2486              	.LBB567:
 2487              	.LBI567:
 2488              		.loc 3 837 20 view .LVU810
 2489              	.LBB568:
 2490              		.loc 3 839 3 view .LVU811
 2491 003c 0021     		movs	r1, #0
 2492 003e 0848     		ldr	r0, .L178+8
 2493 0040 FFF7FEFF 		bl	chThdResumeI
 2494              	.LVL135:
 2495              		.loc 3 839 3 is_stmt 0 view .LVU812
 2496              	.LBE568:
 2497              	.LBE567:
 2498              		.loc 1 383 5 is_stmt 1 view .LVU813
 2499              	.LBB569:
 2500              	.LBI569:
 2501              		.loc 3 606 20 view .LVU814
 2502              		.loc 3 608 3 view .LVU815
 2503              	.LBB570:
 2504              	.LBI570:
 2505              		.loc 4 473 20 view .LVU816
 2506              		.loc 4 475 32 view .LVU817
ARM GAS  C:\Users\DEVELO~1\AppData\Local\Temp\cc2saCCQ.s 			page 45


 2507              		.loc 4 476 34 view .LVU818
 2508              		.loc 4 477 3 view .LVU819
 2509              	.LBB571:
 2510              	.LBI571:
 2511              		.loc 5 856 27 view .LVU820
 2512              		.loc 5 858 3 view .LVU821
 2513              	.LBB572:
 2514              	.LBI572:
 2515              		.loc 5 830 27 view .LVU822
 2516              		.loc 5 833 3 view .LVU823
 2517              	.LBB573:
 2518              	.LBI573:
 2519              		.loc 6 491 27 view .LVU824
 2520              	.LBB574:
 2521              		.loc 6 493 3 view .LVU825
 2522 0044 0023     		movs	r3, #0
 2523              		.syntax unified
 2524              	@ 493 "../../../os/common/ext/ARM/CMSIS/Core/Include/cmsis_gcc.h" 1
 2525 0046 83F31188 		MSR basepri, r3
 2526              	@ 0 "" 2
 2527              	.LVL136:
 2528              		.loc 6 493 3 is_stmt 0 view .LVU826
 2529              		.thumb
 2530              		.syntax unified
 2531              	.LBE574:
 2532              	.LBE573:
 2533              	.LBE572:
 2534              	.LBE571:
 2535              	.LBE570:
 2536              	.LBE569:
 2537              		.loc 1 383 5 is_stmt 1 view .LVU827
 2538              		.loc 1 383 51 view .LVU828
 2539              		.loc 1 383 51 is_stmt 0 view .LVU829
 2540              	.LBE560:
 2541              	.LBE559:
 2542              		.loc 1 383 5 is_stmt 1 view .LVU830
 2543              		.loc 1 383 51 view .LVU831
 2544              		.loc 1 383 51 is_stmt 0 view .LVU832
 2545              	.LBE576:
 2546              	.LBE578:
 2547              		.loc 1 555 3 is_stmt 1 view .LVU833
 2548              		.loc 1 555 3 view .LVU834
 2549 004a 0448     		ldr	r0, .L178+4
 2550 004c FFF7FEFF 		bl	__trace_isr_leave
 2551              	.LVL137:
 2552              		.loc 1 555 3 view .LVU835
 2553              		.loc 1 555 3 view .LVU836
 2554              		.loc 1 555 3 view .LVU837
 2555              		.loc 1 556 1 is_stmt 0 view .LVU838
 2556 0050 BDE81040 		pop	{r4, lr}
 2557              		.cfi_restore 14
 2558              		.cfi_restore 4
 2559              		.cfi_def_cfa_offset 0
 2560              		.loc 1 555 3 view .LVU839
 2561 0054 FFF7FEBF 		b	__port_irq_epilogue
 2562              	.LVL138:
 2563              	.L179:
ARM GAS  C:\Users\DEVELO~1\AppData\Local\Temp\cc2saCCQ.s 			page 46


 2564              		.align	2
 2565              	.L178:
 2566 0058 00000000 		.word	.LANCHOR3
 2567 005c 00000000 		.word	.LANCHOR8
 2568 0060 08000000 		.word	.LANCHOR3+8
 2569              		.cfi_endproc
 2570              	.LFE446:
 2571              		.size	Vector194, .-Vector194
 2572              		.section	.text.Vector198,"ax",%progbits
 2573              		.align	1
 2574              		.p2align 4,,15
 2575              		.global	Vector198
 2576              		.syntax unified
 2577              		.thumb
 2578              		.thumb_func
 2579              		.type	Vector198, %function
 2580              	Vector198:
 2581              	.LFB447:
 2582              		.loc 1 570 38 is_stmt 1 view -0
 2583              		.cfi_startproc
 2584              		@ args = 0, pretend = 0, frame = 0
 2585              		@ frame_needed = 0, uses_anonymous_args = 0
 2586              		.loc 1 572 3 view .LVU841
 2587              		.loc 1 572 3 view .LVU842
 2588              		.loc 1 572 3 view .LVU843
 2589              		.loc 1 572 3 view .LVU844
 2590              		.loc 1 572 3 view .LVU845
 2591              		.loc 1 570 38 is_stmt 0 view .LVU846
 2592 0000 10B5     		push	{r4, lr}
 2593              		.cfi_def_cfa_offset 8
 2594              		.cfi_offset 4, -8
 2595              		.cfi_offset 14, -4
 2596              	.LBB598:
 2597              	.LBB599:
 2598              		.loc 1 374 12 view .LVU847
 2599 0002 154C     		ldr	r4, .L191
 2600              	.LBE599:
 2601              	.LBE598:
 2602              		.loc 1 572 3 view .LVU848
 2603 0004 1548     		ldr	r0, .L191+4
 2604 0006 FFF7FEFF 		bl	__trace_isr_enter
 2605              	.LVL139:
 2606              		.loc 1 572 22 is_stmt 1 view .LVU849
 2607              		.loc 1 574 3 view .LVU850
 2608              	.LBB618:
 2609              	.LBI598:
 2610              		.loc 1 371 13 view .LVU851
 2611              	.LBB616:
 2612              		.loc 1 372 3 view .LVU852
 2613              		.loc 1 374 3 view .LVU853
 2614              		.loc 1 374 12 is_stmt 0 view .LVU854
 2615 000a E269     		ldr	r2, [r4, #28]
 2616              		.loc 1 374 17 view .LVU855
 2617 000c 5369     		ldr	r3, [r2, #20]
 2618              		.loc 1 374 33 view .LVU856
 2619 000e 1169     		ldr	r1, [r2, #16]
 2620              		.loc 1 374 6 view .LVU857
ARM GAS  C:\Users\DEVELO~1\AppData\Local\Temp\cc2saCCQ.s 			page 47


 2621 0010 0B40     		ands	r3, r3, r1
 2622              	.LVL140:
 2623              		.loc 1 375 3 is_stmt 1 view .LVU858
 2624              		.loc 1 375 19 is_stmt 0 view .LVU859
 2625 0012 9361     		str	r3, [r2, #24]
 2626              		.loc 1 377 3 is_stmt 1 view .LVU860
 2627              		.loc 1 377 6 is_stmt 0 view .LVU861
 2628 0014 5B06     		lsls	r3, r3, #25
 2629              	.LVL141:
 2630              		.loc 1 377 6 view .LVU862
 2631 0016 06D4     		bmi	.L190
 2632              		.loc 1 383 5 is_stmt 1 view .LVU863
 2633              		.loc 1 383 51 view .LVU864
 2634              	.LVL142:
 2635              		.loc 1 383 51 is_stmt 0 view .LVU865
 2636              	.LBE616:
 2637              	.LBE618:
 2638              		.loc 1 576 3 is_stmt 1 view .LVU866
 2639              		.loc 1 576 3 view .LVU867
 2640 0018 1048     		ldr	r0, .L191+4
 2641 001a FFF7FEFF 		bl	__trace_isr_leave
 2642              	.LVL143:
 2643              		.loc 1 576 3 view .LVU868
 2644              		.loc 1 576 3 view .LVU869
 2645              		.loc 1 576 3 view .LVU870
 2646              		.loc 1 577 1 is_stmt 0 view .LVU871
 2647 001e BDE81040 		pop	{r4, lr}
 2648              		.cfi_remember_state
 2649              		.cfi_restore 14
 2650              		.cfi_restore 4
 2651              		.cfi_def_cfa_offset 0
 2652              		.loc 1 576 3 view .LVU872
 2653 0022 FFF7FEBF 		b	__port_irq_epilogue
 2654              	.LVL144:
 2655              	.L190:
 2656              		.cfi_restore_state
 2657              	.LBB619:
 2658              	.LBB617:
 2659              	.LBB600:
 2660              	.LBI600:
 2661              		.loc 1 371 13 is_stmt 1 view .LVU873
 2662              	.LBB601:
 2663              		.loc 1 380 5 view .LVU874
 2664 0026 2046     		mov	r0, r4
 2665 0028 FFF7FEFF 		bl	spi_lld_stop_abort
 2666              	.LVL145:
 2667              		.loc 1 383 5 view .LVU875
 2668 002c 6368     		ldr	r3, [r4, #4]
 2669 002e 9B68     		ldr	r3, [r3, #8]
 2670 0030 0BB1     		cbz	r3, .L182
 2671              		.loc 1 383 5 view .LVU876
 2672 0032 2046     		mov	r0, r4
 2673 0034 9847     		blx	r3
 2674              	.LVL146:
 2675              	.L182:
 2676              		.loc 1 383 5 view .LVU877
 2677              	.LBB602:
ARM GAS  C:\Users\DEVELO~1\AppData\Local\Temp\cc2saCCQ.s 			page 48


 2678              	.LBI602:
 2679              		.loc 3 595 20 view .LVU878
 2680              		.loc 3 597 3 view .LVU879
 2681              	.LBB603:
 2682              	.LBI603:
 2683              		.loc 4 451 20 view .LVU880
 2684              		.loc 4 453 3 view .LVU881
 2685              	.LBB604:
 2686              	.LBI604:
 2687              		.loc 5 845 27 view .LVU882
 2688              		.loc 5 847 3 view .LVU883
 2689              	.LBB605:
 2690              	.LBI605:
 2691              		.loc 5 806 27 view .LVU884
 2692              		.loc 5 814 3 view .LVU885
 2693              	.LBB606:
 2694              	.LBI606:
 2695              		.loc 6 491 27 view .LVU886
 2696              	.LBB607:
 2697              		.loc 6 493 3 view .LVU887
 2698 0036 3023     		movs	r3, #48
 2699              		.syntax unified
 2700              	@ 493 "../../../os/common/ext/ARM/CMSIS/Core/Include/cmsis_gcc.h" 1
 2701 0038 83F31188 		MSR basepri, r3
 2702              	@ 0 "" 2
 2703              	.LVL147:
 2704              		.loc 6 493 3 is_stmt 0 view .LVU888
 2705              		.thumb
 2706              		.syntax unified
 2707              	.LBE607:
 2708              	.LBE606:
 2709              	.LBE605:
 2710              	.LBE604:
 2711              		.loc 4 454 35 is_stmt 1 view .LVU889
 2712              		.loc 4 455 30 view .LVU890
 2713              	.LBE603:
 2714              	.LBE602:
 2715              		.loc 1 383 5 view .LVU891
 2716              	.LBB608:
 2717              	.LBI608:
 2718              		.loc 3 837 20 view .LVU892
 2719              	.LBB609:
 2720              		.loc 3 839 3 view .LVU893
 2721 003c 0021     		movs	r1, #0
 2722 003e 0848     		ldr	r0, .L191+8
 2723 0040 FFF7FEFF 		bl	chThdResumeI
 2724              	.LVL148:
 2725              		.loc 3 839 3 is_stmt 0 view .LVU894
 2726              	.LBE609:
 2727              	.LBE608:
 2728              		.loc 1 383 5 is_stmt 1 view .LVU895
 2729              	.LBB610:
 2730              	.LBI610:
 2731              		.loc 3 606 20 view .LVU896
 2732              		.loc 3 608 3 view .LVU897
 2733              	.LBB611:
 2734              	.LBI611:
ARM GAS  C:\Users\DEVELO~1\AppData\Local\Temp\cc2saCCQ.s 			page 49


 2735              		.loc 4 473 20 view .LVU898
 2736              		.loc 4 475 32 view .LVU899
 2737              		.loc 4 476 34 view .LVU900
 2738              		.loc 4 477 3 view .LVU901
 2739              	.LBB612:
 2740              	.LBI612:
 2741              		.loc 5 856 27 view .LVU902
 2742              		.loc 5 858 3 view .LVU903
 2743              	.LBB613:
 2744              	.LBI613:
 2745              		.loc 5 830 27 view .LVU904
 2746              		.loc 5 833 3 view .LVU905
 2747              	.LBB614:
 2748              	.LBI614:
 2749              		.loc 6 491 27 view .LVU906
 2750              	.LBB615:
 2751              		.loc 6 493 3 view .LVU907
 2752 0044 0023     		movs	r3, #0
 2753              		.syntax unified
 2754              	@ 493 "../../../os/common/ext/ARM/CMSIS/Core/Include/cmsis_gcc.h" 1
 2755 0046 83F31188 		MSR basepri, r3
 2756              	@ 0 "" 2
 2757              	.LVL149:
 2758              		.loc 6 493 3 is_stmt 0 view .LVU908
 2759              		.thumb
 2760              		.syntax unified
 2761              	.LBE615:
 2762              	.LBE614:
 2763              	.LBE613:
 2764              	.LBE612:
 2765              	.LBE611:
 2766              	.LBE610:
 2767              		.loc 1 383 5 is_stmt 1 view .LVU909
 2768              		.loc 1 383 51 view .LVU910
 2769              		.loc 1 383 51 is_stmt 0 view .LVU911
 2770              	.LBE601:
 2771              	.LBE600:
 2772              		.loc 1 383 5 is_stmt 1 view .LVU912
 2773              		.loc 1 383 51 view .LVU913
 2774              		.loc 1 383 51 is_stmt 0 view .LVU914
 2775              	.LBE617:
 2776              	.LBE619:
 2777              		.loc 1 576 3 is_stmt 1 view .LVU915
 2778              		.loc 1 576 3 view .LVU916
 2779 004a 0448     		ldr	r0, .L191+4
 2780 004c FFF7FEFF 		bl	__trace_isr_leave
 2781              	.LVL150:
 2782              		.loc 1 576 3 view .LVU917
 2783              		.loc 1 576 3 view .LVU918
 2784              		.loc 1 576 3 view .LVU919
 2785              		.loc 1 577 1 is_stmt 0 view .LVU920
 2786 0050 BDE81040 		pop	{r4, lr}
 2787              		.cfi_restore 14
 2788              		.cfi_restore 4
 2789              		.cfi_def_cfa_offset 0
 2790              		.loc 1 576 3 view .LVU921
 2791 0054 FFF7FEBF 		b	__port_irq_epilogue
ARM GAS  C:\Users\DEVELO~1\AppData\Local\Temp\cc2saCCQ.s 			page 50


 2792              	.LVL151:
 2793              	.L192:
 2794              		.align	2
 2795              	.L191:
 2796 0058 00000000 		.word	.LANCHOR4
 2797 005c 00000000 		.word	.LANCHOR9
 2798 0060 08000000 		.word	.LANCHOR4+8
 2799              		.cfi_endproc
 2800              	.LFE447:
 2801              		.size	Vector198, .-Vector198
 2802              		.section	.text.spi_lld_init,"ax",%progbits
 2803              		.align	1
 2804              		.p2align 4,,15
 2805              		.global	spi_lld_init
 2806              		.syntax unified
 2807              		.thumb
 2808              		.thumb_func
 2809              		.type	spi_lld_init, %function
 2810              	spi_lld_init:
 2811              	.LFB448:
 2812              		.loc 1 590 25 is_stmt 1 view -0
 2813              		.cfi_startproc
 2814              		@ args = 0, pretend = 0, frame = 0
 2815              		@ frame_needed = 0, uses_anonymous_args = 0
 2816              		.loc 1 593 3 view .LVU923
 2817              		.loc 1 590 25 is_stmt 0 view .LVU924
 2818 0000 2DE9F041 		push	{r4, r5, r6, r7, r8, lr}
 2819              		.cfi_def_cfa_offset 24
 2820              		.cfi_offset 4, -24
 2821              		.cfi_offset 5, -20
 2822              		.cfi_offset 6, -16
 2823              		.cfi_offset 7, -12
 2824              		.cfi_offset 8, -8
 2825              		.cfi_offset 14, -4
 2826              		.loc 1 593 3 view .LVU925
 2827 0004 2D4D     		ldr	r5, .L195
 2828              		.loc 1 596 19 view .LVU926
 2829 0006 0024     		movs	r4, #0
 2830              		.loc 1 600 19 view .LVU927
 2831 0008 DFF8B480 		ldr	r8, .L195+4
 2832              		.loc 1 593 3 view .LVU928
 2833 000c 2846     		mov	r0, r5
 2834              		.loc 1 605 19 view .LVU929
 2835 000e 2D4F     		ldr	r7, .L195+8
 2836              		.loc 1 593 3 view .LVU930
 2837 0010 FFF7FEFF 		bl	spiObjectInit
 2838              	.LVL152:
 2839              		.loc 1 594 3 is_stmt 1 view .LVU931
 2840              		.loc 1 594 19 is_stmt 0 view .LVU932
 2841 0014 2C4B     		ldr	r3, .L195+12
 2842              		.loc 1 596 19 view .LVU933
 2843 0016 85F82040 		strb	r4, [r5, #32]
 2844              		.loc 1 610 3 view .LVU934
 2845 001a 0A21     		movs	r1, #10
 2846              		.loc 1 594 19 view .LVU935
 2847 001c EB61     		str	r3, [r5, #28]
 2848              		.loc 1 596 3 is_stmt 1 view .LVU936
ARM GAS  C:\Users\DEVELO~1\AppData\Local\Temp\cc2saCCQ.s 			page 51


 2849              		.loc 1 598 3 view .LVU937
 2850              		.loc 1 599 3 view .LVU938
 2851              		.loc 1 610 3 is_stmt 0 view .LVU939
 2852 001e 2320     		movs	r0, #35
 2853              		.loc 1 598 19 view .LVU940
 2854 0020 6C62     		str	r4, [r5, #36]
 2855              		.loc 1 605 19 view .LVU941
 2856 0022 2F63     		str	r7, [r5, #48]
 2857              		.loc 1 681 3 view .LVU942
 2858 0024 294E     		ldr	r6, .L195+16
 2859              		.loc 1 600 19 view .LVU943
 2860 0026 C5E90A48 		strd	r4, r8, [r5, #40]
 2861              		.loc 1 605 3 is_stmt 1 view .LVU944
 2862              		.loc 1 610 3 view .LVU945
 2863              		.loc 1 615 3 is_stmt 0 view .LVU946
 2864 002a 294D     		ldr	r5, .L195+20
 2865              		.loc 1 610 3 view .LVU947
 2866 002c FFF7FEFF 		bl	nvicEnableVector
 2867              	.LVL153:
 2868              		.loc 1 615 3 is_stmt 1 view .LVU948
 2869 0030 2846     		mov	r0, r5
 2870 0032 FFF7FEFF 		bl	spiObjectInit
 2871              	.LVL154:
 2872              		.loc 1 616 3 view .LVU949
 2873              		.loc 1 616 19 is_stmt 0 view .LVU950
 2874 0036 274B     		ldr	r3, .L195+24
 2875              		.loc 1 618 19 view .LVU951
 2876 0038 85F82040 		strb	r4, [r5, #32]
 2877              		.loc 1 632 3 view .LVU952
 2878 003c 0A21     		movs	r1, #10
 2879              		.loc 1 616 19 view .LVU953
 2880 003e EB61     		str	r3, [r5, #28]
 2881              		.loc 1 618 3 is_stmt 1 view .LVU954
 2882              		.loc 1 620 3 view .LVU955
 2883              		.loc 1 621 3 view .LVU956
 2884              		.loc 1 632 3 is_stmt 0 view .LVU957
 2885 0040 2420     		movs	r0, #36
 2886              		.loc 1 620 19 view .LVU958
 2887 0042 6C62     		str	r4, [r5, #36]
 2888              		.loc 1 627 19 view .LVU959
 2889 0044 2F63     		str	r7, [r5, #48]
 2890              		.loc 1 622 19 view .LVU960
 2891 0046 C5E90A48 		strd	r4, r8, [r5, #40]
 2892              		.loc 1 627 3 is_stmt 1 view .LVU961
 2893              		.loc 1 632 3 view .LVU962
 2894              		.loc 1 637 3 is_stmt 0 view .LVU963
 2895 004a 234D     		ldr	r5, .L195+28
 2896              		.loc 1 632 3 view .LVU964
 2897 004c FFF7FEFF 		bl	nvicEnableVector
 2898              	.LVL155:
 2899              		.loc 1 637 3 is_stmt 1 view .LVU965
 2900 0050 2846     		mov	r0, r5
 2901 0052 FFF7FEFF 		bl	spiObjectInit
 2902              	.LVL156:
 2903              		.loc 1 638 3 view .LVU966
 2904              		.loc 1 638 19 is_stmt 0 view .LVU967
 2905 0056 214B     		ldr	r3, .L195+32
ARM GAS  C:\Users\DEVELO~1\AppData\Local\Temp\cc2saCCQ.s 			page 52


 2906              		.loc 1 654 3 view .LVU968
 2907 0058 0A21     		movs	r1, #10
 2908 005a 3320     		movs	r0, #51
 2909              		.loc 1 638 19 view .LVU969
 2910 005c EB61     		str	r3, [r5, #28]
 2911              		.loc 1 640 3 is_stmt 1 view .LVU970
 2912              		.loc 1 642 3 view .LVU971
 2913              		.loc 1 643 3 view .LVU972
 2914              		.loc 1 640 19 is_stmt 0 view .LVU973
 2915 005e 85F82040 		strb	r4, [r5, #32]
 2916              		.loc 1 642 19 view .LVU974
 2917 0062 6C62     		str	r4, [r5, #36]
 2918              		.loc 1 649 19 view .LVU975
 2919 0064 2F63     		str	r7, [r5, #48]
 2920              		.loc 1 644 19 view .LVU976
 2921 0066 C5E90A48 		strd	r4, r8, [r5, #40]
 2922              		.loc 1 649 3 is_stmt 1 view .LVU977
 2923              		.loc 1 654 3 view .LVU978
 2924 006a FFF7FEFF 		bl	nvicEnableVector
 2925              	.LVL157:
 2926              		.loc 1 681 3 view .LVU979
 2927 006e 3046     		mov	r0, r6
 2928 0070 FFF7FEFF 		bl	spiObjectInit
 2929              	.LVL158:
 2930              		.loc 1 682 3 view .LVU980
 2931              		.loc 1 703 3 is_stmt 0 view .LVU981
 2932 0074 1A4D     		ldr	r5, .L195+36
 2933              		.loc 1 682 19 view .LVU982
 2934 0076 1B4B     		ldr	r3, .L195+40
 2935              		.loc 1 698 3 view .LVU983
 2936 0078 0A21     		movs	r1, #10
 2937 007a 5520     		movs	r0, #85
 2938              		.loc 1 684 19 view .LVU984
 2939 007c 86F82040 		strb	r4, [r6, #32]
 2940              		.loc 1 682 19 view .LVU985
 2941 0080 F361     		str	r3, [r6, #28]
 2942              		.loc 1 684 3 is_stmt 1 view .LVU986
 2943              		.loc 1 686 3 view .LVU987
 2944              		.loc 1 687 3 view .LVU988
 2945              		.loc 1 686 19 is_stmt 0 view .LVU989
 2946 0082 7462     		str	r4, [r6, #36]
 2947              		.loc 1 693 19 view .LVU990
 2948 0084 3763     		str	r7, [r6, #48]
 2949              		.loc 1 688 19 view .LVU991
 2950 0086 C6E90A48 		strd	r4, r8, [r6, #40]
 2951              		.loc 1 693 3 is_stmt 1 view .LVU992
 2952              		.loc 1 698 3 view .LVU993
 2953 008a FFF7FEFF 		bl	nvicEnableVector
 2954              	.LVL159:
 2955              		.loc 1 703 3 view .LVU994
 2956 008e 2846     		mov	r0, r5
 2957 0090 FFF7FEFF 		bl	spiObjectInit
 2958              	.LVL160:
 2959              		.loc 1 704 3 view .LVU995
 2960              		.loc 1 706 19 is_stmt 0 view .LVU996
 2961 0094 0123     		movs	r3, #1
 2962              		.loc 1 704 19 view .LVU997
ARM GAS  C:\Users\DEVELO~1\AppData\Local\Temp\cc2saCCQ.s 			page 53


 2963 0096 1449     		ldr	r1, .L195+44
 2964              		.loc 1 710 19 view .LVU998
 2965 0098 41F20A02 		movw	r2, #4106
 2966              		.loc 1 706 19 view .LVU999
 2967 009c 85F82030 		strb	r3, [r5, #32]
 2968              		.loc 1 714 19 view .LVU1000
 2969 00a0 41F21803 		movw	r3, #4120
 2970              		.loc 1 704 19 view .LVU1001
 2971 00a4 E961     		str	r1, [r5, #28]
 2972              		.loc 1 706 3 is_stmt 1 view .LVU1002
 2973              		.loc 1 708 3 view .LVU1003
 2974              		.loc 1 709 3 view .LVU1004
 2975              		.loc 1 718 3 is_stmt 0 view .LVU1005
 2976 00a6 5620     		movs	r0, #86
 2977              		.loc 1 708 19 view .LVU1006
 2978 00a8 6C62     		str	r4, [r5, #36]
 2979              		.loc 1 718 3 view .LVU1007
 2980 00aa 0A21     		movs	r1, #10
 2981              		.loc 1 714 19 view .LVU1008
 2982 00ac 2B63     		str	r3, [r5, #48]
 2983              		.loc 1 710 19 view .LVU1009
 2984 00ae C5E90A42 		strd	r4, r2, [r5, #40]
 2985              		.loc 1 714 3 is_stmt 1 view .LVU1010
 2986              		.loc 1 718 3 view .LVU1011
 2987              		.loc 1 721 1 is_stmt 0 view .LVU1012
 2988 00b2 BDE8F041 		pop	{r4, r5, r6, r7, r8, lr}
 2989              		.cfi_restore 14
 2990              		.cfi_restore 8
 2991              		.cfi_restore 7
 2992              		.cfi_restore 6
 2993              		.cfi_restore 5
 2994              		.cfi_restore 4
 2995              		.cfi_def_cfa_offset 0
 2996              		.loc 1 718 3 view .LVU1013
 2997 00b6 FFF7FEBF 		b	nvicEnableVector
 2998              	.LVL161:
 2999              	.L196:
 3000 00ba 00BF     		.align	2
 3001              	.L195:
 3002 00bc 00000000 		.word	.LANCHOR0
 3003 00c0 16000100 		.word	65558
 3004 00c4 46000100 		.word	65606
 3005 00c8 00300140 		.word	1073819648
 3006 00cc 00000000 		.word	.LANCHOR3
 3007 00d0 00000000 		.word	.LANCHOR1
 3008 00d4 00380040 		.word	1073756160
 3009 00d8 00000000 		.word	.LANCHOR2
 3010 00dc 003C0040 		.word	1073757184
 3011 00e0 00000000 		.word	.LANCHOR4
 3012 00e4 00500140 		.word	1073827840
 3013 00e8 00140058 		.word	1476400128
 3014              		.cfi_endproc
 3015              	.LFE448:
 3016              		.size	spi_lld_init, .-spi_lld_init
 3017              		.section	.text.spi_lld_start,"ax",%progbits
 3018              		.align	1
 3019              		.p2align 4,,15
ARM GAS  C:\Users\DEVELO~1\AppData\Local\Temp\cc2saCCQ.s 			page 54


 3020              		.global	spi_lld_start
 3021              		.syntax unified
 3022              		.thumb
 3023              		.thumb_func
 3024              		.type	spi_lld_start, %function
 3025              	spi_lld_start:
 3026              	.LVL162:
 3027              	.LFB449:
 3028              		.loc 1 731 38 is_stmt 1 view -0
 3029              		.cfi_startproc
 3030              		@ args = 0, pretend = 0, frame = 0
 3031              		@ frame_needed = 0, uses_anonymous_args = 0
 3032              		.loc 1 732 3 view .LVU1015
 3033              		.loc 1 733 3 view .LVU1016
 3034              		.loc 1 736 3 view .LVU1017
 3035              		.loc 1 731 38 is_stmt 0 view .LVU1018
 3036 0000 10B5     		push	{r4, lr}
 3037              		.cfi_def_cfa_offset 8
 3038              		.cfi_offset 4, -8
 3039              		.cfi_offset 14, -4
 3040              		.loc 1 739 6 view .LVU1019
 3041 0002 0378     		ldrb	r3, [r0]	@ zero_extendqisi2
 3042              		.loc 1 736 18 view .LVU1020
 3043 0004 4FF0FF32 		mov	r2, #-1
 3044              		.loc 1 731 38 view .LVU1021
 3045 0008 0446     		mov	r4, r0
 3046              		.loc 1 739 6 view .LVU1022
 3047 000a 012B     		cmp	r3, #1
 3048              		.loc 1 736 18 view .LVU1023
 3049 000c 8263     		str	r2, [r0, #56]
 3050              		.loc 1 739 3 is_stmt 1 view .LVU1024
 3051              		.loc 1 739 6 is_stmt 0 view .LVU1025
 3052 000e 1ED0     		beq	.L242
 3053              		.loc 1 865 61 is_stmt 1 discriminator 1 view .LVU1026
 3054              		.loc 1 871 3 discriminator 1 view .LVU1027
 3055              		.loc 1 871 16 is_stmt 0 discriminator 1 view .LVU1028
 3056 0010 4068     		ldr	r0, [r0, #4]
 3057              	.LVL163:
 3058              		.loc 1 873 6 discriminator 1 view .LVU1029
 3059 0012 94F82020 		ldrb	r2, [r4, #32]	@ zero_extendqisi2
 3060              		.loc 1 871 31 discriminator 1 view .LVU1030
 3061 0016 4369     		ldr	r3, [r0, #20]
 3062 0018 03F01F03 		and	r3, r3, #31
 3063              		.loc 1 871 9 discriminator 1 view .LVU1031
 3064 001c 0133     		adds	r3, r3, #1
 3065              	.LVL164:
 3066              		.loc 1 873 3 is_stmt 1 discriminator 1 view .LVU1032
 3067              		.loc 1 873 6 is_stmt 0 discriminator 1 view .LVU1033
 3068 001e 002A     		cmp	r2, #0
 3069 0020 3BD1     		bne	.L213
 3070              	.L214:
 3071              		.loc 1 913 5 is_stmt 1 view .LVU1034
 3072              		.loc 1 913 8 is_stmt 0 view .LVU1035
 3073 0022 082B     		cmp	r3, #8
 3074              		.loc 1 916 49 view .LVU1036
 3075 0024 E26A     		ldr	r2, [r4, #44]
 3076              		.loc 1 913 8 view .LVU1037
ARM GAS  C:\Users\DEVELO~1\AppData\Local\Temp\cc2saCCQ.s 			page 55


 3077 0026 5DD8     		bhi	.L220
 3078              		.loc 1 915 7 is_stmt 1 view .LVU1038
 3079              		.loc 1 918 49 is_stmt 0 view .LVU1039
 3080 0028 236B     		ldr	r3, [r4, #48]
 3081              	.LVL165:
 3082              		.loc 1 916 49 view .LVU1040
 3083 002a 22F4F042 		bic	r2, r2, #30720
 3084              		.loc 1 917 7 is_stmt 1 view .LVU1041
 3085              		.loc 1 918 49 is_stmt 0 view .LVU1042
 3086 002e 23F4F043 		bic	r3, r3, #30720
 3087              	.L221:
 3088              		.loc 1 934 5 is_stmt 1 view .LVU1043
 3089              		.loc 1 934 8 is_stmt 0 view .LVU1044
 3090 0032 0178     		ldrb	r1, [r0]	@ zero_extendqisi2
 3091 0034 0029     		cmp	r1, #0
 3092 0036 50D0     		beq	.L223
 3093              		.loc 1 935 7 is_stmt 1 view .LVU1045
 3094              		.loc 1 935 23 is_stmt 0 view .LVU1046
 3095 0038 42F48472 		orr	r2, r2, #264
 3096              		.loc 1 936 7 is_stmt 1 view .LVU1047
 3097              		.loc 1 936 23 is_stmt 0 view .LVU1048
 3098 003c 43F48473 		orr	r3, r3, #264
 3099              	.L219:
 3100              		.loc 1 946 3 view .LVU1049
 3101 0040 E169     		ldr	r1, [r4, #28]
 3102              		.loc 1 904 23 view .LVU1050
 3103 0042 C4E90B23 		strd	r2, r3, [r4, #44]
 3104              		.loc 1 946 3 is_stmt 1 view .LVU1051
 3105 0046 FFF7FEFF 		bl	spi_lld_configure.isra.0
 3106              	.LVL166:
 3107              		.loc 1 948 3 view .LVU1052
 3108              		.loc 1 948 10 is_stmt 0 view .LVU1053
 3109 004a 0020     		movs	r0, #0
 3110              		.loc 1 949 1 view .LVU1054
 3111 004c 10BD     		pop	{r4, pc}
 3112              	.LVL167:
 3113              	.L242:
 3114              		.loc 1 740 5 is_stmt 1 view .LVU1055
 3115              		.loc 1 744 10 view .LVU1056
 3116              		.loc 1 744 13 is_stmt 0 view .LVU1057
 3117 004e C74B     		ldr	r3, .L249
 3118 0050 9842     		cmp	r0, r3
 3119 0052 68D0     		beq	.L243
 3120              		.loc 1 761 10 is_stmt 1 view .LVU1058
 3121              		.loc 1 761 13 is_stmt 0 view .LVU1059
 3122 0054 C64B     		ldr	r3, .L249+4
 3123 0056 9842     		cmp	r0, r3
 3124 0058 00F0D980 		beq	.L244
 3125              		.loc 1 778 10 is_stmt 1 view .LVU1060
 3126              		.loc 1 778 13 is_stmt 0 view .LVU1061
 3127 005c C54B     		ldr	r3, .L249+8
 3128 005e 9842     		cmp	r0, r3
 3129 0060 00F09B80 		beq	.L245
 3130              		.loc 1 812 10 is_stmt 1 view .LVU1062
 3131              		.loc 1 812 13 is_stmt 0 view .LVU1063
 3132 0064 C44B     		ldr	r3, .L249+12
 3133 0066 9842     		cmp	r0, r3
ARM GAS  C:\Users\DEVELO~1\AppData\Local\Temp\cc2saCCQ.s 			page 56


 3134 0068 00F00B81 		beq	.L246
 3135              		.loc 1 829 10 is_stmt 1 view .LVU1064
 3136              		.loc 1 829 13 is_stmt 0 view .LVU1065
 3137 006c C34B     		ldr	r3, .L249+16
 3138 006e 9842     		cmp	r0, r3
 3139 0070 00F03F81 		beq	.L247
 3140              	.LVL168:
 3141              	.L203:
 3142              		.loc 1 846 7 is_stmt 1 discriminator 5 view .LVU1066
 3143              		.loc 1 851 5 discriminator 5 view .LVU1067
 3144              		.loc 1 855 7 is_stmt 0 discriminator 5 view .LVU1068
 3145 0074 E269     		ldr	r2, [r4, #28]
 3146              		.loc 1 851 8 discriminator 5 view .LVU1069
 3147 0076 94F82030 		ldrb	r3, [r4, #32]	@ zero_extendqisi2
 3148              		.loc 1 855 7 discriminator 5 view .LVU1070
 3149 007a 02F13001 		add	r1, r2, #48
 3150              		.loc 1 871 16 discriminator 5 view .LVU1071
 3151 007e 6068     		ldr	r0, [r4, #4]
 3152              		.loc 1 856 7 discriminator 5 view .LVU1072
 3153 0080 2032     		adds	r2, r2, #32
 3154              		.loc 1 851 8 discriminator 5 view .LVU1073
 3155 0082 002B     		cmp	r3, #0
 3156 0084 44D0     		beq	.L212
 3157              		.loc 1 855 7 is_stmt 1 view .LVU1074
 3158 0086 636A     		ldr	r3, [r4, #36]
 3159 0088 5B68     		ldr	r3, [r3, #4]
 3160 008a 9960     		str	r1, [r3, #8]
 3161              		.loc 1 855 63 view .LVU1075
 3162              		.loc 1 856 7 view .LVU1076
 3163              		.loc 1 871 31 is_stmt 0 view .LVU1077
 3164 008c 4369     		ldr	r3, [r0, #20]
 3165              		.loc 1 856 7 view .LVU1078
 3166 008e A16A     		ldr	r1, [r4, #40]
 3167              		.loc 1 871 31 view .LVU1079
 3168 0090 03F01F03 		and	r3, r3, #31
 3169              		.loc 1 856 7 view .LVU1080
 3170 0094 4968     		ldr	r1, [r1, #4]
 3171              		.loc 1 871 9 view .LVU1081
 3172 0096 0133     		adds	r3, r3, #1
 3173              		.loc 1 856 7 view .LVU1082
 3174 0098 8A60     		str	r2, [r1, #8]
 3175              		.loc 1 856 63 is_stmt 1 view .LVU1083
 3176              		.loc 1 865 61 view .LVU1084
 3177              		.loc 1 871 3 view .LVU1085
 3178              	.LVL169:
 3179              		.loc 1 873 3 view .LVU1086
 3180              	.L213:
 3181              		.loc 1 877 5 view .LVU1087
 3182              		.loc 1 877 8 is_stmt 0 view .LVU1088
 3183 009a 082B     		cmp	r3, #8
 3184              		.loc 1 880 50 view .LVU1089
 3185 009c E26A     		ldr	r2, [r4, #44]
 3186              		.loc 1 877 8 view .LVU1090
 3187 009e 10D8     		bhi	.L215
 3188              		.loc 1 879 7 is_stmt 1 view .LVU1091
 3189              		.loc 1 882 50 is_stmt 0 view .LVU1092
 3190 00a0 236B     		ldr	r3, [r4, #48]
ARM GAS  C:\Users\DEVELO~1\AppData\Local\Temp\cc2saCCQ.s 			page 57


 3191              	.LVL170:
 3192              		.loc 1 880 50 view .LVU1093
 3193 00a2 22F47062 		bic	r2, r2, #3840
 3194              		.loc 1 881 7 is_stmt 1 view .LVU1094
 3195              		.loc 1 882 50 is_stmt 0 view .LVU1095
 3196 00a6 23F47063 		bic	r3, r3, #3840
 3197              	.L216:
 3198              		.loc 1 898 5 is_stmt 1 view .LVU1096
 3199              		.loc 1 898 8 is_stmt 0 view .LVU1097
 3200 00aa 0178     		ldrb	r1, [r0]	@ zero_extendqisi2
 3201 00ac 21B1     		cbz	r1, .L218
 3202              		.loc 1 899 7 is_stmt 1 view .LVU1098
 3203              		.loc 1 899 23 is_stmt 0 view .LVU1099
 3204 00ae 42F02402 		orr	r2, r2, #36
 3205              		.loc 1 900 7 is_stmt 1 view .LVU1100
 3206              		.loc 1 900 23 is_stmt 0 view .LVU1101
 3207 00b2 43F02403 		orr	r3, r3, #36
 3208 00b6 C3E7     		b	.L219
 3209              	.L218:
 3210              		.loc 1 903 7 is_stmt 1 view .LVU1102
 3211              		.loc 1 903 23 is_stmt 0 view .LVU1103
 3212 00b8 22F02402 		bic	r2, r2, #36
 3213              		.loc 1 904 7 is_stmt 1 view .LVU1104
 3214              		.loc 1 904 23 is_stmt 0 view .LVU1105
 3215 00bc 23F02403 		bic	r3, r3, #36
 3216 00c0 BEE7     		b	.L219
 3217              	.LVL171:
 3218              	.L215:
 3219              		.loc 1 884 10 is_stmt 1 view .LVU1106
 3220              		.loc 1 884 13 is_stmt 0 view .LVU1107
 3221 00c2 102B     		cmp	r3, #16
 3222              		.loc 1 888 42 view .LVU1108
 3223 00c4 236B     		ldr	r3, [r4, #48]
 3224              	.LVL172:
 3225              		.loc 1 886 42 view .LVU1109
 3226 00c6 22F47062 		bic	r2, r2, #3840
 3227              		.loc 1 888 42 view .LVU1110
 3228 00ca 23F47063 		bic	r3, r3, #3840
 3229              		.loc 1 884 13 view .LVU1111
 3230 00ce 1AD8     		bhi	.L217
 3231              		.loc 1 886 7 is_stmt 1 view .LVU1112
 3232              		.loc 1 887 51 is_stmt 0 view .LVU1113
 3233 00d0 42F4A062 		orr	r2, r2, #1280
 3234              		.loc 1 888 7 is_stmt 1 view .LVU1114
 3235              		.loc 1 889 51 is_stmt 0 view .LVU1115
 3236 00d4 43F4A063 		orr	r3, r3, #1280
 3237 00d8 E7E7     		b	.L216
 3238              	.L223:
 3239              		.loc 1 939 7 is_stmt 1 view .LVU1116
 3240              		.loc 1 939 23 is_stmt 0 view .LVU1117
 3241 00da 22F48472 		bic	r2, r2, #264
 3242              		.loc 1 940 7 is_stmt 1 view .LVU1118
 3243              		.loc 1 940 23 is_stmt 0 view .LVU1119
 3244 00de 23F48473 		bic	r3, r3, #264
 3245 00e2 ADE7     		b	.L219
 3246              	.LVL173:
 3247              	.L220:
ARM GAS  C:\Users\DEVELO~1\AppData\Local\Temp\cc2saCCQ.s 			page 58


 3248              		.loc 1 920 10 is_stmt 1 view .LVU1120
 3249              		.loc 1 920 13 is_stmt 0 view .LVU1121
 3250 00e4 102B     		cmp	r3, #16
 3251              		.loc 1 924 42 view .LVU1122
 3252 00e6 236B     		ldr	r3, [r4, #48]
 3253              	.LVL174:
 3254              		.loc 1 922 42 view .LVU1123
 3255 00e8 22F4F042 		bic	r2, r2, #30720
 3256              		.loc 1 924 42 view .LVU1124
 3257 00ec 23F4F043 		bic	r3, r3, #30720
 3258              		.loc 1 920 13 view .LVU1125
 3259 00f0 04D8     		bhi	.L222
 3260              		.loc 1 922 7 is_stmt 1 view .LVU1126
 3261              		.loc 1 923 50 is_stmt 0 view .LVU1127
 3262 00f2 42F42052 		orr	r2, r2, #10240
 3263              		.loc 1 924 7 is_stmt 1 view .LVU1128
 3264              		.loc 1 925 50 is_stmt 0 view .LVU1129
 3265 00f6 43F42053 		orr	r3, r3, #10240
 3266 00fa 9AE7     		b	.L221
 3267              	.L222:
 3268              		.loc 1 929 7 is_stmt 1 view .LVU1130
 3269              		.loc 1 930 49 is_stmt 0 view .LVU1131
 3270 00fc 42F4A042 		orr	r2, r2, #20480
 3271              		.loc 1 931 7 is_stmt 1 view .LVU1132
 3272              		.loc 1 932 49 is_stmt 0 view .LVU1133
 3273 0100 43F4A043 		orr	r3, r3, #20480
 3274 0104 95E7     		b	.L221
 3275              	.L217:
 3276              		.loc 1 893 7 is_stmt 1 view .LVU1134
 3277              		.loc 1 894 50 is_stmt 0 view .LVU1135
 3278 0106 42F42062 		orr	r2, r2, #2560
 3279              		.loc 1 895 7 is_stmt 1 view .LVU1136
 3280              		.loc 1 896 50 is_stmt 0 view .LVU1137
 3281 010a 43F42063 		orr	r3, r3, #2560
 3282 010e CCE7     		b	.L216
 3283              	.L212:
 3284              		.loc 1 864 7 is_stmt 1 view .LVU1138
 3285 0110 636A     		ldr	r3, [r4, #36]
 3286 0112 1B68     		ldr	r3, [r3]
 3287 0114 9960     		str	r1, [r3, #8]
 3288              		.loc 1 864 61 view .LVU1139
 3289              		.loc 1 865 7 view .LVU1140
 3290 0116 A16A     		ldr	r1, [r4, #40]
 3291              		.loc 1 871 31 is_stmt 0 view .LVU1141
 3292 0118 4369     		ldr	r3, [r0, #20]
 3293              		.loc 1 865 7 view .LVU1142
 3294 011a 0968     		ldr	r1, [r1]
 3295              		.loc 1 871 31 view .LVU1143
 3296 011c 03F01F03 		and	r3, r3, #31
 3297              		.loc 1 865 7 view .LVU1144
 3298 0120 8A60     		str	r2, [r1, #8]
 3299              		.loc 1 865 61 is_stmt 1 view .LVU1145
 3300              		.loc 1 871 3 view .LVU1146
 3301              		.loc 1 871 9 is_stmt 0 view .LVU1147
 3302 0122 0133     		adds	r3, r3, #1
 3303              	.LVL175:
 3304              		.loc 1 873 3 is_stmt 1 view .LVU1148
ARM GAS  C:\Users\DEVELO~1\AppData\Local\Temp\cc2saCCQ.s 			page 59


 3305 0124 7DE7     		b	.L214
 3306              	.LVL176:
 3307              	.L243:
 3308              		.loc 1 745 7 view .LVU1149
 3309              	.LBB660:
 3310              	.LBI660:
 3311              		.loc 1 397 14 view .LVU1150
 3312              	.LBB661:
 3313              		.loc 1 400 3 view .LVU1151
 3314              		.loc 1 400 18 is_stmt 0 view .LVU1152
 3315 0126 0346     		mov	r3, r0
 3316 0128 954A     		ldr	r2, .L249+20
 3317 012a 0A21     		movs	r1, #10
 3318 012c 1020     		movs	r0, #16
 3319              	.LVL177:
 3320              		.loc 1 400 18 view .LVU1153
 3321 012e FFF7FEFF 		bl	dmaStreamAllocI
 3322              	.LVL178:
 3323              		.loc 1 400 16 view .LVU1154
 3324 0132 6062     		str	r0, [r4, #36]
 3325              		.loc 1 403 3 is_stmt 1 view .LVU1155
 3326              		.loc 1 403 6 is_stmt 0 view .LVU1156
 3327 0134 0028     		cmp	r0, #0
 3328 0136 00F01681 		beq	.L240
 3329              		.loc 1 407 3 is_stmt 1 view .LVU1157
 3330              		.loc 1 407 18 is_stmt 0 view .LVU1158
 3331 013a 2346     		mov	r3, r4
 3332 013c 914A     		ldr	r2, .L249+24
 3333 013e 0A21     		movs	r1, #10
 3334 0140 1020     		movs	r0, #16
 3335 0142 FFF7FEFF 		bl	dmaStreamAllocI
 3336              	.LVL179:
 3337              		.loc 1 407 16 view .LVU1159
 3338 0146 A062     		str	r0, [r4, #40]
 3339              		.loc 1 410 3 is_stmt 1 view .LVU1160
 3340              		.loc 1 410 6 is_stmt 0 view .LVU1161
 3341 0148 0028     		cmp	r0, #0
 3342 014a 00F00981 		beq	.L241
 3343              	.LVL180:
 3344              		.loc 1 410 6 view .LVU1162
 3345              	.LBE661:
 3346              	.LBE660:
 3347              		.loc 1 749 7 is_stmt 1 view .LVU1163
 3348              		.loc 1 752 7 view .LVU1164
 3349 014e 2521     		movs	r1, #37
 3350 0150 606A     		ldr	r0, [r4, #36]
 3351 0152 FFF7FEFF 		bl	dmaSetRequestSource
 3352              	.LVL181:
 3353              		.loc 1 753 7 view .LVU1165
 3354 0156 2621     		movs	r1, #38
 3355 0158 A06A     		ldr	r0, [r4, #40]
 3356 015a FFF7FEFF 		bl	dmaSetRequestSource
 3357              	.LVL182:
 3358              		.loc 1 755 7 view .LVU1166
 3359              	.LBB662:
 3360              	.LBI662:
 3361              		.loc 2 319 22 view .LVU1167
ARM GAS  C:\Users\DEVELO~1\AppData\Local\Temp\cc2saCCQ.s 			page 60


 3362              	.LBB663:
 3363              		.loc 2 323 3 view .LVU1168
 3364              		.loc 2 323 19 is_stmt 0 view .LVU1169
 3365 015e 8A4B     		ldr	r3, .L249+28
 3366 0160 D3F8F020 		ldr	r2, [r3, #240]
 3367 0164 42F48052 		orr	r2, r2, #4096
 3368 0168 C3F8F020 		str	r2, [r3, #240]
 3369              		.loc 2 324 3 is_stmt 1 view .LVU1170
 3370              		.loc 2 325 5 view .LVU1171
 3371              		.loc 2 325 23 is_stmt 0 view .LVU1172
 3372 016c D3F81821 		ldr	r2, [r3, #280]
 3373 0170 42F48052 		orr	r2, r2, #4096
 3374 0174 C3F81821 		str	r2, [r3, #280]
 3375              		.loc 2 330 3 is_stmt 1 view .LVU1173
 3376 0178 D3F81821 		ldr	r2, [r3, #280]
 3377              	.LVL183:
 3378              		.loc 2 330 3 is_stmt 0 view .LVU1174
 3379              	.LBE663:
 3380              	.LBE662:
 3381              		.loc 1 756 7 is_stmt 1 view .LVU1175
 3382              	.LBB664:
 3383              	.LBI664:
 3384              		.loc 2 385 22 view .LVU1176
 3385              	.LBB665:
 3386              		.loc 2 397 3 view .LVU1177
 3387              	.LBB666:
 3388              	.LBI666:
 3389              		.loc 2 73 22 view .LVU1178
 3390              	.LBB667:
 3391              		.loc 2 76 3 view .LVU1179
 3392              		.loc 2 76 17 is_stmt 0 view .LVU1180
 3393 017c D3F89820 		ldr	r2, [r3, #152]
 3394 0180 42F48052 		orr	r2, r2, #4096
 3395 0184 C3F89820 		str	r2, [r3, #152]
 3396              		.loc 2 77 3 is_stmt 1 view .LVU1181
 3397              		.loc 2 77 17 is_stmt 0 view .LVU1182
 3398 0188 D3F89820 		ldr	r2, [r3, #152]
 3399 018c 22F48052 		bic	r2, r2, #4096
 3400 0190 C3F89820 		str	r2, [r3, #152]
 3401              		.loc 2 78 3 is_stmt 1 view .LVU1183
 3402 0194 D3F89830 		ldr	r3, [r3, #152]
 3403              	.LVL184:
 3404              		.loc 2 78 3 is_stmt 0 view .LVU1184
 3405              	.LBE667:
 3406              	.LBE666:
 3407              		.loc 2 398 1 view .LVU1185
 3408 0198 6CE7     		b	.L203
 3409              	.LVL185:
 3410              	.L245:
 3411              		.loc 2 398 1 view .LVU1186
 3412              	.LBE665:
 3413              	.LBE664:
 3414              		.loc 1 779 7 is_stmt 1 view .LVU1187
 3415              	.LBB668:
 3416              	.LBI668:
 3417              		.loc 1 397 14 view .LVU1188
 3418              	.LBB669:
ARM GAS  C:\Users\DEVELO~1\AppData\Local\Temp\cc2saCCQ.s 			page 61


 3419              		.loc 1 400 3 view .LVU1189
 3420              		.loc 1 400 18 is_stmt 0 view .LVU1190
 3421 019a 0346     		mov	r3, r0
 3422 019c 784A     		ldr	r2, .L249+20
 3423 019e 0A21     		movs	r1, #10
 3424 01a0 1020     		movs	r0, #16
 3425              	.LVL186:
 3426              		.loc 1 400 18 view .LVU1191
 3427 01a2 FFF7FEFF 		bl	dmaStreamAllocI
 3428              	.LVL187:
 3429              		.loc 1 400 16 view .LVU1192
 3430 01a6 6062     		str	r0, [r4, #36]
 3431              		.loc 1 403 3 is_stmt 1 view .LVU1193
 3432              		.loc 1 403 6 is_stmt 0 view .LVU1194
 3433 01a8 0028     		cmp	r0, #0
 3434 01aa 00F0DC80 		beq	.L240
 3435              		.loc 1 407 3 is_stmt 1 view .LVU1195
 3436              		.loc 1 407 18 is_stmt 0 view .LVU1196
 3437 01ae 2346     		mov	r3, r4
 3438 01b0 744A     		ldr	r2, .L249+24
 3439 01b2 0A21     		movs	r1, #10
 3440 01b4 1020     		movs	r0, #16
 3441 01b6 FFF7FEFF 		bl	dmaStreamAllocI
 3442              	.LVL188:
 3443              		.loc 1 407 16 view .LVU1197
 3444 01ba A062     		str	r0, [r4, #40]
 3445              		.loc 1 410 3 is_stmt 1 view .LVU1198
 3446              		.loc 1 410 6 is_stmt 0 view .LVU1199
 3447 01bc 0028     		cmp	r0, #0
 3448 01be 00F0CF80 		beq	.L241
 3449              	.LVL189:
 3450              		.loc 1 410 6 view .LVU1200
 3451              	.LBE669:
 3452              	.LBE668:
 3453              		.loc 1 783 7 is_stmt 1 view .LVU1201
 3454              		.loc 1 786 7 view .LVU1202
 3455 01c2 3D21     		movs	r1, #61
 3456 01c4 606A     		ldr	r0, [r4, #36]
 3457 01c6 FFF7FEFF 		bl	dmaSetRequestSource
 3458              	.LVL190:
 3459              		.loc 1 787 7 view .LVU1203
 3460 01ca 3E21     		movs	r1, #62
 3461 01cc A06A     		ldr	r0, [r4, #40]
 3462 01ce FFF7FEFF 		bl	dmaSetRequestSource
 3463              	.LVL191:
 3464              		.loc 1 789 7 view .LVU1204
 3465              	.LBB670:
 3466              	.LBI670:
 3467              		.loc 2 141 22 view .LVU1205
 3468              	.LBB671:
 3469              		.loc 2 145 3 view .LVU1206
 3470              		.loc 2 145 20 is_stmt 0 view .LVU1207
 3471 01d2 6D4B     		ldr	r3, .L249+28
 3472 01d4 D3F8E820 		ldr	r2, [r3, #232]
 3473 01d8 42F40042 		orr	r2, r2, #32768
 3474 01dc C3F8E820 		str	r2, [r3, #232]
 3475              		.loc 2 146 3 is_stmt 1 view .LVU1208
ARM GAS  C:\Users\DEVELO~1\AppData\Local\Temp\cc2saCCQ.s 			page 62


 3476              		.loc 2 147 5 view .LVU1209
 3477              		.loc 2 147 24 is_stmt 0 view .LVU1210
 3478 01e0 D3F81021 		ldr	r2, [r3, #272]
 3479 01e4 42F40042 		orr	r2, r2, #32768
 3480 01e8 C3F81021 		str	r2, [r3, #272]
 3481              		.loc 2 152 3 is_stmt 1 view .LVU1211
 3482 01ec D3F81021 		ldr	r2, [r3, #272]
 3483              	.LVL192:
 3484              		.loc 2 152 3 is_stmt 0 view .LVU1212
 3485              	.LBE671:
 3486              	.LBE670:
 3487              		.loc 1 790 7 is_stmt 1 view .LVU1213
 3488              	.LBB672:
 3489              	.LBI672:
 3490              		.loc 2 207 22 view .LVU1214
 3491              	.LBB673:
 3492              		.loc 2 219 3 view .LVU1215
 3493              	.LBB674:
 3494              	.LBI674:
 3495              		.loc 2 57 22 view .LVU1216
 3496              	.LBB675:
 3497              		.loc 2 60 3 view .LVU1217
 3498              		.loc 2 60 18 is_stmt 0 view .LVU1218
 3499 01f0 D3F89020 		ldr	r2, [r3, #144]
 3500 01f4 42F40042 		orr	r2, r2, #32768
 3501 01f8 C3F89020 		str	r2, [r3, #144]
 3502              		.loc 2 61 3 is_stmt 1 view .LVU1219
 3503              		.loc 2 61 18 is_stmt 0 view .LVU1220
 3504 01fc D3F89020 		ldr	r2, [r3, #144]
 3505 0200 22F40042 		bic	r2, r2, #32768
 3506 0204 C3F89020 		str	r2, [r3, #144]
 3507              		.loc 2 62 3 is_stmt 1 view .LVU1221
 3508 0208 D3F89030 		ldr	r3, [r3, #144]
 3509              	.LVL193:
 3510              		.loc 2 62 3 is_stmt 0 view .LVU1222
 3511              	.LBE675:
 3512              	.LBE674:
 3513              		.loc 2 220 1 view .LVU1223
 3514 020c 32E7     		b	.L203
 3515              	.LVL194:
 3516              	.L244:
 3517              		.loc 2 220 1 view .LVU1224
 3518              	.LBE673:
 3519              	.LBE672:
 3520              		.loc 1 762 7 is_stmt 1 view .LVU1225
 3521              	.LBB676:
 3522              	.LBI676:
 3523              		.loc 1 397 14 view .LVU1226
 3524              	.LBB677:
 3525              		.loc 1 400 3 view .LVU1227
 3526              		.loc 1 400 18 is_stmt 0 view .LVU1228
 3527 020e 0346     		mov	r3, r0
 3528 0210 5B4A     		ldr	r2, .L249+20
 3529 0212 0A21     		movs	r1, #10
 3530 0214 1020     		movs	r0, #16
 3531              	.LVL195:
 3532              		.loc 1 400 18 view .LVU1229
ARM GAS  C:\Users\DEVELO~1\AppData\Local\Temp\cc2saCCQ.s 			page 63


 3533 0216 FFF7FEFF 		bl	dmaStreamAllocI
 3534              	.LVL196:
 3535              		.loc 1 400 16 view .LVU1230
 3536 021a 6062     		str	r0, [r4, #36]
 3537              		.loc 1 403 3 is_stmt 1 view .LVU1231
 3538              		.loc 1 403 6 is_stmt 0 view .LVU1232
 3539 021c 0028     		cmp	r0, #0
 3540 021e 00F0A280 		beq	.L240
 3541              		.loc 1 407 3 is_stmt 1 view .LVU1233
 3542              		.loc 1 407 18 is_stmt 0 view .LVU1234
 3543 0222 2346     		mov	r3, r4
 3544 0224 574A     		ldr	r2, .L249+24
 3545 0226 0A21     		movs	r1, #10
 3546 0228 1020     		movs	r0, #16
 3547 022a FFF7FEFF 		bl	dmaStreamAllocI
 3548              	.LVL197:
 3549              		.loc 1 407 16 view .LVU1235
 3550 022e A062     		str	r0, [r4, #40]
 3551              		.loc 1 410 3 is_stmt 1 view .LVU1236
 3552              		.loc 1 410 6 is_stmt 0 view .LVU1237
 3553 0230 0028     		cmp	r0, #0
 3554 0232 00F09580 		beq	.L241
 3555              	.LVL198:
 3556              		.loc 1 410 6 view .LVU1238
 3557              	.LBE677:
 3558              	.LBE676:
 3559              		.loc 1 766 7 is_stmt 1 view .LVU1239
 3560              		.loc 1 769 7 view .LVU1240
 3561 0236 2721     		movs	r1, #39
 3562 0238 606A     		ldr	r0, [r4, #36]
 3563 023a FFF7FEFF 		bl	dmaSetRequestSource
 3564              	.LVL199:
 3565              		.loc 1 770 7 view .LVU1241
 3566 023e 2821     		movs	r1, #40
 3567 0240 A06A     		ldr	r0, [r4, #40]
 3568 0242 FFF7FEFF 		bl	dmaSetRequestSource
 3569              	.LVL200:
 3570              		.loc 1 772 7 view .LVU1242
 3571              	.LBB678:
 3572              	.LBI678:
 3573              		.loc 2 141 22 view .LVU1243
 3574              	.LBB679:
 3575              		.loc 2 145 3 view .LVU1244
 3576              		.loc 2 145 20 is_stmt 0 view .LVU1245
 3577 0246 504B     		ldr	r3, .L249+28
 3578 0248 D3F8E820 		ldr	r2, [r3, #232]
 3579 024c 42F48042 		orr	r2, r2, #16384
 3580 0250 C3F8E820 		str	r2, [r3, #232]
 3581              		.loc 2 146 3 is_stmt 1 view .LVU1246
 3582              		.loc 2 147 5 view .LVU1247
 3583              		.loc 2 147 24 is_stmt 0 view .LVU1248
 3584 0254 D3F81021 		ldr	r2, [r3, #272]
 3585 0258 42F48042 		orr	r2, r2, #16384
 3586 025c C3F81021 		str	r2, [r3, #272]
 3587              		.loc 2 152 3 is_stmt 1 view .LVU1249
 3588 0260 D3F81021 		ldr	r2, [r3, #272]
 3589              	.LVL201:
ARM GAS  C:\Users\DEVELO~1\AppData\Local\Temp\cc2saCCQ.s 			page 64


 3590              		.loc 2 152 3 is_stmt 0 view .LVU1250
 3591              	.LBE679:
 3592              	.LBE678:
 3593              		.loc 1 773 7 is_stmt 1 view .LVU1251
 3594              	.LBB680:
 3595              	.LBI680:
 3596              		.loc 2 207 22 view .LVU1252
 3597              	.LBB681:
 3598              		.loc 2 219 3 view .LVU1253
 3599              	.LBB682:
 3600              	.LBI682:
 3601              		.loc 2 57 22 view .LVU1254
 3602              	.LBB683:
 3603              		.loc 2 60 3 view .LVU1255
 3604              		.loc 2 60 18 is_stmt 0 view .LVU1256
 3605 0264 D3F89020 		ldr	r2, [r3, #144]
 3606 0268 42F48042 		orr	r2, r2, #16384
 3607 026c C3F89020 		str	r2, [r3, #144]
 3608              		.loc 2 61 3 is_stmt 1 view .LVU1257
 3609              		.loc 2 61 18 is_stmt 0 view .LVU1258
 3610 0270 D3F89020 		ldr	r2, [r3, #144]
 3611 0274 22F48042 		bic	r2, r2, #16384
 3612 0278 C3F89020 		str	r2, [r3, #144]
 3613              		.loc 2 62 3 is_stmt 1 view .LVU1259
 3614 027c D3F89030 		ldr	r3, [r3, #144]
 3615              	.LVL202:
 3616              		.loc 2 62 3 is_stmt 0 view .LVU1260
 3617              	.LBE683:
 3618              	.LBE682:
 3619              		.loc 2 220 1 view .LVU1261
 3620 0280 F8E6     		b	.L203
 3621              	.LVL203:
 3622              	.L246:
 3623              		.loc 2 220 1 view .LVU1262
 3624              	.LBE681:
 3625              	.LBE680:
 3626              		.loc 1 813 7 is_stmt 1 view .LVU1263
 3627              	.LBB684:
 3628              	.LBI684:
 3629              		.loc 1 397 14 view .LVU1264
 3630              	.LBB685:
 3631              		.loc 1 400 3 view .LVU1265
 3632              		.loc 1 400 18 is_stmt 0 view .LVU1266
 3633 0282 0346     		mov	r3, r0
 3634 0284 3E4A     		ldr	r2, .L249+20
 3635 0286 0A21     		movs	r1, #10
 3636 0288 1020     		movs	r0, #16
 3637              	.LVL204:
 3638              		.loc 1 400 18 view .LVU1267
 3639 028a FFF7FEFF 		bl	dmaStreamAllocI
 3640              	.LVL205:
 3641              		.loc 1 400 16 view .LVU1268
 3642 028e 6062     		str	r0, [r4, #36]
 3643              		.loc 1 403 3 is_stmt 1 view .LVU1269
 3644              		.loc 1 403 6 is_stmt 0 view .LVU1270
 3645 0290 0028     		cmp	r0, #0
 3646 0292 68D0     		beq	.L240
ARM GAS  C:\Users\DEVELO~1\AppData\Local\Temp\cc2saCCQ.s 			page 65


 3647              		.loc 1 407 3 is_stmt 1 view .LVU1271
 3648              		.loc 1 407 18 is_stmt 0 view .LVU1272
 3649 0294 2346     		mov	r3, r4
 3650 0296 3B4A     		ldr	r2, .L249+24
 3651 0298 0A21     		movs	r1, #10
 3652 029a 1020     		movs	r0, #16
 3653 029c FFF7FEFF 		bl	dmaStreamAllocI
 3654              	.LVL206:
 3655              		.loc 1 407 16 view .LVU1273
 3656 02a0 A062     		str	r0, [r4, #40]
 3657              		.loc 1 410 3 is_stmt 1 view .LVU1274
 3658              		.loc 1 410 6 is_stmt 0 view .LVU1275
 3659 02a2 0028     		cmp	r0, #0
 3660 02a4 5CD0     		beq	.L241
 3661              	.LVL207:
 3662              		.loc 1 410 6 view .LVU1276
 3663              	.LBE685:
 3664              	.LBE684:
 3665              		.loc 1 817 7 is_stmt 1 view .LVU1277
 3666              		.loc 1 820 7 view .LVU1278
 3667 02a6 5521     		movs	r1, #85
 3668 02a8 606A     		ldr	r0, [r4, #36]
 3669 02aa FFF7FEFF 		bl	dmaSetRequestSource
 3670              	.LVL208:
 3671              		.loc 1 821 7 view .LVU1279
 3672 02ae 5621     		movs	r1, #86
 3673 02b0 A06A     		ldr	r0, [r4, #40]
 3674 02b2 FFF7FEFF 		bl	dmaSetRequestSource
 3675              	.LVL209:
 3676              		.loc 1 823 7 view .LVU1280
 3677              	.LBB688:
 3678              	.LBI688:
 3679              		.loc 2 319 22 view .LVU1281
 3680              	.LBB689:
 3681              		.loc 2 323 3 view .LVU1282
 3682              		.loc 2 323 19 is_stmt 0 view .LVU1283
 3683 02b6 344B     		ldr	r3, .L249+28
 3684 02b8 D3F8F020 		ldr	r2, [r3, #240]
 3685 02bc 42F48012 		orr	r2, r2, #1048576
 3686 02c0 C3F8F020 		str	r2, [r3, #240]
 3687              		.loc 2 324 3 is_stmt 1 view .LVU1284
 3688              		.loc 2 325 5 view .LVU1285
 3689              		.loc 2 325 23 is_stmt 0 view .LVU1286
 3690 02c4 D3F81821 		ldr	r2, [r3, #280]
 3691 02c8 42F48012 		orr	r2, r2, #1048576
 3692 02cc C3F81821 		str	r2, [r3, #280]
 3693              		.loc 2 330 3 is_stmt 1 view .LVU1287
 3694 02d0 D3F81821 		ldr	r2, [r3, #280]
 3695              	.LVL210:
 3696              		.loc 2 330 3 is_stmt 0 view .LVU1288
 3697              	.LBE689:
 3698              	.LBE688:
 3699              		.loc 1 824 7 is_stmt 1 view .LVU1289
 3700              	.LBB690:
 3701              	.LBI690:
 3702              		.loc 2 385 22 view .LVU1290
 3703              	.LBB691:
ARM GAS  C:\Users\DEVELO~1\AppData\Local\Temp\cc2saCCQ.s 			page 66


 3704              		.loc 2 397 3 view .LVU1291
 3705              	.LBB692:
 3706              	.LBI692:
 3707              		.loc 2 73 22 view .LVU1292
 3708              	.LBB693:
 3709              		.loc 2 76 3 view .LVU1293
 3710              		.loc 2 76 17 is_stmt 0 view .LVU1294
 3711 02d4 D3F89820 		ldr	r2, [r3, #152]
 3712 02d8 42F48012 		orr	r2, r2, #1048576
 3713 02dc C3F89820 		str	r2, [r3, #152]
 3714              		.loc 2 77 3 is_stmt 1 view .LVU1295
 3715              		.loc 2 77 17 is_stmt 0 view .LVU1296
 3716 02e0 D3F89820 		ldr	r2, [r3, #152]
 3717 02e4 22F48012 		bic	r2, r2, #1048576
 3718 02e8 C3F89820 		str	r2, [r3, #152]
 3719              		.loc 2 78 3 is_stmt 1 view .LVU1297
 3720 02ec D3F89830 		ldr	r3, [r3, #152]
 3721              	.LVL211:
 3722              		.loc 2 78 3 is_stmt 0 view .LVU1298
 3723              	.LBE693:
 3724              	.LBE692:
 3725              		.loc 2 398 1 view .LVU1299
 3726 02f0 C0E6     		b	.L203
 3727              	.LVL212:
 3728              	.L247:
 3729              		.loc 2 398 1 view .LVU1300
 3730              	.LBE691:
 3731              	.LBE690:
 3732              		.loc 1 830 7 is_stmt 1 view .LVU1301
 3733              	.LBB694:
 3734              	.LBI694:
 3735              		.loc 1 429 14 view .LVU1302
 3736              	.LBB695:
 3737              		.loc 1 432 3 view .LVU1303
 3738              		.loc 1 432 19 is_stmt 0 view .LVU1304
 3739 02f2 0346     		mov	r3, r0
 3740 02f4 254A     		ldr	r2, .L249+32
 3741 02f6 0A21     		movs	r1, #10
 3742 02f8 0820     		movs	r0, #8
 3743              	.LVL213:
 3744              		.loc 1 432 19 view .LVU1305
 3745 02fa FFF7FEFF 		bl	bdmaStreamAllocI
 3746              	.LVL214:
 3747              		.loc 1 432 17 view .LVU1306
 3748 02fe 6062     		str	r0, [r4, #36]
 3749              		.loc 1 435 3 is_stmt 1 view .LVU1307
 3750              		.loc 1 435 6 is_stmt 0 view .LVU1308
 3751 0300 88B3     		cbz	r0, .L240
 3752              		.loc 1 439 3 is_stmt 1 view .LVU1309
 3753              		.loc 1 439 19 is_stmt 0 view .LVU1310
 3754 0302 2346     		mov	r3, r4
 3755 0304 224A     		ldr	r2, .L249+36
 3756 0306 0A21     		movs	r1, #10
 3757 0308 0820     		movs	r0, #8
 3758 030a FFF7FEFF 		bl	bdmaStreamAllocI
 3759              	.LVL215:
 3760              		.loc 1 439 17 view .LVU1311
ARM GAS  C:\Users\DEVELO~1\AppData\Local\Temp\cc2saCCQ.s 			page 67


 3761 030e A062     		str	r0, [r4, #40]
 3762              		.loc 1 442 3 is_stmt 1 view .LVU1312
 3763              		.loc 1 442 6 is_stmt 0 view .LVU1313
 3764 0310 0028     		cmp	r0, #0
 3765 0312 3FD0     		beq	.L248
 3766              	.LVL216:
 3767              		.loc 1 442 6 view .LVU1314
 3768              	.LBE695:
 3769              	.LBE694:
 3770              		.loc 1 834 7 is_stmt 1 view .LVU1315
 3771              		.loc 1 837 7 view .LVU1316
 3772 0314 0B21     		movs	r1, #11
 3773 0316 606A     		ldr	r0, [r4, #36]
 3774 0318 FFF7FEFF 		bl	bdmaSetRequestSource
 3775              	.LVL217:
 3776              		.loc 1 838 7 view .LVU1317
 3777 031c 0C21     		movs	r1, #12
 3778 031e A06A     		ldr	r0, [r4, #40]
 3779 0320 FFF7FEFF 		bl	bdmaSetRequestSource
 3780              	.LVL218:
 3781              		.loc 1 840 7 view .LVU1318
 3782              	.LBB698:
 3783              	.LBI698:
 3784              		.loc 2 497 22 view .LVU1319
 3785              	.LBB699:
 3786              		.loc 2 501 3 view .LVU1320
 3787              		.loc 2 501 19 is_stmt 0 view .LVU1321
 3788 0324 184B     		ldr	r3, .L249+28
 3789 0326 D3F8F420 		ldr	r2, [r3, #244]
 3790 032a 42F02002 		orr	r2, r2, #32
 3791 032e C3F8F420 		str	r2, [r3, #244]
 3792              		.loc 2 502 3 is_stmt 1 view .LVU1322
 3793              		.loc 2 503 5 view .LVU1323
 3794              		.loc 2 503 23 is_stmt 0 view .LVU1324
 3795 0332 D3F81C21 		ldr	r2, [r3, #284]
 3796 0336 42F02002 		orr	r2, r2, #32
 3797 033a C3F81C21 		str	r2, [r3, #284]
 3798              		.loc 2 508 3 is_stmt 1 view .LVU1325
 3799 033e D3F81C21 		ldr	r2, [r3, #284]
 3800              	.LVL219:
 3801              		.loc 2 508 3 is_stmt 0 view .LVU1326
 3802              	.LBE699:
 3803              	.LBE698:
 3804              		.loc 1 841 7 is_stmt 1 view .LVU1327
 3805              	.LBB700:
 3806              	.LBI700:
 3807              		.loc 2 563 22 view .LVU1328
 3808              	.LBB701:
 3809              		.loc 2 575 3 view .LVU1329
 3810              	.LBB702:
 3811              	.LBI702:
 3812              		.loc 2 89 22 view .LVU1330
 3813              	.LBB703:
 3814              		.loc 2 92 3 view .LVU1331
 3815              		.loc 2 92 17 is_stmt 0 view .LVU1332
 3816 0342 D3F89C20 		ldr	r2, [r3, #156]
 3817 0346 42F02002 		orr	r2, r2, #32
ARM GAS  C:\Users\DEVELO~1\AppData\Local\Temp\cc2saCCQ.s 			page 68


 3818 034a C3F89C20 		str	r2, [r3, #156]
 3819              		.loc 2 93 3 is_stmt 1 view .LVU1333
 3820              		.loc 2 93 17 is_stmt 0 view .LVU1334
 3821 034e D3F89C20 		ldr	r2, [r3, #156]
 3822 0352 22F02002 		bic	r2, r2, #32
 3823 0356 C3F89C20 		str	r2, [r3, #156]
 3824              		.loc 2 94 3 is_stmt 1 view .LVU1335
 3825 035a D3F89C30 		ldr	r3, [r3, #156]
 3826              	.LVL220:
 3827              		.loc 2 94 3 is_stmt 0 view .LVU1336
 3828              	.LBE703:
 3829              	.LBE702:
 3830              		.loc 2 576 1 view .LVU1337
 3831 035e 89E6     		b	.L203
 3832              	.LVL221:
 3833              	.L241:
 3834              		.loc 2 576 1 view .LVU1338
 3835              	.LBE701:
 3836              	.LBE700:
 3837              	.LBB704:
 3838              	.LBB686:
 3839              		.loc 1 411 5 is_stmt 1 view .LVU1339
 3840 0360 606A     		ldr	r0, [r4, #36]
 3841 0362 FFF7FEFF 		bl	dmaStreamFreeI
 3842              	.LVL222:
 3843              	.L240:
 3844              		.loc 1 412 5 view .LVU1340
 3845              		.loc 1 412 5 is_stmt 0 view .LVU1341
 3846              	.LBE686:
 3847              	.LBE704:
 3848              		.loc 1 817 7 is_stmt 1 view .LVU1342
 3849              	.LBB705:
 3850              	.LBB687:
 3851              		.loc 1 412 12 is_stmt 0 view .LVU1343
 3852 0366 6FF01000 		mvn	r0, #16
 3853              	.LBE687:
 3854              	.LBE705:
 3855              		.loc 1 949 1 view .LVU1344
 3856 036a 10BD     		pop	{r4, pc}
 3857              	.LVL223:
 3858              	.L250:
 3859              		.loc 1 949 1 view .LVU1345
 3860              		.align	2
 3861              	.L249:
 3862 036c 00000000 		.word	.LANCHOR0
 3863 0370 00000000 		.word	.LANCHOR1
 3864 0374 00000000 		.word	.LANCHOR2
 3865 0378 00000000 		.word	.LANCHOR3
 3866 037c 00000000 		.word	.LANCHOR4
 3867 0380 00000000 		.word	spi_lld_serve_dma_rx_interrupt
 3868 0384 00000000 		.word	spi_lld_serve_dma_tx_interrupt
 3869 0388 00440258 		.word	1476543488
 3870 038c 00000000 		.word	spi_lld_serve_bdma_rx_interrupt
 3871 0390 00000000 		.word	spi_lld_serve_bdma_tx_interrupt
 3872              	.LVL224:
 3873              	.L248:
 3874              	.LBB706:
ARM GAS  C:\Users\DEVELO~1\AppData\Local\Temp\cc2saCCQ.s 			page 69


 3875              	.LBB696:
 3876              		.loc 1 443 5 is_stmt 1 view .LVU1346
 3877 0394 606A     		ldr	r0, [r4, #36]
 3878 0396 FFF7FEFF 		bl	bdmaStreamFreeI
 3879              	.LVL225:
 3880              		.loc 1 444 5 view .LVU1347
 3881              		.loc 1 444 5 is_stmt 0 view .LVU1348
 3882              	.LBE696:
 3883              	.LBE706:
 3884              		.loc 1 834 7 is_stmt 1 view .LVU1349
 3885              	.LBB707:
 3886              	.LBB697:
 3887              		.loc 1 444 12 is_stmt 0 view .LVU1350
 3888 039a 6FF01000 		mvn	r0, #16
 3889              	.LBE697:
 3890              	.LBE707:
 3891              		.loc 1 949 1 view .LVU1351
 3892 039e 10BD     		pop	{r4, pc}
 3893              		.loc 1 949 1 view .LVU1352
 3894              		.cfi_endproc
 3895              	.LFE449:
 3896              		.size	spi_lld_start, .-spi_lld_start
 3897              		.section	.text.spi_lld_stop,"ax",%progbits
 3898              		.align	1
 3899              		.p2align 4,,15
 3900              		.global	spi_lld_stop
 3901              		.syntax unified
 3902              		.thumb
 3903              		.thumb_func
 3904              		.type	spi_lld_stop, %function
 3905              	spi_lld_stop:
 3906              	.LVL226:
 3907              	.LFB450:
 3908              		.loc 1 958 36 is_stmt 1 view -0
 3909              		.cfi_startproc
 3910              		@ args = 0, pretend = 0, frame = 0
 3911              		@ frame_needed = 0, uses_anonymous_args = 0
 3912              		.loc 1 961 3 view .LVU1354
 3913              		.loc 1 961 6 is_stmt 0 view .LVU1355
 3914 0000 0378     		ldrb	r3, [r0]	@ zero_extendqisi2
 3915 0002 022B     		cmp	r3, #2
 3916 0004 00D0     		beq	.L265
 3917 0006 7047     		bx	lr
 3918              	.L265:
 3919              		.loc 1 964 5 is_stmt 1 view .LVU1356
 3920              		.loc 1 958 36 is_stmt 0 view .LVU1357
 3921 0008 10B5     		push	{r4, lr}
 3922              		.cfi_def_cfa_offset 8
 3923              		.cfi_offset 4, -8
 3924              		.cfi_offset 14, -4
 3925 000a 0446     		mov	r4, r0
 3926              		.loc 1 964 5 view .LVU1358
 3927 000c FFF7FEFF 		bl	spi_lld_stop_abort
 3928              	.LVL227:
 3929              		.loc 1 967 5 is_stmt 1 view .LVU1359
 3930              		.loc 1 967 8 is_stmt 0 view .LVU1360
 3931 0010 94F82030 		ldrb	r3, [r4, #32]	@ zero_extendqisi2
ARM GAS  C:\Users\DEVELO~1\AppData\Local\Temp\cc2saCCQ.s 			page 70


 3932              		.loc 1 971 7 view .LVU1361
 3933 0014 606A     		ldr	r0, [r4, #36]
 3934              		.loc 1 967 8 view .LVU1362
 3935 0016 1BBB     		cbnz	r3, .L266
 3936              		.loc 1 980 7 is_stmt 1 view .LVU1363
 3937 0018 FFF7FEFF 		bl	dmaStreamFreeI
 3938              	.LVL228:
 3939              		.loc 1 981 7 view .LVU1364
 3940 001c A06A     		ldr	r0, [r4, #40]
 3941 001e FFF7FEFF 		bl	dmaStreamFreeI
 3942              	.LVL229:
 3943              	.L255:
 3944              		.loc 1 986 5 view .LVU1365
 3945              		.loc 1 990 10 view .LVU1366
 3946              		.loc 1 990 13 is_stmt 0 view .LVU1367
 3947 0022 324B     		ldr	r3, .L271
 3948 0024 9C42     		cmp	r4, r3
 3949 0026 21D0     		beq	.L267
 3950              		.loc 1 996 10 is_stmt 1 view .LVU1368
 3951              		.loc 1 996 13 is_stmt 0 view .LVU1369
 3952 0028 314B     		ldr	r3, .L271+4
 3953 002a 9C42     		cmp	r4, r3
 3954 002c 3ED0     		beq	.L268
 3955              		.loc 1 1002 10 is_stmt 1 view .LVU1370
 3956              		.loc 1 1002 13 is_stmt 0 view .LVU1371
 3957 002e 314B     		ldr	r3, .L271+8
 3958 0030 9C42     		cmp	r4, r3
 3959 0032 4BD0     		beq	.L269
 3960              		.loc 1 1014 10 is_stmt 1 view .LVU1372
 3961              		.loc 1 1014 13 is_stmt 0 view .LVU1373
 3962 0034 304B     		ldr	r3, .L271+12
 3963 0036 9C42     		cmp	r4, r3
 3964 0038 28D0     		beq	.L270
 3965              		.loc 1 1020 10 is_stmt 1 view .LVU1374
 3966              		.loc 1 1020 13 is_stmt 0 view .LVU1375
 3967 003a 304B     		ldr	r3, .L271+16
 3968 003c 9C42     		cmp	r4, r3
 3969 003e 0ED1     		bne	.L251
 3970              		.loc 1 1021 7 is_stmt 1 view .LVU1376
 3971              	.LVL230:
 3972              	.LBB708:
 3973              	.LBI708:
 3974              		.loc 2 529 22 view .LVU1377
 3975              	.LBB709:
 3976              		.loc 2 539 3 view .LVU1378
 3977              		.loc 2 539 19 is_stmt 0 view .LVU1379
 3978 0040 2F4B     		ldr	r3, .L271+20
 3979 0042 D3F8F420 		ldr	r2, [r3, #244]
 3980 0046 22F02002 		bic	r2, r2, #32
 3981 004a C3F8F420 		str	r2, [r3, #244]
 3982              		.loc 2 540 3 is_stmt 1 view .LVU1380
 3983              		.loc 2 540 21 is_stmt 0 view .LVU1381
 3984 004e D3F81C21 		ldr	r2, [r3, #284]
 3985 0052 22F02002 		bic	r2, r2, #32
 3986 0056 C3F81C21 		str	r2, [r3, #284]
 3987              		.loc 2 541 3 is_stmt 1 view .LVU1382
 3988 005a D3F81C31 		ldr	r3, [r3, #284]
ARM GAS  C:\Users\DEVELO~1\AppData\Local\Temp\cc2saCCQ.s 			page 71


 3989              	.LVL231:
 3990              		.loc 2 541 3 is_stmt 0 view .LVU1383
 3991              	.LBE709:
 3992              	.LBE708:
 3993              		.loc 1 1026 7 is_stmt 1 view .LVU1384
 3994              	.L251:
 3995              		.loc 1 1029 1 is_stmt 0 view .LVU1385
 3996 005e 10BD     		pop	{r4, pc}
 3997              	.LVL232:
 3998              	.L266:
 3999              		.loc 1 971 7 is_stmt 1 view .LVU1386
 4000 0060 FFF7FEFF 		bl	bdmaStreamFreeI
 4001              	.LVL233:
 4002              		.loc 1 972 7 view .LVU1387
 4003 0064 A06A     		ldr	r0, [r4, #40]
 4004 0066 FFF7FEFF 		bl	bdmaStreamFreeI
 4005              	.LVL234:
 4006 006a DAE7     		b	.L255
 4007              	.L267:
 4008              		.loc 1 991 7 view .LVU1388
 4009              	.LVL235:
 4010              	.LBB710:
 4011              	.LBI710:
 4012              		.loc 2 351 22 view .LVU1389
 4013              	.LBB711:
 4014              		.loc 2 361 3 view .LVU1390
 4015              		.loc 2 361 19 is_stmt 0 view .LVU1391
 4016 006c 244B     		ldr	r3, .L271+20
 4017 006e D3F8F020 		ldr	r2, [r3, #240]
 4018 0072 22F48052 		bic	r2, r2, #4096
 4019 0076 C3F8F020 		str	r2, [r3, #240]
 4020              		.loc 2 362 3 is_stmt 1 view .LVU1392
 4021              		.loc 2 362 21 is_stmt 0 view .LVU1393
 4022 007a D3F81821 		ldr	r2, [r3, #280]
 4023 007e 22F48052 		bic	r2, r2, #4096
 4024 0082 C3F81821 		str	r2, [r3, #280]
 4025              		.loc 2 363 3 is_stmt 1 view .LVU1394
 4026 0086 D3F81831 		ldr	r3, [r3, #280]
 4027              	.LBE711:
 4028              	.LBE710:
 4029              		.loc 1 1029 1 is_stmt 0 view .LVU1395
 4030 008a 10BD     		pop	{r4, pc}
 4031              	.LVL236:
 4032              	.L270:
 4033              		.loc 1 1015 7 is_stmt 1 view .LVU1396
 4034              	.LBB712:
 4035              	.LBI712:
 4036              		.loc 2 351 22 view .LVU1397
 4037              	.LBB713:
 4038              		.loc 2 361 3 view .LVU1398
 4039              		.loc 2 361 19 is_stmt 0 view .LVU1399
 4040 008c 1C4B     		ldr	r3, .L271+20
 4041 008e D3F8F020 		ldr	r2, [r3, #240]
 4042 0092 22F48012 		bic	r2, r2, #1048576
 4043 0096 C3F8F020 		str	r2, [r3, #240]
 4044              		.loc 2 362 3 is_stmt 1 view .LVU1400
 4045              		.loc 2 362 21 is_stmt 0 view .LVU1401
ARM GAS  C:\Users\DEVELO~1\AppData\Local\Temp\cc2saCCQ.s 			page 72


 4046 009a D3F81821 		ldr	r2, [r3, #280]
 4047 009e 22F48012 		bic	r2, r2, #1048576
 4048 00a2 C3F81821 		str	r2, [r3, #280]
 4049              		.loc 2 363 3 is_stmt 1 view .LVU1402
 4050 00a6 D3F81831 		ldr	r3, [r3, #280]
 4051              	.LBE713:
 4052              	.LBE712:
 4053              		.loc 1 1029 1 is_stmt 0 view .LVU1403
 4054 00aa 10BD     		pop	{r4, pc}
 4055              	.LVL237:
 4056              	.L268:
 4057              		.loc 1 997 7 is_stmt 1 view .LVU1404
 4058              	.LBB714:
 4059              	.LBI714:
 4060              		.loc 2 173 22 view .LVU1405
 4061              	.LBB715:
 4062              		.loc 2 183 3 view .LVU1406
 4063              		.loc 2 183 20 is_stmt 0 view .LVU1407
 4064 00ac 144B     		ldr	r3, .L271+20
 4065 00ae D3F8E820 		ldr	r2, [r3, #232]
 4066 00b2 22F48042 		bic	r2, r2, #16384
 4067 00b6 C3F8E820 		str	r2, [r3, #232]
 4068              		.loc 2 184 3 is_stmt 1 view .LVU1408
 4069              		.loc 2 184 22 is_stmt 0 view .LVU1409
 4070 00ba D3F81021 		ldr	r2, [r3, #272]
 4071 00be 22F48042 		bic	r2, r2, #16384
 4072 00c2 C3F81021 		str	r2, [r3, #272]
 4073              		.loc 2 185 3 is_stmt 1 view .LVU1410
 4074 00c6 D3F81031 		ldr	r3, [r3, #272]
 4075              	.LBE715:
 4076              	.LBE714:
 4077              		.loc 1 1029 1 is_stmt 0 view .LVU1411
 4078 00ca 10BD     		pop	{r4, pc}
 4079              	.LVL238:
 4080              	.L269:
 4081              		.loc 1 1003 7 is_stmt 1 view .LVU1412
 4082              	.LBB716:
 4083              	.LBI716:
 4084              		.loc 2 173 22 view .LVU1413
 4085              	.LBB717:
 4086              		.loc 2 183 3 view .LVU1414
 4087              		.loc 2 183 20 is_stmt 0 view .LVU1415
 4088 00cc 0C4B     		ldr	r3, .L271+20
 4089 00ce D3F8E820 		ldr	r2, [r3, #232]
 4090 00d2 22F40042 		bic	r2, r2, #32768
 4091 00d6 C3F8E820 		str	r2, [r3, #232]
 4092              		.loc 2 184 3 is_stmt 1 view .LVU1416
 4093              		.loc 2 184 22 is_stmt 0 view .LVU1417
 4094 00da D3F81021 		ldr	r2, [r3, #272]
 4095 00de 22F40042 		bic	r2, r2, #32768
 4096 00e2 C3F81021 		str	r2, [r3, #272]
 4097              		.loc 2 185 3 is_stmt 1 view .LVU1418
 4098 00e6 D3F81031 		ldr	r3, [r3, #272]
 4099              	.LBE717:
 4100              	.LBE716:
 4101              		.loc 1 1029 1 is_stmt 0 view .LVU1419
 4102 00ea 10BD     		pop	{r4, pc}
ARM GAS  C:\Users\DEVELO~1\AppData\Local\Temp\cc2saCCQ.s 			page 73


 4103              	.LVL239:
 4104              	.L272:
 4105              		.loc 1 1029 1 view .LVU1420
 4106              		.align	2
 4107              	.L271:
 4108 00ec 00000000 		.word	.LANCHOR0
 4109 00f0 00000000 		.word	.LANCHOR1
 4110 00f4 00000000 		.word	.LANCHOR2
 4111 00f8 00000000 		.word	.LANCHOR3
 4112 00fc 00000000 		.word	.LANCHOR4
 4113 0100 00440258 		.word	1476543488
 4114              		.cfi_endproc
 4115              	.LFE450:
 4116              		.size	spi_lld_stop, .-spi_lld_stop
 4117              		.section	.text.spi_lld_ignore,"ax",%progbits
 4118              		.align	1
 4119              		.p2align 4,,15
 4120              		.global	spi_lld_ignore
 4121              		.syntax unified
 4122              		.thumb
 4123              		.thumb_func
 4124              		.type	spi_lld_ignore, %function
 4125              	spi_lld_ignore:
 4126              	.LVL240:
 4127              	.LFB451:
 4128              		.loc 1 1070 49 is_stmt 1 view -0
 4129              		.cfi_startproc
 4130              		@ args = 0, pretend = 0, frame = 0
 4131              		@ frame_needed = 0, uses_anonymous_args = 0
 4132              		@ link register save eliminated.
 4133              		.loc 1 1072 3 view .LVU1422
 4134              		.loc 1 1072 3 view .LVU1423
 4135              		.loc 1 1072 3 view .LVU1424
 4136              		.loc 1 1075 3 view .LVU1425
 4137              		.loc 1 1075 6 is_stmt 0 view .LVU1426
 4138 0000 90F82030 		ldrb	r3, [r0, #32]	@ zero_extendqisi2
 4139              		.loc 1 1070 49 view .LVU1427
 4140 0004 30B4     		push	{r4, r5}
 4141              		.cfi_def_cfa_offset 8
 4142              		.cfi_offset 4, -8
 4143              		.cfi_offset 5, -4
 4144              		.loc 1 1083 5 view .LVU1428
 4145 0006 D0E90925 		ldrd	r2, r5, [r0, #36]
 4146              		.loc 1 1081 5 view .LVU1429
 4147 000a C46A     		ldr	r4, [r0, #44]
 4148              		.loc 1 1075 6 view .LVU1430
 4149 000c FBB1     		cbz	r3, .L274
 4150              		.loc 1 1079 5 is_stmt 1 view .LVU1431
 4151 000e 00F13403 		add	r3, r0, #52
 4152 0012 5268     		ldr	r2, [r2, #4]
 4153 0014 D360     		str	r3, [r2, #12]
 4154              		.loc 1 1079 54 view .LVU1432
 4155              		.loc 1 1080 5 view .LVU1433
 4156              		.loc 1 1083 5 is_stmt 0 view .LVU1434
 4157 0016 6B68     		ldr	r3, [r5, #4]
 4158              	.L278:
 4159              		.loc 1 1097 5 view .LVU1435
ARM GAS  C:\Users\DEVELO~1\AppData\Local\Temp\cc2saCCQ.s 			page 74


 4160 0018 5160     		str	r1, [r2, #4]
 4161              		.loc 1 1097 49 is_stmt 1 view .LVU1436
 4162              		.loc 1 1098 5 view .LVU1437
 4163              		.loc 1 1100 5 is_stmt 0 view .LVU1438
 4164 001a 00F13805 		add	r5, r0, #56
 4165              		.loc 1 1098 5 view .LVU1439
 4166 001e 1460     		str	r4, [r2]
 4167              		.loc 1 1098 52 is_stmt 1 view .LVU1440
 4168              		.loc 1 1100 5 view .LVU1441
 4169              		.loc 1 1102 5 is_stmt 0 view .LVU1442
 4170 0020 046B     		ldr	r4, [r0, #48]
 4171              		.loc 1 1100 5 view .LVU1443
 4172 0022 DD60     		str	r5, [r3, #12]
 4173              		.loc 1 1100 55 is_stmt 1 view .LVU1444
 4174              		.loc 1 1101 5 view .LVU1445
 4175 0024 5960     		str	r1, [r3, #4]
 4176              		.loc 1 1101 49 view .LVU1446
 4177              		.loc 1 1102 5 view .LVU1447
 4178 0026 1C60     		str	r4, [r3]
 4179              		.loc 1 1102 52 view .LVU1448
 4180              		.loc 1 1104 5 view .LVU1449
 4181 0028 1168     		ldr	r1, [r2]
 4182              	.LVL241:
 4183              		.loc 1 1104 5 is_stmt 0 view .LVU1450
 4184 002a 41F00101 		orr	r1, r1, #1
 4185 002e 1160     		str	r1, [r2]
 4186              		.loc 1 1104 34 is_stmt 1 view .LVU1451
 4187              		.loc 1 1105 5 view .LVU1452
 4188              		.loc 1 1105 34 view .LVU1453
 4189              		.loc 1 1109 3 view .LVU1454
 4190              	.LVL242:
 4191              	.LBB722:
 4192              	.LBI722:
 4193              		.loc 1 94 13 view .LVU1455
 4194              	.LBB723:
 4195              		.loc 1 96 3 view .LVU1456
 4196              	.LBE723:
 4197              	.LBE722:
 4198              		.loc 1 1105 5 is_stmt 0 view .LVU1457
 4199 0030 1A68     		ldr	r2, [r3]
 4200 0032 42F00102 		orr	r2, r2, #1
 4201 0036 1A60     		str	r2, [r3]
 4202              	.LBB727:
 4203              	.LBB726:
 4204              		.loc 1 96 20 view .LVU1458
 4205 0038 4368     		ldr	r3, [r0, #4]
 4206              		.loc 1 96 6 view .LVU1459
 4207 003a 5B78     		ldrb	r3, [r3, #1]	@ zero_extendqisi2
 4208 003c 23B9     		cbnz	r3, .L276
 4209 003e C269     		ldr	r2, [r0, #28]
 4210              	.LBB724:
 4211              	.LBI724:
 4212              		.loc 1 94 13 is_stmt 1 view .LVU1460
 4213              	.LVL243:
 4214              	.LBB725:
 4215              		.loc 1 97 5 view .LVU1461
 4216              		.loc 1 97 20 is_stmt 0 view .LVU1462
ARM GAS  C:\Users\DEVELO~1\AppData\Local\Temp\cc2saCCQ.s 			page 75


 4217 0040 1368     		ldr	r3, [r2]
 4218 0042 43F40073 		orr	r3, r3, #512
 4219 0046 1360     		str	r3, [r2]
 4220              	.L276:
 4221              	.LVL244:
 4222              		.loc 1 97 20 view .LVU1463
 4223              	.LBE725:
 4224              	.LBE724:
 4225              	.LBE726:
 4226              	.LBE727:
 4227              		.loc 1 1111 3 is_stmt 1 view .LVU1464
 4228              		.loc 1 1112 1 is_stmt 0 view .LVU1465
 4229 0048 0020     		movs	r0, #0
 4230              	.LVL245:
 4231              		.loc 1 1112 1 view .LVU1466
 4232 004a 30BC     		pop	{r4, r5}
 4233              		.cfi_remember_state
 4234              		.cfi_restore 5
 4235              		.cfi_restore 4
 4236              		.cfi_def_cfa_offset 0
 4237              	.LVL246:
 4238              		.loc 1 1112 1 view .LVU1467
 4239 004c 7047     		bx	lr
 4240              	.LVL247:
 4241              	.L274:
 4242              		.cfi_restore_state
 4243              		.loc 1 1096 5 is_stmt 1 view .LVU1468
 4244 004e 00F13403 		add	r3, r0, #52
 4245 0052 1268     		ldr	r2, [r2]
 4246 0054 D360     		str	r3, [r2, #12]
 4247              		.loc 1 1096 53 view .LVU1469
 4248              		.loc 1 1097 5 view .LVU1470
 4249              		.loc 1 1100 5 is_stmt 0 view .LVU1471
 4250 0056 2B68     		ldr	r3, [r5]
 4251 0058 DEE7     		b	.L278
 4252              		.cfi_endproc
 4253              	.LFE451:
 4254              		.size	spi_lld_ignore, .-spi_lld_ignore
 4255 005a 00BF     		.section	.text.spi_lld_exchange,"ax",%progbits
 4256              		.align	1
 4257              		.p2align 4,,15
 4258              		.global	spi_lld_exchange
 4259              		.syntax unified
 4260              		.thumb
 4261              		.thumb_func
 4262              		.type	spi_lld_exchange, %function
 4263              	spi_lld_exchange:
 4264              	.LVL248:
 4265              	.LFB452:
 4266              		.loc 1 1131 56 is_stmt 1 view -0
 4267              		.cfi_startproc
 4268              		@ args = 0, pretend = 0, frame = 0
 4269              		@ frame_needed = 0, uses_anonymous_args = 0
 4270              		@ link register save eliminated.
 4271              		.loc 1 1133 3 view .LVU1473
 4272              		.loc 1 1133 3 view .LVU1474
 4273              		.loc 1 1133 3 view .LVU1475
ARM GAS  C:\Users\DEVELO~1\AppData\Local\Temp\cc2saCCQ.s 			page 76


 4274              		.loc 1 1136 3 view .LVU1476
 4275              		.loc 1 1131 56 is_stmt 0 view .LVU1477
 4276 0000 10B4     		push	{r4}
 4277              		.cfi_def_cfa_offset 4
 4278              		.cfi_offset 4, -4
 4279              		.loc 1 1136 6 view .LVU1478
 4280 0002 90F82040 		ldrb	r4, [r0, #32]	@ zero_extendqisi2
 4281 0006 14B3     		cbz	r4, .L280
 4282              		.loc 1 1140 5 is_stmt 1 view .LVU1479
 4283 0008 446A     		ldr	r4, [r0, #36]
 4284 000a 6468     		ldr	r4, [r4, #4]
 4285 000c E360     		str	r3, [r4, #12]
 4286              		.loc 1 1140 46 view .LVU1480
 4287              		.loc 1 1141 5 view .LVU1481
 4288              		.loc 1 1142 5 is_stmt 0 view .LVU1482
 4289 000e C36A     		ldr	r3, [r0, #44]
 4290              	.LVL249:
 4291              		.loc 1 1141 5 view .LVU1483
 4292 0010 6160     		str	r1, [r4, #4]
 4293              	.LVL250:
 4294              		.loc 1 1141 51 is_stmt 1 view .LVU1484
 4295              		.loc 1 1142 5 view .LVU1485
 4296 0012 43F08003 		orr	r3, r3, #128
 4297 0016 2360     		str	r3, [r4]
 4298              		.loc 1 1142 75 view .LVU1486
 4299              		.loc 1 1144 5 view .LVU1487
 4300 0018 836A     		ldr	r3, [r0, #40]
 4301 001a 5B68     		ldr	r3, [r3, #4]
 4302 001c DA60     		str	r2, [r3, #12]
 4303              		.loc 1 1144 46 view .LVU1488
 4304              		.loc 1 1145 5 view .LVU1489
 4305              		.loc 1 1146 5 is_stmt 0 view .LVU1490
 4306 001e 026B     		ldr	r2, [r0, #48]
 4307              	.LVL251:
 4308              		.loc 1 1145 5 view .LVU1491
 4309 0020 5960     		str	r1, [r3, #4]
 4310              	.LVL252:
 4311              		.loc 1 1145 51 is_stmt 1 view .LVU1492
 4312              		.loc 1 1146 5 view .LVU1493
 4313 0022 42F08002 		orr	r2, r2, #128
 4314              	.L284:
 4315              		.loc 1 1163 5 is_stmt 0 view .LVU1494
 4316 0026 1A60     		str	r2, [r3]
 4317              		.loc 1 1163 72 is_stmt 1 view .LVU1495
 4318              		.loc 1 1165 5 view .LVU1496
 4319 0028 2268     		ldr	r2, [r4]
 4320 002a 42F00102 		orr	r2, r2, #1
 4321 002e 2260     		str	r2, [r4]
 4322              		.loc 1 1165 34 view .LVU1497
 4323              		.loc 1 1166 5 view .LVU1498
 4324              		.loc 1 1166 34 view .LVU1499
 4325              		.loc 1 1170 3 view .LVU1500
 4326              	.LVL253:
 4327              	.LBB732:
 4328              	.LBI732:
 4329              		.loc 1 94 13 view .LVU1501
 4330              	.LBB733:
ARM GAS  C:\Users\DEVELO~1\AppData\Local\Temp\cc2saCCQ.s 			page 77


 4331              		.loc 1 96 3 view .LVU1502
 4332              	.LBE733:
 4333              	.LBE732:
 4334              		.loc 1 1166 5 is_stmt 0 view .LVU1503
 4335 0030 1A68     		ldr	r2, [r3]
 4336 0032 42F00102 		orr	r2, r2, #1
 4337 0036 1A60     		str	r2, [r3]
 4338              	.LBB737:
 4339              	.LBB736:
 4340              		.loc 1 96 20 view .LVU1504
 4341 0038 4368     		ldr	r3, [r0, #4]
 4342              		.loc 1 96 6 view .LVU1505
 4343 003a 5B78     		ldrb	r3, [r3, #1]	@ zero_extendqisi2
 4344 003c 23B9     		cbnz	r3, .L282
 4345 003e C269     		ldr	r2, [r0, #28]
 4346              	.LBB734:
 4347              	.LBI734:
 4348              		.loc 1 94 13 is_stmt 1 view .LVU1506
 4349              	.LVL254:
 4350              	.LBB735:
 4351              		.loc 1 97 5 view .LVU1507
 4352              		.loc 1 97 20 is_stmt 0 view .LVU1508
 4353 0040 1368     		ldr	r3, [r2]
 4354 0042 43F40073 		orr	r3, r3, #512
 4355 0046 1360     		str	r3, [r2]
 4356              	.L282:
 4357              	.LVL255:
 4358              		.loc 1 97 20 view .LVU1509
 4359              	.LBE735:
 4360              	.LBE734:
 4361              	.LBE736:
 4362              	.LBE737:
 4363              		.loc 1 1172 3 is_stmt 1 view .LVU1510
 4364              		.loc 1 1173 1 is_stmt 0 view .LVU1511
 4365 0048 0020     		movs	r0, #0
 4366              	.LVL256:
 4367              		.loc 1 1173 1 view .LVU1512
 4368 004a 10BC     		pop	{r4}
 4369              		.cfi_remember_state
 4370              		.cfi_restore 4
 4371              		.cfi_def_cfa_offset 0
 4372 004c 7047     		bx	lr
 4373              	.LVL257:
 4374              	.L280:
 4375              		.cfi_restore_state
 4376              		.loc 1 1157 5 is_stmt 1 view .LVU1513
 4377 004e 446A     		ldr	r4, [r0, #36]
 4378 0050 2468     		ldr	r4, [r4]
 4379 0052 E360     		str	r3, [r4, #12]
 4380              		.loc 1 1157 45 view .LVU1514
 4381              		.loc 1 1158 5 view .LVU1515
 4382              		.loc 1 1159 5 is_stmt 0 view .LVU1516
 4383 0054 C36A     		ldr	r3, [r0, #44]
 4384              	.LVL258:
 4385              		.loc 1 1158 5 view .LVU1517
 4386 0056 6160     		str	r1, [r4, #4]
 4387              	.LVL259:
ARM GAS  C:\Users\DEVELO~1\AppData\Local\Temp\cc2saCCQ.s 			page 78


 4388              		.loc 1 1158 49 is_stmt 1 view .LVU1518
 4389              		.loc 1 1159 5 view .LVU1519
 4390 0058 43F48063 		orr	r3, r3, #1024
 4391 005c 2360     		str	r3, [r4]
 4392              		.loc 1 1159 72 view .LVU1520
 4393              		.loc 1 1161 5 view .LVU1521
 4394 005e 836A     		ldr	r3, [r0, #40]
 4395 0060 1B68     		ldr	r3, [r3]
 4396 0062 DA60     		str	r2, [r3, #12]
 4397              		.loc 1 1161 45 view .LVU1522
 4398              		.loc 1 1162 5 view .LVU1523
 4399              		.loc 1 1163 5 is_stmt 0 view .LVU1524
 4400 0064 026B     		ldr	r2, [r0, #48]
 4401              	.LVL260:
 4402              		.loc 1 1162 5 view .LVU1525
 4403 0066 5960     		str	r1, [r3, #4]
 4404              	.LVL261:
 4405              		.loc 1 1162 49 is_stmt 1 view .LVU1526
 4406              		.loc 1 1163 5 view .LVU1527
 4407 0068 42F48062 		orr	r2, r2, #1024
 4408 006c DBE7     		b	.L284
 4409              		.cfi_endproc
 4410              	.LFE452:
 4411              		.size	spi_lld_exchange, .-spi_lld_exchange
 4412 006e 00BF     		.section	.text.spi_lld_send,"ax",%progbits
 4413              		.align	1
 4414              		.p2align 4,,15
 4415              		.global	spi_lld_send
 4416              		.syntax unified
 4417              		.thumb
 4418              		.thumb_func
 4419              		.type	spi_lld_send, %function
 4420              	spi_lld_send:
 4421              	.LVL262:
 4422              	.LFB453:
 4423              		.loc 1 1189 66 view -0
 4424              		.cfi_startproc
 4425              		@ args = 0, pretend = 0, frame = 0
 4426              		@ frame_needed = 0, uses_anonymous_args = 0
 4427              		@ link register save eliminated.
 4428              		.loc 1 1191 3 view .LVU1529
 4429              		.loc 1 1191 3 view .LVU1530
 4430              		.loc 1 1191 3 view .LVU1531
 4431              		.loc 1 1194 3 view .LVU1532
 4432              		.loc 1 1194 6 is_stmt 0 view .LVU1533
 4433 0000 90F82030 		ldrb	r3, [r0, #32]	@ zero_extendqisi2
 4434              		.loc 1 1189 66 view .LVU1534
 4435 0004 10B4     		push	{r4}
 4436              		.cfi_def_cfa_offset 4
 4437              		.cfi_offset 4, -4
 4438              		.loc 1 1198 5 view .LVU1535
 4439 0006 446A     		ldr	r4, [r0, #36]
 4440              		.loc 1 1194 6 view .LVU1536
 4441 0008 0BB3     		cbz	r3, .L286
 4442              		.loc 1 1198 5 is_stmt 1 view .LVU1537
 4443 000a 6468     		ldr	r4, [r4, #4]
 4444 000c 00F13403 		add	r3, r0, #52
ARM GAS  C:\Users\DEVELO~1\AppData\Local\Temp\cc2saCCQ.s 			page 79


 4445 0010 E360     		str	r3, [r4, #12]
 4446              		.loc 1 1198 54 view .LVU1538
 4447              		.loc 1 1199 5 view .LVU1539
 4448              		.loc 1 1200 5 is_stmt 0 view .LVU1540
 4449 0012 C36A     		ldr	r3, [r0, #44]
 4450              		.loc 1 1199 5 view .LVU1541
 4451 0014 6160     		str	r1, [r4, #4]
 4452              		.loc 1 1199 51 is_stmt 1 view .LVU1542
 4453              		.loc 1 1200 5 view .LVU1543
 4454 0016 2360     		str	r3, [r4]
 4455              		.loc 1 1200 54 view .LVU1544
 4456              		.loc 1 1202 5 view .LVU1545
 4457 0018 836A     		ldr	r3, [r0, #40]
 4458 001a 5B68     		ldr	r3, [r3, #4]
 4459 001c DA60     		str	r2, [r3, #12]
 4460              		.loc 1 1202 46 view .LVU1546
 4461              		.loc 1 1203 5 view .LVU1547
 4462              		.loc 1 1204 5 is_stmt 0 view .LVU1548
 4463 001e 026B     		ldr	r2, [r0, #48]
 4464              	.LVL263:
 4465              		.loc 1 1203 5 view .LVU1549
 4466 0020 5960     		str	r1, [r3, #4]
 4467              	.LVL264:
 4468              		.loc 1 1203 51 is_stmt 1 view .LVU1550
 4469              		.loc 1 1204 5 view .LVU1551
 4470 0022 42F08002 		orr	r2, r2, #128
 4471              	.L290:
 4472              		.loc 1 1221 5 is_stmt 0 view .LVU1552
 4473 0026 1A60     		str	r2, [r3]
 4474              		.loc 1 1221 72 is_stmt 1 view .LVU1553
 4475              		.loc 1 1223 5 view .LVU1554
 4476 0028 2268     		ldr	r2, [r4]
 4477 002a 42F00102 		orr	r2, r2, #1
 4478 002e 2260     		str	r2, [r4]
 4479              		.loc 1 1223 34 view .LVU1555
 4480              		.loc 1 1224 5 view .LVU1556
 4481              		.loc 1 1224 34 view .LVU1557
 4482              		.loc 1 1228 3 view .LVU1558
 4483              	.LVL265:
 4484              	.LBB742:
 4485              	.LBI742:
 4486              		.loc 1 94 13 view .LVU1559
 4487              	.LBB743:
 4488              		.loc 1 96 3 view .LVU1560
 4489              	.LBE743:
 4490              	.LBE742:
 4491              		.loc 1 1224 5 is_stmt 0 view .LVU1561
 4492 0030 1A68     		ldr	r2, [r3]
 4493 0032 42F00102 		orr	r2, r2, #1
 4494 0036 1A60     		str	r2, [r3]
 4495              	.LBB747:
 4496              	.LBB746:
 4497              		.loc 1 96 20 view .LVU1562
 4498 0038 4368     		ldr	r3, [r0, #4]
 4499              		.loc 1 96 6 view .LVU1563
 4500 003a 5B78     		ldrb	r3, [r3, #1]	@ zero_extendqisi2
 4501 003c 23B9     		cbnz	r3, .L288
ARM GAS  C:\Users\DEVELO~1\AppData\Local\Temp\cc2saCCQ.s 			page 80


 4502 003e C269     		ldr	r2, [r0, #28]
 4503              	.LBB744:
 4504              	.LBI744:
 4505              		.loc 1 94 13 is_stmt 1 view .LVU1564
 4506              	.LVL266:
 4507              	.LBB745:
 4508              		.loc 1 97 5 view .LVU1565
 4509              		.loc 1 97 20 is_stmt 0 view .LVU1566
 4510 0040 1368     		ldr	r3, [r2]
 4511 0042 43F40073 		orr	r3, r3, #512
 4512 0046 1360     		str	r3, [r2]
 4513              	.L288:
 4514              	.LVL267:
 4515              		.loc 1 97 20 view .LVU1567
 4516              	.LBE745:
 4517              	.LBE744:
 4518              	.LBE746:
 4519              	.LBE747:
 4520              		.loc 1 1230 3 is_stmt 1 view .LVU1568
 4521              		.loc 1 1231 1 is_stmt 0 view .LVU1569
 4522 0048 0020     		movs	r0, #0
 4523              	.LVL268:
 4524              		.loc 1 1231 1 view .LVU1570
 4525 004a 10BC     		pop	{r4}
 4526              		.cfi_remember_state
 4527              		.cfi_restore 4
 4528              		.cfi_def_cfa_offset 0
 4529 004c 7047     		bx	lr
 4530              	.LVL269:
 4531              	.L286:
 4532              		.cfi_restore_state
 4533              		.loc 1 1215 5 is_stmt 1 view .LVU1571
 4534 004e 2468     		ldr	r4, [r4]
 4535 0050 00F13403 		add	r3, r0, #52
 4536 0054 E360     		str	r3, [r4, #12]
 4537              		.loc 1 1215 53 view .LVU1572
 4538              		.loc 1 1216 5 view .LVU1573
 4539              		.loc 1 1217 5 is_stmt 0 view .LVU1574
 4540 0056 C36A     		ldr	r3, [r0, #44]
 4541              		.loc 1 1216 5 view .LVU1575
 4542 0058 6160     		str	r1, [r4, #4]
 4543              		.loc 1 1216 49 is_stmt 1 view .LVU1576
 4544              		.loc 1 1217 5 view .LVU1577
 4545 005a 2360     		str	r3, [r4]
 4546              		.loc 1 1217 52 view .LVU1578
 4547              		.loc 1 1219 5 view .LVU1579
 4548 005c 836A     		ldr	r3, [r0, #40]
 4549 005e 1B68     		ldr	r3, [r3]
 4550 0060 DA60     		str	r2, [r3, #12]
 4551              		.loc 1 1219 45 view .LVU1580
 4552              		.loc 1 1220 5 view .LVU1581
 4553              		.loc 1 1221 5 is_stmt 0 view .LVU1582
 4554 0062 026B     		ldr	r2, [r0, #48]
 4555              	.LVL270:
 4556              		.loc 1 1220 5 view .LVU1583
 4557 0064 5960     		str	r1, [r3, #4]
 4558              	.LVL271:
ARM GAS  C:\Users\DEVELO~1\AppData\Local\Temp\cc2saCCQ.s 			page 81


 4559              		.loc 1 1220 49 is_stmt 1 view .LVU1584
 4560              		.loc 1 1221 5 view .LVU1585
 4561 0066 42F48062 		orr	r2, r2, #1024
 4562 006a DCE7     		b	.L290
 4563              		.cfi_endproc
 4564              	.LFE453:
 4565              		.size	spi_lld_send, .-spi_lld_send
 4566              		.section	.text.spi_lld_receive,"ax",%progbits
 4567              		.align	1
 4568              		.p2align 4,,15
 4569              		.global	spi_lld_receive
 4570              		.syntax unified
 4571              		.thumb
 4572              		.thumb_func
 4573              		.type	spi_lld_receive, %function
 4574              	spi_lld_receive:
 4575              	.LVL272:
 4576              	.LFB454:
 4577              		.loc 1 1247 63 view -0
 4578              		.cfi_startproc
 4579              		@ args = 0, pretend = 0, frame = 0
 4580              		@ frame_needed = 0, uses_anonymous_args = 0
 4581              		@ link register save eliminated.
 4582              		.loc 1 1249 3 view .LVU1587
 4583              		.loc 1 1249 3 view .LVU1588
 4584              		.loc 1 1249 3 view .LVU1589
 4585              		.loc 1 1252 3 view .LVU1590
 4586              		.loc 1 1252 6 is_stmt 0 view .LVU1591
 4587 0000 90F82030 		ldrb	r3, [r0, #32]	@ zero_extendqisi2
 4588              		.loc 1 1247 63 view .LVU1592
 4589 0004 10B4     		push	{r4}
 4590              		.cfi_def_cfa_offset 4
 4591              		.cfi_offset 4, -4
 4592              		.loc 1 1256 5 view .LVU1593
 4593 0006 446A     		ldr	r4, [r0, #36]
 4594              		.loc 1 1252 6 view .LVU1594
 4595 0008 0BB3     		cbz	r3, .L292
 4596              		.loc 1 1256 5 is_stmt 1 view .LVU1595
 4597              		.loc 1 1258 5 is_stmt 0 view .LVU1596
 4598 000a C36A     		ldr	r3, [r0, #44]
 4599              		.loc 1 1256 5 view .LVU1597
 4600 000c 6468     		ldr	r4, [r4, #4]
 4601              		.loc 1 1258 5 view .LVU1598
 4602 000e 43F08003 		orr	r3, r3, #128
 4603              		.loc 1 1256 5 view .LVU1599
 4604 0012 E260     		str	r2, [r4, #12]
 4605              		.loc 1 1256 46 is_stmt 1 view .LVU1600
 4606              		.loc 1 1257 5 view .LVU1601
 4607              		.loc 1 1260 5 is_stmt 0 view .LVU1602
 4608 0014 00F13802 		add	r2, r0, #56
 4609              	.LVL273:
 4610              		.loc 1 1257 5 view .LVU1603
 4611 0018 6160     		str	r1, [r4, #4]
 4612              	.LVL274:
 4613              		.loc 1 1257 51 is_stmt 1 view .LVU1604
 4614              		.loc 1 1258 5 view .LVU1605
 4615 001a 2360     		str	r3, [r4]
ARM GAS  C:\Users\DEVELO~1\AppData\Local\Temp\cc2saCCQ.s 			page 82


 4616              		.loc 1 1258 75 view .LVU1606
 4617              		.loc 1 1260 5 view .LVU1607
 4618 001c 836A     		ldr	r3, [r0, #40]
 4619 001e 5B68     		ldr	r3, [r3, #4]
 4620              	.L296:
 4621              		.loc 1 1277 5 is_stmt 0 view .LVU1608
 4622 0020 DA60     		str	r2, [r3, #12]
 4623              		.loc 1 1277 55 is_stmt 1 view .LVU1609
 4624              		.loc 1 1278 5 view .LVU1610
 4625              		.loc 1 1279 5 is_stmt 0 view .LVU1611
 4626 0022 026B     		ldr	r2, [r0, #48]
 4627              		.loc 1 1278 5 view .LVU1612
 4628 0024 5960     		str	r1, [r3, #4]
 4629              		.loc 1 1278 49 is_stmt 1 view .LVU1613
 4630              		.loc 1 1279 5 view .LVU1614
 4631 0026 1A60     		str	r2, [r3]
 4632              		.loc 1 1279 52 view .LVU1615
 4633              		.loc 1 1281 5 view .LVU1616
 4634 0028 2268     		ldr	r2, [r4]
 4635 002a 42F00102 		orr	r2, r2, #1
 4636 002e 2260     		str	r2, [r4]
 4637              		.loc 1 1281 34 view .LVU1617
 4638              		.loc 1 1282 5 view .LVU1618
 4639              		.loc 1 1282 34 view .LVU1619
 4640              		.loc 1 1286 3 view .LVU1620
 4641              	.LVL275:
 4642              	.LBB752:
 4643              	.LBI752:
 4644              		.loc 1 94 13 view .LVU1621
 4645              	.LBB753:
 4646              		.loc 1 96 3 view .LVU1622
 4647              	.LBE753:
 4648              	.LBE752:
 4649              		.loc 1 1282 5 is_stmt 0 view .LVU1623
 4650 0030 1A68     		ldr	r2, [r3]
 4651 0032 42F00102 		orr	r2, r2, #1
 4652 0036 1A60     		str	r2, [r3]
 4653              	.LBB757:
 4654              	.LBB756:
 4655              		.loc 1 96 20 view .LVU1624
 4656 0038 4368     		ldr	r3, [r0, #4]
 4657              		.loc 1 96 6 view .LVU1625
 4658 003a 5B78     		ldrb	r3, [r3, #1]	@ zero_extendqisi2
 4659 003c 23B9     		cbnz	r3, .L294
 4660 003e C269     		ldr	r2, [r0, #28]
 4661              	.LBB754:
 4662              	.LBI754:
 4663              		.loc 1 94 13 is_stmt 1 view .LVU1626
 4664              	.LVL276:
 4665              	.LBB755:
 4666              		.loc 1 97 5 view .LVU1627
 4667              		.loc 1 97 20 is_stmt 0 view .LVU1628
 4668 0040 1368     		ldr	r3, [r2]
 4669 0042 43F40073 		orr	r3, r3, #512
 4670 0046 1360     		str	r3, [r2]
 4671              	.L294:
 4672              	.LVL277:
ARM GAS  C:\Users\DEVELO~1\AppData\Local\Temp\cc2saCCQ.s 			page 83


 4673              		.loc 1 97 20 view .LVU1629
 4674              	.LBE755:
 4675              	.LBE754:
 4676              	.LBE756:
 4677              	.LBE757:
 4678              		.loc 1 1288 3 is_stmt 1 view .LVU1630
 4679              		.loc 1 1289 1 is_stmt 0 view .LVU1631
 4680 0048 0020     		movs	r0, #0
 4681              	.LVL278:
 4682              		.loc 1 1289 1 view .LVU1632
 4683 004a 10BC     		pop	{r4}
 4684              		.cfi_remember_state
 4685              		.cfi_restore 4
 4686              		.cfi_def_cfa_offset 0
 4687 004c 7047     		bx	lr
 4688              	.LVL279:
 4689              	.L292:
 4690              		.cfi_restore_state
 4691              		.loc 1 1273 5 is_stmt 1 view .LVU1633
 4692              		.loc 1 1275 5 is_stmt 0 view .LVU1634
 4693 004e C36A     		ldr	r3, [r0, #44]
 4694              		.loc 1 1273 5 view .LVU1635
 4695 0050 2468     		ldr	r4, [r4]
 4696              		.loc 1 1275 5 view .LVU1636
 4697 0052 43F48063 		orr	r3, r3, #1024
 4698              		.loc 1 1273 5 view .LVU1637
 4699 0056 E260     		str	r2, [r4, #12]
 4700              		.loc 1 1273 45 is_stmt 1 view .LVU1638
 4701              		.loc 1 1274 5 view .LVU1639
 4702              		.loc 1 1277 5 is_stmt 0 view .LVU1640
 4703 0058 00F13802 		add	r2, r0, #56
 4704              	.LVL280:
 4705              		.loc 1 1274 5 view .LVU1641
 4706 005c 6160     		str	r1, [r4, #4]
 4707              	.LVL281:
 4708              		.loc 1 1274 49 is_stmt 1 view .LVU1642
 4709              		.loc 1 1275 5 view .LVU1643
 4710 005e 2360     		str	r3, [r4]
 4711              		.loc 1 1275 72 view .LVU1644
 4712              		.loc 1 1277 5 view .LVU1645
 4713 0060 836A     		ldr	r3, [r0, #40]
 4714 0062 1B68     		ldr	r3, [r3]
 4715 0064 DCE7     		b	.L296
 4716              		.cfi_endproc
 4717              	.LFE454:
 4718              		.size	spi_lld_receive, .-spi_lld_receive
 4719 0066 00BF     		.section	.text.spi_lld_stop_transfer,"ax",%progbits
 4720              		.align	1
 4721              		.p2align 4,,15
 4722              		.global	spi_lld_stop_transfer
 4723              		.syntax unified
 4724              		.thumb
 4725              		.thumb_func
 4726              		.type	spi_lld_stop_transfer, %function
 4727              	spi_lld_stop_transfer:
 4728              	.LVL282:
 4729              	.LFB455:
ARM GAS  C:\Users\DEVELO~1\AppData\Local\Temp\cc2saCCQ.s 			page 84


 4730              		.loc 1 1301 61 view -0
 4731              		.cfi_startproc
 4732              		@ args = 0, pretend = 0, frame = 0
 4733              		@ frame_needed = 0, uses_anonymous_args = 0
 4734              		.loc 1 1302 3 view .LVU1647
 4735              		.loc 1 1305 3 view .LVU1648
 4736              		.loc 1 1301 61 is_stmt 0 view .LVU1649
 4737 0000 38B5     		push	{r3, r4, r5, lr}
 4738              		.cfi_def_cfa_offset 16
 4739              		.cfi_offset 3, -16
 4740              		.cfi_offset 4, -12
 4741              		.cfi_offset 5, -8
 4742              		.cfi_offset 14, -4
 4743              		.loc 1 1301 61 view .LVU1650
 4744 0002 0C46     		mov	r4, r1
 4745 0004 0546     		mov	r5, r0
 4746              		.loc 1 1305 9 view .LVU1651
 4747 0006 FFF7FEFF 		bl	spi_lld_stop_nicely
 4748              	.LVL283:
 4749              		.loc 1 1307 3 is_stmt 1 view .LVU1652
 4750              		.loc 1 1307 6 is_stmt 0 view .LVU1653
 4751 000a 34B1     		cbz	r4, .L297
 4752              		.loc 1 1309 5 is_stmt 1 view .LVU1654
 4753              		.loc 1 1309 8 is_stmt 0 view .LVU1655
 4754 000c 95F82030 		ldrb	r3, [r5, #32]	@ zero_extendqisi2
 4755 0010 23B1     		cbz	r3, .L299
 4756              		.loc 1 1313 7 is_stmt 1 view .LVU1656
 4757              		.loc 1 1313 16 is_stmt 0 view .LVU1657
 4758 0012 6B6A     		ldr	r3, [r5, #36]
 4759 0014 5B68     		ldr	r3, [r3, #4]
 4760 0016 5B68     		ldr	r3, [r3, #4]
 4761              		.loc 1 1313 14 view .LVU1658
 4762 0018 2360     		str	r3, [r4]
 4763              	.L297:
 4764              		.loc 1 1327 1 view .LVU1659
 4765 001a 38BD     		pop	{r3, r4, r5, pc}
 4766              	.LVL284:
 4767              	.L299:
 4768              		.loc 1 1321 7 is_stmt 1 view .LVU1660
 4769              		.loc 1 1321 16 is_stmt 0 view .LVU1661
 4770 001c 6B6A     		ldr	r3, [r5, #36]
 4771 001e 1B68     		ldr	r3, [r3]
 4772 0020 5B68     		ldr	r3, [r3, #4]
 4773              		.loc 1 1321 14 view .LVU1662
 4774 0022 2360     		str	r3, [r4]
 4775              		.loc 1 1326 3 is_stmt 1 view .LVU1663
 4776              		.loc 1 1327 1 is_stmt 0 view .LVU1664
 4777 0024 38BD     		pop	{r3, r4, r5, pc}
 4778              		.loc 1 1327 1 view .LVU1665
 4779              		.cfi_endproc
 4780              	.LFE455:
 4781              		.size	spi_lld_stop_transfer, .-spi_lld_stop_transfer
 4782 0026 00BF     		.section	.text.spi_lld_polled_exchange,"ax",%progbits
 4783              		.align	1
 4784              		.p2align 4,,15
 4785              		.global	spi_lld_polled_exchange
 4786              		.syntax unified
ARM GAS  C:\Users\DEVELO~1\AppData\Local\Temp\cc2saCCQ.s 			page 85


 4787              		.thumb
 4788              		.thumb_func
 4789              		.type	spi_lld_polled_exchange, %function
 4790              	spi_lld_polled_exchange:
 4791              	.LVL285:
 4792              	.LFB456:
 4793              		.loc 1 1343 67 is_stmt 1 view -0
 4794              		.cfi_startproc
 4795              		@ args = 0, pretend = 0, frame = 0
 4796              		@ frame_needed = 0, uses_anonymous_args = 0
 4797              		@ link register save eliminated.
 4798              		.loc 1 1344 3 view .LVU1667
 4799              		.loc 1 1344 25 is_stmt 0 view .LVU1668
 4800 0000 C369     		ldr	r3, [r0, #28]
 4801              		.loc 1 1343 67 view .LVU1669
 4802 0002 10B4     		push	{r4}
 4803              		.cfi_def_cfa_offset 4
 4804              		.cfi_offset 4, -4
 4805              		.loc 1 1344 30 view .LVU1670
 4806 0004 9A68     		ldr	r2, [r3, #8]
 4807              	.LBB766:
 4808              	.LBB767:
 4809              		.loc 1 96 20 view .LVU1671
 4810 0006 4468     		ldr	r4, [r0, #4]
 4811              	.LBE767:
 4812              	.LBE766:
 4813              		.loc 1 1344 37 view .LVU1672
 4814 0008 02F01F0C 		and	ip, r2, #31
 4815              	.LBB772:
 4816              	.LBB770:
 4817              		.loc 1 96 20 view .LVU1673
 4818 000c 6478     		ldrb	r4, [r4, #1]	@ zero_extendqisi2
 4819              	.LBE770:
 4820              	.LBE772:
 4821              		.loc 1 1344 12 view .LVU1674
 4822 000e 0CF1010C 		add	ip, ip, #1
 4823              	.LVL286:
 4824              		.loc 1 1345 3 is_stmt 1 view .LVU1675
 4825              		.loc 1 1347 3 view .LVU1676
 4826              	.LBB773:
 4827              	.LBI766:
 4828              		.loc 1 94 13 view .LVU1677
 4829              	.LBB771:
 4830              		.loc 1 96 3 view .LVU1678
 4831              		.loc 1 96 6 is_stmt 0 view .LVU1679
 4832 0012 1CB9     		cbnz	r4, .L306
 4833              	.LBB768:
 4834              	.LBI768:
 4835              		.loc 1 94 13 is_stmt 1 view .LVU1680
 4836              	.LVL287:
 4837              	.LBB769:
 4838              		.loc 1 97 5 view .LVU1681
 4839              		.loc 1 97 20 is_stmt 0 view .LVU1682
 4840 0014 1A68     		ldr	r2, [r3]
 4841 0016 42F40072 		orr	r2, r2, #512
 4842 001a 1A60     		str	r2, [r3]
 4843              	.LVL288:
ARM GAS  C:\Users\DEVELO~1\AppData\Local\Temp\cc2saCCQ.s 			page 86


 4844              	.L306:
 4845              		.loc 1 97 20 view .LVU1683
 4846              	.LBE769:
 4847              	.LBE768:
 4848              	.LBE771:
 4849              	.LBE773:
 4850              		.loc 1 1350 39 is_stmt 1 discriminator 1 view .LVU1684
 4851              		.loc 1 1350 20 is_stmt 0 discriminator 1 view .LVU1685
 4852 001c 5A69     		ldr	r2, [r3, #20]
 4853              		.loc 1 1350 39 discriminator 1 view .LVU1686
 4854 001e 9207     		lsls	r2, r2, #30
 4855 0020 FCD5     		bpl	.L306
 4856              		.loc 1 1355 3 is_stmt 1 view .LVU1687
 4857              		.loc 1 1355 6 is_stmt 0 view .LVU1688
 4858 0022 BCF1080F 		cmp	ip, #8
 4859 0026 18D8     		bhi	.L307
 4860              	.LBB774:
 4861              		.loc 1 1357 5 is_stmt 1 view .LVU1689
 4862              	.LVL289:
 4863              		.loc 1 1358 5 view .LVU1690
 4864              		.loc 1 1359 5 view .LVU1691
 4865              		.loc 1 1359 15 is_stmt 0 view .LVU1692
 4866 0028 C9B2     		uxtb	r1, r1
 4867              	.LVL290:
 4868              		.loc 1 1359 13 view .LVU1693
 4869 002a 83F82010 		strb	r1, [r3, #32]
 4870              		.loc 1 1360 5 is_stmt 1 view .LVU1694
 4871              		.loc 1 1360 17 is_stmt 0 view .LVU1695
 4872 002e C269     		ldr	r2, [r0, #28]
 4873              	.L308:
 4874              		.loc 1 1360 41 is_stmt 1 discriminator 1 view .LVU1696
 4875              		.loc 1 1360 22 is_stmt 0 discriminator 1 view .LVU1697
 4876 0030 5169     		ldr	r1, [r2, #20]
 4877              		.loc 1 1360 41 discriminator 1 view .LVU1698
 4878 0032 CC07     		lsls	r4, r1, #31
 4879 0034 FCD5     		bpl	.L308
 4880              		.loc 1 1362 5 is_stmt 1 view .LVU1699
 4881              	.LBE774:
 4882              	.LBB775:
 4883              	.LBB776:
 4884              		.loc 1 103 20 is_stmt 0 view .LVU1700
 4885 0036 4168     		ldr	r1, [r0, #4]
 4886              	.LBE776:
 4887              	.LBE775:
 4888              	.LBB780:
 4889              		.loc 1 1362 25 view .LVU1701
 4890 0038 93F83030 		ldrb	r3, [r3, #48]	@ zero_extendqisi2
 4891              	.LVL291:
 4892              		.loc 1 1362 25 view .LVU1702
 4893              	.LBE780:
 4894              	.LBB781:
 4895              	.LBB777:
 4896              		.loc 1 103 20 view .LVU1703
 4897 003c 4C78     		ldrb	r4, [r1, #1]	@ zero_extendqisi2
 4898              	.LBE777:
 4899              	.LBE781:
 4900              	.LBB782:
ARM GAS  C:\Users\DEVELO~1\AppData\Local\Temp\cc2saCCQ.s 			page 87


 4901              		.loc 1 1362 25 view .LVU1704
 4902 003e D8B2     		uxtb	r0, r3
 4903              	.LVL292:
 4904              	.L309:
 4905              		.loc 1 1362 25 view .LVU1705
 4906              	.LBE782:
 4907              		.loc 1 1381 3 is_stmt 1 view .LVU1706
 4908              	.LBB783:
 4909              	.LBI775:
 4910              		.loc 1 101 13 view .LVU1707
 4911              	.LBB778:
 4912              		.loc 1 103 3 view .LVU1708
 4913              		.loc 1 103 6 is_stmt 0 view .LVU1709
 4914 0040 34B9     		cbnz	r4, .L315
 4915              		.loc 1 104 5 is_stmt 1 view .LVU1710
 4916              		.loc 1 104 20 is_stmt 0 view .LVU1711
 4917 0042 1368     		ldr	r3, [r2]
 4918 0044 43F48063 		orr	r3, r3, #1024
 4919 0048 1360     		str	r3, [r2]
 4920              		.loc 1 105 5 is_stmt 1 view .LVU1712
 4921              	.L314:
 4922              		.loc 1 106 5 view .LVU1713
 4923              		.loc 1 105 46 view .LVU1714
 4924              		.loc 1 105 22 is_stmt 0 view .LVU1715
 4925 004a 1368     		ldr	r3, [r2]
 4926              		.loc 1 105 46 view .LVU1716
 4927 004c 9B05     		lsls	r3, r3, #22
 4928 004e FCD4     		bmi	.L314
 4929              	.L315:
 4930              		.loc 1 108 3 is_stmt 1 view .LVU1717
 4931              		.loc 1 108 19 is_stmt 0 view .LVU1718
 4932 0050 4FF0FF33 		mov	r3, #-1
 4933              	.LBE778:
 4934              	.LBE783:
 4935              		.loc 1 1385 1 view .LVU1719
 4936 0054 10BC     		pop	{r4}
 4937              		.cfi_remember_state
 4938              		.cfi_restore 4
 4939              		.cfi_def_cfa_offset 0
 4940              	.LBB784:
 4941              	.LBB779:
 4942              		.loc 1 108 19 view .LVU1720
 4943 0056 9361     		str	r3, [r2, #24]
 4944              	.LVL293:
 4945              		.loc 1 108 19 view .LVU1721
 4946              	.LBE779:
 4947              	.LBE784:
 4948              		.loc 1 1384 3 is_stmt 1 view .LVU1722
 4949              		.loc 1 1385 1 is_stmt 0 view .LVU1723
 4950 0058 7047     		bx	lr
 4951              	.LVL294:
 4952              	.L307:
 4953              		.cfi_restore_state
 4954              		.loc 1 1364 8 is_stmt 1 view .LVU1724
 4955              		.loc 1 1364 11 is_stmt 0 view .LVU1725
 4956 005a BCF1100F 		cmp	ip, #16
 4957 005e 08D8     		bhi	.L310
ARM GAS  C:\Users\DEVELO~1\AppData\Local\Temp\cc2saCCQ.s 			page 88


 4958              	.LBB785:
 4959              		.loc 1 1366 5 is_stmt 1 view .LVU1726
 4960              	.LVL295:
 4961              		.loc 1 1367 5 view .LVU1727
 4962              		.loc 1 1368 5 view .LVU1728
 4963              		.loc 1 1368 16 is_stmt 0 view .LVU1729
 4964 0060 89B2     		uxth	r1, r1
 4965              	.LVL296:
 4966              		.loc 1 1368 14 view .LVU1730
 4967 0062 1984     		strh	r1, [r3, #32]	@ movhi
 4968              		.loc 1 1369 5 is_stmt 1 view .LVU1731
 4969              	.L311:
 4970              		.loc 1 1369 41 discriminator 1 view .LVU1732
 4971              		.loc 1 1369 22 is_stmt 0 discriminator 1 view .LVU1733
 4972 0064 5A69     		ldr	r2, [r3, #20]
 4973              		.loc 1 1369 41 discriminator 1 view .LVU1734
 4974 0066 D107     		lsls	r1, r2, #31
 4975 0068 FCD5     		bpl	.L311
 4976              		.loc 1 1371 5 is_stmt 1 view .LVU1735
 4977              		.loc 1 1371 25 is_stmt 0 view .LVU1736
 4978 006a 188E     		ldrh	r0, [r3, #48]
 4979              	.LVL297:
 4980              		.loc 1 1371 25 view .LVU1737
 4981              	.LBE785:
 4982 006c 1A46     		mov	r2, r3
 4983              	.LBB786:
 4984 006e 80B2     		uxth	r0, r0
 4985              	.LVL298:
 4986              		.loc 1 1371 25 view .LVU1738
 4987              	.LBE786:
 4988 0070 E6E7     		b	.L309
 4989              	.LVL299:
 4990              	.L310:
 4991              		.loc 1 1375 5 is_stmt 1 view .LVU1739
 4992              		.loc 1 1375 21 is_stmt 0 view .LVU1740
 4993 0072 1962     		str	r1, [r3, #32]
 4994              		.loc 1 1376 5 is_stmt 1 view .LVU1741
 4995              	.L312:
 4996              		.loc 1 1376 41 discriminator 1 view .LVU1742
 4997              		.loc 1 1376 22 is_stmt 0 discriminator 1 view .LVU1743
 4998 0074 5A69     		ldr	r2, [r3, #20]
 4999              		.loc 1 1376 41 discriminator 1 view .LVU1744
 5000 0076 D207     		lsls	r2, r2, #31
 5001 0078 FCD5     		bpl	.L312
 5002              		.loc 1 1378 5 is_stmt 1 view .LVU1745
 5003              		.loc 1 1378 13 is_stmt 0 view .LVU1746
 5004 007a 186B     		ldr	r0, [r3, #48]
 5005              	.LVL300:
 5006              		.loc 1 1378 13 view .LVU1747
 5007 007c 1A46     		mov	r2, r3
 5008 007e DFE7     		b	.L309
 5009              		.cfi_endproc
 5010              	.LFE456:
 5011              		.size	spi_lld_polled_exchange, .-spi_lld_polled_exchange
 5012              		.global	SPID6
 5013              		.global	SPID5
 5014              		.global	SPID3
ARM GAS  C:\Users\DEVELO~1\AppData\Local\Temp\cc2saCCQ.s 			page 89


 5015              		.global	SPID2
 5016              		.global	SPID1
 5017              		.section	.bss.SPID1,"aw",%nobits
 5018              		.align	2
 5019              		.set	.LANCHOR0,. + 0
 5020              		.type	SPID1, %object
 5021              		.size	SPID1, 60
 5022              	SPID1:
 5023 0000 00000000 		.space	60
 5023      00000000 
 5023      00000000 
 5023      00000000 
 5023      00000000 
 5024              		.section	.bss.SPID2,"aw",%nobits
 5025              		.align	2
 5026              		.set	.LANCHOR1,. + 0
 5027              		.type	SPID2, %object
 5028              		.size	SPID2, 60
 5029              	SPID2:
 5030 0000 00000000 		.space	60
 5030      00000000 
 5030      00000000 
 5030      00000000 
 5030      00000000 
 5031              		.section	.bss.SPID3,"aw",%nobits
 5032              		.align	2
 5033              		.set	.LANCHOR2,. + 0
 5034              		.type	SPID3, %object
 5035              		.size	SPID3, 60
 5036              	SPID3:
 5037 0000 00000000 		.space	60
 5037      00000000 
 5037      00000000 
 5037      00000000 
 5037      00000000 
 5038              		.section	.bss.SPID5,"aw",%nobits
 5039              		.align	2
 5040              		.set	.LANCHOR3,. + 0
 5041              		.type	SPID5, %object
 5042              		.size	SPID5, 60
 5043              	SPID5:
 5044 0000 00000000 		.space	60
 5044      00000000 
 5044      00000000 
 5044      00000000 
 5044      00000000 
 5045              		.section	.bss.SPID6,"aw",%nobits
 5046              		.align	2
 5047              		.set	.LANCHOR4,. + 0
 5048              		.type	SPID6, %object
 5049              		.size	SPID6, 60
 5050              	SPID6:
 5051 0000 00000000 		.space	60
 5051      00000000 
 5051      00000000 
 5051      00000000 
 5051      00000000 
ARM GAS  C:\Users\DEVELO~1\AppData\Local\Temp\cc2saCCQ.s 			page 90


 5052              		.section	.rodata.__func__.0,"a"
 5053              		.align	2
 5054              		.set	.LANCHOR9,. + 0
 5055              		.type	__func__.0, %object
 5056              		.size	__func__.0, 10
 5057              	__func__.0:
 5058 0000 56656374 		.ascii	"Vector198\000"
 5058      6F723139 
 5058      3800
 5059              		.section	.rodata.__func__.1,"a"
 5060              		.align	2
 5061              		.set	.LANCHOR8,. + 0
 5062              		.type	__func__.1, %object
 5063              		.size	__func__.1, 10
 5064              	__func__.1:
 5065 0000 56656374 		.ascii	"Vector194\000"
 5065      6F723139 
 5065      3400
 5066              		.section	.rodata.__func__.2,"a"
 5067              		.align	2
 5068              		.set	.LANCHOR7,. + 0
 5069              		.type	__func__.2, %object
 5070              		.size	__func__.2, 10
 5071              	__func__.2:
 5072 0000 56656374 		.ascii	"Vector10C\000"
 5072      6F723130 
 5072      4300
 5073              		.section	.rodata.__func__.3,"a"
 5074              		.align	2
 5075              		.set	.LANCHOR6,. + 0
 5076              		.type	__func__.3, %object
 5077              		.size	__func__.3, 9
 5078              	__func__.3:
 5079 0000 56656374 		.ascii	"VectorD0\000"
 5079      6F724430 
 5079      00
 5080              		.section	.rodata.__func__.4,"a"
 5081              		.align	2
 5082              		.set	.LANCHOR5,. + 0
 5083              		.type	__func__.4, %object
 5084              		.size	__func__.4, 9
 5085              	__func__.4:
 5086 0000 56656374 		.ascii	"VectorCC\000"
 5086      6F724343 
 5086      00
 5087              		.text
 5088              	.Letext0:
 5089              		.file 7 "c:\\chibistudio\\tools\\gnu tools arm embedded\\11.3 2022.08\\lib\\gcc\\arm-none-eabi\\11
 5090              		.file 8 "c:\\chibistudio\\tools\\gnu tools arm embedded\\11.3 2022.08\\arm-none-eabi\\include\\mac
 5091              		.file 9 "c:\\chibistudio\\tools\\gnu tools arm embedded\\11.3 2022.08\\arm-none-eabi\\include\\sys
 5092              		.file 10 "c:\\chibistudio\\tools\\gnu tools arm embedded\\11.3 2022.08\\arm-none-eabi\\include\\st
 5093              		.file 11 "../../../os/common/ports/ARM-common/chtypes.h"
 5094              		.file 12 "../../../os/rt/include/chearly.h"
 5095              		.file 13 "../../../os/rt/include/chobjects.h"
 5096              		.file 14 "../../../os/rt/include/chrfcu.h"
 5097              		.file 15 "../../../os/rt/include/chdebug.h"
 5098              		.file 16 "../../../os/rt/include/chtime.h"
ARM GAS  C:\Users\DEVELO~1\AppData\Local\Temp\cc2saCCQ.s 			page 91


 5099              		.file 17 "../../../os/rt/include/chlists.h"
 5100              		.file 18 "../../../os/rt/include/chtrace.h"
 5101              		.file 19 "../../../os/common/ext/ST/STM32H7xx/stm32h743xx.h"
 5102              		.file 20 "../../../os/rt/include/chsem.h"
 5103              		.file 21 "../../../os/rt/include/chmtx.h"
 5104              		.file 22 "../../../os/hal/ports/STM32/LLD/DMAv2/stm32_dma.h"
 5105              		.file 23 "../../../os/hal/ports/STM32/LLD/BDMAv1/stm32_bdma.h"
 5106              		.file 24 "../../../os/hal/ports/STM32/LLD/GPIOv2/stm32_gpio.h"
 5107              		.file 25 "../../../os/hal/ports/STM32/LLD/GPIOv2/hal_pal_lld.h"
 5108              		.file 26 "../../../os/hal/include/hal_spi_v2.h"
 5109              		.file 27 "../../../os/hal/ports/STM32/LLD/SPIv3/hal_spi_v2_lld.h"
 5110              		.file 28 "../../../os/hal/ports/common/ARMCMx/nvic.h"
 5111              		.file 29 "../../../os/rt/include/chthreads.h"
 5112              		.section	.debug_info,"",%progbits
 5113              	.Ldebug_info0:
 5114 0000 6F3D0000 		.4byte	0x3d6f
 5115 0004 0500     		.2byte	0x5
 5116 0006 01       		.byte	0x1
 5117 0007 04       		.byte	0x4
 5118 0008 00000000 		.4byte	.Ldebug_abbrev0
 5119 000c 48       		.uleb128 0x48
 5120 000d 27090000 		.4byte	.LASF340
 5121 0011 1D       		.byte	0x1d
 5122 0012 FD0D0000 		.4byte	.LASF341
 5123 0016 CE000000 		.4byte	.LASF342
 5124 001a 6D010000 		.4byte	.LLRL179
 5125 001e 00000000 		.4byte	0
 5126 0022 00000000 		.4byte	.Ldebug_line0
 5127 0026 49       		.uleb128 0x49
 5128 0027 04       		.byte	0x4
 5129 0028 05       		.byte	0x5
 5130 0029 696E7400 		.ascii	"int\000"
 5131 002d 08       		.uleb128 0x8
 5132 002e E8040000 		.4byte	.LASF4
 5133 0032 07       		.byte	0x7
 5134 0033 D1       		.byte	0xd1
 5135 0034 17       		.byte	0x17
 5136 0035 39000000 		.4byte	0x39
 5137 0039 10       		.uleb128 0x10
 5138 003a 04       		.byte	0x4
 5139 003b 07       		.byte	0x7
 5140 003c 26010000 		.4byte	.LASF0
 5141 0040 10       		.uleb128 0x10
 5142 0041 08       		.byte	0x8
 5143 0042 05       		.byte	0x5
 5144 0043 50070000 		.4byte	.LASF1
 5145 0047 10       		.uleb128 0x10
 5146 0048 08       		.byte	0x8
 5147 0049 04       		.byte	0x4
 5148 004a A9080000 		.4byte	.LASF2
 5149 004e 10       		.uleb128 0x10
 5150 004f 01       		.byte	0x1
 5151 0050 06       		.byte	0x6
 5152 0051 D80D0000 		.4byte	.LASF3
 5153 0055 08       		.uleb128 0x8
 5154 0056 720B0000 		.4byte	.LASF5
 5155 005a 08       		.byte	0x8
ARM GAS  C:\Users\DEVELO~1\AppData\Local\Temp\cc2saCCQ.s 			page 92


 5156 005b 2B       		.byte	0x2b
 5157 005c 18       		.byte	0x18
 5158 005d 61000000 		.4byte	0x61
 5159 0061 10       		.uleb128 0x10
 5160 0062 01       		.byte	0x1
 5161 0063 08       		.byte	0x8
 5162 0064 A30C0000 		.4byte	.LASF6
 5163 0068 10       		.uleb128 0x10
 5164 0069 02       		.byte	0x2
 5165 006a 05       		.byte	0x5
 5166 006b 270A0000 		.4byte	.LASF7
 5167 006f 08       		.uleb128 0x8
 5168 0070 1C040000 		.4byte	.LASF8
 5169 0074 08       		.byte	0x8
 5170 0075 39       		.byte	0x39
 5171 0076 19       		.byte	0x19
 5172 0077 7B000000 		.4byte	0x7b
 5173 007b 10       		.uleb128 0x10
 5174 007c 02       		.byte	0x2
 5175 007d 07       		.byte	0x7
 5176 007e 340E0000 		.4byte	.LASF9
 5177 0082 08       		.uleb128 0x8
 5178 0083 2A060000 		.4byte	.LASF10
 5179 0087 08       		.byte	0x8
 5180 0088 4D       		.byte	0x4d
 5181 0089 18       		.byte	0x18
 5182 008a 8E000000 		.4byte	0x8e
 5183 008e 10       		.uleb128 0x10
 5184 008f 04       		.byte	0x4
 5185 0090 05       		.byte	0x5
 5186 0091 0A000000 		.4byte	.LASF11
 5187 0095 08       		.uleb128 0x8
 5188 0096 B90C0000 		.4byte	.LASF12
 5189 009a 08       		.byte	0x8
 5190 009b 4F       		.byte	0x4f
 5191 009c 19       		.byte	0x19
 5192 009d A1000000 		.4byte	0xa1
 5193 00a1 10       		.uleb128 0x10
 5194 00a2 04       		.byte	0x4
 5195 00a3 07       		.byte	0x7
 5196 00a4 DB0B0000 		.4byte	.LASF13
 5197 00a8 08       		.uleb128 0x8
 5198 00a9 A0060000 		.4byte	.LASF14
 5199 00ad 08       		.byte	0x8
 5200 00ae 69       		.byte	0x69
 5201 00af 19       		.byte	0x19
 5202 00b0 B4000000 		.4byte	0xb4
 5203 00b4 10       		.uleb128 0x10
 5204 00b5 08       		.byte	0x8
 5205 00b6 07       		.byte	0x7
 5206 00b7 BF030000 		.4byte	.LASF15
 5207 00bb 08       		.uleb128 0x8
 5208 00bc B4060000 		.4byte	.LASF16
 5209 00c0 09       		.byte	0x9
 5210 00c1 18       		.byte	0x18
 5211 00c2 13       		.byte	0x13
 5212 00c3 55000000 		.4byte	0x55
ARM GAS  C:\Users\DEVELO~1\AppData\Local\Temp\cc2saCCQ.s 			page 93


 5213 00c7 29       		.uleb128 0x29
 5214 00c8 BB000000 		.4byte	0xbb
 5215 00cc 08       		.uleb128 0x8
 5216 00cd B5080000 		.4byte	.LASF17
 5217 00d1 09       		.byte	0x9
 5218 00d2 24       		.byte	0x24
 5219 00d3 14       		.byte	0x14
 5220 00d4 6F000000 		.4byte	0x6f
 5221 00d8 29       		.uleb128 0x29
 5222 00d9 CC000000 		.4byte	0xcc
 5223 00dd 08       		.uleb128 0x8
 5224 00de 130C0000 		.4byte	.LASF18
 5225 00e2 09       		.byte	0x9
 5226 00e3 2C       		.byte	0x2c
 5227 00e4 13       		.byte	0x13
 5228 00e5 82000000 		.4byte	0x82
 5229 00e9 08       		.uleb128 0x8
 5230 00ea 38010000 		.4byte	.LASF19
 5231 00ee 09       		.byte	0x9
 5232 00ef 30       		.byte	0x30
 5233 00f0 14       		.byte	0x14
 5234 00f1 95000000 		.4byte	0x95
 5235 00f5 29       		.uleb128 0x29
 5236 00f6 E9000000 		.4byte	0xe9
 5237 00fa 08       		.uleb128 0x8
 5238 00fb 8B0D0000 		.4byte	.LASF20
 5239 00ff 09       		.byte	0x9
 5240 0100 3C       		.byte	0x3c
 5241 0101 14       		.byte	0x14
 5242 0102 A8000000 		.4byte	0xa8
 5243 0106 29       		.uleb128 0x29
 5244 0107 FA000000 		.4byte	0xfa
 5245 010b 08       		.uleb128 0x8
 5246 010c 5E070000 		.4byte	.LASF21
 5247 0110 0A       		.byte	0xa
 5248 0111 34       		.byte	0x34
 5249 0112 1F       		.byte	0x1f
 5250 0113 39000000 		.4byte	0x39
 5251 0117 08       		.uleb128 0x8
 5252 0118 980A0000 		.4byte	.LASF22
 5253 011c 0B       		.byte	0xb
 5254 011d 48       		.byte	0x48
 5255 011e 1D       		.byte	0x1d
 5256 011f FA000000 		.4byte	0xfa
 5257 0123 08       		.uleb128 0x8
 5258 0124 470E0000 		.4byte	.LASF23
 5259 0128 0C       		.byte	0xc
 5260 0129 50       		.byte	0x50
 5261 012a 19       		.byte	0x19
 5262 012b 17010000 		.4byte	0x117
 5263 012f 08       		.uleb128 0x8
 5264 0130 63080000 		.4byte	.LASF24
 5265 0134 0C       		.byte	0xc
 5266 0135 53       		.byte	0x53
 5267 0136 19       		.byte	0x19
 5268 0137 BB000000 		.4byte	0xbb
 5269 013b 08       		.uleb128 0x8
ARM GAS  C:\Users\DEVELO~1\AppData\Local\Temp\cc2saCCQ.s 			page 94


 5270 013c 6D060000 		.4byte	.LASF25
 5271 0140 0C       		.byte	0xc
 5272 0141 54       		.byte	0x54
 5273 0142 19       		.byte	0x19
 5274 0143 BB000000 		.4byte	0xbb
 5275 0147 08       		.uleb128 0x8
 5276 0148 BA0B0000 		.4byte	.LASF26
 5277 014c 0C       		.byte	0xc
 5278 014d 55       		.byte	0x55
 5279 014e 19       		.byte	0x19
 5280 014f BB000000 		.4byte	0xbb
 5281 0153 08       		.uleb128 0x8
 5282 0154 85030000 		.4byte	.LASF27
 5283 0158 0C       		.byte	0xc
 5284 0159 57       		.byte	0x57
 5285 015a 19       		.byte	0x19
 5286 015b E9000000 		.4byte	0xe9
 5287 015f 08       		.uleb128 0x8
 5288 0160 6B070000 		.4byte	.LASF28
 5289 0164 0C       		.byte	0xc
 5290 0165 58       		.byte	0x58
 5291 0166 19       		.byte	0x19
 5292 0167 DD000000 		.4byte	0xdd
 5293 016b 08       		.uleb128 0x8
 5294 016c 1A030000 		.4byte	.LASF29
 5295 0170 0C       		.byte	0xc
 5296 0171 5A       		.byte	0x5a
 5297 0172 19       		.byte	0x19
 5298 0173 E9000000 		.4byte	0xe9
 5299 0177 08       		.uleb128 0x8
 5300 0178 27040000 		.4byte	.LASF30
 5301 017c 0C       		.byte	0xc
 5302 017d 5C       		.byte	0x5c
 5303 017e 19       		.byte	0x19
 5304 017f DD000000 		.4byte	0xdd
 5305 0183 08       		.uleb128 0x8
 5306 0184 570F0000 		.4byte	.LASF31
 5307 0188 0C       		.byte	0xc
 5308 0189 80       		.byte	0x80
 5309 018a 12       		.byte	0x12
 5310 018b 39000000 		.4byte	0x39
 5311 018f 08       		.uleb128 0x8
 5312 0190 B4040000 		.4byte	.LASF32
 5313 0194 0C       		.byte	0xc
 5314 0195 85       		.byte	0x85
 5315 0196 1A       		.byte	0x1a
 5316 0197 9B010000 		.4byte	0x19b
 5317 019b 11       		.uleb128 0x11
 5318 019c F5060000 		.4byte	.LASF47
 5319 01a0 48       		.byte	0x48
 5320 01a1 0D       		.byte	0xd
 5321 01a2 9C       		.byte	0x9c
 5322 01a3 08       		.byte	0x8
 5323 01a4 7E020000 		.4byte	0x27e
 5324 01a8 0E       		.uleb128 0xe
 5325 01a9 68647200 		.ascii	"hdr\000"
 5326 01ad 0D       		.byte	0xd
ARM GAS  C:\Users\DEVELO~1\AppData\Local\Temp\cc2saCCQ.s 			page 95


 5327 01ae AD       		.byte	0xad
 5328 01af 05       		.byte	0x5
 5329 01b0 4A0D0000 		.4byte	0xd4a
 5330 01b4 00       		.byte	0
 5331 01b5 0E       		.uleb128 0xe
 5332 01b6 63747800 		.ascii	"ctx\000"
 5333 01ba 0D       		.byte	0xd
 5334 01bb B1       		.byte	0xb1
 5335 01bc 21       		.byte	0x21
 5336 01bd B50C0000 		.4byte	0xcb5
 5337 01c1 0C       		.byte	0xc
 5338 01c2 05       		.uleb128 0x5
 5339 01c3 3A070000 		.4byte	.LASF33
 5340 01c7 0D       		.byte	0xd
 5341 01c8 B6       		.byte	0xb6
 5342 01c9 21       		.byte	0x21
 5343 01ca CC030000 		.4byte	0x3cc
 5344 01ce 10       		.byte	0x10
 5345 01cf 05       		.uleb128 0x5
 5346 01d0 61040000 		.4byte	.LASF34
 5347 01d4 0D       		.byte	0xd
 5348 01d5 BB       		.byte	0xbb
 5349 01d6 22       		.byte	0x22
 5350 01d7 4E0E0000 		.4byte	0xe4e
 5351 01db 18       		.byte	0x18
 5352 01dc 05       		.uleb128 0x5
 5353 01dd 7C0B0000 		.4byte	.LASF35
 5354 01e1 0D       		.byte	0xd
 5355 01e2 C0       		.byte	0xc0
 5356 01e3 22       		.byte	0x22
 5357 01e4 66030000 		.4byte	0x366
 5358 01e8 1C       		.byte	0x1c
 5359 01e9 05       		.uleb128 0x5
 5360 01ea 52060000 		.4byte	.LASF36
 5361 01ee 0D       		.byte	0xd
 5362 01ef C9       		.byte	0xc9
 5363 01f0 22       		.byte	0x22
 5364 01f1 530E0000 		.4byte	0xe53
 5365 01f5 20       		.byte	0x20
 5366 01f6 05       		.uleb128 0x5
 5367 01f7 5A0D0000 		.4byte	.LASF37
 5368 01fb 0D       		.byte	0xd
 5369 01fc CE       		.byte	0xce
 5370 01fd 21       		.byte	0x21
 5371 01fe 3B010000 		.4byte	0x13b
 5372 0202 24       		.byte	0x24
 5373 0203 05       		.uleb128 0x5
 5374 0204 A4000000 		.4byte	.LASF38
 5375 0208 0D       		.byte	0xd
 5376 0209 D2       		.byte	0xd2
 5377 020a 21       		.byte	0x21
 5378 020b 2F010000 		.4byte	0x12f
 5379 020f 25       		.byte	0x25
 5380 0210 05       		.uleb128 0x5
 5381 0211 7C010000 		.4byte	.LASF39
 5382 0215 0D       		.byte	0xd
 5383 0216 D7       		.byte	0xd7
ARM GAS  C:\Users\DEVELO~1\AppData\Local\Temp\cc2saCCQ.s 			page 96


 5384 0217 21       		.byte	0x21
 5385 0218 47010000 		.4byte	0x147
 5386 021c 26       		.byte	0x26
 5387 021d 0A       		.uleb128 0xa
 5388 021e 7500     		.ascii	"u\000"
 5389 0220 0D       		.byte	0xd
 5390 0221 2801     		.2byte	0x128
 5391 0223 21       		.byte	0x21
 5392 0224 780D0000 		.4byte	0xd78
 5393 0228 28       		.byte	0x28
 5394 0229 03       		.uleb128 0x3
 5395 022a C40C0000 		.4byte	.LASF40
 5396 022e 0D       		.byte	0xd
 5397 022f 2D01     		.2byte	0x12d
 5398 0231 21       		.byte	0x21
 5399 0232 A0030000 		.4byte	0x3a0
 5400 0236 2C       		.byte	0x2c
 5401 0237 03       		.uleb128 0x3
 5402 0238 D6060000 		.4byte	.LASF41
 5403 023c 0D       		.byte	0xd
 5404 023d 3301     		.2byte	0x133
 5405 023f 21       		.byte	0x21
 5406 0240 CC030000 		.4byte	0x3cc
 5407 0244 30       		.byte	0x30
 5408 0245 03       		.uleb128 0x3
 5409 0246 1D010000 		.4byte	.LASF42
 5410 024a 0D       		.byte	0xd
 5411 024b 3901     		.2byte	0x139
 5412 024d 21       		.byte	0x21
 5413 024e 6B010000 		.4byte	0x16b
 5414 0252 38       		.byte	0x38
 5415 0253 03       		.uleb128 0x3
 5416 0254 88040000 		.4byte	.LASF43
 5417 0258 0D       		.byte	0xd
 5418 0259 4001     		.2byte	0x140
 5419 025b 22       		.byte	0x22
 5420 025c 490E0000 		.4byte	0xe49
 5421 0260 3C       		.byte	0x3c
 5422 0261 03       		.uleb128 0x3
 5423 0262 B4000000 		.4byte	.LASF44
 5424 0266 0D       		.byte	0xd
 5425 0267 4401     		.2byte	0x144
 5426 0269 21       		.byte	0x21
 5427 026a 53010000 		.4byte	0x153
 5428 026e 40       		.byte	0x40
 5429 026f 03       		.uleb128 0x3
 5430 0270 670F0000 		.4byte	.LASF45
 5431 0274 0D       		.byte	0xd
 5432 0275 4B01     		.2byte	0x14b
 5433 0277 22       		.byte	0x22
 5434 0278 BA040000 		.4byte	0x4ba
 5435 027c 44       		.byte	0x44
 5436 027d 00       		.byte	0
 5437 027e 08       		.uleb128 0x8
 5438 027f 7D0D0000 		.4byte	.LASF46
 5439 0283 0C       		.byte	0xc
 5440 0284 8A       		.byte	0x8a
ARM GAS  C:\Users\DEVELO~1\AppData\Local\Temp\cc2saCCQ.s 			page 97


 5441 0285 1F       		.byte	0x1f
 5442 0286 8A020000 		.4byte	0x28a
 5443 028a 4A       		.uleb128 0x4a
 5444 028b 7C050000 		.4byte	.LASF48
 5445 028f 9008     		.2byte	0x890
 5446 0291 0D       		.byte	0xd
 5447 0292 8A01     		.2byte	0x18a
 5448 0294 08       		.byte	0x8
 5449 0295 18030000 		.4byte	0x318
 5450 0299 03       		.uleb128 0x3
 5451 029a 1E0B0000 		.4byte	.LASF49
 5452 029e 0D       		.byte	0xd
 5453 029f 8E01     		.2byte	0x18e
 5454 02a1 21       		.byte	0x21
 5455 02a2 830E0000 		.4byte	0xe83
 5456 02a6 00       		.byte	0
 5457 02a7 03       		.uleb128 0x3
 5458 02a8 75010000 		.4byte	.LASF50
 5459 02ac 0D       		.byte	0xd
 5460 02ad 9201     		.2byte	0x192
 5461 02af 21       		.byte	0x21
 5462 02b0 0B0D0000 		.4byte	0xd0b
 5463 02b4 10       		.byte	0x10
 5464 02b5 03       		.uleb128 0x3
 5465 02b6 9E0D0000 		.4byte	.LASF51
 5466 02ba 0D       		.byte	0xd
 5467 02bb 9901     		.2byte	0x199
 5468 02bd 21       		.byte	0x21
 5469 02be 320D0000 		.4byte	0xd32
 5470 02c2 28       		.byte	0x28
 5471 02c3 03       		.uleb128 0x3
 5472 02c4 61010000 		.4byte	.LASF52
 5473 02c8 0D       		.byte	0xd
 5474 02c9 9E01     		.2byte	0x19e
 5475 02cb 21       		.byte	0x21
 5476 02cc 83010000 		.4byte	0x183
 5477 02d0 30       		.byte	0x30
 5478 02d1 03       		.uleb128 0x3
 5479 02d2 A7040000 		.4byte	.LASF53
 5480 02d6 0D       		.byte	0xd
 5481 02d7 A401     		.2byte	0x1a4
 5482 02d9 21       		.byte	0x21
 5483 02da 3F030000 		.4byte	0x33f
 5484 02de 34       		.byte	0x34
 5485 02df 03       		.uleb128 0x3
 5486 02e0 20090000 		.4byte	.LASF54
 5487 02e4 0D       		.byte	0xd
 5488 02e5 A901     		.2byte	0x1a9
 5489 02e7 22       		.byte	0x22
 5490 02e8 F70E0000 		.4byte	0xef7
 5491 02ec 38       		.byte	0x38
 5492 02ed 03       		.uleb128 0x3
 5493 02ee 4F0D0000 		.4byte	.LASF55
 5494 02f2 0D       		.byte	0xd
 5495 02f3 AD01     		.2byte	0x1ad
 5496 02f5 21       		.byte	0x21
 5497 02f6 8F010000 		.4byte	0x18f
ARM GAS  C:\Users\DEVELO~1\AppData\Local\Temp\cc2saCCQ.s 			page 98


 5498 02fa 3C       		.byte	0x3c
 5499 02fb 0A       		.uleb128 0xa
 5500 02fc 64626700 		.ascii	"dbg\000"
 5501 0300 0D       		.byte	0xd
 5502 0301 B101     		.2byte	0x1b1
 5503 0303 21       		.byte	0x21
 5504 0304 7C030000 		.4byte	0x37c
 5505 0308 84       		.byte	0x84
 5506 0309 03       		.uleb128 0x3
 5507 030a 280C0000 		.4byte	.LASF56
 5508 030e 0D       		.byte	0xd
 5509 030f B601     		.2byte	0x1b6
 5510 0311 21       		.byte	0x21
 5511 0312 1C060000 		.4byte	0x61c
 5512 0316 88       		.byte	0x88
 5513 0317 00       		.byte	0
 5514 0318 08       		.uleb128 0x8
 5515 0319 1E060000 		.4byte	.LASF57
 5516 031d 0E       		.byte	0xe
 5517 031e 3F       		.byte	0x3f
 5518 031f 12       		.byte	0x12
 5519 0320 E9000000 		.4byte	0xe9
 5520 0324 11       		.uleb128 0x11
 5521 0325 5C050000 		.4byte	.LASF58
 5522 0329 04       		.byte	0x4
 5523 032a 0E       		.byte	0xe
 5524 032b 44       		.byte	0x44
 5525 032c 10       		.byte	0x10
 5526 032d 3F030000 		.4byte	0x33f
 5527 0331 05       		.uleb128 0x5
 5528 0332 FA070000 		.4byte	.LASF59
 5529 0336 0E       		.byte	0xe
 5530 0337 48       		.byte	0x48
 5531 0338 21       		.byte	0x21
 5532 0339 18030000 		.4byte	0x318
 5533 033d 00       		.byte	0
 5534 033e 00       		.byte	0
 5535 033f 08       		.uleb128 0x8
 5536 0340 1B0C0000 		.4byte	.LASF60
 5537 0344 0E       		.byte	0xe
 5538 0345 49       		.byte	0x49
 5539 0346 03       		.byte	0x3
 5540 0347 24030000 		.4byte	0x324
 5541 034b 11       		.uleb128 0x11
 5542 034c AF020000 		.4byte	.LASF61
 5543 0350 04       		.byte	0x4
 5544 0351 0F       		.byte	0xf
 5545 0352 3E       		.byte	0x3e
 5546 0353 10       		.byte	0x10
 5547 0354 66030000 		.4byte	0x366
 5548 0358 05       		.uleb128 0x5
 5549 0359 2D080000 		.4byte	.LASF62
 5550 035d 0F       		.byte	0xf
 5551 035e 46       		.byte	0x46
 5552 035f 24       		.byte	0x24
 5553 0360 6B030000 		.4byte	0x36b
 5554 0364 00       		.byte	0
ARM GAS  C:\Users\DEVELO~1\AppData\Local\Temp\cc2saCCQ.s 			page 99


 5555 0365 00       		.byte	0
 5556 0366 09       		.uleb128 0x9
 5557 0367 77030000 		.4byte	0x377
 5558 036b 29       		.uleb128 0x29
 5559 036c 66030000 		.4byte	0x366
 5560 0370 10       		.uleb128 0x10
 5561 0371 01       		.byte	0x1
 5562 0372 08       		.byte	0x8
 5563 0373 09060000 		.4byte	.LASF63
 5564 0377 12       		.uleb128 0x12
 5565 0378 70030000 		.4byte	0x370
 5566 037c 08       		.uleb128 0x8
 5567 037d 41070000 		.4byte	.LASF64
 5568 0381 0F       		.byte	0xf
 5569 0382 51       		.byte	0x51
 5570 0383 03       		.byte	0x3
 5571 0384 4B030000 		.4byte	0x34b
 5572 0388 08       		.uleb128 0x8
 5573 0389 AA000000 		.4byte	.LASF65
 5574 038d 10       		.byte	0x10
 5575 038e 6D       		.byte	0x6d
 5576 038f 12       		.byte	0x12
 5577 0390 E9000000 		.4byte	0xe9
 5578 0394 08       		.uleb128 0x8
 5579 0395 17080000 		.4byte	.LASF66
 5580 0399 10       		.byte	0x10
 5581 039a 79       		.byte	0x79
 5582 039b 12       		.byte	0x12
 5583 039c E9000000 		.4byte	0xe9
 5584 03a0 08       		.uleb128 0x8
 5585 03a1 BE080000 		.4byte	.LASF67
 5586 03a5 11       		.byte	0x11
 5587 03a6 32       		.byte	0x32
 5588 03a7 18       		.byte	0x18
 5589 03a8 AC030000 		.4byte	0x3ac
 5590 03ac 11       		.uleb128 0x11
 5591 03ad 69020000 		.4byte	.LASF68
 5592 03b1 04       		.byte	0x4
 5593 03b2 11       		.byte	0x11
 5594 03b3 38       		.byte	0x38
 5595 03b4 08       		.byte	0x8
 5596 03b5 C7030000 		.4byte	0x3c7
 5597 03b9 05       		.uleb128 0x5
 5598 03ba 33010000 		.4byte	.LASF69
 5599 03be 11       		.byte	0x11
 5600 03bf 39       		.byte	0x39
 5601 03c0 1A       		.byte	0x1a
 5602 03c1 C7030000 		.4byte	0x3c7
 5603 03c5 00       		.byte	0
 5604 03c6 00       		.byte	0
 5605 03c7 09       		.uleb128 0x9
 5606 03c8 A0030000 		.4byte	0x3a0
 5607 03cc 08       		.uleb128 0x8
 5608 03cd 07020000 		.4byte	.LASF70
 5609 03d1 11       		.byte	0x11
 5610 03d2 3F       		.byte	0x3f
 5611 03d3 19       		.byte	0x19
ARM GAS  C:\Users\DEVELO~1\AppData\Local\Temp\cc2saCCQ.s 			page 100


 5612 03d4 D8030000 		.4byte	0x3d8
 5613 03d8 11       		.uleb128 0x11
 5614 03d9 780C0000 		.4byte	.LASF71
 5615 03dd 08       		.byte	0x8
 5616 03de 11       		.byte	0x11
 5617 03df 45       		.byte	0x45
 5618 03e0 08       		.byte	0x8
 5619 03e1 00040000 		.4byte	0x400
 5620 03e5 05       		.uleb128 0x5
 5621 03e6 33010000 		.4byte	.LASF69
 5622 03ea 11       		.byte	0x11
 5623 03eb 46       		.byte	0x46
 5624 03ec 1A       		.byte	0x1a
 5625 03ed 00040000 		.4byte	0x400
 5626 03f1 00       		.byte	0
 5627 03f2 05       		.uleb128 0x5
 5628 03f3 3A020000 		.4byte	.LASF72
 5629 03f7 11       		.byte	0x11
 5630 03f8 47       		.byte	0x47
 5631 03f9 1A       		.byte	0x1a
 5632 03fa 00040000 		.4byte	0x400
 5633 03fe 04       		.byte	0x4
 5634 03ff 00       		.byte	0
 5635 0400 09       		.uleb128 0x9
 5636 0401 CC030000 		.4byte	0x3cc
 5637 0405 08       		.uleb128 0x8
 5638 0406 18050000 		.4byte	.LASF73
 5639 040a 11       		.byte	0x11
 5640 040b 4E       		.byte	0x4e
 5641 040c 22       		.byte	0x22
 5642 040d 11040000 		.4byte	0x411
 5643 0411 11       		.uleb128 0x11
 5644 0412 3C0C0000 		.4byte	.LASF74
 5645 0416 0C       		.byte	0xc
 5646 0417 11       		.byte	0x11
 5647 0418 55       		.byte	0x55
 5648 0419 08       		.byte	0x8
 5649 041a 46040000 		.4byte	0x446
 5650 041e 05       		.uleb128 0x5
 5651 041f 33010000 		.4byte	.LASF69
 5652 0423 11       		.byte	0x11
 5653 0424 56       		.byte	0x56
 5654 0425 1A       		.byte	0x1a
 5655 0426 46040000 		.4byte	0x446
 5656 042a 00       		.byte	0
 5657 042b 05       		.uleb128 0x5
 5658 042c 3A020000 		.4byte	.LASF72
 5659 0430 11       		.byte	0x11
 5660 0431 57       		.byte	0x57
 5661 0432 1A       		.byte	0x1a
 5662 0433 46040000 		.4byte	0x446
 5663 0437 04       		.byte	0x4
 5664 0438 05       		.uleb128 0x5
 5665 0439 D6050000 		.4byte	.LASF75
 5666 043d 11       		.byte	0x11
 5667 043e 58       		.byte	0x58
 5668 043f 19       		.byte	0x19
ARM GAS  C:\Users\DEVELO~1\AppData\Local\Temp\cc2saCCQ.s 			page 101


 5669 0440 53010000 		.4byte	0x153
 5670 0444 08       		.byte	0x8
 5671 0445 00       		.byte	0
 5672 0446 09       		.uleb128 0x9
 5673 0447 05040000 		.4byte	0x405
 5674 044b 08       		.uleb128 0x8
 5675 044c 0E060000 		.4byte	.LASF76
 5676 0450 11       		.byte	0x11
 5677 0451 5F       		.byte	0x5f
 5678 0452 1E       		.byte	0x1e
 5679 0453 57040000 		.4byte	0x457
 5680 0457 11       		.uleb128 0x11
 5681 0458 FE020000 		.4byte	.LASF77
 5682 045c 0C       		.byte	0xc
 5683 045d 11       		.byte	0x11
 5684 045e 64       		.byte	0x64
 5685 045f 08       		.byte	0x8
 5686 0460 8C040000 		.4byte	0x48c
 5687 0464 05       		.uleb128 0x5
 5688 0465 33010000 		.4byte	.LASF69
 5689 0469 11       		.byte	0x11
 5690 046a 65       		.byte	0x65
 5691 046b 1A       		.byte	0x1a
 5692 046c 8C040000 		.4byte	0x48c
 5693 0470 00       		.byte	0
 5694 0471 05       		.uleb128 0x5
 5695 0472 3A020000 		.4byte	.LASF72
 5696 0476 11       		.byte	0x11
 5697 0477 66       		.byte	0x66
 5698 0478 1A       		.byte	0x1a
 5699 0479 8C040000 		.4byte	0x48c
 5700 047d 04       		.byte	0x4
 5701 047e 05       		.uleb128 0x5
 5702 047f F10D0000 		.4byte	.LASF78
 5703 0483 11       		.byte	0x11
 5704 0484 67       		.byte	0x67
 5705 0485 19       		.byte	0x19
 5706 0486 94030000 		.4byte	0x394
 5707 048a 08       		.byte	0x8
 5708 048b 00       		.byte	0
 5709 048c 09       		.uleb128 0x9
 5710 048d 4B040000 		.4byte	0x44b
 5711 0491 19       		.uleb128 0x19
 5712 0492 08       		.byte	0x8
 5713 0493 12       		.byte	0x12
 5714 0494 83       		.byte	0x83
 5715 0495 05       		.byte	0x5
 5716 0496 B5040000 		.4byte	0x4b5
 5717 049a 0E       		.uleb128 0xe
 5718 049b 6E747000 		.ascii	"ntp\000"
 5719 049f 12       		.byte	0x12
 5720 04a0 87       		.byte	0x87
 5721 04a1 1E       		.byte	0x1e
 5722 04a2 B5040000 		.4byte	0x4b5
 5723 04a6 00       		.byte	0
 5724 04a7 05       		.uleb128 0x5
 5725 04a8 9C010000 		.4byte	.LASF79
ARM GAS  C:\Users\DEVELO~1\AppData\Local\Temp\cc2saCCQ.s 			page 102


 5726 04ac 12       		.byte	0x12
 5727 04ad 8B       		.byte	0x8b
 5728 04ae 1E       		.byte	0x1e
 5729 04af BA040000 		.4byte	0x4ba
 5730 04b3 04       		.byte	0x4
 5731 04b4 00       		.byte	0
 5732 04b5 09       		.uleb128 0x9
 5733 04b6 8F010000 		.4byte	0x18f
 5734 04ba 4B       		.uleb128 0x4b
 5735 04bb 04       		.byte	0x4
 5736 04bc 19       		.uleb128 0x19
 5737 04bd 08       		.byte	0x8
 5738 04be 12       		.byte	0x12
 5739 04bf 90       		.byte	0x90
 5740 04c0 05       		.byte	0x5
 5741 04c1 DF040000 		.4byte	0x4df
 5742 04c5 0E       		.uleb128 0xe
 5743 04c6 747000   		.ascii	"tp\000"
 5744 04c9 12       		.byte	0x12
 5745 04ca 94       		.byte	0x94
 5746 04cb 1E       		.byte	0x1e
 5747 04cc B5040000 		.4byte	0x4b5
 5748 04d0 00       		.byte	0
 5749 04d1 0E       		.uleb128 0xe
 5750 04d2 6D736700 		.ascii	"msg\000"
 5751 04d6 12       		.byte	0x12
 5752 04d7 98       		.byte	0x98
 5753 04d8 1D       		.byte	0x1d
 5754 04d9 5F010000 		.4byte	0x15f
 5755 04dd 04       		.byte	0x4
 5756 04de 00       		.byte	0
 5757 04df 19       		.uleb128 0x19
 5758 04e0 04       		.byte	0x4
 5759 04e1 12       		.byte	0x12
 5760 04e2 9D       		.byte	0x9d
 5761 04e3 05       		.byte	0x5
 5762 04e4 F6040000 		.4byte	0x4f6
 5763 04e8 05       		.uleb128 0x5
 5764 04e9 7C0B0000 		.4byte	.LASF35
 5765 04ed 12       		.byte	0x12
 5766 04ee A1       		.byte	0xa1
 5767 04ef 1E       		.byte	0x1e
 5768 04f0 66030000 		.4byte	0x366
 5769 04f4 00       		.byte	0
 5770 04f5 00       		.byte	0
 5771 04f6 19       		.uleb128 0x19
 5772 04f7 04       		.byte	0x4
 5773 04f8 12       		.byte	0x12
 5774 04f9 A6       		.byte	0xa6
 5775 04fa 05       		.byte	0x5
 5776 04fb 0D050000 		.4byte	0x50d
 5777 04ff 05       		.uleb128 0x5
 5778 0500 07040000 		.4byte	.LASF80
 5779 0504 12       		.byte	0x12
 5780 0505 AA       		.byte	0xaa
 5781 0506 1E       		.byte	0x1e
 5782 0507 66030000 		.4byte	0x366
ARM GAS  C:\Users\DEVELO~1\AppData\Local\Temp\cc2saCCQ.s 			page 103


 5783 050b 00       		.byte	0
 5784 050c 00       		.byte	0
 5785 050d 19       		.uleb128 0x19
 5786 050e 08       		.byte	0x8
 5787 050f 12       		.byte	0x12
 5788 0510 AF       		.byte	0xaf
 5789 0511 05       		.byte	0x5
 5790 0512 31050000 		.4byte	0x531
 5791 0516 0E       		.uleb128 0xe
 5792 0517 75703100 		.ascii	"up1\000"
 5793 051b 12       		.byte	0x12
 5794 051c B3       		.byte	0xb3
 5795 051d 1E       		.byte	0x1e
 5796 051e BA040000 		.4byte	0x4ba
 5797 0522 00       		.byte	0
 5798 0523 0E       		.uleb128 0xe
 5799 0524 75703200 		.ascii	"up2\000"
 5800 0528 12       		.byte	0x12
 5801 0529 B7       		.byte	0xb7
 5802 052a 1E       		.byte	0x1e
 5803 052b BA040000 		.4byte	0x4ba
 5804 052f 04       		.byte	0x4
 5805 0530 00       		.byte	0
 5806 0531 2A       		.uleb128 0x2a
 5807 0532 08       		.byte	0x8
 5808 0533 12       		.byte	0x12
 5809 0534 7F       		.byte	0x7f
 5810 0535 03       		.byte	0x3
 5811 0536 76050000 		.4byte	0x576
 5812 053a 22       		.uleb128 0x22
 5813 053b 737700   		.ascii	"sw\000"
 5814 053e 12       		.byte	0x12
 5815 053f 8C       		.byte	0x8c
 5816 0540 07       		.byte	0x7
 5817 0541 91040000 		.4byte	0x491
 5818 0545 22       		.uleb128 0x22
 5819 0546 72647900 		.ascii	"rdy\000"
 5820 054a 12       		.byte	0x12
 5821 054b 99       		.byte	0x99
 5822 054c 07       		.byte	0x7
 5823 054d BC040000 		.4byte	0x4bc
 5824 0551 22       		.uleb128 0x22
 5825 0552 69737200 		.ascii	"isr\000"
 5826 0556 12       		.byte	0x12
 5827 0557 A2       		.byte	0xa2
 5828 0558 07       		.byte	0x7
 5829 0559 DF040000 		.4byte	0x4df
 5830 055d 1A       		.uleb128 0x1a
 5831 055e BA030000 		.4byte	.LASF81
 5832 0562 12       		.byte	0x12
 5833 0563 AB       		.byte	0xab
 5834 0564 07       		.byte	0x7
 5835 0565 F6040000 		.4byte	0x4f6
 5836 0569 1A       		.uleb128 0x1a
 5837 056a D9040000 		.4byte	.LASF82
 5838 056e 12       		.byte	0x12
 5839 056f B8       		.byte	0xb8
ARM GAS  C:\Users\DEVELO~1\AppData\Local\Temp\cc2saCCQ.s 			page 104


 5840 0570 07       		.byte	0x7
 5841 0571 0D050000 		.4byte	0x50d
 5842 0575 00       		.byte	0
 5843 0576 19       		.uleb128 0x19
 5844 0577 10       		.byte	0x10
 5845 0578 12       		.byte	0x12
 5846 0579 6C       		.byte	0x6c
 5847 057a 09       		.byte	0x9
 5848 057b BC050000 		.4byte	0x5bc
 5849 057f 3B       		.uleb128 0x3b
 5850 0580 890C0000 		.4byte	.LASF83
 5851 0584 70       		.byte	0x70
 5852 0585 E9000000 		.4byte	0xe9
 5853 0589 03       		.byte	0x3
 5854 058a 00       		.byte	0
 5855 058b 3B       		.uleb128 0x3b
 5856 058c 5A0D0000 		.4byte	.LASF37
 5857 0590 74       		.byte	0x74
 5858 0591 E9000000 		.4byte	0xe9
 5859 0595 05       		.byte	0x5
 5860 0596 03       		.byte	0x3
 5861 0597 3B       		.uleb128 0x3b
 5862 0598 FA0B0000 		.4byte	.LASF84
 5863 059c 7A       		.byte	0x7a
 5864 059d E9000000 		.4byte	0xe9
 5865 05a1 18       		.byte	0x18
 5866 05a2 08       		.byte	0x8
 5867 05a3 05       		.uleb128 0x5
 5868 05a4 4A040000 		.4byte	.LASF85
 5869 05a8 12       		.byte	0x12
 5870 05a9 7E       		.byte	0x7e
 5871 05aa 19       		.byte	0x19
 5872 05ab 88030000 		.4byte	0x388
 5873 05af 04       		.byte	0x4
 5874 05b0 0E       		.uleb128 0xe
 5875 05b1 7500     		.ascii	"u\000"
 5876 05b3 12       		.byte	0x12
 5877 05b4 B9       		.byte	0xb9
 5878 05b5 05       		.byte	0x5
 5879 05b6 31050000 		.4byte	0x531
 5880 05ba 08       		.byte	0x8
 5881 05bb 00       		.byte	0
 5882 05bc 08       		.uleb128 0x8
 5883 05bd 34030000 		.4byte	.LASF86
 5884 05c1 12       		.byte	0x12
 5885 05c2 BA       		.byte	0xba
 5886 05c3 03       		.byte	0x3
 5887 05c4 76050000 		.4byte	0x576
 5888 05c8 4C       		.uleb128 0x4c
 5889 05c9 0808     		.2byte	0x808
 5890 05cb 12       		.byte	0x12
 5891 05cc C0       		.byte	0xc0
 5892 05cd 09       		.byte	0x9
 5893 05ce 07060000 		.4byte	0x607
 5894 05d2 05       		.uleb128 0x5
 5895 05d3 41010000 		.4byte	.LASF87
 5896 05d7 12       		.byte	0x12
ARM GAS  C:\Users\DEVELO~1\AppData\Local\Temp\cc2saCCQ.s 			page 105


 5897 05d8 C4       		.byte	0xc4
 5898 05d9 19       		.byte	0x19
 5899 05da CC000000 		.4byte	0xcc
 5900 05de 00       		.byte	0
 5901 05df 05       		.uleb128 0x5
 5902 05e0 E5070000 		.4byte	.LASF88
 5903 05e4 12       		.byte	0x12
 5904 05e5 C8       		.byte	0xc8
 5905 05e6 19       		.byte	0x19
 5906 05e7 CC000000 		.4byte	0xcc
 5907 05eb 02       		.byte	0x2
 5908 05ec 0E       		.uleb128 0xe
 5909 05ed 70747200 		.ascii	"ptr\000"
 5910 05f1 12       		.byte	0x12
 5911 05f2 CC       		.byte	0xcc
 5912 05f3 1A       		.byte	0x1a
 5913 05f4 07060000 		.4byte	0x607
 5914 05f8 04       		.byte	0x4
 5915 05f9 05       		.uleb128 0x5
 5916 05fa BD000000 		.4byte	.LASF89
 5917 05fe 12       		.byte	0x12
 5918 05ff D0       		.byte	0xd0
 5919 0600 19       		.byte	0x19
 5920 0601 0C060000 		.4byte	0x60c
 5921 0605 08       		.byte	0x8
 5922 0606 00       		.byte	0
 5923 0607 09       		.uleb128 0x9
 5924 0608 BC050000 		.4byte	0x5bc
 5925 060c 14       		.uleb128 0x14
 5926 060d BC050000 		.4byte	0x5bc
 5927 0611 1C060000 		.4byte	0x61c
 5928 0615 15       		.uleb128 0x15
 5929 0616 39000000 		.4byte	0x39
 5930 061a 7F       		.byte	0x7f
 5931 061b 00       		.byte	0
 5932 061c 08       		.uleb128 0x8
 5933 061d 3D080000 		.4byte	.LASF90
 5934 0621 12       		.byte	0x12
 5935 0622 D1       		.byte	0xd1
 5936 0623 03       		.byte	0x3
 5937 0624 C8050000 		.4byte	0x5c8
 5938 0628 14       		.uleb128 0x14
 5939 0629 E9000000 		.4byte	0xe9
 5940 062d 38060000 		.4byte	0x638
 5941 0631 15       		.uleb128 0x15
 5942 0632 39000000 		.4byte	0x39
 5943 0636 03       		.byte	0x3
 5944 0637 00       		.byte	0
 5945 0638 2B       		.uleb128 0x2b
 5946 0639 18       		.byte	0x18
 5947 063a 13       		.byte	0x13
 5948 063b 3002     		.2byte	0x230
 5949 063d 95060000 		.4byte	0x695
 5950 0641 0A       		.uleb128 0xa
 5951 0642 435200   		.ascii	"CR\000"
 5952 0645 13       		.byte	0x13
 5953 0646 3202     		.2byte	0x232
ARM GAS  C:\Users\DEVELO~1\AppData\Local\Temp\cc2saCCQ.s 			page 106


 5954 0648 11       		.byte	0x11
 5955 0649 F5000000 		.4byte	0xf5
 5956 064d 00       		.byte	0
 5957 064e 03       		.uleb128 0x3
 5958 064f 20020000 		.4byte	.LASF91
 5959 0653 13       		.byte	0x13
 5960 0654 3302     		.2byte	0x233
 5961 0656 11       		.byte	0x11
 5962 0657 F5000000 		.4byte	0xf5
 5963 065b 04       		.byte	0x4
 5964 065c 0A       		.uleb128 0xa
 5965 065d 50415200 		.ascii	"PAR\000"
 5966 0661 13       		.byte	0x13
 5967 0662 3402     		.2byte	0x234
 5968 0664 11       		.byte	0x11
 5969 0665 F5000000 		.4byte	0xf5
 5970 0669 08       		.byte	0x8
 5971 066a 03       		.uleb128 0x3
 5972 066b 77050000 		.4byte	.LASF92
 5973 066f 13       		.byte	0x13
 5974 0670 3502     		.2byte	0x235
 5975 0672 11       		.byte	0x11
 5976 0673 F5000000 		.4byte	0xf5
 5977 0677 0C       		.byte	0xc
 5978 0678 03       		.uleb128 0x3
 5979 0679 930B0000 		.4byte	.LASF93
 5980 067d 13       		.byte	0x13
 5981 067e 3602     		.2byte	0x236
 5982 0680 11       		.byte	0x11
 5983 0681 F5000000 		.4byte	0xf5
 5984 0685 10       		.byte	0x10
 5985 0686 0A       		.uleb128 0xa
 5986 0687 46435200 		.ascii	"FCR\000"
 5987 068b 13       		.byte	0x13
 5988 068c 3702     		.2byte	0x237
 5989 068e 11       		.byte	0x11
 5990 068f F5000000 		.4byte	0xf5
 5991 0693 14       		.byte	0x14
 5992 0694 00       		.byte	0
 5993 0695 17       		.uleb128 0x17
 5994 0696 D2070000 		.4byte	.LASF94
 5995 069a 13       		.byte	0x13
 5996 069b 3802     		.2byte	0x238
 5997 069d 03       		.byte	0x3
 5998 069e 38060000 		.4byte	0x638
 5999 06a2 2B       		.uleb128 0x2b
 6000 06a3 14       		.byte	0x14
 6001 06a4 13       		.byte	0x13
 6002 06a5 4202     		.2byte	0x242
 6003 06a7 F2060000 		.4byte	0x6f2
 6004 06ab 0A       		.uleb128 0xa
 6005 06ac 43435200 		.ascii	"CCR\000"
 6006 06b0 13       		.byte	0x13
 6007 06b1 4402     		.2byte	0x244
 6008 06b3 11       		.byte	0x11
 6009 06b4 F5000000 		.4byte	0xf5
 6010 06b8 00       		.byte	0
ARM GAS  C:\Users\DEVELO~1\AppData\Local\Temp\cc2saCCQ.s 			page 107


 6011 06b9 03       		.uleb128 0x3
 6012 06ba 9C020000 		.4byte	.LASF95
 6013 06be 13       		.byte	0x13
 6014 06bf 4502     		.2byte	0x245
 6015 06c1 11       		.byte	0x11
 6016 06c2 F5000000 		.4byte	0xf5
 6017 06c6 04       		.byte	0x4
 6018 06c7 03       		.uleb128 0x3
 6019 06c8 A60D0000 		.4byte	.LASF96
 6020 06cc 13       		.byte	0x13
 6021 06cd 4602     		.2byte	0x246
 6022 06cf 11       		.byte	0x11
 6023 06d0 F5000000 		.4byte	0xf5
 6024 06d4 08       		.byte	0x8
 6025 06d5 03       		.uleb128 0x3
 6026 06d6 F70D0000 		.4byte	.LASF97
 6027 06da 13       		.byte	0x13
 6028 06db 4702     		.2byte	0x247
 6029 06dd 11       		.byte	0x11
 6030 06de F5000000 		.4byte	0xf5
 6031 06e2 0C       		.byte	0xc
 6032 06e3 03       		.uleb128 0x3
 6033 06e4 F90A0000 		.4byte	.LASF98
 6034 06e8 13       		.byte	0x13
 6035 06e9 4802     		.2byte	0x248
 6036 06eb 11       		.byte	0x11
 6037 06ec F5000000 		.4byte	0xf5
 6038 06f0 10       		.byte	0x10
 6039 06f1 00       		.byte	0
 6040 06f2 17       		.uleb128 0x17
 6041 06f3 71070000 		.4byte	.LASF99
 6042 06f7 13       		.byte	0x13
 6043 06f8 4902     		.2byte	0x249
 6044 06fa 03       		.byte	0x3
 6045 06fb A2060000 		.4byte	0x6a2
 6046 06ff 2B       		.uleb128 0x2b
 6047 0700 08       		.byte	0x8
 6048 0701 13       		.byte	0x13
 6049 0702 4B02     		.2byte	0x24b
 6050 0704 25070000 		.4byte	0x725
 6051 0708 0A       		.uleb128 0xa
 6052 0709 49535200 		.ascii	"ISR\000"
 6053 070d 13       		.byte	0x13
 6054 070e 4D02     		.2byte	0x24d
 6055 0710 11       		.byte	0x11
 6056 0711 F5000000 		.4byte	0xf5
 6057 0715 00       		.byte	0
 6058 0716 03       		.uleb128 0x3
 6059 0717 520E0000 		.4byte	.LASF100
 6060 071b 13       		.byte	0x13
 6061 071c 4E02     		.2byte	0x24e
 6062 071e 11       		.byte	0x11
 6063 071f F5000000 		.4byte	0xf5
 6064 0723 04       		.byte	0x4
 6065 0724 00       		.byte	0
 6066 0725 17       		.uleb128 0x17
 6067 0726 19000000 		.4byte	.LASF101
ARM GAS  C:\Users\DEVELO~1\AppData\Local\Temp\cc2saCCQ.s 			page 108


 6068 072a 13       		.byte	0x13
 6069 072b 4F02     		.2byte	0x24f
 6070 072d 03       		.byte	0x3
 6071 072e FF060000 		.4byte	0x6ff
 6072 0732 2B       		.uleb128 0x2b
 6073 0733 04       		.byte	0x4
 6074 0734 13       		.byte	0x13
 6075 0735 5102     		.2byte	0x251
 6076 0737 4A070000 		.4byte	0x74a
 6077 073b 0A       		.uleb128 0xa
 6078 073c 43435200 		.ascii	"CCR\000"
 6079 0740 13       		.byte	0x13
 6080 0741 5302     		.2byte	0x253
 6081 0743 12       		.byte	0x12
 6082 0744 F5000000 		.4byte	0xf5
 6083 0748 00       		.byte	0
 6084 0749 00       		.byte	0
 6085 074a 17       		.uleb128 0x17
 6086 074b 4C080000 		.4byte	.LASF102
 6087 074f 13       		.byte	0x13
 6088 0750 5402     		.2byte	0x254
 6089 0752 02       		.byte	0x2
 6090 0753 32070000 		.4byte	0x732
 6091 0757 14       		.uleb128 0x14
 6092 0758 E9000000 		.4byte	0xe9
 6093 075c 67070000 		.4byte	0x767
 6094 0760 15       		.uleb128 0x15
 6095 0761 39000000 		.4byte	0x39
 6096 0765 08       		.byte	0x8
 6097 0766 00       		.byte	0
 6098 0767 14       		.uleb128 0x14
 6099 0768 E9000000 		.4byte	0xe9
 6100 076c 77070000 		.4byte	0x777
 6101 0770 15       		.uleb128 0x15
 6102 0771 39000000 		.4byte	0x39
 6103 0775 02       		.byte	0x2
 6104 0776 00       		.byte	0
 6105 0777 4D       		.uleb128 0x4d
 6106 0778 3001     		.2byte	0x130
 6107 077a 13       		.byte	0x13
 6108 077b CE04     		.2byte	0x4ce
 6109 077d 09       		.byte	0x9
 6110 077e 100B0000 		.4byte	0xb10
 6111 0782 0A       		.uleb128 0xa
 6112 0783 435200   		.ascii	"CR\000"
 6113 0786 13       		.byte	0x13
 6114 0787 D004     		.2byte	0x4d0
 6115 0789 10       		.byte	0x10
 6116 078a F5000000 		.4byte	0xf5
 6117 078e 00       		.byte	0
 6118 078f 03       		.uleb128 0x3
 6119 0790 18090000 		.4byte	.LASF103
 6120 0794 13       		.byte	0x13
 6121 0795 D104     		.2byte	0x4d1
 6122 0797 10       		.byte	0x10
 6123 0798 F5000000 		.4byte	0xf5
 6124 079c 04       		.byte	0x4
ARM GAS  C:\Users\DEVELO~1\AppData\Local\Temp\cc2saCCQ.s 			page 109


 6125 079d 03       		.uleb128 0x3
 6126 079e 81010000 		.4byte	.LASF104
 6127 07a2 13       		.byte	0x13
 6128 07a3 D204     		.2byte	0x4d2
 6129 07a5 10       		.byte	0x10
 6130 07a6 F5000000 		.4byte	0xf5
 6131 07aa 08       		.byte	0x8
 6132 07ab 03       		.uleb128 0x3
 6133 07ac B10C0000 		.4byte	.LASF105
 6134 07b0 13       		.byte	0x13
 6135 07b1 D304     		.2byte	0x4d3
 6136 07b3 10       		.byte	0x10
 6137 07b4 F5000000 		.4byte	0xf5
 6138 07b8 0C       		.byte	0xc
 6139 07b9 03       		.uleb128 0x3
 6140 07ba 190B0000 		.4byte	.LASF106
 6141 07be 13       		.byte	0x13
 6142 07bf D404     		.2byte	0x4d4
 6143 07c1 10       		.byte	0x10
 6144 07c2 F5000000 		.4byte	0xf5
 6145 07c6 10       		.byte	0x10
 6146 07c7 03       		.uleb128 0x3
 6147 07c8 F5090000 		.4byte	.LASF107
 6148 07cc 13       		.byte	0x13
 6149 07cd D504     		.2byte	0x4d5
 6150 07cf 0F       		.byte	0xf
 6151 07d0 E9000000 		.4byte	0xe9
 6152 07d4 14       		.byte	0x14
 6153 07d5 03       		.uleb128 0x3
 6154 07d6 C20B0000 		.4byte	.LASF108
 6155 07da 13       		.byte	0x13
 6156 07db D604     		.2byte	0x4d6
 6157 07dd 10       		.byte	0x10
 6158 07de F5000000 		.4byte	0xf5
 6159 07e2 18       		.byte	0x18
 6160 07e3 03       		.uleb128 0x3
 6161 07e4 76060000 		.4byte	.LASF109
 6162 07e8 13       		.byte	0x13
 6163 07e9 D704     		.2byte	0x4d7
 6164 07eb 10       		.byte	0x10
 6165 07ec F5000000 		.4byte	0xf5
 6166 07f0 1C       		.byte	0x1c
 6167 07f1 03       		.uleb128 0x3
 6168 07f2 69010000 		.4byte	.LASF110
 6169 07f6 13       		.byte	0x13
 6170 07f7 D804     		.2byte	0x4d8
 6171 07f9 10       		.byte	0x10
 6172 07fa F5000000 		.4byte	0xf5
 6173 07fe 20       		.byte	0x20
 6174 07ff 03       		.uleb128 0x3
 6175 0800 FF090000 		.4byte	.LASF111
 6176 0804 13       		.byte	0x13
 6177 0805 D904     		.2byte	0x4d9
 6178 0807 0F       		.byte	0xf
 6179 0808 E9000000 		.4byte	0xe9
 6180 080c 24       		.byte	0x24
 6181 080d 03       		.uleb128 0x3
ARM GAS  C:\Users\DEVELO~1\AppData\Local\Temp\cc2saCCQ.s 			page 110


 6182 080e 890B0000 		.4byte	.LASF112
 6183 0812 13       		.byte	0x13
 6184 0813 DA04     		.2byte	0x4da
 6185 0815 10       		.byte	0x10
 6186 0816 F5000000 		.4byte	0xf5
 6187 081a 28       		.byte	0x28
 6188 081b 03       		.uleb128 0x3
 6189 081c 810B0000 		.4byte	.LASF113
 6190 0820 13       		.byte	0x13
 6191 0821 DB04     		.2byte	0x4db
 6192 0823 10       		.byte	0x10
 6193 0824 F5000000 		.4byte	0xf5
 6194 0828 2C       		.byte	0x2c
 6195 0829 03       		.uleb128 0x3
 6196 082a 5B0C0000 		.4byte	.LASF114
 6197 082e 13       		.byte	0x13
 6198 082f DC04     		.2byte	0x4dc
 6199 0831 10       		.byte	0x10
 6200 0832 F5000000 		.4byte	0xf5
 6201 0836 30       		.byte	0x30
 6202 0837 03       		.uleb128 0x3
 6203 0838 54030000 		.4byte	.LASF115
 6204 083c 13       		.byte	0x13
 6205 083d DD04     		.2byte	0x4dd
 6206 083f 10       		.byte	0x10
 6207 0840 F5000000 		.4byte	0xf5
 6208 0844 34       		.byte	0x34
 6209 0845 03       		.uleb128 0x3
 6210 0846 DF060000 		.4byte	.LASF116
 6211 084a 13       		.byte	0x13
 6212 084b DE04     		.2byte	0x4de
 6213 084d 10       		.byte	0x10
 6214 084e F5000000 		.4byte	0xf5
 6215 0852 38       		.byte	0x38
 6216 0853 03       		.uleb128 0x3
 6217 0854 3E060000 		.4byte	.LASF117
 6218 0858 13       		.byte	0x13
 6219 0859 DF04     		.2byte	0x4df
 6220 085b 10       		.byte	0x10
 6221 085c F5000000 		.4byte	0xf5
 6222 0860 3C       		.byte	0x3c
 6223 0861 03       		.uleb128 0x3
 6224 0862 CD010000 		.4byte	.LASF118
 6225 0866 13       		.byte	0x13
 6226 0867 E004     		.2byte	0x4e0
 6227 0869 10       		.byte	0x10
 6228 086a F5000000 		.4byte	0xf5
 6229 086e 40       		.byte	0x40
 6230 086f 03       		.uleb128 0x3
 6231 0870 C4000000 		.4byte	.LASF119
 6232 0874 13       		.byte	0x13
 6233 0875 E104     		.2byte	0x4e1
 6234 0877 10       		.byte	0x10
 6235 0878 F5000000 		.4byte	0xf5
 6236 087c 44       		.byte	0x44
 6237 087d 03       		.uleb128 0x3
 6238 087e 090A0000 		.4byte	.LASF120
ARM GAS  C:\Users\DEVELO~1\AppData\Local\Temp\cc2saCCQ.s 			page 111


 6239 0882 13       		.byte	0x13
 6240 0883 E204     		.2byte	0x4e2
 6241 0885 10       		.byte	0x10
 6242 0886 E9000000 		.4byte	0xe9
 6243 088a 48       		.byte	0x48
 6244 088b 03       		.uleb128 0x3
 6245 088c 110B0000 		.4byte	.LASF121
 6246 0890 13       		.byte	0x13
 6247 0891 E304     		.2byte	0x4e3
 6248 0893 11       		.byte	0x11
 6249 0894 F5000000 		.4byte	0xf5
 6250 0898 4C       		.byte	0x4c
 6251 0899 03       		.uleb128 0x3
 6252 089a A3050000 		.4byte	.LASF122
 6253 089e 13       		.byte	0x13
 6254 089f E404     		.2byte	0x4e4
 6255 08a1 11       		.byte	0x11
 6256 08a2 F5000000 		.4byte	0xf5
 6257 08a6 50       		.byte	0x50
 6258 08a7 03       		.uleb128 0x3
 6259 08a8 AB060000 		.4byte	.LASF123
 6260 08ac 13       		.byte	0x13
 6261 08ad E504     		.2byte	0x4e5
 6262 08af 11       		.byte	0x11
 6263 08b0 F5000000 		.4byte	0xf5
 6264 08b4 54       		.byte	0x54
 6265 08b5 03       		.uleb128 0x3
 6266 08b6 AB0D0000 		.4byte	.LASF124
 6267 08ba 13       		.byte	0x13
 6268 08bb E604     		.2byte	0x4e6
 6269 08bd 11       		.byte	0x11
 6270 08be F5000000 		.4byte	0xf5
 6271 08c2 58       		.byte	0x58
 6272 08c3 03       		.uleb128 0x3
 6273 08c4 130A0000 		.4byte	.LASF125
 6274 08c8 13       		.byte	0x13
 6275 08c9 E704     		.2byte	0x4e7
 6276 08cb 10       		.byte	0x10
 6277 08cc E9000000 		.4byte	0xe9
 6278 08d0 5C       		.byte	0x5c
 6279 08d1 03       		.uleb128 0x3
 6280 08d2 BC060000 		.4byte	.LASF126
 6281 08d6 13       		.byte	0x13
 6282 08d7 E804     		.2byte	0x4e8
 6283 08d9 11       		.byte	0x11
 6284 08da F5000000 		.4byte	0xf5
 6285 08de 60       		.byte	0x60
 6286 08df 03       		.uleb128 0x3
 6287 08e0 2F020000 		.4byte	.LASF127
 6288 08e4 13       		.byte	0x13
 6289 08e5 E904     		.2byte	0x4e9
 6290 08e7 11       		.byte	0x11
 6291 08e8 F5000000 		.4byte	0xf5
 6292 08ec 64       		.byte	0x64
 6293 08ed 03       		.uleb128 0x3
 6294 08ee 13090000 		.4byte	.LASF128
 6295 08f2 13       		.byte	0x13
ARM GAS  C:\Users\DEVELO~1\AppData\Local\Temp\cc2saCCQ.s 			page 112


 6296 08f3 EA04     		.2byte	0x4ea
 6297 08f5 11       		.byte	0x11
 6298 08f6 F5000000 		.4byte	0xf5
 6299 08fa 68       		.byte	0x68
 6300 08fb 03       		.uleb128 0x3
 6301 08fc BB0E0000 		.4byte	.LASF129
 6302 0900 13       		.byte	0x13
 6303 0901 EB04     		.2byte	0x4eb
 6304 0903 0F       		.byte	0xf
 6305 0904 E9000000 		.4byte	0xe9
 6306 0908 6C       		.byte	0x6c
 6307 0909 03       		.uleb128 0x3
 6308 090a 70010000 		.4byte	.LASF130
 6309 090e 13       		.byte	0x13
 6310 090f EC04     		.2byte	0x4ec
 6311 0911 11       		.byte	0x11
 6312 0912 F5000000 		.4byte	0xf5
 6313 0916 70       		.byte	0x70
 6314 0917 0A       		.uleb128 0xa
 6315 0918 43535200 		.ascii	"CSR\000"
 6316 091c 13       		.byte	0x13
 6317 091d ED04     		.2byte	0x4ed
 6318 091f 11       		.byte	0x11
 6319 0920 F5000000 		.4byte	0xf5
 6320 0924 74       		.byte	0x74
 6321 0925 03       		.uleb128 0x3
 6322 0926 1D0A0000 		.4byte	.LASF131
 6323 092a 13       		.byte	0x13
 6324 092b EE04     		.2byte	0x4ee
 6325 092d 0F       		.byte	0xf
 6326 092e E9000000 		.4byte	0xe9
 6327 0932 78       		.byte	0x78
 6328 0933 03       		.uleb128 0x3
 6329 0934 67040000 		.4byte	.LASF132
 6330 0938 13       		.byte	0x13
 6331 0939 EF04     		.2byte	0x4ef
 6332 093b 10       		.byte	0x10
 6333 093c F5000000 		.4byte	0xf5
 6334 0940 7C       		.byte	0x7c
 6335 0941 03       		.uleb128 0x3
 6336 0942 0E080000 		.4byte	.LASF133
 6337 0946 13       		.byte	0x13
 6338 0947 F004     		.2byte	0x4f0
 6339 0949 10       		.byte	0x10
 6340 094a F5000000 		.4byte	0xf5
 6341 094e 80       		.byte	0x80
 6342 094f 03       		.uleb128 0x3
 6343 0950 C8080000 		.4byte	.LASF134
 6344 0954 13       		.byte	0x13
 6345 0955 F104     		.2byte	0x4f1
 6346 0957 10       		.byte	0x10
 6347 0958 F5000000 		.4byte	0xf5
 6348 095c 84       		.byte	0x84
 6349 095d 03       		.uleb128 0x3
 6350 095e B90A0000 		.4byte	.LASF135
 6351 0962 13       		.byte	0x13
 6352 0963 F204     		.2byte	0x4f2
ARM GAS  C:\Users\DEVELO~1\AppData\Local\Temp\cc2saCCQ.s 			page 113


 6353 0965 10       		.byte	0x10
 6354 0966 F5000000 		.4byte	0xf5
 6355 096a 88       		.byte	0x88
 6356 096b 03       		.uleb128 0x3
 6357 096c 8F0A0000 		.4byte	.LASF136
 6358 0970 13       		.byte	0x13
 6359 0971 F304     		.2byte	0x4f3
 6360 0973 10       		.byte	0x10
 6361 0974 F5000000 		.4byte	0xf5
 6362 0978 8C       		.byte	0x8c
 6363 0979 03       		.uleb128 0x3
 6364 097a 8D030000 		.4byte	.LASF137
 6365 097e 13       		.byte	0x13
 6366 097f F404     		.2byte	0x4f4
 6367 0981 10       		.byte	0x10
 6368 0982 F5000000 		.4byte	0xf5
 6369 0986 90       		.byte	0x90
 6370 0987 03       		.uleb128 0x3
 6371 0988 00000000 		.4byte	.LASF138
 6372 098c 13       		.byte	0x13
 6373 098d F504     		.2byte	0x4f5
 6374 098f 10       		.byte	0x10
 6375 0990 F5000000 		.4byte	0xf5
 6376 0994 94       		.byte	0x94
 6377 0995 03       		.uleb128 0x3
 6378 0996 8A000000 		.4byte	.LASF139
 6379 099a 13       		.byte	0x13
 6380 099b F604     		.2byte	0x4f6
 6381 099d 10       		.byte	0x10
 6382 099e F5000000 		.4byte	0xf5
 6383 09a2 98       		.byte	0x98
 6384 09a3 03       		.uleb128 0x3
 6385 09a4 53050000 		.4byte	.LASF140
 6386 09a8 13       		.byte	0x13
 6387 09a9 F704     		.2byte	0x4f7
 6388 09ab 10       		.byte	0x10
 6389 09ac F5000000 		.4byte	0xf5
 6390 09b0 9C       		.byte	0x9c
 6391 09b1 0A       		.uleb128 0xa
 6392 09b2 47435200 		.ascii	"GCR\000"
 6393 09b6 13       		.byte	0x13
 6394 09b7 F804     		.2byte	0x4f8
 6395 09b9 10       		.byte	0x10
 6396 09ba F5000000 		.4byte	0xf5
 6397 09be A0       		.byte	0xa0
 6398 09bf 03       		.uleb128 0x3
 6399 09c0 310A0000 		.4byte	.LASF141
 6400 09c4 13       		.byte	0x13
 6401 09c5 F904     		.2byte	0x4f9
 6402 09c7 0F       		.byte	0xf
 6403 09c8 E9000000 		.4byte	0xe9
 6404 09cc A4       		.byte	0xa4
 6405 09cd 03       		.uleb128 0x3
 6406 09ce 37080000 		.4byte	.LASF142
 6407 09d2 13       		.byte	0x13
 6408 09d3 FA04     		.2byte	0x4fa
 6409 09d5 10       		.byte	0x10
ARM GAS  C:\Users\DEVELO~1\AppData\Local\Temp\cc2saCCQ.s 			page 114


 6410 09d6 F5000000 		.4byte	0xf5
 6411 09da A8       		.byte	0xa8
 6412 09db 03       		.uleb128 0x3
 6413 09dc 080D0000 		.4byte	.LASF143
 6414 09e0 13       		.byte	0x13
 6415 09e1 FB04     		.2byte	0x4fb
 6416 09e3 0F       		.byte	0xf
 6417 09e4 57070000 		.4byte	0x757
 6418 09e8 AC       		.byte	0xac
 6419 09e9 0A       		.uleb128 0xa
 6420 09ea 52535200 		.ascii	"RSR\000"
 6421 09ee 13       		.byte	0x13
 6422 09ef FC04     		.2byte	0x4fc
 6423 09f1 10       		.byte	0x10
 6424 09f2 F5000000 		.4byte	0xf5
 6425 09f6 D0       		.byte	0xd0
 6426 09f7 03       		.uleb128 0x3
 6427 09f8 8B050000 		.4byte	.LASF144
 6428 09fc 13       		.byte	0x13
 6429 09fd FD04     		.2byte	0x4fd
 6430 09ff 10       		.byte	0x10
 6431 0a00 F5000000 		.4byte	0xf5
 6432 0a04 D4       		.byte	0xd4
 6433 0a05 03       		.uleb128 0x3
 6434 0a06 7D030000 		.4byte	.LASF145
 6435 0a0a 13       		.byte	0x13
 6436 0a0b FE04     		.2byte	0x4fe
 6437 0a0d 10       		.byte	0x10
 6438 0a0e F5000000 		.4byte	0xf5
 6439 0a12 D8       		.byte	0xd8
 6440 0a13 03       		.uleb128 0x3
 6441 0a14 0B0C0000 		.4byte	.LASF146
 6442 0a18 13       		.byte	0x13
 6443 0a19 FF04     		.2byte	0x4ff
 6444 0a1b 10       		.byte	0x10
 6445 0a1c F5000000 		.4byte	0xf5
 6446 0a20 DC       		.byte	0xdc
 6447 0a21 03       		.uleb128 0x3
 6448 0a22 B30E0000 		.4byte	.LASF147
 6449 0a26 13       		.byte	0x13
 6450 0a27 0005     		.2byte	0x500
 6451 0a29 10       		.byte	0x10
 6452 0a2a F5000000 		.4byte	0xf5
 6453 0a2e E0       		.byte	0xe0
 6454 0a2f 03       		.uleb128 0x3
 6455 0a30 87020000 		.4byte	.LASF148
 6456 0a34 13       		.byte	0x13
 6457 0a35 0105     		.2byte	0x501
 6458 0a37 10       		.byte	0x10
 6459 0a38 F5000000 		.4byte	0xf5
 6460 0a3c E4       		.byte	0xe4
 6461 0a3d 03       		.uleb128 0x3
 6462 0a3e D0040000 		.4byte	.LASF149
 6463 0a42 13       		.byte	0x13
 6464 0a43 0205     		.2byte	0x502
 6465 0a45 10       		.byte	0x10
 6466 0a46 F5000000 		.4byte	0xf5
ARM GAS  C:\Users\DEVELO~1\AppData\Local\Temp\cc2saCCQ.s 			page 115


 6467 0a4a E8       		.byte	0xe8
 6468 0a4b 03       		.uleb128 0x3
 6469 0a4c 5D0A0000 		.4byte	.LASF150
 6470 0a50 13       		.byte	0x13
 6471 0a51 0305     		.2byte	0x503
 6472 0a53 10       		.byte	0x10
 6473 0a54 F5000000 		.4byte	0xf5
 6474 0a58 EC       		.byte	0xec
 6475 0a59 03       		.uleb128 0x3
 6476 0a5a 25080000 		.4byte	.LASF151
 6477 0a5e 13       		.byte	0x13
 6478 0a5f 0405     		.2byte	0x504
 6479 0a61 10       		.byte	0x10
 6480 0a62 F5000000 		.4byte	0xf5
 6481 0a66 F0       		.byte	0xf0
 6482 0a67 03       		.uleb128 0x3
 6483 0a68 6A0B0000 		.4byte	.LASF152
 6484 0a6c 13       		.byte	0x13
 6485 0a6d 0505     		.2byte	0x505
 6486 0a6f 10       		.byte	0x10
 6487 0a70 F5000000 		.4byte	0xf5
 6488 0a74 F4       		.byte	0xf4
 6489 0a75 03       		.uleb128 0x3
 6490 0a76 130D0000 		.4byte	.LASF153
 6491 0a7a 13       		.byte	0x13
 6492 0a7b 0605     		.2byte	0x506
 6493 0a7d 10       		.byte	0x10
 6494 0a7e E9000000 		.4byte	0xe9
 6495 0a82 F8       		.byte	0xf8
 6496 0a83 03       		.uleb128 0x3
 6497 0a84 980B0000 		.4byte	.LASF154
 6498 0a88 13       		.byte	0x13
 6499 0a89 0705     		.2byte	0x507
 6500 0a8b 10       		.byte	0x10
 6501 0a8c F5000000 		.4byte	0xf5
 6502 0a90 FC       		.byte	0xfc
 6503 0a91 1B       		.uleb128 0x1b
 6504 0a92 6B080000 		.4byte	.LASF155
 6505 0a96 0805     		.2byte	0x508
 6506 0a98 10       		.byte	0x10
 6507 0a99 F5000000 		.4byte	0xf5
 6508 0a9d 0001     		.2byte	0x100
 6509 0a9f 1B       		.uleb128 0x1b
 6510 0aa0 3F020000 		.4byte	.LASF156
 6511 0aa4 0905     		.2byte	0x509
 6512 0aa6 10       		.byte	0x10
 6513 0aa7 F5000000 		.4byte	0xf5
 6514 0aab 0401     		.2byte	0x104
 6515 0aad 1B       		.uleb128 0x1b
 6516 0aae 34060000 		.4byte	.LASF157
 6517 0ab2 0A05     		.2byte	0x50a
 6518 0ab4 10       		.byte	0x10
 6519 0ab5 F5000000 		.4byte	0xf5
 6520 0ab9 0801     		.2byte	0x108
 6521 0abb 1B       		.uleb128 0x1b
 6522 0abc 530A0000 		.4byte	.LASF158
 6523 0ac0 0B05     		.2byte	0x50b
ARM GAS  C:\Users\DEVELO~1\AppData\Local\Temp\cc2saCCQ.s 			page 116


 6524 0ac2 10       		.byte	0x10
 6525 0ac3 F5000000 		.4byte	0xf5
 6526 0ac7 0C01     		.2byte	0x10c
 6527 0ac9 1B       		.uleb128 0x1b
 6528 0aca D6030000 		.4byte	.LASF159
 6529 0ace 0C05     		.2byte	0x50c
 6530 0ad0 10       		.byte	0x10
 6531 0ad1 F5000000 		.4byte	0xf5
 6532 0ad5 1001     		.2byte	0x110
 6533 0ad7 1B       		.uleb128 0x1b
 6534 0ad8 F40E0000 		.4byte	.LASF160
 6535 0adc 0D05     		.2byte	0x50d
 6536 0ade 10       		.byte	0x10
 6537 0adf F5000000 		.4byte	0xf5
 6538 0ae3 1401     		.2byte	0x114
 6539 0ae5 1B       		.uleb128 0x1b
 6540 0ae6 80000000 		.4byte	.LASF161
 6541 0aea 0E05     		.2byte	0x50e
 6542 0aec 10       		.byte	0x10
 6543 0aed F5000000 		.4byte	0xf5
 6544 0af1 1801     		.2byte	0x118
 6545 0af3 1B       		.uleb128 0x1b
 6546 0af4 DE040000 		.4byte	.LASF162
 6547 0af8 0F05     		.2byte	0x50f
 6548 0afa 10       		.byte	0x10
 6549 0afb F5000000 		.4byte	0xf5
 6550 0aff 1C01     		.2byte	0x11c
 6551 0b01 1B       		.uleb128 0x1b
 6552 0b02 1E0D0000 		.4byte	.LASF163
 6553 0b06 1005     		.2byte	0x510
 6554 0b08 0F       		.byte	0xf
 6555 0b09 28060000 		.4byte	0x628
 6556 0b0d 2001     		.2byte	0x120
 6557 0b0f 00       		.byte	0
 6558 0b10 17       		.uleb128 0x17
 6559 0b11 87010000 		.4byte	.LASF164
 6560 0b15 13       		.byte	0x13
 6561 0b16 1205     		.2byte	0x512
 6562 0b18 03       		.byte	0x3
 6563 0b19 77070000 		.4byte	0x777
 6564 0b1d 2B       		.uleb128 0x2b
 6565 0b1e 54       		.byte	0x54
 6566 0b1f 13       		.byte	0x13
 6567 0b20 C405     		.2byte	0x5c4
 6568 0b22 140C0000 		.4byte	0xc14
 6569 0b26 0A       		.uleb128 0xa
 6570 0b27 43523100 		.ascii	"CR1\000"
 6571 0b2b 13       		.byte	0x13
 6572 0b2c C605     		.2byte	0x5c6
 6573 0b2e 11       		.byte	0x11
 6574 0b2f F5000000 		.4byte	0xf5
 6575 0b33 00       		.byte	0
 6576 0b34 0A       		.uleb128 0xa
 6577 0b35 43523200 		.ascii	"CR2\000"
 6578 0b39 13       		.byte	0x13
 6579 0b3a C705     		.2byte	0x5c7
 6580 0b3c 11       		.byte	0x11
ARM GAS  C:\Users\DEVELO~1\AppData\Local\Temp\cc2saCCQ.s 			page 117


 6581 0b3d F5000000 		.4byte	0xf5
 6582 0b41 04       		.byte	0x4
 6583 0b42 03       		.uleb128 0x3
 6584 0b43 850A0000 		.4byte	.LASF165
 6585 0b47 13       		.byte	0x13
 6586 0b48 C805     		.2byte	0x5c8
 6587 0b4a 11       		.byte	0x11
 6588 0b4b F5000000 		.4byte	0xf5
 6589 0b4f 08       		.byte	0x8
 6590 0b50 03       		.uleb128 0x3
 6591 0b51 8A0A0000 		.4byte	.LASF166
 6592 0b55 13       		.byte	0x13
 6593 0b56 C905     		.2byte	0x5c9
 6594 0b58 11       		.byte	0x11
 6595 0b59 F5000000 		.4byte	0xf5
 6596 0b5d 0C       		.byte	0xc
 6597 0b5e 0A       		.uleb128 0xa
 6598 0b5f 49455200 		.ascii	"IER\000"
 6599 0b63 13       		.byte	0x13
 6600 0b64 CA05     		.2byte	0x5ca
 6601 0b66 11       		.byte	0x11
 6602 0b67 F5000000 		.4byte	0xf5
 6603 0b6b 10       		.byte	0x10
 6604 0b6c 0A       		.uleb128 0xa
 6605 0b6d 535200   		.ascii	"SR\000"
 6606 0b70 13       		.byte	0x13
 6607 0b71 CB05     		.2byte	0x5cb
 6608 0b73 11       		.byte	0x11
 6609 0b74 F5000000 		.4byte	0xf5
 6610 0b78 14       		.byte	0x14
 6611 0b79 03       		.uleb128 0x3
 6612 0b7a 520E0000 		.4byte	.LASF100
 6613 0b7e 13       		.byte	0x13
 6614 0b7f CC05     		.2byte	0x5cc
 6615 0b81 11       		.byte	0x11
 6616 0b82 F5000000 		.4byte	0xf5
 6617 0b86 18       		.byte	0x18
 6618 0b87 03       		.uleb128 0x3
 6619 0b88 EB090000 		.4byte	.LASF167
 6620 0b8c 13       		.byte	0x13
 6621 0b8d CD05     		.2byte	0x5cd
 6622 0b8f 11       		.byte	0x11
 6623 0b90 E9000000 		.4byte	0xe9
 6624 0b94 1C       		.byte	0x1c
 6625 0b95 03       		.uleb128 0x3
 6626 0b96 FF060000 		.4byte	.LASF168
 6627 0b9a 13       		.byte	0x13
 6628 0b9b CE05     		.2byte	0x5ce
 6629 0b9d 11       		.byte	0x11
 6630 0b9e F5000000 		.4byte	0xf5
 6631 0ba2 20       		.byte	0x20
 6632 0ba3 03       		.uleb128 0x3
 6633 0ba4 F5090000 		.4byte	.LASF107
 6634 0ba8 13       		.byte	0x13
 6635 0ba9 CF05     		.2byte	0x5cf
 6636 0bab 11       		.byte	0x11
 6637 0bac 67070000 		.4byte	0x767
ARM GAS  C:\Users\DEVELO~1\AppData\Local\Temp\cc2saCCQ.s 			page 118


 6638 0bb0 24       		.byte	0x24
 6639 0bb1 03       		.uleb128 0x3
 6640 0bb2 F6040000 		.4byte	.LASF169
 6641 0bb6 13       		.byte	0x13
 6642 0bb7 D005     		.2byte	0x5d0
 6643 0bb9 11       		.byte	0x11
 6644 0bba F5000000 		.4byte	0xf5
 6645 0bbe 30       		.byte	0x30
 6646 0bbf 03       		.uleb128 0x3
 6647 0bc0 FF090000 		.4byte	.LASF111
 6648 0bc4 13       		.byte	0x13
 6649 0bc5 D105     		.2byte	0x5d1
 6650 0bc7 11       		.byte	0x11
 6651 0bc8 67070000 		.4byte	0x767
 6652 0bcc 34       		.byte	0x34
 6653 0bcd 03       		.uleb128 0x3
 6654 0bce 7D0A0000 		.4byte	.LASF170
 6655 0bd2 13       		.byte	0x13
 6656 0bd3 D205     		.2byte	0x5d2
 6657 0bd5 11       		.byte	0x11
 6658 0bd6 F5000000 		.4byte	0xf5
 6659 0bda 40       		.byte	0x40
 6660 0bdb 03       		.uleb128 0x3
 6661 0bdc 5B010000 		.4byte	.LASF171
 6662 0be0 13       		.byte	0x13
 6663 0be1 D305     		.2byte	0x5d3
 6664 0be3 11       		.byte	0x11
 6665 0be4 F5000000 		.4byte	0xf5
 6666 0be8 44       		.byte	0x44
 6667 0be9 03       		.uleb128 0x3
 6668 0bea 81020000 		.4byte	.LASF172
 6669 0bee 13       		.byte	0x13
 6670 0bef D405     		.2byte	0x5d4
 6671 0bf1 11       		.byte	0x11
 6672 0bf2 F5000000 		.4byte	0xf5
 6673 0bf6 48       		.byte	0x48
 6674 0bf7 03       		.uleb128 0x3
 6675 0bf8 C20A0000 		.4byte	.LASF173
 6676 0bfc 13       		.byte	0x13
 6677 0bfd D505     		.2byte	0x5d5
 6678 0bff 11       		.byte	0x11
 6679 0c00 F5000000 		.4byte	0xf5
 6680 0c04 4C       		.byte	0x4c
 6681 0c05 03       		.uleb128 0x3
 6682 0c06 470D0000 		.4byte	.LASF174
 6683 0c0a 13       		.byte	0x13
 6684 0c0b D605     		.2byte	0x5d6
 6685 0c0d 11       		.byte	0x11
 6686 0c0e F5000000 		.4byte	0xf5
 6687 0c12 50       		.byte	0x50
 6688 0c13 00       		.byte	0
 6689 0c14 17       		.uleb128 0x17
 6690 0c15 670D0000 		.4byte	.LASF175
 6691 0c19 13       		.byte	0x13
 6692 0c1a D805     		.2byte	0x5d8
 6693 0c1c 03       		.byte	0x3
 6694 0c1d 1D0B0000 		.4byte	0xb1d
ARM GAS  C:\Users\DEVELO~1\AppData\Local\Temp\cc2saCCQ.s 			page 119


 6695 0c21 10       		.uleb128 0x10
 6696 0c22 04       		.byte	0x4
 6697 0c23 04       		.byte	0x4
 6698 0c24 42030000 		.4byte	.LASF176
 6699 0c28 10       		.uleb128 0x10
 6700 0c29 08       		.byte	0x8
 6701 0c2a 04       		.byte	0x4
 6702 0c2b 2C050000 		.4byte	.LASF177
 6703 0c2f 36       		.uleb128 0x36
 6704 0c30 660A0000 		.4byte	.LASF178
 6705 0c34 24       		.byte	0x24
 6706 0c35 05       		.byte	0x5
 6707 0c36 E001     		.2byte	0x1e0
 6708 0c38 08       		.byte	0x8
 6709 0c39 B50C0000 		.4byte	0xcb5
 6710 0c3d 0A       		.uleb128 0xa
 6711 0c3e 723400   		.ascii	"r4\000"
 6712 0c41 05       		.byte	0x5
 6713 0c42 F901     		.2byte	0x1f9
 6714 0c44 11       		.byte	0x11
 6715 0c45 E9000000 		.4byte	0xe9
 6716 0c49 00       		.byte	0
 6717 0c4a 0A       		.uleb128 0xa
 6718 0c4b 723500   		.ascii	"r5\000"
 6719 0c4e 05       		.byte	0x5
 6720 0c4f FA01     		.2byte	0x1fa
 6721 0c51 11       		.byte	0x11
 6722 0c52 E9000000 		.4byte	0xe9
 6723 0c56 04       		.byte	0x4
 6724 0c57 0A       		.uleb128 0xa
 6725 0c58 723600   		.ascii	"r6\000"
 6726 0c5b 05       		.byte	0x5
 6727 0c5c FB01     		.2byte	0x1fb
 6728 0c5e 11       		.byte	0x11
 6729 0c5f E9000000 		.4byte	0xe9
 6730 0c63 08       		.byte	0x8
 6731 0c64 0A       		.uleb128 0xa
 6732 0c65 723700   		.ascii	"r7\000"
 6733 0c68 05       		.byte	0x5
 6734 0c69 FC01     		.2byte	0x1fc
 6735 0c6b 11       		.byte	0x11
 6736 0c6c E9000000 		.4byte	0xe9
 6737 0c70 0C       		.byte	0xc
 6738 0c71 0A       		.uleb128 0xa
 6739 0c72 723800   		.ascii	"r8\000"
 6740 0c75 05       		.byte	0x5
 6741 0c76 FD01     		.2byte	0x1fd
 6742 0c78 11       		.byte	0x11
 6743 0c79 E9000000 		.4byte	0xe9
 6744 0c7d 10       		.byte	0x10
 6745 0c7e 0A       		.uleb128 0xa
 6746 0c7f 723900   		.ascii	"r9\000"
 6747 0c82 05       		.byte	0x5
 6748 0c83 FE01     		.2byte	0x1fe
 6749 0c85 11       		.byte	0x11
 6750 0c86 E9000000 		.4byte	0xe9
 6751 0c8a 14       		.byte	0x14
ARM GAS  C:\Users\DEVELO~1\AppData\Local\Temp\cc2saCCQ.s 			page 120


 6752 0c8b 0A       		.uleb128 0xa
 6753 0c8c 72313000 		.ascii	"r10\000"
 6754 0c90 05       		.byte	0x5
 6755 0c91 FF01     		.2byte	0x1ff
 6756 0c93 11       		.byte	0x11
 6757 0c94 E9000000 		.4byte	0xe9
 6758 0c98 18       		.byte	0x18
 6759 0c99 0A       		.uleb128 0xa
 6760 0c9a 72313100 		.ascii	"r11\000"
 6761 0c9e 05       		.byte	0x5
 6762 0c9f 0002     		.2byte	0x200
 6763 0ca1 11       		.byte	0x11
 6764 0ca2 E9000000 		.4byte	0xe9
 6765 0ca6 1C       		.byte	0x1c
 6766 0ca7 0A       		.uleb128 0xa
 6767 0ca8 6C7200   		.ascii	"lr\000"
 6768 0cab 05       		.byte	0x5
 6769 0cac 0102     		.2byte	0x201
 6770 0cae 11       		.byte	0x11
 6771 0caf E9000000 		.4byte	0xe9
 6772 0cb3 20       		.byte	0x20
 6773 0cb4 00       		.byte	0
 6774 0cb5 36       		.uleb128 0x36
 6775 0cb6 E7010000 		.4byte	.LASF179
 6776 0cba 04       		.byte	0x4
 6777 0cbb 05       		.byte	0x5
 6778 0cbc 0A02     		.2byte	0x20a
 6779 0cbe 08       		.byte	0x8
 6780 0cbf D10C0000 		.4byte	0xcd1
 6781 0cc3 0A       		.uleb128 0xa
 6782 0cc4 737000   		.ascii	"sp\000"
 6783 0cc7 05       		.byte	0x5
 6784 0cc8 0B02     		.2byte	0x20b
 6785 0cca 1A       		.byte	0x1a
 6786 0ccb D10C0000 		.4byte	0xcd1
 6787 0ccf 00       		.byte	0
 6788 0cd0 00       		.byte	0
 6789 0cd1 09       		.uleb128 0x9
 6790 0cd2 2F0C0000 		.4byte	0xc2f
 6791 0cd6 11       		.uleb128 0x11
 6792 0cd7 90040000 		.4byte	.LASF180
 6793 0cdb 18       		.byte	0x18
 6794 0cdc 0D       		.byte	0xd
 6795 0cdd 64       		.byte	0x64
 6796 0cde 10       		.byte	0x10
 6797 0cdf 0B0D0000 		.4byte	0xd0b
 6798 0ce3 05       		.uleb128 0x5
 6799 0ce4 F30A0000 		.4byte	.LASF181
 6800 0ce8 0D       		.byte	0xd
 6801 0ce9 68       		.byte	0x68
 6802 0cea 21       		.byte	0x21
 6803 0ceb 4B040000 		.4byte	0x44b
 6804 0cef 00       		.byte	0
 6805 0cf0 05       		.uleb128 0x5
 6806 0cf1 080B0000 		.4byte	.LASF182
 6807 0cf5 0D       		.byte	0xd
 6808 0cf6 73       		.byte	0x73
ARM GAS  C:\Users\DEVELO~1\AppData\Local\Temp\cc2saCCQ.s 			page 121


 6809 0cf7 21       		.byte	0x21
 6810 0cf8 88030000 		.4byte	0x388
 6811 0cfc 0C       		.byte	0xc
 6812 0cfd 05       		.uleb128 0x5
 6813 0cfe 25020000 		.4byte	.LASF183
 6814 0d02 0D       		.byte	0xd
 6815 0d03 79       		.byte	0x79
 6816 0d04 21       		.byte	0x21
 6817 0d05 06010000 		.4byte	0x106
 6818 0d09 10       		.byte	0x10
 6819 0d0a 00       		.byte	0
 6820 0d0b 08       		.uleb128 0x8
 6821 0d0c CC0C0000 		.4byte	.LASF184
 6822 0d10 0D       		.byte	0xd
 6823 0d11 7B       		.byte	0x7b
 6824 0d12 03       		.byte	0x3
 6825 0d13 D60C0000 		.4byte	0xcd6
 6826 0d17 11       		.uleb128 0x11
 6827 0d18 74000000 		.4byte	.LASF185
 6828 0d1c 08       		.byte	0x8
 6829 0d1d 0D       		.byte	0xd
 6830 0d1e 80       		.byte	0x80
 6831 0d1f 10       		.byte	0x10
 6832 0d20 320D0000 		.4byte	0xd32
 6833 0d24 05       		.uleb128 0x5
 6834 0d25 220C0000 		.4byte	.LASF186
 6835 0d29 0D       		.byte	0xd
 6836 0d2a 84       		.byte	0x84
 6837 0d2b 21       		.byte	0x21
 6838 0d2c CC030000 		.4byte	0x3cc
 6839 0d30 00       		.byte	0
 6840 0d31 00       		.byte	0
 6841 0d32 08       		.uleb128 0x8
 6842 0d33 86070000 		.4byte	.LASF187
 6843 0d37 0D       		.byte	0xd
 6844 0d38 85       		.byte	0x85
 6845 0d39 03       		.byte	0x3
 6846 0d3a 170D0000 		.4byte	0xd17
 6847 0d3e 08       		.uleb128 0x8
 6848 0d3f 49000000 		.4byte	.LASF188
 6849 0d43 0D       		.byte	0xd
 6850 0d44 8A       		.byte	0x8a
 6851 0d45 14       		.byte	0x14
 6852 0d46 B5040000 		.4byte	0x4b5
 6853 0d4a 2A       		.uleb128 0x2a
 6854 0d4b 0C       		.byte	0xc
 6855 0d4c 0D       		.byte	0xd
 6856 0d4d A0       		.byte	0xa0
 6857 0d4e 03       		.byte	0x3
 6858 0d4f 780D0000 		.4byte	0xd78
 6859 0d53 1A       		.uleb128 0x1a
 6860 0d54 C7020000 		.4byte	.LASF189
 6861 0d58 0D       		.byte	0xd
 6862 0d59 A4       		.byte	0xa4
 6863 0d5a 21       		.byte	0x21
 6864 0d5b A0030000 		.4byte	0x3a0
 6865 0d5f 1A       		.uleb128 0x1a
ARM GAS  C:\Users\DEVELO~1\AppData\Local\Temp\cc2saCCQ.s 			page 122


 6866 0d60 220C0000 		.4byte	.LASF186
 6867 0d64 0D       		.byte	0xd
 6868 0d65 A8       		.byte	0xa8
 6869 0d66 21       		.byte	0x21
 6870 0d67 CC030000 		.4byte	0x3cc
 6871 0d6b 1A       		.uleb128 0x1a
 6872 0d6c 15040000 		.4byte	.LASF190
 6873 0d70 0D       		.byte	0xd
 6874 0d71 AC       		.byte	0xac
 6875 0d72 21       		.byte	0x21
 6876 0d73 05040000 		.4byte	0x405
 6877 0d77 00       		.byte	0
 6878 0d78 2A       		.uleb128 0x2a
 6879 0d79 04       		.byte	0x4
 6880 0d7a 0D       		.byte	0xd
 6881 0d7b EB       		.byte	0xeb
 6882 0d7c 03       		.byte	0x3
 6883 0d7d E20D0000 		.4byte	0xde2
 6884 0d81 1A       		.uleb128 0x1a
 6885 0d82 EF040000 		.4byte	.LASF191
 6886 0d86 0D       		.byte	0xd
 6887 0d87 F2       		.byte	0xf2
 6888 0d88 21       		.byte	0x21
 6889 0d89 5F010000 		.4byte	0x15f
 6890 0d8d 1A       		.uleb128 0x1a
 6891 0d8e 200F0000 		.4byte	.LASF192
 6892 0d92 0D       		.byte	0xd
 6893 0d93 F9       		.byte	0xf9
 6894 0d94 21       		.byte	0x21
 6895 0d95 5F010000 		.4byte	0x15f
 6896 0d99 2C       		.uleb128 0x2c
 6897 0d9a 9C010000 		.4byte	.LASF79
 6898 0d9e 0001     		.2byte	0x100
 6899 0da0 22       		.byte	0x22
 6900 0da1 BA040000 		.4byte	0x4ba
 6901 0da5 2C       		.uleb128 0x2c
 6902 0da6 FF0E0000 		.4byte	.LASF193
 6903 0daa 0701     		.2byte	0x107
 6904 0dac 22       		.byte	0x22
 6905 0dad E20D0000 		.4byte	0xde2
 6906 0db1 2C       		.uleb128 0x2c
 6907 0db2 12030000 		.4byte	.LASF194
 6908 0db6 0C01     		.2byte	0x10c
 6909 0db8 21       		.byte	0x21
 6910 0db9 5F010000 		.4byte	0x15f
 6911 0dbd 2C       		.uleb128 0x2c
 6912 0dbe 350C0000 		.4byte	.LASF195
 6913 0dc2 1501     		.2byte	0x115
 6914 0dc4 22       		.byte	0x22
 6915 0dc5 0F0E0000 		.4byte	0xe0f
 6916 0dc9 2C       		.uleb128 0x2c
 6917 0dca 39000000 		.4byte	.LASF196
 6918 0dce 1E01     		.2byte	0x11e
 6919 0dd0 22       		.byte	0x22
 6920 0dd1 490E0000 		.4byte	0xe49
 6921 0dd5 2C       		.uleb128 0x2c
 6922 0dd6 600D0000 		.4byte	.LASF197
ARM GAS  C:\Users\DEVELO~1\AppData\Local\Temp\cc2saCCQ.s 			page 123


 6923 0dda 2601     		.2byte	0x126
 6924 0ddc 21       		.byte	0x21
 6925 0ddd 6B010000 		.4byte	0x16b
 6926 0de1 00       		.byte	0
 6927 0de2 09       		.uleb128 0x9
 6928 0de3 3E0D0000 		.4byte	0xd3e
 6929 0de7 11       		.uleb128 0x11
 6930 0de8 4E0C0000 		.4byte	.LASF198
 6931 0dec 0C       		.byte	0xc
 6932 0ded 14       		.byte	0x14
 6933 0dee 34       		.byte	0x34
 6934 0def 10       		.byte	0x10
 6935 0df0 0F0E0000 		.4byte	0xe0f
 6936 0df4 05       		.uleb128 0x5
 6937 0df5 220C0000 		.4byte	.LASF186
 6938 0df9 14       		.byte	0x14
 6939 0dfa 35       		.byte	0x35
 6940 0dfb 19       		.byte	0x19
 6941 0dfc CC030000 		.4byte	0x3cc
 6942 0e00 00       		.byte	0
 6943 0e01 0E       		.uleb128 0xe
 6944 0e02 636E7400 		.ascii	"cnt\000"
 6945 0e06 14       		.byte	0x14
 6946 0e07 37       		.byte	0x37
 6947 0e08 19       		.byte	0x19
 6948 0e09 77010000 		.4byte	0x177
 6949 0e0d 08       		.byte	0x8
 6950 0e0e 00       		.byte	0
 6951 0e0f 09       		.uleb128 0x9
 6952 0e10 E70D0000 		.4byte	0xde7
 6953 0e14 11       		.uleb128 0x11
 6954 0e15 64050000 		.4byte	.LASF199
 6955 0e19 10       		.byte	0x10
 6956 0e1a 15       		.byte	0x15
 6957 0e1b 39       		.byte	0x39
 6958 0e1c 08       		.byte	0x8
 6959 0e1d 490E0000 		.4byte	0xe49
 6960 0e21 05       		.uleb128 0x5
 6961 0e22 220C0000 		.4byte	.LASF186
 6962 0e26 15       		.byte	0x15
 6963 0e27 3A       		.byte	0x3a
 6964 0e28 19       		.byte	0x19
 6965 0e29 CC030000 		.4byte	0x3cc
 6966 0e2d 00       		.byte	0
 6967 0e2e 05       		.uleb128 0x5
 6968 0e2f 61040000 		.4byte	.LASF34
 6969 0e33 15       		.byte	0x15
 6970 0e34 3C       		.byte	0x3c
 6971 0e35 1A       		.byte	0x1a
 6972 0e36 B5040000 		.4byte	0x4b5
 6973 0e3a 08       		.byte	0x8
 6974 0e3b 05       		.uleb128 0x5
 6975 0e3c 33010000 		.4byte	.LASF69
 6976 0e40 15       		.byte	0x15
 6977 0e41 3E       		.byte	0x3e
 6978 0e42 1A       		.byte	0x1a
 6979 0e43 080F0000 		.4byte	0xf08
ARM GAS  C:\Users\DEVELO~1\AppData\Local\Temp\cc2saCCQ.s 			page 124


 6980 0e47 0C       		.byte	0xc
 6981 0e48 00       		.byte	0
 6982 0e49 09       		.uleb128 0x9
 6983 0e4a 140E0000 		.4byte	0xe14
 6984 0e4e 09       		.uleb128 0x9
 6985 0e4f 7E020000 		.4byte	0x27e
 6986 0e53 09       		.uleb128 0x9
 6987 0e54 23010000 		.4byte	0x123
 6988 0e58 36       		.uleb128 0x36
 6989 0e59 12020000 		.4byte	.LASF200
 6990 0e5d 10       		.byte	0x10
 6991 0e5e 0D       		.byte	0xd
 6992 0e5f 5C01     		.2byte	0x15c
 6993 0e61 10       		.byte	0x10
 6994 0e62 830E0000 		.4byte	0xe83
 6995 0e66 03       		.uleb128 0x3
 6996 0e67 15040000 		.4byte	.LASF190
 6997 0e6b 0D       		.byte	0xd
 6998 0e6c 6101     		.2byte	0x161
 6999 0e6e 21       		.byte	0x21
 7000 0e6f 05040000 		.4byte	0x405
 7001 0e73 00       		.byte	0
 7002 0e74 03       		.uleb128 0x3
 7003 0e75 650E0000 		.4byte	.LASF201
 7004 0e79 0D       		.byte	0xd
 7005 0e7a 6501     		.2byte	0x165
 7006 0e7c 22       		.byte	0x22
 7007 0e7d B5040000 		.4byte	0x4b5
 7008 0e81 0C       		.byte	0xc
 7009 0e82 00       		.byte	0
 7010 0e83 17       		.uleb128 0x17
 7011 0e84 ED0B0000 		.4byte	.LASF202
 7012 0e88 0D       		.byte	0xd
 7013 0e89 6601     		.2byte	0x166
 7014 0e8b 03       		.byte	0x3
 7015 0e8c 580E0000 		.4byte	0xe58
 7016 0e90 36       		.uleb128 0x36
 7017 0e91 DD0A0000 		.4byte	.LASF203
 7018 0e95 14       		.byte	0x14
 7019 0e96 0D       		.byte	0xd
 7020 0e97 6B01     		.2byte	0x16b
 7021 0e99 10       		.byte	0x10
 7022 0e9a E50E0000 		.4byte	0xee5
 7023 0e9e 03       		.uleb128 0x3
 7024 0e9f 7C0B0000 		.4byte	.LASF35
 7025 0ea3 0D       		.byte	0xd
 7026 0ea4 6F01     		.2byte	0x16f
 7027 0ea6 22       		.byte	0x22
 7028 0ea7 66030000 		.4byte	0x366
 7029 0eab 00       		.byte	0
 7030 0eac 03       		.uleb128 0x3
 7031 0ead 7D060000 		.4byte	.LASF204
 7032 0eb1 0D       		.byte	0xd
 7033 0eb2 7501     		.2byte	0x175
 7034 0eb4 22       		.byte	0x22
 7035 0eb5 530E0000 		.4byte	0xe53
 7036 0eb9 04       		.byte	0x4
ARM GAS  C:\Users\DEVELO~1\AppData\Local\Temp\cc2saCCQ.s 			page 125


 7037 0eba 03       		.uleb128 0x3
 7038 0ebb 70040000 		.4byte	.LASF205
 7039 0ebf 0D       		.byte	0xd
 7040 0ec0 7901     		.2byte	0x179
 7041 0ec2 22       		.byte	0x22
 7042 0ec3 530E0000 		.4byte	0xe53
 7043 0ec7 08       		.byte	0x8
 7044 0ec8 03       		.uleb128 0x3
 7045 0ec9 B90D0000 		.4byte	.LASF206
 7046 0ecd 0D       		.byte	0xd
 7047 0ece 7F01     		.2byte	0x17f
 7048 0ed0 22       		.byte	0x22
 7049 0ed1 530E0000 		.4byte	0xe53
 7050 0ed5 0C       		.byte	0xc
 7051 0ed6 03       		.uleb128 0x3
 7052 0ed7 C7050000 		.4byte	.LASF207
 7053 0edb 0D       		.byte	0xd
 7054 0edc 8301     		.2byte	0x183
 7055 0ede 22       		.byte	0x22
 7056 0edf 530E0000 		.4byte	0xe53
 7057 0ee3 10       		.byte	0x10
 7058 0ee4 00       		.byte	0
 7059 0ee5 17       		.uleb128 0x17
 7060 0ee6 A5030000 		.4byte	.LASF208
 7061 0eea 0D       		.byte	0xd
 7062 0eeb 8501     		.2byte	0x185
 7063 0eed 03       		.byte	0x3
 7064 0eee 900E0000 		.4byte	0xe90
 7065 0ef2 12       		.uleb128 0x12
 7066 0ef3 E50E0000 		.4byte	0xee5
 7067 0ef7 09       		.uleb128 0x9
 7068 0ef8 F20E0000 		.4byte	0xef2
 7069 0efc 08       		.uleb128 0x8
 7070 0efd 810C0000 		.4byte	.LASF209
 7071 0f01 15       		.byte	0x15
 7072 0f02 34       		.byte	0x34
 7073 0f03 19       		.byte	0x19
 7074 0f04 140E0000 		.4byte	0xe14
 7075 0f08 09       		.uleb128 0x9
 7076 0f09 FC0E0000 		.4byte	0xefc
 7077 0f0d 10       		.uleb128 0x10
 7078 0f0e 01       		.byte	0x1
 7079 0f0f 02       		.byte	0x2
 7080 0f10 3D050000 		.4byte	.LASF210
 7081 0f14 09       		.uleb128 0x9
 7082 0f15 190F0000 		.4byte	0xf19
 7083 0f19 42       		.uleb128 0x42
 7084 0f1a 290F0000 		.4byte	0xf29
 7085 0f1e 0B       		.uleb128 0xb
 7086 0f1f BA040000 		.4byte	0x4ba
 7087 0f23 0B       		.uleb128 0xb
 7088 0f24 E9000000 		.4byte	0xe9
 7089 0f28 00       		.byte	0
 7090 0f29 17       		.uleb128 0x17
 7091 0f2a B8050000 		.4byte	.LASF211
 7092 0f2e 16       		.byte	0x16
 7093 0f2f A201     		.2byte	0x1a2
ARM GAS  C:\Users\DEVELO~1\AppData\Local\Temp\cc2saCCQ.s 			page 126


 7094 0f31 10       		.byte	0x10
 7095 0f32 140F0000 		.4byte	0xf14
 7096 0f36 2B       		.uleb128 0x2b
 7097 0f37 10       		.byte	0x10
 7098 0f38 16       		.byte	0x16
 7099 0f39 A701     		.2byte	0x1a7
 7100 0f3b 940F0000 		.4byte	0xf94
 7101 0f3f 03       		.uleb128 0x3
 7102 0f40 EE060000 		.4byte	.LASF212
 7103 0f44 16       		.byte	0x16
 7104 0f45 A801     		.2byte	0x1a8
 7105 0f47 1A       		.byte	0x1a
 7106 0f48 940F0000 		.4byte	0xf94
 7107 0f4c 00       		.byte	0
 7108 0f4d 03       		.uleb128 0x3
 7109 0f4e 26030000 		.4byte	.LASF213
 7110 0f52 16       		.byte	0x16
 7111 0f53 A901     		.2byte	0x1a9
 7112 0f55 1A       		.byte	0x1a
 7113 0f56 990F0000 		.4byte	0xf99
 7114 0f5a 04       		.byte	0x4
 7115 0f5b 0A       		.uleb128 0xa
 7116 0f5c 6D757800 		.ascii	"mux\000"
 7117 0f60 16       		.byte	0x16
 7118 0f61 AB01     		.2byte	0x1ab
 7119 0f63 1B       		.byte	0x1b
 7120 0f64 9E0F0000 		.4byte	0xf9e
 7121 0f68 08       		.byte	0x8
 7122 0f69 03       		.uleb128 0x3
 7123 0f6a 4E030000 		.4byte	.LASF214
 7124 0f6e 16       		.byte	0x16
 7125 0f6f AF01     		.2byte	0x1af
 7126 0f71 19       		.byte	0x19
 7127 0f72 BB000000 		.4byte	0xbb
 7128 0f76 0C       		.byte	0xc
 7129 0f77 03       		.uleb128 0x3
 7130 0f78 290F0000 		.4byte	.LASF215
 7131 0f7c 16       		.byte	0x16
 7132 0f7d B101     		.2byte	0x1b1
 7133 0f7f 19       		.byte	0x19
 7134 0f80 BB000000 		.4byte	0xbb
 7135 0f84 0D       		.byte	0xd
 7136 0f85 03       		.uleb128 0x3
 7137 0f86 0E040000 		.4byte	.LASF216
 7138 0f8a 16       		.byte	0x16
 7139 0f8b B201     		.2byte	0x1b2
 7140 0f8d 19       		.byte	0x19
 7141 0f8e BB000000 		.4byte	0xbb
 7142 0f92 0E       		.byte	0xe
 7143 0f93 00       		.byte	0
 7144 0f94 09       		.uleb128 0x9
 7145 0f95 95060000 		.4byte	0x695
 7146 0f99 09       		.uleb128 0x9
 7147 0f9a F5000000 		.4byte	0xf5
 7148 0f9e 09       		.uleb128 0x9
 7149 0f9f 4A070000 		.4byte	0x74a
 7150 0fa3 17       		.uleb128 0x17
ARM GAS  C:\Users\DEVELO~1\AppData\Local\Temp\cc2saCCQ.s 			page 127


 7151 0fa4 8D060000 		.4byte	.LASF217
 7152 0fa8 16       		.byte	0x16
 7153 0fa9 B301     		.2byte	0x1b3
 7154 0fab 03       		.byte	0x3
 7155 0fac 360F0000 		.4byte	0xf36
 7156 0fb0 12       		.uleb128 0x12
 7157 0fb1 A30F0000 		.4byte	0xfa3
 7158 0fb5 08       		.uleb128 0x8
 7159 0fb6 71020000 		.4byte	.LASF218
 7160 0fba 17       		.byte	0x17
 7161 0fbb E0       		.byte	0xe0
 7162 0fbc 10       		.byte	0x10
 7163 0fbd 140F0000 		.4byte	0xf14
 7164 0fc1 19       		.uleb128 0x19
 7165 0fc2 14       		.byte	0x14
 7166 0fc3 17       		.byte	0x17
 7167 0fc4 E5       		.byte	0xe5
 7168 0fc5 09       		.byte	0x9
 7169 0fc6 19100000 		.4byte	0x1019
 7170 0fca 05       		.uleb128 0x5
 7171 0fcb 26000000 		.4byte	.LASF219
 7172 0fcf 17       		.byte	0x17
 7173 0fd0 E6       		.byte	0xe6
 7174 0fd1 1E       		.byte	0x1e
 7175 0fd2 19100000 		.4byte	0x1019
 7176 0fd6 00       		.byte	0
 7177 0fd7 05       		.uleb128 0x5
 7178 0fd8 DC080000 		.4byte	.LASF220
 7179 0fdc 17       		.byte	0x17
 7180 0fdd E7       		.byte	0xe7
 7181 0fde 1E       		.byte	0x1e
 7182 0fdf 1E100000 		.4byte	0x101e
 7183 0fe3 04       		.byte	0x4
 7184 0fe4 05       		.uleb128 0x5
 7185 0fe5 4E030000 		.4byte	.LASF214
 7186 0fe9 17       		.byte	0x17
 7187 0fea E8       		.byte	0xe8
 7188 0feb 1D       		.byte	0x1d
 7189 0fec BB000000 		.4byte	0xbb
 7190 0ff0 08       		.byte	0x8
 7191 0ff1 0E       		.uleb128 0xe
 7192 0ff2 6D757800 		.ascii	"mux\000"
 7193 0ff6 17       		.byte	0x17
 7194 0ff7 EA       		.byte	0xea
 7195 0ff8 1E       		.byte	0x1e
 7196 0ff9 9E0F0000 		.4byte	0xf9e
 7197 0ffd 0C       		.byte	0xc
 7198 0ffe 05       		.uleb128 0x5
 7199 0fff 290F0000 		.4byte	.LASF215
 7200 1003 17       		.byte	0x17
 7201 1004 EB       		.byte	0xeb
 7202 1005 1D       		.byte	0x1d
 7203 1006 BB000000 		.4byte	0xbb
 7204 100a 10       		.byte	0x10
 7205 100b 05       		.uleb128 0x5
 7206 100c 0E040000 		.4byte	.LASF216
 7207 1010 17       		.byte	0x17
ARM GAS  C:\Users\DEVELO~1\AppData\Local\Temp\cc2saCCQ.s 			page 128


 7208 1011 EC       		.byte	0xec
 7209 1012 1D       		.byte	0x1d
 7210 1013 BB000000 		.4byte	0xbb
 7211 1017 11       		.byte	0x11
 7212 1018 00       		.byte	0
 7213 1019 09       		.uleb128 0x9
 7214 101a 25070000 		.4byte	0x725
 7215 101e 09       		.uleb128 0x9
 7216 101f F2060000 		.4byte	0x6f2
 7217 1023 08       		.uleb128 0x8
 7218 1024 E00E0000 		.4byte	.LASF221
 7219 1028 17       		.byte	0x17
 7220 1029 ED       		.byte	0xed
 7221 102a 03       		.byte	0x3
 7222 102b C10F0000 		.4byte	0xfc1
 7223 102f 12       		.uleb128 0x12
 7224 1030 23100000 		.4byte	0x1023
 7225 1034 19       		.uleb128 0x19
 7226 1035 04       		.byte	0x4
 7227 1036 18       		.byte	0x18
 7228 1037 5B       		.byte	0x5b
 7229 1038 05       		.byte	0x5
 7230 1039 58100000 		.4byte	0x1058
 7231 103d 0E       		.uleb128 0xe
 7232 103e 73657400 		.ascii	"set\000"
 7233 1042 18       		.byte	0x18
 7234 1043 5C       		.byte	0x5c
 7235 1044 19       		.byte	0x19
 7236 1045 CC000000 		.4byte	0xcc
 7237 1049 00       		.byte	0
 7238 104a 05       		.uleb128 0x5
 7239 104b 13000000 		.4byte	.LASF222
 7240 104f 18       		.byte	0x18
 7241 1050 5D       		.byte	0x5d
 7242 1051 19       		.byte	0x19
 7243 1052 CC000000 		.4byte	0xcc
 7244 1056 02       		.byte	0x2
 7245 1057 00       		.byte	0
 7246 1058 2A       		.uleb128 0x2a
 7247 1059 04       		.byte	0x4
 7248 105a 18       		.byte	0x18
 7249 105b 59       		.byte	0x59
 7250 105c 0C       		.byte	0xc
 7251 105d 76100000 		.4byte	0x1076
 7252 1061 22       		.uleb128 0x22
 7253 1062 5700     		.ascii	"W\000"
 7254 1064 18       		.byte	0x18
 7255 1065 5A       		.byte	0x5a
 7256 1066 19       		.byte	0x19
 7257 1067 E9000000 		.4byte	0xe9
 7258 106b 22       		.uleb128 0x22
 7259 106c 4800     		.ascii	"H\000"
 7260 106e 18       		.byte	0x18
 7261 106f 5E       		.byte	0x5e
 7262 1070 07       		.byte	0x7
 7263 1071 34100000 		.4byte	0x1034
 7264 1075 00       		.byte	0
ARM GAS  C:\Users\DEVELO~1\AppData\Local\Temp\cc2saCCQ.s 			page 129


 7265 1076 29       		.uleb128 0x29
 7266 1077 58100000 		.4byte	0x1058
 7267 107b 19       		.uleb128 0x19
 7268 107c 28       		.byte	0x28
 7269 107d 18       		.byte	0x18
 7270 107e 51       		.byte	0x51
 7271 107f 09       		.byte	0x9
 7272 1080 07110000 		.4byte	0x1107
 7273 1084 05       		.uleb128 0x5
 7274 1085 2D040000 		.4byte	.LASF223
 7275 1089 18       		.byte	0x18
 7276 108a 53       		.byte	0x53
 7277 108b 19       		.byte	0x19
 7278 108c F5000000 		.4byte	0xf5
 7279 1090 00       		.byte	0
 7280 1091 05       		.uleb128 0x5
 7281 1092 C80A0000 		.4byte	.LASF224
 7282 1096 18       		.byte	0x18
 7283 1097 54       		.byte	0x54
 7284 1098 19       		.byte	0x19
 7285 1099 F5000000 		.4byte	0xf5
 7286 109d 04       		.byte	0x4
 7287 109e 05       		.uleb128 0x5
 7288 109f 7D080000 		.4byte	.LASF225
 7289 10a3 18       		.byte	0x18
 7290 10a4 55       		.byte	0x55
 7291 10a5 19       		.byte	0x19
 7292 10a6 F5000000 		.4byte	0xf5
 7293 10aa 08       		.byte	0x8
 7294 10ab 05       		.uleb128 0x5
 7295 10ac AC050000 		.4byte	.LASF226
 7296 10b0 18       		.byte	0x18
 7297 10b1 56       		.byte	0x56
 7298 10b2 19       		.byte	0x19
 7299 10b3 F5000000 		.4byte	0xf5
 7300 10b7 0C       		.byte	0xc
 7301 10b8 0E       		.uleb128 0xe
 7302 10b9 49445200 		.ascii	"IDR\000"
 7303 10bd 18       		.byte	0x18
 7304 10be 57       		.byte	0x57
 7305 10bf 19       		.byte	0x19
 7306 10c0 F5000000 		.4byte	0xf5
 7307 10c4 10       		.byte	0x10
 7308 10c5 0E       		.uleb128 0xe
 7309 10c6 4F445200 		.ascii	"ODR\000"
 7310 10ca 18       		.byte	0x18
 7311 10cb 58       		.byte	0x58
 7312 10cc 19       		.byte	0x19
 7313 10cd F5000000 		.4byte	0xf5
 7314 10d1 14       		.byte	0x14
 7315 10d2 05       		.uleb128 0x5
 7316 10d3 5C000000 		.4byte	.LASF227
 7317 10d7 18       		.byte	0x18
 7318 10d8 5F       		.byte	0x5f
 7319 10d9 05       		.byte	0x5
 7320 10da 76100000 		.4byte	0x1076
 7321 10de 18       		.byte	0x18
ARM GAS  C:\Users\DEVELO~1\AppData\Local\Temp\cc2saCCQ.s 			page 130


 7322 10df 05       		.uleb128 0x5
 7323 10e0 A3080000 		.4byte	.LASF228
 7324 10e4 18       		.byte	0x18
 7325 10e5 60       		.byte	0x60
 7326 10e6 19       		.byte	0x19
 7327 10e7 F5000000 		.4byte	0xf5
 7328 10eb 1C       		.byte	0x1c
 7329 10ec 05       		.uleb128 0x5
 7330 10ed 9E050000 		.4byte	.LASF229
 7331 10f1 18       		.byte	0x18
 7332 10f2 61       		.byte	0x61
 7333 10f3 19       		.byte	0x19
 7334 10f4 F5000000 		.4byte	0xf5
 7335 10f8 20       		.byte	0x20
 7336 10f9 05       		.uleb128 0x5
 7337 10fa 4F040000 		.4byte	.LASF230
 7338 10fe 18       		.byte	0x18
 7339 10ff 62       		.byte	0x62
 7340 1100 19       		.byte	0x19
 7341 1101 F5000000 		.4byte	0xf5
 7342 1105 24       		.byte	0x24
 7343 1106 00       		.byte	0
 7344 1107 08       		.uleb128 0x8
 7345 1108 54040000 		.4byte	.LASF231
 7346 110c 18       		.byte	0x18
 7347 110d 63       		.byte	0x63
 7348 110e 03       		.byte	0x3
 7349 110f 7B100000 		.4byte	0x107b
 7350 1113 08       		.uleb128 0x8
 7351 1114 93050000 		.4byte	.LASF232
 7352 1118 19       		.byte	0x19
 7353 1119 D9       		.byte	0xd9
 7354 111a 18       		.byte	0x18
 7355 111b 1F110000 		.4byte	0x111f
 7356 111f 09       		.uleb128 0x9
 7357 1120 07110000 		.4byte	0x1107
 7358 1124 09       		.uleb128 0x9
 7359 1125 B00F0000 		.4byte	0xfb0
 7360 1129 09       		.uleb128 0x9
 7361 112a 2F100000 		.4byte	0x102f
 7362 112e 4E       		.uleb128 0x4e
 7363 112f 07       		.byte	0x7
 7364 1130 01       		.byte	0x1
 7365 1131 61000000 		.4byte	0x61
 7366 1135 1A       		.byte	0x1a
 7367 1136 76       		.byte	0x76
 7368 1137 0E       		.byte	0xe
 7369 1138 5B110000 		.4byte	0x115b
 7370 113c 2F       		.uleb128 0x2f
 7371 113d D1080000 		.4byte	.LASF233
 7372 1141 00       		.byte	0
 7373 1142 2F       		.uleb128 0x2f
 7374 1143 020C0000 		.4byte	.LASF234
 7375 1147 01       		.byte	0x1
 7376 1148 2F       		.uleb128 0x2f
 7377 1149 500B0000 		.4byte	.LASF235
 7378 114d 02       		.byte	0x2
ARM GAS  C:\Users\DEVELO~1\AppData\Local\Temp\cc2saCCQ.s 			page 131


 7379 114e 2F       		.uleb128 0x2f
 7380 114f 9D070000 		.4byte	.LASF236
 7381 1153 03       		.byte	0x3
 7382 1154 2F       		.uleb128 0x2f
 7383 1155 130F0000 		.4byte	.LASF237
 7384 1159 04       		.byte	0x4
 7385 115a 00       		.byte	0
 7386 115b 08       		.uleb128 0x8
 7387 115c 720A0000 		.4byte	.LASF238
 7388 1160 1A       		.byte	0x1a
 7389 1161 7C       		.byte	0x7c
 7390 1162 03       		.byte	0x3
 7391 1163 2E110000 		.4byte	0x112e
 7392 1167 08       		.uleb128 0x8
 7393 1168 940D0000 		.4byte	.LASF239
 7394 116c 1A       		.byte	0x1a
 7395 116d 81       		.byte	0x81
 7396 116e 1F       		.byte	0x1f
 7397 116f 73110000 		.4byte	0x1173
 7398 1173 11       		.uleb128 0x11
 7399 1174 3B040000 		.4byte	.LASF240
 7400 1178 3C       		.byte	0x3c
 7401 1179 1A       		.byte	0x1a
 7402 117a D8       		.byte	0xd8
 7403 117b 08       		.byte	0x8
 7404 117c 1B120000 		.4byte	0x121b
 7405 1180 05       		.uleb128 0x5
 7406 1181 5A0D0000 		.4byte	.LASF37
 7407 1185 1A       		.byte	0x1a
 7408 1186 DC       		.byte	0xdc
 7409 1187 1D       		.byte	0x1d
 7410 1188 5B110000 		.4byte	0x115b
 7411 118c 00       		.byte	0
 7412 118d 05       		.uleb128 0x5
 7413 118e 20090000 		.4byte	.LASF54
 7414 1192 1A       		.byte	0x1a
 7415 1193 E0       		.byte	0xe0
 7416 1194 1E       		.byte	0x1e
 7417 1195 3E130000 		.4byte	0x133e
 7418 1199 04       		.byte	0x4
 7419 119a 05       		.uleb128 0x5
 7420 119b 570E0000 		.4byte	.LASF241
 7421 119f 1A       		.byte	0x1a
 7422 11a0 E5       		.byte	0xe5
 7423 11a1 1D       		.byte	0x1d
 7424 11a2 3E0D0000 		.4byte	0xd3e
 7425 11a6 08       		.byte	0x8
 7426 11a7 05       		.uleb128 0x5
 7427 11a8 48030000 		.4byte	.LASF242
 7428 11ac 1A       		.byte	0x1a
 7429 11ad EB       		.byte	0xeb
 7430 11ae 1D       		.byte	0x1d
 7431 11af FC0E0000 		.4byte	0xefc
 7432 11b3 0C       		.byte	0xc
 7433 11b4 0E       		.uleb128 0xe
 7434 11b5 73706900 		.ascii	"spi\000"
 7435 11b9 1A       		.byte	0x1a
ARM GAS  C:\Users\DEVELO~1\AppData\Local\Temp\cc2saCCQ.s 			page 132


 7436 11ba F1       		.byte	0xf1
 7437 11bb 03       		.byte	0x3
 7438 11bc 43130000 		.4byte	0x1343
 7439 11c0 1C       		.byte	0x1c
 7440 11c1 05       		.uleb128 0x5
 7441 11c2 AB0E0000 		.4byte	.LASF243
 7442 11c6 1A       		.byte	0x1a
 7443 11c7 F1       		.byte	0xf1
 7444 11c8 03       		.byte	0x3
 7445 11c9 0D0F0000 		.4byte	0xf0d
 7446 11cd 20       		.byte	0x20
 7447 11ce 0E       		.uleb128 0xe
 7448 11cf 727800   		.ascii	"rx\000"
 7449 11d2 1A       		.byte	0x1a
 7450 11d3 F1       		.byte	0xf1
 7451 11d4 03       		.byte	0x3
 7452 11d5 FA120000 		.4byte	0x12fa
 7453 11d9 24       		.byte	0x24
 7454 11da 0E       		.uleb128 0xe
 7455 11db 747800   		.ascii	"tx\000"
 7456 11de 1A       		.byte	0x1a
 7457 11df F1       		.byte	0xf1
 7458 11e0 03       		.byte	0x3
 7459 11e1 1C130000 		.4byte	0x131c
 7460 11e5 28       		.byte	0x28
 7461 11e6 05       		.uleb128 0x5
 7462 11e7 E20C0000 		.4byte	.LASF244
 7463 11eb 1A       		.byte	0x1a
 7464 11ec F1       		.byte	0xf1
 7465 11ed 03       		.byte	0x3
 7466 11ee E9000000 		.4byte	0xe9
 7467 11f2 2C       		.byte	0x2c
 7468 11f3 05       		.uleb128 0x5
 7469 11f4 48060000 		.4byte	.LASF245
 7470 11f8 1A       		.byte	0x1a
 7471 11f9 F1       		.byte	0xf1
 7472 11fa 03       		.byte	0x3
 7473 11fb E9000000 		.4byte	0xe9
 7474 11ff 30       		.byte	0x30
 7475 1200 05       		.uleb128 0x5
 7476 1201 0C0F0000 		.4byte	.LASF246
 7477 1205 1A       		.byte	0x1a
 7478 1206 F1       		.byte	0xf1
 7479 1207 03       		.byte	0x3
 7480 1208 E9000000 		.4byte	0xe9
 7481 120c 34       		.byte	0x34
 7482 120d 05       		.uleb128 0x5
 7483 120e FF0A0000 		.4byte	.LASF247
 7484 1212 1A       		.byte	0x1a
 7485 1213 F1       		.byte	0xf1
 7486 1214 03       		.byte	0x3
 7487 1215 E9000000 		.4byte	0xe9
 7488 1219 38       		.byte	0x38
 7489 121a 00       		.byte	0
 7490 121b 08       		.uleb128 0x8
 7491 121c 6D050000 		.4byte	.LASF248
 7492 1220 1A       		.byte	0x1a
ARM GAS  C:\Users\DEVELO~1\AppData\Local\Temp\cc2saCCQ.s 			page 133


 7493 1221 86       		.byte	0x86
 7494 1222 1F       		.byte	0x1f
 7495 1223 2C120000 		.4byte	0x122c
 7496 1227 12       		.uleb128 0x12
 7497 1228 1B120000 		.4byte	0x121b
 7498 122c 11       		.uleb128 0x11
 7499 122d FF070000 		.4byte	.LASF249
 7500 1231 1C       		.byte	0x1c
 7501 1232 1A       		.byte	0x1a
 7502 1233 9F       		.byte	0x9f
 7503 1234 08       		.byte	0x8
 7504 1235 A2120000 		.4byte	0x12a2
 7505 1239 05       		.uleb128 0x5
 7506 123a 40000000 		.4byte	.LASF250
 7507 123e 1A       		.byte	0x1a
 7508 123f A4       		.byte	0xa4
 7509 1240 1D       		.byte	0x1d
 7510 1241 0D0F0000 		.4byte	0xf0d
 7511 1245 00       		.byte	0
 7512 1246 05       		.uleb128 0x5
 7513 1247 B2050000 		.4byte	.LASF251
 7514 124b 1A       		.byte	0x1a
 7515 124c AA       		.byte	0xaa
 7516 124d 1D       		.byte	0x1d
 7517 124e 0D0F0000 		.4byte	0xf0d
 7518 1252 01       		.byte	0x1
 7519 1253 05       		.uleb128 0x5
 7520 1254 480B0000 		.4byte	.LASF252
 7521 1258 1A       		.byte	0x1a
 7522 1259 AF       		.byte	0xaf
 7523 125a 1D       		.byte	0x1d
 7524 125b A2120000 		.4byte	0x12a2
 7525 125f 04       		.byte	0x4
 7526 1260 05       		.uleb128 0x5
 7527 1261 93010000 		.4byte	.LASF253
 7528 1265 1A       		.byte	0x1a
 7529 1266 B3       		.byte	0xb3
 7530 1267 1D       		.byte	0x1d
 7531 1268 A2120000 		.4byte	0x12a2
 7532 126c 08       		.byte	0x8
 7533 126d 05       		.uleb128 0x5
 7534 126e CC020000 		.4byte	.LASF254
 7535 1272 1A       		.byte	0x1a
 7536 1273 CA       		.byte	0xca
 7537 1274 1D       		.byte	0x1d
 7538 1275 13110000 		.4byte	0x1113
 7539 1279 0C       		.byte	0xc
 7540 127a 05       		.uleb128 0x5
 7541 127b 6D0F0000 		.4byte	.LASF255
 7542 127f 1A       		.byte	0x1a
 7543 1280 CF       		.byte	0xcf
 7544 1281 1D       		.byte	0x1d
 7545 1282 0B010000 		.4byte	0x10b
 7546 1286 10       		.byte	0x10
 7547 1287 05       		.uleb128 0x5
 7548 1288 A10E0000 		.4byte	.LASF256
 7549 128c 1A       		.byte	0x1a
ARM GAS  C:\Users\DEVELO~1\AppData\Local\Temp\cc2saCCQ.s 			page 134


 7550 128d D2       		.byte	0xd2
 7551 128e 03       		.byte	0x3
 7552 128f E9000000 		.4byte	0xe9
 7553 1293 14       		.byte	0x14
 7554 1294 05       		.uleb128 0x5
 7555 1295 A60E0000 		.4byte	.LASF257
 7556 1299 1A       		.byte	0x1a
 7557 129a D2       		.byte	0xd2
 7558 129b 03       		.byte	0x3
 7559 129c E9000000 		.4byte	0xe9
 7560 12a0 18       		.byte	0x18
 7561 12a1 00       		.byte	0
 7562 12a2 08       		.uleb128 0x8
 7563 12a3 BF020000 		.4byte	.LASF258
 7564 12a7 1A       		.byte	0x1a
 7565 12a8 8E       		.byte	0x8e
 7566 12a9 10       		.byte	0x10
 7567 12aa AE120000 		.4byte	0x12ae
 7568 12ae 09       		.uleb128 0x9
 7569 12af B3120000 		.4byte	0x12b3
 7570 12b3 42       		.uleb128 0x42
 7571 12b4 BE120000 		.4byte	0x12be
 7572 12b8 0B       		.uleb128 0xb
 7573 12b9 BE120000 		.4byte	0x12be
 7574 12bd 00       		.byte	0
 7575 12be 09       		.uleb128 0x9
 7576 12bf 67110000 		.4byte	0x1167
 7577 12c3 30       		.uleb128 0x30
 7578 12c4 E4080000 		.4byte	.LASF259
 7579 12c8 2D02     		.2byte	0x22d
 7580 12ca 67110000 		.4byte	0x1167
 7581 12ce 30       		.uleb128 0x30
 7582 12cf EA080000 		.4byte	.LASF260
 7583 12d3 3102     		.2byte	0x231
 7584 12d5 67110000 		.4byte	0x1167
 7585 12d9 30       		.uleb128 0x30
 7586 12da F0080000 		.4byte	.LASF261
 7587 12de 3502     		.2byte	0x235
 7588 12e0 67110000 		.4byte	0x1167
 7589 12e4 30       		.uleb128 0x30
 7590 12e5 07090000 		.4byte	.LASF262
 7591 12e9 3D02     		.2byte	0x23d
 7592 12eb 67110000 		.4byte	0x1167
 7593 12ef 30       		.uleb128 0x30
 7594 12f0 0D090000 		.4byte	.LASF263
 7595 12f4 4102     		.2byte	0x241
 7596 12f6 67110000 		.4byte	0x1167
 7597 12fa 2A       		.uleb128 0x2a
 7598 12fb 04       		.byte	0x4
 7599 12fc 1A       		.byte	0x1a
 7600 12fd F1       		.byte	0xf1
 7601 12fe 03       		.byte	0x3
 7602 12ff 1C130000 		.4byte	0x131c
 7603 1303 22       		.uleb128 0x22
 7604 1304 646D6100 		.ascii	"dma\000"
 7605 1308 1A       		.byte	0x1a
 7606 1309 F1       		.byte	0xf1
ARM GAS  C:\Users\DEVELO~1\AppData\Local\Temp\cc2saCCQ.s 			page 135


 7607 130a 03       		.byte	0x3
 7608 130b 24110000 		.4byte	0x1124
 7609 130f 1A       		.uleb128 0x1a
 7610 1310 26000000 		.4byte	.LASF219
 7611 1314 1A       		.byte	0x1a
 7612 1315 F1       		.byte	0xf1
 7613 1316 03       		.byte	0x3
 7614 1317 29110000 		.4byte	0x1129
 7615 131b 00       		.byte	0
 7616 131c 2A       		.uleb128 0x2a
 7617 131d 04       		.byte	0x4
 7618 131e 1A       		.byte	0x1a
 7619 131f F1       		.byte	0xf1
 7620 1320 03       		.byte	0x3
 7621 1321 3E130000 		.4byte	0x133e
 7622 1325 22       		.uleb128 0x22
 7623 1326 646D6100 		.ascii	"dma\000"
 7624 132a 1A       		.byte	0x1a
 7625 132b F1       		.byte	0xf1
 7626 132c 03       		.byte	0x3
 7627 132d 24110000 		.4byte	0x1124
 7628 1331 1A       		.uleb128 0x1a
 7629 1332 26000000 		.4byte	.LASF219
 7630 1336 1A       		.byte	0x1a
 7631 1337 F1       		.byte	0xf1
 7632 1338 03       		.byte	0x3
 7633 1339 29110000 		.4byte	0x1129
 7634 133d 00       		.byte	0
 7635 133e 09       		.uleb128 0x9
 7636 133f 27120000 		.4byte	0x1227
 7637 1343 09       		.uleb128 0x9
 7638 1344 140C0000 		.4byte	0xc14
 7639 1348 31       		.uleb128 0x31
 7640 1349 C3120000 		.4byte	0x12c3
 7641 134d 27       		.byte	0x27
 7642 134e 05       		.uleb128 0x5
 7643 134f 03       		.byte	0x3
 7644 1350 00000000 		.4byte	SPID1
 7645 1354 31       		.uleb128 0x31
 7646 1355 CE120000 		.4byte	0x12ce
 7647 1359 2C       		.byte	0x2c
 7648 135a 05       		.uleb128 0x5
 7649 135b 03       		.byte	0x3
 7650 135c 00000000 		.4byte	SPID2
 7651 1360 31       		.uleb128 0x31
 7652 1361 D9120000 		.4byte	0x12d9
 7653 1365 31       		.byte	0x31
 7654 1366 05       		.uleb128 0x5
 7655 1367 03       		.byte	0x3
 7656 1368 00000000 		.4byte	SPID3
 7657 136c 31       		.uleb128 0x31
 7658 136d E4120000 		.4byte	0x12e4
 7659 1371 3B       		.byte	0x3b
 7660 1372 05       		.uleb128 0x5
 7661 1373 03       		.byte	0x3
 7662 1374 00000000 		.4byte	SPID5
 7663 1378 31       		.uleb128 0x31
ARM GAS  C:\Users\DEVELO~1\AppData\Local\Temp\cc2saCCQ.s 			page 136


 7664 1379 EF120000 		.4byte	0x12ef
 7665 137d 40       		.byte	0x40
 7666 137e 05       		.uleb128 0x5
 7667 137f 03       		.byte	0x3
 7668 1380 00000000 		.4byte	SPID6
 7669 1384 2D       		.uleb128 0x2d
 7670 1385 4B010000 		.4byte	.LASF264
 7671 1389 17       		.byte	0x17
 7672 138a D501     		.2byte	0x1d5
 7673 138c 96130000 		.4byte	0x1396
 7674 1390 0B       		.uleb128 0xb
 7675 1391 29110000 		.4byte	0x1129
 7676 1395 00       		.byte	0
 7677 1396 43       		.uleb128 0x43
 7678 1397 D6010000 		.4byte	.LASF267
 7679 139b 17       		.byte	0x17
 7680 139c CD01     		.2byte	0x1cd
 7681 139e 1E       		.byte	0x1e
 7682 139f 29110000 		.4byte	0x1129
 7683 13a3 BC130000 		.4byte	0x13bc
 7684 13a7 0B       		.uleb128 0xb
 7685 13a8 E9000000 		.4byte	0xe9
 7686 13ac 0B       		.uleb128 0xb
 7687 13ad E9000000 		.4byte	0xe9
 7688 13b1 0B       		.uleb128 0xb
 7689 13b2 B50F0000 		.4byte	0xfb5
 7690 13b6 0B       		.uleb128 0xb
 7691 13b7 BA040000 		.4byte	0x4ba
 7692 13bb 00       		.byte	0
 7693 13bc 37       		.uleb128 0x37
 7694 13bd 730D0000 		.4byte	.LASF265
 7695 13c1 0C       		.byte	0xc
 7696 13c2 D9       		.byte	0xd9
 7697 13c3 CD130000 		.4byte	0x13cd
 7698 13c7 0B       		.uleb128 0xb
 7699 13c8 66030000 		.4byte	0x366
 7700 13cc 00       		.byte	0
 7701 13cd 2D       		.uleb128 0x2d
 7702 13ce 5A020000 		.4byte	.LASF266
 7703 13d2 16       		.byte	0x16
 7704 13d3 A402     		.2byte	0x2a4
 7705 13d5 DF130000 		.4byte	0x13df
 7706 13d9 0B       		.uleb128 0xb
 7707 13da 24110000 		.4byte	0x1124
 7708 13de 00       		.byte	0
 7709 13df 43       		.uleb128 0x43
 7710 13e0 5A0B0000 		.4byte	.LASF268
 7711 13e4 16       		.byte	0x16
 7712 13e5 9C02     		.2byte	0x29c
 7713 13e7 1D       		.byte	0x1d
 7714 13e8 24110000 		.4byte	0x1124
 7715 13ec 05140000 		.4byte	0x1405
 7716 13f0 0B       		.uleb128 0xb
 7717 13f1 E9000000 		.4byte	0xe9
 7718 13f5 0B       		.uleb128 0xb
 7719 13f6 E9000000 		.4byte	0xe9
 7720 13fa 0B       		.uleb128 0xb
ARM GAS  C:\Users\DEVELO~1\AppData\Local\Temp\cc2saCCQ.s 			page 137


 7721 13fb 290F0000 		.4byte	0xf29
 7722 13ff 0B       		.uleb128 0xb
 7723 1400 BA040000 		.4byte	0x4ba
 7724 1404 00       		.byte	0
 7725 1405 2D       		.uleb128 0x2d
 7726 1406 C1060000 		.4byte	.LASF269
 7727 140a 17       		.byte	0x17
 7728 140b D701     		.2byte	0x1d7
 7729 140d 1C140000 		.4byte	0x141c
 7730 1411 0B       		.uleb128 0xb
 7731 1412 29110000 		.4byte	0x1129
 7732 1416 0B       		.uleb128 0xb
 7733 1417 E9000000 		.4byte	0xe9
 7734 141b 00       		.byte	0
 7735 141c 2D       		.uleb128 0x2d
 7736 141d 640C0000 		.4byte	.LASF270
 7737 1421 16       		.byte	0x16
 7738 1422 A702     		.2byte	0x2a7
 7739 1424 33140000 		.4byte	0x1433
 7740 1428 0B       		.uleb128 0xb
 7741 1429 24110000 		.4byte	0x1124
 7742 142d 0B       		.uleb128 0xb
 7743 142e E9000000 		.4byte	0xe9
 7744 1432 00       		.byte	0
 7745 1433 37       		.uleb128 0x37
 7746 1434 F6080000 		.4byte	.LASF271
 7747 1438 1C       		.byte	0x1c
 7748 1439 4F       		.byte	0x4f
 7749 143a 49140000 		.4byte	0x1449
 7750 143e 0B       		.uleb128 0xb
 7751 143f E9000000 		.4byte	0xe9
 7752 1443 0B       		.uleb128 0xb
 7753 1444 E9000000 		.4byte	0xe9
 7754 1448 00       		.byte	0
 7755 1449 2D       		.uleb128 0x2d
 7756 144a E0020000 		.4byte	.LASF272
 7757 144e 1A       		.byte	0x1a
 7758 144f E201     		.2byte	0x1e2
 7759 1451 5B140000 		.4byte	0x145b
 7760 1455 0B       		.uleb128 0xb
 7761 1456 BE120000 		.4byte	0x12be
 7762 145a 00       		.byte	0
 7763 145b 2D       		.uleb128 0x2d
 7764 145c D3020000 		.4byte	.LASF273
 7765 1460 1D       		.byte	0x1d
 7766 1461 3C01     		.2byte	0x13c
 7767 1463 72140000 		.4byte	0x1472
 7768 1467 0B       		.uleb128 0xb
 7769 1468 E20D0000 		.4byte	0xde2
 7770 146c 0B       		.uleb128 0xb
 7771 146d 5F010000 		.4byte	0x15f
 7772 1471 00       		.byte	0
 7773 1472 4F       		.uleb128 0x4f
 7774 1473 26070000 		.4byte	.LASF343
 7775 1477 05       		.byte	0x5
 7776 1478 E302     		.2byte	0x2e3
 7777 147a 08       		.byte	0x8
ARM GAS  C:\Users\DEVELO~1\AppData\Local\Temp\cc2saCCQ.s 			page 138


 7778 147b 37       		.uleb128 0x37
 7779 147c C90B0000 		.4byte	.LASF274
 7780 1480 12       		.byte	0x12
 7781 1481 FF       		.byte	0xff
 7782 1482 8C140000 		.4byte	0x148c
 7783 1486 0B       		.uleb128 0xb
 7784 1487 66030000 		.4byte	0x366
 7785 148b 00       		.byte	0
 7786 148c 37       		.uleb128 0x37
 7787 148d C50E0000 		.4byte	.LASF275
 7788 1491 12       		.byte	0x12
 7789 1492 FE       		.byte	0xfe
 7790 1493 9D140000 		.4byte	0x149d
 7791 1497 0B       		.uleb128 0xb
 7792 1498 66030000 		.4byte	0x366
 7793 149c 00       		.byte	0
 7794 149d 23       		.uleb128 0x23
 7795 149e 3B0A0000 		.4byte	.LASF284
 7796 14a2 3F05     		.2byte	0x53f
 7797 14a4 0A       		.byte	0xa
 7798 14a5 E9000000 		.4byte	0xe9
 7799 14a9 00000000 		.4byte	.LFB456
 7800 14ad 80000000 		.4byte	.LFE456-.LFB456
 7801 14b1 01       		.uleb128 0x1
 7802 14b2 9C       		.byte	0x9c
 7803 14b3 D6150000 		.4byte	0x15d6
 7804 14b7 0F       		.uleb128 0xf
 7805 14b8 520F0000 		.4byte	.LASF276
 7806 14bc 3F05     		.2byte	0x53f
 7807 14be 2D       		.byte	0x2d
 7808 14bf BE120000 		.4byte	0x12be
 7809 14c3 18000000 		.4byte	.LLST165
 7810 14c7 0C000000 		.4byte	.LVUS165
 7811 14cb 0F       		.uleb128 0xf
 7812 14cc B30D0000 		.4byte	.LASF277
 7813 14d0 3F05     		.2byte	0x53f
 7814 14d2 3C       		.byte	0x3c
 7815 14d3 E9000000 		.4byte	0xe9
 7816 14d7 50000000 		.4byte	.LLST166
 7817 14db 46000000 		.4byte	.LVUS166
 7818 14df 24       		.uleb128 0x24
 7819 14e0 0C030000 		.4byte	.LASF278
 7820 14e4 4005     		.2byte	0x540
 7821 14e6 0C       		.byte	0xc
 7822 14e7 E9000000 		.4byte	0xe9
 7823 14eb 78000000 		.4byte	.LLST167
 7824 14ef 76000000 		.4byte	.LVUS167
 7825 14f3 24       		.uleb128 0x24
 7826 14f4 75080000 		.4byte	.LASF279
 7827 14f8 4105     		.2byte	0x541
 7828 14fa 0C       		.byte	0xc
 7829 14fb E9000000 		.4byte	0xe9
 7830 14ff 87000000 		.4byte	.LLST168
 7831 1503 81000000 		.4byte	.LVUS168
 7832 1507 44       		.uleb128 0x44
 7833 1508 40010000 		.4byte	.LLRL171
 7834 150c 39150000 		.4byte	0x1539
ARM GAS  C:\Users\DEVELO~1\AppData\Local\Temp\cc2saCCQ.s 			page 139


 7835 1510 24       		.uleb128 0x24
 7836 1511 00040000 		.4byte	.LASF280
 7837 1515 4D05     		.2byte	0x54d
 7838 1517 17       		.byte	0x17
 7839 1518 D6150000 		.4byte	0x15d6
 7840 151c 9E000000 		.4byte	.LLST172
 7841 1520 9C000000 		.4byte	.LVUS172
 7842 1524 24       		.uleb128 0x24
 7843 1525 050F0000 		.4byte	.LASF281
 7844 1529 4E05     		.2byte	0x54e
 7845 152b 17       		.byte	0x17
 7846 152c D6150000 		.4byte	0x15d6
 7847 1530 AB000000 		.4byte	.LLST173
 7848 1534 A9000000 		.4byte	.LVUS173
 7849 1538 00       		.byte	0
 7850 1539 44       		.uleb128 0x44
 7851 153a 61010000 		.4byte	.LLRL176
 7852 153e 6B150000 		.4byte	0x156b
 7853 1542 24       		.uleb128 0x24
 7854 1543 A80A0000 		.4byte	.LASF282
 7855 1547 5605     		.2byte	0x556
 7856 1549 18       		.byte	0x18
 7857 154a DB150000 		.4byte	0x15db
 7858 154e B8000000 		.4byte	.LLST177
 7859 1552 B6000000 		.4byte	.LVUS177
 7860 1556 24       		.uleb128 0x24
 7861 1557 33040000 		.4byte	.LASF283
 7862 155b 5705     		.2byte	0x557
 7863 155d 18       		.byte	0x18
 7864 155e DB150000 		.4byte	0x15db
 7865 1562 C5000000 		.4byte	.LLST178
 7866 1566 C3000000 		.4byte	.LVUS178
 7867 156a 00       		.byte	0
 7868 156b 1C       		.uleb128 0x1c
 7869 156c AF380000 		.4byte	0x38af
 7870 1570 12000000 		.4byte	.LBI766
 7871 1574 0200     		.2byte	.LVU1677
 7872 1576 31010000 		.4byte	.LLRL169
 7873 157a 4305     		.2byte	0x543
 7874 157c 03       		.byte	0x3
 7875 157d B0150000 		.4byte	0x15b0
 7876 1581 02       		.uleb128 0x2
 7877 1582 BC380000 		.4byte	0x38bc
 7878 1586 D2000000 		.4byte	.LLST170
 7879 158a D0000000 		.4byte	.LVUS170
 7880 158e 1F       		.uleb128 0x1f
 7881 158f AF380000 		.4byte	0x38af
 7882 1593 14000000 		.4byte	.LBI768
 7883 1597 0000     		.2byte	.LVU1680
 7884 1599 14000000 		.4byte	.LBB768
 7885 159d 08000000 		.4byte	.LBE768-.LBB768
 7886 15a1 01       		.byte	0x1
 7887 15a2 5E       		.byte	0x5e
 7888 15a3 0D       		.byte	0xd
 7889 15a4 13       		.uleb128 0x13
 7890 15a5 BC380000 		.4byte	0x38bc
 7891 15a9 13       		.uleb128 0x13
ARM GAS  C:\Users\DEVELO~1\AppData\Local\Temp\cc2saCCQ.s 			page 140


 7892 15aa BC380000 		.4byte	0x38bc
 7893 15ae 00       		.byte	0
 7894 15af 00       		.byte	0
 7895 15b0 25       		.uleb128 0x25
 7896 15b1 95380000 		.4byte	0x3895
 7897 15b5 40000000 		.4byte	.LBI775
 7898 15b9 0200     		.2byte	.LVU1707
 7899 15bb 4F010000 		.4byte	.LLRL174
 7900 15bf 01       		.byte	0x1
 7901 15c0 6505     		.2byte	0x565
 7902 15c2 13       		.uleb128 0x13
 7903 15c3 A2380000 		.4byte	0x38a2
 7904 15c7 02       		.uleb128 0x2
 7905 15c8 A2380000 		.4byte	0x38a2
 7906 15cc DD000000 		.4byte	.LLST175
 7907 15d0 DB000000 		.4byte	.LVUS175
 7908 15d4 00       		.byte	0
 7909 15d5 00       		.byte	0
 7910 15d6 09       		.uleb128 0x9
 7911 15d7 C7000000 		.4byte	0xc7
 7912 15db 09       		.uleb128 0x9
 7913 15dc D8000000 		.4byte	0xd8
 7914 15e0 23       		.uleb128 0x23
 7915 15e1 EA030000 		.4byte	.LASF285
 7916 15e5 1505     		.2byte	0x515
 7917 15e7 07       		.byte	0x7
 7918 15e8 5F010000 		.4byte	0x15f
 7919 15ec 00000000 		.4byte	.LFB455
 7920 15f0 26000000 		.4byte	.LFE455-.LFB455
 7921 15f4 01       		.uleb128 0x1
 7922 15f5 9C       		.byte	0x9c
 7923 15f6 46160000 		.4byte	0x1646
 7924 15fa 0F       		.uleb128 0xf
 7925 15fb 520F0000 		.4byte	.LASF276
 7926 15ff 1505     		.2byte	0x515
 7927 1601 28       		.byte	0x28
 7928 1602 BE120000 		.4byte	0x12be
 7929 1606 ED000000 		.4byte	.LLST162
 7930 160a E9000000 		.4byte	.LVUS162
 7931 160e 0F       		.uleb128 0xf
 7932 160f E8060000 		.4byte	.LASF286
 7933 1613 1505     		.2byte	0x515
 7934 1615 36       		.byte	0x36
 7935 1616 46160000 		.4byte	0x1646
 7936 161a 01010000 		.4byte	.LLST163
 7937 161e FD000000 		.4byte	.LVUS163
 7938 1622 45       		.uleb128 0x45
 7939 1623 6D736700 		.ascii	"msg\000"
 7940 1627 1605     		.2byte	0x516
 7941 1629 5F010000 		.4byte	0x15f
 7942 162d 13010000 		.4byte	.LLST164
 7943 1631 11010000 		.4byte	.LVUS164
 7944 1635 0D       		.uleb128 0xd
 7945 1636 0A000000 		.4byte	.LVL283
 7946 163a 25360000 		.4byte	0x3625
 7947 163e 01       		.uleb128 0x1
 7948 163f 01       		.uleb128 0x1
ARM GAS  C:\Users\DEVELO~1\AppData\Local\Temp\cc2saCCQ.s 			page 141


 7949 1640 50       		.byte	0x50
 7950 1641 02       		.uleb128 0x2
 7951 1642 75       		.byte	0x75
 7952 1643 00       		.sleb128 0
 7953 1644 00       		.byte	0
 7954 1645 00       		.byte	0
 7955 1646 09       		.uleb128 0x9
 7956 1647 2D000000 		.4byte	0x2d
 7957 164b 23       		.uleb128 0x23
 7958 164c EA070000 		.4byte	.LASF287
 7959 1650 DF04     		.2byte	0x4df
 7960 1652 07       		.byte	0x7
 7961 1653 5F010000 		.4byte	0x15f
 7962 1657 00000000 		.4byte	.LFB454
 7963 165b 66000000 		.4byte	.LFE454-.LFB454
 7964 165f 01       		.uleb128 0x1
 7965 1660 9C       		.byte	0x9c
 7966 1661 E4160000 		.4byte	0x16e4
 7967 1665 0F       		.uleb128 0xf
 7968 1666 520F0000 		.4byte	.LASF276
 7969 166a DF04     		.2byte	0x4df
 7970 166c 22       		.byte	0x22
 7971 166d BE120000 		.4byte	0x12be
 7972 1671 22010000 		.4byte	.LLST158
 7973 1675 1C010000 		.4byte	.LVUS158
 7974 1679 3C       		.uleb128 0x3c
 7975 167a 6E00     		.ascii	"n\000"
 7976 167c DF04     		.2byte	0x4df
 7977 167e 2F       		.byte	0x2f
 7978 167f 2D000000 		.4byte	0x2d
 7979 1683 01       		.uleb128 0x1
 7980 1684 51       		.byte	0x51
 7981 1685 0F       		.uleb128 0xf
 7982 1686 610F0000 		.4byte	.LASF288
 7983 168a DF04     		.2byte	0x4df
 7984 168c 38       		.byte	0x38
 7985 168d BA040000 		.4byte	0x4ba
 7986 1691 46010000 		.4byte	.LLST159
 7987 1695 3A010000 		.4byte	.LVUS159
 7988 1699 26       		.uleb128 0x26
 7989 169a 6D0E0000 		.4byte	.LASF291
 7990 169e F4160000 		.4byte	0x16f4
 7991 16a2 25       		.uleb128 0x25
 7992 16a3 AF380000 		.4byte	0x38af
 7993 16a7 30000000 		.4byte	.LBI752
 7994 16ab 0400     		.2byte	.LVU1621
 7995 16ad 25010000 		.4byte	.LLRL160
 7996 16b1 01       		.byte	0x1
 7997 16b2 0605     		.2byte	0x506
 7998 16b4 02       		.uleb128 0x2
 7999 16b5 BC380000 		.4byte	0x38bc
 8000 16b9 74010000 		.4byte	.LLST161
 8001 16bd 72010000 		.4byte	.LVUS161
 8002 16c1 1F       		.uleb128 0x1f
 8003 16c2 AF380000 		.4byte	0x38af
 8004 16c6 40000000 		.4byte	.LBI754
 8005 16ca 0000     		.2byte	.LVU1626
ARM GAS  C:\Users\DEVELO~1\AppData\Local\Temp\cc2saCCQ.s 			page 142


 8006 16cc 40000000 		.4byte	.LBB754
 8007 16d0 08000000 		.4byte	.LBE754-.LBB754
 8008 16d4 01       		.byte	0x1
 8009 16d5 5E       		.byte	0x5e
 8010 16d6 0D       		.byte	0xd
 8011 16d7 13       		.uleb128 0x13
 8012 16d8 BC380000 		.4byte	0x38bc
 8013 16dc 13       		.uleb128 0x13
 8014 16dd BC380000 		.4byte	0x38bc
 8015 16e1 00       		.byte	0
 8016 16e2 00       		.byte	0
 8017 16e3 00       		.byte	0
 8018 16e4 14       		.uleb128 0x14
 8019 16e5 77030000 		.4byte	0x377
 8020 16e9 F4160000 		.4byte	0x16f4
 8021 16ed 15       		.uleb128 0x15
 8022 16ee 39000000 		.4byte	0x39
 8023 16f2 0F       		.byte	0xf
 8024 16f3 00       		.byte	0
 8025 16f4 12       		.uleb128 0x12
 8026 16f5 E4160000 		.4byte	0x16e4
 8027 16f9 23       		.uleb128 0x23
 8028 16fa E40D0000 		.4byte	.LASF289
 8029 16fe A504     		.2byte	0x4a5
 8030 1700 07       		.byte	0x7
 8031 1701 5F010000 		.4byte	0x15f
 8032 1705 00000000 		.4byte	.LFB453
 8033 1709 6C000000 		.4byte	.LFE453-.LFB453
 8034 170d 01       		.uleb128 0x1
 8035 170e 9C       		.byte	0x9c
 8036 170f 92170000 		.4byte	0x1792
 8037 1713 0F       		.uleb128 0xf
 8038 1714 520F0000 		.4byte	.LASF276
 8039 1718 A504     		.2byte	0x4a5
 8040 171a 1F       		.byte	0x1f
 8041 171b BE120000 		.4byte	0x12be
 8042 171f 83010000 		.4byte	.LLST154
 8043 1723 7D010000 		.4byte	.LVUS154
 8044 1727 3C       		.uleb128 0x3c
 8045 1728 6E00     		.ascii	"n\000"
 8046 172a A504     		.2byte	0x4a5
 8047 172c 2C       		.byte	0x2c
 8048 172d 2D000000 		.4byte	0x2d
 8049 1731 01       		.uleb128 0x1
 8050 1732 51       		.byte	0x51
 8051 1733 0F       		.uleb128 0xf
 8052 1734 34020000 		.4byte	.LASF290
 8053 1738 A504     		.2byte	0x4a5
 8054 173a 3B       		.byte	0x3b
 8055 173b 92170000 		.4byte	0x1792
 8056 173f A7010000 		.4byte	.LLST155
 8057 1743 9B010000 		.4byte	.LVUS155
 8058 1747 26       		.uleb128 0x26
 8059 1748 6D0E0000 		.4byte	.LASF291
 8060 174c A8170000 		.4byte	0x17a8
 8061 1750 25       		.uleb128 0x25
 8062 1751 AF380000 		.4byte	0x38af
ARM GAS  C:\Users\DEVELO~1\AppData\Local\Temp\cc2saCCQ.s 			page 143


 8063 1755 30000000 		.4byte	.LBI742
 8064 1759 0400     		.2byte	.LVU1559
 8065 175b 19010000 		.4byte	.LLRL156
 8066 175f 01       		.byte	0x1
 8067 1760 CC04     		.2byte	0x4cc
 8068 1762 02       		.uleb128 0x2
 8069 1763 BC380000 		.4byte	0x38bc
 8070 1767 D5010000 		.4byte	.LLST157
 8071 176b D3010000 		.4byte	.LVUS157
 8072 176f 1F       		.uleb128 0x1f
 8073 1770 AF380000 		.4byte	0x38af
 8074 1774 40000000 		.4byte	.LBI744
 8075 1778 0000     		.2byte	.LVU1564
 8076 177a 40000000 		.4byte	.LBB744
 8077 177e 08000000 		.4byte	.LBE744-.LBB744
 8078 1782 01       		.byte	0x1
 8079 1783 5E       		.byte	0x5e
 8080 1784 0D       		.byte	0xd
 8081 1785 13       		.uleb128 0x13
 8082 1786 BC380000 		.4byte	0x38bc
 8083 178a 13       		.uleb128 0x13
 8084 178b BC380000 		.4byte	0x38bc
 8085 178f 00       		.byte	0
 8086 1790 00       		.byte	0
 8087 1791 00       		.byte	0
 8088 1792 09       		.uleb128 0x9
 8089 1793 97170000 		.4byte	0x1797
 8090 1797 50       		.uleb128 0x50
 8091 1798 14       		.uleb128 0x14
 8092 1799 77030000 		.4byte	0x377
 8093 179d A8170000 		.4byte	0x17a8
 8094 17a1 15       		.uleb128 0x15
 8095 17a2 39000000 		.4byte	0x39
 8096 17a6 0C       		.byte	0xc
 8097 17a7 00       		.byte	0
 8098 17a8 12       		.uleb128 0x12
 8099 17a9 98170000 		.4byte	0x1798
 8100 17ad 23       		.uleb128 0x23
 8101 17ae 93000000 		.4byte	.LASF292
 8102 17b2 6A04     		.2byte	0x46a
 8103 17b4 07       		.byte	0x7
 8104 17b5 5F010000 		.4byte	0x15f
 8105 17b9 00000000 		.4byte	.LFB452
 8106 17bd 6E000000 		.4byte	.LFE452-.LFB452
 8107 17c1 01       		.uleb128 0x1
 8108 17c2 9C       		.byte	0x9c
 8109 17c3 5A180000 		.4byte	0x185a
 8110 17c7 0F       		.uleb128 0xf
 8111 17c8 520F0000 		.4byte	.LASF276
 8112 17cc 6A04     		.2byte	0x46a
 8113 17ce 23       		.byte	0x23
 8114 17cf BE120000 		.4byte	0x12be
 8115 17d3 E4010000 		.4byte	.LLST149
 8116 17d7 DE010000 		.4byte	.LVUS149
 8117 17db 3C       		.uleb128 0x3c
 8118 17dc 6E00     		.ascii	"n\000"
 8119 17de 6A04     		.2byte	0x46a
ARM GAS  C:\Users\DEVELO~1\AppData\Local\Temp\cc2saCCQ.s 			page 144


 8120 17e0 30       		.byte	0x30
 8121 17e1 2D000000 		.4byte	0x2d
 8122 17e5 01       		.uleb128 0x1
 8123 17e6 51       		.byte	0x51
 8124 17e7 0F       		.uleb128 0xf
 8125 17e8 34020000 		.4byte	.LASF290
 8126 17ec 6B04     		.2byte	0x46b
 8127 17ee 24       		.byte	0x24
 8128 17ef 92170000 		.4byte	0x1792
 8129 17f3 08020000 		.4byte	.LLST150
 8130 17f7 FC010000 		.4byte	.LVUS150
 8131 17fb 0F       		.uleb128 0xf
 8132 17fc 610F0000 		.4byte	.LASF288
 8133 1800 6B04     		.2byte	0x46b
 8134 1802 31       		.byte	0x31
 8135 1803 BA040000 		.4byte	0x4ba
 8136 1807 40020000 		.4byte	.LLST151
 8137 180b 34020000 		.4byte	.LVUS151
 8138 180f 26       		.uleb128 0x26
 8139 1810 6D0E0000 		.4byte	.LASF291
 8140 1814 6A180000 		.4byte	0x186a
 8141 1818 25       		.uleb128 0x25
 8142 1819 AF380000 		.4byte	0x38af
 8143 181d 30000000 		.4byte	.LBI732
 8144 1821 0400     		.2byte	.LVU1501
 8145 1823 0D010000 		.4byte	.LLRL152
 8146 1827 01       		.byte	0x1
 8147 1828 9204     		.2byte	0x492
 8148 182a 02       		.uleb128 0x2
 8149 182b BC380000 		.4byte	0x38bc
 8150 182f 6E020000 		.4byte	.LLST153
 8151 1833 6C020000 		.4byte	.LVUS153
 8152 1837 1F       		.uleb128 0x1f
 8153 1838 AF380000 		.4byte	0x38af
 8154 183c 40000000 		.4byte	.LBI734
 8155 1840 0000     		.2byte	.LVU1506
 8156 1842 40000000 		.4byte	.LBB734
 8157 1846 08000000 		.4byte	.LBE734-.LBB734
 8158 184a 01       		.byte	0x1
 8159 184b 5E       		.byte	0x5e
 8160 184c 0D       		.byte	0xd
 8161 184d 13       		.uleb128 0x13
 8162 184e BC380000 		.4byte	0x38bc
 8163 1852 13       		.uleb128 0x13
 8164 1853 BC380000 		.4byte	0x38bc
 8165 1857 00       		.byte	0
 8166 1858 00       		.byte	0
 8167 1859 00       		.byte	0
 8168 185a 14       		.uleb128 0x14
 8169 185b 77030000 		.4byte	0x377
 8170 185f 6A180000 		.4byte	0x186a
 8171 1863 15       		.uleb128 0x15
 8172 1864 39000000 		.4byte	0x39
 8173 1868 10       		.byte	0x10
 8174 1869 00       		.byte	0
 8175 186a 12       		.uleb128 0x12
 8176 186b 5A180000 		.4byte	0x185a
ARM GAS  C:\Users\DEVELO~1\AppData\Local\Temp\cc2saCCQ.s 			page 145


 8177 186f 23       		.uleb128 0x23
 8178 1870 DC090000 		.4byte	.LASF293
 8179 1874 2E04     		.2byte	0x42e
 8180 1876 07       		.byte	0x7
 8181 1877 5F010000 		.4byte	0x15f
 8182 187b 00000000 		.4byte	.LFB451
 8183 187f 5A000000 		.4byte	.LFE451-.LFB451
 8184 1883 01       		.uleb128 0x1
 8185 1884 9C       		.byte	0x9c
 8186 1885 FB180000 		.4byte	0x18fb
 8187 1889 0F       		.uleb128 0xf
 8188 188a 520F0000 		.4byte	.LASF276
 8189 188e 2E04     		.2byte	0x42e
 8190 1890 21       		.byte	0x21
 8191 1891 BE120000 		.4byte	0x12be
 8192 1895 7F020000 		.4byte	.LLST145
 8193 1899 77020000 		.4byte	.LVUS145
 8194 189d 51       		.uleb128 0x51
 8195 189e 6E00     		.ascii	"n\000"
 8196 18a0 01       		.byte	0x1
 8197 18a1 2E04     		.2byte	0x42e
 8198 18a3 2E       		.byte	0x2e
 8199 18a4 2D000000 		.4byte	0x2d
 8200 18a8 A4020000 		.4byte	.LLST146
 8201 18ac 9E020000 		.4byte	.LVUS146
 8202 18b0 26       		.uleb128 0x26
 8203 18b1 6D0E0000 		.4byte	.LASF291
 8204 18b5 0B190000 		.4byte	0x190b
 8205 18b9 25       		.uleb128 0x25
 8206 18ba AF380000 		.4byte	0x38af
 8207 18be 30000000 		.4byte	.LBI722
 8208 18c2 0400     		.2byte	.LVU1455
 8209 18c4 01010000 		.4byte	.LLRL147
 8210 18c8 01       		.byte	0x1
 8211 18c9 5504     		.2byte	0x455
 8212 18cb 02       		.uleb128 0x2
 8213 18cc BC380000 		.4byte	0x38bc
 8214 18d0 BE020000 		.4byte	.LLST148
 8215 18d4 BC020000 		.4byte	.LVUS148
 8216 18d8 1F       		.uleb128 0x1f
 8217 18d9 AF380000 		.4byte	0x38af
 8218 18dd 40000000 		.4byte	.LBI724
 8219 18e1 0000     		.2byte	.LVU1460
 8220 18e3 40000000 		.4byte	.LBB724
 8221 18e7 08000000 		.4byte	.LBE724-.LBB724
 8222 18eb 01       		.byte	0x1
 8223 18ec 5E       		.byte	0x5e
 8224 18ed 0D       		.byte	0xd
 8225 18ee 13       		.uleb128 0x13
 8226 18ef BC380000 		.4byte	0x38bc
 8227 18f3 13       		.uleb128 0x13
 8228 18f4 BC380000 		.4byte	0x38bc
 8229 18f8 00       		.byte	0
 8230 18f9 00       		.byte	0
 8231 18fa 00       		.byte	0
 8232 18fb 14       		.uleb128 0x14
 8233 18fc 77030000 		.4byte	0x377
ARM GAS  C:\Users\DEVELO~1\AppData\Local\Temp\cc2saCCQ.s 			page 146


 8234 1900 0B190000 		.4byte	0x190b
 8235 1904 15       		.uleb128 0x15
 8236 1905 39000000 		.4byte	0x39
 8237 1909 0E       		.byte	0xe
 8238 190a 00       		.byte	0
 8239 190b 12       		.uleb128 0x12
 8240 190c FB180000 		.4byte	0x18fb
 8241 1910 27       		.uleb128 0x27
 8242 1911 760E0000 		.4byte	.LASF295
 8243 1915 BE03     		.2byte	0x3be
 8244 1917 06       		.byte	0x6
 8245 1918 00000000 		.4byte	.LFB450
 8246 191c 04010000 		.4byte	.LFE450-.LFB450
 8247 1920 01       		.uleb128 0x1
 8248 1921 9C       		.byte	0x9c
 8249 1922 3E1A0000 		.4byte	0x1a3e
 8250 1926 0F       		.uleb128 0xf
 8251 1927 520F0000 		.4byte	.LASF276
 8252 192b BE03     		.2byte	0x3be
 8253 192d 1E       		.byte	0x1e
 8254 192e BE120000 		.4byte	0x12be
 8255 1932 CD020000 		.4byte	.LLST140
 8256 1936 C7020000 		.4byte	.LVUS140
 8257 193a 26       		.uleb128 0x26
 8258 193b 6D0E0000 		.4byte	.LASF291
 8259 193f A8170000 		.4byte	0x17a8
 8260 1943 07       		.uleb128 0x7
 8261 1944 FF380000 		.4byte	0x38ff
 8262 1948 40000000 		.4byte	.LBI708
 8263 194c 0100     		.2byte	.LVU1377
 8264 194e 40000000 		.4byte	.LBB708
 8265 1952 1E000000 		.4byte	.LBE708-.LBB708
 8266 1956 FD03     		.2byte	0x3fd
 8267 1958 07       		.byte	0x7
 8268 1959 6B190000 		.4byte	0x196b
 8269 195d 02       		.uleb128 0x2
 8270 195e 0D390000 		.4byte	0x390d
 8271 1962 EA020000 		.4byte	.LLST141
 8272 1966 E8020000 		.4byte	.LVUS141
 8273 196a 00       		.byte	0
 8274 196b 07       		.uleb128 0x7
 8275 196c 5F390000 		.4byte	0x395f
 8276 1970 6C000000 		.4byte	.LBI710
 8277 1974 0100     		.2byte	.LVU1389
 8278 1976 6C000000 		.4byte	.LBB710
 8279 197a 1E000000 		.4byte	.LBE710-.LBB710
 8280 197e DF03     		.2byte	0x3df
 8281 1980 07       		.byte	0x7
 8282 1981 93190000 		.4byte	0x1993
 8283 1985 02       		.uleb128 0x2
 8284 1986 6D390000 		.4byte	0x396d
 8285 198a F7020000 		.4byte	.LLST142
 8286 198e F5020000 		.4byte	.LVUS142
 8287 1992 00       		.byte	0
 8288 1993 07       		.uleb128 0x7
 8289 1994 5F390000 		.4byte	0x395f
 8290 1998 8C000000 		.4byte	.LBI712
ARM GAS  C:\Users\DEVELO~1\AppData\Local\Temp\cc2saCCQ.s 			page 147


 8291 199c 0100     		.2byte	.LVU1397
 8292 199e 8C000000 		.4byte	.LBB712
 8293 19a2 1E000000 		.4byte	.LBE712-.LBB712
 8294 19a6 F703     		.2byte	0x3f7
 8295 19a8 07       		.byte	0x7
 8296 19a9 BB190000 		.4byte	0x19bb
 8297 19ad 02       		.uleb128 0x2
 8298 19ae 6D390000 		.4byte	0x396d
 8299 19b2 05030000 		.4byte	.LLST143
 8300 19b6 03030000 		.4byte	.LVUS143
 8301 19ba 00       		.byte	0
 8302 19bb 07       		.uleb128 0x7
 8303 19bc BD390000 		.4byte	0x39bd
 8304 19c0 AC000000 		.4byte	.LBI714
 8305 19c4 0100     		.2byte	.LVU1405
 8306 19c6 AC000000 		.4byte	.LBB714
 8307 19ca 1E000000 		.4byte	.LBE714-.LBB714
 8308 19ce E503     		.2byte	0x3e5
 8309 19d0 07       		.byte	0x7
 8310 19d1 E3190000 		.4byte	0x19e3
 8311 19d5 02       		.uleb128 0x2
 8312 19d6 CA390000 		.4byte	0x39ca
 8313 19da 13030000 		.4byte	.LLST144
 8314 19de 11030000 		.4byte	.LVUS144
 8315 19e2 00       		.byte	0
 8316 19e3 07       		.uleb128 0x7
 8317 19e4 BD390000 		.4byte	0x39bd
 8318 19e8 CC000000 		.4byte	.LBI716
 8319 19ec 0100     		.2byte	.LVU1413
 8320 19ee CC000000 		.4byte	.LBB716
 8321 19f2 1E000000 		.4byte	.LBE716-.LBB716
 8322 19f6 EB03     		.2byte	0x3eb
 8323 19f8 07       		.byte	0x7
 8324 19f9 051A0000 		.4byte	0x1a05
 8325 19fd 52       		.uleb128 0x52
 8326 19fe CA390000 		.4byte	0x39ca
 8327 1a02 0080     		.2byte	0x8000
 8328 1a04 00       		.byte	0
 8329 1a05 06       		.uleb128 0x6
 8330 1a06 10000000 		.4byte	.LVL227
 8331 1a0a 84360000 		.4byte	0x3684
 8332 1a0e 191A0000 		.4byte	0x1a19
 8333 1a12 01       		.uleb128 0x1
 8334 1a13 01       		.uleb128 0x1
 8335 1a14 50       		.byte	0x50
 8336 1a15 02       		.uleb128 0x2
 8337 1a16 74       		.byte	0x74
 8338 1a17 00       		.sleb128 0
 8339 1a18 00       		.byte	0
 8340 1a19 28       		.uleb128 0x28
 8341 1a1a 1C000000 		.4byte	.LVL228
 8342 1a1e CD130000 		.4byte	0x13cd
 8343 1a22 28       		.uleb128 0x28
 8344 1a23 22000000 		.4byte	.LVL229
 8345 1a27 CD130000 		.4byte	0x13cd
 8346 1a2b 28       		.uleb128 0x28
 8347 1a2c 64000000 		.4byte	.LVL233
ARM GAS  C:\Users\DEVELO~1\AppData\Local\Temp\cc2saCCQ.s 			page 148


 8348 1a30 84130000 		.4byte	0x1384
 8349 1a34 28       		.uleb128 0x28
 8350 1a35 6A000000 		.4byte	.LVL234
 8351 1a39 84130000 		.4byte	0x1384
 8352 1a3d 00       		.byte	0
 8353 1a3e 23       		.uleb128 0x23
 8354 1a3f 97030000 		.4byte	.LASF294
 8355 1a43 DB02     		.2byte	0x2db
 8356 1a45 07       		.byte	0x7
 8357 1a46 5F010000 		.4byte	0x15f
 8358 1a4a 00000000 		.4byte	.LFB449
 8359 1a4e A0030000 		.4byte	.LFE449-.LFB449
 8360 1a52 01       		.uleb128 0x1
 8361 1a53 9C       		.byte	0x9c
 8362 1a54 0A210000 		.4byte	0x210a
 8363 1a58 0F       		.uleb128 0xf
 8364 1a59 520F0000 		.4byte	.LASF276
 8365 1a5d DB02     		.2byte	0x2db
 8366 1a5f 20       		.byte	0x20
 8367 1a60 BE120000 		.4byte	0x12be
 8368 1a64 3F030000 		.4byte	.LLST95
 8369 1a68 1F030000 		.4byte	.LVUS95
 8370 1a6c 24       		.uleb128 0x24
 8371 1a6d 0C030000 		.4byte	.LASF278
 8372 1a71 DC02     		.2byte	0x2dc
 8373 1a73 0C       		.byte	0xc
 8374 1a74 E9000000 		.4byte	0xe9
 8375 1a78 BB030000 		.4byte	.LLST96
 8376 1a7c B1030000 		.4byte	.LVUS96
 8377 1a80 45       		.uleb128 0x45
 8378 1a81 6D736700 		.ascii	"msg\000"
 8379 1a85 DD02     		.2byte	0x2dd
 8380 1a87 5F010000 		.4byte	0x15f
 8381 1a8b EF030000 		.4byte	.LLST97
 8382 1a8f E1030000 		.4byte	.LVUS97
 8383 1a93 26       		.uleb128 0x26
 8384 1a94 6D0E0000 		.4byte	.LASF291
 8385 1a98 1A210000 		.4byte	0x211a
 8386 1a9c 07       		.uleb128 0x7
 8387 1a9d 482E0000 		.4byte	0x2e48
 8388 1aa1 26010000 		.4byte	.LBI660
 8389 1aa5 0100     		.2byte	.LVU1150
 8390 1aa7 26010000 		.4byte	.LBB660
 8391 1aab 28000000 		.4byte	.LBE660-.LBB660
 8392 1aaf E902     		.2byte	0x2e9
 8393 1ab1 0D       		.byte	0xd
 8394 1ab2 351B0000 		.4byte	0x1b35
 8395 1ab6 02       		.uleb128 0x2
 8396 1ab7 642E0000 		.4byte	0x2e64
 8397 1abb 2E040000 		.4byte	.LLST98
 8398 1abf 2C040000 		.4byte	.LVUS98
 8399 1ac3 02       		.uleb128 0x2
 8400 1ac4 712E0000 		.4byte	0x2e71
 8401 1ac8 2E040000 		.4byte	.LLST98
 8402 1acc 2C040000 		.4byte	.LVUS98
 8403 1ad0 02       		.uleb128 0x2
 8404 1ad1 7E2E0000 		.4byte	0x2e7e
ARM GAS  C:\Users\DEVELO~1\AppData\Local\Temp\cc2saCCQ.s 			page 149


 8405 1ad5 3A040000 		.4byte	.LLST100
 8406 1ad9 38040000 		.4byte	.LVUS100
 8407 1add 02       		.uleb128 0x2
 8408 1ade 572E0000 		.4byte	0x2e57
 8409 1ae2 46040000 		.4byte	.LLST101
 8410 1ae6 44040000 		.4byte	.LVUS101
 8411 1aea 06       		.uleb128 0x6
 8412 1aeb 32010000 		.4byte	.LVL178
 8413 1aef DF130000 		.4byte	0x13df
 8414 1af3 111B0000 		.4byte	0x1b11
 8415 1af7 01       		.uleb128 0x1
 8416 1af8 01       		.uleb128 0x1
 8417 1af9 50       		.byte	0x50
 8418 1afa 01       		.uleb128 0x1
 8419 1afb 40       		.byte	0x40
 8420 1afc 01       		.uleb128 0x1
 8421 1afd 01       		.uleb128 0x1
 8422 1afe 51       		.byte	0x51
 8423 1aff 01       		.uleb128 0x1
 8424 1b00 3A       		.byte	0x3a
 8425 1b01 01       		.uleb128 0x1
 8426 1b02 01       		.uleb128 0x1
 8427 1b03 52       		.byte	0x52
 8428 1b04 05       		.uleb128 0x5
 8429 1b05 03       		.byte	0x3
 8430 1b06 00000000 		.4byte	spi_lld_serve_dma_rx_interrupt
 8431 1b0a 01       		.uleb128 0x1
 8432 1b0b 01       		.uleb128 0x1
 8433 1b0c 53       		.byte	0x53
 8434 1b0d 02       		.uleb128 0x2
 8435 1b0e 74       		.byte	0x74
 8436 1b0f 00       		.sleb128 0
 8437 1b10 00       		.byte	0
 8438 1b11 0D       		.uleb128 0xd
 8439 1b12 46010000 		.4byte	.LVL179
 8440 1b16 DF130000 		.4byte	0x13df
 8441 1b1a 01       		.uleb128 0x1
 8442 1b1b 01       		.uleb128 0x1
 8443 1b1c 50       		.byte	0x50
 8444 1b1d 01       		.uleb128 0x1
 8445 1b1e 40       		.byte	0x40
 8446 1b1f 01       		.uleb128 0x1
 8447 1b20 01       		.uleb128 0x1
 8448 1b21 51       		.byte	0x51
 8449 1b22 01       		.uleb128 0x1
 8450 1b23 3A       		.byte	0x3a
 8451 1b24 01       		.uleb128 0x1
 8452 1b25 01       		.uleb128 0x1
 8453 1b26 52       		.byte	0x52
 8454 1b27 05       		.uleb128 0x5
 8455 1b28 03       		.byte	0x3
 8456 1b29 00000000 		.4byte	spi_lld_serve_dma_tx_interrupt
 8457 1b2d 01       		.uleb128 0x1
 8458 1b2e 01       		.uleb128 0x1
 8459 1b2f 53       		.byte	0x53
 8460 1b30 02       		.uleb128 0x2
 8461 1b31 74       		.byte	0x74
ARM GAS  C:\Users\DEVELO~1\AppData\Local\Temp\cc2saCCQ.s 			page 150


 8462 1b32 00       		.sleb128 0
 8463 1b33 00       		.byte	0
 8464 1b34 00       		.byte	0
 8465 1b35 07       		.uleb128 0x7
 8466 1b36 7B390000 		.4byte	0x397b
 8467 1b3a 5E010000 		.4byte	.LBI662
 8468 1b3e 0100     		.2byte	.LVU1167
 8469 1b40 5E010000 		.4byte	.LBB662
 8470 1b44 1E000000 		.4byte	.LBE662-.LBB662
 8471 1b48 F302     		.2byte	0x2f3
 8472 1b4a 07       		.byte	0x7
 8473 1b4b 6A1B0000 		.4byte	0x1b6a
 8474 1b4f 02       		.uleb128 0x2
 8475 1b50 96390000 		.4byte	0x3996
 8476 1b54 56040000 		.4byte	.LLST102
 8477 1b58 54040000 		.4byte	.LVUS102
 8478 1b5c 02       		.uleb128 0x2
 8479 1b5d 89390000 		.4byte	0x3989
 8480 1b61 62040000 		.4byte	.LLST103
 8481 1b65 60040000 		.4byte	.LVUS103
 8482 1b69 00       		.byte	0
 8483 1b6a 07       		.uleb128 0x7
 8484 1b6b 43390000 		.4byte	0x3943
 8485 1b6f 7C010000 		.4byte	.LBI664
 8486 1b73 0200     		.2byte	.LVU1176
 8487 1b75 7C010000 		.4byte	.LBB664
 8488 1b79 1E000000 		.4byte	.LBE664-.LBB664
 8489 1b7d F402     		.2byte	0x2f4
 8490 1b7f 07       		.byte	0x7
 8491 1b80 B71B0000 		.4byte	0x1bb7
 8492 1b84 02       		.uleb128 0x2
 8493 1b85 51390000 		.4byte	0x3951
 8494 1b89 70040000 		.4byte	.LLST104
 8495 1b8d 6E040000 		.4byte	.LVUS104
 8496 1b91 04       		.uleb128 0x4
 8497 1b92 163A0000 		.4byte	0x3a16
 8498 1b96 7C010000 		.4byte	.LBI666
 8499 1b9a 0400     		.2byte	.LVU1178
 8500 1b9c 7C010000 		.4byte	.LBB666
 8501 1ba0 1C000000 		.4byte	.LBE666-.LBB666
 8502 1ba4 02       		.byte	0x2
 8503 1ba5 8D01     		.2byte	0x18d
 8504 1ba7 03       		.byte	0x3
 8505 1ba8 02       		.uleb128 0x2
 8506 1ba9 233A0000 		.4byte	0x3a23
 8507 1bad 7E040000 		.4byte	.LLST105
 8508 1bb1 7C040000 		.4byte	.LVUS105
 8509 1bb5 00       		.byte	0
 8510 1bb6 00       		.byte	0
 8511 1bb7 07       		.uleb128 0x7
 8512 1bb8 482E0000 		.4byte	0x2e48
 8513 1bbc 9A010000 		.4byte	.LBI668
 8514 1bc0 0200     		.2byte	.LVU1188
 8515 1bc2 9A010000 		.4byte	.LBB668
 8516 1bc6 28000000 		.4byte	.LBE668-.LBB668
 8517 1bca 0B03     		.2byte	0x30b
 8518 1bcc 0D       		.byte	0xd
ARM GAS  C:\Users\DEVELO~1\AppData\Local\Temp\cc2saCCQ.s 			page 151


 8519 1bcd 501C0000 		.4byte	0x1c50
 8520 1bd1 02       		.uleb128 0x2
 8521 1bd2 642E0000 		.4byte	0x2e64
 8522 1bd6 8C040000 		.4byte	.LLST106
 8523 1bda 8A040000 		.4byte	.LVUS106
 8524 1bde 02       		.uleb128 0x2
 8525 1bdf 712E0000 		.4byte	0x2e71
 8526 1be3 8C040000 		.4byte	.LLST106
 8527 1be7 8A040000 		.4byte	.LVUS106
 8528 1beb 02       		.uleb128 0x2
 8529 1bec 7E2E0000 		.4byte	0x2e7e
 8530 1bf0 98040000 		.4byte	.LLST108
 8531 1bf4 96040000 		.4byte	.LVUS108
 8532 1bf8 02       		.uleb128 0x2
 8533 1bf9 572E0000 		.4byte	0x2e57
 8534 1bfd A4040000 		.4byte	.LLST109
 8535 1c01 A2040000 		.4byte	.LVUS109
 8536 1c05 06       		.uleb128 0x6
 8537 1c06 A6010000 		.4byte	.LVL187
 8538 1c0a DF130000 		.4byte	0x13df
 8539 1c0e 2C1C0000 		.4byte	0x1c2c
 8540 1c12 01       		.uleb128 0x1
 8541 1c13 01       		.uleb128 0x1
 8542 1c14 50       		.byte	0x50
 8543 1c15 01       		.uleb128 0x1
 8544 1c16 40       		.byte	0x40
 8545 1c17 01       		.uleb128 0x1
 8546 1c18 01       		.uleb128 0x1
 8547 1c19 51       		.byte	0x51
 8548 1c1a 01       		.uleb128 0x1
 8549 1c1b 3A       		.byte	0x3a
 8550 1c1c 01       		.uleb128 0x1
 8551 1c1d 01       		.uleb128 0x1
 8552 1c1e 52       		.byte	0x52
 8553 1c1f 05       		.uleb128 0x5
 8554 1c20 03       		.byte	0x3
 8555 1c21 00000000 		.4byte	spi_lld_serve_dma_rx_interrupt
 8556 1c25 01       		.uleb128 0x1
 8557 1c26 01       		.uleb128 0x1
 8558 1c27 53       		.byte	0x53
 8559 1c28 02       		.uleb128 0x2
 8560 1c29 74       		.byte	0x74
 8561 1c2a 00       		.sleb128 0
 8562 1c2b 00       		.byte	0
 8563 1c2c 0D       		.uleb128 0xd
 8564 1c2d BA010000 		.4byte	.LVL188
 8565 1c31 DF130000 		.4byte	0x13df
 8566 1c35 01       		.uleb128 0x1
 8567 1c36 01       		.uleb128 0x1
 8568 1c37 50       		.byte	0x50
 8569 1c38 01       		.uleb128 0x1
 8570 1c39 40       		.byte	0x40
 8571 1c3a 01       		.uleb128 0x1
 8572 1c3b 01       		.uleb128 0x1
 8573 1c3c 51       		.byte	0x51
 8574 1c3d 01       		.uleb128 0x1
 8575 1c3e 3A       		.byte	0x3a
ARM GAS  C:\Users\DEVELO~1\AppData\Local\Temp\cc2saCCQ.s 			page 152


 8576 1c3f 01       		.uleb128 0x1
 8577 1c40 01       		.uleb128 0x1
 8578 1c41 52       		.byte	0x52
 8579 1c42 05       		.uleb128 0x5
 8580 1c43 03       		.byte	0x3
 8581 1c44 00000000 		.4byte	spi_lld_serve_dma_tx_interrupt
 8582 1c48 01       		.uleb128 0x1
 8583 1c49 01       		.uleb128 0x1
 8584 1c4a 53       		.byte	0x53
 8585 1c4b 02       		.uleb128 0x2
 8586 1c4c 74       		.byte	0x74
 8587 1c4d 00       		.sleb128 0
 8588 1c4e 00       		.byte	0
 8589 1c4f 00       		.byte	0
 8590 1c50 07       		.uleb128 0x7
 8591 1c51 D7390000 		.4byte	0x39d7
 8592 1c55 D2010000 		.4byte	.LBI670
 8593 1c59 0100     		.2byte	.LVU1205
 8594 1c5b D2010000 		.4byte	.LBB670
 8595 1c5f 1E000000 		.4byte	.LBE670-.LBB670
 8596 1c63 1503     		.2byte	0x315
 8597 1c65 07       		.byte	0x7
 8598 1c66 851C0000 		.4byte	0x1c85
 8599 1c6a 02       		.uleb128 0x2
 8600 1c6b F0390000 		.4byte	0x39f0
 8601 1c6f B4040000 		.4byte	.LLST110
 8602 1c73 B2040000 		.4byte	.LVUS110
 8603 1c77 02       		.uleb128 0x2
 8604 1c78 E4390000 		.4byte	0x39e4
 8605 1c7c C0040000 		.4byte	.LLST111
 8606 1c80 BE040000 		.4byte	.LVUS111
 8607 1c84 00       		.byte	0
 8608 1c85 07       		.uleb128 0x7
 8609 1c86 A3390000 		.4byte	0x39a3
 8610 1c8a F0010000 		.4byte	.LBI672
 8611 1c8e 0200     		.2byte	.LVU1214
 8612 1c90 F0010000 		.4byte	.LBB672
 8613 1c94 1E000000 		.4byte	.LBE672-.LBB672
 8614 1c98 1603     		.2byte	0x316
 8615 1c9a 07       		.byte	0x7
 8616 1c9b D11C0000 		.4byte	0x1cd1
 8617 1c9f 02       		.uleb128 0x2
 8618 1ca0 B0390000 		.4byte	0x39b0
 8619 1ca4 CE040000 		.4byte	.LLST112
 8620 1ca8 CC040000 		.4byte	.LVUS112
 8621 1cac 1F       		.uleb128 0x1f
 8622 1cad 303A0000 		.4byte	0x3a30
 8623 1cb1 F0010000 		.4byte	.LBI674
 8624 1cb5 0400     		.2byte	.LVU1216
 8625 1cb7 F0010000 		.4byte	.LBB674
 8626 1cbb 1C000000 		.4byte	.LBE674-.LBB674
 8627 1cbf 02       		.byte	0x2
 8628 1cc0 DB       		.byte	0xdb
 8629 1cc1 03       		.byte	0x3
 8630 1cc2 02       		.uleb128 0x2
 8631 1cc3 3D3A0000 		.4byte	0x3a3d
 8632 1cc7 DC040000 		.4byte	.LLST113
ARM GAS  C:\Users\DEVELO~1\AppData\Local\Temp\cc2saCCQ.s 			page 153


 8633 1ccb DA040000 		.4byte	.LVUS113
 8634 1ccf 00       		.byte	0
 8635 1cd0 00       		.byte	0
 8636 1cd1 07       		.uleb128 0x7
 8637 1cd2 482E0000 		.4byte	0x2e48
 8638 1cd6 0E020000 		.4byte	.LBI676
 8639 1cda 0200     		.2byte	.LVU1226
 8640 1cdc 0E020000 		.4byte	.LBB676
 8641 1ce0 28000000 		.4byte	.LBE676-.LBB676
 8642 1ce4 FA02     		.2byte	0x2fa
 8643 1ce6 0D       		.byte	0xd
 8644 1ce7 6A1D0000 		.4byte	0x1d6a
 8645 1ceb 02       		.uleb128 0x2
 8646 1cec 642E0000 		.4byte	0x2e64
 8647 1cf0 EA040000 		.4byte	.LLST114
 8648 1cf4 E8040000 		.4byte	.LVUS114
 8649 1cf8 02       		.uleb128 0x2
 8650 1cf9 712E0000 		.4byte	0x2e71
 8651 1cfd EA040000 		.4byte	.LLST114
 8652 1d01 E8040000 		.4byte	.LVUS114
 8653 1d05 02       		.uleb128 0x2
 8654 1d06 7E2E0000 		.4byte	0x2e7e
 8655 1d0a F6040000 		.4byte	.LLST116
 8656 1d0e F4040000 		.4byte	.LVUS116
 8657 1d12 02       		.uleb128 0x2
 8658 1d13 572E0000 		.4byte	0x2e57
 8659 1d17 02050000 		.4byte	.LLST117
 8660 1d1b 00050000 		.4byte	.LVUS117
 8661 1d1f 06       		.uleb128 0x6
 8662 1d20 1A020000 		.4byte	.LVL196
 8663 1d24 DF130000 		.4byte	0x13df
 8664 1d28 461D0000 		.4byte	0x1d46
 8665 1d2c 01       		.uleb128 0x1
 8666 1d2d 01       		.uleb128 0x1
 8667 1d2e 50       		.byte	0x50
 8668 1d2f 01       		.uleb128 0x1
 8669 1d30 40       		.byte	0x40
 8670 1d31 01       		.uleb128 0x1
 8671 1d32 01       		.uleb128 0x1
 8672 1d33 51       		.byte	0x51
 8673 1d34 01       		.uleb128 0x1
 8674 1d35 3A       		.byte	0x3a
 8675 1d36 01       		.uleb128 0x1
 8676 1d37 01       		.uleb128 0x1
 8677 1d38 52       		.byte	0x52
 8678 1d39 05       		.uleb128 0x5
 8679 1d3a 03       		.byte	0x3
 8680 1d3b 00000000 		.4byte	spi_lld_serve_dma_rx_interrupt
 8681 1d3f 01       		.uleb128 0x1
 8682 1d40 01       		.uleb128 0x1
 8683 1d41 53       		.byte	0x53
 8684 1d42 02       		.uleb128 0x2
 8685 1d43 74       		.byte	0x74
 8686 1d44 00       		.sleb128 0
 8687 1d45 00       		.byte	0
 8688 1d46 0D       		.uleb128 0xd
 8689 1d47 2E020000 		.4byte	.LVL197
ARM GAS  C:\Users\DEVELO~1\AppData\Local\Temp\cc2saCCQ.s 			page 154


 8690 1d4b DF130000 		.4byte	0x13df
 8691 1d4f 01       		.uleb128 0x1
 8692 1d50 01       		.uleb128 0x1
 8693 1d51 50       		.byte	0x50
 8694 1d52 01       		.uleb128 0x1
 8695 1d53 40       		.byte	0x40
 8696 1d54 01       		.uleb128 0x1
 8697 1d55 01       		.uleb128 0x1
 8698 1d56 51       		.byte	0x51
 8699 1d57 01       		.uleb128 0x1
 8700 1d58 3A       		.byte	0x3a
 8701 1d59 01       		.uleb128 0x1
 8702 1d5a 01       		.uleb128 0x1
 8703 1d5b 52       		.byte	0x52
 8704 1d5c 05       		.uleb128 0x5
 8705 1d5d 03       		.byte	0x3
 8706 1d5e 00000000 		.4byte	spi_lld_serve_dma_tx_interrupt
 8707 1d62 01       		.uleb128 0x1
 8708 1d63 01       		.uleb128 0x1
 8709 1d64 53       		.byte	0x53
 8710 1d65 02       		.uleb128 0x2
 8711 1d66 74       		.byte	0x74
 8712 1d67 00       		.sleb128 0
 8713 1d68 00       		.byte	0
 8714 1d69 00       		.byte	0
 8715 1d6a 07       		.uleb128 0x7
 8716 1d6b D7390000 		.4byte	0x39d7
 8717 1d6f 46020000 		.4byte	.LBI678
 8718 1d73 0100     		.2byte	.LVU1243
 8719 1d75 46020000 		.4byte	.LBB678
 8720 1d79 1E000000 		.4byte	.LBE678-.LBB678
 8721 1d7d 0403     		.2byte	0x304
 8722 1d7f 07       		.byte	0x7
 8723 1d80 9F1D0000 		.4byte	0x1d9f
 8724 1d84 02       		.uleb128 0x2
 8725 1d85 F0390000 		.4byte	0x39f0
 8726 1d89 12050000 		.4byte	.LLST118
 8727 1d8d 10050000 		.4byte	.LVUS118
 8728 1d91 02       		.uleb128 0x2
 8729 1d92 E4390000 		.4byte	0x39e4
 8730 1d96 1E050000 		.4byte	.LLST119
 8731 1d9a 1C050000 		.4byte	.LVUS119
 8732 1d9e 00       		.byte	0
 8733 1d9f 07       		.uleb128 0x7
 8734 1da0 A3390000 		.4byte	0x39a3
 8735 1da4 64020000 		.4byte	.LBI680
 8736 1da8 0200     		.2byte	.LVU1252
 8737 1daa 64020000 		.4byte	.LBB680
 8738 1dae 1E000000 		.4byte	.LBE680-.LBB680
 8739 1db2 0503     		.2byte	0x305
 8740 1db4 07       		.byte	0x7
 8741 1db5 EB1D0000 		.4byte	0x1deb
 8742 1db9 02       		.uleb128 0x2
 8743 1dba B0390000 		.4byte	0x39b0
 8744 1dbe 2C050000 		.4byte	.LLST120
 8745 1dc2 2A050000 		.4byte	.LVUS120
 8746 1dc6 1F       		.uleb128 0x1f
ARM GAS  C:\Users\DEVELO~1\AppData\Local\Temp\cc2saCCQ.s 			page 155


 8747 1dc7 303A0000 		.4byte	0x3a30
 8748 1dcb 64020000 		.4byte	.LBI682
 8749 1dcf 0400     		.2byte	.LVU1254
 8750 1dd1 64020000 		.4byte	.LBB682
 8751 1dd5 1C000000 		.4byte	.LBE682-.LBB682
 8752 1dd9 02       		.byte	0x2
 8753 1dda DB       		.byte	0xdb
 8754 1ddb 03       		.byte	0x3
 8755 1ddc 02       		.uleb128 0x2
 8756 1ddd 3D3A0000 		.4byte	0x3a3d
 8757 1de1 3A050000 		.4byte	.LLST121
 8758 1de5 38050000 		.4byte	.LVUS121
 8759 1de9 00       		.byte	0
 8760 1dea 00       		.byte	0
 8761 1deb 1C       		.uleb128 0x1c
 8762 1dec 482E0000 		.4byte	0x2e48
 8763 1df0 82020000 		.4byte	.LBI684
 8764 1df4 0200     		.2byte	.LVU1264
 8765 1df6 DB000000 		.4byte	.LLRL122
 8766 1dfa 2D03     		.2byte	0x32d
 8767 1dfc 0D       		.byte	0xd
 8768 1dfd 8D1E0000 		.4byte	0x1e8d
 8769 1e01 02       		.uleb128 0x2
 8770 1e02 642E0000 		.4byte	0x2e64
 8771 1e06 48050000 		.4byte	.LLST123
 8772 1e0a 46050000 		.4byte	.LVUS123
 8773 1e0e 02       		.uleb128 0x2
 8774 1e0f 712E0000 		.4byte	0x2e71
 8775 1e13 48050000 		.4byte	.LLST123
 8776 1e17 46050000 		.4byte	.LVUS123
 8777 1e1b 02       		.uleb128 0x2
 8778 1e1c 7E2E0000 		.4byte	0x2e7e
 8779 1e20 54050000 		.4byte	.LLST125
 8780 1e24 52050000 		.4byte	.LVUS125
 8781 1e28 02       		.uleb128 0x2
 8782 1e29 572E0000 		.4byte	0x2e57
 8783 1e2d 60050000 		.4byte	.LLST126
 8784 1e31 5E050000 		.4byte	.LVUS126
 8785 1e35 06       		.uleb128 0x6
 8786 1e36 8E020000 		.4byte	.LVL205
 8787 1e3a DF130000 		.4byte	0x13df
 8788 1e3e 5C1E0000 		.4byte	0x1e5c
 8789 1e42 01       		.uleb128 0x1
 8790 1e43 01       		.uleb128 0x1
 8791 1e44 50       		.byte	0x50
 8792 1e45 01       		.uleb128 0x1
 8793 1e46 40       		.byte	0x40
 8794 1e47 01       		.uleb128 0x1
 8795 1e48 01       		.uleb128 0x1
 8796 1e49 51       		.byte	0x51
 8797 1e4a 01       		.uleb128 0x1
 8798 1e4b 3A       		.byte	0x3a
 8799 1e4c 01       		.uleb128 0x1
 8800 1e4d 01       		.uleb128 0x1
 8801 1e4e 52       		.byte	0x52
 8802 1e4f 05       		.uleb128 0x5
 8803 1e50 03       		.byte	0x3
ARM GAS  C:\Users\DEVELO~1\AppData\Local\Temp\cc2saCCQ.s 			page 156


 8804 1e51 00000000 		.4byte	spi_lld_serve_dma_rx_interrupt
 8805 1e55 01       		.uleb128 0x1
 8806 1e56 01       		.uleb128 0x1
 8807 1e57 53       		.byte	0x53
 8808 1e58 02       		.uleb128 0x2
 8809 1e59 74       		.byte	0x74
 8810 1e5a 00       		.sleb128 0
 8811 1e5b 00       		.byte	0
 8812 1e5c 06       		.uleb128 0x6
 8813 1e5d A0020000 		.4byte	.LVL206
 8814 1e61 DF130000 		.4byte	0x13df
 8815 1e65 831E0000 		.4byte	0x1e83
 8816 1e69 01       		.uleb128 0x1
 8817 1e6a 01       		.uleb128 0x1
 8818 1e6b 50       		.byte	0x50
 8819 1e6c 01       		.uleb128 0x1
 8820 1e6d 40       		.byte	0x40
 8821 1e6e 01       		.uleb128 0x1
 8822 1e6f 01       		.uleb128 0x1
 8823 1e70 51       		.byte	0x51
 8824 1e71 01       		.uleb128 0x1
 8825 1e72 3A       		.byte	0x3a
 8826 1e73 01       		.uleb128 0x1
 8827 1e74 01       		.uleb128 0x1
 8828 1e75 52       		.byte	0x52
 8829 1e76 05       		.uleb128 0x5
 8830 1e77 03       		.byte	0x3
 8831 1e78 00000000 		.4byte	spi_lld_serve_dma_tx_interrupt
 8832 1e7c 01       		.uleb128 0x1
 8833 1e7d 01       		.uleb128 0x1
 8834 1e7e 53       		.byte	0x53
 8835 1e7f 02       		.uleb128 0x2
 8836 1e80 74       		.byte	0x74
 8837 1e81 00       		.sleb128 0
 8838 1e82 00       		.byte	0
 8839 1e83 28       		.uleb128 0x28
 8840 1e84 66030000 		.4byte	.LVL222
 8841 1e88 CD130000 		.4byte	0x13cd
 8842 1e8c 00       		.byte	0
 8843 1e8d 07       		.uleb128 0x7
 8844 1e8e 7B390000 		.4byte	0x397b
 8845 1e92 B6020000 		.4byte	.LBI688
 8846 1e96 0100     		.2byte	.LVU1281
 8847 1e98 B6020000 		.4byte	.LBB688
 8848 1e9c 1E000000 		.4byte	.LBE688-.LBB688
 8849 1ea0 3703     		.2byte	0x337
 8850 1ea2 07       		.byte	0x7
 8851 1ea3 C21E0000 		.4byte	0x1ec2
 8852 1ea7 02       		.uleb128 0x2
 8853 1ea8 96390000 		.4byte	0x3996
 8854 1eac 70050000 		.4byte	.LLST127
 8855 1eb0 6E050000 		.4byte	.LVUS127
 8856 1eb4 02       		.uleb128 0x2
 8857 1eb5 89390000 		.4byte	0x3989
 8858 1eb9 7C050000 		.4byte	.LLST128
 8859 1ebd 7A050000 		.4byte	.LVUS128
 8860 1ec1 00       		.byte	0
ARM GAS  C:\Users\DEVELO~1\AppData\Local\Temp\cc2saCCQ.s 			page 157


 8861 1ec2 07       		.uleb128 0x7
 8862 1ec3 43390000 		.4byte	0x3943
 8863 1ec7 D4020000 		.4byte	.LBI690
 8864 1ecb 0200     		.2byte	.LVU1290
 8865 1ecd D4020000 		.4byte	.LBB690
 8866 1ed1 1E000000 		.4byte	.LBE690-.LBB690
 8867 1ed5 3803     		.2byte	0x338
 8868 1ed7 07       		.byte	0x7
 8869 1ed8 0F1F0000 		.4byte	0x1f0f
 8870 1edc 02       		.uleb128 0x2
 8871 1edd 51390000 		.4byte	0x3951
 8872 1ee1 8A050000 		.4byte	.LLST129
 8873 1ee5 88050000 		.4byte	.LVUS129
 8874 1ee9 04       		.uleb128 0x4
 8875 1eea 163A0000 		.4byte	0x3a16
 8876 1eee D4020000 		.4byte	.LBI692
 8877 1ef2 0400     		.2byte	.LVU1292
 8878 1ef4 D4020000 		.4byte	.LBB692
 8879 1ef8 1C000000 		.4byte	.LBE692-.LBB692
 8880 1efc 02       		.byte	0x2
 8881 1efd 8D01     		.2byte	0x18d
 8882 1eff 03       		.byte	0x3
 8883 1f00 02       		.uleb128 0x2
 8884 1f01 233A0000 		.4byte	0x3a23
 8885 1f05 98050000 		.4byte	.LLST130
 8886 1f09 96050000 		.4byte	.LVUS130
 8887 1f0d 00       		.byte	0
 8888 1f0e 00       		.byte	0
 8889 1f0f 1C       		.uleb128 0x1c
 8890 1f10 042E0000 		.4byte	0x2e04
 8891 1f14 F2020000 		.4byte	.LBI694
 8892 1f18 0200     		.2byte	.LVU1302
 8893 1f1a EE000000 		.4byte	.LLRL131
 8894 1f1e 3E03     		.2byte	0x33e
 8895 1f20 0D       		.byte	0xd
 8896 1f21 B11F0000 		.4byte	0x1fb1
 8897 1f25 02       		.uleb128 0x2
 8898 1f26 132E0000 		.4byte	0x2e13
 8899 1f2a A8050000 		.4byte	.LLST132
 8900 1f2e A4050000 		.4byte	.LVUS132
 8901 1f32 02       		.uleb128 0x2
 8902 1f33 202E0000 		.4byte	0x2e20
 8903 1f37 C8050000 		.4byte	.LLST133
 8904 1f3b C4050000 		.4byte	.LVUS133
 8905 1f3f 02       		.uleb128 0x2
 8906 1f40 2D2E0000 		.4byte	0x2e2d
 8907 1f44 C8050000 		.4byte	.LLST133
 8908 1f48 C4050000 		.4byte	.LVUS133
 8909 1f4c 02       		.uleb128 0x2
 8910 1f4d 3A2E0000 		.4byte	0x2e3a
 8911 1f51 E0050000 		.4byte	.LLST135
 8912 1f55 DC050000 		.4byte	.LVUS135
 8913 1f59 06       		.uleb128 0x6
 8914 1f5a FE020000 		.4byte	.LVL214
 8915 1f5e 96130000 		.4byte	0x1396
 8916 1f62 801F0000 		.4byte	0x1f80
 8917 1f66 01       		.uleb128 0x1
ARM GAS  C:\Users\DEVELO~1\AppData\Local\Temp\cc2saCCQ.s 			page 158


 8918 1f67 01       		.uleb128 0x1
 8919 1f68 50       		.byte	0x50
 8920 1f69 01       		.uleb128 0x1
 8921 1f6a 38       		.byte	0x38
 8922 1f6b 01       		.uleb128 0x1
 8923 1f6c 01       		.uleb128 0x1
 8924 1f6d 51       		.byte	0x51
 8925 1f6e 01       		.uleb128 0x1
 8926 1f6f 3A       		.byte	0x3a
 8927 1f70 01       		.uleb128 0x1
 8928 1f71 01       		.uleb128 0x1
 8929 1f72 52       		.byte	0x52
 8930 1f73 05       		.uleb128 0x5
 8931 1f74 03       		.byte	0x3
 8932 1f75 00000000 		.4byte	spi_lld_serve_bdma_rx_interrupt
 8933 1f79 01       		.uleb128 0x1
 8934 1f7a 01       		.uleb128 0x1
 8935 1f7b 53       		.byte	0x53
 8936 1f7c 02       		.uleb128 0x2
 8937 1f7d 74       		.byte	0x74
 8938 1f7e 00       		.sleb128 0
 8939 1f7f 00       		.byte	0
 8940 1f80 06       		.uleb128 0x6
 8941 1f81 0E030000 		.4byte	.LVL215
 8942 1f85 96130000 		.4byte	0x1396
 8943 1f89 A71F0000 		.4byte	0x1fa7
 8944 1f8d 01       		.uleb128 0x1
 8945 1f8e 01       		.uleb128 0x1
 8946 1f8f 50       		.byte	0x50
 8947 1f90 01       		.uleb128 0x1
 8948 1f91 38       		.byte	0x38
 8949 1f92 01       		.uleb128 0x1
 8950 1f93 01       		.uleb128 0x1
 8951 1f94 51       		.byte	0x51
 8952 1f95 01       		.uleb128 0x1
 8953 1f96 3A       		.byte	0x3a
 8954 1f97 01       		.uleb128 0x1
 8955 1f98 01       		.uleb128 0x1
 8956 1f99 52       		.byte	0x52
 8957 1f9a 05       		.uleb128 0x5
 8958 1f9b 03       		.byte	0x3
 8959 1f9c 00000000 		.4byte	spi_lld_serve_bdma_tx_interrupt
 8960 1fa0 01       		.uleb128 0x1
 8961 1fa1 01       		.uleb128 0x1
 8962 1fa2 53       		.byte	0x53
 8963 1fa3 02       		.uleb128 0x2
 8964 1fa4 74       		.byte	0x74
 8965 1fa5 00       		.sleb128 0
 8966 1fa6 00       		.byte	0
 8967 1fa7 28       		.uleb128 0x28
 8968 1fa8 9A030000 		.4byte	.LVL225
 8969 1fac 84130000 		.4byte	0x1384
 8970 1fb0 00       		.byte	0
 8971 1fb1 07       		.uleb128 0x7
 8972 1fb2 1B390000 		.4byte	0x391b
 8973 1fb6 24030000 		.4byte	.LBI698
 8974 1fba 0100     		.2byte	.LVU1319
ARM GAS  C:\Users\DEVELO~1\AppData\Local\Temp\cc2saCCQ.s 			page 159


 8975 1fbc 24030000 		.4byte	.LBB698
 8976 1fc0 1E000000 		.4byte	.LBE698-.LBB698
 8977 1fc4 4803     		.2byte	0x348
 8978 1fc6 07       		.byte	0x7
 8979 1fc7 E61F0000 		.4byte	0x1fe6
 8980 1fcb 02       		.uleb128 0x2
 8981 1fcc 36390000 		.4byte	0x3936
 8982 1fd0 F6050000 		.4byte	.LLST136
 8983 1fd4 F4050000 		.4byte	.LVUS136
 8984 1fd8 02       		.uleb128 0x2
 8985 1fd9 29390000 		.4byte	0x3929
 8986 1fdd 02060000 		.4byte	.LLST137
 8987 1fe1 00060000 		.4byte	.LVUS137
 8988 1fe5 00       		.byte	0
 8989 1fe6 07       		.uleb128 0x7
 8990 1fe7 E3380000 		.4byte	0x38e3
 8991 1feb 42030000 		.4byte	.LBI700
 8992 1fef 0200     		.2byte	.LVU1328
 8993 1ff1 42030000 		.4byte	.LBB700
 8994 1ff5 1E000000 		.4byte	.LBE700-.LBB700
 8995 1ff9 4903     		.2byte	0x349
 8996 1ffb 07       		.byte	0x7
 8997 1ffc 33200000 		.4byte	0x2033
 8998 2000 02       		.uleb128 0x2
 8999 2001 F1380000 		.4byte	0x38f1
 9000 2005 0F060000 		.4byte	.LLST138
 9001 2009 0D060000 		.4byte	.LVUS138
 9002 200d 04       		.uleb128 0x4
 9003 200e FC390000 		.4byte	0x39fc
 9004 2012 42030000 		.4byte	.LBI702
 9005 2016 0400     		.2byte	.LVU1330
 9006 2018 42030000 		.4byte	.LBB702
 9007 201c 1C000000 		.4byte	.LBE702-.LBB702
 9008 2020 02       		.byte	0x2
 9009 2021 3F02     		.2byte	0x23f
 9010 2023 03       		.byte	0x3
 9011 2024 02       		.uleb128 0x2
 9012 2025 093A0000 		.4byte	0x3a09
 9013 2029 1C060000 		.4byte	.LLST139
 9014 202d 1A060000 		.4byte	.LVUS139
 9015 2031 00       		.byte	0
 9016 2032 00       		.byte	0
 9017 2033 06       		.uleb128 0x6
 9018 2034 4A000000 		.4byte	.LVL166
 9019 2038 F33A0000 		.4byte	0x3af3
 9020 203c 47200000 		.4byte	0x2047
 9021 2040 01       		.uleb128 0x1
 9022 2041 01       		.uleb128 0x1
 9023 2042 51       		.byte	0x51
 9024 2043 02       		.uleb128 0x2
 9025 2044 71       		.byte	0x71
 9026 2045 00       		.sleb128 0
 9027 2046 00       		.byte	0
 9028 2047 06       		.uleb128 0x6
 9029 2048 56010000 		.4byte	.LVL181
 9030 204c 1C140000 		.4byte	0x141c
 9031 2050 5B200000 		.4byte	0x205b
ARM GAS  C:\Users\DEVELO~1\AppData\Local\Temp\cc2saCCQ.s 			page 160


 9032 2054 01       		.uleb128 0x1
 9033 2055 01       		.uleb128 0x1
 9034 2056 51       		.byte	0x51
 9035 2057 02       		.uleb128 0x2
 9036 2058 08       		.byte	0x8
 9037 2059 25       		.byte	0x25
 9038 205a 00       		.byte	0
 9039 205b 06       		.uleb128 0x6
 9040 205c 5E010000 		.4byte	.LVL182
 9041 2060 1C140000 		.4byte	0x141c
 9042 2064 6F200000 		.4byte	0x206f
 9043 2068 01       		.uleb128 0x1
 9044 2069 01       		.uleb128 0x1
 9045 206a 51       		.byte	0x51
 9046 206b 02       		.uleb128 0x2
 9047 206c 08       		.byte	0x8
 9048 206d 26       		.byte	0x26
 9049 206e 00       		.byte	0
 9050 206f 06       		.uleb128 0x6
 9051 2070 CA010000 		.4byte	.LVL190
 9052 2074 1C140000 		.4byte	0x141c
 9053 2078 83200000 		.4byte	0x2083
 9054 207c 01       		.uleb128 0x1
 9055 207d 01       		.uleb128 0x1
 9056 207e 51       		.byte	0x51
 9057 207f 02       		.uleb128 0x2
 9058 2080 08       		.byte	0x8
 9059 2081 3D       		.byte	0x3d
 9060 2082 00       		.byte	0
 9061 2083 06       		.uleb128 0x6
 9062 2084 D2010000 		.4byte	.LVL191
 9063 2088 1C140000 		.4byte	0x141c
 9064 208c 97200000 		.4byte	0x2097
 9065 2090 01       		.uleb128 0x1
 9066 2091 01       		.uleb128 0x1
 9067 2092 51       		.byte	0x51
 9068 2093 02       		.uleb128 0x2
 9069 2094 08       		.byte	0x8
 9070 2095 3E       		.byte	0x3e
 9071 2096 00       		.byte	0
 9072 2097 06       		.uleb128 0x6
 9073 2098 3E020000 		.4byte	.LVL199
 9074 209c 1C140000 		.4byte	0x141c
 9075 20a0 AB200000 		.4byte	0x20ab
 9076 20a4 01       		.uleb128 0x1
 9077 20a5 01       		.uleb128 0x1
 9078 20a6 51       		.byte	0x51
 9079 20a7 02       		.uleb128 0x2
 9080 20a8 08       		.byte	0x8
 9081 20a9 27       		.byte	0x27
 9082 20aa 00       		.byte	0
 9083 20ab 06       		.uleb128 0x6
 9084 20ac 46020000 		.4byte	.LVL200
 9085 20b0 1C140000 		.4byte	0x141c
 9086 20b4 BF200000 		.4byte	0x20bf
 9087 20b8 01       		.uleb128 0x1
 9088 20b9 01       		.uleb128 0x1
ARM GAS  C:\Users\DEVELO~1\AppData\Local\Temp\cc2saCCQ.s 			page 161


 9089 20ba 51       		.byte	0x51
 9090 20bb 02       		.uleb128 0x2
 9091 20bc 08       		.byte	0x8
 9092 20bd 28       		.byte	0x28
 9093 20be 00       		.byte	0
 9094 20bf 06       		.uleb128 0x6
 9095 20c0 AE020000 		.4byte	.LVL208
 9096 20c4 1C140000 		.4byte	0x141c
 9097 20c8 D3200000 		.4byte	0x20d3
 9098 20cc 01       		.uleb128 0x1
 9099 20cd 01       		.uleb128 0x1
 9100 20ce 51       		.byte	0x51
 9101 20cf 02       		.uleb128 0x2
 9102 20d0 08       		.byte	0x8
 9103 20d1 55       		.byte	0x55
 9104 20d2 00       		.byte	0
 9105 20d3 06       		.uleb128 0x6
 9106 20d4 B6020000 		.4byte	.LVL209
 9107 20d8 1C140000 		.4byte	0x141c
 9108 20dc E7200000 		.4byte	0x20e7
 9109 20e0 01       		.uleb128 0x1
 9110 20e1 01       		.uleb128 0x1
 9111 20e2 51       		.byte	0x51
 9112 20e3 02       		.uleb128 0x2
 9113 20e4 08       		.byte	0x8
 9114 20e5 56       		.byte	0x56
 9115 20e6 00       		.byte	0
 9116 20e7 06       		.uleb128 0x6
 9117 20e8 1C030000 		.4byte	.LVL217
 9118 20ec 05140000 		.4byte	0x1405
 9119 20f0 FA200000 		.4byte	0x20fa
 9120 20f4 01       		.uleb128 0x1
 9121 20f5 01       		.uleb128 0x1
 9122 20f6 51       		.byte	0x51
 9123 20f7 01       		.uleb128 0x1
 9124 20f8 3B       		.byte	0x3b
 9125 20f9 00       		.byte	0
 9126 20fa 0D       		.uleb128 0xd
 9127 20fb 24030000 		.4byte	.LVL218
 9128 20ff 05140000 		.4byte	0x1405
 9129 2103 01       		.uleb128 0x1
 9130 2104 01       		.uleb128 0x1
 9131 2105 51       		.byte	0x51
 9132 2106 01       		.uleb128 0x1
 9133 2107 3C       		.byte	0x3c
 9134 2108 00       		.byte	0
 9135 2109 00       		.byte	0
 9136 210a 14       		.uleb128 0x14
 9137 210b 77030000 		.4byte	0x377
 9138 210f 1A210000 		.4byte	0x211a
 9139 2113 15       		.uleb128 0x15
 9140 2114 39000000 		.4byte	0x39
 9141 2118 0D       		.byte	0xd
 9142 2119 00       		.byte	0
 9143 211a 12       		.uleb128 0x12
 9144 211b 0A210000 		.4byte	0x210a
 9145 211f 27       		.uleb128 0x27
ARM GAS  C:\Users\DEVELO~1\AppData\Local\Temp\cc2saCCQ.s 			page 162


 9146 2120 EB050000 		.4byte	.LASF296
 9147 2124 4E02     		.2byte	0x24e
 9148 2126 06       		.byte	0x6
 9149 2127 00000000 		.4byte	.LFB448
 9150 212b EC000000 		.4byte	.LFE448-.LFB448
 9151 212f 01       		.uleb128 0x1
 9152 2130 9C       		.byte	0x9c
 9153 2131 13220000 		.4byte	0x2213
 9154 2135 06       		.uleb128 0x6
 9155 2136 14000000 		.4byte	.LVL152
 9156 213a 49140000 		.4byte	0x1449
 9157 213e 49210000 		.4byte	0x2149
 9158 2142 01       		.uleb128 0x1
 9159 2143 01       		.uleb128 0x1
 9160 2144 50       		.byte	0x50
 9161 2145 02       		.uleb128 0x2
 9162 2146 75       		.byte	0x75
 9163 2147 00       		.sleb128 0
 9164 2148 00       		.byte	0
 9165 2149 06       		.uleb128 0x6
 9166 214a 30000000 		.4byte	.LVL153
 9167 214e 33140000 		.4byte	0x1433
 9168 2152 62210000 		.4byte	0x2162
 9169 2156 01       		.uleb128 0x1
 9170 2157 01       		.uleb128 0x1
 9171 2158 50       		.byte	0x50
 9172 2159 02       		.uleb128 0x2
 9173 215a 08       		.byte	0x8
 9174 215b 23       		.byte	0x23
 9175 215c 01       		.uleb128 0x1
 9176 215d 01       		.uleb128 0x1
 9177 215e 51       		.byte	0x51
 9178 215f 01       		.uleb128 0x1
 9179 2160 3A       		.byte	0x3a
 9180 2161 00       		.byte	0
 9181 2162 06       		.uleb128 0x6
 9182 2163 36000000 		.4byte	.LVL154
 9183 2167 49140000 		.4byte	0x1449
 9184 216b 76210000 		.4byte	0x2176
 9185 216f 01       		.uleb128 0x1
 9186 2170 01       		.uleb128 0x1
 9187 2171 50       		.byte	0x50
 9188 2172 02       		.uleb128 0x2
 9189 2173 75       		.byte	0x75
 9190 2174 00       		.sleb128 0
 9191 2175 00       		.byte	0
 9192 2176 06       		.uleb128 0x6
 9193 2177 50000000 		.4byte	.LVL155
 9194 217b 33140000 		.4byte	0x1433
 9195 217f 8F210000 		.4byte	0x218f
 9196 2183 01       		.uleb128 0x1
 9197 2184 01       		.uleb128 0x1
 9198 2185 50       		.byte	0x50
 9199 2186 02       		.uleb128 0x2
 9200 2187 08       		.byte	0x8
 9201 2188 24       		.byte	0x24
 9202 2189 01       		.uleb128 0x1
ARM GAS  C:\Users\DEVELO~1\AppData\Local\Temp\cc2saCCQ.s 			page 163


 9203 218a 01       		.uleb128 0x1
 9204 218b 51       		.byte	0x51
 9205 218c 01       		.uleb128 0x1
 9206 218d 3A       		.byte	0x3a
 9207 218e 00       		.byte	0
 9208 218f 06       		.uleb128 0x6
 9209 2190 56000000 		.4byte	.LVL156
 9210 2194 49140000 		.4byte	0x1449
 9211 2198 A3210000 		.4byte	0x21a3
 9212 219c 01       		.uleb128 0x1
 9213 219d 01       		.uleb128 0x1
 9214 219e 50       		.byte	0x50
 9215 219f 02       		.uleb128 0x2
 9216 21a0 75       		.byte	0x75
 9217 21a1 00       		.sleb128 0
 9218 21a2 00       		.byte	0
 9219 21a3 06       		.uleb128 0x6
 9220 21a4 6E000000 		.4byte	.LVL157
 9221 21a8 33140000 		.4byte	0x1433
 9222 21ac BC210000 		.4byte	0x21bc
 9223 21b0 01       		.uleb128 0x1
 9224 21b1 01       		.uleb128 0x1
 9225 21b2 50       		.byte	0x50
 9226 21b3 02       		.uleb128 0x2
 9227 21b4 08       		.byte	0x8
 9228 21b5 33       		.byte	0x33
 9229 21b6 01       		.uleb128 0x1
 9230 21b7 01       		.uleb128 0x1
 9231 21b8 51       		.byte	0x51
 9232 21b9 01       		.uleb128 0x1
 9233 21ba 3A       		.byte	0x3a
 9234 21bb 00       		.byte	0
 9235 21bc 06       		.uleb128 0x6
 9236 21bd 74000000 		.4byte	.LVL158
 9237 21c1 49140000 		.4byte	0x1449
 9238 21c5 D0210000 		.4byte	0x21d0
 9239 21c9 01       		.uleb128 0x1
 9240 21ca 01       		.uleb128 0x1
 9241 21cb 50       		.byte	0x50
 9242 21cc 02       		.uleb128 0x2
 9243 21cd 76       		.byte	0x76
 9244 21ce 00       		.sleb128 0
 9245 21cf 00       		.byte	0
 9246 21d0 06       		.uleb128 0x6
 9247 21d1 8E000000 		.4byte	.LVL159
 9248 21d5 33140000 		.4byte	0x1433
 9249 21d9 E9210000 		.4byte	0x21e9
 9250 21dd 01       		.uleb128 0x1
 9251 21de 01       		.uleb128 0x1
 9252 21df 50       		.byte	0x50
 9253 21e0 02       		.uleb128 0x2
 9254 21e1 08       		.byte	0x8
 9255 21e2 55       		.byte	0x55
 9256 21e3 01       		.uleb128 0x1
 9257 21e4 01       		.uleb128 0x1
 9258 21e5 51       		.byte	0x51
 9259 21e6 01       		.uleb128 0x1
ARM GAS  C:\Users\DEVELO~1\AppData\Local\Temp\cc2saCCQ.s 			page 164


 9260 21e7 3A       		.byte	0x3a
 9261 21e8 00       		.byte	0
 9262 21e9 06       		.uleb128 0x6
 9263 21ea 94000000 		.4byte	.LVL160
 9264 21ee 49140000 		.4byte	0x1449
 9265 21f2 FD210000 		.4byte	0x21fd
 9266 21f6 01       		.uleb128 0x1
 9267 21f7 01       		.uleb128 0x1
 9268 21f8 50       		.byte	0x50
 9269 21f9 02       		.uleb128 0x2
 9270 21fa 75       		.byte	0x75
 9271 21fb 00       		.sleb128 0
 9272 21fc 00       		.byte	0
 9273 21fd 3D       		.uleb128 0x3d
 9274 21fe BA000000 		.4byte	.LVL161
 9275 2202 33140000 		.4byte	0x1433
 9276 2206 01       		.uleb128 0x1
 9277 2207 01       		.uleb128 0x1
 9278 2208 50       		.byte	0x50
 9279 2209 02       		.uleb128 0x2
 9280 220a 08       		.byte	0x8
 9281 220b 56       		.byte	0x56
 9282 220c 01       		.uleb128 0x1
 9283 220d 01       		.uleb128 0x1
 9284 220e 51       		.byte	0x51
 9285 220f 01       		.uleb128 0x1
 9286 2210 3A       		.byte	0x3a
 9287 2211 00       		.byte	0
 9288 2212 00       		.byte	0
 9289 2213 27       		.uleb128 0x27
 9290 2214 33050000 		.4byte	.LASF297
 9291 2218 3A02     		.2byte	0x23a
 9292 221a 01       		.byte	0x1
 9293 221b 00000000 		.4byte	.LFB447
 9294 221f 64000000 		.4byte	.LFE447-.LFB447
 9295 2223 01       		.uleb128 0x1
 9296 2224 9C       		.byte	0x9c
 9297 2225 6E240000 		.4byte	0x246e
 9298 2229 32       		.uleb128 0x32
 9299 222a 6D0E0000 		.4byte	.LASF291
 9300 222e 7E240000 		.4byte	0x247e
 9301 2232 05       		.uleb128 0x5
 9302 2233 03       		.byte	0x3
 9303 2234 00000000 		.4byte	__func__.0
 9304 2238 1C       		.uleb128 0x1c
 9305 2239 8C2E0000 		.4byte	0x2e8c
 9306 223d 0A000000 		.4byte	.LBI598
 9307 2241 0200     		.2byte	.LVU851
 9308 2243 CC000000 		.4byte	.LLRL87
 9309 2247 3E02     		.2byte	0x23e
 9310 2249 03       		.byte	0x3
 9311 224a 16240000 		.4byte	0x2416
 9312 224e 02       		.uleb128 0x2
 9313 224f 9A2E0000 		.4byte	0x2e9a
 9314 2253 2B060000 		.4byte	.LLST88
 9315 2257 27060000 		.4byte	.LVUS88
 9316 225b 33       		.uleb128 0x33
ARM GAS  C:\Users\DEVELO~1\AppData\Local\Temp\cc2saCCQ.s 			page 165


 9317 225c CC000000 		.4byte	.LLRL87
 9318 2260 34       		.uleb128 0x34
 9319 2261 A72E0000 		.4byte	0x2ea7
 9320 2265 4B060000 		.4byte	.LLST89
 9321 2269 45060000 		.4byte	.LVUS89
 9322 226d 04       		.uleb128 0x4
 9323 226e 8C2E0000 		.4byte	0x2e8c
 9324 2272 26000000 		.4byte	.LBI600
 9325 2276 0000     		.2byte	.LVU873
 9326 2278 26000000 		.4byte	.LBB600
 9327 227c 24000000 		.4byte	.LBE600-.LBB600
 9328 2280 01       		.byte	0x1
 9329 2281 7301     		.2byte	0x173
 9330 2283 0D       		.byte	0xd
 9331 2284 02       		.uleb128 0x2
 9332 2285 9A2E0000 		.4byte	0x2e9a
 9333 2289 64060000 		.4byte	.LLST90
 9334 228d 62060000 		.4byte	.LVUS90
 9335 2291 35       		.uleb128 0x35
 9336 2292 A72E0000 		.4byte	0x2ea7
 9337 2296 07       		.uleb128 0x7
 9338 2297 7C3A0000 		.4byte	0x3a7c
 9339 229b 36000000 		.4byte	.LBI602
 9340 229f 0100     		.2byte	.LVU878
 9341 22a1 36000000 		.4byte	.LBB602
 9342 22a5 06000000 		.4byte	.LBE602-.LBB602
 9343 22a9 7F01     		.2byte	0x17f
 9344 22ab 05       		.byte	0x5
 9345 22ac 1E230000 		.4byte	0x231e
 9346 22b0 04       		.uleb128 0x4
 9347 22b1 AA3A0000 		.4byte	0x3aaa
 9348 22b5 36000000 		.4byte	.LBI603
 9349 22b9 0300     		.2byte	.LVU880
 9350 22bb 36000000 		.4byte	.LBB603
 9351 22bf 06000000 		.4byte	.LBE603-.LBB603
 9352 22c3 03       		.byte	0x3
 9353 22c4 5502     		.2byte	0x255
 9354 22c6 03       		.byte	0x3
 9355 22c7 04       		.uleb128 0x4
 9356 22c8 BC3A0000 		.4byte	0x3abc
 9357 22cc 36000000 		.4byte	.LBI604
 9358 22d0 0500     		.2byte	.LVU882
 9359 22d2 36000000 		.4byte	.LBB604
 9360 22d6 06000000 		.4byte	.LBE604-.LBB604
 9361 22da 04       		.byte	0x4
 9362 22db C501     		.2byte	0x1c5
 9363 22dd 03       		.byte	0x3
 9364 22de 04       		.uleb128 0x4
 9365 22df CE3A0000 		.4byte	0x3ace
 9366 22e3 36000000 		.4byte	.LBI605
 9367 22e7 0700     		.2byte	.LVU884
 9368 22e9 36000000 		.4byte	.LBB605
 9369 22ed 06000000 		.4byte	.LBE605-.LBB605
 9370 22f1 05       		.byte	0x5
 9371 22f2 4F03     		.2byte	0x34f
 9372 22f4 03       		.byte	0x3
 9373 22f5 04       		.uleb128 0x4
ARM GAS  C:\Users\DEVELO~1\AppData\Local\Temp\cc2saCCQ.s 			page 166


 9374 22f6 D73A0000 		.4byte	0x3ad7
 9375 22fa 36000000 		.4byte	.LBI606
 9376 22fe 0900     		.2byte	.LVU886
 9377 2300 36000000 		.4byte	.LBB606
 9378 2304 06000000 		.4byte	.LBE606-.LBB606
 9379 2308 05       		.byte	0x5
 9380 2309 2E03     		.2byte	0x32e
 9381 230b 03       		.byte	0x3
 9382 230c 02       		.uleb128 0x2
 9383 230d E53A0000 		.4byte	0x3ae5
 9384 2311 74060000 		.4byte	.LLST91
 9385 2315 72060000 		.4byte	.LVUS91
 9386 2319 00       		.byte	0
 9387 231a 00       		.byte	0
 9388 231b 00       		.byte	0
 9389 231c 00       		.byte	0
 9390 231d 00       		.byte	0
 9391 231e 07       		.uleb128 0x7
 9392 231f 4A3A0000 		.4byte	0x3a4a
 9393 2323 3C000000 		.4byte	.LBI608
 9394 2327 0400     		.2byte	.LVU892
 9395 2329 3C000000 		.4byte	.LBB608
 9396 232d 08000000 		.4byte	.LBE608-.LBB608
 9397 2331 7F01     		.2byte	0x17f
 9398 2333 05       		.byte	0x5
 9399 2334 6B230000 		.4byte	0x236b
 9400 2338 02       		.uleb128 0x2
 9401 2339 653A0000 		.4byte	0x3a65
 9402 233d 81060000 		.4byte	.LLST92
 9403 2341 7F060000 		.4byte	.LVUS92
 9404 2345 02       		.uleb128 0x2
 9405 2346 583A0000 		.4byte	0x3a58
 9406 234a 8D060000 		.4byte	.LLST93
 9407 234e 8B060000 		.4byte	.LVUS93
 9408 2352 0D       		.uleb128 0xd
 9409 2353 44000000 		.4byte	.LVL148
 9410 2357 5B140000 		.4byte	0x145b
 9411 235b 01       		.uleb128 0x1
 9412 235c 01       		.uleb128 0x1
 9413 235d 50       		.byte	0x50
 9414 235e 05       		.uleb128 0x5
 9415 235f 03       		.byte	0x3
 9416 2360 08000000 		.4byte	.LANCHOR4+8
 9417 2364 01       		.uleb128 0x1
 9418 2365 01       		.uleb128 0x1
 9419 2366 51       		.byte	0x51
 9420 2367 01       		.uleb128 0x1
 9421 2368 30       		.byte	0x30
 9422 2369 00       		.byte	0
 9423 236a 00       		.byte	0
 9424 236b 07       		.uleb128 0x7
 9425 236c 733A0000 		.4byte	0x3a73
 9426 2370 44000000 		.4byte	.LBI610
 9427 2374 0200     		.2byte	.LVU896
 9428 2376 44000000 		.4byte	.LBB610
 9429 237a 06000000 		.4byte	.LBE610-.LBB610
 9430 237e 7F01     		.2byte	0x17f
ARM GAS  C:\Users\DEVELO~1\AppData\Local\Temp\cc2saCCQ.s 			page 167


 9431 2380 05       		.byte	0x5
 9432 2381 F3230000 		.4byte	0x23f3
 9433 2385 04       		.uleb128 0x4
 9434 2386 A13A0000 		.4byte	0x3aa1
 9435 238a 44000000 		.4byte	.LBI611
 9436 238e 0400     		.2byte	.LVU898
 9437 2390 44000000 		.4byte	.LBB611
 9438 2394 06000000 		.4byte	.LBE611-.LBB611
 9439 2398 03       		.byte	0x3
 9440 2399 6002     		.2byte	0x260
 9441 239b 03       		.byte	0x3
 9442 239c 04       		.uleb128 0x4
 9443 239d B33A0000 		.4byte	0x3ab3
 9444 23a1 44000000 		.4byte	.LBI612
 9445 23a5 0800     		.2byte	.LVU902
 9446 23a7 44000000 		.4byte	.LBB612
 9447 23ab 06000000 		.4byte	.LBE612-.LBB612
 9448 23af 04       		.byte	0x4
 9449 23b0 DD01     		.2byte	0x1dd
 9450 23b2 03       		.byte	0x3
 9451 23b3 04       		.uleb128 0x4
 9452 23b4 C53A0000 		.4byte	0x3ac5
 9453 23b8 44000000 		.4byte	.LBI613
 9454 23bc 0A00     		.2byte	.LVU904
 9455 23be 44000000 		.4byte	.LBB613
 9456 23c2 06000000 		.4byte	.LBE613-.LBB613
 9457 23c6 05       		.byte	0x5
 9458 23c7 5A03     		.2byte	0x35a
 9459 23c9 03       		.byte	0x3
 9460 23ca 04       		.uleb128 0x4
 9461 23cb D73A0000 		.4byte	0x3ad7
 9462 23cf 44000000 		.4byte	.LBI614
 9463 23d3 0C00     		.2byte	.LVU906
 9464 23d5 44000000 		.4byte	.LBB614
 9465 23d9 06000000 		.4byte	.LBE614-.LBB614
 9466 23dd 05       		.byte	0x5
 9467 23de 4103     		.2byte	0x341
 9468 23e0 03       		.byte	0x3
 9469 23e1 02       		.uleb128 0x2
 9470 23e2 E53A0000 		.4byte	0x3ae5
 9471 23e6 9D060000 		.4byte	.LLST94
 9472 23ea 9B060000 		.4byte	.LVUS94
 9473 23ee 00       		.byte	0
 9474 23ef 00       		.byte	0
 9475 23f0 00       		.byte	0
 9476 23f1 00       		.byte	0
 9477 23f2 00       		.byte	0
 9478 23f3 06       		.uleb128 0x6
 9479 23f4 2C000000 		.4byte	.LVL145
 9480 23f8 84360000 		.4byte	0x3684
 9481 23fc 07240000 		.4byte	0x2407
 9482 2400 01       		.uleb128 0x1
 9483 2401 01       		.uleb128 0x1
 9484 2402 50       		.byte	0x50
 9485 2403 02       		.uleb128 0x2
 9486 2404 74       		.byte	0x74
 9487 2405 00       		.sleb128 0
ARM GAS  C:\Users\DEVELO~1\AppData\Local\Temp\cc2saCCQ.s 			page 168


 9488 2406 00       		.byte	0
 9489 2407 20       		.uleb128 0x20
 9490 2408 36000000 		.4byte	.LVL146
 9491 240c 01       		.uleb128 0x1
 9492 240d 01       		.uleb128 0x1
 9493 240e 50       		.byte	0x50
 9494 240f 02       		.uleb128 0x2
 9495 2410 74       		.byte	0x74
 9496 2411 00       		.sleb128 0
 9497 2412 00       		.byte	0
 9498 2413 00       		.byte	0
 9499 2414 00       		.byte	0
 9500 2415 00       		.byte	0
 9501 2416 06       		.uleb128 0x6
 9502 2417 0A000000 		.4byte	.LVL139
 9503 241b 8C140000 		.4byte	0x148c
 9504 241f 2D240000 		.4byte	0x242d
 9505 2423 01       		.uleb128 0x1
 9506 2424 01       		.uleb128 0x1
 9507 2425 50       		.byte	0x50
 9508 2426 05       		.uleb128 0x5
 9509 2427 03       		.byte	0x3
 9510 2428 00000000 		.4byte	.LANCHOR9
 9511 242c 00       		.byte	0
 9512 242d 06       		.uleb128 0x6
 9513 242e 1E000000 		.4byte	.LVL143
 9514 2432 7B140000 		.4byte	0x147b
 9515 2436 44240000 		.4byte	0x2444
 9516 243a 01       		.uleb128 0x1
 9517 243b 01       		.uleb128 0x1
 9518 243c 50       		.byte	0x50
 9519 243d 05       		.uleb128 0x5
 9520 243e 03       		.byte	0x3
 9521 243f 00000000 		.4byte	.LANCHOR9
 9522 2443 00       		.byte	0
 9523 2444 18       		.uleb128 0x18
 9524 2445 26000000 		.4byte	.LVL144
 9525 2449 72140000 		.4byte	0x1472
 9526 244d 06       		.uleb128 0x6
 9527 244e 50000000 		.4byte	.LVL150
 9528 2452 7B140000 		.4byte	0x147b
 9529 2456 64240000 		.4byte	0x2464
 9530 245a 01       		.uleb128 0x1
 9531 245b 01       		.uleb128 0x1
 9532 245c 50       		.byte	0x50
 9533 245d 05       		.uleb128 0x5
 9534 245e 03       		.byte	0x3
 9535 245f 00000000 		.4byte	.LANCHOR9
 9536 2463 00       		.byte	0
 9537 2464 18       		.uleb128 0x18
 9538 2465 58000000 		.4byte	.LVL151
 9539 2469 72140000 		.4byte	0x1472
 9540 246d 00       		.byte	0
 9541 246e 14       		.uleb128 0x14
 9542 246f 77030000 		.4byte	0x377
 9543 2473 7E240000 		.4byte	0x247e
 9544 2477 15       		.uleb128 0x15
ARM GAS  C:\Users\DEVELO~1\AppData\Local\Temp\cc2saCCQ.s 			page 169


 9545 2478 39000000 		.4byte	0x39
 9546 247c 09       		.byte	0x9
 9547 247d 00       		.byte	0
 9548 247e 12       		.uleb128 0x12
 9549 247f 6E240000 		.4byte	0x246e
 9550 2483 27       		.uleb128 0x27
 9551 2484 0E050000 		.4byte	.LASF298
 9552 2488 2502     		.2byte	0x225
 9553 248a 01       		.byte	0x1
 9554 248b 00000000 		.4byte	.LFB446
 9555 248f 64000000 		.4byte	.LFE446-.LFB446
 9556 2493 01       		.uleb128 0x1
 9557 2494 9C       		.byte	0x9c
 9558 2495 DE260000 		.4byte	0x26de
 9559 2499 32       		.uleb128 0x32
 9560 249a 6D0E0000 		.4byte	.LASF291
 9561 249e 7E240000 		.4byte	0x247e
 9562 24a2 05       		.uleb128 0x5
 9563 24a3 03       		.byte	0x3
 9564 24a4 00000000 		.4byte	__func__.1
 9565 24a8 1C       		.uleb128 0x1c
 9566 24a9 8C2E0000 		.4byte	0x2e8c
 9567 24ad 0A000000 		.4byte	.LBI557
 9568 24b1 0200     		.2byte	.LVU769
 9569 24b3 BD000000 		.4byte	.LLRL79
 9570 24b7 2902     		.2byte	0x229
 9571 24b9 03       		.byte	0x3
 9572 24ba 86260000 		.4byte	0x2686
 9573 24be 02       		.uleb128 0x2
 9574 24bf 9A2E0000 		.4byte	0x2e9a
 9575 24c3 AB060000 		.4byte	.LLST80
 9576 24c7 A7060000 		.4byte	.LVUS80
 9577 24cb 33       		.uleb128 0x33
 9578 24cc BD000000 		.4byte	.LLRL79
 9579 24d0 34       		.uleb128 0x34
 9580 24d1 A72E0000 		.4byte	0x2ea7
 9581 24d5 CB060000 		.4byte	.LLST81
 9582 24d9 C5060000 		.4byte	.LVUS81
 9583 24dd 04       		.uleb128 0x4
 9584 24de 8C2E0000 		.4byte	0x2e8c
 9585 24e2 26000000 		.4byte	.LBI559
 9586 24e6 0000     		.2byte	.LVU791
 9587 24e8 26000000 		.4byte	.LBB559
 9588 24ec 24000000 		.4byte	.LBE559-.LBB559
 9589 24f0 01       		.byte	0x1
 9590 24f1 7301     		.2byte	0x173
 9591 24f3 0D       		.byte	0xd
 9592 24f4 02       		.uleb128 0x2
 9593 24f5 9A2E0000 		.4byte	0x2e9a
 9594 24f9 E4060000 		.4byte	.LLST82
 9595 24fd E2060000 		.4byte	.LVUS82
 9596 2501 35       		.uleb128 0x35
 9597 2502 A72E0000 		.4byte	0x2ea7
 9598 2506 07       		.uleb128 0x7
 9599 2507 7C3A0000 		.4byte	0x3a7c
 9600 250b 36000000 		.4byte	.LBI561
 9601 250f 0100     		.2byte	.LVU796
ARM GAS  C:\Users\DEVELO~1\AppData\Local\Temp\cc2saCCQ.s 			page 170


 9602 2511 36000000 		.4byte	.LBB561
 9603 2515 06000000 		.4byte	.LBE561-.LBB561
 9604 2519 7F01     		.2byte	0x17f
 9605 251b 05       		.byte	0x5
 9606 251c 8E250000 		.4byte	0x258e
 9607 2520 04       		.uleb128 0x4
 9608 2521 AA3A0000 		.4byte	0x3aaa
 9609 2525 36000000 		.4byte	.LBI562
 9610 2529 0300     		.2byte	.LVU798
 9611 252b 36000000 		.4byte	.LBB562
 9612 252f 06000000 		.4byte	.LBE562-.LBB562
 9613 2533 03       		.byte	0x3
 9614 2534 5502     		.2byte	0x255
 9615 2536 03       		.byte	0x3
 9616 2537 04       		.uleb128 0x4
 9617 2538 BC3A0000 		.4byte	0x3abc
 9618 253c 36000000 		.4byte	.LBI563
 9619 2540 0500     		.2byte	.LVU800
 9620 2542 36000000 		.4byte	.LBB563
 9621 2546 06000000 		.4byte	.LBE563-.LBB563
 9622 254a 04       		.byte	0x4
 9623 254b C501     		.2byte	0x1c5
 9624 254d 03       		.byte	0x3
 9625 254e 04       		.uleb128 0x4
 9626 254f CE3A0000 		.4byte	0x3ace
 9627 2553 36000000 		.4byte	.LBI564
 9628 2557 0700     		.2byte	.LVU802
 9629 2559 36000000 		.4byte	.LBB564
 9630 255d 06000000 		.4byte	.LBE564-.LBB564
 9631 2561 05       		.byte	0x5
 9632 2562 4F03     		.2byte	0x34f
 9633 2564 03       		.byte	0x3
 9634 2565 04       		.uleb128 0x4
 9635 2566 D73A0000 		.4byte	0x3ad7
 9636 256a 36000000 		.4byte	.LBI565
 9637 256e 0900     		.2byte	.LVU804
 9638 2570 36000000 		.4byte	.LBB565
 9639 2574 06000000 		.4byte	.LBE565-.LBB565
 9640 2578 05       		.byte	0x5
 9641 2579 2E03     		.2byte	0x32e
 9642 257b 03       		.byte	0x3
 9643 257c 02       		.uleb128 0x2
 9644 257d E53A0000 		.4byte	0x3ae5
 9645 2581 F4060000 		.4byte	.LLST83
 9646 2585 F2060000 		.4byte	.LVUS83
 9647 2589 00       		.byte	0
 9648 258a 00       		.byte	0
 9649 258b 00       		.byte	0
 9650 258c 00       		.byte	0
 9651 258d 00       		.byte	0
 9652 258e 07       		.uleb128 0x7
 9653 258f 4A3A0000 		.4byte	0x3a4a
 9654 2593 3C000000 		.4byte	.LBI567
 9655 2597 0400     		.2byte	.LVU810
 9656 2599 3C000000 		.4byte	.LBB567
 9657 259d 08000000 		.4byte	.LBE567-.LBB567
 9658 25a1 7F01     		.2byte	0x17f
ARM GAS  C:\Users\DEVELO~1\AppData\Local\Temp\cc2saCCQ.s 			page 171


 9659 25a3 05       		.byte	0x5
 9660 25a4 DB250000 		.4byte	0x25db
 9661 25a8 02       		.uleb128 0x2
 9662 25a9 653A0000 		.4byte	0x3a65
 9663 25ad 01070000 		.4byte	.LLST84
 9664 25b1 FF060000 		.4byte	.LVUS84
 9665 25b5 02       		.uleb128 0x2
 9666 25b6 583A0000 		.4byte	0x3a58
 9667 25ba 0D070000 		.4byte	.LLST85
 9668 25be 0B070000 		.4byte	.LVUS85
 9669 25c2 0D       		.uleb128 0xd
 9670 25c3 44000000 		.4byte	.LVL135
 9671 25c7 5B140000 		.4byte	0x145b
 9672 25cb 01       		.uleb128 0x1
 9673 25cc 01       		.uleb128 0x1
 9674 25cd 50       		.byte	0x50
 9675 25ce 05       		.uleb128 0x5
 9676 25cf 03       		.byte	0x3
 9677 25d0 08000000 		.4byte	.LANCHOR3+8
 9678 25d4 01       		.uleb128 0x1
 9679 25d5 01       		.uleb128 0x1
 9680 25d6 51       		.byte	0x51
 9681 25d7 01       		.uleb128 0x1
 9682 25d8 30       		.byte	0x30
 9683 25d9 00       		.byte	0
 9684 25da 00       		.byte	0
 9685 25db 07       		.uleb128 0x7
 9686 25dc 733A0000 		.4byte	0x3a73
 9687 25e0 44000000 		.4byte	.LBI569
 9688 25e4 0200     		.2byte	.LVU814
 9689 25e6 44000000 		.4byte	.LBB569
 9690 25ea 06000000 		.4byte	.LBE569-.LBB569
 9691 25ee 7F01     		.2byte	0x17f
 9692 25f0 05       		.byte	0x5
 9693 25f1 63260000 		.4byte	0x2663
 9694 25f5 04       		.uleb128 0x4
 9695 25f6 A13A0000 		.4byte	0x3aa1
 9696 25fa 44000000 		.4byte	.LBI570
 9697 25fe 0400     		.2byte	.LVU816
 9698 2600 44000000 		.4byte	.LBB570
 9699 2604 06000000 		.4byte	.LBE570-.LBB570
 9700 2608 03       		.byte	0x3
 9701 2609 6002     		.2byte	0x260
 9702 260b 03       		.byte	0x3
 9703 260c 04       		.uleb128 0x4
 9704 260d B33A0000 		.4byte	0x3ab3
 9705 2611 44000000 		.4byte	.LBI571
 9706 2615 0800     		.2byte	.LVU820
 9707 2617 44000000 		.4byte	.LBB571
 9708 261b 06000000 		.4byte	.LBE571-.LBB571
 9709 261f 04       		.byte	0x4
 9710 2620 DD01     		.2byte	0x1dd
 9711 2622 03       		.byte	0x3
 9712 2623 04       		.uleb128 0x4
 9713 2624 C53A0000 		.4byte	0x3ac5
 9714 2628 44000000 		.4byte	.LBI572
 9715 262c 0A00     		.2byte	.LVU822
ARM GAS  C:\Users\DEVELO~1\AppData\Local\Temp\cc2saCCQ.s 			page 172


 9716 262e 44000000 		.4byte	.LBB572
 9717 2632 06000000 		.4byte	.LBE572-.LBB572
 9718 2636 05       		.byte	0x5
 9719 2637 5A03     		.2byte	0x35a
 9720 2639 03       		.byte	0x3
 9721 263a 04       		.uleb128 0x4
 9722 263b D73A0000 		.4byte	0x3ad7
 9723 263f 44000000 		.4byte	.LBI573
 9724 2643 0C00     		.2byte	.LVU824
 9725 2645 44000000 		.4byte	.LBB573
 9726 2649 06000000 		.4byte	.LBE573-.LBB573
 9727 264d 05       		.byte	0x5
 9728 264e 4103     		.2byte	0x341
 9729 2650 03       		.byte	0x3
 9730 2651 02       		.uleb128 0x2
 9731 2652 E53A0000 		.4byte	0x3ae5
 9732 2656 1D070000 		.4byte	.LLST86
 9733 265a 1B070000 		.4byte	.LVUS86
 9734 265e 00       		.byte	0
 9735 265f 00       		.byte	0
 9736 2660 00       		.byte	0
 9737 2661 00       		.byte	0
 9738 2662 00       		.byte	0
 9739 2663 06       		.uleb128 0x6
 9740 2664 2C000000 		.4byte	.LVL132
 9741 2668 84360000 		.4byte	0x3684
 9742 266c 77260000 		.4byte	0x2677
 9743 2670 01       		.uleb128 0x1
 9744 2671 01       		.uleb128 0x1
 9745 2672 50       		.byte	0x50
 9746 2673 02       		.uleb128 0x2
 9747 2674 74       		.byte	0x74
 9748 2675 00       		.sleb128 0
 9749 2676 00       		.byte	0
 9750 2677 20       		.uleb128 0x20
 9751 2678 36000000 		.4byte	.LVL133
 9752 267c 01       		.uleb128 0x1
 9753 267d 01       		.uleb128 0x1
 9754 267e 50       		.byte	0x50
 9755 267f 02       		.uleb128 0x2
 9756 2680 74       		.byte	0x74
 9757 2681 00       		.sleb128 0
 9758 2682 00       		.byte	0
 9759 2683 00       		.byte	0
 9760 2684 00       		.byte	0
 9761 2685 00       		.byte	0
 9762 2686 06       		.uleb128 0x6
 9763 2687 0A000000 		.4byte	.LVL126
 9764 268b 8C140000 		.4byte	0x148c
 9765 268f 9D260000 		.4byte	0x269d
 9766 2693 01       		.uleb128 0x1
 9767 2694 01       		.uleb128 0x1
 9768 2695 50       		.byte	0x50
 9769 2696 05       		.uleb128 0x5
 9770 2697 03       		.byte	0x3
 9771 2698 00000000 		.4byte	.LANCHOR8
 9772 269c 00       		.byte	0
ARM GAS  C:\Users\DEVELO~1\AppData\Local\Temp\cc2saCCQ.s 			page 173


 9773 269d 06       		.uleb128 0x6
 9774 269e 1E000000 		.4byte	.LVL130
 9775 26a2 7B140000 		.4byte	0x147b
 9776 26a6 B4260000 		.4byte	0x26b4
 9777 26aa 01       		.uleb128 0x1
 9778 26ab 01       		.uleb128 0x1
 9779 26ac 50       		.byte	0x50
 9780 26ad 05       		.uleb128 0x5
 9781 26ae 03       		.byte	0x3
 9782 26af 00000000 		.4byte	.LANCHOR8
 9783 26b3 00       		.byte	0
 9784 26b4 18       		.uleb128 0x18
 9785 26b5 26000000 		.4byte	.LVL131
 9786 26b9 72140000 		.4byte	0x1472
 9787 26bd 06       		.uleb128 0x6
 9788 26be 50000000 		.4byte	.LVL137
 9789 26c2 7B140000 		.4byte	0x147b
 9790 26c6 D4260000 		.4byte	0x26d4
 9791 26ca 01       		.uleb128 0x1
 9792 26cb 01       		.uleb128 0x1
 9793 26cc 50       		.byte	0x50
 9794 26cd 05       		.uleb128 0x5
 9795 26ce 03       		.byte	0x3
 9796 26cf 00000000 		.4byte	.LANCHOR8
 9797 26d3 00       		.byte	0
 9798 26d4 18       		.uleb128 0x18
 9799 26d5 58000000 		.4byte	.LVL138
 9800 26d9 72140000 		.4byte	0x1472
 9801 26dd 00       		.byte	0
 9802 26de 27       		.uleb128 0x27
 9803 26df C8070000 		.4byte	.LASF299
 9804 26e3 FB01     		.2byte	0x1fb
 9805 26e5 01       		.byte	0x1
 9806 26e6 00000000 		.4byte	.LFB445
 9807 26ea 64000000 		.4byte	.LFE445-.LFB445
 9808 26ee 01       		.uleb128 0x1
 9809 26ef 9C       		.byte	0x9c
 9810 26f0 39290000 		.4byte	0x2939
 9811 26f4 32       		.uleb128 0x32
 9812 26f5 6D0E0000 		.4byte	.LASF291
 9813 26f9 7E240000 		.4byte	0x247e
 9814 26fd 05       		.uleb128 0x5
 9815 26fe 03       		.byte	0x3
 9816 26ff 00000000 		.4byte	__func__.2
 9817 2703 1C       		.uleb128 0x1c
 9818 2704 8C2E0000 		.4byte	0x2e8c
 9819 2708 0A000000 		.4byte	.LBI516
 9820 270c 0200     		.2byte	.LVU687
 9821 270e AE000000 		.4byte	.LLRL71
 9822 2712 FF01     		.2byte	0x1ff
 9823 2714 03       		.byte	0x3
 9824 2715 E1280000 		.4byte	0x28e1
 9825 2719 02       		.uleb128 0x2
 9826 271a 9A2E0000 		.4byte	0x2e9a
 9827 271e 2B070000 		.4byte	.LLST72
 9828 2722 27070000 		.4byte	.LVUS72
 9829 2726 33       		.uleb128 0x33
ARM GAS  C:\Users\DEVELO~1\AppData\Local\Temp\cc2saCCQ.s 			page 174


 9830 2727 AE000000 		.4byte	.LLRL71
 9831 272b 34       		.uleb128 0x34
 9832 272c A72E0000 		.4byte	0x2ea7
 9833 2730 4B070000 		.4byte	.LLST73
 9834 2734 45070000 		.4byte	.LVUS73
 9835 2738 04       		.uleb128 0x4
 9836 2739 8C2E0000 		.4byte	0x2e8c
 9837 273d 26000000 		.4byte	.LBI518
 9838 2741 0000     		.2byte	.LVU709
 9839 2743 26000000 		.4byte	.LBB518
 9840 2747 24000000 		.4byte	.LBE518-.LBB518
 9841 274b 01       		.byte	0x1
 9842 274c 7301     		.2byte	0x173
 9843 274e 0D       		.byte	0xd
 9844 274f 02       		.uleb128 0x2
 9845 2750 9A2E0000 		.4byte	0x2e9a
 9846 2754 64070000 		.4byte	.LLST74
 9847 2758 62070000 		.4byte	.LVUS74
 9848 275c 35       		.uleb128 0x35
 9849 275d A72E0000 		.4byte	0x2ea7
 9850 2761 07       		.uleb128 0x7
 9851 2762 7C3A0000 		.4byte	0x3a7c
 9852 2766 36000000 		.4byte	.LBI520
 9853 276a 0100     		.2byte	.LVU714
 9854 276c 36000000 		.4byte	.LBB520
 9855 2770 06000000 		.4byte	.LBE520-.LBB520
 9856 2774 7F01     		.2byte	0x17f
 9857 2776 05       		.byte	0x5
 9858 2777 E9270000 		.4byte	0x27e9
 9859 277b 04       		.uleb128 0x4
 9860 277c AA3A0000 		.4byte	0x3aaa
 9861 2780 36000000 		.4byte	.LBI521
 9862 2784 0300     		.2byte	.LVU716
 9863 2786 36000000 		.4byte	.LBB521
 9864 278a 06000000 		.4byte	.LBE521-.LBB521
 9865 278e 03       		.byte	0x3
 9866 278f 5502     		.2byte	0x255
 9867 2791 03       		.byte	0x3
 9868 2792 04       		.uleb128 0x4
 9869 2793 BC3A0000 		.4byte	0x3abc
 9870 2797 36000000 		.4byte	.LBI522
 9871 279b 0500     		.2byte	.LVU718
 9872 279d 36000000 		.4byte	.LBB522
 9873 27a1 06000000 		.4byte	.LBE522-.LBB522
 9874 27a5 04       		.byte	0x4
 9875 27a6 C501     		.2byte	0x1c5
 9876 27a8 03       		.byte	0x3
 9877 27a9 04       		.uleb128 0x4
 9878 27aa CE3A0000 		.4byte	0x3ace
 9879 27ae 36000000 		.4byte	.LBI523
 9880 27b2 0700     		.2byte	.LVU720
 9881 27b4 36000000 		.4byte	.LBB523
 9882 27b8 06000000 		.4byte	.LBE523-.LBB523
 9883 27bc 05       		.byte	0x5
 9884 27bd 4F03     		.2byte	0x34f
 9885 27bf 03       		.byte	0x3
 9886 27c0 04       		.uleb128 0x4
ARM GAS  C:\Users\DEVELO~1\AppData\Local\Temp\cc2saCCQ.s 			page 175


 9887 27c1 D73A0000 		.4byte	0x3ad7
 9888 27c5 36000000 		.4byte	.LBI524
 9889 27c9 0900     		.2byte	.LVU722
 9890 27cb 36000000 		.4byte	.LBB524
 9891 27cf 06000000 		.4byte	.LBE524-.LBB524
 9892 27d3 05       		.byte	0x5
 9893 27d4 2E03     		.2byte	0x32e
 9894 27d6 03       		.byte	0x3
 9895 27d7 02       		.uleb128 0x2
 9896 27d8 E53A0000 		.4byte	0x3ae5
 9897 27dc 74070000 		.4byte	.LLST75
 9898 27e0 72070000 		.4byte	.LVUS75
 9899 27e4 00       		.byte	0
 9900 27e5 00       		.byte	0
 9901 27e6 00       		.byte	0
 9902 27e7 00       		.byte	0
 9903 27e8 00       		.byte	0
 9904 27e9 07       		.uleb128 0x7
 9905 27ea 4A3A0000 		.4byte	0x3a4a
 9906 27ee 3C000000 		.4byte	.LBI526
 9907 27f2 0400     		.2byte	.LVU728
 9908 27f4 3C000000 		.4byte	.LBB526
 9909 27f8 08000000 		.4byte	.LBE526-.LBB526
 9910 27fc 7F01     		.2byte	0x17f
 9911 27fe 05       		.byte	0x5
 9912 27ff 36280000 		.4byte	0x2836
 9913 2803 02       		.uleb128 0x2
 9914 2804 653A0000 		.4byte	0x3a65
 9915 2808 81070000 		.4byte	.LLST76
 9916 280c 7F070000 		.4byte	.LVUS76
 9917 2810 02       		.uleb128 0x2
 9918 2811 583A0000 		.4byte	0x3a58
 9919 2815 8D070000 		.4byte	.LLST77
 9920 2819 8B070000 		.4byte	.LVUS77
 9921 281d 0D       		.uleb128 0xd
 9922 281e 44000000 		.4byte	.LVL122
 9923 2822 5B140000 		.4byte	0x145b
 9924 2826 01       		.uleb128 0x1
 9925 2827 01       		.uleb128 0x1
 9926 2828 50       		.byte	0x50
 9927 2829 05       		.uleb128 0x5
 9928 282a 03       		.byte	0x3
 9929 282b 08000000 		.4byte	.LANCHOR2+8
 9930 282f 01       		.uleb128 0x1
 9931 2830 01       		.uleb128 0x1
 9932 2831 51       		.byte	0x51
 9933 2832 01       		.uleb128 0x1
 9934 2833 30       		.byte	0x30
 9935 2834 00       		.byte	0
 9936 2835 00       		.byte	0
 9937 2836 07       		.uleb128 0x7
 9938 2837 733A0000 		.4byte	0x3a73
 9939 283b 44000000 		.4byte	.LBI528
 9940 283f 0200     		.2byte	.LVU732
 9941 2841 44000000 		.4byte	.LBB528
 9942 2845 06000000 		.4byte	.LBE528-.LBB528
 9943 2849 7F01     		.2byte	0x17f
ARM GAS  C:\Users\DEVELO~1\AppData\Local\Temp\cc2saCCQ.s 			page 176


 9944 284b 05       		.byte	0x5
 9945 284c BE280000 		.4byte	0x28be
 9946 2850 04       		.uleb128 0x4
 9947 2851 A13A0000 		.4byte	0x3aa1
 9948 2855 44000000 		.4byte	.LBI529
 9949 2859 0400     		.2byte	.LVU734
 9950 285b 44000000 		.4byte	.LBB529
 9951 285f 06000000 		.4byte	.LBE529-.LBB529
 9952 2863 03       		.byte	0x3
 9953 2864 6002     		.2byte	0x260
 9954 2866 03       		.byte	0x3
 9955 2867 04       		.uleb128 0x4
 9956 2868 B33A0000 		.4byte	0x3ab3
 9957 286c 44000000 		.4byte	.LBI530
 9958 2870 0800     		.2byte	.LVU738
 9959 2872 44000000 		.4byte	.LBB530
 9960 2876 06000000 		.4byte	.LBE530-.LBB530
 9961 287a 04       		.byte	0x4
 9962 287b DD01     		.2byte	0x1dd
 9963 287d 03       		.byte	0x3
 9964 287e 04       		.uleb128 0x4
 9965 287f C53A0000 		.4byte	0x3ac5
 9966 2883 44000000 		.4byte	.LBI531
 9967 2887 0A00     		.2byte	.LVU740
 9968 2889 44000000 		.4byte	.LBB531
 9969 288d 06000000 		.4byte	.LBE531-.LBB531
 9970 2891 05       		.byte	0x5
 9971 2892 5A03     		.2byte	0x35a
 9972 2894 03       		.byte	0x3
 9973 2895 04       		.uleb128 0x4
 9974 2896 D73A0000 		.4byte	0x3ad7
 9975 289a 44000000 		.4byte	.LBI532
 9976 289e 0C00     		.2byte	.LVU742
 9977 28a0 44000000 		.4byte	.LBB532
 9978 28a4 06000000 		.4byte	.LBE532-.LBB532
 9979 28a8 05       		.byte	0x5
 9980 28a9 4103     		.2byte	0x341
 9981 28ab 03       		.byte	0x3
 9982 28ac 02       		.uleb128 0x2
 9983 28ad E53A0000 		.4byte	0x3ae5
 9984 28b1 9D070000 		.4byte	.LLST78
 9985 28b5 9B070000 		.4byte	.LVUS78
 9986 28b9 00       		.byte	0
 9987 28ba 00       		.byte	0
 9988 28bb 00       		.byte	0
 9989 28bc 00       		.byte	0
 9990 28bd 00       		.byte	0
 9991 28be 06       		.uleb128 0x6
 9992 28bf 2C000000 		.4byte	.LVL119
 9993 28c3 84360000 		.4byte	0x3684
 9994 28c7 D2280000 		.4byte	0x28d2
 9995 28cb 01       		.uleb128 0x1
 9996 28cc 01       		.uleb128 0x1
 9997 28cd 50       		.byte	0x50
 9998 28ce 02       		.uleb128 0x2
 9999 28cf 74       		.byte	0x74
 10000 28d0 00       		.sleb128 0
ARM GAS  C:\Users\DEVELO~1\AppData\Local\Temp\cc2saCCQ.s 			page 177


 10001 28d1 00       		.byte	0
 10002 28d2 20       		.uleb128 0x20
 10003 28d3 36000000 		.4byte	.LVL120
 10004 28d7 01       		.uleb128 0x1
 10005 28d8 01       		.uleb128 0x1
 10006 28d9 50       		.byte	0x50
 10007 28da 02       		.uleb128 0x2
 10008 28db 74       		.byte	0x74
 10009 28dc 00       		.sleb128 0
 10010 28dd 00       		.byte	0
 10011 28de 00       		.byte	0
 10012 28df 00       		.byte	0
 10013 28e0 00       		.byte	0
 10014 28e1 06       		.uleb128 0x6
 10015 28e2 0A000000 		.4byte	.LVL113
 10016 28e6 8C140000 		.4byte	0x148c
 10017 28ea F8280000 		.4byte	0x28f8
 10018 28ee 01       		.uleb128 0x1
 10019 28ef 01       		.uleb128 0x1
 10020 28f0 50       		.byte	0x50
 10021 28f1 05       		.uleb128 0x5
 10022 28f2 03       		.byte	0x3
 10023 28f3 00000000 		.4byte	.LANCHOR7
 10024 28f7 00       		.byte	0
 10025 28f8 06       		.uleb128 0x6
 10026 28f9 1E000000 		.4byte	.LVL117
 10027 28fd 7B140000 		.4byte	0x147b
 10028 2901 0F290000 		.4byte	0x290f
 10029 2905 01       		.uleb128 0x1
 10030 2906 01       		.uleb128 0x1
 10031 2907 50       		.byte	0x50
 10032 2908 05       		.uleb128 0x5
 10033 2909 03       		.byte	0x3
 10034 290a 00000000 		.4byte	.LANCHOR7
 10035 290e 00       		.byte	0
 10036 290f 18       		.uleb128 0x18
 10037 2910 26000000 		.4byte	.LVL118
 10038 2914 72140000 		.4byte	0x1472
 10039 2918 06       		.uleb128 0x6
 10040 2919 50000000 		.4byte	.LVL124
 10041 291d 7B140000 		.4byte	0x147b
 10042 2921 2F290000 		.4byte	0x292f
 10043 2925 01       		.uleb128 0x1
 10044 2926 01       		.uleb128 0x1
 10045 2927 50       		.byte	0x50
 10046 2928 05       		.uleb128 0x5
 10047 2929 03       		.byte	0x3
 10048 292a 00000000 		.4byte	.LANCHOR7
 10049 292e 00       		.byte	0
 10050 292f 18       		.uleb128 0x18
 10051 2930 58000000 		.4byte	.LVL125
 10052 2934 72140000 		.4byte	0x1472
 10053 2938 00       		.byte	0
 10054 2939 27       		.uleb128 0x27
 10055 293a 7F040000 		.4byte	.LASF300
 10056 293e E601     		.2byte	0x1e6
 10057 2940 01       		.byte	0x1
ARM GAS  C:\Users\DEVELO~1\AppData\Local\Temp\cc2saCCQ.s 			page 178


 10058 2941 00000000 		.4byte	.LFB444
 10059 2945 64000000 		.4byte	.LFE444-.LFB444
 10060 2949 01       		.uleb128 0x1
 10061 294a 9C       		.byte	0x9c
 10062 294b 942B0000 		.4byte	0x2b94
 10063 294f 32       		.uleb128 0x32
 10064 2950 6D0E0000 		.4byte	.LASF291
 10065 2954 A42B0000 		.4byte	0x2ba4
 10066 2958 05       		.uleb128 0x5
 10067 2959 03       		.byte	0x3
 10068 295a 00000000 		.4byte	__func__.3
 10069 295e 1C       		.uleb128 0x1c
 10070 295f 8C2E0000 		.4byte	0x2e8c
 10071 2963 0A000000 		.4byte	.LBI475
 10072 2967 0200     		.2byte	.LVU605
 10073 2969 9F000000 		.4byte	.LLRL63
 10074 296d EA01     		.2byte	0x1ea
 10075 296f 03       		.byte	0x3
 10076 2970 3C2B0000 		.4byte	0x2b3c
 10077 2974 02       		.uleb128 0x2
 10078 2975 9A2E0000 		.4byte	0x2e9a
 10079 2979 AB070000 		.4byte	.LLST64
 10080 297d A7070000 		.4byte	.LVUS64
 10081 2981 33       		.uleb128 0x33
 10082 2982 9F000000 		.4byte	.LLRL63
 10083 2986 34       		.uleb128 0x34
 10084 2987 A72E0000 		.4byte	0x2ea7
 10085 298b CB070000 		.4byte	.LLST65
 10086 298f C5070000 		.4byte	.LVUS65
 10087 2993 04       		.uleb128 0x4
 10088 2994 8C2E0000 		.4byte	0x2e8c
 10089 2998 26000000 		.4byte	.LBI477
 10090 299c 0000     		.2byte	.LVU627
 10091 299e 26000000 		.4byte	.LBB477
 10092 29a2 24000000 		.4byte	.LBE477-.LBB477
 10093 29a6 01       		.byte	0x1
 10094 29a7 7301     		.2byte	0x173
 10095 29a9 0D       		.byte	0xd
 10096 29aa 02       		.uleb128 0x2
 10097 29ab 9A2E0000 		.4byte	0x2e9a
 10098 29af E4070000 		.4byte	.LLST66
 10099 29b3 E2070000 		.4byte	.LVUS66
 10100 29b7 35       		.uleb128 0x35
 10101 29b8 A72E0000 		.4byte	0x2ea7
 10102 29bc 07       		.uleb128 0x7
 10103 29bd 7C3A0000 		.4byte	0x3a7c
 10104 29c1 36000000 		.4byte	.LBI479
 10105 29c5 0100     		.2byte	.LVU632
 10106 29c7 36000000 		.4byte	.LBB479
 10107 29cb 06000000 		.4byte	.LBE479-.LBB479
 10108 29cf 7F01     		.2byte	0x17f
 10109 29d1 05       		.byte	0x5
 10110 29d2 442A0000 		.4byte	0x2a44
 10111 29d6 04       		.uleb128 0x4
 10112 29d7 AA3A0000 		.4byte	0x3aaa
 10113 29db 36000000 		.4byte	.LBI480
 10114 29df 0300     		.2byte	.LVU634
ARM GAS  C:\Users\DEVELO~1\AppData\Local\Temp\cc2saCCQ.s 			page 179


 10115 29e1 36000000 		.4byte	.LBB480
 10116 29e5 06000000 		.4byte	.LBE480-.LBB480
 10117 29e9 03       		.byte	0x3
 10118 29ea 5502     		.2byte	0x255
 10119 29ec 03       		.byte	0x3
 10120 29ed 04       		.uleb128 0x4
 10121 29ee BC3A0000 		.4byte	0x3abc
 10122 29f2 36000000 		.4byte	.LBI481
 10123 29f6 0500     		.2byte	.LVU636
 10124 29f8 36000000 		.4byte	.LBB481
 10125 29fc 06000000 		.4byte	.LBE481-.LBB481
 10126 2a00 04       		.byte	0x4
 10127 2a01 C501     		.2byte	0x1c5
 10128 2a03 03       		.byte	0x3
 10129 2a04 04       		.uleb128 0x4
 10130 2a05 CE3A0000 		.4byte	0x3ace
 10131 2a09 36000000 		.4byte	.LBI482
 10132 2a0d 0700     		.2byte	.LVU638
 10133 2a0f 36000000 		.4byte	.LBB482
 10134 2a13 06000000 		.4byte	.LBE482-.LBB482
 10135 2a17 05       		.byte	0x5
 10136 2a18 4F03     		.2byte	0x34f
 10137 2a1a 03       		.byte	0x3
 10138 2a1b 04       		.uleb128 0x4
 10139 2a1c D73A0000 		.4byte	0x3ad7
 10140 2a20 36000000 		.4byte	.LBI483
 10141 2a24 0900     		.2byte	.LVU640
 10142 2a26 36000000 		.4byte	.LBB483
 10143 2a2a 06000000 		.4byte	.LBE483-.LBB483
 10144 2a2e 05       		.byte	0x5
 10145 2a2f 2E03     		.2byte	0x32e
 10146 2a31 03       		.byte	0x3
 10147 2a32 02       		.uleb128 0x2
 10148 2a33 E53A0000 		.4byte	0x3ae5
 10149 2a37 F4070000 		.4byte	.LLST67
 10150 2a3b F2070000 		.4byte	.LVUS67
 10151 2a3f 00       		.byte	0
 10152 2a40 00       		.byte	0
 10153 2a41 00       		.byte	0
 10154 2a42 00       		.byte	0
 10155 2a43 00       		.byte	0
 10156 2a44 07       		.uleb128 0x7
 10157 2a45 4A3A0000 		.4byte	0x3a4a
 10158 2a49 3C000000 		.4byte	.LBI485
 10159 2a4d 0400     		.2byte	.LVU646
 10160 2a4f 3C000000 		.4byte	.LBB485
 10161 2a53 08000000 		.4byte	.LBE485-.LBB485
 10162 2a57 7F01     		.2byte	0x17f
 10163 2a59 05       		.byte	0x5
 10164 2a5a 912A0000 		.4byte	0x2a91
 10165 2a5e 02       		.uleb128 0x2
 10166 2a5f 653A0000 		.4byte	0x3a65
 10167 2a63 01080000 		.4byte	.LLST68
 10168 2a67 FF070000 		.4byte	.LVUS68
 10169 2a6b 02       		.uleb128 0x2
 10170 2a6c 583A0000 		.4byte	0x3a58
 10171 2a70 0D080000 		.4byte	.LLST69
ARM GAS  C:\Users\DEVELO~1\AppData\Local\Temp\cc2saCCQ.s 			page 180


 10172 2a74 0B080000 		.4byte	.LVUS69
 10173 2a78 0D       		.uleb128 0xd
 10174 2a79 44000000 		.4byte	.LVL109
 10175 2a7d 5B140000 		.4byte	0x145b
 10176 2a81 01       		.uleb128 0x1
 10177 2a82 01       		.uleb128 0x1
 10178 2a83 50       		.byte	0x50
 10179 2a84 05       		.uleb128 0x5
 10180 2a85 03       		.byte	0x3
 10181 2a86 08000000 		.4byte	.LANCHOR1+8
 10182 2a8a 01       		.uleb128 0x1
 10183 2a8b 01       		.uleb128 0x1
 10184 2a8c 51       		.byte	0x51
 10185 2a8d 01       		.uleb128 0x1
 10186 2a8e 30       		.byte	0x30
 10187 2a8f 00       		.byte	0
 10188 2a90 00       		.byte	0
 10189 2a91 07       		.uleb128 0x7
 10190 2a92 733A0000 		.4byte	0x3a73
 10191 2a96 44000000 		.4byte	.LBI487
 10192 2a9a 0200     		.2byte	.LVU650
 10193 2a9c 44000000 		.4byte	.LBB487
 10194 2aa0 06000000 		.4byte	.LBE487-.LBB487
 10195 2aa4 7F01     		.2byte	0x17f
 10196 2aa6 05       		.byte	0x5
 10197 2aa7 192B0000 		.4byte	0x2b19
 10198 2aab 04       		.uleb128 0x4
 10199 2aac A13A0000 		.4byte	0x3aa1
 10200 2ab0 44000000 		.4byte	.LBI488
 10201 2ab4 0400     		.2byte	.LVU652
 10202 2ab6 44000000 		.4byte	.LBB488
 10203 2aba 06000000 		.4byte	.LBE488-.LBB488
 10204 2abe 03       		.byte	0x3
 10205 2abf 6002     		.2byte	0x260
 10206 2ac1 03       		.byte	0x3
 10207 2ac2 04       		.uleb128 0x4
 10208 2ac3 B33A0000 		.4byte	0x3ab3
 10209 2ac7 44000000 		.4byte	.LBI489
 10210 2acb 0800     		.2byte	.LVU656
 10211 2acd 44000000 		.4byte	.LBB489
 10212 2ad1 06000000 		.4byte	.LBE489-.LBB489
 10213 2ad5 04       		.byte	0x4
 10214 2ad6 DD01     		.2byte	0x1dd
 10215 2ad8 03       		.byte	0x3
 10216 2ad9 04       		.uleb128 0x4
 10217 2ada C53A0000 		.4byte	0x3ac5
 10218 2ade 44000000 		.4byte	.LBI490
 10219 2ae2 0A00     		.2byte	.LVU658
 10220 2ae4 44000000 		.4byte	.LBB490
 10221 2ae8 06000000 		.4byte	.LBE490-.LBB490
 10222 2aec 05       		.byte	0x5
 10223 2aed 5A03     		.2byte	0x35a
 10224 2aef 03       		.byte	0x3
 10225 2af0 04       		.uleb128 0x4
 10226 2af1 D73A0000 		.4byte	0x3ad7
 10227 2af5 44000000 		.4byte	.LBI491
 10228 2af9 0C00     		.2byte	.LVU660
ARM GAS  C:\Users\DEVELO~1\AppData\Local\Temp\cc2saCCQ.s 			page 181


 10229 2afb 44000000 		.4byte	.LBB491
 10230 2aff 06000000 		.4byte	.LBE491-.LBB491
 10231 2b03 05       		.byte	0x5
 10232 2b04 4103     		.2byte	0x341
 10233 2b06 03       		.byte	0x3
 10234 2b07 02       		.uleb128 0x2
 10235 2b08 E53A0000 		.4byte	0x3ae5
 10236 2b0c 1D080000 		.4byte	.LLST70
 10237 2b10 1B080000 		.4byte	.LVUS70
 10238 2b14 00       		.byte	0
 10239 2b15 00       		.byte	0
 10240 2b16 00       		.byte	0
 10241 2b17 00       		.byte	0
 10242 2b18 00       		.byte	0
 10243 2b19 06       		.uleb128 0x6
 10244 2b1a 2C000000 		.4byte	.LVL106
 10245 2b1e 84360000 		.4byte	0x3684
 10246 2b22 2D2B0000 		.4byte	0x2b2d
 10247 2b26 01       		.uleb128 0x1
 10248 2b27 01       		.uleb128 0x1
 10249 2b28 50       		.byte	0x50
 10250 2b29 02       		.uleb128 0x2
 10251 2b2a 74       		.byte	0x74
 10252 2b2b 00       		.sleb128 0
 10253 2b2c 00       		.byte	0
 10254 2b2d 20       		.uleb128 0x20
 10255 2b2e 36000000 		.4byte	.LVL107
 10256 2b32 01       		.uleb128 0x1
 10257 2b33 01       		.uleb128 0x1
 10258 2b34 50       		.byte	0x50
 10259 2b35 02       		.uleb128 0x2
 10260 2b36 74       		.byte	0x74
 10261 2b37 00       		.sleb128 0
 10262 2b38 00       		.byte	0
 10263 2b39 00       		.byte	0
 10264 2b3a 00       		.byte	0
 10265 2b3b 00       		.byte	0
 10266 2b3c 06       		.uleb128 0x6
 10267 2b3d 0A000000 		.4byte	.LVL100
 10268 2b41 8C140000 		.4byte	0x148c
 10269 2b45 532B0000 		.4byte	0x2b53
 10270 2b49 01       		.uleb128 0x1
 10271 2b4a 01       		.uleb128 0x1
 10272 2b4b 50       		.byte	0x50
 10273 2b4c 05       		.uleb128 0x5
 10274 2b4d 03       		.byte	0x3
 10275 2b4e 00000000 		.4byte	.LANCHOR6
 10276 2b52 00       		.byte	0
 10277 2b53 06       		.uleb128 0x6
 10278 2b54 1E000000 		.4byte	.LVL104
 10279 2b58 7B140000 		.4byte	0x147b
 10280 2b5c 6A2B0000 		.4byte	0x2b6a
 10281 2b60 01       		.uleb128 0x1
 10282 2b61 01       		.uleb128 0x1
 10283 2b62 50       		.byte	0x50
 10284 2b63 05       		.uleb128 0x5
 10285 2b64 03       		.byte	0x3
ARM GAS  C:\Users\DEVELO~1\AppData\Local\Temp\cc2saCCQ.s 			page 182


 10286 2b65 00000000 		.4byte	.LANCHOR6
 10287 2b69 00       		.byte	0
 10288 2b6a 18       		.uleb128 0x18
 10289 2b6b 26000000 		.4byte	.LVL105
 10290 2b6f 72140000 		.4byte	0x1472
 10291 2b73 06       		.uleb128 0x6
 10292 2b74 50000000 		.4byte	.LVL111
 10293 2b78 7B140000 		.4byte	0x147b
 10294 2b7c 8A2B0000 		.4byte	0x2b8a
 10295 2b80 01       		.uleb128 0x1
 10296 2b81 01       		.uleb128 0x1
 10297 2b82 50       		.byte	0x50
 10298 2b83 05       		.uleb128 0x5
 10299 2b84 03       		.byte	0x3
 10300 2b85 00000000 		.4byte	.LANCHOR6
 10301 2b89 00       		.byte	0
 10302 2b8a 18       		.uleb128 0x18
 10303 2b8b 58000000 		.4byte	.LVL112
 10304 2b8f 72140000 		.4byte	0x1472
 10305 2b93 00       		.byte	0
 10306 2b94 14       		.uleb128 0x14
 10307 2b95 77030000 		.4byte	0x377
 10308 2b99 A42B0000 		.4byte	0x2ba4
 10309 2b9d 15       		.uleb128 0x15
 10310 2b9e 39000000 		.4byte	0x39
 10311 2ba2 08       		.byte	0x8
 10312 2ba3 00       		.byte	0
 10313 2ba4 12       		.uleb128 0x12
 10314 2ba5 942B0000 		.4byte	0x2b94
 10315 2ba9 27       		.uleb128 0x27
 10316 2baa E1030000 		.4byte	.LASF301
 10317 2bae D101     		.2byte	0x1d1
 10318 2bb0 01       		.byte	0x1
 10319 2bb1 00000000 		.4byte	.LFB443
 10320 2bb5 64000000 		.4byte	.LFE443-.LFB443
 10321 2bb9 01       		.uleb128 0x1
 10322 2bba 9C       		.byte	0x9c
 10323 2bbb 042E0000 		.4byte	0x2e04
 10324 2bbf 32       		.uleb128 0x32
 10325 2bc0 6D0E0000 		.4byte	.LASF291
 10326 2bc4 A42B0000 		.4byte	0x2ba4
 10327 2bc8 05       		.uleb128 0x5
 10328 2bc9 03       		.byte	0x3
 10329 2bca 00000000 		.4byte	__func__.4
 10330 2bce 1C       		.uleb128 0x1c
 10331 2bcf 8C2E0000 		.4byte	0x2e8c
 10332 2bd3 0A000000 		.4byte	.LBI434
 10333 2bd7 0200     		.2byte	.LVU523
 10334 2bd9 90000000 		.4byte	.LLRL55
 10335 2bdd D501     		.2byte	0x1d5
 10336 2bdf 03       		.byte	0x3
 10337 2be0 AC2D0000 		.4byte	0x2dac
 10338 2be4 02       		.uleb128 0x2
 10339 2be5 9A2E0000 		.4byte	0x2e9a
 10340 2be9 2B080000 		.4byte	.LLST56
 10341 2bed 27080000 		.4byte	.LVUS56
 10342 2bf1 33       		.uleb128 0x33
ARM GAS  C:\Users\DEVELO~1\AppData\Local\Temp\cc2saCCQ.s 			page 183


 10343 2bf2 90000000 		.4byte	.LLRL55
 10344 2bf6 34       		.uleb128 0x34
 10345 2bf7 A72E0000 		.4byte	0x2ea7
 10346 2bfb 4B080000 		.4byte	.LLST57
 10347 2bff 45080000 		.4byte	.LVUS57
 10348 2c03 04       		.uleb128 0x4
 10349 2c04 8C2E0000 		.4byte	0x2e8c
 10350 2c08 26000000 		.4byte	.LBI436
 10351 2c0c 0000     		.2byte	.LVU545
 10352 2c0e 26000000 		.4byte	.LBB436
 10353 2c12 24000000 		.4byte	.LBE436-.LBB436
 10354 2c16 01       		.byte	0x1
 10355 2c17 7301     		.2byte	0x173
 10356 2c19 0D       		.byte	0xd
 10357 2c1a 02       		.uleb128 0x2
 10358 2c1b 9A2E0000 		.4byte	0x2e9a
 10359 2c1f 64080000 		.4byte	.LLST58
 10360 2c23 62080000 		.4byte	.LVUS58
 10361 2c27 35       		.uleb128 0x35
 10362 2c28 A72E0000 		.4byte	0x2ea7
 10363 2c2c 07       		.uleb128 0x7
 10364 2c2d 7C3A0000 		.4byte	0x3a7c
 10365 2c31 36000000 		.4byte	.LBI438
 10366 2c35 0100     		.2byte	.LVU550
 10367 2c37 36000000 		.4byte	.LBB438
 10368 2c3b 06000000 		.4byte	.LBE438-.LBB438
 10369 2c3f 7F01     		.2byte	0x17f
 10370 2c41 05       		.byte	0x5
 10371 2c42 B42C0000 		.4byte	0x2cb4
 10372 2c46 04       		.uleb128 0x4
 10373 2c47 AA3A0000 		.4byte	0x3aaa
 10374 2c4b 36000000 		.4byte	.LBI439
 10375 2c4f 0300     		.2byte	.LVU552
 10376 2c51 36000000 		.4byte	.LBB439
 10377 2c55 06000000 		.4byte	.LBE439-.LBB439
 10378 2c59 03       		.byte	0x3
 10379 2c5a 5502     		.2byte	0x255
 10380 2c5c 03       		.byte	0x3
 10381 2c5d 04       		.uleb128 0x4
 10382 2c5e BC3A0000 		.4byte	0x3abc
 10383 2c62 36000000 		.4byte	.LBI440
 10384 2c66 0500     		.2byte	.LVU554
 10385 2c68 36000000 		.4byte	.LBB440
 10386 2c6c 06000000 		.4byte	.LBE440-.LBB440
 10387 2c70 04       		.byte	0x4
 10388 2c71 C501     		.2byte	0x1c5
 10389 2c73 03       		.byte	0x3
 10390 2c74 04       		.uleb128 0x4
 10391 2c75 CE3A0000 		.4byte	0x3ace
 10392 2c79 36000000 		.4byte	.LBI441
 10393 2c7d 0700     		.2byte	.LVU556
 10394 2c7f 36000000 		.4byte	.LBB441
 10395 2c83 06000000 		.4byte	.LBE441-.LBB441
 10396 2c87 05       		.byte	0x5
 10397 2c88 4F03     		.2byte	0x34f
 10398 2c8a 03       		.byte	0x3
 10399 2c8b 04       		.uleb128 0x4
ARM GAS  C:\Users\DEVELO~1\AppData\Local\Temp\cc2saCCQ.s 			page 184


 10400 2c8c D73A0000 		.4byte	0x3ad7
 10401 2c90 36000000 		.4byte	.LBI442
 10402 2c94 0900     		.2byte	.LVU558
 10403 2c96 36000000 		.4byte	.LBB442
 10404 2c9a 06000000 		.4byte	.LBE442-.LBB442
 10405 2c9e 05       		.byte	0x5
 10406 2c9f 2E03     		.2byte	0x32e
 10407 2ca1 03       		.byte	0x3
 10408 2ca2 02       		.uleb128 0x2
 10409 2ca3 E53A0000 		.4byte	0x3ae5
 10410 2ca7 74080000 		.4byte	.LLST59
 10411 2cab 72080000 		.4byte	.LVUS59
 10412 2caf 00       		.byte	0
 10413 2cb0 00       		.byte	0
 10414 2cb1 00       		.byte	0
 10415 2cb2 00       		.byte	0
 10416 2cb3 00       		.byte	0
 10417 2cb4 07       		.uleb128 0x7
 10418 2cb5 4A3A0000 		.4byte	0x3a4a
 10419 2cb9 3C000000 		.4byte	.LBI444
 10420 2cbd 0400     		.2byte	.LVU564
 10421 2cbf 3C000000 		.4byte	.LBB444
 10422 2cc3 08000000 		.4byte	.LBE444-.LBB444
 10423 2cc7 7F01     		.2byte	0x17f
 10424 2cc9 05       		.byte	0x5
 10425 2cca 012D0000 		.4byte	0x2d01
 10426 2cce 02       		.uleb128 0x2
 10427 2ccf 653A0000 		.4byte	0x3a65
 10428 2cd3 81080000 		.4byte	.LLST60
 10429 2cd7 7F080000 		.4byte	.LVUS60
 10430 2cdb 02       		.uleb128 0x2
 10431 2cdc 583A0000 		.4byte	0x3a58
 10432 2ce0 8D080000 		.4byte	.LLST61
 10433 2ce4 8B080000 		.4byte	.LVUS61
 10434 2ce8 0D       		.uleb128 0xd
 10435 2ce9 44000000 		.4byte	.LVL96
 10436 2ced 5B140000 		.4byte	0x145b
 10437 2cf1 01       		.uleb128 0x1
 10438 2cf2 01       		.uleb128 0x1
 10439 2cf3 50       		.byte	0x50
 10440 2cf4 05       		.uleb128 0x5
 10441 2cf5 03       		.byte	0x3
 10442 2cf6 08000000 		.4byte	.LANCHOR0+8
 10443 2cfa 01       		.uleb128 0x1
 10444 2cfb 01       		.uleb128 0x1
 10445 2cfc 51       		.byte	0x51
 10446 2cfd 01       		.uleb128 0x1
 10447 2cfe 30       		.byte	0x30
 10448 2cff 00       		.byte	0
 10449 2d00 00       		.byte	0
 10450 2d01 07       		.uleb128 0x7
 10451 2d02 733A0000 		.4byte	0x3a73
 10452 2d06 44000000 		.4byte	.LBI446
 10453 2d0a 0200     		.2byte	.LVU568
 10454 2d0c 44000000 		.4byte	.LBB446
 10455 2d10 06000000 		.4byte	.LBE446-.LBB446
 10456 2d14 7F01     		.2byte	0x17f
ARM GAS  C:\Users\DEVELO~1\AppData\Local\Temp\cc2saCCQ.s 			page 185


 10457 2d16 05       		.byte	0x5
 10458 2d17 892D0000 		.4byte	0x2d89
 10459 2d1b 04       		.uleb128 0x4
 10460 2d1c A13A0000 		.4byte	0x3aa1
 10461 2d20 44000000 		.4byte	.LBI447
 10462 2d24 0400     		.2byte	.LVU570
 10463 2d26 44000000 		.4byte	.LBB447
 10464 2d2a 06000000 		.4byte	.LBE447-.LBB447
 10465 2d2e 03       		.byte	0x3
 10466 2d2f 6002     		.2byte	0x260
 10467 2d31 03       		.byte	0x3
 10468 2d32 04       		.uleb128 0x4
 10469 2d33 B33A0000 		.4byte	0x3ab3
 10470 2d37 44000000 		.4byte	.LBI448
 10471 2d3b 0800     		.2byte	.LVU574
 10472 2d3d 44000000 		.4byte	.LBB448
 10473 2d41 06000000 		.4byte	.LBE448-.LBB448
 10474 2d45 04       		.byte	0x4
 10475 2d46 DD01     		.2byte	0x1dd
 10476 2d48 03       		.byte	0x3
 10477 2d49 04       		.uleb128 0x4
 10478 2d4a C53A0000 		.4byte	0x3ac5
 10479 2d4e 44000000 		.4byte	.LBI449
 10480 2d52 0A00     		.2byte	.LVU576
 10481 2d54 44000000 		.4byte	.LBB449
 10482 2d58 06000000 		.4byte	.LBE449-.LBB449
 10483 2d5c 05       		.byte	0x5
 10484 2d5d 5A03     		.2byte	0x35a
 10485 2d5f 03       		.byte	0x3
 10486 2d60 04       		.uleb128 0x4
 10487 2d61 D73A0000 		.4byte	0x3ad7
 10488 2d65 44000000 		.4byte	.LBI450
 10489 2d69 0C00     		.2byte	.LVU578
 10490 2d6b 44000000 		.4byte	.LBB450
 10491 2d6f 06000000 		.4byte	.LBE450-.LBB450
 10492 2d73 05       		.byte	0x5
 10493 2d74 4103     		.2byte	0x341
 10494 2d76 03       		.byte	0x3
 10495 2d77 02       		.uleb128 0x2
 10496 2d78 E53A0000 		.4byte	0x3ae5
 10497 2d7c 9D080000 		.4byte	.LLST62
 10498 2d80 9B080000 		.4byte	.LVUS62
 10499 2d84 00       		.byte	0
 10500 2d85 00       		.byte	0
 10501 2d86 00       		.byte	0
 10502 2d87 00       		.byte	0
 10503 2d88 00       		.byte	0
 10504 2d89 06       		.uleb128 0x6
 10505 2d8a 2C000000 		.4byte	.LVL93
 10506 2d8e 84360000 		.4byte	0x3684
 10507 2d92 9D2D0000 		.4byte	0x2d9d
 10508 2d96 01       		.uleb128 0x1
 10509 2d97 01       		.uleb128 0x1
 10510 2d98 50       		.byte	0x50
 10511 2d99 02       		.uleb128 0x2
 10512 2d9a 74       		.byte	0x74
 10513 2d9b 00       		.sleb128 0
ARM GAS  C:\Users\DEVELO~1\AppData\Local\Temp\cc2saCCQ.s 			page 186


 10514 2d9c 00       		.byte	0
 10515 2d9d 20       		.uleb128 0x20
 10516 2d9e 36000000 		.4byte	.LVL94
 10517 2da2 01       		.uleb128 0x1
 10518 2da3 01       		.uleb128 0x1
 10519 2da4 50       		.byte	0x50
 10520 2da5 02       		.uleb128 0x2
 10521 2da6 74       		.byte	0x74
 10522 2da7 00       		.sleb128 0
 10523 2da8 00       		.byte	0
 10524 2da9 00       		.byte	0
 10525 2daa 00       		.byte	0
 10526 2dab 00       		.byte	0
 10527 2dac 06       		.uleb128 0x6
 10528 2dad 0A000000 		.4byte	.LVL87
 10529 2db1 8C140000 		.4byte	0x148c
 10530 2db5 C32D0000 		.4byte	0x2dc3
 10531 2db9 01       		.uleb128 0x1
 10532 2dba 01       		.uleb128 0x1
 10533 2dbb 50       		.byte	0x50
 10534 2dbc 05       		.uleb128 0x5
 10535 2dbd 03       		.byte	0x3
 10536 2dbe 00000000 		.4byte	.LANCHOR5
 10537 2dc2 00       		.byte	0
 10538 2dc3 06       		.uleb128 0x6
 10539 2dc4 1E000000 		.4byte	.LVL91
 10540 2dc8 7B140000 		.4byte	0x147b
 10541 2dcc DA2D0000 		.4byte	0x2dda
 10542 2dd0 01       		.uleb128 0x1
 10543 2dd1 01       		.uleb128 0x1
 10544 2dd2 50       		.byte	0x50
 10545 2dd3 05       		.uleb128 0x5
 10546 2dd4 03       		.byte	0x3
 10547 2dd5 00000000 		.4byte	.LANCHOR5
 10548 2dd9 00       		.byte	0
 10549 2dda 18       		.uleb128 0x18
 10550 2ddb 26000000 		.4byte	.LVL92
 10551 2ddf 72140000 		.4byte	0x1472
 10552 2de3 06       		.uleb128 0x6
 10553 2de4 50000000 		.4byte	.LVL98
 10554 2de8 7B140000 		.4byte	0x147b
 10555 2dec FA2D0000 		.4byte	0x2dfa
 10556 2df0 01       		.uleb128 0x1
 10557 2df1 01       		.uleb128 0x1
 10558 2df2 50       		.byte	0x50
 10559 2df3 05       		.uleb128 0x5
 10560 2df4 03       		.byte	0x3
 10561 2df5 00000000 		.4byte	.LANCHOR5
 10562 2df9 00       		.byte	0
 10563 2dfa 18       		.uleb128 0x18
 10564 2dfb 58000000 		.4byte	.LVL99
 10565 2dff 72140000 		.4byte	0x1472
 10566 2e03 00       		.byte	0
 10567 2e04 46       		.uleb128 0x46
 10568 2e05 F8050000 		.4byte	.LASF305
 10569 2e09 AD01     		.2byte	0x1ad
 10570 2e0b 5F010000 		.4byte	0x15f
ARM GAS  C:\Users\DEVELO~1\AppData\Local\Temp\cc2saCCQ.s 			page 187


 10571 2e0f 482E0000 		.4byte	0x2e48
 10572 2e13 0C       		.uleb128 0xc
 10573 2e14 520F0000 		.4byte	.LASF276
 10574 2e18 01       		.byte	0x1
 10575 2e19 AD01     		.2byte	0x1ad
 10576 2e1b 2A       		.byte	0x2a
 10577 2e1c BE120000 		.4byte	0x12be
 10578 2e20 0C       		.uleb128 0xc
 10579 2e21 2B030000 		.4byte	.LASF302
 10580 2e25 01       		.byte	0x1
 10581 2e26 AD01     		.2byte	0x1ad
 10582 2e28 39       		.byte	0x39
 10583 2e29 E9000000 		.4byte	0xe9
 10584 2e2d 0C       		.uleb128 0xc
 10585 2e2e D70E0000 		.4byte	.LASF303
 10586 2e32 01       		.byte	0x1
 10587 2e33 AE01     		.2byte	0x1ae
 10588 2e35 28       		.byte	0x28
 10589 2e36 E9000000 		.4byte	0xe9
 10590 2e3a 0C       		.uleb128 0xc
 10591 2e3b B00A0000 		.4byte	.LASF304
 10592 2e3f 01       		.byte	0x1
 10593 2e40 AE01     		.2byte	0x1ae
 10594 2e42 3B       		.byte	0x3b
 10595 2e43 E9000000 		.4byte	0xe9
 10596 2e47 00       		.byte	0
 10597 2e48 46       		.uleb128 0x46
 10598 2e49 DB050000 		.4byte	.LASF306
 10599 2e4d 8D01     		.2byte	0x18d
 10600 2e4f 5F010000 		.4byte	0x15f
 10601 2e53 8C2E0000 		.4byte	0x2e8c
 10602 2e57 0C       		.uleb128 0xc
 10603 2e58 520F0000 		.4byte	.LASF276
 10604 2e5c 01       		.byte	0x1
 10605 2e5d 8D01     		.2byte	0x18d
 10606 2e5f 29       		.byte	0x29
 10607 2e60 BE120000 		.4byte	0x12be
 10608 2e64 0C       		.uleb128 0xc
 10609 2e65 2B030000 		.4byte	.LASF302
 10610 2e69 01       		.byte	0x1
 10611 2e6a 8D01     		.2byte	0x18d
 10612 2e6c 38       		.byte	0x38
 10613 2e6d E9000000 		.4byte	0xe9
 10614 2e71 0C       		.uleb128 0xc
 10615 2e72 D70E0000 		.4byte	.LASF303
 10616 2e76 01       		.byte	0x1
 10617 2e77 8E01     		.2byte	0x18e
 10618 2e79 27       		.byte	0x27
 10619 2e7a E9000000 		.4byte	0xe9
 10620 2e7e 0C       		.uleb128 0xc
 10621 2e7f B00A0000 		.4byte	.LASF304
 10622 2e83 01       		.byte	0x1
 10623 2e84 8E01     		.2byte	0x18e
 10624 2e86 3A       		.byte	0x3a
 10625 2e87 E9000000 		.4byte	0xe9
 10626 2e8b 00       		.byte	0
 10627 2e8c 16       		.uleb128 0x16
ARM GAS  C:\Users\DEVELO~1\AppData\Local\Temp\cc2saCCQ.s 			page 188


 10628 2e8d A20B0000 		.4byte	.LASF307
 10629 2e91 01       		.byte	0x1
 10630 2e92 7301     		.2byte	0x173
 10631 2e94 0D       		.byte	0xd
 10632 2e95 01       		.byte	0x1
 10633 2e96 B42E0000 		.4byte	0x2eb4
 10634 2e9a 0C       		.uleb128 0xc
 10635 2e9b 520F0000 		.4byte	.LASF276
 10636 2e9f 01       		.byte	0x1
 10637 2ea0 7301     		.2byte	0x173
 10638 2ea2 30       		.byte	0x30
 10639 2ea3 BE120000 		.4byte	0x12be
 10640 2ea7 53       		.uleb128 0x53
 10641 2ea8 737200   		.ascii	"sr\000"
 10642 2eab 01       		.byte	0x1
 10643 2eac 7401     		.2byte	0x174
 10644 2eae 0C       		.byte	0xc
 10645 2eaf E9000000 		.4byte	0xe9
 10646 2eb3 00       		.byte	0
 10647 2eb4 16       		.uleb128 0x16
 10648 2eb5 330F0000 		.4byte	.LASF308
 10649 2eb9 01       		.byte	0x1
 10650 2eba 5D01     		.2byte	0x15d
 10651 2ebc 0D       		.byte	0xd
 10652 2ebd 01       		.byte	0x1
 10653 2ebe DD2E0000 		.4byte	0x2edd
 10654 2ec2 0C       		.uleb128 0xc
 10655 2ec3 520F0000 		.4byte	.LASF276
 10656 2ec7 01       		.byte	0x1
 10657 2ec8 5D01     		.2byte	0x15d
 10658 2eca 37       		.byte	0x37
 10659 2ecb BE120000 		.4byte	0x12be
 10660 2ecf 0C       		.uleb128 0xc
 10661 2ed0 A4000000 		.4byte	.LASF38
 10662 2ed4 01       		.byte	0x1
 10663 2ed5 5D01     		.2byte	0x15d
 10664 2ed7 46       		.byte	0x46
 10665 2ed8 E9000000 		.4byte	0xe9
 10666 2edc 00       		.byte	0
 10667 2edd 54       		.uleb128 0x54
 10668 2ede 5E030000 		.4byte	.LASF310
 10669 2ee2 01       		.byte	0x1
 10670 2ee3 3501     		.2byte	0x135
 10671 2ee5 0D       		.byte	0xd
 10672 2ee6 00000000 		.4byte	.LFB438
 10673 2eea A8000000 		.4byte	.LFE438-.LFB438
 10674 2eee 01       		.uleb128 0x1
 10675 2eef 9C       		.byte	0x9c
 10676 2ef0 70320000 		.4byte	0x3270
 10677 2ef4 0F       		.uleb128 0xf
 10678 2ef5 520F0000 		.4byte	.LASF276
 10679 2ef9 3501     		.2byte	0x135
 10680 2efb 37       		.byte	0x37
 10681 2efc BE120000 		.4byte	0x12be
 10682 2f00 AF080000 		.4byte	.LLST33
 10683 2f04 A7080000 		.4byte	.LVUS33
 10684 2f08 0F       		.uleb128 0xf
ARM GAS  C:\Users\DEVELO~1\AppData\Local\Temp\cc2saCCQ.s 			page 189


 10685 2f09 A4000000 		.4byte	.LASF38
 10686 2f0d 3501     		.2byte	0x135
 10687 2f0f 46       		.byte	0x46
 10688 2f10 E9000000 		.4byte	0xe9
 10689 2f14 D2080000 		.4byte	.LLST34
 10690 2f18 CA080000 		.4byte	.LVUS34
 10691 2f1c 07       		.uleb128 0x7
 10692 2f1d 7C3A0000 		.4byte	0x3a7c
 10693 2f21 50000000 		.4byte	.LBI351
 10694 2f25 0100     		.2byte	.LVU319
 10695 2f27 50000000 		.4byte	.LBB351
 10696 2f2b 06000000 		.4byte	.LBE351-.LBB351
 10697 2f2f 5301     		.2byte	0x153
 10698 2f31 05       		.byte	0x5
 10699 2f32 A42F0000 		.4byte	0x2fa4
 10700 2f36 04       		.uleb128 0x4
 10701 2f37 AA3A0000 		.4byte	0x3aaa
 10702 2f3b 50000000 		.4byte	.LBI352
 10703 2f3f 0300     		.2byte	.LVU321
 10704 2f41 50000000 		.4byte	.LBB352
 10705 2f45 06000000 		.4byte	.LBE352-.LBB352
 10706 2f49 03       		.byte	0x3
 10707 2f4a 5502     		.2byte	0x255
 10708 2f4c 03       		.byte	0x3
 10709 2f4d 04       		.uleb128 0x4
 10710 2f4e BC3A0000 		.4byte	0x3abc
 10711 2f52 50000000 		.4byte	.LBI353
 10712 2f56 0500     		.2byte	.LVU323
 10713 2f58 50000000 		.4byte	.LBB353
 10714 2f5c 06000000 		.4byte	.LBE353-.LBB353
 10715 2f60 04       		.byte	0x4
 10716 2f61 C501     		.2byte	0x1c5
 10717 2f63 03       		.byte	0x3
 10718 2f64 04       		.uleb128 0x4
 10719 2f65 CE3A0000 		.4byte	0x3ace
 10720 2f69 50000000 		.4byte	.LBI354
 10721 2f6d 0700     		.2byte	.LVU325
 10722 2f6f 50000000 		.4byte	.LBB354
 10723 2f73 06000000 		.4byte	.LBE354-.LBB354
 10724 2f77 05       		.byte	0x5
 10725 2f78 4F03     		.2byte	0x34f
 10726 2f7a 03       		.byte	0x3
 10727 2f7b 04       		.uleb128 0x4
 10728 2f7c D73A0000 		.4byte	0x3ad7
 10729 2f80 50000000 		.4byte	.LBI355
 10730 2f84 0900     		.2byte	.LVU327
 10731 2f86 50000000 		.4byte	.LBB355
 10732 2f8a 06000000 		.4byte	.LBE355-.LBB355
 10733 2f8e 05       		.byte	0x5
 10734 2f8f 2E03     		.2byte	0x32e
 10735 2f91 03       		.byte	0x3
 10736 2f92 02       		.uleb128 0x2
 10737 2f93 E53A0000 		.4byte	0x3ae5
 10738 2f97 EF080000 		.4byte	.LLST35
 10739 2f9b ED080000 		.4byte	.LVUS35
 10740 2f9f 00       		.byte	0
 10741 2fa0 00       		.byte	0
ARM GAS  C:\Users\DEVELO~1\AppData\Local\Temp\cc2saCCQ.s 			page 190


 10742 2fa1 00       		.byte	0
 10743 2fa2 00       		.byte	0
 10744 2fa3 00       		.byte	0
 10745 2fa4 07       		.uleb128 0x7
 10746 2fa5 4A3A0000 		.4byte	0x3a4a
 10747 2fa9 56000000 		.4byte	.LBI357
 10748 2fad 0400     		.2byte	.LVU333
 10749 2faf 56000000 		.4byte	.LBB357
 10750 2fb3 0A000000 		.4byte	.LBE357-.LBB357
 10751 2fb7 5301     		.2byte	0x153
 10752 2fb9 05       		.byte	0x5
 10753 2fba EE2F0000 		.4byte	0x2fee
 10754 2fbe 02       		.uleb128 0x2
 10755 2fbf 653A0000 		.4byte	0x3a65
 10756 2fc3 FC080000 		.4byte	.LLST36
 10757 2fc7 FA080000 		.4byte	.LVUS36
 10758 2fcb 02       		.uleb128 0x2
 10759 2fcc 583A0000 		.4byte	0x3a58
 10760 2fd0 0C090000 		.4byte	.LLST37
 10761 2fd4 06090000 		.4byte	.LVUS37
 10762 2fd8 0D       		.uleb128 0xd
 10763 2fd9 60000000 		.4byte	.LVL52
 10764 2fdd 5B140000 		.4byte	0x145b
 10765 2fe1 01       		.uleb128 0x1
 10766 2fe2 01       		.uleb128 0x1
 10767 2fe3 50       		.byte	0x50
 10768 2fe4 02       		.uleb128 0x2
 10769 2fe5 74       		.byte	0x74
 10770 2fe6 08       		.sleb128 8
 10771 2fe7 01       		.uleb128 0x1
 10772 2fe8 01       		.uleb128 0x1
 10773 2fe9 51       		.byte	0x51
 10774 2fea 01       		.uleb128 0x1
 10775 2feb 30       		.byte	0x30
 10776 2fec 00       		.byte	0
 10777 2fed 00       		.byte	0
 10778 2fee 07       		.uleb128 0x7
 10779 2fef 733A0000 		.4byte	0x3a73
 10780 2ff3 60000000 		.4byte	.LBI359
 10781 2ff7 0200     		.2byte	.LVU338
 10782 2ff9 60000000 		.4byte	.LBB359
 10783 2ffd 06000000 		.4byte	.LBE359-.LBB359
 10784 3001 5301     		.2byte	0x153
 10785 3003 05       		.byte	0x5
 10786 3004 76300000 		.4byte	0x3076
 10787 3008 04       		.uleb128 0x4
 10788 3009 A13A0000 		.4byte	0x3aa1
 10789 300d 60000000 		.4byte	.LBI361
 10790 3011 0400     		.2byte	.LVU340
 10791 3013 60000000 		.4byte	.LBB361
 10792 3017 06000000 		.4byte	.LBE361-.LBB361
 10793 301b 03       		.byte	0x3
 10794 301c 6002     		.2byte	0x260
 10795 301e 03       		.byte	0x3
 10796 301f 04       		.uleb128 0x4
 10797 3020 B33A0000 		.4byte	0x3ab3
 10798 3024 60000000 		.4byte	.LBI362
ARM GAS  C:\Users\DEVELO~1\AppData\Local\Temp\cc2saCCQ.s 			page 191


 10799 3028 0800     		.2byte	.LVU344
 10800 302a 60000000 		.4byte	.LBB362
 10801 302e 06000000 		.4byte	.LBE362-.LBB362
 10802 3032 04       		.byte	0x4
 10803 3033 DD01     		.2byte	0x1dd
 10804 3035 03       		.byte	0x3
 10805 3036 04       		.uleb128 0x4
 10806 3037 C53A0000 		.4byte	0x3ac5
 10807 303b 60000000 		.4byte	.LBI363
 10808 303f 0A00     		.2byte	.LVU346
 10809 3041 60000000 		.4byte	.LBB363
 10810 3045 06000000 		.4byte	.LBE363-.LBB363
 10811 3049 05       		.byte	0x5
 10812 304a 5A03     		.2byte	0x35a
 10813 304c 03       		.byte	0x3
 10814 304d 04       		.uleb128 0x4
 10815 304e D73A0000 		.4byte	0x3ad7
 10816 3052 60000000 		.4byte	.LBI364
 10817 3056 0C00     		.2byte	.LVU348
 10818 3058 60000000 		.4byte	.LBB364
 10819 305c 06000000 		.4byte	.LBE364-.LBB364
 10820 3060 05       		.byte	0x5
 10821 3061 4103     		.2byte	0x341
 10822 3063 03       		.byte	0x3
 10823 3064 02       		.uleb128 0x2
 10824 3065 E53A0000 		.4byte	0x3ae5
 10825 3069 27090000 		.4byte	.LLST38
 10826 306d 25090000 		.4byte	.LVUS38
 10827 3071 00       		.byte	0
 10828 3072 00       		.byte	0
 10829 3073 00       		.byte	0
 10830 3074 00       		.byte	0
 10831 3075 00       		.byte	0
 10832 3076 07       		.uleb128 0x7
 10833 3077 853A0000 		.4byte	0x3a85
 10834 307b 68000000 		.4byte	.LBI366
 10835 307f 0100     		.2byte	.LVU355
 10836 3081 68000000 		.4byte	.LBB366
 10837 3085 06000000 		.4byte	.LBE366-.LBB366
 10838 3089 3A01     		.2byte	0x13a
 10839 308b 05       		.byte	0x5
 10840 308c B1300000 		.4byte	0x30b1
 10841 3090 02       		.uleb128 0x2
 10842 3091 933A0000 		.4byte	0x3a93
 10843 3095 33090000 		.4byte	.LLST39
 10844 3099 31090000 		.4byte	.LVUS39
 10845 309d 0D       		.uleb128 0xd
 10846 309e 6E000000 		.4byte	.LVL56
 10847 30a2 BC130000 		.4byte	0x13bc
 10848 30a6 01       		.uleb128 0x1
 10849 30a7 01       		.uleb128 0x1
 10850 30a8 50       		.byte	0x50
 10851 30a9 05       		.uleb128 0x5
 10852 30aa 03       		.byte	0x3
 10853 30ab 00000000 		.4byte	.LC0
 10854 30af 00       		.byte	0
 10855 30b0 00       		.byte	0
ARM GAS  C:\Users\DEVELO~1\AppData\Local\Temp\cc2saCCQ.s 			page 192


 10856 30b1 07       		.uleb128 0x7
 10857 30b2 7C3A0000 		.4byte	0x3a7c
 10858 30b6 7E000000 		.4byte	.LBI368
 10859 30ba 0100     		.2byte	.LVU363
 10860 30bc 7E000000 		.4byte	.LBB368
 10861 30c0 06000000 		.4byte	.LBE368-.LBB368
 10862 30c4 4101     		.2byte	0x141
 10863 30c6 05       		.byte	0x5
 10864 30c7 39310000 		.4byte	0x3139
 10865 30cb 04       		.uleb128 0x4
 10866 30cc AA3A0000 		.4byte	0x3aaa
 10867 30d0 7E000000 		.4byte	.LBI369
 10868 30d4 0300     		.2byte	.LVU365
 10869 30d6 7E000000 		.4byte	.LBB369
 10870 30da 06000000 		.4byte	.LBE369-.LBB369
 10871 30de 03       		.byte	0x3
 10872 30df 5502     		.2byte	0x255
 10873 30e1 03       		.byte	0x3
 10874 30e2 04       		.uleb128 0x4
 10875 30e3 BC3A0000 		.4byte	0x3abc
 10876 30e7 7E000000 		.4byte	.LBI370
 10877 30eb 0500     		.2byte	.LVU367
 10878 30ed 7E000000 		.4byte	.LBB370
 10879 30f1 06000000 		.4byte	.LBE370-.LBB370
 10880 30f5 04       		.byte	0x4
 10881 30f6 C501     		.2byte	0x1c5
 10882 30f8 03       		.byte	0x3
 10883 30f9 04       		.uleb128 0x4
 10884 30fa CE3A0000 		.4byte	0x3ace
 10885 30fe 7E000000 		.4byte	.LBI371
 10886 3102 0700     		.2byte	.LVU369
 10887 3104 7E000000 		.4byte	.LBB371
 10888 3108 06000000 		.4byte	.LBE371-.LBB371
 10889 310c 05       		.byte	0x5
 10890 310d 4F03     		.2byte	0x34f
 10891 310f 03       		.byte	0x3
 10892 3110 04       		.uleb128 0x4
 10893 3111 D73A0000 		.4byte	0x3ad7
 10894 3115 7E000000 		.4byte	.LBI372
 10895 3119 0900     		.2byte	.LVU371
 10896 311b 7E000000 		.4byte	.LBB372
 10897 311f 06000000 		.4byte	.LBE372-.LBB372
 10898 3123 05       		.byte	0x5
 10899 3124 2E03     		.2byte	0x32e
 10900 3126 03       		.byte	0x3
 10901 3127 02       		.uleb128 0x2
 10902 3128 E53A0000 		.4byte	0x3ae5
 10903 312c 43090000 		.4byte	.LLST40
 10904 3130 41090000 		.4byte	.LVUS40
 10905 3134 00       		.byte	0
 10906 3135 00       		.byte	0
 10907 3136 00       		.byte	0
 10908 3137 00       		.byte	0
 10909 3138 00       		.byte	0
 10910 3139 07       		.uleb128 0x7
 10911 313a 4A3A0000 		.4byte	0x3a4a
 10912 313e 84000000 		.4byte	.LBI374
ARM GAS  C:\Users\DEVELO~1\AppData\Local\Temp\cc2saCCQ.s 			page 193


 10913 3142 0400     		.2byte	.LVU377
 10914 3144 84000000 		.4byte	.LBB374
 10915 3148 0A000000 		.4byte	.LBE374-.LBB374
 10916 314c 4101     		.2byte	0x141
 10917 314e 05       		.byte	0x5
 10918 314f 83310000 		.4byte	0x3183
 10919 3153 02       		.uleb128 0x2
 10920 3154 653A0000 		.4byte	0x3a65
 10921 3158 50090000 		.4byte	.LLST41
 10922 315c 4E090000 		.4byte	.LVUS41
 10923 3160 02       		.uleb128 0x2
 10924 3161 583A0000 		.4byte	0x3a58
 10925 3165 60090000 		.4byte	.LLST42
 10926 3169 5A090000 		.4byte	.LVUS42
 10927 316d 0D       		.uleb128 0xd
 10928 316e 8E000000 		.4byte	.LVL61
 10929 3172 5B140000 		.4byte	0x145b
 10930 3176 01       		.uleb128 0x1
 10931 3177 01       		.uleb128 0x1
 10932 3178 50       		.byte	0x50
 10933 3179 02       		.uleb128 0x2
 10934 317a 74       		.byte	0x74
 10935 317b 08       		.sleb128 8
 10936 317c 01       		.uleb128 0x1
 10937 317d 01       		.uleb128 0x1
 10938 317e 51       		.byte	0x51
 10939 317f 01       		.uleb128 0x1
 10940 3180 30       		.byte	0x30
 10941 3181 00       		.byte	0
 10942 3182 00       		.byte	0
 10943 3183 07       		.uleb128 0x7
 10944 3184 733A0000 		.4byte	0x3a73
 10945 3188 8E000000 		.4byte	.LBI376
 10946 318c 0200     		.2byte	.LVU382
 10947 318e 8E000000 		.4byte	.LBB376
 10948 3192 08000000 		.4byte	.LBE376-.LBB376
 10949 3196 4101     		.2byte	0x141
 10950 3198 05       		.byte	0x5
 10951 3199 0B320000 		.4byte	0x320b
 10952 319d 04       		.uleb128 0x4
 10953 319e A13A0000 		.4byte	0x3aa1
 10954 31a2 8E000000 		.4byte	.LBI378
 10955 31a6 0400     		.2byte	.LVU384
 10956 31a8 8E000000 		.4byte	.LBB378
 10957 31ac 06000000 		.4byte	.LBE378-.LBB378
 10958 31b0 03       		.byte	0x3
 10959 31b1 6002     		.2byte	0x260
 10960 31b3 03       		.byte	0x3
 10961 31b4 04       		.uleb128 0x4
 10962 31b5 B33A0000 		.4byte	0x3ab3
 10963 31b9 8E000000 		.4byte	.LBI379
 10964 31bd 0800     		.2byte	.LVU388
 10965 31bf 8E000000 		.4byte	.LBB379
 10966 31c3 06000000 		.4byte	.LBE379-.LBB379
 10967 31c7 04       		.byte	0x4
 10968 31c8 DD01     		.2byte	0x1dd
 10969 31ca 03       		.byte	0x3
ARM GAS  C:\Users\DEVELO~1\AppData\Local\Temp\cc2saCCQ.s 			page 194


 10970 31cb 04       		.uleb128 0x4
 10971 31cc C53A0000 		.4byte	0x3ac5
 10972 31d0 8E000000 		.4byte	.LBI380
 10973 31d4 0A00     		.2byte	.LVU390
 10974 31d6 8E000000 		.4byte	.LBB380
 10975 31da 06000000 		.4byte	.LBE380-.LBB380
 10976 31de 05       		.byte	0x5
 10977 31df 5A03     		.2byte	0x35a
 10978 31e1 03       		.byte	0x3
 10979 31e2 04       		.uleb128 0x4
 10980 31e3 D73A0000 		.4byte	0x3ad7
 10981 31e7 8E000000 		.4byte	.LBI381
 10982 31eb 0C00     		.2byte	.LVU392
 10983 31ed 8E000000 		.4byte	.LBB381
 10984 31f1 06000000 		.4byte	.LBE381-.LBB381
 10985 31f5 05       		.byte	0x5
 10986 31f6 4103     		.2byte	0x341
 10987 31f8 03       		.byte	0x3
 10988 31f9 02       		.uleb128 0x2
 10989 31fa E53A0000 		.4byte	0x3ae5
 10990 31fe 7B090000 		.4byte	.LLST43
 10991 3202 79090000 		.4byte	.LVUS43
 10992 3206 00       		.byte	0
 10993 3207 00       		.byte	0
 10994 3208 00       		.byte	0
 10995 3209 00       		.byte	0
 10996 320a 00       		.byte	0
 10997 320b 2E       		.uleb128 0x2e
 10998 320c 1E000000 		.4byte	.LVL44
 10999 3210 1B320000 		.4byte	0x321b
 11000 3214 01       		.uleb128 0x1
 11001 3215 01       		.uleb128 0x1
 11002 3216 50       		.byte	0x50
 11003 3217 02       		.uleb128 0x2
 11004 3218 74       		.byte	0x74
 11005 3219 00       		.sleb128 0
 11006 321a 00       		.byte	0
 11007 321b 2E       		.uleb128 0x2e
 11008 321c 30000000 		.4byte	.LVL45
 11009 3220 2B320000 		.4byte	0x322b
 11010 3224 01       		.uleb128 0x1
 11011 3225 01       		.uleb128 0x1
 11012 3226 50       		.byte	0x50
 11013 3227 02       		.uleb128 0x2
 11014 3228 74       		.byte	0x74
 11015 3229 00       		.sleb128 0
 11016 322a 00       		.byte	0
 11017 322b 06       		.uleb128 0x6
 11018 322c 3E000000 		.4byte	.LVL47
 11019 3230 25360000 		.4byte	0x3625
 11020 3234 3F320000 		.4byte	0x323f
 11021 3238 01       		.uleb128 0x1
 11022 3239 01       		.uleb128 0x1
 11023 323a 50       		.byte	0x50
 11024 323b 02       		.uleb128 0x2
 11025 323c 74       		.byte	0x74
 11026 323d 00       		.sleb128 0
ARM GAS  C:\Users\DEVELO~1\AppData\Local\Temp\cc2saCCQ.s 			page 195


 11027 323e 00       		.byte	0
 11028 323f 2E       		.uleb128 0x2e
 11029 3240 4A000000 		.4byte	.LVL48
 11030 3244 4F320000 		.4byte	0x324f
 11031 3248 01       		.uleb128 0x1
 11032 3249 01       		.uleb128 0x1
 11033 324a 50       		.byte	0x50
 11034 324b 02       		.uleb128 0x2
 11035 324c 74       		.byte	0x74
 11036 324d 00       		.sleb128 0
 11037 324e 00       		.byte	0
 11038 324f 06       		.uleb128 0x6
 11039 3250 74000000 		.4byte	.LVL57
 11040 3254 84360000 		.4byte	0x3684
 11041 3258 63320000 		.4byte	0x3263
 11042 325c 01       		.uleb128 0x1
 11043 325d 01       		.uleb128 0x1
 11044 325e 50       		.byte	0x50
 11045 325f 02       		.uleb128 0x2
 11046 3260 74       		.byte	0x74
 11047 3261 00       		.sleb128 0
 11048 3262 00       		.byte	0
 11049 3263 20       		.uleb128 0x20
 11050 3264 7E000000 		.4byte	.LVL58
 11051 3268 01       		.uleb128 0x1
 11052 3269 01       		.uleb128 0x1
 11053 326a 50       		.byte	0x50
 11054 326b 02       		.uleb128 0x2
 11055 326c 74       		.byte	0x74
 11056 326d 00       		.sleb128 0
 11057 326e 00       		.byte	0
 11058 326f 00       		.byte	0
 11059 3270 16       		.uleb128 0x16
 11060 3271 AD010000 		.4byte	.LASF309
 11061 3275 01       		.byte	0x1
 11062 3276 1D01     		.2byte	0x11d
 11063 3278 0D       		.byte	0xd
 11064 3279 01       		.byte	0x1
 11065 327a 99320000 		.4byte	0x3299
 11066 327e 0C       		.uleb128 0xc
 11067 327f 520F0000 		.4byte	.LASF276
 11068 3283 01       		.byte	0x1
 11069 3284 1D01     		.2byte	0x11d
 11070 3286 38       		.byte	0x38
 11071 3287 BE120000 		.4byte	0x12be
 11072 328b 0C       		.uleb128 0xc
 11073 328c A4000000 		.4byte	.LASF38
 11074 3290 01       		.byte	0x1
 11075 3291 1D01     		.2byte	0x11d
 11076 3293 47       		.byte	0x47
 11077 3294 E9000000 		.4byte	0xe9
 11078 3298 00       		.byte	0
 11079 3299 47       		.uleb128 0x47
 11080 329a A8070000 		.4byte	.LASF311
 11081 329e F5       		.byte	0xf5
 11082 329f 00000000 		.4byte	.LFB436
 11083 32a3 A4000000 		.4byte	.LFE436-.LFB436
ARM GAS  C:\Users\DEVELO~1\AppData\Local\Temp\cc2saCCQ.s 			page 196


 11084 32a7 01       		.uleb128 0x1
 11085 32a8 9C       		.byte	0x9c
 11086 32a9 25360000 		.4byte	0x3625
 11087 32ad 38       		.uleb128 0x38
 11088 32ae 520F0000 		.4byte	.LASF276
 11089 32b2 F5       		.byte	0xf5
 11090 32b3 38       		.byte	0x38
 11091 32b4 BE120000 		.4byte	0x12be
 11092 32b8 8D090000 		.4byte	.LLST44
 11093 32bc 85090000 		.4byte	.LVUS44
 11094 32c0 38       		.uleb128 0x38
 11095 32c1 A4000000 		.4byte	.LASF38
 11096 32c5 F5       		.byte	0xf5
 11097 32c6 47       		.byte	0x47
 11098 32c7 E9000000 		.4byte	0xe9
 11099 32cb AC090000 		.4byte	.LLST45
 11100 32cf A8090000 		.4byte	.LVUS45
 11101 32d3 07       		.uleb128 0x7
 11102 32d4 7C3A0000 		.4byte	0x3a7c
 11103 32d8 4E000000 		.4byte	.LBI383
 11104 32dc 0100     		.2byte	.LVU431
 11105 32de 4E000000 		.4byte	.LBB383
 11106 32e2 06000000 		.4byte	.LBE383-.LBB383
 11107 32e6 1301     		.2byte	0x113
 11108 32e8 05       		.byte	0x5
 11109 32e9 5B330000 		.4byte	0x335b
 11110 32ed 04       		.uleb128 0x4
 11111 32ee AA3A0000 		.4byte	0x3aaa
 11112 32f2 4E000000 		.4byte	.LBI384
 11113 32f6 0300     		.2byte	.LVU433
 11114 32f8 4E000000 		.4byte	.LBB384
 11115 32fc 06000000 		.4byte	.LBE384-.LBB384
 11116 3300 03       		.byte	0x3
 11117 3301 5502     		.2byte	0x255
 11118 3303 03       		.byte	0x3
 11119 3304 04       		.uleb128 0x4
 11120 3305 BC3A0000 		.4byte	0x3abc
 11121 3309 4E000000 		.4byte	.LBI385
 11122 330d 0500     		.2byte	.LVU435
 11123 330f 4E000000 		.4byte	.LBB385
 11124 3313 06000000 		.4byte	.LBE385-.LBB385
 11125 3317 04       		.byte	0x4
 11126 3318 C501     		.2byte	0x1c5
 11127 331a 03       		.byte	0x3
 11128 331b 04       		.uleb128 0x4
 11129 331c CE3A0000 		.4byte	0x3ace
 11130 3320 4E000000 		.4byte	.LBI386
 11131 3324 0700     		.2byte	.LVU437
 11132 3326 4E000000 		.4byte	.LBB386
 11133 332a 06000000 		.4byte	.LBE386-.LBB386
 11134 332e 05       		.byte	0x5
 11135 332f 4F03     		.2byte	0x34f
 11136 3331 03       		.byte	0x3
 11137 3332 04       		.uleb128 0x4
 11138 3333 D73A0000 		.4byte	0x3ad7
 11139 3337 4E000000 		.4byte	.LBI387
 11140 333b 0900     		.2byte	.LVU439
ARM GAS  C:\Users\DEVELO~1\AppData\Local\Temp\cc2saCCQ.s 			page 197


 11141 333d 4E000000 		.4byte	.LBB387
 11142 3341 06000000 		.4byte	.LBE387-.LBB387
 11143 3345 05       		.byte	0x5
 11144 3346 2E03     		.2byte	0x32e
 11145 3348 03       		.byte	0x3
 11146 3349 02       		.uleb128 0x2
 11147 334a E53A0000 		.4byte	0x3ae5
 11148 334e BF090000 		.4byte	.LLST46
 11149 3352 BD090000 		.4byte	.LVUS46
 11150 3356 00       		.byte	0
 11151 3357 00       		.byte	0
 11152 3358 00       		.byte	0
 11153 3359 00       		.byte	0
 11154 335a 00       		.byte	0
 11155 335b 07       		.uleb128 0x7
 11156 335c 4A3A0000 		.4byte	0x3a4a
 11157 3360 54000000 		.4byte	.LBI389
 11158 3364 0400     		.2byte	.LVU445
 11159 3366 54000000 		.4byte	.LBB389
 11160 336a 0A000000 		.4byte	.LBE389-.LBB389
 11161 336e 1301     		.2byte	0x113
 11162 3370 05       		.byte	0x5
 11163 3371 A5330000 		.4byte	0x33a5
 11164 3375 02       		.uleb128 0x2
 11165 3376 653A0000 		.4byte	0x3a65
 11166 337a CC090000 		.4byte	.LLST47
 11167 337e CA090000 		.4byte	.LVUS47
 11168 3382 02       		.uleb128 0x2
 11169 3383 583A0000 		.4byte	0x3a58
 11170 3387 DC090000 		.4byte	.LLST48
 11171 338b D6090000 		.4byte	.LVUS48
 11172 338f 0D       		.uleb128 0xd
 11173 3390 5E000000 		.4byte	.LVL75
 11174 3394 5B140000 		.4byte	0x145b
 11175 3398 01       		.uleb128 0x1
 11176 3399 01       		.uleb128 0x1
 11177 339a 50       		.byte	0x50
 11178 339b 02       		.uleb128 0x2
 11179 339c 74       		.byte	0x74
 11180 339d 08       		.sleb128 8
 11181 339e 01       		.uleb128 0x1
 11182 339f 01       		.uleb128 0x1
 11183 33a0 51       		.byte	0x51
 11184 33a1 01       		.uleb128 0x1
 11185 33a2 30       		.byte	0x30
 11186 33a3 00       		.byte	0
 11187 33a4 00       		.byte	0
 11188 33a5 07       		.uleb128 0x7
 11189 33a6 733A0000 		.4byte	0x3a73
 11190 33aa 5E000000 		.4byte	.LBI391
 11191 33ae 0200     		.2byte	.LVU450
 11192 33b0 5E000000 		.4byte	.LBB391
 11193 33b4 06000000 		.4byte	.LBE391-.LBB391
 11194 33b8 1301     		.2byte	0x113
 11195 33ba 05       		.byte	0x5
 11196 33bb 2D340000 		.4byte	0x342d
 11197 33bf 04       		.uleb128 0x4
ARM GAS  C:\Users\DEVELO~1\AppData\Local\Temp\cc2saCCQ.s 			page 198


 11198 33c0 A13A0000 		.4byte	0x3aa1
 11199 33c4 5E000000 		.4byte	.LBI393
 11200 33c8 0400     		.2byte	.LVU452
 11201 33ca 5E000000 		.4byte	.LBB393
 11202 33ce 06000000 		.4byte	.LBE393-.LBB393
 11203 33d2 03       		.byte	0x3
 11204 33d3 6002     		.2byte	0x260
 11205 33d5 03       		.byte	0x3
 11206 33d6 04       		.uleb128 0x4
 11207 33d7 B33A0000 		.4byte	0x3ab3
 11208 33db 5E000000 		.4byte	.LBI394
 11209 33df 0800     		.2byte	.LVU456
 11210 33e1 5E000000 		.4byte	.LBB394
 11211 33e5 06000000 		.4byte	.LBE394-.LBB394
 11212 33e9 04       		.byte	0x4
 11213 33ea DD01     		.2byte	0x1dd
 11214 33ec 03       		.byte	0x3
 11215 33ed 04       		.uleb128 0x4
 11216 33ee C53A0000 		.4byte	0x3ac5
 11217 33f2 5E000000 		.4byte	.LBI395
 11218 33f6 0A00     		.2byte	.LVU458
 11219 33f8 5E000000 		.4byte	.LBB395
 11220 33fc 06000000 		.4byte	.LBE395-.LBB395
 11221 3400 05       		.byte	0x5
 11222 3401 5A03     		.2byte	0x35a
 11223 3403 03       		.byte	0x3
 11224 3404 04       		.uleb128 0x4
 11225 3405 D73A0000 		.4byte	0x3ad7
 11226 3409 5E000000 		.4byte	.LBI396
 11227 340d 0C00     		.2byte	.LVU460
 11228 340f 5E000000 		.4byte	.LBB396
 11229 3413 06000000 		.4byte	.LBE396-.LBB396
 11230 3417 05       		.byte	0x5
 11231 3418 4103     		.2byte	0x341
 11232 341a 03       		.byte	0x3
 11233 341b 02       		.uleb128 0x2
 11234 341c E53A0000 		.4byte	0x3ae5
 11235 3420 F7090000 		.4byte	.LLST49
 11236 3424 F5090000 		.4byte	.LVUS49
 11237 3428 00       		.byte	0
 11238 3429 00       		.byte	0
 11239 342a 00       		.byte	0
 11240 342b 00       		.byte	0
 11241 342c 00       		.byte	0
 11242 342d 3E       		.uleb128 0x3e
 11243 342e 853A0000 		.4byte	0x3a85
 11244 3432 66000000 		.4byte	.LBI398
 11245 3436 0100     		.2byte	.LVU467
 11246 3438 66000000 		.4byte	.LBB398
 11247 343c 06000000 		.4byte	.LBE398-.LBB398
 11248 3440 FA       		.byte	0xfa
 11249 3441 66340000 		.4byte	0x3466
 11250 3445 02       		.uleb128 0x2
 11251 3446 933A0000 		.4byte	0x3a93
 11252 344a 030A0000 		.4byte	.LLST50
 11253 344e 010A0000 		.4byte	.LVUS50
 11254 3452 0D       		.uleb128 0xd
ARM GAS  C:\Users\DEVELO~1\AppData\Local\Temp\cc2saCCQ.s 			page 199


 11255 3453 6C000000 		.4byte	.LVL79
 11256 3457 BC130000 		.4byte	0x13bc
 11257 345b 01       		.uleb128 0x1
 11258 345c 01       		.uleb128 0x1
 11259 345d 50       		.byte	0x50
 11260 345e 05       		.uleb128 0x5
 11261 345f 03       		.byte	0x3
 11262 3460 00000000 		.4byte	.LC0
 11263 3464 00       		.byte	0
 11264 3465 00       		.byte	0
 11265 3466 07       		.uleb128 0x7
 11266 3467 7C3A0000 		.4byte	0x3a7c
 11267 346b 7C000000 		.4byte	.LBI400
 11268 346f 0100     		.2byte	.LVU475
 11269 3471 7C000000 		.4byte	.LBB400
 11270 3475 06000000 		.4byte	.LBE400-.LBB400
 11271 3479 0101     		.2byte	0x101
 11272 347b 05       		.byte	0x5
 11273 347c EE340000 		.4byte	0x34ee
 11274 3480 04       		.uleb128 0x4
 11275 3481 AA3A0000 		.4byte	0x3aaa
 11276 3485 7C000000 		.4byte	.LBI401
 11277 3489 0300     		.2byte	.LVU477
 11278 348b 7C000000 		.4byte	.LBB401
 11279 348f 06000000 		.4byte	.LBE401-.LBB401
 11280 3493 03       		.byte	0x3
 11281 3494 5502     		.2byte	0x255
 11282 3496 03       		.byte	0x3
 11283 3497 04       		.uleb128 0x4
 11284 3498 BC3A0000 		.4byte	0x3abc
 11285 349c 7C000000 		.4byte	.LBI402
 11286 34a0 0500     		.2byte	.LVU479
 11287 34a2 7C000000 		.4byte	.LBB402
 11288 34a6 06000000 		.4byte	.LBE402-.LBB402
 11289 34aa 04       		.byte	0x4
 11290 34ab C501     		.2byte	0x1c5
 11291 34ad 03       		.byte	0x3
 11292 34ae 04       		.uleb128 0x4
 11293 34af CE3A0000 		.4byte	0x3ace
 11294 34b3 7C000000 		.4byte	.LBI403
 11295 34b7 0700     		.2byte	.LVU481
 11296 34b9 7C000000 		.4byte	.LBB403
 11297 34bd 06000000 		.4byte	.LBE403-.LBB403
 11298 34c1 05       		.byte	0x5
 11299 34c2 4F03     		.2byte	0x34f
 11300 34c4 03       		.byte	0x3
 11301 34c5 04       		.uleb128 0x4
 11302 34c6 D73A0000 		.4byte	0x3ad7
 11303 34ca 7C000000 		.4byte	.LBI404
 11304 34ce 0900     		.2byte	.LVU483
 11305 34d0 7C000000 		.4byte	.LBB404
 11306 34d4 06000000 		.4byte	.LBE404-.LBB404
 11307 34d8 05       		.byte	0x5
 11308 34d9 2E03     		.2byte	0x32e
 11309 34db 03       		.byte	0x3
 11310 34dc 02       		.uleb128 0x2
 11311 34dd E53A0000 		.4byte	0x3ae5
ARM GAS  C:\Users\DEVELO~1\AppData\Local\Temp\cc2saCCQ.s 			page 200


 11312 34e1 130A0000 		.4byte	.LLST51
 11313 34e5 110A0000 		.4byte	.LVUS51
 11314 34e9 00       		.byte	0
 11315 34ea 00       		.byte	0
 11316 34eb 00       		.byte	0
 11317 34ec 00       		.byte	0
 11318 34ed 00       		.byte	0
 11319 34ee 07       		.uleb128 0x7
 11320 34ef 4A3A0000 		.4byte	0x3a4a
 11321 34f3 82000000 		.4byte	.LBI406
 11322 34f7 0400     		.2byte	.LVU489
 11323 34f9 82000000 		.4byte	.LBB406
 11324 34fd 0A000000 		.4byte	.LBE406-.LBB406
 11325 3501 0101     		.2byte	0x101
 11326 3503 05       		.byte	0x5
 11327 3504 38350000 		.4byte	0x3538
 11328 3508 02       		.uleb128 0x2
 11329 3509 653A0000 		.4byte	0x3a65
 11330 350d 200A0000 		.4byte	.LLST52
 11331 3511 1E0A0000 		.4byte	.LVUS52
 11332 3515 02       		.uleb128 0x2
 11333 3516 583A0000 		.4byte	0x3a58
 11334 351a 300A0000 		.4byte	.LLST53
 11335 351e 2A0A0000 		.4byte	.LVUS53
 11336 3522 0D       		.uleb128 0xd
 11337 3523 8C000000 		.4byte	.LVL84
 11338 3527 5B140000 		.4byte	0x145b
 11339 352b 01       		.uleb128 0x1
 11340 352c 01       		.uleb128 0x1
 11341 352d 50       		.byte	0x50
 11342 352e 02       		.uleb128 0x2
 11343 352f 74       		.byte	0x74
 11344 3530 08       		.sleb128 8
 11345 3531 01       		.uleb128 0x1
 11346 3532 01       		.uleb128 0x1
 11347 3533 51       		.byte	0x51
 11348 3534 01       		.uleb128 0x1
 11349 3535 30       		.byte	0x30
 11350 3536 00       		.byte	0
 11351 3537 00       		.byte	0
 11352 3538 07       		.uleb128 0x7
 11353 3539 733A0000 		.4byte	0x3a73
 11354 353d 8C000000 		.4byte	.LBI408
 11355 3541 0200     		.2byte	.LVU494
 11356 3543 8C000000 		.4byte	.LBB408
 11357 3547 08000000 		.4byte	.LBE408-.LBB408
 11358 354b 0101     		.2byte	0x101
 11359 354d 05       		.byte	0x5
 11360 354e C0350000 		.4byte	0x35c0
 11361 3552 04       		.uleb128 0x4
 11362 3553 A13A0000 		.4byte	0x3aa1
 11363 3557 8C000000 		.4byte	.LBI410
 11364 355b 0400     		.2byte	.LVU496
 11365 355d 8C000000 		.4byte	.LBB410
 11366 3561 06000000 		.4byte	.LBE410-.LBB410
 11367 3565 03       		.byte	0x3
 11368 3566 6002     		.2byte	0x260
ARM GAS  C:\Users\DEVELO~1\AppData\Local\Temp\cc2saCCQ.s 			page 201


 11369 3568 03       		.byte	0x3
 11370 3569 04       		.uleb128 0x4
 11371 356a B33A0000 		.4byte	0x3ab3
 11372 356e 8C000000 		.4byte	.LBI411
 11373 3572 0800     		.2byte	.LVU500
 11374 3574 8C000000 		.4byte	.LBB411
 11375 3578 06000000 		.4byte	.LBE411-.LBB411
 11376 357c 04       		.byte	0x4
 11377 357d DD01     		.2byte	0x1dd
 11378 357f 03       		.byte	0x3
 11379 3580 04       		.uleb128 0x4
 11380 3581 C53A0000 		.4byte	0x3ac5
 11381 3585 8C000000 		.4byte	.LBI412
 11382 3589 0A00     		.2byte	.LVU502
 11383 358b 8C000000 		.4byte	.LBB412
 11384 358f 06000000 		.4byte	.LBE412-.LBB412
 11385 3593 05       		.byte	0x5
 11386 3594 5A03     		.2byte	0x35a
 11387 3596 03       		.byte	0x3
 11388 3597 04       		.uleb128 0x4
 11389 3598 D73A0000 		.4byte	0x3ad7
 11390 359c 8C000000 		.4byte	.LBI413
 11391 35a0 0C00     		.2byte	.LVU504
 11392 35a2 8C000000 		.4byte	.LBB413
 11393 35a6 06000000 		.4byte	.LBE413-.LBB413
 11394 35aa 05       		.byte	0x5
 11395 35ab 4103     		.2byte	0x341
 11396 35ad 03       		.byte	0x3
 11397 35ae 02       		.uleb128 0x2
 11398 35af E53A0000 		.4byte	0x3ae5
 11399 35b3 4B0A0000 		.4byte	.LLST54
 11400 35b7 490A0000 		.4byte	.LVUS54
 11401 35bb 00       		.byte	0
 11402 35bc 00       		.byte	0
 11403 35bd 00       		.byte	0
 11404 35be 00       		.byte	0
 11405 35bf 00       		.byte	0
 11406 35c0 2E       		.uleb128 0x2e
 11407 35c1 1C000000 		.4byte	.LVL67
 11408 35c5 D0350000 		.4byte	0x35d0
 11409 35c9 01       		.uleb128 0x1
 11410 35ca 01       		.uleb128 0x1
 11411 35cb 50       		.byte	0x50
 11412 35cc 02       		.uleb128 0x2
 11413 35cd 74       		.byte	0x74
 11414 35ce 00       		.sleb128 0
 11415 35cf 00       		.byte	0
 11416 35d0 2E       		.uleb128 0x2e
 11417 35d1 2E000000 		.4byte	.LVL68
 11418 35d5 E0350000 		.4byte	0x35e0
 11419 35d9 01       		.uleb128 0x1
 11420 35da 01       		.uleb128 0x1
 11421 35db 50       		.byte	0x50
 11422 35dc 02       		.uleb128 0x2
 11423 35dd 74       		.byte	0x74
 11424 35de 00       		.sleb128 0
 11425 35df 00       		.byte	0
ARM GAS  C:\Users\DEVELO~1\AppData\Local\Temp\cc2saCCQ.s 			page 202


 11426 35e0 06       		.uleb128 0x6
 11427 35e1 3C000000 		.4byte	.LVL70
 11428 35e5 25360000 		.4byte	0x3625
 11429 35e9 F4350000 		.4byte	0x35f4
 11430 35ed 01       		.uleb128 0x1
 11431 35ee 01       		.uleb128 0x1
 11432 35ef 50       		.byte	0x50
 11433 35f0 02       		.uleb128 0x2
 11434 35f1 74       		.byte	0x74
 11435 35f2 00       		.sleb128 0
 11436 35f3 00       		.byte	0
 11437 35f4 2E       		.uleb128 0x2e
 11438 35f5 48000000 		.4byte	.LVL71
 11439 35f9 04360000 		.4byte	0x3604
 11440 35fd 01       		.uleb128 0x1
 11441 35fe 01       		.uleb128 0x1
 11442 35ff 50       		.byte	0x50
 11443 3600 02       		.uleb128 0x2
 11444 3601 74       		.byte	0x74
 11445 3602 00       		.sleb128 0
 11446 3603 00       		.byte	0
 11447 3604 06       		.uleb128 0x6
 11448 3605 72000000 		.4byte	.LVL80
 11449 3609 84360000 		.4byte	0x3684
 11450 360d 18360000 		.4byte	0x3618
 11451 3611 01       		.uleb128 0x1
 11452 3612 01       		.uleb128 0x1
 11453 3613 50       		.byte	0x50
 11454 3614 02       		.uleb128 0x2
 11455 3615 74       		.byte	0x74
 11456 3616 00       		.sleb128 0
 11457 3617 00       		.byte	0
 11458 3618 20       		.uleb128 0x20
 11459 3619 7C000000 		.4byte	.LVL81
 11460 361d 01       		.uleb128 0x1
 11461 361e 01       		.uleb128 0x1
 11462 361f 50       		.byte	0x50
 11463 3620 02       		.uleb128 0x2
 11464 3621 74       		.byte	0x74
 11465 3622 00       		.sleb128 0
 11466 3623 00       		.byte	0
 11467 3624 00       		.byte	0
 11468 3625 55       		.uleb128 0x55
 11469 3626 59060000 		.4byte	.LASF344
 11470 362a 01       		.byte	0x1
 11471 362b BE       		.byte	0xbe
 11472 362c 0E       		.byte	0xe
 11473 362d 5F010000 		.4byte	0x15f
 11474 3631 00000000 		.4byte	.LFB435
 11475 3635 B4000000 		.4byte	.LFE435-.LFB435
 11476 3639 01       		.uleb128 0x1
 11477 363a 9C       		.byte	0x9c
 11478 363b 84360000 		.4byte	0x3684
 11479 363f 38       		.uleb128 0x38
 11480 3640 520F0000 		.4byte	.LASF276
 11481 3644 BE       		.byte	0xbe
 11482 3645 2D       		.byte	0x2d
ARM GAS  C:\Users\DEVELO~1\AppData\Local\Temp\cc2saCCQ.s 			page 203


 11483 3646 BE120000 		.4byte	0x12be
 11484 364a 650A0000 		.4byte	.LLST18
 11485 364e 550A0000 		.4byte	.LVUS18
 11486 3652 39       		.uleb128 0x39
 11487 3653 95380000 		.4byte	0x3895
 11488 3657 94000000 		.4byte	.LBI329
 11489 365b 0300     		.2byte	.LVU212
 11490 365d 78000000 		.4byte	.LLRL19
 11491 3661 E8       		.byte	0xe8
 11492 3662 03       		.byte	0x3
 11493 3663 7A360000 		.4byte	0x367a
 11494 3667 13       		.uleb128 0x13
 11495 3668 A2380000 		.4byte	0x38a2
 11496 366c 02       		.uleb128 0x2
 11497 366d A2380000 		.4byte	0x38a2
 11498 3671 A30A0000 		.4byte	.LLST20
 11499 3675 A10A0000 		.4byte	.LVUS20
 11500 3679 00       		.byte	0
 11501 367a 28       		.uleb128 0x28
 11502 367b B0000000 		.4byte	.LVL27
 11503 367f 84360000 		.4byte	0x3684
 11504 3683 00       		.byte	0
 11505 3684 47       		.uleb128 0x47
 11506 3685 61000000 		.4byte	.LASF312
 11507 3689 72       		.byte	0x72
 11508 368a 00000000 		.4byte	.LFB434
 11509 368e 6C010000 		.4byte	.LFE434-.LFB434
 11510 3692 01       		.uleb128 0x1
 11511 3693 9C       		.byte	0x9c
 11512 3694 80380000 		.4byte	0x3880
 11513 3698 38       		.uleb128 0x38
 11514 3699 520F0000 		.4byte	.LASF276
 11515 369d 72       		.byte	0x72
 11516 369e 2B       		.byte	0x2b
 11517 369f BE120000 		.4byte	0x12be
 11518 36a3 BF0A0000 		.4byte	.LLST1
 11519 36a7 AF0A0000 		.4byte	.LVUS1
 11520 36ab 26       		.uleb128 0x26
 11521 36ac 6D0E0000 		.4byte	.LASF291
 11522 36b0 90380000 		.4byte	0x3890
 11523 36b4 3E       		.uleb128 0x3e
 11524 36b5 E3380000 		.4byte	0x38e3
 11525 36b9 54000000 		.4byte	.LBI271
 11526 36bd 0100     		.2byte	.LVU66
 11527 36bf 54000000 		.4byte	.LBB271
 11528 36c3 20000000 		.4byte	.LBE271-.LBB271
 11529 36c7 AD       		.byte	0xad
 11530 36c8 FF360000 		.4byte	0x36ff
 11531 36cc 02       		.uleb128 0x2
 11532 36cd F1380000 		.4byte	0x38f1
 11533 36d1 0A0B0000 		.4byte	.LLST2
 11534 36d5 080B0000 		.4byte	.LVUS2
 11535 36d9 04       		.uleb128 0x4
 11536 36da FC390000 		.4byte	0x39fc
 11537 36de 54000000 		.4byte	.LBI273
 11538 36e2 0300     		.2byte	.LVU68
 11539 36e4 54000000 		.4byte	.LBB273
ARM GAS  C:\Users\DEVELO~1\AppData\Local\Temp\cc2saCCQ.s 			page 204


 11540 36e8 1E000000 		.4byte	.LBE273-.LBB273
 11541 36ec 02       		.byte	0x2
 11542 36ed 3F02     		.2byte	0x23f
 11543 36ef 03       		.byte	0x3
 11544 36f0 02       		.uleb128 0x2
 11545 36f1 093A0000 		.4byte	0x3a09
 11546 36f5 170B0000 		.4byte	.LLST3
 11547 36f9 150B0000 		.4byte	.LVUS3
 11548 36fd 00       		.byte	0
 11549 36fe 00       		.byte	0
 11550 36ff 39       		.uleb128 0x39
 11551 3700 43390000 		.4byte	0x3943
 11552 3704 B2000000 		.4byte	.LBI275
 11553 3708 0100     		.2byte	.LVU97
 11554 370a 0C000000 		.4byte	.LLRL4
 11555 370e 8F       		.byte	0x8f
 11556 370f 05       		.byte	0x5
 11557 3710 42370000 		.4byte	0x3742
 11558 3714 02       		.uleb128 0x2
 11559 3715 51390000 		.4byte	0x3951
 11560 3719 240B0000 		.4byte	.LLST5
 11561 371d 220B0000 		.4byte	.LVUS5
 11562 3721 25       		.uleb128 0x25
 11563 3722 163A0000 		.4byte	0x3a16
 11564 3726 B2000000 		.4byte	.LBI277
 11565 372a 0300     		.2byte	.LVU99
 11566 372c 1E000000 		.4byte	.LLRL6
 11567 3730 02       		.byte	0x2
 11568 3731 8D01     		.2byte	0x18d
 11569 3733 02       		.uleb128 0x2
 11570 3734 233A0000 		.4byte	0x3a23
 11571 3738 320B0000 		.4byte	.LLST7
 11572 373c 300B0000 		.4byte	.LVUS7
 11573 3740 00       		.byte	0
 11574 3741 00       		.byte	0
 11575 3742 3E       		.uleb128 0x3e
 11576 3743 A3390000 		.4byte	0x39a3
 11577 3747 DA000000 		.4byte	.LBI291
 11578 374b 0100     		.2byte	.LVU115
 11579 374d DA000000 		.4byte	.LBB291
 11580 3751 1E000000 		.4byte	.LBE291-.LBB291
 11581 3755 95       		.byte	0x95
 11582 3756 8C370000 		.4byte	0x378c
 11583 375a 02       		.uleb128 0x2
 11584 375b B0390000 		.4byte	0x39b0
 11585 375f 400B0000 		.4byte	.LLST8
 11586 3763 3E0B0000 		.4byte	.LVUS8
 11587 3767 1F       		.uleb128 0x1f
 11588 3768 303A0000 		.4byte	0x3a30
 11589 376c DA000000 		.4byte	.LBI293
 11590 3770 0300     		.2byte	.LVU117
 11591 3772 DA000000 		.4byte	.LBB293
 11592 3776 1E000000 		.4byte	.LBE293-.LBB293
 11593 377a 02       		.byte	0x2
 11594 377b DB       		.byte	0xdb
 11595 377c 03       		.byte	0x3
 11596 377d 02       		.uleb128 0x2
ARM GAS  C:\Users\DEVELO~1\AppData\Local\Temp\cc2saCCQ.s 			page 205


 11597 377e 3D3A0000 		.4byte	0x3a3d
 11598 3782 4E0B0000 		.4byte	.LLST9
 11599 3786 4C0B0000 		.4byte	.LVUS9
 11600 378a 00       		.byte	0
 11601 378b 00       		.byte	0
 11602 378c 39       		.uleb128 0x39
 11603 378d A3390000 		.4byte	0x39a3
 11604 3791 02010000 		.4byte	.LBI295
 11605 3795 0100     		.2byte	.LVU130
 11606 3797 30000000 		.4byte	.LLRL10
 11607 379b 9B       		.byte	0x9b
 11608 379c 05       		.byte	0x5
 11609 379d CF370000 		.4byte	0x37cf
 11610 37a1 02       		.uleb128 0x2
 11611 37a2 B0390000 		.4byte	0x39b0
 11612 37a6 5C0B0000 		.4byte	.LLST11
 11613 37aa 5A0B0000 		.4byte	.LVUS11
 11614 37ae 56       		.uleb128 0x56
 11615 37af 303A0000 		.4byte	0x3a30
 11616 37b3 02010000 		.4byte	.LBI297
 11617 37b7 0300     		.2byte	.LVU132
 11618 37b9 42000000 		.4byte	.LLRL12
 11619 37bd 02       		.byte	0x2
 11620 37be DB       		.byte	0xdb
 11621 37bf 03       		.byte	0x3
 11622 37c0 02       		.uleb128 0x2
 11623 37c1 3D3A0000 		.4byte	0x3a3d
 11624 37c5 6A0B0000 		.4byte	.LLST13
 11625 37c9 680B0000 		.4byte	.LVUS13
 11626 37cd 00       		.byte	0
 11627 37ce 00       		.byte	0
 11628 37cf 39       		.uleb128 0x39
 11629 37d0 43390000 		.4byte	0x3943
 11630 37d4 2A010000 		.4byte	.LBI311
 11631 37d8 0100     		.2byte	.LVU148
 11632 37da 54000000 		.4byte	.LLRL14
 11633 37de A7       		.byte	0xa7
 11634 37df 05       		.byte	0x5
 11635 37e0 12380000 		.4byte	0x3812
 11636 37e4 02       		.uleb128 0x2
 11637 37e5 51390000 		.4byte	0x3951
 11638 37e9 780B0000 		.4byte	.LLST15
 11639 37ed 760B0000 		.4byte	.LVUS15
 11640 37f1 25       		.uleb128 0x25
 11641 37f2 163A0000 		.4byte	0x3a16
 11642 37f6 2A010000 		.4byte	.LBI313
 11643 37fa 0300     		.2byte	.LVU150
 11644 37fc 66000000 		.4byte	.LLRL16
 11645 3800 02       		.byte	0x2
 11646 3801 8D01     		.2byte	0x18d
 11647 3803 02       		.uleb128 0x2
 11648 3804 233A0000 		.4byte	0x3a23
 11649 3808 860B0000 		.4byte	.LLST17
 11650 380c 840B0000 		.4byte	.LVUS17
 11651 3810 00       		.byte	0
 11652 3811 00       		.byte	0
 11653 3812 3F       		.uleb128 0x3f
ARM GAS  C:\Users\DEVELO~1\AppData\Local\Temp\cc2saCCQ.s 			page 206


 11654 3813 DA000000 		.4byte	.LVL8
 11655 3817 F33A0000 		.4byte	0x3af3
 11656 381b 2C380000 		.4byte	0x382c
 11657 381f 01       		.uleb128 0x1
 11658 3820 01       		.uleb128 0x1
 11659 3821 50       		.byte	0x50
 11660 3822 02       		.uleb128 0x2
 11661 3823 70       		.byte	0x70
 11662 3824 00       		.sleb128 0
 11663 3825 01       		.uleb128 0x1
 11664 3826 01       		.uleb128 0x1
 11665 3827 51       		.byte	0x51
 11666 3828 02       		.uleb128 0x2
 11667 3829 71       		.byte	0x71
 11668 382a 00       		.sleb128 0
 11669 382b 00       		.byte	0
 11670 382c 3F       		.uleb128 0x3f
 11671 382d 02010000 		.4byte	.LVL11
 11672 3831 F33A0000 		.4byte	0x3af3
 11673 3835 4F380000 		.4byte	0x384f
 11674 3839 01       		.uleb128 0x1
 11675 383a 01       		.uleb128 0x1
 11676 383b 50       		.byte	0x50
 11677 383c 02       		.uleb128 0x2
 11678 383d 70       		.byte	0x70
 11679 383e 00       		.sleb128 0
 11680 383f 01       		.uleb128 0x1
 11681 3840 01       		.uleb128 0x1
 11682 3841 51       		.byte	0x51
 11683 3842 02       		.uleb128 0x2
 11684 3843 71       		.byte	0x71
 11685 3844 00       		.sleb128 0
 11686 3845 40       		.uleb128 0x40
 11687 3846 D6380000 		.4byte	0x38d6
 11688 384a 03       		.uleb128 0x3
 11689 384b A3       		.byte	0xa3
 11690 384c 01       		.uleb128 0x1
 11691 384d 50       		.byte	0x50
 11692 384e 00       		.byte	0
 11693 384f 3F       		.uleb128 0x3f
 11694 3850 2A010000 		.4byte	.LVL14
 11695 3854 F33A0000 		.4byte	0x3af3
 11696 3858 69380000 		.4byte	0x3869
 11697 385c 01       		.uleb128 0x1
 11698 385d 01       		.uleb128 0x1
 11699 385e 50       		.byte	0x50
 11700 385f 02       		.uleb128 0x2
 11701 3860 70       		.byte	0x70
 11702 3861 00       		.sleb128 0
 11703 3862 01       		.uleb128 0x1
 11704 3863 01       		.uleb128 0x1
 11705 3864 51       		.byte	0x51
 11706 3865 02       		.uleb128 0x2
 11707 3866 71       		.byte	0x71
 11708 3867 00       		.sleb128 0
 11709 3868 00       		.byte	0
 11710 3869 3D       		.uleb128 0x3d
ARM GAS  C:\Users\DEVELO~1\AppData\Local\Temp\cc2saCCQ.s 			page 207


 11711 386a 52010000 		.4byte	.LVL17
 11712 386e F33A0000 		.4byte	0x3af3
 11713 3872 01       		.uleb128 0x1
 11714 3873 01       		.uleb128 0x1
 11715 3874 50       		.byte	0x50
 11716 3875 02       		.uleb128 0x2
 11717 3876 70       		.byte	0x70
 11718 3877 00       		.sleb128 0
 11719 3878 01       		.uleb128 0x1
 11720 3879 01       		.uleb128 0x1
 11721 387a 51       		.byte	0x51
 11722 387b 02       		.uleb128 0x2
 11723 387c 71       		.byte	0x71
 11724 387d 00       		.sleb128 0
 11725 387e 00       		.byte	0
 11726 387f 00       		.byte	0
 11727 3880 14       		.uleb128 0x14
 11728 3881 77030000 		.4byte	0x377
 11729 3885 90380000 		.4byte	0x3890
 11730 3889 15       		.uleb128 0x15
 11731 388a 39000000 		.4byte	0x39
 11732 388e 12       		.byte	0x12
 11733 388f 00       		.byte	0
 11734 3890 12       		.uleb128 0x12
 11735 3891 80380000 		.4byte	0x3880
 11736 3895 1D       		.uleb128 0x1d
 11737 3896 16070000 		.4byte	.LASF313
 11738 389a 01       		.byte	0x1
 11739 389b 65       		.byte	0x65
 11740 389c 0D       		.byte	0xd
 11741 389d 01       		.byte	0x1
 11742 389e AF380000 		.4byte	0x38af
 11743 38a2 1E       		.uleb128 0x1e
 11744 38a3 520F0000 		.4byte	.LASF276
 11745 38a7 01       		.byte	0x1
 11746 38a8 65       		.byte	0x65
 11747 38a9 28       		.byte	0x28
 11748 38aa BE120000 		.4byte	0x12be
 11749 38ae 00       		.byte	0
 11750 38af 1D       		.uleb128 0x1d
 11751 38b0 240B0000 		.4byte	.LASF314
 11752 38b4 01       		.byte	0x1
 11753 38b5 5E       		.byte	0x5e
 11754 38b6 0D       		.byte	0xd
 11755 38b7 01       		.byte	0x1
 11756 38b8 C9380000 		.4byte	0x38c9
 11757 38bc 1E       		.uleb128 0x1e
 11758 38bd 520F0000 		.4byte	.LASF276
 11759 38c1 01       		.byte	0x1
 11760 38c2 5E       		.byte	0x5e
 11761 38c3 27       		.byte	0x27
 11762 38c4 BE120000 		.4byte	0x12be
 11763 38c8 00       		.byte	0
 11764 38c9 1D       		.uleb128 0x1d
 11765 38ca 04070000 		.4byte	.LASF315
 11766 38ce 01       		.byte	0x1
 11767 38cf 4B       		.byte	0x4b
ARM GAS  C:\Users\DEVELO~1\AppData\Local\Temp\cc2saCCQ.s 			page 208


 11768 38d0 0D       		.byte	0xd
 11769 38d1 01       		.byte	0x1
 11770 38d2 E3380000 		.4byte	0x38e3
 11771 38d6 1E       		.uleb128 0x1e
 11772 38d7 520F0000 		.4byte	.LASF276
 11773 38db 01       		.byte	0x1
 11774 38dc 4B       		.byte	0x4b
 11775 38dd 2A       		.byte	0x2a
 11776 38de BE120000 		.4byte	0x12be
 11777 38e2 00       		.byte	0
 11778 38e3 16       		.uleb128 0x16
 11779 38e4 A2020000 		.4byte	.LASF316
 11780 38e8 02       		.byte	0x2
 11781 38e9 3302     		.2byte	0x233
 11782 38eb 16       		.byte	0x16
 11783 38ec 03       		.byte	0x3
 11784 38ed FF380000 		.4byte	0x38ff
 11785 38f1 0C       		.uleb128 0xc
 11786 38f2 FA070000 		.4byte	.LASF59
 11787 38f6 02       		.byte	0x2
 11788 38f7 3302     		.2byte	0x233
 11789 38f9 2C       		.byte	0x2c
 11790 38fa E9000000 		.4byte	0xe9
 11791 38fe 00       		.byte	0
 11792 38ff 16       		.uleb128 0x16
 11793 3900 380D0000 		.4byte	.LASF317
 11794 3904 02       		.byte	0x2
 11795 3905 1102     		.2byte	0x211
 11796 3907 16       		.byte	0x16
 11797 3908 03       		.byte	0x3
 11798 3909 1B390000 		.4byte	0x391b
 11799 390d 0C       		.uleb128 0xc
 11800 390e FA070000 		.4byte	.LASF59
 11801 3912 02       		.byte	0x2
 11802 3913 1102     		.2byte	0x211
 11803 3915 2E       		.byte	0x2e
 11804 3916 E9000000 		.4byte	0xe9
 11805 391a 00       		.byte	0
 11806 391b 16       		.uleb128 0x16
 11807 391c FA0C0000 		.4byte	.LASF318
 11808 3920 02       		.byte	0x2
 11809 3921 F101     		.2byte	0x1f1
 11810 3923 16       		.byte	0x16
 11811 3924 03       		.byte	0x3
 11812 3925 43390000 		.4byte	0x3943
 11813 3929 0C       		.uleb128 0xc
 11814 392a FA070000 		.4byte	.LASF59
 11815 392e 02       		.byte	0x2
 11816 392f F101     		.2byte	0x1f1
 11817 3931 2D       		.byte	0x2d
 11818 3932 E9000000 		.4byte	0xe9
 11819 3936 3A       		.uleb128 0x3a
 11820 3937 6C7000   		.ascii	"lp\000"
 11821 393a 02       		.byte	0x2
 11822 393b F101     		.2byte	0x1f1
 11823 393d 38       		.byte	0x38
 11824 393e 0D0F0000 		.4byte	0xf0d
ARM GAS  C:\Users\DEVELO~1\AppData\Local\Temp\cc2saCCQ.s 			page 209


 11825 3942 00       		.byte	0
 11826 3943 16       		.uleb128 0x16
 11827 3944 8F020000 		.4byte	.LASF319
 11828 3948 02       		.byte	0x2
 11829 3949 8101     		.2byte	0x181
 11830 394b 16       		.byte	0x16
 11831 394c 03       		.byte	0x3
 11832 394d 5F390000 		.4byte	0x395f
 11833 3951 0C       		.uleb128 0xc
 11834 3952 FA070000 		.4byte	.LASF59
 11835 3956 02       		.byte	0x2
 11836 3957 8101     		.2byte	0x181
 11837 3959 2C       		.byte	0x2c
 11838 395a E9000000 		.4byte	0xe9
 11839 395e 00       		.byte	0
 11840 395f 16       		.uleb128 0x16
 11841 3960 290D0000 		.4byte	.LASF320
 11842 3964 02       		.byte	0x2
 11843 3965 5F01     		.2byte	0x15f
 11844 3967 16       		.byte	0x16
 11845 3968 03       		.byte	0x3
 11846 3969 7B390000 		.4byte	0x397b
 11847 396d 0C       		.uleb128 0xc
 11848 396e FA070000 		.4byte	.LASF59
 11849 3972 02       		.byte	0x2
 11850 3973 5F01     		.2byte	0x15f
 11851 3975 2E       		.byte	0x2e
 11852 3976 E9000000 		.4byte	0xe9
 11853 397a 00       		.byte	0
 11854 397b 16       		.uleb128 0x16
 11855 397c EC0C0000 		.4byte	.LASF321
 11856 3980 02       		.byte	0x2
 11857 3981 3F01     		.2byte	0x13f
 11858 3983 16       		.byte	0x16
 11859 3984 03       		.byte	0x3
 11860 3985 A3390000 		.4byte	0x39a3
 11861 3989 0C       		.uleb128 0xc
 11862 398a FA070000 		.4byte	.LASF59
 11863 398e 02       		.byte	0x2
 11864 398f 3F01     		.2byte	0x13f
 11865 3991 2D       		.byte	0x2d
 11866 3992 E9000000 		.4byte	0xe9
 11867 3996 3A       		.uleb128 0x3a
 11868 3997 6C7000   		.ascii	"lp\000"
 11869 399a 02       		.byte	0x2
 11870 399b 3F01     		.2byte	0x13f
 11871 399d 38       		.byte	0x38
 11872 399e 0D0F0000 		.4byte	0xf0d
 11873 39a2 00       		.byte	0
 11874 39a3 1D       		.uleb128 0x1d
 11875 39a4 2B000000 		.4byte	.LASF322
 11876 39a8 02       		.byte	0x2
 11877 39a9 CF       		.byte	0xcf
 11878 39aa 16       		.byte	0x16
 11879 39ab 03       		.byte	0x3
 11880 39ac BD390000 		.4byte	0x39bd
 11881 39b0 1E       		.uleb128 0x1e
ARM GAS  C:\Users\DEVELO~1\AppData\Local\Temp\cc2saCCQ.s 			page 210


 11882 39b1 FA070000 		.4byte	.LASF59
 11883 39b5 02       		.byte	0x2
 11884 39b6 CF       		.byte	0xcf
 11885 39b7 2D       		.byte	0x2d
 11886 39b8 E9000000 		.4byte	0xe9
 11887 39bc 00       		.byte	0
 11888 39bd 1D       		.uleb128 0x1d
 11889 39be EE020000 		.4byte	.LASF323
 11890 39c2 02       		.byte	0x2
 11891 39c3 AD       		.byte	0xad
 11892 39c4 16       		.byte	0x16
 11893 39c5 03       		.byte	0x3
 11894 39c6 D7390000 		.4byte	0x39d7
 11895 39ca 1E       		.uleb128 0x1e
 11896 39cb FA070000 		.4byte	.LASF59
 11897 39cf 02       		.byte	0x2
 11898 39d0 AD       		.byte	0xad
 11899 39d1 2F       		.byte	0x2f
 11900 39d2 E9000000 		.4byte	0xe9
 11901 39d6 00       		.byte	0
 11902 39d7 1D       		.uleb128 0x1d
 11903 39d8 C90D0000 		.4byte	.LASF324
 11904 39dc 02       		.byte	0x2
 11905 39dd 8D       		.byte	0x8d
 11906 39de 16       		.byte	0x16
 11907 39df 03       		.byte	0x3
 11908 39e0 FC390000 		.4byte	0x39fc
 11909 39e4 1E       		.uleb128 0x1e
 11910 39e5 FA070000 		.4byte	.LASF59
 11911 39e9 02       		.byte	0x2
 11912 39ea 8D       		.byte	0x8d
 11913 39eb 2E       		.byte	0x2e
 11914 39ec E9000000 		.4byte	0xe9
 11915 39f0 57       		.uleb128 0x57
 11916 39f1 6C7000   		.ascii	"lp\000"
 11917 39f4 02       		.byte	0x2
 11918 39f5 8D       		.byte	0x8d
 11919 39f6 39       		.byte	0x39
 11920 39f7 0D0F0000 		.4byte	0xf0d
 11921 39fb 00       		.byte	0
 11922 39fc 1D       		.uleb128 0x1d
 11923 39fd 94080000 		.4byte	.LASF325
 11924 3a01 02       		.byte	0x2
 11925 3a02 59       		.byte	0x59
 11926 3a03 16       		.byte	0x16
 11927 3a04 03       		.byte	0x3
 11928 3a05 163A0000 		.4byte	0x3a16
 11929 3a09 1E       		.uleb128 0x1e
 11930 3a0a FA070000 		.4byte	.LASF59
 11931 3a0e 02       		.byte	0x2
 11932 3a0f 59       		.byte	0x59
 11933 3a10 2E       		.byte	0x2e
 11934 3a11 E9000000 		.4byte	0xe9
 11935 3a15 00       		.byte	0
 11936 3a16 1D       		.uleb128 0x1d
 11937 3a17 85080000 		.4byte	.LASF326
 11938 3a1b 02       		.byte	0x2
ARM GAS  C:\Users\DEVELO~1\AppData\Local\Temp\cc2saCCQ.s 			page 211


 11939 3a1c 49       		.byte	0x49
 11940 3a1d 16       		.byte	0x16
 11941 3a1e 03       		.byte	0x3
 11942 3a1f 303A0000 		.4byte	0x3a30
 11943 3a23 1E       		.uleb128 0x1e
 11944 3a24 FA070000 		.4byte	.LASF59
 11945 3a28 02       		.byte	0x2
 11946 3a29 49       		.byte	0x49
 11947 3a2a 2E       		.byte	0x2e
 11948 3a2b E9000000 		.4byte	0xe9
 11949 3a2f 00       		.byte	0
 11950 3a30 1D       		.uleb128 0x1d
 11951 3a31 43050000 		.4byte	.LASF327
 11952 3a35 02       		.byte	0x2
 11953 3a36 39       		.byte	0x39
 11954 3a37 16       		.byte	0x16
 11955 3a38 03       		.byte	0x3
 11956 3a39 4A3A0000 		.4byte	0x3a4a
 11957 3a3d 1E       		.uleb128 0x1e
 11958 3a3e FA070000 		.4byte	.LASF59
 11959 3a42 02       		.byte	0x2
 11960 3a43 39       		.byte	0x39
 11961 3a44 2F       		.byte	0x2f
 11962 3a45 E9000000 		.4byte	0xe9
 11963 3a49 00       		.byte	0
 11964 3a4a 16       		.uleb128 0x16
 11965 3a4b 830E0000 		.4byte	.LASF328
 11966 3a4f 03       		.byte	0x3
 11967 3a50 4503     		.2byte	0x345
 11968 3a52 14       		.byte	0x14
 11969 3a53 03       		.byte	0x3
 11970 3a54 733A0000 		.4byte	0x3a73
 11971 3a58 3A       		.uleb128 0x3a
 11972 3a59 74727000 		.ascii	"trp\000"
 11973 3a5d 03       		.byte	0x3
 11974 3a5e 4503     		.2byte	0x345
 11975 3a60 3A       		.byte	0x3a
 11976 3a61 E20D0000 		.4byte	0xde2
 11977 3a65 3A       		.uleb128 0x3a
 11978 3a66 6D736700 		.ascii	"msg\000"
 11979 3a6a 03       		.byte	0x3
 11980 3a6b 4503     		.2byte	0x345
 11981 3a6d 45       		.byte	0x45
 11982 3a6e 5F010000 		.4byte	0x15f
 11983 3a72 00       		.byte	0
 11984 3a73 21       		.uleb128 0x21
 11985 3a74 330B0000 		.4byte	.LASF329
 11986 3a78 03       		.byte	0x3
 11987 3a79 5E02     		.2byte	0x25e
 11988 3a7b 14       		.byte	0x14
 11989 3a7c 21       		.uleb128 0x21
 11990 3a7d FB040000 		.4byte	.LASF330
 11991 3a81 03       		.byte	0x3
 11992 3a82 5302     		.2byte	0x253
 11993 3a84 14       		.byte	0x14
 11994 3a85 16       		.uleb128 0x16
 11995 3a86 91070000 		.4byte	.LASF331
ARM GAS  C:\Users\DEVELO~1\AppData\Local\Temp\cc2saCCQ.s 			page 212


 11996 3a8a 03       		.byte	0x3
 11997 3a8b 1E02     		.2byte	0x21e
 11998 3a8d 14       		.byte	0x14
 11999 3a8e 03       		.byte	0x3
 12000 3a8f A13A0000 		.4byte	0x3aa1
 12001 3a93 0C       		.uleb128 0xc
 12002 3a94 07040000 		.4byte	.LASF80
 12003 3a98 03       		.byte	0x3
 12004 3a99 1E02     		.2byte	0x21e
 12005 3a9b 2C       		.byte	0x2c
 12006 3a9c 66030000 		.4byte	0x366
 12007 3aa0 00       		.byte	0
 12008 3aa1 21       		.uleb128 0x21
 12009 3aa2 BD040000 		.4byte	.LASF332
 12010 3aa6 04       		.byte	0x4
 12011 3aa7 D901     		.2byte	0x1d9
 12012 3aa9 14       		.byte	0x14
 12013 3aaa 21       		.uleb128 0x21
 12014 3aab 49020000 		.4byte	.LASF333
 12015 3aaf 04       		.byte	0x4
 12016 3ab0 C301     		.2byte	0x1c3
 12017 3ab2 14       		.byte	0x14
 12018 3ab3 21       		.uleb128 0x21
 12019 3ab4 8E0C0000 		.4byte	.LASF334
 12020 3ab8 05       		.byte	0x5
 12021 3ab9 5803     		.2byte	0x358
 12022 3abb 1B       		.byte	0x1b
 12023 3abc 21       		.uleb128 0x21
 12024 3abd F4010000 		.4byte	.LASF335
 12025 3ac1 05       		.byte	0x5
 12026 3ac2 4D03     		.2byte	0x34d
 12027 3ac4 1B       		.byte	0x1b
 12028 3ac5 21       		.uleb128 0x21
 12029 3ac6 950E0000 		.4byte	.LASF336
 12030 3aca 05       		.byte	0x5
 12031 3acb 3E03     		.2byte	0x33e
 12032 3acd 1B       		.byte	0x1b
 12033 3ace 21       		.uleb128 0x21
 12034 3acf A3010000 		.4byte	.LASF337
 12035 3ad3 05       		.byte	0x5
 12036 3ad4 2603     		.2byte	0x326
 12037 3ad6 1B       		.byte	0x1b
 12038 3ad7 16       		.uleb128 0x16
 12039 3ad8 CF0A0000 		.4byte	.LASF338
 12040 3adc 06       		.byte	0x6
 12041 3add EB01     		.2byte	0x1eb
 12042 3adf 1B       		.byte	0x1b
 12043 3ae0 03       		.byte	0x3
 12044 3ae1 F33A0000 		.4byte	0x3af3
 12045 3ae5 0C       		.uleb128 0xc
 12046 3ae6 AC040000 		.4byte	.LASF339
 12047 3aea 06       		.byte	0x6
 12048 3aeb EB01     		.2byte	0x1eb
 12049 3aed 32       		.byte	0x32
 12050 3aee E9000000 		.4byte	0xe9
 12051 3af2 00       		.byte	0
 12052 3af3 41       		.uleb128 0x41
ARM GAS  C:\Users\DEVELO~1\AppData\Local\Temp\cc2saCCQ.s 			page 213


 12053 3af4 C9380000 		.4byte	0x38c9
 12054 3af8 00000000 		.4byte	.LFB461
 12055 3afc 54000000 		.4byte	.LFE461-.LFB461
 12056 3b00 01       		.uleb128 0x1
 12057 3b01 9C       		.byte	0x9c
 12058 3b02 193B0000 		.4byte	0x3b19
 12059 3b06 02       		.uleb128 0x2
 12060 3b07 D6380000 		.4byte	0x38d6
 12061 3b0b 940B0000 		.4byte	.LLST0
 12062 3b0f 920B0000 		.4byte	.LVUS0
 12063 3b13 13       		.uleb128 0x13
 12064 3b14 D6380000 		.4byte	0x38d6
 12065 3b18 00       		.byte	0
 12066 3b19 41       		.uleb128 0x41
 12067 3b1a B42E0000 		.4byte	0x2eb4
 12068 3b1e 00000000 		.4byte	.LFB459
 12069 3b22 38000000 		.4byte	.LFE459-.LFB459
 12070 3b26 01       		.uleb128 0x1
 12071 3b27 9C       		.byte	0x9c
 12072 3b28 F83C0000 		.4byte	0x3cf8
 12073 3b2c 02       		.uleb128 0x2
 12074 3b2d C22E0000 		.4byte	0x2ec2
 12075 3b31 A80B0000 		.4byte	.LLST21
 12076 3b35 A20B0000 		.4byte	.LVUS21
 12077 3b39 02       		.uleb128 0x2
 12078 3b3a CF2E0000 		.4byte	0x2ecf
 12079 3b3e C20B0000 		.4byte	.LLST22
 12080 3b42 C00B0000 		.4byte	.LVUS22
 12081 3b46 1C       		.uleb128 0x1c
 12082 3b47 853A0000 		.4byte	0x3a85
 12083 3b4b 00000000 		.4byte	.LBI333
 12084 3b4f 0200     		.2byte	.LVU232
 12085 3b51 84000000 		.4byte	.LLRL23
 12086 3b55 6201     		.2byte	0x162
 12087 3b57 05       		.byte	0x5
 12088 3b58 7D3B0000 		.4byte	0x3b7d
 12089 3b5c 02       		.uleb128 0x2
 12090 3b5d 933A0000 		.4byte	0x3a93
 12091 3b61 D20B0000 		.4byte	.LLST24
 12092 3b65 D00B0000 		.4byte	.LVUS24
 12093 3b69 0D       		.uleb128 0xd
 12094 3b6a 0A000000 		.4byte	.LVL30
 12095 3b6e BC130000 		.4byte	0x13bc
 12096 3b72 01       		.uleb128 0x1
 12097 3b73 01       		.uleb128 0x1
 12098 3b74 50       		.byte	0x50
 12099 3b75 05       		.uleb128 0x5
 12100 3b76 03       		.byte	0x3
 12101 3b77 00000000 		.4byte	.LC0
 12102 3b7b 00       		.byte	0
 12103 3b7c 00       		.byte	0
 12104 3b7d 07       		.uleb128 0x7
 12105 3b7e 7C3A0000 		.4byte	0x3a7c
 12106 3b82 1A000000 		.4byte	.LBI337
 12107 3b86 0100     		.2byte	.LVU243
 12108 3b88 1A000000 		.4byte	.LBB337
 12109 3b8c 06000000 		.4byte	.LBE337-.LBB337
ARM GAS  C:\Users\DEVELO~1\AppData\Local\Temp\cc2saCCQ.s 			page 214


 12110 3b90 6901     		.2byte	0x169
 12111 3b92 05       		.byte	0x5
 12112 3b93 053C0000 		.4byte	0x3c05
 12113 3b97 04       		.uleb128 0x4
 12114 3b98 AA3A0000 		.4byte	0x3aaa
 12115 3b9c 1A000000 		.4byte	.LBI338
 12116 3ba0 0300     		.2byte	.LVU245
 12117 3ba2 1A000000 		.4byte	.LBB338
 12118 3ba6 06000000 		.4byte	.LBE338-.LBB338
 12119 3baa 03       		.byte	0x3
 12120 3bab 5502     		.2byte	0x255
 12121 3bad 03       		.byte	0x3
 12122 3bae 04       		.uleb128 0x4
 12123 3baf BC3A0000 		.4byte	0x3abc
 12124 3bb3 1A000000 		.4byte	.LBI339
 12125 3bb7 0500     		.2byte	.LVU247
 12126 3bb9 1A000000 		.4byte	.LBB339
 12127 3bbd 06000000 		.4byte	.LBE339-.LBB339
 12128 3bc1 04       		.byte	0x4
 12129 3bc2 C501     		.2byte	0x1c5
 12130 3bc4 03       		.byte	0x3
 12131 3bc5 04       		.uleb128 0x4
 12132 3bc6 CE3A0000 		.4byte	0x3ace
 12133 3bca 1A000000 		.4byte	.LBI340
 12134 3bce 0700     		.2byte	.LVU249
 12135 3bd0 1A000000 		.4byte	.LBB340
 12136 3bd4 06000000 		.4byte	.LBE340-.LBB340
 12137 3bd8 05       		.byte	0x5
 12138 3bd9 4F03     		.2byte	0x34f
 12139 3bdb 03       		.byte	0x3
 12140 3bdc 04       		.uleb128 0x4
 12141 3bdd D73A0000 		.4byte	0x3ad7
 12142 3be1 1A000000 		.4byte	.LBI341
 12143 3be5 0900     		.2byte	.LVU251
 12144 3be7 1A000000 		.4byte	.LBB341
 12145 3beb 06000000 		.4byte	.LBE341-.LBB341
 12146 3bef 05       		.byte	0x5
 12147 3bf0 2E03     		.2byte	0x32e
 12148 3bf2 03       		.byte	0x3
 12149 3bf3 02       		.uleb128 0x2
 12150 3bf4 E53A0000 		.4byte	0x3ae5
 12151 3bf8 E20B0000 		.4byte	.LLST25
 12152 3bfc E00B0000 		.4byte	.LVUS25
 12153 3c00 00       		.byte	0
 12154 3c01 00       		.byte	0
 12155 3c02 00       		.byte	0
 12156 3c03 00       		.byte	0
 12157 3c04 00       		.byte	0
 12158 3c05 07       		.uleb128 0x7
 12159 3c06 4A3A0000 		.4byte	0x3a4a
 12160 3c0a 20000000 		.4byte	.LBI343
 12161 3c0e 0400     		.2byte	.LVU257
 12162 3c10 20000000 		.4byte	.LBB343
 12163 3c14 0A000000 		.4byte	.LBE343-.LBB343
 12164 3c18 6901     		.2byte	0x169
 12165 3c1a 05       		.byte	0x5
 12166 3c1b 4F3C0000 		.4byte	0x3c4f
ARM GAS  C:\Users\DEVELO~1\AppData\Local\Temp\cc2saCCQ.s 			page 215


 12167 3c1f 02       		.uleb128 0x2
 12168 3c20 653A0000 		.4byte	0x3a65
 12169 3c24 EF0B0000 		.4byte	.LLST26
 12170 3c28 ED0B0000 		.4byte	.LVUS26
 12171 3c2c 02       		.uleb128 0x2
 12172 3c2d 583A0000 		.4byte	0x3a58
 12173 3c31 FF0B0000 		.4byte	.LLST27
 12174 3c35 F90B0000 		.4byte	.LVUS27
 12175 3c39 0D       		.uleb128 0xd
 12176 3c3a 2A000000 		.4byte	.LVL35
 12177 3c3e 5B140000 		.4byte	0x145b
 12178 3c42 01       		.uleb128 0x1
 12179 3c43 01       		.uleb128 0x1
 12180 3c44 50       		.byte	0x50
 12181 3c45 02       		.uleb128 0x2
 12182 3c46 74       		.byte	0x74
 12183 3c47 08       		.sleb128 8
 12184 3c48 01       		.uleb128 0x1
 12185 3c49 01       		.uleb128 0x1
 12186 3c4a 51       		.byte	0x51
 12187 3c4b 01       		.uleb128 0x1
 12188 3c4c 30       		.byte	0x30
 12189 3c4d 00       		.byte	0
 12190 3c4e 00       		.byte	0
 12191 3c4f 07       		.uleb128 0x7
 12192 3c50 733A0000 		.4byte	0x3a73
 12193 3c54 2A000000 		.4byte	.LBI345
 12194 3c58 0200     		.2byte	.LVU262
 12195 3c5a 2A000000 		.4byte	.LBB345
 12196 3c5e 06000000 		.4byte	.LBE345-.LBB345
 12197 3c62 6901     		.2byte	0x169
 12198 3c64 05       		.byte	0x5
 12199 3c65 D73C0000 		.4byte	0x3cd7
 12200 3c69 04       		.uleb128 0x4
 12201 3c6a A13A0000 		.4byte	0x3aa1
 12202 3c6e 2A000000 		.4byte	.LBI346
 12203 3c72 0400     		.2byte	.LVU264
 12204 3c74 2A000000 		.4byte	.LBB346
 12205 3c78 06000000 		.4byte	.LBE346-.LBB346
 12206 3c7c 03       		.byte	0x3
 12207 3c7d 6002     		.2byte	0x260
 12208 3c7f 03       		.byte	0x3
 12209 3c80 04       		.uleb128 0x4
 12210 3c81 B33A0000 		.4byte	0x3ab3
 12211 3c85 2A000000 		.4byte	.LBI347
 12212 3c89 0800     		.2byte	.LVU268
 12213 3c8b 2A000000 		.4byte	.LBB347
 12214 3c8f 06000000 		.4byte	.LBE347-.LBB347
 12215 3c93 04       		.byte	0x4
 12216 3c94 DD01     		.2byte	0x1dd
 12217 3c96 03       		.byte	0x3
 12218 3c97 04       		.uleb128 0x4
 12219 3c98 C53A0000 		.4byte	0x3ac5
 12220 3c9c 2A000000 		.4byte	.LBI348
 12221 3ca0 0A00     		.2byte	.LVU270
 12222 3ca2 2A000000 		.4byte	.LBB348
 12223 3ca6 06000000 		.4byte	.LBE348-.LBB348
ARM GAS  C:\Users\DEVELO~1\AppData\Local\Temp\cc2saCCQ.s 			page 216


 12224 3caa 05       		.byte	0x5
 12225 3cab 5A03     		.2byte	0x35a
 12226 3cad 03       		.byte	0x3
 12227 3cae 04       		.uleb128 0x4
 12228 3caf D73A0000 		.4byte	0x3ad7
 12229 3cb3 2A000000 		.4byte	.LBI349
 12230 3cb7 0C00     		.2byte	.LVU272
 12231 3cb9 2A000000 		.4byte	.LBB349
 12232 3cbd 06000000 		.4byte	.LBE349-.LBB349
 12233 3cc1 05       		.byte	0x5
 12234 3cc2 4103     		.2byte	0x341
 12235 3cc4 03       		.byte	0x3
 12236 3cc5 02       		.uleb128 0x2
 12237 3cc6 E53A0000 		.4byte	0x3ae5
 12238 3cca 1A0C0000 		.4byte	.LLST28
 12239 3cce 180C0000 		.4byte	.LVUS28
 12240 3cd2 00       		.byte	0
 12241 3cd3 00       		.byte	0
 12242 3cd4 00       		.byte	0
 12243 3cd5 00       		.byte	0
 12244 3cd6 00       		.byte	0
 12245 3cd7 06       		.uleb128 0x6
 12246 3cd8 10000000 		.4byte	.LVL31
 12247 3cdc 84360000 		.4byte	0x3684
 12248 3ce0 EB3C0000 		.4byte	0x3ceb
 12249 3ce4 01       		.uleb128 0x1
 12250 3ce5 01       		.uleb128 0x1
 12251 3ce6 50       		.byte	0x50
 12252 3ce7 02       		.uleb128 0x2
 12253 3ce8 74       		.byte	0x74
 12254 3ce9 00       		.sleb128 0
 12255 3cea 00       		.byte	0
 12256 3ceb 20       		.uleb128 0x20
 12257 3cec 1A000000 		.4byte	.LVL32
 12258 3cf0 01       		.uleb128 0x1
 12259 3cf1 01       		.uleb128 0x1
 12260 3cf2 50       		.byte	0x50
 12261 3cf3 02       		.uleb128 0x2
 12262 3cf4 74       		.byte	0x74
 12263 3cf5 00       		.sleb128 0
 12264 3cf6 00       		.byte	0
 12265 3cf7 00       		.byte	0
 12266 3cf8 41       		.uleb128 0x41
 12267 3cf9 70320000 		.4byte	0x3270
 12268 3cfd 00000000 		.4byte	.LFB437
 12269 3d01 0A000000 		.4byte	.LFE437-.LFB437
 12270 3d05 01       		.uleb128 0x1
 12271 3d06 9C       		.byte	0x9c
 12272 3d07 353D0000 		.4byte	0x3d35
 12273 3d0b 02       		.uleb128 0x2
 12274 3d0c 7E320000 		.4byte	0x327e
 12275 3d10 280C0000 		.4byte	.LLST29
 12276 3d14 240C0000 		.4byte	.LVUS29
 12277 3d18 02       		.uleb128 0x2
 12278 3d19 8B320000 		.4byte	0x328b
 12279 3d1d 3F0C0000 		.4byte	.LLST30
 12280 3d21 3B0C0000 		.4byte	.LVUS30
ARM GAS  C:\Users\DEVELO~1\AppData\Local\Temp\cc2saCCQ.s 			page 217


 12281 3d25 58       		.uleb128 0x58
 12282 3d26 0A000000 		.4byte	.LVL39
 12283 3d2a 40       		.uleb128 0x40
 12284 3d2b 8B320000 		.4byte	0x328b
 12285 3d2f 03       		.uleb128 0x3
 12286 3d30 A3       		.byte	0xa3
 12287 3d31 01       		.uleb128 0x1
 12288 3d32 51       		.byte	0x51
 12289 3d33 00       		.byte	0
 12290 3d34 00       		.byte	0
 12291 3d35 59       		.uleb128 0x59
 12292 3d36 B42E0000 		.4byte	0x2eb4
 12293 3d3a 00000000 		.4byte	.LFB439
 12294 3d3e 0C000000 		.4byte	.LFE439-.LFB439
 12295 3d42 01       		.uleb128 0x1
 12296 3d43 9C       		.byte	0x9c
 12297 3d44 02       		.uleb128 0x2
 12298 3d45 C22E0000 		.4byte	0x2ec2
 12299 3d49 560C0000 		.4byte	.LLST31
 12300 3d4d 520C0000 		.4byte	.LVUS31
 12301 3d51 02       		.uleb128 0x2
 12302 3d52 CF2E0000 		.4byte	0x2ecf
 12303 3d56 6D0C0000 		.4byte	.LLST32
 12304 3d5a 690C0000 		.4byte	.LVUS32
 12305 3d5e 3D       		.uleb128 0x3d
 12306 3d5f 0C000000 		.4byte	.LVL41
 12307 3d63 193B0000 		.4byte	0x3b19
 12308 3d67 40       		.uleb128 0x40
 12309 3d68 CF2E0000 		.4byte	0x2ecf
 12310 3d6c 03       		.uleb128 0x3
 12311 3d6d A3       		.byte	0xa3
 12312 3d6e 01       		.uleb128 0x1
 12313 3d6f 51       		.byte	0x51
 12314 3d70 00       		.byte	0
 12315 3d71 00       		.byte	0
 12316 3d72 00       		.byte	0
 12317              		.section	.debug_abbrev,"",%progbits
 12318              	.Ldebug_abbrev0:
 12319 0000 01       		.uleb128 0x1
 12320 0001 49       		.uleb128 0x49
 12321 0002 00       		.byte	0
 12322 0003 02       		.uleb128 0x2
 12323 0004 18       		.uleb128 0x18
 12324 0005 7E       		.uleb128 0x7e
 12325 0006 18       		.uleb128 0x18
 12326 0007 00       		.byte	0
 12327 0008 00       		.byte	0
 12328 0009 02       		.uleb128 0x2
 12329 000a 05       		.uleb128 0x5
 12330 000b 00       		.byte	0
 12331 000c 31       		.uleb128 0x31
 12332 000d 13       		.uleb128 0x13
 12333 000e 02       		.uleb128 0x2
 12334 000f 17       		.uleb128 0x17
 12335 0010 B742     		.uleb128 0x2137
 12336 0012 17       		.uleb128 0x17
 12337 0013 00       		.byte	0
ARM GAS  C:\Users\DEVELO~1\AppData\Local\Temp\cc2saCCQ.s 			page 218


 12338 0014 00       		.byte	0
 12339 0015 03       		.uleb128 0x3
 12340 0016 0D       		.uleb128 0xd
 12341 0017 00       		.byte	0
 12342 0018 03       		.uleb128 0x3
 12343 0019 0E       		.uleb128 0xe
 12344 001a 3A       		.uleb128 0x3a
 12345 001b 0B       		.uleb128 0xb
 12346 001c 3B       		.uleb128 0x3b
 12347 001d 05       		.uleb128 0x5
 12348 001e 39       		.uleb128 0x39
 12349 001f 0B       		.uleb128 0xb
 12350 0020 49       		.uleb128 0x49
 12351 0021 13       		.uleb128 0x13
 12352 0022 38       		.uleb128 0x38
 12353 0023 0B       		.uleb128 0xb
 12354 0024 00       		.byte	0
 12355 0025 00       		.byte	0
 12356 0026 04       		.uleb128 0x4
 12357 0027 1D       		.uleb128 0x1d
 12358 0028 01       		.byte	0x1
 12359 0029 31       		.uleb128 0x31
 12360 002a 13       		.uleb128 0x13
 12361 002b 52       		.uleb128 0x52
 12362 002c 01       		.uleb128 0x1
 12363 002d B842     		.uleb128 0x2138
 12364 002f 05       		.uleb128 0x5
 12365 0030 11       		.uleb128 0x11
 12366 0031 01       		.uleb128 0x1
 12367 0032 12       		.uleb128 0x12
 12368 0033 06       		.uleb128 0x6
 12369 0034 58       		.uleb128 0x58
 12370 0035 0B       		.uleb128 0xb
 12371 0036 59       		.uleb128 0x59
 12372 0037 05       		.uleb128 0x5
 12373 0038 57       		.uleb128 0x57
 12374 0039 0B       		.uleb128 0xb
 12375 003a 00       		.byte	0
 12376 003b 00       		.byte	0
 12377 003c 05       		.uleb128 0x5
 12378 003d 0D       		.uleb128 0xd
 12379 003e 00       		.byte	0
 12380 003f 03       		.uleb128 0x3
 12381 0040 0E       		.uleb128 0xe
 12382 0041 3A       		.uleb128 0x3a
 12383 0042 0B       		.uleb128 0xb
 12384 0043 3B       		.uleb128 0x3b
 12385 0044 0B       		.uleb128 0xb
 12386 0045 39       		.uleb128 0x39
 12387 0046 0B       		.uleb128 0xb
 12388 0047 49       		.uleb128 0x49
 12389 0048 13       		.uleb128 0x13
 12390 0049 38       		.uleb128 0x38
 12391 004a 0B       		.uleb128 0xb
 12392 004b 00       		.byte	0
 12393 004c 00       		.byte	0
 12394 004d 06       		.uleb128 0x6
ARM GAS  C:\Users\DEVELO~1\AppData\Local\Temp\cc2saCCQ.s 			page 219


 12395 004e 48       		.uleb128 0x48
 12396 004f 01       		.byte	0x1
 12397 0050 7D       		.uleb128 0x7d
 12398 0051 01       		.uleb128 0x1
 12399 0052 7F       		.uleb128 0x7f
 12400 0053 13       		.uleb128 0x13
 12401 0054 01       		.uleb128 0x1
 12402 0055 13       		.uleb128 0x13
 12403 0056 00       		.byte	0
 12404 0057 00       		.byte	0
 12405 0058 07       		.uleb128 0x7
 12406 0059 1D       		.uleb128 0x1d
 12407 005a 01       		.byte	0x1
 12408 005b 31       		.uleb128 0x31
 12409 005c 13       		.uleb128 0x13
 12410 005d 52       		.uleb128 0x52
 12411 005e 01       		.uleb128 0x1
 12412 005f B842     		.uleb128 0x2138
 12413 0061 05       		.uleb128 0x5
 12414 0062 11       		.uleb128 0x11
 12415 0063 01       		.uleb128 0x1
 12416 0064 12       		.uleb128 0x12
 12417 0065 06       		.uleb128 0x6
 12418 0066 58       		.uleb128 0x58
 12419 0067 21       		.uleb128 0x21
 12420 0068 01       		.sleb128 1
 12421 0069 59       		.uleb128 0x59
 12422 006a 05       		.uleb128 0x5
 12423 006b 57       		.uleb128 0x57
 12424 006c 0B       		.uleb128 0xb
 12425 006d 01       		.uleb128 0x1
 12426 006e 13       		.uleb128 0x13
 12427 006f 00       		.byte	0
 12428 0070 00       		.byte	0
 12429 0071 08       		.uleb128 0x8
 12430 0072 16       		.uleb128 0x16
 12431 0073 00       		.byte	0
 12432 0074 03       		.uleb128 0x3
 12433 0075 0E       		.uleb128 0xe
 12434 0076 3A       		.uleb128 0x3a
 12435 0077 0B       		.uleb128 0xb
 12436 0078 3B       		.uleb128 0x3b
 12437 0079 0B       		.uleb128 0xb
 12438 007a 39       		.uleb128 0x39
 12439 007b 0B       		.uleb128 0xb
 12440 007c 49       		.uleb128 0x49
 12441 007d 13       		.uleb128 0x13
 12442 007e 00       		.byte	0
 12443 007f 00       		.byte	0
 12444 0080 09       		.uleb128 0x9
 12445 0081 0F       		.uleb128 0xf
 12446 0082 00       		.byte	0
 12447 0083 0B       		.uleb128 0xb
 12448 0084 21       		.uleb128 0x21
 12449 0085 04       		.sleb128 4
 12450 0086 49       		.uleb128 0x49
 12451 0087 13       		.uleb128 0x13
ARM GAS  C:\Users\DEVELO~1\AppData\Local\Temp\cc2saCCQ.s 			page 220


 12452 0088 00       		.byte	0
 12453 0089 00       		.byte	0
 12454 008a 0A       		.uleb128 0xa
 12455 008b 0D       		.uleb128 0xd
 12456 008c 00       		.byte	0
 12457 008d 03       		.uleb128 0x3
 12458 008e 08       		.uleb128 0x8
 12459 008f 3A       		.uleb128 0x3a
 12460 0090 0B       		.uleb128 0xb
 12461 0091 3B       		.uleb128 0x3b
 12462 0092 05       		.uleb128 0x5
 12463 0093 39       		.uleb128 0x39
 12464 0094 0B       		.uleb128 0xb
 12465 0095 49       		.uleb128 0x49
 12466 0096 13       		.uleb128 0x13
 12467 0097 38       		.uleb128 0x38
 12468 0098 0B       		.uleb128 0xb
 12469 0099 00       		.byte	0
 12470 009a 00       		.byte	0
 12471 009b 0B       		.uleb128 0xb
 12472 009c 05       		.uleb128 0x5
 12473 009d 00       		.byte	0
 12474 009e 49       		.uleb128 0x49
 12475 009f 13       		.uleb128 0x13
 12476 00a0 00       		.byte	0
 12477 00a1 00       		.byte	0
 12478 00a2 0C       		.uleb128 0xc
 12479 00a3 05       		.uleb128 0x5
 12480 00a4 00       		.byte	0
 12481 00a5 03       		.uleb128 0x3
 12482 00a6 0E       		.uleb128 0xe
 12483 00a7 3A       		.uleb128 0x3a
 12484 00a8 0B       		.uleb128 0xb
 12485 00a9 3B       		.uleb128 0x3b
 12486 00aa 05       		.uleb128 0x5
 12487 00ab 39       		.uleb128 0x39
 12488 00ac 0B       		.uleb128 0xb
 12489 00ad 49       		.uleb128 0x49
 12490 00ae 13       		.uleb128 0x13
 12491 00af 00       		.byte	0
 12492 00b0 00       		.byte	0
 12493 00b1 0D       		.uleb128 0xd
 12494 00b2 48       		.uleb128 0x48
 12495 00b3 01       		.byte	0x1
 12496 00b4 7D       		.uleb128 0x7d
 12497 00b5 01       		.uleb128 0x1
 12498 00b6 7F       		.uleb128 0x7f
 12499 00b7 13       		.uleb128 0x13
 12500 00b8 00       		.byte	0
 12501 00b9 00       		.byte	0
 12502 00ba 0E       		.uleb128 0xe
 12503 00bb 0D       		.uleb128 0xd
 12504 00bc 00       		.byte	0
 12505 00bd 03       		.uleb128 0x3
 12506 00be 08       		.uleb128 0x8
 12507 00bf 3A       		.uleb128 0x3a
 12508 00c0 0B       		.uleb128 0xb
ARM GAS  C:\Users\DEVELO~1\AppData\Local\Temp\cc2saCCQ.s 			page 221


 12509 00c1 3B       		.uleb128 0x3b
 12510 00c2 0B       		.uleb128 0xb
 12511 00c3 39       		.uleb128 0x39
 12512 00c4 0B       		.uleb128 0xb
 12513 00c5 49       		.uleb128 0x49
 12514 00c6 13       		.uleb128 0x13
 12515 00c7 38       		.uleb128 0x38
 12516 00c8 0B       		.uleb128 0xb
 12517 00c9 00       		.byte	0
 12518 00ca 00       		.byte	0
 12519 00cb 0F       		.uleb128 0xf
 12520 00cc 05       		.uleb128 0x5
 12521 00cd 00       		.byte	0
 12522 00ce 03       		.uleb128 0x3
 12523 00cf 0E       		.uleb128 0xe
 12524 00d0 3A       		.uleb128 0x3a
 12525 00d1 21       		.uleb128 0x21
 12526 00d2 01       		.sleb128 1
 12527 00d3 3B       		.uleb128 0x3b
 12528 00d4 05       		.uleb128 0x5
 12529 00d5 39       		.uleb128 0x39
 12530 00d6 0B       		.uleb128 0xb
 12531 00d7 49       		.uleb128 0x49
 12532 00d8 13       		.uleb128 0x13
 12533 00d9 02       		.uleb128 0x2
 12534 00da 17       		.uleb128 0x17
 12535 00db B742     		.uleb128 0x2137
 12536 00dd 17       		.uleb128 0x17
 12537 00de 00       		.byte	0
 12538 00df 00       		.byte	0
 12539 00e0 10       		.uleb128 0x10
 12540 00e1 24       		.uleb128 0x24
 12541 00e2 00       		.byte	0
 12542 00e3 0B       		.uleb128 0xb
 12543 00e4 0B       		.uleb128 0xb
 12544 00e5 3E       		.uleb128 0x3e
 12545 00e6 0B       		.uleb128 0xb
 12546 00e7 03       		.uleb128 0x3
 12547 00e8 0E       		.uleb128 0xe
 12548 00e9 00       		.byte	0
 12549 00ea 00       		.byte	0
 12550 00eb 11       		.uleb128 0x11
 12551 00ec 13       		.uleb128 0x13
 12552 00ed 01       		.byte	0x1
 12553 00ee 03       		.uleb128 0x3
 12554 00ef 0E       		.uleb128 0xe
 12555 00f0 0B       		.uleb128 0xb
 12556 00f1 0B       		.uleb128 0xb
 12557 00f2 3A       		.uleb128 0x3a
 12558 00f3 0B       		.uleb128 0xb
 12559 00f4 3B       		.uleb128 0x3b
 12560 00f5 0B       		.uleb128 0xb
 12561 00f6 39       		.uleb128 0x39
 12562 00f7 0B       		.uleb128 0xb
 12563 00f8 01       		.uleb128 0x1
 12564 00f9 13       		.uleb128 0x13
 12565 00fa 00       		.byte	0
ARM GAS  C:\Users\DEVELO~1\AppData\Local\Temp\cc2saCCQ.s 			page 222


 12566 00fb 00       		.byte	0
 12567 00fc 12       		.uleb128 0x12
 12568 00fd 26       		.uleb128 0x26
 12569 00fe 00       		.byte	0
 12570 00ff 49       		.uleb128 0x49
 12571 0100 13       		.uleb128 0x13
 12572 0101 00       		.byte	0
 12573 0102 00       		.byte	0
 12574 0103 13       		.uleb128 0x13
 12575 0104 05       		.uleb128 0x5
 12576 0105 00       		.byte	0
 12577 0106 31       		.uleb128 0x31
 12578 0107 13       		.uleb128 0x13
 12579 0108 00       		.byte	0
 12580 0109 00       		.byte	0
 12581 010a 14       		.uleb128 0x14
 12582 010b 01       		.uleb128 0x1
 12583 010c 01       		.byte	0x1
 12584 010d 49       		.uleb128 0x49
 12585 010e 13       		.uleb128 0x13
 12586 010f 01       		.uleb128 0x1
 12587 0110 13       		.uleb128 0x13
 12588 0111 00       		.byte	0
 12589 0112 00       		.byte	0
 12590 0113 15       		.uleb128 0x15
 12591 0114 21       		.uleb128 0x21
 12592 0115 00       		.byte	0
 12593 0116 49       		.uleb128 0x49
 12594 0117 13       		.uleb128 0x13
 12595 0118 2F       		.uleb128 0x2f
 12596 0119 0B       		.uleb128 0xb
 12597 011a 00       		.byte	0
 12598 011b 00       		.byte	0
 12599 011c 16       		.uleb128 0x16
 12600 011d 2E       		.uleb128 0x2e
 12601 011e 01       		.byte	0x1
 12602 011f 03       		.uleb128 0x3
 12603 0120 0E       		.uleb128 0xe
 12604 0121 3A       		.uleb128 0x3a
 12605 0122 0B       		.uleb128 0xb
 12606 0123 3B       		.uleb128 0x3b
 12607 0124 05       		.uleb128 0x5
 12608 0125 39       		.uleb128 0x39
 12609 0126 0B       		.uleb128 0xb
 12610 0127 27       		.uleb128 0x27
 12611 0128 19       		.uleb128 0x19
 12612 0129 20       		.uleb128 0x20
 12613 012a 0B       		.uleb128 0xb
 12614 012b 01       		.uleb128 0x1
 12615 012c 13       		.uleb128 0x13
 12616 012d 00       		.byte	0
 12617 012e 00       		.byte	0
 12618 012f 17       		.uleb128 0x17
 12619 0130 16       		.uleb128 0x16
 12620 0131 00       		.byte	0
 12621 0132 03       		.uleb128 0x3
 12622 0133 0E       		.uleb128 0xe
ARM GAS  C:\Users\DEVELO~1\AppData\Local\Temp\cc2saCCQ.s 			page 223


 12623 0134 3A       		.uleb128 0x3a
 12624 0135 0B       		.uleb128 0xb
 12625 0136 3B       		.uleb128 0x3b
 12626 0137 05       		.uleb128 0x5
 12627 0138 39       		.uleb128 0x39
 12628 0139 0B       		.uleb128 0xb
 12629 013a 49       		.uleb128 0x49
 12630 013b 13       		.uleb128 0x13
 12631 013c 00       		.byte	0
 12632 013d 00       		.byte	0
 12633 013e 18       		.uleb128 0x18
 12634 013f 48       		.uleb128 0x48
 12635 0140 00       		.byte	0
 12636 0141 7D       		.uleb128 0x7d
 12637 0142 01       		.uleb128 0x1
 12638 0143 8201     		.uleb128 0x82
 12639 0145 19       		.uleb128 0x19
 12640 0146 7F       		.uleb128 0x7f
 12641 0147 13       		.uleb128 0x13
 12642 0148 00       		.byte	0
 12643 0149 00       		.byte	0
 12644 014a 19       		.uleb128 0x19
 12645 014b 13       		.uleb128 0x13
 12646 014c 01       		.byte	0x1
 12647 014d 0B       		.uleb128 0xb
 12648 014e 0B       		.uleb128 0xb
 12649 014f 3A       		.uleb128 0x3a
 12650 0150 0B       		.uleb128 0xb
 12651 0151 3B       		.uleb128 0x3b
 12652 0152 0B       		.uleb128 0xb
 12653 0153 39       		.uleb128 0x39
 12654 0154 0B       		.uleb128 0xb
 12655 0155 01       		.uleb128 0x1
 12656 0156 13       		.uleb128 0x13
 12657 0157 00       		.byte	0
 12658 0158 00       		.byte	0
 12659 0159 1A       		.uleb128 0x1a
 12660 015a 0D       		.uleb128 0xd
 12661 015b 00       		.byte	0
 12662 015c 03       		.uleb128 0x3
 12663 015d 0E       		.uleb128 0xe
 12664 015e 3A       		.uleb128 0x3a
 12665 015f 0B       		.uleb128 0xb
 12666 0160 3B       		.uleb128 0x3b
 12667 0161 0B       		.uleb128 0xb
 12668 0162 39       		.uleb128 0x39
 12669 0163 0B       		.uleb128 0xb
 12670 0164 49       		.uleb128 0x49
 12671 0165 13       		.uleb128 0x13
 12672 0166 00       		.byte	0
 12673 0167 00       		.byte	0
 12674 0168 1B       		.uleb128 0x1b
 12675 0169 0D       		.uleb128 0xd
 12676 016a 00       		.byte	0
 12677 016b 03       		.uleb128 0x3
 12678 016c 0E       		.uleb128 0xe
 12679 016d 3A       		.uleb128 0x3a
ARM GAS  C:\Users\DEVELO~1\AppData\Local\Temp\cc2saCCQ.s 			page 224


 12680 016e 21       		.uleb128 0x21
 12681 016f 13       		.sleb128 19
 12682 0170 3B       		.uleb128 0x3b
 12683 0171 05       		.uleb128 0x5
 12684 0172 39       		.uleb128 0x39
 12685 0173 0B       		.uleb128 0xb
 12686 0174 49       		.uleb128 0x49
 12687 0175 13       		.uleb128 0x13
 12688 0176 38       		.uleb128 0x38
 12689 0177 05       		.uleb128 0x5
 12690 0178 00       		.byte	0
 12691 0179 00       		.byte	0
 12692 017a 1C       		.uleb128 0x1c
 12693 017b 1D       		.uleb128 0x1d
 12694 017c 01       		.byte	0x1
 12695 017d 31       		.uleb128 0x31
 12696 017e 13       		.uleb128 0x13
 12697 017f 52       		.uleb128 0x52
 12698 0180 01       		.uleb128 0x1
 12699 0181 B842     		.uleb128 0x2138
 12700 0183 05       		.uleb128 0x5
 12701 0184 55       		.uleb128 0x55
 12702 0185 17       		.uleb128 0x17
 12703 0186 58       		.uleb128 0x58
 12704 0187 21       		.uleb128 0x21
 12705 0188 01       		.sleb128 1
 12706 0189 59       		.uleb128 0x59
 12707 018a 05       		.uleb128 0x5
 12708 018b 57       		.uleb128 0x57
 12709 018c 0B       		.uleb128 0xb
 12710 018d 01       		.uleb128 0x1
 12711 018e 13       		.uleb128 0x13
 12712 018f 00       		.byte	0
 12713 0190 00       		.byte	0
 12714 0191 1D       		.uleb128 0x1d
 12715 0192 2E       		.uleb128 0x2e
 12716 0193 01       		.byte	0x1
 12717 0194 03       		.uleb128 0x3
 12718 0195 0E       		.uleb128 0xe
 12719 0196 3A       		.uleb128 0x3a
 12720 0197 0B       		.uleb128 0xb
 12721 0198 3B       		.uleb128 0x3b
 12722 0199 0B       		.uleb128 0xb
 12723 019a 39       		.uleb128 0x39
 12724 019b 0B       		.uleb128 0xb
 12725 019c 27       		.uleb128 0x27
 12726 019d 19       		.uleb128 0x19
 12727 019e 20       		.uleb128 0x20
 12728 019f 0B       		.uleb128 0xb
 12729 01a0 01       		.uleb128 0x1
 12730 01a1 13       		.uleb128 0x13
 12731 01a2 00       		.byte	0
 12732 01a3 00       		.byte	0
 12733 01a4 1E       		.uleb128 0x1e
 12734 01a5 05       		.uleb128 0x5
 12735 01a6 00       		.byte	0
 12736 01a7 03       		.uleb128 0x3
ARM GAS  C:\Users\DEVELO~1\AppData\Local\Temp\cc2saCCQ.s 			page 225


 12737 01a8 0E       		.uleb128 0xe
 12738 01a9 3A       		.uleb128 0x3a
 12739 01aa 0B       		.uleb128 0xb
 12740 01ab 3B       		.uleb128 0x3b
 12741 01ac 0B       		.uleb128 0xb
 12742 01ad 39       		.uleb128 0x39
 12743 01ae 0B       		.uleb128 0xb
 12744 01af 49       		.uleb128 0x49
 12745 01b0 13       		.uleb128 0x13
 12746 01b1 00       		.byte	0
 12747 01b2 00       		.byte	0
 12748 01b3 1F       		.uleb128 0x1f
 12749 01b4 1D       		.uleb128 0x1d
 12750 01b5 01       		.byte	0x1
 12751 01b6 31       		.uleb128 0x31
 12752 01b7 13       		.uleb128 0x13
 12753 01b8 52       		.uleb128 0x52
 12754 01b9 01       		.uleb128 0x1
 12755 01ba B842     		.uleb128 0x2138
 12756 01bc 05       		.uleb128 0x5
 12757 01bd 11       		.uleb128 0x11
 12758 01be 01       		.uleb128 0x1
 12759 01bf 12       		.uleb128 0x12
 12760 01c0 06       		.uleb128 0x6
 12761 01c1 58       		.uleb128 0x58
 12762 01c2 0B       		.uleb128 0xb
 12763 01c3 59       		.uleb128 0x59
 12764 01c4 0B       		.uleb128 0xb
 12765 01c5 57       		.uleb128 0x57
 12766 01c6 0B       		.uleb128 0xb
 12767 01c7 00       		.byte	0
 12768 01c8 00       		.byte	0
 12769 01c9 20       		.uleb128 0x20
 12770 01ca 48       		.uleb128 0x48
 12771 01cb 01       		.byte	0x1
 12772 01cc 7D       		.uleb128 0x7d
 12773 01cd 01       		.uleb128 0x1
 12774 01ce 00       		.byte	0
 12775 01cf 00       		.byte	0
 12776 01d0 21       		.uleb128 0x21
 12777 01d1 2E       		.uleb128 0x2e
 12778 01d2 00       		.byte	0
 12779 01d3 03       		.uleb128 0x3
 12780 01d4 0E       		.uleb128 0xe
 12781 01d5 3A       		.uleb128 0x3a
 12782 01d6 0B       		.uleb128 0xb
 12783 01d7 3B       		.uleb128 0x3b
 12784 01d8 05       		.uleb128 0x5
 12785 01d9 39       		.uleb128 0x39
 12786 01da 0B       		.uleb128 0xb
 12787 01db 27       		.uleb128 0x27
 12788 01dc 19       		.uleb128 0x19
 12789 01dd 20       		.uleb128 0x20
 12790 01de 21       		.uleb128 0x21
 12791 01df 03       		.sleb128 3
 12792 01e0 00       		.byte	0
 12793 01e1 00       		.byte	0
ARM GAS  C:\Users\DEVELO~1\AppData\Local\Temp\cc2saCCQ.s 			page 226


 12794 01e2 22       		.uleb128 0x22
 12795 01e3 0D       		.uleb128 0xd
 12796 01e4 00       		.byte	0
 12797 01e5 03       		.uleb128 0x3
 12798 01e6 08       		.uleb128 0x8
 12799 01e7 3A       		.uleb128 0x3a
 12800 01e8 0B       		.uleb128 0xb
 12801 01e9 3B       		.uleb128 0x3b
 12802 01ea 0B       		.uleb128 0xb
 12803 01eb 39       		.uleb128 0x39
 12804 01ec 0B       		.uleb128 0xb
 12805 01ed 49       		.uleb128 0x49
 12806 01ee 13       		.uleb128 0x13
 12807 01ef 00       		.byte	0
 12808 01f0 00       		.byte	0
 12809 01f1 23       		.uleb128 0x23
 12810 01f2 2E       		.uleb128 0x2e
 12811 01f3 01       		.byte	0x1
 12812 01f4 3F       		.uleb128 0x3f
 12813 01f5 19       		.uleb128 0x19
 12814 01f6 03       		.uleb128 0x3
 12815 01f7 0E       		.uleb128 0xe
 12816 01f8 3A       		.uleb128 0x3a
 12817 01f9 21       		.uleb128 0x21
 12818 01fa 01       		.sleb128 1
 12819 01fb 3B       		.uleb128 0x3b
 12820 01fc 05       		.uleb128 0x5
 12821 01fd 39       		.uleb128 0x39
 12822 01fe 0B       		.uleb128 0xb
 12823 01ff 27       		.uleb128 0x27
 12824 0200 19       		.uleb128 0x19
 12825 0201 49       		.uleb128 0x49
 12826 0202 13       		.uleb128 0x13
 12827 0203 11       		.uleb128 0x11
 12828 0204 01       		.uleb128 0x1
 12829 0205 12       		.uleb128 0x12
 12830 0206 06       		.uleb128 0x6
 12831 0207 40       		.uleb128 0x40
 12832 0208 18       		.uleb128 0x18
 12833 0209 7A       		.uleb128 0x7a
 12834 020a 19       		.uleb128 0x19
 12835 020b 01       		.uleb128 0x1
 12836 020c 13       		.uleb128 0x13
 12837 020d 00       		.byte	0
 12838 020e 00       		.byte	0
 12839 020f 24       		.uleb128 0x24
 12840 0210 34       		.uleb128 0x34
 12841 0211 00       		.byte	0
 12842 0212 03       		.uleb128 0x3
 12843 0213 0E       		.uleb128 0xe
 12844 0214 3A       		.uleb128 0x3a
 12845 0215 21       		.uleb128 0x21
 12846 0216 01       		.sleb128 1
 12847 0217 3B       		.uleb128 0x3b
 12848 0218 05       		.uleb128 0x5
 12849 0219 39       		.uleb128 0x39
 12850 021a 0B       		.uleb128 0xb
ARM GAS  C:\Users\DEVELO~1\AppData\Local\Temp\cc2saCCQ.s 			page 227


 12851 021b 49       		.uleb128 0x49
 12852 021c 13       		.uleb128 0x13
 12853 021d 02       		.uleb128 0x2
 12854 021e 17       		.uleb128 0x17
 12855 021f B742     		.uleb128 0x2137
 12856 0221 17       		.uleb128 0x17
 12857 0222 00       		.byte	0
 12858 0223 00       		.byte	0
 12859 0224 25       		.uleb128 0x25
 12860 0225 1D       		.uleb128 0x1d
 12861 0226 01       		.byte	0x1
 12862 0227 31       		.uleb128 0x31
 12863 0228 13       		.uleb128 0x13
 12864 0229 52       		.uleb128 0x52
 12865 022a 01       		.uleb128 0x1
 12866 022b B842     		.uleb128 0x2138
 12867 022d 05       		.uleb128 0x5
 12868 022e 55       		.uleb128 0x55
 12869 022f 17       		.uleb128 0x17
 12870 0230 58       		.uleb128 0x58
 12871 0231 0B       		.uleb128 0xb
 12872 0232 59       		.uleb128 0x59
 12873 0233 05       		.uleb128 0x5
 12874 0234 57       		.uleb128 0x57
 12875 0235 21       		.uleb128 0x21
 12876 0236 03       		.sleb128 3
 12877 0237 00       		.byte	0
 12878 0238 00       		.byte	0
 12879 0239 26       		.uleb128 0x26
 12880 023a 34       		.uleb128 0x34
 12881 023b 00       		.byte	0
 12882 023c 03       		.uleb128 0x3
 12883 023d 0E       		.uleb128 0xe
 12884 023e 49       		.uleb128 0x49
 12885 023f 13       		.uleb128 0x13
 12886 0240 34       		.uleb128 0x34
 12887 0241 19       		.uleb128 0x19
 12888 0242 00       		.byte	0
 12889 0243 00       		.byte	0
 12890 0244 27       		.uleb128 0x27
 12891 0245 2E       		.uleb128 0x2e
 12892 0246 01       		.byte	0x1
 12893 0247 3F       		.uleb128 0x3f
 12894 0248 19       		.uleb128 0x19
 12895 0249 03       		.uleb128 0x3
 12896 024a 0E       		.uleb128 0xe
 12897 024b 3A       		.uleb128 0x3a
 12898 024c 21       		.uleb128 0x21
 12899 024d 01       		.sleb128 1
 12900 024e 3B       		.uleb128 0x3b
 12901 024f 05       		.uleb128 0x5
 12902 0250 39       		.uleb128 0x39
 12903 0251 0B       		.uleb128 0xb
 12904 0252 27       		.uleb128 0x27
 12905 0253 19       		.uleb128 0x19
 12906 0254 11       		.uleb128 0x11
 12907 0255 01       		.uleb128 0x1
ARM GAS  C:\Users\DEVELO~1\AppData\Local\Temp\cc2saCCQ.s 			page 228


 12908 0256 12       		.uleb128 0x12
 12909 0257 06       		.uleb128 0x6
 12910 0258 40       		.uleb128 0x40
 12911 0259 18       		.uleb128 0x18
 12912 025a 7A       		.uleb128 0x7a
 12913 025b 19       		.uleb128 0x19
 12914 025c 01       		.uleb128 0x1
 12915 025d 13       		.uleb128 0x13
 12916 025e 00       		.byte	0
 12917 025f 00       		.byte	0
 12918 0260 28       		.uleb128 0x28
 12919 0261 48       		.uleb128 0x48
 12920 0262 00       		.byte	0
 12921 0263 7D       		.uleb128 0x7d
 12922 0264 01       		.uleb128 0x1
 12923 0265 7F       		.uleb128 0x7f
 12924 0266 13       		.uleb128 0x13
 12925 0267 00       		.byte	0
 12926 0268 00       		.byte	0
 12927 0269 29       		.uleb128 0x29
 12928 026a 35       		.uleb128 0x35
 12929 026b 00       		.byte	0
 12930 026c 49       		.uleb128 0x49
 12931 026d 13       		.uleb128 0x13
 12932 026e 00       		.byte	0
 12933 026f 00       		.byte	0
 12934 0270 2A       		.uleb128 0x2a
 12935 0271 17       		.uleb128 0x17
 12936 0272 01       		.byte	0x1
 12937 0273 0B       		.uleb128 0xb
 12938 0274 0B       		.uleb128 0xb
 12939 0275 3A       		.uleb128 0x3a
 12940 0276 0B       		.uleb128 0xb
 12941 0277 3B       		.uleb128 0x3b
 12942 0278 0B       		.uleb128 0xb
 12943 0279 39       		.uleb128 0x39
 12944 027a 0B       		.uleb128 0xb
 12945 027b 01       		.uleb128 0x1
 12946 027c 13       		.uleb128 0x13
 12947 027d 00       		.byte	0
 12948 027e 00       		.byte	0
 12949 027f 2B       		.uleb128 0x2b
 12950 0280 13       		.uleb128 0x13
 12951 0281 01       		.byte	0x1
 12952 0282 0B       		.uleb128 0xb
 12953 0283 0B       		.uleb128 0xb
 12954 0284 3A       		.uleb128 0x3a
 12955 0285 0B       		.uleb128 0xb
 12956 0286 3B       		.uleb128 0x3b
 12957 0287 05       		.uleb128 0x5
 12958 0288 39       		.uleb128 0x39
 12959 0289 21       		.uleb128 0x21
 12960 028a 09       		.sleb128 9
 12961 028b 01       		.uleb128 0x1
 12962 028c 13       		.uleb128 0x13
 12963 028d 00       		.byte	0
 12964 028e 00       		.byte	0
ARM GAS  C:\Users\DEVELO~1\AppData\Local\Temp\cc2saCCQ.s 			page 229


 12965 028f 2C       		.uleb128 0x2c
 12966 0290 0D       		.uleb128 0xd
 12967 0291 00       		.byte	0
 12968 0292 03       		.uleb128 0x3
 12969 0293 0E       		.uleb128 0xe
 12970 0294 3A       		.uleb128 0x3a
 12971 0295 21       		.uleb128 0x21
 12972 0296 0D       		.sleb128 13
 12973 0297 3B       		.uleb128 0x3b
 12974 0298 05       		.uleb128 0x5
 12975 0299 39       		.uleb128 0x39
 12976 029a 0B       		.uleb128 0xb
 12977 029b 49       		.uleb128 0x49
 12978 029c 13       		.uleb128 0x13
 12979 029d 00       		.byte	0
 12980 029e 00       		.byte	0
 12981 029f 2D       		.uleb128 0x2d
 12982 02a0 2E       		.uleb128 0x2e
 12983 02a1 01       		.byte	0x1
 12984 02a2 3F       		.uleb128 0x3f
 12985 02a3 19       		.uleb128 0x19
 12986 02a4 03       		.uleb128 0x3
 12987 02a5 0E       		.uleb128 0xe
 12988 02a6 3A       		.uleb128 0x3a
 12989 02a7 0B       		.uleb128 0xb
 12990 02a8 3B       		.uleb128 0x3b
 12991 02a9 05       		.uleb128 0x5
 12992 02aa 39       		.uleb128 0x39
 12993 02ab 21       		.uleb128 0x21
 12994 02ac 08       		.sleb128 8
 12995 02ad 27       		.uleb128 0x27
 12996 02ae 19       		.uleb128 0x19
 12997 02af 3C       		.uleb128 0x3c
 12998 02b0 19       		.uleb128 0x19
 12999 02b1 01       		.uleb128 0x1
 13000 02b2 13       		.uleb128 0x13
 13001 02b3 00       		.byte	0
 13002 02b4 00       		.byte	0
 13003 02b5 2E       		.uleb128 0x2e
 13004 02b6 48       		.uleb128 0x48
 13005 02b7 01       		.byte	0x1
 13006 02b8 7D       		.uleb128 0x7d
 13007 02b9 01       		.uleb128 0x1
 13008 02ba 01       		.uleb128 0x1
 13009 02bb 13       		.uleb128 0x13
 13010 02bc 00       		.byte	0
 13011 02bd 00       		.byte	0
 13012 02be 2F       		.uleb128 0x2f
 13013 02bf 28       		.uleb128 0x28
 13014 02c0 00       		.byte	0
 13015 02c1 03       		.uleb128 0x3
 13016 02c2 0E       		.uleb128 0xe
 13017 02c3 1C       		.uleb128 0x1c
 13018 02c4 0B       		.uleb128 0xb
 13019 02c5 00       		.byte	0
 13020 02c6 00       		.byte	0
 13021 02c7 30       		.uleb128 0x30
ARM GAS  C:\Users\DEVELO~1\AppData\Local\Temp\cc2saCCQ.s 			page 230


 13022 02c8 34       		.uleb128 0x34
 13023 02c9 00       		.byte	0
 13024 02ca 03       		.uleb128 0x3
 13025 02cb 0E       		.uleb128 0xe
 13026 02cc 3A       		.uleb128 0x3a
 13027 02cd 21       		.uleb128 0x21
 13028 02ce 1B       		.sleb128 27
 13029 02cf 3B       		.uleb128 0x3b
 13030 02d0 05       		.uleb128 0x5
 13031 02d1 39       		.uleb128 0x39
 13032 02d2 21       		.uleb128 0x21
 13033 02d3 12       		.sleb128 18
 13034 02d4 49       		.uleb128 0x49
 13035 02d5 13       		.uleb128 0x13
 13036 02d6 3F       		.uleb128 0x3f
 13037 02d7 19       		.uleb128 0x19
 13038 02d8 3C       		.uleb128 0x3c
 13039 02d9 19       		.uleb128 0x19
 13040 02da 00       		.byte	0
 13041 02db 00       		.byte	0
 13042 02dc 31       		.uleb128 0x31
 13043 02dd 34       		.uleb128 0x34
 13044 02de 00       		.byte	0
 13045 02df 47       		.uleb128 0x47
 13046 02e0 13       		.uleb128 0x13
 13047 02e1 3A       		.uleb128 0x3a
 13048 02e2 21       		.uleb128 0x21
 13049 02e3 01       		.sleb128 1
 13050 02e4 3B       		.uleb128 0x3b
 13051 02e5 0B       		.uleb128 0xb
 13052 02e6 39       		.uleb128 0x39
 13053 02e7 21       		.uleb128 0x21
 13054 02e8 0B       		.sleb128 11
 13055 02e9 02       		.uleb128 0x2
 13056 02ea 18       		.uleb128 0x18
 13057 02eb 00       		.byte	0
 13058 02ec 00       		.byte	0
 13059 02ed 32       		.uleb128 0x32
 13060 02ee 34       		.uleb128 0x34
 13061 02ef 00       		.byte	0
 13062 02f0 03       		.uleb128 0x3
 13063 02f1 0E       		.uleb128 0xe
 13064 02f2 49       		.uleb128 0x49
 13065 02f3 13       		.uleb128 0x13
 13066 02f4 34       		.uleb128 0x34
 13067 02f5 19       		.uleb128 0x19
 13068 02f6 02       		.uleb128 0x2
 13069 02f7 18       		.uleb128 0x18
 13070 02f8 00       		.byte	0
 13071 02f9 00       		.byte	0
 13072 02fa 33       		.uleb128 0x33
 13073 02fb 0B       		.uleb128 0xb
 13074 02fc 01       		.byte	0x1
 13075 02fd 55       		.uleb128 0x55
 13076 02fe 17       		.uleb128 0x17
 13077 02ff 00       		.byte	0
 13078 0300 00       		.byte	0
ARM GAS  C:\Users\DEVELO~1\AppData\Local\Temp\cc2saCCQ.s 			page 231


 13079 0301 34       		.uleb128 0x34
 13080 0302 34       		.uleb128 0x34
 13081 0303 00       		.byte	0
 13082 0304 31       		.uleb128 0x31
 13083 0305 13       		.uleb128 0x13
 13084 0306 02       		.uleb128 0x2
 13085 0307 17       		.uleb128 0x17
 13086 0308 B742     		.uleb128 0x2137
 13087 030a 17       		.uleb128 0x17
 13088 030b 00       		.byte	0
 13089 030c 00       		.byte	0
 13090 030d 35       		.uleb128 0x35
 13091 030e 34       		.uleb128 0x34
 13092 030f 00       		.byte	0
 13093 0310 31       		.uleb128 0x31
 13094 0311 13       		.uleb128 0x13
 13095 0312 00       		.byte	0
 13096 0313 00       		.byte	0
 13097 0314 36       		.uleb128 0x36
 13098 0315 13       		.uleb128 0x13
 13099 0316 01       		.byte	0x1
 13100 0317 03       		.uleb128 0x3
 13101 0318 0E       		.uleb128 0xe
 13102 0319 0B       		.uleb128 0xb
 13103 031a 0B       		.uleb128 0xb
 13104 031b 3A       		.uleb128 0x3a
 13105 031c 0B       		.uleb128 0xb
 13106 031d 3B       		.uleb128 0x3b
 13107 031e 05       		.uleb128 0x5
 13108 031f 39       		.uleb128 0x39
 13109 0320 0B       		.uleb128 0xb
 13110 0321 01       		.uleb128 0x1
 13111 0322 13       		.uleb128 0x13
 13112 0323 00       		.byte	0
 13113 0324 00       		.byte	0
 13114 0325 37       		.uleb128 0x37
 13115 0326 2E       		.uleb128 0x2e
 13116 0327 01       		.byte	0x1
 13117 0328 3F       		.uleb128 0x3f
 13118 0329 19       		.uleb128 0x19
 13119 032a 03       		.uleb128 0x3
 13120 032b 0E       		.uleb128 0xe
 13121 032c 3A       		.uleb128 0x3a
 13122 032d 0B       		.uleb128 0xb
 13123 032e 3B       		.uleb128 0x3b
 13124 032f 0B       		.uleb128 0xb
 13125 0330 39       		.uleb128 0x39
 13126 0331 21       		.uleb128 0x21
 13127 0332 08       		.sleb128 8
 13128 0333 27       		.uleb128 0x27
 13129 0334 19       		.uleb128 0x19
 13130 0335 3C       		.uleb128 0x3c
 13131 0336 19       		.uleb128 0x19
 13132 0337 01       		.uleb128 0x1
 13133 0338 13       		.uleb128 0x13
 13134 0339 00       		.byte	0
 13135 033a 00       		.byte	0
ARM GAS  C:\Users\DEVELO~1\AppData\Local\Temp\cc2saCCQ.s 			page 232


 13136 033b 38       		.uleb128 0x38
 13137 033c 05       		.uleb128 0x5
 13138 033d 00       		.byte	0
 13139 033e 03       		.uleb128 0x3
 13140 033f 0E       		.uleb128 0xe
 13141 0340 3A       		.uleb128 0x3a
 13142 0341 21       		.uleb128 0x21
 13143 0342 01       		.sleb128 1
 13144 0343 3B       		.uleb128 0x3b
 13145 0344 0B       		.uleb128 0xb
 13146 0345 39       		.uleb128 0x39
 13147 0346 0B       		.uleb128 0xb
 13148 0347 49       		.uleb128 0x49
 13149 0348 13       		.uleb128 0x13
 13150 0349 02       		.uleb128 0x2
 13151 034a 17       		.uleb128 0x17
 13152 034b B742     		.uleb128 0x2137
 13153 034d 17       		.uleb128 0x17
 13154 034e 00       		.byte	0
 13155 034f 00       		.byte	0
 13156 0350 39       		.uleb128 0x39
 13157 0351 1D       		.uleb128 0x1d
 13158 0352 01       		.byte	0x1
 13159 0353 31       		.uleb128 0x31
 13160 0354 13       		.uleb128 0x13
 13161 0355 52       		.uleb128 0x52
 13162 0356 01       		.uleb128 0x1
 13163 0357 B842     		.uleb128 0x2138
 13164 0359 05       		.uleb128 0x5
 13165 035a 55       		.uleb128 0x55
 13166 035b 17       		.uleb128 0x17
 13167 035c 58       		.uleb128 0x58
 13168 035d 21       		.uleb128 0x21
 13169 035e 01       		.sleb128 1
 13170 035f 59       		.uleb128 0x59
 13171 0360 0B       		.uleb128 0xb
 13172 0361 57       		.uleb128 0x57
 13173 0362 0B       		.uleb128 0xb
 13174 0363 01       		.uleb128 0x1
 13175 0364 13       		.uleb128 0x13
 13176 0365 00       		.byte	0
 13177 0366 00       		.byte	0
 13178 0367 3A       		.uleb128 0x3a
 13179 0368 05       		.uleb128 0x5
 13180 0369 00       		.byte	0
 13181 036a 03       		.uleb128 0x3
 13182 036b 08       		.uleb128 0x8
 13183 036c 3A       		.uleb128 0x3a
 13184 036d 0B       		.uleb128 0xb
 13185 036e 3B       		.uleb128 0x3b
 13186 036f 05       		.uleb128 0x5
 13187 0370 39       		.uleb128 0x39
 13188 0371 0B       		.uleb128 0xb
 13189 0372 49       		.uleb128 0x49
 13190 0373 13       		.uleb128 0x13
 13191 0374 00       		.byte	0
 13192 0375 00       		.byte	0
ARM GAS  C:\Users\DEVELO~1\AppData\Local\Temp\cc2saCCQ.s 			page 233


 13193 0376 3B       		.uleb128 0x3b
 13194 0377 0D       		.uleb128 0xd
 13195 0378 00       		.byte	0
 13196 0379 03       		.uleb128 0x3
 13197 037a 0E       		.uleb128 0xe
 13198 037b 3A       		.uleb128 0x3a
 13199 037c 21       		.uleb128 0x21
 13200 037d 12       		.sleb128 18
 13201 037e 3B       		.uleb128 0x3b
 13202 037f 0B       		.uleb128 0xb
 13203 0380 39       		.uleb128 0x39
 13204 0381 21       		.uleb128 0x21
 13205 0382 19       		.sleb128 25
 13206 0383 49       		.uleb128 0x49
 13207 0384 13       		.uleb128 0x13
 13208 0385 0D       		.uleb128 0xd
 13209 0386 0B       		.uleb128 0xb
 13210 0387 6B       		.uleb128 0x6b
 13211 0388 0B       		.uleb128 0xb
 13212 0389 00       		.byte	0
 13213 038a 00       		.byte	0
 13214 038b 3C       		.uleb128 0x3c
 13215 038c 05       		.uleb128 0x5
 13216 038d 00       		.byte	0
 13217 038e 03       		.uleb128 0x3
 13218 038f 08       		.uleb128 0x8
 13219 0390 3A       		.uleb128 0x3a
 13220 0391 21       		.uleb128 0x21
 13221 0392 01       		.sleb128 1
 13222 0393 3B       		.uleb128 0x3b
 13223 0394 05       		.uleb128 0x5
 13224 0395 39       		.uleb128 0x39
 13225 0396 0B       		.uleb128 0xb
 13226 0397 49       		.uleb128 0x49
 13227 0398 13       		.uleb128 0x13
 13228 0399 02       		.uleb128 0x2
 13229 039a 18       		.uleb128 0x18
 13230 039b 00       		.byte	0
 13231 039c 00       		.byte	0
 13232 039d 3D       		.uleb128 0x3d
 13233 039e 48       		.uleb128 0x48
 13234 039f 01       		.byte	0x1
 13235 03a0 7D       		.uleb128 0x7d
 13236 03a1 01       		.uleb128 0x1
 13237 03a2 8201     		.uleb128 0x82
 13238 03a4 19       		.uleb128 0x19
 13239 03a5 7F       		.uleb128 0x7f
 13240 03a6 13       		.uleb128 0x13
 13241 03a7 00       		.byte	0
 13242 03a8 00       		.byte	0
 13243 03a9 3E       		.uleb128 0x3e
 13244 03aa 1D       		.uleb128 0x1d
 13245 03ab 01       		.byte	0x1
 13246 03ac 31       		.uleb128 0x31
 13247 03ad 13       		.uleb128 0x13
 13248 03ae 52       		.uleb128 0x52
 13249 03af 01       		.uleb128 0x1
ARM GAS  C:\Users\DEVELO~1\AppData\Local\Temp\cc2saCCQ.s 			page 234


 13250 03b0 B842     		.uleb128 0x2138
 13251 03b2 05       		.uleb128 0x5
 13252 03b3 11       		.uleb128 0x11
 13253 03b4 01       		.uleb128 0x1
 13254 03b5 12       		.uleb128 0x12
 13255 03b6 06       		.uleb128 0x6
 13256 03b7 58       		.uleb128 0x58
 13257 03b8 21       		.uleb128 0x21
 13258 03b9 01       		.sleb128 1
 13259 03ba 59       		.uleb128 0x59
 13260 03bb 0B       		.uleb128 0xb
 13261 03bc 57       		.uleb128 0x57
 13262 03bd 21       		.uleb128 0x21
 13263 03be 05       		.sleb128 5
 13264 03bf 01       		.uleb128 0x1
 13265 03c0 13       		.uleb128 0x13
 13266 03c1 00       		.byte	0
 13267 03c2 00       		.byte	0
 13268 03c3 3F       		.uleb128 0x3f
 13269 03c4 48       		.uleb128 0x48
 13270 03c5 01       		.byte	0x1
 13271 03c6 7D       		.uleb128 0x7d
 13272 03c7 01       		.uleb128 0x1
 13273 03c8 8201     		.uleb128 0x82
 13274 03ca 19       		.uleb128 0x19
 13275 03cb 7F       		.uleb128 0x7f
 13276 03cc 13       		.uleb128 0x13
 13277 03cd 01       		.uleb128 0x1
 13278 03ce 13       		.uleb128 0x13
 13279 03cf 00       		.byte	0
 13280 03d0 00       		.byte	0
 13281 03d1 40       		.uleb128 0x40
 13282 03d2 49       		.uleb128 0x49
 13283 03d3 00       		.byte	0
 13284 03d4 8001     		.uleb128 0x80
 13285 03d6 13       		.uleb128 0x13
 13286 03d7 7E       		.uleb128 0x7e
 13287 03d8 18       		.uleb128 0x18
 13288 03d9 00       		.byte	0
 13289 03da 00       		.byte	0
 13290 03db 41       		.uleb128 0x41
 13291 03dc 2E       		.uleb128 0x2e
 13292 03dd 01       		.byte	0x1
 13293 03de 31       		.uleb128 0x31
 13294 03df 13       		.uleb128 0x13
 13295 03e0 11       		.uleb128 0x11
 13296 03e1 01       		.uleb128 0x1
 13297 03e2 12       		.uleb128 0x12
 13298 03e3 06       		.uleb128 0x6
 13299 03e4 40       		.uleb128 0x40
 13300 03e5 18       		.uleb128 0x18
 13301 03e6 7A       		.uleb128 0x7a
 13302 03e7 19       		.uleb128 0x19
 13303 03e8 01       		.uleb128 0x1
 13304 03e9 13       		.uleb128 0x13
 13305 03ea 00       		.byte	0
 13306 03eb 00       		.byte	0
ARM GAS  C:\Users\DEVELO~1\AppData\Local\Temp\cc2saCCQ.s 			page 235


 13307 03ec 42       		.uleb128 0x42
 13308 03ed 15       		.uleb128 0x15
 13309 03ee 01       		.byte	0x1
 13310 03ef 27       		.uleb128 0x27
 13311 03f0 19       		.uleb128 0x19
 13312 03f1 01       		.uleb128 0x1
 13313 03f2 13       		.uleb128 0x13
 13314 03f3 00       		.byte	0
 13315 03f4 00       		.byte	0
 13316 03f5 43       		.uleb128 0x43
 13317 03f6 2E       		.uleb128 0x2e
 13318 03f7 01       		.byte	0x1
 13319 03f8 3F       		.uleb128 0x3f
 13320 03f9 19       		.uleb128 0x19
 13321 03fa 03       		.uleb128 0x3
 13322 03fb 0E       		.uleb128 0xe
 13323 03fc 3A       		.uleb128 0x3a
 13324 03fd 0B       		.uleb128 0xb
 13325 03fe 3B       		.uleb128 0x3b
 13326 03ff 05       		.uleb128 0x5
 13327 0400 39       		.uleb128 0x39
 13328 0401 0B       		.uleb128 0xb
 13329 0402 27       		.uleb128 0x27
 13330 0403 19       		.uleb128 0x19
 13331 0404 49       		.uleb128 0x49
 13332 0405 13       		.uleb128 0x13
 13333 0406 3C       		.uleb128 0x3c
 13334 0407 19       		.uleb128 0x19
 13335 0408 01       		.uleb128 0x1
 13336 0409 13       		.uleb128 0x13
 13337 040a 00       		.byte	0
 13338 040b 00       		.byte	0
 13339 040c 44       		.uleb128 0x44
 13340 040d 0B       		.uleb128 0xb
 13341 040e 01       		.byte	0x1
 13342 040f 55       		.uleb128 0x55
 13343 0410 17       		.uleb128 0x17
 13344 0411 01       		.uleb128 0x1
 13345 0412 13       		.uleb128 0x13
 13346 0413 00       		.byte	0
 13347 0414 00       		.byte	0
 13348 0415 45       		.uleb128 0x45
 13349 0416 34       		.uleb128 0x34
 13350 0417 00       		.byte	0
 13351 0418 03       		.uleb128 0x3
 13352 0419 08       		.uleb128 0x8
 13353 041a 3A       		.uleb128 0x3a
 13354 041b 21       		.uleb128 0x21
 13355 041c 01       		.sleb128 1
 13356 041d 3B       		.uleb128 0x3b
 13357 041e 05       		.uleb128 0x5
 13358 041f 39       		.uleb128 0x39
 13359 0420 21       		.uleb128 0x21
 13360 0421 09       		.sleb128 9
 13361 0422 49       		.uleb128 0x49
 13362 0423 13       		.uleb128 0x13
 13363 0424 02       		.uleb128 0x2
ARM GAS  C:\Users\DEVELO~1\AppData\Local\Temp\cc2saCCQ.s 			page 236


 13364 0425 17       		.uleb128 0x17
 13365 0426 B742     		.uleb128 0x2137
 13366 0428 17       		.uleb128 0x17
 13367 0429 00       		.byte	0
 13368 042a 00       		.byte	0
 13369 042b 46       		.uleb128 0x46
 13370 042c 2E       		.uleb128 0x2e
 13371 042d 01       		.byte	0x1
 13372 042e 03       		.uleb128 0x3
 13373 042f 0E       		.uleb128 0xe
 13374 0430 3A       		.uleb128 0x3a
 13375 0431 21       		.uleb128 0x21
 13376 0432 01       		.sleb128 1
 13377 0433 3B       		.uleb128 0x3b
 13378 0434 05       		.uleb128 0x5
 13379 0435 39       		.uleb128 0x39
 13380 0436 21       		.uleb128 0x21
 13381 0437 0E       		.sleb128 14
 13382 0438 27       		.uleb128 0x27
 13383 0439 19       		.uleb128 0x19
 13384 043a 49       		.uleb128 0x49
 13385 043b 13       		.uleb128 0x13
 13386 043c 20       		.uleb128 0x20
 13387 043d 21       		.uleb128 0x21
 13388 043e 01       		.sleb128 1
 13389 043f 01       		.uleb128 0x1
 13390 0440 13       		.uleb128 0x13
 13391 0441 00       		.byte	0
 13392 0442 00       		.byte	0
 13393 0443 47       		.uleb128 0x47
 13394 0444 2E       		.uleb128 0x2e
 13395 0445 01       		.byte	0x1
 13396 0446 03       		.uleb128 0x3
 13397 0447 0E       		.uleb128 0xe
 13398 0448 3A       		.uleb128 0x3a
 13399 0449 21       		.uleb128 0x21
 13400 044a 01       		.sleb128 1
 13401 044b 3B       		.uleb128 0x3b
 13402 044c 0B       		.uleb128 0xb
 13403 044d 39       		.uleb128 0x39
 13404 044e 21       		.uleb128 0x21
 13405 044f 0D       		.sleb128 13
 13406 0450 27       		.uleb128 0x27
 13407 0451 19       		.uleb128 0x19
 13408 0452 11       		.uleb128 0x11
 13409 0453 01       		.uleb128 0x1
 13410 0454 12       		.uleb128 0x12
 13411 0455 06       		.uleb128 0x6
 13412 0456 40       		.uleb128 0x40
 13413 0457 18       		.uleb128 0x18
 13414 0458 7A       		.uleb128 0x7a
 13415 0459 19       		.uleb128 0x19
 13416 045a 01       		.uleb128 0x1
 13417 045b 13       		.uleb128 0x13
 13418 045c 00       		.byte	0
 13419 045d 00       		.byte	0
 13420 045e 48       		.uleb128 0x48
ARM GAS  C:\Users\DEVELO~1\AppData\Local\Temp\cc2saCCQ.s 			page 237


 13421 045f 11       		.uleb128 0x11
 13422 0460 01       		.byte	0x1
 13423 0461 25       		.uleb128 0x25
 13424 0462 0E       		.uleb128 0xe
 13425 0463 13       		.uleb128 0x13
 13426 0464 0B       		.uleb128 0xb
 13427 0465 03       		.uleb128 0x3
 13428 0466 0E       		.uleb128 0xe
 13429 0467 1B       		.uleb128 0x1b
 13430 0468 0E       		.uleb128 0xe
 13431 0469 55       		.uleb128 0x55
 13432 046a 17       		.uleb128 0x17
 13433 046b 11       		.uleb128 0x11
 13434 046c 01       		.uleb128 0x1
 13435 046d 10       		.uleb128 0x10
 13436 046e 17       		.uleb128 0x17
 13437 046f 00       		.byte	0
 13438 0470 00       		.byte	0
 13439 0471 49       		.uleb128 0x49
 13440 0472 24       		.uleb128 0x24
 13441 0473 00       		.byte	0
 13442 0474 0B       		.uleb128 0xb
 13443 0475 0B       		.uleb128 0xb
 13444 0476 3E       		.uleb128 0x3e
 13445 0477 0B       		.uleb128 0xb
 13446 0478 03       		.uleb128 0x3
 13447 0479 08       		.uleb128 0x8
 13448 047a 00       		.byte	0
 13449 047b 00       		.byte	0
 13450 047c 4A       		.uleb128 0x4a
 13451 047d 13       		.uleb128 0x13
 13452 047e 01       		.byte	0x1
 13453 047f 03       		.uleb128 0x3
 13454 0480 0E       		.uleb128 0xe
 13455 0481 0B       		.uleb128 0xb
 13456 0482 05       		.uleb128 0x5
 13457 0483 3A       		.uleb128 0x3a
 13458 0484 0B       		.uleb128 0xb
 13459 0485 3B       		.uleb128 0x3b
 13460 0486 05       		.uleb128 0x5
 13461 0487 39       		.uleb128 0x39
 13462 0488 0B       		.uleb128 0xb
 13463 0489 01       		.uleb128 0x1
 13464 048a 13       		.uleb128 0x13
 13465 048b 00       		.byte	0
 13466 048c 00       		.byte	0
 13467 048d 4B       		.uleb128 0x4b
 13468 048e 0F       		.uleb128 0xf
 13469 048f 00       		.byte	0
 13470 0490 0B       		.uleb128 0xb
 13471 0491 0B       		.uleb128 0xb
 13472 0492 00       		.byte	0
 13473 0493 00       		.byte	0
 13474 0494 4C       		.uleb128 0x4c
 13475 0495 13       		.uleb128 0x13
 13476 0496 01       		.byte	0x1
 13477 0497 0B       		.uleb128 0xb
ARM GAS  C:\Users\DEVELO~1\AppData\Local\Temp\cc2saCCQ.s 			page 238


 13478 0498 05       		.uleb128 0x5
 13479 0499 3A       		.uleb128 0x3a
 13480 049a 0B       		.uleb128 0xb
 13481 049b 3B       		.uleb128 0x3b
 13482 049c 0B       		.uleb128 0xb
 13483 049d 39       		.uleb128 0x39
 13484 049e 0B       		.uleb128 0xb
 13485 049f 01       		.uleb128 0x1
 13486 04a0 13       		.uleb128 0x13
 13487 04a1 00       		.byte	0
 13488 04a2 00       		.byte	0
 13489 04a3 4D       		.uleb128 0x4d
 13490 04a4 13       		.uleb128 0x13
 13491 04a5 01       		.byte	0x1
 13492 04a6 0B       		.uleb128 0xb
 13493 04a7 05       		.uleb128 0x5
 13494 04a8 3A       		.uleb128 0x3a
 13495 04a9 0B       		.uleb128 0xb
 13496 04aa 3B       		.uleb128 0x3b
 13497 04ab 05       		.uleb128 0x5
 13498 04ac 39       		.uleb128 0x39
 13499 04ad 0B       		.uleb128 0xb
 13500 04ae 01       		.uleb128 0x1
 13501 04af 13       		.uleb128 0x13
 13502 04b0 00       		.byte	0
 13503 04b1 00       		.byte	0
 13504 04b2 4E       		.uleb128 0x4e
 13505 04b3 04       		.uleb128 0x4
 13506 04b4 01       		.byte	0x1
 13507 04b5 3E       		.uleb128 0x3e
 13508 04b6 0B       		.uleb128 0xb
 13509 04b7 0B       		.uleb128 0xb
 13510 04b8 0B       		.uleb128 0xb
 13511 04b9 49       		.uleb128 0x49
 13512 04ba 13       		.uleb128 0x13
 13513 04bb 3A       		.uleb128 0x3a
 13514 04bc 0B       		.uleb128 0xb
 13515 04bd 3B       		.uleb128 0x3b
 13516 04be 0B       		.uleb128 0xb
 13517 04bf 39       		.uleb128 0x39
 13518 04c0 0B       		.uleb128 0xb
 13519 04c1 01       		.uleb128 0x1
 13520 04c2 13       		.uleb128 0x13
 13521 04c3 00       		.byte	0
 13522 04c4 00       		.byte	0
 13523 04c5 4F       		.uleb128 0x4f
 13524 04c6 2E       		.uleb128 0x2e
 13525 04c7 00       		.byte	0
 13526 04c8 3F       		.uleb128 0x3f
 13527 04c9 19       		.uleb128 0x19
 13528 04ca 03       		.uleb128 0x3
 13529 04cb 0E       		.uleb128 0xe
 13530 04cc 3A       		.uleb128 0x3a
 13531 04cd 0B       		.uleb128 0xb
 13532 04ce 3B       		.uleb128 0x3b
 13533 04cf 05       		.uleb128 0x5
 13534 04d0 39       		.uleb128 0x39
ARM GAS  C:\Users\DEVELO~1\AppData\Local\Temp\cc2saCCQ.s 			page 239


 13535 04d1 0B       		.uleb128 0xb
 13536 04d2 27       		.uleb128 0x27
 13537 04d3 19       		.uleb128 0x19
 13538 04d4 3C       		.uleb128 0x3c
 13539 04d5 19       		.uleb128 0x19
 13540 04d6 00       		.byte	0
 13541 04d7 00       		.byte	0
 13542 04d8 50       		.uleb128 0x50
 13543 04d9 26       		.uleb128 0x26
 13544 04da 00       		.byte	0
 13545 04db 00       		.byte	0
 13546 04dc 00       		.byte	0
 13547 04dd 51       		.uleb128 0x51
 13548 04de 05       		.uleb128 0x5
 13549 04df 00       		.byte	0
 13550 04e0 03       		.uleb128 0x3
 13551 04e1 08       		.uleb128 0x8
 13552 04e2 3A       		.uleb128 0x3a
 13553 04e3 0B       		.uleb128 0xb
 13554 04e4 3B       		.uleb128 0x3b
 13555 04e5 05       		.uleb128 0x5
 13556 04e6 39       		.uleb128 0x39
 13557 04e7 0B       		.uleb128 0xb
 13558 04e8 49       		.uleb128 0x49
 13559 04e9 13       		.uleb128 0x13
 13560 04ea 02       		.uleb128 0x2
 13561 04eb 17       		.uleb128 0x17
 13562 04ec B742     		.uleb128 0x2137
 13563 04ee 17       		.uleb128 0x17
 13564 04ef 00       		.byte	0
 13565 04f0 00       		.byte	0
 13566 04f1 52       		.uleb128 0x52
 13567 04f2 05       		.uleb128 0x5
 13568 04f3 00       		.byte	0
 13569 04f4 31       		.uleb128 0x31
 13570 04f5 13       		.uleb128 0x13
 13571 04f6 1C       		.uleb128 0x1c
 13572 04f7 05       		.uleb128 0x5
 13573 04f8 00       		.byte	0
 13574 04f9 00       		.byte	0
 13575 04fa 53       		.uleb128 0x53
 13576 04fb 34       		.uleb128 0x34
 13577 04fc 00       		.byte	0
 13578 04fd 03       		.uleb128 0x3
 13579 04fe 08       		.uleb128 0x8
 13580 04ff 3A       		.uleb128 0x3a
 13581 0500 0B       		.uleb128 0xb
 13582 0501 3B       		.uleb128 0x3b
 13583 0502 05       		.uleb128 0x5
 13584 0503 39       		.uleb128 0x39
 13585 0504 0B       		.uleb128 0xb
 13586 0505 49       		.uleb128 0x49
 13587 0506 13       		.uleb128 0x13
 13588 0507 00       		.byte	0
 13589 0508 00       		.byte	0
 13590 0509 54       		.uleb128 0x54
 13591 050a 2E       		.uleb128 0x2e
ARM GAS  C:\Users\DEVELO~1\AppData\Local\Temp\cc2saCCQ.s 			page 240


 13592 050b 01       		.byte	0x1
 13593 050c 03       		.uleb128 0x3
 13594 050d 0E       		.uleb128 0xe
 13595 050e 3A       		.uleb128 0x3a
 13596 050f 0B       		.uleb128 0xb
 13597 0510 3B       		.uleb128 0x3b
 13598 0511 05       		.uleb128 0x5
 13599 0512 39       		.uleb128 0x39
 13600 0513 0B       		.uleb128 0xb
 13601 0514 27       		.uleb128 0x27
 13602 0515 19       		.uleb128 0x19
 13603 0516 11       		.uleb128 0x11
 13604 0517 01       		.uleb128 0x1
 13605 0518 12       		.uleb128 0x12
 13606 0519 06       		.uleb128 0x6
 13607 051a 40       		.uleb128 0x40
 13608 051b 18       		.uleb128 0x18
 13609 051c 7A       		.uleb128 0x7a
 13610 051d 19       		.uleb128 0x19
 13611 051e 01       		.uleb128 0x1
 13612 051f 13       		.uleb128 0x13
 13613 0520 00       		.byte	0
 13614 0521 00       		.byte	0
 13615 0522 55       		.uleb128 0x55
 13616 0523 2E       		.uleb128 0x2e
 13617 0524 01       		.byte	0x1
 13618 0525 03       		.uleb128 0x3
 13619 0526 0E       		.uleb128 0xe
 13620 0527 3A       		.uleb128 0x3a
 13621 0528 0B       		.uleb128 0xb
 13622 0529 3B       		.uleb128 0x3b
 13623 052a 0B       		.uleb128 0xb
 13624 052b 39       		.uleb128 0x39
 13625 052c 0B       		.uleb128 0xb
 13626 052d 27       		.uleb128 0x27
 13627 052e 19       		.uleb128 0x19
 13628 052f 49       		.uleb128 0x49
 13629 0530 13       		.uleb128 0x13
 13630 0531 11       		.uleb128 0x11
 13631 0532 01       		.uleb128 0x1
 13632 0533 12       		.uleb128 0x12
 13633 0534 06       		.uleb128 0x6
 13634 0535 40       		.uleb128 0x40
 13635 0536 18       		.uleb128 0x18
 13636 0537 7A       		.uleb128 0x7a
 13637 0538 19       		.uleb128 0x19
 13638 0539 01       		.uleb128 0x1
 13639 053a 13       		.uleb128 0x13
 13640 053b 00       		.byte	0
 13641 053c 00       		.byte	0
 13642 053d 56       		.uleb128 0x56
 13643 053e 1D       		.uleb128 0x1d
 13644 053f 01       		.byte	0x1
 13645 0540 31       		.uleb128 0x31
 13646 0541 13       		.uleb128 0x13
 13647 0542 52       		.uleb128 0x52
 13648 0543 01       		.uleb128 0x1
ARM GAS  C:\Users\DEVELO~1\AppData\Local\Temp\cc2saCCQ.s 			page 241


 13649 0544 B842     		.uleb128 0x2138
 13650 0546 05       		.uleb128 0x5
 13651 0547 55       		.uleb128 0x55
 13652 0548 17       		.uleb128 0x17
 13653 0549 58       		.uleb128 0x58
 13654 054a 0B       		.uleb128 0xb
 13655 054b 59       		.uleb128 0x59
 13656 054c 0B       		.uleb128 0xb
 13657 054d 57       		.uleb128 0x57
 13658 054e 0B       		.uleb128 0xb
 13659 054f 00       		.byte	0
 13660 0550 00       		.byte	0
 13661 0551 57       		.uleb128 0x57
 13662 0552 05       		.uleb128 0x5
 13663 0553 00       		.byte	0
 13664 0554 03       		.uleb128 0x3
 13665 0555 08       		.uleb128 0x8
 13666 0556 3A       		.uleb128 0x3a
 13667 0557 0B       		.uleb128 0xb
 13668 0558 3B       		.uleb128 0x3b
 13669 0559 0B       		.uleb128 0xb
 13670 055a 39       		.uleb128 0x39
 13671 055b 0B       		.uleb128 0xb
 13672 055c 49       		.uleb128 0x49
 13673 055d 13       		.uleb128 0x13
 13674 055e 00       		.byte	0
 13675 055f 00       		.byte	0
 13676 0560 58       		.uleb128 0x58
 13677 0561 48       		.uleb128 0x48
 13678 0562 01       		.byte	0x1
 13679 0563 7D       		.uleb128 0x7d
 13680 0564 01       		.uleb128 0x1
 13681 0565 8201     		.uleb128 0x82
 13682 0567 19       		.uleb128 0x19
 13683 0568 00       		.byte	0
 13684 0569 00       		.byte	0
 13685 056a 59       		.uleb128 0x59
 13686 056b 2E       		.uleb128 0x2e
 13687 056c 01       		.byte	0x1
 13688 056d 31       		.uleb128 0x31
 13689 056e 13       		.uleb128 0x13
 13690 056f 11       		.uleb128 0x11
 13691 0570 01       		.uleb128 0x1
 13692 0571 12       		.uleb128 0x12
 13693 0572 06       		.uleb128 0x6
 13694 0573 40       		.uleb128 0x40
 13695 0574 18       		.uleb128 0x18
 13696 0575 7A       		.uleb128 0x7a
 13697 0576 19       		.uleb128 0x19
 13698 0577 00       		.byte	0
 13699 0578 00       		.byte	0
 13700 0579 00       		.byte	0
 13701              		.section	.debug_loclists,"",%progbits
 13702 0000 7C0C0000 		.4byte	.Ldebug_loc3-.Ldebug_loc2
 13703              	.Ldebug_loc2:
 13704 0004 0500     		.2byte	0x5
 13705 0006 04       		.byte	0x4
ARM GAS  C:\Users\DEVELO~1\AppData\Local\Temp\cc2saCCQ.s 			page 242


 13706 0007 00       		.byte	0
 13707 0008 00000000 		.4byte	0
 13708              	.Ldebug_loc0:
 13709              	.LVUS165:
 13710 000c 00       		.uleb128 0
 13711 000d 00       		.uleb128 .LVU1705
 13712 000e 00       		.uleb128 .LVU1705
 13713 000f 00       		.uleb128 .LVU1724
 13714 0010 00       		.uleb128 .LVU1724
 13715 0011 00       		.uleb128 .LVU1737
 13716 0012 00       		.uleb128 .LVU1737
 13717 0013 00       		.uleb128 .LVU1739
 13718 0014 00       		.uleb128 .LVU1739
 13719 0015 00       		.uleb128 .LVU1747
 13720 0016 00       		.uleb128 .LVU1747
 13721 0017 00       		.uleb128 0
 13722              	.LLST165:
 13723 0018 06       		.byte	0x6
 13724 0019 00000000 		.4byte	.LVL285
 13725 001d 04       		.byte	0x4
 13726 001e 00       		.uleb128 .LVL285-.LVL285
 13727 001f 40       		.uleb128 .LVL292-.LVL285
 13728 0020 01       		.uleb128 0x1
 13729 0021 50       		.byte	0x50
 13730 0022 04       		.byte	0x4
 13731 0023 40       		.uleb128 .LVL292-.LVL285
 13732 0024 5A       		.uleb128 .LVL294-.LVL285
 13733 0025 04       		.uleb128 0x4
 13734 0026 A3       		.byte	0xa3
 13735 0027 01       		.uleb128 0x1
 13736 0028 50       		.byte	0x50
 13737 0029 9F       		.byte	0x9f
 13738 002a 04       		.byte	0x4
 13739 002b 5A       		.uleb128 .LVL294-.LVL285
 13740 002c 6C       		.uleb128 .LVL297-.LVL285
 13741 002d 01       		.uleb128 0x1
 13742 002e 50       		.byte	0x50
 13743 002f 04       		.byte	0x4
 13744 0030 6C       		.uleb128 .LVL297-.LVL285
 13745 0031 72       		.uleb128 .LVL299-.LVL285
 13746 0032 04       		.uleb128 0x4
 13747 0033 A3       		.byte	0xa3
 13748 0034 01       		.uleb128 0x1
 13749 0035 50       		.byte	0x50
 13750 0036 9F       		.byte	0x9f
 13751 0037 04       		.byte	0x4
 13752 0038 72       		.uleb128 .LVL299-.LVL285
 13753 0039 7C       		.uleb128 .LVL300-.LVL285
 13754 003a 01       		.uleb128 0x1
 13755 003b 50       		.byte	0x50
 13756 003c 04       		.byte	0x4
 13757 003d 7C       		.uleb128 .LVL300-.LVL285
 13758 003e 8001     		.uleb128 .LFE456-.LVL285
 13759 0040 04       		.uleb128 0x4
 13760 0041 A3       		.byte	0xa3
 13761 0042 01       		.uleb128 0x1
 13762 0043 50       		.byte	0x50
ARM GAS  C:\Users\DEVELO~1\AppData\Local\Temp\cc2saCCQ.s 			page 243


 13763 0044 9F       		.byte	0x9f
 13764 0045 00       		.byte	0
 13765              	.LVUS166:
 13766 0046 00       		.uleb128 0
 13767 0047 00       		.uleb128 .LVU1693
 13768 0048 00       		.uleb128 .LVU1693
 13769 0049 00       		.uleb128 .LVU1724
 13770 004a 00       		.uleb128 .LVU1724
 13771 004b 00       		.uleb128 .LVU1730
 13772 004c 00       		.uleb128 .LVU1730
 13773 004d 00       		.uleb128 .LVU1739
 13774 004e 00       		.uleb128 .LVU1739
 13775 004f 00       		.uleb128 0
 13776              	.LLST166:
 13777 0050 06       		.byte	0x6
 13778 0051 00000000 		.4byte	.LVL285
 13779 0055 04       		.byte	0x4
 13780 0056 00       		.uleb128 .LVL285-.LVL285
 13781 0057 2A       		.uleb128 .LVL290-.LVL285
 13782 0058 01       		.uleb128 0x1
 13783 0059 51       		.byte	0x51
 13784 005a 04       		.byte	0x4
 13785 005b 2A       		.uleb128 .LVL290-.LVL285
 13786 005c 5A       		.uleb128 .LVL294-.LVL285
 13787 005d 04       		.uleb128 0x4
 13788 005e A3       		.byte	0xa3
 13789 005f 01       		.uleb128 0x1
 13790 0060 51       		.byte	0x51
 13791 0061 9F       		.byte	0x9f
 13792 0062 04       		.byte	0x4
 13793 0063 5A       		.uleb128 .LVL294-.LVL285
 13794 0064 62       		.uleb128 .LVL296-.LVL285
 13795 0065 01       		.uleb128 0x1
 13796 0066 51       		.byte	0x51
 13797 0067 04       		.byte	0x4
 13798 0068 62       		.uleb128 .LVL296-.LVL285
 13799 0069 72       		.uleb128 .LVL299-.LVL285
 13800 006a 04       		.uleb128 0x4
 13801 006b A3       		.byte	0xa3
 13802 006c 01       		.uleb128 0x1
 13803 006d 51       		.byte	0x51
 13804 006e 9F       		.byte	0x9f
 13805 006f 04       		.byte	0x4
 13806 0070 72       		.uleb128 .LVL299-.LVL285
 13807 0071 8001     		.uleb128 .LFE456-.LVL285
 13808 0073 01       		.uleb128 0x1
 13809 0074 51       		.byte	0x51
 13810 0075 00       		.byte	0
 13811              	.LVUS167:
 13812 0076 00       		.uleb128 .LVU1675
 13813 0077 00       		.uleb128 0
 13814              	.LLST167:
 13815 0078 08       		.byte	0x8
 13816 0079 12000000 		.4byte	.LVL286
 13817 007d 6E       		.uleb128 .LFE456-.LVL286
 13818 007e 01       		.uleb128 0x1
 13819 007f 5C       		.byte	0x5c
ARM GAS  C:\Users\DEVELO~1\AppData\Local\Temp\cc2saCCQ.s 			page 244


 13820 0080 00       		.byte	0
 13821              	.LVUS168:
 13822 0081 00       		.uleb128 .LVU1705
 13823 0082 00       		.uleb128 .LVU1724
 13824 0083 00       		.uleb128 .LVU1738
 13825 0084 00       		.uleb128 .LVU1739
 13826 0085 00       		.uleb128 .LVU1747
 13827 0086 00       		.uleb128 0
 13828              	.LLST168:
 13829 0087 06       		.byte	0x6
 13830 0088 40000000 		.4byte	.LVL292
 13831 008c 04       		.byte	0x4
 13832 008d 00       		.uleb128 .LVL292-.LVL292
 13833 008e 1A       		.uleb128 .LVL294-.LVL292
 13834 008f 01       		.uleb128 0x1
 13835 0090 50       		.byte	0x50
 13836 0091 04       		.byte	0x4
 13837 0092 30       		.uleb128 .LVL298-.LVL292
 13838 0093 32       		.uleb128 .LVL299-.LVL292
 13839 0094 01       		.uleb128 0x1
 13840 0095 50       		.byte	0x50
 13841 0096 04       		.byte	0x4
 13842 0097 3C       		.uleb128 .LVL300-.LVL292
 13843 0098 40       		.uleb128 .LFE456-.LVL292
 13844 0099 01       		.uleb128 0x1
 13845 009a 50       		.byte	0x50
 13846 009b 00       		.byte	0
 13847              	.LVUS172:
 13848 009c 01       		.uleb128 .LVU1690
 13849 009d 00       		.uleb128 .LVU1702
 13850              	.LLST172:
 13851 009e 08       		.byte	0x8
 13852 009f 28000000 		.4byte	.LVL289
 13853 00a3 14       		.uleb128 .LVL291-.LVL289
 13854 00a4 03       		.uleb128 0x3
 13855 00a5 73       		.byte	0x73
 13856 00a6 20       		.sleb128 32
 13857 00a7 9F       		.byte	0x9f
 13858 00a8 00       		.byte	0
 13859              	.LVUS173:
 13860 00a9 02       		.uleb128 .LVU1691
 13861 00aa 00       		.uleb128 .LVU1702
 13862              	.LLST173:
 13863 00ab 08       		.byte	0x8
 13864 00ac 28000000 		.4byte	.LVL289
 13865 00b0 14       		.uleb128 .LVL291-.LVL289
 13866 00b1 03       		.uleb128 0x3
 13867 00b2 73       		.byte	0x73
 13868 00b3 30       		.sleb128 48
 13869 00b4 9F       		.byte	0x9f
 13870 00b5 00       		.byte	0
 13871              	.LVUS177:
 13872 00b6 01       		.uleb128 .LVU1727
 13873 00b7 00       		.uleb128 .LVU1739
 13874              	.LLST177:
 13875 00b8 08       		.byte	0x8
 13876 00b9 60000000 		.4byte	.LVL295
ARM GAS  C:\Users\DEVELO~1\AppData\Local\Temp\cc2saCCQ.s 			page 245


 13877 00bd 12       		.uleb128 .LVL299-.LVL295
 13878 00be 03       		.uleb128 0x3
 13879 00bf 73       		.byte	0x73
 13880 00c0 20       		.sleb128 32
 13881 00c1 9F       		.byte	0x9f
 13882 00c2 00       		.byte	0
 13883              	.LVUS178:
 13884 00c3 02       		.uleb128 .LVU1728
 13885 00c4 00       		.uleb128 .LVU1739
 13886              	.LLST178:
 13887 00c5 08       		.byte	0x8
 13888 00c6 60000000 		.4byte	.LVL295
 13889 00ca 12       		.uleb128 .LVL299-.LVL295
 13890 00cb 03       		.uleb128 0x3
 13891 00cc 73       		.byte	0x73
 13892 00cd 30       		.sleb128 48
 13893 00ce 9F       		.byte	0x9f
 13894 00cf 00       		.byte	0
 13895              	.LVUS170:
 13896 00d0 02       		.uleb128 .LVU1677
 13897 00d1 00       		.uleb128 .LVU1683
 13898              	.LLST170:
 13899 00d2 08       		.byte	0x8
 13900 00d3 12000000 		.4byte	.LVL286
 13901 00d7 0A       		.uleb128 .LVL288-.LVL286
 13902 00d8 01       		.uleb128 0x1
 13903 00d9 50       		.byte	0x50
 13904 00da 00       		.byte	0
 13905              	.LVUS175:
 13906 00db 03       		.uleb128 .LVU1708
 13907 00dc 00       		.uleb128 .LVU1721
 13908              	.LLST175:
 13909 00dd 08       		.byte	0x8
 13910 00de 40000000 		.4byte	.LVL292
 13911 00e2 18       		.uleb128 .LVL293-.LVL292
 13912 00e3 04       		.uleb128 0x4
 13913 00e4 A3       		.byte	0xa3
 13914 00e5 01       		.uleb128 0x1
 13915 00e6 50       		.byte	0x50
 13916 00e7 9F       		.byte	0x9f
 13917 00e8 00       		.byte	0
 13918              	.LVUS162:
 13919 00e9 00       		.uleb128 0
 13920 00ea 00       		.uleb128 .LVU1652
 13921 00eb 00       		.uleb128 .LVU1652
 13922 00ec 00       		.uleb128 0
 13923              	.LLST162:
 13924 00ed 06       		.byte	0x6
 13925 00ee 00000000 		.4byte	.LVL282
 13926 00f2 04       		.byte	0x4
 13927 00f3 00       		.uleb128 .LVL282-.LVL282
 13928 00f4 09       		.uleb128 .LVL283-1-.LVL282
 13929 00f5 01       		.uleb128 0x1
 13930 00f6 50       		.byte	0x50
 13931 00f7 04       		.byte	0x4
 13932 00f8 09       		.uleb128 .LVL283-1-.LVL282
 13933 00f9 26       		.uleb128 .LFE455-.LVL282
ARM GAS  C:\Users\DEVELO~1\AppData\Local\Temp\cc2saCCQ.s 			page 246


 13934 00fa 01       		.uleb128 0x1
 13935 00fb 55       		.byte	0x55
 13936 00fc 00       		.byte	0
 13937              	.LVUS163:
 13938 00fd 00       		.uleb128 0
 13939 00fe 00       		.uleb128 .LVU1652
 13940 00ff 00       		.uleb128 .LVU1652
 13941 0100 00       		.uleb128 0
 13942              	.LLST163:
 13943 0101 06       		.byte	0x6
 13944 0102 00000000 		.4byte	.LVL282
 13945 0106 04       		.byte	0x4
 13946 0107 00       		.uleb128 .LVL282-.LVL282
 13947 0108 09       		.uleb128 .LVL283-1-.LVL282
 13948 0109 01       		.uleb128 0x1
 13949 010a 51       		.byte	0x51
 13950 010b 04       		.byte	0x4
 13951 010c 09       		.uleb128 .LVL283-1-.LVL282
 13952 010d 26       		.uleb128 .LFE455-.LVL282
 13953 010e 01       		.uleb128 0x1
 13954 010f 54       		.byte	0x54
 13955 0110 00       		.byte	0
 13956              	.LVUS164:
 13957 0111 00       		.uleb128 .LVU1652
 13958 0112 00       		.uleb128 0
 13959              	.LLST164:
 13960 0113 08       		.byte	0x8
 13961 0114 0A000000 		.4byte	.LVL283
 13962 0118 1C       		.uleb128 .LFE455-.LVL283
 13963 0119 01       		.uleb128 0x1
 13964 011a 50       		.byte	0x50
 13965 011b 00       		.byte	0
 13966              	.LVUS158:
 13967 011c 00       		.uleb128 0
 13968 011d 00       		.uleb128 .LVU1632
 13969 011e 00       		.uleb128 .LVU1632
 13970 011f 00       		.uleb128 .LVU1633
 13971 0120 00       		.uleb128 .LVU1633
 13972 0121 00       		.uleb128 0
 13973              	.LLST158:
 13974 0122 06       		.byte	0x6
 13975 0123 00000000 		.4byte	.LVL272
 13976 0127 04       		.byte	0x4
 13977 0128 00       		.uleb128 .LVL272-.LVL272
 13978 0129 4A       		.uleb128 .LVL278-.LVL272
 13979 012a 01       		.uleb128 0x1
 13980 012b 50       		.byte	0x50
 13981 012c 04       		.byte	0x4
 13982 012d 4A       		.uleb128 .LVL278-.LVL272
 13983 012e 4E       		.uleb128 .LVL279-.LVL272
 13984 012f 04       		.uleb128 0x4
 13985 0130 A3       		.byte	0xa3
 13986 0131 01       		.uleb128 0x1
 13987 0132 50       		.byte	0x50
 13988 0133 9F       		.byte	0x9f
 13989 0134 04       		.byte	0x4
 13990 0135 4E       		.uleb128 .LVL279-.LVL272
ARM GAS  C:\Users\DEVELO~1\AppData\Local\Temp\cc2saCCQ.s 			page 247


 13991 0136 66       		.uleb128 .LFE454-.LVL272
 13992 0137 01       		.uleb128 0x1
 13993 0138 50       		.byte	0x50
 13994 0139 00       		.byte	0
 13995              	.LVUS159:
 13996 013a 00       		.uleb128 0
 13997 013b 00       		.uleb128 .LVU1603
 13998 013c 00       		.uleb128 .LVU1603
 13999 013d 00       		.uleb128 .LVU1604
 14000 013e 00       		.uleb128 .LVU1604
 14001 013f 00       		.uleb128 .LVU1633
 14002 0140 00       		.uleb128 .LVU1633
 14003 0141 00       		.uleb128 .LVU1641
 14004 0142 00       		.uleb128 .LVU1641
 14005 0143 00       		.uleb128 .LVU1642
 14006 0144 00       		.uleb128 .LVU1642
 14007 0145 00       		.uleb128 0
 14008              	.LLST159:
 14009 0146 06       		.byte	0x6
 14010 0147 00000000 		.4byte	.LVL272
 14011 014b 04       		.byte	0x4
 14012 014c 00       		.uleb128 .LVL272-.LVL272
 14013 014d 18       		.uleb128 .LVL273-.LVL272
 14014 014e 01       		.uleb128 0x1
 14015 014f 52       		.byte	0x52
 14016 0150 04       		.byte	0x4
 14017 0151 18       		.uleb128 .LVL273-.LVL272
 14018 0152 1A       		.uleb128 .LVL274-.LVL272
 14019 0153 02       		.uleb128 0x2
 14020 0154 74       		.byte	0x74
 14021 0155 0C       		.sleb128 12
 14022 0156 04       		.byte	0x4
 14023 0157 1A       		.uleb128 .LVL274-.LVL272
 14024 0158 4E       		.uleb128 .LVL279-.LVL272
 14025 0159 04       		.uleb128 0x4
 14026 015a A3       		.byte	0xa3
 14027 015b 01       		.uleb128 0x1
 14028 015c 52       		.byte	0x52
 14029 015d 9F       		.byte	0x9f
 14030 015e 04       		.byte	0x4
 14031 015f 4E       		.uleb128 .LVL279-.LVL272
 14032 0160 5C       		.uleb128 .LVL280-.LVL272
 14033 0161 01       		.uleb128 0x1
 14034 0162 52       		.byte	0x52
 14035 0163 04       		.byte	0x4
 14036 0164 5C       		.uleb128 .LVL280-.LVL272
 14037 0165 5E       		.uleb128 .LVL281-.LVL272
 14038 0166 02       		.uleb128 0x2
 14039 0167 74       		.byte	0x74
 14040 0168 0C       		.sleb128 12
 14041 0169 04       		.byte	0x4
 14042 016a 5E       		.uleb128 .LVL281-.LVL272
 14043 016b 66       		.uleb128 .LFE454-.LVL272
 14044 016c 04       		.uleb128 0x4
 14045 016d A3       		.byte	0xa3
 14046 016e 01       		.uleb128 0x1
 14047 016f 52       		.byte	0x52
ARM GAS  C:\Users\DEVELO~1\AppData\Local\Temp\cc2saCCQ.s 			page 248


 14048 0170 9F       		.byte	0x9f
 14049 0171 00       		.byte	0
 14050              	.LVUS161:
 14051 0172 04       		.uleb128 .LVU1621
 14052 0173 00       		.uleb128 .LVU1629
 14053              	.LLST161:
 14054 0174 08       		.byte	0x8
 14055 0175 30000000 		.4byte	.LVL275
 14056 0179 18       		.uleb128 .LVL277-.LVL275
 14057 017a 01       		.uleb128 0x1
 14058 017b 50       		.byte	0x50
 14059 017c 00       		.byte	0
 14060              	.LVUS154:
 14061 017d 00       		.uleb128 0
 14062 017e 00       		.uleb128 .LVU1570
 14063 017f 00       		.uleb128 .LVU1570
 14064 0180 00       		.uleb128 .LVU1571
 14065 0181 00       		.uleb128 .LVU1571
 14066 0182 00       		.uleb128 0
 14067              	.LLST154:
 14068 0183 06       		.byte	0x6
 14069 0184 00000000 		.4byte	.LVL262
 14070 0188 04       		.byte	0x4
 14071 0189 00       		.uleb128 .LVL262-.LVL262
 14072 018a 4A       		.uleb128 .LVL268-.LVL262
 14073 018b 01       		.uleb128 0x1
 14074 018c 50       		.byte	0x50
 14075 018d 04       		.byte	0x4
 14076 018e 4A       		.uleb128 .LVL268-.LVL262
 14077 018f 4E       		.uleb128 .LVL269-.LVL262
 14078 0190 04       		.uleb128 0x4
 14079 0191 A3       		.byte	0xa3
 14080 0192 01       		.uleb128 0x1
 14081 0193 50       		.byte	0x50
 14082 0194 9F       		.byte	0x9f
 14083 0195 04       		.byte	0x4
 14084 0196 4E       		.uleb128 .LVL269-.LVL262
 14085 0197 6C       		.uleb128 .LFE453-.LVL262
 14086 0198 01       		.uleb128 0x1
 14087 0199 50       		.byte	0x50
 14088 019a 00       		.byte	0
 14089              	.LVUS155:
 14090 019b 00       		.uleb128 0
 14091 019c 00       		.uleb128 .LVU1549
 14092 019d 00       		.uleb128 .LVU1549
 14093 019e 00       		.uleb128 .LVU1550
 14094 019f 00       		.uleb128 .LVU1550
 14095 01a0 00       		.uleb128 .LVU1571
 14096 01a1 00       		.uleb128 .LVU1571
 14097 01a2 00       		.uleb128 .LVU1583
 14098 01a3 00       		.uleb128 .LVU1583
 14099 01a4 00       		.uleb128 .LVU1584
 14100 01a5 00       		.uleb128 .LVU1584
 14101 01a6 00       		.uleb128 0
 14102              	.LLST155:
 14103 01a7 06       		.byte	0x6
 14104 01a8 00000000 		.4byte	.LVL262
ARM GAS  C:\Users\DEVELO~1\AppData\Local\Temp\cc2saCCQ.s 			page 249


 14105 01ac 04       		.byte	0x4
 14106 01ad 00       		.uleb128 .LVL262-.LVL262
 14107 01ae 20       		.uleb128 .LVL263-.LVL262
 14108 01af 01       		.uleb128 0x1
 14109 01b0 52       		.byte	0x52
 14110 01b1 04       		.byte	0x4
 14111 01b2 20       		.uleb128 .LVL263-.LVL262
 14112 01b3 22       		.uleb128 .LVL264-.LVL262
 14113 01b4 02       		.uleb128 0x2
 14114 01b5 73       		.byte	0x73
 14115 01b6 0C       		.sleb128 12
 14116 01b7 04       		.byte	0x4
 14117 01b8 22       		.uleb128 .LVL264-.LVL262
 14118 01b9 4E       		.uleb128 .LVL269-.LVL262
 14119 01ba 04       		.uleb128 0x4
 14120 01bb A3       		.byte	0xa3
 14121 01bc 01       		.uleb128 0x1
 14122 01bd 52       		.byte	0x52
 14123 01be 9F       		.byte	0x9f
 14124 01bf 04       		.byte	0x4
 14125 01c0 4E       		.uleb128 .LVL269-.LVL262
 14126 01c1 64       		.uleb128 .LVL270-.LVL262
 14127 01c2 01       		.uleb128 0x1
 14128 01c3 52       		.byte	0x52
 14129 01c4 04       		.byte	0x4
 14130 01c5 64       		.uleb128 .LVL270-.LVL262
 14131 01c6 66       		.uleb128 .LVL271-.LVL262
 14132 01c7 02       		.uleb128 0x2
 14133 01c8 73       		.byte	0x73
 14134 01c9 0C       		.sleb128 12
 14135 01ca 04       		.byte	0x4
 14136 01cb 66       		.uleb128 .LVL271-.LVL262
 14137 01cc 6C       		.uleb128 .LFE453-.LVL262
 14138 01cd 04       		.uleb128 0x4
 14139 01ce A3       		.byte	0xa3
 14140 01cf 01       		.uleb128 0x1
 14141 01d0 52       		.byte	0x52
 14142 01d1 9F       		.byte	0x9f
 14143 01d2 00       		.byte	0
 14144              	.LVUS157:
 14145 01d3 04       		.uleb128 .LVU1559
 14146 01d4 00       		.uleb128 .LVU1567
 14147              	.LLST157:
 14148 01d5 08       		.byte	0x8
 14149 01d6 30000000 		.4byte	.LVL265
 14150 01da 18       		.uleb128 .LVL267-.LVL265
 14151 01db 01       		.uleb128 0x1
 14152 01dc 50       		.byte	0x50
 14153 01dd 00       		.byte	0
 14154              	.LVUS149:
 14155 01de 00       		.uleb128 0
 14156 01df 00       		.uleb128 .LVU1512
 14157 01e0 00       		.uleb128 .LVU1512
 14158 01e1 00       		.uleb128 .LVU1513
 14159 01e2 00       		.uleb128 .LVU1513
 14160 01e3 00       		.uleb128 0
 14161              	.LLST149:
ARM GAS  C:\Users\DEVELO~1\AppData\Local\Temp\cc2saCCQ.s 			page 250


 14162 01e4 06       		.byte	0x6
 14163 01e5 00000000 		.4byte	.LVL248
 14164 01e9 04       		.byte	0x4
 14165 01ea 00       		.uleb128 .LVL248-.LVL248
 14166 01eb 4A       		.uleb128 .LVL256-.LVL248
 14167 01ec 01       		.uleb128 0x1
 14168 01ed 50       		.byte	0x50
 14169 01ee 04       		.byte	0x4
 14170 01ef 4A       		.uleb128 .LVL256-.LVL248
 14171 01f0 4E       		.uleb128 .LVL257-.LVL248
 14172 01f1 04       		.uleb128 0x4
 14173 01f2 A3       		.byte	0xa3
 14174 01f3 01       		.uleb128 0x1
 14175 01f4 50       		.byte	0x50
 14176 01f5 9F       		.byte	0x9f
 14177 01f6 04       		.byte	0x4
 14178 01f7 4E       		.uleb128 .LVL257-.LVL248
 14179 01f8 6E       		.uleb128 .LFE452-.LVL248
 14180 01f9 01       		.uleb128 0x1
 14181 01fa 50       		.byte	0x50
 14182 01fb 00       		.byte	0
 14183              	.LVUS150:
 14184 01fc 00       		.uleb128 0
 14185 01fd 00       		.uleb128 .LVU1491
 14186 01fe 00       		.uleb128 .LVU1491
 14187 01ff 00       		.uleb128 .LVU1492
 14188 0200 00       		.uleb128 .LVU1492
 14189 0201 00       		.uleb128 .LVU1513
 14190 0202 00       		.uleb128 .LVU1513
 14191 0203 00       		.uleb128 .LVU1525
 14192 0204 00       		.uleb128 .LVU1525
 14193 0205 00       		.uleb128 .LVU1526
 14194 0206 00       		.uleb128 .LVU1526
 14195 0207 00       		.uleb128 0
 14196              	.LLST150:
 14197 0208 06       		.byte	0x6
 14198 0209 00000000 		.4byte	.LVL248
 14199 020d 04       		.byte	0x4
 14200 020e 00       		.uleb128 .LVL248-.LVL248
 14201 020f 20       		.uleb128 .LVL251-.LVL248
 14202 0210 01       		.uleb128 0x1
 14203 0211 52       		.byte	0x52
 14204 0212 04       		.byte	0x4
 14205 0213 20       		.uleb128 .LVL251-.LVL248
 14206 0214 22       		.uleb128 .LVL252-.LVL248
 14207 0215 02       		.uleb128 0x2
 14208 0216 73       		.byte	0x73
 14209 0217 0C       		.sleb128 12
 14210 0218 04       		.byte	0x4
 14211 0219 22       		.uleb128 .LVL252-.LVL248
 14212 021a 4E       		.uleb128 .LVL257-.LVL248
 14213 021b 04       		.uleb128 0x4
 14214 021c A3       		.byte	0xa3
 14215 021d 01       		.uleb128 0x1
 14216 021e 52       		.byte	0x52
 14217 021f 9F       		.byte	0x9f
 14218 0220 04       		.byte	0x4
ARM GAS  C:\Users\DEVELO~1\AppData\Local\Temp\cc2saCCQ.s 			page 251


 14219 0221 4E       		.uleb128 .LVL257-.LVL248
 14220 0222 66       		.uleb128 .LVL260-.LVL248
 14221 0223 01       		.uleb128 0x1
 14222 0224 52       		.byte	0x52
 14223 0225 04       		.byte	0x4
 14224 0226 66       		.uleb128 .LVL260-.LVL248
 14225 0227 68       		.uleb128 .LVL261-.LVL248
 14226 0228 02       		.uleb128 0x2
 14227 0229 73       		.byte	0x73
 14228 022a 0C       		.sleb128 12
 14229 022b 04       		.byte	0x4
 14230 022c 68       		.uleb128 .LVL261-.LVL248
 14231 022d 6E       		.uleb128 .LFE452-.LVL248
 14232 022e 04       		.uleb128 0x4
 14233 022f A3       		.byte	0xa3
 14234 0230 01       		.uleb128 0x1
 14235 0231 52       		.byte	0x52
 14236 0232 9F       		.byte	0x9f
 14237 0233 00       		.byte	0
 14238              	.LVUS151:
 14239 0234 00       		.uleb128 0
 14240 0235 00       		.uleb128 .LVU1483
 14241 0236 00       		.uleb128 .LVU1483
 14242 0237 00       		.uleb128 .LVU1484
 14243 0238 00       		.uleb128 .LVU1484
 14244 0239 00       		.uleb128 .LVU1513
 14245 023a 00       		.uleb128 .LVU1513
 14246 023b 00       		.uleb128 .LVU1517
 14247 023c 00       		.uleb128 .LVU1517
 14248 023d 00       		.uleb128 .LVU1518
 14249 023e 00       		.uleb128 .LVU1518
 14250 023f 00       		.uleb128 0
 14251              	.LLST151:
 14252 0240 06       		.byte	0x6
 14253 0241 00000000 		.4byte	.LVL248
 14254 0245 04       		.byte	0x4
 14255 0246 00       		.uleb128 .LVL248-.LVL248
 14256 0247 10       		.uleb128 .LVL249-.LVL248
 14257 0248 01       		.uleb128 0x1
 14258 0249 53       		.byte	0x53
 14259 024a 04       		.byte	0x4
 14260 024b 10       		.uleb128 .LVL249-.LVL248
 14261 024c 12       		.uleb128 .LVL250-.LVL248
 14262 024d 02       		.uleb128 0x2
 14263 024e 74       		.byte	0x74
 14264 024f 0C       		.sleb128 12
 14265 0250 04       		.byte	0x4
 14266 0251 12       		.uleb128 .LVL250-.LVL248
 14267 0252 4E       		.uleb128 .LVL257-.LVL248
 14268 0253 04       		.uleb128 0x4
 14269 0254 A3       		.byte	0xa3
 14270 0255 01       		.uleb128 0x1
 14271 0256 53       		.byte	0x53
 14272 0257 9F       		.byte	0x9f
 14273 0258 04       		.byte	0x4
 14274 0259 4E       		.uleb128 .LVL257-.LVL248
 14275 025a 56       		.uleb128 .LVL258-.LVL248
ARM GAS  C:\Users\DEVELO~1\AppData\Local\Temp\cc2saCCQ.s 			page 252


 14276 025b 01       		.uleb128 0x1
 14277 025c 53       		.byte	0x53
 14278 025d 04       		.byte	0x4
 14279 025e 56       		.uleb128 .LVL258-.LVL248
 14280 025f 58       		.uleb128 .LVL259-.LVL248
 14281 0260 02       		.uleb128 0x2
 14282 0261 74       		.byte	0x74
 14283 0262 0C       		.sleb128 12
 14284 0263 04       		.byte	0x4
 14285 0264 58       		.uleb128 .LVL259-.LVL248
 14286 0265 6E       		.uleb128 .LFE452-.LVL248
 14287 0266 04       		.uleb128 0x4
 14288 0267 A3       		.byte	0xa3
 14289 0268 01       		.uleb128 0x1
 14290 0269 53       		.byte	0x53
 14291 026a 9F       		.byte	0x9f
 14292 026b 00       		.byte	0
 14293              	.LVUS153:
 14294 026c 04       		.uleb128 .LVU1501
 14295 026d 00       		.uleb128 .LVU1509
 14296              	.LLST153:
 14297 026e 08       		.byte	0x8
 14298 026f 30000000 		.4byte	.LVL253
 14299 0273 18       		.uleb128 .LVL255-.LVL253
 14300 0274 01       		.uleb128 0x1
 14301 0275 50       		.byte	0x50
 14302 0276 00       		.byte	0
 14303              	.LVUS145:
 14304 0277 00       		.uleb128 0
 14305 0278 00       		.uleb128 .LVU1466
 14306 0279 00       		.uleb128 .LVU1466
 14307 027a 00       		.uleb128 .LVU1467
 14308 027b 00       		.uleb128 .LVU1467
 14309 027c 00       		.uleb128 .LVU1468
 14310 027d 00       		.uleb128 .LVU1468
 14311 027e 00       		.uleb128 0
 14312              	.LLST145:
 14313 027f 06       		.byte	0x6
 14314 0280 00000000 		.4byte	.LVL240
 14315 0284 04       		.byte	0x4
 14316 0285 00       		.uleb128 .LVL240-.LVL240
 14317 0286 4A       		.uleb128 .LVL245-.LVL240
 14318 0287 01       		.uleb128 0x1
 14319 0288 50       		.byte	0x50
 14320 0289 04       		.byte	0x4
 14321 028a 4A       		.uleb128 .LVL245-.LVL240
 14322 028b 4C       		.uleb128 .LVL246-.LVL240
 14323 028c 03       		.uleb128 0x3
 14324 028d 75       		.byte	0x75
 14325 028e 48       		.sleb128 -56
 14326 028f 9F       		.byte	0x9f
 14327 0290 04       		.byte	0x4
 14328 0291 4C       		.uleb128 .LVL246-.LVL240
 14329 0292 4E       		.uleb128 .LVL247-.LVL240
 14330 0293 04       		.uleb128 0x4
 14331 0294 A3       		.byte	0xa3
 14332 0295 01       		.uleb128 0x1
ARM GAS  C:\Users\DEVELO~1\AppData\Local\Temp\cc2saCCQ.s 			page 253


 14333 0296 50       		.byte	0x50
 14334 0297 9F       		.byte	0x9f
 14335 0298 04       		.byte	0x4
 14336 0299 4E       		.uleb128 .LVL247-.LVL240
 14337 029a 5A       		.uleb128 .LFE451-.LVL240
 14338 029b 01       		.uleb128 0x1
 14339 029c 50       		.byte	0x50
 14340 029d 00       		.byte	0
 14341              	.LVUS146:
 14342 029e 00       		.uleb128 0
 14343 029f 00       		.uleb128 .LVU1450
 14344 02a0 00       		.uleb128 .LVU1450
 14345 02a1 00       		.uleb128 .LVU1468
 14346 02a2 00       		.uleb128 .LVU1468
 14347 02a3 00       		.uleb128 0
 14348              	.LLST146:
 14349 02a4 06       		.byte	0x6
 14350 02a5 00000000 		.4byte	.LVL240
 14351 02a9 04       		.byte	0x4
 14352 02aa 00       		.uleb128 .LVL240-.LVL240
 14353 02ab 2A       		.uleb128 .LVL241-.LVL240
 14354 02ac 01       		.uleb128 0x1
 14355 02ad 51       		.byte	0x51
 14356 02ae 04       		.byte	0x4
 14357 02af 2A       		.uleb128 .LVL241-.LVL240
 14358 02b0 4E       		.uleb128 .LVL247-.LVL240
 14359 02b1 04       		.uleb128 0x4
 14360 02b2 A3       		.byte	0xa3
 14361 02b3 01       		.uleb128 0x1
 14362 02b4 51       		.byte	0x51
 14363 02b5 9F       		.byte	0x9f
 14364 02b6 04       		.byte	0x4
 14365 02b7 4E       		.uleb128 .LVL247-.LVL240
 14366 02b8 5A       		.uleb128 .LFE451-.LVL240
 14367 02b9 01       		.uleb128 0x1
 14368 02ba 51       		.byte	0x51
 14369 02bb 00       		.byte	0
 14370              	.LVUS148:
 14371 02bc 04       		.uleb128 .LVU1455
 14372 02bd 00       		.uleb128 .LVU1463
 14373              	.LLST148:
 14374 02be 08       		.byte	0x8
 14375 02bf 30000000 		.4byte	.LVL242
 14376 02c3 18       		.uleb128 .LVL244-.LVL242
 14377 02c4 01       		.uleb128 0x1
 14378 02c5 50       		.byte	0x50
 14379 02c6 00       		.byte	0
 14380              	.LVUS140:
 14381 02c7 00       		.uleb128 0
 14382 02c8 00       		.uleb128 .LVU1359
 14383 02c9 00       		.uleb128 .LVU1359
 14384 02ca 00       		.uleb128 .LVU1420
 14385 02cb 00       		.uleb128 .LVU1420
 14386 02cc 00       		.uleb128 0
 14387              	.LLST140:
 14388 02cd 06       		.byte	0x6
 14389 02ce 00000000 		.4byte	.LVL226
ARM GAS  C:\Users\DEVELO~1\AppData\Local\Temp\cc2saCCQ.s 			page 254


 14390 02d2 04       		.byte	0x4
 14391 02d3 00       		.uleb128 .LVL226-.LVL226
 14392 02d4 0F       		.uleb128 .LVL227-1-.LVL226
 14393 02d5 01       		.uleb128 0x1
 14394 02d6 50       		.byte	0x50
 14395 02d7 04       		.byte	0x4
 14396 02d8 0F       		.uleb128 .LVL227-1-.LVL226
 14397 02d9 EC01     		.uleb128 .LVL239-.LVL226
 14398 02db 01       		.uleb128 0x1
 14399 02dc 54       		.byte	0x54
 14400 02dd 04       		.byte	0x4
 14401 02de EC01     		.uleb128 .LVL239-.LVL226
 14402 02e0 8402     		.uleb128 .LFE450-.LVL226
 14403 02e2 04       		.uleb128 0x4
 14404 02e3 A3       		.byte	0xa3
 14405 02e4 01       		.uleb128 0x1
 14406 02e5 50       		.byte	0x50
 14407 02e6 9F       		.byte	0x9f
 14408 02e7 00       		.byte	0
 14409              	.LVUS141:
 14410 02e8 01       		.uleb128 .LVU1377
 14411 02e9 00       		.uleb128 .LVU1383
 14412              	.LLST141:
 14413 02ea 08       		.byte	0x8
 14414 02eb 40000000 		.4byte	.LVL230
 14415 02ef 1E       		.uleb128 .LVL231-.LVL230
 14416 02f0 03       		.uleb128 0x3
 14417 02f1 08       		.byte	0x8
 14418 02f2 20       		.byte	0x20
 14419 02f3 9F       		.byte	0x9f
 14420 02f4 00       		.byte	0
 14421              	.LVUS142:
 14422 02f5 01       		.uleb128 .LVU1389
 14423 02f6 00       		.uleb128 .LVU1396
 14424              	.LLST142:
 14425 02f7 08       		.byte	0x8
 14426 02f8 6C000000 		.4byte	.LVL235
 14427 02fc 20       		.uleb128 .LVL236-.LVL235
 14428 02fd 04       		.uleb128 0x4
 14429 02fe 0A       		.byte	0xa
 14430 02ff 0010     		.2byte	0x1000
 14431 0301 9F       		.byte	0x9f
 14432 0302 00       		.byte	0
 14433              	.LVUS143:
 14434 0303 01       		.uleb128 .LVU1397
 14435 0304 00       		.uleb128 .LVU1404
 14436              	.LLST143:
 14437 0305 08       		.byte	0x8
 14438 0306 8C000000 		.4byte	.LVL236
 14439 030a 20       		.uleb128 .LVL237-.LVL236
 14440 030b 04       		.uleb128 0x4
 14441 030c 40       		.byte	0x40
 14442 030d 40       		.byte	0x40
 14443 030e 24       		.byte	0x24
 14444 030f 9F       		.byte	0x9f
 14445 0310 00       		.byte	0
 14446              	.LVUS144:
ARM GAS  C:\Users\DEVELO~1\AppData\Local\Temp\cc2saCCQ.s 			page 255


 14447 0311 01       		.uleb128 .LVU1405
 14448 0312 00       		.uleb128 .LVU1412
 14449              	.LLST144:
 14450 0313 08       		.byte	0x8
 14451 0314 AC000000 		.4byte	.LVL237
 14452 0318 20       		.uleb128 .LVL238-.LVL237
 14453 0319 04       		.uleb128 0x4
 14454 031a 0A       		.byte	0xa
 14455 031b 0040     		.2byte	0x4000
 14456 031d 9F       		.byte	0x9f
 14457 031e 00       		.byte	0
 14458              	.LVUS95:
 14459 031f 00       		.uleb128 0
 14460 0320 00       		.uleb128 .LVU1029
 14461 0321 00       		.uleb128 .LVU1029
 14462 0322 00       		.uleb128 .LVU1055
 14463 0323 00       		.uleb128 .LVU1055
 14464 0324 00       		.uleb128 .LVU1066
 14465 0325 00       		.uleb128 .LVU1066
 14466 0326 00       		.uleb128 .LVU1149
 14467 0327 00       		.uleb128 .LVU1149
 14468 0328 00       		.uleb128 .LVU1153
 14469 0329 00       		.uleb128 .LVU1153
 14470 032a 00       		.uleb128 .LVU1186
 14471 032b 00       		.uleb128 .LVU1186
 14472 032c 00       		.uleb128 .LVU1191
 14473 032d 00       		.uleb128 .LVU1191
 14474 032e 00       		.uleb128 .LVU1224
 14475 032f 00       		.uleb128 .LVU1224
 14476 0330 00       		.uleb128 .LVU1229
 14477 0331 00       		.uleb128 .LVU1229
 14478 0332 00       		.uleb128 .LVU1262
 14479 0333 00       		.uleb128 .LVU1262
 14480 0334 00       		.uleb128 .LVU1267
 14481 0335 00       		.uleb128 .LVU1267
 14482 0336 00       		.uleb128 .LVU1300
 14483 0337 00       		.uleb128 .LVU1300
 14484 0338 00       		.uleb128 .LVU1305
 14485 0339 00       		.uleb128 .LVU1305
 14486 033a 00       		.uleb128 .LVU1345
 14487 033b 00       		.uleb128 .LVU1345
 14488 033c 00       		.uleb128 .LVU1346
 14489 033d 00       		.uleb128 .LVU1346
 14490 033e 00       		.uleb128 0
 14491              	.LLST95:
 14492 033f 06       		.byte	0x6
 14493 0340 00000000 		.4byte	.LVL162
 14494 0344 04       		.byte	0x4
 14495 0345 00       		.uleb128 .LVL162-.LVL162
 14496 0346 12       		.uleb128 .LVL163-.LVL162
 14497 0347 01       		.uleb128 0x1
 14498 0348 50       		.byte	0x50
 14499 0349 04       		.byte	0x4
 14500 034a 12       		.uleb128 .LVL163-.LVL162
 14501 034b 4E       		.uleb128 .LVL167-.LVL162
 14502 034c 01       		.uleb128 0x1
 14503 034d 54       		.byte	0x54
ARM GAS  C:\Users\DEVELO~1\AppData\Local\Temp\cc2saCCQ.s 			page 256


 14504 034e 04       		.byte	0x4
 14505 034f 4E       		.uleb128 .LVL167-.LVL162
 14506 0350 74       		.uleb128 .LVL168-.LVL162
 14507 0351 01       		.uleb128 0x1
 14508 0352 50       		.byte	0x50
 14509 0353 04       		.byte	0x4
 14510 0354 74       		.uleb128 .LVL168-.LVL162
 14511 0355 A602     		.uleb128 .LVL176-.LVL162
 14512 0357 01       		.uleb128 0x1
 14513 0358 54       		.byte	0x54
 14514 0359 04       		.byte	0x4
 14515 035a A602     		.uleb128 .LVL176-.LVL162
 14516 035c AE02     		.uleb128 .LVL177-.LVL162
 14517 035e 01       		.uleb128 0x1
 14518 035f 50       		.byte	0x50
 14519 0360 04       		.byte	0x4
 14520 0361 AE02     		.uleb128 .LVL177-.LVL162
 14521 0363 9A03     		.uleb128 .LVL185-.LVL162
 14522 0365 01       		.uleb128 0x1
 14523 0366 54       		.byte	0x54
 14524 0367 04       		.byte	0x4
 14525 0368 9A03     		.uleb128 .LVL185-.LVL162
 14526 036a A203     		.uleb128 .LVL186-.LVL162
 14527 036c 01       		.uleb128 0x1
 14528 036d 50       		.byte	0x50
 14529 036e 04       		.byte	0x4
 14530 036f A203     		.uleb128 .LVL186-.LVL162
 14531 0371 8E04     		.uleb128 .LVL194-.LVL162
 14532 0373 01       		.uleb128 0x1
 14533 0374 54       		.byte	0x54
 14534 0375 04       		.byte	0x4
 14535 0376 8E04     		.uleb128 .LVL194-.LVL162
 14536 0378 9604     		.uleb128 .LVL195-.LVL162
 14537 037a 01       		.uleb128 0x1
 14538 037b 50       		.byte	0x50
 14539 037c 04       		.byte	0x4
 14540 037d 9604     		.uleb128 .LVL195-.LVL162
 14541 037f 8205     		.uleb128 .LVL203-.LVL162
 14542 0381 01       		.uleb128 0x1
 14543 0382 54       		.byte	0x54
 14544 0383 04       		.byte	0x4
 14545 0384 8205     		.uleb128 .LVL203-.LVL162
 14546 0386 8A05     		.uleb128 .LVL204-.LVL162
 14547 0388 01       		.uleb128 0x1
 14548 0389 50       		.byte	0x50
 14549 038a 04       		.byte	0x4
 14550 038b 8A05     		.uleb128 .LVL204-.LVL162
 14551 038d F205     		.uleb128 .LVL212-.LVL162
 14552 038f 01       		.uleb128 0x1
 14553 0390 54       		.byte	0x54
 14554 0391 04       		.byte	0x4
 14555 0392 F205     		.uleb128 .LVL212-.LVL162
 14556 0394 FA05     		.uleb128 .LVL213-.LVL162
 14557 0396 01       		.uleb128 0x1
 14558 0397 50       		.byte	0x50
 14559 0398 04       		.byte	0x4
 14560 0399 FA05     		.uleb128 .LVL213-.LVL162
ARM GAS  C:\Users\DEVELO~1\AppData\Local\Temp\cc2saCCQ.s 			page 257


 14561 039b EC06     		.uleb128 .LVL223-.LVL162
 14562 039d 01       		.uleb128 0x1
 14563 039e 54       		.byte	0x54
 14564 039f 04       		.byte	0x4
 14565 03a0 EC06     		.uleb128 .LVL223-.LVL162
 14566 03a2 9407     		.uleb128 .LVL224-.LVL162
 14567 03a4 04       		.uleb128 0x4
 14568 03a5 A3       		.byte	0xa3
 14569 03a6 01       		.uleb128 0x1
 14570 03a7 50       		.byte	0x50
 14571 03a8 9F       		.byte	0x9f
 14572 03a9 04       		.byte	0x4
 14573 03aa 9407     		.uleb128 .LVL224-.LVL162
 14574 03ac A007     		.uleb128 .LFE449-.LVL162
 14575 03ae 01       		.uleb128 0x1
 14576 03af 54       		.byte	0x54
 14577 03b0 00       		.byte	0
 14578              	.LVUS96:
 14579 03b1 00       		.uleb128 .LVU1032
 14580 03b2 00       		.uleb128 .LVU1040
 14581 03b3 03       		.uleb128 .LVU1086
 14582 03b4 00       		.uleb128 .LVU1093
 14583 03b5 00       		.uleb128 .LVU1106
 14584 03b6 00       		.uleb128 .LVU1109
 14585 03b7 00       		.uleb128 .LVU1120
 14586 03b8 00       		.uleb128 .LVU1123
 14587 03b9 00       		.uleb128 .LVU1148
 14588 03ba 00       		.uleb128 .LVU1149
 14589              	.LLST96:
 14590 03bb 06       		.byte	0x6
 14591 03bc 1E000000 		.4byte	.LVL164
 14592 03c0 04       		.byte	0x4
 14593 03c1 00       		.uleb128 .LVL164-.LVL164
 14594 03c2 0C       		.uleb128 .LVL165-.LVL164
 14595 03c3 01       		.uleb128 0x1
 14596 03c4 53       		.byte	0x53
 14597 03c5 04       		.byte	0x4
 14598 03c6 7C       		.uleb128 .LVL169-.LVL164
 14599 03c7 8401     		.uleb128 .LVL170-.LVL164
 14600 03c9 01       		.uleb128 0x1
 14601 03ca 53       		.byte	0x53
 14602 03cb 04       		.byte	0x4
 14603 03cc A401     		.uleb128 .LVL171-.LVL164
 14604 03ce A801     		.uleb128 .LVL172-.LVL164
 14605 03d0 01       		.uleb128 0x1
 14606 03d1 53       		.byte	0x53
 14607 03d2 04       		.byte	0x4
 14608 03d3 C601     		.uleb128 .LVL173-.LVL164
 14609 03d5 CA01     		.uleb128 .LVL174-.LVL164
 14610 03d7 01       		.uleb128 0x1
 14611 03d8 53       		.byte	0x53
 14612 03d9 04       		.byte	0x4
 14613 03da 8602     		.uleb128 .LVL175-.LVL164
 14614 03dc 8802     		.uleb128 .LVL176-.LVL164
 14615 03de 01       		.uleb128 0x1
 14616 03df 53       		.byte	0x53
 14617 03e0 00       		.byte	0
ARM GAS  C:\Users\DEVELO~1\AppData\Local\Temp\cc2saCCQ.s 			page 258


 14618              	.LVUS97:
 14619 03e1 00       		.uleb128 .LVU1162
 14620 03e2 00       		.uleb128 .LVU1186
 14621 03e3 00       		.uleb128 .LVU1200
 14622 03e4 00       		.uleb128 .LVU1224
 14623 03e5 00       		.uleb128 .LVU1238
 14624 03e6 00       		.uleb128 .LVU1262
 14625 03e7 00       		.uleb128 .LVU1276
 14626 03e8 00       		.uleb128 .LVU1300
 14627 03e9 00       		.uleb128 .LVU1314
 14628 03ea 00       		.uleb128 .LVU1338
 14629 03eb 01       		.uleb128 .LVU1341
 14630 03ec 00       		.uleb128 .LVU1346
 14631 03ed 01       		.uleb128 .LVU1348
 14632 03ee 00       		.uleb128 0
 14633              	.LLST97:
 14634 03ef 06       		.byte	0x6
 14635 03f0 4E010000 		.4byte	.LVL180
 14636 03f4 04       		.byte	0x4
 14637 03f5 00       		.uleb128 .LVL180-.LVL180
 14638 03f6 4C       		.uleb128 .LVL185-.LVL180
 14639 03f7 02       		.uleb128 0x2
 14640 03f8 30       		.byte	0x30
 14641 03f9 9F       		.byte	0x9f
 14642 03fa 04       		.byte	0x4
 14643 03fb 74       		.uleb128 .LVL189-.LVL180
 14644 03fc C001     		.uleb128 .LVL194-.LVL180
 14645 03fe 02       		.uleb128 0x2
 14646 03ff 30       		.byte	0x30
 14647 0400 9F       		.byte	0x9f
 14648 0401 04       		.byte	0x4
 14649 0402 E801     		.uleb128 .LVL198-.LVL180
 14650 0404 B402     		.uleb128 .LVL203-.LVL180
 14651 0406 02       		.uleb128 0x2
 14652 0407 30       		.byte	0x30
 14653 0408 9F       		.byte	0x9f
 14654 0409 04       		.byte	0x4
 14655 040a D802     		.uleb128 .LVL207-.LVL180
 14656 040c A403     		.uleb128 .LVL212-.LVL180
 14657 040e 02       		.uleb128 0x2
 14658 040f 30       		.byte	0x30
 14659 0410 9F       		.byte	0x9f
 14660 0411 04       		.byte	0x4
 14661 0412 C603     		.uleb128 .LVL216-.LVL180
 14662 0414 9204     		.uleb128 .LVL221-.LVL180
 14663 0416 02       		.uleb128 0x2
 14664 0417 30       		.byte	0x30
 14665 0418 9F       		.byte	0x9f
 14666 0419 04       		.byte	0x4
 14667 041a 9804     		.uleb128 .LVL222-.LVL180
 14668 041c C604     		.uleb128 .LVL224-.LVL180
 14669 041e 03       		.uleb128 0x3
 14670 041f 09       		.byte	0x9
 14671 0420 EF       		.byte	0xef
 14672 0421 9F       		.byte	0x9f
 14673 0422 04       		.byte	0x4
 14674 0423 CC04     		.uleb128 .LVL225-.LVL180
ARM GAS  C:\Users\DEVELO~1\AppData\Local\Temp\cc2saCCQ.s 			page 259


 14675 0425 D204     		.uleb128 .LFE449-.LVL180
 14676 0427 03       		.uleb128 0x3
 14677 0428 09       		.byte	0x9
 14678 0429 EF       		.byte	0xef
 14679 042a 9F       		.byte	0x9f
 14680 042b 00       		.byte	0
 14681              	.LVUS98:
 14682 042c 02       		.uleb128 .LVU1151
 14683 042d 00       		.uleb128 .LVU1162
 14684              	.LLST98:
 14685 042e 08       		.byte	0x8
 14686 042f 26010000 		.4byte	.LVL176
 14687 0433 28       		.uleb128 .LVL180-.LVL176
 14688 0434 02       		.uleb128 0x2
 14689 0435 40       		.byte	0x40
 14690 0436 9F       		.byte	0x9f
 14691 0437 00       		.byte	0
 14692              	.LVUS100:
 14693 0438 02       		.uleb128 .LVU1151
 14694 0439 00       		.uleb128 .LVU1162
 14695              	.LLST100:
 14696 043a 08       		.byte	0x8
 14697 043b 26010000 		.4byte	.LVL176
 14698 043f 28       		.uleb128 .LVL180-.LVL176
 14699 0440 02       		.uleb128 0x2
 14700 0441 3A       		.byte	0x3a
 14701 0442 9F       		.byte	0x9f
 14702 0443 00       		.byte	0
 14703              	.LVUS101:
 14704 0444 01       		.uleb128 .LVU1150
 14705 0445 00       		.uleb128 .LVU1162
 14706              	.LLST101:
 14707 0446 08       		.byte	0x8
 14708 0447 26010000 		.4byte	.LVL176
 14709 044b 28       		.uleb128 .LVL180-.LVL176
 14710 044c 06       		.uleb128 0x6
 14711 044d 03       		.byte	0x3
 14712 044e 00000000 		.4byte	SPID1
 14713 0452 9F       		.byte	0x9f
 14714 0453 00       		.byte	0
 14715              	.LVUS102:
 14716 0454 01       		.uleb128 .LVU1167
 14717 0455 00       		.uleb128 .LVU1174
 14718              	.LLST102:
 14719 0456 08       		.byte	0x8
 14720 0457 5E010000 		.4byte	.LVL182
 14721 045b 1E       		.uleb128 .LVL183-.LVL182
 14722 045c 02       		.uleb128 0x2
 14723 045d 31       		.byte	0x31
 14724 045e 9F       		.byte	0x9f
 14725 045f 00       		.byte	0
 14726              	.LVUS103:
 14727 0460 01       		.uleb128 .LVU1167
 14728 0461 00       		.uleb128 .LVU1174
 14729              	.LLST103:
 14730 0462 08       		.byte	0x8
 14731 0463 5E010000 		.4byte	.LVL182
ARM GAS  C:\Users\DEVELO~1\AppData\Local\Temp\cc2saCCQ.s 			page 260


 14732 0467 1E       		.uleb128 .LVL183-.LVL182
 14733 0468 04       		.uleb128 0x4
 14734 0469 0A       		.byte	0xa
 14735 046a 0010     		.2byte	0x1000
 14736 046c 9F       		.byte	0x9f
 14737 046d 00       		.byte	0
 14738              	.LVUS104:
 14739 046e 02       		.uleb128 .LVU1176
 14740 046f 00       		.uleb128 .LVU1186
 14741              	.LLST104:
 14742 0470 08       		.byte	0x8
 14743 0471 7C010000 		.4byte	.LVL183
 14744 0475 1E       		.uleb128 .LVL185-.LVL183
 14745 0476 04       		.uleb128 0x4
 14746 0477 0A       		.byte	0xa
 14747 0478 0010     		.2byte	0x1000
 14748 047a 9F       		.byte	0x9f
 14749 047b 00       		.byte	0
 14750              	.LVUS105:
 14751 047c 04       		.uleb128 .LVU1178
 14752 047d 00       		.uleb128 .LVU1184
 14753              	.LLST105:
 14754 047e 08       		.byte	0x8
 14755 047f 7C010000 		.4byte	.LVL183
 14756 0483 1C       		.uleb128 .LVL184-.LVL183
 14757 0484 04       		.uleb128 0x4
 14758 0485 0A       		.byte	0xa
 14759 0486 0010     		.2byte	0x1000
 14760 0488 9F       		.byte	0x9f
 14761 0489 00       		.byte	0
 14762              	.LVUS106:
 14763 048a 03       		.uleb128 .LVU1189
 14764 048b 00       		.uleb128 .LVU1200
 14765              	.LLST106:
 14766 048c 08       		.byte	0x8
 14767 048d 9A010000 		.4byte	.LVL185
 14768 0491 28       		.uleb128 .LVL189-.LVL185
 14769 0492 02       		.uleb128 0x2
 14770 0493 40       		.byte	0x40
 14771 0494 9F       		.byte	0x9f
 14772 0495 00       		.byte	0
 14773              	.LVUS108:
 14774 0496 03       		.uleb128 .LVU1189
 14775 0497 00       		.uleb128 .LVU1200
 14776              	.LLST108:
 14777 0498 08       		.byte	0x8
 14778 0499 9A010000 		.4byte	.LVL185
 14779 049d 28       		.uleb128 .LVL189-.LVL185
 14780 049e 02       		.uleb128 0x2
 14781 049f 3A       		.byte	0x3a
 14782 04a0 9F       		.byte	0x9f
 14783 04a1 00       		.byte	0
 14784              	.LVUS109:
 14785 04a2 02       		.uleb128 .LVU1188
 14786 04a3 00       		.uleb128 .LVU1200
 14787              	.LLST109:
 14788 04a4 08       		.byte	0x8
ARM GAS  C:\Users\DEVELO~1\AppData\Local\Temp\cc2saCCQ.s 			page 261


 14789 04a5 9A010000 		.4byte	.LVL185
 14790 04a9 28       		.uleb128 .LVL189-.LVL185
 14791 04aa 06       		.uleb128 0x6
 14792 04ab 03       		.byte	0x3
 14793 04ac 00000000 		.4byte	SPID3
 14794 04b0 9F       		.byte	0x9f
 14795 04b1 00       		.byte	0
 14796              	.LVUS110:
 14797 04b2 01       		.uleb128 .LVU1205
 14798 04b3 00       		.uleb128 .LVU1212
 14799              	.LLST110:
 14800 04b4 08       		.byte	0x8
 14801 04b5 D2010000 		.4byte	.LVL191
 14802 04b9 1E       		.uleb128 .LVL192-.LVL191
 14803 04ba 02       		.uleb128 0x2
 14804 04bb 31       		.byte	0x31
 14805 04bc 9F       		.byte	0x9f
 14806 04bd 00       		.byte	0
 14807              	.LVUS111:
 14808 04be 01       		.uleb128 .LVU1205
 14809 04bf 00       		.uleb128 .LVU1212
 14810              	.LLST111:
 14811 04c0 08       		.byte	0x8
 14812 04c1 D2010000 		.4byte	.LVL191
 14813 04c5 1E       		.uleb128 .LVL192-.LVL191
 14814 04c6 04       		.uleb128 0x4
 14815 04c7 0A       		.byte	0xa
 14816 04c8 0080     		.2byte	0x8000
 14817 04ca 9F       		.byte	0x9f
 14818 04cb 00       		.byte	0
 14819              	.LVUS112:
 14820 04cc 02       		.uleb128 .LVU1214
 14821 04cd 00       		.uleb128 .LVU1224
 14822              	.LLST112:
 14823 04ce 08       		.byte	0x8
 14824 04cf F0010000 		.4byte	.LVL192
 14825 04d3 1E       		.uleb128 .LVL194-.LVL192
 14826 04d4 04       		.uleb128 0x4
 14827 04d5 0A       		.byte	0xa
 14828 04d6 0080     		.2byte	0x8000
 14829 04d8 9F       		.byte	0x9f
 14830 04d9 00       		.byte	0
 14831              	.LVUS113:
 14832 04da 04       		.uleb128 .LVU1216
 14833 04db 00       		.uleb128 .LVU1222
 14834              	.LLST113:
 14835 04dc 08       		.byte	0x8
 14836 04dd F0010000 		.4byte	.LVL192
 14837 04e1 1C       		.uleb128 .LVL193-.LVL192
 14838 04e2 04       		.uleb128 0x4
 14839 04e3 0A       		.byte	0xa
 14840 04e4 0080     		.2byte	0x8000
 14841 04e6 9F       		.byte	0x9f
 14842 04e7 00       		.byte	0
 14843              	.LVUS114:
 14844 04e8 03       		.uleb128 .LVU1227
 14845 04e9 00       		.uleb128 .LVU1238
ARM GAS  C:\Users\DEVELO~1\AppData\Local\Temp\cc2saCCQ.s 			page 262


 14846              	.LLST114:
 14847 04ea 08       		.byte	0x8
 14848 04eb 0E020000 		.4byte	.LVL194
 14849 04ef 28       		.uleb128 .LVL198-.LVL194
 14850 04f0 02       		.uleb128 0x2
 14851 04f1 40       		.byte	0x40
 14852 04f2 9F       		.byte	0x9f
 14853 04f3 00       		.byte	0
 14854              	.LVUS116:
 14855 04f4 03       		.uleb128 .LVU1227
 14856 04f5 00       		.uleb128 .LVU1238
 14857              	.LLST116:
 14858 04f6 08       		.byte	0x8
 14859 04f7 0E020000 		.4byte	.LVL194
 14860 04fb 28       		.uleb128 .LVL198-.LVL194
 14861 04fc 02       		.uleb128 0x2
 14862 04fd 3A       		.byte	0x3a
 14863 04fe 9F       		.byte	0x9f
 14864 04ff 00       		.byte	0
 14865              	.LVUS117:
 14866 0500 02       		.uleb128 .LVU1226
 14867 0501 00       		.uleb128 .LVU1238
 14868              	.LLST117:
 14869 0502 08       		.byte	0x8
 14870 0503 0E020000 		.4byte	.LVL194
 14871 0507 28       		.uleb128 .LVL198-.LVL194
 14872 0508 06       		.uleb128 0x6
 14873 0509 03       		.byte	0x3
 14874 050a 00000000 		.4byte	SPID2
 14875 050e 9F       		.byte	0x9f
 14876 050f 00       		.byte	0
 14877              	.LVUS118:
 14878 0510 01       		.uleb128 .LVU1243
 14879 0511 00       		.uleb128 .LVU1250
 14880              	.LLST118:
 14881 0512 08       		.byte	0x8
 14882 0513 46020000 		.4byte	.LVL200
 14883 0517 1E       		.uleb128 .LVL201-.LVL200
 14884 0518 02       		.uleb128 0x2
 14885 0519 31       		.byte	0x31
 14886 051a 9F       		.byte	0x9f
 14887 051b 00       		.byte	0
 14888              	.LVUS119:
 14889 051c 01       		.uleb128 .LVU1243
 14890 051d 00       		.uleb128 .LVU1250
 14891              	.LLST119:
 14892 051e 08       		.byte	0x8
 14893 051f 46020000 		.4byte	.LVL200
 14894 0523 1E       		.uleb128 .LVL201-.LVL200
 14895 0524 04       		.uleb128 0x4
 14896 0525 0A       		.byte	0xa
 14897 0526 0040     		.2byte	0x4000
 14898 0528 9F       		.byte	0x9f
 14899 0529 00       		.byte	0
 14900              	.LVUS120:
 14901 052a 02       		.uleb128 .LVU1252
 14902 052b 00       		.uleb128 .LVU1262
ARM GAS  C:\Users\DEVELO~1\AppData\Local\Temp\cc2saCCQ.s 			page 263


 14903              	.LLST120:
 14904 052c 08       		.byte	0x8
 14905 052d 64020000 		.4byte	.LVL201
 14906 0531 1E       		.uleb128 .LVL203-.LVL201
 14907 0532 04       		.uleb128 0x4
 14908 0533 0A       		.byte	0xa
 14909 0534 0040     		.2byte	0x4000
 14910 0536 9F       		.byte	0x9f
 14911 0537 00       		.byte	0
 14912              	.LVUS121:
 14913 0538 04       		.uleb128 .LVU1254
 14914 0539 00       		.uleb128 .LVU1260
 14915              	.LLST121:
 14916 053a 08       		.byte	0x8
 14917 053b 64020000 		.4byte	.LVL201
 14918 053f 1C       		.uleb128 .LVL202-.LVL201
 14919 0540 04       		.uleb128 0x4
 14920 0541 0A       		.byte	0xa
 14921 0542 0040     		.2byte	0x4000
 14922 0544 9F       		.byte	0x9f
 14923 0545 00       		.byte	0
 14924              	.LVUS123:
 14925 0546 03       		.uleb128 .LVU1265
 14926 0547 00       		.uleb128 .LVU1276
 14927              	.LLST123:
 14928 0548 08       		.byte	0x8
 14929 0549 82020000 		.4byte	.LVL203
 14930 054d 24       		.uleb128 .LVL207-.LVL203
 14931 054e 02       		.uleb128 0x2
 14932 054f 40       		.byte	0x40
 14933 0550 9F       		.byte	0x9f
 14934 0551 00       		.byte	0
 14935              	.LVUS125:
 14936 0552 03       		.uleb128 .LVU1265
 14937 0553 00       		.uleb128 .LVU1276
 14938              	.LLST125:
 14939 0554 08       		.byte	0x8
 14940 0555 82020000 		.4byte	.LVL203
 14941 0559 24       		.uleb128 .LVL207-.LVL203
 14942 055a 02       		.uleb128 0x2
 14943 055b 3A       		.byte	0x3a
 14944 055c 9F       		.byte	0x9f
 14945 055d 00       		.byte	0
 14946              	.LVUS126:
 14947 055e 02       		.uleb128 .LVU1264
 14948 055f 00       		.uleb128 .LVU1276
 14949              	.LLST126:
 14950 0560 08       		.byte	0x8
 14951 0561 82020000 		.4byte	.LVL203
 14952 0565 24       		.uleb128 .LVL207-.LVL203
 14953 0566 06       		.uleb128 0x6
 14954 0567 03       		.byte	0x3
 14955 0568 00000000 		.4byte	SPID5
 14956 056c 9F       		.byte	0x9f
 14957 056d 00       		.byte	0
 14958              	.LVUS127:
 14959 056e 01       		.uleb128 .LVU1281
ARM GAS  C:\Users\DEVELO~1\AppData\Local\Temp\cc2saCCQ.s 			page 264


 14960 056f 00       		.uleb128 .LVU1288
 14961              	.LLST127:
 14962 0570 08       		.byte	0x8
 14963 0571 B6020000 		.4byte	.LVL209
 14964 0575 1E       		.uleb128 .LVL210-.LVL209
 14965 0576 02       		.uleb128 0x2
 14966 0577 31       		.byte	0x31
 14967 0578 9F       		.byte	0x9f
 14968 0579 00       		.byte	0
 14969              	.LVUS128:
 14970 057a 01       		.uleb128 .LVU1281
 14971 057b 00       		.uleb128 .LVU1288
 14972              	.LLST128:
 14973 057c 08       		.byte	0x8
 14974 057d B6020000 		.4byte	.LVL209
 14975 0581 1E       		.uleb128 .LVL210-.LVL209
 14976 0582 04       		.uleb128 0x4
 14977 0583 40       		.byte	0x40
 14978 0584 40       		.byte	0x40
 14979 0585 24       		.byte	0x24
 14980 0586 9F       		.byte	0x9f
 14981 0587 00       		.byte	0
 14982              	.LVUS129:
 14983 0588 02       		.uleb128 .LVU1290
 14984 0589 00       		.uleb128 .LVU1300
 14985              	.LLST129:
 14986 058a 08       		.byte	0x8
 14987 058b D4020000 		.4byte	.LVL210
 14988 058f 1E       		.uleb128 .LVL212-.LVL210
 14989 0590 04       		.uleb128 0x4
 14990 0591 40       		.byte	0x40
 14991 0592 40       		.byte	0x40
 14992 0593 24       		.byte	0x24
 14993 0594 9F       		.byte	0x9f
 14994 0595 00       		.byte	0
 14995              	.LVUS130:
 14996 0596 04       		.uleb128 .LVU1292
 14997 0597 00       		.uleb128 .LVU1298
 14998              	.LLST130:
 14999 0598 08       		.byte	0x8
 15000 0599 D4020000 		.4byte	.LVL210
 15001 059d 1C       		.uleb128 .LVL211-.LVL210
 15002 059e 04       		.uleb128 0x4
 15003 059f 40       		.byte	0x40
 15004 05a0 40       		.byte	0x40
 15005 05a1 24       		.byte	0x24
 15006 05a2 9F       		.byte	0x9f
 15007 05a3 00       		.byte	0
 15008              	.LVUS132:
 15009 05a4 03       		.uleb128 .LVU1303
 15010 05a5 00       		.uleb128 .LVU1314
 15011 05a6 00       		.uleb128 .LVU1346
 15012 05a7 01       		.uleb128 .LVU1348
 15013              	.LLST132:
 15014 05a8 06       		.byte	0x6
 15015 05a9 F2020000 		.4byte	.LVL212
 15016 05ad 04       		.byte	0x4
ARM GAS  C:\Users\DEVELO~1\AppData\Local\Temp\cc2saCCQ.s 			page 265


 15017 05ae 00       		.uleb128 .LVL212-.LVL212
 15018 05af 22       		.uleb128 .LVL216-.LVL212
 15019 05b0 06       		.uleb128 0x6
 15020 05b1 03       		.byte	0x3
 15021 05b2 00000000 		.4byte	SPID6
 15022 05b6 9F       		.byte	0x9f
 15023 05b7 04       		.byte	0x4
 15024 05b8 A201     		.uleb128 .LVL224-.LVL212
 15025 05ba A801     		.uleb128 .LVL225-.LVL212
 15026 05bc 06       		.uleb128 0x6
 15027 05bd 03       		.byte	0x3
 15028 05be 00000000 		.4byte	SPID6
 15029 05c2 9F       		.byte	0x9f
 15030 05c3 00       		.byte	0
 15031              	.LVUS133:
 15032 05c4 03       		.uleb128 .LVU1303
 15033 05c5 00       		.uleb128 .LVU1314
 15034 05c6 00       		.uleb128 .LVU1346
 15035 05c7 01       		.uleb128 .LVU1348
 15036              	.LLST133:
 15037 05c8 06       		.byte	0x6
 15038 05c9 F2020000 		.4byte	.LVL212
 15039 05cd 04       		.byte	0x4
 15040 05ce 00       		.uleb128 .LVL212-.LVL212
 15041 05cf 22       		.uleb128 .LVL216-.LVL212
 15042 05d0 02       		.uleb128 0x2
 15043 05d1 38       		.byte	0x38
 15044 05d2 9F       		.byte	0x9f
 15045 05d3 04       		.byte	0x4
 15046 05d4 A201     		.uleb128 .LVL224-.LVL212
 15047 05d6 A801     		.uleb128 .LVL225-.LVL212
 15048 05d8 02       		.uleb128 0x2
 15049 05d9 38       		.byte	0x38
 15050 05da 9F       		.byte	0x9f
 15051 05db 00       		.byte	0
 15052              	.LVUS135:
 15053 05dc 03       		.uleb128 .LVU1303
 15054 05dd 00       		.uleb128 .LVU1314
 15055 05de 00       		.uleb128 .LVU1346
 15056 05df 01       		.uleb128 .LVU1348
 15057              	.LLST135:
 15058 05e0 06       		.byte	0x6
 15059 05e1 F2020000 		.4byte	.LVL212
 15060 05e5 04       		.byte	0x4
 15061 05e6 00       		.uleb128 .LVL212-.LVL212
 15062 05e7 22       		.uleb128 .LVL216-.LVL212
 15063 05e8 02       		.uleb128 0x2
 15064 05e9 3A       		.byte	0x3a
 15065 05ea 9F       		.byte	0x9f
 15066 05eb 04       		.byte	0x4
 15067 05ec A201     		.uleb128 .LVL224-.LVL212
 15068 05ee A801     		.uleb128 .LVL225-.LVL212
 15069 05f0 02       		.uleb128 0x2
 15070 05f1 3A       		.byte	0x3a
 15071 05f2 9F       		.byte	0x9f
 15072 05f3 00       		.byte	0
 15073              	.LVUS136:
ARM GAS  C:\Users\DEVELO~1\AppData\Local\Temp\cc2saCCQ.s 			page 266


 15074 05f4 01       		.uleb128 .LVU1319
 15075 05f5 00       		.uleb128 .LVU1326
 15076              	.LLST136:
 15077 05f6 08       		.byte	0x8
 15078 05f7 24030000 		.4byte	.LVL218
 15079 05fb 1E       		.uleb128 .LVL219-.LVL218
 15080 05fc 02       		.uleb128 0x2
 15081 05fd 31       		.byte	0x31
 15082 05fe 9F       		.byte	0x9f
 15083 05ff 00       		.byte	0
 15084              	.LVUS137:
 15085 0600 01       		.uleb128 .LVU1319
 15086 0601 00       		.uleb128 .LVU1326
 15087              	.LLST137:
 15088 0602 08       		.byte	0x8
 15089 0603 24030000 		.4byte	.LVL218
 15090 0607 1E       		.uleb128 .LVL219-.LVL218
 15091 0608 03       		.uleb128 0x3
 15092 0609 08       		.byte	0x8
 15093 060a 20       		.byte	0x20
 15094 060b 9F       		.byte	0x9f
 15095 060c 00       		.byte	0
 15096              	.LVUS138:
 15097 060d 02       		.uleb128 .LVU1328
 15098 060e 00       		.uleb128 .LVU1338
 15099              	.LLST138:
 15100 060f 08       		.byte	0x8
 15101 0610 42030000 		.4byte	.LVL219
 15102 0614 1E       		.uleb128 .LVL221-.LVL219
 15103 0615 03       		.uleb128 0x3
 15104 0616 08       		.byte	0x8
 15105 0617 20       		.byte	0x20
 15106 0618 9F       		.byte	0x9f
 15107 0619 00       		.byte	0
 15108              	.LVUS139:
 15109 061a 04       		.uleb128 .LVU1330
 15110 061b 00       		.uleb128 .LVU1336
 15111              	.LLST139:
 15112 061c 08       		.byte	0x8
 15113 061d 42030000 		.4byte	.LVL219
 15114 0621 1C       		.uleb128 .LVL220-.LVL219
 15115 0622 03       		.uleb128 0x3
 15116 0623 08       		.byte	0x8
 15117 0624 20       		.byte	0x20
 15118 0625 9F       		.byte	0x9f
 15119 0626 00       		.byte	0
 15120              	.LVUS88:
 15121 0627 02       		.uleb128 .LVU851
 15122 0628 02       		.uleb128 .LVU865
 15123 0629 00       		.uleb128 .LVU873
 15124 062a 06       		.uleb128 .LVU914
 15125              	.LLST88:
 15126 062b 06       		.byte	0x6
 15127 062c 0A000000 		.4byte	.LVL139
 15128 0630 04       		.byte	0x4
 15129 0631 00       		.uleb128 .LVL139-.LVL139
 15130 0632 0E       		.uleb128 .LVL142-.LVL139
ARM GAS  C:\Users\DEVELO~1\AppData\Local\Temp\cc2saCCQ.s 			page 267


 15131 0633 06       		.uleb128 0x6
 15132 0634 03       		.byte	0x3
 15133 0635 00000000 		.4byte	SPID6
 15134 0639 9F       		.byte	0x9f
 15135 063a 04       		.byte	0x4
 15136 063b 1C       		.uleb128 .LVL144-.LVL139
 15137 063c 40       		.uleb128 .LVL149-.LVL139
 15138 063d 06       		.uleb128 0x6
 15139 063e 03       		.byte	0x3
 15140 063f 00000000 		.4byte	SPID6
 15141 0643 9F       		.byte	0x9f
 15142 0644 00       		.byte	0
 15143              	.LVUS89:
 15144 0645 00       		.uleb128 .LVU858
 15145 0646 00       		.uleb128 .LVU862
 15146 0647 00       		.uleb128 .LVU862
 15147 0648 02       		.uleb128 .LVU865
 15148 0649 00       		.uleb128 .LVU873
 15149 064a 00       		.uleb128 .LVU875
 15150              	.LLST89:
 15151 064b 06       		.byte	0x6
 15152 064c 12000000 		.4byte	.LVL140
 15153 0650 04       		.byte	0x4
 15154 0651 00       		.uleb128 .LVL140-.LVL140
 15155 0652 04       		.uleb128 .LVL141-.LVL140
 15156 0653 01       		.uleb128 0x1
 15157 0654 53       		.byte	0x53
 15158 0655 04       		.byte	0x4
 15159 0656 04       		.uleb128 .LVL141-.LVL140
 15160 0657 06       		.uleb128 .LVL142-.LVL140
 15161 0658 02       		.uleb128 0x2
 15162 0659 72       		.byte	0x72
 15163 065a 18       		.sleb128 24
 15164 065b 04       		.byte	0x4
 15165 065c 14       		.uleb128 .LVL144-.LVL140
 15166 065d 19       		.uleb128 .LVL145-1-.LVL140
 15167 065e 02       		.uleb128 0x2
 15168 065f 72       		.byte	0x72
 15169 0660 18       		.sleb128 24
 15170 0661 00       		.byte	0
 15171              	.LVUS90:
 15172 0662 00       		.uleb128 .LVU873
 15173 0663 03       		.uleb128 .LVU911
 15174              	.LLST90:
 15175 0664 08       		.byte	0x8
 15176 0665 26000000 		.4byte	.LVL144
 15177 0669 24       		.uleb128 .LVL149-.LVL144
 15178 066a 06       		.uleb128 0x6
 15179 066b 03       		.byte	0x3
 15180 066c 00000000 		.4byte	SPID6
 15181 0670 9F       		.byte	0x9f
 15182 0671 00       		.byte	0
 15183              	.LVUS91:
 15184 0672 09       		.uleb128 .LVU886
 15185 0673 00       		.uleb128 .LVU888
 15186              	.LLST91:
 15187 0674 08       		.byte	0x8
ARM GAS  C:\Users\DEVELO~1\AppData\Local\Temp\cc2saCCQ.s 			page 268


 15188 0675 36000000 		.4byte	.LVL146
 15189 0679 06       		.uleb128 .LVL147-.LVL146
 15190 067a 03       		.uleb128 0x3
 15191 067b 08       		.byte	0x8
 15192 067c 30       		.byte	0x30
 15193 067d 9F       		.byte	0x9f
 15194 067e 00       		.byte	0
 15195              	.LVUS92:
 15196 067f 04       		.uleb128 .LVU892
 15197 0680 00       		.uleb128 .LVU894
 15198              	.LLST92:
 15199 0681 08       		.byte	0x8
 15200 0682 3C000000 		.4byte	.LVL147
 15201 0686 08       		.uleb128 .LVL148-.LVL147
 15202 0687 02       		.uleb128 0x2
 15203 0688 30       		.byte	0x30
 15204 0689 9F       		.byte	0x9f
 15205 068a 00       		.byte	0
 15206              	.LVUS93:
 15207 068b 04       		.uleb128 .LVU892
 15208 068c 00       		.uleb128 .LVU894
 15209              	.LLST93:
 15210 068d 08       		.byte	0x8
 15211 068e 3C000000 		.4byte	.LVL147
 15212 0692 08       		.uleb128 .LVL148-.LVL147
 15213 0693 06       		.uleb128 0x6
 15214 0694 03       		.byte	0x3
 15215 0695 08000000 		.4byte	SPID6+8
 15216 0699 9F       		.byte	0x9f
 15217 069a 00       		.byte	0
 15218              	.LVUS94:
 15219 069b 0C       		.uleb128 .LVU906
 15220 069c 00       		.uleb128 .LVU908
 15221              	.LLST94:
 15222 069d 08       		.byte	0x8
 15223 069e 44000000 		.4byte	.LVL148
 15224 06a2 06       		.uleb128 .LVL149-.LVL148
 15225 06a3 02       		.uleb128 0x2
 15226 06a4 30       		.byte	0x30
 15227 06a5 9F       		.byte	0x9f
 15228 06a6 00       		.byte	0
 15229              	.LVUS80:
 15230 06a7 02       		.uleb128 .LVU769
 15231 06a8 02       		.uleb128 .LVU783
 15232 06a9 00       		.uleb128 .LVU791
 15233 06aa 06       		.uleb128 .LVU832
 15234              	.LLST80:
 15235 06ab 06       		.byte	0x6
 15236 06ac 0A000000 		.4byte	.LVL126
 15237 06b0 04       		.byte	0x4
 15238 06b1 00       		.uleb128 .LVL126-.LVL126
 15239 06b2 0E       		.uleb128 .LVL129-.LVL126
 15240 06b3 06       		.uleb128 0x6
 15241 06b4 03       		.byte	0x3
 15242 06b5 00000000 		.4byte	SPID5
 15243 06b9 9F       		.byte	0x9f
 15244 06ba 04       		.byte	0x4
ARM GAS  C:\Users\DEVELO~1\AppData\Local\Temp\cc2saCCQ.s 			page 269


 15245 06bb 1C       		.uleb128 .LVL131-.LVL126
 15246 06bc 40       		.uleb128 .LVL136-.LVL126
 15247 06bd 06       		.uleb128 0x6
 15248 06be 03       		.byte	0x3
 15249 06bf 00000000 		.4byte	SPID5
 15250 06c3 9F       		.byte	0x9f
 15251 06c4 00       		.byte	0
 15252              	.LVUS81:
 15253 06c5 00       		.uleb128 .LVU776
 15254 06c6 00       		.uleb128 .LVU780
 15255 06c7 00       		.uleb128 .LVU780
 15256 06c8 02       		.uleb128 .LVU783
 15257 06c9 00       		.uleb128 .LVU791
 15258 06ca 00       		.uleb128 .LVU793
 15259              	.LLST81:
 15260 06cb 06       		.byte	0x6
 15261 06cc 12000000 		.4byte	.LVL127
 15262 06d0 04       		.byte	0x4
 15263 06d1 00       		.uleb128 .LVL127-.LVL127
 15264 06d2 04       		.uleb128 .LVL128-.LVL127
 15265 06d3 01       		.uleb128 0x1
 15266 06d4 53       		.byte	0x53
 15267 06d5 04       		.byte	0x4
 15268 06d6 04       		.uleb128 .LVL128-.LVL127
 15269 06d7 06       		.uleb128 .LVL129-.LVL127
 15270 06d8 02       		.uleb128 0x2
 15271 06d9 72       		.byte	0x72
 15272 06da 18       		.sleb128 24
 15273 06db 04       		.byte	0x4
 15274 06dc 14       		.uleb128 .LVL131-.LVL127
 15275 06dd 19       		.uleb128 .LVL132-1-.LVL127
 15276 06de 02       		.uleb128 0x2
 15277 06df 72       		.byte	0x72
 15278 06e0 18       		.sleb128 24
 15279 06e1 00       		.byte	0
 15280              	.LVUS82:
 15281 06e2 00       		.uleb128 .LVU791
 15282 06e3 03       		.uleb128 .LVU829
 15283              	.LLST82:
 15284 06e4 08       		.byte	0x8
 15285 06e5 26000000 		.4byte	.LVL131
 15286 06e9 24       		.uleb128 .LVL136-.LVL131
 15287 06ea 06       		.uleb128 0x6
 15288 06eb 03       		.byte	0x3
 15289 06ec 00000000 		.4byte	SPID5
 15290 06f0 9F       		.byte	0x9f
 15291 06f1 00       		.byte	0
 15292              	.LVUS83:
 15293 06f2 09       		.uleb128 .LVU804
 15294 06f3 00       		.uleb128 .LVU806
 15295              	.LLST83:
 15296 06f4 08       		.byte	0x8
 15297 06f5 36000000 		.4byte	.LVL133
 15298 06f9 06       		.uleb128 .LVL134-.LVL133
 15299 06fa 03       		.uleb128 0x3
 15300 06fb 08       		.byte	0x8
 15301 06fc 30       		.byte	0x30
ARM GAS  C:\Users\DEVELO~1\AppData\Local\Temp\cc2saCCQ.s 			page 270


 15302 06fd 9F       		.byte	0x9f
 15303 06fe 00       		.byte	0
 15304              	.LVUS84:
 15305 06ff 04       		.uleb128 .LVU810
 15306 0700 00       		.uleb128 .LVU812
 15307              	.LLST84:
 15308 0701 08       		.byte	0x8
 15309 0702 3C000000 		.4byte	.LVL134
 15310 0706 08       		.uleb128 .LVL135-.LVL134
 15311 0707 02       		.uleb128 0x2
 15312 0708 30       		.byte	0x30
 15313 0709 9F       		.byte	0x9f
 15314 070a 00       		.byte	0
 15315              	.LVUS85:
 15316 070b 04       		.uleb128 .LVU810
 15317 070c 00       		.uleb128 .LVU812
 15318              	.LLST85:
 15319 070d 08       		.byte	0x8
 15320 070e 3C000000 		.4byte	.LVL134
 15321 0712 08       		.uleb128 .LVL135-.LVL134
 15322 0713 06       		.uleb128 0x6
 15323 0714 03       		.byte	0x3
 15324 0715 08000000 		.4byte	SPID5+8
 15325 0719 9F       		.byte	0x9f
 15326 071a 00       		.byte	0
 15327              	.LVUS86:
 15328 071b 0C       		.uleb128 .LVU824
 15329 071c 00       		.uleb128 .LVU826
 15330              	.LLST86:
 15331 071d 08       		.byte	0x8
 15332 071e 44000000 		.4byte	.LVL135
 15333 0722 06       		.uleb128 .LVL136-.LVL135
 15334 0723 02       		.uleb128 0x2
 15335 0724 30       		.byte	0x30
 15336 0725 9F       		.byte	0x9f
 15337 0726 00       		.byte	0
 15338              	.LVUS72:
 15339 0727 02       		.uleb128 .LVU687
 15340 0728 02       		.uleb128 .LVU701
 15341 0729 00       		.uleb128 .LVU709
 15342 072a 06       		.uleb128 .LVU750
 15343              	.LLST72:
 15344 072b 06       		.byte	0x6
 15345 072c 0A000000 		.4byte	.LVL113
 15346 0730 04       		.byte	0x4
 15347 0731 00       		.uleb128 .LVL113-.LVL113
 15348 0732 0E       		.uleb128 .LVL116-.LVL113
 15349 0733 06       		.uleb128 0x6
 15350 0734 03       		.byte	0x3
 15351 0735 00000000 		.4byte	SPID3
 15352 0739 9F       		.byte	0x9f
 15353 073a 04       		.byte	0x4
 15354 073b 1C       		.uleb128 .LVL118-.LVL113
 15355 073c 40       		.uleb128 .LVL123-.LVL113
 15356 073d 06       		.uleb128 0x6
 15357 073e 03       		.byte	0x3
 15358 073f 00000000 		.4byte	SPID3
ARM GAS  C:\Users\DEVELO~1\AppData\Local\Temp\cc2saCCQ.s 			page 271


 15359 0743 9F       		.byte	0x9f
 15360 0744 00       		.byte	0
 15361              	.LVUS73:
 15362 0745 00       		.uleb128 .LVU694
 15363 0746 00       		.uleb128 .LVU698
 15364 0747 00       		.uleb128 .LVU698
 15365 0748 02       		.uleb128 .LVU701
 15366 0749 00       		.uleb128 .LVU709
 15367 074a 00       		.uleb128 .LVU711
 15368              	.LLST73:
 15369 074b 06       		.byte	0x6
 15370 074c 12000000 		.4byte	.LVL114
 15371 0750 04       		.byte	0x4
 15372 0751 00       		.uleb128 .LVL114-.LVL114
 15373 0752 04       		.uleb128 .LVL115-.LVL114
 15374 0753 01       		.uleb128 0x1
 15375 0754 53       		.byte	0x53
 15376 0755 04       		.byte	0x4
 15377 0756 04       		.uleb128 .LVL115-.LVL114
 15378 0757 06       		.uleb128 .LVL116-.LVL114
 15379 0758 02       		.uleb128 0x2
 15380 0759 72       		.byte	0x72
 15381 075a 18       		.sleb128 24
 15382 075b 04       		.byte	0x4
 15383 075c 14       		.uleb128 .LVL118-.LVL114
 15384 075d 19       		.uleb128 .LVL119-1-.LVL114
 15385 075e 02       		.uleb128 0x2
 15386 075f 72       		.byte	0x72
 15387 0760 18       		.sleb128 24
 15388 0761 00       		.byte	0
 15389              	.LVUS74:
 15390 0762 00       		.uleb128 .LVU709
 15391 0763 03       		.uleb128 .LVU747
 15392              	.LLST74:
 15393 0764 08       		.byte	0x8
 15394 0765 26000000 		.4byte	.LVL118
 15395 0769 24       		.uleb128 .LVL123-.LVL118
 15396 076a 06       		.uleb128 0x6
 15397 076b 03       		.byte	0x3
 15398 076c 00000000 		.4byte	SPID3
 15399 0770 9F       		.byte	0x9f
 15400 0771 00       		.byte	0
 15401              	.LVUS75:
 15402 0772 09       		.uleb128 .LVU722
 15403 0773 00       		.uleb128 .LVU724
 15404              	.LLST75:
 15405 0774 08       		.byte	0x8
 15406 0775 36000000 		.4byte	.LVL120
 15407 0779 06       		.uleb128 .LVL121-.LVL120
 15408 077a 03       		.uleb128 0x3
 15409 077b 08       		.byte	0x8
 15410 077c 30       		.byte	0x30
 15411 077d 9F       		.byte	0x9f
 15412 077e 00       		.byte	0
 15413              	.LVUS76:
 15414 077f 04       		.uleb128 .LVU728
 15415 0780 00       		.uleb128 .LVU730
ARM GAS  C:\Users\DEVELO~1\AppData\Local\Temp\cc2saCCQ.s 			page 272


 15416              	.LLST76:
 15417 0781 08       		.byte	0x8
 15418 0782 3C000000 		.4byte	.LVL121
 15419 0786 08       		.uleb128 .LVL122-.LVL121
 15420 0787 02       		.uleb128 0x2
 15421 0788 30       		.byte	0x30
 15422 0789 9F       		.byte	0x9f
 15423 078a 00       		.byte	0
 15424              	.LVUS77:
 15425 078b 04       		.uleb128 .LVU728
 15426 078c 00       		.uleb128 .LVU730
 15427              	.LLST77:
 15428 078d 08       		.byte	0x8
 15429 078e 3C000000 		.4byte	.LVL121
 15430 0792 08       		.uleb128 .LVL122-.LVL121
 15431 0793 06       		.uleb128 0x6
 15432 0794 03       		.byte	0x3
 15433 0795 08000000 		.4byte	SPID3+8
 15434 0799 9F       		.byte	0x9f
 15435 079a 00       		.byte	0
 15436              	.LVUS78:
 15437 079b 0C       		.uleb128 .LVU742
 15438 079c 00       		.uleb128 .LVU744
 15439              	.LLST78:
 15440 079d 08       		.byte	0x8
 15441 079e 44000000 		.4byte	.LVL122
 15442 07a2 06       		.uleb128 .LVL123-.LVL122
 15443 07a3 02       		.uleb128 0x2
 15444 07a4 30       		.byte	0x30
 15445 07a5 9F       		.byte	0x9f
 15446 07a6 00       		.byte	0
 15447              	.LVUS64:
 15448 07a7 02       		.uleb128 .LVU605
 15449 07a8 02       		.uleb128 .LVU619
 15450 07a9 00       		.uleb128 .LVU627
 15451 07aa 06       		.uleb128 .LVU668
 15452              	.LLST64:
 15453 07ab 06       		.byte	0x6
 15454 07ac 0A000000 		.4byte	.LVL100
 15455 07b0 04       		.byte	0x4
 15456 07b1 00       		.uleb128 .LVL100-.LVL100
 15457 07b2 0E       		.uleb128 .LVL103-.LVL100
 15458 07b3 06       		.uleb128 0x6
 15459 07b4 03       		.byte	0x3
 15460 07b5 00000000 		.4byte	SPID2
 15461 07b9 9F       		.byte	0x9f
 15462 07ba 04       		.byte	0x4
 15463 07bb 1C       		.uleb128 .LVL105-.LVL100
 15464 07bc 40       		.uleb128 .LVL110-.LVL100
 15465 07bd 06       		.uleb128 0x6
 15466 07be 03       		.byte	0x3
 15467 07bf 00000000 		.4byte	SPID2
 15468 07c3 9F       		.byte	0x9f
 15469 07c4 00       		.byte	0
 15470              	.LVUS65:
 15471 07c5 00       		.uleb128 .LVU612
 15472 07c6 00       		.uleb128 .LVU616
ARM GAS  C:\Users\DEVELO~1\AppData\Local\Temp\cc2saCCQ.s 			page 273


 15473 07c7 00       		.uleb128 .LVU616
 15474 07c8 02       		.uleb128 .LVU619
 15475 07c9 00       		.uleb128 .LVU627
 15476 07ca 00       		.uleb128 .LVU629
 15477              	.LLST65:
 15478 07cb 06       		.byte	0x6
 15479 07cc 12000000 		.4byte	.LVL101
 15480 07d0 04       		.byte	0x4
 15481 07d1 00       		.uleb128 .LVL101-.LVL101
 15482 07d2 04       		.uleb128 .LVL102-.LVL101
 15483 07d3 01       		.uleb128 0x1
 15484 07d4 53       		.byte	0x53
 15485 07d5 04       		.byte	0x4
 15486 07d6 04       		.uleb128 .LVL102-.LVL101
 15487 07d7 06       		.uleb128 .LVL103-.LVL101
 15488 07d8 02       		.uleb128 0x2
 15489 07d9 72       		.byte	0x72
 15490 07da 18       		.sleb128 24
 15491 07db 04       		.byte	0x4
 15492 07dc 14       		.uleb128 .LVL105-.LVL101
 15493 07dd 19       		.uleb128 .LVL106-1-.LVL101
 15494 07de 02       		.uleb128 0x2
 15495 07df 72       		.byte	0x72
 15496 07e0 18       		.sleb128 24
 15497 07e1 00       		.byte	0
 15498              	.LVUS66:
 15499 07e2 00       		.uleb128 .LVU627
 15500 07e3 03       		.uleb128 .LVU665
 15501              	.LLST66:
 15502 07e4 08       		.byte	0x8
 15503 07e5 26000000 		.4byte	.LVL105
 15504 07e9 24       		.uleb128 .LVL110-.LVL105
 15505 07ea 06       		.uleb128 0x6
 15506 07eb 03       		.byte	0x3
 15507 07ec 00000000 		.4byte	SPID2
 15508 07f0 9F       		.byte	0x9f
 15509 07f1 00       		.byte	0
 15510              	.LVUS67:
 15511 07f2 09       		.uleb128 .LVU640
 15512 07f3 00       		.uleb128 .LVU642
 15513              	.LLST67:
 15514 07f4 08       		.byte	0x8
 15515 07f5 36000000 		.4byte	.LVL107
 15516 07f9 06       		.uleb128 .LVL108-.LVL107
 15517 07fa 03       		.uleb128 0x3
 15518 07fb 08       		.byte	0x8
 15519 07fc 30       		.byte	0x30
 15520 07fd 9F       		.byte	0x9f
 15521 07fe 00       		.byte	0
 15522              	.LVUS68:
 15523 07ff 04       		.uleb128 .LVU646
 15524 0800 00       		.uleb128 .LVU648
 15525              	.LLST68:
 15526 0801 08       		.byte	0x8
 15527 0802 3C000000 		.4byte	.LVL108
 15528 0806 08       		.uleb128 .LVL109-.LVL108
 15529 0807 02       		.uleb128 0x2
ARM GAS  C:\Users\DEVELO~1\AppData\Local\Temp\cc2saCCQ.s 			page 274


 15530 0808 30       		.byte	0x30
 15531 0809 9F       		.byte	0x9f
 15532 080a 00       		.byte	0
 15533              	.LVUS69:
 15534 080b 04       		.uleb128 .LVU646
 15535 080c 00       		.uleb128 .LVU648
 15536              	.LLST69:
 15537 080d 08       		.byte	0x8
 15538 080e 3C000000 		.4byte	.LVL108
 15539 0812 08       		.uleb128 .LVL109-.LVL108
 15540 0813 06       		.uleb128 0x6
 15541 0814 03       		.byte	0x3
 15542 0815 08000000 		.4byte	SPID2+8
 15543 0819 9F       		.byte	0x9f
 15544 081a 00       		.byte	0
 15545              	.LVUS70:
 15546 081b 0C       		.uleb128 .LVU660
 15547 081c 00       		.uleb128 .LVU662
 15548              	.LLST70:
 15549 081d 08       		.byte	0x8
 15550 081e 44000000 		.4byte	.LVL109
 15551 0822 06       		.uleb128 .LVL110-.LVL109
 15552 0823 02       		.uleb128 0x2
 15553 0824 30       		.byte	0x30
 15554 0825 9F       		.byte	0x9f
 15555 0826 00       		.byte	0
 15556              	.LVUS56:
 15557 0827 02       		.uleb128 .LVU523
 15558 0828 02       		.uleb128 .LVU537
 15559 0829 00       		.uleb128 .LVU545
 15560 082a 06       		.uleb128 .LVU586
 15561              	.LLST56:
 15562 082b 06       		.byte	0x6
 15563 082c 0A000000 		.4byte	.LVL87
 15564 0830 04       		.byte	0x4
 15565 0831 00       		.uleb128 .LVL87-.LVL87
 15566 0832 0E       		.uleb128 .LVL90-.LVL87
 15567 0833 06       		.uleb128 0x6
 15568 0834 03       		.byte	0x3
 15569 0835 00000000 		.4byte	SPID1
 15570 0839 9F       		.byte	0x9f
 15571 083a 04       		.byte	0x4
 15572 083b 1C       		.uleb128 .LVL92-.LVL87
 15573 083c 40       		.uleb128 .LVL97-.LVL87
 15574 083d 06       		.uleb128 0x6
 15575 083e 03       		.byte	0x3
 15576 083f 00000000 		.4byte	SPID1
 15577 0843 9F       		.byte	0x9f
 15578 0844 00       		.byte	0
 15579              	.LVUS57:
 15580 0845 00       		.uleb128 .LVU530
 15581 0846 00       		.uleb128 .LVU534
 15582 0847 00       		.uleb128 .LVU534
 15583 0848 02       		.uleb128 .LVU537
 15584 0849 00       		.uleb128 .LVU545
 15585 084a 00       		.uleb128 .LVU547
 15586              	.LLST57:
ARM GAS  C:\Users\DEVELO~1\AppData\Local\Temp\cc2saCCQ.s 			page 275


 15587 084b 06       		.byte	0x6
 15588 084c 12000000 		.4byte	.LVL88
 15589 0850 04       		.byte	0x4
 15590 0851 00       		.uleb128 .LVL88-.LVL88
 15591 0852 04       		.uleb128 .LVL89-.LVL88
 15592 0853 01       		.uleb128 0x1
 15593 0854 53       		.byte	0x53
 15594 0855 04       		.byte	0x4
 15595 0856 04       		.uleb128 .LVL89-.LVL88
 15596 0857 06       		.uleb128 .LVL90-.LVL88
 15597 0858 02       		.uleb128 0x2
 15598 0859 72       		.byte	0x72
 15599 085a 18       		.sleb128 24
 15600 085b 04       		.byte	0x4
 15601 085c 14       		.uleb128 .LVL92-.LVL88
 15602 085d 19       		.uleb128 .LVL93-1-.LVL88
 15603 085e 02       		.uleb128 0x2
 15604 085f 72       		.byte	0x72
 15605 0860 18       		.sleb128 24
 15606 0861 00       		.byte	0
 15607              	.LVUS58:
 15608 0862 00       		.uleb128 .LVU545
 15609 0863 03       		.uleb128 .LVU583
 15610              	.LLST58:
 15611 0864 08       		.byte	0x8
 15612 0865 26000000 		.4byte	.LVL92
 15613 0869 24       		.uleb128 .LVL97-.LVL92
 15614 086a 06       		.uleb128 0x6
 15615 086b 03       		.byte	0x3
 15616 086c 00000000 		.4byte	SPID1
 15617 0870 9F       		.byte	0x9f
 15618 0871 00       		.byte	0
 15619              	.LVUS59:
 15620 0872 09       		.uleb128 .LVU558
 15621 0873 00       		.uleb128 .LVU560
 15622              	.LLST59:
 15623 0874 08       		.byte	0x8
 15624 0875 36000000 		.4byte	.LVL94
 15625 0879 06       		.uleb128 .LVL95-.LVL94
 15626 087a 03       		.uleb128 0x3
 15627 087b 08       		.byte	0x8
 15628 087c 30       		.byte	0x30
 15629 087d 9F       		.byte	0x9f
 15630 087e 00       		.byte	0
 15631              	.LVUS60:
 15632 087f 04       		.uleb128 .LVU564
 15633 0880 00       		.uleb128 .LVU566
 15634              	.LLST60:
 15635 0881 08       		.byte	0x8
 15636 0882 3C000000 		.4byte	.LVL95
 15637 0886 08       		.uleb128 .LVL96-.LVL95
 15638 0887 02       		.uleb128 0x2
 15639 0888 30       		.byte	0x30
 15640 0889 9F       		.byte	0x9f
 15641 088a 00       		.byte	0
 15642              	.LVUS61:
 15643 088b 04       		.uleb128 .LVU564
ARM GAS  C:\Users\DEVELO~1\AppData\Local\Temp\cc2saCCQ.s 			page 276


 15644 088c 00       		.uleb128 .LVU566
 15645              	.LLST61:
 15646 088d 08       		.byte	0x8
 15647 088e 3C000000 		.4byte	.LVL95
 15648 0892 08       		.uleb128 .LVL96-.LVL95
 15649 0893 06       		.uleb128 0x6
 15650 0894 03       		.byte	0x3
 15651 0895 08000000 		.4byte	SPID1+8
 15652 0899 9F       		.byte	0x9f
 15653 089a 00       		.byte	0
 15654              	.LVUS62:
 15655 089b 0C       		.uleb128 .LVU578
 15656 089c 00       		.uleb128 .LVU580
 15657              	.LLST62:
 15658 089d 08       		.byte	0x8
 15659 089e 44000000 		.4byte	.LVL96
 15660 08a2 06       		.uleb128 .LVL97-.LVL96
 15661 08a3 02       		.uleb128 0x2
 15662 08a4 30       		.byte	0x30
 15663 08a5 9F       		.byte	0x9f
 15664 08a6 00       		.byte	0
 15665              	.LVUS33:
 15666 08a7 00       		.uleb128 0
 15667 08a8 00       		.uleb128 .LVU295
 15668 08a9 00       		.uleb128 .LVU295
 15669 08aa 00       		.uleb128 .LVU354
 15670 08ab 00       		.uleb128 .LVU354
 15671 08ac 00       		.uleb128 .LVU357
 15672 08ad 00       		.uleb128 .LVU357
 15673 08ae 00       		.uleb128 0
 15674              	.LLST33:
 15675 08af 06       		.byte	0x6
 15676 08b0 00000000 		.4byte	.LVL42
 15677 08b4 04       		.byte	0x4
 15678 08b5 00       		.uleb128 .LVL42-.LVL42
 15679 08b6 0C       		.uleb128 .LVL43-.LVL42
 15680 08b7 01       		.uleb128 0x1
 15681 08b8 50       		.byte	0x50
 15682 08b9 04       		.byte	0x4
 15683 08ba 0C       		.uleb128 .LVL43-.LVL42
 15684 08bb 68       		.uleb128 .LVL54-.LVL42
 15685 08bc 01       		.uleb128 0x1
 15686 08bd 54       		.byte	0x54
 15687 08be 04       		.byte	0x4
 15688 08bf 68       		.uleb128 .LVL54-.LVL42
 15689 08c0 6A       		.uleb128 .LVL55-.LVL42
 15690 08c1 01       		.uleb128 0x1
 15691 08c2 50       		.byte	0x50
 15692 08c3 04       		.byte	0x4
 15693 08c4 6A       		.uleb128 .LVL55-.LVL42
 15694 08c5 A801     		.uleb128 .LFE438-.LVL42
 15695 08c7 01       		.uleb128 0x1
 15696 08c8 54       		.byte	0x54
 15697 08c9 00       		.byte	0
 15698              	.LVUS34:
 15699 08ca 00       		.uleb128 0
 15700 08cb 00       		.uleb128 .LVU295
ARM GAS  C:\Users\DEVELO~1\AppData\Local\Temp\cc2saCCQ.s 			page 277


 15701 08cc 00       		.uleb128 .LVU295
 15702 08cd 00       		.uleb128 .LVU354
 15703 08ce 00       		.uleb128 .LVU354
 15704 08cf 00       		.uleb128 .LVU358
 15705 08d0 00       		.uleb128 .LVU358
 15706 08d1 00       		.uleb128 0
 15707              	.LLST34:
 15708 08d2 06       		.byte	0x6
 15709 08d3 00000000 		.4byte	.LVL42
 15710 08d7 04       		.byte	0x4
 15711 08d8 00       		.uleb128 .LVL42-.LVL42
 15712 08d9 0C       		.uleb128 .LVL43-.LVL42
 15713 08da 01       		.uleb128 0x1
 15714 08db 51       		.byte	0x51
 15715 08dc 04       		.byte	0x4
 15716 08dd 0C       		.uleb128 .LVL43-.LVL42
 15717 08de 68       		.uleb128 .LVL54-.LVL42
 15718 08df 01       		.uleb128 0x1
 15719 08e0 55       		.byte	0x55
 15720 08e1 04       		.byte	0x4
 15721 08e2 68       		.uleb128 .LVL54-.LVL42
 15722 08e3 6D       		.uleb128 .LVL56-1-.LVL42
 15723 08e4 01       		.uleb128 0x1
 15724 08e5 51       		.byte	0x51
 15725 08e6 04       		.byte	0x4
 15726 08e7 6D       		.uleb128 .LVL56-1-.LVL42
 15727 08e8 A801     		.uleb128 .LFE438-.LVL42
 15728 08ea 01       		.uleb128 0x1
 15729 08eb 55       		.byte	0x55
 15730 08ec 00       		.byte	0
 15731              	.LVUS35:
 15732 08ed 09       		.uleb128 .LVU327
 15733 08ee 00       		.uleb128 .LVU329
 15734              	.LLST35:
 15735 08ef 08       		.byte	0x8
 15736 08f0 50000000 		.4byte	.LVL49
 15737 08f4 06       		.uleb128 .LVL50-.LVL49
 15738 08f5 03       		.uleb128 0x3
 15739 08f6 08       		.byte	0x8
 15740 08f7 30       		.byte	0x30
 15741 08f8 9F       		.byte	0x9f
 15742 08f9 00       		.byte	0
 15743              	.LVUS36:
 15744 08fa 04       		.uleb128 .LVU333
 15745 08fb 00       		.uleb128 .LVU336
 15746              	.LLST36:
 15747 08fc 08       		.byte	0x8
 15748 08fd 56000000 		.4byte	.LVL50
 15749 0901 0A       		.uleb128 .LVL52-.LVL50
 15750 0902 02       		.uleb128 0x2
 15751 0903 30       		.byte	0x30
 15752 0904 9F       		.byte	0x9f
 15753 0905 00       		.byte	0
 15754              	.LVUS37:
 15755 0906 04       		.uleb128 .LVU333
 15756 0907 00       		.uleb128 .LVU335
 15757 0908 00       		.uleb128 .LVU335
ARM GAS  C:\Users\DEVELO~1\AppData\Local\Temp\cc2saCCQ.s 			page 278


 15758 0909 00       		.uleb128 .LVU336
 15759 090a 00       		.uleb128 .LVU336
 15760 090b 00       		.uleb128 .LVU336
 15761              	.LLST37:
 15762 090c 06       		.byte	0x6
 15763 090d 56000000 		.4byte	.LVL50
 15764 0911 04       		.byte	0x4
 15765 0912 00       		.uleb128 .LVL50-.LVL50
 15766 0913 06       		.uleb128 .LVL51-.LVL50
 15767 0914 03       		.uleb128 0x3
 15768 0915 74       		.byte	0x74
 15769 0916 08       		.sleb128 8
 15770 0917 9F       		.byte	0x9f
 15771 0918 04       		.byte	0x4
 15772 0919 06       		.uleb128 .LVL51-.LVL50
 15773 091a 09       		.uleb128 .LVL52-1-.LVL50
 15774 091b 01       		.uleb128 0x1
 15775 091c 50       		.byte	0x50
 15776 091d 04       		.byte	0x4
 15777 091e 09       		.uleb128 .LVL52-1-.LVL50
 15778 091f 0A       		.uleb128 .LVL52-.LVL50
 15779 0920 03       		.uleb128 0x3
 15780 0921 74       		.byte	0x74
 15781 0922 08       		.sleb128 8
 15782 0923 9F       		.byte	0x9f
 15783 0924 00       		.byte	0
 15784              	.LVUS38:
 15785 0925 0C       		.uleb128 .LVU348
 15786 0926 00       		.uleb128 .LVU350
 15787              	.LLST38:
 15788 0927 08       		.byte	0x8
 15789 0928 60000000 		.4byte	.LVL52
 15790 092c 06       		.uleb128 .LVL53-.LVL52
 15791 092d 02       		.uleb128 0x2
 15792 092e 30       		.byte	0x30
 15793 092f 9F       		.byte	0x9f
 15794 0930 00       		.byte	0
 15795              	.LVUS39:
 15796 0931 01       		.uleb128 .LVU355
 15797 0932 00       		.uleb128 .LVU358
 15798              	.LLST39:
 15799 0933 08       		.byte	0x8
 15800 0934 68000000 		.4byte	.LVL54
 15801 0938 06       		.uleb128 .LVL56-.LVL54
 15802 0939 06       		.uleb128 0x6
 15803 093a 03       		.byte	0x3
 15804 093b 00000000 		.4byte	.LC0
 15805 093f 9F       		.byte	0x9f
 15806 0940 00       		.byte	0
 15807              	.LVUS40:
 15808 0941 09       		.uleb128 .LVU371
 15809 0942 00       		.uleb128 .LVU373
 15810              	.LLST40:
 15811 0943 08       		.byte	0x8
 15812 0944 7E000000 		.4byte	.LVL58
 15813 0948 06       		.uleb128 .LVL59-.LVL58
 15814 0949 03       		.uleb128 0x3
ARM GAS  C:\Users\DEVELO~1\AppData\Local\Temp\cc2saCCQ.s 			page 279


 15815 094a 08       		.byte	0x8
 15816 094b 30       		.byte	0x30
 15817 094c 9F       		.byte	0x9f
 15818 094d 00       		.byte	0
 15819              	.LVUS41:
 15820 094e 04       		.uleb128 .LVU377
 15821 094f 00       		.uleb128 .LVU380
 15822              	.LLST41:
 15823 0950 08       		.byte	0x8
 15824 0951 84000000 		.4byte	.LVL59
 15825 0955 0A       		.uleb128 .LVL61-.LVL59
 15826 0956 02       		.uleb128 0x2
 15827 0957 30       		.byte	0x30
 15828 0958 9F       		.byte	0x9f
 15829 0959 00       		.byte	0
 15830              	.LVUS42:
 15831 095a 04       		.uleb128 .LVU377
 15832 095b 00       		.uleb128 .LVU379
 15833 095c 00       		.uleb128 .LVU379
 15834 095d 00       		.uleb128 .LVU380
 15835 095e 00       		.uleb128 .LVU380
 15836 095f 00       		.uleb128 .LVU380
 15837              	.LLST42:
 15838 0960 06       		.byte	0x6
 15839 0961 84000000 		.4byte	.LVL59
 15840 0965 04       		.byte	0x4
 15841 0966 00       		.uleb128 .LVL59-.LVL59
 15842 0967 06       		.uleb128 .LVL60-.LVL59
 15843 0968 03       		.uleb128 0x3
 15844 0969 74       		.byte	0x74
 15845 096a 08       		.sleb128 8
 15846 096b 9F       		.byte	0x9f
 15847 096c 04       		.byte	0x4
 15848 096d 06       		.uleb128 .LVL60-.LVL59
 15849 096e 09       		.uleb128 .LVL61-1-.LVL59
 15850 096f 01       		.uleb128 0x1
 15851 0970 50       		.byte	0x50
 15852 0971 04       		.byte	0x4
 15853 0972 09       		.uleb128 .LVL61-1-.LVL59
 15854 0973 0A       		.uleb128 .LVL61-.LVL59
 15855 0974 03       		.uleb128 0x3
 15856 0975 74       		.byte	0x74
 15857 0976 08       		.sleb128 8
 15858 0977 9F       		.byte	0x9f
 15859 0978 00       		.byte	0
 15860              	.LVUS43:
 15861 0979 0C       		.uleb128 .LVU392
 15862 097a 00       		.uleb128 .LVU394
 15863              	.LLST43:
 15864 097b 08       		.byte	0x8
 15865 097c 8E000000 		.4byte	.LVL61
 15866 0980 06       		.uleb128 .LVL62-.LVL61
 15867 0981 02       		.uleb128 0x2
 15868 0982 30       		.byte	0x30
 15869 0983 9F       		.byte	0x9f
 15870 0984 00       		.byte	0
 15871              	.LVUS44:
ARM GAS  C:\Users\DEVELO~1\AppData\Local\Temp\cc2saCCQ.s 			page 280


 15872 0985 00       		.uleb128 0
 15873 0986 00       		.uleb128 .LVU407
 15874 0987 00       		.uleb128 .LVU407
 15875 0988 00       		.uleb128 .LVU466
 15876 0989 00       		.uleb128 .LVU466
 15877 098a 00       		.uleb128 .LVU469
 15878 098b 00       		.uleb128 .LVU469
 15879 098c 00       		.uleb128 0
 15880              	.LLST44:
 15881 098d 06       		.byte	0x6
 15882 098e 00000000 		.4byte	.LVL64
 15883 0992 04       		.byte	0x4
 15884 0993 00       		.uleb128 .LVL64-.LVL64
 15885 0994 0A       		.uleb128 .LVL66-.LVL64
 15886 0995 01       		.uleb128 0x1
 15887 0996 50       		.byte	0x50
 15888 0997 04       		.byte	0x4
 15889 0998 0A       		.uleb128 .LVL66-.LVL64
 15890 0999 66       		.uleb128 .LVL77-.LVL64
 15891 099a 01       		.uleb128 0x1
 15892 099b 54       		.byte	0x54
 15893 099c 04       		.byte	0x4
 15894 099d 66       		.uleb128 .LVL77-.LVL64
 15895 099e 68       		.uleb128 .LVL78-.LVL64
 15896 099f 01       		.uleb128 0x1
 15897 09a0 50       		.byte	0x50
 15898 09a1 04       		.byte	0x4
 15899 09a2 68       		.uleb128 .LVL78-.LVL64
 15900 09a3 A401     		.uleb128 .LFE436-.LVL64
 15901 09a5 01       		.uleb128 0x1
 15902 09a6 54       		.byte	0x54
 15903 09a7 00       		.byte	0
 15904              	.LVUS45:
 15905 09a8 00       		.uleb128 0
 15906 09a9 00       		.uleb128 .LVU405
 15907 09aa 00       		.uleb128 .LVU405
 15908 09ab 00       		.uleb128 0
 15909              	.LLST45:
 15910 09ac 06       		.byte	0x6
 15911 09ad 00000000 		.4byte	.LVL64
 15912 09b1 04       		.byte	0x4
 15913 09b2 00       		.uleb128 .LVL64-.LVL64
 15914 09b3 06       		.uleb128 .LVL65-.LVL64
 15915 09b4 01       		.uleb128 0x1
 15916 09b5 51       		.byte	0x51
 15917 09b6 04       		.byte	0x4
 15918 09b7 06       		.uleb128 .LVL65-.LVL64
 15919 09b8 A401     		.uleb128 .LFE436-.LVL64
 15920 09ba 01       		.uleb128 0x1
 15921 09bb 55       		.byte	0x55
 15922 09bc 00       		.byte	0
 15923              	.LVUS46:
 15924 09bd 09       		.uleb128 .LVU439
 15925 09be 00       		.uleb128 .LVU441
 15926              	.LLST46:
 15927 09bf 08       		.byte	0x8
 15928 09c0 4E000000 		.4byte	.LVL72
ARM GAS  C:\Users\DEVELO~1\AppData\Local\Temp\cc2saCCQ.s 			page 281


 15929 09c4 06       		.uleb128 .LVL73-.LVL72
 15930 09c5 03       		.uleb128 0x3
 15931 09c6 08       		.byte	0x8
 15932 09c7 30       		.byte	0x30
 15933 09c8 9F       		.byte	0x9f
 15934 09c9 00       		.byte	0
 15935              	.LVUS47:
 15936 09ca 04       		.uleb128 .LVU445
 15937 09cb 00       		.uleb128 .LVU448
 15938              	.LLST47:
 15939 09cc 08       		.byte	0x8
 15940 09cd 54000000 		.4byte	.LVL73
 15941 09d1 0A       		.uleb128 .LVL75-.LVL73
 15942 09d2 02       		.uleb128 0x2
 15943 09d3 30       		.byte	0x30
 15944 09d4 9F       		.byte	0x9f
 15945 09d5 00       		.byte	0
 15946              	.LVUS48:
 15947 09d6 04       		.uleb128 .LVU445
 15948 09d7 00       		.uleb128 .LVU447
 15949 09d8 00       		.uleb128 .LVU447
 15950 09d9 00       		.uleb128 .LVU448
 15951 09da 00       		.uleb128 .LVU448
 15952 09db 00       		.uleb128 .LVU448
 15953              	.LLST48:
 15954 09dc 06       		.byte	0x6
 15955 09dd 54000000 		.4byte	.LVL73
 15956 09e1 04       		.byte	0x4
 15957 09e2 00       		.uleb128 .LVL73-.LVL73
 15958 09e3 06       		.uleb128 .LVL74-.LVL73
 15959 09e4 03       		.uleb128 0x3
 15960 09e5 74       		.byte	0x74
 15961 09e6 08       		.sleb128 8
 15962 09e7 9F       		.byte	0x9f
 15963 09e8 04       		.byte	0x4
 15964 09e9 06       		.uleb128 .LVL74-.LVL73
 15965 09ea 09       		.uleb128 .LVL75-1-.LVL73
 15966 09eb 01       		.uleb128 0x1
 15967 09ec 50       		.byte	0x50
 15968 09ed 04       		.byte	0x4
 15969 09ee 09       		.uleb128 .LVL75-1-.LVL73
 15970 09ef 0A       		.uleb128 .LVL75-.LVL73
 15971 09f0 03       		.uleb128 0x3
 15972 09f1 74       		.byte	0x74
 15973 09f2 08       		.sleb128 8
 15974 09f3 9F       		.byte	0x9f
 15975 09f4 00       		.byte	0
 15976              	.LVUS49:
 15977 09f5 0C       		.uleb128 .LVU460
 15978 09f6 00       		.uleb128 .LVU462
 15979              	.LLST49:
 15980 09f7 08       		.byte	0x8
 15981 09f8 5E000000 		.4byte	.LVL75
 15982 09fc 06       		.uleb128 .LVL76-.LVL75
 15983 09fd 02       		.uleb128 0x2
 15984 09fe 30       		.byte	0x30
 15985 09ff 9F       		.byte	0x9f
ARM GAS  C:\Users\DEVELO~1\AppData\Local\Temp\cc2saCCQ.s 			page 282


 15986 0a00 00       		.byte	0
 15987              	.LVUS50:
 15988 0a01 01       		.uleb128 .LVU467
 15989 0a02 00       		.uleb128 .LVU470
 15990              	.LLST50:
 15991 0a03 08       		.byte	0x8
 15992 0a04 66000000 		.4byte	.LVL77
 15993 0a08 06       		.uleb128 .LVL79-.LVL77
 15994 0a09 06       		.uleb128 0x6
 15995 0a0a 03       		.byte	0x3
 15996 0a0b 00000000 		.4byte	.LC0
 15997 0a0f 9F       		.byte	0x9f
 15998 0a10 00       		.byte	0
 15999              	.LVUS51:
 16000 0a11 09       		.uleb128 .LVU483
 16001 0a12 00       		.uleb128 .LVU485
 16002              	.LLST51:
 16003 0a13 08       		.byte	0x8
 16004 0a14 7C000000 		.4byte	.LVL81
 16005 0a18 06       		.uleb128 .LVL82-.LVL81
 16006 0a19 03       		.uleb128 0x3
 16007 0a1a 08       		.byte	0x8
 16008 0a1b 30       		.byte	0x30
 16009 0a1c 9F       		.byte	0x9f
 16010 0a1d 00       		.byte	0
 16011              	.LVUS52:
 16012 0a1e 04       		.uleb128 .LVU489
 16013 0a1f 00       		.uleb128 .LVU492
 16014              	.LLST52:
 16015 0a20 08       		.byte	0x8
 16016 0a21 82000000 		.4byte	.LVL82
 16017 0a25 0A       		.uleb128 .LVL84-.LVL82
 16018 0a26 02       		.uleb128 0x2
 16019 0a27 30       		.byte	0x30
 16020 0a28 9F       		.byte	0x9f
 16021 0a29 00       		.byte	0
 16022              	.LVUS53:
 16023 0a2a 04       		.uleb128 .LVU489
 16024 0a2b 00       		.uleb128 .LVU491
 16025 0a2c 00       		.uleb128 .LVU491
 16026 0a2d 00       		.uleb128 .LVU492
 16027 0a2e 00       		.uleb128 .LVU492
 16028 0a2f 00       		.uleb128 .LVU492
 16029              	.LLST53:
 16030 0a30 06       		.byte	0x6
 16031 0a31 82000000 		.4byte	.LVL82
 16032 0a35 04       		.byte	0x4
 16033 0a36 00       		.uleb128 .LVL82-.LVL82
 16034 0a37 06       		.uleb128 .LVL83-.LVL82
 16035 0a38 03       		.uleb128 0x3
 16036 0a39 74       		.byte	0x74
 16037 0a3a 08       		.sleb128 8
 16038 0a3b 9F       		.byte	0x9f
 16039 0a3c 04       		.byte	0x4
 16040 0a3d 06       		.uleb128 .LVL83-.LVL82
 16041 0a3e 09       		.uleb128 .LVL84-1-.LVL82
 16042 0a3f 01       		.uleb128 0x1
ARM GAS  C:\Users\DEVELO~1\AppData\Local\Temp\cc2saCCQ.s 			page 283


 16043 0a40 50       		.byte	0x50
 16044 0a41 04       		.byte	0x4
 16045 0a42 09       		.uleb128 .LVL84-1-.LVL82
 16046 0a43 0A       		.uleb128 .LVL84-.LVL82
 16047 0a44 03       		.uleb128 0x3
 16048 0a45 74       		.byte	0x74
 16049 0a46 08       		.sleb128 8
 16050 0a47 9F       		.byte	0x9f
 16051 0a48 00       		.byte	0
 16052              	.LVUS54:
 16053 0a49 0C       		.uleb128 .LVU504
 16054 0a4a 00       		.uleb128 .LVU506
 16055              	.LLST54:
 16056 0a4b 08       		.byte	0x8
 16057 0a4c 8C000000 		.4byte	.LVL84
 16058 0a50 06       		.uleb128 .LVL85-.LVL84
 16059 0a51 02       		.uleb128 0x2
 16060 0a52 30       		.byte	0x30
 16061 0a53 9F       		.byte	0x9f
 16062 0a54 00       		.byte	0
 16063              	.LVUS18:
 16064 0a55 00       		.uleb128 0
 16065 0a56 00       		.uleb128 .LVU174
 16066 0a57 00       		.uleb128 .LVU174
 16067 0a58 00       		.uleb128 .LVU186
 16068 0a59 00       		.uleb128 .LVU186
 16069 0a5a 00       		.uleb128 .LVU190
 16070 0a5b 00       		.uleb128 .LVU190
 16071 0a5c 00       		.uleb128 .LVU191
 16072 0a5d 00       		.uleb128 .LVU191
 16073 0a5e 00       		.uleb128 .LVU205
 16074 0a5f 00       		.uleb128 .LVU205
 16075 0a60 00       		.uleb128 .LVU227
 16076 0a61 00       		.uleb128 .LVU227
 16077 0a62 00       		.uleb128 .LVU228
 16078 0a63 00       		.uleb128 .LVU228
 16079 0a64 00       		.uleb128 0
 16080              	.LLST18:
 16081 0a65 06       		.byte	0x6
 16082 0a66 00000000 		.4byte	.LVL18
 16083 0a6a 04       		.byte	0x4
 16084 0a6b 00       		.uleb128 .LVL18-.LVL18
 16085 0a6c 18       		.uleb128 .LVL19-.LVL18
 16086 0a6d 01       		.uleb128 0x1
 16087 0a6e 50       		.byte	0x50
 16088 0a6f 04       		.byte	0x4
 16089 0a70 18       		.uleb128 .LVL19-.LVL18
 16090 0a71 34       		.uleb128 .LVL20-.LVL18
 16091 0a72 01       		.uleb128 0x1
 16092 0a73 51       		.byte	0x51
 16093 0a74 04       		.byte	0x4
 16094 0a75 34       		.uleb128 .LVL20-.LVL18
 16095 0a76 4A       		.uleb128 .LVL21-.LVL18
 16096 0a77 04       		.uleb128 0x4
 16097 0a78 A3       		.byte	0xa3
 16098 0a79 01       		.uleb128 0x1
 16099 0a7a 50       		.byte	0x50
ARM GAS  C:\Users\DEVELO~1\AppData\Local\Temp\cc2saCCQ.s 			page 284


 16100 0a7b 9F       		.byte	0x9f
 16101 0a7c 04       		.byte	0x4
 16102 0a7d 4A       		.uleb128 .LVL21-.LVL18
 16103 0a7e 4C       		.uleb128 .LVL22-.LVL18
 16104 0a7f 01       		.uleb128 0x1
 16105 0a80 50       		.byte	0x50
 16106 0a81 04       		.byte	0x4
 16107 0a82 4C       		.uleb128 .LVL22-.LVL18
 16108 0a83 78       		.uleb128 .LVL23-.LVL18
 16109 0a84 01       		.uleb128 0x1
 16110 0a85 51       		.byte	0x51
 16111 0a86 04       		.byte	0x4
 16112 0a87 78       		.uleb128 .LVL23-.LVL18
 16113 0a88 AC01     		.uleb128 .LVL26-.LVL18
 16114 0a8a 04       		.uleb128 0x4
 16115 0a8b A3       		.byte	0xa3
 16116 0a8c 01       		.uleb128 0x1
 16117 0a8d 50       		.byte	0x50
 16118 0a8e 9F       		.byte	0x9f
 16119 0a8f 04       		.byte	0x4
 16120 0a90 AC01     		.uleb128 .LVL26-.LVL18
 16121 0a92 AF01     		.uleb128 .LVL27-1-.LVL18
 16122 0a94 01       		.uleb128 0x1
 16123 0a95 50       		.byte	0x50
 16124 0a96 04       		.byte	0x4
 16125 0a97 AF01     		.uleb128 .LVL27-1-.LVL18
 16126 0a99 B401     		.uleb128 .LFE435-.LVL18
 16127 0a9b 04       		.uleb128 0x4
 16128 0a9c A3       		.byte	0xa3
 16129 0a9d 01       		.uleb128 0x1
 16130 0a9e 50       		.byte	0x50
 16131 0a9f 9F       		.byte	0x9f
 16132 0aa0 00       		.byte	0
 16133              	.LVUS20:
 16134 0aa1 04       		.uleb128 .LVU213
 16135 0aa2 00       		.uleb128 .LVU225
 16136              	.LLST20:
 16137 0aa3 08       		.byte	0x8
 16138 0aa4 94000000 		.4byte	.LVL24
 16139 0aa8 16       		.uleb128 .LVL25-.LVL24
 16140 0aa9 04       		.uleb128 0x4
 16141 0aaa A3       		.byte	0xa3
 16142 0aab 01       		.uleb128 0x1
 16143 0aac 50       		.byte	0x50
 16144 0aad 9F       		.byte	0x9f
 16145 0aae 00       		.byte	0
 16146              	.LVUS1:
 16147 0aaf 00       		.uleb128 0
 16148 0ab0 00       		.uleb128 .LVU105
 16149 0ab1 00       		.uleb128 .LVU105
 16150 0ab2 00       		.uleb128 .LVU114
 16151 0ab3 00       		.uleb128 .LVU114
 16152 0ab4 00       		.uleb128 .LVU128
 16153 0ab5 00       		.uleb128 .LVU128
 16154 0ab6 00       		.uleb128 .LVU129
 16155 0ab7 00       		.uleb128 .LVU129
 16156 0ab8 00       		.uleb128 .LVU138
ARM GAS  C:\Users\DEVELO~1\AppData\Local\Temp\cc2saCCQ.s 			page 285


 16157 0ab9 00       		.uleb128 .LVU138
 16158 0aba 00       		.uleb128 .LVU147
 16159 0abb 00       		.uleb128 .LVU147
 16160 0abc 00       		.uleb128 .LVU156
 16161 0abd 00       		.uleb128 .LVU156
 16162 0abe 00       		.uleb128 0
 16163              	.LLST1:
 16164 0abf 06       		.byte	0x6
 16165 0ac0 00000000 		.4byte	.LVL1
 16166 0ac4 04       		.byte	0x4
 16167 0ac5 00       		.uleb128 .LVL1-.LVL1
 16168 0ac6 BC01     		.uleb128 .LVL6-.LVL1
 16169 0ac8 01       		.uleb128 0x1
 16170 0ac9 50       		.byte	0x50
 16171 0aca 04       		.byte	0x4
 16172 0acb BC01     		.uleb128 .LVL6-.LVL1
 16173 0acd DA01     		.uleb128 .LVL8-.LVL1
 16174 0acf 04       		.uleb128 0x4
 16175 0ad0 A3       		.byte	0xa3
 16176 0ad1 01       		.uleb128 0x1
 16177 0ad2 50       		.byte	0x50
 16178 0ad3 9F       		.byte	0x9f
 16179 0ad4 04       		.byte	0x4
 16180 0ad5 DA01     		.uleb128 .LVL8-.LVL1
 16181 0ad7 FE01     		.uleb128 .LVL10-.LVL1
 16182 0ad9 01       		.uleb128 0x1
 16183 0ada 50       		.byte	0x50
 16184 0adb 04       		.byte	0x4
 16185 0adc FE01     		.uleb128 .LVL10-.LVL1
 16186 0ade 8202     		.uleb128 .LVL11-.LVL1
 16187 0ae0 04       		.uleb128 0x4
 16188 0ae1 A3       		.byte	0xa3
 16189 0ae2 01       		.uleb128 0x1
 16190 0ae3 50       		.byte	0x50
 16191 0ae4 9F       		.byte	0x9f
 16192 0ae5 04       		.byte	0x4
 16193 0ae6 8202     		.uleb128 .LVL11-.LVL1
 16194 0ae8 8C02     		.uleb128 .LVL12-.LVL1
 16195 0aea 01       		.uleb128 0x1
 16196 0aeb 50       		.byte	0x50
 16197 0aec 04       		.byte	0x4
 16198 0aed 8C02     		.uleb128 .LVL12-.LVL1
 16199 0aef AA02     		.uleb128 .LVL14-.LVL1
 16200 0af1 04       		.uleb128 0x4
 16201 0af2 A3       		.byte	0xa3
 16202 0af3 01       		.uleb128 0x1
 16203 0af4 50       		.byte	0x50
 16204 0af5 9F       		.byte	0x9f
 16205 0af6 04       		.byte	0x4
 16206 0af7 AA02     		.uleb128 .LVL14-.LVL1
 16207 0af9 B402     		.uleb128 .LVL15-.LVL1
 16208 0afb 01       		.uleb128 0x1
 16209 0afc 50       		.byte	0x50
 16210 0afd 04       		.byte	0x4
 16211 0afe B402     		.uleb128 .LVL15-.LVL1
 16212 0b00 EC02     		.uleb128 .LFE434-.LVL1
 16213 0b02 04       		.uleb128 0x4
ARM GAS  C:\Users\DEVELO~1\AppData\Local\Temp\cc2saCCQ.s 			page 286


 16214 0b03 A3       		.byte	0xa3
 16215 0b04 01       		.uleb128 0x1
 16216 0b05 50       		.byte	0x50
 16217 0b06 9F       		.byte	0x9f
 16218 0b07 00       		.byte	0
 16219              	.LVUS2:
 16220 0b08 01       		.uleb128 .LVU66
 16221 0b09 00       		.uleb128 .LVU76
 16222              	.LLST2:
 16223 0b0a 08       		.byte	0x8
 16224 0b0b 54000000 		.4byte	.LVL2
 16225 0b0f 20       		.uleb128 .LVL4-.LVL2
 16226 0b10 03       		.uleb128 0x3
 16227 0b11 08       		.byte	0x8
 16228 0b12 20       		.byte	0x20
 16229 0b13 9F       		.byte	0x9f
 16230 0b14 00       		.byte	0
 16231              	.LVUS3:
 16232 0b15 03       		.uleb128 .LVU68
 16233 0b16 00       		.uleb128 .LVU74
 16234              	.LLST3:
 16235 0b17 08       		.byte	0x8
 16236 0b18 54000000 		.4byte	.LVL2
 16237 0b1c 1E       		.uleb128 .LVL3-.LVL2
 16238 0b1d 03       		.uleb128 0x3
 16239 0b1e 08       		.byte	0x8
 16240 0b1f 20       		.byte	0x20
 16241 0b20 9F       		.byte	0x9f
 16242 0b21 00       		.byte	0
 16243              	.LVUS5:
 16244 0b22 01       		.uleb128 .LVU97
 16245 0b23 00       		.uleb128 .LVU111
 16246              	.LLST5:
 16247 0b24 08       		.byte	0x8
 16248 0b25 B2000000 		.4byte	.LVL5
 16249 0b29 24       		.uleb128 .LVL7-.LVL5
 16250 0b2a 04       		.uleb128 0x4
 16251 0b2b 0A       		.byte	0xa
 16252 0b2c 0010     		.2byte	0x1000
 16253 0b2e 9F       		.byte	0x9f
 16254 0b2f 00       		.byte	0
 16255              	.LVUS7:
 16256 0b30 03       		.uleb128 .LVU99
 16257 0b31 00       		.uleb128 .LVU111
 16258              	.LLST7:
 16259 0b32 08       		.byte	0x8
 16260 0b33 B2000000 		.4byte	.LVL5
 16261 0b37 24       		.uleb128 .LVL7-.LVL5
 16262 0b38 04       		.uleb128 0x4
 16263 0b39 0A       		.byte	0xa
 16264 0b3a 0010     		.2byte	0x1000
 16265 0b3c 9F       		.byte	0x9f
 16266 0b3d 00       		.byte	0
 16267              	.LVUS8:
 16268 0b3e 01       		.uleb128 .LVU115
 16269 0b3f 00       		.uleb128 .LVU123
 16270              	.LLST8:
ARM GAS  C:\Users\DEVELO~1\AppData\Local\Temp\cc2saCCQ.s 			page 287


 16271 0b40 08       		.byte	0x8
 16272 0b41 DA000000 		.4byte	.LVL8
 16273 0b45 1E       		.uleb128 .LVL9-.LVL8
 16274 0b46 04       		.uleb128 0x4
 16275 0b47 0A       		.byte	0xa
 16276 0b48 0040     		.2byte	0x4000
 16277 0b4a 9F       		.byte	0x9f
 16278 0b4b 00       		.byte	0
 16279              	.LVUS9:
 16280 0b4c 03       		.uleb128 .LVU117
 16281 0b4d 00       		.uleb128 .LVU123
 16282              	.LLST9:
 16283 0b4e 08       		.byte	0x8
 16284 0b4f DA000000 		.4byte	.LVL8
 16285 0b53 1E       		.uleb128 .LVL9-.LVL8
 16286 0b54 04       		.uleb128 0x4
 16287 0b55 0A       		.byte	0xa
 16288 0b56 0040     		.2byte	0x4000
 16289 0b58 9F       		.byte	0x9f
 16290 0b59 00       		.byte	0
 16291              	.LVUS11:
 16292 0b5a 01       		.uleb128 .LVU130
 16293 0b5b 00       		.uleb128 .LVU144
 16294              	.LLST11:
 16295 0b5c 08       		.byte	0x8
 16296 0b5d 02010000 		.4byte	.LVL11
 16297 0b61 24       		.uleb128 .LVL13-.LVL11
 16298 0b62 04       		.uleb128 0x4
 16299 0b63 0A       		.byte	0xa
 16300 0b64 0080     		.2byte	0x8000
 16301 0b66 9F       		.byte	0x9f
 16302 0b67 00       		.byte	0
 16303              	.LVUS13:
 16304 0b68 03       		.uleb128 .LVU132
 16305 0b69 00       		.uleb128 .LVU144
 16306              	.LLST13:
 16307 0b6a 08       		.byte	0x8
 16308 0b6b 02010000 		.4byte	.LVL11
 16309 0b6f 24       		.uleb128 .LVL13-.LVL11
 16310 0b70 04       		.uleb128 0x4
 16311 0b71 0A       		.byte	0xa
 16312 0b72 0080     		.2byte	0x8000
 16313 0b74 9F       		.byte	0x9f
 16314 0b75 00       		.byte	0
 16315              	.LVUS15:
 16316 0b76 01       		.uleb128 .LVU148
 16317 0b77 00       		.uleb128 .LVU162
 16318              	.LLST15:
 16319 0b78 08       		.byte	0x8
 16320 0b79 2A010000 		.4byte	.LVL14
 16321 0b7d 24       		.uleb128 .LVL16-.LVL14
 16322 0b7e 04       		.uleb128 0x4
 16323 0b7f 40       		.byte	0x40
 16324 0b80 40       		.byte	0x40
 16325 0b81 24       		.byte	0x24
 16326 0b82 9F       		.byte	0x9f
 16327 0b83 00       		.byte	0
ARM GAS  C:\Users\DEVELO~1\AppData\Local\Temp\cc2saCCQ.s 			page 288


 16328              	.LVUS17:
 16329 0b84 03       		.uleb128 .LVU150
 16330 0b85 00       		.uleb128 .LVU162
 16331              	.LLST17:
 16332 0b86 08       		.byte	0x8
 16333 0b87 2A010000 		.4byte	.LVL14
 16334 0b8b 24       		.uleb128 .LVL16-.LVL14
 16335 0b8c 04       		.uleb128 0x4
 16336 0b8d 40       		.byte	0x40
 16337 0b8e 40       		.byte	0x40
 16338 0b8f 24       		.byte	0x24
 16339 0b90 9F       		.byte	0x9f
 16340 0b91 00       		.byte	0
 16341              	.LVUS0:
 16342 0b92 01       		.uleb128 .LVU1
 16343 0b93 00       		.uleb128 0
 16344              	.LLST0:
 16345 0b94 08       		.byte	0x8
 16346 0b95 00000000 		.4byte	.LVL0
 16347 0b99 54       		.uleb128 .LFE461-.LVL0
 16348 0b9a 06       		.uleb128 0x6
 16349 0b9b FA       		.byte	0xfa
 16350 0b9c D6380000 		.4byte	0x38d6
 16351 0ba0 9F       		.byte	0x9f
 16352 0ba1 00       		.byte	0
 16353              	.LVUS21:
 16354 0ba2 00       		.uleb128 0
 16355 0ba3 00       		.uleb128 .LVU237
 16356 0ba4 00       		.uleb128 .LVU237
 16357 0ba5 00       		.uleb128 .LVU278
 16358 0ba6 00       		.uleb128 .LVU278
 16359 0ba7 00       		.uleb128 0
 16360              	.LLST21:
 16361 0ba8 06       		.byte	0x6
 16362 0ba9 00000000 		.4byte	.LVL28
 16363 0bad 04       		.byte	0x4
 16364 0bae 00       		.uleb128 .LVL28-.LVL28
 16365 0baf 06       		.uleb128 .LVL29-.LVL28
 16366 0bb0 01       		.uleb128 0x1
 16367 0bb1 50       		.byte	0x50
 16368 0bb2 04       		.byte	0x4
 16369 0bb3 06       		.uleb128 .LVL29-.LVL28
 16370 0bb4 32       		.uleb128 .LVL37-.LVL28
 16371 0bb5 01       		.uleb128 0x1
 16372 0bb6 54       		.byte	0x54
 16373 0bb7 04       		.byte	0x4
 16374 0bb8 32       		.uleb128 .LVL37-.LVL28
 16375 0bb9 38       		.uleb128 .LFE459-.LVL28
 16376 0bba 04       		.uleb128 0x4
 16377 0bbb A3       		.byte	0xa3
 16378 0bbc 01       		.uleb128 0x1
 16379 0bbd 50       		.byte	0x50
 16380 0bbe 9F       		.byte	0x9f
 16381 0bbf 00       		.byte	0
 16382              	.LVUS22:
 16383 0bc0 01       		.uleb128 .LVU231
 16384 0bc1 00       		.uleb128 0
ARM GAS  C:\Users\DEVELO~1\AppData\Local\Temp\cc2saCCQ.s 			page 289


 16385              	.LLST22:
 16386 0bc2 08       		.byte	0x8
 16387 0bc3 00000000 		.4byte	.LVL28
 16388 0bc7 38       		.uleb128 .LFE459-.LVL28
 16389 0bc8 06       		.uleb128 0x6
 16390 0bc9 FA       		.byte	0xfa
 16391 0bca CF2E0000 		.4byte	0x2ecf
 16392 0bce 9F       		.byte	0x9f
 16393 0bcf 00       		.byte	0
 16394              	.LVUS24:
 16395 0bd0 02       		.uleb128 .LVU232
 16396 0bd1 00       		.uleb128 .LVU238
 16397              	.LLST24:
 16398 0bd2 08       		.byte	0x8
 16399 0bd3 00000000 		.4byte	.LVL28
 16400 0bd7 0A       		.uleb128 .LVL30-.LVL28
 16401 0bd8 06       		.uleb128 0x6
 16402 0bd9 03       		.byte	0x3
 16403 0bda 00000000 		.4byte	.LC0
 16404 0bde 9F       		.byte	0x9f
 16405 0bdf 00       		.byte	0
 16406              	.LVUS25:
 16407 0be0 09       		.uleb128 .LVU251
 16408 0be1 00       		.uleb128 .LVU253
 16409              	.LLST25:
 16410 0be2 08       		.byte	0x8
 16411 0be3 1A000000 		.4byte	.LVL32
 16412 0be7 06       		.uleb128 .LVL33-.LVL32
 16413 0be8 03       		.uleb128 0x3
 16414 0be9 08       		.byte	0x8
 16415 0bea 30       		.byte	0x30
 16416 0beb 9F       		.byte	0x9f
 16417 0bec 00       		.byte	0
 16418              	.LVUS26:
 16419 0bed 04       		.uleb128 .LVU257
 16420 0bee 00       		.uleb128 .LVU260
 16421              	.LLST26:
 16422 0bef 08       		.byte	0x8
 16423 0bf0 20000000 		.4byte	.LVL33
 16424 0bf4 0A       		.uleb128 .LVL35-.LVL33
 16425 0bf5 02       		.uleb128 0x2
 16426 0bf6 30       		.byte	0x30
 16427 0bf7 9F       		.byte	0x9f
 16428 0bf8 00       		.byte	0
 16429              	.LVUS27:
 16430 0bf9 04       		.uleb128 .LVU257
 16431 0bfa 00       		.uleb128 .LVU259
 16432 0bfb 00       		.uleb128 .LVU259
 16433 0bfc 00       		.uleb128 .LVU260
 16434 0bfd 00       		.uleb128 .LVU260
 16435 0bfe 00       		.uleb128 .LVU260
 16436              	.LLST27:
 16437 0bff 06       		.byte	0x6
 16438 0c00 20000000 		.4byte	.LVL33
 16439 0c04 04       		.byte	0x4
 16440 0c05 00       		.uleb128 .LVL33-.LVL33
 16441 0c06 06       		.uleb128 .LVL34-.LVL33
ARM GAS  C:\Users\DEVELO~1\AppData\Local\Temp\cc2saCCQ.s 			page 290


 16442 0c07 03       		.uleb128 0x3
 16443 0c08 74       		.byte	0x74
 16444 0c09 08       		.sleb128 8
 16445 0c0a 9F       		.byte	0x9f
 16446 0c0b 04       		.byte	0x4
 16447 0c0c 06       		.uleb128 .LVL34-.LVL33
 16448 0c0d 09       		.uleb128 .LVL35-1-.LVL33
 16449 0c0e 01       		.uleb128 0x1
 16450 0c0f 50       		.byte	0x50
 16451 0c10 04       		.byte	0x4
 16452 0c11 09       		.uleb128 .LVL35-1-.LVL33
 16453 0c12 0A       		.uleb128 .LVL35-.LVL33
 16454 0c13 03       		.uleb128 0x3
 16455 0c14 74       		.byte	0x74
 16456 0c15 08       		.sleb128 8
 16457 0c16 9F       		.byte	0x9f
 16458 0c17 00       		.byte	0
 16459              	.LVUS28:
 16460 0c18 0C       		.uleb128 .LVU272
 16461 0c19 00       		.uleb128 .LVU274
 16462              	.LLST28:
 16463 0c1a 08       		.byte	0x8
 16464 0c1b 2A000000 		.4byte	.LVL35
 16465 0c1f 06       		.uleb128 .LVL36-.LVL35
 16466 0c20 02       		.uleb128 0x2
 16467 0c21 30       		.byte	0x30
 16468 0c22 9F       		.byte	0x9f
 16469 0c23 00       		.byte	0
 16470              	.LVUS29:
 16471 0c24 00       		.uleb128 0
 16472 0c25 00       		.uleb128 .LVU283
 16473 0c26 00       		.uleb128 .LVU283
 16474 0c27 00       		.uleb128 0
 16475              	.LLST29:
 16476 0c28 06       		.byte	0x6
 16477 0c29 00000000 		.4byte	.LVL38
 16478 0c2d 04       		.byte	0x4
 16479 0c2e 00       		.uleb128 .LVL38-.LVL38
 16480 0c2f 09       		.uleb128 .LVL39-1-.LVL38
 16481 0c30 01       		.uleb128 0x1
 16482 0c31 50       		.byte	0x50
 16483 0c32 04       		.byte	0x4
 16484 0c33 09       		.uleb128 .LVL39-1-.LVL38
 16485 0c34 0A       		.uleb128 .LFE437-.LVL38
 16486 0c35 04       		.uleb128 0x4
 16487 0c36 A3       		.byte	0xa3
 16488 0c37 01       		.uleb128 0x1
 16489 0c38 50       		.byte	0x50
 16490 0c39 9F       		.byte	0x9f
 16491 0c3a 00       		.byte	0
 16492              	.LVUS30:
 16493 0c3b 00       		.uleb128 0
 16494 0c3c 00       		.uleb128 .LVU283
 16495 0c3d 00       		.uleb128 .LVU283
 16496 0c3e 00       		.uleb128 0
 16497              	.LLST30:
 16498 0c3f 06       		.byte	0x6
ARM GAS  C:\Users\DEVELO~1\AppData\Local\Temp\cc2saCCQ.s 			page 291


 16499 0c40 00000000 		.4byte	.LVL38
 16500 0c44 04       		.byte	0x4
 16501 0c45 00       		.uleb128 .LVL38-.LVL38
 16502 0c46 09       		.uleb128 .LVL39-1-.LVL38
 16503 0c47 01       		.uleb128 0x1
 16504 0c48 51       		.byte	0x51
 16505 0c49 04       		.byte	0x4
 16506 0c4a 09       		.uleb128 .LVL39-1-.LVL38
 16507 0c4b 0A       		.uleb128 .LFE437-.LVL38
 16508 0c4c 04       		.uleb128 0x4
 16509 0c4d A3       		.byte	0xa3
 16510 0c4e 01       		.uleb128 0x1
 16511 0c4f 51       		.byte	0x51
 16512 0c50 9F       		.byte	0x9f
 16513 0c51 00       		.byte	0
 16514              	.LVUS31:
 16515 0c52 00       		.uleb128 0
 16516 0c53 00       		.uleb128 .LVU288
 16517 0c54 00       		.uleb128 .LVU288
 16518 0c55 00       		.uleb128 0
 16519              	.LLST31:
 16520 0c56 06       		.byte	0x6
 16521 0c57 00000000 		.4byte	.LVL40
 16522 0c5b 04       		.byte	0x4
 16523 0c5c 00       		.uleb128 .LVL40-.LVL40
 16524 0c5d 0B       		.uleb128 .LVL41-1-.LVL40
 16525 0c5e 01       		.uleb128 0x1
 16526 0c5f 50       		.byte	0x50
 16527 0c60 04       		.byte	0x4
 16528 0c61 0B       		.uleb128 .LVL41-1-.LVL40
 16529 0c62 0C       		.uleb128 .LFE439-.LVL40
 16530 0c63 04       		.uleb128 0x4
 16531 0c64 A3       		.byte	0xa3
 16532 0c65 01       		.uleb128 0x1
 16533 0c66 50       		.byte	0x50
 16534 0c67 9F       		.byte	0x9f
 16535 0c68 00       		.byte	0
 16536              	.LVUS32:
 16537 0c69 00       		.uleb128 0
 16538 0c6a 00       		.uleb128 .LVU288
 16539 0c6b 00       		.uleb128 .LVU288
 16540 0c6c 00       		.uleb128 0
 16541              	.LLST32:
 16542 0c6d 06       		.byte	0x6
 16543 0c6e 00000000 		.4byte	.LVL40
 16544 0c72 04       		.byte	0x4
 16545 0c73 00       		.uleb128 .LVL40-.LVL40
 16546 0c74 0B       		.uleb128 .LVL41-1-.LVL40
 16547 0c75 01       		.uleb128 0x1
 16548 0c76 51       		.byte	0x51
 16549 0c77 04       		.byte	0x4
 16550 0c78 0B       		.uleb128 .LVL41-1-.LVL40
 16551 0c79 0C       		.uleb128 .LFE439-.LVL40
 16552 0c7a 04       		.uleb128 0x4
 16553 0c7b A3       		.byte	0xa3
 16554 0c7c 01       		.uleb128 0x1
 16555 0c7d 51       		.byte	0x51
ARM GAS  C:\Users\DEVELO~1\AppData\Local\Temp\cc2saCCQ.s 			page 292


 16556 0c7e 9F       		.byte	0x9f
 16557 0c7f 00       		.byte	0
 16558              	.Ldebug_loc3:
 16559              		.section	.debug_aranges,"",%progbits
 16560 0000 C4000000 		.4byte	0xc4
 16561 0004 0200     		.2byte	0x2
 16562 0006 00000000 		.4byte	.Ldebug_info0
 16563 000a 04       		.byte	0x4
 16564 000b 00       		.byte	0
 16565 000c 0000     		.2byte	0
 16566 000e 0000     		.2byte	0
 16567 0010 00000000 		.4byte	.LFB461
 16568 0014 54000000 		.4byte	.LFE461-.LFB461
 16569 0018 00000000 		.4byte	.LFB434
 16570 001c 6C010000 		.4byte	.LFE434-.LFB434
 16571 0020 00000000 		.4byte	.LFB435
 16572 0024 B4000000 		.4byte	.LFE435-.LFB435
 16573 0028 00000000 		.4byte	.LFB459
 16574 002c 38000000 		.4byte	.LFE459-.LFB459
 16575 0030 00000000 		.4byte	.LFB437
 16576 0034 0A000000 		.4byte	.LFE437-.LFB437
 16577 0038 00000000 		.4byte	.LFB439
 16578 003c 0C000000 		.4byte	.LFE439-.LFB439
 16579 0040 00000000 		.4byte	.LFB438
 16580 0044 A8000000 		.4byte	.LFE438-.LFB438
 16581 0048 00000000 		.4byte	.LFB436
 16582 004c A4000000 		.4byte	.LFE436-.LFB436
 16583 0050 00000000 		.4byte	.LFB443
 16584 0054 64000000 		.4byte	.LFE443-.LFB443
 16585 0058 00000000 		.4byte	.LFB444
 16586 005c 64000000 		.4byte	.LFE444-.LFB444
 16587 0060 00000000 		.4byte	.LFB445
 16588 0064 64000000 		.4byte	.LFE445-.LFB445
 16589 0068 00000000 		.4byte	.LFB446
 16590 006c 64000000 		.4byte	.LFE446-.LFB446
 16591 0070 00000000 		.4byte	.LFB447
 16592 0074 64000000 		.4byte	.LFE447-.LFB447
 16593 0078 00000000 		.4byte	.LFB448
 16594 007c EC000000 		.4byte	.LFE448-.LFB448
 16595 0080 00000000 		.4byte	.LFB449
 16596 0084 A0030000 		.4byte	.LFE449-.LFB449
 16597 0088 00000000 		.4byte	.LFB450
 16598 008c 04010000 		.4byte	.LFE450-.LFB450
 16599 0090 00000000 		.4byte	.LFB451
 16600 0094 5A000000 		.4byte	.LFE451-.LFB451
 16601 0098 00000000 		.4byte	.LFB452
 16602 009c 6E000000 		.4byte	.LFE452-.LFB452
 16603 00a0 00000000 		.4byte	.LFB453
 16604 00a4 6C000000 		.4byte	.LFE453-.LFB453
 16605 00a8 00000000 		.4byte	.LFB454
 16606 00ac 66000000 		.4byte	.LFE454-.LFB454
 16607 00b0 00000000 		.4byte	.LFB455
 16608 00b4 26000000 		.4byte	.LFE455-.LFB455
 16609 00b8 00000000 		.4byte	.LFB456
 16610 00bc 80000000 		.4byte	.LFE456-.LFB456
 16611 00c0 00000000 		.4byte	0
 16612 00c4 00000000 		.4byte	0
ARM GAS  C:\Users\DEVELO~1\AppData\Local\Temp\cc2saCCQ.s 			page 293


 16613              		.section	.debug_rnglists,"",%progbits
 16614              	.Ldebug_ranges0:
 16615 0000 F6010000 		.4byte	.Ldebug_ranges3-.Ldebug_ranges2
 16616              	.Ldebug_ranges2:
 16617 0004 0500     		.2byte	0x5
 16618 0006 04       		.byte	0x4
 16619 0007 00       		.byte	0
 16620 0008 00000000 		.4byte	0
 16621              	.LLRL4:
 16622 000c 05       		.byte	0x5
 16623 000d B2000000 		.4byte	.LBB275
 16624 0011 04       		.byte	0x4
 16625 0012 00       		.uleb128 .LBB275-.LBB275
 16626 0013 02       		.uleb128 .LBE275-.LBB275
 16627 0014 04       		.byte	0x4
 16628 0015 04       		.uleb128 .LBB288-.LBB275
 16629 0016 08       		.uleb128 .LBE288-.LBB275
 16630 0017 04       		.byte	0x4
 16631 0018 0A       		.uleb128 .LBB289-.LBB275
 16632 0019 0E       		.uleb128 .LBE289-.LBB275
 16633 001a 04       		.byte	0x4
 16634 001b 10       		.uleb128 .LBB290-.LBB275
 16635 001c 24       		.uleb128 .LBE290-.LBB275
 16636 001d 00       		.byte	0
 16637              	.LLRL6:
 16638 001e 05       		.byte	0x5
 16639 001f B2000000 		.4byte	.LBB277
 16640 0023 04       		.byte	0x4
 16641 0024 00       		.uleb128 .LBB277-.LBB277
 16642 0025 02       		.uleb128 .LBE277-.LBB277
 16643 0026 04       		.byte	0x4
 16644 0027 04       		.uleb128 .LBB282-.LBB277
 16645 0028 08       		.uleb128 .LBE282-.LBB277
 16646 0029 04       		.byte	0x4
 16647 002a 0A       		.uleb128 .LBB283-.LBB277
 16648 002b 0E       		.uleb128 .LBE283-.LBB277
 16649 002c 04       		.byte	0x4
 16650 002d 10       		.uleb128 .LBB284-.LBB277
 16651 002e 24       		.uleb128 .LBE284-.LBB277
 16652 002f 00       		.byte	0
 16653              	.LLRL10:
 16654 0030 05       		.byte	0x5
 16655 0031 02010000 		.4byte	.LBB295
 16656 0035 04       		.byte	0x4
 16657 0036 00       		.uleb128 .LBB295-.LBB295
 16658 0037 02       		.uleb128 .LBE295-.LBB295
 16659 0038 04       		.byte	0x4
 16660 0039 04       		.uleb128 .LBB308-.LBB295
 16661 003a 08       		.uleb128 .LBE308-.LBB295
 16662 003b 04       		.byte	0x4
 16663 003c 0A       		.uleb128 .LBB309-.LBB295
 16664 003d 0E       		.uleb128 .LBE309-.LBB295
 16665 003e 04       		.byte	0x4
 16666 003f 10       		.uleb128 .LBB310-.LBB295
 16667 0040 24       		.uleb128 .LBE310-.LBB295
 16668 0041 00       		.byte	0
 16669              	.LLRL12:
ARM GAS  C:\Users\DEVELO~1\AppData\Local\Temp\cc2saCCQ.s 			page 294


 16670 0042 05       		.byte	0x5
 16671 0043 02010000 		.4byte	.LBB297
 16672 0047 04       		.byte	0x4
 16673 0048 00       		.uleb128 .LBB297-.LBB297
 16674 0049 02       		.uleb128 .LBE297-.LBB297
 16675 004a 04       		.byte	0x4
 16676 004b 04       		.uleb128 .LBB302-.LBB297
 16677 004c 08       		.uleb128 .LBE302-.LBB297
 16678 004d 04       		.byte	0x4
 16679 004e 0A       		.uleb128 .LBB303-.LBB297
 16680 004f 0E       		.uleb128 .LBE303-.LBB297
 16681 0050 04       		.byte	0x4
 16682 0051 10       		.uleb128 .LBB304-.LBB297
 16683 0052 24       		.uleb128 .LBE304-.LBB297
 16684 0053 00       		.byte	0
 16685              	.LLRL14:
 16686 0054 05       		.byte	0x5
 16687 0055 2A010000 		.4byte	.LBB311
 16688 0059 04       		.byte	0x4
 16689 005a 00       		.uleb128 .LBB311-.LBB311
 16690 005b 02       		.uleb128 .LBE311-.LBB311
 16691 005c 04       		.byte	0x4
 16692 005d 04       		.uleb128 .LBB324-.LBB311
 16693 005e 08       		.uleb128 .LBE324-.LBB311
 16694 005f 04       		.byte	0x4
 16695 0060 0A       		.uleb128 .LBB325-.LBB311
 16696 0061 0E       		.uleb128 .LBE325-.LBB311
 16697 0062 04       		.byte	0x4
 16698 0063 10       		.uleb128 .LBB326-.LBB311
 16699 0064 24       		.uleb128 .LBE326-.LBB311
 16700 0065 00       		.byte	0
 16701              	.LLRL16:
 16702 0066 05       		.byte	0x5
 16703 0067 2A010000 		.4byte	.LBB313
 16704 006b 04       		.byte	0x4
 16705 006c 00       		.uleb128 .LBB313-.LBB313
 16706 006d 02       		.uleb128 .LBE313-.LBB313
 16707 006e 04       		.byte	0x4
 16708 006f 04       		.uleb128 .LBB318-.LBB313
 16709 0070 08       		.uleb128 .LBE318-.LBB313
 16710 0071 04       		.byte	0x4
 16711 0072 0A       		.uleb128 .LBB319-.LBB313
 16712 0073 0E       		.uleb128 .LBE319-.LBB313
 16713 0074 04       		.byte	0x4
 16714 0075 10       		.uleb128 .LBB320-.LBB313
 16715 0076 24       		.uleb128 .LBE320-.LBB313
 16716 0077 00       		.byte	0
 16717              	.LLRL19:
 16718 0078 05       		.byte	0x5
 16719 0079 94000000 		.4byte	.LBB329
 16720 007d 04       		.byte	0x4
 16721 007e 00       		.uleb128 .LBB329-.LBB329
 16722 007f 12       		.uleb128 .LBE329-.LBB329
 16723 0080 04       		.byte	0x4
 16724 0081 14       		.uleb128 .LBB332-.LBB329
 16725 0082 16       		.uleb128 .LBE332-.LBB329
 16726 0083 00       		.byte	0
ARM GAS  C:\Users\DEVELO~1\AppData\Local\Temp\cc2saCCQ.s 			page 295


 16727              	.LLRL23:
 16728 0084 05       		.byte	0x5
 16729 0085 00000000 		.4byte	.LBB333
 16730 0089 04       		.byte	0x4
 16731 008a 00       		.uleb128 .LBB333-.LBB333
 16732 008b 00       		.uleb128 .LBE333-.LBB333
 16733 008c 04       		.byte	0x4
 16734 008d 04       		.uleb128 .LBB336-.LBB333
 16735 008e 0A       		.uleb128 .LBE336-.LBB333
 16736 008f 00       		.byte	0
 16737              	.LLRL55:
 16738 0090 05       		.byte	0x5
 16739 0091 02000000 		.4byte	.LBB434
 16740 0095 04       		.byte	0x4
 16741 0096 00       		.uleb128 .LBB434-.LBB434
 16742 0097 02       		.uleb128 .LBE434-.LBB434
 16743 0098 04       		.byte	0x4
 16744 0099 08       		.uleb128 .LBB454-.LBB434
 16745 009a 16       		.uleb128 .LBE454-.LBB434
 16746 009b 04       		.byte	0x4
 16747 009c 24       		.uleb128 .LBB455-.LBB434
 16748 009d 48       		.uleb128 .LBE455-.LBB434
 16749 009e 00       		.byte	0
 16750              	.LLRL63:
 16751 009f 05       		.byte	0x5
 16752 00a0 02000000 		.4byte	.LBB475
 16753 00a4 04       		.byte	0x4
 16754 00a5 00       		.uleb128 .LBB475-.LBB475
 16755 00a6 02       		.uleb128 .LBE475-.LBB475
 16756 00a7 04       		.byte	0x4
 16757 00a8 08       		.uleb128 .LBB495-.LBB475
 16758 00a9 16       		.uleb128 .LBE495-.LBB475
 16759 00aa 04       		.byte	0x4
 16760 00ab 24       		.uleb128 .LBB496-.LBB475
 16761 00ac 48       		.uleb128 .LBE496-.LBB475
 16762 00ad 00       		.byte	0
 16763              	.LLRL71:
 16764 00ae 05       		.byte	0x5
 16765 00af 02000000 		.4byte	.LBB516
 16766 00b3 04       		.byte	0x4
 16767 00b4 00       		.uleb128 .LBB516-.LBB516
 16768 00b5 02       		.uleb128 .LBE516-.LBB516
 16769 00b6 04       		.byte	0x4
 16770 00b7 08       		.uleb128 .LBB536-.LBB516
 16771 00b8 16       		.uleb128 .LBE536-.LBB516
 16772 00b9 04       		.byte	0x4
 16773 00ba 24       		.uleb128 .LBB537-.LBB516
 16774 00bb 48       		.uleb128 .LBE537-.LBB516
 16775 00bc 00       		.byte	0
 16776              	.LLRL79:
 16777 00bd 05       		.byte	0x5
 16778 00be 02000000 		.4byte	.LBB557
 16779 00c2 04       		.byte	0x4
 16780 00c3 00       		.uleb128 .LBB557-.LBB557
 16781 00c4 02       		.uleb128 .LBE557-.LBB557
 16782 00c5 04       		.byte	0x4
 16783 00c6 08       		.uleb128 .LBB577-.LBB557
ARM GAS  C:\Users\DEVELO~1\AppData\Local\Temp\cc2saCCQ.s 			page 296


 16784 00c7 16       		.uleb128 .LBE577-.LBB557
 16785 00c8 04       		.byte	0x4
 16786 00c9 24       		.uleb128 .LBB578-.LBB557
 16787 00ca 48       		.uleb128 .LBE578-.LBB557
 16788 00cb 00       		.byte	0
 16789              	.LLRL87:
 16790 00cc 05       		.byte	0x5
 16791 00cd 02000000 		.4byte	.LBB598
 16792 00d1 04       		.byte	0x4
 16793 00d2 00       		.uleb128 .LBB598-.LBB598
 16794 00d3 02       		.uleb128 .LBE598-.LBB598
 16795 00d4 04       		.byte	0x4
 16796 00d5 08       		.uleb128 .LBB618-.LBB598
 16797 00d6 16       		.uleb128 .LBE618-.LBB598
 16798 00d7 04       		.byte	0x4
 16799 00d8 24       		.uleb128 .LBB619-.LBB598
 16800 00d9 48       		.uleb128 .LBE619-.LBB598
 16801 00da 00       		.byte	0
 16802              	.LLRL122:
 16803 00db 05       		.byte	0x5
 16804 00dc 82020000 		.4byte	.LBB684
 16805 00e0 04       		.byte	0x4
 16806 00e1 00       		.uleb128 .LBB684-.LBB684
 16807 00e2 24       		.uleb128 .LBE684-.LBB684
 16808 00e3 04       		.byte	0x4
 16809 00e4 DE01     		.uleb128 .LBB704-.LBB684
 16810 00e6 E401     		.uleb128 .LBE704-.LBB684
 16811 00e8 04       		.byte	0x4
 16812 00e9 E401     		.uleb128 .LBB705-.LBB684
 16813 00eb E801     		.uleb128 .LBE705-.LBB684
 16814 00ed 00       		.byte	0
 16815              	.LLRL131:
 16816 00ee 05       		.byte	0x5
 16817 00ef F2020000 		.4byte	.LBB694
 16818 00f3 04       		.byte	0x4
 16819 00f4 00       		.uleb128 .LBB694-.LBB694
 16820 00f5 22       		.uleb128 .LBE694-.LBB694
 16821 00f6 04       		.byte	0x4
 16822 00f7 A201     		.uleb128 .LBB706-.LBB694
 16823 00f9 A801     		.uleb128 .LBE706-.LBB694
 16824 00fb 04       		.byte	0x4
 16825 00fc A801     		.uleb128 .LBB707-.LBB694
 16826 00fe AC01     		.uleb128 .LBE707-.LBB694
 16827 0100 00       		.byte	0
 16828              	.LLRL147:
 16829 0101 05       		.byte	0x5
 16830 0102 30000000 		.4byte	.LBB722
 16831 0106 04       		.byte	0x4
 16832 0107 00       		.uleb128 .LBB722-.LBB722
 16833 0108 00       		.uleb128 .LBE722-.LBB722
 16834 0109 04       		.byte	0x4
 16835 010a 08       		.uleb128 .LBB727-.LBB722
 16836 010b 18       		.uleb128 .LBE727-.LBB722
 16837 010c 00       		.byte	0
 16838              	.LLRL152:
 16839 010d 05       		.byte	0x5
 16840 010e 30000000 		.4byte	.LBB732
ARM GAS  C:\Users\DEVELO~1\AppData\Local\Temp\cc2saCCQ.s 			page 297


 16841 0112 04       		.byte	0x4
 16842 0113 00       		.uleb128 .LBB732-.LBB732
 16843 0114 00       		.uleb128 .LBE732-.LBB732
 16844 0115 04       		.byte	0x4
 16845 0116 08       		.uleb128 .LBB737-.LBB732
 16846 0117 18       		.uleb128 .LBE737-.LBB732
 16847 0118 00       		.byte	0
 16848              	.LLRL156:
 16849 0119 05       		.byte	0x5
 16850 011a 30000000 		.4byte	.LBB742
 16851 011e 04       		.byte	0x4
 16852 011f 00       		.uleb128 .LBB742-.LBB742
 16853 0120 00       		.uleb128 .LBE742-.LBB742
 16854 0121 04       		.byte	0x4
 16855 0122 08       		.uleb128 .LBB747-.LBB742
 16856 0123 18       		.uleb128 .LBE747-.LBB742
 16857 0124 00       		.byte	0
 16858              	.LLRL160:
 16859 0125 05       		.byte	0x5
 16860 0126 30000000 		.4byte	.LBB752
 16861 012a 04       		.byte	0x4
 16862 012b 00       		.uleb128 .LBB752-.LBB752
 16863 012c 00       		.uleb128 .LBE752-.LBB752
 16864 012d 04       		.byte	0x4
 16865 012e 08       		.uleb128 .LBB757-.LBB752
 16866 012f 18       		.uleb128 .LBE757-.LBB752
 16867 0130 00       		.byte	0
 16868              	.LLRL169:
 16869 0131 05       		.byte	0x5
 16870 0132 06000000 		.4byte	.LBB766
 16871 0136 04       		.byte	0x4
 16872 0137 00       		.uleb128 .LBB766-.LBB766
 16873 0138 02       		.uleb128 .LBE766-.LBB766
 16874 0139 04       		.byte	0x4
 16875 013a 06       		.uleb128 .LBB772-.LBB766
 16876 013b 08       		.uleb128 .LBE772-.LBB766
 16877 013c 04       		.byte	0x4
 16878 013d 0C       		.uleb128 .LBB773-.LBB766
 16879 013e 16       		.uleb128 .LBE773-.LBB766
 16880 013f 00       		.byte	0
 16881              	.LLRL171:
 16882 0140 05       		.byte	0x5
 16883 0141 28000000 		.4byte	.LBB774
 16884 0145 04       		.byte	0x4
 16885 0146 00       		.uleb128 .LBB774-.LBB774
 16886 0147 0E       		.uleb128 .LBE774-.LBB774
 16887 0148 04       		.byte	0x4
 16888 0149 10       		.uleb128 .LBB780-.LBB774
 16889 014a 14       		.uleb128 .LBE780-.LBB774
 16890 014b 04       		.byte	0x4
 16891 014c 16       		.uleb128 .LBB782-.LBB774
 16892 014d 18       		.uleb128 .LBE782-.LBB774
 16893 014e 00       		.byte	0
 16894              	.LLRL174:
 16895 014f 05       		.byte	0x5
 16896 0150 36000000 		.4byte	.LBB775
 16897 0154 04       		.byte	0x4
ARM GAS  C:\Users\DEVELO~1\AppData\Local\Temp\cc2saCCQ.s 			page 298


 16898 0155 00       		.uleb128 .LBB775-.LBB775
 16899 0156 02       		.uleb128 .LBE775-.LBB775
 16900 0157 04       		.byte	0x4
 16901 0158 06       		.uleb128 .LBB781-.LBB775
 16902 0159 08       		.uleb128 .LBE781-.LBB775
 16903 015a 04       		.byte	0x4
 16904 015b 0A       		.uleb128 .LBB783-.LBB775
 16905 015c 1E       		.uleb128 .LBE783-.LBB775
 16906 015d 04       		.byte	0x4
 16907 015e 20       		.uleb128 .LBB784-.LBB775
 16908 015f 22       		.uleb128 .LBE784-.LBB775
 16909 0160 00       		.byte	0
 16910              	.LLRL176:
 16911 0161 05       		.byte	0x5
 16912 0162 60000000 		.4byte	.LBB785
 16913 0166 04       		.byte	0x4
 16914 0167 00       		.uleb128 .LBB785-.LBB785
 16915 0168 0C       		.uleb128 .LBE785-.LBB785
 16916 0169 04       		.byte	0x4
 16917 016a 0E       		.uleb128 .LBB786-.LBB785
 16918 016b 10       		.uleb128 .LBE786-.LBB785
 16919 016c 00       		.byte	0
 16920              	.LLRL179:
 16921 016d 07       		.byte	0x7
 16922 016e 00000000 		.4byte	.LFB461
 16923 0172 54       		.uleb128 .LFE461-.LFB461
 16924 0173 07       		.byte	0x7
 16925 0174 00000000 		.4byte	.LFB434
 16926 0178 EC02     		.uleb128 .LFE434-.LFB434
 16927 017a 07       		.byte	0x7
 16928 017b 00000000 		.4byte	.LFB435
 16929 017f B401     		.uleb128 .LFE435-.LFB435
 16930 0181 07       		.byte	0x7
 16931 0182 00000000 		.4byte	.LFB459
 16932 0186 38       		.uleb128 .LFE459-.LFB459
 16933 0187 07       		.byte	0x7
 16934 0188 00000000 		.4byte	.LFB437
 16935 018c 0A       		.uleb128 .LFE437-.LFB437
 16936 018d 07       		.byte	0x7
 16937 018e 00000000 		.4byte	.LFB439
 16938 0192 0C       		.uleb128 .LFE439-.LFB439
 16939 0193 07       		.byte	0x7
 16940 0194 00000000 		.4byte	.LFB438
 16941 0198 A801     		.uleb128 .LFE438-.LFB438
 16942 019a 07       		.byte	0x7
 16943 019b 00000000 		.4byte	.LFB436
 16944 019f A401     		.uleb128 .LFE436-.LFB436
 16945 01a1 07       		.byte	0x7
 16946 01a2 00000000 		.4byte	.LFB443
 16947 01a6 64       		.uleb128 .LFE443-.LFB443
 16948 01a7 07       		.byte	0x7
 16949 01a8 00000000 		.4byte	.LFB444
 16950 01ac 64       		.uleb128 .LFE444-.LFB444
 16951 01ad 07       		.byte	0x7
 16952 01ae 00000000 		.4byte	.LFB445
 16953 01b2 64       		.uleb128 .LFE445-.LFB445
 16954 01b3 07       		.byte	0x7
ARM GAS  C:\Users\DEVELO~1\AppData\Local\Temp\cc2saCCQ.s 			page 299


 16955 01b4 00000000 		.4byte	.LFB446
 16956 01b8 64       		.uleb128 .LFE446-.LFB446
 16957 01b9 07       		.byte	0x7
 16958 01ba 00000000 		.4byte	.LFB447
 16959 01be 64       		.uleb128 .LFE447-.LFB447
 16960 01bf 07       		.byte	0x7
 16961 01c0 00000000 		.4byte	.LFB448
 16962 01c4 EC01     		.uleb128 .LFE448-.LFB448
 16963 01c6 07       		.byte	0x7
 16964 01c7 00000000 		.4byte	.LFB449
 16965 01cb A007     		.uleb128 .LFE449-.LFB449
 16966 01cd 07       		.byte	0x7
 16967 01ce 00000000 		.4byte	.LFB450
 16968 01d2 8402     		.uleb128 .LFE450-.LFB450
 16969 01d4 07       		.byte	0x7
 16970 01d5 00000000 		.4byte	.LFB451
 16971 01d9 5A       		.uleb128 .LFE451-.LFB451
 16972 01da 07       		.byte	0x7
 16973 01db 00000000 		.4byte	.LFB452
 16974 01df 6E       		.uleb128 .LFE452-.LFB452
 16975 01e0 07       		.byte	0x7
 16976 01e1 00000000 		.4byte	.LFB453
 16977 01e5 6C       		.uleb128 .LFE453-.LFB453
 16978 01e6 07       		.byte	0x7
 16979 01e7 00000000 		.4byte	.LFB454
 16980 01eb 66       		.uleb128 .LFE454-.LFB454
 16981 01ec 07       		.byte	0x7
 16982 01ed 00000000 		.4byte	.LFB455
 16983 01f1 26       		.uleb128 .LFE455-.LFB455
 16984 01f2 07       		.byte	0x7
 16985 01f3 00000000 		.4byte	.LFB456
 16986 01f7 8001     		.uleb128 .LFE456-.LFB456
 16987 01f9 00       		.byte	0
 16988              	.Ldebug_ranges3:
 16989              		.section	.debug_line,"",%progbits
 16990              	.Ldebug_line0:
 16991 0000 FD230000 		.section	.debug_str,"MS",%progbits,1
 16991      0300C804 
 16991      00000201 
 16991      FB0E0D00 
 16991      01010101 
 16992              	.LASF138:
 16993 0000 41504231 		.ascii	"APB1HRSTR\000"
 16993      48525354 
 16993      5200
 16994              	.LASF11:
 16995 000a 6C6F6E67 		.ascii	"long int\000"
 16995      20696E74 
 16995      00
 16996              	.LASF222:
 16997 0013 636C6561 		.ascii	"clear\000"
 16997      7200
 16998              	.LASF101:
 16999 0019 42444D41 		.ascii	"BDMA_TypeDef\000"
 16999      5F547970 
 16999      65446566 
 16999      00
ARM GAS  C:\Users\DEVELO~1\AppData\Local\Temp\cc2saCCQ.s 			page 300


 17000              	.LASF219:
 17001 0026 62646D61 		.ascii	"bdma\000"
 17001      00
 17002              	.LASF322:
 17003 002b 72636352 		.ascii	"rccResetAPB1L\000"
 17003      65736574 
 17003      41504231 
 17003      4C00
 17004              	.LASF196:
 17005 0039 77746D74 		.ascii	"wtmtxp\000"
 17005      787000
 17006              	.LASF250:
 17007 0040 63697263 		.ascii	"circular\000"
 17007      756C6172 
 17007      00
 17008              	.LASF188:
 17009 0049 74687265 		.ascii	"thread_reference_t\000"
 17009      61645F72 
 17009      65666572 
 17009      656E6365 
 17009      5F7400
 17010              	.LASF227:
 17011 005c 42535252 		.ascii	"BSRR\000"
 17011      00
 17012              	.LASF312:
 17013 0061 7370695F 		.ascii	"spi_lld_stop_abort\000"
 17013      6C6C645F 
 17013      73746F70 
 17013      5F61626F 
 17013      727400
 17014              	.LASF185:
 17015 0074 63685F72 		.ascii	"ch_registry\000"
 17015      65676973 
 17015      74727900 
 17016              	.LASF161:
 17017 0080 41504232 		.ascii	"APB2LPENR\000"
 17017      4C50454E 
 17017      5200
 17018              	.LASF139:
 17019 008a 41504232 		.ascii	"APB2RSTR\000"
 17019      52535452 
 17019      00
 17020              	.LASF292:
 17021 0093 7370695F 		.ascii	"spi_lld_exchange\000"
 17021      6C6C645F 
 17021      65786368 
 17021      616E6765 
 17021      00
 17022              	.LASF38:
 17023 00a4 666C6167 		.ascii	"flags\000"
 17023      7300
 17024              	.LASF65:
 17025 00aa 73797374 		.ascii	"systime_t\000"
 17025      696D655F 
 17025      7400
 17026              	.LASF44:
 17027 00b4 7265616C 		.ascii	"realprio\000"
ARM GAS  C:\Users\DEVELO~1\AppData\Local\Temp\cc2saCCQ.s 			page 301


 17027      7072696F 
 17027      00
 17028              	.LASF89:
 17029 00bd 62756666 		.ascii	"buffer\000"
 17029      657200
 17030              	.LASF119:
 17031 00c4 504C4C33 		.ascii	"PLL3FRACR\000"
 17031      46524143 
 17031      5200
 17032              	.LASF342:
 17033 00ce 433A5C43 		.ascii	"C:\\ChibiStudio\\chibios2111\\demos\\STM32\\RT-STM3"
 17033      68696269 
 17033      53747564 
 17033      696F5C63 
 17033      68696269 
 17034 00fc 32483734 		.ascii	"2H743ZI_REV_XY-NUCLEO144 - Copie\000"
 17034      335A495F 
 17034      5245565F 
 17034      58592D4E 
 17034      55434C45 
 17035              	.LASF42:
 17036 011d 6570656E 		.ascii	"epending\000"
 17036      64696E67 
 17036      00
 17037              	.LASF0:
 17038 0126 756E7369 		.ascii	"unsigned int\000"
 17038      676E6564 
 17038      20696E74 
 17038      00
 17039              	.LASF69:
 17040 0133 6E657874 		.ascii	"next\000"
 17040      00
 17041              	.LASF19:
 17042 0138 75696E74 		.ascii	"uint32_t\000"
 17042      33325F74 
 17042      00
 17043              	.LASF87:
 17044 0141 73757370 		.ascii	"suspended\000"
 17044      656E6465 
 17044      6400
 17045              	.LASF264:
 17046 014b 62646D61 		.ascii	"bdmaStreamFreeI\000"
 17046      53747265 
 17046      616D4672 
 17046      65654900 
 17047              	.LASF171:
 17048 015b 54584352 		.ascii	"TXCRC\000"
 17048      4300
 17049              	.LASF52:
 17050 0161 636F7265 		.ascii	"core_id\000"
 17050      5F696400 
 17051              	.LASF110:
 17052 0169 44334346 		.ascii	"D3CFGR\000"
 17052      475200
 17053              	.LASF130:
 17054 0170 42444352 		.ascii	"BDCR\000"
 17054      00
ARM GAS  C:\Users\DEVELO~1\AppData\Local\Temp\cc2saCCQ.s 			page 302


 17055              	.LASF50:
 17056 0175 76746C69 		.ascii	"vtlist\000"
 17056      737400
 17057              	.LASF39:
 17058 017c 72656673 		.ascii	"refs\000"
 17058      00
 17059              	.LASF104:
 17060 0181 43525243 		.ascii	"CRRCR\000"
 17060      5200
 17061              	.LASF164:
 17062 0187 5243435F 		.ascii	"RCC_TypeDef\000"
 17062      54797065 
 17062      44656600 
 17063              	.LASF253:
 17064 0193 6572726F 		.ascii	"error_cb\000"
 17064      725F6362 
 17064      00
 17065              	.LASF79:
 17066 019c 77746F62 		.ascii	"wtobjp\000"
 17066      6A7000
 17067              	.LASF337:
 17068 01a3 706F7274 		.ascii	"port_lock\000"
 17068      5F6C6F63 
 17068      6B00
 17069              	.LASF309:
 17070 01ad 7370695F 		.ascii	"spi_lld_serve_bdma_tx_interrupt\000"
 17070      6C6C645F 
 17070      73657276 
 17070      655F6264 
 17070      6D615F74 
 17071              	.LASF118:
 17072 01cd 504C4C33 		.ascii	"PLL3DIVR\000"
 17072      44495652 
 17072      00
 17073              	.LASF267:
 17074 01d6 62646D61 		.ascii	"bdmaStreamAllocI\000"
 17074      53747265 
 17074      616D416C 
 17074      6C6F6349 
 17074      00
 17075              	.LASF179:
 17076 01e7 706F7274 		.ascii	"port_context\000"
 17076      5F636F6E 
 17076      74657874 
 17076      00
 17077              	.LASF335:
 17078 01f4 706F7274 		.ascii	"port_lock_from_isr\000"
 17078      5F6C6F63 
 17078      6B5F6672 
 17078      6F6D5F69 
 17078      737200
 17079              	.LASF70:
 17080 0207 63685F71 		.ascii	"ch_queue_t\000"
 17080      75657565 
 17080      5F7400
 17081              	.LASF200:
 17082 0212 63685F72 		.ascii	"ch_ready_list\000"
ARM GAS  C:\Users\DEVELO~1\AppData\Local\Temp\cc2saCCQ.s 			page 303


 17082      65616479 
 17082      5F6C6973 
 17082      7400
 17083              	.LASF91:
 17084 0220 4E445452 		.ascii	"NDTR\000"
 17084      00
 17085              	.LASF183:
 17086 0225 6C617374 		.ascii	"laststamp\000"
 17086      7374616D 
 17086      7000
 17087              	.LASF127:
 17088 022f 43494652 		.ascii	"CIFR\000"
 17088      00
 17089              	.LASF290:
 17090 0234 74786275 		.ascii	"txbuf\000"
 17090      6600
 17091              	.LASF72:
 17092 023a 70726576 		.ascii	"prev\000"
 17092      00
 17093              	.LASF156:
 17094 023f 41484232 		.ascii	"AHB2LPENR\000"
 17094      4C50454E 
 17094      5200
 17095              	.LASF333:
 17096 0249 63685379 		.ascii	"chSysLockFromISR\000"
 17096      734C6F63 
 17096      6B46726F 
 17096      6D495352 
 17096      00
 17097              	.LASF266:
 17098 025a 646D6153 		.ascii	"dmaStreamFreeI\000"
 17098      74726561 
 17098      6D467265 
 17098      654900
 17099              	.LASF68:
 17100 0269 63685F6C 		.ascii	"ch_list\000"
 17100      69737400 
 17101              	.LASF218:
 17102 0271 73746D33 		.ascii	"stm32_bdmaisr_t\000"
 17102      325F6264 
 17102      6D616973 
 17102      725F7400 
 17103              	.LASF172:
 17104 0281 52584352 		.ascii	"RXCRC\000"
 17104      4300
 17105              	.LASF148:
 17106 0287 41504233 		.ascii	"APB3ENR\000"
 17106      454E5200 
 17107              	.LASF319:
 17108 028f 72636352 		.ascii	"rccResetAPB2\000"
 17108      65736574 
 17108      41504232 
 17108      00
 17109              	.LASF95:
 17110 029c 434E4454 		.ascii	"CNDTR\000"
 17110      5200
 17111              	.LASF316:
ARM GAS  C:\Users\DEVELO~1\AppData\Local\Temp\cc2saCCQ.s 			page 304


 17112 02a2 72636352 		.ascii	"rccResetAPB4\000"
 17112      65736574 
 17112      41504234 
 17112      00
 17113              	.LASF61:
 17114 02af 63685F73 		.ascii	"ch_system_debug\000"
 17114      79737465 
 17114      6D5F6465 
 17114      62756700 
 17115              	.LASF258:
 17116 02bf 73706963 		.ascii	"spicb_t\000"
 17116      625F7400 
 17117              	.LASF189:
 17118 02c7 6C697374 		.ascii	"list\000"
 17118      00
 17119              	.LASF254:
 17120 02cc 7373706F 		.ascii	"ssport\000"
 17120      727400
 17121              	.LASF273:
 17122 02d3 63685468 		.ascii	"chThdResumeI\000"
 17122      64526573 
 17122      756D6549 
 17122      00
 17123              	.LASF272:
 17124 02e0 7370694F 		.ascii	"spiObjectInit\000"
 17124      626A6563 
 17124      74496E69 
 17124      7400
 17125              	.LASF323:
 17126 02ee 72636344 		.ascii	"rccDisableAPB1L\000"
 17126      69736162 
 17126      6C654150 
 17126      42314C00 
 17127              	.LASF77:
 17128 02fe 63685F64 		.ascii	"ch_delta_list\000"
 17128      656C7461 
 17128      5F6C6973 
 17128      7400
 17129              	.LASF278:
 17130 030c 6473697A 		.ascii	"dsize\000"
 17130      6500
 17131              	.LASF194:
 17132 0312 73656E74 		.ascii	"sentmsg\000"
 17132      6D736700 
 17133              	.LASF29:
 17134 031a 6576656E 		.ascii	"eventmask_t\000"
 17134      746D6173 
 17134      6B5F7400 
 17135              	.LASF213:
 17136 0326 69666372 		.ascii	"ifcr\000"
 17136      00
 17137              	.LASF302:
 17138 032b 72787374 		.ascii	"rxstream\000"
 17138      7265616D 
 17138      00
 17139              	.LASF86:
 17140 0334 74726163 		.ascii	"trace_event_t\000"
ARM GAS  C:\Users\DEVELO~1\AppData\Local\Temp\cc2saCCQ.s 			page 305


 17140      655F6576 
 17140      656E745F 
 17140      7400
 17141              	.LASF176:
 17142 0342 666C6F61 		.ascii	"float\000"
 17142      7400
 17143              	.LASF242:
 17144 0348 6D757465 		.ascii	"mutex\000"
 17144      7800
 17145              	.LASF214:
 17146 034e 73686966 		.ascii	"shift\000"
 17146      7400
 17147              	.LASF115:
 17148 0354 504C4C31 		.ascii	"PLL1FRACR\000"
 17148      46524143 
 17148      5200
 17149              	.LASF310:
 17150 035e 7370695F 		.ascii	"spi_lld_serve_dma_rx_interrupt\000"
 17150      6C6C645F 
 17150      73657276 
 17150      655F646D 
 17150      615F7278 
 17151              	.LASF145:
 17152 037d 41484231 		.ascii	"AHB1ENR\000"
 17152      454E5200 
 17153              	.LASF27:
 17154 0385 74707269 		.ascii	"tprio_t\000"
 17154      6F5F7400 
 17155              	.LASF137:
 17156 038d 41504231 		.ascii	"APB1LRSTR\000"
 17156      4C525354 
 17156      5200
 17157              	.LASF294:
 17158 0397 7370695F 		.ascii	"spi_lld_start\000"
 17158      6C6C645F 
 17158      73746172 
 17158      7400
 17159              	.LASF208:
 17160 03a5 6F735F69 		.ascii	"os_instance_config_t\000"
 17160      6E737461 
 17160      6E63655F 
 17160      636F6E66 
 17160      69675F74 
 17161              	.LASF81:
 17162 03ba 68616C74 		.ascii	"halt\000"
 17162      00
 17163              	.LASF15:
 17164 03bf 6C6F6E67 		.ascii	"long long unsigned int\000"
 17164      206C6F6E 
 17164      6720756E 
 17164      7369676E 
 17164      65642069 
 17165              	.LASF159:
 17166 03d6 41504231 		.ascii	"APB1LLPENR\000"
 17166      4C4C5045 
 17166      4E5200
 17167              	.LASF301:
ARM GAS  C:\Users\DEVELO~1\AppData\Local\Temp\cc2saCCQ.s 			page 306


 17168 03e1 56656374 		.ascii	"VectorCC\000"
 17168      6F724343 
 17168      00
 17169              	.LASF285:
 17170 03ea 7370695F 		.ascii	"spi_lld_stop_transfer\000"
 17170      6C6C645F 
 17170      73746F70 
 17170      5F747261 
 17170      6E736665 
 17171              	.LASF280:
 17172 0400 74786472 		.ascii	"txdrp8\000"
 17172      703800
 17173              	.LASF80:
 17174 0407 72656173 		.ascii	"reason\000"
 17174      6F6E00
 17175              	.LASF216:
 17176 040e 76656374 		.ascii	"vector\000"
 17176      6F7200
 17177              	.LASF190:
 17178 0415 70717565 		.ascii	"pqueue\000"
 17178      756500
 17179              	.LASF8:
 17180 041c 5F5F7569 		.ascii	"__uint16_t\000"
 17180      6E743136 
 17180      5F7400
 17181              	.LASF30:
 17182 0427 636E745F 		.ascii	"cnt_t\000"
 17182      7400
 17183              	.LASF223:
 17184 042d 4D4F4445 		.ascii	"MODER\000"
 17184      5200
 17185              	.LASF283:
 17186 0433 72786472 		.ascii	"rxdrp16\000"
 17186      70313600 
 17187              	.LASF240:
 17188 043b 68616C5F 		.ascii	"hal_spi_driver\000"
 17188      7370695F 
 17188      64726976 
 17188      657200
 17189              	.LASF85:
 17190 044a 74696D65 		.ascii	"time\000"
 17190      00
 17191              	.LASF230:
 17192 044f 41465248 		.ascii	"AFRH\000"
 17192      00
 17193              	.LASF231:
 17194 0454 73746D33 		.ascii	"stm32_gpio_t\000"
 17194      325F6770 
 17194      696F5F74 
 17194      00
 17195              	.LASF34:
 17196 0461 6F776E65 		.ascii	"owner\000"
 17196      7200
 17197              	.LASF132:
 17198 0467 41484233 		.ascii	"AHB3RSTR\000"
 17198      52535452 
 17198      00
ARM GAS  C:\Users\DEVELO~1\AppData\Local\Temp\cc2saCCQ.s 			page 307


 17199              	.LASF205:
 17200 0470 6D61696E 		.ascii	"mainthread_end\000"
 17200      74687265 
 17200      61645F65 
 17200      6E6400
 17201              	.LASF300:
 17202 047f 56656374 		.ascii	"VectorD0\000"
 17202      6F724430 
 17202      00
 17203              	.LASF43:
 17204 0488 6D74786C 		.ascii	"mtxlist\000"
 17204      69737400 
 17205              	.LASF180:
 17206 0490 63685F76 		.ascii	"ch_virtual_timers_list\000"
 17206      69727475 
 17206      616C5F74 
 17206      696D6572 
 17206      735F6C69 
 17207              	.LASF53:
 17208 04a7 72666375 		.ascii	"rfcu\000"
 17208      00
 17209              	.LASF339:
 17210 04ac 62617365 		.ascii	"basePri\000"
 17210      50726900 
 17211              	.LASF32:
 17212 04b4 74687265 		.ascii	"thread_t\000"
 17212      61645F74 
 17212      00
 17213              	.LASF332:
 17214 04bd 63685379 		.ascii	"chSysUnlockFromISR\000"
 17214      73556E6C 
 17214      6F636B46 
 17214      726F6D49 
 17214      535200
 17215              	.LASF149:
 17216 04d0 41504231 		.ascii	"APB1LENR\000"
 17216      4C454E52 
 17216      00
 17217              	.LASF82:
 17218 04d9 75736572 		.ascii	"user\000"
 17218      00
 17219              	.LASF162:
 17220 04de 41504234 		.ascii	"APB4LPENR\000"
 17220      4C50454E 
 17220      5200
 17221              	.LASF4:
 17222 04e8 73697A65 		.ascii	"size_t\000"
 17222      5F7400
 17223              	.LASF191:
 17224 04ef 7264796D 		.ascii	"rdymsg\000"
 17224      736700
 17225              	.LASF169:
 17226 04f6 52584452 		.ascii	"RXDR\000"
 17226      00
 17227              	.LASF330:
 17228 04fb 6F73616C 		.ascii	"osalSysLockFromISR\000"
 17228      5379734C 
ARM GAS  C:\Users\DEVELO~1\AppData\Local\Temp\cc2saCCQ.s 			page 308


 17228      6F636B46 
 17228      726F6D49 
 17228      535200
 17229              	.LASF298:
 17230 050e 56656374 		.ascii	"Vector194\000"
 17230      6F723139 
 17230      3400
 17231              	.LASF73:
 17232 0518 63685F70 		.ascii	"ch_priority_queue_t\000"
 17232      72696F72 
 17232      6974795F 
 17232      71756575 
 17232      655F7400 
 17233              	.LASF177:
 17234 052c 646F7562 		.ascii	"double\000"
 17234      6C6500
 17235              	.LASF297:
 17236 0533 56656374 		.ascii	"Vector198\000"
 17236      6F723139 
 17236      3800
 17237              	.LASF210:
 17238 053d 5F426F6F 		.ascii	"_Bool\000"
 17238      6C00
 17239              	.LASF327:
 17240 0543 5F5F7263 		.ascii	"__rccResetAPB1L\000"
 17240      63526573 
 17240      65744150 
 17240      42314C00 
 17241              	.LASF140:
 17242 0553 41504234 		.ascii	"APB4RSTR\000"
 17242      52535452 
 17242      00
 17243              	.LASF58:
 17244 055c 63685F72 		.ascii	"ch_rfcu\000"
 17244      66637500 
 17245              	.LASF199:
 17246 0564 63685F6D 		.ascii	"ch_mutex\000"
 17246      75746578 
 17246      00
 17247              	.LASF248:
 17248 056d 53504943 		.ascii	"SPIConfig\000"
 17248      6F6E6669 
 17248      6700
 17249              	.LASF92:
 17250 0577 4D304152 		.ascii	"M0AR\000"
 17250      00
 17251              	.LASF48:
 17252 057c 63685F6F 		.ascii	"ch_os_instance\000"
 17252      735F696E 
 17252      7374616E 
 17252      636500
 17253              	.LASF144:
 17254 058b 41484233 		.ascii	"AHB3ENR\000"
 17254      454E5200 
 17255              	.LASF232:
 17256 0593 696F706F 		.ascii	"ioportid_t\000"
 17256      72746964 
ARM GAS  C:\Users\DEVELO~1\AppData\Local\Temp\cc2saCCQ.s 			page 309


 17256      5F7400
 17257              	.LASF229:
 17258 059e 4146524C 		.ascii	"AFRL\000"
 17258      00
 17259              	.LASF122:
 17260 05a3 44324343 		.ascii	"D2CCIP1R\000"
 17260      49503152 
 17260      00
 17261              	.LASF226:
 17262 05ac 50555044 		.ascii	"PUPDR\000"
 17262      5200
 17263              	.LASF251:
 17264 05b2 736C6176 		.ascii	"slave\000"
 17264      6500
 17265              	.LASF211:
 17266 05b8 73746D33 		.ascii	"stm32_dmaisr_t\000"
 17266      325F646D 
 17266      61697372 
 17266      5F7400
 17267              	.LASF207:
 17268 05c7 69646C65 		.ascii	"idlethread_end\000"
 17268      74687265 
 17268      61645F65 
 17268      6E6400
 17269              	.LASF75:
 17270 05d6 7072696F 		.ascii	"prio\000"
 17270      00
 17271              	.LASF306:
 17272 05db 7370695F 		.ascii	"spi_lld_get_dma\000"
 17272      6C6C645F 
 17272      6765745F 
 17272      646D6100 
 17273              	.LASF296:
 17274 05eb 7370695F 		.ascii	"spi_lld_init\000"
 17274      6C6C645F 
 17274      696E6974 
 17274      00
 17275              	.LASF305:
 17276 05f8 7370695F 		.ascii	"spi_lld_get_bdma\000"
 17276      6C6C645F 
 17276      6765745F 
 17276      62646D61 
 17276      00
 17277              	.LASF63:
 17278 0609 63686172 		.ascii	"char\000"
 17278      00
 17279              	.LASF76:
 17280 060e 63685F64 		.ascii	"ch_delta_list_t\000"
 17280      656C7461 
 17280      5F6C6973 
 17280      745F7400 
 17281              	.LASF57:
 17282 061e 72666375 		.ascii	"rfcu_mask_t\000"
 17282      5F6D6173 
 17282      6B5F7400 
 17283              	.LASF10:
 17284 062a 5F5F696E 		.ascii	"__int32_t\000"
ARM GAS  C:\Users\DEVELO~1\AppData\Local\Temp\cc2saCCQ.s 			page 310


 17284      7433325F 
 17284      7400
 17285              	.LASF157:
 17286 0634 41484234 		.ascii	"AHB4LPENR\000"
 17286      4C50454E 
 17286      5200
 17287              	.LASF117:
 17288 063e 504C4C32 		.ascii	"PLL2FRACR\000"
 17288      46524143 
 17288      5200
 17289              	.LASF245:
 17290 0648 7478646D 		.ascii	"txdmamode\000"
 17290      616D6F64 
 17290      6500
 17291              	.LASF36:
 17292 0652 77616261 		.ascii	"wabase\000"
 17292      736500
 17293              	.LASF344:
 17294 0659 7370695F 		.ascii	"spi_lld_stop_nicely\000"
 17294      6C6C645F 
 17294      73746F70 
 17294      5F6E6963 
 17294      656C7900 
 17295              	.LASF25:
 17296 066d 74737461 		.ascii	"tstate_t\000"
 17296      74655F74 
 17296      00
 17297              	.LASF109:
 17298 0676 44324346 		.ascii	"D2CFGR\000"
 17298      475200
 17299              	.LASF204:
 17300 067d 6D61696E 		.ascii	"mainthread_base\000"
 17300      74687265 
 17300      61645F62 
 17300      61736500 
 17301              	.LASF217:
 17302 068d 73746D33 		.ascii	"stm32_dma_stream_t\000"
 17302      325F646D 
 17302      615F7374 
 17302      7265616D 
 17302      5F7400
 17303              	.LASF14:
 17304 06a0 5F5F7569 		.ascii	"__uint64_t\000"
 17304      6E743634 
 17304      5F7400
 17305              	.LASF123:
 17306 06ab 44324343 		.ascii	"D2CCIP2R\000"
 17306      49503252 
 17306      00
 17307              	.LASF16:
 17308 06b4 75696E74 		.ascii	"uint8_t\000"
 17308      385F7400 
 17309              	.LASF126:
 17310 06bc 43494552 		.ascii	"CIER\000"
 17310      00
 17311              	.LASF269:
 17312 06c1 62646D61 		.ascii	"bdmaSetRequestSource\000"
ARM GAS  C:\Users\DEVELO~1\AppData\Local\Temp\cc2saCCQ.s 			page 311


 17312      53657452 
 17312      65717565 
 17312      7374536F 
 17312      75726365 
 17313              	.LASF41:
 17314 06d6 6D736771 		.ascii	"msgqueue\000"
 17314      75657565 
 17314      00
 17315              	.LASF116:
 17316 06df 504C4C32 		.ascii	"PLL2DIVR\000"
 17316      44495652 
 17316      00
 17317              	.LASF286:
 17318 06e8 73697A65 		.ascii	"sizep\000"
 17318      7000
 17319              	.LASF212:
 17320 06ee 73747265 		.ascii	"stream\000"
 17320      616D00
 17321              	.LASF47:
 17322 06f5 63685F74 		.ascii	"ch_thread\000"
 17322      68726561 
 17322      6400
 17323              	.LASF168:
 17324 06ff 54584452 		.ascii	"TXDR\000"
 17324      00
 17325              	.LASF315:
 17326 0704 7370695F 		.ascii	"spi_lld_configure\000"
 17326      6C6C645F 
 17326      636F6E66 
 17326      69677572 
 17326      6500
 17327              	.LASF313:
 17328 0716 7370695F 		.ascii	"spi_lld_suspend\000"
 17328      6C6C645F 
 17328      73757370 
 17328      656E6400 
 17329              	.LASF343:
 17330 0726 5F5F706F 		.ascii	"__port_irq_epilogue\000"
 17330      72745F69 
 17330      72715F65 
 17330      70696C6F 
 17330      67756500 
 17331              	.LASF33:
 17332 073a 72717565 		.ascii	"rqueue\000"
 17332      756500
 17333              	.LASF64:
 17334 0741 73797374 		.ascii	"system_debug_t\000"
 17334      656D5F64 
 17334      65627567 
 17334      5F7400
 17335              	.LASF1:
 17336 0750 6C6F6E67 		.ascii	"long long int\000"
 17336      206C6F6E 
 17336      6720696E 
 17336      7400
 17337              	.LASF21:
 17338 075e 75696E74 		.ascii	"uint_fast8_t\000"
ARM GAS  C:\Users\DEVELO~1\AppData\Local\Temp\cc2saCCQ.s 			page 312


 17338      5F666173 
 17338      74385F74 
 17338      00
 17339              	.LASF28:
 17340 076b 6D73675F 		.ascii	"msg_t\000"
 17340      7400
 17341              	.LASF99:
 17342 0771 42444D41 		.ascii	"BDMA_Channel_TypeDef\000"
 17342      5F436861 
 17342      6E6E656C 
 17342      5F547970 
 17342      65446566 
 17343              	.LASF187:
 17344 0786 72656769 		.ascii	"registry_t\000"
 17344      73747279 
 17344      5F7400
 17345              	.LASF331:
 17346 0791 6F73616C 		.ascii	"osalSysHalt\000"
 17346      53797348 
 17346      616C7400 
 17347              	.LASF236:
 17348 079d 5350495F 		.ascii	"SPI_ACTIVE\000"
 17348      41435449 
 17348      564500
 17349              	.LASF311:
 17350 07a8 7370695F 		.ascii	"spi_lld_serve_bdma_rx_interrupt\000"
 17350      6C6C645F 
 17350      73657276 
 17350      655F6264 
 17350      6D615F72 
 17351              	.LASF299:
 17352 07c8 56656374 		.ascii	"Vector10C\000"
 17352      6F723130 
 17352      4300
 17353              	.LASF94:
 17354 07d2 444D415F 		.ascii	"DMA_Stream_TypeDef\000"
 17354      53747265 
 17354      616D5F54 
 17354      79706544 
 17354      656600
 17355              	.LASF88:
 17356 07e5 73697A65 		.ascii	"size\000"
 17356      00
 17357              	.LASF287:
 17358 07ea 7370695F 		.ascii	"spi_lld_receive\000"
 17358      6C6C645F 
 17358      72656365 
 17358      69766500 
 17359              	.LASF59:
 17360 07fa 6D61736B 		.ascii	"mask\000"
 17360      00
 17361              	.LASF249:
 17362 07ff 68616C5F 		.ascii	"hal_spi_config\000"
 17362      7370695F 
 17362      636F6E66 
 17362      696700
 17363              	.LASF133:
ARM GAS  C:\Users\DEVELO~1\AppData\Local\Temp\cc2saCCQ.s 			page 313


 17364 080e 41484231 		.ascii	"AHB1RSTR\000"
 17364      52535452 
 17364      00
 17365              	.LASF66:
 17366 0817 73797369 		.ascii	"sysinterval_t\000"
 17366      6E746572 
 17366      76616C5F 
 17366      7400
 17367              	.LASF151:
 17368 0825 41504232 		.ascii	"APB2ENR\000"
 17368      454E5200 
 17369              	.LASF62:
 17370 082d 70616E69 		.ascii	"panic_msg\000"
 17370      635F6D73 
 17370      6700
 17371              	.LASF142:
 17372 0837 4433414D 		.ascii	"D3AMR\000"
 17372      5200
 17373              	.LASF90:
 17374 083d 74726163 		.ascii	"trace_buffer_t\000"
 17374      655F6275 
 17374      66666572 
 17374      5F7400
 17375              	.LASF102:
 17376 084c 444D414D 		.ascii	"DMAMUX_Channel_TypeDef\000"
 17376      55585F43 
 17376      68616E6E 
 17376      656C5F54 
 17376      79706544 
 17377              	.LASF24:
 17378 0863 746D6F64 		.ascii	"tmode_t\000"
 17378      655F7400 
 17379              	.LASF155:
 17380 086b 41484231 		.ascii	"AHB1LPENR\000"
 17380      4C50454E 
 17380      5200
 17381              	.LASF279:
 17382 0875 72786672 		.ascii	"rxframe\000"
 17382      616D6500 
 17383              	.LASF225:
 17384 087d 4F535045 		.ascii	"OSPEEDR\000"
 17384      45445200 
 17385              	.LASF326:
 17386 0885 5F5F7263 		.ascii	"__rccResetAPB2\000"
 17386      63526573 
 17386      65744150 
 17386      423200
 17387              	.LASF325:
 17388 0894 5F5F7263 		.ascii	"__rccResetAPB4\000"
 17388      63526573 
 17388      65744150 
 17388      423400
 17389              	.LASF228:
 17390 08a3 4C4F434B 		.ascii	"LOCKR\000"
 17390      5200
 17391              	.LASF2:
 17392 08a9 6C6F6E67 		.ascii	"long double\000"
ARM GAS  C:\Users\DEVELO~1\AppData\Local\Temp\cc2saCCQ.s 			page 314


 17392      20646F75 
 17392      626C6500 
 17393              	.LASF17:
 17394 08b5 75696E74 		.ascii	"uint16_t\000"
 17394      31365F74 
 17394      00
 17395              	.LASF67:
 17396 08be 63685F6C 		.ascii	"ch_list_t\000"
 17396      6973745F 
 17396      7400
 17397              	.LASF134:
 17398 08c8 41484232 		.ascii	"AHB2RSTR\000"
 17398      52535452 
 17398      00
 17399              	.LASF233:
 17400 08d1 5350495F 		.ascii	"SPI_UNINIT\000"
 17400      554E494E 
 17400      495400
 17401              	.LASF220:
 17402 08dc 6368616E 		.ascii	"channel\000"
 17402      6E656C00 
 17403              	.LASF259:
 17404 08e4 53504944 		.ascii	"SPID1\000"
 17404      3100
 17405              	.LASF260:
 17406 08ea 53504944 		.ascii	"SPID2\000"
 17406      3200
 17407              	.LASF261:
 17408 08f0 53504944 		.ascii	"SPID3\000"
 17408      3300
 17409              	.LASF271:
 17410 08f6 6E766963 		.ascii	"nvicEnableVector\000"
 17410      456E6162 
 17410      6C655665 
 17410      63746F72 
 17410      00
 17411              	.LASF262:
 17412 0907 53504944 		.ascii	"SPID5\000"
 17412      3500
 17413              	.LASF263:
 17414 090d 53504944 		.ascii	"SPID6\000"
 17414      3600
 17415              	.LASF128:
 17416 0913 43494352 		.ascii	"CICR\000"
 17416      00
 17417              	.LASF103:
 17418 0918 48534943 		.ascii	"HSICFGR\000"
 17418      46475200 
 17419              	.LASF54:
 17420 0920 636F6E66 		.ascii	"config\000"
 17420      696700
 17421              	.LASF340:
 17422 0927 474E5520 		.ascii	"GNU C17 11.3.1 20220712 -mcpu=cortex-m7 -mthumb -mf"
 17422      43313720 
 17422      31312E33 
 17422      2E312032 
 17422      30323230 
ARM GAS  C:\Users\DEVELO~1\AppData\Local\Temp\cc2saCCQ.s 			page 315


 17423 095a 6C6F6174 		.ascii	"loat-abi=soft -march=armv7e-m -ggdb -O2 -fomit-fram"
 17423      2D616269 
 17423      3D736F66 
 17423      74202D6D 
 17423      61726368 
 17424 098d 652D706F 		.ascii	"e-pointer -falign-functions=16 -ffunction-sections "
 17424      696E7465 
 17424      72202D66 
 17424      616C6967 
 17424      6E2D6675 
 17425 09c0 2D666461 		.ascii	"-fdata-sections -fno-common\000"
 17425      74612D73 
 17425      65637469 
 17425      6F6E7320 
 17425      2D666E6F 
 17426              	.LASF293:
 17427 09dc 7370695F 		.ascii	"spi_lld_ignore\000"
 17427      6C6C645F 
 17427      69676E6F 
 17427      726500
 17428              	.LASF167:
 17429 09eb 52455345 		.ascii	"RESERVED0\000"
 17429      52564544 
 17429      3000
 17430              	.LASF107:
 17431 09f5 52455345 		.ascii	"RESERVED1\000"
 17431      52564544 
 17431      3100
 17432              	.LASF111:
 17433 09ff 52455345 		.ascii	"RESERVED2\000"
 17433      52564544 
 17433      3200
 17434              	.LASF120:
 17435 0a09 52455345 		.ascii	"RESERVED3\000"
 17435      52564544 
 17435      3300
 17436              	.LASF125:
 17437 0a13 52455345 		.ascii	"RESERVED4\000"
 17437      52564544 
 17437      3400
 17438              	.LASF131:
 17439 0a1d 52455345 		.ascii	"RESERVED6\000"
 17439      52564544 
 17439      3600
 17440              	.LASF7:
 17441 0a27 73686F72 		.ascii	"short int\000"
 17441      7420696E 
 17441      7400
 17442              	.LASF141:
 17443 0a31 52455345 		.ascii	"RESERVED8\000"
 17443      52564544 
 17443      3800
 17444              	.LASF284:
 17445 0a3b 7370695F 		.ascii	"spi_lld_polled_exchange\000"
 17445      6C6C645F 
 17445      706F6C6C 
 17445      65645F65 
ARM GAS  C:\Users\DEVELO~1\AppData\Local\Temp\cc2saCCQ.s 			page 316


 17445      78636861 
 17446              	.LASF158:
 17447 0a53 41504233 		.ascii	"APB3LPENR\000"
 17447      4C50454E 
 17447      5200
 17448              	.LASF150:
 17449 0a5d 41504231 		.ascii	"APB1HENR\000"
 17449      48454E52 
 17449      00
 17450              	.LASF178:
 17451 0a66 706F7274 		.ascii	"port_intctx\000"
 17451      5F696E74 
 17451      63747800 
 17452              	.LASF238:
 17453 0a72 73706973 		.ascii	"spistate_t\000"
 17453      74617465 
 17453      5F7400
 17454              	.LASF170:
 17455 0a7d 43524350 		.ascii	"CRCPOLY\000"
 17455      4F4C5900 
 17456              	.LASF165:
 17457 0a85 43464731 		.ascii	"CFG1\000"
 17457      00
 17458              	.LASF166:
 17459 0a8a 43464732 		.ascii	"CFG2\000"
 17459      00
 17460              	.LASF136:
 17461 0a8f 41504233 		.ascii	"APB3RSTR\000"
 17461      52535452 
 17461      00
 17462              	.LASF22:
 17463 0a98 706F7274 		.ascii	"port_stkalign_t\000"
 17463      5F73746B 
 17463      616C6967 
 17463      6E5F7400 
 17464              	.LASF282:
 17465 0aa8 74786472 		.ascii	"txdrp16\000"
 17465      70313600 
 17466              	.LASF304:
 17467 0ab0 7072696F 		.ascii	"priority\000"
 17467      72697479 
 17467      00
 17468              	.LASF135:
 17469 0ab9 41484234 		.ascii	"AHB4RSTR\000"
 17469      52535452 
 17469      00
 17470              	.LASF173:
 17471 0ac2 55445244 		.ascii	"UDRDR\000"
 17471      5200
 17472              	.LASF224:
 17473 0ac8 4F545950 		.ascii	"OTYPER\000"
 17473      455200
 17474              	.LASF338:
 17475 0acf 5F5F7365 		.ascii	"__set_BASEPRI\000"
 17475      745F4241 
 17475      53455052 
 17475      4900
ARM GAS  C:\Users\DEVELO~1\AppData\Local\Temp\cc2saCCQ.s 			page 317


 17476              	.LASF203:
 17477 0add 63685F6F 		.ascii	"ch_os_instance_config\000"
 17477      735F696E 
 17477      7374616E 
 17477      63655F63 
 17477      6F6E6669 
 17478              	.LASF181:
 17479 0af3 646C6973 		.ascii	"dlist\000"
 17479      7400
 17480              	.LASF98:
 17481 0af9 434D3141 		.ascii	"CM1AR\000"
 17481      5200
 17482              	.LASF247:
 17483 0aff 7478736F 		.ascii	"txsource\000"
 17483      75726365 
 17483      00
 17484              	.LASF182:
 17485 0b08 6C617374 		.ascii	"lasttime\000"
 17485      74696D65 
 17485      00
 17486              	.LASF121:
 17487 0b11 44314343 		.ascii	"D1CCIPR\000"
 17487      49505200 
 17488              	.LASF106:
 17489 0b19 43464752 		.ascii	"CFGR\000"
 17489      00
 17490              	.LASF49:
 17491 0b1e 726C6973 		.ascii	"rlist\000"
 17491      7400
 17492              	.LASF314:
 17493 0b24 7370695F 		.ascii	"spi_lld_resume\000"
 17493      6C6C645F 
 17493      72657375 
 17493      6D6500
 17494              	.LASF329:
 17495 0b33 6F73616C 		.ascii	"osalSysUnlockFromISR\000"
 17495      53797355 
 17495      6E6C6F63 
 17495      6B46726F 
 17495      6D495352 
 17496              	.LASF252:
 17497 0b48 64617461 		.ascii	"data_cb\000"
 17497      5F636200 
 17498              	.LASF235:
 17499 0b50 5350495F 		.ascii	"SPI_READY\000"
 17499      52454144 
 17499      5900
 17500              	.LASF268:
 17501 0b5a 646D6153 		.ascii	"dmaStreamAllocI\000"
 17501      74726561 
 17501      6D416C6C 
 17501      6F634900 
 17502              	.LASF152:
 17503 0b6a 41504234 		.ascii	"APB4ENR\000"
 17503      454E5200 
 17504              	.LASF5:
 17505 0b72 5F5F7569 		.ascii	"__uint8_t\000"
ARM GAS  C:\Users\DEVELO~1\AppData\Local\Temp\cc2saCCQ.s 			page 318


 17505      6E74385F 
 17505      7400
 17506              	.LASF35:
 17507 0b7c 6E616D65 		.ascii	"name\000"
 17507      00
 17508              	.LASF113:
 17509 0b81 504C4C43 		.ascii	"PLLCFGR\000"
 17509      46475200 
 17510              	.LASF112:
 17511 0b89 504C4C43 		.ascii	"PLLCKSELR\000"
 17511      4B53454C 
 17511      5200
 17512              	.LASF93:
 17513 0b93 4D314152 		.ascii	"M1AR\000"
 17513      00
 17514              	.LASF154:
 17515 0b98 41484233 		.ascii	"AHB3LPENR\000"
 17515      4C50454E 
 17515      5200
 17516              	.LASF307:
 17517 0ba2 7370695F 		.ascii	"spi_lld_serve_interrupt\000"
 17517      6C6C645F 
 17517      73657276 
 17517      655F696E 
 17517      74657272 
 17518              	.LASF26:
 17519 0bba 74726566 		.ascii	"trefs_t\000"
 17519      735F7400 
 17520              	.LASF108:
 17521 0bc2 44314346 		.ascii	"D1CFGR\000"
 17521      475200
 17522              	.LASF274:
 17523 0bc9 5F5F7472 		.ascii	"__trace_isr_leave\000"
 17523      6163655F 
 17523      6973725F 
 17523      6C656176 
 17523      6500
 17524              	.LASF13:
 17525 0bdb 6C6F6E67 		.ascii	"long unsigned int\000"
 17525      20756E73 
 17525      69676E65 
 17525      6420696E 
 17525      7400
 17526              	.LASF202:
 17527 0bed 72656164 		.ascii	"ready_list_t\000"
 17527      795F6C69 
 17527      73745F74 
 17527      00
 17528              	.LASF84:
 17529 0bfa 72747374 		.ascii	"rtstamp\000"
 17529      616D7000 
 17530              	.LASF234:
 17531 0c02 5350495F 		.ascii	"SPI_STOP\000"
 17531      53544F50 
 17531      00
 17532              	.LASF146:
 17533 0c0b 41484232 		.ascii	"AHB2ENR\000"
ARM GAS  C:\Users\DEVELO~1\AppData\Local\Temp\cc2saCCQ.s 			page 319


 17533      454E5200 
 17534              	.LASF18:
 17535 0c13 696E7433 		.ascii	"int32_t\000"
 17535      325F7400 
 17536              	.LASF60:
 17537 0c1b 72666375 		.ascii	"rfcu_t\000"
 17537      5F7400
 17538              	.LASF186:
 17539 0c22 71756575 		.ascii	"queue\000"
 17539      6500
 17540              	.LASF56:
 17541 0c28 74726163 		.ascii	"trace_buffer\000"
 17541      655F6275 
 17541      66666572 
 17541      00
 17542              	.LASF195:
 17543 0c35 77747365 		.ascii	"wtsemp\000"
 17543      6D7000
 17544              	.LASF74:
 17545 0c3c 63685F70 		.ascii	"ch_priority_queue\000"
 17545      72696F72 
 17545      6974795F 
 17545      71756575 
 17545      6500
 17546              	.LASF198:
 17547 0c4e 63685F73 		.ascii	"ch_semaphore\000"
 17547      656D6170 
 17547      686F7265 
 17547      00
 17548              	.LASF114:
 17549 0c5b 504C4C31 		.ascii	"PLL1DIVR\000"
 17549      44495652 
 17549      00
 17550              	.LASF270:
 17551 0c64 646D6153 		.ascii	"dmaSetRequestSource\000"
 17551      65745265 
 17551      71756573 
 17551      74536F75 
 17551      72636500 
 17552              	.LASF71:
 17553 0c78 63685F71 		.ascii	"ch_queue\000"
 17553      75657565 
 17553      00
 17554              	.LASF209:
 17555 0c81 6D757465 		.ascii	"mutex_t\000"
 17555      785F7400 
 17556              	.LASF83:
 17557 0c89 74797065 		.ascii	"type\000"
 17557      00
 17558              	.LASF334:
 17559 0c8e 706F7274 		.ascii	"port_unlock_from_isr\000"
 17559      5F756E6C 
 17559      6F636B5F 
 17559      66726F6D 
 17559      5F697372 
 17560              	.LASF6:
 17561 0ca3 756E7369 		.ascii	"unsigned char\000"
ARM GAS  C:\Users\DEVELO~1\AppData\Local\Temp\cc2saCCQ.s 			page 320


 17561      676E6564 
 17561      20636861 
 17561      7200
 17562              	.LASF105:
 17563 0cb1 43534943 		.ascii	"CSICFGR\000"
 17563      46475200 
 17564              	.LASF12:
 17565 0cb9 5F5F7569 		.ascii	"__uint32_t\000"
 17565      6E743332 
 17565      5F7400
 17566              	.LASF40:
 17567 0cc4 77616974 		.ascii	"waiting\000"
 17567      696E6700 
 17568              	.LASF184:
 17569 0ccc 76697274 		.ascii	"virtual_timers_list_t\000"
 17569      75616C5F 
 17569      74696D65 
 17569      72735F6C 
 17569      6973745F 
 17570              	.LASF244:
 17571 0ce2 7278646D 		.ascii	"rxdmamode\000"
 17571      616D6F64 
 17571      6500
 17572              	.LASF321:
 17573 0cec 72636345 		.ascii	"rccEnableAPB2\000"
 17573      6E61626C 
 17573      65415042 
 17573      3200
 17574              	.LASF318:
 17575 0cfa 72636345 		.ascii	"rccEnableAPB4\000"
 17575      6E61626C 
 17575      65415042 
 17575      3400
 17576              	.LASF143:
 17577 0d08 52455345 		.ascii	"RESERVED11\000"
 17577      52564544 
 17577      313100
 17578              	.LASF153:
 17579 0d13 52455345 		.ascii	"RESERVED12\000"
 17579      52564544 
 17579      313200
 17580              	.LASF163:
 17581 0d1e 52455345 		.ascii	"RESERVED13\000"
 17581      52564544 
 17581      313300
 17582              	.LASF320:
 17583 0d29 72636344 		.ascii	"rccDisableAPB2\000"
 17583      69736162 
 17583      6C654150 
 17583      423200
 17584              	.LASF317:
 17585 0d38 72636344 		.ascii	"rccDisableAPB4\000"
 17585      69736162 
 17585      6C654150 
 17585      423400
 17586              	.LASF174:
 17587 0d47 49325343 		.ascii	"I2SCFGR\000"
ARM GAS  C:\Users\DEVELO~1\AppData\Local\Temp\cc2saCCQ.s 			page 321


 17587      46475200 
 17588              	.LASF55:
 17589 0d4f 6D61696E 		.ascii	"mainthread\000"
 17589      74687265 
 17589      616400
 17590              	.LASF37:
 17591 0d5a 73746174 		.ascii	"state\000"
 17591      6500
 17592              	.LASF197:
 17593 0d60 65776D61 		.ascii	"ewmask\000"
 17593      736B00
 17594              	.LASF175:
 17595 0d67 5350495F 		.ascii	"SPI_TypeDef\000"
 17595      54797065 
 17595      44656600 
 17596              	.LASF265:
 17597 0d73 63685379 		.ascii	"chSysHalt\000"
 17597      7348616C 
 17597      7400
 17598              	.LASF46:
 17599 0d7d 6F735F69 		.ascii	"os_instance_t\000"
 17599      6E737461 
 17599      6E63655F 
 17599      7400
 17600              	.LASF20:
 17601 0d8b 75696E74 		.ascii	"uint64_t\000"
 17601      36345F74 
 17601      00
 17602              	.LASF239:
 17603 0d94 53504944 		.ascii	"SPIDriver\000"
 17603      72697665 
 17603      7200
 17604              	.LASF51:
 17605 0d9e 7265676C 		.ascii	"reglist\000"
 17605      69737400 
 17606              	.LASF96:
 17607 0da6 43504152 		.ascii	"CPAR\000"
 17607      00
 17608              	.LASF124:
 17609 0dab 44334343 		.ascii	"D3CCIPR\000"
 17609      49505200 
 17610              	.LASF277:
 17611 0db3 6672616D 		.ascii	"frame\000"
 17611      6500
 17612              	.LASF206:
 17613 0db9 69646C65 		.ascii	"idlethread_base\000"
 17613      74687265 
 17613      61645F62 
 17613      61736500 
 17614              	.LASF324:
 17615 0dc9 72636345 		.ascii	"rccEnableAPB1L\000"
 17615      6E61626C 
 17615      65415042 
 17615      314C00
 17616              	.LASF3:
 17617 0dd8 7369676E 		.ascii	"signed char\000"
 17617      65642063 
ARM GAS  C:\Users\DEVELO~1\AppData\Local\Temp\cc2saCCQ.s 			page 322


 17617      68617200 
 17618              	.LASF289:
 17619 0de4 7370695F 		.ascii	"spi_lld_send\000"
 17619      6C6C645F 
 17619      73656E64 
 17619      00
 17620              	.LASF78:
 17621 0df1 64656C74 		.ascii	"delta\000"
 17621      6100
 17622              	.LASF97:
 17623 0df7 434D3041 		.ascii	"CM0AR\000"
 17623      5200
 17624              	.LASF341:
 17625 0dfd 2E2E2F2E 		.ascii	"../../../os/hal/ports/STM32/LLD/SPIv3/hal_spi_v2_ll"
 17625      2E2F2E2E 
 17625      2F6F732F 
 17625      68616C2F 
 17625      706F7274 
 17626 0e30 642E6300 		.ascii	"d.c\000"
 17627              	.LASF9:
 17628 0e34 73686F72 		.ascii	"short unsigned int\000"
 17628      7420756E 
 17628      7369676E 
 17628      65642069 
 17628      6E7400
 17629              	.LASF23:
 17630 0e47 73746B61 		.ascii	"stkalign_t\000"
 17630      6C69676E 
 17630      5F7400
 17631              	.LASF100:
 17632 0e52 49464352 		.ascii	"IFCR\000"
 17632      00
 17633              	.LASF241:
 17634 0e57 73796E63 		.ascii	"sync_transfer\000"
 17634      5F747261 
 17634      6E736665 
 17634      7200
 17635              	.LASF201:
 17636 0e65 63757272 		.ascii	"current\000"
 17636      656E7400 
 17637              	.LASF291:
 17638 0e6d 5F5F6675 		.ascii	"__func__\000"
 17638      6E635F5F 
 17638      00
 17639              	.LASF295:
 17640 0e76 7370695F 		.ascii	"spi_lld_stop\000"
 17640      6C6C645F 
 17640      73746F70 
 17640      00
 17641              	.LASF328:
 17642 0e83 6F73616C 		.ascii	"osalThreadResumeI\000"
 17642      54687265 
 17642      61645265 
 17642      73756D65 
 17642      4900
 17643              	.LASF336:
 17644 0e95 706F7274 		.ascii	"port_unlock\000"
ARM GAS  C:\Users\DEVELO~1\AppData\Local\Temp\cc2saCCQ.s 			page 323


 17644      5F756E6C 
 17644      6F636B00 
 17645              	.LASF256:
 17646 0ea1 63666731 		.ascii	"cfg1\000"
 17646      00
 17647              	.LASF257:
 17648 0ea6 63666732 		.ascii	"cfg2\000"
 17648      00
 17649              	.LASF243:
 17650 0eab 69735F62 		.ascii	"is_bdma\000"
 17650      646D6100 
 17651              	.LASF147:
 17652 0eb3 41484234 		.ascii	"AHB4ENR\000"
 17652      454E5200 
 17653              	.LASF129:
 17654 0ebb 52455345 		.ascii	"RESERVED5\000"
 17654      52564544 
 17654      3500
 17655              	.LASF275:
 17656 0ec5 5F5F7472 		.ascii	"__trace_isr_enter\000"
 17656      6163655F 
 17656      6973725F 
 17656      656E7465 
 17656      7200
 17657              	.LASF303:
 17658 0ed7 74787374 		.ascii	"txstream\000"
 17658      7265616D 
 17658      00
 17659              	.LASF221:
 17660 0ee0 73746D33 		.ascii	"stm32_bdma_stream_t\000"
 17660      325F6264 
 17660      6D615F73 
 17660      74726561 
 17660      6D5F7400 
 17661              	.LASF160:
 17662 0ef4 41504231 		.ascii	"APB1HLPENR\000"
 17662      484C5045 
 17662      4E5200
 17663              	.LASF193:
 17664 0eff 77747472 		.ascii	"wttrp\000"
 17664      7000
 17665              	.LASF281:
 17666 0f05 72786472 		.ascii	"rxdrp8\000"
 17666      703800
 17667              	.LASF246:
 17668 0f0c 72787369 		.ascii	"rxsink\000"
 17668      6E6B00
 17669              	.LASF237:
 17670 0f13 5350495F 		.ascii	"SPI_COMPLETE\000"
 17670      434F4D50 
 17670      4C455445 
 17670      00
 17671              	.LASF192:
 17672 0f20 65786974 		.ascii	"exitcode\000"
 17672      636F6465 
 17672      00
 17673              	.LASF215:
ARM GAS  C:\Users\DEVELO~1\AppData\Local\Temp\cc2saCCQ.s 			page 324


 17674 0f29 73656C66 		.ascii	"selfindex\000"
 17674      696E6465 
 17674      7800
 17675              	.LASF308:
 17676 0f33 7370695F 		.ascii	"spi_lld_serve_dma_tx_interrupt\000"
 17676      6C6C645F 
 17676      73657276 
 17676      655F646D 
 17676      615F7478 
 17677              	.LASF276:
 17678 0f52 73706970 		.ascii	"spip\000"
 17678      00
 17679              	.LASF31:
 17680 0f57 636F7265 		.ascii	"core_id_t\000"
 17680      5F69645F 
 17680      7400
 17681              	.LASF288:
 17682 0f61 72786275 		.ascii	"rxbuf\000"
 17682      6600
 17683              	.LASF45:
 17684 0f67 6D706F6F 		.ascii	"mpool\000"
 17684      6C00
 17685              	.LASF255:
 17686 0f6d 73737061 		.ascii	"sspad\000"
 17686      6400
 17687              		.ident	"GCC: (Arm GNU Toolchain 11.3.Rel1) 11.3.1 20220712"
ARM GAS  C:\Users\DEVELO~1\AppData\Local\Temp\cc2saCCQ.s 			page 325


DEFINED SYMBOLS
                            *ABS*:00000000 hal_spi_v2_lld.c
C:\Users\DEVELO~1\AppData\Local\Temp\cc2saCCQ.s:18     .text.spi_lld_configure.isra.0:00000000 $t
C:\Users\DEVELO~1\AppData\Local\Temp\cc2saCCQ.s:24     .text.spi_lld_configure.isra.0:00000000 spi_lld_configure.isra.0
C:\Users\DEVELO~1\AppData\Local\Temp\cc2saCCQ.s:112    .text.spi_lld_configure.isra.0:0000004c $d
C:\Users\DEVELO~1\AppData\Local\Temp\cc2saCCQ.s:118    .text.spi_lld_stop_abort:00000000 $t
C:\Users\DEVELO~1\AppData\Local\Temp\cc2saCCQ.s:124    .text.spi_lld_stop_abort:00000000 spi_lld_stop_abort
C:\Users\DEVELO~1\AppData\Local\Temp\cc2saCCQ.s:549    .text.spi_lld_stop_abort:00000154 $d
C:\Users\DEVELO~1\AppData\Local\Temp\cc2saCCQ.s:559    .text.spi_lld_stop_nicely:00000000 $t
C:\Users\DEVELO~1\AppData\Local\Temp\cc2saCCQ.s:565    .text.spi_lld_stop_nicely:00000000 spi_lld_stop_nicely
C:\Users\DEVELO~1\AppData\Local\Temp\cc2saCCQ.s:743    .rodata.spi_lld_serve_dma_tx_interrupt.part.0.str1.4:00000000 $d
C:\Users\DEVELO~1\AppData\Local\Temp\cc2saCCQ.s:747    .text.spi_lld_serve_dma_tx_interrupt.part.0:00000000 $t
C:\Users\DEVELO~1\AppData\Local\Temp\cc2saCCQ.s:753    .text.spi_lld_serve_dma_tx_interrupt.part.0:00000000 spi_lld_serve_dma_tx_interrupt.part.0
C:\Users\DEVELO~1\AppData\Local\Temp\cc2saCCQ.s:905    .text.spi_lld_serve_dma_tx_interrupt.part.0:00000034 $d
C:\Users\DEVELO~1\AppData\Local\Temp\cc2saCCQ.s:753    .text.spi_lld_serve_dma_tx_interrupt.part.0:00000000 spi_lld_serve_bdma_tx_interrupt.part.0
C:\Users\DEVELO~1\AppData\Local\Temp\cc2saCCQ.s:911    .text.spi_lld_serve_bdma_tx_interrupt:00000000 $t
C:\Users\DEVELO~1\AppData\Local\Temp\cc2saCCQ.s:917    .text.spi_lld_serve_bdma_tx_interrupt:00000000 spi_lld_serve_bdma_tx_interrupt
C:\Users\DEVELO~1\AppData\Local\Temp\cc2saCCQ.s:939    .text.spi_lld_serve_dma_tx_interrupt:00000000 $t
C:\Users\DEVELO~1\AppData\Local\Temp\cc2saCCQ.s:945    .text.spi_lld_serve_dma_tx_interrupt:00000000 spi_lld_serve_dma_tx_interrupt
C:\Users\DEVELO~1\AppData\Local\Temp\cc2saCCQ.s:967    .text.spi_lld_serve_dma_rx_interrupt:00000000 $t
C:\Users\DEVELO~1\AppData\Local\Temp\cc2saCCQ.s:973    .text.spi_lld_serve_dma_rx_interrupt:00000000 spi_lld_serve_dma_rx_interrupt
C:\Users\DEVELO~1\AppData\Local\Temp\cc2saCCQ.s:1304   .text.spi_lld_serve_dma_rx_interrupt:000000a4 $d
C:\Users\DEVELO~1\AppData\Local\Temp\cc2saCCQ.s:1309   .text.spi_lld_serve_bdma_rx_interrupt:00000000 $t
C:\Users\DEVELO~1\AppData\Local\Temp\cc2saCCQ.s:1315   .text.spi_lld_serve_bdma_rx_interrupt:00000000 spi_lld_serve_bdma_rx_interrupt
C:\Users\DEVELO~1\AppData\Local\Temp\cc2saCCQ.s:1648   .text.spi_lld_serve_bdma_rx_interrupt:000000a0 $d
C:\Users\DEVELO~1\AppData\Local\Temp\cc2saCCQ.s:1653   .text.VectorCC:00000000 $t
C:\Users\DEVELO~1\AppData\Local\Temp\cc2saCCQ.s:1660   .text.VectorCC:00000000 VectorCC
C:\Users\DEVELO~1\AppData\Local\Temp\cc2saCCQ.s:1876   .text.VectorCC:00000058 $d
C:\Users\DEVELO~1\AppData\Local\Temp\cc2saCCQ.s:1883   .text.VectorD0:00000000 $t
C:\Users\DEVELO~1\AppData\Local\Temp\cc2saCCQ.s:1890   .text.VectorD0:00000000 VectorD0
C:\Users\DEVELO~1\AppData\Local\Temp\cc2saCCQ.s:2106   .text.VectorD0:00000058 $d
C:\Users\DEVELO~1\AppData\Local\Temp\cc2saCCQ.s:2113   .text.Vector10C:00000000 $t
C:\Users\DEVELO~1\AppData\Local\Temp\cc2saCCQ.s:2120   .text.Vector10C:00000000 Vector10C
C:\Users\DEVELO~1\AppData\Local\Temp\cc2saCCQ.s:2336   .text.Vector10C:00000058 $d
C:\Users\DEVELO~1\AppData\Local\Temp\cc2saCCQ.s:2343   .text.Vector194:00000000 $t
C:\Users\DEVELO~1\AppData\Local\Temp\cc2saCCQ.s:2350   .text.Vector194:00000000 Vector194
C:\Users\DEVELO~1\AppData\Local\Temp\cc2saCCQ.s:2566   .text.Vector194:00000058 $d
C:\Users\DEVELO~1\AppData\Local\Temp\cc2saCCQ.s:2573   .text.Vector198:00000000 $t
C:\Users\DEVELO~1\AppData\Local\Temp\cc2saCCQ.s:2580   .text.Vector198:00000000 Vector198
C:\Users\DEVELO~1\AppData\Local\Temp\cc2saCCQ.s:2796   .text.Vector198:00000058 $d
C:\Users\DEVELO~1\AppData\Local\Temp\cc2saCCQ.s:2803   .text.spi_lld_init:00000000 $t
C:\Users\DEVELO~1\AppData\Local\Temp\cc2saCCQ.s:2810   .text.spi_lld_init:00000000 spi_lld_init
C:\Users\DEVELO~1\AppData\Local\Temp\cc2saCCQ.s:3002   .text.spi_lld_init:000000bc $d
C:\Users\DEVELO~1\AppData\Local\Temp\cc2saCCQ.s:3018   .text.spi_lld_start:00000000 $t
C:\Users\DEVELO~1\AppData\Local\Temp\cc2saCCQ.s:3025   .text.spi_lld_start:00000000 spi_lld_start
C:\Users\DEVELO~1\AppData\Local\Temp\cc2saCCQ.s:3862   .text.spi_lld_start:0000036c $d
C:\Users\DEVELO~1\AppData\Local\Temp\cc2saCCQ.s:3877   .text.spi_lld_start:00000394 $t
C:\Users\DEVELO~1\AppData\Local\Temp\cc2saCCQ.s:3898   .text.spi_lld_stop:00000000 $t
C:\Users\DEVELO~1\AppData\Local\Temp\cc2saCCQ.s:3905   .text.spi_lld_stop:00000000 spi_lld_stop
C:\Users\DEVELO~1\AppData\Local\Temp\cc2saCCQ.s:4108   .text.spi_lld_stop:000000ec $d
C:\Users\DEVELO~1\AppData\Local\Temp\cc2saCCQ.s:4118   .text.spi_lld_ignore:00000000 $t
C:\Users\DEVELO~1\AppData\Local\Temp\cc2saCCQ.s:4125   .text.spi_lld_ignore:00000000 spi_lld_ignore
C:\Users\DEVELO~1\AppData\Local\Temp\cc2saCCQ.s:4256   .text.spi_lld_exchange:00000000 $t
C:\Users\DEVELO~1\AppData\Local\Temp\cc2saCCQ.s:4263   .text.spi_lld_exchange:00000000 spi_lld_exchange
C:\Users\DEVELO~1\AppData\Local\Temp\cc2saCCQ.s:4413   .text.spi_lld_send:00000000 $t
C:\Users\DEVELO~1\AppData\Local\Temp\cc2saCCQ.s:4420   .text.spi_lld_send:00000000 spi_lld_send
C:\Users\DEVELO~1\AppData\Local\Temp\cc2saCCQ.s:4567   .text.spi_lld_receive:00000000 $t
ARM GAS  C:\Users\DEVELO~1\AppData\Local\Temp\cc2saCCQ.s 			page 326


C:\Users\DEVELO~1\AppData\Local\Temp\cc2saCCQ.s:4574   .text.spi_lld_receive:00000000 spi_lld_receive
C:\Users\DEVELO~1\AppData\Local\Temp\cc2saCCQ.s:4720   .text.spi_lld_stop_transfer:00000000 $t
C:\Users\DEVELO~1\AppData\Local\Temp\cc2saCCQ.s:4727   .text.spi_lld_stop_transfer:00000000 spi_lld_stop_transfer
C:\Users\DEVELO~1\AppData\Local\Temp\cc2saCCQ.s:4783   .text.spi_lld_polled_exchange:00000000 $t
C:\Users\DEVELO~1\AppData\Local\Temp\cc2saCCQ.s:4790   .text.spi_lld_polled_exchange:00000000 spi_lld_polled_exchange
C:\Users\DEVELO~1\AppData\Local\Temp\cc2saCCQ.s:5050   .bss.SPID6:00000000 SPID6
C:\Users\DEVELO~1\AppData\Local\Temp\cc2saCCQ.s:5043   .bss.SPID5:00000000 SPID5
C:\Users\DEVELO~1\AppData\Local\Temp\cc2saCCQ.s:5036   .bss.SPID3:00000000 SPID3
C:\Users\DEVELO~1\AppData\Local\Temp\cc2saCCQ.s:5029   .bss.SPID2:00000000 SPID2
C:\Users\DEVELO~1\AppData\Local\Temp\cc2saCCQ.s:5022   .bss.SPID1:00000000 SPID1
C:\Users\DEVELO~1\AppData\Local\Temp\cc2saCCQ.s:5018   .bss.SPID1:00000000 $d
C:\Users\DEVELO~1\AppData\Local\Temp\cc2saCCQ.s:5025   .bss.SPID2:00000000 $d
C:\Users\DEVELO~1\AppData\Local\Temp\cc2saCCQ.s:5032   .bss.SPID3:00000000 $d
C:\Users\DEVELO~1\AppData\Local\Temp\cc2saCCQ.s:5039   .bss.SPID5:00000000 $d
C:\Users\DEVELO~1\AppData\Local\Temp\cc2saCCQ.s:5046   .bss.SPID6:00000000 $d
C:\Users\DEVELO~1\AppData\Local\Temp\cc2saCCQ.s:5053   .rodata.__func__.0:00000000 $d
C:\Users\DEVELO~1\AppData\Local\Temp\cc2saCCQ.s:5057   .rodata.__func__.0:00000000 __func__.0
C:\Users\DEVELO~1\AppData\Local\Temp\cc2saCCQ.s:5060   .rodata.__func__.1:00000000 $d
C:\Users\DEVELO~1\AppData\Local\Temp\cc2saCCQ.s:5064   .rodata.__func__.1:00000000 __func__.1
C:\Users\DEVELO~1\AppData\Local\Temp\cc2saCCQ.s:5067   .rodata.__func__.2:00000000 $d
C:\Users\DEVELO~1\AppData\Local\Temp\cc2saCCQ.s:5071   .rodata.__func__.2:00000000 __func__.2
C:\Users\DEVELO~1\AppData\Local\Temp\cc2saCCQ.s:5074   .rodata.__func__.3:00000000 $d
C:\Users\DEVELO~1\AppData\Local\Temp\cc2saCCQ.s:5078   .rodata.__func__.3:00000000 __func__.3
C:\Users\DEVELO~1\AppData\Local\Temp\cc2saCCQ.s:5081   .rodata.__func__.4:00000000 $d
C:\Users\DEVELO~1\AppData\Local\Temp\cc2saCCQ.s:5085   .rodata.__func__.4:00000000 __func__.4

UNDEFINED SYMBOLS
chSysHalt
chThdResumeI
__trace_isr_enter
__trace_isr_leave
__port_irq_epilogue
spiObjectInit
nvicEnableVector
dmaStreamAllocI
dmaSetRequestSource
bdmaStreamAllocI
bdmaSetRequestSource
dmaStreamFreeI
bdmaStreamFreeI
