ARM GAS  C:\Users\DEVELO~1\AppData\Local\Temp\ccpJqkfg.s 			page 1


   1              		.cpu cortex-m7
   2              		.arch armv7e-m
   3              		.fpu softvfp
   4              		.eabi_attribute 20, 1
   5              		.eabi_attribute 21, 1
   6              		.eabi_attribute 23, 3
   7              		.eabi_attribute 24, 1
   8              		.eabi_attribute 25, 1
   9              		.eabi_attribute 26, 1
  10              		.eabi_attribute 30, 2
  11              		.eabi_attribute 34, 1
  12              		.eabi_attribute 18, 4
  13              		.file	"hal_buffers.c"
  14              		.text
  15              	.Ltext0:
  16              		.cfi_sections	.debug_frame
  17              		.section	.text.ibqObjectInit,"ax",%progbits
  18              		.align	1
  19              		.p2align 4,,15
  20              		.global	ibqObjectInit
  21              		.syntax unified
  22              		.thumb
  23              		.thumb_func
  24              		.type	ibqObjectInit, %function
  25              	ibqObjectInit:
  26              	.LVL0:
  27              	.LFB431:
  28              		.file 1 "../../../os/hal/src/hal_buffers.c"
  29              		.loc 1 77 72 view -0
  30              		.cfi_startproc
  31              		@ args = 12, pretend = 0, frame = 0
  32              		@ frame_needed = 0, uses_anonymous_args = 0
  33              		@ link register save eliminated.
  34              		.loc 1 79 3 view .LVU1
  35              		.loc 1 79 3 view .LVU2
  36              		.loc 1 79 3 view .LVU3
  37              		.loc 1 81 3 view .LVU4
  38              		.loc 1 77 72 is_stmt 0 view .LVU5
  39 0000 10B4     		push	{r4}
  40              		.cfi_def_cfa_offset 4
  41              		.cfi_offset 4, -4
  42              		.loc 1 77 72 view .LVU6
  43 0002 019C     		ldr	r4, [sp, #4]
  44              		.loc 1 86 33 view .LVU7
  45 0004 0433     		adds	r3, r3, #4
  46              	.LVL1:
  47              	.LBB224:
  48              	.LBI224:
  49              		.file 2 "../../../os/hal/osal/rt-nil/osal.h"
  50              		.loc 2 864 20 is_stmt 1 view .LVU8
  51              		.loc 2 866 3 view .LVU9
  52              	.LBB225:
  53              	.LBI225:
  54              		.file 3 "../../../os/rt/include/chthreads.h"
  55              		.loc 3 461 20 view .LVU10
  56              	.LBB226:
  57              		.loc 3 463 3 view .LVU11
ARM GAS  C:\Users\DEVELO~1\AppData\Local\Temp\ccpJqkfg.s 			page 2


  58              	.LBB227:
  59              	.LBI227:
  60              		.file 4 "../../../os/rt/include/chlists.h"
  61              		.loc 4 222 20 view .LVU12
  62              	.LBB228:
  63              		.loc 4 224 3 view .LVU13
  64              	.LBE228:
  65              	.LBE227:
  66              	.LBE226:
  67              	.LBE225:
  68              	.LBE224:
  69              		.loc 1 82 19 is_stmt 0 view .LVU14
  70 0006 0172     		strb	r1, [r0, #8]
  71              		.loc 1 83 19 view .LVU15
  72 0008 0021     		movs	r1, #0
  73              	.LVL2:
  74              		.loc 1 87 19 view .LVU16
  75 000a C361     		str	r3, [r0, #28]
  76              		.loc 1 86 24 view .LVU17
  77 000c 04FB0323 		mla	r3, r4, r3, r2
  78              	.LVL3:
  79              		.loc 1 88 19 view .LVU18
  80 0010 0462     		str	r4, [r0, #32]
  81              		.loc 1 86 19 view .LVU19
  82 0012 8361     		str	r3, [r0, #24]
  83              		.loc 1 83 19 view .LVU20
  84 0014 C160     		str	r1, [r0, #12]
  85              		.loc 1 91 19 view .LVU21
  86 0016 C162     		str	r1, [r0, #44]
  87              		.loc 1 85 19 view .LVU22
  88 0018 C0E90422 		strd	r2, r2, [r0, #16]
  89              		.loc 1 90 19 view .LVU23
  90 001c C0E90921 		strd	r2, r1, [r0, #36]
  91              		.loc 1 77 72 view .LVU24
  92 0020 DDE90223 		ldrd	r2, r3, [sp, #8]
  93              	.LVL4:
  94              	.LBB233:
  95              	.LBB232:
  96              	.LBB231:
  97              	.LBB230:
  98              	.LBB229:
  99              		.loc 4 225 12 view .LVU25
 100 0024 C0E90000 		strd	r0, r0, [r0]
 101              	.LVL5:
 102              		.loc 4 225 12 view .LVU26
 103              	.LBE229:
 104              	.LBE230:
 105              	.LBE231:
 106              	.LBE232:
 107              	.LBE233:
 108              		.loc 1 82 3 is_stmt 1 view .LVU27
 109              		.loc 1 83 3 view .LVU28
 110              		.loc 1 84 3 view .LVU29
 111              		.loc 1 86 3 view .LVU30
 112              		.loc 1 87 3 view .LVU31
 113              		.loc 1 88 3 view .LVU32
 114              		.loc 1 89 3 view .LVU33
ARM GAS  C:\Users\DEVELO~1\AppData\Local\Temp\ccpJqkfg.s 			page 3


 115              		.loc 1 91 3 view .LVU34
 116              		.loc 1 92 3 view .LVU35
 117              		.loc 1 94 1 is_stmt 0 view .LVU36
 118 0028 10BC     		pop	{r4}
 119              		.cfi_restore 4
 120              		.cfi_def_cfa_offset 0
 121              	.LVL6:
 122              		.loc 1 93 19 view .LVU37
 123 002a C0E90C23 		strd	r2, r3, [r0, #48]
 124              		.loc 1 94 1 view .LVU38
 125 002e 7047     		bx	lr
 126              		.cfi_endproc
 127              	.LFE431:
 128              		.size	ibqObjectInit, .-ibqObjectInit
 129              		.section	.text.ibqResetI,"ax",%progbits
 130              		.align	1
 131              		.p2align 4,,15
 132              		.global	ibqResetI
 133              		.syntax unified
 134              		.thumb
 135              		.thumb_func
 136              		.type	ibqResetI, %function
 137              	ibqResetI:
 138              	.LVL7:
 139              	.LFB432:
 140              		.loc 1 107 45 is_stmt 1 view -0
 141              		.cfi_startproc
 142              		@ args = 0, pretend = 0, frame = 0
 143              		@ frame_needed = 0, uses_anonymous_args = 0
 144              		@ link register save eliminated.
 145              		.loc 1 111 19 is_stmt 0 view .LVU40
 146 0000 0022     		movs	r2, #0
 147              	.LBB234:
 148              	.LBB235:
 149              		.loc 2 921 3 view .LVU41
 150 0002 6FF00101 		mvn	r1, #1
 151              	.LBE235:
 152              	.LBE234:
 153              		.loc 1 109 23 is_stmt 1 view .LVU42
 154              		.loc 1 111 3 view .LVU43
 155              		.loc 1 107 45 is_stmt 0 view .LVU44
 156 0006 10B4     		push	{r4}
 157              		.cfi_def_cfa_offset 4
 158              		.cfi_offset 4, -4
 159              		.loc 1 112 25 view .LVU45
 160 0008 446A     		ldr	r4, [r0, #36]
 161              		.loc 1 111 19 view .LVU46
 162 000a C260     		str	r2, [r0, #12]
 163              		.loc 1 112 3 is_stmt 1 view .LVU47
 164              		.loc 1 113 19 is_stmt 0 view .LVU48
 165 000c C0E90444 		strd	r4, r4, [r0, #16]
 166              		.loc 1 114 3 is_stmt 1 view .LVU49
 167              		.loc 1 115 3 view .LVU50
 168              		.loc 1 116 3 view .LVU51
 169              	.LVL8:
 170              	.LBB238:
 171              	.LBI234:
ARM GAS  C:\Users\DEVELO~1\AppData\Local\Temp\ccpJqkfg.s 			page 4


 172              		.loc 2 919 20 view .LVU52
 173              	.LBB236:
 174              		.loc 2 921 3 view .LVU53
 175              	.LBE236:
 176              	.LBE238:
 177              		.loc 1 115 19 is_stmt 0 view .LVU54
 178 0010 C0E90A22 		strd	r2, r2, [r0, #40]
 179              		.loc 1 117 1 view .LVU55
 180 0014 10BC     		pop	{r4}
 181              		.cfi_restore 4
 182              		.cfi_def_cfa_offset 0
 183              	.LBB239:
 184              	.LBB237:
 185              		.loc 2 921 3 view .LVU56
 186 0016 FFF7FEBF 		b	chThdDequeueAllI
 187              	.LVL9:
 188              		.loc 2 921 3 view .LVU57
 189              	.LBE237:
 190              	.LBE239:
 191              		.cfi_endproc
 192              	.LFE432:
 193              		.size	ibqResetI, .-ibqResetI
 194              		.section	.text.ibqGetEmptyBufferI,"ax",%progbits
 195              		.align	1
 196              		.p2align 4,,15
 197              		.global	ibqGetEmptyBufferI
 198              		.syntax unified
 199              		.thumb
 200              		.thumb_func
 201              		.type	ibqGetEmptyBufferI, %function
 202              	ibqGetEmptyBufferI:
 203              	.LVL10:
 204              	.LFB433:
 205              		.loc 1 129 58 is_stmt 1 view -0
 206              		.cfi_startproc
 207              		@ args = 0, pretend = 0, frame = 0
 208              		@ frame_needed = 0, uses_anonymous_args = 0
 209              		@ link register save eliminated.
 210              		.loc 1 131 23 view .LVU59
 211              		.loc 1 133 3 view .LVU60
 212              		.loc 1 133 7 is_stmt 0 view .LVU61
 213 0000 D0E90432 		ldrd	r3, r2, [r0, #16]
 214 0004 9342     		cmp	r3, r2
 215 0006 01D0     		beq	.L12
 216              	.L7:
 217              		.loc 1 137 3 is_stmt 1 view .LVU62
 218              		.loc 1 137 23 is_stmt 0 view .LVU63
 219 0008 181D     		adds	r0, r3, #4
 220              	.LVL11:
 221              		.loc 1 138 1 view .LVU64
 222 000a 7047     		bx	lr
 223              	.LVL12:
 224              	.L12:
 225              		.loc 1 133 7 discriminator 1 view .LVU65
 226 000c C268     		ldr	r2, [r0, #12]
 227 000e 002A     		cmp	r2, #0
 228 0010 FAD0     		beq	.L7
ARM GAS  C:\Users\DEVELO~1\AppData\Local\Temp\ccpJqkfg.s 			page 5


 229              		.loc 1 134 12 view .LVU66
 230 0012 0020     		movs	r0, #0
 231              	.LVL13:
 232              		.loc 1 134 12 view .LVU67
 233 0014 7047     		bx	lr
 234              		.cfi_endproc
 235              	.LFE433:
 236              		.size	ibqGetEmptyBufferI, .-ibqGetEmptyBufferI
 237 0016 00BF     		.section	.text.ibqPostFullBufferI,"ax",%progbits
 238              		.align	1
 239              		.p2align 4,,15
 240              		.global	ibqPostFullBufferI
 241              		.syntax unified
 242              		.thumb
 243              		.thumb_func
 244              		.type	ibqPostFullBufferI, %function
 245              	ibqPostFullBufferI:
 246              	.LVL14:
 247              	.LFB434:
 248              		.loc 1 148 67 is_stmt 1 view -0
 249              		.cfi_startproc
 250              		@ args = 0, pretend = 0, frame = 0
 251              		@ frame_needed = 0, uses_anonymous_args = 0
 252              		@ link register save eliminated.
 253              		.loc 1 150 23 view .LVU69
 254              		.loc 1 152 3 view .LVU70
 255              		.loc 1 152 3 view .LVU71
 256              		.loc 1 152 3 view .LVU72
 257              		.loc 1 153 3 view .LVU73
 258              		.loc 1 153 3 view .LVU74
 259              		.loc 1 153 3 view .LVU75
 260              		.loc 1 156 3 view .LVU76
 261              		.loc 1 156 27 is_stmt 0 view .LVU77
 262 0000 0369     		ldr	r3, [r0, #16]
 263              		.loc 1 148 67 view .LVU78
 264 0002 10B4     		push	{r4}
 265              		.cfi_def_cfa_offset 4
 266              		.cfi_offset 4, -4
 267              		.loc 1 161 6 view .LVU79
 268 0004 8469     		ldr	r4, [r0, #24]
 269              		.loc 1 156 37 view .LVU80
 270 0006 1960     		str	r1, [r3]
 271              		.loc 1 159 3 is_stmt 1 view .LVU81
 272              		.loc 1 160 16 is_stmt 0 view .LVU82
 273 0008 C169     		ldr	r1, [r0, #28]
 274              	.LVL15:
 275              		.loc 1 159 7 view .LVU83
 276 000a C268     		ldr	r2, [r0, #12]
 277              		.loc 1 160 16 view .LVU84
 278 000c 0B44     		add	r3, r3, r1
 279              	.LVL16:
 280              		.loc 1 159 17 view .LVU85
 281 000e 0132     		adds	r2, r2, #1
 282              		.loc 1 161 6 view .LVU86
 283 0010 A342     		cmp	r3, r4
 284              		.loc 1 160 16 view .LVU87
 285 0012 0361     		str	r3, [r0, #16]
ARM GAS  C:\Users\DEVELO~1\AppData\Local\Temp\ccpJqkfg.s 			page 6


 286              	.LVL17:
 287              		.loc 1 159 17 view .LVU88
 288 0014 C260     		str	r2, [r0, #12]
 289              		.loc 1 160 3 is_stmt 1 view .LVU89
 290              		.loc 1 161 3 view .LVU90
 291              		.loc 1 161 6 is_stmt 0 view .LVU91
 292 0016 01D3     		bcc	.L14
 293              		.loc 1 162 5 is_stmt 1 view .LVU92
 294              		.loc 1 162 18 is_stmt 0 view .LVU93
 295 0018 436A     		ldr	r3, [r0, #36]
 296 001a 0361     		str	r3, [r0, #16]
 297              	.L14:
 298              		.loc 1 166 3 is_stmt 1 view .LVU94
 299              	.LVL18:
 300              	.LBB240:
 301              	.LBI240:
 302              		.loc 2 906 20 view .LVU95
 303              	.LBB241:
 304              		.loc 2 908 3 view .LVU96
 305 001c 0021     		movs	r1, #0
 306              	.LBE241:
 307              	.LBE240:
 308              		.loc 1 167 1 is_stmt 0 view .LVU97
 309 001e 10BC     		pop	{r4}
 310              		.cfi_restore 4
 311              		.cfi_def_cfa_offset 0
 312              	.LBB243:
 313              	.LBB242:
 314              		.loc 2 908 3 view .LVU98
 315 0020 FFF7FEBF 		b	chThdDequeueNextI
 316              	.LVL19:
 317              		.loc 2 908 3 view .LVU99
 318              	.LBE242:
 319              	.LBE243:
 320              		.cfi_endproc
 321              	.LFE434:
 322              		.size	ibqPostFullBufferI, .-ibqPostFullBufferI
 323              		.section	.text.ibqGetFullBufferTimeout,"ax",%progbits
 324              		.align	1
 325              		.p2align 4,,15
 326              		.global	ibqGetFullBufferTimeout
 327              		.syntax unified
 328              		.thumb
 329              		.thumb_func
 330              		.type	ibqGetFullBufferTimeout, %function
 331              	ibqGetFullBufferTimeout:
 332              	.LVL20:
 333              	.LFB435:
 334              		.loc 1 191 54 is_stmt 1 view -0
 335              		.cfi_startproc
 336              		@ args = 0, pretend = 0, frame = 0
 337              		@ frame_needed = 0, uses_anonymous_args = 0
 338              		.loc 1 191 54 is_stmt 0 view .LVU101
 339 0000 38B5     		push	{r3, r4, r5, lr}
 340              		.cfi_def_cfa_offset 16
 341              		.cfi_offset 3, -16
 342              		.cfi_offset 4, -12
ARM GAS  C:\Users\DEVELO~1\AppData\Local\Temp\ccpJqkfg.s 			page 7


 343              		.cfi_offset 5, -8
 344              		.cfi_offset 14, -4
 345              	.LBB265:
 346              	.LBB266:
 347              	.LBB267:
 348              	.LBB268:
 349              	.LBB269:
 350              		.file 5 "../../../os/common/ext/ARM/CMSIS/Core/Include/cmsis_gcc.h"
 351              		.loc 5 493 3 view .LVU102
 352 0002 3023     		movs	r3, #48
 353              	.LBE269:
 354              	.LBE268:
 355              	.LBE267:
 356              	.LBE266:
 357              	.LBE265:
 358              		.loc 1 191 54 view .LVU103
 359 0004 0446     		mov	r4, r0
 360              		.loc 1 192 3 is_stmt 1 view .LVU104
 361              		.loc 1 194 3 view .LVU105
 362              	.LBB278:
 363              	.LBI265:
 364              		.loc 2 573 20 view .LVU106
 365              		.loc 2 575 3 view .LVU107
 366              	.LBB276:
 367              	.LBI266:
 368              		.file 6 "../../../os/rt/include/chsys.h"
 369              		.loc 6 407 20 view .LVU108
 370              		.loc 6 409 3 view .LVU109
 371              	.LBB274:
 372              	.LBI267:
 373              		.file 7 "../../../os/common/ports/ARMv7-M/chcore.h"
 374              		.loc 7 806 27 view .LVU110
 375              		.loc 7 814 3 view .LVU111
 376              	.LVL21:
 377              	.LBB272:
 378              	.LBI268:
 379              		.loc 5 491 27 view .LVU112
 380              	.LBB270:
 381              		.loc 5 493 3 view .LVU113
 382              	.LBE270:
 383              	.LBE272:
 384              	.LBE274:
 385              	.LBE276:
 386              	.LBE278:
 387              		.loc 1 191 54 is_stmt 0 view .LVU114
 388 0006 0D46     		mov	r5, r1
 389              	.LBB279:
 390              	.LBB277:
 391              	.LBB275:
 392              	.LBB273:
 393              	.LBB271:
 394              		.loc 5 493 3 view .LVU115
 395              		.syntax unified
 396              	@ 493 "../../../os/common/ext/ARM/CMSIS/Core/Include/cmsis_gcc.h" 1
 397 0008 83F31188 		MSR basepri, r3
 398              	@ 0 "" 2
 399              	.LVL22:
ARM GAS  C:\Users\DEVELO~1\AppData\Local\Temp\ccpJqkfg.s 			page 8


 400              		.loc 5 493 3 view .LVU116
 401              		.thumb
 402              		.syntax unified
 403              	.LBE271:
 404              	.LBE273:
 405              	.LBE275:
 406              		.loc 6 410 35 is_stmt 1 view .LVU117
 407              		.loc 6 411 21 view .LVU118
 408              	.LBE277:
 409              	.LBE279:
 410              		.loc 1 195 3 view .LVU119
 411              	.LBB280:
 412              	.LBI280:
 413              		.loc 1 222 9 view .LVU120
 414              	.LBB281:
 415              		.loc 1 225 23 view .LVU121
 416              		.loc 1 227 3 view .LVU122
 417              		.loc 1 227 9 is_stmt 0 view .LVU123
 418 000c 05E0     		b	.L17
 419              	.LVL23:
 420              	.L19:
 421              	.LBB282:
 422              		.loc 1 228 8 view .LVU124
 423 000e 237A     		ldrb	r3, [r4, #8]	@ zero_extendqisi2
 424 0010 9BB9     		cbnz	r3, .L20
 425              	.LBB283:
 426              	.LBB284:
 427              		.loc 2 895 10 view .LVU125
 428 0012 FFF7FEFF 		bl	chThdEnqueueTimeoutS
 429              	.LVL24:
 430              		.loc 2 895 10 view .LVU126
 431              	.LBE284:
 432              	.LBE283:
 433              		.loc 1 232 5 is_stmt 1 view .LVU127
 434              		.loc 1 232 8 is_stmt 0 view .LVU128
 435 0016 0028     		cmp	r0, #0
 436              		.loc 1 232 8 view .LVU129
 437 0018 0BDB     		blt	.L18
 438              	.LVL25:
 439              	.L17:
 440              		.loc 1 228 5 is_stmt 1 view .LVU130
 441              		.loc 1 231 5 view .LVU131
 442              	.LBB287:
 443              	.LBI283:
 444              		.loc 2 892 21 view .LVU132
 445              	.LBB285:
 446              		.loc 2 895 3 view .LVU133
 447              	.LBE285:
 448              	.LBE287:
 449              	.LBE282:
 450              		.loc 1 227 10 view .LVU134
 451 001a E368     		ldr	r3, [r4, #12]
 452              	.LBB289:
 453              	.LBB288:
 454              	.LBB286:
 455              		.loc 2 895 10 is_stmt 0 view .LVU135
 456 001c 2946     		mov	r1, r5
ARM GAS  C:\Users\DEVELO~1\AppData\Local\Temp\ccpJqkfg.s 			page 9


 457 001e 2046     		mov	r0, r4
 458              	.LBE286:
 459              	.LBE288:
 460              	.LBE289:
 461              		.loc 1 227 10 view .LVU136
 462 0020 002B     		cmp	r3, #0
 463 0022 F4D0     		beq	.L19
 464              	.LVL26:
 465              	.LBB290:
 466              	.LBI290:
 467              		.loc 1 222 9 is_stmt 1 view .LVU137
 468              	.LBB291:
 469              		.loc 1 237 3 view .LVU138
 470              		.loc 1 237 3 view .LVU139
 471              		.loc 1 237 3 view .LVU140
 472              		.loc 1 240 3 view .LVU141
 473              		.loc 1 240 19 is_stmt 0 view .LVU142
 474 0024 6369     		ldr	r3, [r4, #20]
 475              		.loc 1 241 13 view .LVU143
 476 0026 0020     		movs	r0, #0
 477              	.LVL27:
 478              		.loc 1 240 28 view .LVU144
 479 0028 1A1D     		adds	r2, r3, #4
 480              		.loc 1 241 25 view .LVU145
 481 002a 1B68     		ldr	r3, [r3]
 482 002c 1344     		add	r3, r3, r2
 483              		.loc 1 241 13 view .LVU146
 484 002e C4E90A23 		strd	r2, r3, [r4, #40]
 485              		.loc 1 243 3 is_stmt 1 view .LVU147
 486              	.LVL28:
 487              	.L18:
 488              		.loc 1 243 3 is_stmt 0 view .LVU148
 489              	.LBE291:
 490              	.LBE290:
 491              	.LBE281:
 492              	.LBE280:
 493              		.loc 1 196 3 is_stmt 1 view .LVU149
 494              	.LBB294:
 495              	.LBI294:
 496              		.loc 2 584 20 view .LVU150
 497              		.loc 2 586 3 view .LVU151
 498              	.LBB295:
 499              	.LBI295:
 500              		.loc 6 421 20 view .LVU152
 501              	.LBB296:
 502              		.loc 6 423 23 view .LVU153
 503              		.loc 6 424 34 view .LVU154
 504              		.loc 6 430 3 view .LVU155
 505              		.loc 6 430 3 view .LVU156
 506              		.loc 6 430 3 view .LVU157
 507              		.loc 6 434 3 view .LVU158
 508              	.LBB297:
 509              	.LBI297:
 510              		.loc 7 830 27 view .LVU159
 511              		.loc 7 833 3 view .LVU160
 512              	.LBB298:
 513              	.LBI298:
ARM GAS  C:\Users\DEVELO~1\AppData\Local\Temp\ccpJqkfg.s 			page 10


 514              		.loc 5 491 27 view .LVU161
 515              	.LBB299:
 516              		.loc 5 493 3 view .LVU162
 517 0032 0023     		movs	r3, #0
 518              		.syntax unified
 519              	@ 493 "../../../os/common/ext/ARM/CMSIS/Core/Include/cmsis_gcc.h" 1
 520 0034 83F31188 		MSR basepri, r3
 521              	@ 0 "" 2
 522              	.LVL29:
 523              		.loc 5 493 3 is_stmt 0 view .LVU163
 524              		.thumb
 525              		.syntax unified
 526              	.LBE299:
 527              	.LBE298:
 528              	.LBE297:
 529              	.LBE296:
 530              	.LBE295:
 531              	.LBE294:
 532              		.loc 1 198 3 is_stmt 1 view .LVU164
 533              		.loc 1 199 1 is_stmt 0 view .LVU165
 534 0038 38BD     		pop	{r3, r4, r5, pc}
 535              	.LVL30:
 536              	.L20:
 537              	.LBB305:
 538              	.LBB293:
 539              	.LBB292:
 540              		.loc 1 229 14 view .LVU166
 541 003a 6FF00100 		mvn	r0, #1
 542              	.LVL31:
 543              		.loc 1 229 14 view .LVU167
 544              	.LBE292:
 545              	.LBE293:
 546              	.LBE305:
 547              		.loc 1 196 3 is_stmt 1 view .LVU168
 548              	.LBB306:
 549              		.loc 2 584 20 view .LVU169
 550              		.loc 2 586 3 view .LVU170
 551              	.LBB304:
 552              		.loc 6 421 20 view .LVU171
 553              	.LBB303:
 554              		.loc 6 423 23 view .LVU172
 555              		.loc 6 424 34 view .LVU173
 556              		.loc 6 430 3 view .LVU174
 557              		.loc 6 430 3 view .LVU175
 558              		.loc 6 430 3 view .LVU176
 559              		.loc 6 434 3 view .LVU177
 560              	.LBB302:
 561              		.loc 7 830 27 view .LVU178
 562              		.loc 7 833 3 view .LVU179
 563              	.LBB301:
 564              		.loc 5 491 27 view .LVU180
 565              	.LBB300:
 566              		.loc 5 493 3 view .LVU181
 567 003e 0023     		movs	r3, #0
 568              		.syntax unified
 569              	@ 493 "../../../os/common/ext/ARM/CMSIS/Core/Include/cmsis_gcc.h" 1
 570 0040 83F31188 		MSR basepri, r3
ARM GAS  C:\Users\DEVELO~1\AppData\Local\Temp\ccpJqkfg.s 			page 11


 571              	@ 0 "" 2
 572              	.LVL32:
 573              		.loc 5 493 3 is_stmt 0 view .LVU182
 574              		.thumb
 575              		.syntax unified
 576              	.LBE300:
 577              	.LBE301:
 578              	.LBE302:
 579              	.LBE303:
 580              	.LBE304:
 581              	.LBE306:
 582              		.loc 1 198 3 is_stmt 1 view .LVU183
 583              		.loc 1 199 1 is_stmt 0 view .LVU184
 584 0044 38BD     		pop	{r3, r4, r5, pc}
 585              		.loc 1 199 1 view .LVU185
 586              		.cfi_endproc
 587              	.LFE435:
 588              		.size	ibqGetFullBufferTimeout, .-ibqGetFullBufferTimeout
 589 0046 00BF     		.section	.text.ibqGetFullBufferTimeoutS,"ax",%progbits
 590              		.align	1
 591              		.p2align 4,,15
 592              		.global	ibqGetFullBufferTimeoutS
 593              		.syntax unified
 594              		.thumb
 595              		.thumb_func
 596              		.type	ibqGetFullBufferTimeoutS, %function
 597              	ibqGetFullBufferTimeoutS:
 598              	.LVL33:
 599              	.LFB436:
 600              		.loc 1 223 57 is_stmt 1 view -0
 601              		.cfi_startproc
 602              		@ args = 0, pretend = 0, frame = 0
 603              		@ frame_needed = 0, uses_anonymous_args = 0
 604              		.loc 1 223 57 is_stmt 0 view .LVU187
 605 0000 38B5     		push	{r3, r4, r5, lr}
 606              		.cfi_def_cfa_offset 16
 607              		.cfi_offset 3, -16
 608              		.cfi_offset 4, -12
 609              		.cfi_offset 5, -8
 610              		.cfi_offset 14, -4
 611              		.loc 1 223 57 view .LVU188
 612 0002 0446     		mov	r4, r0
 613              		.loc 1 225 23 is_stmt 1 view .LVU189
 614              		.loc 1 227 3 view .LVU190
 615              		.loc 1 223 57 is_stmt 0 view .LVU191
 616 0004 0D46     		mov	r5, r1
 617              		.loc 1 227 9 view .LVU192
 618 0006 05E0     		b	.L23
 619              	.LVL34:
 620              	.L25:
 621              	.LBB318:
 622              		.loc 1 228 8 view .LVU193
 623 0008 237A     		ldrb	r3, [r4, #8]	@ zero_extendqisi2
 624 000a 83B9     		cbnz	r3, .L26
 625              	.LBB319:
 626              	.LBB320:
 627              		.loc 2 895 10 view .LVU194
ARM GAS  C:\Users\DEVELO~1\AppData\Local\Temp\ccpJqkfg.s 			page 12


 628 000c FFF7FEFF 		bl	chThdEnqueueTimeoutS
 629              	.LVL35:
 630              		.loc 2 895 10 view .LVU195
 631              	.LBE320:
 632              	.LBE319:
 633              		.loc 1 232 5 is_stmt 1 view .LVU196
 634              		.loc 1 232 8 is_stmt 0 view .LVU197
 635 0010 0028     		cmp	r0, #0
 636              		.loc 1 232 8 view .LVU198
 637 0012 0BDB     		blt	.L22
 638              	.LVL36:
 639              	.L23:
 640              		.loc 1 228 5 is_stmt 1 view .LVU199
 641              		.loc 1 231 5 view .LVU200
 642              	.LBB323:
 643              	.LBI319:
 644              		.loc 2 892 21 view .LVU201
 645              	.LBB321:
 646              		.loc 2 895 3 view .LVU202
 647              	.LBE321:
 648              	.LBE323:
 649              	.LBE318:
 650              		.loc 1 227 10 view .LVU203
 651 0014 E368     		ldr	r3, [r4, #12]
 652              	.LBB325:
 653              	.LBB324:
 654              	.LBB322:
 655              		.loc 2 895 10 is_stmt 0 view .LVU204
 656 0016 2946     		mov	r1, r5
 657 0018 2046     		mov	r0, r4
 658              	.LBE322:
 659              	.LBE324:
 660              	.LBE325:
 661              		.loc 1 227 10 view .LVU205
 662 001a 002B     		cmp	r3, #0
 663 001c F4D0     		beq	.L25
 664              	.LVL37:
 665              	.LBB326:
 666              	.LBI326:
 667              		.loc 1 222 9 is_stmt 1 view .LVU206
 668              	.LBB327:
 669              		.loc 1 237 3 view .LVU207
 670              		.loc 1 237 3 view .LVU208
 671              		.loc 1 237 3 view .LVU209
 672              		.loc 1 240 3 view .LVU210
 673              		.loc 1 240 19 is_stmt 0 view .LVU211
 674 001e 6369     		ldr	r3, [r4, #20]
 675              		.loc 1 241 13 view .LVU212
 676 0020 0020     		movs	r0, #0
 677              	.LVL38:
 678              		.loc 1 240 28 view .LVU213
 679 0022 1A1D     		adds	r2, r3, #4
 680              		.loc 1 241 25 view .LVU214
 681 0024 1B68     		ldr	r3, [r3]
 682 0026 1344     		add	r3, r3, r2
 683              		.loc 1 241 13 view .LVU215
 684 0028 C4E90A23 		strd	r2, r3, [r4, #40]
ARM GAS  C:\Users\DEVELO~1\AppData\Local\Temp\ccpJqkfg.s 			page 13


 685              		.loc 1 243 3 is_stmt 1 view .LVU216
 686              	.LVL39:
 687              	.L22:
 688              		.loc 1 243 3 is_stmt 0 view .LVU217
 689              	.LBE327:
 690              	.LBE326:
 691              		.loc 1 244 1 view .LVU218
 692 002c 38BD     		pop	{r3, r4, r5, pc}
 693              	.LVL40:
 694              	.L26:
 695              	.LBB328:
 696              		.loc 1 229 14 view .LVU219
 697 002e 6FF00100 		mvn	r0, #1
 698              	.LVL41:
 699              		.loc 1 229 14 view .LVU220
 700              	.LBE328:
 701              		.loc 1 244 1 view .LVU221
 702 0032 38BD     		pop	{r3, r4, r5, pc}
 703              		.loc 1 244 1 view .LVU222
 704              		.cfi_endproc
 705              	.LFE436:
 706              		.size	ibqGetFullBufferTimeoutS, .-ibqGetFullBufferTimeoutS
 707              		.section	.text.ibqReleaseEmptyBuffer,"ax",%progbits
 708              		.align	1
 709              		.p2align 4,,15
 710              		.global	ibqReleaseEmptyBuffer
 711              		.syntax unified
 712              		.thumb
 713              		.thumb_func
 714              		.type	ibqReleaseEmptyBuffer, %function
 715              	ibqReleaseEmptyBuffer:
 716              	.LVL42:
 717              	.LFB437:
 718              		.loc 1 254 57 is_stmt 1 view -0
 719              		.cfi_startproc
 720              		@ args = 0, pretend = 0, frame = 0
 721              		@ frame_needed = 0, uses_anonymous_args = 0
 722              		.loc 1 256 3 view .LVU224
 723              	.LBB342:
 724              	.LBI342:
 725              		.loc 2 573 20 view .LVU225
 726              		.loc 2 575 3 view .LVU226
 727              	.LBB343:
 728              	.LBI343:
 729              		.loc 6 407 20 view .LVU227
 730              		.loc 6 409 3 view .LVU228
 731              	.LBB344:
 732              	.LBI344:
 733              		.loc 7 806 27 view .LVU229
 734              		.loc 7 814 3 view .LVU230
 735              	.LBB345:
 736              	.LBI345:
 737              		.loc 5 491 27 view .LVU231
 738              	.LBB346:
 739              		.loc 5 493 3 view .LVU232
 740              	.LBE346:
 741              	.LBE345:
ARM GAS  C:\Users\DEVELO~1\AppData\Local\Temp\ccpJqkfg.s 			page 14


 742              	.LBE344:
 743              	.LBE343:
 744              	.LBE342:
 745              		.loc 1 254 57 is_stmt 0 view .LVU233
 746 0000 08B5     		push	{r3, lr}
 747              		.cfi_def_cfa_offset 8
 748              		.cfi_offset 3, -8
 749              		.cfi_offset 14, -4
 750              	.LBB351:
 751              	.LBB350:
 752              	.LBB349:
 753              	.LBB348:
 754              	.LBB347:
 755              		.loc 5 493 3 view .LVU234
 756 0002 3023     		movs	r3, #48
 757              		.syntax unified
 758              	@ 493 "../../../os/common/ext/ARM/CMSIS/Core/Include/cmsis_gcc.h" 1
 759 0004 83F31188 		MSR basepri, r3
 760              	@ 0 "" 2
 761              	.LVL43:
 762              		.loc 5 493 3 view .LVU235
 763              		.thumb
 764              		.syntax unified
 765              	.LBE347:
 766              	.LBE348:
 767              	.LBE349:
 768              		.loc 6 410 35 is_stmt 1 view .LVU236
 769              		.loc 6 411 21 view .LVU237
 770              	.LBE350:
 771              	.LBE351:
 772              		.loc 1 257 3 view .LVU238
 773              	.LBB352:
 774              	.LBI352:
 775              		.loc 1 269 8 view .LVU239
 776              	.LBB353:
 777              		.loc 1 271 23 view .LVU240
 778              		.loc 1 272 3 view .LVU241
 779              		.loc 1 272 3 view .LVU242
 780              		.loc 1 272 3 view .LVU243
 781              		.loc 1 275 3 view .LVU244
 782              		.loc 1 277 6 is_stmt 0 view .LVU245
 783 0008 D0E90531 		ldrd	r3, r1, [r0, #20]
 784              		.loc 1 276 16 view .LVU246
 785 000c D0F81CC0 		ldr	ip, [r0, #28]
 786              		.loc 1 275 7 view .LVU247
 787 0010 C268     		ldr	r2, [r0, #12]
 788              		.loc 1 276 16 view .LVU248
 789 0012 6344     		add	r3, r3, ip
 790              		.loc 1 275 17 view .LVU249
 791 0014 013A     		subs	r2, r2, #1
 792              		.loc 1 277 6 view .LVU250
 793 0016 8B42     		cmp	r3, r1
 794              		.loc 1 276 16 view .LVU251
 795 0018 4361     		str	r3, [r0, #20]
 796              		.loc 1 275 17 view .LVU252
 797 001a C260     		str	r2, [r0, #12]
 798              		.loc 1 276 3 is_stmt 1 view .LVU253
ARM GAS  C:\Users\DEVELO~1\AppData\Local\Temp\ccpJqkfg.s 			page 15


 799              		.loc 1 277 3 view .LVU254
 800              		.loc 1 277 6 is_stmt 0 view .LVU255
 801 001c 01D3     		bcc	.L29
 802              		.loc 1 278 5 is_stmt 1 view .LVU256
 803              		.loc 1 278 18 is_stmt 0 view .LVU257
 804 001e 436A     		ldr	r3, [r0, #36]
 805 0020 4361     		str	r3, [r0, #20]
 806              	.L29:
 807              		.loc 1 282 3 is_stmt 1 view .LVU258
 808              		.loc 1 282 13 is_stmt 0 view .LVU259
 809 0022 0022     		movs	r2, #0
 810              		.loc 1 285 11 view .LVU260
 811 0024 036B     		ldr	r3, [r0, #48]
 812              		.loc 1 282 13 view .LVU261
 813 0026 8262     		str	r2, [r0, #40]
 814              		.loc 1 285 3 is_stmt 1 view .LVU262
 815              		.loc 1 285 6 is_stmt 0 view .LVU263
 816 0028 03B1     		cbz	r3, .L30
 817              		.loc 1 286 5 is_stmt 1 view .LVU264
 818 002a 9847     		blx	r3
 819              	.LVL44:
 820              	.L30:
 821              		.loc 1 286 5 is_stmt 0 view .LVU265
 822              	.LBE353:
 823              	.LBE352:
 824              		.loc 1 258 3 is_stmt 1 view .LVU266
 825              	.LBB354:
 826              	.LBI354:
 827              		.loc 2 584 20 view .LVU267
 828              		.loc 2 586 3 view .LVU268
 829              	.LBB355:
 830              	.LBI355:
 831              		.loc 6 421 20 view .LVU269
 832              	.LBB356:
 833              		.loc 6 423 23 view .LVU270
 834              		.loc 6 424 34 view .LVU271
 835              		.loc 6 430 3 view .LVU272
 836              		.loc 6 430 3 view .LVU273
 837              		.loc 6 430 3 view .LVU274
 838              		.loc 6 434 3 view .LVU275
 839              	.LBB357:
 840              	.LBI357:
 841              		.loc 7 830 27 view .LVU276
 842              		.loc 7 833 3 view .LVU277
 843              	.LBB358:
 844              	.LBI358:
 845              		.loc 5 491 27 view .LVU278
 846              	.LBB359:
 847              		.loc 5 493 3 view .LVU279
 848 002c 0023     		movs	r3, #0
 849              		.syntax unified
 850              	@ 493 "../../../os/common/ext/ARM/CMSIS/Core/Include/cmsis_gcc.h" 1
 851 002e 83F31188 		MSR basepri, r3
 852              	@ 0 "" 2
 853              	.LVL45:
 854              		.loc 5 493 3 is_stmt 0 view .LVU280
 855              		.thumb
ARM GAS  C:\Users\DEVELO~1\AppData\Local\Temp\ccpJqkfg.s 			page 16


 856              		.syntax unified
 857              	.LBE359:
 858              	.LBE358:
 859              	.LBE357:
 860              	.LBE356:
 861              	.LBE355:
 862              	.LBE354:
 863              		.loc 1 259 1 view .LVU281
 864 0032 08BD     		pop	{r3, pc}
 865              		.cfi_endproc
 866              	.LFE437:
 867              		.size	ibqReleaseEmptyBuffer, .-ibqReleaseEmptyBuffer
 868              		.section	.text.ibqReleaseEmptyBufferS,"ax",%progbits
 869              		.align	1
 870              		.p2align 4,,15
 871              		.global	ibqReleaseEmptyBufferS
 872              		.syntax unified
 873              		.thumb
 874              		.thumb_func
 875              		.type	ibqReleaseEmptyBufferS, %function
 876              	ibqReleaseEmptyBufferS:
 877              	.LVL46:
 878              	.LFB438:
 879              		.loc 1 269 60 is_stmt 1 view -0
 880              		.cfi_startproc
 881              		@ args = 0, pretend = 0, frame = 0
 882              		@ frame_needed = 0, uses_anonymous_args = 0
 883              		@ link register save eliminated.
 884              		.loc 1 271 23 view .LVU283
 885              		.loc 1 272 3 view .LVU284
 886              		.loc 1 272 3 view .LVU285
 887              		.loc 1 272 3 view .LVU286
 888              		.loc 1 275 3 view .LVU287
 889              		.loc 1 277 6 is_stmt 0 view .LVU288
 890 0000 D0E90531 		ldrd	r3, r1, [r0, #20]
 891              		.loc 1 276 16 view .LVU289
 892 0004 D0F81CC0 		ldr	ip, [r0, #28]
 893              		.loc 1 275 7 view .LVU290
 894 0008 C268     		ldr	r2, [r0, #12]
 895              		.loc 1 276 16 view .LVU291
 896 000a 6344     		add	r3, r3, ip
 897              		.loc 1 275 17 view .LVU292
 898 000c 013A     		subs	r2, r2, #1
 899              		.loc 1 277 6 view .LVU293
 900 000e 8B42     		cmp	r3, r1
 901              		.loc 1 276 16 view .LVU294
 902 0010 4361     		str	r3, [r0, #20]
 903              		.loc 1 275 17 view .LVU295
 904 0012 C260     		str	r2, [r0, #12]
 905              		.loc 1 276 3 is_stmt 1 view .LVU296
 906              		.loc 1 277 3 view .LVU297
 907              		.loc 1 277 6 is_stmt 0 view .LVU298
 908 0014 01D3     		bcc	.L36
 909              		.loc 1 278 5 is_stmt 1 view .LVU299
 910              		.loc 1 278 18 is_stmt 0 view .LVU300
 911 0016 436A     		ldr	r3, [r0, #36]
 912 0018 4361     		str	r3, [r0, #20]
ARM GAS  C:\Users\DEVELO~1\AppData\Local\Temp\ccpJqkfg.s 			page 17


 913              	.L36:
 914              		.loc 1 282 3 is_stmt 1 view .LVU301
 915              		.loc 1 282 13 is_stmt 0 view .LVU302
 916 001a 0022     		movs	r2, #0
 917              		.loc 1 285 11 view .LVU303
 918 001c 036B     		ldr	r3, [r0, #48]
 919              		.loc 1 282 13 view .LVU304
 920 001e 8262     		str	r2, [r0, #40]
 921              		.loc 1 285 3 is_stmt 1 view .LVU305
 922              		.loc 1 285 6 is_stmt 0 view .LVU306
 923 0020 03B1     		cbz	r3, .L35
 924              		.loc 1 286 5 is_stmt 1 view .LVU307
 925 0022 1847     		bx	r3	@ indirect register sibling call
 926              	.LVL47:
 927              	.L35:
 928              		.loc 1 288 1 is_stmt 0 view .LVU308
 929 0024 7047     		bx	lr
 930              		.cfi_endproc
 931              	.LFE438:
 932              		.size	ibqReleaseEmptyBufferS, .-ibqReleaseEmptyBufferS
 933 0026 00BF     		.section	.text.ibqGetTimeout,"ax",%progbits
 934              		.align	1
 935              		.p2align 4,,15
 936              		.global	ibqGetTimeout
 937              		.syntax unified
 938              		.thumb
 939              		.thumb_func
 940              		.type	ibqGetTimeout, %function
 941              	ibqGetTimeout:
 942              	.LVL48:
 943              	.LFB439:
 944              		.loc 1 309 73 is_stmt 1 view -0
 945              		.cfi_startproc
 946              		@ args = 0, pretend = 0, frame = 0
 947              		@ frame_needed = 0, uses_anonymous_args = 0
 948              		.loc 1 309 73 is_stmt 0 view .LVU310
 949 0000 70B5     		push	{r4, r5, r6, lr}
 950              		.cfi_def_cfa_offset 16
 951              		.cfi_offset 4, -16
 952              		.cfi_offset 5, -12
 953              		.cfi_offset 6, -8
 954              		.cfi_offset 14, -4
 955              	.LBB389:
 956              	.LBB390:
 957              	.LBB391:
 958              	.LBB392:
 959              	.LBB393:
 960              		.loc 5 493 3 view .LVU311
 961 0002 3023     		movs	r3, #48
 962              	.LBE393:
 963              	.LBE392:
 964              	.LBE391:
 965              	.LBE390:
 966              	.LBE389:
 967              		.loc 1 309 73 view .LVU312
 968 0004 0446     		mov	r4, r0
 969              		.loc 1 310 3 is_stmt 1 view .LVU313
ARM GAS  C:\Users\DEVELO~1\AppData\Local\Temp\ccpJqkfg.s 			page 18


 970              		.loc 1 312 3 view .LVU314
 971              	.LBB398:
 972              	.LBI389:
 973              		.loc 2 573 20 view .LVU315
 974              		.loc 2 575 3 view .LVU316
 975              	.LBB397:
 976              	.LBI390:
 977              		.loc 6 407 20 view .LVU317
 978              		.loc 6 409 3 view .LVU318
 979              	.LBB396:
 980              	.LBI391:
 981              		.loc 7 806 27 view .LVU319
 982              		.loc 7 814 3 view .LVU320
 983              	.LVL49:
 984              	.LBB395:
 985              	.LBI392:
 986              		.loc 5 491 27 view .LVU321
 987              	.LBB394:
 988              		.loc 5 493 3 view .LVU322
 989              		.syntax unified
 990              	@ 493 "../../../os/common/ext/ARM/CMSIS/Core/Include/cmsis_gcc.h" 1
 991 0006 83F31188 		MSR basepri, r3
 992              	@ 0 "" 2
 993              	.LVL50:
 994              		.loc 5 493 3 is_stmt 0 view .LVU323
 995              		.thumb
 996              		.syntax unified
 997              	.LBE394:
 998              	.LBE395:
 999              	.LBE396:
 1000              		.loc 6 410 35 is_stmt 1 view .LVU324
 1001              		.loc 6 411 21 view .LVU325
 1002              	.LBE397:
 1003              	.LBE398:
 1004              		.loc 1 315 3 view .LVU326
 1005              		.loc 1 315 11 is_stmt 0 view .LVU327
 1006 000a 836A     		ldr	r3, [r0, #40]
 1007              		.loc 1 315 6 view .LVU328
 1008 000c 1BB3     		cbz	r3, .L54
 1009              		.loc 1 329 24 view .LVU329
 1010 000e C26A     		ldr	r2, [r0, #44]
 1011              	.L40:
 1012              		.loc 1 324 3 is_stmt 1 view .LVU330
 1013              		.loc 1 324 7 is_stmt 0 view .LVU331
 1014 0010 13F8016B 		ldrb	r6, [r3], #1	@ zero_extendqisi2
 1015              	.LVL51:
 1016              		.loc 1 325 3 is_stmt 1 view .LVU332
 1017              		.loc 1 329 6 is_stmt 0 view .LVU333
 1018 0014 9342     		cmp	r3, r2
 1019              		.loc 1 325 12 view .LVU334
 1020 0016 A362     		str	r3, [r4, #40]
 1021              		.loc 1 329 3 is_stmt 1 view .LVU335
 1022              		.loc 1 329 6 is_stmt 0 view .LVU336
 1023 0018 04D2     		bcs	.L56
 1024              	.LVL52:
 1025              	.L41:
 1026              		.loc 1 317 5 is_stmt 1 view .LVU337
ARM GAS  C:\Users\DEVELO~1\AppData\Local\Temp\ccpJqkfg.s 			page 19


 1027              		.loc 1 318 7 view .LVU338
 1028              	.LBB399:
 1029              	.LBI399:
 1030              		.loc 2 584 20 view .LVU339
 1031              		.loc 2 586 3 view .LVU340
 1032              	.LBB400:
 1033              	.LBI400:
 1034              		.loc 6 421 20 view .LVU341
 1035              	.LBB401:
 1036              		.loc 6 423 23 view .LVU342
 1037              		.loc 6 424 34 view .LVU343
 1038              		.loc 6 430 3 view .LVU344
 1039              		.loc 6 430 3 view .LVU345
 1040              		.loc 6 430 3 view .LVU346
 1041              		.loc 6 434 3 view .LVU347
 1042              	.LBB402:
 1043              	.LBI402:
 1044              		.loc 7 830 27 view .LVU348
 1045              		.loc 7 833 3 view .LVU349
 1046              	.LBB403:
 1047              	.LBI403:
 1048              		.loc 5 491 27 view .LVU350
 1049              	.LBB404:
 1050              		.loc 5 493 3 view .LVU351
 1051 001a 0023     		movs	r3, #0
 1052              		.syntax unified
 1053              	@ 493 "../../../os/common/ext/ARM/CMSIS/Core/Include/cmsis_gcc.h" 1
 1054 001c 83F31188 		MSR basepri, r3
 1055              	@ 0 "" 2
 1056              	.LVL53:
 1057              		.loc 5 493 3 is_stmt 0 view .LVU352
 1058              		.thumb
 1059              		.syntax unified
 1060              	.LBE404:
 1061              	.LBE403:
 1062              	.LBE402:
 1063              	.LBE401:
 1064              	.LBE400:
 1065              	.LBE399:
 1066              		.loc 1 319 7 is_stmt 1 view .LVU353
 1067              		.loc 1 335 1 is_stmt 0 view .LVU354
 1068 0020 3046     		mov	r0, r6
 1069 0022 70BD     		pop	{r4, r5, r6, pc}
 1070              	.LVL54:
 1071              	.L56:
 1072              		.loc 1 330 5 is_stmt 1 view .LVU355
 1073              	.LBB410:
 1074              	.LBI410:
 1075              		.loc 1 269 8 view .LVU356
 1076              	.LBB411:
 1077              		.loc 1 271 23 view .LVU357
 1078              		.loc 1 272 3 view .LVU358
 1079              		.loc 1 272 3 view .LVU359
 1080              		.loc 1 272 3 view .LVU360
 1081              		.loc 1 275 3 view .LVU361
 1082              		.loc 1 276 16 is_stmt 0 view .LVU362
 1083 0024 6369     		ldr	r3, [r4, #20]
ARM GAS  C:\Users\DEVELO~1\AppData\Local\Temp\ccpJqkfg.s 			page 20


 1084 0026 E169     		ldr	r1, [r4, #28]
 1085              	.LVL55:
 1086              		.loc 1 275 7 view .LVU363
 1087 0028 E268     		ldr	r2, [r4, #12]
 1088              		.loc 1 276 16 view .LVU364
 1089 002a 0B44     		add	r3, r3, r1
 1090              		.loc 1 277 6 view .LVU365
 1091 002c A169     		ldr	r1, [r4, #24]
 1092              		.loc 1 275 17 view .LVU366
 1093 002e 013A     		subs	r2, r2, #1
 1094              		.loc 1 277 6 view .LVU367
 1095 0030 8B42     		cmp	r3, r1
 1096              		.loc 1 276 16 view .LVU368
 1097 0032 6361     		str	r3, [r4, #20]
 1098              		.loc 1 275 17 view .LVU369
 1099 0034 E260     		str	r2, [r4, #12]
 1100              		.loc 1 276 3 is_stmt 1 view .LVU370
 1101              		.loc 1 277 3 view .LVU371
 1102              		.loc 1 277 6 is_stmt 0 view .LVU372
 1103 0036 0BD2     		bcs	.L57
 1104              	.L45:
 1105              		.loc 1 282 3 is_stmt 1 view .LVU373
 1106              		.loc 1 282 13 is_stmt 0 view .LVU374
 1107 0038 0022     		movs	r2, #0
 1108              		.loc 1 285 11 view .LVU375
 1109 003a 236B     		ldr	r3, [r4, #48]
 1110              		.loc 1 282 13 view .LVU376
 1111 003c A262     		str	r2, [r4, #40]
 1112              		.loc 1 285 3 is_stmt 1 view .LVU377
 1113              		.loc 1 285 6 is_stmt 0 view .LVU378
 1114 003e 002B     		cmp	r3, #0
 1115 0040 EBD0     		beq	.L41
 1116              		.loc 1 286 5 is_stmt 1 view .LVU379
 1117 0042 2046     		mov	r0, r4
 1118              	.LVL56:
 1119              		.loc 1 286 5 is_stmt 0 view .LVU380
 1120 0044 9847     		blx	r3
 1121              	.LVL57:
 1122              		.loc 1 286 5 view .LVU381
 1123              	.LBE411:
 1124              	.LBE410:
 1125              		.loc 1 333 3 is_stmt 1 view .LVU382
 1126              	.LBB413:
 1127              	.LBI413:
 1128              		.loc 2 584 20 view .LVU383
 1129              		.loc 2 586 3 view .LVU384
 1130              	.LBB414:
 1131              	.LBI414:
 1132              		.loc 6 421 20 view .LVU385
 1133              	.LBB415:
 1134              		.loc 6 423 23 view .LVU386
 1135              		.loc 6 424 34 view .LVU387
 1136              		.loc 6 430 3 view .LVU388
 1137              		.loc 6 430 3 view .LVU389
 1138              		.loc 6 430 3 view .LVU390
 1139              		.loc 6 434 3 view .LVU391
 1140              	.LBB416:
ARM GAS  C:\Users\DEVELO~1\AppData\Local\Temp\ccpJqkfg.s 			page 21


 1141              	.LBI416:
 1142              		.loc 7 830 27 view .LVU392
 1143              		.loc 7 833 3 view .LVU393
 1144              	.LBB417:
 1145              	.LBI417:
 1146              		.loc 5 491 27 view .LVU394
 1147              	.LBB418:
 1148              		.loc 5 493 3 view .LVU395
 1149              		.loc 5 493 3 is_stmt 0 view .LVU396
 1150              	.LBE418:
 1151              	.LBE417:
 1152              	.LBE416:
 1153              	.LBE415:
 1154              	.LBE414:
 1155              	.LBE413:
 1156              		.loc 1 317 5 is_stmt 1 view .LVU397
 1157              		.loc 1 318 7 view .LVU398
 1158              	.LBB419:
 1159              		.loc 2 584 20 view .LVU399
 1160              		.loc 2 586 3 view .LVU400
 1161              	.LBB409:
 1162              		.loc 6 421 20 view .LVU401
 1163              	.LBB408:
 1164              		.loc 6 423 23 view .LVU402
 1165              		.loc 6 424 34 view .LVU403
 1166              		.loc 6 430 3 view .LVU404
 1167              		.loc 6 430 3 view .LVU405
 1168              		.loc 6 430 3 view .LVU406
 1169              		.loc 6 434 3 view .LVU407
 1170              	.LBB407:
 1171              		.loc 7 830 27 view .LVU408
 1172              		.loc 7 833 3 view .LVU409
 1173              	.LBB406:
 1174              		.loc 5 491 27 view .LVU410
 1175              	.LBB405:
 1176              		.loc 5 493 3 view .LVU411
 1177 0046 0023     		movs	r3, #0
 1178              		.syntax unified
 1179              	@ 493 "../../../os/common/ext/ARM/CMSIS/Core/Include/cmsis_gcc.h" 1
 1180 0048 83F31188 		MSR basepri, r3
 1181              	@ 0 "" 2
 1182              	.LVL58:
 1183              		.loc 5 493 3 is_stmt 0 view .LVU412
 1184              		.thumb
 1185              		.syntax unified
 1186              	.LBE405:
 1187              	.LBE406:
 1188              	.LBE407:
 1189              	.LBE408:
 1190              	.LBE409:
 1191              	.LBE419:
 1192              		.loc 1 319 7 is_stmt 1 view .LVU413
 1193              		.loc 1 335 1 is_stmt 0 view .LVU414
 1194 004c 3046     		mov	r0, r6
 1195 004e 70BD     		pop	{r4, r5, r6, pc}
 1196              	.LVL59:
 1197              	.L57:
ARM GAS  C:\Users\DEVELO~1\AppData\Local\Temp\ccpJqkfg.s 			page 22


 1198              	.LBB420:
 1199              	.LBB412:
 1200              		.loc 1 278 5 is_stmt 1 view .LVU415
 1201              		.loc 1 278 18 is_stmt 0 view .LVU416
 1202 0050 636A     		ldr	r3, [r4, #36]
 1203 0052 6361     		str	r3, [r4, #20]
 1204 0054 F0E7     		b	.L45
 1205              	.LVL60:
 1206              	.L54:
 1207              		.loc 1 278 18 view .LVU417
 1208 0056 0D46     		mov	r5, r1
 1209 0058 05E0     		b	.L39
 1210              	.LVL61:
 1211              	.L42:
 1212              		.loc 1 278 18 view .LVU418
 1213              	.LBE412:
 1214              	.LBE420:
 1215              	.LBB421:
 1216              	.LBB422:
 1217              	.LBB423:
 1218              		.loc 1 228 8 view .LVU419
 1219 005a 237A     		ldrb	r3, [r4, #8]	@ zero_extendqisi2
 1220 005c 7BB9     		cbnz	r3, .L48
 1221              	.LBB424:
 1222              	.LBB425:
 1223              		.loc 2 895 10 view .LVU420
 1224 005e FFF7FEFF 		bl	chThdEnqueueTimeoutS
 1225              	.LVL62:
 1226              		.loc 2 895 10 view .LVU421
 1227              	.LBE425:
 1228              	.LBE424:
 1229              		.loc 1 232 5 is_stmt 1 view .LVU422
 1230              		.loc 1 232 8 is_stmt 0 view .LVU423
 1231 0062 061E     		subs	r6, r0, #0
 1232 0064 D9DB     		blt	.L41
 1233              	.LVL63:
 1234              	.L39:
 1235              		.loc 1 228 5 is_stmt 1 view .LVU424
 1236              		.loc 1 231 5 view .LVU425
 1237              	.LBB428:
 1238              	.LBI424:
 1239              		.loc 2 892 21 view .LVU426
 1240              	.LBB426:
 1241              		.loc 2 895 3 view .LVU427
 1242              	.LBE426:
 1243              	.LBE428:
 1244              	.LBE423:
 1245              		.loc 1 227 10 view .LVU428
 1246 0066 E368     		ldr	r3, [r4, #12]
 1247              	.LBB430:
 1248              	.LBB429:
 1249              	.LBB427:
 1250              		.loc 2 895 10 is_stmt 0 view .LVU429
 1251 0068 2946     		mov	r1, r5
 1252 006a 2046     		mov	r0, r4
 1253              	.LBE427:
 1254              	.LBE429:
ARM GAS  C:\Users\DEVELO~1\AppData\Local\Temp\ccpJqkfg.s 			page 23


 1255              	.LBE430:
 1256              		.loc 1 227 10 view .LVU430
 1257 006c 002B     		cmp	r3, #0
 1258 006e F4D0     		beq	.L42
 1259              	.LVL64:
 1260              	.LBB431:
 1261              	.LBI431:
 1262              		.loc 1 222 9 is_stmt 1 view .LVU431
 1263              	.LBB432:
 1264              		.loc 1 237 3 view .LVU432
 1265              		.loc 1 237 3 view .LVU433
 1266              		.loc 1 237 3 view .LVU434
 1267              		.loc 1 240 3 view .LVU435
 1268              		.loc 1 240 19 is_stmt 0 view .LVU436
 1269 0070 6269     		ldr	r2, [r4, #20]
 1270              		.loc 1 240 28 view .LVU437
 1271 0072 131D     		adds	r3, r2, #4
 1272              		.loc 1 241 25 view .LVU438
 1273 0074 1268     		ldr	r2, [r2]
 1274 0076 1A44     		add	r2, r2, r3
 1275              		.loc 1 241 13 view .LVU439
 1276 0078 C4E90A32 		strd	r3, r2, [r4, #40]
 1277              		.loc 1 243 3 is_stmt 1 view .LVU440
 1278              	.LVL65:
 1279              		.loc 1 243 3 is_stmt 0 view .LVU441
 1280              	.LBE432:
 1281              	.LBE431:
 1282              	.LBE422:
 1283              	.LBE421:
 1284              		.loc 1 317 5 is_stmt 1 view .LVU442
 1285 007c C8E7     		b	.L40
 1286              	.LVL66:
 1287              	.L48:
 1288              	.LBB435:
 1289              	.LBB434:
 1290              	.LBB433:
 1291              		.loc 1 229 14 is_stmt 0 view .LVU443
 1292 007e 6FF00106 		mvn	r6, #1
 1293 0082 CAE7     		b	.L41
 1294              	.LBE433:
 1295              	.LBE434:
 1296              	.LBE435:
 1297              		.cfi_endproc
 1298              	.LFE439:
 1299              		.size	ibqGetTimeout, .-ibqGetTimeout
 1300              		.section	.text.ibqReadTimeout,"ax",%progbits
 1301              		.align	1
 1302              		.p2align 4,,15
 1303              		.global	ibqReadTimeout
 1304              		.syntax unified
 1305              		.thumb
 1306              		.thumb_func
 1307              		.type	ibqReadTimeout, %function
 1308              	ibqReadTimeout:
 1309              	.LVL67:
 1310              	.LFB440:
 1311              		.loc 1 359 56 is_stmt 1 view -0
ARM GAS  C:\Users\DEVELO~1\AppData\Local\Temp\ccpJqkfg.s 			page 24


 1312              		.cfi_startproc
 1313              		@ args = 0, pretend = 0, frame = 0
 1314              		@ frame_needed = 0, uses_anonymous_args = 0
 1315              		.loc 1 360 3 view .LVU445
 1316              		.loc 1 362 3 view .LVU446
 1317              		.loc 1 362 3 view .LVU447
 1318              		.loc 1 362 3 view .LVU448
 1319              		.loc 1 364 3 view .LVU449
 1320              	.LBB474:
 1321              	.LBI474:
 1322              		.loc 2 573 20 view .LVU450
 1323              	.LBB475:
 1324              		.loc 2 575 3 view .LVU451
 1325              	.LBB476:
 1326              	.LBI476:
 1327              		.loc 6 407 20 view .LVU452
 1328              		.loc 6 409 3 view .LVU453
 1329              	.LBB477:
 1330              	.LBI477:
 1331              		.loc 7 806 27 view .LVU454
 1332              		.loc 7 814 3 view .LVU455
 1333              	.LBB478:
 1334              	.LBI478:
 1335              		.loc 5 491 27 view .LVU456
 1336              	.LBB479:
 1337              		.loc 5 493 3 view .LVU457
 1338              	.LBE479:
 1339              	.LBE478:
 1340              	.LBE477:
 1341              	.LBE476:
 1342              	.LBE475:
 1343              	.LBE474:
 1344              		.loc 1 359 56 is_stmt 0 view .LVU458
 1345 0000 2DE9F84F 		push	{r3, r4, r5, r6, r7, r8, r9, r10, fp, lr}
 1346              		.cfi_def_cfa_offset 40
 1347              		.cfi_offset 3, -40
 1348              		.cfi_offset 4, -36
 1349              		.cfi_offset 5, -32
 1350              		.cfi_offset 6, -28
 1351              		.cfi_offset 7, -24
 1352              		.cfi_offset 8, -20
 1353              		.cfi_offset 9, -16
 1354              		.cfi_offset 10, -12
 1355              		.cfi_offset 11, -8
 1356              		.cfi_offset 14, -4
 1357              		.loc 1 359 56 view .LVU459
 1358 0004 8246     		mov	r10, r0
 1359 0006 0D46     		mov	r5, r1
 1360 0008 1646     		mov	r6, r2
 1361 000a 1F46     		mov	r7, r3
 1362              	.LBB485:
 1363              	.LBB484:
 1364              	.LBB483:
 1365              	.LBB482:
 1366              	.LBB481:
 1367              	.LBB480:
 1368              		.loc 5 493 3 view .LVU460
ARM GAS  C:\Users\DEVELO~1\AppData\Local\Temp\ccpJqkfg.s 			page 25


 1369 000c 4FF03009 		mov	r9, #48
 1370              		.syntax unified
 1371              	@ 493 "../../../os/common/ext/ARM/CMSIS/Core/Include/cmsis_gcc.h" 1
 1372 0010 89F31188 		MSR basepri, r9
 1373              	@ 0 "" 2
 1374              	.LVL68:
 1375              		.loc 5 493 3 view .LVU461
 1376              		.thumb
 1377              		.syntax unified
 1378              	.LBE480:
 1379              	.LBE481:
 1380              	.LBE482:
 1381              		.loc 6 410 35 is_stmt 1 view .LVU462
 1382              		.loc 6 411 21 view .LVU463
 1383              	.LBE483:
 1384              	.LBE484:
 1385              	.LBE485:
 1386              		.loc 1 360 10 is_stmt 0 view .LVU464
 1387 0014 0024     		movs	r4, #0
 1388              	.LBB486:
 1389              	.LBB487:
 1390              	.LBB488:
 1391              		.loc 1 282 13 view .LVU465
 1392 0016 A046     		mov	r8, r4
 1393              	.LVL69:
 1394              	.L71:
 1395              		.loc 1 282 13 view .LVU466
 1396              	.LBE488:
 1397              	.LBE487:
 1398              	.LBE486:
 1399              		.loc 1 366 3 is_stmt 1 view .LVU467
 1400              	.LBB523:
 1401              		.loc 1 367 5 view .LVU468
 1402              		.loc 1 370 5 view .LVU469
 1403              		.loc 1 370 13 is_stmt 0 view .LVU470
 1404 0018 DAF82810 		ldr	r1, [r10, #40]
 1405              		.loc 1 370 8 view .LVU471
 1406 001c D9B3     		cbz	r1, .L59
 1407              		.loc 1 384 24 view .LVU472
 1408 001e DAF82C30 		ldr	r3, [r10, #44]
 1409              	.L60:
 1410              		.loc 1 384 5 is_stmt 1 view .LVU473
 1411              	.LVL70:
 1412              		.loc 1 385 5 view .LVU474
 1413              		.loc 1 385 19 is_stmt 0 view .LVU475
 1414 0022 A6EB040B 		sub	fp, r6, r4
 1415              		.loc 1 384 10 view .LVU476
 1416 0026 5B1A     		subs	r3, r3, r1
 1417              	.LVL71:
 1418              		.loc 1 384 10 view .LVU477
 1419 0028 9B45     		cmp	fp, r3
 1420 002a 28BF     		it	cs
 1421 002c 9B46     		movcs	fp, r3
 1422              	.LVL72:
 1423              		.loc 1 391 5 is_stmt 1 view .LVU478
 1424              		.loc 1 391 8 is_stmt 0 view .LVU479
 1425 002e BBF1400F 		cmp	fp, #64
ARM GAS  C:\Users\DEVELO~1\AppData\Local\Temp\ccpJqkfg.s 			page 26


 1426 0032 3ED9     		bls	.L63
 1427              		.loc 1 393 7 is_stmt 1 view .LVU480
 1428 0034 2B46     		mov	r3, r5
 1429 0036 01F1400B 		add	fp, r1, #64
 1430              	.LVL73:
 1431              	.L64:
 1432              		.loc 1 393 7 is_stmt 0 view .LVU481
 1433 003a D1F800E0 		ldr	lr, [r1]	@ unaligned
 1434 003e 1031     		adds	r1, r1, #16
 1435 0040 51F80CCC 		ldr	ip, [r1, #-12]	@ unaligned
 1436 0044 1033     		adds	r3, r3, #16
 1437 0046 51F8080C 		ldr	r0, [r1, #-8]	@ unaligned
 1438 004a 51F8042C 		ldr	r2, [r1, #-4]	@ unaligned
 1439 004e 5945     		cmp	r1, fp
 1440 0050 43F810EC 		str	lr, [r3, #-16]	@ unaligned
 1441 0054 43F80CCC 		str	ip, [r3, #-12]	@ unaligned
 1442 0058 43F8080C 		str	r0, [r3, #-8]	@ unaligned
 1443 005c 43F8042C 		str	r2, [r3, #-4]	@ unaligned
 1444 0060 EBD1     		bne	.L64
 1445              		.loc 1 394 7 is_stmt 1 view .LVU482
 1446              		.loc 1 395 17 is_stmt 0 view .LVU483
 1447 0062 DAF82830 		ldr	r3, [r10, #40]
 1448              		.loc 1 394 17 view .LVU484
 1449 0066 4035     		adds	r5, r5, #64
 1450              	.LVL74:
 1451              		.loc 1 395 7 is_stmt 1 view .LVU485
 1452              		.loc 1 406 8 is_stmt 0 view .LVU486
 1453 0068 DAF82C20 		ldr	r2, [r10, #44]
 1454              		.loc 1 396 17 view .LVU487
 1455 006c 4034     		adds	r4, r4, #64
 1456              	.LVL75:
 1457              		.loc 1 395 17 view .LVU488
 1458 006e 4033     		adds	r3, r3, #64
 1459              		.loc 1 396 7 is_stmt 1 view .LVU489
 1460              	.LVL76:
 1461              		.loc 1 406 8 is_stmt 0 view .LVU490
 1462 0070 9A42     		cmp	r2, r3
 1463              		.loc 1 395 17 view .LVU491
 1464 0072 CAF82830 		str	r3, [r10, #40]
 1465              		.loc 1 406 5 is_stmt 1 view .LVU492
 1466              		.loc 1 406 8 is_stmt 0 view .LVU493
 1467 0076 2BD9     		bls	.L79
 1468              	.L67:
 1469              		.loc 1 411 5 is_stmt 1 view .LVU494
 1470              	.LBB490:
 1471              	.LBI490:
 1472              		.loc 2 584 20 view .LVU495
 1473              		.loc 2 586 3 view .LVU496
 1474              	.LBB491:
 1475              	.LBI491:
 1476              		.loc 6 421 20 view .LVU497
 1477              	.LBB492:
 1478              		.loc 6 423 23 view .LVU498
 1479              		.loc 6 424 34 view .LVU499
 1480              		.loc 6 430 3 view .LVU500
 1481              		.loc 6 430 3 view .LVU501
 1482              		.loc 6 430 3 view .LVU502
ARM GAS  C:\Users\DEVELO~1\AppData\Local\Temp\ccpJqkfg.s 			page 27


 1483              		.loc 6 434 3 view .LVU503
 1484              	.LBB493:
 1485              	.LBI493:
 1486              		.loc 7 830 27 view .LVU504
 1487              		.loc 7 833 3 view .LVU505
 1488              	.LVL77:
 1489              	.LBB494:
 1490              	.LBI494:
 1491              		.loc 5 491 27 view .LVU506
 1492              	.LBB495:
 1493              		.loc 5 493 3 view .LVU507
 1494              		.syntax unified
 1495              	@ 493 "../../../os/common/ext/ARM/CMSIS/Core/Include/cmsis_gcc.h" 1
 1496 0078 88F31188 		MSR basepri, r8
 1497              	@ 0 "" 2
 1498              	.LVL78:
 1499              		.loc 5 493 3 is_stmt 0 view .LVU508
 1500              		.thumb
 1501              		.syntax unified
 1502              	.LBE495:
 1503              	.LBE494:
 1504              	.LBE493:
 1505              	.LBE492:
 1506              	.LBE491:
 1507              	.LBE490:
 1508              		.loc 1 412 5 is_stmt 1 view .LVU509
 1509              		.loc 1 412 8 is_stmt 0 view .LVU510
 1510 007c B442     		cmp	r4, r6
 1511 007e 45D2     		bcs	.L58
 1512              		.loc 1 415 5 is_stmt 1 view .LVU511
 1513              	.LBB496:
 1514              	.LBI496:
 1515              		.loc 2 573 20 view .LVU512
 1516              	.LBB497:
 1517              		.loc 2 575 3 view .LVU513
 1518              	.LBB498:
 1519              	.LBI498:
 1520              		.loc 6 407 20 view .LVU514
 1521              		.loc 6 409 3 view .LVU515
 1522              	.LBB499:
 1523              	.LBI499:
 1524              		.loc 7 806 27 view .LVU516
 1525              		.loc 7 814 3 view .LVU517
 1526              	.LVL79:
 1527              	.LBB500:
 1528              	.LBI500:
 1529              		.loc 5 491 27 view .LVU518
 1530              	.LBB501:
 1531              		.loc 5 493 3 view .LVU519
 1532              		.syntax unified
 1533              	@ 493 "../../../os/common/ext/ARM/CMSIS/Core/Include/cmsis_gcc.h" 1
 1534 0080 89F31188 		MSR basepri, r9
 1535              	@ 0 "" 2
 1536              	.LVL80:
 1537              		.loc 5 493 3 is_stmt 0 view .LVU520
 1538              		.thumb
 1539              		.syntax unified
ARM GAS  C:\Users\DEVELO~1\AppData\Local\Temp\ccpJqkfg.s 			page 28


 1540              	.LBE501:
 1541              	.LBE500:
 1542              	.LBE499:
 1543              		.loc 6 410 35 is_stmt 1 view .LVU521
 1544              		.loc 6 411 21 view .LVU522
 1545              	.LBE498:
 1546              		.loc 2 576 1 is_stmt 0 view .LVU523
 1547 0084 C8E7     		b	.L71
 1548              	.LVL81:
 1549              	.L62:
 1550              		.loc 2 576 1 view .LVU524
 1551              	.LBE497:
 1552              	.LBE496:
 1553              	.LBB502:
 1554              	.LBB503:
 1555              	.LBB504:
 1556              	.LBB505:
 1557              		.loc 1 228 8 view .LVU525
 1558 0086 9AF80830 		ldrb	r3, [r10, #8]	@ zero_extendqisi2
 1559 008a 002B     		cmp	r3, #0
 1560 008c 3BD1     		bne	.L61
 1561              	.LBB506:
 1562              	.LBB507:
 1563              		.loc 2 895 10 view .LVU526
 1564 008e FFF7FEFF 		bl	chThdEnqueueTimeoutS
 1565              	.LVL82:
 1566              		.loc 2 895 10 view .LVU527
 1567              	.LBE507:
 1568              	.LBE506:
 1569              		.loc 1 232 5 is_stmt 1 view .LVU528
 1570              		.loc 1 232 8 is_stmt 0 view .LVU529
 1571 0092 0028     		cmp	r0, #0
 1572 0094 37DB     		blt	.L61
 1573              	.LVL83:
 1574              	.L59:
 1575              		.loc 1 228 5 is_stmt 1 view .LVU530
 1576              		.loc 1 231 5 view .LVU531
 1577              	.LBB510:
 1578              	.LBI506:
 1579              		.loc 2 892 21 view .LVU532
 1580              	.LBB508:
 1581              		.loc 2 895 3 view .LVU533
 1582              	.LBE508:
 1583              	.LBE510:
 1584              	.LBE505:
 1585              		.loc 1 227 10 view .LVU534
 1586 0096 DAF80C30 		ldr	r3, [r10, #12]
 1587              	.LBB512:
 1588              	.LBB511:
 1589              	.LBB509:
 1590              		.loc 2 895 10 is_stmt 0 view .LVU535
 1591 009a 3946     		mov	r1, r7
 1592 009c 5046     		mov	r0, r10
 1593              	.LBE509:
 1594              	.LBE511:
 1595              	.LBE512:
 1596              		.loc 1 227 10 view .LVU536
ARM GAS  C:\Users\DEVELO~1\AppData\Local\Temp\ccpJqkfg.s 			page 29


 1597 009e 002B     		cmp	r3, #0
 1598 00a0 F1D0     		beq	.L62
 1599              	.LVL84:
 1600              	.LBB513:
 1601              	.LBI513:
 1602              		.loc 1 222 9 is_stmt 1 view .LVU537
 1603              	.LBB514:
 1604              		.loc 1 237 3 view .LVU538
 1605              		.loc 1 237 3 view .LVU539
 1606              		.loc 1 237 3 view .LVU540
 1607              		.loc 1 240 3 view .LVU541
 1608              		.loc 1 240 19 is_stmt 0 view .LVU542
 1609 00a2 DAF81430 		ldr	r3, [r10, #20]
 1610              		.loc 1 240 28 view .LVU543
 1611 00a6 191D     		adds	r1, r3, #4
 1612              	.LVL85:
 1613              		.loc 1 241 25 view .LVU544
 1614 00a8 1B68     		ldr	r3, [r3]
 1615 00aa 0B44     		add	r3, r3, r1
 1616              		.loc 1 241 13 view .LVU545
 1617 00ac CAE90A13 		strd	r1, r3, [r10, #40]
 1618              		.loc 1 243 3 is_stmt 1 view .LVU546
 1619              	.LVL86:
 1620              		.loc 1 243 3 is_stmt 0 view .LVU547
 1621              	.LBE514:
 1622              	.LBE513:
 1623              	.LBE504:
 1624              	.LBE503:
 1625              		.loc 1 377 7 is_stmt 1 view .LVU548
 1626 00b0 B7E7     		b	.L60
 1627              	.LVL87:
 1628              	.L63:
 1629              		.loc 1 377 7 is_stmt 0 view .LVU549
 1630              	.LBE502:
 1631              		.loc 1 399 7 is_stmt 1 view .LVU550
 1632 00b2 2846     		mov	r0, r5
 1633 00b4 5A46     		mov	r2, fp
 1634 00b6 FFF7FEFF 		bl	memcpy
 1635              	.LVL88:
 1636              		.loc 1 400 7 view .LVU551
 1637              		.loc 1 401 17 is_stmt 0 view .LVU552
 1638 00ba DAF82830 		ldr	r3, [r10, #40]
 1639              		.loc 1 406 8 view .LVU553
 1640 00be DAF82C20 		ldr	r2, [r10, #44]
 1641              		.loc 1 400 17 view .LVU554
 1642 00c2 5D44     		add	r5, r5, fp
 1643              	.LVL89:
 1644              		.loc 1 401 7 is_stmt 1 view .LVU555
 1645              		.loc 1 401 17 is_stmt 0 view .LVU556
 1646 00c4 5B44     		add	r3, r3, fp
 1647              		.loc 1 402 7 is_stmt 1 view .LVU557
 1648              		.loc 1 402 17 is_stmt 0 view .LVU558
 1649 00c6 5C44     		add	r4, r4, fp
 1650              	.LVL90:
 1651              		.loc 1 406 8 view .LVU559
 1652 00c8 9A42     		cmp	r2, r3
 1653              		.loc 1 395 17 view .LVU560
ARM GAS  C:\Users\DEVELO~1\AppData\Local\Temp\ccpJqkfg.s 			page 30


 1654 00ca CAF82830 		str	r3, [r10, #40]
 1655              		.loc 1 406 5 is_stmt 1 view .LVU561
 1656              		.loc 1 406 8 is_stmt 0 view .LVU562
 1657 00ce D3D8     		bhi	.L67
 1658              	.LVL91:
 1659              	.L79:
 1660              		.loc 1 407 7 is_stmt 1 view .LVU563
 1661              	.LBB521:
 1662              	.LBI487:
 1663              		.loc 1 269 8 view .LVU564
 1664              	.LBB489:
 1665              		.loc 1 271 23 view .LVU565
 1666              		.loc 1 272 3 view .LVU566
 1667              		.loc 1 272 3 view .LVU567
 1668              		.loc 1 272 3 view .LVU568
 1669              		.loc 1 275 3 view .LVU569
 1670              		.loc 1 276 16 is_stmt 0 view .LVU570
 1671 00d0 DAF81430 		ldr	r3, [r10, #20]
 1672              		.loc 1 275 7 view .LVU571
 1673 00d4 DAF80C00 		ldr	r0, [r10, #12]
 1674              		.loc 1 277 6 view .LVU572
 1675 00d8 DAE90621 		ldrd	r2, r1, [r10, #24]
 1676              		.loc 1 275 17 view .LVU573
 1677 00dc 0138     		subs	r0, r0, #1
 1678              		.loc 1 276 16 view .LVU574
 1679 00de 0B44     		add	r3, r3, r1
 1680              		.loc 1 275 17 view .LVU575
 1681 00e0 CAF80C00 		str	r0, [r10, #12]
 1682              		.loc 1 276 3 is_stmt 1 view .LVU576
 1683              		.loc 1 277 6 is_stmt 0 view .LVU577
 1684 00e4 9342     		cmp	r3, r2
 1685              		.loc 1 276 16 view .LVU578
 1686 00e6 CAF81430 		str	r3, [r10, #20]
 1687              		.loc 1 277 3 is_stmt 1 view .LVU579
 1688              		.loc 1 277 6 is_stmt 0 view .LVU580
 1689 00ea 03D3     		bcc	.L68
 1690              		.loc 1 278 5 is_stmt 1 view .LVU581
 1691              		.loc 1 278 18 is_stmt 0 view .LVU582
 1692 00ec DAF82430 		ldr	r3, [r10, #36]
 1693 00f0 CAF81430 		str	r3, [r10, #20]
 1694              	.L68:
 1695              		.loc 1 282 3 is_stmt 1 view .LVU583
 1696              		.loc 1 285 11 is_stmt 0 view .LVU584
 1697 00f4 DAF83030 		ldr	r3, [r10, #48]
 1698              		.loc 1 282 13 view .LVU585
 1699 00f8 CAF82880 		str	r8, [r10, #40]
 1700              		.loc 1 285 3 is_stmt 1 view .LVU586
 1701              		.loc 1 285 6 is_stmt 0 view .LVU587
 1702 00fc 002B     		cmp	r3, #0
 1703 00fe BBD0     		beq	.L67
 1704              		.loc 1 286 5 is_stmt 1 view .LVU588
 1705 0100 5046     		mov	r0, r10
 1706 0102 9847     		blx	r3
 1707              	.LVL92:
 1708 0104 B8E7     		b	.L67
 1709              	.LVL93:
 1710              	.L61:
ARM GAS  C:\Users\DEVELO~1\AppData\Local\Temp\ccpJqkfg.s 			page 31


 1711              		.loc 1 286 5 is_stmt 0 view .LVU589
 1712              	.LBE489:
 1713              	.LBE521:
 1714              	.LBB522:
 1715              		.loc 1 377 7 is_stmt 1 view .LVU590
 1716              		.loc 1 378 9 view .LVU591
 1717              	.LBB515:
 1718              	.LBI515:
 1719              		.loc 2 584 20 view .LVU592
 1720              		.loc 2 586 3 view .LVU593
 1721              	.LBB516:
 1722              	.LBI516:
 1723              		.loc 6 421 20 view .LVU594
 1724              	.LBB517:
 1725              		.loc 6 423 23 view .LVU595
 1726              		.loc 6 424 34 view .LVU596
 1727              		.loc 6 430 3 view .LVU597
 1728              		.loc 6 430 3 view .LVU598
 1729              		.loc 6 430 3 view .LVU599
 1730              		.loc 6 434 3 view .LVU600
 1731              	.LBB518:
 1732              	.LBI518:
 1733              		.loc 7 830 27 view .LVU601
 1734              		.loc 7 833 3 view .LVU602
 1735              	.LBB519:
 1736              	.LBI519:
 1737              		.loc 5 491 27 view .LVU603
 1738              	.LBB520:
 1739              		.loc 5 493 3 view .LVU604
 1740 0106 0023     		movs	r3, #0
 1741              		.syntax unified
 1742              	@ 493 "../../../os/common/ext/ARM/CMSIS/Core/Include/cmsis_gcc.h" 1
 1743 0108 83F31188 		MSR basepri, r3
 1744              	@ 0 "" 2
 1745              	.LVL94:
 1746              		.loc 5 493 3 is_stmt 0 view .LVU605
 1747              		.thumb
 1748              		.syntax unified
 1749              	.LBE520:
 1750              	.LBE519:
 1751              	.LBE518:
 1752              	.LBE517:
 1753              	.LBE516:
 1754              	.LBE515:
 1755              		.loc 1 379 9 is_stmt 1 view .LVU606
 1756              	.L58:
 1757              		.loc 1 379 9 is_stmt 0 view .LVU607
 1758              	.LBE522:
 1759              	.LBE523:
 1760              		.loc 1 417 1 view .LVU608
 1761 010c 2046     		mov	r0, r4
 1762 010e BDE8F88F 		pop	{r3, r4, r5, r6, r7, r8, r9, r10, fp, pc}
 1763              		.loc 1 417 1 view .LVU609
 1764              		.cfi_endproc
 1765              	.LFE440:
 1766              		.size	ibqReadTimeout, .-ibqReadTimeout
 1767 0112 00BF     		.section	.text.obqObjectInit,"ax",%progbits
ARM GAS  C:\Users\DEVELO~1\AppData\Local\Temp\ccpJqkfg.s 			page 32


 1768              		.align	1
 1769              		.p2align 4,,15
 1770              		.global	obqObjectInit
 1771              		.syntax unified
 1772              		.thumb
 1773              		.thumb_func
 1774              		.type	obqObjectInit, %function
 1775              	obqObjectInit:
 1776              	.LVL95:
 1777              	.LFB441:
 1778              		.loc 1 433 72 is_stmt 1 view -0
 1779              		.cfi_startproc
 1780              		@ args = 12, pretend = 0, frame = 0
 1781              		@ frame_needed = 0, uses_anonymous_args = 0
 1782              		@ link register save eliminated.
 1783              		.loc 1 435 3 view .LVU611
 1784              		.loc 1 435 3 view .LVU612
 1785              		.loc 1 435 3 view .LVU613
 1786              		.loc 1 437 3 view .LVU614
 1787              		.loc 1 433 72 is_stmt 0 view .LVU615
 1788 0000 10B4     		push	{r4}
 1789              		.cfi_def_cfa_offset 4
 1790              		.cfi_offset 4, -4
 1791              		.loc 1 433 72 view .LVU616
 1792 0002 019C     		ldr	r4, [sp, #4]
 1793              		.loc 1 442 33 view .LVU617
 1794 0004 0433     		adds	r3, r3, #4
 1795              	.LVL96:
 1796              	.LBB524:
 1797              	.LBI524:
 1798              		.loc 2 864 20 is_stmt 1 view .LVU618
 1799              		.loc 2 866 3 view .LVU619
 1800              	.LBB525:
 1801              	.LBI525:
 1802              		.loc 3 461 20 view .LVU620
 1803              	.LBB526:
 1804              		.loc 3 463 3 view .LVU621
 1805              	.LBB527:
 1806              	.LBI527:
 1807              		.loc 4 222 20 view .LVU622
 1808              	.LBB528:
 1809              		.loc 4 224 3 view .LVU623
 1810              	.LBE528:
 1811              	.LBE527:
 1812              	.LBE526:
 1813              	.LBE525:
 1814              	.LBE524:
 1815              		.loc 1 438 19 is_stmt 0 view .LVU624
 1816 0006 0172     		strb	r1, [r0, #8]
 1817              		.loc 1 442 24 view .LVU625
 1818 0008 03FB0421 		mla	r1, r3, r4, r2
 1819              	.LVL97:
 1820              		.loc 1 439 19 view .LVU626
 1821 000c C460     		str	r4, [r0, #12]
 1822              		.loc 1 442 19 view .LVU627
 1823 000e 8161     		str	r1, [r0, #24]
 1824              		.loc 1 446 19 view .LVU628
ARM GAS  C:\Users\DEVELO~1\AppData\Local\Temp\ccpJqkfg.s 			page 33


 1825 0010 0021     		movs	r1, #0
 1826              		.loc 1 444 19 view .LVU629
 1827 0012 C0E90734 		strd	r3, r4, [r0, #28]
 1828              		.loc 1 441 19 view .LVU630
 1829 0016 C0E90422 		strd	r2, r2, [r0, #16]
 1830              		.loc 1 446 19 view .LVU631
 1831 001a C0E90921 		strd	r2, r1, [r0, #36]
 1832              		.loc 1 433 72 view .LVU632
 1833 001e DDE90223 		ldrd	r2, r3, [sp, #8]
 1834              	.LVL98:
 1835              	.LBB533:
 1836              	.LBB532:
 1837              	.LBB531:
 1838              	.LBB530:
 1839              	.LBB529:
 1840              		.loc 4 225 12 view .LVU633
 1841 0022 C0E90000 		strd	r0, r0, [r0]
 1842              	.LVL99:
 1843              		.loc 4 225 12 view .LVU634
 1844              	.LBE529:
 1845              	.LBE530:
 1846              	.LBE531:
 1847              	.LBE532:
 1848              	.LBE533:
 1849              		.loc 1 438 3 is_stmt 1 view .LVU635
 1850              		.loc 1 439 3 view .LVU636
 1851              		.loc 1 440 3 view .LVU637
 1852              		.loc 1 442 3 view .LVU638
 1853              		.loc 1 443 3 view .LVU639
 1854              		.loc 1 445 3 view .LVU640
 1855              		.loc 1 447 3 view .LVU641
 1856              		.loc 1 450 1 is_stmt 0 view .LVU642
 1857 0026 10BC     		pop	{r4}
 1858              		.cfi_restore 4
 1859              		.cfi_def_cfa_offset 0
 1860              	.LVL100:
 1861              		.loc 1 447 19 view .LVU643
 1862 0028 C162     		str	r1, [r0, #44]
 1863              		.loc 1 448 3 is_stmt 1 view .LVU644
 1864              		.loc 1 449 19 is_stmt 0 view .LVU645
 1865 002a C0E90C23 		strd	r2, r3, [r0, #48]
 1866              		.loc 1 450 1 view .LVU646
 1867 002e 7047     		bx	lr
 1868              		.cfi_endproc
 1869              	.LFE441:
 1870              		.size	obqObjectInit, .-obqObjectInit
 1871              		.section	.text.obqResetI,"ax",%progbits
 1872              		.align	1
 1873              		.p2align 4,,15
 1874              		.global	obqResetI
 1875              		.syntax unified
 1876              		.thumb
 1877              		.thumb_func
 1878              		.type	obqResetI, %function
 1879              	obqResetI:
 1880              	.LVL101:
 1881              	.LFB442:
ARM GAS  C:\Users\DEVELO~1\AppData\Local\Temp\ccpJqkfg.s 			page 34


 1882              		.loc 1 463 46 is_stmt 1 view -0
 1883              		.cfi_startproc
 1884              		@ args = 0, pretend = 0, frame = 0
 1885              		@ frame_needed = 0, uses_anonymous_args = 0
 1886              		@ link register save eliminated.
 1887              		.loc 1 463 46 is_stmt 0 view .LVU648
 1888 0000 10B4     		push	{r4}
 1889              		.cfi_def_cfa_offset 4
 1890              		.cfi_offset 4, -4
 1891              		.loc 1 470 19 view .LVU649
 1892 0002 0022     		movs	r2, #0
 1893              	.LBB534:
 1894              	.LBB535:
 1895              		.loc 2 921 3 view .LVU650
 1896 0004 6FF00101 		mvn	r1, #1
 1897              	.LBE535:
 1898              	.LBE534:
 1899              		.loc 1 465 23 is_stmt 1 view .LVU651
 1900              		.loc 1 467 3 view .LVU652
 1901              		.loc 1 467 19 is_stmt 0 view .LVU653
 1902 0008 D0E908C4 		ldrd	ip, r4, [r0, #32]
 1903              		.loc 1 471 19 view .LVU654
 1904 000c C0E90A22 		strd	r2, r2, [r0, #40]
 1905              		.loc 1 469 19 view .LVU655
 1906 0010 C0E90444 		strd	r4, r4, [r0, #16]
 1907              		.loc 1 467 19 view .LVU656
 1908 0014 C0F80CC0 		str	ip, [r0, #12]
 1909              		.loc 1 468 3 is_stmt 1 view .LVU657
 1910              		.loc 1 470 3 view .LVU658
 1911              		.loc 1 472 3 view .LVU659
 1912              	.LVL102:
 1913              	.LBB538:
 1914              	.LBI534:
 1915              		.loc 2 919 20 view .LVU660
 1916              	.LBB536:
 1917              		.loc 2 921 3 view .LVU661
 1918              	.LBE536:
 1919              	.LBE538:
 1920              		.loc 1 473 1 is_stmt 0 view .LVU662
 1921 0018 10BC     		pop	{r4}
 1922              		.cfi_restore 4
 1923              		.cfi_def_cfa_offset 0
 1924              	.LBB539:
 1925              	.LBB537:
 1926              		.loc 2 921 3 view .LVU663
 1927 001a FFF7FEBF 		b	chThdDequeueAllI
 1928              	.LVL103:
 1929              		.loc 2 921 3 view .LVU664
 1930              	.LBE537:
 1931              	.LBE539:
 1932              		.cfi_endproc
 1933              	.LFE442:
 1934              		.size	obqResetI, .-obqResetI
 1935 001e 00BF     		.section	.text.obqGetFullBufferI,"ax",%progbits
 1936              		.align	1
 1937              		.p2align 4,,15
 1938              		.global	obqGetFullBufferI
ARM GAS  C:\Users\DEVELO~1\AppData\Local\Temp\ccpJqkfg.s 			page 35


 1939              		.syntax unified
 1940              		.thumb
 1941              		.thumb_func
 1942              		.type	obqGetFullBufferI, %function
 1943              	obqGetFullBufferI:
 1944              	.LVL104:
 1945              	.LFB443:
 1946              		.loc 1 487 43 is_stmt 1 view -0
 1947              		.cfi_startproc
 1948              		@ args = 0, pretend = 0, frame = 0
 1949              		@ frame_needed = 0, uses_anonymous_args = 0
 1950              		@ link register save eliminated.
 1951              		.loc 1 489 23 view .LVU666
 1952              		.loc 1 491 3 view .LVU667
 1953              		.loc 1 487 43 is_stmt 0 view .LVU668
 1954 0000 0346     		mov	r3, r0
 1955              		.loc 1 491 7 view .LVU669
 1956 0002 D0E90420 		ldrd	r2, r0, [r0, #16]
 1957              	.LVL105:
 1958              		.loc 1 491 7 view .LVU670
 1959 0006 8242     		cmp	r2, r0
 1960 0008 03D0     		beq	.L90
 1961              	.LVL106:
 1962              	.L85:
 1963              		.loc 1 496 3 is_stmt 1 view .LVU671
 1964              		.loc 1 496 12 is_stmt 0 view .LVU672
 1965 000a 50F8043B 		ldr	r3, [r0], #4
 1966              		.loc 1 496 10 view .LVU673
 1967 000e 0B60     		str	r3, [r1]
 1968              		.loc 1 498 3 is_stmt 1 view .LVU674
 1969              		.loc 1 499 1 is_stmt 0 view .LVU675
 1970 0010 7047     		bx	lr
 1971              	.LVL107:
 1972              	.L90:
 1973              		.loc 1 491 7 discriminator 1 view .LVU676
 1974 0012 DB68     		ldr	r3, [r3, #12]
 1975              	.LVL108:
 1976              		.loc 1 491 7 discriminator 1 view .LVU677
 1977 0014 002B     		cmp	r3, #0
 1978 0016 F8D0     		beq	.L85
 1979              		.loc 1 492 12 view .LVU678
 1980 0018 0020     		movs	r0, #0
 1981 001a 7047     		bx	lr
 1982              		.cfi_endproc
 1983              	.LFE443:
 1984              		.size	obqGetFullBufferI, .-obqGetFullBufferI
 1985              		.section	.text.obqReleaseEmptyBufferI,"ax",%progbits
 1986              		.align	1
 1987              		.p2align 4,,15
 1988              		.global	obqReleaseEmptyBufferI
 1989              		.syntax unified
 1990              		.thumb
 1991              		.thumb_func
 1992              		.type	obqReleaseEmptyBufferI, %function
 1993              	obqReleaseEmptyBufferI:
 1994              	.LVL109:
 1995              	.LFB444:
ARM GAS  C:\Users\DEVELO~1\AppData\Local\Temp\ccpJqkfg.s 			page 36


 1996              		.loc 1 508 59 is_stmt 1 view -0
 1997              		.cfi_startproc
 1998              		@ args = 0, pretend = 0, frame = 0
 1999              		@ frame_needed = 0, uses_anonymous_args = 0
 2000              		@ link register save eliminated.
 2001              		.loc 1 510 23 view .LVU680
 2002              		.loc 1 511 3 view .LVU681
 2003              		.loc 1 511 3 view .LVU682
 2004              		.loc 1 511 3 view .LVU683
 2005              		.loc 1 514 3 view .LVU684
 2006              		.loc 1 516 6 is_stmt 0 view .LVU685
 2007 0000 D0E90531 		ldrd	r3, r1, [r0, #20]
 2008              		.loc 1 515 16 view .LVU686
 2009 0004 D0F81CC0 		ldr	ip, [r0, #28]
 2010              		.loc 1 514 7 view .LVU687
 2011 0008 C268     		ldr	r2, [r0, #12]
 2012              		.loc 1 515 16 view .LVU688
 2013 000a 6344     		add	r3, r3, ip
 2014              		.loc 1 514 17 view .LVU689
 2015 000c 0132     		adds	r2, r2, #1
 2016              		.loc 1 516 6 view .LVU690
 2017 000e 8B42     		cmp	r3, r1
 2018              		.loc 1 515 16 view .LVU691
 2019 0010 4361     		str	r3, [r0, #20]
 2020              		.loc 1 514 17 view .LVU692
 2021 0012 C260     		str	r2, [r0, #12]
 2022              		.loc 1 515 3 is_stmt 1 view .LVU693
 2023              		.loc 1 516 3 view .LVU694
 2024              		.loc 1 516 6 is_stmt 0 view .LVU695
 2025 0014 01D3     		bcc	.L92
 2026              		.loc 1 517 5 is_stmt 1 view .LVU696
 2027              		.loc 1 517 18 is_stmt 0 view .LVU697
 2028 0016 436A     		ldr	r3, [r0, #36]
 2029 0018 4361     		str	r3, [r0, #20]
 2030              	.L92:
 2031              		.loc 1 521 3 is_stmt 1 view .LVU698
 2032              	.LVL110:
 2033              	.LBB540:
 2034              	.LBI540:
 2035              		.loc 2 906 20 view .LVU699
 2036              	.LBB541:
 2037              		.loc 2 908 3 view .LVU700
 2038 001a 0021     		movs	r1, #0
 2039 001c FFF7FEBF 		b	chThdDequeueNextI
 2040              	.LVL111:
 2041              		.loc 2 908 3 is_stmt 0 view .LVU701
 2042              	.LBE541:
 2043              	.LBE540:
 2044              		.cfi_endproc
 2045              	.LFE444:
 2046              		.size	obqReleaseEmptyBufferI, .-obqReleaseEmptyBufferI
 2047              		.section	.text.obqGetEmptyBufferTimeout,"ax",%progbits
 2048              		.align	1
 2049              		.p2align 4,,15
 2050              		.global	obqGetEmptyBufferTimeout
 2051              		.syntax unified
 2052              		.thumb
ARM GAS  C:\Users\DEVELO~1\AppData\Local\Temp\ccpJqkfg.s 			page 37


 2053              		.thumb_func
 2054              		.type	obqGetEmptyBufferTimeout, %function
 2055              	obqGetEmptyBufferTimeout:
 2056              	.LVL112:
 2057              	.LFB445:
 2058              		.loc 1 546 55 is_stmt 1 view -0
 2059              		.cfi_startproc
 2060              		@ args = 0, pretend = 0, frame = 0
 2061              		@ frame_needed = 0, uses_anonymous_args = 0
 2062              		.loc 1 546 55 is_stmt 0 view .LVU703
 2063 0000 38B5     		push	{r3, r4, r5, lr}
 2064              		.cfi_def_cfa_offset 16
 2065              		.cfi_offset 3, -16
 2066              		.cfi_offset 4, -12
 2067              		.cfi_offset 5, -8
 2068              		.cfi_offset 14, -4
 2069              	.LBB563:
 2070              	.LBB564:
 2071              	.LBB565:
 2072              	.LBB566:
 2073              	.LBB567:
 2074              		.loc 5 493 3 view .LVU704
 2075 0002 3023     		movs	r3, #48
 2076              	.LBE567:
 2077              	.LBE566:
 2078              	.LBE565:
 2079              	.LBE564:
 2080              	.LBE563:
 2081              		.loc 1 546 55 view .LVU705
 2082 0004 0446     		mov	r4, r0
 2083              		.loc 1 547 3 is_stmt 1 view .LVU706
 2084              		.loc 1 549 3 view .LVU707
 2085              	.LBB576:
 2086              	.LBI563:
 2087              		.loc 2 573 20 view .LVU708
 2088              		.loc 2 575 3 view .LVU709
 2089              	.LBB574:
 2090              	.LBI564:
 2091              		.loc 6 407 20 view .LVU710
 2092              		.loc 6 409 3 view .LVU711
 2093              	.LBB572:
 2094              	.LBI565:
 2095              		.loc 7 806 27 view .LVU712
 2096              		.loc 7 814 3 view .LVU713
 2097              	.LVL113:
 2098              	.LBB570:
 2099              	.LBI566:
 2100              		.loc 5 491 27 view .LVU714
 2101              	.LBB568:
 2102              		.loc 5 493 3 view .LVU715
 2103              	.LBE568:
 2104              	.LBE570:
 2105              	.LBE572:
 2106              	.LBE574:
 2107              	.LBE576:
 2108              		.loc 1 546 55 is_stmt 0 view .LVU716
 2109 0006 0D46     		mov	r5, r1
ARM GAS  C:\Users\DEVELO~1\AppData\Local\Temp\ccpJqkfg.s 			page 38


 2110              	.LBB577:
 2111              	.LBB575:
 2112              	.LBB573:
 2113              	.LBB571:
 2114              	.LBB569:
 2115              		.loc 5 493 3 view .LVU717
 2116              		.syntax unified
 2117              	@ 493 "../../../os/common/ext/ARM/CMSIS/Core/Include/cmsis_gcc.h" 1
 2118 0008 83F31188 		MSR basepri, r3
 2119              	@ 0 "" 2
 2120              	.LVL114:
 2121              		.loc 5 493 3 view .LVU718
 2122              		.thumb
 2123              		.syntax unified
 2124              	.LBE569:
 2125              	.LBE571:
 2126              	.LBE573:
 2127              		.loc 6 410 35 is_stmt 1 view .LVU719
 2128              		.loc 6 411 21 view .LVU720
 2129              	.LBE575:
 2130              	.LBE577:
 2131              		.loc 1 550 3 view .LVU721
 2132              	.LBB578:
 2133              	.LBI578:
 2134              		.loc 1 577 7 view .LVU722
 2135              	.LBB579:
 2136              		.loc 1 580 23 view .LVU723
 2137              		.loc 1 582 3 view .LVU724
 2138              		.loc 1 582 9 is_stmt 0 view .LVU725
 2139 000c 05E0     		b	.L94
 2140              	.LVL115:
 2141              	.L96:
 2142              	.LBB580:
 2143              		.loc 1 583 8 view .LVU726
 2144 000e 237A     		ldrb	r3, [r4, #8]	@ zero_extendqisi2
 2145 0010 9BB9     		cbnz	r3, .L97
 2146              	.LBB581:
 2147              	.LBB582:
 2148              		.loc 2 895 10 view .LVU727
 2149 0012 FFF7FEFF 		bl	chThdEnqueueTimeoutS
 2150              	.LVL116:
 2151              		.loc 2 895 10 view .LVU728
 2152              	.LBE582:
 2153              	.LBE581:
 2154              		.loc 1 587 5 is_stmt 1 view .LVU729
 2155              		.loc 1 587 8 is_stmt 0 view .LVU730
 2156 0016 0028     		cmp	r0, #0
 2157              		.loc 1 587 8 view .LVU731
 2158 0018 0BDB     		blt	.L95
 2159              	.LVL117:
 2160              	.L94:
 2161              		.loc 1 583 5 is_stmt 1 view .LVU732
 2162              		.loc 1 586 5 view .LVU733
 2163              	.LBB585:
 2164              	.LBI581:
 2165              		.loc 2 892 21 view .LVU734
 2166              	.LBB583:
ARM GAS  C:\Users\DEVELO~1\AppData\Local\Temp\ccpJqkfg.s 			page 39


 2167              		.loc 2 895 3 view .LVU735
 2168              	.LBE583:
 2169              	.LBE585:
 2170              	.LBE580:
 2171              		.loc 1 582 10 view .LVU736
 2172 001a E368     		ldr	r3, [r4, #12]
 2173              	.LBB587:
 2174              	.LBB586:
 2175              	.LBB584:
 2176              		.loc 2 895 10 is_stmt 0 view .LVU737
 2177 001c 2946     		mov	r1, r5
 2178 001e 2046     		mov	r0, r4
 2179              	.LBE584:
 2180              	.LBE586:
 2181              	.LBE587:
 2182              		.loc 1 582 10 view .LVU738
 2183 0020 002B     		cmp	r3, #0
 2184 0022 F4D0     		beq	.L96
 2185              	.LVL118:
 2186              	.LBB588:
 2187              	.LBI588:
 2188              		.loc 1 577 7 is_stmt 1 view .LVU739
 2189              	.LBB589:
 2190              		.loc 1 592 3 view .LVU740
 2191              		.loc 1 592 3 view .LVU741
 2192              		.loc 1 592 3 view .LVU742
 2193              		.loc 1 595 3 view .LVU743
 2194              		.loc 1 595 19 is_stmt 0 view .LVU744
 2195 0024 2369     		ldr	r3, [r4, #16]
 2196              		.loc 1 596 13 view .LVU745
 2197 0026 0020     		movs	r0, #0
 2198              	.LVL119:
 2199              		.loc 1 596 28 view .LVU746
 2200 0028 E169     		ldr	r1, [r4, #28]
 2201              	.LVL120:
 2202              		.loc 1 595 28 view .LVU747
 2203 002a 1A1D     		adds	r2, r3, #4
 2204              		.loc 1 596 28 view .LVU748
 2205 002c 0B44     		add	r3, r3, r1
 2206              		.loc 1 596 13 view .LVU749
 2207 002e C4E90A23 		strd	r2, r3, [r4, #40]
 2208              		.loc 1 598 3 is_stmt 1 view .LVU750
 2209              	.LVL121:
 2210              	.L95:
 2211              		.loc 1 598 3 is_stmt 0 view .LVU751
 2212              	.LBE589:
 2213              	.LBE588:
 2214              	.LBE579:
 2215              	.LBE578:
 2216              		.loc 1 551 3 is_stmt 1 view .LVU752
 2217              	.LBB592:
 2218              	.LBI592:
 2219              		.loc 2 584 20 view .LVU753
 2220              		.loc 2 586 3 view .LVU754
 2221              	.LBB593:
 2222              	.LBI593:
 2223              		.loc 6 421 20 view .LVU755
ARM GAS  C:\Users\DEVELO~1\AppData\Local\Temp\ccpJqkfg.s 			page 40


 2224              	.LBB594:
 2225              		.loc 6 423 23 view .LVU756
 2226              		.loc 6 424 34 view .LVU757
 2227              		.loc 6 430 3 view .LVU758
 2228              		.loc 6 430 3 view .LVU759
 2229              		.loc 6 430 3 view .LVU760
 2230              		.loc 6 434 3 view .LVU761
 2231              	.LBB595:
 2232              	.LBI595:
 2233              		.loc 7 830 27 view .LVU762
 2234              		.loc 7 833 3 view .LVU763
 2235              	.LBB596:
 2236              	.LBI596:
 2237              		.loc 5 491 27 view .LVU764
 2238              	.LBB597:
 2239              		.loc 5 493 3 view .LVU765
 2240 0032 0023     		movs	r3, #0
 2241              		.syntax unified
 2242              	@ 493 "../../../os/common/ext/ARM/CMSIS/Core/Include/cmsis_gcc.h" 1
 2243 0034 83F31188 		MSR basepri, r3
 2244              	@ 0 "" 2
 2245              	.LVL122:
 2246              		.loc 5 493 3 is_stmt 0 view .LVU766
 2247              		.thumb
 2248              		.syntax unified
 2249              	.LBE597:
 2250              	.LBE596:
 2251              	.LBE595:
 2252              	.LBE594:
 2253              	.LBE593:
 2254              	.LBE592:
 2255              		.loc 1 553 3 is_stmt 1 view .LVU767
 2256              		.loc 1 554 1 is_stmt 0 view .LVU768
 2257 0038 38BD     		pop	{r3, r4, r5, pc}
 2258              	.LVL123:
 2259              	.L97:
 2260              	.LBB603:
 2261              	.LBB591:
 2262              	.LBB590:
 2263              		.loc 1 584 14 view .LVU769
 2264 003a 6FF00100 		mvn	r0, #1
 2265              	.LVL124:
 2266              		.loc 1 584 14 view .LVU770
 2267              	.LBE590:
 2268              	.LBE591:
 2269              	.LBE603:
 2270              		.loc 1 551 3 is_stmt 1 view .LVU771
 2271              	.LBB604:
 2272              		.loc 2 584 20 view .LVU772
 2273              		.loc 2 586 3 view .LVU773
 2274              	.LBB602:
 2275              		.loc 6 421 20 view .LVU774
 2276              	.LBB601:
 2277              		.loc 6 423 23 view .LVU775
 2278              		.loc 6 424 34 view .LVU776
 2279              		.loc 6 430 3 view .LVU777
 2280              		.loc 6 430 3 view .LVU778
ARM GAS  C:\Users\DEVELO~1\AppData\Local\Temp\ccpJqkfg.s 			page 41


 2281              		.loc 6 430 3 view .LVU779
 2282              		.loc 6 434 3 view .LVU780
 2283              	.LBB600:
 2284              		.loc 7 830 27 view .LVU781
 2285              		.loc 7 833 3 view .LVU782
 2286              	.LBB599:
 2287              		.loc 5 491 27 view .LVU783
 2288              	.LBB598:
 2289              		.loc 5 493 3 view .LVU784
 2290 003e 0023     		movs	r3, #0
 2291              		.syntax unified
 2292              	@ 493 "../../../os/common/ext/ARM/CMSIS/Core/Include/cmsis_gcc.h" 1
 2293 0040 83F31188 		MSR basepri, r3
 2294              	@ 0 "" 2
 2295              	.LVL125:
 2296              		.loc 5 493 3 is_stmt 0 view .LVU785
 2297              		.thumb
 2298              		.syntax unified
 2299              	.LBE598:
 2300              	.LBE599:
 2301              	.LBE600:
 2302              	.LBE601:
 2303              	.LBE602:
 2304              	.LBE604:
 2305              		.loc 1 553 3 is_stmt 1 view .LVU786
 2306              		.loc 1 554 1 is_stmt 0 view .LVU787
 2307 0044 38BD     		pop	{r3, r4, r5, pc}
 2308              		.loc 1 554 1 view .LVU788
 2309              		.cfi_endproc
 2310              	.LFE445:
 2311              		.size	obqGetEmptyBufferTimeout, .-obqGetEmptyBufferTimeout
 2312 0046 00BF     		.section	.text.obqGetEmptyBufferTimeoutS,"ax",%progbits
 2313              		.align	1
 2314              		.p2align 4,,15
 2315              		.global	obqGetEmptyBufferTimeoutS
 2316              		.syntax unified
 2317              		.thumb
 2318              		.thumb_func
 2319              		.type	obqGetEmptyBufferTimeoutS, %function
 2320              	obqGetEmptyBufferTimeoutS:
 2321              	.LVL126:
 2322              	.LFB446:
 2323              		.loc 1 578 56 is_stmt 1 view -0
 2324              		.cfi_startproc
 2325              		@ args = 0, pretend = 0, frame = 0
 2326              		@ frame_needed = 0, uses_anonymous_args = 0
 2327              		.loc 1 578 56 is_stmt 0 view .LVU790
 2328 0000 38B5     		push	{r3, r4, r5, lr}
 2329              		.cfi_def_cfa_offset 16
 2330              		.cfi_offset 3, -16
 2331              		.cfi_offset 4, -12
 2332              		.cfi_offset 5, -8
 2333              		.cfi_offset 14, -4
 2334              		.loc 1 578 56 view .LVU791
 2335 0002 0446     		mov	r4, r0
 2336              		.loc 1 580 23 is_stmt 1 view .LVU792
 2337              		.loc 1 582 3 view .LVU793
ARM GAS  C:\Users\DEVELO~1\AppData\Local\Temp\ccpJqkfg.s 			page 42


 2338              		.loc 1 578 56 is_stmt 0 view .LVU794
 2339 0004 0D46     		mov	r5, r1
 2340              		.loc 1 582 9 view .LVU795
 2341 0006 05E0     		b	.L100
 2342              	.LVL127:
 2343              	.L102:
 2344              	.LBB616:
 2345              		.loc 1 583 8 view .LVU796
 2346 0008 237A     		ldrb	r3, [r4, #8]	@ zero_extendqisi2
 2347 000a 83B9     		cbnz	r3, .L103
 2348              	.LBB617:
 2349              	.LBB618:
 2350              		.loc 2 895 10 view .LVU797
 2351 000c FFF7FEFF 		bl	chThdEnqueueTimeoutS
 2352              	.LVL128:
 2353              		.loc 2 895 10 view .LVU798
 2354              	.LBE618:
 2355              	.LBE617:
 2356              		.loc 1 587 5 is_stmt 1 view .LVU799
 2357              		.loc 1 587 8 is_stmt 0 view .LVU800
 2358 0010 0028     		cmp	r0, #0
 2359              		.loc 1 587 8 view .LVU801
 2360 0012 0BDB     		blt	.L99
 2361              	.LVL129:
 2362              	.L100:
 2363              		.loc 1 583 5 is_stmt 1 view .LVU802
 2364              		.loc 1 586 5 view .LVU803
 2365              	.LBB621:
 2366              	.LBI617:
 2367              		.loc 2 892 21 view .LVU804
 2368              	.LBB619:
 2369              		.loc 2 895 3 view .LVU805
 2370              	.LBE619:
 2371              	.LBE621:
 2372              	.LBE616:
 2373              		.loc 1 582 10 view .LVU806
 2374 0014 E368     		ldr	r3, [r4, #12]
 2375              	.LBB623:
 2376              	.LBB622:
 2377              	.LBB620:
 2378              		.loc 2 895 10 is_stmt 0 view .LVU807
 2379 0016 2946     		mov	r1, r5
 2380 0018 2046     		mov	r0, r4
 2381              	.LBE620:
 2382              	.LBE622:
 2383              	.LBE623:
 2384              		.loc 1 582 10 view .LVU808
 2385 001a 002B     		cmp	r3, #0
 2386 001c F4D0     		beq	.L102
 2387              	.LVL130:
 2388              	.LBB624:
 2389              	.LBI624:
 2390              		.loc 1 577 7 is_stmt 1 view .LVU809
 2391              	.LBB625:
 2392              		.loc 1 592 3 view .LVU810
 2393              		.loc 1 592 3 view .LVU811
 2394              		.loc 1 592 3 view .LVU812
ARM GAS  C:\Users\DEVELO~1\AppData\Local\Temp\ccpJqkfg.s 			page 43


 2395              		.loc 1 595 3 view .LVU813
 2396              		.loc 1 595 19 is_stmt 0 view .LVU814
 2397 001e 2369     		ldr	r3, [r4, #16]
 2398              		.loc 1 596 13 view .LVU815
 2399 0020 0020     		movs	r0, #0
 2400              	.LVL131:
 2401              		.loc 1 596 28 view .LVU816
 2402 0022 E169     		ldr	r1, [r4, #28]
 2403              	.LVL132:
 2404              		.loc 1 595 28 view .LVU817
 2405 0024 1A1D     		adds	r2, r3, #4
 2406              		.loc 1 596 28 view .LVU818
 2407 0026 0B44     		add	r3, r3, r1
 2408              		.loc 1 596 13 view .LVU819
 2409 0028 C4E90A23 		strd	r2, r3, [r4, #40]
 2410              		.loc 1 598 3 is_stmt 1 view .LVU820
 2411              	.LVL133:
 2412              	.L99:
 2413              		.loc 1 598 3 is_stmt 0 view .LVU821
 2414              	.LBE625:
 2415              	.LBE624:
 2416              		.loc 1 599 1 view .LVU822
 2417 002c 38BD     		pop	{r3, r4, r5, pc}
 2418              	.LVL134:
 2419              	.L103:
 2420              	.LBB626:
 2421              		.loc 1 584 14 view .LVU823
 2422 002e 6FF00100 		mvn	r0, #1
 2423              	.LVL135:
 2424              		.loc 1 584 14 view .LVU824
 2425              	.LBE626:
 2426              		.loc 1 599 1 view .LVU825
 2427 0032 38BD     		pop	{r3, r4, r5, pc}
 2428              		.loc 1 599 1 view .LVU826
 2429              		.cfi_endproc
 2430              	.LFE446:
 2431              		.size	obqGetEmptyBufferTimeoutS, .-obqGetEmptyBufferTimeoutS
 2432              		.section	.text.obqPostFullBuffer,"ax",%progbits
 2433              		.align	1
 2434              		.p2align 4,,15
 2435              		.global	obqPostFullBuffer
 2436              		.syntax unified
 2437              		.thumb
 2438              		.thumb_func
 2439              		.type	obqPostFullBuffer, %function
 2440              	obqPostFullBuffer:
 2441              	.LVL136:
 2442              	.LFB447:
 2443              		.loc 1 610 67 is_stmt 1 view -0
 2444              		.cfi_startproc
 2445              		@ args = 0, pretend = 0, frame = 0
 2446              		@ frame_needed = 0, uses_anonymous_args = 0
 2447              		.loc 1 612 3 view .LVU828
 2448              	.LBB640:
 2449              	.LBI640:
 2450              		.loc 2 573 20 view .LVU829
 2451              		.loc 2 575 3 view .LVU830
ARM GAS  C:\Users\DEVELO~1\AppData\Local\Temp\ccpJqkfg.s 			page 44


 2452              	.LBB641:
 2453              	.LBI641:
 2454              		.loc 6 407 20 view .LVU831
 2455              		.loc 6 409 3 view .LVU832
 2456              	.LBB642:
 2457              	.LBI642:
 2458              		.loc 7 806 27 view .LVU833
 2459              		.loc 7 814 3 view .LVU834
 2460              	.LBB643:
 2461              	.LBI643:
 2462              		.loc 5 491 27 view .LVU835
 2463              	.LBB644:
 2464              		.loc 5 493 3 view .LVU836
 2465 0000 3023     		movs	r3, #48
 2466              	.LBE644:
 2467              	.LBE643:
 2468              	.LBE642:
 2469              	.LBE641:
 2470              	.LBE640:
 2471              		.loc 1 610 67 is_stmt 0 view .LVU837
 2472 0002 10B5     		push	{r4, lr}
 2473              		.cfi_def_cfa_offset 8
 2474              		.cfi_offset 4, -8
 2475              		.cfi_offset 14, -4
 2476              	.LBB649:
 2477              	.LBB648:
 2478              	.LBB647:
 2479              	.LBB646:
 2480              	.LBB645:
 2481              		.loc 5 493 3 view .LVU838
 2482              		.syntax unified
 2483              	@ 493 "../../../os/common/ext/ARM/CMSIS/Core/Include/cmsis_gcc.h" 1
 2484 0004 83F31188 		MSR basepri, r3
 2485              	@ 0 "" 2
 2486              	.LVL137:
 2487              		.loc 5 493 3 view .LVU839
 2488              		.thumb
 2489              		.syntax unified
 2490              	.LBE645:
 2491              	.LBE646:
 2492              	.LBE647:
 2493              		.loc 6 410 35 is_stmt 1 view .LVU840
 2494              		.loc 6 411 21 view .LVU841
 2495              	.LBE648:
 2496              	.LBE649:
 2497              		.loc 1 613 3 view .LVU842
 2498              	.LBB650:
 2499              	.LBI650:
 2500              		.loc 1 626 6 view .LVU843
 2501              	.LBB651:
 2502              		.loc 1 628 23 view .LVU844
 2503              		.loc 1 629 3 view .LVU845
 2504              		.loc 1 629 3 view .LVU846
 2505              		.loc 1 629 3 view .LVU847
 2506              		.loc 1 630 3 view .LVU848
 2507              		.loc 1 630 3 view .LVU849
 2508              		.loc 1 630 3 view .LVU850
ARM GAS  C:\Users\DEVELO~1\AppData\Local\Temp\ccpJqkfg.s 			page 45


 2509              		.loc 1 633 3 view .LVU851
 2510              		.loc 1 633 27 is_stmt 0 view .LVU852
 2511 0008 0369     		ldr	r3, [r0, #16]
 2512              		.loc 1 638 6 view .LVU853
 2513 000a 8469     		ldr	r4, [r0, #24]
 2514              		.loc 1 633 37 view .LVU854
 2515 000c 1960     		str	r1, [r3]
 2516              		.loc 1 636 3 is_stmt 1 view .LVU855
 2517              		.loc 1 637 16 is_stmt 0 view .LVU856
 2518 000e C169     		ldr	r1, [r0, #28]
 2519              	.LVL138:
 2520              		.loc 1 636 7 view .LVU857
 2521 0010 C268     		ldr	r2, [r0, #12]
 2522              		.loc 1 637 16 view .LVU858
 2523 0012 0B44     		add	r3, r3, r1
 2524              	.LVL139:
 2525              		.loc 1 636 17 view .LVU859
 2526 0014 013A     		subs	r2, r2, #1
 2527              		.loc 1 638 6 view .LVU860
 2528 0016 A342     		cmp	r3, r4
 2529              		.loc 1 637 16 view .LVU861
 2530 0018 0361     		str	r3, [r0, #16]
 2531              	.LVL140:
 2532              		.loc 1 636 17 view .LVU862
 2533 001a C260     		str	r2, [r0, #12]
 2534              		.loc 1 637 3 is_stmt 1 view .LVU863
 2535              		.loc 1 638 3 view .LVU864
 2536              		.loc 1 638 6 is_stmt 0 view .LVU865
 2537 001c 01D3     		bcc	.L106
 2538              		.loc 1 639 5 is_stmt 1 view .LVU866
 2539              		.loc 1 639 18 is_stmt 0 view .LVU867
 2540 001e 436A     		ldr	r3, [r0, #36]
 2541 0020 0361     		str	r3, [r0, #16]
 2542              	.L106:
 2543              		.loc 1 643 3 is_stmt 1 view .LVU868
 2544              		.loc 1 643 13 is_stmt 0 view .LVU869
 2545 0022 0022     		movs	r2, #0
 2546              		.loc 1 646 11 view .LVU870
 2547 0024 036B     		ldr	r3, [r0, #48]
 2548              		.loc 1 643 13 view .LVU871
 2549 0026 8262     		str	r2, [r0, #40]
 2550              		.loc 1 646 3 is_stmt 1 view .LVU872
 2551              		.loc 1 646 6 is_stmt 0 view .LVU873
 2552 0028 03B1     		cbz	r3, .L107
 2553              		.loc 1 647 5 is_stmt 1 view .LVU874
 2554 002a 9847     		blx	r3
 2555              	.LVL141:
 2556              	.L107:
 2557              		.loc 1 647 5 is_stmt 0 view .LVU875
 2558              	.LBE651:
 2559              	.LBE650:
 2560              		.loc 1 614 3 is_stmt 1 view .LVU876
 2561              	.LBB652:
 2562              	.LBI652:
 2563              		.loc 2 584 20 view .LVU877
 2564              		.loc 2 586 3 view .LVU878
 2565              	.LBB653:
ARM GAS  C:\Users\DEVELO~1\AppData\Local\Temp\ccpJqkfg.s 			page 46


 2566              	.LBI653:
 2567              		.loc 6 421 20 view .LVU879
 2568              	.LBB654:
 2569              		.loc 6 423 23 view .LVU880
 2570              		.loc 6 424 34 view .LVU881
 2571              		.loc 6 430 3 view .LVU882
 2572              		.loc 6 430 3 view .LVU883
 2573              		.loc 6 430 3 view .LVU884
 2574              		.loc 6 434 3 view .LVU885
 2575              	.LBB655:
 2576              	.LBI655:
 2577              		.loc 7 830 27 view .LVU886
 2578              		.loc 7 833 3 view .LVU887
 2579              	.LBB656:
 2580              	.LBI656:
 2581              		.loc 5 491 27 view .LVU888
 2582              	.LBB657:
 2583              		.loc 5 493 3 view .LVU889
 2584 002c 0023     		movs	r3, #0
 2585              		.syntax unified
 2586              	@ 493 "../../../os/common/ext/ARM/CMSIS/Core/Include/cmsis_gcc.h" 1
 2587 002e 83F31188 		MSR basepri, r3
 2588              	@ 0 "" 2
 2589              	.LVL142:
 2590              		.loc 5 493 3 is_stmt 0 view .LVU890
 2591              		.thumb
 2592              		.syntax unified
 2593              	.LBE657:
 2594              	.LBE656:
 2595              	.LBE655:
 2596              	.LBE654:
 2597              	.LBE653:
 2598              	.LBE652:
 2599              		.loc 1 615 1 view .LVU891
 2600 0032 10BD     		pop	{r4, pc}
 2601              		.cfi_endproc
 2602              	.LFE447:
 2603              		.size	obqPostFullBuffer, .-obqPostFullBuffer
 2604              		.section	.text.obqPostFullBufferS,"ax",%progbits
 2605              		.align	1
 2606              		.p2align 4,,15
 2607              		.global	obqPostFullBufferS
 2608              		.syntax unified
 2609              		.thumb
 2610              		.thumb_func
 2611              		.type	obqPostFullBufferS, %function
 2612              	obqPostFullBufferS:
 2613              	.LVL143:
 2614              	.LFB448:
 2615              		.loc 1 626 68 is_stmt 1 view -0
 2616              		.cfi_startproc
 2617              		@ args = 0, pretend = 0, frame = 0
 2618              		@ frame_needed = 0, uses_anonymous_args = 0
 2619              		@ link register save eliminated.
 2620              		.loc 1 628 23 view .LVU893
 2621              		.loc 1 629 3 view .LVU894
 2622              		.loc 1 629 3 view .LVU895
ARM GAS  C:\Users\DEVELO~1\AppData\Local\Temp\ccpJqkfg.s 			page 47


 2623              		.loc 1 629 3 view .LVU896
 2624              		.loc 1 630 3 view .LVU897
 2625              		.loc 1 630 3 view .LVU898
 2626              		.loc 1 630 3 view .LVU899
 2627              		.loc 1 633 3 view .LVU900
 2628              		.loc 1 633 27 is_stmt 0 view .LVU901
 2629 0000 0369     		ldr	r3, [r0, #16]
 2630              		.loc 1 626 68 view .LVU902
 2631 0002 10B4     		push	{r4}
 2632              		.cfi_def_cfa_offset 4
 2633              		.cfi_offset 4, -4
 2634              		.loc 1 638 6 view .LVU903
 2635 0004 8469     		ldr	r4, [r0, #24]
 2636              		.loc 1 633 37 view .LVU904
 2637 0006 1960     		str	r1, [r3]
 2638              		.loc 1 636 3 is_stmt 1 view .LVU905
 2639              		.loc 1 637 16 is_stmt 0 view .LVU906
 2640 0008 C169     		ldr	r1, [r0, #28]
 2641              	.LVL144:
 2642              		.loc 1 636 7 view .LVU907
 2643 000a C268     		ldr	r2, [r0, #12]
 2644              		.loc 1 637 16 view .LVU908
 2645 000c 0B44     		add	r3, r3, r1
 2646              	.LVL145:
 2647              		.loc 1 636 17 view .LVU909
 2648 000e 013A     		subs	r2, r2, #1
 2649              		.loc 1 638 6 view .LVU910
 2650 0010 A342     		cmp	r3, r4
 2651              		.loc 1 637 16 view .LVU911
 2652 0012 0361     		str	r3, [r0, #16]
 2653              	.LVL146:
 2654              		.loc 1 636 17 view .LVU912
 2655 0014 C260     		str	r2, [r0, #12]
 2656              		.loc 1 637 3 is_stmt 1 view .LVU913
 2657              		.loc 1 638 3 view .LVU914
 2658              		.loc 1 638 6 is_stmt 0 view .LVU915
 2659 0016 01D3     		bcc	.L113
 2660              		.loc 1 639 5 is_stmt 1 view .LVU916
 2661              		.loc 1 639 18 is_stmt 0 view .LVU917
 2662 0018 436A     		ldr	r3, [r0, #36]
 2663 001a 0361     		str	r3, [r0, #16]
 2664              	.L113:
 2665              		.loc 1 643 3 is_stmt 1 view .LVU918
 2666              		.loc 1 643 13 is_stmt 0 view .LVU919
 2667 001c 0022     		movs	r2, #0
 2668              		.loc 1 646 11 view .LVU920
 2669 001e 036B     		ldr	r3, [r0, #48]
 2670              		.loc 1 643 13 view .LVU921
 2671 0020 8262     		str	r2, [r0, #40]
 2672              		.loc 1 646 3 is_stmt 1 view .LVU922
 2673              		.loc 1 646 6 is_stmt 0 view .LVU923
 2674 0022 0BB1     		cbz	r3, .L112
 2675              		.loc 1 647 5 is_stmt 1 view .LVU924
 2676              		.loc 1 649 1 is_stmt 0 view .LVU925
 2677 0024 10BC     		pop	{r4}
 2678              		.cfi_remember_state
 2679              		.cfi_restore 4
ARM GAS  C:\Users\DEVELO~1\AppData\Local\Temp\ccpJqkfg.s 			page 48


 2680              		.cfi_def_cfa_offset 0
 2681              		.loc 1 647 5 view .LVU926
 2682 0026 1847     		bx	r3	@ indirect register sibling call
 2683              	.LVL147:
 2684              	.L112:
 2685              		.cfi_restore_state
 2686              		.loc 1 649 1 view .LVU927
 2687 0028 10BC     		pop	{r4}
 2688              		.cfi_restore 4
 2689              		.cfi_def_cfa_offset 0
 2690 002a 7047     		bx	lr
 2691              		.cfi_endproc
 2692              	.LFE448:
 2693              		.size	obqPostFullBufferS, .-obqPostFullBufferS
 2694              		.section	.text.obqPutTimeout,"ax",%progbits
 2695              		.align	1
 2696              		.p2align 4,,15
 2697              		.global	obqPutTimeout
 2698              		.syntax unified
 2699              		.thumb
 2700              		.thumb_func
 2701              		.type	obqPutTimeout, %function
 2702              	obqPutTimeout:
 2703              	.LVL148:
 2704              	.LFB449:
 2705              		.loc 1 672 44 is_stmt 1 view -0
 2706              		.cfi_startproc
 2707              		@ args = 0, pretend = 0, frame = 0
 2708              		@ frame_needed = 0, uses_anonymous_args = 0
 2709              		.loc 1 672 44 is_stmt 0 view .LVU929
 2710 0000 70B5     		push	{r4, r5, r6, lr}
 2711              		.cfi_def_cfa_offset 16
 2712              		.cfi_offset 4, -16
 2713              		.cfi_offset 5, -12
 2714              		.cfi_offset 6, -8
 2715              		.cfi_offset 14, -4
 2716              	.LBB687:
 2717              	.LBB688:
 2718              	.LBB689:
 2719              	.LBB690:
 2720              	.LBB691:
 2721              		.loc 5 493 3 view .LVU930
 2722 0002 3023     		movs	r3, #48
 2723              	.LBE691:
 2724              	.LBE690:
 2725              	.LBE689:
 2726              	.LBE688:
 2727              	.LBE687:
 2728              		.loc 1 672 44 view .LVU931
 2729 0004 0446     		mov	r4, r0
 2730 0006 0E46     		mov	r6, r1
 2731              		.loc 1 673 3 is_stmt 1 view .LVU932
 2732              		.loc 1 675 3 view .LVU933
 2733              	.LBB696:
 2734              	.LBI687:
 2735              		.loc 2 573 20 view .LVU934
 2736              		.loc 2 575 3 view .LVU935
ARM GAS  C:\Users\DEVELO~1\AppData\Local\Temp\ccpJqkfg.s 			page 49


 2737              	.LBB695:
 2738              	.LBI688:
 2739              		.loc 6 407 20 view .LVU936
 2740              		.loc 6 409 3 view .LVU937
 2741              	.LBB694:
 2742              	.LBI689:
 2743              		.loc 7 806 27 view .LVU938
 2744              		.loc 7 814 3 view .LVU939
 2745              	.LVL149:
 2746              	.LBB693:
 2747              	.LBI690:
 2748              		.loc 5 491 27 view .LVU940
 2749              	.LBB692:
 2750              		.loc 5 493 3 view .LVU941
 2751              		.syntax unified
 2752              	@ 493 "../../../os/common/ext/ARM/CMSIS/Core/Include/cmsis_gcc.h" 1
 2753 0008 83F31188 		MSR basepri, r3
 2754              	@ 0 "" 2
 2755              	.LVL150:
 2756              		.loc 5 493 3 is_stmt 0 view .LVU942
 2757              		.thumb
 2758              		.syntax unified
 2759              	.LBE692:
 2760              	.LBE693:
 2761              	.LBE694:
 2762              		.loc 6 410 35 is_stmt 1 view .LVU943
 2763              		.loc 6 411 21 view .LVU944
 2764              	.LBE695:
 2765              	.LBE696:
 2766              		.loc 1 678 3 view .LVU945
 2767              		.loc 1 678 11 is_stmt 0 view .LVU946
 2768 000c 836A     		ldr	r3, [r0, #40]
 2769              		.loc 1 678 6 view .LVU947
 2770 000e 13B3     		cbz	r3, .L133
 2771              	.LVL151:
 2772              	.L118:
 2773              		.loc 1 687 3 is_stmt 1 view .LVU948
 2774              		.loc 1 687 14 is_stmt 0 view .LVU949
 2775 0010 1E70     		strb	r6, [r3]
 2776              		.loc 1 688 3 is_stmt 1 view .LVU950
 2777              		.loc 1 692 6 is_stmt 0 view .LVU951
 2778 0012 D4E90A32 		ldrd	r3, r2, [r4, #40]
 2779              		.loc 1 688 12 view .LVU952
 2780 0016 0133     		adds	r3, r3, #1
 2781              		.loc 1 692 6 view .LVU953
 2782 0018 9342     		cmp	r3, r2
 2783              		.loc 1 688 12 view .LVU954
 2784 001a A362     		str	r3, [r4, #40]
 2785              		.loc 1 692 3 is_stmt 1 view .LVU955
 2786              		.loc 1 692 6 is_stmt 0 view .LVU956
 2787 001c 03D2     		bcs	.L134
 2788              	.LVL152:
 2789              	.L122:
 2790              		.loc 1 696 3 is_stmt 1 view .LVU957
 2791              	.LBB697:
 2792              	.LBI697:
 2793              		.loc 2 584 20 view .LVU958
ARM GAS  C:\Users\DEVELO~1\AppData\Local\Temp\ccpJqkfg.s 			page 50


 2794              		.loc 2 586 3 view .LVU959
 2795              	.LBB698:
 2796              	.LBI698:
 2797              		.loc 6 421 20 view .LVU960
 2798              	.LBB699:
 2799              		.loc 6 423 23 view .LVU961
 2800              		.loc 6 424 34 view .LVU962
 2801              		.loc 6 430 3 view .LVU963
 2802              		.loc 6 430 3 view .LVU964
 2803              		.loc 6 430 3 view .LVU965
 2804              		.loc 6 434 3 view .LVU966
 2805              	.LBB700:
 2806              	.LBI700:
 2807              		.loc 7 830 27 view .LVU967
 2808              		.loc 7 833 3 view .LVU968
 2809              	.LBB701:
 2810              	.LBI701:
 2811              		.loc 5 491 27 view .LVU969
 2812              	.LBB702:
 2813              		.loc 5 493 3 view .LVU970
 2814 001e 0020     		movs	r0, #0
 2815              		.syntax unified
 2816              	@ 493 "../../../os/common/ext/ARM/CMSIS/Core/Include/cmsis_gcc.h" 1
 2817 0020 80F31188 		MSR basepri, r0
 2818              	@ 0 "" 2
 2819              	.LVL153:
 2820              		.loc 5 493 3 is_stmt 0 view .LVU971
 2821              		.thumb
 2822              		.syntax unified
 2823              	.LBE702:
 2824              	.LBE701:
 2825              	.LBE700:
 2826              	.LBE699:
 2827              	.LBE698:
 2828              	.LBE697:
 2829              		.loc 1 697 3 is_stmt 1 view .LVU972
 2830              		.loc 1 698 1 is_stmt 0 view .LVU973
 2831 0024 70BD     		pop	{r4, r5, r6, pc}
 2832              	.LVL154:
 2833              	.L134:
 2834              		.loc 1 693 5 is_stmt 1 view .LVU974
 2835              	.LBB703:
 2836              	.LBI703:
 2837              		.loc 1 626 6 view .LVU975
 2838              	.LBB704:
 2839              		.loc 1 628 23 view .LVU976
 2840              		.loc 1 629 3 view .LVU977
 2841              		.loc 1 629 3 view .LVU978
 2842              		.loc 1 629 3 view .LVU979
 2843              		.loc 1 630 3 view .LVU980
 2844              		.loc 1 630 3 view .LVU981
 2845              		.loc 1 630 3 view .LVU982
 2846              		.loc 1 633 3 view .LVU983
 2847              	.LBE704:
 2848              	.LBE703:
 2849              		.loc 1 693 5 is_stmt 0 view .LVU984
 2850 0026 E269     		ldr	r2, [r4, #28]
ARM GAS  C:\Users\DEVELO~1\AppData\Local\Temp\ccpJqkfg.s 			page 51


 2851              	.LBB707:
 2852              	.LBB705:
 2853              		.loc 1 633 27 view .LVU985
 2854 0028 2369     		ldr	r3, [r4, #16]
 2855              	.LBE705:
 2856              	.LBE707:
 2857              		.loc 1 693 5 view .LVU986
 2858 002a 043A     		subs	r2, r2, #4
 2859              	.LVL155:
 2860              	.LBB708:
 2861              	.LBB706:
 2862              		.loc 1 638 6 view .LVU987
 2863 002c A169     		ldr	r1, [r4, #24]
 2864              		.loc 1 633 37 view .LVU988
 2865 002e 1A60     		str	r2, [r3]
 2866              		.loc 1 636 3 is_stmt 1 view .LVU989
 2867              		.loc 1 637 16 is_stmt 0 view .LVU990
 2868 0030 E069     		ldr	r0, [r4, #28]
 2869              	.LVL156:
 2870              		.loc 1 636 7 view .LVU991
 2871 0032 E268     		ldr	r2, [r4, #12]
 2872              	.LVL157:
 2873              		.loc 1 637 16 view .LVU992
 2874 0034 0344     		add	r3, r3, r0
 2875              	.LVL158:
 2876              		.loc 1 636 17 view .LVU993
 2877 0036 013A     		subs	r2, r2, #1
 2878              		.loc 1 638 6 view .LVU994
 2879 0038 8B42     		cmp	r3, r1
 2880              		.loc 1 637 16 view .LVU995
 2881 003a 2361     		str	r3, [r4, #16]
 2882              	.LVL159:
 2883              		.loc 1 636 17 view .LVU996
 2884 003c E260     		str	r2, [r4, #12]
 2885              		.loc 1 637 3 is_stmt 1 view .LVU997
 2886              		.loc 1 638 3 view .LVU998
 2887              		.loc 1 638 6 is_stmt 0 view .LVU999
 2888 003e 07D2     		bcs	.L135
 2889              	.L123:
 2890              		.loc 1 643 3 is_stmt 1 view .LVU1000
 2891              		.loc 1 643 13 is_stmt 0 view .LVU1001
 2892 0040 0022     		movs	r2, #0
 2893              		.loc 1 646 11 view .LVU1002
 2894 0042 236B     		ldr	r3, [r4, #48]
 2895              		.loc 1 643 13 view .LVU1003
 2896 0044 A262     		str	r2, [r4, #40]
 2897              		.loc 1 646 3 is_stmt 1 view .LVU1004
 2898              		.loc 1 646 6 is_stmt 0 view .LVU1005
 2899 0046 002B     		cmp	r3, #0
 2900 0048 E9D0     		beq	.L122
 2901              		.loc 1 647 5 is_stmt 1 view .LVU1006
 2902 004a 2046     		mov	r0, r4
 2903 004c 9847     		blx	r3
 2904              	.LVL160:
 2905 004e E6E7     		b	.L122
 2906              	.L135:
 2907              		.loc 1 639 5 view .LVU1007
ARM GAS  C:\Users\DEVELO~1\AppData\Local\Temp\ccpJqkfg.s 			page 52


 2908              		.loc 1 639 18 is_stmt 0 view .LVU1008
 2909 0050 636A     		ldr	r3, [r4, #36]
 2910 0052 2361     		str	r3, [r4, #16]
 2911 0054 F4E7     		b	.L123
 2912              	.LVL161:
 2913              	.L133:
 2914              		.loc 1 639 18 view .LVU1009
 2915 0056 1546     		mov	r5, r2
 2916              	.LBE706:
 2917              	.LBE708:
 2918 0058 05E0     		b	.L117
 2919              	.LVL162:
 2920              	.L120:
 2921              	.LBB709:
 2922              	.LBB710:
 2923              	.LBB711:
 2924              		.loc 1 583 8 view .LVU1010
 2925 005a 237A     		ldrb	r3, [r4, #8]	@ zero_extendqisi2
 2926 005c 7BB9     		cbnz	r3, .L126
 2927              	.LBB712:
 2928              	.LBB713:
 2929              		.loc 2 895 10 view .LVU1011
 2930 005e FFF7FEFF 		bl	chThdEnqueueTimeoutS
 2931              	.LVL163:
 2932              		.loc 2 895 10 view .LVU1012
 2933              	.LBE713:
 2934              	.LBE712:
 2935              		.loc 1 587 5 is_stmt 1 view .LVU1013
 2936              		.loc 1 587 8 is_stmt 0 view .LVU1014
 2937 0062 0028     		cmp	r0, #0
 2938              		.loc 1 587 8 view .LVU1015
 2939 0064 0DDB     		blt	.L119
 2940              	.LVL164:
 2941              	.L117:
 2942              		.loc 1 583 5 is_stmt 1 view .LVU1016
 2943              		.loc 1 586 5 view .LVU1017
 2944              	.LBB716:
 2945              	.LBI712:
 2946              		.loc 2 892 21 view .LVU1018
 2947              	.LBB714:
 2948              		.loc 2 895 3 view .LVU1019
 2949              	.LBE714:
 2950              	.LBE716:
 2951              	.LBE711:
 2952              		.loc 1 582 10 view .LVU1020
 2953 0066 E368     		ldr	r3, [r4, #12]
 2954              	.LBB718:
 2955              	.LBB717:
 2956              	.LBB715:
 2957              		.loc 2 895 10 is_stmt 0 view .LVU1021
 2958 0068 2946     		mov	r1, r5
 2959 006a 2046     		mov	r0, r4
 2960              	.LBE715:
 2961              	.LBE717:
 2962              	.LBE718:
 2963              		.loc 1 582 10 view .LVU1022
 2964 006c 002B     		cmp	r3, #0
ARM GAS  C:\Users\DEVELO~1\AppData\Local\Temp\ccpJqkfg.s 			page 53


 2965 006e F4D0     		beq	.L120
 2966              	.LVL165:
 2967              	.LBB719:
 2968              	.LBI719:
 2969              		.loc 1 577 7 is_stmt 1 view .LVU1023
 2970              	.LBB720:
 2971              		.loc 1 592 3 view .LVU1024
 2972              		.loc 1 592 3 view .LVU1025
 2973              		.loc 1 592 3 view .LVU1026
 2974              		.loc 1 595 3 view .LVU1027
 2975              		.loc 1 595 19 is_stmt 0 view .LVU1028
 2976 0070 2269     		ldr	r2, [r4, #16]
 2977              		.loc 1 596 28 view .LVU1029
 2978 0072 E169     		ldr	r1, [r4, #28]
 2979              	.LVL166:
 2980              		.loc 1 595 28 view .LVU1030
 2981 0074 131D     		adds	r3, r2, #4
 2982              		.loc 1 596 28 view .LVU1031
 2983 0076 0A44     		add	r2, r2, r1
 2984              		.loc 1 596 13 view .LVU1032
 2985 0078 C4E90A32 		strd	r3, r2, [r4, #40]
 2986              		.loc 1 598 3 is_stmt 1 view .LVU1033
 2987              	.LVL167:
 2988              		.loc 1 598 3 is_stmt 0 view .LVU1034
 2989              	.LBE720:
 2990              	.LBE719:
 2991              	.LBE710:
 2992              	.LBE709:
 2993              		.loc 1 680 5 is_stmt 1 view .LVU1035
 2994 007c C8E7     		b	.L118
 2995              	.LVL168:
 2996              	.L126:
 2997              	.LBB723:
 2998              	.LBB722:
 2999              	.LBB721:
 3000              		.loc 1 584 14 is_stmt 0 view .LVU1036
 3001 007e 6FF00100 		mvn	r0, #1
 3002              	.LVL169:
 3003              	.L119:
 3004              		.loc 1 584 14 view .LVU1037
 3005              	.LBE721:
 3006              	.LBE722:
 3007              	.LBE723:
 3008              		.loc 1 680 5 is_stmt 1 view .LVU1038
 3009              		.loc 1 681 7 view .LVU1039
 3010              	.LBB724:
 3011              	.LBI724:
 3012              		.loc 2 584 20 view .LVU1040
 3013              		.loc 2 586 3 view .LVU1041
 3014              	.LBB725:
 3015              	.LBI725:
 3016              		.loc 6 421 20 view .LVU1042
 3017              	.LBB726:
 3018              		.loc 6 423 23 view .LVU1043
 3019              		.loc 6 424 34 view .LVU1044
 3020              		.loc 6 430 3 view .LVU1045
 3021              		.loc 6 430 3 view .LVU1046
ARM GAS  C:\Users\DEVELO~1\AppData\Local\Temp\ccpJqkfg.s 			page 54


 3022              		.loc 6 430 3 view .LVU1047
 3023              		.loc 6 434 3 view .LVU1048
 3024              	.LBB727:
 3025              	.LBI727:
 3026              		.loc 7 830 27 view .LVU1049
 3027              		.loc 7 833 3 view .LVU1050
 3028              	.LBB728:
 3029              	.LBI728:
 3030              		.loc 5 491 27 view .LVU1051
 3031              	.LBB729:
 3032              		.loc 5 493 3 view .LVU1052
 3033 0082 0023     		movs	r3, #0
 3034              		.syntax unified
 3035              	@ 493 "../../../os/common/ext/ARM/CMSIS/Core/Include/cmsis_gcc.h" 1
 3036 0084 83F31188 		MSR basepri, r3
 3037              	@ 0 "" 2
 3038              	.LVL170:
 3039              		.loc 5 493 3 is_stmt 0 view .LVU1053
 3040              		.thumb
 3041              		.syntax unified
 3042              	.LBE729:
 3043              	.LBE728:
 3044              	.LBE727:
 3045              	.LBE726:
 3046              	.LBE725:
 3047              	.LBE724:
 3048              		.loc 1 682 7 is_stmt 1 view .LVU1054
 3049              		.loc 1 698 1 is_stmt 0 view .LVU1055
 3050 0088 70BD     		pop	{r4, r5, r6, pc}
 3051              		.loc 1 698 1 view .LVU1056
 3052              		.cfi_endproc
 3053              	.LFE449:
 3054              		.size	obqPutTimeout, .-obqPutTimeout
 3055 008a 00BF     		.section	.text.obqWriteTimeout,"ax",%progbits
 3056              		.align	1
 3057              		.p2align 4,,15
 3058              		.global	obqWriteTimeout
 3059              		.syntax unified
 3060              		.thumb
 3061              		.thumb_func
 3062              		.type	obqWriteTimeout, %function
 3063              	obqWriteTimeout:
 3064              	.LVL171:
 3065              	.LFB450:
 3066              		.loc 1 722 57 is_stmt 1 view -0
 3067              		.cfi_startproc
 3068              		@ args = 0, pretend = 0, frame = 0
 3069              		@ frame_needed = 0, uses_anonymous_args = 0
 3070              		.loc 1 723 3 view .LVU1058
 3071              		.loc 1 725 3 view .LVU1059
 3072              		.loc 1 725 3 view .LVU1060
 3073              		.loc 1 725 3 view .LVU1061
 3074              		.loc 1 727 3 view .LVU1062
 3075              	.LBB768:
 3076              	.LBI768:
 3077              		.loc 2 573 20 view .LVU1063
 3078              	.LBB769:
ARM GAS  C:\Users\DEVELO~1\AppData\Local\Temp\ccpJqkfg.s 			page 55


 3079              		.loc 2 575 3 view .LVU1064
 3080              	.LBB770:
 3081              	.LBI770:
 3082              		.loc 6 407 20 view .LVU1065
 3083              		.loc 6 409 3 view .LVU1066
 3084              	.LBB771:
 3085              	.LBI771:
 3086              		.loc 7 806 27 view .LVU1067
 3087              		.loc 7 814 3 view .LVU1068
 3088              	.LBB772:
 3089              	.LBI772:
 3090              		.loc 5 491 27 view .LVU1069
 3091              	.LBB773:
 3092              		.loc 5 493 3 view .LVU1070
 3093              	.LBE773:
 3094              	.LBE772:
 3095              	.LBE771:
 3096              	.LBE770:
 3097              	.LBE769:
 3098              	.LBE768:
 3099              		.loc 1 722 57 is_stmt 0 view .LVU1071
 3100 0000 2DE9F84F 		push	{r3, r4, r5, r6, r7, r8, r9, r10, fp, lr}
 3101              		.cfi_def_cfa_offset 40
 3102              		.cfi_offset 3, -40
 3103              		.cfi_offset 4, -36
 3104              		.cfi_offset 5, -32
 3105              		.cfi_offset 6, -28
 3106              		.cfi_offset 7, -24
 3107              		.cfi_offset 8, -20
 3108              		.cfi_offset 9, -16
 3109              		.cfi_offset 10, -12
 3110              		.cfi_offset 11, -8
 3111              		.cfi_offset 14, -4
 3112              		.loc 1 722 57 view .LVU1072
 3113 0004 8246     		mov	r10, r0
 3114 0006 0C46     		mov	r4, r1
 3115 0008 1646     		mov	r6, r2
 3116 000a 1F46     		mov	r7, r3
 3117              	.LBB779:
 3118              	.LBB778:
 3119              	.LBB777:
 3120              	.LBB776:
 3121              	.LBB775:
 3122              	.LBB774:
 3123              		.loc 5 493 3 view .LVU1073
 3124 000c 4FF03009 		mov	r9, #48
 3125              		.syntax unified
 3126              	@ 493 "../../../os/common/ext/ARM/CMSIS/Core/Include/cmsis_gcc.h" 1
 3127 0010 89F31188 		MSR basepri, r9
 3128              	@ 0 "" 2
 3129              	.LVL172:
 3130              		.loc 5 493 3 view .LVU1074
 3131              		.thumb
 3132              		.syntax unified
 3133              	.LBE774:
 3134              	.LBE775:
 3135              	.LBE776:
ARM GAS  C:\Users\DEVELO~1\AppData\Local\Temp\ccpJqkfg.s 			page 56


 3136              		.loc 6 410 35 is_stmt 1 view .LVU1075
 3137              		.loc 6 411 21 view .LVU1076
 3138              	.LBE777:
 3139              	.LBE778:
 3140              	.LBE779:
 3141              		.loc 1 723 10 is_stmt 0 view .LVU1077
 3142 0014 0025     		movs	r5, #0
 3143              	.LBB780:
 3144              	.LBB781:
 3145              	.LBB782:
 3146              		.loc 1 643 13 view .LVU1078
 3147 0016 A846     		mov	r8, r5
 3148              	.LVL173:
 3149              	.L149:
 3150              		.loc 1 643 13 view .LVU1079
 3151              	.LBE782:
 3152              	.LBE781:
 3153              	.LBE780:
 3154              		.loc 1 729 3 is_stmt 1 view .LVU1080
 3155              	.LBB821:
 3156              		.loc 1 730 5 view .LVU1081
 3157              		.loc 1 733 5 view .LVU1082
 3158              		.loc 1 733 13 is_stmt 0 view .LVU1083
 3159 0018 DAF82800 		ldr	r0, [r10, #40]
 3160              		.loc 1 733 8 view .LVU1084
 3161 001c D8B3     		cbz	r0, .L137
 3162              		.loc 1 747 24 view .LVU1085
 3163 001e DAF82C30 		ldr	r3, [r10, #44]
 3164              	.L138:
 3165              		.loc 1 747 5 is_stmt 1 view .LVU1086
 3166              	.LVL174:
 3167              		.loc 1 748 5 view .LVU1087
 3168              		.loc 1 748 19 is_stmt 0 view .LVU1088
 3169 0022 A6EB050B 		sub	fp, r6, r5
 3170              		.loc 1 747 10 view .LVU1089
 3171 0026 1B1A     		subs	r3, r3, r0
 3172              	.LVL175:
 3173              		.loc 1 756 7 view .LVU1090
 3174 0028 2146     		mov	r1, r4
 3175 002a 9B45     		cmp	fp, r3
 3176 002c 28BF     		it	cs
 3177 002e 9B46     		movcs	fp, r3
 3178              	.LVL176:
 3179              		.loc 1 754 5 is_stmt 1 view .LVU1091
 3180              		.loc 1 754 8 is_stmt 0 view .LVU1092
 3181 0030 BBF1400F 		cmp	fp, #64
 3182 0034 3ED9     		bls	.L141
 3183              	.LVL177:
 3184              		.loc 1 756 7 is_stmt 1 view .LVU1093
 3185 0036 04F1400E 		add	lr, r4, #64
 3186              	.LVL178:
 3187              	.L142:
 3188              		.loc 1 756 7 is_stmt 0 view .LVU1094
 3189 003a D1F800C0 		ldr	ip, [r1]	@ unaligned
 3190 003e 1031     		adds	r1, r1, #16
 3191 0040 51F80C4C 		ldr	r4, [r1, #-12]	@ unaligned
 3192 0044 1030     		adds	r0, r0, #16
ARM GAS  C:\Users\DEVELO~1\AppData\Local\Temp\ccpJqkfg.s 			page 57


 3193 0046 51F8082C 		ldr	r2, [r1, #-8]	@ unaligned
 3194 004a 51F8043C 		ldr	r3, [r1, #-4]	@ unaligned
 3195 004e 7145     		cmp	r1, lr
 3196 0050 40F810CC 		str	ip, [r0, #-16]	@ unaligned
 3197 0054 40F80C4C 		str	r4, [r0, #-12]	@ unaligned
 3198 0058 40F8082C 		str	r2, [r0, #-8]	@ unaligned
 3199 005c 40F8043C 		str	r3, [r0, #-4]	@ unaligned
 3200 0060 EBD1     		bne	.L142
 3201              		.loc 1 757 7 is_stmt 1 view .LVU1095
 3202              		.loc 1 758 17 is_stmt 0 view .LVU1096
 3203 0062 DAF82830 		ldr	r3, [r10, #40]
 3204              		.loc 1 757 17 view .LVU1097
 3205 0066 0C46     		mov	r4, r1
 3206              	.LVL179:
 3207              		.loc 1 758 7 is_stmt 1 view .LVU1098
 3208              		.loc 1 769 8 is_stmt 0 view .LVU1099
 3209 0068 DAF82C20 		ldr	r2, [r10, #44]
 3210              		.loc 1 759 17 view .LVU1100
 3211 006c 4035     		adds	r5, r5, #64
 3212              	.LVL180:
 3213              		.loc 1 758 17 view .LVU1101
 3214 006e 4033     		adds	r3, r3, #64
 3215              		.loc 1 759 7 is_stmt 1 view .LVU1102
 3216              	.LVL181:
 3217              		.loc 1 769 8 is_stmt 0 view .LVU1103
 3218 0070 9A42     		cmp	r2, r3
 3219              		.loc 1 758 17 view .LVU1104
 3220 0072 CAF82830 		str	r3, [r10, #40]
 3221              	.LVL182:
 3222              		.loc 1 769 5 is_stmt 1 view .LVU1105
 3223              		.loc 1 769 8 is_stmt 0 view .LVU1106
 3224 0076 2BD9     		bls	.L157
 3225              	.LVL183:
 3226              	.L145:
 3227              		.loc 1 774 5 is_stmt 1 view .LVU1107
 3228              	.LBB786:
 3229              	.LBI786:
 3230              		.loc 2 584 20 view .LVU1108
 3231              		.loc 2 586 3 view .LVU1109
 3232              	.LBB787:
 3233              	.LBI787:
 3234              		.loc 6 421 20 view .LVU1110
 3235              	.LBB788:
 3236              		.loc 6 423 23 view .LVU1111
 3237              		.loc 6 424 34 view .LVU1112
 3238              		.loc 6 430 3 view .LVU1113
 3239              		.loc 6 430 3 view .LVU1114
 3240              		.loc 6 430 3 view .LVU1115
 3241              		.loc 6 434 3 view .LVU1116
 3242              	.LBB789:
 3243              	.LBI789:
 3244              		.loc 7 830 27 view .LVU1117
 3245              		.loc 7 833 3 view .LVU1118
 3246              	.LBB790:
 3247              	.LBI790:
 3248              		.loc 5 491 27 view .LVU1119
 3249              	.LBB791:
ARM GAS  C:\Users\DEVELO~1\AppData\Local\Temp\ccpJqkfg.s 			page 58


 3250              		.loc 5 493 3 view .LVU1120
 3251              		.syntax unified
 3252              	@ 493 "../../../os/common/ext/ARM/CMSIS/Core/Include/cmsis_gcc.h" 1
 3253 0078 88F31188 		MSR basepri, r8
 3254              	@ 0 "" 2
 3255              	.LVL184:
 3256              		.loc 5 493 3 is_stmt 0 view .LVU1121
 3257              		.thumb
 3258              		.syntax unified
 3259              	.LBE791:
 3260              	.LBE790:
 3261              	.LBE789:
 3262              	.LBE788:
 3263              	.LBE787:
 3264              	.LBE786:
 3265              		.loc 1 775 5 is_stmt 1 view .LVU1122
 3266              		.loc 1 775 8 is_stmt 0 view .LVU1123
 3267 007c B542     		cmp	r5, r6
 3268 007e 4BD2     		bcs	.L136
 3269              		.loc 1 778 5 is_stmt 1 view .LVU1124
 3270              	.LBB792:
 3271              	.LBI792:
 3272              		.loc 2 573 20 view .LVU1125
 3273              	.LBB793:
 3274              		.loc 2 575 3 view .LVU1126
 3275              	.LBB794:
 3276              	.LBI794:
 3277              		.loc 6 407 20 view .LVU1127
 3278              		.loc 6 409 3 view .LVU1128
 3279              	.LBB795:
 3280              	.LBI795:
 3281              		.loc 7 806 27 view .LVU1129
 3282              		.loc 7 814 3 view .LVU1130
 3283              	.LVL185:
 3284              	.LBB796:
 3285              	.LBI796:
 3286              		.loc 5 491 27 view .LVU1131
 3287              	.LBB797:
 3288              		.loc 5 493 3 view .LVU1132
 3289              		.syntax unified
 3290              	@ 493 "../../../os/common/ext/ARM/CMSIS/Core/Include/cmsis_gcc.h" 1
 3291 0080 89F31188 		MSR basepri, r9
 3292              	@ 0 "" 2
 3293              	.LVL186:
 3294              		.loc 5 493 3 is_stmt 0 view .LVU1133
 3295              		.thumb
 3296              		.syntax unified
 3297              	.LBE797:
 3298              	.LBE796:
 3299              	.LBE795:
 3300              		.loc 6 410 35 is_stmt 1 view .LVU1134
 3301              		.loc 6 411 21 view .LVU1135
 3302              	.LBE794:
 3303              		.loc 2 576 1 is_stmt 0 view .LVU1136
 3304 0084 C8E7     		b	.L149
 3305              	.LVL187:
 3306              	.L140:
ARM GAS  C:\Users\DEVELO~1\AppData\Local\Temp\ccpJqkfg.s 			page 59


 3307              		.loc 2 576 1 view .LVU1137
 3308              	.LBE793:
 3309              	.LBE792:
 3310              	.LBB798:
 3311              	.LBB799:
 3312              	.LBB800:
 3313              	.LBB801:
 3314              		.loc 1 583 8 view .LVU1138
 3315 0086 9AF80830 		ldrb	r3, [r10, #8]	@ zero_extendqisi2
 3316 008a 002B     		cmp	r3, #0
 3317 008c 41D1     		bne	.L139
 3318              	.LBB802:
 3319              	.LBB803:
 3320              		.loc 2 895 10 view .LVU1139
 3321 008e FFF7FEFF 		bl	chThdEnqueueTimeoutS
 3322              	.LVL188:
 3323              		.loc 2 895 10 view .LVU1140
 3324              	.LBE803:
 3325              	.LBE802:
 3326              		.loc 1 587 5 is_stmt 1 view .LVU1141
 3327              		.loc 1 587 8 is_stmt 0 view .LVU1142
 3328 0092 0028     		cmp	r0, #0
 3329 0094 3DDB     		blt	.L139
 3330              	.LVL189:
 3331              	.L137:
 3332              		.loc 1 583 5 is_stmt 1 view .LVU1143
 3333              		.loc 1 586 5 view .LVU1144
 3334              	.LBB806:
 3335              	.LBI802:
 3336              		.loc 2 892 21 view .LVU1145
 3337              	.LBB804:
 3338              		.loc 2 895 3 view .LVU1146
 3339              	.LBE804:
 3340              	.LBE806:
 3341              	.LBE801:
 3342              		.loc 1 582 10 view .LVU1147
 3343 0096 DAF80C30 		ldr	r3, [r10, #12]
 3344              	.LBB808:
 3345              	.LBB807:
 3346              	.LBB805:
 3347              		.loc 2 895 10 is_stmt 0 view .LVU1148
 3348 009a 3946     		mov	r1, r7
 3349 009c 5046     		mov	r0, r10
 3350              	.LBE805:
 3351              	.LBE807:
 3352              	.LBE808:
 3353              		.loc 1 582 10 view .LVU1149
 3354 009e 002B     		cmp	r3, #0
 3355 00a0 F1D0     		beq	.L140
 3356              	.LVL190:
 3357              	.LBB809:
 3358              	.LBI809:
 3359              		.loc 1 577 7 is_stmt 1 view .LVU1150
 3360              	.LBB810:
 3361              		.loc 1 592 3 view .LVU1151
 3362              		.loc 1 592 3 view .LVU1152
 3363              		.loc 1 592 3 view .LVU1153
ARM GAS  C:\Users\DEVELO~1\AppData\Local\Temp\ccpJqkfg.s 			page 60


 3364              		.loc 1 595 3 view .LVU1154
 3365              		.loc 1 595 19 is_stmt 0 view .LVU1155
 3366 00a2 DAF81000 		ldr	r0, [r10, #16]
 3367              	.LVL191:
 3368              		.loc 1 596 28 view .LVU1156
 3369 00a6 DAF81C30 		ldr	r3, [r10, #28]
 3370 00aa 0344     		add	r3, r3, r0
 3371              		.loc 1 595 28 view .LVU1157
 3372 00ac 0430     		adds	r0, r0, #4
 3373              		.loc 1 595 13 view .LVU1158
 3374 00ae CAE90A03 		strd	r0, r3, [r10, #40]
 3375              		.loc 1 596 3 is_stmt 1 view .LVU1159
 3376              		.loc 1 598 3 view .LVU1160
 3377              	.LVL192:
 3378              		.loc 1 598 3 is_stmt 0 view .LVU1161
 3379              	.LBE810:
 3380              	.LBE809:
 3381              	.LBE800:
 3382              	.LBE799:
 3383              		.loc 1 740 7 is_stmt 1 view .LVU1162
 3384 00b2 B6E7     		b	.L138
 3385              	.LVL193:
 3386              	.L141:
 3387              		.loc 1 740 7 is_stmt 0 view .LVU1163
 3388              	.LBE798:
 3389              		.loc 1 762 7 is_stmt 1 view .LVU1164
 3390 00b4 5A46     		mov	r2, fp
 3391              		.loc 1 763 17 is_stmt 0 view .LVU1165
 3392 00b6 5C44     		add	r4, r4, fp
 3393              		.loc 1 762 7 view .LVU1166
 3394 00b8 FFF7FEFF 		bl	memcpy
 3395              	.LVL194:
 3396              		.loc 1 763 7 is_stmt 1 view .LVU1167
 3397              		.loc 1 764 7 view .LVU1168
 3398              		.loc 1 764 17 is_stmt 0 view .LVU1169
 3399 00bc DAF82830 		ldr	r3, [r10, #40]
 3400              		.loc 1 769 8 view .LVU1170
 3401 00c0 DAF82C20 		ldr	r2, [r10, #44]
 3402              		.loc 1 765 17 view .LVU1171
 3403 00c4 5D44     		add	r5, r5, fp
 3404              	.LVL195:
 3405              		.loc 1 764 17 view .LVU1172
 3406 00c6 5B44     		add	r3, r3, fp
 3407              		.loc 1 765 7 is_stmt 1 view .LVU1173
 3408              	.LVL196:
 3409              		.loc 1 769 8 is_stmt 0 view .LVU1174
 3410 00c8 9A42     		cmp	r2, r3
 3411              		.loc 1 758 17 view .LVU1175
 3412 00ca CAF82830 		str	r3, [r10, #40]
 3413              		.loc 1 769 5 is_stmt 1 view .LVU1176
 3414              		.loc 1 769 8 is_stmt 0 view .LVU1177
 3415 00ce D3D8     		bhi	.L145
 3416              	.L157:
 3417              		.loc 1 770 7 is_stmt 1 view .LVU1178
 3418              	.LVL197:
 3419              	.LBB817:
 3420              	.LBI781:
ARM GAS  C:\Users\DEVELO~1\AppData\Local\Temp\ccpJqkfg.s 			page 61


 3421              		.loc 1 626 6 view .LVU1179
 3422              	.LBB783:
 3423              		.loc 1 628 23 view .LVU1180
 3424              		.loc 1 629 3 view .LVU1181
 3425              		.loc 1 629 3 view .LVU1182
 3426              		.loc 1 629 3 view .LVU1183
 3427              		.loc 1 630 3 view .LVU1184
 3428              		.loc 1 630 3 view .LVU1185
 3429              		.loc 1 630 3 view .LVU1186
 3430              		.loc 1 633 3 view .LVU1187
 3431              	.LBE783:
 3432              	.LBE817:
 3433              		.loc 1 770 7 is_stmt 0 view .LVU1188
 3434 00d0 DAF81C20 		ldr	r2, [r10, #28]
 3435              	.LBB818:
 3436              	.LBB784:
 3437              		.loc 1 633 27 view .LVU1189
 3438 00d4 DAF81030 		ldr	r3, [r10, #16]
 3439              	.LBE784:
 3440              	.LBE818:
 3441              		.loc 1 770 7 view .LVU1190
 3442 00d8 043A     		subs	r2, r2, #4
 3443              	.LVL198:
 3444              	.LBB819:
 3445              	.LBB785:
 3446              		.loc 1 638 6 view .LVU1191
 3447 00da DAF81800 		ldr	r0, [r10, #24]
 3448              		.loc 1 633 37 view .LVU1192
 3449 00de 1A60     		str	r2, [r3]
 3450              		.loc 1 636 3 is_stmt 1 view .LVU1193
 3451              		.loc 1 637 16 is_stmt 0 view .LVU1194
 3452 00e0 DAF81C10 		ldr	r1, [r10, #28]
 3453              		.loc 1 636 7 view .LVU1195
 3454 00e4 DAF80C20 		ldr	r2, [r10, #12]
 3455              	.LVL199:
 3456              		.loc 1 637 16 view .LVU1196
 3457 00e8 0B44     		add	r3, r3, r1
 3458              	.LVL200:
 3459              		.loc 1 636 17 view .LVU1197
 3460 00ea 013A     		subs	r2, r2, #1
 3461              		.loc 1 638 6 view .LVU1198
 3462 00ec 8342     		cmp	r3, r0
 3463              		.loc 1 637 16 view .LVU1199
 3464 00ee CAF81030 		str	r3, [r10, #16]
 3465              	.LVL201:
 3466              		.loc 1 636 17 view .LVU1200
 3467 00f2 CAF80C20 		str	r2, [r10, #12]
 3468              		.loc 1 637 3 is_stmt 1 view .LVU1201
 3469              		.loc 1 638 3 view .LVU1202
 3470              		.loc 1 638 6 is_stmt 0 view .LVU1203
 3471 00f6 03D3     		bcc	.L146
 3472              		.loc 1 639 5 is_stmt 1 view .LVU1204
 3473              		.loc 1 639 18 is_stmt 0 view .LVU1205
 3474 00f8 DAF82430 		ldr	r3, [r10, #36]
 3475 00fc CAF81030 		str	r3, [r10, #16]
 3476              	.L146:
 3477              		.loc 1 643 3 is_stmt 1 view .LVU1206
ARM GAS  C:\Users\DEVELO~1\AppData\Local\Temp\ccpJqkfg.s 			page 62


 3478              		.loc 1 646 11 is_stmt 0 view .LVU1207
 3479 0100 DAF83030 		ldr	r3, [r10, #48]
 3480              		.loc 1 643 13 view .LVU1208
 3481 0104 CAF82880 		str	r8, [r10, #40]
 3482              		.loc 1 646 3 is_stmt 1 view .LVU1209
 3483              		.loc 1 646 6 is_stmt 0 view .LVU1210
 3484 0108 002B     		cmp	r3, #0
 3485 010a B5D0     		beq	.L145
 3486              		.loc 1 647 5 is_stmt 1 view .LVU1211
 3487 010c 5046     		mov	r0, r10
 3488 010e 9847     		blx	r3
 3489              	.LVL202:
 3490 0110 B2E7     		b	.L145
 3491              	.LVL203:
 3492              	.L139:
 3493              		.loc 1 647 5 is_stmt 0 view .LVU1212
 3494              	.LBE785:
 3495              	.LBE819:
 3496              	.LBB820:
 3497              		.loc 1 740 7 is_stmt 1 view .LVU1213
 3498              		.loc 1 741 9 view .LVU1214
 3499              	.LBB811:
 3500              	.LBI811:
 3501              		.loc 2 584 20 view .LVU1215
 3502              		.loc 2 586 3 view .LVU1216
 3503              	.LBB812:
 3504              	.LBI812:
 3505              		.loc 6 421 20 view .LVU1217
 3506              	.LBB813:
 3507              		.loc 6 423 23 view .LVU1218
 3508              		.loc 6 424 34 view .LVU1219
 3509              		.loc 6 430 3 view .LVU1220
 3510              		.loc 6 430 3 view .LVU1221
 3511              		.loc 6 430 3 view .LVU1222
 3512              		.loc 6 434 3 view .LVU1223
 3513              	.LBB814:
 3514              	.LBI814:
 3515              		.loc 7 830 27 view .LVU1224
 3516              		.loc 7 833 3 view .LVU1225
 3517              	.LBB815:
 3518              	.LBI815:
 3519              		.loc 5 491 27 view .LVU1226
 3520              	.LBB816:
 3521              		.loc 5 493 3 view .LVU1227
 3522 0112 0023     		movs	r3, #0
 3523              		.syntax unified
 3524              	@ 493 "../../../os/common/ext/ARM/CMSIS/Core/Include/cmsis_gcc.h" 1
 3525 0114 83F31188 		MSR basepri, r3
 3526              	@ 0 "" 2
 3527              	.LVL204:
 3528              		.loc 5 493 3 is_stmt 0 view .LVU1228
 3529              		.thumb
 3530              		.syntax unified
 3531              	.LBE816:
 3532              	.LBE815:
 3533              	.LBE814:
 3534              	.LBE813:
ARM GAS  C:\Users\DEVELO~1\AppData\Local\Temp\ccpJqkfg.s 			page 63


 3535              	.LBE812:
 3536              	.LBE811:
 3537              		.loc 1 742 9 is_stmt 1 view .LVU1229
 3538              	.L136:
 3539              		.loc 1 742 9 is_stmt 0 view .LVU1230
 3540              	.LBE820:
 3541              	.LBE821:
 3542              		.loc 1 780 1 view .LVU1231
 3543 0118 2846     		mov	r0, r5
 3544 011a BDE8F88F 		pop	{r3, r4, r5, r6, r7, r8, r9, r10, fp, pc}
 3545              		.loc 1 780 1 view .LVU1232
 3546              		.cfi_endproc
 3547              	.LFE450:
 3548              		.size	obqWriteTimeout, .-obqWriteTimeout
 3549 011e 00BF     		.section	.text.obqTryFlushI,"ax",%progbits
 3550              		.align	1
 3551              		.p2align 4,,15
 3552              		.global	obqTryFlushI
 3553              		.syntax unified
 3554              		.thumb
 3555              		.thumb_func
 3556              		.type	obqTryFlushI, %function
 3557              	obqTryFlushI:
 3558              	.LVL205:
 3559              	.LFB451:
 3560              		.loc 1 795 49 is_stmt 1 view -0
 3561              		.cfi_startproc
 3562              		@ args = 0, pretend = 0, frame = 0
 3563              		@ frame_needed = 0, uses_anonymous_args = 0
 3564              		@ link register save eliminated.
 3565              		.loc 1 797 23 view .LVU1234
 3566              		.loc 1 801 3 view .LVU1235
 3567              		.loc 1 801 7 is_stmt 0 view .LVU1236
 3568 0000 D0E90421 		ldrd	r2, r1, [r0, #16]
 3569              		.loc 1 795 49 view .LVU1237
 3570 0004 0346     		mov	r3, r0
 3571              		.loc 1 801 7 view .LVU1238
 3572 0006 8A42     		cmp	r2, r1
 3573 0008 01D0     		beq	.L166
 3574              		.loc 1 822 10 view .LVU1239
 3575 000a 0020     		movs	r0, #0
 3576              	.LVL206:
 3577              		.loc 1 822 10 view .LVU1240
 3578 000c 7047     		bx	lr
 3579              	.LVL207:
 3580              	.L166:
 3581              		.loc 1 801 7 discriminator 1 view .LVU1241
 3582 000e C068     		ldr	r0, [r0, #12]
 3583              	.LVL208:
 3584              		.loc 1 801 7 discriminator 1 view .LVU1242
 3585 0010 28B1     		cbz	r0, .L167
 3586              		.loc 1 801 33 view .LVU1243
 3587 0012 986A     		ldr	r0, [r3, #40]
 3588              		.loc 1 801 25 view .LVU1244
 3589 0014 10B1     		cbz	r0, .L165
 3590              	.LBB822:
 3591              		.loc 1 802 5 is_stmt 1 view .LVU1245
ARM GAS  C:\Users\DEVELO~1\AppData\Local\Temp\ccpJqkfg.s 			page 64


 3592              		.loc 1 802 12 is_stmt 0 view .LVU1246
 3593 0016 0438     		subs	r0, r0, #4
 3594              	.LVL209:
 3595              		.loc 1 804 5 is_stmt 1 view .LVU1247
 3596              		.loc 1 804 8 is_stmt 0 view .LVU1248
 3597 0018 801A     		subs	r0, r0, r2
 3598              	.LVL210:
 3599              		.loc 1 804 8 view .LVU1249
 3600 001a 01D1     		bne	.L168
 3601              	.LVL211:
 3602              	.L165:
 3603              		.loc 1 804 8 view .LVU1250
 3604              	.LBE822:
 3605              		.loc 1 823 1 view .LVU1251
 3606 001c 7047     		bx	lr
 3607              	.L167:
 3608              		.loc 1 823 1 view .LVU1252
 3609 001e 7047     		bx	lr
 3610              	.LVL212:
 3611              	.L168:
 3612              	.LBB823:
 3613              		.loc 1 807 7 is_stmt 1 view .LVU1253
 3614              		.loc 1 807 41 is_stmt 0 view .LVU1254
 3615 0020 1060     		str	r0, [r2]
 3616              		.loc 1 810 7 is_stmt 1 view .LVU1255
 3617              		.loc 1 811 20 is_stmt 0 view .LVU1256
 3618 0022 D3F81CC0 		ldr	ip, [r3, #28]
 3619              		.loc 1 810 11 view .LVU1257
 3620 0026 D968     		ldr	r1, [r3, #12]
 3621              		.loc 1 811 20 view .LVU1258
 3622 0028 6244     		add	r2, r2, ip
 3623              		.loc 1 812 10 view .LVU1259
 3624 002a 9869     		ldr	r0, [r3, #24]
 3625              	.LVL213:
 3626              		.loc 1 810 21 view .LVU1260
 3627 002c 0139     		subs	r1, r1, #1
 3628              		.loc 1 812 10 view .LVU1261
 3629 002e 8242     		cmp	r2, r0
 3630              		.loc 1 811 20 view .LVU1262
 3631 0030 1A61     		str	r2, [r3, #16]
 3632              	.LVL214:
 3633              		.loc 1 810 21 view .LVU1263
 3634 0032 D960     		str	r1, [r3, #12]
 3635              		.loc 1 811 7 is_stmt 1 view .LVU1264
 3636              		.loc 1 812 7 view .LVU1265
 3637              		.loc 1 812 10 is_stmt 0 view .LVU1266
 3638 0034 01D3     		bcc	.L161
 3639              		.loc 1 813 9 is_stmt 1 view .LVU1267
 3640              		.loc 1 813 22 is_stmt 0 view .LVU1268
 3641 0036 5A6A     		ldr	r2, [r3, #36]
 3642 0038 1A61     		str	r2, [r3, #16]
 3643              	.L161:
 3644              		.loc 1 817 7 is_stmt 1 view .LVU1269
 3645              		.loc 1 817 17 is_stmt 0 view .LVU1270
 3646 003a 0022     		movs	r2, #0
 3647              		.loc 1 819 14 view .LVU1271
 3648 003c 0120     		movs	r0, #1
ARM GAS  C:\Users\DEVELO~1\AppData\Local\Temp\ccpJqkfg.s 			page 65


 3649              		.loc 1 817 17 view .LVU1272
 3650 003e 9A62     		str	r2, [r3, #40]
 3651              		.loc 1 819 7 is_stmt 1 view .LVU1273
 3652              		.loc 1 819 14 is_stmt 0 view .LVU1274
 3653 0040 7047     		bx	lr
 3654              	.LBE823:
 3655              		.cfi_endproc
 3656              	.LFE451:
 3657              		.size	obqTryFlushI, .-obqTryFlushI
 3658 0042 00BF     		.section	.text.obqFlush,"ax",%progbits
 3659              		.align	1
 3660              		.p2align 4,,15
 3661              		.global	obqFlush
 3662              		.syntax unified
 3663              		.thumb
 3664              		.thumb_func
 3665              		.type	obqFlush, %function
 3666              	obqFlush:
 3667              	.LVL215:
 3668              	.LFB452:
 3669              		.loc 1 832 45 is_stmt 1 view -0
 3670              		.cfi_startproc
 3671              		@ args = 0, pretend = 0, frame = 0
 3672              		@ frame_needed = 0, uses_anonymous_args = 0
 3673              		.loc 1 834 3 view .LVU1276
 3674              	.LBB838:
 3675              	.LBI838:
 3676              		.loc 2 573 20 view .LVU1277
 3677              		.loc 2 575 3 view .LVU1278
 3678              	.LBB839:
 3679              	.LBI839:
 3680              		.loc 6 407 20 view .LVU1279
 3681              		.loc 6 409 3 view .LVU1280
 3682              	.LBB840:
 3683              	.LBI840:
 3684              		.loc 7 806 27 view .LVU1281
 3685              		.loc 7 814 3 view .LVU1282
 3686              	.LBB841:
 3687              	.LBI841:
 3688              		.loc 5 491 27 view .LVU1283
 3689              	.LBB842:
 3690              		.loc 5 493 3 view .LVU1284
 3691              	.LBE842:
 3692              	.LBE841:
 3693              	.LBE840:
 3694              	.LBE839:
 3695              	.LBE838:
 3696              		.loc 1 832 45 is_stmt 0 view .LVU1285
 3697 0000 08B5     		push	{r3, lr}
 3698              		.cfi_def_cfa_offset 8
 3699              		.cfi_offset 3, -8
 3700              		.cfi_offset 14, -4
 3701              	.LBB847:
 3702              	.LBB846:
 3703              	.LBB845:
 3704              	.LBB844:
 3705              	.LBB843:
ARM GAS  C:\Users\DEVELO~1\AppData\Local\Temp\ccpJqkfg.s 			page 66


 3706              		.loc 5 493 3 view .LVU1286
 3707 0002 3023     		movs	r3, #48
 3708              		.syntax unified
 3709              	@ 493 "../../../os/common/ext/ARM/CMSIS/Core/Include/cmsis_gcc.h" 1
 3710 0004 83F31188 		MSR basepri, r3
 3711              	@ 0 "" 2
 3712              	.LVL216:
 3713              		.loc 5 493 3 view .LVU1287
 3714              		.thumb
 3715              		.syntax unified
 3716              	.LBE843:
 3717              	.LBE844:
 3718              	.LBE845:
 3719              		.loc 6 410 35 is_stmt 1 view .LVU1288
 3720              		.loc 6 411 21 view .LVU1289
 3721              	.LBE846:
 3722              	.LBE847:
 3723              		.loc 1 837 3 view .LVU1290
 3724              		.loc 1 837 11 is_stmt 0 view .LVU1291
 3725 0008 836A     		ldr	r3, [r0, #40]
 3726              		.loc 1 837 6 view .LVU1292
 3727 000a 1BB1     		cbz	r3, .L171
 3728              	.LBB848:
 3729              		.loc 1 838 5 is_stmt 1 view .LVU1293
 3730              		.loc 1 838 52 is_stmt 0 view .LVU1294
 3731 000c 0269     		ldr	r2, [r0, #16]
 3732              		.loc 1 838 12 view .LVU1295
 3733 000e 043B     		subs	r3, r3, #4
 3734              	.LVL217:
 3735              		.loc 1 840 5 is_stmt 1 view .LVU1296
 3736              		.loc 1 840 8 is_stmt 0 view .LVU1297
 3737 0010 9B1A     		subs	r3, r3, r2
 3738              	.LVL218:
 3739              		.loc 1 840 8 view .LVU1298
 3740 0012 03D1     		bne	.L181
 3741              	.LVL219:
 3742              	.L171:
 3743              		.loc 1 840 8 view .LVU1299
 3744              	.LBE848:
 3745              		.loc 1 845 3 is_stmt 1 view .LVU1300
 3746              	.LBB851:
 3747              	.LBI851:
 3748              		.loc 2 584 20 view .LVU1301
 3749              		.loc 2 586 3 view .LVU1302
 3750              	.LBB852:
 3751              	.LBI852:
 3752              		.loc 6 421 20 view .LVU1303
 3753              	.LBB853:
 3754              		.loc 6 423 23 view .LVU1304
 3755              		.loc 6 424 34 view .LVU1305
 3756              		.loc 6 430 3 view .LVU1306
 3757              		.loc 6 430 3 view .LVU1307
 3758              		.loc 6 430 3 view .LVU1308
 3759              		.loc 6 434 3 view .LVU1309
 3760              	.LBB854:
 3761              	.LBI854:
 3762              		.loc 7 830 27 view .LVU1310
ARM GAS  C:\Users\DEVELO~1\AppData\Local\Temp\ccpJqkfg.s 			page 67


 3763              		.loc 7 833 3 view .LVU1311
 3764              	.LBB855:
 3765              	.LBI855:
 3766              		.loc 5 491 27 view .LVU1312
 3767              	.LBB856:
 3768              		.loc 5 493 3 view .LVU1313
 3769 0014 0023     		movs	r3, #0
 3770              		.syntax unified
 3771              	@ 493 "../../../os/common/ext/ARM/CMSIS/Core/Include/cmsis_gcc.h" 1
 3772 0016 83F31188 		MSR basepri, r3
 3773              	@ 0 "" 2
 3774              	.LVL220:
 3775              		.loc 5 493 3 is_stmt 0 view .LVU1314
 3776              		.thumb
 3777              		.syntax unified
 3778              	.LBE856:
 3779              	.LBE855:
 3780              	.LBE854:
 3781              	.LBE853:
 3782              	.LBE852:
 3783              	.LBE851:
 3784              		.loc 1 846 1 view .LVU1315
 3785 001a 08BD     		pop	{r3, pc}
 3786              	.LVL221:
 3787              	.L181:
 3788              	.LBB862:
 3789              		.loc 1 841 7 is_stmt 1 view .LVU1316
 3790              	.LBB849:
 3791              	.LBI849:
 3792              		.loc 1 626 6 view .LVU1317
 3793              	.LBB850:
 3794              		.loc 1 628 23 view .LVU1318
 3795              		.loc 1 629 3 view .LVU1319
 3796              		.loc 1 629 3 view .LVU1320
 3797              		.loc 1 629 3 view .LVU1321
 3798              		.loc 1 630 3 view .LVU1322
 3799              		.loc 1 630 3 view .LVU1323
 3800              		.loc 1 630 3 view .LVU1324
 3801              		.loc 1 633 3 view .LVU1325
 3802              		.loc 1 633 37 is_stmt 0 view .LVU1326
 3803 001c 1360     		str	r3, [r2]
 3804              		.loc 1 636 3 is_stmt 1 view .LVU1327
 3805              		.loc 1 637 16 is_stmt 0 view .LVU1328
 3806 001e D0F81CC0 		ldr	ip, [r0, #28]
 3807              		.loc 1 636 7 view .LVU1329
 3808 0022 C368     		ldr	r3, [r0, #12]
 3809              	.LVL222:
 3810              		.loc 1 637 16 view .LVU1330
 3811 0024 6244     		add	r2, r2, ip
 3812              	.LVL223:
 3813              		.loc 1 638 6 view .LVU1331
 3814 0026 8169     		ldr	r1, [r0, #24]
 3815              		.loc 1 636 17 view .LVU1332
 3816 0028 013B     		subs	r3, r3, #1
 3817              		.loc 1 638 6 view .LVU1333
 3818 002a 8A42     		cmp	r2, r1
 3819              		.loc 1 637 16 view .LVU1334
ARM GAS  C:\Users\DEVELO~1\AppData\Local\Temp\ccpJqkfg.s 			page 68


 3820 002c 0261     		str	r2, [r0, #16]
 3821              	.LVL224:
 3822              		.loc 1 636 17 view .LVU1335
 3823 002e C360     		str	r3, [r0, #12]
 3824              		.loc 1 637 3 is_stmt 1 view .LVU1336
 3825              		.loc 1 638 3 view .LVU1337
 3826              		.loc 1 638 6 is_stmt 0 view .LVU1338
 3827 0030 01D3     		bcc	.L173
 3828              		.loc 1 639 5 is_stmt 1 view .LVU1339
 3829              		.loc 1 639 18 is_stmt 0 view .LVU1340
 3830 0032 436A     		ldr	r3, [r0, #36]
 3831 0034 0361     		str	r3, [r0, #16]
 3832              	.L173:
 3833              		.loc 1 643 3 is_stmt 1 view .LVU1341
 3834              		.loc 1 643 13 is_stmt 0 view .LVU1342
 3835 0036 0022     		movs	r2, #0
 3836              		.loc 1 646 11 view .LVU1343
 3837 0038 036B     		ldr	r3, [r0, #48]
 3838              		.loc 1 643 13 view .LVU1344
 3839 003a 8262     		str	r2, [r0, #40]
 3840              		.loc 1 646 3 is_stmt 1 view .LVU1345
 3841              		.loc 1 646 6 is_stmt 0 view .LVU1346
 3842 003c 002B     		cmp	r3, #0
 3843 003e E9D0     		beq	.L171
 3844              		.loc 1 647 5 is_stmt 1 view .LVU1347
 3845 0040 9847     		blx	r3
 3846              	.LVL225:
 3847              		.loc 1 647 5 is_stmt 0 view .LVU1348
 3848              	.LBE850:
 3849              	.LBE849:
 3850              	.LBE862:
 3851              		.loc 1 845 3 is_stmt 1 view .LVU1349
 3852              	.LBB863:
 3853              		.loc 2 584 20 view .LVU1350
 3854              		.loc 2 586 3 view .LVU1351
 3855              	.LBB861:
 3856              		.loc 6 421 20 view .LVU1352
 3857              	.LBB860:
 3858              		.loc 6 423 23 view .LVU1353
 3859              		.loc 6 424 34 view .LVU1354
 3860              		.loc 6 430 3 view .LVU1355
 3861              		.loc 6 430 3 view .LVU1356
 3862              		.loc 6 430 3 view .LVU1357
 3863              		.loc 6 434 3 view .LVU1358
 3864              	.LBB859:
 3865              		.loc 7 830 27 view .LVU1359
 3866              		.loc 7 833 3 view .LVU1360
 3867              	.LBB858:
 3868              		.loc 5 491 27 view .LVU1361
 3869              	.LBB857:
 3870              		.loc 5 493 3 view .LVU1362
 3871 0042 0023     		movs	r3, #0
 3872              		.syntax unified
 3873              	@ 493 "../../../os/common/ext/ARM/CMSIS/Core/Include/cmsis_gcc.h" 1
 3874 0044 83F31188 		MSR basepri, r3
 3875              	@ 0 "" 2
 3876              	.LVL226:
ARM GAS  C:\Users\DEVELO~1\AppData\Local\Temp\ccpJqkfg.s 			page 69


 3877              		.loc 5 493 3 is_stmt 0 view .LVU1363
 3878              		.thumb
 3879              		.syntax unified
 3880              	.LBE857:
 3881              	.LBE858:
 3882              	.LBE859:
 3883              	.LBE860:
 3884              	.LBE861:
 3885              	.LBE863:
 3886              		.loc 1 846 1 view .LVU1364
 3887 0048 08BD     		pop	{r3, pc}
 3888              		.cfi_endproc
 3889              	.LFE452:
 3890              		.size	obqFlush, .-obqFlush
 3891 004a 00BF     		.text
 3892              	.Letext0:
 3893              		.file 8 "c:\\chibistudio\\tools\\gnu tools arm embedded\\11.3 2022.08\\lib\\gcc\\arm-none-eabi\\11
 3894              		.file 9 "c:\\chibistudio\\tools\\gnu tools arm embedded\\11.3 2022.08\\arm-none-eabi\\include\\mac
 3895              		.file 10 "c:\\chibistudio\\tools\\gnu tools arm embedded\\11.3 2022.08\\arm-none-eabi\\include\\sy
 3896              		.file 11 "../../../os/rt/include/chearly.h"
 3897              		.file 12 "../../../os/rt/include/chtime.h"
 3898              		.file 13 "../../../os/rt/include/chobjects.h"
 3899              		.file 14 "../../../os/hal/include/hal_buffers.h"
 3900              		.file 15 "c:\\chibistudio\\tools\\gnu tools arm embedded\\11.3 2022.08\\arm-none-eabi\\include\\st
 3901              		.file 16 "<built-in>"
 3902              		.section	.debug_info,"",%progbits
 3903              	.Ldebug_info0:
 3904 0000 3C1E0000 		.4byte	0x1e3c
 3905 0004 0500     		.2byte	0x5
 3906 0006 01       		.byte	0x1
 3907 0007 04       		.byte	0x4
 3908 0008 00000000 		.4byte	.Ldebug_abbrev0
 3909 000c 36       		.uleb128 0x36
 3910 000d 1D040000 		.4byte	.LASF92
 3911 0011 1D       		.byte	0x1d
 3912 0012 B1020000 		.4byte	.LASF93
 3913 0016 E9010000 		.4byte	.LASF94
 3914 001a F9020000 		.4byte	.LLRL203
 3915 001e 00000000 		.4byte	0
 3916 0022 00000000 		.4byte	.Ldebug_line0
 3917 0026 37       		.uleb128 0x37
 3918 0027 04       		.byte	0x4
 3919 0028 05       		.byte	0x5
 3920 0029 696E7400 		.ascii	"int\000"
 3921 002d 06       		.uleb128 0x6
 3922 002e 68000000 		.4byte	.LASF4
 3923 0032 08       		.byte	0x8
 3924 0033 D1       		.byte	0xd1
 3925 0034 17       		.byte	0x17
 3926 0035 3E000000 		.4byte	0x3e
 3927 0039 38       		.uleb128 0x38
 3928 003a 2D000000 		.4byte	0x2d
 3929 003e 07       		.uleb128 0x7
 3930 003f 04       		.byte	0x4
 3931 0040 07       		.byte	0x7
 3932 0041 0D030000 		.4byte	.LASF0
 3933 0045 07       		.uleb128 0x7
ARM GAS  C:\Users\DEVELO~1\AppData\Local\Temp\ccpJqkfg.s 			page 70


 3934 0046 08       		.byte	0x8
 3935 0047 05       		.byte	0x5
 3936 0048 5D010000 		.4byte	.LASF1
 3937 004c 07       		.uleb128 0x7
 3938 004d 08       		.byte	0x8
 3939 004e 04       		.byte	0x4
 3940 004f 45050000 		.4byte	.LASF2
 3941 0053 07       		.uleb128 0x7
 3942 0054 01       		.byte	0x1
 3943 0055 06       		.byte	0x6
 3944 0056 E1020000 		.4byte	.LASF3
 3945 005a 06       		.uleb128 0x6
 3946 005b 38020000 		.4byte	.LASF5
 3947 005f 09       		.byte	0x9
 3948 0060 2B       		.byte	0x2b
 3949 0061 18       		.byte	0x18
 3950 0062 66000000 		.4byte	0x66
 3951 0066 07       		.uleb128 0x7
 3952 0067 01       		.byte	0x1
 3953 0068 08       		.byte	0x8
 3954 0069 9A020000 		.4byte	.LASF6
 3955 006d 07       		.uleb128 0x7
 3956 006e 02       		.byte	0x2
 3957 006f 05       		.byte	0x5
 3958 0070 5E000000 		.4byte	.LASF7
 3959 0074 07       		.uleb128 0x7
 3960 0075 02       		.byte	0x2
 3961 0076 07       		.byte	0x7
 3962 0077 60030000 		.4byte	.LASF8
 3963 007b 06       		.uleb128 0x6
 3964 007c 21050000 		.4byte	.LASF9
 3965 0080 09       		.byte	0x9
 3966 0081 4D       		.byte	0x4d
 3967 0082 18       		.byte	0x18
 3968 0083 87000000 		.4byte	0x87
 3969 0087 07       		.uleb128 0x7
 3970 0088 04       		.byte	0x4
 3971 0089 05       		.byte	0x5
 3972 008a 8E030000 		.4byte	.LASF10
 3973 008e 06       		.uleb128 0x6
 3974 008f E8040000 		.4byte	.LASF11
 3975 0093 09       		.byte	0x9
 3976 0094 4F       		.byte	0x4f
 3977 0095 19       		.byte	0x19
 3978 0096 9A000000 		.4byte	0x9a
 3979 009a 07       		.uleb128 0x7
 3980 009b 04       		.byte	0x4
 3981 009c 07       		.byte	0x7
 3982 009d D7010000 		.4byte	.LASF12
 3983 00a1 07       		.uleb128 0x7
 3984 00a2 08       		.byte	0x8
 3985 00a3 07       		.byte	0x7
 3986 00a4 ED020000 		.4byte	.LASF13
 3987 00a8 39       		.uleb128 0x39
 3988 00a9 04       		.byte	0x4
 3989 00aa 07       		.uleb128 0x7
 3990 00ab 01       		.byte	0x1
ARM GAS  C:\Users\DEVELO~1\AppData\Local\Temp\ccpJqkfg.s 			page 71


 3991 00ac 08       		.byte	0x8
 3992 00ad 89030000 		.4byte	.LASF14
 3993 00b1 0D       		.uleb128 0xd
 3994 00b2 AA000000 		.4byte	0xaa
 3995 00b6 06       		.uleb128 0x6
 3996 00b7 19010000 		.4byte	.LASF15
 3997 00bb 0A       		.byte	0xa
 3998 00bc 18       		.byte	0x18
 3999 00bd 13       		.byte	0x13
 4000 00be 5A000000 		.4byte	0x5a
 4001 00c2 0D       		.uleb128 0xd
 4002 00c3 B6000000 		.4byte	0xb6
 4003 00c7 06       		.uleb128 0x6
 4004 00c8 97030000 		.4byte	.LASF16
 4005 00cc 0A       		.byte	0xa
 4006 00cd 2C       		.byte	0x2c
 4007 00ce 13       		.byte	0x13
 4008 00cf 7B000000 		.4byte	0x7b
 4009 00d3 06       		.uleb128 0x6
 4010 00d4 04030000 		.4byte	.LASF17
 4011 00d8 0A       		.byte	0xa
 4012 00d9 30       		.byte	0x30
 4013 00da 14       		.byte	0x14
 4014 00db 8E000000 		.4byte	0x8e
 4015 00df 06       		.uleb128 0x6
 4016 00e0 CB050000 		.4byte	.LASF18
 4017 00e4 0B       		.byte	0xb
 4018 00e5 58       		.byte	0x58
 4019 00e6 19       		.byte	0x19
 4020 00e7 C7000000 		.4byte	0xc7
 4021 00eb 06       		.uleb128 0x6
 4022 00ec BD030000 		.4byte	.LASF19
 4023 00f0 0C       		.byte	0xc
 4024 00f1 79       		.byte	0x79
 4025 00f2 12       		.byte	0x12
 4026 00f3 D3000000 		.4byte	0xd3
 4027 00f7 06       		.uleb128 0x6
 4028 00f8 32010000 		.4byte	.LASF20
 4029 00fc 04       		.byte	0x4
 4030 00fd 3F       		.byte	0x3f
 4031 00fe 19       		.byte	0x19
 4032 00ff 03010000 		.4byte	0x103
 4033 0103 27       		.uleb128 0x27
 4034 0104 6D050000 		.4byte	.LASF25
 4035 0108 08       		.byte	0x8
 4036 0109 04       		.byte	0x4
 4037 010a 45       		.byte	0x45
 4038 010b 08       		.byte	0x8
 4039 010c 2B010000 		.4byte	0x12b
 4040 0110 08       		.uleb128 0x8
 4041 0111 D9050000 		.4byte	.LASF21
 4042 0115 04       		.byte	0x4
 4043 0116 46       		.byte	0x46
 4044 0117 1A       		.byte	0x1a
 4045 0118 2B010000 		.4byte	0x12b
 4046 011c 00       		.byte	0
 4047 011d 08       		.uleb128 0x8
ARM GAS  C:\Users\DEVELO~1\AppData\Local\Temp\ccpJqkfg.s 			page 72


 4048 011e B1050000 		.4byte	.LASF22
 4049 0122 04       		.byte	0x4
 4050 0123 47       		.byte	0x47
 4051 0124 1A       		.byte	0x1a
 4052 0125 2B010000 		.4byte	0x12b
 4053 0129 04       		.byte	0x4
 4054 012a 00       		.byte	0
 4055 012b 0E       		.uleb128 0xe
 4056 012c F7000000 		.4byte	0xf7
 4057 0130 07       		.uleb128 0x7
 4058 0131 04       		.byte	0x4
 4059 0132 04       		.byte	0x4
 4060 0133 57010000 		.4byte	.LASF23
 4061 0137 07       		.uleb128 0x7
 4062 0138 08       		.byte	0x8
 4063 0139 04       		.byte	0x4
 4064 013a 93050000 		.4byte	.LASF24
 4065 013e 0E       		.uleb128 0xe
 4066 013f B6000000 		.4byte	0xb6
 4067 0143 27       		.uleb128 0x27
 4068 0144 21010000 		.4byte	.LASF26
 4069 0148 08       		.byte	0x8
 4070 0149 0D       		.byte	0xd
 4071 014a 8F       		.byte	0x8f
 4072 014b 10       		.byte	0x10
 4073 014c 5E010000 		.4byte	0x15e
 4074 0150 08       		.uleb128 0x8
 4075 0151 9F030000 		.4byte	.LASF27
 4076 0155 0D       		.byte	0xd
 4077 0156 93       		.byte	0x93
 4078 0157 21       		.byte	0x21
 4079 0158 F7000000 		.4byte	0xf7
 4080 015c 00       		.byte	0
 4081 015d 00       		.byte	0
 4082 015e 06       		.uleb128 0x6
 4083 015f 41000000 		.4byte	.LASF28
 4084 0163 0D       		.byte	0xd
 4085 0164 94       		.byte	0x94
 4086 0165 03       		.byte	0x3
 4087 0166 43010000 		.4byte	0x143
 4088 016a 07       		.uleb128 0x7
 4089 016b 01       		.byte	0x1
 4090 016c 02       		.byte	0x2
 4091 016d A5030000 		.4byte	.LASF29
 4092 0171 0E       		.uleb128 0xe
 4093 0172 C2000000 		.4byte	0xc2
 4094 0176 06       		.uleb128 0x6
 4095 0177 04050000 		.4byte	.LASF30
 4096 017b 0E       		.byte	0xe
 4097 017c 3F       		.byte	0x3f
 4098 017d 21       		.byte	0x21
 4099 017e 82010000 		.4byte	0x182
 4100 0182 27       		.uleb128 0x27
 4101 0183 08010000 		.4byte	.LASF31
 4102 0187 38       		.byte	0x38
 4103 0188 0E       		.byte	0xe
 4104 0189 4B       		.byte	0x4b
ARM GAS  C:\Users\DEVELO~1\AppData\Local\Temp\ccpJqkfg.s 			page 73


 4105 018a 08       		.byte	0x8
 4106 018b 35020000 		.4byte	0x235
 4107 018f 08       		.uleb128 0x8
 4108 0190 A9050000 		.4byte	.LASF32
 4109 0194 0E       		.byte	0xe
 4110 0195 4F       		.byte	0x4f
 4111 0196 19       		.byte	0x19
 4112 0197 5E010000 		.4byte	0x15e
 4113 019b 00       		.byte	0
 4114 019c 08       		.uleb128 0x8
 4115 019d E5030000 		.4byte	.LASF33
 4116 01a1 0E       		.byte	0xe
 4117 01a2 53       		.byte	0x53
 4118 01a3 19       		.byte	0x19
 4119 01a4 6A010000 		.4byte	0x16a
 4120 01a8 08       		.byte	0x8
 4121 01a9 08       		.uleb128 0x8
 4122 01aa 6B010000 		.4byte	.LASF34
 4123 01ae 0E       		.byte	0xe
 4124 01af 57       		.byte	0x57
 4125 01b0 19       		.byte	0x19
 4126 01b1 39000000 		.4byte	0x39
 4127 01b5 0C       		.byte	0xc
 4128 01b6 08       		.uleb128 0x8
 4129 01b7 D0010000 		.4byte	.LASF35
 4130 01bb 0E       		.byte	0xe
 4131 01bc 5B       		.byte	0x5b
 4132 01bd 1A       		.byte	0x1a
 4133 01be 3E010000 		.4byte	0x13e
 4134 01c2 10       		.byte	0x10
 4135 01c3 08       		.uleb128 0x8
 4136 01c4 B6050000 		.4byte	.LASF36
 4137 01c8 0E       		.byte	0xe
 4138 01c9 5F       		.byte	0x5f
 4139 01ca 1A       		.byte	0x1a
 4140 01cb 3E010000 		.4byte	0x13e
 4141 01cf 14       		.byte	0x14
 4142 01d0 08       		.uleb128 0x8
 4143 01d1 EF030000 		.4byte	.LASF37
 4144 01d5 0E       		.byte	0xe
 4145 01d6 63       		.byte	0x63
 4146 01d7 1A       		.byte	0x1a
 4147 01d8 3E010000 		.4byte	0x13e
 4148 01dc 18       		.byte	0x18
 4149 01dd 08       		.uleb128 0x8
 4150 01de 3B000000 		.4byte	.LASF38
 4151 01e2 0E       		.byte	0xe
 4152 01e3 6A       		.byte	0x6a
 4153 01e4 19       		.byte	0x19
 4154 01e5 2D000000 		.4byte	0x2d
 4155 01e9 1C       		.byte	0x1c
 4156 01ea 28       		.uleb128 0x28
 4157 01eb 626E00   		.ascii	"bn\000"
 4158 01ee 6E       		.byte	0x6e
 4159 01ef 19       		.byte	0x19
 4160 01f0 2D000000 		.4byte	0x2d
 4161 01f4 20       		.byte	0x20
ARM GAS  C:\Users\DEVELO~1\AppData\Local\Temp\ccpJqkfg.s 			page 74


 4162 01f5 08       		.uleb128 0x8
 4163 01f6 E0040000 		.4byte	.LASF39
 4164 01fa 0E       		.byte	0xe
 4165 01fb 72       		.byte	0x72
 4166 01fc 1A       		.byte	0x1a
 4167 01fd 3E010000 		.4byte	0x13e
 4168 0201 24       		.byte	0x24
 4169 0202 28       		.uleb128 0x28
 4170 0203 70747200 		.ascii	"ptr\000"
 4171 0207 77       		.byte	0x77
 4172 0208 1A       		.byte	0x1a
 4173 0209 3E010000 		.4byte	0x13e
 4174 020d 28       		.byte	0x28
 4175 020e 28       		.uleb128 0x28
 4176 020f 746F7000 		.ascii	"top\000"
 4177 0213 7B       		.byte	0x7b
 4178 0214 1A       		.byte	0x1a
 4179 0215 3E010000 		.4byte	0x13e
 4180 0219 2C       		.byte	0x2c
 4181 021a 08       		.uleb128 0x8
 4182 021b 8C050000 		.4byte	.LASF40
 4183 021f 0E       		.byte	0xe
 4184 0220 7F       		.byte	0x7f
 4185 0221 19       		.byte	0x19
 4186 0222 35020000 		.4byte	0x235
 4187 0226 30       		.byte	0x30
 4188 0227 08       		.uleb128 0x8
 4189 0228 3D010000 		.4byte	.LASF41
 4190 022c 0E       		.byte	0xe
 4191 022d 83       		.byte	0x83
 4192 022e 1A       		.byte	0x1a
 4193 022f A8000000 		.4byte	0xa8
 4194 0233 34       		.byte	0x34
 4195 0234 00       		.byte	0
 4196 0235 06       		.uleb128 0x6
 4197 0236 4C010000 		.4byte	.LASF42
 4198 023a 0E       		.byte	0xe
 4199 023b 46       		.byte	0x46
 4200 023c 10       		.byte	0x10
 4201 023d 41020000 		.4byte	0x241
 4202 0241 0E       		.uleb128 0xe
 4203 0242 46020000 		.4byte	0x246
 4204 0246 3A       		.uleb128 0x3a
 4205 0247 51020000 		.4byte	0x251
 4206 024b 0F       		.uleb128 0xf
 4207 024c 51020000 		.4byte	0x251
 4208 0250 00       		.byte	0
 4209 0251 0E       		.uleb128 0xe
 4210 0252 76010000 		.4byte	0x176
 4211 0256 06       		.uleb128 0x6
 4212 0257 76050000 		.4byte	.LASF43
 4213 025b 0E       		.byte	0xe
 4214 025c 89       		.byte	0x89
 4215 025d 1C       		.byte	0x1c
 4216 025e 76010000 		.4byte	0x176
 4217 0262 06       		.uleb128 0x6
 4218 0263 E0000000 		.4byte	.LASF44
ARM GAS  C:\Users\DEVELO~1\AppData\Local\Temp\ccpJqkfg.s 			page 75


 4219 0267 0E       		.byte	0xe
 4220 0268 8E       		.byte	0x8e
 4221 0269 1C       		.byte	0x1c
 4222 026a 76010000 		.4byte	0x176
 4223 026e 3B       		.uleb128 0x3b
 4224 026f 9D000000 		.4byte	.LASF45
 4225 0273 0F       		.byte	0xf
 4226 0274 1F       		.byte	0x1f
 4227 0275 09       		.byte	0x9
 4228 0276 A8000000 		.4byte	0xa8
 4229 027a 8E020000 		.4byte	0x28e
 4230 027e 0F       		.uleb128 0xf
 4231 027f A8000000 		.4byte	0xa8
 4232 0283 0F       		.uleb128 0xf
 4233 0284 8E020000 		.4byte	0x28e
 4234 0288 0F       		.uleb128 0xf
 4235 0289 2D000000 		.4byte	0x2d
 4236 028d 00       		.byte	0
 4237 028e 0E       		.uleb128 0xe
 4238 028f 93020000 		.4byte	0x293
 4239 0293 3C       		.uleb128 0x3c
 4240 0294 3D       		.uleb128 0x3d
 4241 0295 74010000 		.4byte	.LASF46
 4242 0299 03       		.byte	0x3
 4243 029a 3F01     		.2byte	0x13f
 4244 029c 09       		.byte	0x9
 4245 029d DF000000 		.4byte	0xdf
 4246 02a1 B0020000 		.4byte	0x2b0
 4247 02a5 0F       		.uleb128 0xf
 4248 02a6 B0020000 		.4byte	0x2b0
 4249 02aa 0F       		.uleb128 0xf
 4250 02ab EB000000 		.4byte	0xeb
 4251 02af 00       		.byte	0
 4252 02b0 0E       		.uleb128 0xe
 4253 02b1 5E010000 		.4byte	0x15e
 4254 02b5 29       		.uleb128 0x29
 4255 02b6 BB000000 		.4byte	.LASF47
 4256 02ba 4001     		.2byte	0x140
 4257 02bc CB020000 		.4byte	0x2cb
 4258 02c0 0F       		.uleb128 0xf
 4259 02c1 B0020000 		.4byte	0x2b0
 4260 02c5 0F       		.uleb128 0xf
 4261 02c6 DF000000 		.4byte	0xdf
 4262 02ca 00       		.byte	0
 4263 02cb 29       		.uleb128 0x29
 4264 02cc 6F000000 		.4byte	.LASF48
 4265 02d0 4101     		.2byte	0x141
 4266 02d2 E1020000 		.4byte	0x2e1
 4267 02d6 0F       		.uleb128 0xf
 4268 02d7 B0020000 		.4byte	0x2b0
 4269 02db 0F       		.uleb128 0xf
 4270 02dc DF000000 		.4byte	0xdf
 4271 02e0 00       		.byte	0
 4272 02e1 1F       		.uleb128 0x1f
 4273 02e2 89010000 		.4byte	.LASF57
 4274 02e6 4003     		.2byte	0x340
 4275 02e8 00000000 		.4byte	.LFB452
ARM GAS  C:\Users\DEVELO~1\AppData\Local\Temp\ccpJqkfg.s 			page 76


 4276 02ec 4A000000 		.4byte	.LFE452-.LFB452
 4277 02f0 01       		.uleb128 0x1
 4278 02f1 9C       		.byte	0x9c
 4279 02f2 21040000 		.4byte	0x421
 4280 02f6 04       		.uleb128 0x4
 4281 02f7 CB030000 		.4byte	.LASF49
 4282 02fb 4003     		.2byte	0x340
 4283 02fd 27       		.byte	0x27
 4284 02fe 21040000 		.4byte	0x421
 4285 0302 10000000 		.4byte	.LLST194
 4286 0306 0C000000 		.4byte	.LVUS194
 4287 030a 20       		.uleb128 0x20
 4288 030b E1020000 		.4byte	.LLRL197
 4289 030f 65030000 		.4byte	0x365
 4290 0313 22       		.uleb128 0x22
 4291 0314 F3040000 		.4byte	.LASF50
 4292 0318 4603     		.2byte	0x346
 4293 031a 2D000000 		.4byte	0x2d
 4294 031e 2D000000 		.4byte	.LLST198
 4295 0322 23000000 		.4byte	.LVUS198
 4296 0326 03       		.uleb128 0x3
 4297 0327 450A0000 		.4byte	0xa45
 4298 032b 1C000000 		.4byte	.LBI849
 4299 032f 01       		.byte	.LVU1317
 4300 0330 1C000000 		.4byte	.LBB849
 4301 0334 26000000 		.4byte	.LBE849-.LBB849
 4302 0338 01       		.byte	0x1
 4303 0339 4903     		.2byte	0x349
 4304 033b 07       		.byte	0x7
 4305 033c 01       		.uleb128 0x1
 4306 033d 5E0A0000 		.4byte	0xa5e
 4307 0341 5A000000 		.4byte	.LLST199
 4308 0345 54000000 		.4byte	.LVUS199
 4309 0349 01       		.uleb128 0x1
 4310 034a 510A0000 		.4byte	0xa51
 4311 034e 76000000 		.4byte	.LLST200
 4312 0352 72000000 		.4byte	.LVUS200
 4313 0356 18       		.uleb128 0x18
 4314 0357 42000000 		.4byte	.LVL225
 4315 035b 05       		.uleb128 0x5
 4316 035c 01       		.uleb128 0x1
 4317 035d 50       		.byte	0x50
 4318 035e 03       		.uleb128 0x3
 4319 035f A3       		.byte	0xa3
 4320 0360 01       		.uleb128 0x1
 4321 0361 50       		.byte	0x50
 4322 0362 00       		.byte	0
 4323 0363 00       		.byte	0
 4324 0364 00       		.byte	0
 4325 0365 0A       		.uleb128 0xa
 4326 0366 D21B0000 		.4byte	0x1bd2
 4327 036a 00000000 		.4byte	.LBI838
 4328 036e 02       		.byte	.LVU1277
 4329 036f D5020000 		.4byte	.LLRL195
 4330 0373 4203     		.2byte	0x342
 4331 0375 03       		.byte	0x3
 4332 0376 C1030000 		.4byte	0x3c1
ARM GAS  C:\Users\DEVELO~1\AppData\Local\Temp\ccpJqkfg.s 			page 77


 4333 037a 02       		.uleb128 0x2
 4334 037b 221C0000 		.4byte	0x1c22
 4335 037f 00000000 		.4byte	.LBI839
 4336 0383 04       		.byte	.LVU1279
 4337 0384 D5020000 		.4byte	.LLRL195
 4338 0388 02       		.byte	0x2
 4339 0389 3F02     		.2byte	0x23f
 4340 038b 03       		.byte	0x3
 4341 038c 02       		.uleb128 0x2
 4342 038d 341C0000 		.4byte	0x1c34
 4343 0391 00000000 		.4byte	.LBI840
 4344 0395 06       		.byte	.LVU1281
 4345 0396 D5020000 		.4byte	.LLRL195
 4346 039a 06       		.byte	0x6
 4347 039b 9901     		.2byte	0x199
 4348 039d 03       		.byte	0x3
 4349 039e 02       		.uleb128 0x2
 4350 039f 3D1C0000 		.4byte	0x1c3d
 4351 03a3 00000000 		.4byte	.LBI841
 4352 03a7 08       		.byte	.LVU1283
 4353 03a8 D5020000 		.4byte	.LLRL195
 4354 03ac 07       		.byte	0x7
 4355 03ad 2E03     		.2byte	0x32e
 4356 03af 03       		.byte	0x3
 4357 03b0 01       		.uleb128 0x1
 4358 03b1 4A1C0000 		.4byte	0x1c4a
 4359 03b5 8B000000 		.4byte	.LLST196
 4360 03b9 89000000 		.4byte	.LVUS196
 4361 03bd 00       		.byte	0
 4362 03be 00       		.byte	0
 4363 03bf 00       		.byte	0
 4364 03c0 00       		.byte	0
 4365 03c1 02       		.uleb128 0x2
 4366 03c2 C91B0000 		.4byte	0x1bc9
 4367 03c6 14000000 		.4byte	.LBI851
 4368 03ca 02       		.byte	.LVU1301
 4369 03cb ED020000 		.4byte	.LLRL201
 4370 03cf 01       		.byte	0x1
 4371 03d0 4D03     		.2byte	0x34d
 4372 03d2 03       		.byte	0x3
 4373 03d3 02       		.uleb128 0x2
 4374 03d4 F61B0000 		.4byte	0x1bf6
 4375 03d8 14000000 		.4byte	.LBI852
 4376 03dc 04       		.byte	.LVU1303
 4377 03dd ED020000 		.4byte	.LLRL201
 4378 03e1 02       		.byte	0x2
 4379 03e2 4A02     		.2byte	0x24a
 4380 03e4 03       		.byte	0x3
 4381 03e5 09       		.uleb128 0x9
 4382 03e6 ED020000 		.4byte	.LLRL201
 4383 03ea 02       		.uleb128 0x2
 4384 03eb 2B1C0000 		.4byte	0x1c2b
 4385 03ef 14000000 		.4byte	.LBI854
 4386 03f3 0B       		.byte	.LVU1310
 4387 03f4 ED020000 		.4byte	.LLRL201
 4388 03f8 06       		.byte	0x6
 4389 03f9 B201     		.2byte	0x1b2
ARM GAS  C:\Users\DEVELO~1\AppData\Local\Temp\ccpJqkfg.s 			page 78


 4390 03fb 03       		.byte	0x3
 4391 03fc 02       		.uleb128 0x2
 4392 03fd 3D1C0000 		.4byte	0x1c3d
 4393 0401 14000000 		.4byte	.LBI855
 4394 0405 0D       		.byte	.LVU1312
 4395 0406 ED020000 		.4byte	.LLRL201
 4396 040a 07       		.byte	0x7
 4397 040b 4103     		.2byte	0x341
 4398 040d 03       		.byte	0x3
 4399 040e 01       		.uleb128 0x1
 4400 040f 4A1C0000 		.4byte	0x1c4a
 4401 0413 9A000000 		.4byte	.LLST202
 4402 0417 96000000 		.4byte	.LVUS202
 4403 041b 00       		.byte	0
 4404 041c 00       		.byte	0
 4405 041d 00       		.byte	0
 4406 041e 00       		.byte	0
 4407 041f 00       		.byte	0
 4408 0420 00       		.byte	0
 4409 0421 0E       		.uleb128 0xe
 4410 0422 62020000 		.4byte	0x262
 4411 0426 19       		.uleb128 0x19
 4412 0427 51000000 		.4byte	.LASF51
 4413 042b 1B03     		.2byte	0x31b
 4414 042d 06       		.byte	0x6
 4415 042e 6A010000 		.4byte	0x16a
 4416 0432 00000000 		.4byte	.LFB451
 4417 0436 42000000 		.4byte	.LFE451-.LFB451
 4418 043a 01       		.uleb128 0x1
 4419 043b 9C       		.byte	0x9c
 4420 043c 6E040000 		.4byte	0x46e
 4421 0440 04       		.uleb128 0x4
 4422 0441 CB030000 		.4byte	.LASF49
 4423 0445 1B03     		.2byte	0x31b
 4424 0447 2B       		.byte	0x2b
 4425 0448 21040000 		.4byte	0x421
 4426 044c B4000000 		.4byte	.LLST191
 4427 0450 AC000000 		.4byte	.LVUS191
 4428 0454 09       		.uleb128 0x9
 4429 0455 C9020000 		.4byte	.LLRL192
 4430 0459 22       		.uleb128 0x22
 4431 045a F3040000 		.4byte	.LASF50
 4432 045e 2203     		.2byte	0x322
 4433 0460 2D000000 		.4byte	0x2d
 4434 0464 D6000000 		.4byte	.LLST193
 4435 0468 CE000000 		.4byte	.LVUS193
 4436 046c 00       		.byte	0
 4437 046d 00       		.byte	0
 4438 046e 19       		.uleb128 0x19
 4439 046f 33030000 		.4byte	.LASF52
 4440 0473 D102     		.2byte	0x2d1
 4441 0475 08       		.byte	0x8
 4442 0476 2D000000 		.4byte	0x2d
 4443 047a 00000000 		.4byte	.LFB450
 4444 047e 1E010000 		.4byte	.LFE450-.LFB450
 4445 0482 01       		.uleb128 0x1
 4446 0483 9C       		.byte	0x9c
ARM GAS  C:\Users\DEVELO~1\AppData\Local\Temp\ccpJqkfg.s 			page 79


 4447 0484 B0070000 		.4byte	0x7b0
 4448 0488 04       		.uleb128 0x4
 4449 0489 CB030000 		.4byte	.LASF49
 4450 048d D102     		.2byte	0x2d1
 4451 048f 30       		.byte	0x30
 4452 0490 21040000 		.4byte	0x421
 4453 0494 03010000 		.4byte	.LLST165
 4454 0498 F7000000 		.4byte	.LVUS165
 4455 049c 1A       		.uleb128 0x1a
 4456 049d 627000   		.ascii	"bp\000"
 4457 04a0 D102     		.2byte	0x2d1
 4458 04a2 45       		.byte	0x45
 4459 04a3 71010000 		.4byte	0x171
 4460 04a7 42010000 		.4byte	.LLST166
 4461 04ab 30010000 		.4byte	.LVUS166
 4462 04af 1A       		.uleb128 0x1a
 4463 04b0 6E00     		.ascii	"n\000"
 4464 04b2 D202     		.2byte	0x2d2
 4465 04b4 1F       		.byte	0x1f
 4466 04b5 2D000000 		.4byte	0x2d
 4467 04b9 80010000 		.4byte	.LLST167
 4468 04bd 7C010000 		.4byte	.LVUS167
 4469 04c1 04       		.uleb128 0x4
 4470 04c2 D1050000 		.4byte	.LASF53
 4471 04c6 D202     		.2byte	0x2d2
 4472 04c8 30       		.byte	0x30
 4473 04c9 EB000000 		.4byte	0xeb
 4474 04cd 9D010000 		.4byte	.LLST168
 4475 04d1 91010000 		.4byte	.LVUS168
 4476 04d5 1B       		.uleb128 0x1b
 4477 04d6 7700     		.ascii	"w\000"
 4478 04d8 D302     		.2byte	0x2d3
 4479 04da 0A       		.byte	0xa
 4480 04db 2D000000 		.4byte	0x2d
 4481 04df D4010000 		.4byte	.LLST169
 4482 04e3 CA010000 		.4byte	.LVUS169
 4483 04e7 0B       		.uleb128 0xb
 4484 04e8 A8020000 		.4byte	.LASF56
 4485 04ec C0070000 		.4byte	0x7c0
 4486 04f0 20       		.uleb128 0x20
 4487 04f1 7B020000 		.4byte	.LLRL175
 4488 04f5 56070000 		.4byte	0x756
 4489 04f9 22       		.uleb128 0x22
 4490 04fa F3040000 		.4byte	.LASF50
 4491 04fe DA02     		.2byte	0x2da
 4492 0500 2D000000 		.4byte	0x2d
 4493 0504 01020000 		.4byte	.LLST176
 4494 0508 F9010000 		.4byte	.LVUS176
 4495 050c 20       		.uleb128 0x20
 4496 050d A0020000 		.4byte	.LLRL182
 4497 0511 2B060000 		.4byte	0x62b
 4498 0515 1B       		.uleb128 0x1b
 4499 0516 6D736700 		.ascii	"msg\000"
 4500 051a DE02     		.2byte	0x2de
 4501 051c 0D       		.byte	0xd
 4502 051d DF000000 		.4byte	0xdf
 4503 0521 24020000 		.4byte	.LLST183
ARM GAS  C:\Users\DEVELO~1\AppData\Local\Temp\ccpJqkfg.s 			page 80


 4504 0525 22020000 		.4byte	.LVUS183
 4505 0529 2A       		.uleb128 0x2a
 4506 052a CE0B0000 		.4byte	0xbce
 4507 052e 86000000 		.4byte	.LBB799
 4508 0532 2C000000 		.4byte	.LBE799-.LBB799
 4509 0536 E102     		.2byte	0x2e1
 4510 0538 C1050000 		.4byte	0x5c1
 4511 053c 10       		.uleb128 0x10
 4512 053d ED0B0000 		.4byte	0xbed
 4513 0541 10       		.uleb128 0x10
 4514 0542 E00B0000 		.4byte	0xbe0
 4515 0546 11       		.uleb128 0x11
 4516 0547 030C0000 		.4byte	0xc03
 4517 054b AE020000 		.4byte	.LLRL184
 4518 054f 97050000 		.4byte	0x597
 4519 0553 12       		.uleb128 0x12
 4520 0554 040C0000 		.4byte	0xc04
 4521 0558 30020000 		.4byte	.LLST185
 4522 055c 2E020000 		.4byte	.LVUS185
 4523 0560 02       		.uleb128 0x2
 4524 0561 811B0000 		.4byte	0x1b81
 4525 0565 96000000 		.4byte	.LBI802
 4526 0569 02       		.byte	.LVU1145
 4527 056a BA020000 		.4byte	.LLRL186
 4528 056e 01       		.byte	0x1
 4529 056f 4A02     		.2byte	0x24a
 4530 0571 11       		.byte	0x11
 4531 0572 01       		.uleb128 0x1
 4532 0573 A01B0000 		.4byte	0x1ba0
 4533 0577 41020000 		.4byte	.LLST187
 4534 057b 39020000 		.4byte	.LVUS187
 4535 057f 01       		.uleb128 0x1
 4536 0580 931B0000 		.4byte	0x1b93
 4537 0584 65020000 		.4byte	.LLST188
 4538 0588 5B020000 		.4byte	.LVUS188
 4539 058c 13       		.uleb128 0x13
 4540 058d 92000000 		.4byte	.LVL188
 4541 0591 94020000 		.4byte	0x294
 4542 0595 00       		.byte	0
 4543 0596 00       		.byte	0
 4544 0597 03       		.uleb128 0x3
 4545 0598 CE0B0000 		.4byte	0xbce
 4546 059c A2000000 		.4byte	.LBI809
 4547 05a0 00       		.byte	.LVU1150
 4548 05a1 A2000000 		.4byte	.LBB809
 4549 05a5 10000000 		.4byte	.LBE809-.LBB809
 4550 05a9 01       		.byte	0x1
 4551 05aa 4102     		.2byte	0x241
 4552 05ac 07       		.byte	0x7
 4553 05ad 10       		.uleb128 0x10
 4554 05ae ED0B0000 		.4byte	0xbed
 4555 05b2 01       		.uleb128 0x1
 4556 05b3 E00B0000 		.4byte	0xbe0
 4557 05b7 88020000 		.4byte	.LLST189
 4558 05bb 84020000 		.4byte	.LVUS189
 4559 05bf 00       		.byte	0
 4560 05c0 00       		.byte	0
ARM GAS  C:\Users\DEVELO~1\AppData\Local\Temp\ccpJqkfg.s 			page 81


 4561 05c1 03       		.uleb128 0x3
 4562 05c2 C91B0000 		.4byte	0x1bc9
 4563 05c6 12010000 		.4byte	.LBI811
 4564 05ca 03       		.byte	.LVU1215
 4565 05cb 12010000 		.4byte	.LBB811
 4566 05cf 06000000 		.4byte	.LBE811-.LBB811
 4567 05d3 01       		.byte	0x1
 4568 05d4 E502     		.2byte	0x2e5
 4569 05d6 09       		.byte	0x9
 4570 05d7 03       		.uleb128 0x3
 4571 05d8 F61B0000 		.4byte	0x1bf6
 4572 05dc 12010000 		.4byte	.LBI812
 4573 05e0 05       		.byte	.LVU1217
 4574 05e1 12010000 		.4byte	.LBB812
 4575 05e5 06000000 		.4byte	.LBE812-.LBB812
 4576 05e9 02       		.byte	0x2
 4577 05ea 4A02     		.2byte	0x24a
 4578 05ec 03       		.byte	0x3
 4579 05ed 03       		.uleb128 0x3
 4580 05ee 2B1C0000 		.4byte	0x1c2b
 4581 05f2 12010000 		.4byte	.LBI814
 4582 05f6 0C       		.byte	.LVU1224
 4583 05f7 12010000 		.4byte	.LBB814
 4584 05fb 06000000 		.4byte	.LBE814-.LBB814
 4585 05ff 06       		.byte	0x6
 4586 0600 B201     		.2byte	0x1b2
 4587 0602 03       		.byte	0x3
 4588 0603 03       		.uleb128 0x3
 4589 0604 3D1C0000 		.4byte	0x1c3d
 4590 0608 12010000 		.4byte	.LBI815
 4591 060c 0E       		.byte	.LVU1226
 4592 060d 12010000 		.4byte	.LBB815
 4593 0611 06000000 		.4byte	.LBE815-.LBB815
 4594 0615 07       		.byte	0x7
 4595 0616 4103     		.2byte	0x341
 4596 0618 03       		.byte	0x3
 4597 0619 01       		.uleb128 0x1
 4598 061a 4A1C0000 		.4byte	0x1c4a
 4599 061e 9A020000 		.4byte	.LLST190
 4600 0622 98020000 		.4byte	.LVUS190
 4601 0626 00       		.byte	0
 4602 0627 00       		.byte	0
 4603 0628 00       		.byte	0
 4604 0629 00       		.byte	0
 4605 062a 00       		.byte	0
 4606 062b 0A       		.uleb128 0xa
 4607 062c 450A0000 		.4byte	0xa45
 4608 0630 D0000000 		.4byte	.LBI781
 4609 0634 01       		.byte	.LVU1179
 4610 0635 88020000 		.4byte	.LLRL177
 4611 0639 0203     		.2byte	0x302
 4612 063b 07       		.byte	0x7
 4613 063c 6D060000 		.4byte	0x66d
 4614 0640 01       		.uleb128 0x1
 4615 0641 5E0A0000 		.4byte	0xa5e
 4616 0645 AC020000 		.4byte	.LLST178
 4617 0649 A4020000 		.4byte	.LVUS178
ARM GAS  C:\Users\DEVELO~1\AppData\Local\Temp\ccpJqkfg.s 			page 82


 4618 064d 01       		.uleb128 0x1
 4619 064e 510A0000 		.4byte	0xa51
 4620 0652 D0020000 		.4byte	.LLST179
 4621 0656 CE020000 		.4byte	.LVUS179
 4622 065a 09       		.uleb128 0x9
 4623 065b 88020000 		.4byte	.LLRL177
 4624 065f 18       		.uleb128 0x18
 4625 0660 10010000 		.4byte	.LVL202
 4626 0664 05       		.uleb128 0x5
 4627 0665 01       		.uleb128 0x1
 4628 0666 50       		.byte	0x50
 4629 0667 02       		.uleb128 0x2
 4630 0668 7A       		.byte	0x7a
 4631 0669 00       		.sleb128 0
 4632 066a 00       		.byte	0
 4633 066b 00       		.byte	0
 4634 066c 00       		.byte	0
 4635 066d 14       		.uleb128 0x14
 4636 066e C91B0000 		.4byte	0x1bc9
 4637 0672 78000000 		.4byte	.LBI786
 4638 0676 01       		.byte	.LVU1108
 4639 0677 78000000 		.4byte	.LBB786
 4640 067b 04000000 		.4byte	.LBE786-.LBB786
 4641 067f 0603     		.2byte	0x306
 4642 0681 05       		.byte	0x5
 4643 0682 D9060000 		.4byte	0x6d9
 4644 0686 03       		.uleb128 0x3
 4645 0687 F61B0000 		.4byte	0x1bf6
 4646 068b 78000000 		.4byte	.LBI787
 4647 068f 03       		.byte	.LVU1110
 4648 0690 78000000 		.4byte	.LBB787
 4649 0694 04000000 		.4byte	.LBE787-.LBB787
 4650 0698 02       		.byte	0x2
 4651 0699 4A02     		.2byte	0x24a
 4652 069b 03       		.byte	0x3
 4653 069c 03       		.uleb128 0x3
 4654 069d 2B1C0000 		.4byte	0x1c2b
 4655 06a1 78000000 		.4byte	.LBI789
 4656 06a5 0A       		.byte	.LVU1117
 4657 06a6 78000000 		.4byte	.LBB789
 4658 06aa 04000000 		.4byte	.LBE789-.LBB789
 4659 06ae 06       		.byte	0x6
 4660 06af B201     		.2byte	0x1b2
 4661 06b1 03       		.byte	0x3
 4662 06b2 03       		.uleb128 0x3
 4663 06b3 3D1C0000 		.4byte	0x1c3d
 4664 06b7 78000000 		.4byte	.LBI790
 4665 06bb 0C       		.byte	.LVU1119
 4666 06bc 78000000 		.4byte	.LBB790
 4667 06c0 04000000 		.4byte	.LBE790-.LBB790
 4668 06c4 07       		.byte	0x7
 4669 06c5 4103     		.2byte	0x341
 4670 06c7 03       		.byte	0x3
 4671 06c8 01       		.uleb128 0x1
 4672 06c9 4A1C0000 		.4byte	0x1c4a
 4673 06cd DB020000 		.4byte	.LLST180
 4674 06d1 D9020000 		.4byte	.LVUS180
ARM GAS  C:\Users\DEVELO~1\AppData\Local\Temp\ccpJqkfg.s 			page 83


 4675 06d5 00       		.byte	0
 4676 06d6 00       		.byte	0
 4677 06d7 00       		.byte	0
 4678 06d8 00       		.byte	0
 4679 06d9 14       		.uleb128 0x14
 4680 06da D21B0000 		.4byte	0x1bd2
 4681 06de 80000000 		.4byte	.LBI792
 4682 06e2 01       		.byte	.LVU1125
 4683 06e3 80000000 		.4byte	.LBB792
 4684 06e7 06000000 		.4byte	.LBE792-.LBB792
 4685 06eb 0A03     		.2byte	0x30a
 4686 06ed 05       		.byte	0x5
 4687 06ee 45070000 		.4byte	0x745
 4688 06f2 03       		.uleb128 0x3
 4689 06f3 221C0000 		.4byte	0x1c22
 4690 06f7 80000000 		.4byte	.LBI794
 4691 06fb 03       		.byte	.LVU1127
 4692 06fc 80000000 		.4byte	.LBB794
 4693 0700 04000000 		.4byte	.LBE794-.LBB794
 4694 0704 02       		.byte	0x2
 4695 0705 3F02     		.2byte	0x23f
 4696 0707 03       		.byte	0x3
 4697 0708 03       		.uleb128 0x3
 4698 0709 341C0000 		.4byte	0x1c34
 4699 070d 80000000 		.4byte	.LBI795
 4700 0711 05       		.byte	.LVU1129
 4701 0712 80000000 		.4byte	.LBB795
 4702 0716 04000000 		.4byte	.LBE795-.LBB795
 4703 071a 06       		.byte	0x6
 4704 071b 9901     		.2byte	0x199
 4705 071d 03       		.byte	0x3
 4706 071e 03       		.uleb128 0x3
 4707 071f 3D1C0000 		.4byte	0x1c3d
 4708 0723 80000000 		.4byte	.LBI796
 4709 0727 07       		.byte	.LVU1131
 4710 0728 80000000 		.4byte	.LBB796
 4711 072c 04000000 		.4byte	.LBE796-.LBB796
 4712 0730 07       		.byte	0x7
 4713 0731 2E03     		.2byte	0x32e
 4714 0733 03       		.byte	0x3
 4715 0734 01       		.uleb128 0x1
 4716 0735 4A1C0000 		.4byte	0x1c4a
 4717 0739 E7020000 		.4byte	.LLST181
 4718 073d E5020000 		.4byte	.LVUS181
 4719 0741 00       		.byte	0
 4720 0742 00       		.byte	0
 4721 0743 00       		.byte	0
 4722 0744 00       		.byte	0
 4723 0745 2B       		.uleb128 0x2b
 4724 0746 BC000000 		.4byte	.LVL194
 4725 074a 341E0000 		.4byte	0x1e34
 4726 074e 05       		.uleb128 0x5
 4727 074f 01       		.uleb128 0x1
 4728 0750 52       		.byte	0x52
 4729 0751 02       		.uleb128 0x2
 4730 0752 7B       		.byte	0x7b
 4731 0753 00       		.sleb128 0
ARM GAS  C:\Users\DEVELO~1\AppData\Local\Temp\ccpJqkfg.s 			page 84


 4732 0754 00       		.byte	0
 4733 0755 00       		.byte	0
 4734 0756 02       		.uleb128 0x2
 4735 0757 D21B0000 		.4byte	0x1bd2
 4736 075b 00000000 		.4byte	.LBI768
 4737 075f 06       		.byte	.LVU1063
 4738 0760 4B020000 		.4byte	.LLRL170
 4739 0764 01       		.byte	0x1
 4740 0765 D702     		.2byte	0x2d7
 4741 0767 03       		.byte	0x3
 4742 0768 02       		.uleb128 0x2
 4743 0769 221C0000 		.4byte	0x1c22
 4744 076d 00000000 		.4byte	.LBI770
 4745 0771 08       		.byte	.LVU1065
 4746 0772 57020000 		.4byte	.LLRL171
 4747 0776 02       		.byte	0x2
 4748 0777 3F02     		.2byte	0x23f
 4749 0779 03       		.byte	0x3
 4750 077a 02       		.uleb128 0x2
 4751 077b 341C0000 		.4byte	0x1c34
 4752 077f 00000000 		.4byte	.LBI771
 4753 0783 0A       		.byte	.LVU1067
 4754 0784 63020000 		.4byte	.LLRL172
 4755 0788 06       		.byte	0x6
 4756 0789 9901     		.2byte	0x199
 4757 078b 03       		.byte	0x3
 4758 078c 02       		.uleb128 0x2
 4759 078d 3D1C0000 		.4byte	0x1c3d
 4760 0791 00000000 		.4byte	.LBI772
 4761 0795 0C       		.byte	.LVU1069
 4762 0796 6F020000 		.4byte	.LLRL173
 4763 079a 07       		.byte	0x7
 4764 079b 2E03     		.2byte	0x32e
 4765 079d 03       		.byte	0x3
 4766 079e 01       		.uleb128 0x1
 4767 079f 4A1C0000 		.4byte	0x1c4a
 4768 07a3 F4020000 		.4byte	.LLST174
 4769 07a7 F2020000 		.4byte	.LVUS174
 4770 07ab 00       		.byte	0
 4771 07ac 00       		.byte	0
 4772 07ad 00       		.byte	0
 4773 07ae 00       		.byte	0
 4774 07af 00       		.byte	0
 4775 07b0 15       		.uleb128 0x15
 4776 07b1 B1000000 		.4byte	0xb1
 4777 07b5 C0070000 		.4byte	0x7c0
 4778 07b9 16       		.uleb128 0x16
 4779 07ba 3E000000 		.4byte	0x3e
 4780 07be 0F       		.byte	0xf
 4781 07bf 00       		.byte	0
 4782 07c0 0D       		.uleb128 0xd
 4783 07c1 B0070000 		.4byte	0x7b0
 4784 07c5 19       		.uleb128 0x19
 4785 07c6 D3020000 		.4byte	.LASF54
 4786 07ca 9F02     		.2byte	0x29f
 4787 07cc 07       		.byte	0x7
 4788 07cd DF000000 		.4byte	0xdf
ARM GAS  C:\Users\DEVELO~1\AppData\Local\Temp\ccpJqkfg.s 			page 85


 4789 07d1 00000000 		.4byte	.LFB449
 4790 07d5 8A000000 		.4byte	.LFE449-.LFB449
 4791 07d9 01       		.uleb128 0x1
 4792 07da 9C       		.byte	0x9c
 4793 07db 450A0000 		.4byte	0xa45
 4794 07df 04       		.uleb128 0x4
 4795 07e0 CB030000 		.4byte	.LASF49
 4796 07e4 9F02     		.2byte	0x29f
 4797 07e6 2D       		.byte	0x2d
 4798 07e7 21040000 		.4byte	0x421
 4799 07eb 0F030000 		.4byte	.LLST146
 4800 07ef FF020000 		.4byte	.LVUS146
 4801 07f3 1A       		.uleb128 0x1a
 4802 07f4 6200     		.ascii	"b\000"
 4803 07f6 9F02     		.2byte	0x29f
 4804 07f8 3B       		.byte	0x3b
 4805 07f9 B6000000 		.4byte	0xb6
 4806 07fd 48030000 		.4byte	.LLST147
 4807 0801 40030000 		.4byte	.LVUS147
 4808 0805 04       		.uleb128 0x4
 4809 0806 D1050000 		.4byte	.LASF53
 4810 080a A002     		.2byte	0x2a0
 4811 080c 23       		.byte	0x23
 4812 080d EB000000 		.4byte	0xeb
 4813 0811 7B030000 		.4byte	.LLST148
 4814 0815 69030000 		.4byte	.LVUS148
 4815 0819 1B       		.uleb128 0x1b
 4816 081a 6D736700 		.ascii	"msg\000"
 4817 081e A102     		.2byte	0x2a1
 4818 0820 09       		.byte	0x9
 4819 0821 DF000000 		.4byte	0xdf
 4820 0825 B8030000 		.4byte	.LLST149
 4821 0829 B4030000 		.4byte	.LVUS149
 4822 082d 0A       		.uleb128 0xa
 4823 082e D21B0000 		.4byte	0x1bd2
 4824 0832 08000000 		.4byte	.LBI687
 4825 0836 02       		.byte	.LVU934
 4826 0837 06020000 		.4byte	.LLRL150
 4827 083b A302     		.2byte	0x2a3
 4828 083d 03       		.byte	0x3
 4829 083e 89080000 		.4byte	0x889
 4830 0842 02       		.uleb128 0x2
 4831 0843 221C0000 		.4byte	0x1c22
 4832 0847 08000000 		.4byte	.LBI688
 4833 084b 04       		.byte	.LVU936
 4834 084c 06020000 		.4byte	.LLRL150
 4835 0850 02       		.byte	0x2
 4836 0851 3F02     		.2byte	0x23f
 4837 0853 03       		.byte	0x3
 4838 0854 02       		.uleb128 0x2
 4839 0855 341C0000 		.4byte	0x1c34
 4840 0859 08000000 		.4byte	.LBI689
 4841 085d 06       		.byte	.LVU938
 4842 085e 06020000 		.4byte	.LLRL150
 4843 0862 06       		.byte	0x6
 4844 0863 9901     		.2byte	0x199
 4845 0865 03       		.byte	0x3
ARM GAS  C:\Users\DEVELO~1\AppData\Local\Temp\ccpJqkfg.s 			page 86


 4846 0866 02       		.uleb128 0x2
 4847 0867 3D1C0000 		.4byte	0x1c3d
 4848 086b 08000000 		.4byte	.LBI690
 4849 086f 08       		.byte	.LVU940
 4850 0870 06020000 		.4byte	.LLRL150
 4851 0874 07       		.byte	0x7
 4852 0875 2E03     		.2byte	0x32e
 4853 0877 03       		.byte	0x3
 4854 0878 01       		.uleb128 0x1
 4855 0879 4A1C0000 		.4byte	0x1c4a
 4856 087d CB030000 		.4byte	.LLST151
 4857 0881 C9030000 		.4byte	.LVUS151
 4858 0885 00       		.byte	0
 4859 0886 00       		.byte	0
 4860 0887 00       		.byte	0
 4861 0888 00       		.byte	0
 4862 0889 14       		.uleb128 0x14
 4863 088a C91B0000 		.4byte	0x1bc9
 4864 088e 1E000000 		.4byte	.LBI697
 4865 0892 01       		.byte	.LVU958
 4866 0893 1E000000 		.4byte	.LBB697
 4867 0897 06000000 		.4byte	.LBE697-.LBB697
 4868 089b B802     		.2byte	0x2b8
 4869 089d 03       		.byte	0x3
 4870 089e F5080000 		.4byte	0x8f5
 4871 08a2 03       		.uleb128 0x3
 4872 08a3 F61B0000 		.4byte	0x1bf6
 4873 08a7 1E000000 		.4byte	.LBI698
 4874 08ab 03       		.byte	.LVU960
 4875 08ac 1E000000 		.4byte	.LBB698
 4876 08b0 06000000 		.4byte	.LBE698-.LBB698
 4877 08b4 02       		.byte	0x2
 4878 08b5 4A02     		.2byte	0x24a
 4879 08b7 03       		.byte	0x3
 4880 08b8 03       		.uleb128 0x3
 4881 08b9 2B1C0000 		.4byte	0x1c2b
 4882 08bd 1E000000 		.4byte	.LBI700
 4883 08c1 0A       		.byte	.LVU967
 4884 08c2 1E000000 		.4byte	.LBB700
 4885 08c6 06000000 		.4byte	.LBE700-.LBB700
 4886 08ca 06       		.byte	0x6
 4887 08cb B201     		.2byte	0x1b2
 4888 08cd 03       		.byte	0x3
 4889 08ce 03       		.uleb128 0x3
 4890 08cf 3D1C0000 		.4byte	0x1c3d
 4891 08d3 1E000000 		.4byte	.LBI701
 4892 08d7 0C       		.byte	.LVU969
 4893 08d8 1E000000 		.4byte	.LBB701
 4894 08dc 06000000 		.4byte	.LBE701-.LBB701
 4895 08e0 07       		.byte	0x7
 4896 08e1 4103     		.2byte	0x341
 4897 08e3 03       		.byte	0x3
 4898 08e4 01       		.uleb128 0x1
 4899 08e5 4A1C0000 		.4byte	0x1c4a
 4900 08e9 D8030000 		.4byte	.LLST152
 4901 08ed D6030000 		.4byte	.LVUS152
 4902 08f1 00       		.byte	0
ARM GAS  C:\Users\DEVELO~1\AppData\Local\Temp\ccpJqkfg.s 			page 87


 4903 08f2 00       		.byte	0
 4904 08f3 00       		.byte	0
 4905 08f4 00       		.byte	0
 4906 08f5 0A       		.uleb128 0xa
 4907 08f6 450A0000 		.4byte	0xa45
 4908 08fa 26000000 		.4byte	.LBI703
 4909 08fe 01       		.byte	.LVU975
 4910 08ff 12020000 		.4byte	.LLRL153
 4911 0903 B502     		.2byte	0x2b5
 4912 0905 05       		.byte	0x5
 4913 0906 37090000 		.4byte	0x937
 4914 090a 01       		.uleb128 0x1
 4915 090b 5E0A0000 		.4byte	0xa5e
 4916 090f EA030000 		.4byte	.LLST154
 4917 0913 E2030000 		.4byte	.LVUS154
 4918 0917 01       		.uleb128 0x1
 4919 0918 510A0000 		.4byte	0xa51
 4920 091c 10040000 		.4byte	.LLST155
 4921 0920 0C040000 		.4byte	.LVUS155
 4922 0924 09       		.uleb128 0x9
 4923 0925 12020000 		.4byte	.LLRL153
 4924 0929 18       		.uleb128 0x18
 4925 092a 4E000000 		.4byte	.LVL160
 4926 092e 05       		.uleb128 0x5
 4927 092f 01       		.uleb128 0x1
 4928 0930 50       		.byte	0x50
 4929 0931 02       		.uleb128 0x2
 4930 0932 74       		.byte	0x74
 4931 0933 00       		.sleb128 0
 4932 0934 00       		.byte	0
 4933 0935 00       		.byte	0
 4934 0936 00       		.byte	0
 4935 0937 3E       		.uleb128 0x3e
 4936 0938 CE0B0000 		.4byte	0xbce
 4937 093c 21020000 		.4byte	.LLRL156
 4938 0940 01       		.byte	0x1
 4939 0941 A702     		.2byte	0x2a7
 4940 0943 0B       		.byte	0xb
 4941 0944 DB090000 		.4byte	0x9db
 4942 0948 10       		.uleb128 0x10
 4943 0949 ED0B0000 		.4byte	0xbed
 4944 094d 10       		.uleb128 0x10
 4945 094e E00B0000 		.4byte	0xbe0
 4946 0952 09       		.uleb128 0x9
 4947 0953 21020000 		.4byte	.LLRL156
 4948 0957 11       		.uleb128 0x11
 4949 0958 030C0000 		.4byte	0xc03
 4950 095c 2D020000 		.4byte	.LLRL157
 4951 0960 A8090000 		.4byte	0x9a8
 4952 0964 12       		.uleb128 0x12
 4953 0965 040C0000 		.4byte	0xc04
 4954 0969 22040000 		.4byte	.LLST158
 4955 096d 20040000 		.4byte	.LVUS158
 4956 0971 02       		.uleb128 0x2
 4957 0972 811B0000 		.4byte	0x1b81
 4958 0976 66000000 		.4byte	.LBI712
 4959 097a 02       		.byte	.LVU1018
ARM GAS  C:\Users\DEVELO~1\AppData\Local\Temp\ccpJqkfg.s 			page 88


 4960 097b 3C020000 		.4byte	.LLRL159
 4961 097f 01       		.byte	0x1
 4962 0980 4A02     		.2byte	0x24a
 4963 0982 11       		.byte	0x11
 4964 0983 01       		.uleb128 0x1
 4965 0984 A01B0000 		.4byte	0x1ba0
 4966 0988 37040000 		.4byte	.LLST160
 4967 098c 2B040000 		.4byte	.LVUS160
 4968 0990 01       		.uleb128 0x1
 4969 0991 931B0000 		.4byte	0x1b93
 4970 0995 63040000 		.4byte	.LLST161
 4971 0999 5B040000 		.4byte	.LVUS161
 4972 099d 13       		.uleb128 0x13
 4973 099e 62000000 		.4byte	.LVL163
 4974 09a2 94020000 		.4byte	0x294
 4975 09a6 00       		.byte	0
 4976 09a7 00       		.byte	0
 4977 09a8 03       		.uleb128 0x3
 4978 09a9 CE0B0000 		.4byte	0xbce
 4979 09ad 70000000 		.4byte	.LBI719
 4980 09b1 00       		.byte	.LVU1023
 4981 09b2 70000000 		.4byte	.LBB719
 4982 09b6 0C000000 		.4byte	.LBE719-.LBB719
 4983 09ba 01       		.byte	0x1
 4984 09bb 4102     		.2byte	0x241
 4985 09bd 07       		.byte	0x7
 4986 09be 01       		.uleb128 0x1
 4987 09bf ED0B0000 		.4byte	0xbed
 4988 09c3 81040000 		.4byte	.LLST162
 4989 09c7 7D040000 		.4byte	.LVUS162
 4990 09cb 01       		.uleb128 0x1
 4991 09cc E00B0000 		.4byte	0xbe0
 4992 09d0 93040000 		.4byte	.LLST163
 4993 09d4 91040000 		.4byte	.LVUS163
 4994 09d8 00       		.byte	0
 4995 09d9 00       		.byte	0
 4996 09da 00       		.byte	0
 4997 09db 03       		.uleb128 0x3
 4998 09dc C91B0000 		.4byte	0x1bc9
 4999 09e0 82000000 		.4byte	.LBI724
 5000 09e4 03       		.byte	.LVU1040
 5001 09e5 82000000 		.4byte	.LBB724
 5002 09e9 06000000 		.4byte	.LBE724-.LBB724
 5003 09ed 01       		.byte	0x1
 5004 09ee A902     		.2byte	0x2a9
 5005 09f0 07       		.byte	0x7
 5006 09f1 03       		.uleb128 0x3
 5007 09f2 F61B0000 		.4byte	0x1bf6
 5008 09f6 82000000 		.4byte	.LBI725
 5009 09fa 05       		.byte	.LVU1042
 5010 09fb 82000000 		.4byte	.LBB725
 5011 09ff 06000000 		.4byte	.LBE725-.LBB725
 5012 0a03 02       		.byte	0x2
 5013 0a04 4A02     		.2byte	0x24a
 5014 0a06 03       		.byte	0x3
 5015 0a07 03       		.uleb128 0x3
 5016 0a08 2B1C0000 		.4byte	0x1c2b
ARM GAS  C:\Users\DEVELO~1\AppData\Local\Temp\ccpJqkfg.s 			page 89


 5017 0a0c 82000000 		.4byte	.LBI727
 5018 0a10 0C       		.byte	.LVU1049
 5019 0a11 82000000 		.4byte	.LBB727
 5020 0a15 06000000 		.4byte	.LBE727-.LBB727
 5021 0a19 06       		.byte	0x6
 5022 0a1a B201     		.2byte	0x1b2
 5023 0a1c 03       		.byte	0x3
 5024 0a1d 03       		.uleb128 0x3
 5025 0a1e 3D1C0000 		.4byte	0x1c3d
 5026 0a22 82000000 		.4byte	.LBI728
 5027 0a26 0E       		.byte	.LVU1051
 5028 0a27 82000000 		.4byte	.LBB728
 5029 0a2b 06000000 		.4byte	.LBE728-.LBB728
 5030 0a2f 07       		.byte	0x7
 5031 0a30 4103     		.2byte	0x341
 5032 0a32 03       		.byte	0x3
 5033 0a33 01       		.uleb128 0x1
 5034 0a34 4A1C0000 		.4byte	0x1c4a
 5035 0a38 9E040000 		.4byte	.LLST164
 5036 0a3c 9C040000 		.4byte	.LVUS164
 5037 0a40 00       		.byte	0
 5038 0a41 00       		.byte	0
 5039 0a42 00       		.byte	0
 5040 0a43 00       		.byte	0
 5041 0a44 00       		.byte	0
 5042 0a45 2C       		.uleb128 0x2c
 5043 0a46 4D030000 		.4byte	.LASF55
 5044 0a4a 7202     		.2byte	0x272
 5045 0a4c 06       		.byte	0x6
 5046 0a4d 750A0000 		.4byte	0xa75
 5047 0a51 1C       		.uleb128 0x1c
 5048 0a52 CB030000 		.4byte	.LASF49
 5049 0a56 01       		.byte	0x1
 5050 0a57 7202     		.2byte	0x272
 5051 0a59 31       		.byte	0x31
 5052 0a5a 21040000 		.4byte	0x421
 5053 0a5e 1C       		.uleb128 0x1c
 5054 0a5f F3040000 		.4byte	.LASF50
 5055 0a63 01       		.byte	0x1
 5056 0a64 7202     		.2byte	0x272
 5057 0a66 3E       		.byte	0x3e
 5058 0a67 2D000000 		.4byte	0x2d
 5059 0a6b 0B       		.uleb128 0xb
 5060 0a6c A8020000 		.4byte	.LASF56
 5061 0a70 850A0000 		.4byte	0xa85
 5062 0a74 00       		.byte	0
 5063 0a75 15       		.uleb128 0x15
 5064 0a76 B1000000 		.4byte	0xb1
 5065 0a7a 850A0000 		.4byte	0xa85
 5066 0a7e 16       		.uleb128 0x16
 5067 0a7f 3E000000 		.4byte	0x3e
 5068 0a83 12       		.byte	0x12
 5069 0a84 00       		.byte	0
 5070 0a85 0D       		.uleb128 0xd
 5071 0a86 750A0000 		.4byte	0xa75
 5072 0a8a 1F       		.uleb128 0x1f
 5073 0a8b DE050000 		.4byte	.LASF58
ARM GAS  C:\Users\DEVELO~1\AppData\Local\Temp\ccpJqkfg.s 			page 90


 5074 0a8f 6202     		.2byte	0x262
 5075 0a91 00000000 		.4byte	.LFB447
 5076 0a95 34000000 		.4byte	.LFE447-.LFB447
 5077 0a99 01       		.uleb128 0x1
 5078 0a9a 9C       		.byte	0x9c
 5079 0a9b CE0B0000 		.4byte	0xbce
 5080 0a9f 04       		.uleb128 0x4
 5081 0aa0 CB030000 		.4byte	.LASF49
 5082 0aa4 6202     		.2byte	0x262
 5083 0aa6 30       		.byte	0x30
 5084 0aa7 21040000 		.4byte	0x421
 5085 0aab AC040000 		.4byte	.LLST137
 5086 0aaf A8040000 		.4byte	.LVUS137
 5087 0ab3 04       		.uleb128 0x4
 5088 0ab4 F3040000 		.4byte	.LASF50
 5089 0ab8 6202     		.2byte	0x262
 5090 0aba 3D       		.byte	0x3d
 5091 0abb 2D000000 		.4byte	0x2d
 5092 0abf C7040000 		.4byte	.LLST138
 5093 0ac3 BF040000 		.4byte	.LVUS138
 5094 0ac7 0A       		.uleb128 0xa
 5095 0ac8 D21B0000 		.4byte	0x1bd2
 5096 0acc 00000000 		.4byte	.LBI640
 5097 0ad0 02       		.byte	.LVU829
 5098 0ad1 FA010000 		.4byte	.LLRL139
 5099 0ad5 6402     		.2byte	0x264
 5100 0ad7 03       		.byte	0x3
 5101 0ad8 230B0000 		.4byte	0xb23
 5102 0adc 02       		.uleb128 0x2
 5103 0add 221C0000 		.4byte	0x1c22
 5104 0ae1 00000000 		.4byte	.LBI641
 5105 0ae5 04       		.byte	.LVU831
 5106 0ae6 FA010000 		.4byte	.LLRL139
 5107 0aea 02       		.byte	0x2
 5108 0aeb 3F02     		.2byte	0x23f
 5109 0aed 03       		.byte	0x3
 5110 0aee 02       		.uleb128 0x2
 5111 0aef 341C0000 		.4byte	0x1c34
 5112 0af3 00000000 		.4byte	.LBI642
 5113 0af7 06       		.byte	.LVU833
 5114 0af8 FA010000 		.4byte	.LLRL139
 5115 0afc 06       		.byte	0x6
 5116 0afd 9901     		.2byte	0x199
 5117 0aff 03       		.byte	0x3
 5118 0b00 02       		.uleb128 0x2
 5119 0b01 3D1C0000 		.4byte	0x1c3d
 5120 0b05 00000000 		.4byte	.LBI643
 5121 0b09 08       		.byte	.LVU835
 5122 0b0a FA010000 		.4byte	.LLRL139
 5123 0b0e 07       		.byte	0x7
 5124 0b0f 2E03     		.2byte	0x32e
 5125 0b11 03       		.byte	0x3
 5126 0b12 01       		.uleb128 0x1
 5127 0b13 4A1C0000 		.4byte	0x1c4a
 5128 0b17 E9040000 		.4byte	.LLST140
 5129 0b1b E7040000 		.4byte	.LVUS140
 5130 0b1f 00       		.byte	0
ARM GAS  C:\Users\DEVELO~1\AppData\Local\Temp\ccpJqkfg.s 			page 91


 5131 0b20 00       		.byte	0
 5132 0b21 00       		.byte	0
 5133 0b22 00       		.byte	0
 5134 0b23 14       		.uleb128 0x14
 5135 0b24 450A0000 		.4byte	0xa45
 5136 0b28 08000000 		.4byte	.LBI650
 5137 0b2c 04       		.byte	.LVU843
 5138 0b2d 08000000 		.4byte	.LBB650
 5139 0b31 24000000 		.4byte	.LBE650-.LBB650
 5140 0b35 6502     		.2byte	0x265
 5141 0b37 03       		.byte	0x3
 5142 0b38 640B0000 		.4byte	0xb64
 5143 0b3c 01       		.uleb128 0x1
 5144 0b3d 5E0A0000 		.4byte	0xa5e
 5145 0b41 FC040000 		.4byte	.LLST141
 5146 0b45 F4040000 		.4byte	.LVUS141
 5147 0b49 01       		.uleb128 0x1
 5148 0b4a 510A0000 		.4byte	0xa51
 5149 0b4e 20050000 		.4byte	.LLST142
 5150 0b52 1C050000 		.4byte	.LVUS142
 5151 0b56 18       		.uleb128 0x18
 5152 0b57 2C000000 		.4byte	.LVL141
 5153 0b5b 05       		.uleb128 0x5
 5154 0b5c 01       		.uleb128 0x1
 5155 0b5d 50       		.byte	0x50
 5156 0b5e 03       		.uleb128 0x3
 5157 0b5f A3       		.byte	0xa3
 5158 0b60 01       		.uleb128 0x1
 5159 0b61 50       		.byte	0x50
 5160 0b62 00       		.byte	0
 5161 0b63 00       		.byte	0
 5162 0b64 03       		.uleb128 0x3
 5163 0b65 C91B0000 		.4byte	0x1bc9
 5164 0b69 2C000000 		.4byte	.LBI652
 5165 0b6d 02       		.byte	.LVU877
 5166 0b6e 2C000000 		.4byte	.LBB652
 5167 0b72 06000000 		.4byte	.LBE652-.LBB652
 5168 0b76 01       		.byte	0x1
 5169 0b77 6602     		.2byte	0x266
 5170 0b79 03       		.byte	0x3
 5171 0b7a 03       		.uleb128 0x3
 5172 0b7b F61B0000 		.4byte	0x1bf6
 5173 0b7f 2C000000 		.4byte	.LBI653
 5174 0b83 04       		.byte	.LVU879
 5175 0b84 2C000000 		.4byte	.LBB653
 5176 0b88 06000000 		.4byte	.LBE653-.LBB653
 5177 0b8c 02       		.byte	0x2
 5178 0b8d 4A02     		.2byte	0x24a
 5179 0b8f 03       		.byte	0x3
 5180 0b90 03       		.uleb128 0x3
 5181 0b91 2B1C0000 		.4byte	0x1c2b
 5182 0b95 2C000000 		.4byte	.LBI655
 5183 0b99 0B       		.byte	.LVU886
 5184 0b9a 2C000000 		.4byte	.LBB655
 5185 0b9e 06000000 		.4byte	.LBE655-.LBB655
 5186 0ba2 06       		.byte	0x6
 5187 0ba3 B201     		.2byte	0x1b2
ARM GAS  C:\Users\DEVELO~1\AppData\Local\Temp\ccpJqkfg.s 			page 92


 5188 0ba5 03       		.byte	0x3
 5189 0ba6 03       		.uleb128 0x3
 5190 0ba7 3D1C0000 		.4byte	0x1c3d
 5191 0bab 2C000000 		.4byte	.LBI656
 5192 0baf 0D       		.byte	.LVU888
 5193 0bb0 2C000000 		.4byte	.LBB656
 5194 0bb4 06000000 		.4byte	.LBE656-.LBB656
 5195 0bb8 07       		.byte	0x7
 5196 0bb9 4103     		.2byte	0x341
 5197 0bbb 03       		.byte	0x3
 5198 0bbc 01       		.uleb128 0x1
 5199 0bbd 4A1C0000 		.4byte	0x1c4a
 5200 0bc1 35050000 		.4byte	.LLST143
 5201 0bc5 33050000 		.4byte	.LVUS143
 5202 0bc9 00       		.byte	0
 5203 0bca 00       		.byte	0
 5204 0bcb 00       		.byte	0
 5205 0bcc 00       		.byte	0
 5206 0bcd 00       		.byte	0
 5207 0bce 3F       		.uleb128 0x3f
 5208 0bcf 2B050000 		.4byte	.LASF59
 5209 0bd3 01       		.byte	0x1
 5210 0bd4 4102     		.2byte	0x241
 5211 0bd6 07       		.byte	0x7
 5212 0bd7 DF000000 		.4byte	0xdf
 5213 0bdb 01       		.byte	0x1
 5214 0bdc 130C0000 		.4byte	0xc13
 5215 0be0 1C       		.uleb128 0x1c
 5216 0be1 CB030000 		.4byte	.LASF49
 5217 0be5 01       		.byte	0x1
 5218 0be6 4102     		.2byte	0x241
 5219 0be8 39       		.byte	0x39
 5220 0be9 21040000 		.4byte	0x421
 5221 0bed 1C       		.uleb128 0x1c
 5222 0bee D1050000 		.4byte	.LASF53
 5223 0bf2 01       		.byte	0x1
 5224 0bf3 4202     		.2byte	0x242
 5225 0bf5 2F       		.byte	0x2f
 5226 0bf6 EB000000 		.4byte	0xeb
 5227 0bfa 0B       		.uleb128 0xb
 5228 0bfb A8020000 		.4byte	.LASF56
 5229 0bff 230C0000 		.4byte	0xc23
 5230 0c03 2D       		.uleb128 0x2d
 5231 0c04 40       		.uleb128 0x40
 5232 0c05 6D736700 		.ascii	"msg\000"
 5233 0c09 01       		.byte	0x1
 5234 0c0a 4A02     		.2byte	0x24a
 5235 0c0c 0B       		.byte	0xb
 5236 0c0d DF000000 		.4byte	0xdf
 5237 0c11 00       		.byte	0
 5238 0c12 00       		.byte	0
 5239 0c13 15       		.uleb128 0x15
 5240 0c14 B1000000 		.4byte	0xb1
 5241 0c18 230C0000 		.4byte	0xc23
 5242 0c1c 16       		.uleb128 0x16
 5243 0c1d 3E000000 		.4byte	0x3e
 5244 0c21 19       		.byte	0x19
ARM GAS  C:\Users\DEVELO~1\AppData\Local\Temp\ccpJqkfg.s 			page 93


 5245 0c22 00       		.byte	0
 5246 0c23 0D       		.uleb128 0xd
 5247 0c24 130C0000 		.4byte	0xc13
 5248 0c28 19       		.uleb128 0x19
 5249 0c29 42020000 		.4byte	.LASF60
 5250 0c2d 2102     		.2byte	0x221
 5251 0c2f 07       		.byte	0x7
 5252 0c30 DF000000 		.4byte	0xdf
 5253 0c34 00000000 		.4byte	.LFB445
 5254 0c38 46000000 		.4byte	.LFE445-.LFB445
 5255 0c3c 01       		.uleb128 0x1
 5256 0c3d 9C       		.byte	0x9c
 5257 0c3e F20D0000 		.4byte	0xdf2
 5258 0c42 04       		.uleb128 0x4
 5259 0c43 CB030000 		.4byte	.LASF49
 5260 0c47 2102     		.2byte	0x221
 5261 0c49 38       		.byte	0x38
 5262 0c4a 21040000 		.4byte	0x421
 5263 0c4e 4B050000 		.4byte	.LLST111
 5264 0c52 3F050000 		.4byte	.LVUS111
 5265 0c56 04       		.uleb128 0x4
 5266 0c57 D1050000 		.4byte	.LASF53
 5267 0c5b 2202     		.2byte	0x222
 5268 0c5d 2E       		.byte	0x2e
 5269 0c5e EB000000 		.4byte	0xeb
 5270 0c62 79050000 		.4byte	.LLST112
 5271 0c66 6F050000 		.4byte	.LVUS112
 5272 0c6a 1B       		.uleb128 0x1b
 5273 0c6b 6D736700 		.ascii	"msg\000"
 5274 0c6f 2302     		.2byte	0x223
 5275 0c71 09       		.byte	0x9
 5276 0c72 DF000000 		.4byte	0xdf
 5277 0c76 9C050000 		.4byte	.LLST113
 5278 0c7a 98050000 		.4byte	.LVUS113
 5279 0c7e 0A       		.uleb128 0xa
 5280 0c7f D21B0000 		.4byte	0x1bd2
 5281 0c83 06000000 		.4byte	.LBI563
 5282 0c87 02       		.byte	.LVU708
 5283 0c88 97010000 		.4byte	.LLRL114
 5284 0c8c 2502     		.2byte	0x225
 5285 0c8e 03       		.byte	0x3
 5286 0c8f DA0C0000 		.4byte	0xcda
 5287 0c93 02       		.uleb128 0x2
 5288 0c94 221C0000 		.4byte	0x1c22
 5289 0c98 06000000 		.4byte	.LBI564
 5290 0c9c 04       		.byte	.LVU710
 5291 0c9d 97010000 		.4byte	.LLRL114
 5292 0ca1 02       		.byte	0x2
 5293 0ca2 3F02     		.2byte	0x23f
 5294 0ca4 03       		.byte	0x3
 5295 0ca5 02       		.uleb128 0x2
 5296 0ca6 341C0000 		.4byte	0x1c34
 5297 0caa 06000000 		.4byte	.LBI565
 5298 0cae 06       		.byte	.LVU712
 5299 0caf 97010000 		.4byte	.LLRL114
 5300 0cb3 06       		.byte	0x6
 5301 0cb4 9901     		.2byte	0x199
ARM GAS  C:\Users\DEVELO~1\AppData\Local\Temp\ccpJqkfg.s 			page 94


 5302 0cb6 03       		.byte	0x3
 5303 0cb7 02       		.uleb128 0x2
 5304 0cb8 3D1C0000 		.4byte	0x1c3d
 5305 0cbc 06000000 		.4byte	.LBI566
 5306 0cc0 08       		.byte	.LVU714
 5307 0cc1 97010000 		.4byte	.LLRL114
 5308 0cc5 07       		.byte	0x7
 5309 0cc6 2E03     		.2byte	0x32e
 5310 0cc8 03       		.byte	0x3
 5311 0cc9 01       		.uleb128 0x1
 5312 0cca 4A1C0000 		.4byte	0x1c4a
 5313 0cce AE050000 		.4byte	.LLST115
 5314 0cd2 AC050000 		.4byte	.LVUS115
 5315 0cd6 00       		.byte	0
 5316 0cd7 00       		.byte	0
 5317 0cd8 00       		.byte	0
 5318 0cd9 00       		.byte	0
 5319 0cda 0A       		.uleb128 0xa
 5320 0cdb CE0B0000 		.4byte	0xbce
 5321 0cdf 0C000000 		.4byte	.LBI578
 5322 0ce3 04       		.byte	.LVU722
 5323 0ce4 A6010000 		.4byte	.LLRL116
 5324 0ce8 2602     		.2byte	0x226
 5325 0cea 09       		.byte	0x9
 5326 0ceb 920D0000 		.4byte	0xd92
 5327 0cef 01       		.uleb128 0x1
 5328 0cf0 ED0B0000 		.4byte	0xbed
 5329 0cf4 C3050000 		.4byte	.LLST117
 5330 0cf8 B9050000 		.4byte	.LVUS117
 5331 0cfc 01       		.uleb128 0x1
 5332 0cfd E00B0000 		.4byte	0xbe0
 5333 0d01 EC050000 		.4byte	.LLST118
 5334 0d05 E2050000 		.4byte	.LVUS118
 5335 0d09 09       		.uleb128 0x9
 5336 0d0a A6010000 		.4byte	.LLRL116
 5337 0d0e 11       		.uleb128 0x11
 5338 0d0f 030C0000 		.4byte	0xc03
 5339 0d13 B2010000 		.4byte	.LLRL119
 5340 0d17 5F0D0000 		.4byte	0xd5f
 5341 0d1b 12       		.uleb128 0x12
 5342 0d1c 040C0000 		.4byte	0xc04
 5343 0d20 0D060000 		.4byte	.LLST120
 5344 0d24 0B060000 		.4byte	.LVUS120
 5345 0d28 02       		.uleb128 0x2
 5346 0d29 811B0000 		.4byte	0x1b81
 5347 0d2d 1A000000 		.4byte	.LBI581
 5348 0d31 02       		.byte	.LVU734
 5349 0d32 C1010000 		.4byte	.LLRL121
 5350 0d36 01       		.byte	0x1
 5351 0d37 4A02     		.2byte	0x24a
 5352 0d39 11       		.byte	0x11
 5353 0d3a 01       		.uleb128 0x1
 5354 0d3b A01B0000 		.4byte	0x1ba0
 5355 0d3f 22060000 		.4byte	.LLST122
 5356 0d43 16060000 		.4byte	.LVUS122
 5357 0d47 01       		.uleb128 0x1
 5358 0d48 931B0000 		.4byte	0x1b93
ARM GAS  C:\Users\DEVELO~1\AppData\Local\Temp\ccpJqkfg.s 			page 95


 5359 0d4c 54060000 		.4byte	.LLST123
 5360 0d50 46060000 		.4byte	.LVUS123
 5361 0d54 13       		.uleb128 0x13
 5362 0d55 16000000 		.4byte	.LVL116
 5363 0d59 94020000 		.4byte	0x294
 5364 0d5d 00       		.byte	0
 5365 0d5e 00       		.byte	0
 5366 0d5f 03       		.uleb128 0x3
 5367 0d60 CE0B0000 		.4byte	0xbce
 5368 0d64 24000000 		.4byte	.LBI588
 5369 0d68 00       		.byte	.LVU739
 5370 0d69 24000000 		.4byte	.LBB588
 5371 0d6d 0E000000 		.4byte	.LBE588-.LBB588
 5372 0d71 01       		.byte	0x1
 5373 0d72 4102     		.2byte	0x241
 5374 0d74 07       		.byte	0x7
 5375 0d75 01       		.uleb128 0x1
 5376 0d76 ED0B0000 		.4byte	0xbed
 5377 0d7a 81060000 		.4byte	.LLST124
 5378 0d7e 7D060000 		.4byte	.LVUS124
 5379 0d82 01       		.uleb128 0x1
 5380 0d83 E00B0000 		.4byte	0xbe0
 5381 0d87 95060000 		.4byte	.LLST125
 5382 0d8b 91060000 		.4byte	.LVUS125
 5383 0d8f 00       		.byte	0
 5384 0d90 00       		.byte	0
 5385 0d91 00       		.byte	0
 5386 0d92 02       		.uleb128 0x2
 5387 0d93 C91B0000 		.4byte	0x1bc9
 5388 0d97 32000000 		.4byte	.LBI592
 5389 0d9b 03       		.byte	.LVU753
 5390 0d9c D0010000 		.4byte	.LLRL126
 5391 0da0 01       		.byte	0x1
 5392 0da1 2702     		.2byte	0x227
 5393 0da3 03       		.byte	0x3
 5394 0da4 02       		.uleb128 0x2
 5395 0da5 F61B0000 		.4byte	0x1bf6
 5396 0da9 32000000 		.4byte	.LBI593
 5397 0dad 05       		.byte	.LVU755
 5398 0dae D0010000 		.4byte	.LLRL126
 5399 0db2 02       		.byte	0x2
 5400 0db3 4A02     		.2byte	0x24a
 5401 0db5 03       		.byte	0x3
 5402 0db6 09       		.uleb128 0x9
 5403 0db7 D0010000 		.4byte	.LLRL126
 5404 0dbb 02       		.uleb128 0x2
 5405 0dbc 2B1C0000 		.4byte	0x1c2b
 5406 0dc0 32000000 		.4byte	.LBI595
 5407 0dc4 0C       		.byte	.LVU762
 5408 0dc5 D0010000 		.4byte	.LLRL126
 5409 0dc9 06       		.byte	0x6
 5410 0dca B201     		.2byte	0x1b2
 5411 0dcc 03       		.byte	0x3
 5412 0dcd 02       		.uleb128 0x2
 5413 0dce 3D1C0000 		.4byte	0x1c3d
 5414 0dd2 32000000 		.4byte	.LBI596
 5415 0dd6 0E       		.byte	.LVU764
ARM GAS  C:\Users\DEVELO~1\AppData\Local\Temp\ccpJqkfg.s 			page 96


 5416 0dd7 D0010000 		.4byte	.LLRL126
 5417 0ddb 07       		.byte	0x7
 5418 0ddc 4103     		.2byte	0x341
 5419 0dde 03       		.byte	0x3
 5420 0ddf 01       		.uleb128 0x1
 5421 0de0 4A1C0000 		.4byte	0x1c4a
 5422 0de4 A9060000 		.4byte	.LLST127
 5423 0de8 A5060000 		.4byte	.LVUS127
 5424 0dec 00       		.byte	0
 5425 0ded 00       		.byte	0
 5426 0dee 00       		.byte	0
 5427 0def 00       		.byte	0
 5428 0df0 00       		.byte	0
 5429 0df1 00       		.byte	0
 5430 0df2 1F       		.uleb128 0x1f
 5431 0df3 51050000 		.4byte	.LASF61
 5432 0df7 FC01     		.2byte	0x1fc
 5433 0df9 00000000 		.4byte	.LFB444
 5434 0dfd 20000000 		.4byte	.LFE444-.LFB444
 5435 0e01 01       		.uleb128 0x1
 5436 0e02 9C       		.byte	0x9c
 5437 0e03 640E0000 		.4byte	0xe64
 5438 0e07 04       		.uleb128 0x4
 5439 0e08 CB030000 		.4byte	.LASF49
 5440 0e0c FC01     		.2byte	0x1fc
 5441 0e0e 35       		.byte	0x35
 5442 0e0f 21040000 		.4byte	0x421
 5443 0e13 BF060000 		.4byte	.LLST109
 5444 0e17 BB060000 		.4byte	.LVUS109
 5445 0e1b 0B       		.uleb128 0xb
 5446 0e1c A8020000 		.4byte	.LASF56
 5447 0e20 740E0000 		.4byte	0xe74
 5448 0e24 03       		.uleb128 0x3
 5449 0e25 591B0000 		.4byte	0x1b59
 5450 0e29 1A000000 		.4byte	.LBI540
 5451 0e2d 01       		.byte	.LVU699
 5452 0e2e 1A000000 		.4byte	.LBB540
 5453 0e32 06000000 		.4byte	.LBE540-.LBB540
 5454 0e36 01       		.byte	0x1
 5455 0e37 0902     		.2byte	0x209
 5456 0e39 03       		.byte	0x3
 5457 0e3a 2E       		.uleb128 0x2e
 5458 0e3b 731B0000 		.4byte	0x1b73
 5459 0e3f 01       		.uleb128 0x1
 5460 0e40 661B0000 		.4byte	0x1b66
 5461 0e44 D6060000 		.4byte	.LLST110
 5462 0e48 D2060000 		.4byte	.LVUS110
 5463 0e4c 23       		.uleb128 0x23
 5464 0e4d 20000000 		.4byte	.LVL111
 5465 0e51 B5020000 		.4byte	0x2b5
 5466 0e55 05       		.uleb128 0x5
 5467 0e56 01       		.uleb128 0x1
 5468 0e57 50       		.byte	0x50
 5469 0e58 03       		.uleb128 0x3
 5470 0e59 A3       		.byte	0xa3
 5471 0e5a 01       		.uleb128 0x1
 5472 0e5b 50       		.byte	0x50
ARM GAS  C:\Users\DEVELO~1\AppData\Local\Temp\ccpJqkfg.s 			page 97


 5473 0e5c 05       		.uleb128 0x5
 5474 0e5d 01       		.uleb128 0x1
 5475 0e5e 51       		.byte	0x51
 5476 0e5f 01       		.uleb128 0x1
 5477 0e60 30       		.byte	0x30
 5478 0e61 00       		.byte	0
 5479 0e62 00       		.byte	0
 5480 0e63 00       		.byte	0
 5481 0e64 15       		.uleb128 0x15
 5482 0e65 B1000000 		.4byte	0xb1
 5483 0e69 740E0000 		.4byte	0xe74
 5484 0e6d 16       		.uleb128 0x16
 5485 0e6e 3E000000 		.4byte	0x3e
 5486 0e72 16       		.byte	0x16
 5487 0e73 00       		.byte	0
 5488 0e74 0D       		.uleb128 0xd
 5489 0e75 640E0000 		.4byte	0xe64
 5490 0e79 19       		.uleb128 0x19
 5491 0e7a AB030000 		.4byte	.LASF62
 5492 0e7e E601     		.2byte	0x1e6
 5493 0e80 0A       		.byte	0xa
 5494 0e81 3E010000 		.4byte	0x13e
 5495 0e85 00000000 		.4byte	.LFB443
 5496 0e89 1C000000 		.4byte	.LFE443-.LFB443
 5497 0e8d 01       		.uleb128 0x1
 5498 0e8e 9C       		.byte	0x9c
 5499 0e8f B60E0000 		.4byte	0xeb6
 5500 0e93 04       		.uleb128 0x4
 5501 0e94 CB030000 		.4byte	.LASF49
 5502 0e98 E601     		.2byte	0x1e6
 5503 0e9a 34       		.byte	0x34
 5504 0e9b 21040000 		.4byte	0x421
 5505 0e9f F3060000 		.4byte	.LLST108
 5506 0ea3 E9060000 		.4byte	.LVUS108
 5507 0ea7 2F       		.uleb128 0x2f
 5508 0ea8 F4030000 		.4byte	.LASF65
 5509 0eac E701     		.2byte	0x1e7
 5510 0eae 24       		.byte	0x24
 5511 0eaf B60E0000 		.4byte	0xeb6
 5512 0eb3 01       		.uleb128 0x1
 5513 0eb4 51       		.byte	0x51
 5514 0eb5 00       		.byte	0
 5515 0eb6 0E       		.uleb128 0xe
 5516 0eb7 2D000000 		.4byte	0x2d
 5517 0ebb 1F       		.uleb128 0x1f
 5518 0ebc 17050000 		.4byte	.LASF63
 5519 0ec0 CF01     		.2byte	0x1cf
 5520 0ec2 00000000 		.4byte	.LFB442
 5521 0ec6 1E000000 		.4byte	.LFE442-.LFB442
 5522 0eca 01       		.uleb128 0x1
 5523 0ecb 9C       		.byte	0x9c
 5524 0ecc 210F0000 		.4byte	0xf21
 5525 0ed0 04       		.uleb128 0x4
 5526 0ed1 CB030000 		.4byte	.LASF49
 5527 0ed5 CF01     		.2byte	0x1cf
 5528 0ed7 28       		.byte	0x28
 5529 0ed8 21040000 		.4byte	0x421
ARM GAS  C:\Users\DEVELO~1\AppData\Local\Temp\ccpJqkfg.s 			page 98


 5530 0edc 1C070000 		.4byte	.LLST105
 5531 0ee0 18070000 		.4byte	.LVUS105
 5532 0ee4 02       		.uleb128 0x2
 5533 0ee5 311B0000 		.4byte	0x1b31
 5534 0ee9 18000000 		.4byte	.LBI534
 5535 0eed 03       		.byte	.LVU660
 5536 0eee 88010000 		.4byte	.LLRL106
 5537 0ef2 01       		.byte	0x1
 5538 0ef3 D801     		.2byte	0x1d8
 5539 0ef5 03       		.byte	0x3
 5540 0ef6 30       		.uleb128 0x30
 5541 0ef7 4B1B0000 		.4byte	0x1b4b
 5542 0efb 01       		.uleb128 0x1
 5543 0efc 3E1B0000 		.4byte	0x1b3e
 5544 0f00 33070000 		.4byte	.LLST107
 5545 0f04 2F070000 		.4byte	.LVUS107
 5546 0f08 23       		.uleb128 0x23
 5547 0f09 1E000000 		.4byte	.LVL103
 5548 0f0d CB020000 		.4byte	0x2cb
 5549 0f11 05       		.uleb128 0x5
 5550 0f12 01       		.uleb128 0x1
 5551 0f13 50       		.byte	0x50
 5552 0f14 03       		.uleb128 0x3
 5553 0f15 A3       		.byte	0xa3
 5554 0f16 01       		.uleb128 0x1
 5555 0f17 50       		.byte	0x50
 5556 0f18 05       		.uleb128 0x5
 5557 0f19 01       		.uleb128 0x1
 5558 0f1a 51       		.byte	0x51
 5559 0f1b 02       		.uleb128 0x2
 5560 0f1c 09       		.byte	0x9
 5561 0f1d FE       		.byte	0xfe
 5562 0f1e 00       		.byte	0
 5563 0f1f 00       		.byte	0
 5564 0f20 00       		.byte	0
 5565 0f21 1F       		.uleb128 0x1f
 5566 0f22 92010000 		.4byte	.LASF64
 5567 0f26 B001     		.2byte	0x1b0
 5568 0f28 00000000 		.4byte	.LFB441
 5569 0f2c 30000000 		.4byte	.LFE441-.LFB441
 5570 0f30 01       		.uleb128 0x1
 5571 0f31 9C       		.byte	0x9c
 5572 0f32 23100000 		.4byte	0x1023
 5573 0f36 2F       		.uleb128 0x2f
 5574 0f37 CB030000 		.4byte	.LASF49
 5575 0f3b B001     		.2byte	0x1b0
 5576 0f3d 2C       		.byte	0x2c
 5577 0f3e 21040000 		.4byte	0x421
 5578 0f42 01       		.uleb128 0x1
 5579 0f43 50       		.byte	0x50
 5580 0f44 04       		.uleb128 0x4
 5581 0f45 E5030000 		.4byte	.LASF33
 5582 0f49 B001     		.2byte	0x1b0
 5583 0f4b 37       		.byte	0x37
 5584 0f4c 6A010000 		.4byte	0x16a
 5585 0f50 4A070000 		.4byte	.LLST94
 5586 0f54 46070000 		.4byte	.LVUS94
ARM GAS  C:\Users\DEVELO~1\AppData\Local\Temp\ccpJqkfg.s 			page 99


 5587 0f58 1A       		.uleb128 0x1a
 5588 0f59 627000   		.ascii	"bp\000"
 5589 0f5c B001     		.2byte	0x1b0
 5590 0f5e 4B       		.byte	0x4b
 5591 0f5f 3E010000 		.4byte	0x13e
 5592 0f63 5F070000 		.4byte	.LLST95
 5593 0f67 5B070000 		.4byte	.LVUS95
 5594 0f6b 04       		.uleb128 0x4
 5595 0f6c F3040000 		.4byte	.LASF50
 5596 0f70 B101     		.2byte	0x1b1
 5597 0f72 1B       		.byte	0x1b
 5598 0f73 2D000000 		.4byte	0x2d
 5599 0f77 76070000 		.4byte	.LLST96
 5600 0f7b 70070000 		.4byte	.LVUS96
 5601 0f7f 1A       		.uleb128 0x1a
 5602 0f80 6E00     		.ascii	"n\000"
 5603 0f82 B101     		.2byte	0x1b1
 5604 0f84 28       		.byte	0x28
 5605 0f85 2D000000 		.4byte	0x2d
 5606 0f89 96070000 		.4byte	.LLST97
 5607 0f8d 92070000 		.4byte	.LVUS97
 5608 0f91 04       		.uleb128 0x4
 5609 0f92 5B020000 		.4byte	.LASF66
 5610 0f96 B101     		.2byte	0x1b1
 5611 0f98 36       		.byte	0x36
 5612 0f99 35020000 		.4byte	0x235
 5613 0f9d AC070000 		.4byte	.LLST98
 5614 0fa1 A8070000 		.4byte	.LVUS98
 5615 0fa5 04       		.uleb128 0x4
 5616 0fa6 3D010000 		.4byte	.LASF41
 5617 0faa B101     		.2byte	0x1b1
 5618 0fac 42       		.byte	0x42
 5619 0fad A8000000 		.4byte	0xa8
 5620 0fb1 C2070000 		.4byte	.LLST99
 5621 0fb5 BE070000 		.4byte	.LVUS99
 5622 0fb9 0B       		.uleb128 0xb
 5623 0fba A8020000 		.4byte	.LASF56
 5624 0fbe 33100000 		.4byte	0x1033
 5625 0fc2 02       		.uleb128 0x2
 5626 0fc3 AE1B0000 		.4byte	0x1bae
 5627 0fc7 06000000 		.4byte	.LBI524
 5628 0fcb 00       		.byte	.LVU618
 5629 0fcc 70010000 		.4byte	.LLRL100
 5630 0fd0 01       		.byte	0x1
 5631 0fd1 B501     		.2byte	0x1b5
 5632 0fd3 03       		.byte	0x3
 5633 0fd4 01       		.uleb128 0x1
 5634 0fd5 BB1B0000 		.4byte	0x1bbb
 5635 0fd9 D6070000 		.4byte	.LLST101
 5636 0fdd D4070000 		.4byte	.LVUS101
 5637 0fe1 02       		.uleb128 0x2
 5638 0fe2 DB1B0000 		.4byte	0x1bdb
 5639 0fe6 06000000 		.4byte	.LBI525
 5640 0fea 02       		.byte	.LVU620
 5641 0feb 70010000 		.4byte	.LLRL100
 5642 0fef 02       		.byte	0x2
 5643 0ff0 6203     		.2byte	0x362
ARM GAS  C:\Users\DEVELO~1\AppData\Local\Temp\ccpJqkfg.s 			page 100


 5644 0ff2 03       		.byte	0x3
 5645 0ff3 01       		.uleb128 0x1
 5646 0ff4 E81B0000 		.4byte	0x1be8
 5647 0ff8 E1070000 		.4byte	.LLST102
 5648 0ffc DF070000 		.4byte	.LVUS102
 5649 1000 02       		.uleb128 0x2
 5650 1001 581C0000 		.4byte	0x1c58
 5651 1005 06000000 		.4byte	.LBI527
 5652 1009 04       		.byte	.LVU622
 5653 100a 7C010000 		.4byte	.LLRL103
 5654 100e 03       		.byte	0x3
 5655 100f CF01     		.2byte	0x1cf
 5656 1011 03       		.byte	0x3
 5657 1012 01       		.uleb128 0x1
 5658 1013 651C0000 		.4byte	0x1c65
 5659 1017 EC070000 		.4byte	.LLST104
 5660 101b EA070000 		.4byte	.LVUS104
 5661 101f 00       		.byte	0
 5662 1020 00       		.byte	0
 5663 1021 00       		.byte	0
 5664 1022 00       		.byte	0
 5665 1023 15       		.uleb128 0x15
 5666 1024 B1000000 		.4byte	0xb1
 5667 1028 33100000 		.4byte	0x1033
 5668 102c 16       		.uleb128 0x16
 5669 102d 3E000000 		.4byte	0x3e
 5670 1031 0D       		.byte	0xd
 5671 1032 00       		.byte	0
 5672 1033 0D       		.uleb128 0xd
 5673 1034 23100000 		.4byte	0x1023
 5674 1038 19       		.uleb128 0x19
 5675 1039 9A050000 		.4byte	.LASF67
 5676 103d 6601     		.2byte	0x166
 5677 103f 08       		.byte	0x8
 5678 1040 2D000000 		.4byte	0x2d
 5679 1044 00000000 		.4byte	.LFB440
 5680 1048 12010000 		.4byte	.LFE440-.LFB440
 5681 104c 01       		.uleb128 0x1
 5682 104d 9C       		.byte	0x9c
 5683 104e 6D130000 		.4byte	0x136d
 5684 1052 04       		.uleb128 0x4
 5685 1053 8E000000 		.4byte	.LASF68
 5686 1057 6601     		.2byte	0x166
 5687 1059 2E       		.byte	0x2e
 5688 105a 6D130000 		.4byte	0x136d
 5689 105e 01080000 		.4byte	.LLST69
 5690 1062 F5070000 		.4byte	.LVUS69
 5691 1066 1A       		.uleb128 0x1a
 5692 1067 627000   		.ascii	"bp\000"
 5693 106a 6601     		.2byte	0x166
 5694 106c 3D       		.byte	0x3d
 5695 106d 3E010000 		.4byte	0x13e
 5696 1071 32080000 		.4byte	.LLST70
 5697 1075 2E080000 		.4byte	.LVUS70
 5698 1079 1A       		.uleb128 0x1a
 5699 107a 6E00     		.ascii	"n\000"
 5700 107c 6701     		.2byte	0x167
ARM GAS  C:\Users\DEVELO~1\AppData\Local\Temp\ccpJqkfg.s 			page 101


 5701 107e 1E       		.byte	0x1e
 5702 107f 2D000000 		.4byte	0x2d
 5703 1083 47080000 		.4byte	.LLST71
 5704 1087 43080000 		.4byte	.LVUS71
 5705 108b 04       		.uleb128 0x4
 5706 108c D1050000 		.4byte	.LASF53
 5707 1090 6701     		.2byte	0x167
 5708 1092 2F       		.byte	0x2f
 5709 1093 EB000000 		.4byte	0xeb
 5710 1097 64080000 		.4byte	.LLST72
 5711 109b 58080000 		.4byte	.LVUS72
 5712 109f 1B       		.uleb128 0x1b
 5713 10a0 7200     		.ascii	"r\000"
 5714 10a2 6801     		.2byte	0x168
 5715 10a4 0A       		.byte	0xa
 5716 10a5 2D000000 		.4byte	0x2d
 5717 10a9 99080000 		.4byte	.LLST73
 5718 10ad 91080000 		.4byte	.LVUS73
 5719 10b1 0B       		.uleb128 0xb
 5720 10b2 A8020000 		.4byte	.LASF56
 5721 10b6 82130000 		.4byte	0x1382
 5722 10ba 20       		.uleb128 0x20
 5723 10bb 2C010000 		.4byte	.LLRL79
 5724 10bf 13130000 		.4byte	0x1313
 5725 10c3 22       		.uleb128 0x22
 5726 10c4 F3040000 		.4byte	.LASF50
 5727 10c8 6F01     		.2byte	0x16f
 5728 10ca 2D000000 		.4byte	0x2d
 5729 10ce BF080000 		.4byte	.LLST80
 5730 10d2 B7080000 		.4byte	.LVUS80
 5731 10d6 20       		.uleb128 0x20
 5732 10d7 47010000 		.4byte	.LLRL85
 5733 10db EF110000 		.4byte	0x11ef
 5734 10df 1B       		.uleb128 0x1b
 5735 10e0 6D736700 		.ascii	"msg\000"
 5736 10e4 7301     		.2byte	0x173
 5737 10e6 0D       		.byte	0xd
 5738 10e7 DF000000 		.4byte	0xdf
 5739 10eb E2080000 		.4byte	.LLST86
 5740 10ef E0080000 		.4byte	.LVUS86
 5741 10f3 2A       		.uleb128 0x2a
 5742 10f4 1B170000 		.4byte	0x171b
 5743 10f8 86000000 		.4byte	.LBB503
 5744 10fc 2A000000 		.4byte	.LBE503-.LBB503
 5745 1100 7601     		.2byte	0x176
 5746 1102 85110000 		.4byte	0x1185
 5747 1106 10       		.uleb128 0x10
 5748 1107 37170000 		.4byte	0x1737
 5749 110b 10       		.uleb128 0x10
 5750 110c 2C170000 		.4byte	0x172c
 5751 1110 11       		.uleb128 0x11
 5752 1111 4B170000 		.4byte	0x174b
 5753 1115 55010000 		.4byte	.LLRL87
 5754 1119 5F110000 		.4byte	0x115f
 5755 111d 12       		.uleb128 0x12
 5756 111e 4C170000 		.4byte	0x174c
 5757 1122 EE080000 		.4byte	.LLST88
ARM GAS  C:\Users\DEVELO~1\AppData\Local\Temp\ccpJqkfg.s 			page 102


 5758 1126 EC080000 		.4byte	.LVUS88
 5759 112a 17       		.uleb128 0x17
 5760 112b 811B0000 		.4byte	0x1b81
 5761 112f 96000000 		.4byte	.LBI506
 5762 1133 02       		.byte	.LVU532
 5763 1134 61010000 		.4byte	.LLRL89
 5764 1138 E7       		.byte	0xe7
 5765 1139 11       		.byte	0x11
 5766 113a 01       		.uleb128 0x1
 5767 113b A01B0000 		.4byte	0x1ba0
 5768 113f 01090000 		.4byte	.LLST90
 5769 1143 F7080000 		.4byte	.LVUS90
 5770 1147 01       		.uleb128 0x1
 5771 1148 931B0000 		.4byte	0x1b93
 5772 114c 28090000 		.4byte	.LLST91
 5773 1150 20090000 		.4byte	.LVUS91
 5774 1154 13       		.uleb128 0x13
 5775 1155 92000000 		.4byte	.LVL82
 5776 1159 94020000 		.4byte	0x294
 5777 115d 00       		.byte	0
 5778 115e 00       		.byte	0
 5779 115f 24       		.uleb128 0x24
 5780 1160 1B170000 		.4byte	0x171b
 5781 1164 A2000000 		.4byte	.LBI513
 5782 1168 00       		.byte	.LVU537
 5783 1169 A2000000 		.4byte	.LBB513
 5784 116d 0E000000 		.4byte	.LBE513-.LBB513
 5785 1171 10       		.uleb128 0x10
 5786 1172 37170000 		.4byte	0x1737
 5787 1176 01       		.uleb128 0x1
 5788 1177 2C170000 		.4byte	0x172c
 5789 117b 44090000 		.4byte	.LLST92
 5790 117f 42090000 		.4byte	.LVUS92
 5791 1183 00       		.byte	0
 5792 1184 00       		.byte	0
 5793 1185 03       		.uleb128 0x3
 5794 1186 C91B0000 		.4byte	0x1bc9
 5795 118a 06010000 		.4byte	.LBI515
 5796 118e 03       		.byte	.LVU592
 5797 118f 06010000 		.4byte	.LBB515
 5798 1193 06000000 		.4byte	.LBE515-.LBB515
 5799 1197 01       		.byte	0x1
 5800 1198 7A01     		.2byte	0x17a
 5801 119a 09       		.byte	0x9
 5802 119b 03       		.uleb128 0x3
 5803 119c F61B0000 		.4byte	0x1bf6
 5804 11a0 06010000 		.4byte	.LBI516
 5805 11a4 05       		.byte	.LVU594
 5806 11a5 06010000 		.4byte	.LBB516
 5807 11a9 06000000 		.4byte	.LBE516-.LBB516
 5808 11ad 02       		.byte	0x2
 5809 11ae 4A02     		.2byte	0x24a
 5810 11b0 03       		.byte	0x3
 5811 11b1 03       		.uleb128 0x3
 5812 11b2 2B1C0000 		.4byte	0x1c2b
 5813 11b6 06010000 		.4byte	.LBI518
 5814 11ba 0C       		.byte	.LVU601
ARM GAS  C:\Users\DEVELO~1\AppData\Local\Temp\ccpJqkfg.s 			page 103


 5815 11bb 06010000 		.4byte	.LBB518
 5816 11bf 06000000 		.4byte	.LBE518-.LBB518
 5817 11c3 06       		.byte	0x6
 5818 11c4 B201     		.2byte	0x1b2
 5819 11c6 03       		.byte	0x3
 5820 11c7 03       		.uleb128 0x3
 5821 11c8 3D1C0000 		.4byte	0x1c3d
 5822 11cc 06010000 		.4byte	.LBI519
 5823 11d0 0E       		.byte	.LVU603
 5824 11d1 06010000 		.4byte	.LBB519
 5825 11d5 06000000 		.4byte	.LBE519-.LBB519
 5826 11d9 07       		.byte	0x7
 5827 11da 4103     		.2byte	0x341
 5828 11dc 03       		.byte	0x3
 5829 11dd 01       		.uleb128 0x1
 5830 11de 4A1C0000 		.4byte	0x1c4a
 5831 11e2 4F090000 		.4byte	.LLST93
 5832 11e6 4D090000 		.4byte	.LVUS93
 5833 11ea 00       		.byte	0
 5834 11eb 00       		.byte	0
 5835 11ec 00       		.byte	0
 5836 11ed 00       		.byte	0
 5837 11ee 00       		.byte	0
 5838 11ef 0A       		.uleb128 0xa
 5839 11f0 D7150000 		.4byte	0x15d7
 5840 11f4 D0000000 		.4byte	.LBI487
 5841 11f8 01       		.byte	.LVU564
 5842 11f9 39010000 		.4byte	.LLRL81
 5843 11fd 9701     		.2byte	0x197
 5844 11ff 07       		.byte	0x7
 5845 1200 24120000 		.4byte	0x1224
 5846 1204 01       		.uleb128 0x1
 5847 1205 E3150000 		.4byte	0x15e3
 5848 1209 5B090000 		.4byte	.LLST82
 5849 120d 59090000 		.4byte	.LVUS82
 5850 1211 09       		.uleb128 0x9
 5851 1212 39010000 		.4byte	.LLRL81
 5852 1216 18       		.uleb128 0x18
 5853 1217 04010000 		.4byte	.LVL92
 5854 121b 05       		.uleb128 0x5
 5855 121c 01       		.uleb128 0x1
 5856 121d 50       		.byte	0x50
 5857 121e 02       		.uleb128 0x2
 5858 121f 7A       		.byte	0x7a
 5859 1220 00       		.sleb128 0
 5860 1221 00       		.byte	0
 5861 1222 00       		.byte	0
 5862 1223 00       		.byte	0
 5863 1224 14       		.uleb128 0x14
 5864 1225 C91B0000 		.4byte	0x1bc9
 5865 1229 78000000 		.4byte	.LBI490
 5866 122d 01       		.byte	.LVU495
 5867 122e 78000000 		.4byte	.LBB490
 5868 1232 04000000 		.4byte	.LBE490-.LBB490
 5869 1236 9B01     		.2byte	0x19b
 5870 1238 05       		.byte	0x5
 5871 1239 90120000 		.4byte	0x1290
ARM GAS  C:\Users\DEVELO~1\AppData\Local\Temp\ccpJqkfg.s 			page 104


 5872 123d 03       		.uleb128 0x3
 5873 123e F61B0000 		.4byte	0x1bf6
 5874 1242 78000000 		.4byte	.LBI491
 5875 1246 03       		.byte	.LVU497
 5876 1247 78000000 		.4byte	.LBB491
 5877 124b 04000000 		.4byte	.LBE491-.LBB491
 5878 124f 02       		.byte	0x2
 5879 1250 4A02     		.2byte	0x24a
 5880 1252 03       		.byte	0x3
 5881 1253 03       		.uleb128 0x3
 5882 1254 2B1C0000 		.4byte	0x1c2b
 5883 1258 78000000 		.4byte	.LBI493
 5884 125c 0A       		.byte	.LVU504
 5885 125d 78000000 		.4byte	.LBB493
 5886 1261 04000000 		.4byte	.LBE493-.LBB493
 5887 1265 06       		.byte	0x6
 5888 1266 B201     		.2byte	0x1b2
 5889 1268 03       		.byte	0x3
 5890 1269 03       		.uleb128 0x3
 5891 126a 3D1C0000 		.4byte	0x1c3d
 5892 126e 78000000 		.4byte	.LBI494
 5893 1272 0C       		.byte	.LVU506
 5894 1273 78000000 		.4byte	.LBB494
 5895 1277 04000000 		.4byte	.LBE494-.LBB494
 5896 127b 07       		.byte	0x7
 5897 127c 4103     		.2byte	0x341
 5898 127e 03       		.byte	0x3
 5899 127f 01       		.uleb128 0x1
 5900 1280 4A1C0000 		.4byte	0x1c4a
 5901 1284 66090000 		.4byte	.LLST83
 5902 1288 64090000 		.4byte	.LVUS83
 5903 128c 00       		.byte	0
 5904 128d 00       		.byte	0
 5905 128e 00       		.byte	0
 5906 128f 00       		.byte	0
 5907 1290 14       		.uleb128 0x14
 5908 1291 D21B0000 		.4byte	0x1bd2
 5909 1295 80000000 		.4byte	.LBI496
 5910 1299 01       		.byte	.LVU512
 5911 129a 80000000 		.4byte	.LBB496
 5912 129e 06000000 		.4byte	.LBE496-.LBB496
 5913 12a2 9F01     		.2byte	0x19f
 5914 12a4 05       		.byte	0x5
 5915 12a5 FC120000 		.4byte	0x12fc
 5916 12a9 03       		.uleb128 0x3
 5917 12aa 221C0000 		.4byte	0x1c22
 5918 12ae 80000000 		.4byte	.LBI498
 5919 12b2 03       		.byte	.LVU514
 5920 12b3 80000000 		.4byte	.LBB498
 5921 12b7 04000000 		.4byte	.LBE498-.LBB498
 5922 12bb 02       		.byte	0x2
 5923 12bc 3F02     		.2byte	0x23f
 5924 12be 03       		.byte	0x3
 5925 12bf 03       		.uleb128 0x3
 5926 12c0 341C0000 		.4byte	0x1c34
 5927 12c4 80000000 		.4byte	.LBI499
 5928 12c8 05       		.byte	.LVU516
ARM GAS  C:\Users\DEVELO~1\AppData\Local\Temp\ccpJqkfg.s 			page 105


 5929 12c9 80000000 		.4byte	.LBB499
 5930 12cd 04000000 		.4byte	.LBE499-.LBB499
 5931 12d1 06       		.byte	0x6
 5932 12d2 9901     		.2byte	0x199
 5933 12d4 03       		.byte	0x3
 5934 12d5 03       		.uleb128 0x3
 5935 12d6 3D1C0000 		.4byte	0x1c3d
 5936 12da 80000000 		.4byte	.LBI500
 5937 12de 07       		.byte	.LVU518
 5938 12df 80000000 		.4byte	.LBB500
 5939 12e3 04000000 		.4byte	.LBE500-.LBB500
 5940 12e7 07       		.byte	0x7
 5941 12e8 2E03     		.2byte	0x32e
 5942 12ea 03       		.byte	0x3
 5943 12eb 01       		.uleb128 0x1
 5944 12ec 4A1C0000 		.4byte	0x1c4a
 5945 12f0 72090000 		.4byte	.LLST84
 5946 12f4 70090000 		.4byte	.LVUS84
 5947 12f8 00       		.byte	0
 5948 12f9 00       		.byte	0
 5949 12fa 00       		.byte	0
 5950 12fb 00       		.byte	0
 5951 12fc 2B       		.uleb128 0x2b
 5952 12fd BA000000 		.4byte	.LVL88
 5953 1301 341E0000 		.4byte	0x1e34
 5954 1305 05       		.uleb128 0x5
 5955 1306 01       		.uleb128 0x1
 5956 1307 50       		.byte	0x50
 5957 1308 02       		.uleb128 0x2
 5958 1309 75       		.byte	0x75
 5959 130a 00       		.sleb128 0
 5960 130b 05       		.uleb128 0x5
 5961 130c 01       		.uleb128 0x1
 5962 130d 52       		.byte	0x52
 5963 130e 02       		.uleb128 0x2
 5964 130f 7B       		.byte	0x7b
 5965 1310 00       		.sleb128 0
 5966 1311 00       		.byte	0
 5967 1312 00       		.byte	0
 5968 1313 02       		.uleb128 0x2
 5969 1314 D21B0000 		.4byte	0x1bd2
 5970 1318 00000000 		.4byte	.LBI474
 5971 131c 06       		.byte	.LVU450
 5972 131d FC000000 		.4byte	.LLRL74
 5973 1321 01       		.byte	0x1
 5974 1322 6C01     		.2byte	0x16c
 5975 1324 03       		.byte	0x3
 5976 1325 02       		.uleb128 0x2
 5977 1326 221C0000 		.4byte	0x1c22
 5978 132a 00000000 		.4byte	.LBI476
 5979 132e 08       		.byte	.LVU452
 5980 132f 08010000 		.4byte	.LLRL75
 5981 1333 02       		.byte	0x2
 5982 1334 3F02     		.2byte	0x23f
 5983 1336 03       		.byte	0x3
 5984 1337 02       		.uleb128 0x2
 5985 1338 341C0000 		.4byte	0x1c34
ARM GAS  C:\Users\DEVELO~1\AppData\Local\Temp\ccpJqkfg.s 			page 106


 5986 133c 00000000 		.4byte	.LBI477
 5987 1340 0A       		.byte	.LVU454
 5988 1341 14010000 		.4byte	.LLRL76
 5989 1345 06       		.byte	0x6
 5990 1346 9901     		.2byte	0x199
 5991 1348 03       		.byte	0x3
 5992 1349 02       		.uleb128 0x2
 5993 134a 3D1C0000 		.4byte	0x1c3d
 5994 134e 00000000 		.4byte	.LBI478
 5995 1352 0C       		.byte	.LVU456
 5996 1353 20010000 		.4byte	.LLRL77
 5997 1357 07       		.byte	0x7
 5998 1358 2E03     		.2byte	0x32e
 5999 135a 03       		.byte	0x3
 6000 135b 01       		.uleb128 0x1
 6001 135c 4A1C0000 		.4byte	0x1c4a
 6002 1360 7F090000 		.4byte	.LLST78
 6003 1364 7D090000 		.4byte	.LVUS78
 6004 1368 00       		.byte	0
 6005 1369 00       		.byte	0
 6006 136a 00       		.byte	0
 6007 136b 00       		.byte	0
 6008 136c 00       		.byte	0
 6009 136d 0E       		.uleb128 0xe
 6010 136e 56020000 		.4byte	0x256
 6011 1372 15       		.uleb128 0x15
 6012 1373 B1000000 		.4byte	0xb1
 6013 1377 82130000 		.4byte	0x1382
 6014 137b 16       		.uleb128 0x16
 6015 137c 3E000000 		.4byte	0x3e
 6016 1380 0E       		.byte	0xe
 6017 1381 00       		.byte	0
 6018 1382 0D       		.uleb128 0xd
 6019 1383 72130000 		.4byte	0x1372
 6020 1387 19       		.uleb128 0x19
 6021 1388 7B030000 		.4byte	.LASF69
 6022 138c 3501     		.2byte	0x135
 6023 138e 07       		.byte	0x7
 6024 138f DF000000 		.4byte	0xdf
 6025 1393 00000000 		.4byte	.LFB439
 6026 1397 84000000 		.4byte	.LFE439-.LFB439
 6027 139b 01       		.uleb128 0x1
 6028 139c 9C       		.byte	0x9c
 6029 139d D7150000 		.4byte	0x15d7
 6030 13a1 04       		.uleb128 0x4
 6031 13a2 8E000000 		.4byte	.LASF68
 6032 13a6 3501     		.2byte	0x135
 6033 13a8 2C       		.byte	0x2c
 6034 13a9 6D130000 		.4byte	0x136d
 6035 13ad 98090000 		.4byte	.LLST51
 6036 13b1 8A090000 		.4byte	.LVUS51
 6037 13b5 04       		.uleb128 0x4
 6038 13b6 D1050000 		.4byte	.LASF53
 6039 13ba 3501     		.2byte	0x135
 6040 13bc 40       		.byte	0x40
 6041 13bd EB000000 		.4byte	0xeb
 6042 13c1 D0090000 		.4byte	.LLST52
ARM GAS  C:\Users\DEVELO~1\AppData\Local\Temp\ccpJqkfg.s 			page 107


 6043 13c5 C2090000 		.4byte	.LVUS52
 6044 13c9 1B       		.uleb128 0x1b
 6045 13ca 6D736700 		.ascii	"msg\000"
 6046 13ce 3601     		.2byte	0x136
 6047 13d0 09       		.byte	0x9
 6048 13d1 DF000000 		.4byte	0xdf
 6049 13d5 040A0000 		.4byte	.LLST53
 6050 13d9 000A0000 		.4byte	.LVUS53
 6051 13dd 0A       		.uleb128 0xa
 6052 13de D21B0000 		.4byte	0x1bd2
 6053 13e2 06000000 		.4byte	.LBI389
 6054 13e6 02       		.byte	.LVU315
 6055 13e7 AE000000 		.4byte	.LLRL54
 6056 13eb 3801     		.2byte	0x138
 6057 13ed 03       		.byte	0x3
 6058 13ee 39140000 		.4byte	0x1439
 6059 13f2 02       		.uleb128 0x2
 6060 13f3 221C0000 		.4byte	0x1c22
 6061 13f7 06000000 		.4byte	.LBI390
 6062 13fb 04       		.byte	.LVU317
 6063 13fc AE000000 		.4byte	.LLRL54
 6064 1400 02       		.byte	0x2
 6065 1401 3F02     		.2byte	0x23f
 6066 1403 03       		.byte	0x3
 6067 1404 02       		.uleb128 0x2
 6068 1405 341C0000 		.4byte	0x1c34
 6069 1409 06000000 		.4byte	.LBI391
 6070 140d 06       		.byte	.LVU319
 6071 140e AE000000 		.4byte	.LLRL54
 6072 1412 06       		.byte	0x6
 6073 1413 9901     		.2byte	0x199
 6074 1415 03       		.byte	0x3
 6075 1416 02       		.uleb128 0x2
 6076 1417 3D1C0000 		.4byte	0x1c3d
 6077 141b 06000000 		.4byte	.LBI392
 6078 141f 08       		.byte	.LVU321
 6079 1420 AE000000 		.4byte	.LLRL54
 6080 1424 07       		.byte	0x7
 6081 1425 2E03     		.2byte	0x32e
 6082 1427 03       		.byte	0x3
 6083 1428 01       		.uleb128 0x1
 6084 1429 4A1C0000 		.4byte	0x1c4a
 6085 142d 170A0000 		.4byte	.LLST55
 6086 1431 150A0000 		.4byte	.LVUS55
 6087 1435 00       		.byte	0
 6088 1436 00       		.byte	0
 6089 1437 00       		.byte	0
 6090 1438 00       		.byte	0
 6091 1439 0A       		.uleb128 0xa
 6092 143a C91B0000 		.4byte	0x1bc9
 6093 143e 1A000000 		.4byte	.LBI399
 6094 1442 02       		.byte	.LVU339
 6095 1443 BA000000 		.4byte	.LLRL56
 6096 1447 3E01     		.2byte	0x13e
 6097 1449 07       		.byte	0x7
 6098 144a 9B140000 		.4byte	0x149b
 6099 144e 02       		.uleb128 0x2
ARM GAS  C:\Users\DEVELO~1\AppData\Local\Temp\ccpJqkfg.s 			page 108


 6100 144f F61B0000 		.4byte	0x1bf6
 6101 1453 1A000000 		.4byte	.LBI400
 6102 1457 04       		.byte	.LVU341
 6103 1458 BA000000 		.4byte	.LLRL56
 6104 145c 02       		.byte	0x2
 6105 145d 4A02     		.2byte	0x24a
 6106 145f 03       		.byte	0x3
 6107 1460 09       		.uleb128 0x9
 6108 1461 BA000000 		.4byte	.LLRL56
 6109 1465 02       		.uleb128 0x2
 6110 1466 2B1C0000 		.4byte	0x1c2b
 6111 146a 1A000000 		.4byte	.LBI402
 6112 146e 0B       		.byte	.LVU348
 6113 146f BA000000 		.4byte	.LLRL56
 6114 1473 06       		.byte	0x6
 6115 1474 B201     		.2byte	0x1b2
 6116 1476 03       		.byte	0x3
 6117 1477 02       		.uleb128 0x2
 6118 1478 3D1C0000 		.4byte	0x1c3d
 6119 147c 1A000000 		.4byte	.LBI403
 6120 1480 0D       		.byte	.LVU350
 6121 1481 BA000000 		.4byte	.LLRL56
 6122 1485 07       		.byte	0x7
 6123 1486 4103     		.2byte	0x341
 6124 1488 03       		.byte	0x3
 6125 1489 01       		.uleb128 0x1
 6126 148a 4A1C0000 		.4byte	0x1c4a
 6127 148e 260A0000 		.4byte	.LLST57
 6128 1492 220A0000 		.4byte	.LVUS57
 6129 1496 00       		.byte	0
 6130 1497 00       		.byte	0
 6131 1498 00       		.byte	0
 6132 1499 00       		.byte	0
 6133 149a 00       		.byte	0
 6134 149b 0A       		.uleb128 0xa
 6135 149c D7150000 		.4byte	0x15d7
 6136 14a0 24000000 		.4byte	.LBI410
 6137 14a4 01       		.byte	.LVU356
 6138 14a5 C6000000 		.4byte	.LLRL58
 6139 14a9 4A01     		.2byte	0x14a
 6140 14ab 05       		.byte	0x5
 6141 14ac D0140000 		.4byte	0x14d0
 6142 14b0 01       		.uleb128 0x1
 6143 14b1 E3150000 		.4byte	0x15e3
 6144 14b5 3E0A0000 		.4byte	.LLST59
 6145 14b9 380A0000 		.4byte	.LVUS59
 6146 14bd 09       		.uleb128 0x9
 6147 14be C6000000 		.4byte	.LLRL58
 6148 14c2 18       		.uleb128 0x18
 6149 14c3 46000000 		.4byte	.LVL57
 6150 14c7 05       		.uleb128 0x5
 6151 14c8 01       		.uleb128 0x1
 6152 14c9 50       		.byte	0x50
 6153 14ca 02       		.uleb128 0x2
 6154 14cb 74       		.byte	0x74
 6155 14cc 00       		.sleb128 0
 6156 14cd 00       		.byte	0
ARM GAS  C:\Users\DEVELO~1\AppData\Local\Temp\ccpJqkfg.s 			page 109


 6157 14ce 00       		.byte	0
 6158 14cf 00       		.byte	0
 6159 14d0 14       		.uleb128 0x14
 6160 14d1 C91B0000 		.4byte	0x1bc9
 6161 14d5 46000000 		.4byte	.LBI413
 6162 14d9 02       		.byte	.LVU383
 6163 14da 46000000 		.4byte	.LBB413
 6164 14de 00000000 		.4byte	.LBE413-.LBB413
 6165 14e2 4D01     		.2byte	0x14d
 6166 14e4 03       		.byte	0x3
 6167 14e5 3C150000 		.4byte	0x153c
 6168 14e9 03       		.uleb128 0x3
 6169 14ea F61B0000 		.4byte	0x1bf6
 6170 14ee 46000000 		.4byte	.LBI414
 6171 14f2 04       		.byte	.LVU385
 6172 14f3 46000000 		.4byte	.LBB414
 6173 14f7 00000000 		.4byte	.LBE414-.LBB414
 6174 14fb 02       		.byte	0x2
 6175 14fc 4A02     		.2byte	0x24a
 6176 14fe 03       		.byte	0x3
 6177 14ff 03       		.uleb128 0x3
 6178 1500 2B1C0000 		.4byte	0x1c2b
 6179 1504 46000000 		.4byte	.LBI416
 6180 1508 0B       		.byte	.LVU392
 6181 1509 46000000 		.4byte	.LBB416
 6182 150d 00000000 		.4byte	.LBE416-.LBB416
 6183 1511 06       		.byte	0x6
 6184 1512 B201     		.2byte	0x1b2
 6185 1514 03       		.byte	0x3
 6186 1515 03       		.uleb128 0x3
 6187 1516 3D1C0000 		.4byte	0x1c3d
 6188 151a 46000000 		.4byte	.LBI417
 6189 151e 0D       		.byte	.LVU394
 6190 151f 46000000 		.4byte	.LBB417
 6191 1523 00000000 		.4byte	.LBE417-.LBB417
 6192 1527 07       		.byte	0x7
 6193 1528 4103     		.2byte	0x341
 6194 152a 03       		.byte	0x3
 6195 152b 01       		.uleb128 0x1
 6196 152c 4A1C0000 		.4byte	0x1c4a
 6197 1530 550A0000 		.4byte	.LLST60
 6198 1534 530A0000 		.4byte	.LVUS60
 6199 1538 00       		.byte	0
 6200 1539 00       		.byte	0
 6201 153a 00       		.byte	0
 6202 153b 00       		.byte	0
 6203 153c 41       		.uleb128 0x41
 6204 153d 1B170000 		.4byte	0x171b
 6205 1541 D2000000 		.4byte	.LLRL61
 6206 1545 01       		.byte	0x1
 6207 1546 3C01     		.2byte	0x13c
 6208 1548 0B       		.byte	0xb
 6209 1549 10       		.uleb128 0x10
 6210 154a 37170000 		.4byte	0x1737
 6211 154e 10       		.uleb128 0x10
 6212 154f 2C170000 		.4byte	0x172c
 6213 1553 09       		.uleb128 0x9
ARM GAS  C:\Users\DEVELO~1\AppData\Local\Temp\ccpJqkfg.s 			page 110


 6214 1554 D2000000 		.4byte	.LLRL61
 6215 1558 11       		.uleb128 0x11
 6216 1559 4B170000 		.4byte	0x174b
 6217 155d DE000000 		.4byte	.LLRL62
 6218 1561 A7150000 		.4byte	0x15a7
 6219 1565 12       		.uleb128 0x12
 6220 1566 4C170000 		.4byte	0x174c
 6221 156a 610A0000 		.4byte	.LLST63
 6222 156e 5F0A0000 		.4byte	.LVUS63
 6223 1572 17       		.uleb128 0x17
 6224 1573 811B0000 		.4byte	0x1b81
 6225 1577 66000000 		.4byte	.LBI424
 6226 157b 02       		.byte	.LVU426
 6227 157c ED000000 		.4byte	.LLRL64
 6228 1580 E7       		.byte	0xe7
 6229 1581 11       		.byte	0x11
 6230 1582 01       		.uleb128 0x1
 6231 1583 A01B0000 		.4byte	0x1ba0
 6232 1587 720A0000 		.4byte	.LLST65
 6233 158b 6A0A0000 		.4byte	.LVUS65
 6234 158f 01       		.uleb128 0x1
 6235 1590 931B0000 		.4byte	0x1b93
 6236 1594 940A0000 		.4byte	.LLST66
 6237 1598 8C0A0000 		.4byte	.LVUS66
 6238 159c 13       		.uleb128 0x13
 6239 159d 62000000 		.4byte	.LVL62
 6240 15a1 94020000 		.4byte	0x294
 6241 15a5 00       		.byte	0
 6242 15a6 00       		.byte	0
 6243 15a7 24       		.uleb128 0x24
 6244 15a8 1B170000 		.4byte	0x171b
 6245 15ac 70000000 		.4byte	.LBI431
 6246 15b0 00       		.byte	.LVU431
 6247 15b1 70000000 		.4byte	.LBB431
 6248 15b5 0C000000 		.4byte	.LBE431-.LBB431
 6249 15b9 01       		.uleb128 0x1
 6250 15ba 37170000 		.4byte	0x1737
 6251 15be B00A0000 		.4byte	.LLST67
 6252 15c2 AE0A0000 		.4byte	.LVUS67
 6253 15c6 01       		.uleb128 0x1
 6254 15c7 2C170000 		.4byte	0x172c
 6255 15cb BB0A0000 		.4byte	.LLST68
 6256 15cf B90A0000 		.4byte	.LVUS68
 6257 15d3 00       		.byte	0
 6258 15d4 00       		.byte	0
 6259 15d5 00       		.byte	0
 6260 15d6 00       		.byte	0
 6261 15d7 2C       		.uleb128 0x2c
 6262 15d8 06040000 		.4byte	.LASF70
 6263 15dc 0D01     		.2byte	0x10d
 6264 15de 08       		.byte	0x8
 6265 15df FA150000 		.4byte	0x15fa
 6266 15e3 1C       		.uleb128 0x1c
 6267 15e4 8E000000 		.4byte	.LASF68
 6268 15e8 01       		.byte	0x1
 6269 15e9 0D01     		.2byte	0x10d
 6270 15eb 36       		.byte	0x36
ARM GAS  C:\Users\DEVELO~1\AppData\Local\Temp\ccpJqkfg.s 			page 111


 6271 15ec 6D130000 		.4byte	0x136d
 6272 15f0 0B       		.uleb128 0xb
 6273 15f1 A8020000 		.4byte	.LASF56
 6274 15f5 740E0000 		.4byte	0xe74
 6275 15f9 00       		.byte	0
 6276 15fa 25       		.uleb128 0x25
 6277 15fb BA010000 		.4byte	.LASF71
 6278 15ff FE       		.byte	0xfe
 6279 1600 00000000 		.4byte	.LFB437
 6280 1604 34000000 		.4byte	.LFE437-.LFB437
 6281 1608 01       		.uleb128 0x1
 6282 1609 9C       		.byte	0x9c
 6283 160a 1B170000 		.4byte	0x171b
 6284 160e 0C       		.uleb128 0xc
 6285 160f 8E000000 		.4byte	.LASF68
 6286 1613 FE       		.byte	0xfe
 6287 1614 33       		.byte	0x33
 6288 1615 6D130000 		.4byte	0x136d
 6289 1619 C80A0000 		.4byte	.LLST45
 6290 161d C40A0000 		.4byte	.LVUS45
 6291 1621 0A       		.uleb128 0xa
 6292 1622 D21B0000 		.4byte	0x1bd2
 6293 1626 00000000 		.4byte	.LBI342
 6294 162a 02       		.byte	.LVU225
 6295 162b A2000000 		.4byte	.LLRL46
 6296 162f 0001     		.2byte	0x100
 6297 1631 03       		.byte	0x3
 6298 1632 7D160000 		.4byte	0x167d
 6299 1636 02       		.uleb128 0x2
 6300 1637 221C0000 		.4byte	0x1c22
 6301 163b 00000000 		.4byte	.LBI343
 6302 163f 04       		.byte	.LVU227
 6303 1640 A2000000 		.4byte	.LLRL46
 6304 1644 02       		.byte	0x2
 6305 1645 3F02     		.2byte	0x23f
 6306 1647 03       		.byte	0x3
 6307 1648 02       		.uleb128 0x2
 6308 1649 341C0000 		.4byte	0x1c34
 6309 164d 00000000 		.4byte	.LBI344
 6310 1651 06       		.byte	.LVU229
 6311 1652 A2000000 		.4byte	.LLRL46
 6312 1656 06       		.byte	0x6
 6313 1657 9901     		.2byte	0x199
 6314 1659 03       		.byte	0x3
 6315 165a 02       		.uleb128 0x2
 6316 165b 3D1C0000 		.4byte	0x1c3d
 6317 165f 00000000 		.4byte	.LBI345
 6318 1663 08       		.byte	.LVU231
 6319 1664 A2000000 		.4byte	.LLRL46
 6320 1668 07       		.byte	0x7
 6321 1669 2E03     		.2byte	0x32e
 6322 166b 03       		.byte	0x3
 6323 166c 01       		.uleb128 0x1
 6324 166d 4A1C0000 		.4byte	0x1c4a
 6325 1671 DD0A0000 		.4byte	.LLST47
 6326 1675 DB0A0000 		.4byte	.LVUS47
 6327 1679 00       		.byte	0
ARM GAS  C:\Users\DEVELO~1\AppData\Local\Temp\ccpJqkfg.s 			page 112


 6328 167a 00       		.byte	0
 6329 167b 00       		.byte	0
 6330 167c 00       		.byte	0
 6331 167d 14       		.uleb128 0x14
 6332 167e D7150000 		.4byte	0x15d7
 6333 1682 08000000 		.4byte	.LBI352
 6334 1686 04       		.byte	.LVU239
 6335 1687 08000000 		.4byte	.LBB352
 6336 168b 24000000 		.4byte	.LBE352-.LBB352
 6337 168f 0101     		.2byte	0x101
 6338 1691 03       		.byte	0x3
 6339 1692 B1160000 		.4byte	0x16b1
 6340 1696 01       		.uleb128 0x1
 6341 1697 E3150000 		.4byte	0x15e3
 6342 169b EC0A0000 		.4byte	.LLST48
 6343 169f E80A0000 		.4byte	.LVUS48
 6344 16a3 18       		.uleb128 0x18
 6345 16a4 2C000000 		.4byte	.LVL44
 6346 16a8 05       		.uleb128 0x5
 6347 16a9 01       		.uleb128 0x1
 6348 16aa 50       		.byte	0x50
 6349 16ab 03       		.uleb128 0x3
 6350 16ac A3       		.byte	0xa3
 6351 16ad 01       		.uleb128 0x1
 6352 16ae 50       		.byte	0x50
 6353 16af 00       		.byte	0
 6354 16b0 00       		.byte	0
 6355 16b1 03       		.uleb128 0x3
 6356 16b2 C91B0000 		.4byte	0x1bc9
 6357 16b6 2C000000 		.4byte	.LBI354
 6358 16ba 02       		.byte	.LVU267
 6359 16bb 2C000000 		.4byte	.LBB354
 6360 16bf 06000000 		.4byte	.LBE354-.LBB354
 6361 16c3 01       		.byte	0x1
 6362 16c4 0201     		.2byte	0x102
 6363 16c6 03       		.byte	0x3
 6364 16c7 03       		.uleb128 0x3
 6365 16c8 F61B0000 		.4byte	0x1bf6
 6366 16cc 2C000000 		.4byte	.LBI355
 6367 16d0 04       		.byte	.LVU269
 6368 16d1 2C000000 		.4byte	.LBB355
 6369 16d5 06000000 		.4byte	.LBE355-.LBB355
 6370 16d9 02       		.byte	0x2
 6371 16da 4A02     		.2byte	0x24a
 6372 16dc 03       		.byte	0x3
 6373 16dd 03       		.uleb128 0x3
 6374 16de 2B1C0000 		.4byte	0x1c2b
 6375 16e2 2C000000 		.4byte	.LBI357
 6376 16e6 0B       		.byte	.LVU276
 6377 16e7 2C000000 		.4byte	.LBB357
 6378 16eb 06000000 		.4byte	.LBE357-.LBB357
 6379 16ef 06       		.byte	0x6
 6380 16f0 B201     		.2byte	0x1b2
 6381 16f2 03       		.byte	0x3
 6382 16f3 03       		.uleb128 0x3
 6383 16f4 3D1C0000 		.4byte	0x1c3d
 6384 16f8 2C000000 		.4byte	.LBI358
ARM GAS  C:\Users\DEVELO~1\AppData\Local\Temp\ccpJqkfg.s 			page 113


 6385 16fc 0D       		.byte	.LVU278
 6386 16fd 2C000000 		.4byte	.LBB358
 6387 1701 06000000 		.4byte	.LBE358-.LBB358
 6388 1705 07       		.byte	0x7
 6389 1706 4103     		.2byte	0x341
 6390 1708 03       		.byte	0x3
 6391 1709 01       		.uleb128 0x1
 6392 170a 4A1C0000 		.4byte	0x1c4a
 6393 170e 010B0000 		.4byte	.LLST49
 6394 1712 FF0A0000 		.4byte	.LVUS49
 6395 1716 00       		.byte	0
 6396 1717 00       		.byte	0
 6397 1718 00       		.byte	0
 6398 1719 00       		.byte	0
 6399 171a 00       		.byte	0
 6400 171b 42       		.uleb128 0x42
 6401 171c 1A030000 		.4byte	.LASF72
 6402 1720 01       		.byte	0x1
 6403 1721 DE       		.byte	0xde
 6404 1722 09       		.byte	0x9
 6405 1723 DF000000 		.4byte	0xdf
 6406 1727 01       		.byte	0x1
 6407 1728 5A170000 		.4byte	0x175a
 6408 172c 31       		.uleb128 0x31
 6409 172d 8E000000 		.4byte	.LASF68
 6410 1731 DE       		.byte	0xde
 6411 1732 39       		.byte	0x39
 6412 1733 6D130000 		.4byte	0x136d
 6413 1737 31       		.uleb128 0x31
 6414 1738 D1050000 		.4byte	.LASF53
 6415 173c DF       		.byte	0xdf
 6416 173d 30       		.byte	0x30
 6417 173e EB000000 		.4byte	0xeb
 6418 1742 0B       		.uleb128 0xb
 6419 1743 A8020000 		.4byte	.LASF56
 6420 1747 6A170000 		.4byte	0x176a
 6421 174b 2D       		.uleb128 0x2d
 6422 174c 43       		.uleb128 0x43
 6423 174d 6D736700 		.ascii	"msg\000"
 6424 1751 01       		.byte	0x1
 6425 1752 E7       		.byte	0xe7
 6426 1753 0B       		.byte	0xb
 6427 1754 DF000000 		.4byte	0xdf
 6428 1758 00       		.byte	0
 6429 1759 00       		.byte	0
 6430 175a 15       		.uleb128 0x15
 6431 175b B1000000 		.4byte	0xb1
 6432 175f 6A170000 		.4byte	0x176a
 6433 1763 16       		.uleb128 0x16
 6434 1764 3E000000 		.4byte	0x3e
 6435 1768 18       		.byte	0x18
 6436 1769 00       		.byte	0
 6437 176a 0D       		.uleb128 0xd
 6438 176b 5A170000 		.4byte	0x175a
 6439 176f 32       		.uleb128 0x32
 6440 1770 76020000 		.4byte	.LASF73
 6441 1774 BE       		.byte	0xbe
ARM GAS  C:\Users\DEVELO~1\AppData\Local\Temp\ccpJqkfg.s 			page 114


 6442 1775 07       		.byte	0x7
 6443 1776 DF000000 		.4byte	0xdf
 6444 177a 00000000 		.4byte	.LFB435
 6445 177e 46000000 		.4byte	.LFE435-.LFB435
 6446 1782 01       		.uleb128 0x1
 6447 1783 9C       		.byte	0x9c
 6448 1784 2C190000 		.4byte	0x192c
 6449 1788 0C       		.uleb128 0xc
 6450 1789 8E000000 		.4byte	.LASF68
 6451 178d BE       		.byte	0xbe
 6452 178e 36       		.byte	0x36
 6453 178f 6D130000 		.4byte	0x136d
 6454 1793 170B0000 		.4byte	.LLST19
 6455 1797 0B0B0000 		.4byte	.LVUS19
 6456 179b 0C       		.uleb128 0xc
 6457 179c D1050000 		.4byte	.LASF53
 6458 17a0 BF       		.byte	0xbf
 6459 17a1 2D       		.byte	0x2d
 6460 17a2 EB000000 		.4byte	0xeb
 6461 17a6 450B0000 		.4byte	.LLST20
 6462 17aa 3B0B0000 		.4byte	.LVUS20
 6463 17ae 44       		.uleb128 0x44
 6464 17af 6D736700 		.ascii	"msg\000"
 6465 17b3 01       		.byte	0x1
 6466 17b4 C0       		.byte	0xc0
 6467 17b5 09       		.byte	0x9
 6468 17b6 DF000000 		.4byte	0xdf
 6469 17ba 680B0000 		.4byte	.LLST21
 6470 17be 640B0000 		.4byte	.LVUS21
 6471 17c2 33       		.uleb128 0x33
 6472 17c3 D21B0000 		.4byte	0x1bd2
 6473 17c7 06000000 		.4byte	.LBI265
 6474 17cb 02       		.byte	.LVU106
 6475 17cc 3F000000 		.4byte	.LLRL22
 6476 17d0 C2       		.byte	0xc2
 6477 17d1 03       		.byte	0x3
 6478 17d2 1D180000 		.4byte	0x181d
 6479 17d6 02       		.uleb128 0x2
 6480 17d7 221C0000 		.4byte	0x1c22
 6481 17db 06000000 		.4byte	.LBI266
 6482 17df 04       		.byte	.LVU108
 6483 17e0 3F000000 		.4byte	.LLRL22
 6484 17e4 02       		.byte	0x2
 6485 17e5 3F02     		.2byte	0x23f
 6486 17e7 03       		.byte	0x3
 6487 17e8 02       		.uleb128 0x2
 6488 17e9 341C0000 		.4byte	0x1c34
 6489 17ed 06000000 		.4byte	.LBI267
 6490 17f1 06       		.byte	.LVU110
 6491 17f2 3F000000 		.4byte	.LLRL22
 6492 17f6 06       		.byte	0x6
 6493 17f7 9901     		.2byte	0x199
 6494 17f9 03       		.byte	0x3
 6495 17fa 02       		.uleb128 0x2
 6496 17fb 3D1C0000 		.4byte	0x1c3d
 6497 17ff 06000000 		.4byte	.LBI268
 6498 1803 08       		.byte	.LVU112
ARM GAS  C:\Users\DEVELO~1\AppData\Local\Temp\ccpJqkfg.s 			page 115


 6499 1804 3F000000 		.4byte	.LLRL22
 6500 1808 07       		.byte	0x7
 6501 1809 2E03     		.2byte	0x32e
 6502 180b 03       		.byte	0x3
 6503 180c 01       		.uleb128 0x1
 6504 180d 4A1C0000 		.4byte	0x1c4a
 6505 1811 7A0B0000 		.4byte	.LLST23
 6506 1815 780B0000 		.4byte	.LVUS23
 6507 1819 00       		.byte	0
 6508 181a 00       		.byte	0
 6509 181b 00       		.byte	0
 6510 181c 00       		.byte	0
 6511 181d 33       		.uleb128 0x33
 6512 181e 1B170000 		.4byte	0x171b
 6513 1822 0C000000 		.4byte	.LBI280
 6514 1826 04       		.byte	.LVU120
 6515 1827 4E000000 		.4byte	.LLRL24
 6516 182b C3       		.byte	0xc3
 6517 182c 09       		.byte	0x9
 6518 182d CE180000 		.4byte	0x18ce
 6519 1831 01       		.uleb128 0x1
 6520 1832 37170000 		.4byte	0x1737
 6521 1836 8D0B0000 		.4byte	.LLST25
 6522 183a 850B0000 		.4byte	.LVUS25
 6523 183e 01       		.uleb128 0x1
 6524 183f 2C170000 		.4byte	0x172c
 6525 1843 B10B0000 		.4byte	.LLST26
 6526 1847 A70B0000 		.4byte	.LVUS26
 6527 184b 09       		.uleb128 0x9
 6528 184c 4E000000 		.4byte	.LLRL24
 6529 1850 11       		.uleb128 0x11
 6530 1851 4B170000 		.4byte	0x174b
 6531 1855 5A000000 		.4byte	.LLRL27
 6532 1859 9F180000 		.4byte	0x189f
 6533 185d 12       		.uleb128 0x12
 6534 185e 4C170000 		.4byte	0x174c
 6535 1862 D20B0000 		.4byte	.LLST28
 6536 1866 D00B0000 		.4byte	.LVUS28
 6537 186a 17       		.uleb128 0x17
 6538 186b 811B0000 		.4byte	0x1b81
 6539 186f 1A000000 		.4byte	.LBI283
 6540 1873 02       		.byte	.LVU132
 6541 1874 69000000 		.4byte	.LLRL29
 6542 1878 E7       		.byte	0xe7
 6543 1879 11       		.byte	0x11
 6544 187a 01       		.uleb128 0x1
 6545 187b A01B0000 		.4byte	0x1ba0
 6546 187f E50B0000 		.4byte	.LLST30
 6547 1883 DB0B0000 		.4byte	.LVUS30
 6548 1887 01       		.uleb128 0x1
 6549 1888 931B0000 		.4byte	0x1b93
 6550 188c 120C0000 		.4byte	.LLST31
 6551 1890 040C0000 		.4byte	.LVUS31
 6552 1894 13       		.uleb128 0x13
 6553 1895 16000000 		.4byte	.LVL24
 6554 1899 94020000 		.4byte	0x294
 6555 189d 00       		.byte	0
ARM GAS  C:\Users\DEVELO~1\AppData\Local\Temp\ccpJqkfg.s 			page 116


 6556 189e 00       		.byte	0
 6557 189f 24       		.uleb128 0x24
 6558 18a0 1B170000 		.4byte	0x171b
 6559 18a4 24000000 		.4byte	.LBI290
 6560 18a8 00       		.byte	.LVU137
 6561 18a9 24000000 		.4byte	.LBB290
 6562 18ad 0E000000 		.4byte	.LBE290-.LBB290
 6563 18b1 01       		.uleb128 0x1
 6564 18b2 37170000 		.4byte	0x1737
 6565 18b6 3D0C0000 		.4byte	.LLST32
 6566 18ba 3B0C0000 		.4byte	.LVUS32
 6567 18be 01       		.uleb128 0x1
 6568 18bf 2C170000 		.4byte	0x172c
 6569 18c3 4A0C0000 		.4byte	.LLST33
 6570 18c7 460C0000 		.4byte	.LVUS33
 6571 18cb 00       		.byte	0
 6572 18cc 00       		.byte	0
 6573 18cd 00       		.byte	0
 6574 18ce 17       		.uleb128 0x17
 6575 18cf C91B0000 		.4byte	0x1bc9
 6576 18d3 32000000 		.4byte	.LBI294
 6577 18d7 03       		.byte	.LVU150
 6578 18d8 78000000 		.4byte	.LLRL34
 6579 18dc C4       		.byte	0xc4
 6580 18dd 03       		.byte	0x3
 6581 18de 02       		.uleb128 0x2
 6582 18df F61B0000 		.4byte	0x1bf6
 6583 18e3 32000000 		.4byte	.LBI295
 6584 18e7 05       		.byte	.LVU152
 6585 18e8 78000000 		.4byte	.LLRL34
 6586 18ec 02       		.byte	0x2
 6587 18ed 4A02     		.2byte	0x24a
 6588 18ef 03       		.byte	0x3
 6589 18f0 09       		.uleb128 0x9
 6590 18f1 78000000 		.4byte	.LLRL34
 6591 18f5 02       		.uleb128 0x2
 6592 18f6 2B1C0000 		.4byte	0x1c2b
 6593 18fa 32000000 		.4byte	.LBI297
 6594 18fe 0C       		.byte	.LVU159
 6595 18ff 78000000 		.4byte	.LLRL34
 6596 1903 06       		.byte	0x6
 6597 1904 B201     		.2byte	0x1b2
 6598 1906 03       		.byte	0x3
 6599 1907 02       		.uleb128 0x2
 6600 1908 3D1C0000 		.4byte	0x1c3d
 6601 190c 32000000 		.4byte	.LBI298
 6602 1910 0E       		.byte	.LVU161
 6603 1911 78000000 		.4byte	.LLRL34
 6604 1915 07       		.byte	0x7
 6605 1916 4103     		.2byte	0x341
 6606 1918 03       		.byte	0x3
 6607 1919 01       		.uleb128 0x1
 6608 191a 4A1C0000 		.4byte	0x1c4a
 6609 191e 5E0C0000 		.4byte	.LLST35
 6610 1922 5A0C0000 		.4byte	.LVUS35
 6611 1926 00       		.byte	0
 6612 1927 00       		.byte	0
ARM GAS  C:\Users\DEVELO~1\AppData\Local\Temp\ccpJqkfg.s 			page 117


 6613 1928 00       		.byte	0
 6614 1929 00       		.byte	0
 6615 192a 00       		.byte	0
 6616 192b 00       		.byte	0
 6617 192c 25       		.uleb128 0x25
 6618 192d 1A000000 		.4byte	.LASF74
 6619 1931 94       		.byte	0x94
 6620 1932 00000000 		.4byte	.LFB434
 6621 1936 24000000 		.4byte	.LFE434-.LFB434
 6622 193a 01       		.uleb128 0x1
 6623 193b 9C       		.byte	0x9c
 6624 193c A9190000 		.4byte	0x19a9
 6625 1940 0C       		.uleb128 0xc
 6626 1941 8E000000 		.4byte	.LASF68
 6627 1945 94       		.byte	0x94
 6628 1946 30       		.byte	0x30
 6629 1947 6D130000 		.4byte	0x136d
 6630 194b 740C0000 		.4byte	.LLST15
 6631 194f 700C0000 		.4byte	.LVUS15
 6632 1953 0C       		.uleb128 0xc
 6633 1954 F3040000 		.4byte	.LASF50
 6634 1958 94       		.byte	0x94
 6635 1959 3D       		.byte	0x3d
 6636 195a 2D000000 		.4byte	0x2d
 6637 195e 8F0C0000 		.4byte	.LLST16
 6638 1962 870C0000 		.4byte	.LVUS16
 6639 1966 0B       		.uleb128 0xb
 6640 1967 A8020000 		.4byte	.LASF56
 6641 196b 850A0000 		.4byte	0xa85
 6642 196f 17       		.uleb128 0x17
 6643 1970 591B0000 		.4byte	0x1b59
 6644 1974 1C000000 		.4byte	.LBI240
 6645 1978 01       		.byte	.LVU95
 6646 1979 33000000 		.4byte	.LLRL17
 6647 197d A6       		.byte	0xa6
 6648 197e 03       		.byte	0x3
 6649 197f 2E       		.uleb128 0x2e
 6650 1980 731B0000 		.4byte	0x1b73
 6651 1984 01       		.uleb128 0x1
 6652 1985 661B0000 		.4byte	0x1b66
 6653 1989 B30C0000 		.4byte	.LLST18
 6654 198d AF0C0000 		.4byte	.LVUS18
 6655 1991 23       		.uleb128 0x23
 6656 1992 24000000 		.4byte	.LVL19
 6657 1996 B5020000 		.4byte	0x2b5
 6658 199a 05       		.uleb128 0x5
 6659 199b 01       		.uleb128 0x1
 6660 199c 50       		.byte	0x50
 6661 199d 03       		.uleb128 0x3
 6662 199e A3       		.byte	0xa3
 6663 199f 01       		.uleb128 0x1
 6664 19a0 50       		.byte	0x50
 6665 19a1 05       		.uleb128 0x5
 6666 19a2 01       		.uleb128 0x1
 6667 19a3 51       		.byte	0x51
 6668 19a4 01       		.uleb128 0x1
 6669 19a5 30       		.byte	0x30
ARM GAS  C:\Users\DEVELO~1\AppData\Local\Temp\ccpJqkfg.s 			page 118


 6670 19a6 00       		.byte	0
 6671 19a7 00       		.byte	0
 6672 19a8 00       		.byte	0
 6673 19a9 32       		.uleb128 0x32
 6674 19aa CD000000 		.4byte	.LASF75
 6675 19ae 81       		.byte	0x81
 6676 19af 0A       		.byte	0xa
 6677 19b0 3E010000 		.4byte	0x13e
 6678 19b4 00000000 		.4byte	.LFB433
 6679 19b8 16000000 		.4byte	.LFE433-.LFB433
 6680 19bc 01       		.uleb128 0x1
 6681 19bd 9C       		.byte	0x9c
 6682 19be D6190000 		.4byte	0x19d6
 6683 19c2 0C       		.uleb128 0xc
 6684 19c3 8E000000 		.4byte	.LASF68
 6685 19c7 81       		.byte	0x81
 6686 19c8 34       		.byte	0x34
 6687 19c9 6D130000 		.4byte	0x136d
 6688 19cd CE0C0000 		.4byte	.LLST14
 6689 19d1 C60C0000 		.4byte	.LVUS14
 6690 19d5 00       		.byte	0
 6691 19d6 25       		.uleb128 0x25
 6692 19d7 43030000 		.4byte	.LASF76
 6693 19db 6B       		.byte	0x6b
 6694 19dc 00000000 		.4byte	.LFB432
 6695 19e0 1A000000 		.4byte	.LFE432-.LFB432
 6696 19e4 01       		.uleb128 0x1
 6697 19e5 9C       		.byte	0x9c
 6698 19e6 381A0000 		.4byte	0x1a38
 6699 19ea 0C       		.uleb128 0xc
 6700 19eb 8E000000 		.4byte	.LASF68
 6701 19ef 6B       		.byte	0x6b
 6702 19f0 27       		.byte	0x27
 6703 19f1 6D130000 		.4byte	0x136d
 6704 19f5 F20C0000 		.4byte	.LLST11
 6705 19f9 EE0C0000 		.4byte	.LVUS11
 6706 19fd 17       		.uleb128 0x17
 6707 19fe 311B0000 		.4byte	0x1b31
 6708 1a02 10000000 		.4byte	.LBI234
 6709 1a06 03       		.byte	.LVU52
 6710 1a07 24000000 		.4byte	.LLRL12
 6711 1a0b 74       		.byte	0x74
 6712 1a0c 03       		.byte	0x3
 6713 1a0d 30       		.uleb128 0x30
 6714 1a0e 4B1B0000 		.4byte	0x1b4b
 6715 1a12 01       		.uleb128 0x1
 6716 1a13 3E1B0000 		.4byte	0x1b3e
 6717 1a17 090D0000 		.4byte	.LLST13
 6718 1a1b 050D0000 		.4byte	.LVUS13
 6719 1a1f 23       		.uleb128 0x23
 6720 1a20 1A000000 		.4byte	.LVL9
 6721 1a24 CB020000 		.4byte	0x2cb
 6722 1a28 05       		.uleb128 0x5
 6723 1a29 01       		.uleb128 0x1
 6724 1a2a 50       		.byte	0x50
 6725 1a2b 03       		.uleb128 0x3
 6726 1a2c A3       		.byte	0xa3
ARM GAS  C:\Users\DEVELO~1\AppData\Local\Temp\ccpJqkfg.s 			page 119


 6727 1a2d 01       		.uleb128 0x1
 6728 1a2e 50       		.byte	0x50
 6729 1a2f 05       		.uleb128 0x5
 6730 1a30 01       		.uleb128 0x1
 6731 1a31 51       		.byte	0x51
 6732 1a32 02       		.uleb128 0x2
 6733 1a33 09       		.byte	0x9
 6734 1a34 FE       		.byte	0xfe
 6735 1a35 00       		.byte	0
 6736 1a36 00       		.byte	0
 6737 1a37 00       		.byte	0
 6738 1a38 25       		.uleb128 0x25
 6739 1a39 D2040000 		.4byte	.LASF77
 6740 1a3d 4C       		.byte	0x4c
 6741 1a3e 00000000 		.4byte	.LFB431
 6742 1a42 30000000 		.4byte	.LFE431-.LFB431
 6743 1a46 01       		.uleb128 0x1
 6744 1a47 9C       		.byte	0x9c
 6745 1a48 311B0000 		.4byte	0x1b31
 6746 1a4c 45       		.uleb128 0x45
 6747 1a4d 8E000000 		.4byte	.LASF68
 6748 1a51 01       		.byte	0x1
 6749 1a52 4C       		.byte	0x4c
 6750 1a53 2B       		.byte	0x2b
 6751 1a54 6D130000 		.4byte	0x136d
 6752 1a58 01       		.uleb128 0x1
 6753 1a59 50       		.byte	0x50
 6754 1a5a 0C       		.uleb128 0xc
 6755 1a5b E5030000 		.4byte	.LASF33
 6756 1a5f 4C       		.byte	0x4c
 6757 1a60 36       		.byte	0x36
 6758 1a61 6A010000 		.4byte	0x16a
 6759 1a65 200D0000 		.4byte	.LLST0
 6760 1a69 1C0D0000 		.4byte	.LVUS0
 6761 1a6d 34       		.uleb128 0x34
 6762 1a6e 627000   		.ascii	"bp\000"
 6763 1a71 4C       		.byte	0x4c
 6764 1a72 4A       		.byte	0x4a
 6765 1a73 3E010000 		.4byte	0x13e
 6766 1a77 350D0000 		.4byte	.LLST1
 6767 1a7b 310D0000 		.4byte	.LVUS1
 6768 1a7f 0C       		.uleb128 0xc
 6769 1a80 F3040000 		.4byte	.LASF50
 6770 1a84 4D       		.byte	0x4d
 6771 1a85 1B       		.byte	0x1b
 6772 1a86 2D000000 		.4byte	0x2d
 6773 1a8a 4C0D0000 		.4byte	.LLST2
 6774 1a8e 460D0000 		.4byte	.LVUS2
 6775 1a92 34       		.uleb128 0x34
 6776 1a93 6E00     		.ascii	"n\000"
 6777 1a95 4D       		.byte	0x4d
 6778 1a96 28       		.byte	0x28
 6779 1a97 2D000000 		.4byte	0x2d
 6780 1a9b 6C0D0000 		.4byte	.LLST3
 6781 1a9f 680D0000 		.4byte	.LVUS3
 6782 1aa3 0C       		.uleb128 0xc
 6783 1aa4 68050000 		.4byte	.LASF78
ARM GAS  C:\Users\DEVELO~1\AppData\Local\Temp\ccpJqkfg.s 			page 120


 6784 1aa8 4D       		.byte	0x4d
 6785 1aa9 36       		.byte	0x36
 6786 1aaa 35020000 		.4byte	0x235
 6787 1aae 820D0000 		.4byte	.LLST4
 6788 1ab2 7E0D0000 		.4byte	.LVUS4
 6789 1ab6 0C       		.uleb128 0xc
 6790 1ab7 3D010000 		.4byte	.LASF41
 6791 1abb 4D       		.byte	0x4d
 6792 1abc 42       		.byte	0x42
 6793 1abd A8000000 		.4byte	0xa8
 6794 1ac1 980D0000 		.4byte	.LLST5
 6795 1ac5 940D0000 		.4byte	.LVUS5
 6796 1ac9 0B       		.uleb128 0xb
 6797 1aca A8020000 		.4byte	.LASF56
 6798 1ace 33100000 		.4byte	0x1033
 6799 1ad2 17       		.uleb128 0x17
 6800 1ad3 AE1B0000 		.4byte	0x1bae
 6801 1ad7 06000000 		.4byte	.LBI224
 6802 1adb 00       		.byte	.LVU8
 6803 1adc 0C000000 		.4byte	.LLRL6
 6804 1ae0 51       		.byte	0x51
 6805 1ae1 03       		.byte	0x3
 6806 1ae2 01       		.uleb128 0x1
 6807 1ae3 BB1B0000 		.4byte	0x1bbb
 6808 1ae7 AC0D0000 		.4byte	.LLST7
 6809 1aeb AA0D0000 		.4byte	.LVUS7
 6810 1aef 02       		.uleb128 0x2
 6811 1af0 DB1B0000 		.4byte	0x1bdb
 6812 1af4 06000000 		.4byte	.LBI225
 6813 1af8 02       		.byte	.LVU10
 6814 1af9 0C000000 		.4byte	.LLRL6
 6815 1afd 02       		.byte	0x2
 6816 1afe 6203     		.2byte	0x362
 6817 1b00 03       		.byte	0x3
 6818 1b01 01       		.uleb128 0x1
 6819 1b02 E81B0000 		.4byte	0x1be8
 6820 1b06 B70D0000 		.4byte	.LLST8
 6821 1b0a B50D0000 		.4byte	.LVUS8
 6822 1b0e 02       		.uleb128 0x2
 6823 1b0f 581C0000 		.4byte	0x1c58
 6824 1b13 06000000 		.4byte	.LBI227
 6825 1b17 04       		.byte	.LVU12
 6826 1b18 18000000 		.4byte	.LLRL9
 6827 1b1c 03       		.byte	0x3
 6828 1b1d CF01     		.2byte	0x1cf
 6829 1b1f 03       		.byte	0x3
 6830 1b20 01       		.uleb128 0x1
 6831 1b21 651C0000 		.4byte	0x1c65
 6832 1b25 C20D0000 		.4byte	.LLST10
 6833 1b29 C00D0000 		.4byte	.LVUS10
 6834 1b2d 00       		.byte	0
 6835 1b2e 00       		.byte	0
 6836 1b2f 00       		.byte	0
 6837 1b30 00       		.byte	0
 6838 1b31 1E       		.uleb128 0x1e
 6839 1b32 60020000 		.4byte	.LASF79
 6840 1b36 02       		.byte	0x2
ARM GAS  C:\Users\DEVELO~1\AppData\Local\Temp\ccpJqkfg.s 			page 121


 6841 1b37 9703     		.2byte	0x397
 6842 1b39 14       		.byte	0x14
 6843 1b3a 591B0000 		.4byte	0x1b59
 6844 1b3e 1D       		.uleb128 0x1d
 6845 1b3f 74717000 		.ascii	"tqp\000"
 6846 1b43 02       		.byte	0x2
 6847 1b44 9703     		.2byte	0x397
 6848 1b46 3B       		.byte	0x3b
 6849 1b47 B0020000 		.4byte	0x2b0
 6850 1b4b 1D       		.uleb128 0x1d
 6851 1b4c 6D736700 		.ascii	"msg\000"
 6852 1b50 02       		.byte	0x2
 6853 1b51 9703     		.2byte	0x397
 6854 1b53 46       		.byte	0x46
 6855 1b54 DF000000 		.4byte	0xdf
 6856 1b58 00       		.byte	0
 6857 1b59 1E       		.uleb128 0x1e
 6858 1b5a A4000000 		.4byte	.LASF80
 6859 1b5e 02       		.byte	0x2
 6860 1b5f 8A03     		.2byte	0x38a
 6861 1b61 14       		.byte	0x14
 6862 1b62 811B0000 		.4byte	0x1b81
 6863 1b66 1D       		.uleb128 0x1d
 6864 1b67 74717000 		.ascii	"tqp\000"
 6865 1b6b 02       		.byte	0x2
 6866 1b6c 8A03     		.2byte	0x38a
 6867 1b6e 3C       		.byte	0x3c
 6868 1b6f B0020000 		.4byte	0x2b0
 6869 1b73 1D       		.uleb128 0x1d
 6870 1b74 6D736700 		.ascii	"msg\000"
 6871 1b78 02       		.byte	0x2
 6872 1b79 8A03     		.2byte	0x38a
 6873 1b7b 47       		.byte	0x47
 6874 1b7c DF000000 		.4byte	0xdf
 6875 1b80 00       		.byte	0
 6876 1b81 46       		.uleb128 0x46
 6877 1b82 00000000 		.4byte	.LASF95
 6878 1b86 02       		.byte	0x2
 6879 1b87 7C03     		.2byte	0x37c
 6880 1b89 15       		.byte	0x15
 6881 1b8a DF000000 		.4byte	0xdf
 6882 1b8e 03       		.byte	0x3
 6883 1b8f AE1B0000 		.4byte	0x1bae
 6884 1b93 1D       		.uleb128 0x1d
 6885 1b94 74717000 		.ascii	"tqp\000"
 6886 1b98 02       		.byte	0x2
 6887 1b99 7C03     		.2byte	0x37c
 6888 1b9b 40       		.byte	0x40
 6889 1b9c B0020000 		.4byte	0x2b0
 6890 1ba0 1C       		.uleb128 0x1c
 6891 1ba1 D1050000 		.4byte	.LASF53
 6892 1ba5 02       		.byte	0x2
 6893 1ba6 7D03     		.2byte	0x37d
 6894 1ba8 3D       		.byte	0x3d
 6895 1ba9 EB000000 		.4byte	0xeb
 6896 1bad 00       		.byte	0
 6897 1bae 1E       		.uleb128 0x1e
ARM GAS  C:\Users\DEVELO~1\AppData\Local\Temp\ccpJqkfg.s 			page 122


 6898 1baf A0010000 		.4byte	.LASF81
 6899 1bb3 02       		.byte	0x2
 6900 1bb4 6003     		.2byte	0x360
 6901 1bb6 14       		.byte	0x14
 6902 1bb7 C91B0000 		.4byte	0x1bc9
 6903 1bbb 1D       		.uleb128 0x1d
 6904 1bbc 74717000 		.ascii	"tqp\000"
 6905 1bc0 02       		.byte	0x2
 6906 1bc1 6003     		.2byte	0x360
 6907 1bc3 3F       		.byte	0x3f
 6908 1bc4 B0020000 		.4byte	0x2b0
 6909 1bc8 00       		.byte	0
 6910 1bc9 21       		.uleb128 0x21
 6911 1bca 80000000 		.4byte	.LASF82
 6912 1bce 02       		.byte	0x2
 6913 1bcf 4802     		.2byte	0x248
 6914 1bd1 14       		.byte	0x14
 6915 1bd2 21       		.uleb128 0x21
 6916 1bd3 8E020000 		.4byte	.LASF83
 6917 1bd7 02       		.byte	0x2
 6918 1bd8 3D02     		.2byte	0x23d
 6919 1bda 14       		.byte	0x14
 6920 1bdb 1E       		.uleb128 0x1e
 6921 1bdc D0030000 		.4byte	.LASF84
 6922 1be0 03       		.byte	0x3
 6923 1be1 CD01     		.2byte	0x1cd
 6924 1be3 14       		.byte	0x14
 6925 1be4 F61B0000 		.4byte	0x1bf6
 6926 1be8 1D       		.uleb128 0x1d
 6927 1be9 74717000 		.ascii	"tqp\000"
 6928 1bed 03       		.byte	0x3
 6929 1bee CD01     		.2byte	0x1cd
 6930 1bf0 3A       		.byte	0x3a
 6931 1bf1 B0020000 		.4byte	0x2b0
 6932 1bf5 00       		.byte	0
 6933 1bf6 1E       		.uleb128 0x1e
 6934 1bf7 F8040000 		.4byte	.LASF85
 6935 1bfb 06       		.byte	0x6
 6936 1bfc A501     		.2byte	0x1a5
 6937 1bfe 14       		.byte	0x14
 6938 1bff 0D1C0000 		.4byte	0x1c0d
 6939 1c03 0B       		.uleb128 0xb
 6940 1c04 A8020000 		.4byte	.LASF56
 6941 1c08 1D1C0000 		.4byte	0x1c1d
 6942 1c0c 00       		.byte	0
 6943 1c0d 15       		.uleb128 0x15
 6944 1c0e B1000000 		.4byte	0xb1
 6945 1c12 1D1C0000 		.4byte	0x1c1d
 6946 1c16 16       		.uleb128 0x16
 6947 1c17 3E000000 		.4byte	0x3e
 6948 1c1b 0B       		.byte	0xb
 6949 1c1c 00       		.byte	0
 6950 1c1d 0D       		.uleb128 0xd
 6951 1c1e 0D1C0000 		.4byte	0x1c0d
 6952 1c22 21       		.uleb128 0x21
 6953 1c23 42010000 		.4byte	.LASF86
 6954 1c27 06       		.byte	0x6
ARM GAS  C:\Users\DEVELO~1\AppData\Local\Temp\ccpJqkfg.s 			page 123


 6955 1c28 9701     		.2byte	0x197
 6956 1c2a 14       		.byte	0x14
 6957 1c2b 21       		.uleb128 0x21
 6958 1c2c FA030000 		.4byte	.LASF87
 6959 1c30 07       		.byte	0x7
 6960 1c31 3E03     		.2byte	0x33e
 6961 1c33 1B       		.byte	0x1b
 6962 1c34 21       		.uleb128 0x21
 6963 1c35 93000000 		.4byte	.LASF88
 6964 1c39 07       		.byte	0x7
 6965 1c3a 2603     		.2byte	0x326
 6966 1c3c 1B       		.byte	0x1b
 6967 1c3d 1E       		.uleb128 0x1e
 6968 1c3e 2D000000 		.4byte	.LASF89
 6969 1c42 05       		.byte	0x5
 6970 1c43 EB01     		.2byte	0x1eb
 6971 1c45 1B       		.byte	0x1b
 6972 1c46 581C0000 		.4byte	0x1c58
 6973 1c4a 1C       		.uleb128 0x1c
 6974 1c4b 73030000 		.4byte	.LASF90
 6975 1c4f 05       		.byte	0x5
 6976 1c50 EB01     		.2byte	0x1eb
 6977 1c52 32       		.byte	0x32
 6978 1c53 D3000000 		.4byte	0xd3
 6979 1c57 00       		.byte	0
 6980 1c58 47       		.uleb128 0x47
 6981 1c59 BD050000 		.4byte	.LASF91
 6982 1c5d 04       		.byte	0x4
 6983 1c5e DE       		.byte	0xde
 6984 1c5f 14       		.byte	0x14
 6985 1c60 03       		.byte	0x3
 6986 1c61 711C0000 		.4byte	0x1c71
 6987 1c65 48       		.uleb128 0x48
 6988 1c66 717000   		.ascii	"qp\000"
 6989 1c69 04       		.byte	0x4
 6990 1c6a DE       		.byte	0xde
 6991 1c6b 2E       		.byte	0x2e
 6992 1c6c 2B010000 		.4byte	0x12b
 6993 1c70 00       		.byte	0
 6994 1c71 26       		.uleb128 0x26
 6995 1c72 1B170000 		.4byte	0x171b
 6996 1c76 00000000 		.4byte	.LFB436
 6997 1c7a 34000000 		.4byte	.LFE436-.LFB436
 6998 1c7e 01       		.uleb128 0x1
 6999 1c7f 9C       		.byte	0x9c
 7000 1c80 1B1D0000 		.4byte	0x1d1b
 7001 1c84 01       		.uleb128 0x1
 7002 1c85 2C170000 		.4byte	0x172c
 7003 1c89 D70D0000 		.4byte	.LLST36
 7004 1c8d CB0D0000 		.4byte	.LVUS36
 7005 1c91 01       		.uleb128 0x1
 7006 1c92 37170000 		.4byte	0x1737
 7007 1c96 050E0000 		.4byte	.LLST37
 7008 1c9a FB0D0000 		.4byte	.LVUS37
 7009 1c9e 11       		.uleb128 0x11
 7010 1c9f 4B170000 		.4byte	0x174b
 7011 1ca3 84000000 		.4byte	.LLRL38
ARM GAS  C:\Users\DEVELO~1\AppData\Local\Temp\ccpJqkfg.s 			page 124


 7012 1ca7 ED1C0000 		.4byte	0x1ced
 7013 1cab 12       		.uleb128 0x12
 7014 1cac 4C170000 		.4byte	0x174c
 7015 1cb0 260E0000 		.4byte	.LLST39
 7016 1cb4 240E0000 		.4byte	.LVUS39
 7017 1cb8 17       		.uleb128 0x17
 7018 1cb9 811B0000 		.4byte	0x1b81
 7019 1cbd 14000000 		.4byte	.LBI319
 7020 1cc1 02       		.byte	.LVU201
 7021 1cc2 93000000 		.4byte	.LLRL40
 7022 1cc6 E7       		.byte	0xe7
 7023 1cc7 11       		.byte	0x11
 7024 1cc8 01       		.uleb128 0x1
 7025 1cc9 A01B0000 		.4byte	0x1ba0
 7026 1ccd 390E0000 		.4byte	.LLST41
 7027 1cd1 2F0E0000 		.4byte	.LVUS41
 7028 1cd5 01       		.uleb128 0x1
 7029 1cd6 931B0000 		.4byte	0x1b93
 7030 1cda 660E0000 		.4byte	.LLST42
 7031 1cde 580E0000 		.4byte	.LVUS42
 7032 1ce2 13       		.uleb128 0x13
 7033 1ce3 10000000 		.4byte	.LVL35
 7034 1ce7 94020000 		.4byte	0x294
 7035 1ceb 00       		.byte	0
 7036 1cec 00       		.byte	0
 7037 1ced 24       		.uleb128 0x24
 7038 1cee 1B170000 		.4byte	0x171b
 7039 1cf2 1E000000 		.4byte	.LBI326
 7040 1cf6 00       		.byte	.LVU206
 7041 1cf7 1E000000 		.4byte	.LBB326
 7042 1cfb 0E000000 		.4byte	.LBE326-.LBB326
 7043 1cff 01       		.uleb128 0x1
 7044 1d00 37170000 		.4byte	0x1737
 7045 1d04 910E0000 		.4byte	.LLST43
 7046 1d08 8F0E0000 		.4byte	.LVUS43
 7047 1d0c 01       		.uleb128 0x1
 7048 1d0d 2C170000 		.4byte	0x172c
 7049 1d11 9E0E0000 		.4byte	.LLST44
 7050 1d15 9A0E0000 		.4byte	.LVUS44
 7051 1d19 00       		.byte	0
 7052 1d1a 00       		.byte	0
 7053 1d1b 26       		.uleb128 0x26
 7054 1d1c D7150000 		.4byte	0x15d7
 7055 1d20 00000000 		.4byte	.LFB438
 7056 1d24 26000000 		.4byte	.LFE438-.LFB438
 7057 1d28 01       		.uleb128 0x1
 7058 1d29 9C       		.byte	0x9c
 7059 1d2a 491D0000 		.4byte	0x1d49
 7060 1d2e 01       		.uleb128 0x1
 7061 1d2f E3150000 		.4byte	0x15e3
 7062 1d33 B40E0000 		.4byte	.LLST50
 7063 1d37 AE0E0000 		.4byte	.LVUS50
 7064 1d3b 35       		.uleb128 0x35
 7065 1d3c 24000000 		.4byte	.LVL47
 7066 1d40 05       		.uleb128 0x5
 7067 1d41 01       		.uleb128 0x1
 7068 1d42 50       		.byte	0x50
ARM GAS  C:\Users\DEVELO~1\AppData\Local\Temp\ccpJqkfg.s 			page 125


 7069 1d43 03       		.uleb128 0x3
 7070 1d44 A3       		.byte	0xa3
 7071 1d45 01       		.uleb128 0x1
 7072 1d46 50       		.byte	0x50
 7073 1d47 00       		.byte	0
 7074 1d48 00       		.byte	0
 7075 1d49 26       		.uleb128 0x26
 7076 1d4a CE0B0000 		.4byte	0xbce
 7077 1d4e 00000000 		.4byte	.LFB446
 7078 1d52 34000000 		.4byte	.LFE446-.LFB446
 7079 1d56 01       		.uleb128 0x1
 7080 1d57 9C       		.byte	0x9c
 7081 1d58 F91D0000 		.4byte	0x1df9
 7082 1d5c 01       		.uleb128 0x1
 7083 1d5d E00B0000 		.4byte	0xbe0
 7084 1d61 D80E0000 		.4byte	.LLST128
 7085 1d65 CC0E0000 		.4byte	.LVUS128
 7086 1d69 01       		.uleb128 0x1
 7087 1d6a ED0B0000 		.4byte	0xbed
 7088 1d6e 060F0000 		.4byte	.LLST129
 7089 1d72 FC0E0000 		.4byte	.LVUS129
 7090 1d76 11       		.uleb128 0x11
 7091 1d77 030C0000 		.4byte	0xc03
 7092 1d7b DC010000 		.4byte	.LLRL130
 7093 1d7f C71D0000 		.4byte	0x1dc7
 7094 1d83 12       		.uleb128 0x12
 7095 1d84 040C0000 		.4byte	0xc04
 7096 1d88 270F0000 		.4byte	.LLST131
 7097 1d8c 250F0000 		.4byte	.LVUS131
 7098 1d90 02       		.uleb128 0x2
 7099 1d91 811B0000 		.4byte	0x1b81
 7100 1d95 14000000 		.4byte	.LBI617
 7101 1d99 02       		.byte	.LVU804
 7102 1d9a EB010000 		.4byte	.LLRL132
 7103 1d9e 01       		.byte	0x1
 7104 1d9f 4A02     		.2byte	0x24a
 7105 1da1 11       		.byte	0x11
 7106 1da2 01       		.uleb128 0x1
 7107 1da3 A01B0000 		.4byte	0x1ba0
 7108 1da7 3C0F0000 		.4byte	.LLST133
 7109 1dab 300F0000 		.4byte	.LVUS133
 7110 1daf 01       		.uleb128 0x1
 7111 1db0 931B0000 		.4byte	0x1b93
 7112 1db4 6E0F0000 		.4byte	.LLST134
 7113 1db8 600F0000 		.4byte	.LVUS134
 7114 1dbc 13       		.uleb128 0x13
 7115 1dbd 10000000 		.4byte	.LVL128
 7116 1dc1 94020000 		.4byte	0x294
 7117 1dc5 00       		.byte	0
 7118 1dc6 00       		.byte	0
 7119 1dc7 03       		.uleb128 0x3
 7120 1dc8 CE0B0000 		.4byte	0xbce
 7121 1dcc 1E000000 		.4byte	.LBI624
 7122 1dd0 00       		.byte	.LVU809
 7123 1dd1 1E000000 		.4byte	.LBB624
 7124 1dd5 0E000000 		.4byte	.LBE624-.LBB624
 7125 1dd9 01       		.byte	0x1
ARM GAS  C:\Users\DEVELO~1\AppData\Local\Temp\ccpJqkfg.s 			page 126


 7126 1dda 4102     		.2byte	0x241
 7127 1ddc 07       		.byte	0x7
 7128 1ddd 01       		.uleb128 0x1
 7129 1dde ED0B0000 		.4byte	0xbed
 7130 1de2 9B0F0000 		.4byte	.LLST135
 7131 1de6 970F0000 		.4byte	.LVUS135
 7132 1dea 01       		.uleb128 0x1
 7133 1deb E00B0000 		.4byte	0xbe0
 7134 1def AF0F0000 		.4byte	.LLST136
 7135 1df3 AB0F0000 		.4byte	.LVUS136
 7136 1df7 00       		.byte	0
 7137 1df8 00       		.byte	0
 7138 1df9 26       		.uleb128 0x26
 7139 1dfa 450A0000 		.4byte	0xa45
 7140 1dfe 00000000 		.4byte	.LFB448
 7141 1e02 2C000000 		.4byte	.LFE448-.LFB448
 7142 1e06 01       		.uleb128 0x1
 7143 1e07 9C       		.byte	0x9c
 7144 1e08 341E0000 		.4byte	0x1e34
 7145 1e0c 01       		.uleb128 0x1
 7146 1e0d 510A0000 		.4byte	0xa51
 7147 1e11 C50F0000 		.4byte	.LLST144
 7148 1e15 BF0F0000 		.4byte	.LVUS144
 7149 1e19 01       		.uleb128 0x1
 7150 1e1a 5E0A0000 		.4byte	0xa5e
 7151 1e1e E50F0000 		.4byte	.LLST145
 7152 1e22 DD0F0000 		.4byte	.LVUS145
 7153 1e26 35       		.uleb128 0x35
 7154 1e27 28000000 		.4byte	.LVL147
 7155 1e2b 05       		.uleb128 0x5
 7156 1e2c 01       		.uleb128 0x1
 7157 1e2d 50       		.byte	0x50
 7158 1e2e 03       		.uleb128 0x3
 7159 1e2f A3       		.byte	0xa3
 7160 1e30 01       		.uleb128 0x1
 7161 1e31 50       		.byte	0x50
 7162 1e32 00       		.byte	0
 7163 1e33 00       		.byte	0
 7164 1e34 49       		.uleb128 0x49
 7165 1e35 9D000000 		.4byte	.LASF45
 7166 1e39 F7000000 		.4byte	.LASF96
 7167 1e3d 10       		.byte	0x10
 7168 1e3e 00       		.byte	0
 7169 1e3f 00       		.byte	0
 7170              		.section	.debug_abbrev,"",%progbits
 7171              	.Ldebug_abbrev0:
 7172 0000 01       		.uleb128 0x1
 7173 0001 05       		.uleb128 0x5
 7174 0002 00       		.byte	0
 7175 0003 31       		.uleb128 0x31
 7176 0004 13       		.uleb128 0x13
 7177 0005 02       		.uleb128 0x2
 7178 0006 17       		.uleb128 0x17
 7179 0007 B742     		.uleb128 0x2137
 7180 0009 17       		.uleb128 0x17
 7181 000a 00       		.byte	0
 7182 000b 00       		.byte	0
ARM GAS  C:\Users\DEVELO~1\AppData\Local\Temp\ccpJqkfg.s 			page 127


 7183 000c 02       		.uleb128 0x2
 7184 000d 1D       		.uleb128 0x1d
 7185 000e 01       		.byte	0x1
 7186 000f 31       		.uleb128 0x31
 7187 0010 13       		.uleb128 0x13
 7188 0011 52       		.uleb128 0x52
 7189 0012 01       		.uleb128 0x1
 7190 0013 B842     		.uleb128 0x2138
 7191 0015 0B       		.uleb128 0xb
 7192 0016 55       		.uleb128 0x55
 7193 0017 17       		.uleb128 0x17
 7194 0018 58       		.uleb128 0x58
 7195 0019 0B       		.uleb128 0xb
 7196 001a 59       		.uleb128 0x59
 7197 001b 05       		.uleb128 0x5
 7198 001c 57       		.uleb128 0x57
 7199 001d 0B       		.uleb128 0xb
 7200 001e 00       		.byte	0
 7201 001f 00       		.byte	0
 7202 0020 03       		.uleb128 0x3
 7203 0021 1D       		.uleb128 0x1d
 7204 0022 01       		.byte	0x1
 7205 0023 31       		.uleb128 0x31
 7206 0024 13       		.uleb128 0x13
 7207 0025 52       		.uleb128 0x52
 7208 0026 01       		.uleb128 0x1
 7209 0027 B842     		.uleb128 0x2138
 7210 0029 0B       		.uleb128 0xb
 7211 002a 11       		.uleb128 0x11
 7212 002b 01       		.uleb128 0x1
 7213 002c 12       		.uleb128 0x12
 7214 002d 06       		.uleb128 0x6
 7215 002e 58       		.uleb128 0x58
 7216 002f 0B       		.uleb128 0xb
 7217 0030 59       		.uleb128 0x59
 7218 0031 05       		.uleb128 0x5
 7219 0032 57       		.uleb128 0x57
 7220 0033 0B       		.uleb128 0xb
 7221 0034 00       		.byte	0
 7222 0035 00       		.byte	0
 7223 0036 04       		.uleb128 0x4
 7224 0037 05       		.uleb128 0x5
 7225 0038 00       		.byte	0
 7226 0039 03       		.uleb128 0x3
 7227 003a 0E       		.uleb128 0xe
 7228 003b 3A       		.uleb128 0x3a
 7229 003c 21       		.uleb128 0x21
 7230 003d 01       		.sleb128 1
 7231 003e 3B       		.uleb128 0x3b
 7232 003f 05       		.uleb128 0x5
 7233 0040 39       		.uleb128 0x39
 7234 0041 0B       		.uleb128 0xb
 7235 0042 49       		.uleb128 0x49
 7236 0043 13       		.uleb128 0x13
 7237 0044 02       		.uleb128 0x2
 7238 0045 17       		.uleb128 0x17
 7239 0046 B742     		.uleb128 0x2137
ARM GAS  C:\Users\DEVELO~1\AppData\Local\Temp\ccpJqkfg.s 			page 128


 7240 0048 17       		.uleb128 0x17
 7241 0049 00       		.byte	0
 7242 004a 00       		.byte	0
 7243 004b 05       		.uleb128 0x5
 7244 004c 49       		.uleb128 0x49
 7245 004d 00       		.byte	0
 7246 004e 02       		.uleb128 0x2
 7247 004f 18       		.uleb128 0x18
 7248 0050 7E       		.uleb128 0x7e
 7249 0051 18       		.uleb128 0x18
 7250 0052 00       		.byte	0
 7251 0053 00       		.byte	0
 7252 0054 06       		.uleb128 0x6
 7253 0055 16       		.uleb128 0x16
 7254 0056 00       		.byte	0
 7255 0057 03       		.uleb128 0x3
 7256 0058 0E       		.uleb128 0xe
 7257 0059 3A       		.uleb128 0x3a
 7258 005a 0B       		.uleb128 0xb
 7259 005b 3B       		.uleb128 0x3b
 7260 005c 0B       		.uleb128 0xb
 7261 005d 39       		.uleb128 0x39
 7262 005e 0B       		.uleb128 0xb
 7263 005f 49       		.uleb128 0x49
 7264 0060 13       		.uleb128 0x13
 7265 0061 00       		.byte	0
 7266 0062 00       		.byte	0
 7267 0063 07       		.uleb128 0x7
 7268 0064 24       		.uleb128 0x24
 7269 0065 00       		.byte	0
 7270 0066 0B       		.uleb128 0xb
 7271 0067 0B       		.uleb128 0xb
 7272 0068 3E       		.uleb128 0x3e
 7273 0069 0B       		.uleb128 0xb
 7274 006a 03       		.uleb128 0x3
 7275 006b 0E       		.uleb128 0xe
 7276 006c 00       		.byte	0
 7277 006d 00       		.byte	0
 7278 006e 08       		.uleb128 0x8
 7279 006f 0D       		.uleb128 0xd
 7280 0070 00       		.byte	0
 7281 0071 03       		.uleb128 0x3
 7282 0072 0E       		.uleb128 0xe
 7283 0073 3A       		.uleb128 0x3a
 7284 0074 0B       		.uleb128 0xb
 7285 0075 3B       		.uleb128 0x3b
 7286 0076 0B       		.uleb128 0xb
 7287 0077 39       		.uleb128 0x39
 7288 0078 0B       		.uleb128 0xb
 7289 0079 49       		.uleb128 0x49
 7290 007a 13       		.uleb128 0x13
 7291 007b 38       		.uleb128 0x38
 7292 007c 0B       		.uleb128 0xb
 7293 007d 00       		.byte	0
 7294 007e 00       		.byte	0
 7295 007f 09       		.uleb128 0x9
 7296 0080 0B       		.uleb128 0xb
ARM GAS  C:\Users\DEVELO~1\AppData\Local\Temp\ccpJqkfg.s 			page 129


 7297 0081 01       		.byte	0x1
 7298 0082 55       		.uleb128 0x55
 7299 0083 17       		.uleb128 0x17
 7300 0084 00       		.byte	0
 7301 0085 00       		.byte	0
 7302 0086 0A       		.uleb128 0xa
 7303 0087 1D       		.uleb128 0x1d
 7304 0088 01       		.byte	0x1
 7305 0089 31       		.uleb128 0x31
 7306 008a 13       		.uleb128 0x13
 7307 008b 52       		.uleb128 0x52
 7308 008c 01       		.uleb128 0x1
 7309 008d B842     		.uleb128 0x2138
 7310 008f 0B       		.uleb128 0xb
 7311 0090 55       		.uleb128 0x55
 7312 0091 17       		.uleb128 0x17
 7313 0092 58       		.uleb128 0x58
 7314 0093 21       		.uleb128 0x21
 7315 0094 01       		.sleb128 1
 7316 0095 59       		.uleb128 0x59
 7317 0096 05       		.uleb128 0x5
 7318 0097 57       		.uleb128 0x57
 7319 0098 0B       		.uleb128 0xb
 7320 0099 01       		.uleb128 0x1
 7321 009a 13       		.uleb128 0x13
 7322 009b 00       		.byte	0
 7323 009c 00       		.byte	0
 7324 009d 0B       		.uleb128 0xb
 7325 009e 34       		.uleb128 0x34
 7326 009f 00       		.byte	0
 7327 00a0 03       		.uleb128 0x3
 7328 00a1 0E       		.uleb128 0xe
 7329 00a2 49       		.uleb128 0x49
 7330 00a3 13       		.uleb128 0x13
 7331 00a4 34       		.uleb128 0x34
 7332 00a5 19       		.uleb128 0x19
 7333 00a6 00       		.byte	0
 7334 00a7 00       		.byte	0
 7335 00a8 0C       		.uleb128 0xc
 7336 00a9 05       		.uleb128 0x5
 7337 00aa 00       		.byte	0
 7338 00ab 03       		.uleb128 0x3
 7339 00ac 0E       		.uleb128 0xe
 7340 00ad 3A       		.uleb128 0x3a
 7341 00ae 21       		.uleb128 0x21
 7342 00af 01       		.sleb128 1
 7343 00b0 3B       		.uleb128 0x3b
 7344 00b1 0B       		.uleb128 0xb
 7345 00b2 39       		.uleb128 0x39
 7346 00b3 0B       		.uleb128 0xb
 7347 00b4 49       		.uleb128 0x49
 7348 00b5 13       		.uleb128 0x13
 7349 00b6 02       		.uleb128 0x2
 7350 00b7 17       		.uleb128 0x17
 7351 00b8 B742     		.uleb128 0x2137
 7352 00ba 17       		.uleb128 0x17
 7353 00bb 00       		.byte	0
ARM GAS  C:\Users\DEVELO~1\AppData\Local\Temp\ccpJqkfg.s 			page 130


 7354 00bc 00       		.byte	0
 7355 00bd 0D       		.uleb128 0xd
 7356 00be 26       		.uleb128 0x26
 7357 00bf 00       		.byte	0
 7358 00c0 49       		.uleb128 0x49
 7359 00c1 13       		.uleb128 0x13
 7360 00c2 00       		.byte	0
 7361 00c3 00       		.byte	0
 7362 00c4 0E       		.uleb128 0xe
 7363 00c5 0F       		.uleb128 0xf
 7364 00c6 00       		.byte	0
 7365 00c7 0B       		.uleb128 0xb
 7366 00c8 21       		.uleb128 0x21
 7367 00c9 04       		.sleb128 4
 7368 00ca 49       		.uleb128 0x49
 7369 00cb 13       		.uleb128 0x13
 7370 00cc 00       		.byte	0
 7371 00cd 00       		.byte	0
 7372 00ce 0F       		.uleb128 0xf
 7373 00cf 05       		.uleb128 0x5
 7374 00d0 00       		.byte	0
 7375 00d1 49       		.uleb128 0x49
 7376 00d2 13       		.uleb128 0x13
 7377 00d3 00       		.byte	0
 7378 00d4 00       		.byte	0
 7379 00d5 10       		.uleb128 0x10
 7380 00d6 05       		.uleb128 0x5
 7381 00d7 00       		.byte	0
 7382 00d8 31       		.uleb128 0x31
 7383 00d9 13       		.uleb128 0x13
 7384 00da 00       		.byte	0
 7385 00db 00       		.byte	0
 7386 00dc 11       		.uleb128 0x11
 7387 00dd 0B       		.uleb128 0xb
 7388 00de 01       		.byte	0x1
 7389 00df 31       		.uleb128 0x31
 7390 00e0 13       		.uleb128 0x13
 7391 00e1 55       		.uleb128 0x55
 7392 00e2 17       		.uleb128 0x17
 7393 00e3 01       		.uleb128 0x1
 7394 00e4 13       		.uleb128 0x13
 7395 00e5 00       		.byte	0
 7396 00e6 00       		.byte	0
 7397 00e7 12       		.uleb128 0x12
 7398 00e8 34       		.uleb128 0x34
 7399 00e9 00       		.byte	0
 7400 00ea 31       		.uleb128 0x31
 7401 00eb 13       		.uleb128 0x13
 7402 00ec 02       		.uleb128 0x2
 7403 00ed 17       		.uleb128 0x17
 7404 00ee B742     		.uleb128 0x2137
 7405 00f0 17       		.uleb128 0x17
 7406 00f1 00       		.byte	0
 7407 00f2 00       		.byte	0
 7408 00f3 13       		.uleb128 0x13
 7409 00f4 48       		.uleb128 0x48
 7410 00f5 00       		.byte	0
ARM GAS  C:\Users\DEVELO~1\AppData\Local\Temp\ccpJqkfg.s 			page 131


 7411 00f6 7D       		.uleb128 0x7d
 7412 00f7 01       		.uleb128 0x1
 7413 00f8 7F       		.uleb128 0x7f
 7414 00f9 13       		.uleb128 0x13
 7415 00fa 00       		.byte	0
 7416 00fb 00       		.byte	0
 7417 00fc 14       		.uleb128 0x14
 7418 00fd 1D       		.uleb128 0x1d
 7419 00fe 01       		.byte	0x1
 7420 00ff 31       		.uleb128 0x31
 7421 0100 13       		.uleb128 0x13
 7422 0101 52       		.uleb128 0x52
 7423 0102 01       		.uleb128 0x1
 7424 0103 B842     		.uleb128 0x2138
 7425 0105 0B       		.uleb128 0xb
 7426 0106 11       		.uleb128 0x11
 7427 0107 01       		.uleb128 0x1
 7428 0108 12       		.uleb128 0x12
 7429 0109 06       		.uleb128 0x6
 7430 010a 58       		.uleb128 0x58
 7431 010b 21       		.uleb128 0x21
 7432 010c 01       		.sleb128 1
 7433 010d 59       		.uleb128 0x59
 7434 010e 05       		.uleb128 0x5
 7435 010f 57       		.uleb128 0x57
 7436 0110 0B       		.uleb128 0xb
 7437 0111 01       		.uleb128 0x1
 7438 0112 13       		.uleb128 0x13
 7439 0113 00       		.byte	0
 7440 0114 00       		.byte	0
 7441 0115 15       		.uleb128 0x15
 7442 0116 01       		.uleb128 0x1
 7443 0117 01       		.byte	0x1
 7444 0118 49       		.uleb128 0x49
 7445 0119 13       		.uleb128 0x13
 7446 011a 01       		.uleb128 0x1
 7447 011b 13       		.uleb128 0x13
 7448 011c 00       		.byte	0
 7449 011d 00       		.byte	0
 7450 011e 16       		.uleb128 0x16
 7451 011f 21       		.uleb128 0x21
 7452 0120 00       		.byte	0
 7453 0121 49       		.uleb128 0x49
 7454 0122 13       		.uleb128 0x13
 7455 0123 2F       		.uleb128 0x2f
 7456 0124 0B       		.uleb128 0xb
 7457 0125 00       		.byte	0
 7458 0126 00       		.byte	0
 7459 0127 17       		.uleb128 0x17
 7460 0128 1D       		.uleb128 0x1d
 7461 0129 01       		.byte	0x1
 7462 012a 31       		.uleb128 0x31
 7463 012b 13       		.uleb128 0x13
 7464 012c 52       		.uleb128 0x52
 7465 012d 01       		.uleb128 0x1
 7466 012e B842     		.uleb128 0x2138
 7467 0130 0B       		.uleb128 0xb
ARM GAS  C:\Users\DEVELO~1\AppData\Local\Temp\ccpJqkfg.s 			page 132


 7468 0131 55       		.uleb128 0x55
 7469 0132 17       		.uleb128 0x17
 7470 0133 58       		.uleb128 0x58
 7471 0134 21       		.uleb128 0x21
 7472 0135 01       		.sleb128 1
 7473 0136 59       		.uleb128 0x59
 7474 0137 0B       		.uleb128 0xb
 7475 0138 57       		.uleb128 0x57
 7476 0139 0B       		.uleb128 0xb
 7477 013a 00       		.byte	0
 7478 013b 00       		.byte	0
 7479 013c 18       		.uleb128 0x18
 7480 013d 48       		.uleb128 0x48
 7481 013e 01       		.byte	0x1
 7482 013f 7D       		.uleb128 0x7d
 7483 0140 01       		.uleb128 0x1
 7484 0141 00       		.byte	0
 7485 0142 00       		.byte	0
 7486 0143 19       		.uleb128 0x19
 7487 0144 2E       		.uleb128 0x2e
 7488 0145 01       		.byte	0x1
 7489 0146 3F       		.uleb128 0x3f
 7490 0147 19       		.uleb128 0x19
 7491 0148 03       		.uleb128 0x3
 7492 0149 0E       		.uleb128 0xe
 7493 014a 3A       		.uleb128 0x3a
 7494 014b 21       		.uleb128 0x21
 7495 014c 01       		.sleb128 1
 7496 014d 3B       		.uleb128 0x3b
 7497 014e 05       		.uleb128 0x5
 7498 014f 39       		.uleb128 0x39
 7499 0150 0B       		.uleb128 0xb
 7500 0151 27       		.uleb128 0x27
 7501 0152 19       		.uleb128 0x19
 7502 0153 49       		.uleb128 0x49
 7503 0154 13       		.uleb128 0x13
 7504 0155 11       		.uleb128 0x11
 7505 0156 01       		.uleb128 0x1
 7506 0157 12       		.uleb128 0x12
 7507 0158 06       		.uleb128 0x6
 7508 0159 40       		.uleb128 0x40
 7509 015a 18       		.uleb128 0x18
 7510 015b 7A       		.uleb128 0x7a
 7511 015c 19       		.uleb128 0x19
 7512 015d 01       		.uleb128 0x1
 7513 015e 13       		.uleb128 0x13
 7514 015f 00       		.byte	0
 7515 0160 00       		.byte	0
 7516 0161 1A       		.uleb128 0x1a
 7517 0162 05       		.uleb128 0x5
 7518 0163 00       		.byte	0
 7519 0164 03       		.uleb128 0x3
 7520 0165 08       		.uleb128 0x8
 7521 0166 3A       		.uleb128 0x3a
 7522 0167 21       		.uleb128 0x21
 7523 0168 01       		.sleb128 1
 7524 0169 3B       		.uleb128 0x3b
ARM GAS  C:\Users\DEVELO~1\AppData\Local\Temp\ccpJqkfg.s 			page 133


 7525 016a 05       		.uleb128 0x5
 7526 016b 39       		.uleb128 0x39
 7527 016c 0B       		.uleb128 0xb
 7528 016d 49       		.uleb128 0x49
 7529 016e 13       		.uleb128 0x13
 7530 016f 02       		.uleb128 0x2
 7531 0170 17       		.uleb128 0x17
 7532 0171 B742     		.uleb128 0x2137
 7533 0173 17       		.uleb128 0x17
 7534 0174 00       		.byte	0
 7535 0175 00       		.byte	0
 7536 0176 1B       		.uleb128 0x1b
 7537 0177 34       		.uleb128 0x34
 7538 0178 00       		.byte	0
 7539 0179 03       		.uleb128 0x3
 7540 017a 08       		.uleb128 0x8
 7541 017b 3A       		.uleb128 0x3a
 7542 017c 21       		.uleb128 0x21
 7543 017d 01       		.sleb128 1
 7544 017e 3B       		.uleb128 0x3b
 7545 017f 05       		.uleb128 0x5
 7546 0180 39       		.uleb128 0x39
 7547 0181 0B       		.uleb128 0xb
 7548 0182 49       		.uleb128 0x49
 7549 0183 13       		.uleb128 0x13
 7550 0184 02       		.uleb128 0x2
 7551 0185 17       		.uleb128 0x17
 7552 0186 B742     		.uleb128 0x2137
 7553 0188 17       		.uleb128 0x17
 7554 0189 00       		.byte	0
 7555 018a 00       		.byte	0
 7556 018b 1C       		.uleb128 0x1c
 7557 018c 05       		.uleb128 0x5
 7558 018d 00       		.byte	0
 7559 018e 03       		.uleb128 0x3
 7560 018f 0E       		.uleb128 0xe
 7561 0190 3A       		.uleb128 0x3a
 7562 0191 0B       		.uleb128 0xb
 7563 0192 3B       		.uleb128 0x3b
 7564 0193 05       		.uleb128 0x5
 7565 0194 39       		.uleb128 0x39
 7566 0195 0B       		.uleb128 0xb
 7567 0196 49       		.uleb128 0x49
 7568 0197 13       		.uleb128 0x13
 7569 0198 00       		.byte	0
 7570 0199 00       		.byte	0
 7571 019a 1D       		.uleb128 0x1d
 7572 019b 05       		.uleb128 0x5
 7573 019c 00       		.byte	0
 7574 019d 03       		.uleb128 0x3
 7575 019e 08       		.uleb128 0x8
 7576 019f 3A       		.uleb128 0x3a
 7577 01a0 0B       		.uleb128 0xb
 7578 01a1 3B       		.uleb128 0x3b
 7579 01a2 05       		.uleb128 0x5
 7580 01a3 39       		.uleb128 0x39
 7581 01a4 0B       		.uleb128 0xb
ARM GAS  C:\Users\DEVELO~1\AppData\Local\Temp\ccpJqkfg.s 			page 134


 7582 01a5 49       		.uleb128 0x49
 7583 01a6 13       		.uleb128 0x13
 7584 01a7 00       		.byte	0
 7585 01a8 00       		.byte	0
 7586 01a9 1E       		.uleb128 0x1e
 7587 01aa 2E       		.uleb128 0x2e
 7588 01ab 01       		.byte	0x1
 7589 01ac 03       		.uleb128 0x3
 7590 01ad 0E       		.uleb128 0xe
 7591 01ae 3A       		.uleb128 0x3a
 7592 01af 0B       		.uleb128 0xb
 7593 01b0 3B       		.uleb128 0x3b
 7594 01b1 05       		.uleb128 0x5
 7595 01b2 39       		.uleb128 0x39
 7596 01b3 0B       		.uleb128 0xb
 7597 01b4 27       		.uleb128 0x27
 7598 01b5 19       		.uleb128 0x19
 7599 01b6 20       		.uleb128 0x20
 7600 01b7 21       		.uleb128 0x21
 7601 01b8 03       		.sleb128 3
 7602 01b9 01       		.uleb128 0x1
 7603 01ba 13       		.uleb128 0x13
 7604 01bb 00       		.byte	0
 7605 01bc 00       		.byte	0
 7606 01bd 1F       		.uleb128 0x1f
 7607 01be 2E       		.uleb128 0x2e
 7608 01bf 01       		.byte	0x1
 7609 01c0 3F       		.uleb128 0x3f
 7610 01c1 19       		.uleb128 0x19
 7611 01c2 03       		.uleb128 0x3
 7612 01c3 0E       		.uleb128 0xe
 7613 01c4 3A       		.uleb128 0x3a
 7614 01c5 21       		.uleb128 0x21
 7615 01c6 01       		.sleb128 1
 7616 01c7 3B       		.uleb128 0x3b
 7617 01c8 05       		.uleb128 0x5
 7618 01c9 39       		.uleb128 0x39
 7619 01ca 21       		.uleb128 0x21
 7620 01cb 06       		.sleb128 6
 7621 01cc 27       		.uleb128 0x27
 7622 01cd 19       		.uleb128 0x19
 7623 01ce 11       		.uleb128 0x11
 7624 01cf 01       		.uleb128 0x1
 7625 01d0 12       		.uleb128 0x12
 7626 01d1 06       		.uleb128 0x6
 7627 01d2 40       		.uleb128 0x40
 7628 01d3 18       		.uleb128 0x18
 7629 01d4 7A       		.uleb128 0x7a
 7630 01d5 19       		.uleb128 0x19
 7631 01d6 01       		.uleb128 0x1
 7632 01d7 13       		.uleb128 0x13
 7633 01d8 00       		.byte	0
 7634 01d9 00       		.byte	0
 7635 01da 20       		.uleb128 0x20
 7636 01db 0B       		.uleb128 0xb
 7637 01dc 01       		.byte	0x1
 7638 01dd 55       		.uleb128 0x55
ARM GAS  C:\Users\DEVELO~1\AppData\Local\Temp\ccpJqkfg.s 			page 135


 7639 01de 17       		.uleb128 0x17
 7640 01df 01       		.uleb128 0x1
 7641 01e0 13       		.uleb128 0x13
 7642 01e1 00       		.byte	0
 7643 01e2 00       		.byte	0
 7644 01e3 21       		.uleb128 0x21
 7645 01e4 2E       		.uleb128 0x2e
 7646 01e5 00       		.byte	0
 7647 01e6 03       		.uleb128 0x3
 7648 01e7 0E       		.uleb128 0xe
 7649 01e8 3A       		.uleb128 0x3a
 7650 01e9 0B       		.uleb128 0xb
 7651 01ea 3B       		.uleb128 0x3b
 7652 01eb 05       		.uleb128 0x5
 7653 01ec 39       		.uleb128 0x39
 7654 01ed 0B       		.uleb128 0xb
 7655 01ee 27       		.uleb128 0x27
 7656 01ef 19       		.uleb128 0x19
 7657 01f0 20       		.uleb128 0x20
 7658 01f1 21       		.uleb128 0x21
 7659 01f2 03       		.sleb128 3
 7660 01f3 00       		.byte	0
 7661 01f4 00       		.byte	0
 7662 01f5 22       		.uleb128 0x22
 7663 01f6 34       		.uleb128 0x34
 7664 01f7 00       		.byte	0
 7665 01f8 03       		.uleb128 0x3
 7666 01f9 0E       		.uleb128 0xe
 7667 01fa 3A       		.uleb128 0x3a
 7668 01fb 21       		.uleb128 0x21
 7669 01fc 01       		.sleb128 1
 7670 01fd 3B       		.uleb128 0x3b
 7671 01fe 05       		.uleb128 0x5
 7672 01ff 39       		.uleb128 0x39
 7673 0200 21       		.uleb128 0x21
 7674 0201 0C       		.sleb128 12
 7675 0202 49       		.uleb128 0x49
 7676 0203 13       		.uleb128 0x13
 7677 0204 02       		.uleb128 0x2
 7678 0205 17       		.uleb128 0x17
 7679 0206 B742     		.uleb128 0x2137
 7680 0208 17       		.uleb128 0x17
 7681 0209 00       		.byte	0
 7682 020a 00       		.byte	0
 7683 020b 23       		.uleb128 0x23
 7684 020c 48       		.uleb128 0x48
 7685 020d 01       		.byte	0x1
 7686 020e 7D       		.uleb128 0x7d
 7687 020f 01       		.uleb128 0x1
 7688 0210 8201     		.uleb128 0x82
 7689 0212 19       		.uleb128 0x19
 7690 0213 7F       		.uleb128 0x7f
 7691 0214 13       		.uleb128 0x13
 7692 0215 00       		.byte	0
 7693 0216 00       		.byte	0
 7694 0217 24       		.uleb128 0x24
 7695 0218 1D       		.uleb128 0x1d
ARM GAS  C:\Users\DEVELO~1\AppData\Local\Temp\ccpJqkfg.s 			page 136


 7696 0219 01       		.byte	0x1
 7697 021a 31       		.uleb128 0x31
 7698 021b 13       		.uleb128 0x13
 7699 021c 52       		.uleb128 0x52
 7700 021d 01       		.uleb128 0x1
 7701 021e B842     		.uleb128 0x2138
 7702 0220 0B       		.uleb128 0xb
 7703 0221 11       		.uleb128 0x11
 7704 0222 01       		.uleb128 0x1
 7705 0223 12       		.uleb128 0x12
 7706 0224 06       		.uleb128 0x6
 7707 0225 58       		.uleb128 0x58
 7708 0226 21       		.uleb128 0x21
 7709 0227 01       		.sleb128 1
 7710 0228 59       		.uleb128 0x59
 7711 0229 21       		.uleb128 0x21
 7712 022a DE01     		.sleb128 222
 7713 022c 57       		.uleb128 0x57
 7714 022d 21       		.uleb128 0x21
 7715 022e 09       		.sleb128 9
 7716 022f 00       		.byte	0
 7717 0230 00       		.byte	0
 7718 0231 25       		.uleb128 0x25
 7719 0232 2E       		.uleb128 0x2e
 7720 0233 01       		.byte	0x1
 7721 0234 3F       		.uleb128 0x3f
 7722 0235 19       		.uleb128 0x19
 7723 0236 03       		.uleb128 0x3
 7724 0237 0E       		.uleb128 0xe
 7725 0238 3A       		.uleb128 0x3a
 7726 0239 21       		.uleb128 0x21
 7727 023a 01       		.sleb128 1
 7728 023b 3B       		.uleb128 0x3b
 7729 023c 0B       		.uleb128 0xb
 7730 023d 39       		.uleb128 0x39
 7731 023e 21       		.uleb128 0x21
 7732 023f 06       		.sleb128 6
 7733 0240 27       		.uleb128 0x27
 7734 0241 19       		.uleb128 0x19
 7735 0242 11       		.uleb128 0x11
 7736 0243 01       		.uleb128 0x1
 7737 0244 12       		.uleb128 0x12
 7738 0245 06       		.uleb128 0x6
 7739 0246 40       		.uleb128 0x40
 7740 0247 18       		.uleb128 0x18
 7741 0248 7A       		.uleb128 0x7a
 7742 0249 19       		.uleb128 0x19
 7743 024a 01       		.uleb128 0x1
 7744 024b 13       		.uleb128 0x13
 7745 024c 00       		.byte	0
 7746 024d 00       		.byte	0
 7747 024e 26       		.uleb128 0x26
 7748 024f 2E       		.uleb128 0x2e
 7749 0250 01       		.byte	0x1
 7750 0251 31       		.uleb128 0x31
 7751 0252 13       		.uleb128 0x13
 7752 0253 11       		.uleb128 0x11
ARM GAS  C:\Users\DEVELO~1\AppData\Local\Temp\ccpJqkfg.s 			page 137


 7753 0254 01       		.uleb128 0x1
 7754 0255 12       		.uleb128 0x12
 7755 0256 06       		.uleb128 0x6
 7756 0257 40       		.uleb128 0x40
 7757 0258 18       		.uleb128 0x18
 7758 0259 7A       		.uleb128 0x7a
 7759 025a 19       		.uleb128 0x19
 7760 025b 01       		.uleb128 0x1
 7761 025c 13       		.uleb128 0x13
 7762 025d 00       		.byte	0
 7763 025e 00       		.byte	0
 7764 025f 27       		.uleb128 0x27
 7765 0260 13       		.uleb128 0x13
 7766 0261 01       		.byte	0x1
 7767 0262 03       		.uleb128 0x3
 7768 0263 0E       		.uleb128 0xe
 7769 0264 0B       		.uleb128 0xb
 7770 0265 0B       		.uleb128 0xb
 7771 0266 3A       		.uleb128 0x3a
 7772 0267 0B       		.uleb128 0xb
 7773 0268 3B       		.uleb128 0x3b
 7774 0269 0B       		.uleb128 0xb
 7775 026a 39       		.uleb128 0x39
 7776 026b 0B       		.uleb128 0xb
 7777 026c 01       		.uleb128 0x1
 7778 026d 13       		.uleb128 0x13
 7779 026e 00       		.byte	0
 7780 026f 00       		.byte	0
 7781 0270 28       		.uleb128 0x28
 7782 0271 0D       		.uleb128 0xd
 7783 0272 00       		.byte	0
 7784 0273 03       		.uleb128 0x3
 7785 0274 08       		.uleb128 0x8
 7786 0275 3A       		.uleb128 0x3a
 7787 0276 21       		.uleb128 0x21
 7788 0277 0E       		.sleb128 14
 7789 0278 3B       		.uleb128 0x3b
 7790 0279 0B       		.uleb128 0xb
 7791 027a 39       		.uleb128 0x39
 7792 027b 0B       		.uleb128 0xb
 7793 027c 49       		.uleb128 0x49
 7794 027d 13       		.uleb128 0x13
 7795 027e 38       		.uleb128 0x38
 7796 027f 0B       		.uleb128 0xb
 7797 0280 00       		.byte	0
 7798 0281 00       		.byte	0
 7799 0282 29       		.uleb128 0x29
 7800 0283 2E       		.uleb128 0x2e
 7801 0284 01       		.byte	0x1
 7802 0285 3F       		.uleb128 0x3f
 7803 0286 19       		.uleb128 0x19
 7804 0287 03       		.uleb128 0x3
 7805 0288 0E       		.uleb128 0xe
 7806 0289 3A       		.uleb128 0x3a
 7807 028a 21       		.uleb128 0x21
 7808 028b 03       		.sleb128 3
 7809 028c 3B       		.uleb128 0x3b
ARM GAS  C:\Users\DEVELO~1\AppData\Local\Temp\ccpJqkfg.s 			page 138


 7810 028d 05       		.uleb128 0x5
 7811 028e 39       		.uleb128 0x39
 7812 028f 21       		.uleb128 0x21
 7813 0290 08       		.sleb128 8
 7814 0291 27       		.uleb128 0x27
 7815 0292 19       		.uleb128 0x19
 7816 0293 3C       		.uleb128 0x3c
 7817 0294 19       		.uleb128 0x19
 7818 0295 01       		.uleb128 0x1
 7819 0296 13       		.uleb128 0x13
 7820 0297 00       		.byte	0
 7821 0298 00       		.byte	0
 7822 0299 2A       		.uleb128 0x2a
 7823 029a 1D       		.uleb128 0x1d
 7824 029b 01       		.byte	0x1
 7825 029c 31       		.uleb128 0x31
 7826 029d 13       		.uleb128 0x13
 7827 029e 11       		.uleb128 0x11
 7828 029f 01       		.uleb128 0x1
 7829 02a0 12       		.uleb128 0x12
 7830 02a1 06       		.uleb128 0x6
 7831 02a2 58       		.uleb128 0x58
 7832 02a3 21       		.uleb128 0x21
 7833 02a4 01       		.sleb128 1
 7834 02a5 59       		.uleb128 0x59
 7835 02a6 05       		.uleb128 0x5
 7836 02a7 57       		.uleb128 0x57
 7837 02a8 21       		.uleb128 0x21
 7838 02a9 0D       		.sleb128 13
 7839 02aa 01       		.uleb128 0x1
 7840 02ab 13       		.uleb128 0x13
 7841 02ac 00       		.byte	0
 7842 02ad 00       		.byte	0
 7843 02ae 2B       		.uleb128 0x2b
 7844 02af 48       		.uleb128 0x48
 7845 02b0 01       		.byte	0x1
 7846 02b1 7D       		.uleb128 0x7d
 7847 02b2 01       		.uleb128 0x1
 7848 02b3 7F       		.uleb128 0x7f
 7849 02b4 13       		.uleb128 0x13
 7850 02b5 00       		.byte	0
 7851 02b6 00       		.byte	0
 7852 02b7 2C       		.uleb128 0x2c
 7853 02b8 2E       		.uleb128 0x2e
 7854 02b9 01       		.byte	0x1
 7855 02ba 3F       		.uleb128 0x3f
 7856 02bb 19       		.uleb128 0x19
 7857 02bc 03       		.uleb128 0x3
 7858 02bd 0E       		.uleb128 0xe
 7859 02be 3A       		.uleb128 0x3a
 7860 02bf 21       		.uleb128 0x21
 7861 02c0 01       		.sleb128 1
 7862 02c1 3B       		.uleb128 0x3b
 7863 02c2 05       		.uleb128 0x5
 7864 02c3 39       		.uleb128 0x39
 7865 02c4 0B       		.uleb128 0xb
 7866 02c5 27       		.uleb128 0x27
ARM GAS  C:\Users\DEVELO~1\AppData\Local\Temp\ccpJqkfg.s 			page 139


 7867 02c6 19       		.uleb128 0x19
 7868 02c7 20       		.uleb128 0x20
 7869 02c8 21       		.uleb128 0x21
 7870 02c9 01       		.sleb128 1
 7871 02ca 01       		.uleb128 0x1
 7872 02cb 13       		.uleb128 0x13
 7873 02cc 00       		.byte	0
 7874 02cd 00       		.byte	0
 7875 02ce 2D       		.uleb128 0x2d
 7876 02cf 0B       		.uleb128 0xb
 7877 02d0 01       		.byte	0x1
 7878 02d1 00       		.byte	0
 7879 02d2 00       		.byte	0
 7880 02d3 2E       		.uleb128 0x2e
 7881 02d4 05       		.uleb128 0x5
 7882 02d5 00       		.byte	0
 7883 02d6 31       		.uleb128 0x31
 7884 02d7 13       		.uleb128 0x13
 7885 02d8 1C       		.uleb128 0x1c
 7886 02d9 21       		.uleb128 0x21
 7887 02da 00       		.sleb128 0
 7888 02db 00       		.byte	0
 7889 02dc 00       		.byte	0
 7890 02dd 2F       		.uleb128 0x2f
 7891 02de 05       		.uleb128 0x5
 7892 02df 00       		.byte	0
 7893 02e0 03       		.uleb128 0x3
 7894 02e1 0E       		.uleb128 0xe
 7895 02e2 3A       		.uleb128 0x3a
 7896 02e3 21       		.uleb128 0x21
 7897 02e4 01       		.sleb128 1
 7898 02e5 3B       		.uleb128 0x3b
 7899 02e6 05       		.uleb128 0x5
 7900 02e7 39       		.uleb128 0x39
 7901 02e8 0B       		.uleb128 0xb
 7902 02e9 49       		.uleb128 0x49
 7903 02ea 13       		.uleb128 0x13
 7904 02eb 02       		.uleb128 0x2
 7905 02ec 18       		.uleb128 0x18
 7906 02ed 00       		.byte	0
 7907 02ee 00       		.byte	0
 7908 02ef 30       		.uleb128 0x30
 7909 02f0 05       		.uleb128 0x5
 7910 02f1 00       		.byte	0
 7911 02f2 31       		.uleb128 0x31
 7912 02f3 13       		.uleb128 0x13
 7913 02f4 1C       		.uleb128 0x1c
 7914 02f5 21       		.uleb128 0x21
 7915 02f6 7E       		.sleb128 -2
 7916 02f7 00       		.byte	0
 7917 02f8 00       		.byte	0
 7918 02f9 31       		.uleb128 0x31
 7919 02fa 05       		.uleb128 0x5
 7920 02fb 00       		.byte	0
 7921 02fc 03       		.uleb128 0x3
 7922 02fd 0E       		.uleb128 0xe
 7923 02fe 3A       		.uleb128 0x3a
ARM GAS  C:\Users\DEVELO~1\AppData\Local\Temp\ccpJqkfg.s 			page 140


 7924 02ff 21       		.uleb128 0x21
 7925 0300 01       		.sleb128 1
 7926 0301 3B       		.uleb128 0x3b
 7927 0302 0B       		.uleb128 0xb
 7928 0303 39       		.uleb128 0x39
 7929 0304 0B       		.uleb128 0xb
 7930 0305 49       		.uleb128 0x49
 7931 0306 13       		.uleb128 0x13
 7932 0307 00       		.byte	0
 7933 0308 00       		.byte	0
 7934 0309 32       		.uleb128 0x32
 7935 030a 2E       		.uleb128 0x2e
 7936 030b 01       		.byte	0x1
 7937 030c 3F       		.uleb128 0x3f
 7938 030d 19       		.uleb128 0x19
 7939 030e 03       		.uleb128 0x3
 7940 030f 0E       		.uleb128 0xe
 7941 0310 3A       		.uleb128 0x3a
 7942 0311 21       		.uleb128 0x21
 7943 0312 01       		.sleb128 1
 7944 0313 3B       		.uleb128 0x3b
 7945 0314 0B       		.uleb128 0xb
 7946 0315 39       		.uleb128 0x39
 7947 0316 0B       		.uleb128 0xb
 7948 0317 27       		.uleb128 0x27
 7949 0318 19       		.uleb128 0x19
 7950 0319 49       		.uleb128 0x49
 7951 031a 13       		.uleb128 0x13
 7952 031b 11       		.uleb128 0x11
 7953 031c 01       		.uleb128 0x1
 7954 031d 12       		.uleb128 0x12
 7955 031e 06       		.uleb128 0x6
 7956 031f 40       		.uleb128 0x40
 7957 0320 18       		.uleb128 0x18
 7958 0321 7A       		.uleb128 0x7a
 7959 0322 19       		.uleb128 0x19
 7960 0323 01       		.uleb128 0x1
 7961 0324 13       		.uleb128 0x13
 7962 0325 00       		.byte	0
 7963 0326 00       		.byte	0
 7964 0327 33       		.uleb128 0x33
 7965 0328 1D       		.uleb128 0x1d
 7966 0329 01       		.byte	0x1
 7967 032a 31       		.uleb128 0x31
 7968 032b 13       		.uleb128 0x13
 7969 032c 52       		.uleb128 0x52
 7970 032d 01       		.uleb128 0x1
 7971 032e B842     		.uleb128 0x2138
 7972 0330 0B       		.uleb128 0xb
 7973 0331 55       		.uleb128 0x55
 7974 0332 17       		.uleb128 0x17
 7975 0333 58       		.uleb128 0x58
 7976 0334 21       		.uleb128 0x21
 7977 0335 01       		.sleb128 1
 7978 0336 59       		.uleb128 0x59
 7979 0337 0B       		.uleb128 0xb
 7980 0338 57       		.uleb128 0x57
ARM GAS  C:\Users\DEVELO~1\AppData\Local\Temp\ccpJqkfg.s 			page 141


 7981 0339 0B       		.uleb128 0xb
 7982 033a 01       		.uleb128 0x1
 7983 033b 13       		.uleb128 0x13
 7984 033c 00       		.byte	0
 7985 033d 00       		.byte	0
 7986 033e 34       		.uleb128 0x34
 7987 033f 05       		.uleb128 0x5
 7988 0340 00       		.byte	0
 7989 0341 03       		.uleb128 0x3
 7990 0342 08       		.uleb128 0x8
 7991 0343 3A       		.uleb128 0x3a
 7992 0344 21       		.uleb128 0x21
 7993 0345 01       		.sleb128 1
 7994 0346 3B       		.uleb128 0x3b
 7995 0347 0B       		.uleb128 0xb
 7996 0348 39       		.uleb128 0x39
 7997 0349 0B       		.uleb128 0xb
 7998 034a 49       		.uleb128 0x49
 7999 034b 13       		.uleb128 0x13
 8000 034c 02       		.uleb128 0x2
 8001 034d 17       		.uleb128 0x17
 8002 034e B742     		.uleb128 0x2137
 8003 0350 17       		.uleb128 0x17
 8004 0351 00       		.byte	0
 8005 0352 00       		.byte	0
 8006 0353 35       		.uleb128 0x35
 8007 0354 48       		.uleb128 0x48
 8008 0355 01       		.byte	0x1
 8009 0356 7D       		.uleb128 0x7d
 8010 0357 01       		.uleb128 0x1
 8011 0358 8201     		.uleb128 0x82
 8012 035a 19       		.uleb128 0x19
 8013 035b 00       		.byte	0
 8014 035c 00       		.byte	0
 8015 035d 36       		.uleb128 0x36
 8016 035e 11       		.uleb128 0x11
 8017 035f 01       		.byte	0x1
 8018 0360 25       		.uleb128 0x25
 8019 0361 0E       		.uleb128 0xe
 8020 0362 13       		.uleb128 0x13
 8021 0363 0B       		.uleb128 0xb
 8022 0364 03       		.uleb128 0x3
 8023 0365 0E       		.uleb128 0xe
 8024 0366 1B       		.uleb128 0x1b
 8025 0367 0E       		.uleb128 0xe
 8026 0368 55       		.uleb128 0x55
 8027 0369 17       		.uleb128 0x17
 8028 036a 11       		.uleb128 0x11
 8029 036b 01       		.uleb128 0x1
 8030 036c 10       		.uleb128 0x10
 8031 036d 17       		.uleb128 0x17
 8032 036e 00       		.byte	0
 8033 036f 00       		.byte	0
 8034 0370 37       		.uleb128 0x37
 8035 0371 24       		.uleb128 0x24
 8036 0372 00       		.byte	0
 8037 0373 0B       		.uleb128 0xb
ARM GAS  C:\Users\DEVELO~1\AppData\Local\Temp\ccpJqkfg.s 			page 142


 8038 0374 0B       		.uleb128 0xb
 8039 0375 3E       		.uleb128 0x3e
 8040 0376 0B       		.uleb128 0xb
 8041 0377 03       		.uleb128 0x3
 8042 0378 08       		.uleb128 0x8
 8043 0379 00       		.byte	0
 8044 037a 00       		.byte	0
 8045 037b 38       		.uleb128 0x38
 8046 037c 35       		.uleb128 0x35
 8047 037d 00       		.byte	0
 8048 037e 49       		.uleb128 0x49
 8049 037f 13       		.uleb128 0x13
 8050 0380 00       		.byte	0
 8051 0381 00       		.byte	0
 8052 0382 39       		.uleb128 0x39
 8053 0383 0F       		.uleb128 0xf
 8054 0384 00       		.byte	0
 8055 0385 0B       		.uleb128 0xb
 8056 0386 0B       		.uleb128 0xb
 8057 0387 00       		.byte	0
 8058 0388 00       		.byte	0
 8059 0389 3A       		.uleb128 0x3a
 8060 038a 15       		.uleb128 0x15
 8061 038b 01       		.byte	0x1
 8062 038c 27       		.uleb128 0x27
 8063 038d 19       		.uleb128 0x19
 8064 038e 01       		.uleb128 0x1
 8065 038f 13       		.uleb128 0x13
 8066 0390 00       		.byte	0
 8067 0391 00       		.byte	0
 8068 0392 3B       		.uleb128 0x3b
 8069 0393 2E       		.uleb128 0x2e
 8070 0394 01       		.byte	0x1
 8071 0395 3F       		.uleb128 0x3f
 8072 0396 19       		.uleb128 0x19
 8073 0397 03       		.uleb128 0x3
 8074 0398 0E       		.uleb128 0xe
 8075 0399 3A       		.uleb128 0x3a
 8076 039a 0B       		.uleb128 0xb
 8077 039b 3B       		.uleb128 0x3b
 8078 039c 0B       		.uleb128 0xb
 8079 039d 39       		.uleb128 0x39
 8080 039e 0B       		.uleb128 0xb
 8081 039f 27       		.uleb128 0x27
 8082 03a0 19       		.uleb128 0x19
 8083 03a1 49       		.uleb128 0x49
 8084 03a2 13       		.uleb128 0x13
 8085 03a3 3C       		.uleb128 0x3c
 8086 03a4 19       		.uleb128 0x19
 8087 03a5 01       		.uleb128 0x1
 8088 03a6 13       		.uleb128 0x13
 8089 03a7 00       		.byte	0
 8090 03a8 00       		.byte	0
 8091 03a9 3C       		.uleb128 0x3c
 8092 03aa 26       		.uleb128 0x26
 8093 03ab 00       		.byte	0
 8094 03ac 00       		.byte	0
ARM GAS  C:\Users\DEVELO~1\AppData\Local\Temp\ccpJqkfg.s 			page 143


 8095 03ad 00       		.byte	0
 8096 03ae 3D       		.uleb128 0x3d
 8097 03af 2E       		.uleb128 0x2e
 8098 03b0 01       		.byte	0x1
 8099 03b1 3F       		.uleb128 0x3f
 8100 03b2 19       		.uleb128 0x19
 8101 03b3 03       		.uleb128 0x3
 8102 03b4 0E       		.uleb128 0xe
 8103 03b5 3A       		.uleb128 0x3a
 8104 03b6 0B       		.uleb128 0xb
 8105 03b7 3B       		.uleb128 0x3b
 8106 03b8 05       		.uleb128 0x5
 8107 03b9 39       		.uleb128 0x39
 8108 03ba 0B       		.uleb128 0xb
 8109 03bb 27       		.uleb128 0x27
 8110 03bc 19       		.uleb128 0x19
 8111 03bd 49       		.uleb128 0x49
 8112 03be 13       		.uleb128 0x13
 8113 03bf 3C       		.uleb128 0x3c
 8114 03c0 19       		.uleb128 0x19
 8115 03c1 01       		.uleb128 0x1
 8116 03c2 13       		.uleb128 0x13
 8117 03c3 00       		.byte	0
 8118 03c4 00       		.byte	0
 8119 03c5 3E       		.uleb128 0x3e
 8120 03c6 1D       		.uleb128 0x1d
 8121 03c7 01       		.byte	0x1
 8122 03c8 31       		.uleb128 0x31
 8123 03c9 13       		.uleb128 0x13
 8124 03ca 55       		.uleb128 0x55
 8125 03cb 17       		.uleb128 0x17
 8126 03cc 58       		.uleb128 0x58
 8127 03cd 0B       		.uleb128 0xb
 8128 03ce 59       		.uleb128 0x59
 8129 03cf 05       		.uleb128 0x5
 8130 03d0 57       		.uleb128 0x57
 8131 03d1 0B       		.uleb128 0xb
 8132 03d2 01       		.uleb128 0x1
 8133 03d3 13       		.uleb128 0x13
 8134 03d4 00       		.byte	0
 8135 03d5 00       		.byte	0
 8136 03d6 3F       		.uleb128 0x3f
 8137 03d7 2E       		.uleb128 0x2e
 8138 03d8 01       		.byte	0x1
 8139 03d9 3F       		.uleb128 0x3f
 8140 03da 19       		.uleb128 0x19
 8141 03db 03       		.uleb128 0x3
 8142 03dc 0E       		.uleb128 0xe
 8143 03dd 3A       		.uleb128 0x3a
 8144 03de 0B       		.uleb128 0xb
 8145 03df 3B       		.uleb128 0x3b
 8146 03e0 05       		.uleb128 0x5
 8147 03e1 39       		.uleb128 0x39
 8148 03e2 0B       		.uleb128 0xb
 8149 03e3 27       		.uleb128 0x27
 8150 03e4 19       		.uleb128 0x19
 8151 03e5 49       		.uleb128 0x49
ARM GAS  C:\Users\DEVELO~1\AppData\Local\Temp\ccpJqkfg.s 			page 144


 8152 03e6 13       		.uleb128 0x13
 8153 03e7 20       		.uleb128 0x20
 8154 03e8 0B       		.uleb128 0xb
 8155 03e9 01       		.uleb128 0x1
 8156 03ea 13       		.uleb128 0x13
 8157 03eb 00       		.byte	0
 8158 03ec 00       		.byte	0
 8159 03ed 40       		.uleb128 0x40
 8160 03ee 34       		.uleb128 0x34
 8161 03ef 00       		.byte	0
 8162 03f0 03       		.uleb128 0x3
 8163 03f1 08       		.uleb128 0x8
 8164 03f2 3A       		.uleb128 0x3a
 8165 03f3 0B       		.uleb128 0xb
 8166 03f4 3B       		.uleb128 0x3b
 8167 03f5 05       		.uleb128 0x5
 8168 03f6 39       		.uleb128 0x39
 8169 03f7 0B       		.uleb128 0xb
 8170 03f8 49       		.uleb128 0x49
 8171 03f9 13       		.uleb128 0x13
 8172 03fa 00       		.byte	0
 8173 03fb 00       		.byte	0
 8174 03fc 41       		.uleb128 0x41
 8175 03fd 1D       		.uleb128 0x1d
 8176 03fe 01       		.byte	0x1
 8177 03ff 31       		.uleb128 0x31
 8178 0400 13       		.uleb128 0x13
 8179 0401 55       		.uleb128 0x55
 8180 0402 17       		.uleb128 0x17
 8181 0403 58       		.uleb128 0x58
 8182 0404 0B       		.uleb128 0xb
 8183 0405 59       		.uleb128 0x59
 8184 0406 05       		.uleb128 0x5
 8185 0407 57       		.uleb128 0x57
 8186 0408 0B       		.uleb128 0xb
 8187 0409 00       		.byte	0
 8188 040a 00       		.byte	0
 8189 040b 42       		.uleb128 0x42
 8190 040c 2E       		.uleb128 0x2e
 8191 040d 01       		.byte	0x1
 8192 040e 3F       		.uleb128 0x3f
 8193 040f 19       		.uleb128 0x19
 8194 0410 03       		.uleb128 0x3
 8195 0411 0E       		.uleb128 0xe
 8196 0412 3A       		.uleb128 0x3a
 8197 0413 0B       		.uleb128 0xb
 8198 0414 3B       		.uleb128 0x3b
 8199 0415 0B       		.uleb128 0xb
 8200 0416 39       		.uleb128 0x39
 8201 0417 0B       		.uleb128 0xb
 8202 0418 27       		.uleb128 0x27
 8203 0419 19       		.uleb128 0x19
 8204 041a 49       		.uleb128 0x49
 8205 041b 13       		.uleb128 0x13
 8206 041c 20       		.uleb128 0x20
 8207 041d 0B       		.uleb128 0xb
 8208 041e 01       		.uleb128 0x1
ARM GAS  C:\Users\DEVELO~1\AppData\Local\Temp\ccpJqkfg.s 			page 145


 8209 041f 13       		.uleb128 0x13
 8210 0420 00       		.byte	0
 8211 0421 00       		.byte	0
 8212 0422 43       		.uleb128 0x43
 8213 0423 34       		.uleb128 0x34
 8214 0424 00       		.byte	0
 8215 0425 03       		.uleb128 0x3
 8216 0426 08       		.uleb128 0x8
 8217 0427 3A       		.uleb128 0x3a
 8218 0428 0B       		.uleb128 0xb
 8219 0429 3B       		.uleb128 0x3b
 8220 042a 0B       		.uleb128 0xb
 8221 042b 39       		.uleb128 0x39
 8222 042c 0B       		.uleb128 0xb
 8223 042d 49       		.uleb128 0x49
 8224 042e 13       		.uleb128 0x13
 8225 042f 00       		.byte	0
 8226 0430 00       		.byte	0
 8227 0431 44       		.uleb128 0x44
 8228 0432 34       		.uleb128 0x34
 8229 0433 00       		.byte	0
 8230 0434 03       		.uleb128 0x3
 8231 0435 08       		.uleb128 0x8
 8232 0436 3A       		.uleb128 0x3a
 8233 0437 0B       		.uleb128 0xb
 8234 0438 3B       		.uleb128 0x3b
 8235 0439 0B       		.uleb128 0xb
 8236 043a 39       		.uleb128 0x39
 8237 043b 0B       		.uleb128 0xb
 8238 043c 49       		.uleb128 0x49
 8239 043d 13       		.uleb128 0x13
 8240 043e 02       		.uleb128 0x2
 8241 043f 17       		.uleb128 0x17
 8242 0440 B742     		.uleb128 0x2137
 8243 0442 17       		.uleb128 0x17
 8244 0443 00       		.byte	0
 8245 0444 00       		.byte	0
 8246 0445 45       		.uleb128 0x45
 8247 0446 05       		.uleb128 0x5
 8248 0447 00       		.byte	0
 8249 0448 03       		.uleb128 0x3
 8250 0449 0E       		.uleb128 0xe
 8251 044a 3A       		.uleb128 0x3a
 8252 044b 0B       		.uleb128 0xb
 8253 044c 3B       		.uleb128 0x3b
 8254 044d 0B       		.uleb128 0xb
 8255 044e 39       		.uleb128 0x39
 8256 044f 0B       		.uleb128 0xb
 8257 0450 49       		.uleb128 0x49
 8258 0451 13       		.uleb128 0x13
 8259 0452 02       		.uleb128 0x2
 8260 0453 18       		.uleb128 0x18
 8261 0454 00       		.byte	0
 8262 0455 00       		.byte	0
 8263 0456 46       		.uleb128 0x46
 8264 0457 2E       		.uleb128 0x2e
 8265 0458 01       		.byte	0x1
ARM GAS  C:\Users\DEVELO~1\AppData\Local\Temp\ccpJqkfg.s 			page 146


 8266 0459 03       		.uleb128 0x3
 8267 045a 0E       		.uleb128 0xe
 8268 045b 3A       		.uleb128 0x3a
 8269 045c 0B       		.uleb128 0xb
 8270 045d 3B       		.uleb128 0x3b
 8271 045e 05       		.uleb128 0x5
 8272 045f 39       		.uleb128 0x39
 8273 0460 0B       		.uleb128 0xb
 8274 0461 27       		.uleb128 0x27
 8275 0462 19       		.uleb128 0x19
 8276 0463 49       		.uleb128 0x49
 8277 0464 13       		.uleb128 0x13
 8278 0465 20       		.uleb128 0x20
 8279 0466 0B       		.uleb128 0xb
 8280 0467 01       		.uleb128 0x1
 8281 0468 13       		.uleb128 0x13
 8282 0469 00       		.byte	0
 8283 046a 00       		.byte	0
 8284 046b 47       		.uleb128 0x47
 8285 046c 2E       		.uleb128 0x2e
 8286 046d 01       		.byte	0x1
 8287 046e 03       		.uleb128 0x3
 8288 046f 0E       		.uleb128 0xe
 8289 0470 3A       		.uleb128 0x3a
 8290 0471 0B       		.uleb128 0xb
 8291 0472 3B       		.uleb128 0x3b
 8292 0473 0B       		.uleb128 0xb
 8293 0474 39       		.uleb128 0x39
 8294 0475 0B       		.uleb128 0xb
 8295 0476 27       		.uleb128 0x27
 8296 0477 19       		.uleb128 0x19
 8297 0478 20       		.uleb128 0x20
 8298 0479 0B       		.uleb128 0xb
 8299 047a 01       		.uleb128 0x1
 8300 047b 13       		.uleb128 0x13
 8301 047c 00       		.byte	0
 8302 047d 00       		.byte	0
 8303 047e 48       		.uleb128 0x48
 8304 047f 05       		.uleb128 0x5
 8305 0480 00       		.byte	0
 8306 0481 03       		.uleb128 0x3
 8307 0482 08       		.uleb128 0x8
 8308 0483 3A       		.uleb128 0x3a
 8309 0484 0B       		.uleb128 0xb
 8310 0485 3B       		.uleb128 0x3b
 8311 0486 0B       		.uleb128 0xb
 8312 0487 39       		.uleb128 0x39
 8313 0488 0B       		.uleb128 0xb
 8314 0489 49       		.uleb128 0x49
 8315 048a 13       		.uleb128 0x13
 8316 048b 00       		.byte	0
 8317 048c 00       		.byte	0
 8318 048d 49       		.uleb128 0x49
 8319 048e 2E       		.uleb128 0x2e
 8320 048f 00       		.byte	0
 8321 0490 3F       		.uleb128 0x3f
 8322 0491 19       		.uleb128 0x19
ARM GAS  C:\Users\DEVELO~1\AppData\Local\Temp\ccpJqkfg.s 			page 147


 8323 0492 3C       		.uleb128 0x3c
 8324 0493 19       		.uleb128 0x19
 8325 0494 6E       		.uleb128 0x6e
 8326 0495 0E       		.uleb128 0xe
 8327 0496 03       		.uleb128 0x3
 8328 0497 0E       		.uleb128 0xe
 8329 0498 3A       		.uleb128 0x3a
 8330 0499 0B       		.uleb128 0xb
 8331 049a 3B       		.uleb128 0x3b
 8332 049b 0B       		.uleb128 0xb
 8333 049c 00       		.byte	0
 8334 049d 00       		.byte	0
 8335 049e 00       		.byte	0
 8336              		.section	.debug_loclists,"",%progbits
 8337 0000 01100000 		.4byte	.Ldebug_loc3-.Ldebug_loc2
 8338              	.Ldebug_loc2:
 8339 0004 0500     		.2byte	0x5
 8340 0006 04       		.byte	0x4
 8341 0007 00       		.byte	0
 8342 0008 00000000 		.4byte	0
 8343              	.Ldebug_loc0:
 8344              	.LVUS194:
 8345 000c 00       		.uleb128 0
 8346 000d 00       		.uleb128 .LVU1348
 8347 000e 00       		.uleb128 .LVU1348
 8348 000f 00       		.uleb128 0
 8349              	.LLST194:
 8350 0010 06       		.byte	0x6
 8351 0011 00000000 		.4byte	.LVL215
 8352 0015 04       		.byte	0x4
 8353 0016 00       		.uleb128 .LVL215-.LVL215
 8354 0017 41       		.uleb128 .LVL225-1-.LVL215
 8355 0018 01       		.uleb128 0x1
 8356 0019 50       		.byte	0x50
 8357 001a 04       		.byte	0x4
 8358 001b 41       		.uleb128 .LVL225-1-.LVL215
 8359 001c 4A       		.uleb128 .LFE452-.LVL215
 8360 001d 04       		.uleb128 0x4
 8361 001e A3       		.byte	0xa3
 8362 001f 01       		.uleb128 0x1
 8363 0020 50       		.byte	0x50
 8364 0021 9F       		.byte	0x9f
 8365 0022 00       		.byte	0
 8366              	.LVUS198:
 8367 0023 00       		.uleb128 .LVU1296
 8368 0024 00       		.uleb128 .LVU1298
 8369 0025 00       		.uleb128 .LVU1298
 8370 0026 00       		.uleb128 .LVU1299
 8371 0027 00       		.uleb128 .LVU1316
 8372 0028 00       		.uleb128 .LVU1330
 8373 0029 00       		.uleb128 .LVU1330
 8374 002a 00       		.uleb128 .LVU1331
 8375 002b 00       		.uleb128 .LVU1331
 8376 002c 00       		.uleb128 .LVU1335
 8377              	.LLST198:
 8378 002d 06       		.byte	0x6
 8379 002e 10000000 		.4byte	.LVL217
ARM GAS  C:\Users\DEVELO~1\AppData\Local\Temp\ccpJqkfg.s 			page 148


 8380 0032 04       		.byte	0x4
 8381 0033 00       		.uleb128 .LVL217-.LVL217
 8382 0034 02       		.uleb128 .LVL218-.LVL217
 8383 0035 06       		.uleb128 0x6
 8384 0036 73       		.byte	0x73
 8385 0037 00       		.sleb128 0
 8386 0038 72       		.byte	0x72
 8387 0039 00       		.sleb128 0
 8388 003a 1C       		.byte	0x1c
 8389 003b 9F       		.byte	0x9f
 8390 003c 04       		.byte	0x4
 8391 003d 02       		.uleb128 .LVL218-.LVL217
 8392 003e 04       		.uleb128 .LVL219-.LVL217
 8393 003f 01       		.uleb128 0x1
 8394 0040 53       		.byte	0x53
 8395 0041 04       		.byte	0x4
 8396 0042 0C       		.uleb128 .LVL221-.LVL217
 8397 0043 14       		.uleb128 .LVL222-.LVL217
 8398 0044 01       		.uleb128 0x1
 8399 0045 53       		.byte	0x53
 8400 0046 04       		.byte	0x4
 8401 0047 14       		.uleb128 .LVL222-.LVL217
 8402 0048 16       		.uleb128 .LVL223-.LVL217
 8403 0049 02       		.uleb128 0x2
 8404 004a 72       		.byte	0x72
 8405 004b 00       		.sleb128 0
 8406 004c 04       		.byte	0x4
 8407 004d 16       		.uleb128 .LVL223-.LVL217
 8408 004e 1E       		.uleb128 .LVL224-.LVL217
 8409 004f 03       		.uleb128 0x3
 8410 0050 70       		.byte	0x70
 8411 0051 10       		.sleb128 16
 8412 0052 06       		.byte	0x6
 8413 0053 00       		.byte	0
 8414              	.LVUS199:
 8415 0054 01       		.uleb128 .LVU1317
 8416 0055 00       		.uleb128 .LVU1330
 8417 0056 00       		.uleb128 .LVU1330
 8418 0057 00       		.uleb128 .LVU1331
 8419 0058 00       		.uleb128 .LVU1331
 8420 0059 00       		.uleb128 .LVU1335
 8421              	.LLST199:
 8422 005a 06       		.byte	0x6
 8423 005b 1C000000 		.4byte	.LVL221
 8424 005f 04       		.byte	0x4
 8425 0060 00       		.uleb128 .LVL221-.LVL221
 8426 0061 08       		.uleb128 .LVL222-.LVL221
 8427 0062 01       		.uleb128 0x1
 8428 0063 53       		.byte	0x53
 8429 0064 04       		.byte	0x4
 8430 0065 08       		.uleb128 .LVL222-.LVL221
 8431 0066 0A       		.uleb128 .LVL223-.LVL221
 8432 0067 02       		.uleb128 0x2
 8433 0068 72       		.byte	0x72
 8434 0069 00       		.sleb128 0
 8435 006a 04       		.byte	0x4
 8436 006b 0A       		.uleb128 .LVL223-.LVL221
ARM GAS  C:\Users\DEVELO~1\AppData\Local\Temp\ccpJqkfg.s 			page 149


 8437 006c 12       		.uleb128 .LVL224-.LVL221
 8438 006d 03       		.uleb128 0x3
 8439 006e 70       		.byte	0x70
 8440 006f 10       		.sleb128 16
 8441 0070 06       		.byte	0x6
 8442 0071 00       		.byte	0
 8443              	.LVUS200:
 8444 0072 01       		.uleb128 .LVU1317
 8445 0073 00       		.uleb128 .LVU1348
 8446 0074 00       		.uleb128 .LVU1348
 8447 0075 00       		.uleb128 .LVU1348
 8448              	.LLST200:
 8449 0076 06       		.byte	0x6
 8450 0077 1C000000 		.4byte	.LVL221
 8451 007b 04       		.byte	0x4
 8452 007c 00       		.uleb128 .LVL221-.LVL221
 8453 007d 25       		.uleb128 .LVL225-1-.LVL221
 8454 007e 01       		.uleb128 0x1
 8455 007f 50       		.byte	0x50
 8456 0080 04       		.byte	0x4
 8457 0081 25       		.uleb128 .LVL225-1-.LVL221
 8458 0082 26       		.uleb128 .LVL225-.LVL221
 8459 0083 04       		.uleb128 0x4
 8460 0084 A3       		.byte	0xa3
 8461 0085 01       		.uleb128 0x1
 8462 0086 50       		.byte	0x50
 8463 0087 9F       		.byte	0x9f
 8464 0088 00       		.byte	0
 8465              	.LVUS196:
 8466 0089 08       		.uleb128 .LVU1283
 8467 008a 00       		.uleb128 .LVU1287
 8468              	.LLST196:
 8469 008b 08       		.byte	0x8
 8470 008c 00000000 		.4byte	.LVL215
 8471 0090 08       		.uleb128 .LVL216-.LVL215
 8472 0091 03       		.uleb128 0x3
 8473 0092 08       		.byte	0x8
 8474 0093 30       		.byte	0x30
 8475 0094 9F       		.byte	0x9f
 8476 0095 00       		.byte	0
 8477              	.LVUS202:
 8478 0096 0D       		.uleb128 .LVU1312
 8479 0097 00       		.uleb128 .LVU1314
 8480 0098 0D       		.uleb128 .LVU1361
 8481 0099 00       		.uleb128 .LVU1363
 8482              	.LLST202:
 8483 009a 06       		.byte	0x6
 8484 009b 14000000 		.4byte	.LVL219
 8485 009f 04       		.byte	0x4
 8486 00a0 00       		.uleb128 .LVL219-.LVL219
 8487 00a1 06       		.uleb128 .LVL220-.LVL219
 8488 00a2 02       		.uleb128 0x2
 8489 00a3 30       		.byte	0x30
 8490 00a4 9F       		.byte	0x9f
 8491 00a5 04       		.byte	0x4
 8492 00a6 2E       		.uleb128 .LVL225-.LVL219
 8493 00a7 34       		.uleb128 .LVL226-.LVL219
ARM GAS  C:\Users\DEVELO~1\AppData\Local\Temp\ccpJqkfg.s 			page 150


 8494 00a8 02       		.uleb128 0x2
 8495 00a9 30       		.byte	0x30
 8496 00aa 9F       		.byte	0x9f
 8497 00ab 00       		.byte	0
 8498              	.LVUS191:
 8499 00ac 00       		.uleb128 0
 8500 00ad 00       		.uleb128 .LVU1240
 8501 00ae 00       		.uleb128 .LVU1240
 8502 00af 00       		.uleb128 .LVU1241
 8503 00b0 00       		.uleb128 .LVU1241
 8504 00b1 00       		.uleb128 .LVU1242
 8505 00b2 00       		.uleb128 .LVU1242
 8506 00b3 00       		.uleb128 0
 8507              	.LLST191:
 8508 00b4 06       		.byte	0x6
 8509 00b5 00000000 		.4byte	.LVL205
 8510 00b9 04       		.byte	0x4
 8511 00ba 00       		.uleb128 .LVL205-.LVL205
 8512 00bb 0C       		.uleb128 .LVL206-.LVL205
 8513 00bc 01       		.uleb128 0x1
 8514 00bd 50       		.byte	0x50
 8515 00be 04       		.byte	0x4
 8516 00bf 0C       		.uleb128 .LVL206-.LVL205
 8517 00c0 0E       		.uleb128 .LVL207-.LVL205
 8518 00c1 01       		.uleb128 0x1
 8519 00c2 53       		.byte	0x53
 8520 00c3 04       		.byte	0x4
 8521 00c4 0E       		.uleb128 .LVL207-.LVL205
 8522 00c5 10       		.uleb128 .LVL208-.LVL205
 8523 00c6 01       		.uleb128 0x1
 8524 00c7 50       		.byte	0x50
 8525 00c8 04       		.byte	0x4
 8526 00c9 10       		.uleb128 .LVL208-.LVL205
 8527 00ca 42       		.uleb128 .LFE451-.LVL205
 8528 00cb 01       		.uleb128 0x1
 8529 00cc 53       		.byte	0x53
 8530 00cd 00       		.byte	0
 8531              	.LVUS193:
 8532 00ce 00       		.uleb128 .LVU1247
 8533 00cf 00       		.uleb128 .LVU1249
 8534 00d0 00       		.uleb128 .LVU1249
 8535 00d1 00       		.uleb128 .LVU1250
 8536 00d2 00       		.uleb128 .LVU1253
 8537 00d3 00       		.uleb128 .LVU1260
 8538 00d4 00       		.uleb128 .LVU1260
 8539 00d5 00       		.uleb128 .LVU1263
 8540              	.LLST193:
 8541 00d6 06       		.byte	0x6
 8542 00d7 18000000 		.4byte	.LVL209
 8543 00db 04       		.byte	0x4
 8544 00dc 00       		.uleb128 .LVL209-.LVL209
 8545 00dd 02       		.uleb128 .LVL210-.LVL209
 8546 00de 06       		.uleb128 0x6
 8547 00df 70       		.byte	0x70
 8548 00e0 00       		.sleb128 0
 8549 00e1 72       		.byte	0x72
 8550 00e2 00       		.sleb128 0
ARM GAS  C:\Users\DEVELO~1\AppData\Local\Temp\ccpJqkfg.s 			page 151


 8551 00e3 1C       		.byte	0x1c
 8552 00e4 9F       		.byte	0x9f
 8553 00e5 04       		.byte	0x4
 8554 00e6 02       		.uleb128 .LVL210-.LVL209
 8555 00e7 04       		.uleb128 .LVL211-.LVL209
 8556 00e8 01       		.uleb128 0x1
 8557 00e9 50       		.byte	0x50
 8558 00ea 04       		.byte	0x4
 8559 00eb 08       		.uleb128 .LVL212-.LVL209
 8560 00ec 14       		.uleb128 .LVL213-.LVL209
 8561 00ed 01       		.uleb128 0x1
 8562 00ee 50       		.byte	0x50
 8563 00ef 04       		.byte	0x4
 8564 00f0 14       		.uleb128 .LVL213-.LVL209
 8565 00f1 1A       		.uleb128 .LVL214-.LVL209
 8566 00f2 03       		.uleb128 0x3
 8567 00f3 73       		.byte	0x73
 8568 00f4 10       		.sleb128 16
 8569 00f5 06       		.byte	0x6
 8570 00f6 00       		.byte	0
 8571              	.LVUS165:
 8572 00f7 00       		.uleb128 0
 8573 00f8 00       		.uleb128 .LVU1079
 8574 00f9 00       		.uleb128 .LVU1079
 8575 00fa 00       		.uleb128 .LVU1137
 8576 00fb 00       		.uleb128 .LVU1137
 8577 00fc 00       		.uleb128 .LVU1140
 8578 00fd 00       		.uleb128 .LVU1140
 8579 00fe 00       		.uleb128 .LVU1150
 8580 00ff 00       		.uleb128 .LVU1150
 8581 0100 00       		.uleb128 .LVU1156
 8582 0101 00       		.uleb128 .LVU1156
 8583 0102 00       		.uleb128 0
 8584              	.LLST165:
 8585 0103 06       		.byte	0x6
 8586 0104 00000000 		.4byte	.LVL171
 8587 0108 04       		.byte	0x4
 8588 0109 00       		.uleb128 .LVL171-.LVL171
 8589 010a 18       		.uleb128 .LVL173-.LVL171
 8590 010b 01       		.uleb128 0x1
 8591 010c 50       		.byte	0x50
 8592 010d 04       		.byte	0x4
 8593 010e 18       		.uleb128 .LVL173-.LVL171
 8594 010f 8601     		.uleb128 .LVL187-.LVL171
 8595 0111 01       		.uleb128 0x1
 8596 0112 5A       		.byte	0x5a
 8597 0113 04       		.byte	0x4
 8598 0114 8601     		.uleb128 .LVL187-.LVL171
 8599 0116 9101     		.uleb128 .LVL188-1-.LVL171
 8600 0118 01       		.uleb128 0x1
 8601 0119 50       		.byte	0x50
 8602 011a 04       		.byte	0x4
 8603 011b 9101     		.uleb128 .LVL188-1-.LVL171
 8604 011d A201     		.uleb128 .LVL190-.LVL171
 8605 011f 01       		.uleb128 0x1
 8606 0120 5A       		.byte	0x5a
 8607 0121 04       		.byte	0x4
ARM GAS  C:\Users\DEVELO~1\AppData\Local\Temp\ccpJqkfg.s 			page 152


 8608 0122 A201     		.uleb128 .LVL190-.LVL171
 8609 0124 A601     		.uleb128 .LVL191-.LVL171
 8610 0126 01       		.uleb128 0x1
 8611 0127 50       		.byte	0x50
 8612 0128 04       		.byte	0x4
 8613 0129 A601     		.uleb128 .LVL191-.LVL171
 8614 012b 9E02     		.uleb128 .LFE450-.LVL171
 8615 012d 01       		.uleb128 0x1
 8616 012e 5A       		.byte	0x5a
 8617 012f 00       		.byte	0
 8618              	.LVUS166:
 8619 0130 00       		.uleb128 0
 8620 0131 00       		.uleb128 .LVU1079
 8621 0132 00       		.uleb128 .LVU1079
 8622 0133 00       		.uleb128 .LVU1093
 8623 0134 00       		.uleb128 .LVU1093
 8624 0135 00       		.uleb128 .LVU1094
 8625 0136 00       		.uleb128 .LVU1094
 8626 0137 00       		.uleb128 .LVU1098
 8627 0138 00       		.uleb128 .LVU1098
 8628 0139 00       		.uleb128 .LVU1105
 8629 013a 00       		.uleb128 .LVU1105
 8630 013b 00       		.uleb128 .LVU1107
 8631 013c 00       		.uleb128 .LVU1107
 8632 013d 00       		.uleb128 .LVU1163
 8633 013e 00       		.uleb128 .LVU1163
 8634 013f 00       		.uleb128 .LVU1167
 8635 0140 01       		.uleb128 .LVU1168
 8636 0141 00       		.uleb128 0
 8637              	.LLST166:
 8638 0142 06       		.byte	0x6
 8639 0143 00000000 		.4byte	.LVL171
 8640 0147 04       		.byte	0x4
 8641 0148 00       		.uleb128 .LVL171-.LVL171
 8642 0149 18       		.uleb128 .LVL173-.LVL171
 8643 014a 01       		.uleb128 0x1
 8644 014b 51       		.byte	0x51
 8645 014c 04       		.byte	0x4
 8646 014d 18       		.uleb128 .LVL173-.LVL171
 8647 014e 36       		.uleb128 .LVL177-.LVL171
 8648 014f 01       		.uleb128 0x1
 8649 0150 54       		.byte	0x54
 8650 0151 04       		.byte	0x4
 8651 0152 36       		.uleb128 .LVL177-.LVL171
 8652 0153 3A       		.uleb128 .LVL178-.LVL171
 8653 0154 01       		.uleb128 0x1
 8654 0155 51       		.byte	0x51
 8655 0156 04       		.byte	0x4
 8656 0157 3A       		.uleb128 .LVL178-.LVL171
 8657 0158 68       		.uleb128 .LVL179-.LVL171
 8658 0159 03       		.uleb128 0x3
 8659 015a 7E       		.byte	0x7e
 8660 015b 40       		.sleb128 -64
 8661 015c 9F       		.byte	0x9f
 8662 015d 04       		.byte	0x4
 8663 015e 68       		.uleb128 .LVL179-.LVL171
 8664 015f 76       		.uleb128 .LVL182-.LVL171
ARM GAS  C:\Users\DEVELO~1\AppData\Local\Temp\ccpJqkfg.s 			page 153


 8665 0160 01       		.uleb128 0x1
 8666 0161 5E       		.byte	0x5e
 8667 0162 04       		.byte	0x4
 8668 0163 76       		.uleb128 .LVL182-.LVL171
 8669 0164 78       		.uleb128 .LVL183-.LVL171
 8670 0165 01       		.uleb128 0x1
 8671 0166 51       		.byte	0x51
 8672 0167 04       		.byte	0x4
 8673 0168 78       		.uleb128 .LVL183-.LVL171
 8674 0169 B401     		.uleb128 .LVL193-.LVL171
 8675 016b 01       		.uleb128 0x1
 8676 016c 54       		.byte	0x54
 8677 016d 04       		.byte	0x4
 8678 016e B401     		.uleb128 .LVL193-.LVL171
 8679 0170 BB01     		.uleb128 .LVL194-1-.LVL171
 8680 0172 01       		.uleb128 0x1
 8681 0173 51       		.byte	0x51
 8682 0174 04       		.byte	0x4
 8683 0175 BC01     		.uleb128 .LVL194-.LVL171
 8684 0177 9E02     		.uleb128 .LFE450-.LVL171
 8685 0179 01       		.uleb128 0x1
 8686 017a 54       		.byte	0x54
 8687 017b 00       		.byte	0
 8688              	.LVUS167:
 8689 017c 00       		.uleb128 0
 8690 017d 00       		.uleb128 .LVU1079
 8691 017e 00       		.uleb128 .LVU1079
 8692 017f 00       		.uleb128 0
 8693              	.LLST167:
 8694 0180 06       		.byte	0x6
 8695 0181 00000000 		.4byte	.LVL171
 8696 0185 04       		.byte	0x4
 8697 0186 00       		.uleb128 .LVL171-.LVL171
 8698 0187 18       		.uleb128 .LVL173-.LVL171
 8699 0188 01       		.uleb128 0x1
 8700 0189 52       		.byte	0x52
 8701 018a 04       		.byte	0x4
 8702 018b 18       		.uleb128 .LVL173-.LVL171
 8703 018c 9E02     		.uleb128 .LFE450-.LVL171
 8704 018e 01       		.uleb128 0x1
 8705 018f 56       		.byte	0x56
 8706 0190 00       		.byte	0
 8707              	.LVUS168:
 8708 0191 00       		.uleb128 0
 8709 0192 00       		.uleb128 .LVU1079
 8710 0193 00       		.uleb128 .LVU1079
 8711 0194 00       		.uleb128 .LVU1137
 8712 0195 00       		.uleb128 .LVU1137
 8713 0196 00       		.uleb128 .LVU1140
 8714 0197 00       		.uleb128 .LVU1140
 8715 0198 00       		.uleb128 .LVU1150
 8716 0199 00       		.uleb128 .LVU1150
 8717 019a 00       		.uleb128 .LVU1163
 8718 019b 00       		.uleb128 .LVU1163
 8719 019c 00       		.uleb128 0
 8720              	.LLST168:
 8721 019d 06       		.byte	0x6
ARM GAS  C:\Users\DEVELO~1\AppData\Local\Temp\ccpJqkfg.s 			page 154


 8722 019e 00000000 		.4byte	.LVL171
 8723 01a2 04       		.byte	0x4
 8724 01a3 00       		.uleb128 .LVL171-.LVL171
 8725 01a4 18       		.uleb128 .LVL173-.LVL171
 8726 01a5 01       		.uleb128 0x1
 8727 01a6 53       		.byte	0x53
 8728 01a7 04       		.byte	0x4
 8729 01a8 18       		.uleb128 .LVL173-.LVL171
 8730 01a9 8601     		.uleb128 .LVL187-.LVL171
 8731 01ab 01       		.uleb128 0x1
 8732 01ac 57       		.byte	0x57
 8733 01ad 04       		.byte	0x4
 8734 01ae 8601     		.uleb128 .LVL187-.LVL171
 8735 01b0 9101     		.uleb128 .LVL188-1-.LVL171
 8736 01b2 01       		.uleb128 0x1
 8737 01b3 51       		.byte	0x51
 8738 01b4 04       		.byte	0x4
 8739 01b5 9101     		.uleb128 .LVL188-1-.LVL171
 8740 01b7 A201     		.uleb128 .LVL190-.LVL171
 8741 01b9 01       		.uleb128 0x1
 8742 01ba 57       		.byte	0x57
 8743 01bb 04       		.byte	0x4
 8744 01bc A201     		.uleb128 .LVL190-.LVL171
 8745 01be B401     		.uleb128 .LVL193-.LVL171
 8746 01c0 01       		.uleb128 0x1
 8747 01c1 51       		.byte	0x51
 8748 01c2 04       		.byte	0x4
 8749 01c3 B401     		.uleb128 .LVL193-.LVL171
 8750 01c5 9E02     		.uleb128 .LFE450-.LVL171
 8751 01c7 01       		.uleb128 0x1
 8752 01c8 57       		.byte	0x57
 8753 01c9 00       		.byte	0
 8754              	.LVUS169:
 8755 01ca 02       		.uleb128 .LVU1059
 8756 01cb 00       		.uleb128 .LVU1079
 8757 01cc 00       		.uleb128 .LVU1079
 8758 01cd 00       		.uleb128 .LVU1101
 8759 01ce 00       		.uleb128 .LVU1101
 8760 01cf 01       		.uleb128 .LVU1103
 8761 01d0 01       		.uleb128 .LVU1103
 8762 01d1 00       		.uleb128 .LVU1172
 8763 01d2 01       		.uleb128 .LVU1174
 8764 01d3 00       		.uleb128 0
 8765              	.LLST169:
 8766 01d4 06       		.byte	0x6
 8767 01d5 00000000 		.4byte	.LVL171
 8768 01d9 04       		.byte	0x4
 8769 01da 00       		.uleb128 .LVL171-.LVL171
 8770 01db 18       		.uleb128 .LVL173-.LVL171
 8771 01dc 02       		.uleb128 0x2
 8772 01dd 30       		.byte	0x30
 8773 01de 9F       		.byte	0x9f
 8774 01df 04       		.byte	0x4
 8775 01e0 18       		.uleb128 .LVL173-.LVL171
 8776 01e1 6E       		.uleb128 .LVL180-.LVL171
 8777 01e2 01       		.uleb128 0x1
 8778 01e3 55       		.byte	0x55
ARM GAS  C:\Users\DEVELO~1\AppData\Local\Temp\ccpJqkfg.s 			page 155


 8779 01e4 04       		.byte	0x4
 8780 01e5 6E       		.uleb128 .LVL180-.LVL171
 8781 01e6 70       		.uleb128 .LVL181-.LVL171
 8782 01e7 03       		.uleb128 0x3
 8783 01e8 75       		.byte	0x75
 8784 01e9 40       		.sleb128 -64
 8785 01ea 9F       		.byte	0x9f
 8786 01eb 04       		.byte	0x4
 8787 01ec 70       		.uleb128 .LVL181-.LVL171
 8788 01ed C601     		.uleb128 .LVL195-.LVL171
 8789 01ef 01       		.uleb128 0x1
 8790 01f0 55       		.byte	0x55
 8791 01f1 04       		.byte	0x4
 8792 01f2 C801     		.uleb128 .LVL196-.LVL171
 8793 01f4 9E02     		.uleb128 .LFE450-.LVL171
 8794 01f6 01       		.uleb128 0x1
 8795 01f7 55       		.byte	0x55
 8796 01f8 00       		.byte	0
 8797              	.LVUS176:
 8798 01f9 01       		.uleb128 .LVU1087
 8799 01fa 00       		.uleb128 .LVU1090
 8800 01fb 00       		.uleb128 .LVU1090
 8801 01fc 00       		.uleb128 .LVU1091
 8802 01fd 00       		.uleb128 .LVU1091
 8803 01fe 00       		.uleb128 .LVU1137
 8804 01ff 00       		.uleb128 .LVU1163
 8805 0200 00       		.uleb128 .LVU1212
 8806              	.LLST176:
 8807 0201 06       		.byte	0x6
 8808 0202 22000000 		.4byte	.LVL174
 8809 0206 04       		.byte	0x4
 8810 0207 00       		.uleb128 .LVL174-.LVL174
 8811 0208 06       		.uleb128 .LVL175-.LVL174
 8812 0209 06       		.uleb128 0x6
 8813 020a 73       		.byte	0x73
 8814 020b 00       		.sleb128 0
 8815 020c 70       		.byte	0x70
 8816 020d 00       		.sleb128 0
 8817 020e 1C       		.byte	0x1c
 8818 020f 9F       		.byte	0x9f
 8819 0210 04       		.byte	0x4
 8820 0211 06       		.uleb128 .LVL175-.LVL174
 8821 0212 0E       		.uleb128 .LVL176-.LVL174
 8822 0213 01       		.uleb128 0x1
 8823 0214 53       		.byte	0x53
 8824 0215 04       		.byte	0x4
 8825 0216 0E       		.uleb128 .LVL176-.LVL174
 8826 0217 64       		.uleb128 .LVL187-.LVL174
 8827 0218 01       		.uleb128 0x1
 8828 0219 5B       		.byte	0x5b
 8829 021a 04       		.byte	0x4
 8830 021b 9201     		.uleb128 .LVL193-.LVL174
 8831 021d F001     		.uleb128 .LVL203-.LVL174
 8832 021f 01       		.uleb128 0x1
 8833 0220 5B       		.byte	0x5b
 8834 0221 00       		.byte	0
 8835              	.LVUS183:
ARM GAS  C:\Users\DEVELO~1\AppData\Local\Temp\ccpJqkfg.s 			page 156


 8836 0222 02       		.uleb128 .LVU1161
 8837 0223 00       		.uleb128 .LVU1163
 8838              	.LLST183:
 8839 0224 08       		.byte	0x8
 8840 0225 B2000000 		.4byte	.LVL192
 8841 0229 02       		.uleb128 .LVL193-.LVL192
 8842 022a 02       		.uleb128 0x2
 8843 022b 30       		.byte	0x30
 8844 022c 9F       		.byte	0x9f
 8845 022d 00       		.byte	0
 8846              	.LVUS185:
 8847 022e 00       		.uleb128 .LVU1140
 8848 022f 00       		.uleb128 .LVU1143
 8849              	.LLST185:
 8850 0230 08       		.byte	0x8
 8851 0231 92000000 		.4byte	.LVL188
 8852 0235 04       		.uleb128 .LVL189-.LVL188
 8853 0236 01       		.uleb128 0x1
 8854 0237 50       		.byte	0x50
 8855 0238 00       		.byte	0
 8856              	.LVUS187:
 8857 0239 00       		.uleb128 .LVU1137
 8858 023a 00       		.uleb128 .LVU1140
 8859 023b 00       		.uleb128 .LVU1140
 8860 023c 00       		.uleb128 .LVU1140
 8861 023d 02       		.uleb128 .LVU1145
 8862 023e 00       		.uleb128 .LVU1150
 8863 023f 00       		.uleb128 .LVU1150
 8864 0240 00       		.uleb128 .LVU1163
 8865              	.LLST187:
 8866 0241 06       		.byte	0x6
 8867 0242 86000000 		.4byte	.LVL187
 8868 0246 04       		.byte	0x4
 8869 0247 00       		.uleb128 .LVL187-.LVL187
 8870 0248 0B       		.uleb128 .LVL188-1-.LVL187
 8871 0249 01       		.uleb128 0x1
 8872 024a 51       		.byte	0x51
 8873 024b 04       		.byte	0x4
 8874 024c 0B       		.uleb128 .LVL188-1-.LVL187
 8875 024d 0C       		.uleb128 .LVL188-.LVL187
 8876 024e 01       		.uleb128 0x1
 8877 024f 57       		.byte	0x57
 8878 0250 04       		.byte	0x4
 8879 0251 10       		.uleb128 .LVL189-.LVL187
 8880 0252 1C       		.uleb128 .LVL190-.LVL187
 8881 0253 01       		.uleb128 0x1
 8882 0254 57       		.byte	0x57
 8883 0255 04       		.byte	0x4
 8884 0256 1C       		.uleb128 .LVL190-.LVL187
 8885 0257 2E       		.uleb128 .LVL193-.LVL187
 8886 0258 01       		.uleb128 0x1
 8887 0259 51       		.byte	0x51
 8888 025a 00       		.byte	0
 8889              	.LVUS188:
 8890 025b 00       		.uleb128 .LVU1137
 8891 025c 00       		.uleb128 .LVU1140
 8892 025d 00       		.uleb128 .LVU1140
ARM GAS  C:\Users\DEVELO~1\AppData\Local\Temp\ccpJqkfg.s 			page 157


 8893 025e 00       		.uleb128 .LVU1140
 8894 025f 02       		.uleb128 .LVU1145
 8895 0260 00       		.uleb128 .LVU1150
 8896 0261 00       		.uleb128 .LVU1150
 8897 0262 00       		.uleb128 .LVU1156
 8898 0263 00       		.uleb128 .LVU1156
 8899 0264 00       		.uleb128 .LVU1163
 8900              	.LLST188:
 8901 0265 06       		.byte	0x6
 8902 0266 86000000 		.4byte	.LVL187
 8903 026a 04       		.byte	0x4
 8904 026b 00       		.uleb128 .LVL187-.LVL187
 8905 026c 0B       		.uleb128 .LVL188-1-.LVL187
 8906 026d 01       		.uleb128 0x1
 8907 026e 50       		.byte	0x50
 8908 026f 04       		.byte	0x4
 8909 0270 0B       		.uleb128 .LVL188-1-.LVL187
 8910 0271 0C       		.uleb128 .LVL188-.LVL187
 8911 0272 01       		.uleb128 0x1
 8912 0273 5A       		.byte	0x5a
 8913 0274 04       		.byte	0x4
 8914 0275 10       		.uleb128 .LVL189-.LVL187
 8915 0276 1C       		.uleb128 .LVL190-.LVL187
 8916 0277 01       		.uleb128 0x1
 8917 0278 5A       		.byte	0x5a
 8918 0279 04       		.byte	0x4
 8919 027a 1C       		.uleb128 .LVL190-.LVL187
 8920 027b 20       		.uleb128 .LVL191-.LVL187
 8921 027c 01       		.uleb128 0x1
 8922 027d 50       		.byte	0x50
 8923 027e 04       		.byte	0x4
 8924 027f 20       		.uleb128 .LVL191-.LVL187
 8925 0280 2E       		.uleb128 .LVL193-.LVL187
 8926 0281 01       		.uleb128 0x1
 8927 0282 5A       		.byte	0x5a
 8928 0283 00       		.byte	0
 8929              	.LVUS189:
 8930 0284 00       		.uleb128 .LVU1150
 8931 0285 00       		.uleb128 .LVU1156
 8932 0286 00       		.uleb128 .LVU1156
 8933 0287 02       		.uleb128 .LVU1161
 8934              	.LLST189:
 8935 0288 06       		.byte	0x6
 8936 0289 A2000000 		.4byte	.LVL190
 8937 028d 04       		.byte	0x4
 8938 028e 00       		.uleb128 .LVL190-.LVL190
 8939 028f 04       		.uleb128 .LVL191-.LVL190
 8940 0290 01       		.uleb128 0x1
 8941 0291 50       		.byte	0x50
 8942 0292 04       		.byte	0x4
 8943 0293 04       		.uleb128 .LVL191-.LVL190
 8944 0294 10       		.uleb128 .LVL192-.LVL190
 8945 0295 01       		.uleb128 0x1
 8946 0296 5A       		.byte	0x5a
 8947 0297 00       		.byte	0
 8948              	.LVUS190:
 8949 0298 0E       		.uleb128 .LVU1226
ARM GAS  C:\Users\DEVELO~1\AppData\Local\Temp\ccpJqkfg.s 			page 158


 8950 0299 00       		.uleb128 .LVU1228
 8951              	.LLST190:
 8952 029a 08       		.byte	0x8
 8953 029b 12010000 		.4byte	.LVL203
 8954 029f 06       		.uleb128 .LVL204-.LVL203
 8955 02a0 02       		.uleb128 0x2
 8956 02a1 30       		.byte	0x30
 8957 02a2 9F       		.byte	0x9f
 8958 02a3 00       		.byte	0
 8959              	.LVUS178:
 8960 02a4 01       		.uleb128 .LVU1179
 8961 02a5 00       		.uleb128 .LVU1191
 8962 02a6 00       		.uleb128 .LVU1191
 8963 02a7 00       		.uleb128 .LVU1196
 8964 02a8 00       		.uleb128 .LVU1196
 8965 02a9 00       		.uleb128 .LVU1197
 8966 02aa 00       		.uleb128 .LVU1197
 8967 02ab 00       		.uleb128 .LVU1200
 8968              	.LLST178:
 8969 02ac 06       		.byte	0x6
 8970 02ad D0000000 		.4byte	.LVL197
 8971 02b1 04       		.byte	0x4
 8972 02b2 00       		.uleb128 .LVL197-.LVL197
 8973 02b3 0A       		.uleb128 .LVL198-.LVL197
 8974 02b4 06       		.uleb128 0x6
 8975 02b5 7A       		.byte	0x7a
 8976 02b6 1C       		.sleb128 28
 8977 02b7 06       		.byte	0x6
 8978 02b8 34       		.byte	0x34
 8979 02b9 1C       		.byte	0x1c
 8980 02ba 9F       		.byte	0x9f
 8981 02bb 04       		.byte	0x4
 8982 02bc 0A       		.uleb128 .LVL198-.LVL197
 8983 02bd 18       		.uleb128 .LVL199-.LVL197
 8984 02be 01       		.uleb128 0x1
 8985 02bf 52       		.byte	0x52
 8986 02c0 04       		.byte	0x4
 8987 02c1 18       		.uleb128 .LVL199-.LVL197
 8988 02c2 1A       		.uleb128 .LVL200-.LVL197
 8989 02c3 02       		.uleb128 0x2
 8990 02c4 73       		.byte	0x73
 8991 02c5 00       		.sleb128 0
 8992 02c6 04       		.byte	0x4
 8993 02c7 1A       		.uleb128 .LVL200-.LVL197
 8994 02c8 22       		.uleb128 .LVL201-.LVL197
 8995 02c9 03       		.uleb128 0x3
 8996 02ca 7A       		.byte	0x7a
 8997 02cb 10       		.sleb128 16
 8998 02cc 06       		.byte	0x6
 8999 02cd 00       		.byte	0
 9000              	.LVUS179:
 9001 02ce 01       		.uleb128 .LVU1179
 9002 02cf 00       		.uleb128 .LVU1212
 9003              	.LLST179:
 9004 02d0 08       		.byte	0x8
 9005 02d1 D0000000 		.4byte	.LVL197
 9006 02d5 42       		.uleb128 .LVL203-.LVL197
ARM GAS  C:\Users\DEVELO~1\AppData\Local\Temp\ccpJqkfg.s 			page 159


 9007 02d6 01       		.uleb128 0x1
 9008 02d7 5A       		.byte	0x5a
 9009 02d8 00       		.byte	0
 9010              	.LVUS180:
 9011 02d9 0C       		.uleb128 .LVU1119
 9012 02da 00       		.uleb128 .LVU1121
 9013              	.LLST180:
 9014 02db 08       		.byte	0x8
 9015 02dc 78000000 		.4byte	.LVL183
 9016 02e0 04       		.uleb128 .LVL184-.LVL183
 9017 02e1 02       		.uleb128 0x2
 9018 02e2 30       		.byte	0x30
 9019 02e3 9F       		.byte	0x9f
 9020 02e4 00       		.byte	0
 9021              	.LVUS181:
 9022 02e5 07       		.uleb128 .LVU1131
 9023 02e6 00       		.uleb128 .LVU1133
 9024              	.LLST181:
 9025 02e7 08       		.byte	0x8
 9026 02e8 80000000 		.4byte	.LVL185
 9027 02ec 04       		.uleb128 .LVL186-.LVL185
 9028 02ed 03       		.uleb128 0x3
 9029 02ee 08       		.byte	0x8
 9030 02ef 30       		.byte	0x30
 9031 02f0 9F       		.byte	0x9f
 9032 02f1 00       		.byte	0
 9033              	.LVUS174:
 9034 02f2 0C       		.uleb128 .LVU1069
 9035 02f3 00       		.uleb128 .LVU1074
 9036              	.LLST174:
 9037 02f4 08       		.byte	0x8
 9038 02f5 00000000 		.4byte	.LVL171
 9039 02f9 14       		.uleb128 .LVL172-.LVL171
 9040 02fa 03       		.uleb128 0x3
 9041 02fb 08       		.byte	0x8
 9042 02fc 30       		.byte	0x30
 9043 02fd 9F       		.byte	0x9f
 9044 02fe 00       		.byte	0
 9045              	.LVUS146:
 9046 02ff 00       		.uleb128 0
 9047 0300 00       		.uleb128 .LVU957
 9048 0301 00       		.uleb128 .LVU957
 9049 0302 00       		.uleb128 .LVU974
 9050 0303 00       		.uleb128 .LVU974
 9051 0304 00       		.uleb128 .LVU991
 9052 0305 00       		.uleb128 .LVU991
 9053 0306 00       		.uleb128 .LVU1009
 9054 0307 00       		.uleb128 .LVU1009
 9055 0308 00       		.uleb128 .LVU1012
 9056 0309 00       		.uleb128 .LVU1012
 9057 030a 00       		.uleb128 .LVU1023
 9058 030b 00       		.uleb128 .LVU1023
 9059 030c 00       		.uleb128 .LVU1037
 9060 030d 00       		.uleb128 .LVU1037
 9061 030e 00       		.uleb128 0
 9062              	.LLST146:
 9063 030f 06       		.byte	0x6
ARM GAS  C:\Users\DEVELO~1\AppData\Local\Temp\ccpJqkfg.s 			page 160


 9064 0310 00000000 		.4byte	.LVL148
 9065 0314 04       		.byte	0x4
 9066 0315 00       		.uleb128 .LVL148-.LVL148
 9067 0316 1E       		.uleb128 .LVL152-.LVL148
 9068 0317 01       		.uleb128 0x1
 9069 0318 50       		.byte	0x50
 9070 0319 04       		.byte	0x4
 9071 031a 1E       		.uleb128 .LVL152-.LVL148
 9072 031b 26       		.uleb128 .LVL154-.LVL148
 9073 031c 01       		.uleb128 0x1
 9074 031d 54       		.byte	0x54
 9075 031e 04       		.byte	0x4
 9076 031f 26       		.uleb128 .LVL154-.LVL148
 9077 0320 32       		.uleb128 .LVL156-.LVL148
 9078 0321 01       		.uleb128 0x1
 9079 0322 50       		.byte	0x50
 9080 0323 04       		.byte	0x4
 9081 0324 32       		.uleb128 .LVL156-.LVL148
 9082 0325 56       		.uleb128 .LVL161-.LVL148
 9083 0326 01       		.uleb128 0x1
 9084 0327 54       		.byte	0x54
 9085 0328 04       		.byte	0x4
 9086 0329 56       		.uleb128 .LVL161-.LVL148
 9087 032a 61       		.uleb128 .LVL163-1-.LVL148
 9088 032b 01       		.uleb128 0x1
 9089 032c 50       		.byte	0x50
 9090 032d 04       		.byte	0x4
 9091 032e 61       		.uleb128 .LVL163-1-.LVL148
 9092 032f 70       		.uleb128 .LVL165-.LVL148
 9093 0330 01       		.uleb128 0x1
 9094 0331 54       		.byte	0x54
 9095 0332 04       		.byte	0x4
 9096 0333 70       		.uleb128 .LVL165-.LVL148
 9097 0334 8201     		.uleb128 .LVL169-.LVL148
 9098 0336 01       		.uleb128 0x1
 9099 0337 50       		.byte	0x50
 9100 0338 04       		.byte	0x4
 9101 0339 8201     		.uleb128 .LVL169-.LVL148
 9102 033b 8A01     		.uleb128 .LFE449-.LVL148
 9103 033d 01       		.uleb128 0x1
 9104 033e 54       		.byte	0x54
 9105 033f 00       		.byte	0
 9106              	.LVUS147:
 9107 0340 00       		.uleb128 0
 9108 0341 00       		.uleb128 .LVU948
 9109 0342 00       		.uleb128 .LVU948
 9110 0343 00       		.uleb128 .LVU1009
 9111 0344 00       		.uleb128 .LVU1009
 9112 0345 00       		.uleb128 .LVU1010
 9113 0346 00       		.uleb128 .LVU1010
 9114 0347 00       		.uleb128 0
 9115              	.LLST147:
 9116 0348 06       		.byte	0x6
 9117 0349 00000000 		.4byte	.LVL148
 9118 034d 04       		.byte	0x4
 9119 034e 00       		.uleb128 .LVL148-.LVL148
 9120 034f 10       		.uleb128 .LVL151-.LVL148
ARM GAS  C:\Users\DEVELO~1\AppData\Local\Temp\ccpJqkfg.s 			page 161


 9121 0350 01       		.uleb128 0x1
 9122 0351 51       		.byte	0x51
 9123 0352 04       		.byte	0x4
 9124 0353 10       		.uleb128 .LVL151-.LVL148
 9125 0354 56       		.uleb128 .LVL161-.LVL148
 9126 0355 04       		.uleb128 0x4
 9127 0356 A3       		.byte	0xa3
 9128 0357 01       		.uleb128 0x1
 9129 0358 51       		.byte	0x51
 9130 0359 9F       		.byte	0x9f
 9131 035a 04       		.byte	0x4
 9132 035b 56       		.uleb128 .LVL161-.LVL148
 9133 035c 5A       		.uleb128 .LVL162-.LVL148
 9134 035d 01       		.uleb128 0x1
 9135 035e 51       		.byte	0x51
 9136 035f 04       		.byte	0x4
 9137 0360 5A       		.uleb128 .LVL162-.LVL148
 9138 0361 8A01     		.uleb128 .LFE449-.LVL148
 9139 0363 04       		.uleb128 0x4
 9140 0364 A3       		.byte	0xa3
 9141 0365 01       		.uleb128 0x1
 9142 0366 51       		.byte	0x51
 9143 0367 9F       		.byte	0x9f
 9144 0368 00       		.byte	0
 9145              	.LVUS148:
 9146 0369 00       		.uleb128 0
 9147 036a 00       		.uleb128 .LVU948
 9148 036b 00       		.uleb128 .LVU948
 9149 036c 00       		.uleb128 .LVU1009
 9150 036d 00       		.uleb128 .LVU1009
 9151 036e 00       		.uleb128 .LVU1010
 9152 036f 00       		.uleb128 .LVU1010
 9153 0370 00       		.uleb128 .LVU1012
 9154 0371 00       		.uleb128 .LVU1012
 9155 0372 00       		.uleb128 .LVU1023
 9156 0373 00       		.uleb128 .LVU1023
 9157 0374 00       		.uleb128 .LVU1030
 9158 0375 00       		.uleb128 .LVU1030
 9159 0376 00       		.uleb128 .LVU1036
 9160 0377 00       		.uleb128 .LVU1036
 9161 0378 00       		.uleb128 .LVU1037
 9162 0379 00       		.uleb128 .LVU1037
 9163 037a 00       		.uleb128 0
 9164              	.LLST148:
 9165 037b 06       		.byte	0x6
 9166 037c 00000000 		.4byte	.LVL148
 9167 0380 04       		.byte	0x4
 9168 0381 00       		.uleb128 .LVL148-.LVL148
 9169 0382 10       		.uleb128 .LVL151-.LVL148
 9170 0383 01       		.uleb128 0x1
 9171 0384 52       		.byte	0x52
 9172 0385 04       		.byte	0x4
 9173 0386 10       		.uleb128 .LVL151-.LVL148
 9174 0387 56       		.uleb128 .LVL161-.LVL148
 9175 0388 04       		.uleb128 0x4
 9176 0389 A3       		.byte	0xa3
 9177 038a 01       		.uleb128 0x1
ARM GAS  C:\Users\DEVELO~1\AppData\Local\Temp\ccpJqkfg.s 			page 162


 9178 038b 52       		.byte	0x52
 9179 038c 9F       		.byte	0x9f
 9180 038d 04       		.byte	0x4
 9181 038e 56       		.uleb128 .LVL161-.LVL148
 9182 038f 5A       		.uleb128 .LVL162-.LVL148
 9183 0390 01       		.uleb128 0x1
 9184 0391 52       		.byte	0x52
 9185 0392 04       		.byte	0x4
 9186 0393 5A       		.uleb128 .LVL162-.LVL148
 9187 0394 61       		.uleb128 .LVL163-1-.LVL148
 9188 0395 01       		.uleb128 0x1
 9189 0396 51       		.byte	0x51
 9190 0397 04       		.byte	0x4
 9191 0398 61       		.uleb128 .LVL163-1-.LVL148
 9192 0399 70       		.uleb128 .LVL165-.LVL148
 9193 039a 01       		.uleb128 0x1
 9194 039b 55       		.byte	0x55
 9195 039c 04       		.byte	0x4
 9196 039d 70       		.uleb128 .LVL165-.LVL148
 9197 039e 74       		.uleb128 .LVL166-.LVL148
 9198 039f 01       		.uleb128 0x1
 9199 03a0 51       		.byte	0x51
 9200 03a1 04       		.byte	0x4
 9201 03a2 74       		.uleb128 .LVL166-.LVL148
 9202 03a3 7E       		.uleb128 .LVL168-.LVL148
 9203 03a4 01       		.uleb128 0x1
 9204 03a5 55       		.byte	0x55
 9205 03a6 04       		.byte	0x4
 9206 03a7 7E       		.uleb128 .LVL168-.LVL148
 9207 03a8 8201     		.uleb128 .LVL169-.LVL148
 9208 03aa 01       		.uleb128 0x1
 9209 03ab 51       		.byte	0x51
 9210 03ac 04       		.byte	0x4
 9211 03ad 8201     		.uleb128 .LVL169-.LVL148
 9212 03af 8A01     		.uleb128 .LFE449-.LVL148
 9213 03b1 01       		.uleb128 0x1
 9214 03b2 55       		.byte	0x55
 9215 03b3 00       		.byte	0
 9216              	.LVUS149:
 9217 03b4 01       		.uleb128 .LVU1034
 9218 03b5 00       		.uleb128 .LVU1036
 9219 03b6 00       		.uleb128 .LVU1037
 9220 03b7 00       		.uleb128 0
 9221              	.LLST149:
 9222 03b8 06       		.byte	0x6
 9223 03b9 7C000000 		.4byte	.LVL167
 9224 03bd 04       		.byte	0x4
 9225 03be 00       		.uleb128 .LVL167-.LVL167
 9226 03bf 02       		.uleb128 .LVL168-.LVL167
 9227 03c0 02       		.uleb128 0x2
 9228 03c1 30       		.byte	0x30
 9229 03c2 9F       		.byte	0x9f
 9230 03c3 04       		.byte	0x4
 9231 03c4 06       		.uleb128 .LVL169-.LVL167
 9232 03c5 0E       		.uleb128 .LFE449-.LVL167
 9233 03c6 01       		.uleb128 0x1
 9234 03c7 50       		.byte	0x50
ARM GAS  C:\Users\DEVELO~1\AppData\Local\Temp\ccpJqkfg.s 			page 163


 9235 03c8 00       		.byte	0
 9236              	.LVUS151:
 9237 03c9 08       		.uleb128 .LVU940
 9238 03ca 00       		.uleb128 .LVU942
 9239              	.LLST151:
 9240 03cb 08       		.byte	0x8
 9241 03cc 08000000 		.4byte	.LVL149
 9242 03d0 04       		.uleb128 .LVL150-.LVL149
 9243 03d1 03       		.uleb128 0x3
 9244 03d2 08       		.byte	0x8
 9245 03d3 30       		.byte	0x30
 9246 03d4 9F       		.byte	0x9f
 9247 03d5 00       		.byte	0
 9248              	.LVUS152:
 9249 03d6 0C       		.uleb128 .LVU969
 9250 03d7 00       		.uleb128 .LVU971
 9251              	.LLST152:
 9252 03d8 08       		.byte	0x8
 9253 03d9 1E000000 		.4byte	.LVL152
 9254 03dd 06       		.uleb128 .LVL153-.LVL152
 9255 03de 02       		.uleb128 0x2
 9256 03df 30       		.byte	0x30
 9257 03e0 9F       		.byte	0x9f
 9258 03e1 00       		.byte	0
 9259              	.LVUS154:
 9260 03e2 01       		.uleb128 .LVU975
 9261 03e3 00       		.uleb128 .LVU987
 9262 03e4 00       		.uleb128 .LVU987
 9263 03e5 00       		.uleb128 .LVU992
 9264 03e6 00       		.uleb128 .LVU992
 9265 03e7 00       		.uleb128 .LVU993
 9266 03e8 00       		.uleb128 .LVU993
 9267 03e9 00       		.uleb128 .LVU996
 9268              	.LLST154:
 9269 03ea 06       		.byte	0x6
 9270 03eb 26000000 		.4byte	.LVL154
 9271 03ef 04       		.byte	0x4
 9272 03f0 00       		.uleb128 .LVL154-.LVL154
 9273 03f1 06       		.uleb128 .LVL155-.LVL154
 9274 03f2 06       		.uleb128 0x6
 9275 03f3 70       		.byte	0x70
 9276 03f4 1C       		.sleb128 28
 9277 03f5 06       		.byte	0x6
 9278 03f6 34       		.byte	0x34
 9279 03f7 1C       		.byte	0x1c
 9280 03f8 9F       		.byte	0x9f
 9281 03f9 04       		.byte	0x4
 9282 03fa 06       		.uleb128 .LVL155-.LVL154
 9283 03fb 0E       		.uleb128 .LVL157-.LVL154
 9284 03fc 01       		.uleb128 0x1
 9285 03fd 52       		.byte	0x52
 9286 03fe 04       		.byte	0x4
 9287 03ff 0E       		.uleb128 .LVL157-.LVL154
 9288 0400 10       		.uleb128 .LVL158-.LVL154
 9289 0401 02       		.uleb128 0x2
 9290 0402 73       		.byte	0x73
 9291 0403 00       		.sleb128 0
ARM GAS  C:\Users\DEVELO~1\AppData\Local\Temp\ccpJqkfg.s 			page 164


 9292 0404 04       		.byte	0x4
 9293 0405 10       		.uleb128 .LVL158-.LVL154
 9294 0406 16       		.uleb128 .LVL159-.LVL154
 9295 0407 03       		.uleb128 0x3
 9296 0408 74       		.byte	0x74
 9297 0409 10       		.sleb128 16
 9298 040a 06       		.byte	0x6
 9299 040b 00       		.byte	0
 9300              	.LVUS155:
 9301 040c 01       		.uleb128 .LVU975
 9302 040d 00       		.uleb128 .LVU991
 9303 040e 00       		.uleb128 .LVU991
 9304 040f 00       		.uleb128 .LVU1009
 9305              	.LLST155:
 9306 0410 06       		.byte	0x6
 9307 0411 26000000 		.4byte	.LVL154
 9308 0415 04       		.byte	0x4
 9309 0416 00       		.uleb128 .LVL154-.LVL154
 9310 0417 0C       		.uleb128 .LVL156-.LVL154
 9311 0418 01       		.uleb128 0x1
 9312 0419 50       		.byte	0x50
 9313 041a 04       		.byte	0x4
 9314 041b 0C       		.uleb128 .LVL156-.LVL154
 9315 041c 30       		.uleb128 .LVL161-.LVL154
 9316 041d 01       		.uleb128 0x1
 9317 041e 54       		.byte	0x54
 9318 041f 00       		.byte	0
 9319              	.LVUS158:
 9320 0420 00       		.uleb128 .LVU1012
 9321 0421 00       		.uleb128 .LVU1016
 9322              	.LLST158:
 9323 0422 08       		.byte	0x8
 9324 0423 62000000 		.4byte	.LVL163
 9325 0427 04       		.uleb128 .LVL164-.LVL163
 9326 0428 01       		.uleb128 0x1
 9327 0429 50       		.byte	0x50
 9328 042a 00       		.byte	0
 9329              	.LVUS160:
 9330 042b 00       		.uleb128 .LVU1010
 9331 042c 00       		.uleb128 .LVU1012
 9332 042d 00       		.uleb128 .LVU1012
 9333 042e 00       		.uleb128 .LVU1012
 9334 042f 02       		.uleb128 .LVU1018
 9335 0430 00       		.uleb128 .LVU1023
 9336 0431 00       		.uleb128 .LVU1023
 9337 0432 00       		.uleb128 .LVU1030
 9338 0433 00       		.uleb128 .LVU1030
 9339 0434 00       		.uleb128 .LVU1036
 9340 0435 00       		.uleb128 .LVU1036
 9341 0436 00       		.uleb128 .LVU1037
 9342              	.LLST160:
 9343 0437 06       		.byte	0x6
 9344 0438 5A000000 		.4byte	.LVL162
 9345 043c 04       		.byte	0x4
 9346 043d 00       		.uleb128 .LVL162-.LVL162
 9347 043e 07       		.uleb128 .LVL163-1-.LVL162
 9348 043f 01       		.uleb128 0x1
ARM GAS  C:\Users\DEVELO~1\AppData\Local\Temp\ccpJqkfg.s 			page 165


 9349 0440 51       		.byte	0x51
 9350 0441 04       		.byte	0x4
 9351 0442 07       		.uleb128 .LVL163-1-.LVL162
 9352 0443 08       		.uleb128 .LVL163-.LVL162
 9353 0444 01       		.uleb128 0x1
 9354 0445 55       		.byte	0x55
 9355 0446 04       		.byte	0x4
 9356 0447 0C       		.uleb128 .LVL164-.LVL162
 9357 0448 16       		.uleb128 .LVL165-.LVL162
 9358 0449 01       		.uleb128 0x1
 9359 044a 55       		.byte	0x55
 9360 044b 04       		.byte	0x4
 9361 044c 16       		.uleb128 .LVL165-.LVL162
 9362 044d 1A       		.uleb128 .LVL166-.LVL162
 9363 044e 01       		.uleb128 0x1
 9364 044f 51       		.byte	0x51
 9365 0450 04       		.byte	0x4
 9366 0451 1A       		.uleb128 .LVL166-.LVL162
 9367 0452 24       		.uleb128 .LVL168-.LVL162
 9368 0453 01       		.uleb128 0x1
 9369 0454 55       		.byte	0x55
 9370 0455 04       		.byte	0x4
 9371 0456 24       		.uleb128 .LVL168-.LVL162
 9372 0457 28       		.uleb128 .LVL169-.LVL162
 9373 0458 01       		.uleb128 0x1
 9374 0459 51       		.byte	0x51
 9375 045a 00       		.byte	0
 9376              	.LVUS161:
 9377 045b 00       		.uleb128 .LVU1010
 9378 045c 00       		.uleb128 .LVU1012
 9379 045d 00       		.uleb128 .LVU1012
 9380 045e 00       		.uleb128 .LVU1012
 9381 045f 02       		.uleb128 .LVU1018
 9382 0460 00       		.uleb128 .LVU1023
 9383 0461 00       		.uleb128 .LVU1023
 9384 0462 00       		.uleb128 .LVU1037
 9385              	.LLST161:
 9386 0463 06       		.byte	0x6
 9387 0464 5A000000 		.4byte	.LVL162
 9388 0468 04       		.byte	0x4
 9389 0469 00       		.uleb128 .LVL162-.LVL162
 9390 046a 07       		.uleb128 .LVL163-1-.LVL162
 9391 046b 01       		.uleb128 0x1
 9392 046c 50       		.byte	0x50
 9393 046d 04       		.byte	0x4
 9394 046e 07       		.uleb128 .LVL163-1-.LVL162
 9395 046f 08       		.uleb128 .LVL163-.LVL162
 9396 0470 01       		.uleb128 0x1
 9397 0471 54       		.byte	0x54
 9398 0472 04       		.byte	0x4
 9399 0473 0C       		.uleb128 .LVL164-.LVL162
 9400 0474 16       		.uleb128 .LVL165-.LVL162
 9401 0475 01       		.uleb128 0x1
 9402 0476 54       		.byte	0x54
 9403 0477 04       		.byte	0x4
 9404 0478 16       		.uleb128 .LVL165-.LVL162
 9405 0479 28       		.uleb128 .LVL169-.LVL162
ARM GAS  C:\Users\DEVELO~1\AppData\Local\Temp\ccpJqkfg.s 			page 166


 9406 047a 01       		.uleb128 0x1
 9407 047b 50       		.byte	0x50
 9408 047c 00       		.byte	0
 9409              	.LVUS162:
 9410 047d 01       		.uleb128 .LVU1024
 9411 047e 00       		.uleb128 .LVU1030
 9412 047f 00       		.uleb128 .LVU1030
 9413 0480 01       		.uleb128 .LVU1034
 9414              	.LLST162:
 9415 0481 06       		.byte	0x6
 9416 0482 70000000 		.4byte	.LVL165
 9417 0486 04       		.byte	0x4
 9418 0487 00       		.uleb128 .LVL165-.LVL165
 9419 0488 04       		.uleb128 .LVL166-.LVL165
 9420 0489 01       		.uleb128 0x1
 9421 048a 51       		.byte	0x51
 9422 048b 04       		.byte	0x4
 9423 048c 04       		.uleb128 .LVL166-.LVL165
 9424 048d 0C       		.uleb128 .LVL167-.LVL165
 9425 048e 01       		.uleb128 0x1
 9426 048f 55       		.byte	0x55
 9427 0490 00       		.byte	0
 9428              	.LVUS163:
 9429 0491 00       		.uleb128 .LVU1023
 9430 0492 01       		.uleb128 .LVU1034
 9431              	.LLST163:
 9432 0493 08       		.byte	0x8
 9433 0494 70000000 		.4byte	.LVL165
 9434 0498 0C       		.uleb128 .LVL167-.LVL165
 9435 0499 01       		.uleb128 0x1
 9436 049a 50       		.byte	0x50
 9437 049b 00       		.byte	0
 9438              	.LVUS164:
 9439 049c 0E       		.uleb128 .LVU1051
 9440 049d 00       		.uleb128 .LVU1053
 9441              	.LLST164:
 9442 049e 08       		.byte	0x8
 9443 049f 82000000 		.4byte	.LVL169
 9444 04a3 06       		.uleb128 .LVL170-.LVL169
 9445 04a4 02       		.uleb128 0x2
 9446 04a5 30       		.byte	0x30
 9447 04a6 9F       		.byte	0x9f
 9448 04a7 00       		.byte	0
 9449              	.LVUS137:
 9450 04a8 00       		.uleb128 0
 9451 04a9 00       		.uleb128 .LVU875
 9452 04aa 00       		.uleb128 .LVU875
 9453 04ab 00       		.uleb128 0
 9454              	.LLST137:
 9455 04ac 06       		.byte	0x6
 9456 04ad 00000000 		.4byte	.LVL136
 9457 04b1 04       		.byte	0x4
 9458 04b2 00       		.uleb128 .LVL136-.LVL136
 9459 04b3 2B       		.uleb128 .LVL141-1-.LVL136
 9460 04b4 01       		.uleb128 0x1
 9461 04b5 50       		.byte	0x50
 9462 04b6 04       		.byte	0x4
ARM GAS  C:\Users\DEVELO~1\AppData\Local\Temp\ccpJqkfg.s 			page 167


 9463 04b7 2B       		.uleb128 .LVL141-1-.LVL136
 9464 04b8 34       		.uleb128 .LFE447-.LVL136
 9465 04b9 04       		.uleb128 0x4
 9466 04ba A3       		.byte	0xa3
 9467 04bb 01       		.uleb128 0x1
 9468 04bc 50       		.byte	0x50
 9469 04bd 9F       		.byte	0x9f
 9470 04be 00       		.byte	0
 9471              	.LVUS138:
 9472 04bf 00       		.uleb128 0
 9473 04c0 00       		.uleb128 .LVU857
 9474 04c1 00       		.uleb128 .LVU857
 9475 04c2 00       		.uleb128 .LVU859
 9476 04c3 00       		.uleb128 .LVU859
 9477 04c4 00       		.uleb128 .LVU862
 9478 04c5 00       		.uleb128 .LVU862
 9479 04c6 00       		.uleb128 0
 9480              	.LLST138:
 9481 04c7 06       		.byte	0x6
 9482 04c8 00000000 		.4byte	.LVL136
 9483 04cc 04       		.byte	0x4
 9484 04cd 00       		.uleb128 .LVL136-.LVL136
 9485 04ce 10       		.uleb128 .LVL138-.LVL136
 9486 04cf 01       		.uleb128 0x1
 9487 04d0 51       		.byte	0x51
 9488 04d1 04       		.byte	0x4
 9489 04d2 10       		.uleb128 .LVL138-.LVL136
 9490 04d3 14       		.uleb128 .LVL139-.LVL136
 9491 04d4 02       		.uleb128 0x2
 9492 04d5 73       		.byte	0x73
 9493 04d6 00       		.sleb128 0
 9494 04d7 04       		.byte	0x4
 9495 04d8 14       		.uleb128 .LVL139-.LVL136
 9496 04d9 1A       		.uleb128 .LVL140-.LVL136
 9497 04da 03       		.uleb128 0x3
 9498 04db 70       		.byte	0x70
 9499 04dc 10       		.sleb128 16
 9500 04dd 06       		.byte	0x6
 9501 04de 04       		.byte	0x4
 9502 04df 1A       		.uleb128 .LVL140-.LVL136
 9503 04e0 34       		.uleb128 .LFE447-.LVL136
 9504 04e1 04       		.uleb128 0x4
 9505 04e2 A3       		.byte	0xa3
 9506 04e3 01       		.uleb128 0x1
 9507 04e4 51       		.byte	0x51
 9508 04e5 9F       		.byte	0x9f
 9509 04e6 00       		.byte	0
 9510              	.LVUS140:
 9511 04e7 08       		.uleb128 .LVU835
 9512 04e8 00       		.uleb128 .LVU839
 9513              	.LLST140:
 9514 04e9 08       		.byte	0x8
 9515 04ea 00000000 		.4byte	.LVL136
 9516 04ee 08       		.uleb128 .LVL137-.LVL136
 9517 04ef 03       		.uleb128 0x3
 9518 04f0 08       		.byte	0x8
 9519 04f1 30       		.byte	0x30
ARM GAS  C:\Users\DEVELO~1\AppData\Local\Temp\ccpJqkfg.s 			page 168


 9520 04f2 9F       		.byte	0x9f
 9521 04f3 00       		.byte	0
 9522              	.LVUS141:
 9523 04f4 04       		.uleb128 .LVU843
 9524 04f5 00       		.uleb128 .LVU857
 9525 04f6 00       		.uleb128 .LVU857
 9526 04f7 00       		.uleb128 .LVU859
 9527 04f8 00       		.uleb128 .LVU859
 9528 04f9 00       		.uleb128 .LVU862
 9529 04fa 00       		.uleb128 .LVU862
 9530 04fb 00       		.uleb128 .LVU875
 9531              	.LLST141:
 9532 04fc 06       		.byte	0x6
 9533 04fd 08000000 		.4byte	.LVL137
 9534 0501 04       		.byte	0x4
 9535 0502 00       		.uleb128 .LVL137-.LVL137
 9536 0503 08       		.uleb128 .LVL138-.LVL137
 9537 0504 01       		.uleb128 0x1
 9538 0505 51       		.byte	0x51
 9539 0506 04       		.byte	0x4
 9540 0507 08       		.uleb128 .LVL138-.LVL137
 9541 0508 0C       		.uleb128 .LVL139-.LVL137
 9542 0509 02       		.uleb128 0x2
 9543 050a 73       		.byte	0x73
 9544 050b 00       		.sleb128 0
 9545 050c 04       		.byte	0x4
 9546 050d 0C       		.uleb128 .LVL139-.LVL137
 9547 050e 12       		.uleb128 .LVL140-.LVL137
 9548 050f 03       		.uleb128 0x3
 9549 0510 70       		.byte	0x70
 9550 0511 10       		.sleb128 16
 9551 0512 06       		.byte	0x6
 9552 0513 04       		.byte	0x4
 9553 0514 12       		.uleb128 .LVL140-.LVL137
 9554 0515 24       		.uleb128 .LVL141-.LVL137
 9555 0516 04       		.uleb128 0x4
 9556 0517 A3       		.byte	0xa3
 9557 0518 01       		.uleb128 0x1
 9558 0519 51       		.byte	0x51
 9559 051a 9F       		.byte	0x9f
 9560 051b 00       		.byte	0
 9561              	.LVUS142:
 9562 051c 04       		.uleb128 .LVU843
 9563 051d 00       		.uleb128 .LVU875
 9564 051e 00       		.uleb128 .LVU875
 9565 051f 00       		.uleb128 .LVU875
 9566              	.LLST142:
 9567 0520 06       		.byte	0x6
 9568 0521 08000000 		.4byte	.LVL137
 9569 0525 04       		.byte	0x4
 9570 0526 00       		.uleb128 .LVL137-.LVL137
 9571 0527 23       		.uleb128 .LVL141-1-.LVL137
 9572 0528 01       		.uleb128 0x1
 9573 0529 50       		.byte	0x50
 9574 052a 04       		.byte	0x4
 9575 052b 23       		.uleb128 .LVL141-1-.LVL137
 9576 052c 24       		.uleb128 .LVL141-.LVL137
ARM GAS  C:\Users\DEVELO~1\AppData\Local\Temp\ccpJqkfg.s 			page 169


 9577 052d 04       		.uleb128 0x4
 9578 052e A3       		.byte	0xa3
 9579 052f 01       		.uleb128 0x1
 9580 0530 50       		.byte	0x50
 9581 0531 9F       		.byte	0x9f
 9582 0532 00       		.byte	0
 9583              	.LVUS143:
 9584 0533 0D       		.uleb128 .LVU888
 9585 0534 00       		.uleb128 .LVU890
 9586              	.LLST143:
 9587 0535 08       		.byte	0x8
 9588 0536 2C000000 		.4byte	.LVL141
 9589 053a 06       		.uleb128 .LVL142-.LVL141
 9590 053b 02       		.uleb128 0x2
 9591 053c 30       		.byte	0x30
 9592 053d 9F       		.byte	0x9f
 9593 053e 00       		.byte	0
 9594              	.LVUS111:
 9595 053f 00       		.uleb128 0
 9596 0540 00       		.uleb128 .LVU728
 9597 0541 00       		.uleb128 .LVU728
 9598 0542 00       		.uleb128 .LVU739
 9599 0543 00       		.uleb128 .LVU739
 9600 0544 00       		.uleb128 .LVU746
 9601 0545 00       		.uleb128 .LVU746
 9602 0546 00       		.uleb128 .LVU769
 9603 0547 00       		.uleb128 .LVU769
 9604 0548 00       		.uleb128 .LVU770
 9605 0549 00       		.uleb128 .LVU770
 9606 054a 00       		.uleb128 0
 9607              	.LLST111:
 9608 054b 06       		.byte	0x6
 9609 054c 00000000 		.4byte	.LVL112
 9610 0550 04       		.byte	0x4
 9611 0551 00       		.uleb128 .LVL112-.LVL112
 9612 0552 15       		.uleb128 .LVL116-1-.LVL112
 9613 0553 01       		.uleb128 0x1
 9614 0554 50       		.byte	0x50
 9615 0555 04       		.byte	0x4
 9616 0556 15       		.uleb128 .LVL116-1-.LVL112
 9617 0557 24       		.uleb128 .LVL118-.LVL112
 9618 0558 01       		.uleb128 0x1
 9619 0559 54       		.byte	0x54
 9620 055a 04       		.byte	0x4
 9621 055b 24       		.uleb128 .LVL118-.LVL112
 9622 055c 28       		.uleb128 .LVL119-.LVL112
 9623 055d 01       		.uleb128 0x1
 9624 055e 50       		.byte	0x50
 9625 055f 04       		.byte	0x4
 9626 0560 28       		.uleb128 .LVL119-.LVL112
 9627 0561 3A       		.uleb128 .LVL123-.LVL112
 9628 0562 01       		.uleb128 0x1
 9629 0563 54       		.byte	0x54
 9630 0564 04       		.byte	0x4
 9631 0565 3A       		.uleb128 .LVL123-.LVL112
 9632 0566 3E       		.uleb128 .LVL124-.LVL112
 9633 0567 01       		.uleb128 0x1
ARM GAS  C:\Users\DEVELO~1\AppData\Local\Temp\ccpJqkfg.s 			page 170


 9634 0568 50       		.byte	0x50
 9635 0569 04       		.byte	0x4
 9636 056a 3E       		.uleb128 .LVL124-.LVL112
 9637 056b 46       		.uleb128 .LFE445-.LVL112
 9638 056c 01       		.uleb128 0x1
 9639 056d 54       		.byte	0x54
 9640 056e 00       		.byte	0
 9641              	.LVUS112:
 9642 056f 00       		.uleb128 0
 9643 0570 00       		.uleb128 .LVU728
 9644 0571 00       		.uleb128 .LVU728
 9645 0572 00       		.uleb128 .LVU739
 9646 0573 00       		.uleb128 .LVU739
 9647 0574 00       		.uleb128 .LVU747
 9648 0575 00       		.uleb128 .LVU747
 9649 0576 00       		.uleb128 .LVU769
 9650 0577 00       		.uleb128 .LVU769
 9651 0578 00       		.uleb128 0
 9652              	.LLST112:
 9653 0579 06       		.byte	0x6
 9654 057a 00000000 		.4byte	.LVL112
 9655 057e 04       		.byte	0x4
 9656 057f 00       		.uleb128 .LVL112-.LVL112
 9657 0580 15       		.uleb128 .LVL116-1-.LVL112
 9658 0581 01       		.uleb128 0x1
 9659 0582 51       		.byte	0x51
 9660 0583 04       		.byte	0x4
 9661 0584 15       		.uleb128 .LVL116-1-.LVL112
 9662 0585 24       		.uleb128 .LVL118-.LVL112
 9663 0586 01       		.uleb128 0x1
 9664 0587 55       		.byte	0x55
 9665 0588 04       		.byte	0x4
 9666 0589 24       		.uleb128 .LVL118-.LVL112
 9667 058a 2A       		.uleb128 .LVL120-.LVL112
 9668 058b 01       		.uleb128 0x1
 9669 058c 51       		.byte	0x51
 9670 058d 04       		.byte	0x4
 9671 058e 2A       		.uleb128 .LVL120-.LVL112
 9672 058f 3A       		.uleb128 .LVL123-.LVL112
 9673 0590 01       		.uleb128 0x1
 9674 0591 55       		.byte	0x55
 9675 0592 04       		.byte	0x4
 9676 0593 3A       		.uleb128 .LVL123-.LVL112
 9677 0594 46       		.uleb128 .LFE445-.LVL112
 9678 0595 01       		.uleb128 0x1
 9679 0596 51       		.byte	0x51
 9680 0597 00       		.byte	0
 9681              	.LVUS113:
 9682 0598 01       		.uleb128 .LVU751
 9683 0599 00       		.uleb128 .LVU769
 9684 059a 00       		.uleb128 .LVU770
 9685 059b 00       		.uleb128 0
 9686              	.LLST113:
 9687 059c 06       		.byte	0x6
 9688 059d 32000000 		.4byte	.LVL121
 9689 05a1 04       		.byte	0x4
 9690 05a2 00       		.uleb128 .LVL121-.LVL121
ARM GAS  C:\Users\DEVELO~1\AppData\Local\Temp\ccpJqkfg.s 			page 171


 9691 05a3 08       		.uleb128 .LVL123-.LVL121
 9692 05a4 01       		.uleb128 0x1
 9693 05a5 50       		.byte	0x50
 9694 05a6 04       		.byte	0x4
 9695 05a7 0C       		.uleb128 .LVL124-.LVL121
 9696 05a8 14       		.uleb128 .LFE445-.LVL121
 9697 05a9 01       		.uleb128 0x1
 9698 05aa 50       		.byte	0x50
 9699 05ab 00       		.byte	0
 9700              	.LVUS115:
 9701 05ac 08       		.uleb128 .LVU714
 9702 05ad 00       		.uleb128 .LVU718
 9703              	.LLST115:
 9704 05ae 08       		.byte	0x8
 9705 05af 06000000 		.4byte	.LVL113
 9706 05b3 06       		.uleb128 .LVL114-.LVL113
 9707 05b4 03       		.uleb128 0x3
 9708 05b5 08       		.byte	0x8
 9709 05b6 30       		.byte	0x30
 9710 05b7 9F       		.byte	0x9f
 9711 05b8 00       		.byte	0
 9712              	.LVUS117:
 9713 05b9 04       		.uleb128 .LVU722
 9714 05ba 00       		.uleb128 .LVU728
 9715 05bb 00       		.uleb128 .LVU728
 9716 05bc 00       		.uleb128 .LVU739
 9717 05bd 00       		.uleb128 .LVU739
 9718 05be 00       		.uleb128 .LVU747
 9719 05bf 00       		.uleb128 .LVU747
 9720 05c0 01       		.uleb128 .LVU751
 9721 05c1 00       		.uleb128 .LVU769
 9722 05c2 00       		.uleb128 .LVU770
 9723              	.LLST117:
 9724 05c3 06       		.byte	0x6
 9725 05c4 0C000000 		.4byte	.LVL114
 9726 05c8 04       		.byte	0x4
 9727 05c9 00       		.uleb128 .LVL114-.LVL114
 9728 05ca 09       		.uleb128 .LVL116-1-.LVL114
 9729 05cb 01       		.uleb128 0x1
 9730 05cc 51       		.byte	0x51
 9731 05cd 04       		.byte	0x4
 9732 05ce 09       		.uleb128 .LVL116-1-.LVL114
 9733 05cf 18       		.uleb128 .LVL118-.LVL114
 9734 05d0 01       		.uleb128 0x1
 9735 05d1 55       		.byte	0x55
 9736 05d2 04       		.byte	0x4
 9737 05d3 18       		.uleb128 .LVL118-.LVL114
 9738 05d4 1E       		.uleb128 .LVL120-.LVL114
 9739 05d5 01       		.uleb128 0x1
 9740 05d6 51       		.byte	0x51
 9741 05d7 04       		.byte	0x4
 9742 05d8 1E       		.uleb128 .LVL120-.LVL114
 9743 05d9 26       		.uleb128 .LVL121-.LVL114
 9744 05da 01       		.uleb128 0x1
 9745 05db 55       		.byte	0x55
 9746 05dc 04       		.byte	0x4
 9747 05dd 2E       		.uleb128 .LVL123-.LVL114
ARM GAS  C:\Users\DEVELO~1\AppData\Local\Temp\ccpJqkfg.s 			page 172


 9748 05de 32       		.uleb128 .LVL124-.LVL114
 9749 05df 01       		.uleb128 0x1
 9750 05e0 51       		.byte	0x51
 9751 05e1 00       		.byte	0
 9752              	.LVUS118:
 9753 05e2 04       		.uleb128 .LVU722
 9754 05e3 00       		.uleb128 .LVU728
 9755 05e4 00       		.uleb128 .LVU728
 9756 05e5 00       		.uleb128 .LVU739
 9757 05e6 00       		.uleb128 .LVU739
 9758 05e7 00       		.uleb128 .LVU746
 9759 05e8 00       		.uleb128 .LVU746
 9760 05e9 01       		.uleb128 .LVU751
 9761 05ea 00       		.uleb128 .LVU769
 9762 05eb 00       		.uleb128 .LVU770
 9763              	.LLST118:
 9764 05ec 06       		.byte	0x6
 9765 05ed 0C000000 		.4byte	.LVL114
 9766 05f1 04       		.byte	0x4
 9767 05f2 00       		.uleb128 .LVL114-.LVL114
 9768 05f3 09       		.uleb128 .LVL116-1-.LVL114
 9769 05f4 01       		.uleb128 0x1
 9770 05f5 50       		.byte	0x50
 9771 05f6 04       		.byte	0x4
 9772 05f7 09       		.uleb128 .LVL116-1-.LVL114
 9773 05f8 18       		.uleb128 .LVL118-.LVL114
 9774 05f9 01       		.uleb128 0x1
 9775 05fa 54       		.byte	0x54
 9776 05fb 04       		.byte	0x4
 9777 05fc 18       		.uleb128 .LVL118-.LVL114
 9778 05fd 1C       		.uleb128 .LVL119-.LVL114
 9779 05fe 01       		.uleb128 0x1
 9780 05ff 50       		.byte	0x50
 9781 0600 04       		.byte	0x4
 9782 0601 1C       		.uleb128 .LVL119-.LVL114
 9783 0602 26       		.uleb128 .LVL121-.LVL114
 9784 0603 01       		.uleb128 0x1
 9785 0604 54       		.byte	0x54
 9786 0605 04       		.byte	0x4
 9787 0606 2E       		.uleb128 .LVL123-.LVL114
 9788 0607 32       		.uleb128 .LVL124-.LVL114
 9789 0608 01       		.uleb128 0x1
 9790 0609 50       		.byte	0x50
 9791 060a 00       		.byte	0
 9792              	.LVUS120:
 9793 060b 00       		.uleb128 .LVU728
 9794 060c 00       		.uleb128 .LVU732
 9795              	.LLST120:
 9796 060d 08       		.byte	0x8
 9797 060e 16000000 		.4byte	.LVL116
 9798 0612 04       		.uleb128 .LVL117-.LVL116
 9799 0613 01       		.uleb128 0x1
 9800 0614 50       		.byte	0x50
 9801 0615 00       		.byte	0
 9802              	.LVUS122:
 9803 0616 00       		.uleb128 .LVU726
 9804 0617 00       		.uleb128 .LVU728
ARM GAS  C:\Users\DEVELO~1\AppData\Local\Temp\ccpJqkfg.s 			page 173


 9805 0618 00       		.uleb128 .LVU728
 9806 0619 00       		.uleb128 .LVU728
 9807 061a 02       		.uleb128 .LVU734
 9808 061b 00       		.uleb128 .LVU739
 9809 061c 00       		.uleb128 .LVU739
 9810 061d 00       		.uleb128 .LVU747
 9811 061e 00       		.uleb128 .LVU747
 9812 061f 01       		.uleb128 .LVU751
 9813 0620 00       		.uleb128 .LVU769
 9814 0621 00       		.uleb128 0
 9815              	.LLST122:
 9816 0622 06       		.byte	0x6
 9817 0623 0E000000 		.4byte	.LVL115
 9818 0627 04       		.byte	0x4
 9819 0628 00       		.uleb128 .LVL115-.LVL115
 9820 0629 07       		.uleb128 .LVL116-1-.LVL115
 9821 062a 01       		.uleb128 0x1
 9822 062b 51       		.byte	0x51
 9823 062c 04       		.byte	0x4
 9824 062d 07       		.uleb128 .LVL116-1-.LVL115
 9825 062e 08       		.uleb128 .LVL116-.LVL115
 9826 062f 01       		.uleb128 0x1
 9827 0630 55       		.byte	0x55
 9828 0631 04       		.byte	0x4
 9829 0632 0C       		.uleb128 .LVL117-.LVL115
 9830 0633 16       		.uleb128 .LVL118-.LVL115
 9831 0634 01       		.uleb128 0x1
 9832 0635 55       		.byte	0x55
 9833 0636 04       		.byte	0x4
 9834 0637 16       		.uleb128 .LVL118-.LVL115
 9835 0638 1C       		.uleb128 .LVL120-.LVL115
 9836 0639 01       		.uleb128 0x1
 9837 063a 51       		.byte	0x51
 9838 063b 04       		.byte	0x4
 9839 063c 1C       		.uleb128 .LVL120-.LVL115
 9840 063d 24       		.uleb128 .LVL121-.LVL115
 9841 063e 01       		.uleb128 0x1
 9842 063f 55       		.byte	0x55
 9843 0640 04       		.byte	0x4
 9844 0641 2C       		.uleb128 .LVL123-.LVL115
 9845 0642 38       		.uleb128 .LFE445-.LVL115
 9846 0643 01       		.uleb128 0x1
 9847 0644 51       		.byte	0x51
 9848 0645 00       		.byte	0
 9849              	.LVUS123:
 9850 0646 00       		.uleb128 .LVU726
 9851 0647 00       		.uleb128 .LVU728
 9852 0648 00       		.uleb128 .LVU728
 9853 0649 00       		.uleb128 .LVU728
 9854 064a 02       		.uleb128 .LVU734
 9855 064b 00       		.uleb128 .LVU739
 9856 064c 00       		.uleb128 .LVU739
 9857 064d 00       		.uleb128 .LVU746
 9858 064e 00       		.uleb128 .LVU746
 9859 064f 01       		.uleb128 .LVU751
 9860 0650 00       		.uleb128 .LVU769
 9861 0651 00       		.uleb128 .LVU770
ARM GAS  C:\Users\DEVELO~1\AppData\Local\Temp\ccpJqkfg.s 			page 174


 9862 0652 00       		.uleb128 .LVU770
 9863 0653 00       		.uleb128 0
 9864              	.LLST123:
 9865 0654 06       		.byte	0x6
 9866 0655 0E000000 		.4byte	.LVL115
 9867 0659 04       		.byte	0x4
 9868 065a 00       		.uleb128 .LVL115-.LVL115
 9869 065b 07       		.uleb128 .LVL116-1-.LVL115
 9870 065c 01       		.uleb128 0x1
 9871 065d 50       		.byte	0x50
 9872 065e 04       		.byte	0x4
 9873 065f 07       		.uleb128 .LVL116-1-.LVL115
 9874 0660 08       		.uleb128 .LVL116-.LVL115
 9875 0661 01       		.uleb128 0x1
 9876 0662 54       		.byte	0x54
 9877 0663 04       		.byte	0x4
 9878 0664 0C       		.uleb128 .LVL117-.LVL115
 9879 0665 16       		.uleb128 .LVL118-.LVL115
 9880 0666 01       		.uleb128 0x1
 9881 0667 54       		.byte	0x54
 9882 0668 04       		.byte	0x4
 9883 0669 16       		.uleb128 .LVL118-.LVL115
 9884 066a 1A       		.uleb128 .LVL119-.LVL115
 9885 066b 01       		.uleb128 0x1
 9886 066c 50       		.byte	0x50
 9887 066d 04       		.byte	0x4
 9888 066e 1A       		.uleb128 .LVL119-.LVL115
 9889 066f 24       		.uleb128 .LVL121-.LVL115
 9890 0670 01       		.uleb128 0x1
 9891 0671 54       		.byte	0x54
 9892 0672 04       		.byte	0x4
 9893 0673 2C       		.uleb128 .LVL123-.LVL115
 9894 0674 30       		.uleb128 .LVL124-.LVL115
 9895 0675 01       		.uleb128 0x1
 9896 0676 50       		.byte	0x50
 9897 0677 04       		.byte	0x4
 9898 0678 30       		.uleb128 .LVL124-.LVL115
 9899 0679 38       		.uleb128 .LFE445-.LVL115
 9900 067a 01       		.uleb128 0x1
 9901 067b 54       		.byte	0x54
 9902 067c 00       		.byte	0
 9903              	.LVUS124:
 9904 067d 01       		.uleb128 .LVU740
 9905 067e 00       		.uleb128 .LVU747
 9906 067f 00       		.uleb128 .LVU747
 9907 0680 01       		.uleb128 .LVU751
 9908              	.LLST124:
 9909 0681 06       		.byte	0x6
 9910 0682 24000000 		.4byte	.LVL118
 9911 0686 04       		.byte	0x4
 9912 0687 00       		.uleb128 .LVL118-.LVL118
 9913 0688 06       		.uleb128 .LVL120-.LVL118
 9914 0689 01       		.uleb128 0x1
 9915 068a 51       		.byte	0x51
 9916 068b 04       		.byte	0x4
 9917 068c 06       		.uleb128 .LVL120-.LVL118
 9918 068d 0E       		.uleb128 .LVL121-.LVL118
ARM GAS  C:\Users\DEVELO~1\AppData\Local\Temp\ccpJqkfg.s 			page 175


 9919 068e 01       		.uleb128 0x1
 9920 068f 55       		.byte	0x55
 9921 0690 00       		.byte	0
 9922              	.LVUS125:
 9923 0691 00       		.uleb128 .LVU739
 9924 0692 00       		.uleb128 .LVU746
 9925 0693 00       		.uleb128 .LVU746
 9926 0694 01       		.uleb128 .LVU751
 9927              	.LLST125:
 9928 0695 06       		.byte	0x6
 9929 0696 24000000 		.4byte	.LVL118
 9930 069a 04       		.byte	0x4
 9931 069b 00       		.uleb128 .LVL118-.LVL118
 9932 069c 04       		.uleb128 .LVL119-.LVL118
 9933 069d 01       		.uleb128 0x1
 9934 069e 50       		.byte	0x50
 9935 069f 04       		.byte	0x4
 9936 06a0 04       		.uleb128 .LVL119-.LVL118
 9937 06a1 0E       		.uleb128 .LVL121-.LVL118
 9938 06a2 01       		.uleb128 0x1
 9939 06a3 54       		.byte	0x54
 9940 06a4 00       		.byte	0
 9941              	.LVUS127:
 9942 06a5 0E       		.uleb128 .LVU764
 9943 06a6 00       		.uleb128 .LVU766
 9944 06a7 0D       		.uleb128 .LVU783
 9945 06a8 00       		.uleb128 .LVU785
 9946              	.LLST127:
 9947 06a9 06       		.byte	0x6
 9948 06aa 32000000 		.4byte	.LVL121
 9949 06ae 04       		.byte	0x4
 9950 06af 00       		.uleb128 .LVL121-.LVL121
 9951 06b0 06       		.uleb128 .LVL122-.LVL121
 9952 06b1 02       		.uleb128 0x2
 9953 06b2 30       		.byte	0x30
 9954 06b3 9F       		.byte	0x9f
 9955 06b4 04       		.byte	0x4
 9956 06b5 0C       		.uleb128 .LVL124-.LVL121
 9957 06b6 12       		.uleb128 .LVL125-.LVL121
 9958 06b7 02       		.uleb128 0x2
 9959 06b8 30       		.byte	0x30
 9960 06b9 9F       		.byte	0x9f
 9961 06ba 00       		.byte	0
 9962              	.LVUS109:
 9963 06bb 00       		.uleb128 0
 9964 06bc 00       		.uleb128 .LVU701
 9965 06bd 00       		.uleb128 .LVU701
 9966 06be 00       		.uleb128 0
 9967              	.LLST109:
 9968 06bf 06       		.byte	0x6
 9969 06c0 00000000 		.4byte	.LVL109
 9970 06c4 04       		.byte	0x4
 9971 06c5 00       		.uleb128 .LVL109-.LVL109
 9972 06c6 1F       		.uleb128 .LVL111-1-.LVL109
 9973 06c7 01       		.uleb128 0x1
 9974 06c8 50       		.byte	0x50
 9975 06c9 04       		.byte	0x4
ARM GAS  C:\Users\DEVELO~1\AppData\Local\Temp\ccpJqkfg.s 			page 176


 9976 06ca 1F       		.uleb128 .LVL111-1-.LVL109
 9977 06cb 20       		.uleb128 .LFE444-.LVL109
 9978 06cc 04       		.uleb128 0x4
 9979 06cd A3       		.byte	0xa3
 9980 06ce 01       		.uleb128 0x1
 9981 06cf 50       		.byte	0x50
 9982 06d0 9F       		.byte	0x9f
 9983 06d1 00       		.byte	0
 9984              	.LVUS110:
 9985 06d2 01       		.uleb128 .LVU699
 9986 06d3 00       		.uleb128 .LVU701
 9987 06d4 00       		.uleb128 .LVU701
 9988 06d5 00       		.uleb128 0
 9989              	.LLST110:
 9990 06d6 06       		.byte	0x6
 9991 06d7 1A000000 		.4byte	.LVL110
 9992 06db 04       		.byte	0x4
 9993 06dc 00       		.uleb128 .LVL110-.LVL110
 9994 06dd 05       		.uleb128 .LVL111-1-.LVL110
 9995 06de 01       		.uleb128 0x1
 9996 06df 50       		.byte	0x50
 9997 06e0 04       		.byte	0x4
 9998 06e1 05       		.uleb128 .LVL111-1-.LVL110
 9999 06e2 06       		.uleb128 .LFE444-.LVL110
 10000 06e3 04       		.uleb128 0x4
 10001 06e4 A3       		.byte	0xa3
 10002 06e5 01       		.uleb128 0x1
 10003 06e6 50       		.byte	0x50
 10004 06e7 9F       		.byte	0x9f
 10005 06e8 00       		.byte	0
 10006              	.LVUS108:
 10007 06e9 00       		.uleb128 0
 10008 06ea 00       		.uleb128 .LVU670
 10009 06eb 00       		.uleb128 .LVU670
 10010 06ec 00       		.uleb128 .LVU671
 10011 06ed 00       		.uleb128 .LVU671
 10012 06ee 00       		.uleb128 .LVU676
 10013 06ef 00       		.uleb128 .LVU676
 10014 06f0 00       		.uleb128 .LVU677
 10015 06f1 00       		.uleb128 .LVU677
 10016 06f2 00       		.uleb128 0
 10017              	.LLST108:
 10018 06f3 06       		.byte	0x6
 10019 06f4 00000000 		.4byte	.LVL104
 10020 06f8 04       		.byte	0x4
 10021 06f9 00       		.uleb128 .LVL104-.LVL104
 10022 06fa 06       		.uleb128 .LVL105-.LVL104
 10023 06fb 01       		.uleb128 0x1
 10024 06fc 50       		.byte	0x50
 10025 06fd 04       		.byte	0x4
 10026 06fe 06       		.uleb128 .LVL105-.LVL104
 10027 06ff 0A       		.uleb128 .LVL106-.LVL104
 10028 0700 01       		.uleb128 0x1
 10029 0701 53       		.byte	0x53
 10030 0702 04       		.byte	0x4
 10031 0703 0A       		.uleb128 .LVL106-.LVL104
 10032 0704 12       		.uleb128 .LVL107-.LVL104
ARM GAS  C:\Users\DEVELO~1\AppData\Local\Temp\ccpJqkfg.s 			page 177


 10033 0705 04       		.uleb128 0x4
 10034 0706 A3       		.byte	0xa3
 10035 0707 01       		.uleb128 0x1
 10036 0708 50       		.byte	0x50
 10037 0709 9F       		.byte	0x9f
 10038 070a 04       		.byte	0x4
 10039 070b 12       		.uleb128 .LVL107-.LVL104
 10040 070c 14       		.uleb128 .LVL108-.LVL104
 10041 070d 01       		.uleb128 0x1
 10042 070e 53       		.byte	0x53
 10043 070f 04       		.byte	0x4
 10044 0710 14       		.uleb128 .LVL108-.LVL104
 10045 0711 1C       		.uleb128 .LFE443-.LVL104
 10046 0712 04       		.uleb128 0x4
 10047 0713 A3       		.byte	0xa3
 10048 0714 01       		.uleb128 0x1
 10049 0715 50       		.byte	0x50
 10050 0716 9F       		.byte	0x9f
 10051 0717 00       		.byte	0
 10052              	.LVUS105:
 10053 0718 00       		.uleb128 0
 10054 0719 00       		.uleb128 .LVU664
 10055 071a 00       		.uleb128 .LVU664
 10056 071b 00       		.uleb128 0
 10057              	.LLST105:
 10058 071c 06       		.byte	0x6
 10059 071d 00000000 		.4byte	.LVL101
 10060 0721 04       		.byte	0x4
 10061 0722 00       		.uleb128 .LVL101-.LVL101
 10062 0723 1D       		.uleb128 .LVL103-1-.LVL101
 10063 0724 01       		.uleb128 0x1
 10064 0725 50       		.byte	0x50
 10065 0726 04       		.byte	0x4
 10066 0727 1D       		.uleb128 .LVL103-1-.LVL101
 10067 0728 1E       		.uleb128 .LFE442-.LVL101
 10068 0729 04       		.uleb128 0x4
 10069 072a A3       		.byte	0xa3
 10070 072b 01       		.uleb128 0x1
 10071 072c 50       		.byte	0x50
 10072 072d 9F       		.byte	0x9f
 10073 072e 00       		.byte	0
 10074              	.LVUS107:
 10075 072f 03       		.uleb128 .LVU660
 10076 0730 00       		.uleb128 .LVU664
 10077 0731 00       		.uleb128 .LVU664
 10078 0732 00       		.uleb128 0
 10079              	.LLST107:
 10080 0733 06       		.byte	0x6
 10081 0734 18000000 		.4byte	.LVL102
 10082 0738 04       		.byte	0x4
 10083 0739 00       		.uleb128 .LVL102-.LVL102
 10084 073a 05       		.uleb128 .LVL103-1-.LVL102
 10085 073b 01       		.uleb128 0x1
 10086 073c 50       		.byte	0x50
 10087 073d 04       		.byte	0x4
 10088 073e 05       		.uleb128 .LVL103-1-.LVL102
 10089 073f 06       		.uleb128 .LFE442-.LVL102
ARM GAS  C:\Users\DEVELO~1\AppData\Local\Temp\ccpJqkfg.s 			page 178


 10090 0740 04       		.uleb128 0x4
 10091 0741 A3       		.byte	0xa3
 10092 0742 01       		.uleb128 0x1
 10093 0743 50       		.byte	0x50
 10094 0744 9F       		.byte	0x9f
 10095 0745 00       		.byte	0
 10096              	.LVUS94:
 10097 0746 00       		.uleb128 0
 10098 0747 00       		.uleb128 .LVU626
 10099 0748 00       		.uleb128 .LVU626
 10100 0749 00       		.uleb128 0
 10101              	.LLST94:
 10102 074a 06       		.byte	0x6
 10103 074b 00000000 		.4byte	.LVL95
 10104 074f 04       		.byte	0x4
 10105 0750 00       		.uleb128 .LVL95-.LVL95
 10106 0751 0C       		.uleb128 .LVL97-.LVL95
 10107 0752 01       		.uleb128 0x1
 10108 0753 51       		.byte	0x51
 10109 0754 04       		.byte	0x4
 10110 0755 0C       		.uleb128 .LVL97-.LVL95
 10111 0756 30       		.uleb128 .LFE441-.LVL95
 10112 0757 02       		.uleb128 0x2
 10113 0758 70       		.byte	0x70
 10114 0759 08       		.sleb128 8
 10115 075a 00       		.byte	0
 10116              	.LVUS95:
 10117 075b 00       		.uleb128 0
 10118 075c 00       		.uleb128 .LVU633
 10119 075d 00       		.uleb128 .LVU633
 10120 075e 00       		.uleb128 0
 10121              	.LLST95:
 10122 075f 06       		.byte	0x6
 10123 0760 00000000 		.4byte	.LVL95
 10124 0764 04       		.byte	0x4
 10125 0765 00       		.uleb128 .LVL95-.LVL95
 10126 0766 22       		.uleb128 .LVL98-.LVL95
 10127 0767 01       		.uleb128 0x1
 10128 0768 52       		.byte	0x52
 10129 0769 04       		.byte	0x4
 10130 076a 22       		.uleb128 .LVL98-.LVL95
 10131 076b 30       		.uleb128 .LFE441-.LVL95
 10132 076c 02       		.uleb128 0x2
 10133 076d 70       		.byte	0x70
 10134 076e 14       		.sleb128 20
 10135 076f 00       		.byte	0
 10136              	.LVUS96:
 10137 0770 00       		.uleb128 0
 10138 0771 00       		.uleb128 .LVU618
 10139 0772 00       		.uleb128 .LVU618
 10140 0773 00       		.uleb128 .LVU633
 10141 0774 00       		.uleb128 .LVU633
 10142 0775 00       		.uleb128 0
 10143              	.LLST96:
 10144 0776 06       		.byte	0x6
 10145 0777 00000000 		.4byte	.LVL95
 10146 077b 04       		.byte	0x4
ARM GAS  C:\Users\DEVELO~1\AppData\Local\Temp\ccpJqkfg.s 			page 179


 10147 077c 00       		.uleb128 .LVL95-.LVL95
 10148 077d 06       		.uleb128 .LVL96-.LVL95
 10149 077e 01       		.uleb128 0x1
 10150 077f 53       		.byte	0x53
 10151 0780 04       		.byte	0x4
 10152 0781 06       		.uleb128 .LVL96-.LVL95
 10153 0782 22       		.uleb128 .LVL98-.LVL95
 10154 0783 03       		.uleb128 0x3
 10155 0784 73       		.byte	0x73
 10156 0785 7C       		.sleb128 -4
 10157 0786 9F       		.byte	0x9f
 10158 0787 04       		.byte	0x4
 10159 0788 22       		.uleb128 .LVL98-.LVL95
 10160 0789 30       		.uleb128 .LFE441-.LVL95
 10161 078a 06       		.uleb128 0x6
 10162 078b 70       		.byte	0x70
 10163 078c 1C       		.sleb128 28
 10164 078d 06       		.byte	0x6
 10165 078e 34       		.byte	0x34
 10166 078f 1C       		.byte	0x1c
 10167 0790 9F       		.byte	0x9f
 10168 0791 00       		.byte	0
 10169              	.LVUS97:
 10170 0792 00       		.uleb128 0
 10171 0793 00       		.uleb128 .LVU643
 10172 0794 00       		.uleb128 .LVU643
 10173 0795 00       		.uleb128 0
 10174              	.LLST97:
 10175 0796 06       		.byte	0x6
 10176 0797 00000000 		.4byte	.LVL95
 10177 079b 04       		.byte	0x4
 10178 079c 00       		.uleb128 .LVL95-.LVL95
 10179 079d 28       		.uleb128 .LVL100-.LVL95
 10180 079e 02       		.uleb128 0x2
 10181 079f 91       		.byte	0x91
 10182 07a0 00       		.sleb128 0
 10183 07a1 04       		.byte	0x4
 10184 07a2 28       		.uleb128 .LVL100-.LVL95
 10185 07a3 30       		.uleb128 .LFE441-.LVL95
 10186 07a4 02       		.uleb128 0x2
 10187 07a5 7D       		.byte	0x7d
 10188 07a6 00       		.sleb128 0
 10189 07a7 00       		.byte	0
 10190              	.LVUS98:
 10191 07a8 00       		.uleb128 0
 10192 07a9 00       		.uleb128 .LVU643
 10193 07aa 00       		.uleb128 .LVU643
 10194 07ab 00       		.uleb128 0
 10195              	.LLST98:
 10196 07ac 06       		.byte	0x6
 10197 07ad 00000000 		.4byte	.LVL95
 10198 07b1 04       		.byte	0x4
 10199 07b2 00       		.uleb128 .LVL95-.LVL95
 10200 07b3 28       		.uleb128 .LVL100-.LVL95
 10201 07b4 02       		.uleb128 0x2
 10202 07b5 91       		.byte	0x91
 10203 07b6 04       		.sleb128 4
ARM GAS  C:\Users\DEVELO~1\AppData\Local\Temp\ccpJqkfg.s 			page 180


 10204 07b7 04       		.byte	0x4
 10205 07b8 28       		.uleb128 .LVL100-.LVL95
 10206 07b9 30       		.uleb128 .LFE441-.LVL95
 10207 07ba 02       		.uleb128 0x2
 10208 07bb 7D       		.byte	0x7d
 10209 07bc 04       		.sleb128 4
 10210 07bd 00       		.byte	0
 10211              	.LVUS99:
 10212 07be 00       		.uleb128 0
 10213 07bf 00       		.uleb128 .LVU643
 10214 07c0 00       		.uleb128 .LVU643
 10215 07c1 00       		.uleb128 0
 10216              	.LLST99:
 10217 07c2 06       		.byte	0x6
 10218 07c3 00000000 		.4byte	.LVL95
 10219 07c7 04       		.byte	0x4
 10220 07c8 00       		.uleb128 .LVL95-.LVL95
 10221 07c9 28       		.uleb128 .LVL100-.LVL95
 10222 07ca 02       		.uleb128 0x2
 10223 07cb 91       		.byte	0x91
 10224 07cc 08       		.sleb128 8
 10225 07cd 04       		.byte	0x4
 10226 07ce 28       		.uleb128 .LVL100-.LVL95
 10227 07cf 30       		.uleb128 .LFE441-.LVL95
 10228 07d0 02       		.uleb128 0x2
 10229 07d1 7D       		.byte	0x7d
 10230 07d2 08       		.sleb128 8
 10231 07d3 00       		.byte	0
 10232              	.LVUS101:
 10233 07d4 00       		.uleb128 .LVU618
 10234 07d5 00       		.uleb128 .LVU634
 10235              	.LLST101:
 10236 07d6 08       		.byte	0x8
 10237 07d7 06000000 		.4byte	.LVL96
 10238 07db 20       		.uleb128 .LVL99-.LVL96
 10239 07dc 01       		.uleb128 0x1
 10240 07dd 50       		.byte	0x50
 10241 07de 00       		.byte	0
 10242              	.LVUS102:
 10243 07df 02       		.uleb128 .LVU620
 10244 07e0 00       		.uleb128 .LVU634
 10245              	.LLST102:
 10246 07e1 08       		.byte	0x8
 10247 07e2 06000000 		.4byte	.LVL96
 10248 07e6 20       		.uleb128 .LVL99-.LVL96
 10249 07e7 01       		.uleb128 0x1
 10250 07e8 50       		.byte	0x50
 10251 07e9 00       		.byte	0
 10252              	.LVUS104:
 10253 07ea 04       		.uleb128 .LVU622
 10254 07eb 00       		.uleb128 .LVU634
 10255              	.LLST104:
 10256 07ec 08       		.byte	0x8
 10257 07ed 06000000 		.4byte	.LVL96
 10258 07f1 20       		.uleb128 .LVL99-.LVL96
 10259 07f2 01       		.uleb128 0x1
 10260 07f3 50       		.byte	0x50
ARM GAS  C:\Users\DEVELO~1\AppData\Local\Temp\ccpJqkfg.s 			page 181


 10261 07f4 00       		.byte	0
 10262              	.LVUS69:
 10263 07f5 00       		.uleb128 0
 10264 07f6 00       		.uleb128 .LVU466
 10265 07f7 00       		.uleb128 .LVU466
 10266 07f8 00       		.uleb128 .LVU524
 10267 07f9 00       		.uleb128 .LVU524
 10268 07fa 00       		.uleb128 .LVU527
 10269 07fb 00       		.uleb128 .LVU527
 10270 07fc 00       		.uleb128 .LVU537
 10271 07fd 00       		.uleb128 .LVU537
 10272 07fe 00       		.uleb128 .LVU549
 10273 07ff 00       		.uleb128 .LVU549
 10274 0800 00       		.uleb128 0
 10275              	.LLST69:
 10276 0801 06       		.byte	0x6
 10277 0802 00000000 		.4byte	.LVL67
 10278 0806 04       		.byte	0x4
 10279 0807 00       		.uleb128 .LVL67-.LVL67
 10280 0808 18       		.uleb128 .LVL69-.LVL67
 10281 0809 01       		.uleb128 0x1
 10282 080a 50       		.byte	0x50
 10283 080b 04       		.byte	0x4
 10284 080c 18       		.uleb128 .LVL69-.LVL67
 10285 080d 8601     		.uleb128 .LVL81-.LVL67
 10286 080f 01       		.uleb128 0x1
 10287 0810 5A       		.byte	0x5a
 10288 0811 04       		.byte	0x4
 10289 0812 8601     		.uleb128 .LVL81-.LVL67
 10290 0814 9101     		.uleb128 .LVL82-1-.LVL67
 10291 0816 01       		.uleb128 0x1
 10292 0817 50       		.byte	0x50
 10293 0818 04       		.byte	0x4
 10294 0819 9101     		.uleb128 .LVL82-1-.LVL67
 10295 081b A201     		.uleb128 .LVL84-.LVL67
 10296 081d 01       		.uleb128 0x1
 10297 081e 5A       		.byte	0x5a
 10298 081f 04       		.byte	0x4
 10299 0820 A201     		.uleb128 .LVL84-.LVL67
 10300 0822 B201     		.uleb128 .LVL87-.LVL67
 10301 0824 01       		.uleb128 0x1
 10302 0825 50       		.byte	0x50
 10303 0826 04       		.byte	0x4
 10304 0827 B201     		.uleb128 .LVL87-.LVL67
 10305 0829 9202     		.uleb128 .LFE440-.LVL67
 10306 082b 01       		.uleb128 0x1
 10307 082c 5A       		.byte	0x5a
 10308 082d 00       		.byte	0
 10309              	.LVUS70:
 10310 082e 00       		.uleb128 0
 10311 082f 00       		.uleb128 .LVU466
 10312 0830 00       		.uleb128 .LVU466
 10313 0831 00       		.uleb128 0
 10314              	.LLST70:
 10315 0832 06       		.byte	0x6
 10316 0833 00000000 		.4byte	.LVL67
 10317 0837 04       		.byte	0x4
ARM GAS  C:\Users\DEVELO~1\AppData\Local\Temp\ccpJqkfg.s 			page 182


 10318 0838 00       		.uleb128 .LVL67-.LVL67
 10319 0839 18       		.uleb128 .LVL69-.LVL67
 10320 083a 01       		.uleb128 0x1
 10321 083b 51       		.byte	0x51
 10322 083c 04       		.byte	0x4
 10323 083d 18       		.uleb128 .LVL69-.LVL67
 10324 083e 9202     		.uleb128 .LFE440-.LVL67
 10325 0840 01       		.uleb128 0x1
 10326 0841 55       		.byte	0x55
 10327 0842 00       		.byte	0
 10328              	.LVUS71:
 10329 0843 00       		.uleb128 0
 10330 0844 00       		.uleb128 .LVU466
 10331 0845 00       		.uleb128 .LVU466
 10332 0846 00       		.uleb128 0
 10333              	.LLST71:
 10334 0847 06       		.byte	0x6
 10335 0848 00000000 		.4byte	.LVL67
 10336 084c 04       		.byte	0x4
 10337 084d 00       		.uleb128 .LVL67-.LVL67
 10338 084e 18       		.uleb128 .LVL69-.LVL67
 10339 084f 01       		.uleb128 0x1
 10340 0850 52       		.byte	0x52
 10341 0851 04       		.byte	0x4
 10342 0852 18       		.uleb128 .LVL69-.LVL67
 10343 0853 9202     		.uleb128 .LFE440-.LVL67
 10344 0855 01       		.uleb128 0x1
 10345 0856 56       		.byte	0x56
 10346 0857 00       		.byte	0
 10347              	.LVUS72:
 10348 0858 00       		.uleb128 0
 10349 0859 00       		.uleb128 .LVU466
 10350 085a 00       		.uleb128 .LVU466
 10351 085b 00       		.uleb128 .LVU524
 10352 085c 00       		.uleb128 .LVU524
 10353 085d 00       		.uleb128 .LVU527
 10354 085e 00       		.uleb128 .LVU527
 10355 085f 00       		.uleb128 .LVU537
 10356 0860 00       		.uleb128 .LVU537
 10357 0861 00       		.uleb128 .LVU544
 10358 0862 00       		.uleb128 .LVU544
 10359 0863 00       		.uleb128 0
 10360              	.LLST72:
 10361 0864 06       		.byte	0x6
 10362 0865 00000000 		.4byte	.LVL67
 10363 0869 04       		.byte	0x4
 10364 086a 00       		.uleb128 .LVL67-.LVL67
 10365 086b 18       		.uleb128 .LVL69-.LVL67
 10366 086c 01       		.uleb128 0x1
 10367 086d 53       		.byte	0x53
 10368 086e 04       		.byte	0x4
 10369 086f 18       		.uleb128 .LVL69-.LVL67
 10370 0870 8601     		.uleb128 .LVL81-.LVL67
 10371 0872 01       		.uleb128 0x1
 10372 0873 57       		.byte	0x57
 10373 0874 04       		.byte	0x4
 10374 0875 8601     		.uleb128 .LVL81-.LVL67
ARM GAS  C:\Users\DEVELO~1\AppData\Local\Temp\ccpJqkfg.s 			page 183


 10375 0877 9101     		.uleb128 .LVL82-1-.LVL67
 10376 0879 01       		.uleb128 0x1
 10377 087a 51       		.byte	0x51
 10378 087b 04       		.byte	0x4
 10379 087c 9101     		.uleb128 .LVL82-1-.LVL67
 10380 087e A201     		.uleb128 .LVL84-.LVL67
 10381 0880 01       		.uleb128 0x1
 10382 0881 57       		.byte	0x57
 10383 0882 04       		.byte	0x4
 10384 0883 A201     		.uleb128 .LVL84-.LVL67
 10385 0885 A801     		.uleb128 .LVL85-.LVL67
 10386 0887 01       		.uleb128 0x1
 10387 0888 51       		.byte	0x51
 10388 0889 04       		.byte	0x4
 10389 088a A801     		.uleb128 .LVL85-.LVL67
 10390 088c 9202     		.uleb128 .LFE440-.LVL67
 10391 088e 01       		.uleb128 0x1
 10392 088f 57       		.byte	0x57
 10393 0890 00       		.byte	0
 10394              	.LVUS73:
 10395 0891 02       		.uleb128 .LVU446
 10396 0892 00       		.uleb128 .LVU466
 10397 0893 00       		.uleb128 .LVU466
 10398 0894 00       		.uleb128 .LVU488
 10399 0895 00       		.uleb128 .LVU488
 10400 0896 01       		.uleb128 .LVU490
 10401 0897 01       		.uleb128 .LVU490
 10402 0898 00       		.uleb128 0
 10403              	.LLST73:
 10404 0899 06       		.byte	0x6
 10405 089a 00000000 		.4byte	.LVL67
 10406 089e 04       		.byte	0x4
 10407 089f 00       		.uleb128 .LVL67-.LVL67
 10408 08a0 18       		.uleb128 .LVL69-.LVL67
 10409 08a1 02       		.uleb128 0x2
 10410 08a2 30       		.byte	0x30
 10411 08a3 9F       		.byte	0x9f
 10412 08a4 04       		.byte	0x4
 10413 08a5 18       		.uleb128 .LVL69-.LVL67
 10414 08a6 6E       		.uleb128 .LVL75-.LVL67
 10415 08a7 01       		.uleb128 0x1
 10416 08a8 54       		.byte	0x54
 10417 08a9 04       		.byte	0x4
 10418 08aa 6E       		.uleb128 .LVL75-.LVL67
 10419 08ab 70       		.uleb128 .LVL76-.LVL67
 10420 08ac 03       		.uleb128 0x3
 10421 08ad 74       		.byte	0x74
 10422 08ae 40       		.sleb128 -64
 10423 08af 9F       		.byte	0x9f
 10424 08b0 04       		.byte	0x4
 10425 08b1 70       		.uleb128 .LVL76-.LVL67
 10426 08b2 9202     		.uleb128 .LFE440-.LVL67
 10427 08b4 01       		.uleb128 0x1
 10428 08b5 54       		.byte	0x54
 10429 08b6 00       		.byte	0
 10430              	.LVUS80:
 10431 08b7 01       		.uleb128 .LVU474
ARM GAS  C:\Users\DEVELO~1\AppData\Local\Temp\ccpJqkfg.s 			page 184


 10432 08b8 00       		.uleb128 .LVU477
 10433 08b9 00       		.uleb128 .LVU477
 10434 08ba 00       		.uleb128 .LVU478
 10435 08bb 00       		.uleb128 .LVU478
 10436 08bc 00       		.uleb128 .LVU481
 10437 08bd 00       		.uleb128 .LVU549
 10438 08be 00       		.uleb128 .LVU563
 10439              	.LLST80:
 10440 08bf 06       		.byte	0x6
 10441 08c0 22000000 		.4byte	.LVL70
 10442 08c4 04       		.byte	0x4
 10443 08c5 00       		.uleb128 .LVL70-.LVL70
 10444 08c6 06       		.uleb128 .LVL71-.LVL70
 10445 08c7 06       		.uleb128 0x6
 10446 08c8 73       		.byte	0x73
 10447 08c9 00       		.sleb128 0
 10448 08ca 71       		.byte	0x71
 10449 08cb 00       		.sleb128 0
 10450 08cc 1C       		.byte	0x1c
 10451 08cd 9F       		.byte	0x9f
 10452 08ce 04       		.byte	0x4
 10453 08cf 06       		.uleb128 .LVL71-.LVL70
 10454 08d0 0C       		.uleb128 .LVL72-.LVL70
 10455 08d1 01       		.uleb128 0x1
 10456 08d2 53       		.byte	0x53
 10457 08d3 04       		.byte	0x4
 10458 08d4 0C       		.uleb128 .LVL72-.LVL70
 10459 08d5 18       		.uleb128 .LVL73-.LVL70
 10460 08d6 01       		.uleb128 0x1
 10461 08d7 5B       		.byte	0x5b
 10462 08d8 04       		.byte	0x4
 10463 08d9 9001     		.uleb128 .LVL87-.LVL70
 10464 08db AE01     		.uleb128 .LVL91-.LVL70
 10465 08dd 01       		.uleb128 0x1
 10466 08de 5B       		.byte	0x5b
 10467 08df 00       		.byte	0
 10468              	.LVUS86:
 10469 08e0 01       		.uleb128 .LVU547
 10470 08e1 00       		.uleb128 .LVU549
 10471              	.LLST86:
 10472 08e2 08       		.byte	0x8
 10473 08e3 B0000000 		.4byte	.LVL86
 10474 08e7 02       		.uleb128 .LVL87-.LVL86
 10475 08e8 02       		.uleb128 0x2
 10476 08e9 30       		.byte	0x30
 10477 08ea 9F       		.byte	0x9f
 10478 08eb 00       		.byte	0
 10479              	.LVUS88:
 10480 08ec 00       		.uleb128 .LVU527
 10481 08ed 00       		.uleb128 .LVU530
 10482              	.LLST88:
 10483 08ee 08       		.byte	0x8
 10484 08ef 92000000 		.4byte	.LVL82
 10485 08f3 04       		.uleb128 .LVL83-.LVL82
 10486 08f4 01       		.uleb128 0x1
 10487 08f5 50       		.byte	0x50
 10488 08f6 00       		.byte	0
ARM GAS  C:\Users\DEVELO~1\AppData\Local\Temp\ccpJqkfg.s 			page 185


 10489              	.LVUS90:
 10490 08f7 00       		.uleb128 .LVU524
 10491 08f8 00       		.uleb128 .LVU527
 10492 08f9 00       		.uleb128 .LVU527
 10493 08fa 00       		.uleb128 .LVU527
 10494 08fb 02       		.uleb128 .LVU532
 10495 08fc 00       		.uleb128 .LVU537
 10496 08fd 00       		.uleb128 .LVU537
 10497 08fe 00       		.uleb128 .LVU544
 10498 08ff 00       		.uleb128 .LVU544
 10499 0900 00       		.uleb128 .LVU549
 10500              	.LLST90:
 10501 0901 06       		.byte	0x6
 10502 0902 86000000 		.4byte	.LVL81
 10503 0906 04       		.byte	0x4
 10504 0907 00       		.uleb128 .LVL81-.LVL81
 10505 0908 0B       		.uleb128 .LVL82-1-.LVL81
 10506 0909 01       		.uleb128 0x1
 10507 090a 51       		.byte	0x51
 10508 090b 04       		.byte	0x4
 10509 090c 0B       		.uleb128 .LVL82-1-.LVL81
 10510 090d 0C       		.uleb128 .LVL82-.LVL81
 10511 090e 01       		.uleb128 0x1
 10512 090f 57       		.byte	0x57
 10513 0910 04       		.byte	0x4
 10514 0911 10       		.uleb128 .LVL83-.LVL81
 10515 0912 1C       		.uleb128 .LVL84-.LVL81
 10516 0913 01       		.uleb128 0x1
 10517 0914 57       		.byte	0x57
 10518 0915 04       		.byte	0x4
 10519 0916 1C       		.uleb128 .LVL84-.LVL81
 10520 0917 22       		.uleb128 .LVL85-.LVL81
 10521 0918 01       		.uleb128 0x1
 10522 0919 51       		.byte	0x51
 10523 091a 04       		.byte	0x4
 10524 091b 22       		.uleb128 .LVL85-.LVL81
 10525 091c 2C       		.uleb128 .LVL87-.LVL81
 10526 091d 01       		.uleb128 0x1
 10527 091e 57       		.byte	0x57
 10528 091f 00       		.byte	0
 10529              	.LVUS91:
 10530 0920 00       		.uleb128 .LVU524
 10531 0921 00       		.uleb128 .LVU527
 10532 0922 00       		.uleb128 .LVU527
 10533 0923 00       		.uleb128 .LVU527
 10534 0924 02       		.uleb128 .LVU532
 10535 0925 00       		.uleb128 .LVU537
 10536 0926 00       		.uleb128 .LVU537
 10537 0927 00       		.uleb128 .LVU549
 10538              	.LLST91:
 10539 0928 06       		.byte	0x6
 10540 0929 86000000 		.4byte	.LVL81
 10541 092d 04       		.byte	0x4
 10542 092e 00       		.uleb128 .LVL81-.LVL81
 10543 092f 0B       		.uleb128 .LVL82-1-.LVL81
 10544 0930 01       		.uleb128 0x1
 10545 0931 50       		.byte	0x50
ARM GAS  C:\Users\DEVELO~1\AppData\Local\Temp\ccpJqkfg.s 			page 186


 10546 0932 04       		.byte	0x4
 10547 0933 0B       		.uleb128 .LVL82-1-.LVL81
 10548 0934 0C       		.uleb128 .LVL82-.LVL81
 10549 0935 01       		.uleb128 0x1
 10550 0936 5A       		.byte	0x5a
 10551 0937 04       		.byte	0x4
 10552 0938 10       		.uleb128 .LVL83-.LVL81
 10553 0939 1C       		.uleb128 .LVL84-.LVL81
 10554 093a 01       		.uleb128 0x1
 10555 093b 5A       		.byte	0x5a
 10556 093c 04       		.byte	0x4
 10557 093d 1C       		.uleb128 .LVL84-.LVL81
 10558 093e 2C       		.uleb128 .LVL87-.LVL81
 10559 093f 01       		.uleb128 0x1
 10560 0940 50       		.byte	0x50
 10561 0941 00       		.byte	0
 10562              	.LVUS92:
 10563 0942 00       		.uleb128 .LVU537
 10564 0943 01       		.uleb128 .LVU547
 10565              	.LLST92:
 10566 0944 08       		.byte	0x8
 10567 0945 A2000000 		.4byte	.LVL84
 10568 0949 0E       		.uleb128 .LVL86-.LVL84
 10569 094a 01       		.uleb128 0x1
 10570 094b 50       		.byte	0x50
 10571 094c 00       		.byte	0
 10572              	.LVUS93:
 10573 094d 0E       		.uleb128 .LVU603
 10574 094e 00       		.uleb128 .LVU605
 10575              	.LLST93:
 10576 094f 08       		.byte	0x8
 10577 0950 06010000 		.4byte	.LVL93
 10578 0954 06       		.uleb128 .LVL94-.LVL93
 10579 0955 02       		.uleb128 0x2
 10580 0956 30       		.byte	0x30
 10581 0957 9F       		.byte	0x9f
 10582 0958 00       		.byte	0
 10583              	.LVUS82:
 10584 0959 01       		.uleb128 .LVU564
 10585 095a 00       		.uleb128 .LVU589
 10586              	.LLST82:
 10587 095b 08       		.byte	0x8
 10588 095c D0000000 		.4byte	.LVL91
 10589 0960 36       		.uleb128 .LVL93-.LVL91
 10590 0961 01       		.uleb128 0x1
 10591 0962 5A       		.byte	0x5a
 10592 0963 00       		.byte	0
 10593              	.LVUS83:
 10594 0964 0C       		.uleb128 .LVU506
 10595 0965 00       		.uleb128 .LVU508
 10596              	.LLST83:
 10597 0966 08       		.byte	0x8
 10598 0967 78000000 		.4byte	.LVL77
 10599 096b 04       		.uleb128 .LVL78-.LVL77
 10600 096c 02       		.uleb128 0x2
 10601 096d 30       		.byte	0x30
 10602 096e 9F       		.byte	0x9f
ARM GAS  C:\Users\DEVELO~1\AppData\Local\Temp\ccpJqkfg.s 			page 187


 10603 096f 00       		.byte	0
 10604              	.LVUS84:
 10605 0970 07       		.uleb128 .LVU518
 10606 0971 00       		.uleb128 .LVU520
 10607              	.LLST84:
 10608 0972 08       		.byte	0x8
 10609 0973 80000000 		.4byte	.LVL79
 10610 0977 04       		.uleb128 .LVL80-.LVL79
 10611 0978 03       		.uleb128 0x3
 10612 0979 08       		.byte	0x8
 10613 097a 30       		.byte	0x30
 10614 097b 9F       		.byte	0x9f
 10615 097c 00       		.byte	0
 10616              	.LVUS78:
 10617 097d 0C       		.uleb128 .LVU456
 10618 097e 00       		.uleb128 .LVU461
 10619              	.LLST78:
 10620 097f 08       		.byte	0x8
 10621 0980 00000000 		.4byte	.LVL67
 10622 0984 14       		.uleb128 .LVL68-.LVL67
 10623 0985 03       		.uleb128 0x3
 10624 0986 08       		.byte	0x8
 10625 0987 30       		.byte	0x30
 10626 0988 9F       		.byte	0x9f
 10627 0989 00       		.byte	0
 10628              	.LVUS51:
 10629 098a 00       		.uleb128 0
 10630 098b 00       		.uleb128 .LVU337
 10631 098c 00       		.uleb128 .LVU337
 10632 098d 00       		.uleb128 .LVU355
 10633 098e 00       		.uleb128 .LVU355
 10634 098f 00       		.uleb128 .LVU380
 10635 0990 00       		.uleb128 .LVU380
 10636 0991 00       		.uleb128 .LVU415
 10637 0992 00       		.uleb128 .LVU415
 10638 0993 00       		.uleb128 .LVU421
 10639 0994 00       		.uleb128 .LVU421
 10640 0995 00       		.uleb128 .LVU431
 10641 0996 00       		.uleb128 .LVU431
 10642 0997 00       		.uleb128 0
 10643              	.LLST51:
 10644 0998 06       		.byte	0x6
 10645 0999 00000000 		.4byte	.LVL48
 10646 099d 04       		.byte	0x4
 10647 099e 00       		.uleb128 .LVL48-.LVL48
 10648 099f 1A       		.uleb128 .LVL52-.LVL48
 10649 09a0 01       		.uleb128 0x1
 10650 09a1 50       		.byte	0x50
 10651 09a2 04       		.byte	0x4
 10652 09a3 1A       		.uleb128 .LVL52-.LVL48
 10653 09a4 24       		.uleb128 .LVL54-.LVL48
 10654 09a5 01       		.uleb128 0x1
 10655 09a6 54       		.byte	0x54
 10656 09a7 04       		.byte	0x4
 10657 09a8 24       		.uleb128 .LVL54-.LVL48
 10658 09a9 44       		.uleb128 .LVL56-.LVL48
 10659 09aa 01       		.uleb128 0x1
ARM GAS  C:\Users\DEVELO~1\AppData\Local\Temp\ccpJqkfg.s 			page 188


 10660 09ab 50       		.byte	0x50
 10661 09ac 04       		.byte	0x4
 10662 09ad 44       		.uleb128 .LVL56-.LVL48
 10663 09ae 50       		.uleb128 .LVL59-.LVL48
 10664 09af 01       		.uleb128 0x1
 10665 09b0 54       		.byte	0x54
 10666 09b1 04       		.byte	0x4
 10667 09b2 50       		.uleb128 .LVL59-.LVL48
 10668 09b3 61       		.uleb128 .LVL62-1-.LVL48
 10669 09b4 01       		.uleb128 0x1
 10670 09b5 50       		.byte	0x50
 10671 09b6 04       		.byte	0x4
 10672 09b7 61       		.uleb128 .LVL62-1-.LVL48
 10673 09b8 70       		.uleb128 .LVL64-.LVL48
 10674 09b9 01       		.uleb128 0x1
 10675 09ba 54       		.byte	0x54
 10676 09bb 04       		.byte	0x4
 10677 09bc 70       		.uleb128 .LVL64-.LVL48
 10678 09bd 8401     		.uleb128 .LFE439-.LVL48
 10679 09bf 01       		.uleb128 0x1
 10680 09c0 50       		.byte	0x50
 10681 09c1 00       		.byte	0
 10682              	.LVUS52:
 10683 09c2 00       		.uleb128 0
 10684 09c3 00       		.uleb128 .LVU337
 10685 09c4 00       		.uleb128 .LVU337
 10686 09c5 00       		.uleb128 .LVU355
 10687 09c6 00       		.uleb128 .LVU355
 10688 09c7 00       		.uleb128 .LVU363
 10689 09c8 00       		.uleb128 .LVU363
 10690 09c9 00       		.uleb128 .LVU417
 10691 09ca 00       		.uleb128 .LVU417
 10692 09cb 00       		.uleb128 .LVU421
 10693 09cc 00       		.uleb128 .LVU421
 10694 09cd 00       		.uleb128 .LVU431
 10695 09ce 00       		.uleb128 .LVU431
 10696 09cf 00       		.uleb128 0
 10697              	.LLST52:
 10698 09d0 06       		.byte	0x6
 10699 09d1 00000000 		.4byte	.LVL48
 10700 09d5 04       		.byte	0x4
 10701 09d6 00       		.uleb128 .LVL48-.LVL48
 10702 09d7 1A       		.uleb128 .LVL52-.LVL48
 10703 09d8 01       		.uleb128 0x1
 10704 09d9 51       		.byte	0x51
 10705 09da 04       		.byte	0x4
 10706 09db 1A       		.uleb128 .LVL52-.LVL48
 10707 09dc 24       		.uleb128 .LVL54-.LVL48
 10708 09dd 04       		.uleb128 0x4
 10709 09de A3       		.byte	0xa3
 10710 09df 01       		.uleb128 0x1
 10711 09e0 51       		.byte	0x51
 10712 09e1 9F       		.byte	0x9f
 10713 09e2 04       		.byte	0x4
 10714 09e3 24       		.uleb128 .LVL54-.LVL48
 10715 09e4 28       		.uleb128 .LVL55-.LVL48
 10716 09e5 01       		.uleb128 0x1
ARM GAS  C:\Users\DEVELO~1\AppData\Local\Temp\ccpJqkfg.s 			page 189


 10717 09e6 51       		.byte	0x51
 10718 09e7 04       		.byte	0x4
 10719 09e8 28       		.uleb128 .LVL55-.LVL48
 10720 09e9 56       		.uleb128 .LVL60-.LVL48
 10721 09ea 04       		.uleb128 0x4
 10722 09eb A3       		.byte	0xa3
 10723 09ec 01       		.uleb128 0x1
 10724 09ed 51       		.byte	0x51
 10725 09ee 9F       		.byte	0x9f
 10726 09ef 04       		.byte	0x4
 10727 09f0 56       		.uleb128 .LVL60-.LVL48
 10728 09f1 61       		.uleb128 .LVL62-1-.LVL48
 10729 09f2 01       		.uleb128 0x1
 10730 09f3 51       		.byte	0x51
 10731 09f4 04       		.byte	0x4
 10732 09f5 61       		.uleb128 .LVL62-1-.LVL48
 10733 09f6 70       		.uleb128 .LVL64-.LVL48
 10734 09f7 01       		.uleb128 0x1
 10735 09f8 55       		.byte	0x55
 10736 09f9 04       		.byte	0x4
 10737 09fa 70       		.uleb128 .LVL64-.LVL48
 10738 09fb 8401     		.uleb128 .LFE439-.LVL48
 10739 09fd 01       		.uleb128 0x1
 10740 09fe 51       		.byte	0x51
 10741 09ff 00       		.byte	0
 10742              	.LVUS53:
 10743 0a00 00       		.uleb128 .LVU332
 10744 0a01 00       		.uleb128 .LVU417
 10745 0a02 01       		.uleb128 .LVU441
 10746 0a03 00       		.uleb128 .LVU443
 10747              	.LLST53:
 10748 0a04 06       		.byte	0x6
 10749 0a05 14000000 		.4byte	.LVL51
 10750 0a09 04       		.byte	0x4
 10751 0a0a 00       		.uleb128 .LVL51-.LVL51
 10752 0a0b 42       		.uleb128 .LVL60-.LVL51
 10753 0a0c 01       		.uleb128 0x1
 10754 0a0d 56       		.byte	0x56
 10755 0a0e 04       		.byte	0x4
 10756 0a0f 68       		.uleb128 .LVL65-.LVL51
 10757 0a10 6A       		.uleb128 .LVL66-.LVL51
 10758 0a11 02       		.uleb128 0x2
 10759 0a12 30       		.byte	0x30
 10760 0a13 9F       		.byte	0x9f
 10761 0a14 00       		.byte	0
 10762              	.LVUS55:
 10763 0a15 08       		.uleb128 .LVU321
 10764 0a16 00       		.uleb128 .LVU323
 10765              	.LLST55:
 10766 0a17 08       		.byte	0x8
 10767 0a18 06000000 		.4byte	.LVL49
 10768 0a1c 04       		.uleb128 .LVL50-.LVL49
 10769 0a1d 03       		.uleb128 0x3
 10770 0a1e 08       		.byte	0x8
 10771 0a1f 30       		.byte	0x30
 10772 0a20 9F       		.byte	0x9f
 10773 0a21 00       		.byte	0
ARM GAS  C:\Users\DEVELO~1\AppData\Local\Temp\ccpJqkfg.s 			page 190


 10774              	.LVUS57:
 10775 0a22 0D       		.uleb128 .LVU350
 10776 0a23 00       		.uleb128 .LVU352
 10777 0a24 1D       		.uleb128 .LVU410
 10778 0a25 00       		.uleb128 .LVU412
 10779              	.LLST57:
 10780 0a26 06       		.byte	0x6
 10781 0a27 1A000000 		.4byte	.LVL52
 10782 0a2b 04       		.byte	0x4
 10783 0a2c 00       		.uleb128 .LVL52-.LVL52
 10784 0a2d 06       		.uleb128 .LVL53-.LVL52
 10785 0a2e 02       		.uleb128 0x2
 10786 0a2f 30       		.byte	0x30
 10787 0a30 9F       		.byte	0x9f
 10788 0a31 04       		.byte	0x4
 10789 0a32 2C       		.uleb128 .LVL57-.LVL52
 10790 0a33 32       		.uleb128 .LVL58-.LVL52
 10791 0a34 02       		.uleb128 0x2
 10792 0a35 30       		.byte	0x30
 10793 0a36 9F       		.byte	0x9f
 10794 0a37 00       		.byte	0
 10795              	.LVUS59:
 10796 0a38 01       		.uleb128 .LVU356
 10797 0a39 00       		.uleb128 .LVU380
 10798 0a3a 00       		.uleb128 .LVU380
 10799 0a3b 00       		.uleb128 .LVU381
 10800 0a3c 00       		.uleb128 .LVU415
 10801 0a3d 00       		.uleb128 .LVU417
 10802              	.LLST59:
 10803 0a3e 06       		.byte	0x6
 10804 0a3f 24000000 		.4byte	.LVL54
 10805 0a43 04       		.byte	0x4
 10806 0a44 00       		.uleb128 .LVL54-.LVL54
 10807 0a45 20       		.uleb128 .LVL56-.LVL54
 10808 0a46 01       		.uleb128 0x1
 10809 0a47 50       		.byte	0x50
 10810 0a48 04       		.byte	0x4
 10811 0a49 20       		.uleb128 .LVL56-.LVL54
 10812 0a4a 22       		.uleb128 .LVL57-.LVL54
 10813 0a4b 01       		.uleb128 0x1
 10814 0a4c 54       		.byte	0x54
 10815 0a4d 04       		.byte	0x4
 10816 0a4e 2C       		.uleb128 .LVL59-.LVL54
 10817 0a4f 32       		.uleb128 .LVL60-.LVL54
 10818 0a50 01       		.uleb128 0x1
 10819 0a51 50       		.byte	0x50
 10820 0a52 00       		.byte	0
 10821              	.LVUS60:
 10822 0a53 0D       		.uleb128 .LVU394
 10823 0a54 00       		.uleb128 .LVU415
 10824              	.LLST60:
 10825 0a55 08       		.byte	0x8
 10826 0a56 46000000 		.4byte	.LVL57
 10827 0a5a 0A       		.uleb128 .LVL59-.LVL57
 10828 0a5b 02       		.uleb128 0x2
 10829 0a5c 30       		.byte	0x30
 10830 0a5d 9F       		.byte	0x9f
ARM GAS  C:\Users\DEVELO~1\AppData\Local\Temp\ccpJqkfg.s 			page 191


 10831 0a5e 00       		.byte	0
 10832              	.LVUS63:
 10833 0a5f 00       		.uleb128 .LVU421
 10834 0a60 00       		.uleb128 .LVU424
 10835              	.LLST63:
 10836 0a61 08       		.byte	0x8
 10837 0a62 62000000 		.4byte	.LVL62
 10838 0a66 04       		.uleb128 .LVL63-.LVL62
 10839 0a67 01       		.uleb128 0x1
 10840 0a68 50       		.byte	0x50
 10841 0a69 00       		.byte	0
 10842              	.LVUS65:
 10843 0a6a 00       		.uleb128 .LVU418
 10844 0a6b 00       		.uleb128 .LVU421
 10845 0a6c 00       		.uleb128 .LVU421
 10846 0a6d 00       		.uleb128 .LVU421
 10847 0a6e 02       		.uleb128 .LVU426
 10848 0a6f 00       		.uleb128 .LVU431
 10849 0a70 00       		.uleb128 .LVU431
 10850 0a71 00       		.uleb128 0
 10851              	.LLST65:
 10852 0a72 06       		.byte	0x6
 10853 0a73 5A000000 		.4byte	.LVL61
 10854 0a77 04       		.byte	0x4
 10855 0a78 00       		.uleb128 .LVL61-.LVL61
 10856 0a79 07       		.uleb128 .LVL62-1-.LVL61
 10857 0a7a 01       		.uleb128 0x1
 10858 0a7b 51       		.byte	0x51
 10859 0a7c 04       		.byte	0x4
 10860 0a7d 07       		.uleb128 .LVL62-1-.LVL61
 10861 0a7e 08       		.uleb128 .LVL62-.LVL61
 10862 0a7f 01       		.uleb128 0x1
 10863 0a80 55       		.byte	0x55
 10864 0a81 04       		.byte	0x4
 10865 0a82 0C       		.uleb128 .LVL63-.LVL61
 10866 0a83 16       		.uleb128 .LVL64-.LVL61
 10867 0a84 01       		.uleb128 0x1
 10868 0a85 55       		.byte	0x55
 10869 0a86 04       		.byte	0x4
 10870 0a87 16       		.uleb128 .LVL64-.LVL61
 10871 0a88 2A       		.uleb128 .LFE439-.LVL61
 10872 0a89 01       		.uleb128 0x1
 10873 0a8a 51       		.byte	0x51
 10874 0a8b 00       		.byte	0
 10875              	.LVUS66:
 10876 0a8c 00       		.uleb128 .LVU418
 10877 0a8d 00       		.uleb128 .LVU421
 10878 0a8e 00       		.uleb128 .LVU421
 10879 0a8f 00       		.uleb128 .LVU421
 10880 0a90 02       		.uleb128 .LVU426
 10881 0a91 00       		.uleb128 .LVU431
 10882 0a92 00       		.uleb128 .LVU431
 10883 0a93 00       		.uleb128 0
 10884              	.LLST66:
 10885 0a94 06       		.byte	0x6
 10886 0a95 5A000000 		.4byte	.LVL61
 10887 0a99 04       		.byte	0x4
ARM GAS  C:\Users\DEVELO~1\AppData\Local\Temp\ccpJqkfg.s 			page 192


 10888 0a9a 00       		.uleb128 .LVL61-.LVL61
 10889 0a9b 07       		.uleb128 .LVL62-1-.LVL61
 10890 0a9c 01       		.uleb128 0x1
 10891 0a9d 50       		.byte	0x50
 10892 0a9e 04       		.byte	0x4
 10893 0a9f 07       		.uleb128 .LVL62-1-.LVL61
 10894 0aa0 08       		.uleb128 .LVL62-.LVL61
 10895 0aa1 01       		.uleb128 0x1
 10896 0aa2 54       		.byte	0x54
 10897 0aa3 04       		.byte	0x4
 10898 0aa4 0C       		.uleb128 .LVL63-.LVL61
 10899 0aa5 16       		.uleb128 .LVL64-.LVL61
 10900 0aa6 01       		.uleb128 0x1
 10901 0aa7 54       		.byte	0x54
 10902 0aa8 04       		.byte	0x4
 10903 0aa9 16       		.uleb128 .LVL64-.LVL61
 10904 0aaa 2A       		.uleb128 .LFE439-.LVL61
 10905 0aab 01       		.uleb128 0x1
 10906 0aac 50       		.byte	0x50
 10907 0aad 00       		.byte	0
 10908              	.LVUS67:
 10909 0aae 01       		.uleb128 .LVU432
 10910 0aaf 01       		.uleb128 .LVU441
 10911              	.LLST67:
 10912 0ab0 08       		.byte	0x8
 10913 0ab1 70000000 		.4byte	.LVL64
 10914 0ab5 0C       		.uleb128 .LVL65-.LVL64
 10915 0ab6 01       		.uleb128 0x1
 10916 0ab7 51       		.byte	0x51
 10917 0ab8 00       		.byte	0
 10918              	.LVUS68:
 10919 0ab9 00       		.uleb128 .LVU431
 10920 0aba 01       		.uleb128 .LVU441
 10921              	.LLST68:
 10922 0abb 08       		.byte	0x8
 10923 0abc 70000000 		.4byte	.LVL64
 10924 0ac0 0C       		.uleb128 .LVL65-.LVL64
 10925 0ac1 01       		.uleb128 0x1
 10926 0ac2 50       		.byte	0x50
 10927 0ac3 00       		.byte	0
 10928              	.LVUS45:
 10929 0ac4 00       		.uleb128 0
 10930 0ac5 00       		.uleb128 .LVU265
 10931 0ac6 00       		.uleb128 .LVU265
 10932 0ac7 00       		.uleb128 0
 10933              	.LLST45:
 10934 0ac8 06       		.byte	0x6
 10935 0ac9 00000000 		.4byte	.LVL42
 10936 0acd 04       		.byte	0x4
 10937 0ace 00       		.uleb128 .LVL42-.LVL42
 10938 0acf 2B       		.uleb128 .LVL44-1-.LVL42
 10939 0ad0 01       		.uleb128 0x1
 10940 0ad1 50       		.byte	0x50
 10941 0ad2 04       		.byte	0x4
 10942 0ad3 2B       		.uleb128 .LVL44-1-.LVL42
 10943 0ad4 34       		.uleb128 .LFE437-.LVL42
 10944 0ad5 04       		.uleb128 0x4
ARM GAS  C:\Users\DEVELO~1\AppData\Local\Temp\ccpJqkfg.s 			page 193


 10945 0ad6 A3       		.byte	0xa3
 10946 0ad7 01       		.uleb128 0x1
 10947 0ad8 50       		.byte	0x50
 10948 0ad9 9F       		.byte	0x9f
 10949 0ada 00       		.byte	0
 10950              	.LVUS47:
 10951 0adb 08       		.uleb128 .LVU231
 10952 0adc 00       		.uleb128 .LVU235
 10953              	.LLST47:
 10954 0add 08       		.byte	0x8
 10955 0ade 00000000 		.4byte	.LVL42
 10956 0ae2 08       		.uleb128 .LVL43-.LVL42
 10957 0ae3 03       		.uleb128 0x3
 10958 0ae4 08       		.byte	0x8
 10959 0ae5 30       		.byte	0x30
 10960 0ae6 9F       		.byte	0x9f
 10961 0ae7 00       		.byte	0
 10962              	.LVUS48:
 10963 0ae8 04       		.uleb128 .LVU239
 10964 0ae9 00       		.uleb128 .LVU265
 10965 0aea 00       		.uleb128 .LVU265
 10966 0aeb 00       		.uleb128 .LVU265
 10967              	.LLST48:
 10968 0aec 06       		.byte	0x6
 10969 0aed 08000000 		.4byte	.LVL43
 10970 0af1 04       		.byte	0x4
 10971 0af2 00       		.uleb128 .LVL43-.LVL43
 10972 0af3 23       		.uleb128 .LVL44-1-.LVL43
 10973 0af4 01       		.uleb128 0x1
 10974 0af5 50       		.byte	0x50
 10975 0af6 04       		.byte	0x4
 10976 0af7 23       		.uleb128 .LVL44-1-.LVL43
 10977 0af8 24       		.uleb128 .LVL44-.LVL43
 10978 0af9 04       		.uleb128 0x4
 10979 0afa A3       		.byte	0xa3
 10980 0afb 01       		.uleb128 0x1
 10981 0afc 50       		.byte	0x50
 10982 0afd 9F       		.byte	0x9f
 10983 0afe 00       		.byte	0
 10984              	.LVUS49:
 10985 0aff 0D       		.uleb128 .LVU278
 10986 0b00 00       		.uleb128 .LVU280
 10987              	.LLST49:
 10988 0b01 08       		.byte	0x8
 10989 0b02 2C000000 		.4byte	.LVL44
 10990 0b06 06       		.uleb128 .LVL45-.LVL44
 10991 0b07 02       		.uleb128 0x2
 10992 0b08 30       		.byte	0x30
 10993 0b09 9F       		.byte	0x9f
 10994 0b0a 00       		.byte	0
 10995              	.LVUS19:
 10996 0b0b 00       		.uleb128 0
 10997 0b0c 00       		.uleb128 .LVU126
 10998 0b0d 00       		.uleb128 .LVU126
 10999 0b0e 00       		.uleb128 .LVU137
 11000 0b0f 00       		.uleb128 .LVU137
 11001 0b10 00       		.uleb128 .LVU144
ARM GAS  C:\Users\DEVELO~1\AppData\Local\Temp\ccpJqkfg.s 			page 194


 11002 0b11 00       		.uleb128 .LVU144
 11003 0b12 00       		.uleb128 .LVU166
 11004 0b13 00       		.uleb128 .LVU166
 11005 0b14 00       		.uleb128 .LVU167
 11006 0b15 00       		.uleb128 .LVU167
 11007 0b16 00       		.uleb128 0
 11008              	.LLST19:
 11009 0b17 06       		.byte	0x6
 11010 0b18 00000000 		.4byte	.LVL20
 11011 0b1c 04       		.byte	0x4
 11012 0b1d 00       		.uleb128 .LVL20-.LVL20
 11013 0b1e 15       		.uleb128 .LVL24-1-.LVL20
 11014 0b1f 01       		.uleb128 0x1
 11015 0b20 50       		.byte	0x50
 11016 0b21 04       		.byte	0x4
 11017 0b22 15       		.uleb128 .LVL24-1-.LVL20
 11018 0b23 24       		.uleb128 .LVL26-.LVL20
 11019 0b24 01       		.uleb128 0x1
 11020 0b25 54       		.byte	0x54
 11021 0b26 04       		.byte	0x4
 11022 0b27 24       		.uleb128 .LVL26-.LVL20
 11023 0b28 28       		.uleb128 .LVL27-.LVL20
 11024 0b29 01       		.uleb128 0x1
 11025 0b2a 50       		.byte	0x50
 11026 0b2b 04       		.byte	0x4
 11027 0b2c 28       		.uleb128 .LVL27-.LVL20
 11028 0b2d 3A       		.uleb128 .LVL30-.LVL20
 11029 0b2e 01       		.uleb128 0x1
 11030 0b2f 54       		.byte	0x54
 11031 0b30 04       		.byte	0x4
 11032 0b31 3A       		.uleb128 .LVL30-.LVL20
 11033 0b32 3E       		.uleb128 .LVL31-.LVL20
 11034 0b33 01       		.uleb128 0x1
 11035 0b34 50       		.byte	0x50
 11036 0b35 04       		.byte	0x4
 11037 0b36 3E       		.uleb128 .LVL31-.LVL20
 11038 0b37 46       		.uleb128 .LFE435-.LVL20
 11039 0b38 01       		.uleb128 0x1
 11040 0b39 54       		.byte	0x54
 11041 0b3a 00       		.byte	0
 11042              	.LVUS20:
 11043 0b3b 00       		.uleb128 0
 11044 0b3c 00       		.uleb128 .LVU126
 11045 0b3d 00       		.uleb128 .LVU126
 11046 0b3e 00       		.uleb128 .LVU137
 11047 0b3f 00       		.uleb128 .LVU137
 11048 0b40 01       		.uleb128 .LVU148
 11049 0b41 01       		.uleb128 .LVU148
 11050 0b42 00       		.uleb128 .LVU166
 11051 0b43 00       		.uleb128 .LVU166
 11052 0b44 00       		.uleb128 0
 11053              	.LLST20:
 11054 0b45 06       		.byte	0x6
 11055 0b46 00000000 		.4byte	.LVL20
 11056 0b4a 04       		.byte	0x4
 11057 0b4b 00       		.uleb128 .LVL20-.LVL20
 11058 0b4c 15       		.uleb128 .LVL24-1-.LVL20
ARM GAS  C:\Users\DEVELO~1\AppData\Local\Temp\ccpJqkfg.s 			page 195


 11059 0b4d 01       		.uleb128 0x1
 11060 0b4e 51       		.byte	0x51
 11061 0b4f 04       		.byte	0x4
 11062 0b50 15       		.uleb128 .LVL24-1-.LVL20
 11063 0b51 24       		.uleb128 .LVL26-.LVL20
 11064 0b52 01       		.uleb128 0x1
 11065 0b53 55       		.byte	0x55
 11066 0b54 04       		.byte	0x4
 11067 0b55 24       		.uleb128 .LVL26-.LVL20
 11068 0b56 32       		.uleb128 .LVL28-.LVL20
 11069 0b57 01       		.uleb128 0x1
 11070 0b58 51       		.byte	0x51
 11071 0b59 04       		.byte	0x4
 11072 0b5a 32       		.uleb128 .LVL28-.LVL20
 11073 0b5b 3A       		.uleb128 .LVL30-.LVL20
 11074 0b5c 01       		.uleb128 0x1
 11075 0b5d 55       		.byte	0x55
 11076 0b5e 04       		.byte	0x4
 11077 0b5f 3A       		.uleb128 .LVL30-.LVL20
 11078 0b60 46       		.uleb128 .LFE435-.LVL20
 11079 0b61 01       		.uleb128 0x1
 11080 0b62 51       		.byte	0x51
 11081 0b63 00       		.byte	0
 11082              	.LVUS21:
 11083 0b64 01       		.uleb128 .LVU148
 11084 0b65 00       		.uleb128 .LVU166
 11085 0b66 00       		.uleb128 .LVU167
 11086 0b67 00       		.uleb128 0
 11087              	.LLST21:
 11088 0b68 06       		.byte	0x6
 11089 0b69 32000000 		.4byte	.LVL28
 11090 0b6d 04       		.byte	0x4
 11091 0b6e 00       		.uleb128 .LVL28-.LVL28
 11092 0b6f 08       		.uleb128 .LVL30-.LVL28
 11093 0b70 01       		.uleb128 0x1
 11094 0b71 50       		.byte	0x50
 11095 0b72 04       		.byte	0x4
 11096 0b73 0C       		.uleb128 .LVL31-.LVL28
 11097 0b74 14       		.uleb128 .LFE435-.LVL28
 11098 0b75 01       		.uleb128 0x1
 11099 0b76 50       		.byte	0x50
 11100 0b77 00       		.byte	0
 11101              	.LVUS23:
 11102 0b78 08       		.uleb128 .LVU112
 11103 0b79 00       		.uleb128 .LVU116
 11104              	.LLST23:
 11105 0b7a 08       		.byte	0x8
 11106 0b7b 06000000 		.4byte	.LVL21
 11107 0b7f 06       		.uleb128 .LVL22-.LVL21
 11108 0b80 03       		.uleb128 0x3
 11109 0b81 08       		.byte	0x8
 11110 0b82 30       		.byte	0x30
 11111 0b83 9F       		.byte	0x9f
 11112 0b84 00       		.byte	0
 11113              	.LVUS25:
 11114 0b85 04       		.uleb128 .LVU120
 11115 0b86 00       		.uleb128 .LVU126
ARM GAS  C:\Users\DEVELO~1\AppData\Local\Temp\ccpJqkfg.s 			page 196


 11116 0b87 00       		.uleb128 .LVU126
 11117 0b88 00       		.uleb128 .LVU137
 11118 0b89 00       		.uleb128 .LVU137
 11119 0b8a 01       		.uleb128 .LVU148
 11120 0b8b 00       		.uleb128 .LVU166
 11121 0b8c 00       		.uleb128 .LVU167
 11122              	.LLST25:
 11123 0b8d 06       		.byte	0x6
 11124 0b8e 0C000000 		.4byte	.LVL22
 11125 0b92 04       		.byte	0x4
 11126 0b93 00       		.uleb128 .LVL22-.LVL22
 11127 0b94 09       		.uleb128 .LVL24-1-.LVL22
 11128 0b95 01       		.uleb128 0x1
 11129 0b96 51       		.byte	0x51
 11130 0b97 04       		.byte	0x4
 11131 0b98 09       		.uleb128 .LVL24-1-.LVL22
 11132 0b99 18       		.uleb128 .LVL26-.LVL22
 11133 0b9a 01       		.uleb128 0x1
 11134 0b9b 55       		.byte	0x55
 11135 0b9c 04       		.byte	0x4
 11136 0b9d 18       		.uleb128 .LVL26-.LVL22
 11137 0b9e 26       		.uleb128 .LVL28-.LVL22
 11138 0b9f 01       		.uleb128 0x1
 11139 0ba0 51       		.byte	0x51
 11140 0ba1 04       		.byte	0x4
 11141 0ba2 2E       		.uleb128 .LVL30-.LVL22
 11142 0ba3 32       		.uleb128 .LVL31-.LVL22
 11143 0ba4 01       		.uleb128 0x1
 11144 0ba5 51       		.byte	0x51
 11145 0ba6 00       		.byte	0
 11146              	.LVUS26:
 11147 0ba7 04       		.uleb128 .LVU120
 11148 0ba8 00       		.uleb128 .LVU126
 11149 0ba9 00       		.uleb128 .LVU126
 11150 0baa 00       		.uleb128 .LVU137
 11151 0bab 00       		.uleb128 .LVU137
 11152 0bac 00       		.uleb128 .LVU144
 11153 0bad 00       		.uleb128 .LVU144
 11154 0bae 01       		.uleb128 .LVU148
 11155 0baf 00       		.uleb128 .LVU166
 11156 0bb0 00       		.uleb128 .LVU167
 11157              	.LLST26:
 11158 0bb1 06       		.byte	0x6
 11159 0bb2 0C000000 		.4byte	.LVL22
 11160 0bb6 04       		.byte	0x4
 11161 0bb7 00       		.uleb128 .LVL22-.LVL22
 11162 0bb8 09       		.uleb128 .LVL24-1-.LVL22
 11163 0bb9 01       		.uleb128 0x1
 11164 0bba 50       		.byte	0x50
 11165 0bbb 04       		.byte	0x4
 11166 0bbc 09       		.uleb128 .LVL24-1-.LVL22
 11167 0bbd 18       		.uleb128 .LVL26-.LVL22
 11168 0bbe 01       		.uleb128 0x1
 11169 0bbf 54       		.byte	0x54
 11170 0bc0 04       		.byte	0x4
 11171 0bc1 18       		.uleb128 .LVL26-.LVL22
 11172 0bc2 1C       		.uleb128 .LVL27-.LVL22
ARM GAS  C:\Users\DEVELO~1\AppData\Local\Temp\ccpJqkfg.s 			page 197


 11173 0bc3 01       		.uleb128 0x1
 11174 0bc4 50       		.byte	0x50
 11175 0bc5 04       		.byte	0x4
 11176 0bc6 1C       		.uleb128 .LVL27-.LVL22
 11177 0bc7 26       		.uleb128 .LVL28-.LVL22
 11178 0bc8 01       		.uleb128 0x1
 11179 0bc9 54       		.byte	0x54
 11180 0bca 04       		.byte	0x4
 11181 0bcb 2E       		.uleb128 .LVL30-.LVL22
 11182 0bcc 32       		.uleb128 .LVL31-.LVL22
 11183 0bcd 01       		.uleb128 0x1
 11184 0bce 50       		.byte	0x50
 11185 0bcf 00       		.byte	0
 11186              	.LVUS28:
 11187 0bd0 00       		.uleb128 .LVU126
 11188 0bd1 00       		.uleb128 .LVU130
 11189              	.LLST28:
 11190 0bd2 08       		.byte	0x8
 11191 0bd3 16000000 		.4byte	.LVL24
 11192 0bd7 04       		.uleb128 .LVL25-.LVL24
 11193 0bd8 01       		.uleb128 0x1
 11194 0bd9 50       		.byte	0x50
 11195 0bda 00       		.byte	0
 11196              	.LVUS30:
 11197 0bdb 00       		.uleb128 .LVU124
 11198 0bdc 00       		.uleb128 .LVU126
 11199 0bdd 00       		.uleb128 .LVU126
 11200 0bde 00       		.uleb128 .LVU126
 11201 0bdf 02       		.uleb128 .LVU132
 11202 0be0 00       		.uleb128 .LVU137
 11203 0be1 00       		.uleb128 .LVU137
 11204 0be2 01       		.uleb128 .LVU148
 11205 0be3 00       		.uleb128 .LVU166
 11206 0be4 00       		.uleb128 0
 11207              	.LLST30:
 11208 0be5 06       		.byte	0x6
 11209 0be6 0E000000 		.4byte	.LVL23
 11210 0bea 04       		.byte	0x4
 11211 0beb 00       		.uleb128 .LVL23-.LVL23
 11212 0bec 07       		.uleb128 .LVL24-1-.LVL23
 11213 0bed 01       		.uleb128 0x1
 11214 0bee 51       		.byte	0x51
 11215 0bef 04       		.byte	0x4
 11216 0bf0 07       		.uleb128 .LVL24-1-.LVL23
 11217 0bf1 08       		.uleb128 .LVL24-.LVL23
 11218 0bf2 01       		.uleb128 0x1
 11219 0bf3 55       		.byte	0x55
 11220 0bf4 04       		.byte	0x4
 11221 0bf5 0C       		.uleb128 .LVL25-.LVL23
 11222 0bf6 16       		.uleb128 .LVL26-.LVL23
 11223 0bf7 01       		.uleb128 0x1
 11224 0bf8 55       		.byte	0x55
 11225 0bf9 04       		.byte	0x4
 11226 0bfa 16       		.uleb128 .LVL26-.LVL23
 11227 0bfb 24       		.uleb128 .LVL28-.LVL23
 11228 0bfc 01       		.uleb128 0x1
 11229 0bfd 51       		.byte	0x51
ARM GAS  C:\Users\DEVELO~1\AppData\Local\Temp\ccpJqkfg.s 			page 198


 11230 0bfe 04       		.byte	0x4
 11231 0bff 2C       		.uleb128 .LVL30-.LVL23
 11232 0c00 38       		.uleb128 .LFE435-.LVL23
 11233 0c01 01       		.uleb128 0x1
 11234 0c02 51       		.byte	0x51
 11235 0c03 00       		.byte	0
 11236              	.LVUS31:
 11237 0c04 00       		.uleb128 .LVU124
 11238 0c05 00       		.uleb128 .LVU126
 11239 0c06 00       		.uleb128 .LVU126
 11240 0c07 00       		.uleb128 .LVU126
 11241 0c08 02       		.uleb128 .LVU132
 11242 0c09 00       		.uleb128 .LVU137
 11243 0c0a 00       		.uleb128 .LVU137
 11244 0c0b 00       		.uleb128 .LVU144
 11245 0c0c 00       		.uleb128 .LVU144
 11246 0c0d 01       		.uleb128 .LVU148
 11247 0c0e 00       		.uleb128 .LVU166
 11248 0c0f 00       		.uleb128 .LVU167
 11249 0c10 00       		.uleb128 .LVU167
 11250 0c11 00       		.uleb128 0
 11251              	.LLST31:
 11252 0c12 06       		.byte	0x6
 11253 0c13 0E000000 		.4byte	.LVL23
 11254 0c17 04       		.byte	0x4
 11255 0c18 00       		.uleb128 .LVL23-.LVL23
 11256 0c19 07       		.uleb128 .LVL24-1-.LVL23
 11257 0c1a 01       		.uleb128 0x1
 11258 0c1b 50       		.byte	0x50
 11259 0c1c 04       		.byte	0x4
 11260 0c1d 07       		.uleb128 .LVL24-1-.LVL23
 11261 0c1e 08       		.uleb128 .LVL24-.LVL23
 11262 0c1f 01       		.uleb128 0x1
 11263 0c20 54       		.byte	0x54
 11264 0c21 04       		.byte	0x4
 11265 0c22 0C       		.uleb128 .LVL25-.LVL23
 11266 0c23 16       		.uleb128 .LVL26-.LVL23
 11267 0c24 01       		.uleb128 0x1
 11268 0c25 54       		.byte	0x54
 11269 0c26 04       		.byte	0x4
 11270 0c27 16       		.uleb128 .LVL26-.LVL23
 11271 0c28 1A       		.uleb128 .LVL27-.LVL23
 11272 0c29 01       		.uleb128 0x1
 11273 0c2a 50       		.byte	0x50
 11274 0c2b 04       		.byte	0x4
 11275 0c2c 1A       		.uleb128 .LVL27-.LVL23
 11276 0c2d 24       		.uleb128 .LVL28-.LVL23
 11277 0c2e 01       		.uleb128 0x1
 11278 0c2f 54       		.byte	0x54
 11279 0c30 04       		.byte	0x4
 11280 0c31 2C       		.uleb128 .LVL30-.LVL23
 11281 0c32 30       		.uleb128 .LVL31-.LVL23
 11282 0c33 01       		.uleb128 0x1
 11283 0c34 50       		.byte	0x50
 11284 0c35 04       		.byte	0x4
 11285 0c36 30       		.uleb128 .LVL31-.LVL23
 11286 0c37 38       		.uleb128 .LFE435-.LVL23
ARM GAS  C:\Users\DEVELO~1\AppData\Local\Temp\ccpJqkfg.s 			page 199


 11287 0c38 01       		.uleb128 0x1
 11288 0c39 54       		.byte	0x54
 11289 0c3a 00       		.byte	0
 11290              	.LVUS32:
 11291 0c3b 01       		.uleb128 .LVU138
 11292 0c3c 01       		.uleb128 .LVU148
 11293              	.LLST32:
 11294 0c3d 08       		.byte	0x8
 11295 0c3e 24000000 		.4byte	.LVL26
 11296 0c42 0E       		.uleb128 .LVL28-.LVL26
 11297 0c43 01       		.uleb128 0x1
 11298 0c44 51       		.byte	0x51
 11299 0c45 00       		.byte	0
 11300              	.LVUS33:
 11301 0c46 00       		.uleb128 .LVU137
 11302 0c47 00       		.uleb128 .LVU144
 11303 0c48 00       		.uleb128 .LVU144
 11304 0c49 01       		.uleb128 .LVU148
 11305              	.LLST33:
 11306 0c4a 06       		.byte	0x6
 11307 0c4b 24000000 		.4byte	.LVL26
 11308 0c4f 04       		.byte	0x4
 11309 0c50 00       		.uleb128 .LVL26-.LVL26
 11310 0c51 04       		.uleb128 .LVL27-.LVL26
 11311 0c52 01       		.uleb128 0x1
 11312 0c53 50       		.byte	0x50
 11313 0c54 04       		.byte	0x4
 11314 0c55 04       		.uleb128 .LVL27-.LVL26
 11315 0c56 0E       		.uleb128 .LVL28-.LVL26
 11316 0c57 01       		.uleb128 0x1
 11317 0c58 54       		.byte	0x54
 11318 0c59 00       		.byte	0
 11319              	.LVUS35:
 11320 0c5a 0E       		.uleb128 .LVU161
 11321 0c5b 00       		.uleb128 .LVU163
 11322 0c5c 0D       		.uleb128 .LVU180
 11323 0c5d 00       		.uleb128 .LVU182
 11324              	.LLST35:
 11325 0c5e 06       		.byte	0x6
 11326 0c5f 32000000 		.4byte	.LVL28
 11327 0c63 04       		.byte	0x4
 11328 0c64 00       		.uleb128 .LVL28-.LVL28
 11329 0c65 06       		.uleb128 .LVL29-.LVL28
 11330 0c66 02       		.uleb128 0x2
 11331 0c67 30       		.byte	0x30
 11332 0c68 9F       		.byte	0x9f
 11333 0c69 04       		.byte	0x4
 11334 0c6a 0C       		.uleb128 .LVL31-.LVL28
 11335 0c6b 12       		.uleb128 .LVL32-.LVL28
 11336 0c6c 02       		.uleb128 0x2
 11337 0c6d 30       		.byte	0x30
 11338 0c6e 9F       		.byte	0x9f
 11339 0c6f 00       		.byte	0
 11340              	.LVUS15:
 11341 0c70 00       		.uleb128 0
 11342 0c71 00       		.uleb128 .LVU99
 11343 0c72 00       		.uleb128 .LVU99
ARM GAS  C:\Users\DEVELO~1\AppData\Local\Temp\ccpJqkfg.s 			page 200


 11344 0c73 00       		.uleb128 0
 11345              	.LLST15:
 11346 0c74 06       		.byte	0x6
 11347 0c75 00000000 		.4byte	.LVL14
 11348 0c79 04       		.byte	0x4
 11349 0c7a 00       		.uleb128 .LVL14-.LVL14
 11350 0c7b 23       		.uleb128 .LVL19-1-.LVL14
 11351 0c7c 01       		.uleb128 0x1
 11352 0c7d 50       		.byte	0x50
 11353 0c7e 04       		.byte	0x4
 11354 0c7f 23       		.uleb128 .LVL19-1-.LVL14
 11355 0c80 24       		.uleb128 .LFE434-.LVL14
 11356 0c81 04       		.uleb128 0x4
 11357 0c82 A3       		.byte	0xa3
 11358 0c83 01       		.uleb128 0x1
 11359 0c84 50       		.byte	0x50
 11360 0c85 9F       		.byte	0x9f
 11361 0c86 00       		.byte	0
 11362              	.LVUS16:
 11363 0c87 00       		.uleb128 0
 11364 0c88 00       		.uleb128 .LVU83
 11365 0c89 00       		.uleb128 .LVU83
 11366 0c8a 00       		.uleb128 .LVU85
 11367 0c8b 00       		.uleb128 .LVU85
 11368 0c8c 00       		.uleb128 .LVU88
 11369 0c8d 00       		.uleb128 .LVU88
 11370 0c8e 00       		.uleb128 0
 11371              	.LLST16:
 11372 0c8f 06       		.byte	0x6
 11373 0c90 00000000 		.4byte	.LVL14
 11374 0c94 04       		.byte	0x4
 11375 0c95 00       		.uleb128 .LVL14-.LVL14
 11376 0c96 0A       		.uleb128 .LVL15-.LVL14
 11377 0c97 01       		.uleb128 0x1
 11378 0c98 51       		.byte	0x51
 11379 0c99 04       		.byte	0x4
 11380 0c9a 0A       		.uleb128 .LVL15-.LVL14
 11381 0c9b 0E       		.uleb128 .LVL16-.LVL14
 11382 0c9c 02       		.uleb128 0x2
 11383 0c9d 73       		.byte	0x73
 11384 0c9e 00       		.sleb128 0
 11385 0c9f 04       		.byte	0x4
 11386 0ca0 0E       		.uleb128 .LVL16-.LVL14
 11387 0ca1 14       		.uleb128 .LVL17-.LVL14
 11388 0ca2 03       		.uleb128 0x3
 11389 0ca3 70       		.byte	0x70
 11390 0ca4 10       		.sleb128 16
 11391 0ca5 06       		.byte	0x6
 11392 0ca6 04       		.byte	0x4
 11393 0ca7 14       		.uleb128 .LVL17-.LVL14
 11394 0ca8 24       		.uleb128 .LFE434-.LVL14
 11395 0ca9 04       		.uleb128 0x4
 11396 0caa A3       		.byte	0xa3
 11397 0cab 01       		.uleb128 0x1
 11398 0cac 51       		.byte	0x51
 11399 0cad 9F       		.byte	0x9f
 11400 0cae 00       		.byte	0
ARM GAS  C:\Users\DEVELO~1\AppData\Local\Temp\ccpJqkfg.s 			page 201


 11401              	.LVUS18:
 11402 0caf 01       		.uleb128 .LVU95
 11403 0cb0 00       		.uleb128 .LVU99
 11404 0cb1 00       		.uleb128 .LVU99
 11405 0cb2 00       		.uleb128 0
 11406              	.LLST18:
 11407 0cb3 06       		.byte	0x6
 11408 0cb4 1C000000 		.4byte	.LVL18
 11409 0cb8 04       		.byte	0x4
 11410 0cb9 00       		.uleb128 .LVL18-.LVL18
 11411 0cba 07       		.uleb128 .LVL19-1-.LVL18
 11412 0cbb 01       		.uleb128 0x1
 11413 0cbc 50       		.byte	0x50
 11414 0cbd 04       		.byte	0x4
 11415 0cbe 07       		.uleb128 .LVL19-1-.LVL18
 11416 0cbf 08       		.uleb128 .LFE434-.LVL18
 11417 0cc0 04       		.uleb128 0x4
 11418 0cc1 A3       		.byte	0xa3
 11419 0cc2 01       		.uleb128 0x1
 11420 0cc3 50       		.byte	0x50
 11421 0cc4 9F       		.byte	0x9f
 11422 0cc5 00       		.byte	0
 11423              	.LVUS14:
 11424 0cc6 00       		.uleb128 0
 11425 0cc7 00       		.uleb128 .LVU64
 11426 0cc8 00       		.uleb128 .LVU64
 11427 0cc9 00       		.uleb128 .LVU65
 11428 0cca 00       		.uleb128 .LVU65
 11429 0ccb 00       		.uleb128 .LVU67
 11430 0ccc 00       		.uleb128 .LVU67
 11431 0ccd 00       		.uleb128 0
 11432              	.LLST14:
 11433 0cce 06       		.byte	0x6
 11434 0ccf 00000000 		.4byte	.LVL10
 11435 0cd3 04       		.byte	0x4
 11436 0cd4 00       		.uleb128 .LVL10-.LVL10
 11437 0cd5 0A       		.uleb128 .LVL11-.LVL10
 11438 0cd6 01       		.uleb128 0x1
 11439 0cd7 50       		.byte	0x50
 11440 0cd8 04       		.byte	0x4
 11441 0cd9 0A       		.uleb128 .LVL11-.LVL10
 11442 0cda 0C       		.uleb128 .LVL12-.LVL10
 11443 0cdb 04       		.uleb128 0x4
 11444 0cdc A3       		.byte	0xa3
 11445 0cdd 01       		.uleb128 0x1
 11446 0cde 50       		.byte	0x50
 11447 0cdf 9F       		.byte	0x9f
 11448 0ce0 04       		.byte	0x4
 11449 0ce1 0C       		.uleb128 .LVL12-.LVL10
 11450 0ce2 14       		.uleb128 .LVL13-.LVL10
 11451 0ce3 01       		.uleb128 0x1
 11452 0ce4 50       		.byte	0x50
 11453 0ce5 04       		.byte	0x4
 11454 0ce6 14       		.uleb128 .LVL13-.LVL10
 11455 0ce7 16       		.uleb128 .LFE433-.LVL10
 11456 0ce8 04       		.uleb128 0x4
 11457 0ce9 A3       		.byte	0xa3
ARM GAS  C:\Users\DEVELO~1\AppData\Local\Temp\ccpJqkfg.s 			page 202


 11458 0cea 01       		.uleb128 0x1
 11459 0ceb 50       		.byte	0x50
 11460 0cec 9F       		.byte	0x9f
 11461 0ced 00       		.byte	0
 11462              	.LVUS11:
 11463 0cee 00       		.uleb128 0
 11464 0cef 00       		.uleb128 .LVU57
 11465 0cf0 00       		.uleb128 .LVU57
 11466 0cf1 00       		.uleb128 0
 11467              	.LLST11:
 11468 0cf2 06       		.byte	0x6
 11469 0cf3 00000000 		.4byte	.LVL7
 11470 0cf7 04       		.byte	0x4
 11471 0cf8 00       		.uleb128 .LVL7-.LVL7
 11472 0cf9 19       		.uleb128 .LVL9-1-.LVL7
 11473 0cfa 01       		.uleb128 0x1
 11474 0cfb 50       		.byte	0x50
 11475 0cfc 04       		.byte	0x4
 11476 0cfd 19       		.uleb128 .LVL9-1-.LVL7
 11477 0cfe 1A       		.uleb128 .LFE432-.LVL7
 11478 0cff 04       		.uleb128 0x4
 11479 0d00 A3       		.byte	0xa3
 11480 0d01 01       		.uleb128 0x1
 11481 0d02 50       		.byte	0x50
 11482 0d03 9F       		.byte	0x9f
 11483 0d04 00       		.byte	0
 11484              	.LVUS13:
 11485 0d05 03       		.uleb128 .LVU52
 11486 0d06 00       		.uleb128 .LVU57
 11487 0d07 00       		.uleb128 .LVU57
 11488 0d08 00       		.uleb128 0
 11489              	.LLST13:
 11490 0d09 06       		.byte	0x6
 11491 0d0a 10000000 		.4byte	.LVL8
 11492 0d0e 04       		.byte	0x4
 11493 0d0f 00       		.uleb128 .LVL8-.LVL8
 11494 0d10 09       		.uleb128 .LVL9-1-.LVL8
 11495 0d11 01       		.uleb128 0x1
 11496 0d12 50       		.byte	0x50
 11497 0d13 04       		.byte	0x4
 11498 0d14 09       		.uleb128 .LVL9-1-.LVL8
 11499 0d15 0A       		.uleb128 .LFE432-.LVL8
 11500 0d16 04       		.uleb128 0x4
 11501 0d17 A3       		.byte	0xa3
 11502 0d18 01       		.uleb128 0x1
 11503 0d19 50       		.byte	0x50
 11504 0d1a 9F       		.byte	0x9f
 11505 0d1b 00       		.byte	0
 11506              	.LVUS0:
 11507 0d1c 00       		.uleb128 0
 11508 0d1d 00       		.uleb128 .LVU16
 11509 0d1e 00       		.uleb128 .LVU16
 11510 0d1f 00       		.uleb128 0
 11511              	.LLST0:
 11512 0d20 06       		.byte	0x6
 11513 0d21 00000000 		.4byte	.LVL0
 11514 0d25 04       		.byte	0x4
ARM GAS  C:\Users\DEVELO~1\AppData\Local\Temp\ccpJqkfg.s 			page 203


 11515 0d26 00       		.uleb128 .LVL0-.LVL0
 11516 0d27 0A       		.uleb128 .LVL2-.LVL0
 11517 0d28 01       		.uleb128 0x1
 11518 0d29 51       		.byte	0x51
 11519 0d2a 04       		.byte	0x4
 11520 0d2b 0A       		.uleb128 .LVL2-.LVL0
 11521 0d2c 30       		.uleb128 .LFE431-.LVL0
 11522 0d2d 02       		.uleb128 0x2
 11523 0d2e 70       		.byte	0x70
 11524 0d2f 08       		.sleb128 8
 11525 0d30 00       		.byte	0
 11526              	.LVUS1:
 11527 0d31 00       		.uleb128 0
 11528 0d32 00       		.uleb128 .LVU25
 11529 0d33 00       		.uleb128 .LVU25
 11530 0d34 00       		.uleb128 0
 11531              	.LLST1:
 11532 0d35 06       		.byte	0x6
 11533 0d36 00000000 		.4byte	.LVL0
 11534 0d3a 04       		.byte	0x4
 11535 0d3b 00       		.uleb128 .LVL0-.LVL0
 11536 0d3c 24       		.uleb128 .LVL4-.LVL0
 11537 0d3d 01       		.uleb128 0x1
 11538 0d3e 52       		.byte	0x52
 11539 0d3f 04       		.byte	0x4
 11540 0d40 24       		.uleb128 .LVL4-.LVL0
 11541 0d41 30       		.uleb128 .LFE431-.LVL0
 11542 0d42 02       		.uleb128 0x2
 11543 0d43 70       		.byte	0x70
 11544 0d44 14       		.sleb128 20
 11545 0d45 00       		.byte	0
 11546              	.LVUS2:
 11547 0d46 00       		.uleb128 0
 11548 0d47 00       		.uleb128 .LVU8
 11549 0d48 00       		.uleb128 .LVU8
 11550 0d49 00       		.uleb128 .LVU18
 11551 0d4a 00       		.uleb128 .LVU18
 11552 0d4b 00       		.uleb128 0
 11553              	.LLST2:
 11554 0d4c 06       		.byte	0x6
 11555 0d4d 00000000 		.4byte	.LVL0
 11556 0d51 04       		.byte	0x4
 11557 0d52 00       		.uleb128 .LVL0-.LVL0
 11558 0d53 06       		.uleb128 .LVL1-.LVL0
 11559 0d54 01       		.uleb128 0x1
 11560 0d55 53       		.byte	0x53
 11561 0d56 04       		.byte	0x4
 11562 0d57 06       		.uleb128 .LVL1-.LVL0
 11563 0d58 10       		.uleb128 .LVL3-.LVL0
 11564 0d59 03       		.uleb128 0x3
 11565 0d5a 73       		.byte	0x73
 11566 0d5b 7C       		.sleb128 -4
 11567 0d5c 9F       		.byte	0x9f
 11568 0d5d 04       		.byte	0x4
 11569 0d5e 10       		.uleb128 .LVL3-.LVL0
 11570 0d5f 30       		.uleb128 .LFE431-.LVL0
 11571 0d60 06       		.uleb128 0x6
ARM GAS  C:\Users\DEVELO~1\AppData\Local\Temp\ccpJqkfg.s 			page 204


 11572 0d61 70       		.byte	0x70
 11573 0d62 1C       		.sleb128 28
 11574 0d63 06       		.byte	0x6
 11575 0d64 34       		.byte	0x34
 11576 0d65 1C       		.byte	0x1c
 11577 0d66 9F       		.byte	0x9f
 11578 0d67 00       		.byte	0
 11579              	.LVUS3:
 11580 0d68 00       		.uleb128 0
 11581 0d69 00       		.uleb128 .LVU37
 11582 0d6a 00       		.uleb128 .LVU37
 11583 0d6b 00       		.uleb128 0
 11584              	.LLST3:
 11585 0d6c 06       		.byte	0x6
 11586 0d6d 00000000 		.4byte	.LVL0
 11587 0d71 04       		.byte	0x4
 11588 0d72 00       		.uleb128 .LVL0-.LVL0
 11589 0d73 2A       		.uleb128 .LVL6-.LVL0
 11590 0d74 02       		.uleb128 0x2
 11591 0d75 91       		.byte	0x91
 11592 0d76 00       		.sleb128 0
 11593 0d77 04       		.byte	0x4
 11594 0d78 2A       		.uleb128 .LVL6-.LVL0
 11595 0d79 30       		.uleb128 .LFE431-.LVL0
 11596 0d7a 02       		.uleb128 0x2
 11597 0d7b 7D       		.byte	0x7d
 11598 0d7c 00       		.sleb128 0
 11599 0d7d 00       		.byte	0
 11600              	.LVUS4:
 11601 0d7e 00       		.uleb128 0
 11602 0d7f 00       		.uleb128 .LVU37
 11603 0d80 00       		.uleb128 .LVU37
 11604 0d81 00       		.uleb128 0
 11605              	.LLST4:
 11606 0d82 06       		.byte	0x6
 11607 0d83 00000000 		.4byte	.LVL0
 11608 0d87 04       		.byte	0x4
 11609 0d88 00       		.uleb128 .LVL0-.LVL0
 11610 0d89 2A       		.uleb128 .LVL6-.LVL0
 11611 0d8a 02       		.uleb128 0x2
 11612 0d8b 91       		.byte	0x91
 11613 0d8c 04       		.sleb128 4
 11614 0d8d 04       		.byte	0x4
 11615 0d8e 2A       		.uleb128 .LVL6-.LVL0
 11616 0d8f 30       		.uleb128 .LFE431-.LVL0
 11617 0d90 02       		.uleb128 0x2
 11618 0d91 7D       		.byte	0x7d
 11619 0d92 04       		.sleb128 4
 11620 0d93 00       		.byte	0
 11621              	.LVUS5:
 11622 0d94 00       		.uleb128 0
 11623 0d95 00       		.uleb128 .LVU37
 11624 0d96 00       		.uleb128 .LVU37
 11625 0d97 00       		.uleb128 0
 11626              	.LLST5:
 11627 0d98 06       		.byte	0x6
 11628 0d99 00000000 		.4byte	.LVL0
ARM GAS  C:\Users\DEVELO~1\AppData\Local\Temp\ccpJqkfg.s 			page 205


 11629 0d9d 04       		.byte	0x4
 11630 0d9e 00       		.uleb128 .LVL0-.LVL0
 11631 0d9f 2A       		.uleb128 .LVL6-.LVL0
 11632 0da0 02       		.uleb128 0x2
 11633 0da1 91       		.byte	0x91
 11634 0da2 08       		.sleb128 8
 11635 0da3 04       		.byte	0x4
 11636 0da4 2A       		.uleb128 .LVL6-.LVL0
 11637 0da5 30       		.uleb128 .LFE431-.LVL0
 11638 0da6 02       		.uleb128 0x2
 11639 0da7 7D       		.byte	0x7d
 11640 0da8 08       		.sleb128 8
 11641 0da9 00       		.byte	0
 11642              	.LVUS7:
 11643 0daa 00       		.uleb128 .LVU8
 11644 0dab 00       		.uleb128 .LVU26
 11645              	.LLST7:
 11646 0dac 08       		.byte	0x8
 11647 0dad 06000000 		.4byte	.LVL1
 11648 0db1 22       		.uleb128 .LVL5-.LVL1
 11649 0db2 01       		.uleb128 0x1
 11650 0db3 50       		.byte	0x50
 11651 0db4 00       		.byte	0
 11652              	.LVUS8:
 11653 0db5 02       		.uleb128 .LVU10
 11654 0db6 00       		.uleb128 .LVU26
 11655              	.LLST8:
 11656 0db7 08       		.byte	0x8
 11657 0db8 06000000 		.4byte	.LVL1
 11658 0dbc 22       		.uleb128 .LVL5-.LVL1
 11659 0dbd 01       		.uleb128 0x1
 11660 0dbe 50       		.byte	0x50
 11661 0dbf 00       		.byte	0
 11662              	.LVUS10:
 11663 0dc0 04       		.uleb128 .LVU12
 11664 0dc1 00       		.uleb128 .LVU26
 11665              	.LLST10:
 11666 0dc2 08       		.byte	0x8
 11667 0dc3 06000000 		.4byte	.LVL1
 11668 0dc7 22       		.uleb128 .LVL5-.LVL1
 11669 0dc8 01       		.uleb128 0x1
 11670 0dc9 50       		.byte	0x50
 11671 0dca 00       		.byte	0
 11672              	.LVUS36:
 11673 0dcb 00       		.uleb128 0
 11674 0dcc 00       		.uleb128 .LVU195
 11675 0dcd 00       		.uleb128 .LVU195
 11676 0dce 00       		.uleb128 .LVU206
 11677 0dcf 00       		.uleb128 .LVU206
 11678 0dd0 00       		.uleb128 .LVU213
 11679 0dd1 00       		.uleb128 .LVU213
 11680 0dd2 00       		.uleb128 .LVU219
 11681 0dd3 00       		.uleb128 .LVU219
 11682 0dd4 00       		.uleb128 .LVU220
 11683 0dd5 00       		.uleb128 .LVU220
 11684 0dd6 00       		.uleb128 0
 11685              	.LLST36:
ARM GAS  C:\Users\DEVELO~1\AppData\Local\Temp\ccpJqkfg.s 			page 206


 11686 0dd7 06       		.byte	0x6
 11687 0dd8 00000000 		.4byte	.LVL33
 11688 0ddc 04       		.byte	0x4
 11689 0ddd 00       		.uleb128 .LVL33-.LVL33
 11690 0dde 0F       		.uleb128 .LVL35-1-.LVL33
 11691 0ddf 01       		.uleb128 0x1
 11692 0de0 50       		.byte	0x50
 11693 0de1 04       		.byte	0x4
 11694 0de2 0F       		.uleb128 .LVL35-1-.LVL33
 11695 0de3 1E       		.uleb128 .LVL37-.LVL33
 11696 0de4 01       		.uleb128 0x1
 11697 0de5 54       		.byte	0x54
 11698 0de6 04       		.byte	0x4
 11699 0de7 1E       		.uleb128 .LVL37-.LVL33
 11700 0de8 22       		.uleb128 .LVL38-.LVL33
 11701 0de9 01       		.uleb128 0x1
 11702 0dea 50       		.byte	0x50
 11703 0deb 04       		.byte	0x4
 11704 0dec 22       		.uleb128 .LVL38-.LVL33
 11705 0ded 2E       		.uleb128 .LVL40-.LVL33
 11706 0dee 01       		.uleb128 0x1
 11707 0def 54       		.byte	0x54
 11708 0df0 04       		.byte	0x4
 11709 0df1 2E       		.uleb128 .LVL40-.LVL33
 11710 0df2 32       		.uleb128 .LVL41-.LVL33
 11711 0df3 01       		.uleb128 0x1
 11712 0df4 50       		.byte	0x50
 11713 0df5 04       		.byte	0x4
 11714 0df6 32       		.uleb128 .LVL41-.LVL33
 11715 0df7 34       		.uleb128 .LFE436-.LVL33
 11716 0df8 01       		.uleb128 0x1
 11717 0df9 54       		.byte	0x54
 11718 0dfa 00       		.byte	0
 11719              	.LVUS37:
 11720 0dfb 00       		.uleb128 0
 11721 0dfc 00       		.uleb128 .LVU195
 11722 0dfd 00       		.uleb128 .LVU195
 11723 0dfe 00       		.uleb128 .LVU206
 11724 0dff 00       		.uleb128 .LVU206
 11725 0e00 01       		.uleb128 .LVU217
 11726 0e01 01       		.uleb128 .LVU217
 11727 0e02 00       		.uleb128 .LVU219
 11728 0e03 00       		.uleb128 .LVU219
 11729 0e04 00       		.uleb128 0
 11730              	.LLST37:
 11731 0e05 06       		.byte	0x6
 11732 0e06 00000000 		.4byte	.LVL33
 11733 0e0a 04       		.byte	0x4
 11734 0e0b 00       		.uleb128 .LVL33-.LVL33
 11735 0e0c 0F       		.uleb128 .LVL35-1-.LVL33
 11736 0e0d 01       		.uleb128 0x1
 11737 0e0e 51       		.byte	0x51
 11738 0e0f 04       		.byte	0x4
 11739 0e10 0F       		.uleb128 .LVL35-1-.LVL33
 11740 0e11 1E       		.uleb128 .LVL37-.LVL33
 11741 0e12 01       		.uleb128 0x1
 11742 0e13 55       		.byte	0x55
ARM GAS  C:\Users\DEVELO~1\AppData\Local\Temp\ccpJqkfg.s 			page 207


 11743 0e14 04       		.byte	0x4
 11744 0e15 1E       		.uleb128 .LVL37-.LVL33
 11745 0e16 2C       		.uleb128 .LVL39-.LVL33
 11746 0e17 01       		.uleb128 0x1
 11747 0e18 51       		.byte	0x51
 11748 0e19 04       		.byte	0x4
 11749 0e1a 2C       		.uleb128 .LVL39-.LVL33
 11750 0e1b 2E       		.uleb128 .LVL40-.LVL33
 11751 0e1c 01       		.uleb128 0x1
 11752 0e1d 55       		.byte	0x55
 11753 0e1e 04       		.byte	0x4
 11754 0e1f 2E       		.uleb128 .LVL40-.LVL33
 11755 0e20 34       		.uleb128 .LFE436-.LVL33
 11756 0e21 01       		.uleb128 0x1
 11757 0e22 51       		.byte	0x51
 11758 0e23 00       		.byte	0
 11759              	.LVUS39:
 11760 0e24 00       		.uleb128 .LVU195
 11761 0e25 00       		.uleb128 .LVU199
 11762              	.LLST39:
 11763 0e26 08       		.byte	0x8
 11764 0e27 10000000 		.4byte	.LVL35
 11765 0e2b 04       		.uleb128 .LVL36-.LVL35
 11766 0e2c 01       		.uleb128 0x1
 11767 0e2d 50       		.byte	0x50
 11768 0e2e 00       		.byte	0
 11769              	.LVUS41:
 11770 0e2f 00       		.uleb128 .LVU193
 11771 0e30 00       		.uleb128 .LVU195
 11772 0e31 00       		.uleb128 .LVU195
 11773 0e32 00       		.uleb128 .LVU195
 11774 0e33 02       		.uleb128 .LVU201
 11775 0e34 00       		.uleb128 .LVU206
 11776 0e35 00       		.uleb128 .LVU206
 11777 0e36 01       		.uleb128 .LVU217
 11778 0e37 00       		.uleb128 .LVU219
 11779 0e38 00       		.uleb128 0
 11780              	.LLST41:
 11781 0e39 06       		.byte	0x6
 11782 0e3a 08000000 		.4byte	.LVL34
 11783 0e3e 04       		.byte	0x4
 11784 0e3f 00       		.uleb128 .LVL34-.LVL34
 11785 0e40 07       		.uleb128 .LVL35-1-.LVL34
 11786 0e41 01       		.uleb128 0x1
 11787 0e42 51       		.byte	0x51
 11788 0e43 04       		.byte	0x4
 11789 0e44 07       		.uleb128 .LVL35-1-.LVL34
 11790 0e45 08       		.uleb128 .LVL35-.LVL34
 11791 0e46 01       		.uleb128 0x1
 11792 0e47 55       		.byte	0x55
 11793 0e48 04       		.byte	0x4
 11794 0e49 0C       		.uleb128 .LVL36-.LVL34
 11795 0e4a 16       		.uleb128 .LVL37-.LVL34
 11796 0e4b 01       		.uleb128 0x1
 11797 0e4c 55       		.byte	0x55
 11798 0e4d 04       		.byte	0x4
 11799 0e4e 16       		.uleb128 .LVL37-.LVL34
ARM GAS  C:\Users\DEVELO~1\AppData\Local\Temp\ccpJqkfg.s 			page 208


 11800 0e4f 24       		.uleb128 .LVL39-.LVL34
 11801 0e50 01       		.uleb128 0x1
 11802 0e51 51       		.byte	0x51
 11803 0e52 04       		.byte	0x4
 11804 0e53 26       		.uleb128 .LVL40-.LVL34
 11805 0e54 2C       		.uleb128 .LFE436-.LVL34
 11806 0e55 01       		.uleb128 0x1
 11807 0e56 51       		.byte	0x51
 11808 0e57 00       		.byte	0
 11809              	.LVUS42:
 11810 0e58 00       		.uleb128 .LVU193
 11811 0e59 00       		.uleb128 .LVU195
 11812 0e5a 00       		.uleb128 .LVU195
 11813 0e5b 00       		.uleb128 .LVU195
 11814 0e5c 02       		.uleb128 .LVU201
 11815 0e5d 00       		.uleb128 .LVU206
 11816 0e5e 00       		.uleb128 .LVU206
 11817 0e5f 00       		.uleb128 .LVU213
 11818 0e60 00       		.uleb128 .LVU213
 11819 0e61 01       		.uleb128 .LVU217
 11820 0e62 00       		.uleb128 .LVU219
 11821 0e63 00       		.uleb128 .LVU220
 11822 0e64 00       		.uleb128 .LVU220
 11823 0e65 00       		.uleb128 0
 11824              	.LLST42:
 11825 0e66 06       		.byte	0x6
 11826 0e67 08000000 		.4byte	.LVL34
 11827 0e6b 04       		.byte	0x4
 11828 0e6c 00       		.uleb128 .LVL34-.LVL34
 11829 0e6d 07       		.uleb128 .LVL35-1-.LVL34
 11830 0e6e 01       		.uleb128 0x1
 11831 0e6f 50       		.byte	0x50
 11832 0e70 04       		.byte	0x4
 11833 0e71 07       		.uleb128 .LVL35-1-.LVL34
 11834 0e72 08       		.uleb128 .LVL35-.LVL34
 11835 0e73 01       		.uleb128 0x1
 11836 0e74 54       		.byte	0x54
 11837 0e75 04       		.byte	0x4
 11838 0e76 0C       		.uleb128 .LVL36-.LVL34
 11839 0e77 16       		.uleb128 .LVL37-.LVL34
 11840 0e78 01       		.uleb128 0x1
 11841 0e79 54       		.byte	0x54
 11842 0e7a 04       		.byte	0x4
 11843 0e7b 16       		.uleb128 .LVL37-.LVL34
 11844 0e7c 1A       		.uleb128 .LVL38-.LVL34
 11845 0e7d 01       		.uleb128 0x1
 11846 0e7e 50       		.byte	0x50
 11847 0e7f 04       		.byte	0x4
 11848 0e80 1A       		.uleb128 .LVL38-.LVL34
 11849 0e81 24       		.uleb128 .LVL39-.LVL34
 11850 0e82 01       		.uleb128 0x1
 11851 0e83 54       		.byte	0x54
 11852 0e84 04       		.byte	0x4
 11853 0e85 26       		.uleb128 .LVL40-.LVL34
 11854 0e86 2A       		.uleb128 .LVL41-.LVL34
 11855 0e87 01       		.uleb128 0x1
 11856 0e88 50       		.byte	0x50
ARM GAS  C:\Users\DEVELO~1\AppData\Local\Temp\ccpJqkfg.s 			page 209


 11857 0e89 04       		.byte	0x4
 11858 0e8a 2A       		.uleb128 .LVL41-.LVL34
 11859 0e8b 2C       		.uleb128 .LFE436-.LVL34
 11860 0e8c 01       		.uleb128 0x1
 11861 0e8d 54       		.byte	0x54
 11862 0e8e 00       		.byte	0
 11863              	.LVUS43:
 11864 0e8f 01       		.uleb128 .LVU207
 11865 0e90 01       		.uleb128 .LVU217
 11866              	.LLST43:
 11867 0e91 08       		.byte	0x8
 11868 0e92 1E000000 		.4byte	.LVL37
 11869 0e96 0E       		.uleb128 .LVL39-.LVL37
 11870 0e97 01       		.uleb128 0x1
 11871 0e98 51       		.byte	0x51
 11872 0e99 00       		.byte	0
 11873              	.LVUS44:
 11874 0e9a 00       		.uleb128 .LVU206
 11875 0e9b 00       		.uleb128 .LVU213
 11876 0e9c 00       		.uleb128 .LVU213
 11877 0e9d 01       		.uleb128 .LVU217
 11878              	.LLST44:
 11879 0e9e 06       		.byte	0x6
 11880 0e9f 1E000000 		.4byte	.LVL37
 11881 0ea3 04       		.byte	0x4
 11882 0ea4 00       		.uleb128 .LVL37-.LVL37
 11883 0ea5 04       		.uleb128 .LVL38-.LVL37
 11884 0ea6 01       		.uleb128 0x1
 11885 0ea7 50       		.byte	0x50
 11886 0ea8 04       		.byte	0x4
 11887 0ea9 04       		.uleb128 .LVL38-.LVL37
 11888 0eaa 0E       		.uleb128 .LVL39-.LVL37
 11889 0eab 01       		.uleb128 0x1
 11890 0eac 54       		.byte	0x54
 11891 0ead 00       		.byte	0
 11892              	.LVUS50:
 11893 0eae 00       		.uleb128 0
 11894 0eaf 00       		.uleb128 .LVU308
 11895 0eb0 00       		.uleb128 .LVU308
 11896 0eb1 00       		.uleb128 .LVU308
 11897 0eb2 00       		.uleb128 .LVU308
 11898 0eb3 00       		.uleb128 0
 11899              	.LLST50:
 11900 0eb4 06       		.byte	0x6
 11901 0eb5 00000000 		.4byte	.LVL46
 11902 0eb9 04       		.byte	0x4
 11903 0eba 00       		.uleb128 .LVL46-.LVL46
 11904 0ebb 23       		.uleb128 .LVL47-1-.LVL46
 11905 0ebc 01       		.uleb128 0x1
 11906 0ebd 50       		.byte	0x50
 11907 0ebe 04       		.byte	0x4
 11908 0ebf 23       		.uleb128 .LVL47-1-.LVL46
 11909 0ec0 24       		.uleb128 .LVL47-.LVL46
 11910 0ec1 04       		.uleb128 0x4
 11911 0ec2 A3       		.byte	0xa3
 11912 0ec3 01       		.uleb128 0x1
 11913 0ec4 50       		.byte	0x50
ARM GAS  C:\Users\DEVELO~1\AppData\Local\Temp\ccpJqkfg.s 			page 210


 11914 0ec5 9F       		.byte	0x9f
 11915 0ec6 04       		.byte	0x4
 11916 0ec7 24       		.uleb128 .LVL47-.LVL46
 11917 0ec8 26       		.uleb128 .LFE438-.LVL46
 11918 0ec9 01       		.uleb128 0x1
 11919 0eca 50       		.byte	0x50
 11920 0ecb 00       		.byte	0
 11921              	.LVUS128:
 11922 0ecc 00       		.uleb128 0
 11923 0ecd 00       		.uleb128 .LVU798
 11924 0ece 00       		.uleb128 .LVU798
 11925 0ecf 00       		.uleb128 .LVU809
 11926 0ed0 00       		.uleb128 .LVU809
 11927 0ed1 00       		.uleb128 .LVU816
 11928 0ed2 00       		.uleb128 .LVU816
 11929 0ed3 00       		.uleb128 .LVU823
 11930 0ed4 00       		.uleb128 .LVU823
 11931 0ed5 00       		.uleb128 .LVU824
 11932 0ed6 00       		.uleb128 .LVU824
 11933 0ed7 00       		.uleb128 0
 11934              	.LLST128:
 11935 0ed8 06       		.byte	0x6
 11936 0ed9 00000000 		.4byte	.LVL126
 11937 0edd 04       		.byte	0x4
 11938 0ede 00       		.uleb128 .LVL126-.LVL126
 11939 0edf 0F       		.uleb128 .LVL128-1-.LVL126
 11940 0ee0 01       		.uleb128 0x1
 11941 0ee1 50       		.byte	0x50
 11942 0ee2 04       		.byte	0x4
 11943 0ee3 0F       		.uleb128 .LVL128-1-.LVL126
 11944 0ee4 1E       		.uleb128 .LVL130-.LVL126
 11945 0ee5 01       		.uleb128 0x1
 11946 0ee6 54       		.byte	0x54
 11947 0ee7 04       		.byte	0x4
 11948 0ee8 1E       		.uleb128 .LVL130-.LVL126
 11949 0ee9 22       		.uleb128 .LVL131-.LVL126
 11950 0eea 01       		.uleb128 0x1
 11951 0eeb 50       		.byte	0x50
 11952 0eec 04       		.byte	0x4
 11953 0eed 22       		.uleb128 .LVL131-.LVL126
 11954 0eee 2E       		.uleb128 .LVL134-.LVL126
 11955 0eef 01       		.uleb128 0x1
 11956 0ef0 54       		.byte	0x54
 11957 0ef1 04       		.byte	0x4
 11958 0ef2 2E       		.uleb128 .LVL134-.LVL126
 11959 0ef3 32       		.uleb128 .LVL135-.LVL126
 11960 0ef4 01       		.uleb128 0x1
 11961 0ef5 50       		.byte	0x50
 11962 0ef6 04       		.byte	0x4
 11963 0ef7 32       		.uleb128 .LVL135-.LVL126
 11964 0ef8 34       		.uleb128 .LFE446-.LVL126
 11965 0ef9 01       		.uleb128 0x1
 11966 0efa 54       		.byte	0x54
 11967 0efb 00       		.byte	0
 11968              	.LVUS129:
 11969 0efc 00       		.uleb128 0
 11970 0efd 00       		.uleb128 .LVU798
ARM GAS  C:\Users\DEVELO~1\AppData\Local\Temp\ccpJqkfg.s 			page 211


 11971 0efe 00       		.uleb128 .LVU798
 11972 0eff 00       		.uleb128 .LVU809
 11973 0f00 00       		.uleb128 .LVU809
 11974 0f01 00       		.uleb128 .LVU817
 11975 0f02 00       		.uleb128 .LVU817
 11976 0f03 00       		.uleb128 .LVU823
 11977 0f04 00       		.uleb128 .LVU823
 11978 0f05 00       		.uleb128 0
 11979              	.LLST129:
 11980 0f06 06       		.byte	0x6
 11981 0f07 00000000 		.4byte	.LVL126
 11982 0f0b 04       		.byte	0x4
 11983 0f0c 00       		.uleb128 .LVL126-.LVL126
 11984 0f0d 0F       		.uleb128 .LVL128-1-.LVL126
 11985 0f0e 01       		.uleb128 0x1
 11986 0f0f 51       		.byte	0x51
 11987 0f10 04       		.byte	0x4
 11988 0f11 0F       		.uleb128 .LVL128-1-.LVL126
 11989 0f12 1E       		.uleb128 .LVL130-.LVL126
 11990 0f13 01       		.uleb128 0x1
 11991 0f14 55       		.byte	0x55
 11992 0f15 04       		.byte	0x4
 11993 0f16 1E       		.uleb128 .LVL130-.LVL126
 11994 0f17 24       		.uleb128 .LVL132-.LVL126
 11995 0f18 01       		.uleb128 0x1
 11996 0f19 51       		.byte	0x51
 11997 0f1a 04       		.byte	0x4
 11998 0f1b 24       		.uleb128 .LVL132-.LVL126
 11999 0f1c 2E       		.uleb128 .LVL134-.LVL126
 12000 0f1d 01       		.uleb128 0x1
 12001 0f1e 55       		.byte	0x55
 12002 0f1f 04       		.byte	0x4
 12003 0f20 2E       		.uleb128 .LVL134-.LVL126
 12004 0f21 34       		.uleb128 .LFE446-.LVL126
 12005 0f22 01       		.uleb128 0x1
 12006 0f23 51       		.byte	0x51
 12007 0f24 00       		.byte	0
 12008              	.LVUS131:
 12009 0f25 00       		.uleb128 .LVU798
 12010 0f26 00       		.uleb128 .LVU802
 12011              	.LLST131:
 12012 0f27 08       		.byte	0x8
 12013 0f28 10000000 		.4byte	.LVL128
 12014 0f2c 04       		.uleb128 .LVL129-.LVL128
 12015 0f2d 01       		.uleb128 0x1
 12016 0f2e 50       		.byte	0x50
 12017 0f2f 00       		.byte	0
 12018              	.LVUS133:
 12019 0f30 00       		.uleb128 .LVU796
 12020 0f31 00       		.uleb128 .LVU798
 12021 0f32 00       		.uleb128 .LVU798
 12022 0f33 00       		.uleb128 .LVU798
 12023 0f34 02       		.uleb128 .LVU804
 12024 0f35 00       		.uleb128 .LVU809
 12025 0f36 00       		.uleb128 .LVU809
 12026 0f37 00       		.uleb128 .LVU817
 12027 0f38 00       		.uleb128 .LVU817
ARM GAS  C:\Users\DEVELO~1\AppData\Local\Temp\ccpJqkfg.s 			page 212


 12028 0f39 01       		.uleb128 .LVU821
 12029 0f3a 00       		.uleb128 .LVU823
 12030 0f3b 00       		.uleb128 0
 12031              	.LLST133:
 12032 0f3c 06       		.byte	0x6
 12033 0f3d 08000000 		.4byte	.LVL127
 12034 0f41 04       		.byte	0x4
 12035 0f42 00       		.uleb128 .LVL127-.LVL127
 12036 0f43 07       		.uleb128 .LVL128-1-.LVL127
 12037 0f44 01       		.uleb128 0x1
 12038 0f45 51       		.byte	0x51
 12039 0f46 04       		.byte	0x4
 12040 0f47 07       		.uleb128 .LVL128-1-.LVL127
 12041 0f48 08       		.uleb128 .LVL128-.LVL127
 12042 0f49 01       		.uleb128 0x1
 12043 0f4a 55       		.byte	0x55
 12044 0f4b 04       		.byte	0x4
 12045 0f4c 0C       		.uleb128 .LVL129-.LVL127
 12046 0f4d 16       		.uleb128 .LVL130-.LVL127
 12047 0f4e 01       		.uleb128 0x1
 12048 0f4f 55       		.byte	0x55
 12049 0f50 04       		.byte	0x4
 12050 0f51 16       		.uleb128 .LVL130-.LVL127
 12051 0f52 1C       		.uleb128 .LVL132-.LVL127
 12052 0f53 01       		.uleb128 0x1
 12053 0f54 51       		.byte	0x51
 12054 0f55 04       		.byte	0x4
 12055 0f56 1C       		.uleb128 .LVL132-.LVL127
 12056 0f57 24       		.uleb128 .LVL133-.LVL127
 12057 0f58 01       		.uleb128 0x1
 12058 0f59 55       		.byte	0x55
 12059 0f5a 04       		.byte	0x4
 12060 0f5b 26       		.uleb128 .LVL134-.LVL127
 12061 0f5c 2C       		.uleb128 .LFE446-.LVL127
 12062 0f5d 01       		.uleb128 0x1
 12063 0f5e 51       		.byte	0x51
 12064 0f5f 00       		.byte	0
 12065              	.LVUS134:
 12066 0f60 00       		.uleb128 .LVU796
 12067 0f61 00       		.uleb128 .LVU798
 12068 0f62 00       		.uleb128 .LVU798
 12069 0f63 00       		.uleb128 .LVU798
 12070 0f64 02       		.uleb128 .LVU804
 12071 0f65 00       		.uleb128 .LVU809
 12072 0f66 00       		.uleb128 .LVU809
 12073 0f67 00       		.uleb128 .LVU816
 12074 0f68 00       		.uleb128 .LVU816
 12075 0f69 01       		.uleb128 .LVU821
 12076 0f6a 00       		.uleb128 .LVU823
 12077 0f6b 00       		.uleb128 .LVU824
 12078 0f6c 00       		.uleb128 .LVU824
 12079 0f6d 00       		.uleb128 0
 12080              	.LLST134:
 12081 0f6e 06       		.byte	0x6
 12082 0f6f 08000000 		.4byte	.LVL127
 12083 0f73 04       		.byte	0x4
 12084 0f74 00       		.uleb128 .LVL127-.LVL127
ARM GAS  C:\Users\DEVELO~1\AppData\Local\Temp\ccpJqkfg.s 			page 213


 12085 0f75 07       		.uleb128 .LVL128-1-.LVL127
 12086 0f76 01       		.uleb128 0x1
 12087 0f77 50       		.byte	0x50
 12088 0f78 04       		.byte	0x4
 12089 0f79 07       		.uleb128 .LVL128-1-.LVL127
 12090 0f7a 08       		.uleb128 .LVL128-.LVL127
 12091 0f7b 01       		.uleb128 0x1
 12092 0f7c 54       		.byte	0x54
 12093 0f7d 04       		.byte	0x4
 12094 0f7e 0C       		.uleb128 .LVL129-.LVL127
 12095 0f7f 16       		.uleb128 .LVL130-.LVL127
 12096 0f80 01       		.uleb128 0x1
 12097 0f81 54       		.byte	0x54
 12098 0f82 04       		.byte	0x4
 12099 0f83 16       		.uleb128 .LVL130-.LVL127
 12100 0f84 1A       		.uleb128 .LVL131-.LVL127
 12101 0f85 01       		.uleb128 0x1
 12102 0f86 50       		.byte	0x50
 12103 0f87 04       		.byte	0x4
 12104 0f88 1A       		.uleb128 .LVL131-.LVL127
 12105 0f89 24       		.uleb128 .LVL133-.LVL127
 12106 0f8a 01       		.uleb128 0x1
 12107 0f8b 54       		.byte	0x54
 12108 0f8c 04       		.byte	0x4
 12109 0f8d 26       		.uleb128 .LVL134-.LVL127
 12110 0f8e 2A       		.uleb128 .LVL135-.LVL127
 12111 0f8f 01       		.uleb128 0x1
 12112 0f90 50       		.byte	0x50
 12113 0f91 04       		.byte	0x4
 12114 0f92 2A       		.uleb128 .LVL135-.LVL127
 12115 0f93 2C       		.uleb128 .LFE446-.LVL127
 12116 0f94 01       		.uleb128 0x1
 12117 0f95 54       		.byte	0x54
 12118 0f96 00       		.byte	0
 12119              	.LVUS135:
 12120 0f97 01       		.uleb128 .LVU810
 12121 0f98 00       		.uleb128 .LVU817
 12122 0f99 00       		.uleb128 .LVU817
 12123 0f9a 01       		.uleb128 .LVU821
 12124              	.LLST135:
 12125 0f9b 06       		.byte	0x6
 12126 0f9c 1E000000 		.4byte	.LVL130
 12127 0fa0 04       		.byte	0x4
 12128 0fa1 00       		.uleb128 .LVL130-.LVL130
 12129 0fa2 06       		.uleb128 .LVL132-.LVL130
 12130 0fa3 01       		.uleb128 0x1
 12131 0fa4 51       		.byte	0x51
 12132 0fa5 04       		.byte	0x4
 12133 0fa6 06       		.uleb128 .LVL132-.LVL130
 12134 0fa7 0E       		.uleb128 .LVL133-.LVL130
 12135 0fa8 01       		.uleb128 0x1
 12136 0fa9 55       		.byte	0x55
 12137 0faa 00       		.byte	0
 12138              	.LVUS136:
 12139 0fab 00       		.uleb128 .LVU809
 12140 0fac 00       		.uleb128 .LVU816
 12141 0fad 00       		.uleb128 .LVU816
ARM GAS  C:\Users\DEVELO~1\AppData\Local\Temp\ccpJqkfg.s 			page 214


 12142 0fae 01       		.uleb128 .LVU821
 12143              	.LLST136:
 12144 0faf 06       		.byte	0x6
 12145 0fb0 1E000000 		.4byte	.LVL130
 12146 0fb4 04       		.byte	0x4
 12147 0fb5 00       		.uleb128 .LVL130-.LVL130
 12148 0fb6 04       		.uleb128 .LVL131-.LVL130
 12149 0fb7 01       		.uleb128 0x1
 12150 0fb8 50       		.byte	0x50
 12151 0fb9 04       		.byte	0x4
 12152 0fba 04       		.uleb128 .LVL131-.LVL130
 12153 0fbb 0E       		.uleb128 .LVL133-.LVL130
 12154 0fbc 01       		.uleb128 0x1
 12155 0fbd 54       		.byte	0x54
 12156 0fbe 00       		.byte	0
 12157              	.LVUS144:
 12158 0fbf 00       		.uleb128 0
 12159 0fc0 00       		.uleb128 .LVU927
 12160 0fc1 00       		.uleb128 .LVU927
 12161 0fc2 00       		.uleb128 .LVU927
 12162 0fc3 00       		.uleb128 .LVU927
 12163 0fc4 00       		.uleb128 0
 12164              	.LLST144:
 12165 0fc5 06       		.byte	0x6
 12166 0fc6 00000000 		.4byte	.LVL143
 12167 0fca 04       		.byte	0x4
 12168 0fcb 00       		.uleb128 .LVL143-.LVL143
 12169 0fcc 27       		.uleb128 .LVL147-1-.LVL143
 12170 0fcd 01       		.uleb128 0x1
 12171 0fce 50       		.byte	0x50
 12172 0fcf 04       		.byte	0x4
 12173 0fd0 27       		.uleb128 .LVL147-1-.LVL143
 12174 0fd1 28       		.uleb128 .LVL147-.LVL143
 12175 0fd2 04       		.uleb128 0x4
 12176 0fd3 A3       		.byte	0xa3
 12177 0fd4 01       		.uleb128 0x1
 12178 0fd5 50       		.byte	0x50
 12179 0fd6 9F       		.byte	0x9f
 12180 0fd7 04       		.byte	0x4
 12181 0fd8 28       		.uleb128 .LVL147-.LVL143
 12182 0fd9 2C       		.uleb128 .LFE448-.LVL143
 12183 0fda 01       		.uleb128 0x1
 12184 0fdb 50       		.byte	0x50
 12185 0fdc 00       		.byte	0
 12186              	.LVUS145:
 12187 0fdd 00       		.uleb128 0
 12188 0fde 00       		.uleb128 .LVU907
 12189 0fdf 00       		.uleb128 .LVU907
 12190 0fe0 00       		.uleb128 .LVU909
 12191 0fe1 00       		.uleb128 .LVU909
 12192 0fe2 00       		.uleb128 .LVU912
 12193 0fe3 00       		.uleb128 .LVU912
 12194 0fe4 00       		.uleb128 0
 12195              	.LLST145:
 12196 0fe5 06       		.byte	0x6
 12197 0fe6 00000000 		.4byte	.LVL143
 12198 0fea 04       		.byte	0x4
ARM GAS  C:\Users\DEVELO~1\AppData\Local\Temp\ccpJqkfg.s 			page 215


 12199 0feb 00       		.uleb128 .LVL143-.LVL143
 12200 0fec 0A       		.uleb128 .LVL144-.LVL143
 12201 0fed 01       		.uleb128 0x1
 12202 0fee 51       		.byte	0x51
 12203 0fef 04       		.byte	0x4
 12204 0ff0 0A       		.uleb128 .LVL144-.LVL143
 12205 0ff1 0E       		.uleb128 .LVL145-.LVL143
 12206 0ff2 02       		.uleb128 0x2
 12207 0ff3 73       		.byte	0x73
 12208 0ff4 00       		.sleb128 0
 12209 0ff5 04       		.byte	0x4
 12210 0ff6 0E       		.uleb128 .LVL145-.LVL143
 12211 0ff7 14       		.uleb128 .LVL146-.LVL143
 12212 0ff8 03       		.uleb128 0x3
 12213 0ff9 70       		.byte	0x70
 12214 0ffa 10       		.sleb128 16
 12215 0ffb 06       		.byte	0x6
 12216 0ffc 04       		.byte	0x4
 12217 0ffd 14       		.uleb128 .LVL146-.LVL143
 12218 0ffe 2C       		.uleb128 .LFE448-.LVL143
 12219 0fff 04       		.uleb128 0x4
 12220 1000 A3       		.byte	0xa3
 12221 1001 01       		.uleb128 0x1
 12222 1002 51       		.byte	0x51
 12223 1003 9F       		.byte	0x9f
 12224 1004 00       		.byte	0
 12225              	.Ldebug_loc3:
 12226              		.section	.debug_aranges,"",%progbits
 12227 0000 C4000000 		.4byte	0xc4
 12228 0004 0200     		.2byte	0x2
 12229 0006 00000000 		.4byte	.Ldebug_info0
 12230 000a 04       		.byte	0x4
 12231 000b 00       		.byte	0
 12232 000c 0000     		.2byte	0
 12233 000e 0000     		.2byte	0
 12234 0010 00000000 		.4byte	.LFB431
 12235 0014 30000000 		.4byte	.LFE431-.LFB431
 12236 0018 00000000 		.4byte	.LFB432
 12237 001c 1A000000 		.4byte	.LFE432-.LFB432
 12238 0020 00000000 		.4byte	.LFB433
 12239 0024 16000000 		.4byte	.LFE433-.LFB433
 12240 0028 00000000 		.4byte	.LFB434
 12241 002c 24000000 		.4byte	.LFE434-.LFB434
 12242 0030 00000000 		.4byte	.LFB435
 12243 0034 46000000 		.4byte	.LFE435-.LFB435
 12244 0038 00000000 		.4byte	.LFB436
 12245 003c 34000000 		.4byte	.LFE436-.LFB436
 12246 0040 00000000 		.4byte	.LFB437
 12247 0044 34000000 		.4byte	.LFE437-.LFB437
 12248 0048 00000000 		.4byte	.LFB438
 12249 004c 26000000 		.4byte	.LFE438-.LFB438
 12250 0050 00000000 		.4byte	.LFB439
 12251 0054 84000000 		.4byte	.LFE439-.LFB439
 12252 0058 00000000 		.4byte	.LFB440
 12253 005c 12010000 		.4byte	.LFE440-.LFB440
 12254 0060 00000000 		.4byte	.LFB441
 12255 0064 30000000 		.4byte	.LFE441-.LFB441
ARM GAS  C:\Users\DEVELO~1\AppData\Local\Temp\ccpJqkfg.s 			page 216


 12256 0068 00000000 		.4byte	.LFB442
 12257 006c 1E000000 		.4byte	.LFE442-.LFB442
 12258 0070 00000000 		.4byte	.LFB443
 12259 0074 1C000000 		.4byte	.LFE443-.LFB443
 12260 0078 00000000 		.4byte	.LFB444
 12261 007c 20000000 		.4byte	.LFE444-.LFB444
 12262 0080 00000000 		.4byte	.LFB445
 12263 0084 46000000 		.4byte	.LFE445-.LFB445
 12264 0088 00000000 		.4byte	.LFB446
 12265 008c 34000000 		.4byte	.LFE446-.LFB446
 12266 0090 00000000 		.4byte	.LFB447
 12267 0094 34000000 		.4byte	.LFE447-.LFB447
 12268 0098 00000000 		.4byte	.LFB448
 12269 009c 2C000000 		.4byte	.LFE448-.LFB448
 12270 00a0 00000000 		.4byte	.LFB449
 12271 00a4 8A000000 		.4byte	.LFE449-.LFB449
 12272 00a8 00000000 		.4byte	.LFB450
 12273 00ac 1E010000 		.4byte	.LFE450-.LFB450
 12274 00b0 00000000 		.4byte	.LFB451
 12275 00b4 42000000 		.4byte	.LFE451-.LFB451
 12276 00b8 00000000 		.4byte	.LFB452
 12277 00bc 4A000000 		.4byte	.LFE452-.LFB452
 12278 00c0 00000000 		.4byte	0
 12279 00c4 00000000 		.4byte	0
 12280              		.section	.debug_rnglists,"",%progbits
 12281              	.Ldebug_ranges0:
 12282 0000 7E030000 		.4byte	.Ldebug_ranges3-.Ldebug_ranges2
 12283              	.Ldebug_ranges2:
 12284 0004 0500     		.2byte	0x5
 12285 0006 04       		.byte	0x4
 12286 0007 00       		.byte	0
 12287 0008 00000000 		.4byte	0
 12288              	.LLRL6:
 12289 000c 05       		.byte	0x5
 12290 000d 06000000 		.4byte	.LBB224
 12291 0011 04       		.byte	0x4
 12292 0012 00       		.uleb128 .LBB224-.LBB224
 12293 0013 00       		.uleb128 .LBE224-.LBB224
 12294 0014 04       		.byte	0x4
 12295 0015 1E       		.uleb128 .LBB233-.LBB224
 12296 0016 22       		.uleb128 .LBE233-.LBB224
 12297 0017 00       		.byte	0
 12298              	.LLRL9:
 12299 0018 05       		.byte	0x5
 12300 0019 06000000 		.4byte	.LBB227
 12301 001d 04       		.byte	0x4
 12302 001e 00       		.uleb128 .LBB227-.LBB227
 12303 001f 00       		.uleb128 .LBE227-.LBB227
 12304 0020 04       		.byte	0x4
 12305 0021 1E       		.uleb128 .LBB230-.LBB227
 12306 0022 22       		.uleb128 .LBE230-.LBB227
 12307 0023 00       		.byte	0
 12308              	.LLRL12:
 12309 0024 05       		.byte	0x5
 12310 0025 02000000 		.4byte	.LBB234
 12311 0029 04       		.byte	0x4
 12312 002a 00       		.uleb128 .LBB234-.LBB234
ARM GAS  C:\Users\DEVELO~1\AppData\Local\Temp\ccpJqkfg.s 			page 217


 12313 002b 04       		.uleb128 .LBE234-.LBB234
 12314 002c 04       		.byte	0x4
 12315 002d 0E       		.uleb128 .LBB238-.LBB234
 12316 002e 0E       		.uleb128 .LBE238-.LBB234
 12317 002f 04       		.byte	0x4
 12318 0030 14       		.uleb128 .LBB239-.LBB234
 12319 0031 18       		.uleb128 .LBE239-.LBB234
 12320 0032 00       		.byte	0
 12321              	.LLRL17:
 12322 0033 05       		.byte	0x5
 12323 0034 1C000000 		.4byte	.LBB240
 12324 0038 04       		.byte	0x4
 12325 0039 00       		.uleb128 .LBB240-.LBB240
 12326 003a 02       		.uleb128 .LBE240-.LBB240
 12327 003b 04       		.byte	0x4
 12328 003c 04       		.uleb128 .LBB243-.LBB240
 12329 003d 08       		.uleb128 .LBE243-.LBB240
 12330 003e 00       		.byte	0
 12331              	.LLRL22:
 12332 003f 05       		.byte	0x5
 12333 0040 02000000 		.4byte	.LBB265
 12334 0044 04       		.byte	0x4
 12335 0045 00       		.uleb128 .LBB265-.LBB265
 12336 0046 02       		.uleb128 .LBE265-.LBB265
 12337 0047 04       		.byte	0x4
 12338 0048 04       		.uleb128 .LBB278-.LBB265
 12339 0049 04       		.uleb128 .LBE278-.LBB265
 12340 004a 04       		.byte	0x4
 12341 004b 06       		.uleb128 .LBB279-.LBB265
 12342 004c 0A       		.uleb128 .LBE279-.LBB265
 12343 004d 00       		.byte	0
 12344              	.LLRL24:
 12345 004e 05       		.byte	0x5
 12346 004f 0C000000 		.4byte	.LBB280
 12347 0053 04       		.byte	0x4
 12348 0054 00       		.uleb128 .LBB280-.LBB280
 12349 0055 26       		.uleb128 .LBE280-.LBB280
 12350 0056 04       		.byte	0x4
 12351 0057 2E       		.uleb128 .LBB305-.LBB280
 12352 0058 32       		.uleb128 .LBE305-.LBB280
 12353 0059 00       		.byte	0
 12354              	.LLRL27:
 12355 005a 05       		.byte	0x5
 12356 005b 0E000000 		.4byte	.LBB282
 12357 005f 04       		.byte	0x4
 12358 0060 00       		.uleb128 .LBB282-.LBB282
 12359 0061 0C       		.uleb128 .LBE282-.LBB282
 12360 0062 04       		.byte	0x4
 12361 0063 0E       		.uleb128 .LBB289-.LBB282
 12362 0064 12       		.uleb128 .LBE289-.LBB282
 12363 0065 04       		.byte	0x4
 12364 0066 2C       		.uleb128 .LBB292-.LBB282
 12365 0067 30       		.uleb128 .LBE292-.LBB282
 12366 0068 00       		.byte	0
 12367              	.LLRL29:
 12368 0069 05       		.byte	0x5
 12369 006a 12000000 		.4byte	.LBB283
ARM GAS  C:\Users\DEVELO~1\AppData\Local\Temp\ccpJqkfg.s 			page 218


 12370 006e 04       		.byte	0x4
 12371 006f 00       		.uleb128 .LBB283-.LBB283
 12372 0070 04       		.uleb128 .LBE283-.LBB283
 12373 0071 04       		.byte	0x4
 12374 0072 08       		.uleb128 .LBB287-.LBB283
 12375 0073 08       		.uleb128 .LBE287-.LBB283
 12376 0074 04       		.byte	0x4
 12377 0075 0A       		.uleb128 .LBB288-.LBB283
 12378 0076 0E       		.uleb128 .LBE288-.LBB283
 12379 0077 00       		.byte	0
 12380              	.LLRL34:
 12381 0078 05       		.byte	0x5
 12382 0079 32000000 		.4byte	.LBB294
 12383 007d 04       		.byte	0x4
 12384 007e 00       		.uleb128 .LBB294-.LBB294
 12385 007f 06       		.uleb128 .LBE294-.LBB294
 12386 0080 04       		.byte	0x4
 12387 0081 0C       		.uleb128 .LBB306-.LBB294
 12388 0082 12       		.uleb128 .LBE306-.LBB294
 12389 0083 00       		.byte	0
 12390              	.LLRL38:
 12391 0084 05       		.byte	0x5
 12392 0085 08000000 		.4byte	.LBB318
 12393 0089 04       		.byte	0x4
 12394 008a 00       		.uleb128 .LBB318-.LBB318
 12395 008b 0C       		.uleb128 .LBE318-.LBB318
 12396 008c 04       		.byte	0x4
 12397 008d 0E       		.uleb128 .LBB325-.LBB318
 12398 008e 12       		.uleb128 .LBE325-.LBB318
 12399 008f 04       		.byte	0x4
 12400 0090 26       		.uleb128 .LBB328-.LBB318
 12401 0091 2A       		.uleb128 .LBE328-.LBB318
 12402 0092 00       		.byte	0
 12403              	.LLRL40:
 12404 0093 05       		.byte	0x5
 12405 0094 0C000000 		.4byte	.LBB319
 12406 0098 04       		.byte	0x4
 12407 0099 00       		.uleb128 .LBB319-.LBB319
 12408 009a 04       		.uleb128 .LBE319-.LBB319
 12409 009b 04       		.byte	0x4
 12410 009c 08       		.uleb128 .LBB323-.LBB319
 12411 009d 08       		.uleb128 .LBE323-.LBB319
 12412 009e 04       		.byte	0x4
 12413 009f 0A       		.uleb128 .LBB324-.LBB319
 12414 00a0 0E       		.uleb128 .LBE324-.LBB319
 12415 00a1 00       		.byte	0
 12416              	.LLRL46:
 12417 00a2 05       		.byte	0x5
 12418 00a3 00000000 		.4byte	.LBB342
 12419 00a7 04       		.byte	0x4
 12420 00a8 00       		.uleb128 .LBB342-.LBB342
 12421 00a9 00       		.uleb128 .LBE342-.LBB342
 12422 00aa 04       		.byte	0x4
 12423 00ab 02       		.uleb128 .LBB351-.LBB342
 12424 00ac 08       		.uleb128 .LBE351-.LBB342
 12425 00ad 00       		.byte	0
 12426              	.LLRL54:
ARM GAS  C:\Users\DEVELO~1\AppData\Local\Temp\ccpJqkfg.s 			page 219


 12427 00ae 05       		.byte	0x5
 12428 00af 02000000 		.4byte	.LBB389
 12429 00b3 04       		.byte	0x4
 12430 00b4 00       		.uleb128 .LBB389-.LBB389
 12431 00b5 02       		.uleb128 .LBE389-.LBB389
 12432 00b6 04       		.byte	0x4
 12433 00b7 04       		.uleb128 .LBB398-.LBB389
 12434 00b8 08       		.uleb128 .LBE398-.LBB389
 12435 00b9 00       		.byte	0
 12436              	.LLRL56:
 12437 00ba 05       		.byte	0x5
 12438 00bb 1A000000 		.4byte	.LBB399
 12439 00bf 04       		.byte	0x4
 12440 00c0 00       		.uleb128 .LBB399-.LBB399
 12441 00c1 06       		.uleb128 .LBE399-.LBB399
 12442 00c2 04       		.byte	0x4
 12443 00c3 2C       		.uleb128 .LBB419-.LBB399
 12444 00c4 32       		.uleb128 .LBE419-.LBB399
 12445 00c5 00       		.byte	0
 12446              	.LLRL58:
 12447 00c6 05       		.byte	0x5
 12448 00c7 24000000 		.4byte	.LBB410
 12449 00cb 04       		.byte	0x4
 12450 00cc 00       		.uleb128 .LBB410-.LBB410
 12451 00cd 22       		.uleb128 .LBE410-.LBB410
 12452 00ce 04       		.byte	0x4
 12453 00cf 2C       		.uleb128 .LBB420-.LBB410
 12454 00d0 36       		.uleb128 .LBE420-.LBB410
 12455 00d1 00       		.byte	0
 12456              	.LLRL61:
 12457 00d2 05       		.byte	0x5
 12458 00d3 5A000000 		.4byte	.LBB421
 12459 00d7 04       		.byte	0x4
 12460 00d8 00       		.uleb128 .LBB421-.LBB421
 12461 00d9 22       		.uleb128 .LBE421-.LBB421
 12462 00da 04       		.byte	0x4
 12463 00db 24       		.uleb128 .LBB435-.LBB421
 12464 00dc 2A       		.uleb128 .LBE435-.LBB421
 12465 00dd 00       		.byte	0
 12466              	.LLRL62:
 12467 00de 05       		.byte	0x5
 12468 00df 5A000000 		.4byte	.LBB423
 12469 00e3 04       		.byte	0x4
 12470 00e4 00       		.uleb128 .LBB423-.LBB423
 12471 00e5 0C       		.uleb128 .LBE423-.LBB423
 12472 00e6 04       		.byte	0x4
 12473 00e7 0E       		.uleb128 .LBB430-.LBB423
 12474 00e8 12       		.uleb128 .LBE430-.LBB423
 12475 00e9 04       		.byte	0x4
 12476 00ea 24       		.uleb128 .LBB433-.LBB423
 12477 00eb 2A       		.uleb128 .LBE433-.LBB423
 12478 00ec 00       		.byte	0
 12479              	.LLRL64:
 12480 00ed 05       		.byte	0x5
 12481 00ee 5E000000 		.4byte	.LBB424
 12482 00f2 04       		.byte	0x4
 12483 00f3 00       		.uleb128 .LBB424-.LBB424
ARM GAS  C:\Users\DEVELO~1\AppData\Local\Temp\ccpJqkfg.s 			page 220


 12484 00f4 04       		.uleb128 .LBE424-.LBB424
 12485 00f5 04       		.byte	0x4
 12486 00f6 08       		.uleb128 .LBB428-.LBB424
 12487 00f7 08       		.uleb128 .LBE428-.LBB424
 12488 00f8 04       		.byte	0x4
 12489 00f9 0A       		.uleb128 .LBB429-.LBB424
 12490 00fa 0E       		.uleb128 .LBE429-.LBB424
 12491 00fb 00       		.byte	0
 12492              	.LLRL74:
 12493 00fc 05       		.byte	0x5
 12494 00fd 00000000 		.4byte	.LBB474
 12495 0101 04       		.byte	0x4
 12496 0102 00       		.uleb128 .LBB474-.LBB474
 12497 0103 00       		.uleb128 .LBE474-.LBB474
 12498 0104 04       		.byte	0x4
 12499 0105 0C       		.uleb128 .LBB485-.LBB474
 12500 0106 14       		.uleb128 .LBE485-.LBB474
 12501 0107 00       		.byte	0
 12502              	.LLRL75:
 12503 0108 05       		.byte	0x5
 12504 0109 00000000 		.4byte	.LBB476
 12505 010d 04       		.byte	0x4
 12506 010e 00       		.uleb128 .LBB476-.LBB476
 12507 010f 00       		.uleb128 .LBE476-.LBB476
 12508 0110 04       		.byte	0x4
 12509 0111 0C       		.uleb128 .LBB483-.LBB476
 12510 0112 14       		.uleb128 .LBE483-.LBB476
 12511 0113 00       		.byte	0
 12512              	.LLRL76:
 12513 0114 05       		.byte	0x5
 12514 0115 00000000 		.4byte	.LBB477
 12515 0119 04       		.byte	0x4
 12516 011a 00       		.uleb128 .LBB477-.LBB477
 12517 011b 00       		.uleb128 .LBE477-.LBB477
 12518 011c 04       		.byte	0x4
 12519 011d 0C       		.uleb128 .LBB482-.LBB477
 12520 011e 14       		.uleb128 .LBE482-.LBB477
 12521 011f 00       		.byte	0
 12522              	.LLRL77:
 12523 0120 05       		.byte	0x5
 12524 0121 00000000 		.4byte	.LBB478
 12525 0125 04       		.byte	0x4
 12526 0126 00       		.uleb128 .LBB478-.LBB478
 12527 0127 00       		.uleb128 .LBE478-.LBB478
 12528 0128 04       		.byte	0x4
 12529 0129 0C       		.uleb128 .LBB481-.LBB478
 12530 012a 14       		.uleb128 .LBE481-.LBB478
 12531 012b 00       		.byte	0
 12532              	.LLRL79:
 12533 012c 05       		.byte	0x5
 12534 012d 16000000 		.4byte	.LBB486
 12535 0131 04       		.byte	0x4
 12536 0132 00       		.uleb128 .LBB486-.LBB486
 12537 0133 02       		.uleb128 .LBE486-.LBB486
 12538 0134 04       		.byte	0x4
 12539 0135 02       		.uleb128 .LBB523-.LBB486
 12540 0136 F601     		.uleb128 .LBE523-.LBB486
ARM GAS  C:\Users\DEVELO~1\AppData\Local\Temp\ccpJqkfg.s 			page 221


 12541 0138 00       		.byte	0
 12542              	.LLRL81:
 12543 0139 05       		.byte	0x5
 12544 013a 16000000 		.4byte	.LBB487
 12545 013e 04       		.byte	0x4
 12546 013f 00       		.uleb128 .LBB487-.LBB487
 12547 0140 02       		.uleb128 .LBE487-.LBB487
 12548 0141 04       		.byte	0x4
 12549 0142 BA01     		.uleb128 .LBB521-.LBB487
 12550 0144 F001     		.uleb128 .LBE521-.LBB487
 12551 0146 00       		.byte	0
 12552              	.LLRL85:
 12553 0147 05       		.byte	0x5
 12554 0148 86000000 		.4byte	.LBB502
 12555 014c 04       		.byte	0x4
 12556 014d 00       		.uleb128 .LBB502-.LBB502
 12557 014e 2C       		.uleb128 .LBE502-.LBB502
 12558 014f 04       		.byte	0x4
 12559 0150 8001     		.uleb128 .LBB522-.LBB502
 12560 0152 8601     		.uleb128 .LBE522-.LBB502
 12561 0154 00       		.byte	0
 12562              	.LLRL87:
 12563 0155 05       		.byte	0x5
 12564 0156 86000000 		.4byte	.LBB505
 12565 015a 04       		.byte	0x4
 12566 015b 00       		.uleb128 .LBB505-.LBB505
 12567 015c 10       		.uleb128 .LBE505-.LBB505
 12568 015d 04       		.byte	0x4
 12569 015e 14       		.uleb128 .LBB512-.LBB505
 12570 015f 18       		.uleb128 .LBE512-.LBB505
 12571 0160 00       		.byte	0
 12572              	.LLRL89:
 12573 0161 05       		.byte	0x5
 12574 0162 8E000000 		.4byte	.LBB506
 12575 0166 04       		.byte	0x4
 12576 0167 00       		.uleb128 .LBB506-.LBB506
 12577 0168 04       		.uleb128 .LBE506-.LBB506
 12578 0169 04       		.byte	0x4
 12579 016a 08       		.uleb128 .LBB510-.LBB506
 12580 016b 08       		.uleb128 .LBE510-.LBB506
 12581 016c 04       		.byte	0x4
 12582 016d 0C       		.uleb128 .LBB511-.LBB506
 12583 016e 10       		.uleb128 .LBE511-.LBB506
 12584 016f 00       		.byte	0
 12585              	.LLRL100:
 12586 0170 05       		.byte	0x5
 12587 0171 06000000 		.4byte	.LBB524
 12588 0175 04       		.byte	0x4
 12589 0176 00       		.uleb128 .LBB524-.LBB524
 12590 0177 00       		.uleb128 .LBE524-.LBB524
 12591 0178 04       		.byte	0x4
 12592 0179 1C       		.uleb128 .LBB533-.LBB524
 12593 017a 20       		.uleb128 .LBE533-.LBB524
 12594 017b 00       		.byte	0
 12595              	.LLRL103:
 12596 017c 05       		.byte	0x5
 12597 017d 06000000 		.4byte	.LBB527
ARM GAS  C:\Users\DEVELO~1\AppData\Local\Temp\ccpJqkfg.s 			page 222


 12598 0181 04       		.byte	0x4
 12599 0182 00       		.uleb128 .LBB527-.LBB527
 12600 0183 00       		.uleb128 .LBE527-.LBB527
 12601 0184 04       		.byte	0x4
 12602 0185 1C       		.uleb128 .LBB530-.LBB527
 12603 0186 20       		.uleb128 .LBE530-.LBB527
 12604 0187 00       		.byte	0
 12605              	.LLRL106:
 12606 0188 05       		.byte	0x5
 12607 0189 04000000 		.4byte	.LBB534
 12608 018d 04       		.byte	0x4
 12609 018e 00       		.uleb128 .LBB534-.LBB534
 12610 018f 04       		.uleb128 .LBE534-.LBB534
 12611 0190 04       		.byte	0x4
 12612 0191 14       		.uleb128 .LBB538-.LBB534
 12613 0192 14       		.uleb128 .LBE538-.LBB534
 12614 0193 04       		.byte	0x4
 12615 0194 16       		.uleb128 .LBB539-.LBB534
 12616 0195 1A       		.uleb128 .LBE539-.LBB534
 12617 0196 00       		.byte	0
 12618              	.LLRL114:
 12619 0197 05       		.byte	0x5
 12620 0198 02000000 		.4byte	.LBB563
 12621 019c 04       		.byte	0x4
 12622 019d 00       		.uleb128 .LBB563-.LBB563
 12623 019e 02       		.uleb128 .LBE563-.LBB563
 12624 019f 04       		.byte	0x4
 12625 01a0 04       		.uleb128 .LBB576-.LBB563
 12626 01a1 04       		.uleb128 .LBE576-.LBB563
 12627 01a2 04       		.byte	0x4
 12628 01a3 06       		.uleb128 .LBB577-.LBB563
 12629 01a4 0A       		.uleb128 .LBE577-.LBB563
 12630 01a5 00       		.byte	0
 12631              	.LLRL116:
 12632 01a6 05       		.byte	0x5
 12633 01a7 0C000000 		.4byte	.LBB578
 12634 01ab 04       		.byte	0x4
 12635 01ac 00       		.uleb128 .LBB578-.LBB578
 12636 01ad 26       		.uleb128 .LBE578-.LBB578
 12637 01ae 04       		.byte	0x4
 12638 01af 2E       		.uleb128 .LBB603-.LBB578
 12639 01b0 32       		.uleb128 .LBE603-.LBB578
 12640 01b1 00       		.byte	0
 12641              	.LLRL119:
 12642 01b2 05       		.byte	0x5
 12643 01b3 0E000000 		.4byte	.LBB580
 12644 01b7 04       		.byte	0x4
 12645 01b8 00       		.uleb128 .LBB580-.LBB580
 12646 01b9 0C       		.uleb128 .LBE580-.LBB580
 12647 01ba 04       		.byte	0x4
 12648 01bb 0E       		.uleb128 .LBB587-.LBB580
 12649 01bc 12       		.uleb128 .LBE587-.LBB580
 12650 01bd 04       		.byte	0x4
 12651 01be 2C       		.uleb128 .LBB590-.LBB580
 12652 01bf 30       		.uleb128 .LBE590-.LBB580
 12653 01c0 00       		.byte	0
 12654              	.LLRL121:
ARM GAS  C:\Users\DEVELO~1\AppData\Local\Temp\ccpJqkfg.s 			page 223


 12655 01c1 05       		.byte	0x5
 12656 01c2 12000000 		.4byte	.LBB581
 12657 01c6 04       		.byte	0x4
 12658 01c7 00       		.uleb128 .LBB581-.LBB581
 12659 01c8 04       		.uleb128 .LBE581-.LBB581
 12660 01c9 04       		.byte	0x4
 12661 01ca 08       		.uleb128 .LBB585-.LBB581
 12662 01cb 08       		.uleb128 .LBE585-.LBB581
 12663 01cc 04       		.byte	0x4
 12664 01cd 0A       		.uleb128 .LBB586-.LBB581
 12665 01ce 0E       		.uleb128 .LBE586-.LBB581
 12666 01cf 00       		.byte	0
 12667              	.LLRL126:
 12668 01d0 05       		.byte	0x5
 12669 01d1 32000000 		.4byte	.LBB592
 12670 01d5 04       		.byte	0x4
 12671 01d6 00       		.uleb128 .LBB592-.LBB592
 12672 01d7 06       		.uleb128 .LBE592-.LBB592
 12673 01d8 04       		.byte	0x4
 12674 01d9 0C       		.uleb128 .LBB604-.LBB592
 12675 01da 12       		.uleb128 .LBE604-.LBB592
 12676 01db 00       		.byte	0
 12677              	.LLRL130:
 12678 01dc 05       		.byte	0x5
 12679 01dd 08000000 		.4byte	.LBB616
 12680 01e1 04       		.byte	0x4
 12681 01e2 00       		.uleb128 .LBB616-.LBB616
 12682 01e3 0C       		.uleb128 .LBE616-.LBB616
 12683 01e4 04       		.byte	0x4
 12684 01e5 0E       		.uleb128 .LBB623-.LBB616
 12685 01e6 12       		.uleb128 .LBE623-.LBB616
 12686 01e7 04       		.byte	0x4
 12687 01e8 26       		.uleb128 .LBB626-.LBB616
 12688 01e9 2A       		.uleb128 .LBE626-.LBB616
 12689 01ea 00       		.byte	0
 12690              	.LLRL132:
 12691 01eb 05       		.byte	0x5
 12692 01ec 0C000000 		.4byte	.LBB617
 12693 01f0 04       		.byte	0x4
 12694 01f1 00       		.uleb128 .LBB617-.LBB617
 12695 01f2 04       		.uleb128 .LBE617-.LBB617
 12696 01f3 04       		.byte	0x4
 12697 01f4 08       		.uleb128 .LBB621-.LBB617
 12698 01f5 08       		.uleb128 .LBE621-.LBB617
 12699 01f6 04       		.byte	0x4
 12700 01f7 0A       		.uleb128 .LBB622-.LBB617
 12701 01f8 0E       		.uleb128 .LBE622-.LBB617
 12702 01f9 00       		.byte	0
 12703              	.LLRL139:
 12704 01fa 05       		.byte	0x5
 12705 01fb 00000000 		.4byte	.LBB640
 12706 01ff 04       		.byte	0x4
 12707 0200 00       		.uleb128 .LBB640-.LBB640
 12708 0201 02       		.uleb128 .LBE640-.LBB640
 12709 0202 04       		.byte	0x4
 12710 0203 04       		.uleb128 .LBB649-.LBB640
 12711 0204 08       		.uleb128 .LBE649-.LBB640
ARM GAS  C:\Users\DEVELO~1\AppData\Local\Temp\ccpJqkfg.s 			page 224


 12712 0205 00       		.byte	0
 12713              	.LLRL150:
 12714 0206 05       		.byte	0x5
 12715 0207 02000000 		.4byte	.LBB687
 12716 020b 04       		.byte	0x4
 12717 020c 00       		.uleb128 .LBB687-.LBB687
 12718 020d 02       		.uleb128 .LBE687-.LBB687
 12719 020e 04       		.byte	0x4
 12720 020f 06       		.uleb128 .LBB696-.LBB687
 12721 0210 0A       		.uleb128 .LBE696-.LBB687
 12722 0211 00       		.byte	0
 12723              	.LLRL153:
 12724 0212 05       		.byte	0x5
 12725 0213 26000000 		.4byte	.LBB703
 12726 0217 04       		.byte	0x4
 12727 0218 00       		.uleb128 .LBB703-.LBB703
 12728 0219 00       		.uleb128 .LBE703-.LBB703
 12729 021a 04       		.byte	0x4
 12730 021b 02       		.uleb128 .LBB707-.LBB703
 12731 021c 04       		.uleb128 .LBE707-.LBB703
 12732 021d 04       		.byte	0x4
 12733 021e 06       		.uleb128 .LBB708-.LBB703
 12734 021f 32       		.uleb128 .LBE708-.LBB703
 12735 0220 00       		.byte	0
 12736              	.LLRL156:
 12737 0221 05       		.byte	0x5
 12738 0222 5A000000 		.4byte	.LBB709
 12739 0226 04       		.byte	0x4
 12740 0227 00       		.uleb128 .LBB709-.LBB709
 12741 0228 22       		.uleb128 .LBE709-.LBB709
 12742 0229 04       		.byte	0x4
 12743 022a 24       		.uleb128 .LBB723-.LBB709
 12744 022b 28       		.uleb128 .LBE723-.LBB709
 12745 022c 00       		.byte	0
 12746              	.LLRL157:
 12747 022d 05       		.byte	0x5
 12748 022e 5A000000 		.4byte	.LBB711
 12749 0232 04       		.byte	0x4
 12750 0233 00       		.uleb128 .LBB711-.LBB711
 12751 0234 0C       		.uleb128 .LBE711-.LBB711
 12752 0235 04       		.byte	0x4
 12753 0236 0E       		.uleb128 .LBB718-.LBB711
 12754 0237 12       		.uleb128 .LBE718-.LBB711
 12755 0238 04       		.byte	0x4
 12756 0239 24       		.uleb128 .LBB721-.LBB711
 12757 023a 28       		.uleb128 .LBE721-.LBB711
 12758 023b 00       		.byte	0
 12759              	.LLRL159:
 12760 023c 05       		.byte	0x5
 12761 023d 5E000000 		.4byte	.LBB712
 12762 0241 04       		.byte	0x4
 12763 0242 00       		.uleb128 .LBB712-.LBB712
 12764 0243 04       		.uleb128 .LBE712-.LBB712
 12765 0244 04       		.byte	0x4
 12766 0245 08       		.uleb128 .LBB716-.LBB712
 12767 0246 08       		.uleb128 .LBE716-.LBB712
 12768 0247 04       		.byte	0x4
ARM GAS  C:\Users\DEVELO~1\AppData\Local\Temp\ccpJqkfg.s 			page 225


 12769 0248 0A       		.uleb128 .LBB717-.LBB712
 12770 0249 0E       		.uleb128 .LBE717-.LBB712
 12771 024a 00       		.byte	0
 12772              	.LLRL170:
 12773 024b 05       		.byte	0x5
 12774 024c 00000000 		.4byte	.LBB768
 12775 0250 04       		.byte	0x4
 12776 0251 00       		.uleb128 .LBB768-.LBB768
 12777 0252 00       		.uleb128 .LBE768-.LBB768
 12778 0253 04       		.byte	0x4
 12779 0254 0C       		.uleb128 .LBB779-.LBB768
 12780 0255 14       		.uleb128 .LBE779-.LBB768
 12781 0256 00       		.byte	0
 12782              	.LLRL171:
 12783 0257 05       		.byte	0x5
 12784 0258 00000000 		.4byte	.LBB770
 12785 025c 04       		.byte	0x4
 12786 025d 00       		.uleb128 .LBB770-.LBB770
 12787 025e 00       		.uleb128 .LBE770-.LBB770
 12788 025f 04       		.byte	0x4
 12789 0260 0C       		.uleb128 .LBB777-.LBB770
 12790 0261 14       		.uleb128 .LBE777-.LBB770
 12791 0262 00       		.byte	0
 12792              	.LLRL172:
 12793 0263 05       		.byte	0x5
 12794 0264 00000000 		.4byte	.LBB771
 12795 0268 04       		.byte	0x4
 12796 0269 00       		.uleb128 .LBB771-.LBB771
 12797 026a 00       		.uleb128 .LBE771-.LBB771
 12798 026b 04       		.byte	0x4
 12799 026c 0C       		.uleb128 .LBB776-.LBB771
 12800 026d 14       		.uleb128 .LBE776-.LBB771
 12801 026e 00       		.byte	0
 12802              	.LLRL173:
 12803 026f 05       		.byte	0x5
 12804 0270 00000000 		.4byte	.LBB772
 12805 0274 04       		.byte	0x4
 12806 0275 00       		.uleb128 .LBB772-.LBB772
 12807 0276 00       		.uleb128 .LBE772-.LBB772
 12808 0277 04       		.byte	0x4
 12809 0278 0C       		.uleb128 .LBB775-.LBB772
 12810 0279 14       		.uleb128 .LBE775-.LBB772
 12811 027a 00       		.byte	0
 12812              	.LLRL175:
 12813 027b 05       		.byte	0x5
 12814 027c 16000000 		.4byte	.LBB780
 12815 0280 04       		.byte	0x4
 12816 0281 00       		.uleb128 .LBB780-.LBB780
 12817 0282 02       		.uleb128 .LBE780-.LBB780
 12818 0283 04       		.byte	0x4
 12819 0284 02       		.uleb128 .LBB821-.LBB780
 12820 0285 8202     		.uleb128 .LBE821-.LBB780
 12821 0287 00       		.byte	0
 12822              	.LLRL177:
 12823 0288 05       		.byte	0x5
 12824 0289 16000000 		.4byte	.LBB781
 12825 028d 04       		.byte	0x4
ARM GAS  C:\Users\DEVELO~1\AppData\Local\Temp\ccpJqkfg.s 			page 226


 12826 028e 00       		.uleb128 .LBB781-.LBB781
 12827 028f 02       		.uleb128 .LBE781-.LBB781
 12828 0290 04       		.byte	0x4
 12829 0291 BA01     		.uleb128 .LBB817-.LBB781
 12830 0293 BA01     		.uleb128 .LBE817-.LBB781
 12831 0295 04       		.byte	0x4
 12832 0296 BE01     		.uleb128 .LBB818-.LBB781
 12833 0298 C201     		.uleb128 .LBE818-.LBB781
 12834 029a 04       		.byte	0x4
 12835 029b C401     		.uleb128 .LBB819-.LBB781
 12836 029d FC01     		.uleb128 .LBE819-.LBB781
 12837 029f 00       		.byte	0
 12838              	.LLRL182:
 12839 02a0 05       		.byte	0x5
 12840 02a1 86000000 		.4byte	.LBB798
 12841 02a5 04       		.byte	0x4
 12842 02a6 00       		.uleb128 .LBB798-.LBB798
 12843 02a7 2E       		.uleb128 .LBE798-.LBB798
 12844 02a8 04       		.byte	0x4
 12845 02a9 8C01     		.uleb128 .LBB820-.LBB798
 12846 02ab 9201     		.uleb128 .LBE820-.LBB798
 12847 02ad 00       		.byte	0
 12848              	.LLRL184:
 12849 02ae 05       		.byte	0x5
 12850 02af 86000000 		.4byte	.LBB801
 12851 02b3 04       		.byte	0x4
 12852 02b4 00       		.uleb128 .LBB801-.LBB801
 12853 02b5 10       		.uleb128 .LBE801-.LBB801
 12854 02b6 04       		.byte	0x4
 12855 02b7 14       		.uleb128 .LBB808-.LBB801
 12856 02b8 18       		.uleb128 .LBE808-.LBB801
 12857 02b9 00       		.byte	0
 12858              	.LLRL186:
 12859 02ba 05       		.byte	0x5
 12860 02bb 8E000000 		.4byte	.LBB802
 12861 02bf 04       		.byte	0x4
 12862 02c0 00       		.uleb128 .LBB802-.LBB802
 12863 02c1 04       		.uleb128 .LBE802-.LBB802
 12864 02c2 04       		.byte	0x4
 12865 02c3 08       		.uleb128 .LBB806-.LBB802
 12866 02c4 08       		.uleb128 .LBE806-.LBB802
 12867 02c5 04       		.byte	0x4
 12868 02c6 0C       		.uleb128 .LBB807-.LBB802
 12869 02c7 10       		.uleb128 .LBE807-.LBB802
 12870 02c8 00       		.byte	0
 12871              	.LLRL192:
 12872 02c9 05       		.byte	0x5
 12873 02ca 16000000 		.4byte	.LBB822
 12874 02ce 04       		.byte	0x4
 12875 02cf 00       		.uleb128 .LBB822-.LBB822
 12876 02d0 06       		.uleb128 .LBE822-.LBB822
 12877 02d1 04       		.byte	0x4
 12878 02d2 0A       		.uleb128 .LBB823-.LBB822
 12879 02d3 2C       		.uleb128 .LBE823-.LBB822
 12880 02d4 00       		.byte	0
 12881              	.LLRL195:
 12882 02d5 05       		.byte	0x5
ARM GAS  C:\Users\DEVELO~1\AppData\Local\Temp\ccpJqkfg.s 			page 227


 12883 02d6 00000000 		.4byte	.LBB838
 12884 02da 04       		.byte	0x4
 12885 02db 00       		.uleb128 .LBB838-.LBB838
 12886 02dc 00       		.uleb128 .LBE838-.LBB838
 12887 02dd 04       		.byte	0x4
 12888 02de 02       		.uleb128 .LBB847-.LBB838
 12889 02df 08       		.uleb128 .LBE847-.LBB838
 12890 02e0 00       		.byte	0
 12891              	.LLRL197:
 12892 02e1 05       		.byte	0x5
 12893 02e2 0C000000 		.4byte	.LBB848
 12894 02e6 04       		.byte	0x4
 12895 02e7 00       		.uleb128 .LBB848-.LBB848
 12896 02e8 08       		.uleb128 .LBE848-.LBB848
 12897 02e9 04       		.byte	0x4
 12898 02ea 10       		.uleb128 .LBB862-.LBB848
 12899 02eb 36       		.uleb128 .LBE862-.LBB848
 12900 02ec 00       		.byte	0
 12901              	.LLRL201:
 12902 02ed 05       		.byte	0x5
 12903 02ee 14000000 		.4byte	.LBB851
 12904 02f2 04       		.byte	0x4
 12905 02f3 00       		.uleb128 .LBB851-.LBB851
 12906 02f4 06       		.uleb128 .LBE851-.LBB851
 12907 02f5 04       		.byte	0x4
 12908 02f6 2E       		.uleb128 .LBB863-.LBB851
 12909 02f7 34       		.uleb128 .LBE863-.LBB851
 12910 02f8 00       		.byte	0
 12911              	.LLRL203:
 12912 02f9 07       		.byte	0x7
 12913 02fa 00000000 		.4byte	.LFB431
 12914 02fe 30       		.uleb128 .LFE431-.LFB431
 12915 02ff 07       		.byte	0x7
 12916 0300 00000000 		.4byte	.LFB432
 12917 0304 1A       		.uleb128 .LFE432-.LFB432
 12918 0305 07       		.byte	0x7
 12919 0306 00000000 		.4byte	.LFB433
 12920 030a 16       		.uleb128 .LFE433-.LFB433
 12921 030b 07       		.byte	0x7
 12922 030c 00000000 		.4byte	.LFB434
 12923 0310 24       		.uleb128 .LFE434-.LFB434
 12924 0311 07       		.byte	0x7
 12925 0312 00000000 		.4byte	.LFB435
 12926 0316 46       		.uleb128 .LFE435-.LFB435
 12927 0317 07       		.byte	0x7
 12928 0318 00000000 		.4byte	.LFB436
 12929 031c 34       		.uleb128 .LFE436-.LFB436
 12930 031d 07       		.byte	0x7
 12931 031e 00000000 		.4byte	.LFB437
 12932 0322 34       		.uleb128 .LFE437-.LFB437
 12933 0323 07       		.byte	0x7
 12934 0324 00000000 		.4byte	.LFB438
 12935 0328 26       		.uleb128 .LFE438-.LFB438
 12936 0329 07       		.byte	0x7
 12937 032a 00000000 		.4byte	.LFB439
 12938 032e 8401     		.uleb128 .LFE439-.LFB439
 12939 0330 07       		.byte	0x7
ARM GAS  C:\Users\DEVELO~1\AppData\Local\Temp\ccpJqkfg.s 			page 228


 12940 0331 00000000 		.4byte	.LFB440
 12941 0335 9202     		.uleb128 .LFE440-.LFB440
 12942 0337 07       		.byte	0x7
 12943 0338 00000000 		.4byte	.LFB441
 12944 033c 30       		.uleb128 .LFE441-.LFB441
 12945 033d 07       		.byte	0x7
 12946 033e 00000000 		.4byte	.LFB442
 12947 0342 1E       		.uleb128 .LFE442-.LFB442
 12948 0343 07       		.byte	0x7
 12949 0344 00000000 		.4byte	.LFB443
 12950 0348 1C       		.uleb128 .LFE443-.LFB443
 12951 0349 07       		.byte	0x7
 12952 034a 00000000 		.4byte	.LFB444
 12953 034e 20       		.uleb128 .LFE444-.LFB444
 12954 034f 07       		.byte	0x7
 12955 0350 00000000 		.4byte	.LFB445
 12956 0354 46       		.uleb128 .LFE445-.LFB445
 12957 0355 07       		.byte	0x7
 12958 0356 00000000 		.4byte	.LFB446
 12959 035a 34       		.uleb128 .LFE446-.LFB446
 12960 035b 07       		.byte	0x7
 12961 035c 00000000 		.4byte	.LFB447
 12962 0360 34       		.uleb128 .LFE447-.LFB447
 12963 0361 07       		.byte	0x7
 12964 0362 00000000 		.4byte	.LFB448
 12965 0366 2C       		.uleb128 .LFE448-.LFB448
 12966 0367 07       		.byte	0x7
 12967 0368 00000000 		.4byte	.LFB449
 12968 036c 8A01     		.uleb128 .LFE449-.LFB449
 12969 036e 07       		.byte	0x7
 12970 036f 00000000 		.4byte	.LFB450
 12971 0373 9E02     		.uleb128 .LFE450-.LFB450
 12972 0375 07       		.byte	0x7
 12973 0376 00000000 		.4byte	.LFB451
 12974 037a 42       		.uleb128 .LFE451-.LFB451
 12975 037b 07       		.byte	0x7
 12976 037c 00000000 		.4byte	.LFB452
 12977 0380 4A       		.uleb128 .LFE452-.LFB452
 12978 0381 00       		.byte	0
 12979              	.Ldebug_ranges3:
 12980              		.section	.debug_line,"",%progbits
 12981              	.Ldebug_line0:
 12982 0000 CC180000 		.section	.debug_str,"MS",%progbits,1
 12982      0300F502 
 12982      00000201 
 12982      FB0E0D00 
 12982      01010101 
 12983              	.LASF95:
 12984 0000 6F73616C 		.ascii	"osalThreadEnqueueTimeoutS\000"
 12984      54687265 
 12984      6164456E 
 12984      71756575 
 12984      6554696D 
 12985              	.LASF74:
 12986 001a 69627150 		.ascii	"ibqPostFullBufferI\000"
 12986      6F737446 
 12986      756C6C42 
ARM GAS  C:\Users\DEVELO~1\AppData\Local\Temp\ccpJqkfg.s 			page 229


 12986      75666665 
 12986      724900
 12987              	.LASF89:
 12988 002d 5F5F7365 		.ascii	"__set_BASEPRI\000"
 12988      745F4241 
 12988      53455052 
 12988      4900
 12989              	.LASF38:
 12990 003b 6273697A 		.ascii	"bsize\000"
 12990      6500
 12991              	.LASF28:
 12992 0041 74687265 		.ascii	"threads_queue_t\000"
 12992      6164735F 
 12992      71756575 
 12992      655F7400 
 12993              	.LASF51:
 12994 0051 6F627154 		.ascii	"obqTryFlushI\000"
 12994      7279466C 
 12994      75736849 
 12994      00
 12995              	.LASF7:
 12996 005e 73686F72 		.ascii	"short int\000"
 12996      7420696E 
 12996      7400
 12997              	.LASF4:
 12998 0068 73697A65 		.ascii	"size_t\000"
 12998      5F7400
 12999              	.LASF48:
 13000 006f 63685468 		.ascii	"chThdDequeueAllI\000"
 13000      64446571 
 13000      75657565 
 13000      416C6C49 
 13000      00
 13001              	.LASF82:
 13002 0080 6F73616C 		.ascii	"osalSysUnlock\000"
 13002      53797355 
 13002      6E6C6F63 
 13002      6B00
 13003              	.LASF68:
 13004 008e 69627170 		.ascii	"ibqp\000"
 13004      00
 13005              	.LASF88:
 13006 0093 706F7274 		.ascii	"port_lock\000"
 13006      5F6C6F63 
 13006      6B00
 13007              	.LASF45:
 13008 009d 6D656D63 		.ascii	"memcpy\000"
 13008      707900
 13009              	.LASF80:
 13010 00a4 6F73616C 		.ascii	"osalThreadDequeueNextI\000"
 13010      54687265 
 13010      61644465 
 13010      71756575 
 13010      654E6578 
 13011              	.LASF47:
 13012 00bb 63685468 		.ascii	"chThdDequeueNextI\000"
 13012      64446571 
ARM GAS  C:\Users\DEVELO~1\AppData\Local\Temp\ccpJqkfg.s 			page 230


 13012      75657565 
 13012      4E657874 
 13012      4900
 13013              	.LASF75:
 13014 00cd 69627147 		.ascii	"ibqGetEmptyBufferI\000"
 13014      6574456D 
 13014      70747942 
 13014      75666665 
 13014      724900
 13015              	.LASF44:
 13016 00e0 6F757470 		.ascii	"output_buffers_queue_t\000"
 13016      75745F62 
 13016      75666665 
 13016      72735F71 
 13016      75657565 
 13017              	.LASF96:
 13018 00f7 5F5F6275 		.ascii	"__builtin_memcpy\000"
 13018      696C7469 
 13018      6E5F6D65 
 13018      6D637079 
 13018      00
 13019              	.LASF31:
 13020 0108 696F5F62 		.ascii	"io_buffers_queue\000"
 13020      75666665 
 13020      72735F71 
 13020      75657565 
 13020      00
 13021              	.LASF15:
 13022 0119 75696E74 		.ascii	"uint8_t\000"
 13022      385F7400 
 13023              	.LASF26:
 13024 0121 63685F74 		.ascii	"ch_threads_queue\000"
 13024      68726561 
 13024      64735F71 
 13024      75657565 
 13024      00
 13025              	.LASF20:
 13026 0132 63685F71 		.ascii	"ch_queue_t\000"
 13026      75657565 
 13026      5F7400
 13027              	.LASF41:
 13028 013d 6C696E6B 		.ascii	"link\000"
 13028      00
 13029              	.LASF86:
 13030 0142 63685379 		.ascii	"chSysLock\000"
 13030      734C6F63 
 13030      6B00
 13031              	.LASF42:
 13032 014c 62716E6F 		.ascii	"bqnotify_t\000"
 13032      74696679 
 13032      5F7400
 13033              	.LASF23:
 13034 0157 666C6F61 		.ascii	"float\000"
 13034      7400
 13035              	.LASF1:
 13036 015d 6C6F6E67 		.ascii	"long long int\000"
 13036      206C6F6E 
ARM GAS  C:\Users\DEVELO~1\AppData\Local\Temp\ccpJqkfg.s 			page 231


 13036      6720696E 
 13036      7400
 13037              	.LASF34:
 13038 016b 62636F75 		.ascii	"bcounter\000"
 13038      6E746572 
 13038      00
 13039              	.LASF46:
 13040 0174 63685468 		.ascii	"chThdEnqueueTimeoutS\000"
 13040      64456E71 
 13040      75657565 
 13040      54696D65 
 13040      6F757453 
 13041              	.LASF57:
 13042 0189 6F627146 		.ascii	"obqFlush\000"
 13042      6C757368 
 13042      00
 13043              	.LASF64:
 13044 0192 6F62714F 		.ascii	"obqObjectInit\000"
 13044      626A6563 
 13044      74496E69 
 13044      7400
 13045              	.LASF81:
 13046 01a0 6F73616C 		.ascii	"osalThreadQueueObjectInit\000"
 13046      54687265 
 13046      61645175 
 13046      6575654F 
 13046      626A6563 
 13047              	.LASF71:
 13048 01ba 69627152 		.ascii	"ibqReleaseEmptyBuffer\000"
 13048      656C6561 
 13048      7365456D 
 13048      70747942 
 13048      75666665 
 13049              	.LASF35:
 13050 01d0 62777270 		.ascii	"bwrptr\000"
 13050      747200
 13051              	.LASF12:
 13052 01d7 6C6F6E67 		.ascii	"long unsigned int\000"
 13052      20756E73 
 13052      69676E65 
 13052      6420696E 
 13052      7400
 13053              	.LASF94:
 13054 01e9 433A5C43 		.ascii	"C:\\ChibiStudio\\chibios2111\\demos\\STM32\\RT-STM3"
 13054      68696269 
 13054      53747564 
 13054      696F5C63 
 13054      68696269 
 13055 0217 32483734 		.ascii	"2H743ZI_REV_XY-NUCLEO144 - Copie\000"
 13055      335A495F 
 13055      5245565F 
 13055      58592D4E 
 13055      55434C45 
 13056              	.LASF5:
 13057 0238 5F5F7569 		.ascii	"__uint8_t\000"
 13057      6E74385F 
 13057      7400
ARM GAS  C:\Users\DEVELO~1\AppData\Local\Temp\ccpJqkfg.s 			page 232


 13058              	.LASF60:
 13059 0242 6F627147 		.ascii	"obqGetEmptyBufferTimeout\000"
 13059      6574456D 
 13059      70747942 
 13059      75666665 
 13059      7254696D 
 13060              	.LASF66:
 13061 025b 6F6E6679 		.ascii	"onfy\000"
 13061      00
 13062              	.LASF79:
 13063 0260 6F73616C 		.ascii	"osalThreadDequeueAllI\000"
 13063      54687265 
 13063      61644465 
 13063      71756575 
 13063      65416C6C 
 13064              	.LASF73:
 13065 0276 69627147 		.ascii	"ibqGetFullBufferTimeout\000"
 13065      65744675 
 13065      6C6C4275 
 13065      66666572 
 13065      54696D65 
 13066              	.LASF83:
 13067 028e 6F73616C 		.ascii	"osalSysLock\000"
 13067      5379734C 
 13067      6F636B00 
 13068              	.LASF6:
 13069 029a 756E7369 		.ascii	"unsigned char\000"
 13069      676E6564 
 13069      20636861 
 13069      7200
 13070              	.LASF56:
 13071 02a8 5F5F6675 		.ascii	"__func__\000"
 13071      6E635F5F 
 13071      00
 13072              	.LASF93:
 13073 02b1 2E2E2F2E 		.ascii	"../../../os/hal/src/hal_buffers.c\000"
 13073      2E2F2E2E 
 13073      2F6F732F 
 13073      68616C2F 
 13073      7372632F 
 13074              	.LASF54:
 13075 02d3 6F627150 		.ascii	"obqPutTimeout\000"
 13075      75745469 
 13075      6D656F75 
 13075      7400
 13076              	.LASF3:
 13077 02e1 7369676E 		.ascii	"signed char\000"
 13077      65642063 
 13077      68617200 
 13078              	.LASF13:
 13079 02ed 6C6F6E67 		.ascii	"long long unsigned int\000"
 13079      206C6F6E 
 13079      6720756E 
 13079      7369676E 
 13079      65642069 
 13080              	.LASF17:
 13081 0304 75696E74 		.ascii	"uint32_t\000"
ARM GAS  C:\Users\DEVELO~1\AppData\Local\Temp\ccpJqkfg.s 			page 233


 13081      33325F74 
 13081      00
 13082              	.LASF0:
 13083 030d 756E7369 		.ascii	"unsigned int\000"
 13083      676E6564 
 13083      20696E74 
 13083      00
 13084              	.LASF72:
 13085 031a 69627147 		.ascii	"ibqGetFullBufferTimeoutS\000"
 13085      65744675 
 13085      6C6C4275 
 13085      66666572 
 13085      54696D65 
 13086              	.LASF52:
 13087 0333 6F627157 		.ascii	"obqWriteTimeout\000"
 13087      72697465 
 13087      54696D65 
 13087      6F757400 
 13088              	.LASF76:
 13089 0343 69627152 		.ascii	"ibqResetI\000"
 13089      65736574 
 13089      4900
 13090              	.LASF55:
 13091 034d 6F627150 		.ascii	"obqPostFullBufferS\000"
 13091      6F737446 
 13091      756C6C42 
 13091      75666665 
 13091      725300
 13092              	.LASF8:
 13093 0360 73686F72 		.ascii	"short unsigned int\000"
 13093      7420756E 
 13093      7369676E 
 13093      65642069 
 13093      6E7400
 13094              	.LASF90:
 13095 0373 62617365 		.ascii	"basePri\000"
 13095      50726900 
 13096              	.LASF69:
 13097 037b 69627147 		.ascii	"ibqGetTimeout\000"
 13097      65745469 
 13097      6D656F75 
 13097      7400
 13098              	.LASF14:
 13099 0389 63686172 		.ascii	"char\000"
 13099      00
 13100              	.LASF10:
 13101 038e 6C6F6E67 		.ascii	"long int\000"
 13101      20696E74 
 13101      00
 13102              	.LASF16:
 13103 0397 696E7433 		.ascii	"int32_t\000"
 13103      325F7400 
 13104              	.LASF27:
 13105 039f 71756575 		.ascii	"queue\000"
 13105      6500
 13106              	.LASF29:
 13107 03a5 5F426F6F 		.ascii	"_Bool\000"
ARM GAS  C:\Users\DEVELO~1\AppData\Local\Temp\ccpJqkfg.s 			page 234


 13107      6C00
 13108              	.LASF62:
 13109 03ab 6F627147 		.ascii	"obqGetFullBufferI\000"
 13109      65744675 
 13109      6C6C4275 
 13109      66666572 
 13109      4900
 13110              	.LASF19:
 13111 03bd 73797369 		.ascii	"sysinterval_t\000"
 13111      6E746572 
 13111      76616C5F 
 13111      7400
 13112              	.LASF49:
 13113 03cb 6F627170 		.ascii	"obqp\000"
 13113      00
 13114              	.LASF84:
 13115 03d0 63685468 		.ascii	"chThdQueueObjectInit\000"
 13115      64517565 
 13115      75654F62 
 13115      6A656374 
 13115      496E6974 
 13116              	.LASF33:
 13117 03e5 73757370 		.ascii	"suspended\000"
 13117      656E6465 
 13117      6400
 13118              	.LASF37:
 13119 03ef 62746F70 		.ascii	"btop\000"
 13119      00
 13120              	.LASF65:
 13121 03f4 73697A65 		.ascii	"sizep\000"
 13121      7000
 13122              	.LASF87:
 13123 03fa 706F7274 		.ascii	"port_unlock\000"
 13123      5F756E6C 
 13123      6F636B00 
 13124              	.LASF70:
 13125 0406 69627152 		.ascii	"ibqReleaseEmptyBufferS\000"
 13125      656C6561 
 13125      7365456D 
 13125      70747942 
 13125      75666665 
 13126              	.LASF92:
 13127 041d 474E5520 		.ascii	"GNU C17 11.3.1 20220712 -mcpu=cortex-m7 -mthumb -mf"
 13127      43313720 
 13127      31312E33 
 13127      2E312032 
 13127      30323230 
 13128 0450 6C6F6174 		.ascii	"loat-abi=soft -march=armv7e-m -ggdb -O2 -fomit-fram"
 13128      2D616269 
 13128      3D736F66 
 13128      74202D6D 
 13128      61726368 
 13129 0483 652D706F 		.ascii	"e-pointer -falign-functions=16 -ffunction-sections "
 13129      696E7465 
 13129      72202D66 
 13129      616C6967 
 13129      6E2D6675 
ARM GAS  C:\Users\DEVELO~1\AppData\Local\Temp\ccpJqkfg.s 			page 235


 13130 04b6 2D666461 		.ascii	"-fdata-sections -fno-common\000"
 13130      74612D73 
 13130      65637469 
 13130      6F6E7320 
 13130      2D666E6F 
 13131              	.LASF77:
 13132 04d2 6962714F 		.ascii	"ibqObjectInit\000"
 13132      626A6563 
 13132      74496E69 
 13132      7400
 13133              	.LASF39:
 13134 04e0 62756666 		.ascii	"buffers\000"
 13134      65727300 
 13135              	.LASF11:
 13136 04e8 5F5F7569 		.ascii	"__uint32_t\000"
 13136      6E743332 
 13136      5F7400
 13137              	.LASF50:
 13138 04f3 73697A65 		.ascii	"size\000"
 13138      00
 13139              	.LASF85:
 13140 04f8 63685379 		.ascii	"chSysUnlock\000"
 13140      73556E6C 
 13140      6F636B00 
 13141              	.LASF30:
 13142 0504 696F5F62 		.ascii	"io_buffers_queue_t\000"
 13142      75666665 
 13142      72735F71 
 13142      75657565 
 13142      5F7400
 13143              	.LASF63:
 13144 0517 6F627152 		.ascii	"obqResetI\000"
 13144      65736574 
 13144      4900
 13145              	.LASF9:
 13146 0521 5F5F696E 		.ascii	"__int32_t\000"
 13146      7433325F 
 13146      7400
 13147              	.LASF59:
 13148 052b 6F627147 		.ascii	"obqGetEmptyBufferTimeoutS\000"
 13148      6574456D 
 13148      70747942 
 13148      75666665 
 13148      7254696D 
 13149              	.LASF2:
 13150 0545 6C6F6E67 		.ascii	"long double\000"
 13150      20646F75 
 13150      626C6500 
 13151              	.LASF61:
 13152 0551 6F627152 		.ascii	"obqReleaseEmptyBufferI\000"
 13152      656C6561 
 13152      7365456D 
 13152      70747942 
 13152      75666665 
 13153              	.LASF78:
 13154 0568 696E6679 		.ascii	"infy\000"
 13154      00
ARM GAS  C:\Users\DEVELO~1\AppData\Local\Temp\ccpJqkfg.s 			page 236


 13155              	.LASF25:
 13156 056d 63685F71 		.ascii	"ch_queue\000"
 13156      75657565 
 13156      00
 13157              	.LASF43:
 13158 0576 696E7075 		.ascii	"input_buffers_queue_t\000"
 13158      745F6275 
 13158      66666572 
 13158      735F7175 
 13158      6575655F 
 13159              	.LASF40:
 13160 058c 6E6F7469 		.ascii	"notify\000"
 13160      667900
 13161              	.LASF24:
 13162 0593 646F7562 		.ascii	"double\000"
 13162      6C6500
 13163              	.LASF67:
 13164 059a 69627152 		.ascii	"ibqReadTimeout\000"
 13164      65616454 
 13164      696D656F 
 13164      757400
 13165              	.LASF32:
 13166 05a9 77616974 		.ascii	"waiting\000"
 13166      696E6700 
 13167              	.LASF22:
 13168 05b1 70726576 		.ascii	"prev\000"
 13168      00
 13169              	.LASF36:
 13170 05b6 62726470 		.ascii	"brdptr\000"
 13170      747200
 13171              	.LASF91:
 13172 05bd 63685F71 		.ascii	"ch_queue_init\000"
 13172      75657565 
 13172      5F696E69 
 13172      7400
 13173              	.LASF18:
 13174 05cb 6D73675F 		.ascii	"msg_t\000"
 13174      7400
 13175              	.LASF53:
 13176 05d1 74696D65 		.ascii	"timeout\000"
 13176      6F757400 
 13177              	.LASF21:
 13178 05d9 6E657874 		.ascii	"next\000"
 13178      00
 13179              	.LASF58:
 13180 05de 6F627150 		.ascii	"obqPostFullBuffer\000"
 13180      6F737446 
 13180      756C6C42 
 13180      75666665 
 13180      7200
 13181              		.ident	"GCC: (Arm GNU Toolchain 11.3.Rel1) 11.3.1 20220712"
ARM GAS  C:\Users\DEVELO~1\AppData\Local\Temp\ccpJqkfg.s 			page 237


DEFINED SYMBOLS
                            *ABS*:00000000 hal_buffers.c
C:\Users\DEVELO~1\AppData\Local\Temp\ccpJqkfg.s:18     .text.ibqObjectInit:00000000 $t
C:\Users\DEVELO~1\AppData\Local\Temp\ccpJqkfg.s:25     .text.ibqObjectInit:00000000 ibqObjectInit
C:\Users\DEVELO~1\AppData\Local\Temp\ccpJqkfg.s:130    .text.ibqResetI:00000000 $t
C:\Users\DEVELO~1\AppData\Local\Temp\ccpJqkfg.s:137    .text.ibqResetI:00000000 ibqResetI
C:\Users\DEVELO~1\AppData\Local\Temp\ccpJqkfg.s:195    .text.ibqGetEmptyBufferI:00000000 $t
C:\Users\DEVELO~1\AppData\Local\Temp\ccpJqkfg.s:202    .text.ibqGetEmptyBufferI:00000000 ibqGetEmptyBufferI
C:\Users\DEVELO~1\AppData\Local\Temp\ccpJqkfg.s:238    .text.ibqPostFullBufferI:00000000 $t
C:\Users\DEVELO~1\AppData\Local\Temp\ccpJqkfg.s:245    .text.ibqPostFullBufferI:00000000 ibqPostFullBufferI
C:\Users\DEVELO~1\AppData\Local\Temp\ccpJqkfg.s:324    .text.ibqGetFullBufferTimeout:00000000 $t
C:\Users\DEVELO~1\AppData\Local\Temp\ccpJqkfg.s:331    .text.ibqGetFullBufferTimeout:00000000 ibqGetFullBufferTimeout
C:\Users\DEVELO~1\AppData\Local\Temp\ccpJqkfg.s:590    .text.ibqGetFullBufferTimeoutS:00000000 $t
C:\Users\DEVELO~1\AppData\Local\Temp\ccpJqkfg.s:597    .text.ibqGetFullBufferTimeoutS:00000000 ibqGetFullBufferTimeoutS
C:\Users\DEVELO~1\AppData\Local\Temp\ccpJqkfg.s:708    .text.ibqReleaseEmptyBuffer:00000000 $t
C:\Users\DEVELO~1\AppData\Local\Temp\ccpJqkfg.s:715    .text.ibqReleaseEmptyBuffer:00000000 ibqReleaseEmptyBuffer
C:\Users\DEVELO~1\AppData\Local\Temp\ccpJqkfg.s:869    .text.ibqReleaseEmptyBufferS:00000000 $t
C:\Users\DEVELO~1\AppData\Local\Temp\ccpJqkfg.s:876    .text.ibqReleaseEmptyBufferS:00000000 ibqReleaseEmptyBufferS
C:\Users\DEVELO~1\AppData\Local\Temp\ccpJqkfg.s:934    .text.ibqGetTimeout:00000000 $t
C:\Users\DEVELO~1\AppData\Local\Temp\ccpJqkfg.s:941    .text.ibqGetTimeout:00000000 ibqGetTimeout
C:\Users\DEVELO~1\AppData\Local\Temp\ccpJqkfg.s:1301   .text.ibqReadTimeout:00000000 $t
C:\Users\DEVELO~1\AppData\Local\Temp\ccpJqkfg.s:1308   .text.ibqReadTimeout:00000000 ibqReadTimeout
C:\Users\DEVELO~1\AppData\Local\Temp\ccpJqkfg.s:1768   .text.obqObjectInit:00000000 $t
C:\Users\DEVELO~1\AppData\Local\Temp\ccpJqkfg.s:1775   .text.obqObjectInit:00000000 obqObjectInit
C:\Users\DEVELO~1\AppData\Local\Temp\ccpJqkfg.s:1872   .text.obqResetI:00000000 $t
C:\Users\DEVELO~1\AppData\Local\Temp\ccpJqkfg.s:1879   .text.obqResetI:00000000 obqResetI
C:\Users\DEVELO~1\AppData\Local\Temp\ccpJqkfg.s:1936   .text.obqGetFullBufferI:00000000 $t
C:\Users\DEVELO~1\AppData\Local\Temp\ccpJqkfg.s:1943   .text.obqGetFullBufferI:00000000 obqGetFullBufferI
C:\Users\DEVELO~1\AppData\Local\Temp\ccpJqkfg.s:1986   .text.obqReleaseEmptyBufferI:00000000 $t
C:\Users\DEVELO~1\AppData\Local\Temp\ccpJqkfg.s:1993   .text.obqReleaseEmptyBufferI:00000000 obqReleaseEmptyBufferI
C:\Users\DEVELO~1\AppData\Local\Temp\ccpJqkfg.s:2048   .text.obqGetEmptyBufferTimeout:00000000 $t
C:\Users\DEVELO~1\AppData\Local\Temp\ccpJqkfg.s:2055   .text.obqGetEmptyBufferTimeout:00000000 obqGetEmptyBufferTimeout
C:\Users\DEVELO~1\AppData\Local\Temp\ccpJqkfg.s:2313   .text.obqGetEmptyBufferTimeoutS:00000000 $t
C:\Users\DEVELO~1\AppData\Local\Temp\ccpJqkfg.s:2320   .text.obqGetEmptyBufferTimeoutS:00000000 obqGetEmptyBufferTimeoutS
C:\Users\DEVELO~1\AppData\Local\Temp\ccpJqkfg.s:2433   .text.obqPostFullBuffer:00000000 $t
C:\Users\DEVELO~1\AppData\Local\Temp\ccpJqkfg.s:2440   .text.obqPostFullBuffer:00000000 obqPostFullBuffer
C:\Users\DEVELO~1\AppData\Local\Temp\ccpJqkfg.s:2605   .text.obqPostFullBufferS:00000000 $t
C:\Users\DEVELO~1\AppData\Local\Temp\ccpJqkfg.s:2612   .text.obqPostFullBufferS:00000000 obqPostFullBufferS
C:\Users\DEVELO~1\AppData\Local\Temp\ccpJqkfg.s:2695   .text.obqPutTimeout:00000000 $t
C:\Users\DEVELO~1\AppData\Local\Temp\ccpJqkfg.s:2702   .text.obqPutTimeout:00000000 obqPutTimeout
C:\Users\DEVELO~1\AppData\Local\Temp\ccpJqkfg.s:3056   .text.obqWriteTimeout:00000000 $t
C:\Users\DEVELO~1\AppData\Local\Temp\ccpJqkfg.s:3063   .text.obqWriteTimeout:00000000 obqWriteTimeout
C:\Users\DEVELO~1\AppData\Local\Temp\ccpJqkfg.s:3550   .text.obqTryFlushI:00000000 $t
C:\Users\DEVELO~1\AppData\Local\Temp\ccpJqkfg.s:3557   .text.obqTryFlushI:00000000 obqTryFlushI
C:\Users\DEVELO~1\AppData\Local\Temp\ccpJqkfg.s:3659   .text.obqFlush:00000000 $t
C:\Users\DEVELO~1\AppData\Local\Temp\ccpJqkfg.s:3666   .text.obqFlush:00000000 obqFlush

UNDEFINED SYMBOLS
chThdDequeueAllI
chThdDequeueNextI
chThdEnqueueTimeoutS
memcpy
