ARM GAS  C:\Users\DEVELO~1\AppData\Local\Temp\ccijDB21.s 			page 1


   1              		.cpu cortex-m7
   2              		.arch armv7e-m
   3              		.fpu softvfp
   4              		.eabi_attribute 20, 1
   5              		.eabi_attribute 21, 1
   6              		.eabi_attribute 23, 3
   7              		.eabi_attribute 24, 1
   8              		.eabi_attribute 25, 1
   9              		.eabi_attribute 26, 1
  10              		.eabi_attribute 30, 2
  11              		.eabi_attribute 34, 1
  12              		.eabi_attribute 18, 4
  13              		.file	"hal_buffered_serial.c"
  14              		.text
  15              	.Ltext0:
  16              		.cfi_sections	.debug_frame
  17              		.section	.text.bsIncomingDataI,"ax",%progbits
  18              		.align	1
  19              		.p2align 4,,15
  20              		.global	bsIncomingDataI
  21              		.syntax unified
  22              		.thumb
  23              		.thumb_func
  24              		.type	bsIncomingDataI, %function
  25              	bsIncomingDataI:
  26              	.LVL0:
  27              	.LFB448:
  28              		.file 1 "./ChibiOS/os/hal/src/hal_buffered_serial.c"
  29              		.loc 1 60 54 view -0
  30              		.cfi_startproc
  31              		@ args = 0, pretend = 0, frame = 0
  32              		@ frame_needed = 0, uses_anonymous_args = 0
  33              		.loc 1 62 23 view .LVU1
  34              		.loc 1 63 3 view .LVU2
  35              		.loc 1 63 3 view .LVU3
  36              		.loc 1 63 3 view .LVU4
  37              		.loc 1 65 3 view .LVU5
  38              		.loc 1 60 54 is_stmt 0 view .LVU6
  39 0000 38B5     		push	{r3, r4, r5, lr}
  40              		.cfi_def_cfa_offset 16
  41              		.cfi_offset 3, -16
  42              		.cfi_offset 4, -12
  43              		.cfi_offset 5, -8
  44              		.cfi_offset 14, -4
  45              		.loc 1 65 7 view .LVU7
  46 0002 4369     		ldr	r3, [r0, #20]
  47              		.loc 1 60 54 view .LVU8
  48 0004 0446     		mov	r4, r0
  49 0006 0D46     		mov	r5, r1
  50              		.loc 1 65 6 view .LVU9
  51 0008 3BB1     		cbz	r3, .L6
  52              		.loc 1 66 43 is_stmt 1 discriminator 1 view .LVU10
  53              		.loc 1 69 3 discriminator 1 view .LVU11
  54              		.loc 1 69 7 is_stmt 0 discriminator 1 view .LVU12
  55 000a 2946     		mov	r1, r5
  56              	.LVL1:
  57              		.loc 1 69 7 discriminator 1 view .LVU13
ARM GAS  C:\Users\DEVELO~1\AppData\Local\Temp\ccijDB21.s 			page 2


  58 000c 04F10C00 		add	r0, r4, #12
  59              	.LVL2:
  60              		.loc 1 69 7 discriminator 1 view .LVU14
  61 0010 FFF7FEFF 		bl	iqPutI
  62              	.LVL3:
  63              		.loc 1 69 6 discriminator 1 view .LVU15
  64 0014 0028     		cmp	r0, #0
  65 0016 0BDB     		blt	.L7
  66              	.L1:
  67              		.loc 1 72 1 view .LVU16
  68 0018 38BD     		pop	{r3, r4, r5, pc}
  69              	.LVL4:
  70              	.L6:
  71              		.loc 1 66 5 is_stmt 1 view .LVU17
  72              	.LBB8:
  73              	.LBI8:
  74              		.file 2 "./ChibiOS/os/hal/osal/rt-nil/osal.h"
  75              		.loc 2 956 20 view .LVU18
  76              	.LBB9:
  77              		.loc 2 959 3 view .LVU19
  78 001a 0421     		movs	r1, #4
  79              	.LVL5:
  80              		.loc 2 959 3 is_stmt 0 view .LVU20
  81 001c 0844     		add	r0, r0, r1
  82              	.LVL6:
  83              		.loc 2 959 3 view .LVU21
  84 001e FFF7FEFF 		bl	chEvtBroadcastFlagsI
  85              	.LVL7:
  86              		.loc 2 959 3 view .LVU22
  87              	.LBE9:
  88              	.LBE8:
  89              		.loc 1 66 43 is_stmt 1 view .LVU23
  90              		.loc 1 69 3 view .LVU24
  91              		.loc 1 69 7 is_stmt 0 view .LVU25
  92 0022 2946     		mov	r1, r5
  93 0024 04F10C00 		add	r0, r4, #12
  94 0028 FFF7FEFF 		bl	iqPutI
  95              	.LVL8:
  96              		.loc 1 69 6 view .LVU26
  97 002c 0028     		cmp	r0, #0
  98 002e F3DA     		bge	.L1
  99              	.L7:
 100              		.loc 1 70 5 is_stmt 1 view .LVU27
 101              	.LVL9:
 102              	.LBB10:
 103              	.LBI10:
 104              		.loc 2 956 20 view .LVU28
 105              	.LBB11:
 106              		.loc 2 959 3 view .LVU29
 107 0030 201D     		adds	r0, r4, #4
 108              	.LVL10:
 109              		.loc 2 959 3 is_stmt 0 view .LVU30
 110 0032 4FF40061 		mov	r1, #2048
 111              	.LBE11:
 112              	.LBE10:
 113              		.loc 1 72 1 view .LVU31
 114 0036 BDE83840 		pop	{r3, r4, r5, lr}
ARM GAS  C:\Users\DEVELO~1\AppData\Local\Temp\ccijDB21.s 			page 3


 115              		.cfi_restore 14
 116              		.cfi_restore 5
 117              		.cfi_restore 4
 118              		.cfi_restore 3
 119              		.cfi_def_cfa_offset 0
 120              	.LVL11:
 121              	.LBB13:
 122              	.LBB12:
 123              		.loc 2 959 3 view .LVU32
 124 003a FFF7FEBF 		b	chEvtBroadcastFlagsI
 125              	.LVL12:
 126              		.loc 2 959 3 view .LVU33
 127              	.LBE12:
 128              	.LBE13:
 129              		.cfi_endproc
 130              	.LFE448:
 131              		.size	bsIncomingDataI, .-bsIncomingDataI
 132 003e 00BF     		.section	.text.bsRequestDataI,"ax",%progbits
 133              		.align	1
 134              		.p2align 4,,15
 135              		.global	bsRequestDataI
 136              		.syntax unified
 137              		.thumb
 138              		.thumb_func
 139              		.type	bsRequestDataI, %function
 140              	bsRequestDataI:
 141              	.LVL13:
 142              	.LFB449:
 143              		.loc 1 88 43 is_stmt 1 view -0
 144              		.cfi_startproc
 145              		@ args = 0, pretend = 0, frame = 0
 146              		@ frame_needed = 0, uses_anonymous_args = 0
 147              		.loc 1 89 3 view .LVU35
 148              		.loc 1 91 23 view .LVU36
 149              		.loc 1 92 3 view .LVU37
 150              		.loc 1 92 3 view .LVU38
 151              		.loc 1 92 3 view .LVU39
 152              		.loc 1 94 3 view .LVU40
 153              		.loc 1 88 43 is_stmt 0 view .LVU41
 154 0000 38B5     		push	{r3, r4, r5, lr}
 155              		.cfi_def_cfa_offset 16
 156              		.cfi_offset 3, -16
 157              		.cfi_offset 4, -12
 158              		.cfi_offset 5, -8
 159              		.cfi_offset 14, -4
 160              		.loc 1 88 43 view .LVU42
 161 0002 0546     		mov	r5, r0
 162              		.loc 1 94 7 view .LVU43
 163 0004 3030     		adds	r0, r0, #48
 164              	.LVL14:
 165              		.loc 1 94 7 view .LVU44
 166 0006 FFF7FEFF 		bl	oqGetI
 167              	.LVL15:
 168              		.loc 1 95 3 is_stmt 1 view .LVU45
 169              		.loc 1 95 6 is_stmt 0 view .LVU46
 170 000a 041E     		subs	r4, r0, #0
 171 000c 01DB     		blt	.L11
ARM GAS  C:\Users\DEVELO~1\AppData\Local\Temp\ccijDB21.s 			page 4


 172              		.loc 1 100 1 view .LVU47
 173 000e 2046     		mov	r0, r4
 174              		.loc 1 100 1 view .LVU48
 175 0010 38BD     		pop	{r3, r4, r5, pc}
 176              	.LVL16:
 177              	.L11:
 178              		.loc 1 96 5 is_stmt 1 view .LVU49
 179              	.LBB14:
 180              	.LBI14:
 181              		.loc 2 956 20 view .LVU50
 182              	.LBB15:
 183              		.loc 2 959 3 view .LVU51
 184 0012 281D     		adds	r0, r5, #4
 185              	.LVL17:
 186              		.loc 2 959 3 is_stmt 0 view .LVU52
 187 0014 0821     		movs	r1, #8
 188 0016 FFF7FEFF 		bl	chEvtBroadcastFlagsI
 189              	.LVL18:
 190              		.loc 2 959 3 view .LVU53
 191              	.LBE15:
 192              	.LBE14:
 193              		.loc 1 96 40 is_stmt 1 view .LVU54
 194              		.loc 1 99 3 view .LVU55
 195              		.loc 1 100 1 is_stmt 0 view .LVU56
 196 001a 2046     		mov	r0, r4
 197 001c 38BD     		pop	{r3, r4, r5, pc}
 198              		.loc 1 100 1 view .LVU57
 199              		.cfi_endproc
 200              	.LFE449:
 201              		.size	bsRequestDataI, .-bsRequestDataI
 202 001e 00BF     		.text
 203              	.Letext0:
 204              		.file 3 "c:\\chibistudio\\tools\\gnu tools arm embedded\\11.3 2022.08\\lib\\gcc\\arm-none-eabi\\11
 205              		.file 4 "c:\\chibistudio\\tools\\gnu tools arm embedded\\11.3 2022.08\\arm-none-eabi\\include\\mac
 206              		.file 5 "c:\\chibistudio\\tools\\gnu tools arm embedded\\11.3 2022.08\\arm-none-eabi\\include\\sys
 207              		.file 6 "./ChibiOS/os/common/ports/ARM-common/include/chtypes.h"
 208              		.file 7 "./ChibiOS/os/rt/include/chearly.h"
 209              		.file 8 "./ChibiOS/os/rt/include/chobjects.h"
 210              		.file 9 "./ChibiOS/os/rt/include/chrfcu.h"
 211              		.file 10 "./ChibiOS/os/rt/include/chdebug.h"
 212              		.file 11 "./ChibiOS/os/rt/include/chtime.h"
 213              		.file 12 "./ChibiOS/os/rt/include/chtrace.h"
 214              		.file 13 "./ChibiOS/os/common/ports/ARMv7-M/chcore.h"
 215              		.file 14 "./ChibiOS/os/rt/include/chlists.h"
 216              		.file 15 "./ChibiOS/os/rt/include/chsem.h"
 217              		.file 16 "./ChibiOS/os/rt/include/chmtx.h"
 218              		.file 17 "./ChibiOS/os/rt/include/chevents.h"
 219              		.file 18 "./ChibiOS/os/hal/include/hal_queues.h"
 220              		.file 19 "./ChibiOS/os/hal/include/hal_buffered_serial.h"