ARM GAS  C:\Users\DEVELO~1\AppData\Local\Temp\ccfX5QOj.s 			page 1


   1              		.cpu cortex-m7
   2              		.arch armv7e-m
   3              		.fpu softvfp
   4              		.eabi_attribute 20, 1
   5              		.eabi_attribute 21, 1
   6              		.eabi_attribute 23, 3
   7              		.eabi_attribute 24, 1
   8              		.eabi_attribute 25, 1
   9              		.eabi_attribute 26, 1
  10              		.eabi_attribute 30, 2
  11              		.eabi_attribute 34, 1
  12              		.eabi_attribute 18, 4
  13              		.file	"hal_st_lld.c"
  14              		.text
  15              	.Ltext0:
  16              		.cfi_sections	.debug_frame
  17              		.section	.text.st_lld_init,"ax",%progbits
  18              		.align	1
  19              		.p2align 4,,15
  20              		.global	st_lld_init
  21              		.syntax unified
  22              		.thumb
  23              		.thumb_func
  24              		.type	st_lld_init, %function
  25              	st_lld_init:
  26              	.LFB448:
  27              		.file 1 "./ChibiOS/os/hal/ports/STM32/LLD/SYSTICKv1/hal_st_lld.c"
  28              		.loc 1 398 24 view -0
  29              		.cfi_startproc
  30              		@ args = 0, pretend = 0, frame = 0
  31              		@ frame_needed = 0, uses_anonymous_args = 0
  32              		@ link register save eliminated.
  33              		.loc 1 402 3 view .LVU1
  34              		.loc 1 402 3 view .LVU2
  35              		.loc 1 402 3 view .LVU3
  36              		.loc 1 404 3 view .LVU4
  37              		.loc 1 404 3 view .LVU5
  38              		.loc 1 404 3 view .LVU6
  39              		.loc 1 408 3 view .LVU7
  40              	.LVL0:
  41              	.LBB54:
  42              	.LBI54:
  43              		.file 2 "./ChibiOS/os/hal/ports/STM32/STM32H7xx/stm32_rcc.h"
  44              		.loc 2 141 22 view .LVU8
  45              	.LBB55:
  46              		.loc 2 145 3 view .LVU9
  47              		.loc 2 145 20 is_stmt 0 view .LVU10
  48 0000 124A     		ldr	r2, .L4
  49              	.LBE55:
  50              	.LBE54:
  51              		.loc 1 414 24 view .LVU11
  52 0002 4FF08043 		mov	r3, #1073741824
  53              		.loc 1 416 24 view .LVU12
  54 0006 0021     		movs	r1, #0
  55              	.LBB61:
  56              	.LBB56:
  57              		.loc 2 145 20 view .LVU13
ARM GAS  C:\Users\DEVELO~1\AppData\Local\Temp\ccfX5QOj.s 			page 2


  58 0008 D2F8E800 		ldr	r0, [r2, #232]
  59 000c 40F00100 		orr	r0, r0, #1
  60              	.LBE56:
  61              	.LBE61:
  62              		.loc 1 398 24 view .LVU14
  63 0010 30B4     		push	{r4, r5}
  64              		.cfi_def_cfa_offset 8
  65              		.cfi_offset 4, -8
  66              		.cfi_offset 5, -4
  67              	.LBB62:
  68              	.LBB57:
  69              		.loc 2 145 20 view .LVU15
  70 0012 C2F8E800 		str	r0, [r2, #232]
  71              		.loc 2 146 3 is_stmt 1 view .LVU16
  72              		.loc 2 147 5 view .LVU17
  73              	.LBE57:
  74              	.LBE62:
  75              		.loc 1 414 24 is_stmt 0 view .LVU18
  76 0016 44F61F65 		movw	r5, #19999
  77              	.LBB63:
  78              	.LBB58:
  79              		.loc 2 147 24 view .LVU19
  80 001a D2F81001 		ldr	r0, [r2, #272]
  81              	.LBE58:
  82              	.LBE63:
  83              		.loc 1 411 3 view .LVU20
  84 001e 0C4C     		ldr	r4, .L4+4
  85              	.LBB64:
  86              	.LBB59:
  87              		.loc 2 147 24 view .LVU21
  88 0020 40F00100 		orr	r0, r0, #1
  89 0024 C2F81001 		str	r0, [r2, #272]
  90              		.loc 2 152 3 is_stmt 1 view .LVU22
  91              	.LBE59:
  92              	.LBE64:
  93              		.loc 1 429 24 is_stmt 0 view .LVU23
  94 0028 0120     		movs	r0, #1
  95              	.LBB65:
  96              	.LBB60:
  97              		.loc 2 152 3 view .LVU24
  98 002a D2F81021 		ldr	r2, [r2, #272]
  99              	.LVL1:
 100              		.loc 2 152 3 view .LVU25
 101              	.LBE60:
 102              	.LBE65:
 103              		.loc 1 411 3 is_stmt 1 view .LVU26
 104 002e E26B     		ldr	r2, [r4, #60]
 105 0030 0243     		orrs	r2, r2, r0
 106 0032 E263     		str	r2, [r4, #60]
 107              		.loc 1 414 3 view .LVU27
 108              		.loc 1 415 24 is_stmt 0 view .LVU28
 109 0034 4FF0FF32 		mov	r2, #-1
 110              		.loc 1 414 24 view .LVU29
 111 0038 9D62     		str	r5, [r3, #40]
 112              		.loc 1 415 3 is_stmt 1 view .LVU30
 113              		.loc 1 415 24 is_stmt 0 view .LVU31
 114 003a DA62     		str	r2, [r3, #44]
ARM GAS  C:\Users\DEVELO~1\AppData\Local\Temp\ccfX5QOj.s 			page 3


 115              		.loc 1 416 3 is_stmt 1 view .LVU32
 116              		.loc 1 416 24 is_stmt 0 view .LVU33
 117 003c 9961     		str	r1, [r3, #24]
 118              		.loc 1 417 3 is_stmt 1 view .LVU34
 119              		.loc 1 417 24 is_stmt 0 view .LVU35
 120 003e 5963     		str	r1, [r3, #52]
 121              		.loc 1 427 3 is_stmt 1 view .LVU36
 122              		.loc 1 427 24 is_stmt 0 view .LVU37
 123 0040 D960     		str	r1, [r3, #12]
 124              		.loc 1 428 3 is_stmt 1 view .LVU38
 125              		.loc 1 428 24 is_stmt 0 view .LVU39
 126 0042 5960     		str	r1, [r3, #4]
 127              		.loc 1 429 3 is_stmt 1 view .LVU40
 128              		.loc 1 429 24 is_stmt 0 view .LVU41
 129 0044 5861     		str	r0, [r3, #20]
 130              		.loc 1 430 3 is_stmt 1 view .LVU42
 131              		.loc 1 430 24 is_stmt 0 view .LVU43
 132 0046 1860     		str	r0, [r3]
 133              		.loc 1 450 1 view .LVU44
 134 0048 30BC     		pop	{r4, r5}
 135              		.cfi_restore 5
 136              		.cfi_restore 4
 137              		.cfi_def_cfa_offset 0
 138 004a 7047     		bx	lr
 139              	.L5:
 140              		.align	2
 141              	.L4:
 142 004c 00440258 		.word	1476543488
 143 0050 0010005C 		.word	1543507968
 144              		.cfi_endproc
 145              	.LFE448:
 146              		.size	st_lld_init, .-st_lld_init
 147              		.section	.text.st_lld_serve_interrupt,"ax",%progbits
 148              		.align	1
 149              		.p2align 4,,15
 150              		.global	st_lld_serve_interrupt
 151              		.syntax unified
 152              		.thumb
 153              		.thumb_func
 154              		.type	st_lld_serve_interrupt, %function
 155              	st_lld_serve_interrupt:
 156              	.LFB449:
 157              		.loc 1 455 35 is_stmt 1 view -0
 158              		.cfi_startproc
 159              		@ args = 0, pretend = 0, frame = 0
 160              		@ frame_needed = 0, uses_anonymous_args = 0
 161              		.loc 1 457 3 view .LVU46
 162              		.loc 1 458 3 view .LVU47
 163              	.LVL2:
 164              		.loc 1 460 3 view .LVU48
 165              		.loc 1 460 7 is_stmt 0 view .LVU49
 166 0000 4FF08042 		mov	r2, #1073741824
 167              		.loc 1 455 35 view .LVU50
 168 0004 08B5     		push	{r3, lr}
 169              		.cfi_def_cfa_offset 8
 170              		.cfi_offset 3, -8
 171              		.cfi_offset 14, -4
ARM GAS  C:\Users\DEVELO~1\AppData\Local\Temp\ccfX5QOj.s 			page 4


 172              		.loc 1 460 7 view .LVU51
 173 0006 1169     		ldr	r1, [r2, #16]
 174              	.LVL3:
 175              		.loc 1 461 3 is_stmt 1 view .LVU52
 176              		.loc 1 461 13 is_stmt 0 view .LVU53
 177 0008 D368     		ldr	r3, [r2, #12]
 178 000a 0B40     		ands	r3, r3, r1
 179              	.LVL4:
 180              		.loc 1 462 3 is_stmt 1 view .LVU54
 181              		.loc 1 461 6 is_stmt 0 view .LVU55
 182 000c D9B2     		uxtb	r1, r3
 183              		.loc 1 464 6 view .LVU56
 184 000e 9B07     		lsls	r3, r3, #30
 185              	.LVL5:
 186              		.loc 1 462 14 view .LVU57
 187 0010 6FEA0101 		mvn	r1, r1
 188              		.loc 1 462 12 view .LVU58
 189 0014 1161     		str	r1, [r2, #16]
 190              		.loc 1 464 3 is_stmt 1 view .LVU59
 191              		.loc 1 464 6 is_stmt 0 view .LVU60
 192 0016 00D4     		bmi	.L12
 193              		.loc 1 494 1 view .LVU61
 194 0018 08BD     		pop	{r3, pc}
 195              	.L12:
 196              		.loc 1 467 5 is_stmt 1 view .LVU62
 197              	.LBB66:
 198              	.LBI66:
 199              		.file 3 "./ChibiOS/os/hal/osal/rt-nil/osal.h"
 200              		.loc 3 595 20 view .LVU63
 201              		.loc 3 597 3 view .LVU64
 202              	.LBB67:
 203              	.LBI67:
 204              		.file 4 "./ChibiOS/os/rt/include/chsys.h"
 205              		.loc 4 416 20 view .LVU65
 206              		.loc 4 418 3 view .LVU66
 207              	.LBB68:
 208              	.LBI68:
 209              		.file 5 "./ChibiOS/os/common/ports/ARMv7-M/chcore.h"
 210              		.loc 5 879 27 view .LVU67
 211              		.loc 5 881 3 view .LVU68
 212              	.LBB69:
 213              	.LBI69:
 214              		.loc 5 840 27 view .LVU69
 215              		.loc 5 848 3 view .LVU70
 216              	.LVL6:
 217              	.LBB70:
 218              	.LBI70:
 219              		.file 6 "./ChibiOS/os/common/ext/ARM/CMSIS/Core/Include/cmsis_gcc.h"
 220              		.loc 6 491 27 view .LVU71
 221              	.LBB71:
 222              		.loc 6 493 3 view .LVU72
 223 001a 3023     		movs	r3, #48
 224              		.syntax unified
 225              	@ 493 "./ChibiOS/os/common/ext/ARM/CMSIS/Core/Include/cmsis_gcc.h" 1
 226 001c 83F31188 		MSR basepri, r3
 227              	@ 0 "" 2
 228              	.LVL7:
ARM GAS  C:\Users\DEVELO~1\AppData\Local\Temp\ccfX5QOj.s 			page 5


 229              		.loc 6 493 3 is_stmt 0 view .LVU73
 230              		.thumb
 231              		.syntax unified
 232              	.LBE71:
 233              	.LBE70:
 234              	.LBE69:
 235              	.LBE68:
 236              		.loc 4 419 35 is_stmt 1 view .LVU74
 237              		.loc 4 420 30 view .LVU75
 238              	.LBE67:
 239              	.LBE66:
 240              		.loc 1 468 5 view .LVU76
 241              	.LBB72:
 242              	.LBI72:
 243              		.loc 3 665 20 view .LVU77
 244              	.LBB73:
 245              		.loc 3 667 3 view .LVU78
 246 0020 FFF7FEFF 		bl	chSysTimerHandlerI
 247              	.LVL8:
 248              	.LBE73:
 249              	.LBE72:
 250              		.loc 1 469 5 view .LVU79
 251              	.LBB74:
 252              	.LBI74:
 253              		.loc 3 606 20 view .LVU80
 254              	.LBB75:
 255              		.loc 3 608 3 view .LVU81
 256              	.LBB76:
 257              	.LBI76:
 258              		.loc 4 438 20 view .LVU82
 259              		.loc 4 440 32 view .LVU83
 260              		.loc 4 441 34 view .LVU84
 261              		.loc 4 442 3 view .LVU85
 262              	.LBB77:
 263              	.LBI77:
 264              		.loc 5 890 27 view .LVU86
 265              		.loc 5 892 3 view .LVU87
 266              	.LBB78:
 267              	.LBI78:
 268              		.loc 5 864 27 view .LVU88
 269              		.loc 5 867 3 view .LVU89
 270              	.LBB79:
 271              	.LBI79:
 272              		.loc 6 491 27 view .LVU90
 273              	.LBB80:
 274              		.loc 6 493 3 view .LVU91
 275 0024 0023     		movs	r3, #0
 276              		.syntax unified
 277              	@ 493 "./ChibiOS/os/common/ext/ARM/CMSIS/Core/Include/cmsis_gcc.h" 1
 278 0026 83F31188 		MSR basepri, r3
 279              	@ 0 "" 2
 280              	.LVL9:
 281              		.loc 6 493 3 is_stmt 0 view .LVU92
 282              		.thumb
 283              		.syntax unified
 284              	.LBE80:
 285              	.LBE79:
ARM GAS  C:\Users\DEVELO~1\AppData\Local\Temp\ccfX5QOj.s 			page 6


 286              	.LBE78:
 287              	.LBE77:
 288              	.LBE76:
 289              	.LBE75:
 290              	.LBE74:
 291              		.loc 1 494 1 view .LVU93
 292 002a 08BD     		pop	{r3, pc}
 293              		.cfi_endproc
 294              	.LFE449:
 295              		.size	st_lld_serve_interrupt, .-st_lld_serve_interrupt
 296              		.text
 297              	.Letext0:
 298              		.file 7 "c:\\chibistudio\\tools\\gnu tools arm embedded\\11.3 2022.08\\arm-none-eabi\\include\\mac
 299              		.file 8 "c:\\chibistudio\\tools\\gnu tools arm embedded\\11.3 2022.08\\arm-none-eabi\\include\\sys
 300              		.file 9 "./ChibiOS/os/common/ext/ST/STM32H7xx/stm32h743xx.h"
 301              		.file 10 "./ChibiOS/os/hal/ports/STM32/LLD/TIMv1/stm32_tim.h"
 302              		.section	.debug_info,"",%progbits
 303              	.Ldebug_info0:
 304 0000 E8080000 		.4byte	0x8e8
 305 0004 0500     		.2byte	0x5
 306 0006 01       		.byte	0x1
 307 0007 04       		.byte	0x4
 308 0008 00000000 		.4byte	.Ldebug_abbrev0
 309 000c 11       		.uleb128 0x11
 310 000d 37020000 		.4byte	.LASF107
 311 0011 1D       		.byte	0x1d
 312 0012 20000000 		.4byte	.LASF108
 313 0016 6F010000 		.4byte	.LASF109
 314 001a 24000000 		.4byte	.LLRL6
 315 001e 00000000 		.4byte	0
 316 0022 00000000 		.4byte	.Ldebug_line0
 317 0026 12       		.uleb128 0x12
 318 0027 04       		.byte	0x4
 319 0028 05       		.byte	0x5
 320 0029 696E7400 		.ascii	"int\000"
 321 002d 03       		.uleb128 0x3
 322 002e 04       		.byte	0x4
 323 002f 07       		.byte	0x7
 324 0030 0C020000 		.4byte	.LASF0
 325 0034 03       		.uleb128 0x3
 326 0035 08       		.byte	0x8
 327 0036 05       		.byte	0x5
 328 0037 04010000 		.4byte	.LASF1
 329 003b 03       		.uleb128 0x3
 330 003c 08       		.byte	0x8
 331 003d 04       		.byte	0x4
 332 003e A9040000 		.4byte	.LASF2
 333 0042 03       		.uleb128 0x3
 334 0043 01       		.byte	0x1
 335 0044 06       		.byte	0x6
 336 0045 12010000 		.4byte	.LASF3
 337 0049 03       		.uleb128 0x3
 338 004a 01       		.byte	0x1
 339 004b 08       		.byte	0x8
 340 004c 34040000 		.4byte	.LASF4
 341 0050 03       		.uleb128 0x3
 342 0051 02       		.byte	0x2
ARM GAS  C:\Users\DEVELO~1\AppData\Local\Temp\ccfX5QOj.s 			page 7


 343 0052 05       		.byte	0x5
 344 0053 42040000 		.4byte	.LASF5
 345 0057 03       		.uleb128 0x3
 346 0058 02       		.byte	0x2
 347 0059 07       		.byte	0x7
 348 005a EC020000 		.4byte	.LASF6
 349 005e 03       		.uleb128 0x3
 350 005f 04       		.byte	0x4
 351 0060 05       		.byte	0x5
 352 0061 89000000 		.4byte	.LASF7
 353 0065 0C       		.uleb128 0xc
 354 0066 D8010000 		.4byte	.LASF10
 355 006a 07       		.byte	0x7
 356 006b 4F       		.byte	0x4f
 357 006c 19       		.byte	0x19
 358 006d 71000000 		.4byte	0x71
 359 0071 03       		.uleb128 0x3
 360 0072 04       		.byte	0x4
 361 0073 07       		.byte	0x7
 362 0074 19020000 		.4byte	.LASF8
 363 0078 03       		.uleb128 0x3
 364 0079 08       		.byte	0x8
 365 007a 07       		.byte	0x7
 366 007b 9C000000 		.4byte	.LASF9
 367 007f 0C       		.uleb128 0xc
 368 0080 97040000 		.4byte	.LASF11
 369 0084 08       		.byte	0x8
 370 0085 30       		.byte	0x30
 371 0086 14       		.byte	0x14
 372 0087 65000000 		.4byte	0x65
 373 008b 0A       		.uleb128 0xa
 374 008c 7F000000 		.4byte	0x7f
 375 0090 03       		.uleb128 0x3
 376 0091 01       		.byte	0x1
 377 0092 08       		.byte	0x8
 378 0093 B5040000 		.4byte	.LASF12
 379 0097 0D       		.uleb128 0xd
 380 0098 90000000 		.4byte	0x90
 381 009c 07       		.uleb128 0x7
 382 009d 7F000000 		.4byte	0x7f
 383 00a1 AC000000 		.4byte	0xac
 384 00a5 08       		.uleb128 0x8
 385 00a6 2D000000 		.4byte	0x2d
 386 00aa 03       		.byte	0x3
 387 00ab 00       		.byte	0
 388 00ac 07       		.uleb128 0x7
 389 00ad 8B000000 		.4byte	0x8b
 390 00b1 BC000000 		.4byte	0xbc
 391 00b5 08       		.uleb128 0x8
 392 00b6 2D000000 		.4byte	0x2d
 393 00ba 03       		.byte	0x3
 394 00bb 00       		.byte	0
 395 00bc 0A       		.uleb128 0xa
 396 00bd AC000000 		.4byte	0xac
 397 00c1 07       		.uleb128 0x7
 398 00c2 8B000000 		.4byte	0x8b
 399 00c6 D1000000 		.4byte	0xd1
ARM GAS  C:\Users\DEVELO~1\AppData\Local\Temp\ccfX5QOj.s 			page 8


 400 00ca 08       		.uleb128 0x8
 401 00cb 2D000000 		.4byte	0x2d
 402 00cf 01       		.byte	0x1
 403 00d0 00       		.byte	0
 404 00d1 0A       		.uleb128 0xa
 405 00d2 C1000000 		.4byte	0xc1
 406 00d6 0E       		.uleb128 0xe
 407 00d7 58       		.byte	0x58
 408 00d8 09       		.byte	0x9
 409 00d9 0A02     		.2byte	0x20a
 410 00db 87010000 		.4byte	0x187
 411 00df 01       		.uleb128 0x1
 412 00e0 B3000000 		.4byte	.LASF13
 413 00e4 09       		.byte	0x9
 414 00e5 0C02     		.2byte	0x20c
 415 00e7 11       		.byte	0x11
 416 00e8 8B000000 		.4byte	0x8b
 417 00ec 00       		.byte	0
 418 00ed 02       		.uleb128 0x2
 419 00ee 435200   		.ascii	"CR\000"
 420 00f1 09       		.byte	0x9
 421 00f2 0D02     		.2byte	0x20d
 422 00f4 11       		.byte	0x11
 423 00f5 8B000000 		.4byte	0x8b
 424 00f9 04       		.byte	0x4
 425 00fa 01       		.uleb128 0x1
 426 00fb 8D040000 		.4byte	.LASF14
 427 00ff 09       		.byte	0x9
 428 0100 0E02     		.2byte	0x20e
 429 0102 0C       		.byte	0xc
 430 0103 87010000 		.4byte	0x187
 431 0107 08       		.byte	0x8
 432 0108 01       		.uleb128 0x1
 433 0109 6D050000 		.4byte	.LASF15
 434 010d 09       		.byte	0x9
 435 010e 0F02     		.2byte	0x20f
 436 0110 11       		.byte	0x11
 437 0111 8B000000 		.4byte	0x8b
 438 0115 34       		.byte	0x34
 439 0116 01       		.uleb128 0x1
 440 0117 EA030000 		.4byte	.LASF16
 441 011b 09       		.byte	0x9
 442 011c 1002     		.2byte	0x210
 443 011e 0C       		.byte	0xc
 444 011f 7F000000 		.4byte	0x7f
 445 0123 38       		.byte	0x38
 446 0124 01       		.uleb128 0x1
 447 0125 F9010000 		.4byte	.LASF17
 448 0129 09       		.byte	0x9
 449 012a 1102     		.2byte	0x211
 450 012c 11       		.byte	0x11
 451 012d 8B000000 		.4byte	0x8b
 452 0131 3C       		.byte	0x3c
 453 0132 01       		.uleb128 0x1
 454 0133 F4030000 		.4byte	.LASF18
 455 0137 09       		.byte	0x9
 456 0138 1202     		.2byte	0x212
ARM GAS  C:\Users\DEVELO~1\AppData\Local\Temp\ccfX5QOj.s 			page 9


 457 013a 0C       		.byte	0xc
 458 013b 7F000000 		.4byte	0x7f
 459 013f 40       		.byte	0x40
 460 0140 01       		.uleb128 0x1
 461 0141 A0040000 		.4byte	.LASF19
 462 0145 09       		.byte	0x9
 463 0146 1302     		.2byte	0x213
 464 0148 11       		.byte	0x11
 465 0149 8B000000 		.4byte	0x8b
 466 014d 44       		.byte	0x44
 467 014e 01       		.uleb128 0x1
 468 014f FE030000 		.4byte	.LASF20
 469 0153 09       		.byte	0x9
 470 0154 1402     		.2byte	0x214
 471 0156 0C       		.byte	0xc
 472 0157 7F000000 		.4byte	0x7f
 473 015b 48       		.byte	0x48
 474 015c 01       		.uleb128 0x1
 475 015d 70000000 		.4byte	.LASF21
 476 0161 09       		.byte	0x9
 477 0162 1502     		.2byte	0x215
 478 0164 11       		.byte	0x11
 479 0165 8B000000 		.4byte	0x8b
 480 0169 4C       		.byte	0x4c
 481 016a 01       		.uleb128 0x1
 482 016b 08040000 		.4byte	.LASF22
 483 016f 09       		.byte	0x9
 484 0170 1602     		.2byte	0x216
 485 0172 0C       		.byte	0xc
 486 0173 7F000000 		.4byte	0x7f
 487 0177 50       		.byte	0x50
 488 0178 01       		.uleb128 0x1
 489 0179 0D050000 		.4byte	.LASF23
 490 017d 09       		.byte	0x9
 491 017e 1702     		.2byte	0x217
 492 0180 11       		.byte	0x11
 493 0181 8B000000 		.4byte	0x8b
 494 0185 54       		.byte	0x54
 495 0186 00       		.byte	0
 496 0187 07       		.uleb128 0x7
 497 0188 7F000000 		.4byte	0x7f
 498 018c 97010000 		.4byte	0x197
 499 0190 08       		.uleb128 0x8
 500 0191 2D000000 		.4byte	0x2d
 501 0195 0A       		.byte	0xa
 502 0196 00       		.byte	0
 503 0197 0B       		.uleb128 0xb
 504 0198 7E040000 		.4byte	.LASF24
 505 019c 09       		.byte	0x9
 506 019d 1802     		.2byte	0x218
 507 019f 02       		.byte	0x2
 508 01a0 D6000000 		.4byte	0xd6
 509 01a4 07       		.uleb128 0x7
 510 01a5 7F000000 		.4byte	0x7f
 511 01a9 B4010000 		.4byte	0x1b4
 512 01ad 08       		.uleb128 0x8
 513 01ae 2D000000 		.4byte	0x2d
ARM GAS  C:\Users\DEVELO~1\AppData\Local\Temp\ccfX5QOj.s 			page 10


 514 01b2 08       		.byte	0x8
 515 01b3 00       		.byte	0
 516 01b4 13       		.uleb128 0x13
 517 01b5 3001     		.2byte	0x130
 518 01b7 09       		.byte	0x9
 519 01b8 CE04     		.2byte	0x4ce
 520 01ba 09       		.byte	0x9
 521 01bb 4D050000 		.4byte	0x54d
 522 01bf 02       		.uleb128 0x2
 523 01c0 435200   		.ascii	"CR\000"
 524 01c3 09       		.byte	0x9
 525 01c4 D004     		.2byte	0x4d0
 526 01c6 10       		.byte	0x10
 527 01c7 8B000000 		.4byte	0x8b
 528 01cb 00       		.byte	0
 529 01cc 01       		.uleb128 0x1
 530 01cd 09030000 		.4byte	.LASF25
 531 01d1 09       		.byte	0x9
 532 01d2 D104     		.2byte	0x4d1
 533 01d4 10       		.byte	0x10
 534 01d5 8B000000 		.4byte	0x8b
 535 01d9 04       		.byte	0x4
 536 01da 01       		.uleb128 0x1
 537 01db 41050000 		.4byte	.LASF26
 538 01df 09       		.byte	0x9
 539 01e0 D204     		.2byte	0x4d2
 540 01e2 10       		.byte	0x10
 541 01e3 8B000000 		.4byte	0x8b
 542 01e7 08       		.byte	0x8
 543 01e8 01       		.uleb128 0x1
 544 01e9 26050000 		.4byte	.LASF27
 545 01ed 09       		.byte	0x9
 546 01ee D304     		.2byte	0x4d3
 547 01f0 10       		.byte	0x10
 548 01f1 8B000000 		.4byte	0x8b
 549 01f5 0C       		.byte	0xc
 550 01f6 01       		.uleb128 0x1
 551 01f7 7D050000 		.4byte	.LASF28
 552 01fb 09       		.byte	0x9
 553 01fc D404     		.2byte	0x4d4
 554 01fe 10       		.byte	0x10
 555 01ff 8B000000 		.4byte	0x8b
 556 0203 10       		.byte	0x10
 557 0204 01       		.uleb128 0x1
 558 0205 C5030000 		.4byte	.LASF29
 559 0209 09       		.byte	0x9
 560 020a D504     		.2byte	0x4d5
 561 020c 0F       		.byte	0xf
 562 020d 7F000000 		.4byte	0x7f
 563 0211 14       		.byte	0x14
 564 0212 01       		.uleb128 0x1
 565 0213 99050000 		.4byte	.LASF30
 566 0217 09       		.byte	0x9
 567 0218 D604     		.2byte	0x4d6
 568 021a 10       		.byte	0x10
 569 021b 8B000000 		.4byte	0x8b
 570 021f 18       		.byte	0x18
ARM GAS  C:\Users\DEVELO~1\AppData\Local\Temp\ccfX5QOj.s 			page 11


 571 0220 01       		.uleb128 0x1
 572 0221 E3030000 		.4byte	.LASF31
 573 0225 09       		.byte	0x9
 574 0226 D704     		.2byte	0x4d7
 575 0228 10       		.byte	0x10
 576 0229 8B000000 		.4byte	0x8b
 577 022d 1C       		.byte	0x1c
 578 022e 01       		.uleb128 0x1
 579 022f 68010000 		.4byte	.LASF32
 580 0233 09       		.byte	0x9
 581 0234 D804     		.2byte	0x4d8
 582 0236 10       		.byte	0x10
 583 0237 8B000000 		.4byte	0x8b
 584 023b 20       		.byte	0x20
 585 023c 01       		.uleb128 0x1
 586 023d CF030000 		.4byte	.LASF33
 587 0241 09       		.byte	0x9
 588 0242 D904     		.2byte	0x4d9
 589 0244 0F       		.byte	0xf
 590 0245 7F000000 		.4byte	0x7f
 591 0249 24       		.byte	0x24
 592 024a 01       		.uleb128 0x1
 593 024b FF020000 		.4byte	.LASF34
 594 024f 09       		.byte	0x9
 595 0250 DA04     		.2byte	0x4da
 596 0252 10       		.byte	0x10
 597 0253 8B000000 		.4byte	0x8b
 598 0257 28       		.byte	0x28
 599 0258 01       		.uleb128 0x1
 600 0259 A8030000 		.4byte	.LASF35
 601 025d 09       		.byte	0x9
 602 025e DB04     		.2byte	0x4db
 603 0260 10       		.byte	0x10
 604 0261 8B000000 		.4byte	0x8b
 605 0265 2C       		.byte	0x2c
 606 0266 01       		.uleb128 0x1
 607 0267 17000000 		.4byte	.LASF36
 608 026b 09       		.byte	0x9
 609 026c DC04     		.2byte	0x4dc
 610 026e 10       		.byte	0x10
 611 026f 8B000000 		.4byte	0x8b
 612 0273 30       		.byte	0x30
 613 0274 01       		.uleb128 0x1
 614 0275 50010000 		.4byte	.LASF37
 615 0279 09       		.byte	0x9
 616 027a DD04     		.2byte	0x4dd
 617 027c 10       		.byte	0x10
 618 027d 8B000000 		.4byte	0x8b
 619 0281 34       		.byte	0x34
 620 0282 01       		.uleb128 0x1
 621 0283 2B040000 		.4byte	.LASF38
 622 0287 09       		.byte	0x9
 623 0288 DE04     		.2byte	0x4de
 624 028a 10       		.byte	0x10
 625 028b 8B000000 		.4byte	0x8b
 626 028f 38       		.byte	0x38
 627 0290 01       		.uleb128 0x1
ARM GAS  C:\Users\DEVELO~1\AppData\Local\Temp\ccfX5QOj.s 			page 12


 628 0291 02020000 		.4byte	.LASF39
 629 0295 09       		.byte	0x9
 630 0296 DF04     		.2byte	0x4df
 631 0298 10       		.byte	0x10
 632 0299 8B000000 		.4byte	0x8b
 633 029d 3C       		.byte	0x3c
 634 029e 01       		.uleb128 0x1
 635 029f CF010000 		.4byte	.LASF40
 636 02a3 09       		.byte	0x9
 637 02a4 E004     		.2byte	0x4e0
 638 02a6 10       		.byte	0x10
 639 02a7 8B000000 		.4byte	0x8b
 640 02ab 40       		.byte	0x40
 641 02ac 01       		.uleb128 0x1
 642 02ad 4C030000 		.4byte	.LASF41
 643 02b1 09       		.byte	0x9
 644 02b2 E104     		.2byte	0x4e1
 645 02b4 10       		.byte	0x10
 646 02b5 8B000000 		.4byte	0x8b
 647 02b9 44       		.byte	0x44
 648 02ba 01       		.uleb128 0x1
 649 02bb D9030000 		.4byte	.LASF42
 650 02bf 09       		.byte	0x9
 651 02c0 E204     		.2byte	0x4e2
 652 02c2 10       		.byte	0x10
 653 02c3 7F000000 		.4byte	0x7f
 654 02c7 48       		.byte	0x48
 655 02c8 01       		.uleb128 0x1
 656 02c9 8B050000 		.4byte	.LASF43
 657 02cd 09       		.byte	0x9
 658 02ce E304     		.2byte	0x4e3
 659 02d0 11       		.byte	0x11
 660 02d1 8B000000 		.4byte	0x8b
 661 02d5 4C       		.byte	0x4c
 662 02d6 01       		.uleb128 0x1
 663 02d7 E8010000 		.4byte	.LASF44
 664 02db 09       		.byte	0x9
 665 02dc E404     		.2byte	0x4e4
 666 02de 11       		.byte	0x11
 667 02df 8B000000 		.4byte	0x8b
 668 02e3 50       		.byte	0x50
 669 02e4 01       		.uleb128 0x1
 670 02e5 23030000 		.4byte	.LASF45
 671 02e9 09       		.byte	0x9
 672 02ea E504     		.2byte	0x4e5
 673 02ec 11       		.byte	0x11
 674 02ed 8B000000 		.4byte	0x8b
 675 02f1 54       		.byte	0x54
 676 02f2 01       		.uleb128 0x1
 677 02f3 F1010000 		.4byte	.LASF46
 678 02f7 09       		.byte	0x9
 679 02f8 E604     		.2byte	0x4e6
 680 02fa 11       		.byte	0x11
 681 02fb 8B000000 		.4byte	0x8b
 682 02ff 58       		.byte	0x58
 683 0300 01       		.uleb128 0x1
 684 0301 8D040000 		.4byte	.LASF14
ARM GAS  C:\Users\DEVELO~1\AppData\Local\Temp\ccfX5QOj.s 			page 13


 685 0305 09       		.byte	0x9
 686 0306 E704     		.2byte	0x4e7
 687 0308 10       		.byte	0x10
 688 0309 7F000000 		.4byte	0x7f
 689 030d 5C       		.byte	0x5c
 690 030e 01       		.uleb128 0x1
 691 030f F0000000 		.4byte	.LASF47
 692 0313 09       		.byte	0x9
 693 0314 E804     		.2byte	0x4e8
 694 0316 11       		.byte	0x11
 695 0317 8B000000 		.4byte	0x8b
 696 031b 60       		.byte	0x60
 697 031c 01       		.uleb128 0x1
 698 031d CA010000 		.4byte	.LASF48
 699 0321 09       		.byte	0x9
 700 0322 E904     		.2byte	0x4e9
 701 0324 11       		.byte	0x11
 702 0325 8B000000 		.4byte	0x8b
 703 0329 64       		.byte	0x64
 704 032a 01       		.uleb128 0x1
 705 032b 52050000 		.4byte	.LASF49
 706 032f 09       		.byte	0x9
 707 0330 EA04     		.2byte	0x4ea
 708 0332 11       		.byte	0x11
 709 0333 8B000000 		.4byte	0x8b
 710 0337 68       		.byte	0x68
 711 0338 01       		.uleb128 0x1
 712 0339 EA030000 		.4byte	.LASF16
 713 033d 09       		.byte	0x9
 714 033e EB04     		.2byte	0x4eb
 715 0340 0F       		.byte	0xf
 716 0341 7F000000 		.4byte	0x7f
 717 0345 6C       		.byte	0x6c
 718 0346 01       		.uleb128 0x1
 719 0347 57050000 		.4byte	.LASF50
 720 034b 09       		.byte	0x9
 721 034c EC04     		.2byte	0x4ec
 722 034e 11       		.byte	0x11
 723 034f 8B000000 		.4byte	0x8b
 724 0353 70       		.byte	0x70
 725 0354 02       		.uleb128 0x2
 726 0355 43535200 		.ascii	"CSR\000"
 727 0359 09       		.byte	0x9
 728 035a ED04     		.2byte	0x4ed
 729 035c 11       		.byte	0x11
 730 035d 8B000000 		.4byte	0x8b
 731 0361 74       		.byte	0x74
 732 0362 01       		.uleb128 0x1
 733 0363 F4030000 		.4byte	.LASF18
 734 0367 09       		.byte	0x9
 735 0368 EE04     		.2byte	0x4ee
 736 036a 0F       		.byte	0xf
 737 036b 7F000000 		.4byte	0x7f
 738 036f 78       		.byte	0x78
 739 0370 01       		.uleb128 0x1
 740 0371 11030000 		.4byte	.LASF51
 741 0375 09       		.byte	0x9
ARM GAS  C:\Users\DEVELO~1\AppData\Local\Temp\ccfX5QOj.s 			page 14


 742 0376 EF04     		.2byte	0x4ef
 743 0378 10       		.byte	0x10
 744 0379 8B000000 		.4byte	0x8b
 745 037d 7C       		.byte	0x7c
 746 037e 01       		.uleb128 0x1
 747 037f 1E010000 		.4byte	.LASF52
 748 0383 09       		.byte	0x9
 749 0384 F004     		.2byte	0x4f0
 750 0386 10       		.byte	0x10
 751 0387 8B000000 		.4byte	0x8b
 752 038b 80       		.byte	0x80
 753 038c 01       		.uleb128 0x1
 754 038d C4040000 		.4byte	.LASF53
 755 0391 09       		.byte	0x9
 756 0392 F104     		.2byte	0x4f1
 757 0394 10       		.byte	0x10
 758 0395 8B000000 		.4byte	0x8b
 759 0399 84       		.byte	0x84
 760 039a 01       		.uleb128 0x1
 761 039b F5000000 		.4byte	.LASF54
 762 039f 09       		.byte	0x9
 763 03a0 F204     		.2byte	0x4f2
 764 03a2 10       		.byte	0x10
 765 03a3 8B000000 		.4byte	0x8b
 766 03a7 88       		.byte	0x88
 767 03a8 01       		.uleb128 0x1
 768 03a9 1D050000 		.4byte	.LASF55
 769 03ad 09       		.byte	0x9
 770 03ae F304     		.2byte	0x4f3
 771 03b0 10       		.byte	0x10
 772 03b1 8B000000 		.4byte	0x8b
 773 03b5 8C       		.byte	0x8c
 774 03b6 01       		.uleb128 0x1
 775 03b7 38030000 		.4byte	.LASF56
 776 03bb 09       		.byte	0x9
 777 03bc F404     		.2byte	0x4f4
 778 03be 10       		.byte	0x10
 779 03bf 8B000000 		.4byte	0x8b
 780 03c3 90       		.byte	0x90
 781 03c4 01       		.uleb128 0x1
 782 03c5 8A030000 		.4byte	.LASF57
 783 03c9 09       		.byte	0x9
 784 03ca F504     		.2byte	0x4f5
 785 03cc 10       		.byte	0x10
 786 03cd 8B000000 		.4byte	0x8b
 787 03d1 94       		.byte	0x94
 788 03d2 01       		.uleb128 0x1
 789 03d3 5A010000 		.4byte	.LASF58
 790 03d7 09       		.byte	0x9
 791 03d8 F604     		.2byte	0x4f6
 792 03da 10       		.byte	0x10
 793 03db 8B000000 		.4byte	0x8b
 794 03df 98       		.byte	0x98
 795 03e0 01       		.uleb128 0x1
 796 03e1 65030000 		.4byte	.LASF59
 797 03e5 09       		.byte	0x9
 798 03e6 F704     		.2byte	0x4f7
ARM GAS  C:\Users\DEVELO~1\AppData\Local\Temp\ccfX5QOj.s 			page 15


 799 03e8 10       		.byte	0x10
 800 03e9 8B000000 		.4byte	0x8b
 801 03ed 9C       		.byte	0x9c
 802 03ee 02       		.uleb128 0x2
 803 03ef 47435200 		.ascii	"GCR\000"
 804 03f3 09       		.byte	0x9
 805 03f4 F804     		.2byte	0x4f8
 806 03f6 10       		.byte	0x10
 807 03f7 8B000000 		.4byte	0x8b
 808 03fb A0       		.byte	0xa0
 809 03fc 01       		.uleb128 0x1
 810 03fd 08040000 		.4byte	.LASF22
 811 0401 09       		.byte	0x9
 812 0402 F904     		.2byte	0x4f9
 813 0404 0F       		.byte	0xf
 814 0405 7F000000 		.4byte	0x7f
 815 0409 A4       		.byte	0xa4
 816 040a 01       		.uleb128 0x1
 817 040b BA000000 		.4byte	.LASF60
 818 040f 09       		.byte	0x9
 819 0410 FA04     		.2byte	0x4fa
 820 0412 10       		.byte	0x10
 821 0413 8B000000 		.4byte	0x8b
 822 0417 A8       		.byte	0xa8
 823 0418 01       		.uleb128 0x1
 824 0419 2F010000 		.4byte	.LASF61
 825 041d 09       		.byte	0x9
 826 041e FB04     		.2byte	0x4fb
 827 0420 0F       		.byte	0xf
 828 0421 A4010000 		.4byte	0x1a4
 829 0425 AC       		.byte	0xac
 830 0426 02       		.uleb128 0x2
 831 0427 52535200 		.ascii	"RSR\000"
 832 042b 09       		.byte	0x9
 833 042c FC04     		.2byte	0x4fc
 834 042e 10       		.byte	0x10
 835 042f 8B000000 		.4byte	0x8b
 836 0433 D0       		.byte	0xd0
 837 0434 01       		.uleb128 0x1
 838 0435 71040000 		.4byte	.LASF62
 839 0439 09       		.byte	0x9
 840 043a FD04     		.2byte	0x4fd
 841 043c 10       		.byte	0x10
 842 043d 8B000000 		.4byte	0x8b
 843 0441 D4       		.byte	0xd4
 844 0442 01       		.uleb128 0x1
 845 0443 75050000 		.4byte	.LASF63
 846 0447 09       		.byte	0x9
 847 0448 FE04     		.2byte	0x4fe
 848 044a 10       		.byte	0x10
 849 044b 8B000000 		.4byte	0x8b
 850 044f D8       		.byte	0xd8
 851 0450 01       		.uleb128 0x1
 852 0451 15050000 		.4byte	.LASF64
 853 0455 09       		.byte	0x9
 854 0456 FF04     		.2byte	0x4ff
 855 0458 10       		.byte	0x10
ARM GAS  C:\Users\DEVELO~1\AppData\Local\Temp\ccfX5QOj.s 			page 16


 856 0459 8B000000 		.4byte	0x8b
 857 045d DC       		.byte	0xdc
 858 045e 01       		.uleb128 0x1
 859 045f BD030000 		.4byte	.LASF65
 860 0463 09       		.byte	0x9
 861 0464 0005     		.2byte	0x500
 862 0466 10       		.byte	0x10
 863 0467 8B000000 		.4byte	0x8b
 864 046b E0       		.byte	0xe0
 865 046c 01       		.uleb128 0x1
 866 046d B5030000 		.4byte	.LASF66
 867 0471 09       		.byte	0x9
 868 0472 0105     		.2byte	0x501
 869 0474 10       		.byte	0x10
 870 0475 8B000000 		.4byte	0x8b
 871 0479 E4       		.byte	0xe4
 872 047a 01       		.uleb128 0x1
 873 047b 82050000 		.4byte	.LASF67
 874 047f 09       		.byte	0x9
 875 0480 0205     		.2byte	0x502
 876 0482 10       		.byte	0x10
 877 0483 8B000000 		.4byte	0x8b
 878 0487 E8       		.byte	0xe8
 879 0488 01       		.uleb128 0x1
 880 0489 1A030000 		.4byte	.LASF68
 881 048d 09       		.byte	0x9
 882 048e 0305     		.2byte	0x503
 883 0490 10       		.byte	0x10
 884 0491 8B000000 		.4byte	0x8b
 885 0495 EC       		.byte	0xec
 886 0496 01       		.uleb128 0x1
 887 0497 69040000 		.4byte	.LASF69
 888 049b 09       		.byte	0x9
 889 049c 0405     		.2byte	0x504
 890 049e 10       		.byte	0x10
 891 049f 8B000000 		.4byte	0x8b
 892 04a3 F0       		.byte	0xf0
 893 04a4 01       		.uleb128 0x1
 894 04a5 82030000 		.4byte	.LASF70
 895 04a9 09       		.byte	0x9
 896 04aa 0505     		.2byte	0x505
 897 04ac 10       		.byte	0x10
 898 04ad 8B000000 		.4byte	0x8b
 899 04b1 F4       		.byte	0xf4
 900 04b2 01       		.uleb128 0x1
 901 04b3 3A010000 		.4byte	.LASF71
 902 04b7 09       		.byte	0x9
 903 04b8 0605     		.2byte	0x506
 904 04ba 10       		.byte	0x10
 905 04bb 7F000000 		.4byte	0x7f
 906 04bf F8       		.byte	0xf8
 907 04c0 01       		.uleb128 0x1
 908 04c1 4C040000 		.4byte	.LASF72
 909 04c5 09       		.byte	0x9
 910 04c6 0705     		.2byte	0x507
 911 04c8 10       		.byte	0x10
 912 04c9 8B000000 		.4byte	0x8b
ARM GAS  C:\Users\DEVELO~1\AppData\Local\Temp\ccfX5QOj.s 			page 17


 913 04cd FC       		.byte	0xfc
 914 04ce 04       		.uleb128 0x4
 915 04cf E6000000 		.4byte	.LASF73
 916 04d3 0805     		.2byte	0x508
 917 04d5 10       		.byte	0x10
 918 04d6 8B000000 		.4byte	0x8b
 919 04da 0001     		.2byte	0x100
 920 04dc 04       		.uleb128 0x4
 921 04dd 94030000 		.4byte	.LASF74
 922 04e1 0905     		.2byte	0x509
 923 04e3 10       		.byte	0x10
 924 04e4 8B000000 		.4byte	0x8b
 925 04e8 0401     		.2byte	0x104
 926 04ea 04       		.uleb128 0x4
 927 04eb F5040000 		.4byte	.LASF75
 928 04ef 0A05     		.2byte	0x50a
 929 04f1 10       		.byte	0x10
 930 04f2 8B000000 		.4byte	0x8b
 931 04f6 0801     		.2byte	0x108
 932 04f8 04       		.uleb128 0x4
 933 04f9 9E030000 		.4byte	.LASF76
 934 04fd 0B05     		.2byte	0x50b
 935 04ff 10       		.byte	0x10
 936 0500 8B000000 		.4byte	0x8b
 937 0504 0C01     		.2byte	0x10c
 938 0506 04       		.uleb128 0x4
 939 0507 47050000 		.4byte	.LASF77
 940 050b 0C05     		.2byte	0x50c
 941 050d 10       		.byte	0x10
 942 050e 8B000000 		.4byte	0x8b
 943 0512 1001     		.2byte	0x110
 944 0514 04       		.uleb128 0x4
 945 0515 7E000000 		.4byte	.LASF78
 946 0519 0D05     		.2byte	0x50d
 947 051b 10       		.byte	0x10
 948 051c 8B000000 		.4byte	0x8b
 949 0520 1401     		.2byte	0x114
 950 0522 04       		.uleb128 0x4
 951 0523 42030000 		.4byte	.LASF79
 952 0527 0E05     		.2byte	0x50e
 953 0529 10       		.byte	0x10
 954 052a 8B000000 		.4byte	0x8b
 955 052e 1801     		.2byte	0x118
 956 0530 04       		.uleb128 0x4
 957 0531 56040000 		.4byte	.LASF80
 958 0535 0F05     		.2byte	0x50f
 959 0537 10       		.byte	0x10
 960 0538 8B000000 		.4byte	0x8b
 961 053c 1C01     		.2byte	0x11c
 962 053e 04       		.uleb128 0x4
 963 053f 45010000 		.4byte	.LASF81
 964 0543 1005     		.2byte	0x510
 965 0545 0F       		.byte	0xf
 966 0546 9C000000 		.4byte	0x9c
 967 054a 2001     		.2byte	0x120
 968 054c 00       		.byte	0
 969 054d 0B       		.uleb128 0xb
ARM GAS  C:\Users\DEVELO~1\AppData\Local\Temp\ccfX5QOj.s 			page 18


 970 054e 2B020000 		.4byte	.LASF82
 971 0552 09       		.byte	0x9
 972 0553 1205     		.2byte	0x512
 973 0555 03       		.byte	0x3
 974 0556 B4010000 		.4byte	0x1b4
 975 055a 03       		.uleb128 0x3
 976 055b 01       		.byte	0x1
 977 055c 02       		.byte	0x2
 978 055d 25040000 		.4byte	.LASF83
 979 0561 0E       		.uleb128 0xe
 980 0562 60       		.byte	0x60
 981 0563 0A       		.byte	0xa
 982 0564 F601     		.2byte	0x1f6
 983 0566 81060000 		.4byte	0x681
 984 056a 02       		.uleb128 0x2
 985 056b 43523100 		.ascii	"CR1\000"
 986 056f 0A       		.byte	0xa
 987 0570 F701     		.2byte	0x1f7
 988 0572 19       		.byte	0x19
 989 0573 8B000000 		.4byte	0x8b
 990 0577 00       		.byte	0
 991 0578 02       		.uleb128 0x2
 992 0579 43523200 		.ascii	"CR2\000"
 993 057d 0A       		.byte	0xa
 994 057e F801     		.2byte	0x1f8
 995 0580 19       		.byte	0x19
 996 0581 8B000000 		.4byte	0x8b
 997 0585 04       		.byte	0x4
 998 0586 01       		.uleb128 0x1
 999 0587 BA040000 		.4byte	.LASF84
 1000 058b 0A       		.byte	0xa
 1001 058c F901     		.2byte	0x1f9
 1002 058e 19       		.byte	0x19
 1003 058f 8B000000 		.4byte	0x8b
 1004 0593 08       		.byte	0x8
 1005 0594 01       		.uleb128 0x1
 1006 0595 58000000 		.4byte	.LASF85
 1007 0599 0A       		.byte	0xa
 1008 059a FA01     		.2byte	0x1fa
 1009 059c 19       		.byte	0x19
 1010 059d 8B000000 		.4byte	0x8b
 1011 05a1 0C       		.byte	0xc
 1012 05a2 02       		.uleb128 0x2
 1013 05a3 535200   		.ascii	"SR\000"
 1014 05a6 0A       		.byte	0xa
 1015 05a7 FB01     		.2byte	0x1fb
 1016 05a9 19       		.byte	0x19
 1017 05aa 8B000000 		.4byte	0x8b
 1018 05ae 10       		.byte	0x10
 1019 05af 02       		.uleb128 0x2
 1020 05b0 45475200 		.ascii	"EGR\000"
 1021 05b4 0A       		.byte	0xa
 1022 05b5 FC01     		.2byte	0x1fc
 1023 05b7 19       		.byte	0x19
 1024 05b8 8B000000 		.4byte	0x8b
 1025 05bc 14       		.byte	0x14
 1026 05bd 01       		.uleb128 0x1
ARM GAS  C:\Users\DEVELO~1\AppData\Local\Temp\ccfX5QOj.s 			page 19


 1027 05be 93050000 		.4byte	.LASF86
 1028 05c2 0A       		.byte	0xa
 1029 05c3 FD01     		.2byte	0x1fd
 1030 05c5 19       		.byte	0x19
 1031 05c6 8B000000 		.4byte	0x8b
 1032 05ca 18       		.byte	0x18
 1033 05cb 01       		.uleb128 0x1
 1034 05cc FE000000 		.4byte	.LASF87
 1035 05d0 0A       		.byte	0xa
 1036 05d1 FE01     		.2byte	0x1fe
 1037 05d3 19       		.byte	0x19
 1038 05d4 8B000000 		.4byte	0x8b
 1039 05d8 1C       		.byte	0x1c
 1040 05d9 01       		.uleb128 0x1
 1041 05da 63010000 		.4byte	.LASF88
 1042 05de 0A       		.byte	0xa
 1043 05df FF01     		.2byte	0x1ff
 1044 05e1 19       		.byte	0x19
 1045 05e2 8B000000 		.4byte	0x8b
 1046 05e6 20       		.byte	0x20
 1047 05e7 02       		.uleb128 0x2
 1048 05e8 434E5400 		.ascii	"CNT\000"
 1049 05ec 0A       		.byte	0xa
 1050 05ed 0002     		.2byte	0x200
 1051 05ef 19       		.byte	0x19
 1052 05f0 8B000000 		.4byte	0x8b
 1053 05f4 24       		.byte	0x24
 1054 05f5 02       		.uleb128 0x2
 1055 05f6 50534300 		.ascii	"PSC\000"
 1056 05fa 0A       		.byte	0xa
 1057 05fb 0102     		.2byte	0x201
 1058 05fd 19       		.byte	0x19
 1059 05fe 8B000000 		.4byte	0x8b
 1060 0602 28       		.byte	0x28
 1061 0603 02       		.uleb128 0x2
 1062 0604 41525200 		.ascii	"ARR\000"
 1063 0608 0A       		.byte	0xa
 1064 0609 0202     		.2byte	0x202
 1065 060b 19       		.byte	0x19
 1066 060c 8B000000 		.4byte	0x8b
 1067 0610 2C       		.byte	0x2c
 1068 0611 02       		.uleb128 0x2
 1069 0612 52435200 		.ascii	"RCR\000"
 1070 0616 0A       		.byte	0xa
 1071 0617 0302     		.2byte	0x203
 1072 0619 19       		.byte	0x19
 1073 061a 8B000000 		.4byte	0x8b
 1074 061e 30       		.byte	0x30
 1075 061f 02       		.uleb128 0x2
 1076 0620 43435200 		.ascii	"CCR\000"
 1077 0624 0A       		.byte	0xa
 1078 0625 0402     		.2byte	0x204
 1079 0627 19       		.byte	0x19
 1080 0628 BC000000 		.4byte	0xbc
 1081 062c 34       		.byte	0x34
 1082 062d 01       		.uleb128 0x1
 1083 062e E1000000 		.4byte	.LASF89
ARM GAS  C:\Users\DEVELO~1\AppData\Local\Temp\ccfX5QOj.s 			page 20


 1084 0632 0A       		.byte	0xa
 1085 0633 0502     		.2byte	0x205
 1086 0635 19       		.byte	0x19
 1087 0636 8B000000 		.4byte	0x8b
 1088 063a 44       		.byte	0x44
 1089 063b 02       		.uleb128 0x2
 1090 063c 44435200 		.ascii	"DCR\000"
 1091 0640 0A       		.byte	0xa
 1092 0641 1302     		.2byte	0x213
 1093 0643 19       		.byte	0x19
 1094 0644 8B000000 		.4byte	0x8b
 1095 0648 48       		.byte	0x48
 1096 0649 01       		.uleb128 0x1
 1097 064a BF040000 		.4byte	.LASF90
 1098 064e 0A       		.byte	0xa
 1099 064f 1402     		.2byte	0x214
 1100 0651 19       		.byte	0x19
 1101 0652 8B000000 		.4byte	0x8b
 1102 0656 4C       		.byte	0x4c
 1103 0657 02       		.uleb128 0x2
 1104 0658 4F5200   		.ascii	"OR\000"
 1105 065b 0A       		.byte	0xa
 1106 065c 1502     		.2byte	0x215
 1107 065e 19       		.byte	0x19
 1108 065f 8B000000 		.4byte	0x8b
 1109 0663 50       		.byte	0x50
 1110 0664 01       		.uleb128 0x1
 1111 0665 78000000 		.4byte	.LASF91
 1112 0669 0A       		.byte	0xa
 1113 066a 1602     		.2byte	0x216
 1114 066c 19       		.byte	0x19
 1115 066d 8B000000 		.4byte	0x8b
 1116 0671 54       		.byte	0x54
 1117 0672 01       		.uleb128 0x1
 1118 0673 79040000 		.4byte	.LASF92
 1119 0677 0A       		.byte	0xa
 1120 0678 1702     		.2byte	0x217
 1121 067a 19       		.byte	0x19
 1122 067b D1000000 		.4byte	0xd1
 1123 067f 58       		.byte	0x58
 1124 0680 00       		.byte	0
 1125 0681 0B       		.uleb128 0xb
 1126 0682 2C030000 		.4byte	.LASF93
 1127 0686 0A       		.byte	0xa
 1128 0687 1902     		.2byte	0x219
 1129 0689 03       		.byte	0x3
 1130 068a 61050000 		.4byte	0x561
 1131 068e 14       		.uleb128 0x14
 1132 068f E2040000 		.4byte	.LASF110
 1133 0693 04       		.byte	0x4
 1134 0694 2E01     		.2byte	0x12e
 1135 0696 08       		.byte	0x8
 1136 0697 0F       		.uleb128 0xf
 1137 0698 00000000 		.4byte	.LASF94
 1138 069c C701     		.2byte	0x1c7
 1139 069e 00000000 		.4byte	.LFB449
 1140 06a2 2C000000 		.4byte	.LFE449-.LFB449
ARM GAS  C:\Users\DEVELO~1\AppData\Local\Temp\ccfX5QOj.s 			page 21


 1141 06a6 01       		.uleb128 0x1
 1142 06a7 9C       		.byte	0x9c
 1143 06a8 F6070000 		.4byte	0x7f6
 1144 06ac 15       		.uleb128 0x15
 1145 06ad 737200   		.ascii	"sr\000"
 1146 06b0 01       		.byte	0x1
 1147 06b1 C901     		.2byte	0x1c9
 1148 06b3 0C       		.byte	0xc
 1149 06b4 7F000000 		.4byte	0x7f
 1150 06b8 10000000 		.4byte	.LLST3
 1151 06bc 0C000000 		.4byte	.LVUS3
 1152 06c0 16       		.uleb128 0x16
 1153 06c1 B0030000 		.4byte	.LASF111
 1154 06c5 01       		.byte	0x1
 1155 06c6 CA01     		.2byte	0x1ca
 1156 06c8 10       		.byte	0x10
 1157 06c9 F6070000 		.4byte	0x7f6
 1158 06cd 00000040 		.4byte	0x40000000
 1159 06d1 10       		.uleb128 0x10
 1160 06d2 94080000 		.4byte	0x894
 1161 06d6 1A000000 		.4byte	.LBI66
 1162 06da 01       		.byte	.LVU63
 1163 06db 1A000000 		.4byte	.LBB66
 1164 06df 06000000 		.4byte	.LBE66-.LBB66
 1165 06e3 D301     		.2byte	0x1d3
 1166 06e5 53070000 		.4byte	0x753
 1167 06e9 05       		.uleb128 0x5
 1168 06ea A6080000 		.4byte	0x8a6
 1169 06ee 1A000000 		.4byte	.LBI67
 1170 06f2 03       		.byte	.LVU65
 1171 06f3 1A000000 		.4byte	.LBB67
 1172 06f7 06000000 		.4byte	.LBE67-.LBB67
 1173 06fb 03       		.byte	0x3
 1174 06fc 5502     		.2byte	0x255
 1175 06fe 03       		.byte	0x3
 1176 06ff 05       		.uleb128 0x5
 1177 0700 B8080000 		.4byte	0x8b8
 1178 0704 1A000000 		.4byte	.LBI68
 1179 0708 05       		.byte	.LVU67
 1180 0709 1A000000 		.4byte	.LBB68
 1181 070d 06000000 		.4byte	.LBE68-.LBB68
 1182 0711 04       		.byte	0x4
 1183 0712 A201     		.2byte	0x1a2
 1184 0714 03       		.byte	0x3
 1185 0715 05       		.uleb128 0x5
 1186 0716 CA080000 		.4byte	0x8ca
 1187 071a 1A000000 		.4byte	.LBI69
 1188 071e 07       		.byte	.LVU69
 1189 071f 1A000000 		.4byte	.LBB69
 1190 0723 06000000 		.4byte	.LBE69-.LBB69
 1191 0727 05       		.byte	0x5
 1192 0728 7103     		.2byte	0x371
 1193 072a 03       		.byte	0x3
 1194 072b 05       		.uleb128 0x5
 1195 072c D3080000 		.4byte	0x8d3
 1196 0730 1A000000 		.4byte	.LBI70
 1197 0734 09       		.byte	.LVU71
ARM GAS  C:\Users\DEVELO~1\AppData\Local\Temp\ccfX5QOj.s 			page 22


 1198 0735 1A000000 		.4byte	.LBB70
 1199 0739 06000000 		.4byte	.LBE70-.LBB70
 1200 073d 05       		.byte	0x5
 1201 073e 5003     		.2byte	0x350
 1202 0740 03       		.byte	0x3
 1203 0741 09       		.uleb128 0x9
 1204 0742 DD080000 		.4byte	0x8dd
 1205 0746 27000000 		.4byte	.LLST4
 1206 074a 25000000 		.4byte	.LVUS4
 1207 074e 00       		.byte	0
 1208 074f 00       		.byte	0
 1209 0750 00       		.byte	0
 1210 0751 00       		.byte	0
 1211 0752 00       		.byte	0
 1212 0753 10       		.uleb128 0x10
 1213 0754 82080000 		.4byte	0x882
 1214 0758 20000000 		.4byte	.LBI72
 1215 075c 04       		.byte	.LVU77
 1216 075d 20000000 		.4byte	.LBB72
 1217 0761 04000000 		.4byte	.LBE72-.LBB72
 1218 0765 D401     		.2byte	0x1d4
 1219 0767 75070000 		.4byte	0x775
 1220 076b 17       		.uleb128 0x17
 1221 076c 24000000 		.4byte	.LVL8
 1222 0770 8E060000 		.4byte	0x68e
 1223 0774 00       		.byte	0
 1224 0775 05       		.uleb128 0x5
 1225 0776 8B080000 		.4byte	0x88b
 1226 077a 24000000 		.4byte	.LBI74
 1227 077e 01       		.byte	.LVU80
 1228 077f 24000000 		.4byte	.LBB74
 1229 0783 06000000 		.4byte	.LBE74-.LBB74
 1230 0787 01       		.byte	0x1
 1231 0788 D501     		.2byte	0x1d5
 1232 078a 05       		.byte	0x5
 1233 078b 05       		.uleb128 0x5
 1234 078c 9D080000 		.4byte	0x89d
 1235 0790 24000000 		.4byte	.LBI76
 1236 0794 03       		.byte	.LVU82
 1237 0795 24000000 		.4byte	.LBB76
 1238 0799 06000000 		.4byte	.LBE76-.LBB76
 1239 079d 03       		.byte	0x3
 1240 079e 6002     		.2byte	0x260
 1241 07a0 03       		.byte	0x3
 1242 07a1 05       		.uleb128 0x5
 1243 07a2 AF080000 		.4byte	0x8af
 1244 07a6 24000000 		.4byte	.LBI77
 1245 07aa 07       		.byte	.LVU86
 1246 07ab 24000000 		.4byte	.LBB77
 1247 07af 06000000 		.4byte	.LBE77-.LBB77
 1248 07b3 04       		.byte	0x4
 1249 07b4 BA01     		.2byte	0x1ba
 1250 07b6 03       		.byte	0x3
 1251 07b7 05       		.uleb128 0x5
 1252 07b8 C1080000 		.4byte	0x8c1
 1253 07bc 24000000 		.4byte	.LBI78
 1254 07c0 09       		.byte	.LVU88
ARM GAS  C:\Users\DEVELO~1\AppData\Local\Temp\ccfX5QOj.s 			page 23


 1255 07c1 24000000 		.4byte	.LBB78
 1256 07c5 06000000 		.4byte	.LBE78-.LBB78
 1257 07c9 05       		.byte	0x5
 1258 07ca 7C03     		.2byte	0x37c
 1259 07cc 03       		.byte	0x3
 1260 07cd 05       		.uleb128 0x5
 1261 07ce D3080000 		.4byte	0x8d3
 1262 07d2 24000000 		.4byte	.LBI79
 1263 07d6 0B       		.byte	.LVU90
 1264 07d7 24000000 		.4byte	.LBB79
 1265 07db 06000000 		.4byte	.LBE79-.LBB79
 1266 07df 05       		.byte	0x5
 1267 07e0 6303     		.2byte	0x363
 1268 07e2 03       		.byte	0x3
 1269 07e3 09       		.uleb128 0x9
 1270 07e4 DD080000 		.4byte	0x8dd
 1271 07e8 34000000 		.4byte	.LLST5
 1272 07ec 32000000 		.4byte	.LVUS5
 1273 07f0 00       		.byte	0
 1274 07f1 00       		.byte	0
 1275 07f2 00       		.byte	0
 1276 07f3 00       		.byte	0
 1277 07f4 00       		.byte	0
 1278 07f5 00       		.byte	0
 1279 07f6 18       		.uleb128 0x18
 1280 07f7 04       		.byte	0x4
 1281 07f8 81060000 		.4byte	0x681
 1282 07fc 0F       		.uleb128 0xf
 1283 07fd D5000000 		.4byte	.LASF95
 1284 0801 8E01     		.2byte	0x18e
 1285 0803 00000000 		.4byte	.LFB448
 1286 0807 54000000 		.4byte	.LFE448-.LFB448
 1287 080b 01       		.uleb128 0x1
 1288 080c 9C       		.byte	0x9c
 1289 080d 48080000 		.4byte	0x848
 1290 0811 19       		.uleb128 0x19
 1291 0812 60040000 		.4byte	.LASF112
 1292 0816 58080000 		.4byte	0x858
 1293 081a 1A       		.uleb128 0x1a
 1294 081b 5D080000 		.4byte	0x85d
 1295 081f 00000000 		.4byte	.LBI54
 1296 0823 08       		.byte	.LVU8
 1297 0824 0C000000 		.4byte	.LLRL0
 1298 0828 01       		.byte	0x1
 1299 0829 9801     		.2byte	0x198
 1300 082b 03       		.byte	0x3
 1301 082c 09       		.uleb128 0x9
 1302 082d 76080000 		.4byte	0x876
 1303 0831 40000000 		.4byte	.LLST1
 1304 0835 3E000000 		.4byte	.LVUS1
 1305 0839 09       		.uleb128 0x9
 1306 083a 6A080000 		.4byte	0x86a
 1307 083e 40000000 		.4byte	.LLST1
 1308 0842 3E000000 		.4byte	.LVUS1
 1309 0846 00       		.byte	0
 1310 0847 00       		.byte	0
 1311 0848 07       		.uleb128 0x7
ARM GAS  C:\Users\DEVELO~1\AppData\Local\Temp\ccfX5QOj.s 			page 24


 1312 0849 97000000 		.4byte	0x97
 1313 084d 58080000 		.4byte	0x858
 1314 0851 08       		.uleb128 0x8
 1315 0852 2D000000 		.4byte	0x2d
 1316 0856 0B       		.byte	0xb
 1317 0857 00       		.byte	0
 1318 0858 0D       		.uleb128 0xd
 1319 0859 48080000 		.4byte	0x848
 1320 085d 1B       		.uleb128 0x1b
 1321 085e 56030000 		.4byte	.LASF113
 1322 0862 02       		.byte	0x2
 1323 0863 8D       		.byte	0x8d
 1324 0864 16       		.byte	0x16
 1325 0865 03       		.byte	0x3
 1326 0866 82080000 		.4byte	0x882
 1327 086a 1C       		.uleb128 0x1c
 1328 086b E3010000 		.4byte	.LASF96
 1329 086f 02       		.byte	0x2
 1330 0870 8D       		.byte	0x8d
 1331 0871 2E       		.byte	0x2e
 1332 0872 7F000000 		.4byte	0x7f
 1333 0876 1D       		.uleb128 0x1d
 1334 0877 6C7000   		.ascii	"lp\000"
 1335 087a 02       		.byte	0x2
 1336 087b 8D       		.byte	0x8d
 1337 087c 39       		.byte	0x39
 1338 087d 5A050000 		.4byte	0x55a
 1339 0881 00       		.byte	0
 1340 0882 06       		.uleb128 0x6
 1341 0883 6E030000 		.4byte	.LASF97
 1342 0887 03       		.byte	0x3
 1343 0888 9902     		.2byte	0x299
 1344 088a 14       		.byte	0x14
 1345 088b 06       		.uleb128 0x6
 1346 088c C0000000 		.4byte	.LASF98
 1347 0890 03       		.byte	0x3
 1348 0891 5E02     		.2byte	0x25e
 1349 0893 14       		.byte	0x14
 1350 0894 06       		.uleb128 0x6
 1351 0895 5D000000 		.4byte	.LASF99
 1352 0899 03       		.byte	0x3
 1353 089a 5302     		.2byte	0x253
 1354 089c 14       		.byte	0x14
 1355 089d 06       		.uleb128 0x6
 1356 089e 12040000 		.4byte	.LASF100
 1357 08a2 04       		.byte	0x4
 1358 08a3 B601     		.2byte	0x1b6
 1359 08a5 14       		.byte	0x14
 1360 08a6 06       		.uleb128 0x6
 1361 08a7 5C050000 		.4byte	.LASF101
 1362 08ab 04       		.byte	0x4
 1363 08ac A001     		.2byte	0x1a0
 1364 08ae 14       		.byte	0x14
 1365 08af 06       		.uleb128 0x6
 1366 08b0 CD040000 		.4byte	.LASF102
 1367 08b4 05       		.byte	0x5
 1368 08b5 7A03     		.2byte	0x37a
ARM GAS  C:\Users\DEVELO~1\AppData\Local\Temp\ccfX5QOj.s 			page 25


 1369 08b7 1B       		.byte	0x1b
 1370 08b8 06       		.uleb128 0x6
 1371 08b9 2E050000 		.4byte	.LASF103
 1372 08bd 05       		.byte	0x5
 1373 08be 6F03     		.2byte	0x36f
 1374 08c0 1B       		.byte	0x1b
 1375 08c1 06       		.uleb128 0x6
 1376 08c2 BE010000 		.4byte	.LASF104
 1377 08c6 05       		.byte	0x5
 1378 08c7 6003     		.2byte	0x360
 1379 08c9 1B       		.byte	0x1b
 1380 08ca 06       		.uleb128 0x6
 1381 08cb 92000000 		.4byte	.LASF105
 1382 08cf 05       		.byte	0x5
 1383 08d0 4803     		.2byte	0x348
 1384 08d2 1B       		.byte	0x1b
 1385 08d3 1E       		.uleb128 0x1e
 1386 08d4 FF040000 		.4byte	.LASF114
 1387 08d8 06       		.byte	0x6
 1388 08d9 EB01     		.2byte	0x1eb
 1389 08db 1B       		.byte	0x1b
 1390 08dc 03       		.byte	0x3
 1391 08dd 1F       		.uleb128 0x1f
 1392 08de 27010000 		.4byte	.LASF106
 1393 08e2 06       		.byte	0x6
 1394 08e3 EB01     		.2byte	0x1eb
 1395 08e5 32       		.byte	0x32
 1396 08e6 7F000000 		.4byte	0x7f
 1397 08ea 00       		.byte	0
 1398 08eb 00       		.byte	0
 1399              		.section	.debug_abbrev,"",%progbits
 1400              	.Ldebug_abbrev0:
 1401 0000 01       		.uleb128 0x1
 1402 0001 0D       		.uleb128 0xd
 1403 0002 00       		.byte	0
 1404 0003 03       		.uleb128 0x3
 1405 0004 0E       		.uleb128 0xe
 1406 0005 3A       		.uleb128 0x3a
 1407 0006 0B       		.uleb128 0xb
 1408 0007 3B       		.uleb128 0x3b
 1409 0008 05       		.uleb128 0x5
 1410 0009 39       		.uleb128 0x39
 1411 000a 0B       		.uleb128 0xb
 1412 000b 49       		.uleb128 0x49
 1413 000c 13       		.uleb128 0x13
 1414 000d 38       		.uleb128 0x38
 1415 000e 0B       		.uleb128 0xb
 1416 000f 00       		.byte	0
 1417 0010 00       		.byte	0
 1418 0011 02       		.uleb128 0x2
 1419 0012 0D       		.uleb128 0xd
 1420 0013 00       		.byte	0
 1421 0014 03       		.uleb128 0x3
 1422 0015 08       		.uleb128 0x8
 1423 0016 3A       		.uleb128 0x3a
 1424 0017 0B       		.uleb128 0xb
 1425 0018 3B       		.uleb128 0x3b
ARM GAS  C:\Users\DEVELO~1\AppData\Local\Temp\ccfX5QOj.s 			page 26


 1426 0019 05       		.uleb128 0x5
 1427 001a 39       		.uleb128 0x39
 1428 001b 0B       		.uleb128 0xb
 1429 001c 49       		.uleb128 0x49
 1430 001d 13       		.uleb128 0x13
 1431 001e 38       		.uleb128 0x38
 1432 001f 0B       		.uleb128 0xb
 1433 0020 00       		.byte	0
 1434 0021 00       		.byte	0
 1435 0022 03       		.uleb128 0x3
 1436 0023 24       		.uleb128 0x24
 1437 0024 00       		.byte	0
 1438 0025 0B       		.uleb128 0xb
 1439 0026 0B       		.uleb128 0xb
 1440 0027 3E       		.uleb128 0x3e
 1441 0028 0B       		.uleb128 0xb
 1442 0029 03       		.uleb128 0x3
 1443 002a 0E       		.uleb128 0xe
 1444 002b 00       		.byte	0
 1445 002c 00       		.byte	0
 1446 002d 04       		.uleb128 0x4
 1447 002e 0D       		.uleb128 0xd
 1448 002f 00       		.byte	0
 1449 0030 03       		.uleb128 0x3
 1450 0031 0E       		.uleb128 0xe
 1451 0032 3A       		.uleb128 0x3a
 1452 0033 21       		.uleb128 0x21
 1453 0034 09       		.sleb128 9
 1454 0035 3B       		.uleb128 0x3b
 1455 0036 05       		.uleb128 0x5
 1456 0037 39       		.uleb128 0x39
 1457 0038 0B       		.uleb128 0xb
 1458 0039 49       		.uleb128 0x49
 1459 003a 13       		.uleb128 0x13
 1460 003b 38       		.uleb128 0x38
 1461 003c 05       		.uleb128 0x5
 1462 003d 00       		.byte	0
 1463 003e 00       		.byte	0
 1464 003f 05       		.uleb128 0x5
 1465 0040 1D       		.uleb128 0x1d
 1466 0041 01       		.byte	0x1
 1467 0042 31       		.uleb128 0x31
 1468 0043 13       		.uleb128 0x13
 1469 0044 52       		.uleb128 0x52
 1470 0045 01       		.uleb128 0x1
 1471 0046 B842     		.uleb128 0x2138
 1472 0048 0B       		.uleb128 0xb
 1473 0049 11       		.uleb128 0x11
 1474 004a 01       		.uleb128 0x1
 1475 004b 12       		.uleb128 0x12
 1476 004c 06       		.uleb128 0x6
 1477 004d 58       		.uleb128 0x58
 1478 004e 0B       		.uleb128 0xb
 1479 004f 59       		.uleb128 0x59
 1480 0050 05       		.uleb128 0x5
 1481 0051 57       		.uleb128 0x57
 1482 0052 0B       		.uleb128 0xb
ARM GAS  C:\Users\DEVELO~1\AppData\Local\Temp\ccfX5QOj.s 			page 27


 1483 0053 00       		.byte	0
 1484 0054 00       		.byte	0
 1485 0055 06       		.uleb128 0x6
 1486 0056 2E       		.uleb128 0x2e
 1487 0057 00       		.byte	0
 1488 0058 03       		.uleb128 0x3
 1489 0059 0E       		.uleb128 0xe
 1490 005a 3A       		.uleb128 0x3a
 1491 005b 0B       		.uleb128 0xb
 1492 005c 3B       		.uleb128 0x3b
 1493 005d 05       		.uleb128 0x5
 1494 005e 39       		.uleb128 0x39
 1495 005f 0B       		.uleb128 0xb
 1496 0060 27       		.uleb128 0x27
 1497 0061 19       		.uleb128 0x19
 1498 0062 20       		.uleb128 0x20
 1499 0063 21       		.uleb128 0x21
 1500 0064 03       		.sleb128 3
 1501 0065 00       		.byte	0
 1502 0066 00       		.byte	0
 1503 0067 07       		.uleb128 0x7
 1504 0068 01       		.uleb128 0x1
 1505 0069 01       		.byte	0x1
 1506 006a 49       		.uleb128 0x49
 1507 006b 13       		.uleb128 0x13
 1508 006c 01       		.uleb128 0x1
 1509 006d 13       		.uleb128 0x13
 1510 006e 00       		.byte	0
 1511 006f 00       		.byte	0
 1512 0070 08       		.uleb128 0x8
 1513 0071 21       		.uleb128 0x21
 1514 0072 00       		.byte	0
 1515 0073 49       		.uleb128 0x49
 1516 0074 13       		.uleb128 0x13
 1517 0075 2F       		.uleb128 0x2f
 1518 0076 0B       		.uleb128 0xb
 1519 0077 00       		.byte	0
 1520 0078 00       		.byte	0
 1521 0079 09       		.uleb128 0x9
 1522 007a 05       		.uleb128 0x5
 1523 007b 00       		.byte	0
 1524 007c 31       		.uleb128 0x31
 1525 007d 13       		.uleb128 0x13
 1526 007e 02       		.uleb128 0x2
 1527 007f 17       		.uleb128 0x17
 1528 0080 B742     		.uleb128 0x2137
 1529 0082 17       		.uleb128 0x17
 1530 0083 00       		.byte	0
 1531 0084 00       		.byte	0
 1532 0085 0A       		.uleb128 0xa
 1533 0086 35       		.uleb128 0x35
 1534 0087 00       		.byte	0
 1535 0088 49       		.uleb128 0x49
 1536 0089 13       		.uleb128 0x13
 1537 008a 00       		.byte	0
 1538 008b 00       		.byte	0
 1539 008c 0B       		.uleb128 0xb
ARM GAS  C:\Users\DEVELO~1\AppData\Local\Temp\ccfX5QOj.s 			page 28


 1540 008d 16       		.uleb128 0x16
 1541 008e 00       		.byte	0
 1542 008f 03       		.uleb128 0x3
 1543 0090 0E       		.uleb128 0xe
 1544 0091 3A       		.uleb128 0x3a
 1545 0092 0B       		.uleb128 0xb
 1546 0093 3B       		.uleb128 0x3b
 1547 0094 05       		.uleb128 0x5
 1548 0095 39       		.uleb128 0x39
 1549 0096 0B       		.uleb128 0xb
 1550 0097 49       		.uleb128 0x49
 1551 0098 13       		.uleb128 0x13
 1552 0099 00       		.byte	0
 1553 009a 00       		.byte	0
 1554 009b 0C       		.uleb128 0xc
 1555 009c 16       		.uleb128 0x16
 1556 009d 00       		.byte	0
 1557 009e 03       		.uleb128 0x3
 1558 009f 0E       		.uleb128 0xe
 1559 00a0 3A       		.uleb128 0x3a
 1560 00a1 0B       		.uleb128 0xb
 1561 00a2 3B       		.uleb128 0x3b
 1562 00a3 0B       		.uleb128 0xb
 1563 00a4 39       		.uleb128 0x39
 1564 00a5 0B       		.uleb128 0xb
 1565 00a6 49       		.uleb128 0x49
 1566 00a7 13       		.uleb128 0x13
 1567 00a8 00       		.byte	0
 1568 00a9 00       		.byte	0
 1569 00aa 0D       		.uleb128 0xd
 1570 00ab 26       		.uleb128 0x26
 1571 00ac 00       		.byte	0
 1572 00ad 49       		.uleb128 0x49
 1573 00ae 13       		.uleb128 0x13
 1574 00af 00       		.byte	0
 1575 00b0 00       		.byte	0
 1576 00b1 0E       		.uleb128 0xe
 1577 00b2 13       		.uleb128 0x13
 1578 00b3 01       		.byte	0x1
 1579 00b4 0B       		.uleb128 0xb
 1580 00b5 0B       		.uleb128 0xb
 1581 00b6 3A       		.uleb128 0x3a
 1582 00b7 0B       		.uleb128 0xb
 1583 00b8 3B       		.uleb128 0x3b
 1584 00b9 05       		.uleb128 0x5
 1585 00ba 39       		.uleb128 0x39
 1586 00bb 21       		.uleb128 0x21
 1587 00bc 09       		.sleb128 9
 1588 00bd 01       		.uleb128 0x1
 1589 00be 13       		.uleb128 0x13
 1590 00bf 00       		.byte	0
 1591 00c0 00       		.byte	0
 1592 00c1 0F       		.uleb128 0xf
 1593 00c2 2E       		.uleb128 0x2e
 1594 00c3 01       		.byte	0x1
 1595 00c4 3F       		.uleb128 0x3f
 1596 00c5 19       		.uleb128 0x19
ARM GAS  C:\Users\DEVELO~1\AppData\Local\Temp\ccfX5QOj.s 			page 29


 1597 00c6 03       		.uleb128 0x3
 1598 00c7 0E       		.uleb128 0xe
 1599 00c8 3A       		.uleb128 0x3a
 1600 00c9 21       		.uleb128 0x21
 1601 00ca 01       		.sleb128 1
 1602 00cb 3B       		.uleb128 0x3b
 1603 00cc 05       		.uleb128 0x5
 1604 00cd 39       		.uleb128 0x39
 1605 00ce 21       		.uleb128 0x21
 1606 00cf 06       		.sleb128 6
 1607 00d0 27       		.uleb128 0x27
 1608 00d1 19       		.uleb128 0x19
 1609 00d2 11       		.uleb128 0x11
 1610 00d3 01       		.uleb128 0x1
 1611 00d4 12       		.uleb128 0x12
 1612 00d5 06       		.uleb128 0x6
 1613 00d6 40       		.uleb128 0x40
 1614 00d7 18       		.uleb128 0x18
 1615 00d8 7A       		.uleb128 0x7a
 1616 00d9 19       		.uleb128 0x19
 1617 00da 01       		.uleb128 0x1
 1618 00db 13       		.uleb128 0x13
 1619 00dc 00       		.byte	0
 1620 00dd 00       		.byte	0
 1621 00de 10       		.uleb128 0x10
 1622 00df 1D       		.uleb128 0x1d
 1623 00e0 01       		.byte	0x1
 1624 00e1 31       		.uleb128 0x31
 1625 00e2 13       		.uleb128 0x13
 1626 00e3 52       		.uleb128 0x52
 1627 00e4 01       		.uleb128 0x1
 1628 00e5 B842     		.uleb128 0x2138
 1629 00e7 0B       		.uleb128 0xb
 1630 00e8 11       		.uleb128 0x11
 1631 00e9 01       		.uleb128 0x1
 1632 00ea 12       		.uleb128 0x12
 1633 00eb 06       		.uleb128 0x6
 1634 00ec 58       		.uleb128 0x58
 1635 00ed 21       		.uleb128 0x21
 1636 00ee 01       		.sleb128 1
 1637 00ef 59       		.uleb128 0x59
 1638 00f0 05       		.uleb128 0x5
 1639 00f1 57       		.uleb128 0x57
 1640 00f2 21       		.uleb128 0x21
 1641 00f3 05       		.sleb128 5
 1642 00f4 01       		.uleb128 0x1
 1643 00f5 13       		.uleb128 0x13
 1644 00f6 00       		.byte	0
 1645 00f7 00       		.byte	0
 1646 00f8 11       		.uleb128 0x11
 1647 00f9 11       		.uleb128 0x11
 1648 00fa 01       		.byte	0x1
 1649 00fb 25       		.uleb128 0x25
 1650 00fc 0E       		.uleb128 0xe
 1651 00fd 13       		.uleb128 0x13
 1652 00fe 0B       		.uleb128 0xb
 1653 00ff 03       		.uleb128 0x3
ARM GAS  C:\Users\DEVELO~1\AppData\Local\Temp\ccfX5QOj.s 			page 30


 1654 0100 0E       		.uleb128 0xe
 1655 0101 1B       		.uleb128 0x1b
 1656 0102 0E       		.uleb128 0xe
 1657 0103 55       		.uleb128 0x55
 1658 0104 17       		.uleb128 0x17
 1659 0105 11       		.uleb128 0x11
 1660 0106 01       		.uleb128 0x1
 1661 0107 10       		.uleb128 0x10
 1662 0108 17       		.uleb128 0x17
 1663 0109 00       		.byte	0
 1664 010a 00       		.byte	0
 1665 010b 12       		.uleb128 0x12
 1666 010c 24       		.uleb128 0x24
 1667 010d 00       		.byte	0
 1668 010e 0B       		.uleb128 0xb
 1669 010f 0B       		.uleb128 0xb
 1670 0110 3E       		.uleb128 0x3e
 1671 0111 0B       		.uleb128 0xb
 1672 0112 03       		.uleb128 0x3
 1673 0113 08       		.uleb128 0x8
 1674 0114 00       		.byte	0
 1675 0115 00       		.byte	0
 1676 0116 13       		.uleb128 0x13
 1677 0117 13       		.uleb128 0x13
 1678 0118 01       		.byte	0x1
 1679 0119 0B       		.uleb128 0xb
 1680 011a 05       		.uleb128 0x5
 1681 011b 3A       		.uleb128 0x3a
 1682 011c 0B       		.uleb128 0xb
 1683 011d 3B       		.uleb128 0x3b
 1684 011e 05       		.uleb128 0x5
 1685 011f 39       		.uleb128 0x39
 1686 0120 0B       		.uleb128 0xb
 1687 0121 01       		.uleb128 0x1
 1688 0122 13       		.uleb128 0x13
 1689 0123 00       		.byte	0
 1690 0124 00       		.byte	0
 1691 0125 14       		.uleb128 0x14
 1692 0126 2E       		.uleb128 0x2e
 1693 0127 00       		.byte	0
 1694 0128 3F       		.uleb128 0x3f
 1695 0129 19       		.uleb128 0x19
 1696 012a 03       		.uleb128 0x3
 1697 012b 0E       		.uleb128 0xe
 1698 012c 3A       		.uleb128 0x3a
 1699 012d 0B       		.uleb128 0xb
 1700 012e 3B       		.uleb128 0x3b
 1701 012f 05       		.uleb128 0x5
 1702 0130 39       		.uleb128 0x39
 1703 0131 0B       		.uleb128 0xb
 1704 0132 27       		.uleb128 0x27
 1705 0133 19       		.uleb128 0x19
 1706 0134 3C       		.uleb128 0x3c
 1707 0135 19       		.uleb128 0x19
 1708 0136 00       		.byte	0
 1709 0137 00       		.byte	0
 1710 0138 15       		.uleb128 0x15
ARM GAS  C:\Users\DEVELO~1\AppData\Local\Temp\ccfX5QOj.s 			page 31


 1711 0139 34       		.uleb128 0x34
 1712 013a 00       		.byte	0
 1713 013b 03       		.uleb128 0x3
 1714 013c 08       		.uleb128 0x8
 1715 013d 3A       		.uleb128 0x3a
 1716 013e 0B       		.uleb128 0xb
 1717 013f 3B       		.uleb128 0x3b
 1718 0140 05       		.uleb128 0x5
 1719 0141 39       		.uleb128 0x39
 1720 0142 0B       		.uleb128 0xb
 1721 0143 49       		.uleb128 0x49
 1722 0144 13       		.uleb128 0x13
 1723 0145 02       		.uleb128 0x2
 1724 0146 17       		.uleb128 0x17
 1725 0147 B742     		.uleb128 0x2137
 1726 0149 17       		.uleb128 0x17
 1727 014a 00       		.byte	0
 1728 014b 00       		.byte	0
 1729 014c 16       		.uleb128 0x16
 1730 014d 34       		.uleb128 0x34
 1731 014e 00       		.byte	0
 1732 014f 03       		.uleb128 0x3
 1733 0150 0E       		.uleb128 0xe
 1734 0151 3A       		.uleb128 0x3a
 1735 0152 0B       		.uleb128 0xb
 1736 0153 3B       		.uleb128 0x3b
 1737 0154 05       		.uleb128 0x5
 1738 0155 39       		.uleb128 0x39
 1739 0156 0B       		.uleb128 0xb
 1740 0157 49       		.uleb128 0x49
 1741 0158 13       		.uleb128 0x13
 1742 0159 1C       		.uleb128 0x1c
 1743 015a 06       		.uleb128 0x6
 1744 015b 00       		.byte	0
 1745 015c 00       		.byte	0
 1746 015d 17       		.uleb128 0x17
 1747 015e 48       		.uleb128 0x48
 1748 015f 00       		.byte	0
 1749 0160 7D       		.uleb128 0x7d
 1750 0161 01       		.uleb128 0x1
 1751 0162 7F       		.uleb128 0x7f
 1752 0163 13       		.uleb128 0x13
 1753 0164 00       		.byte	0
 1754 0165 00       		.byte	0
 1755 0166 18       		.uleb128 0x18
 1756 0167 0F       		.uleb128 0xf
 1757 0168 00       		.byte	0
 1758 0169 0B       		.uleb128 0xb
 1759 016a 0B       		.uleb128 0xb
 1760 016b 49       		.uleb128 0x49
 1761 016c 13       		.uleb128 0x13
 1762 016d 00       		.byte	0
 1763 016e 00       		.byte	0
 1764 016f 19       		.uleb128 0x19
 1765 0170 34       		.uleb128 0x34
 1766 0171 00       		.byte	0
 1767 0172 03       		.uleb128 0x3
ARM GAS  C:\Users\DEVELO~1\AppData\Local\Temp\ccfX5QOj.s 			page 32


 1768 0173 0E       		.uleb128 0xe
 1769 0174 49       		.uleb128 0x49
 1770 0175 13       		.uleb128 0x13
 1771 0176 34       		.uleb128 0x34
 1772 0177 19       		.uleb128 0x19
 1773 0178 00       		.byte	0
 1774 0179 00       		.byte	0
 1775 017a 1A       		.uleb128 0x1a
 1776 017b 1D       		.uleb128 0x1d
 1777 017c 01       		.byte	0x1
 1778 017d 31       		.uleb128 0x31
 1779 017e 13       		.uleb128 0x13
 1780 017f 52       		.uleb128 0x52
 1781 0180 01       		.uleb128 0x1
 1782 0181 B842     		.uleb128 0x2138
 1783 0183 0B       		.uleb128 0xb
 1784 0184 55       		.uleb128 0x55
 1785 0185 17       		.uleb128 0x17
 1786 0186 58       		.uleb128 0x58
 1787 0187 0B       		.uleb128 0xb
 1788 0188 59       		.uleb128 0x59
 1789 0189 05       		.uleb128 0x5
 1790 018a 57       		.uleb128 0x57
 1791 018b 0B       		.uleb128 0xb
 1792 018c 00       		.byte	0
 1793 018d 00       		.byte	0
 1794 018e 1B       		.uleb128 0x1b
 1795 018f 2E       		.uleb128 0x2e
 1796 0190 01       		.byte	0x1
 1797 0191 03       		.uleb128 0x3
 1798 0192 0E       		.uleb128 0xe
 1799 0193 3A       		.uleb128 0x3a
 1800 0194 0B       		.uleb128 0xb
 1801 0195 3B       		.uleb128 0x3b
 1802 0196 0B       		.uleb128 0xb
 1803 0197 39       		.uleb128 0x39
 1804 0198 0B       		.uleb128 0xb
 1805 0199 27       		.uleb128 0x27
 1806 019a 19       		.uleb128 0x19
 1807 019b 20       		.uleb128 0x20
 1808 019c 0B       		.uleb128 0xb
 1809 019d 01       		.uleb128 0x1
 1810 019e 13       		.uleb128 0x13
 1811 019f 00       		.byte	0
 1812 01a0 00       		.byte	0
 1813 01a1 1C       		.uleb128 0x1c
 1814 01a2 05       		.uleb128 0x5
 1815 01a3 00       		.byte	0
 1816 01a4 03       		.uleb128 0x3
 1817 01a5 0E       		.uleb128 0xe
 1818 01a6 3A       		.uleb128 0x3a
 1819 01a7 0B       		.uleb128 0xb
 1820 01a8 3B       		.uleb128 0x3b
 1821 01a9 0B       		.uleb128 0xb
 1822 01aa 39       		.uleb128 0x39
 1823 01ab 0B       		.uleb128 0xb
 1824 01ac 49       		.uleb128 0x49
ARM GAS  C:\Users\DEVELO~1\AppData\Local\Temp\ccfX5QOj.s 			page 33


 1825 01ad 13       		.uleb128 0x13
 1826 01ae 00       		.byte	0
 1827 01af 00       		.byte	0
 1828 01b0 1D       		.uleb128 0x1d
 1829 01b1 05       		.uleb128 0x5
 1830 01b2 00       		.byte	0
 1831 01b3 03       		.uleb128 0x3
 1832 01b4 08       		.uleb128 0x8
 1833 01b5 3A       		.uleb128 0x3a
 1834 01b6 0B       		.uleb128 0xb
 1835 01b7 3B       		.uleb128 0x3b
 1836 01b8 0B       		.uleb128 0xb
 1837 01b9 39       		.uleb128 0x39
 1838 01ba 0B       		.uleb128 0xb
 1839 01bb 49       		.uleb128 0x49
 1840 01bc 13       		.uleb128 0x13
 1841 01bd 00       		.byte	0
 1842 01be 00       		.byte	0
 1843 01bf 1E       		.uleb128 0x1e
 1844 01c0 2E       		.uleb128 0x2e
 1845 01c1 01       		.byte	0x1
 1846 01c2 03       		.uleb128 0x3
 1847 01c3 0E       		.uleb128 0xe
 1848 01c4 3A       		.uleb128 0x3a
 1849 01c5 0B       		.uleb128 0xb
 1850 01c6 3B       		.uleb128 0x3b
 1851 01c7 05       		.uleb128 0x5
 1852 01c8 39       		.uleb128 0x39
 1853 01c9 0B       		.uleb128 0xb
 1854 01ca 27       		.uleb128 0x27
 1855 01cb 19       		.uleb128 0x19
 1856 01cc 20       		.uleb128 0x20
 1857 01cd 0B       		.uleb128 0xb
 1858 01ce 00       		.byte	0
 1859 01cf 00       		.byte	0
 1860 01d0 1F       		.uleb128 0x1f
 1861 01d1 05       		.uleb128 0x5
 1862 01d2 00       		.byte	0
 1863 01d3 03       		.uleb128 0x3
 1864 01d4 0E       		.uleb128 0xe
 1865 01d5 3A       		.uleb128 0x3a
 1866 01d6 0B       		.uleb128 0xb
 1867 01d7 3B       		.uleb128 0x3b
 1868 01d8 05       		.uleb128 0x5
 1869 01d9 39       		.uleb128 0x39
 1870 01da 0B       		.uleb128 0xb
 1871 01db 49       		.uleb128 0x49
 1872 01dc 13       		.uleb128 0x13
 1873 01dd 00       		.byte	0
 1874 01de 00       		.byte	0
 1875 01df 00       		.byte	0
 1876              		.section	.debug_loclists,"",%progbits
 1877 0000 46000000 		.4byte	.Ldebug_loc3-.Ldebug_loc2
 1878              	.Ldebug_loc2:
 1879 0004 0500     		.2byte	0x5
 1880 0006 04       		.byte	0x4
 1881 0007 00       		.byte	0
ARM GAS  C:\Users\DEVELO~1\AppData\Local\Temp\ccfX5QOj.s 			page 34


 1882 0008 00000000 		.4byte	0
 1883              	.Ldebug_loc0:
 1884              	.LVUS3:
 1885 000c 00       		.uleb128 .LVU52
 1886 000d 00       		.uleb128 .LVU54
 1887 000e 00       		.uleb128 .LVU54
 1888 000f 00       		.uleb128 .LVU57
 1889              	.LLST3:
 1890 0010 06       		.byte	0x6
 1891 0011 08000000 		.4byte	.LVL3
 1892 0015 04       		.byte	0x4
 1893 0016 00       		.uleb128 .LVL3-.LVL3
 1894 0017 04       		.uleb128 .LVL4-.LVL3
 1895 0018 01       		.uleb128 0x1
 1896 0019 51       		.byte	0x51
 1897 001a 04       		.byte	0x4
 1898 001b 04       		.uleb128 .LVL4-.LVL3
 1899 001c 08       		.uleb128 .LVL5-.LVL3
 1900 001d 06       		.uleb128 0x6
 1901 001e 73       		.byte	0x73
 1902 001f 00       		.sleb128 0
 1903 0020 08       		.byte	0x8
 1904 0021 FF       		.byte	0xff
 1905 0022 1A       		.byte	0x1a
 1906 0023 9F       		.byte	0x9f
 1907 0024 00       		.byte	0
 1908              	.LVUS4:
 1909 0025 09       		.uleb128 .LVU71
 1910 0026 00       		.uleb128 .LVU73
 1911              	.LLST4:
 1912 0027 08       		.byte	0x8
 1913 0028 1A000000 		.4byte	.LVL6
 1914 002c 06       		.uleb128 .LVL7-.LVL6
 1915 002d 03       		.uleb128 0x3
 1916 002e 08       		.byte	0x8
 1917 002f 30       		.byte	0x30
 1918 0030 9F       		.byte	0x9f
 1919 0031 00       		.byte	0
 1920              	.LVUS5:
 1921 0032 0B       		.uleb128 .LVU90
 1922 0033 00       		.uleb128 .LVU92
 1923              	.LLST5:
 1924 0034 08       		.byte	0x8
 1925 0035 24000000 		.4byte	.LVL8
 1926 0039 06       		.uleb128 .LVL9-.LVL8
 1927 003a 02       		.uleb128 0x2
 1928 003b 30       		.byte	0x30
 1929 003c 9F       		.byte	0x9f
 1930 003d 00       		.byte	0
 1931              	.LVUS1:
 1932 003e 08       		.uleb128 .LVU8
 1933 003f 00       		.uleb128 .LVU25
 1934              	.LLST1:
 1935 0040 08       		.byte	0x8
 1936 0041 00000000 		.4byte	.LVL0
 1937 0045 2E       		.uleb128 .LVL1-.LVL0
 1938 0046 02       		.uleb128 0x2
ARM GAS  C:\Users\DEVELO~1\AppData\Local\Temp\ccfX5QOj.s 			page 35


 1939 0047 31       		.byte	0x31
 1940 0048 9F       		.byte	0x9f
 1941 0049 00       		.byte	0
 1942              	.Ldebug_loc3:
 1943              		.section	.debug_aranges,"",%progbits
 1944 0000 24000000 		.4byte	0x24
 1945 0004 0200     		.2byte	0x2
 1946 0006 00000000 		.4byte	.Ldebug_info0
 1947 000a 04       		.byte	0x4
 1948 000b 00       		.byte	0
 1949 000c 0000     		.2byte	0
 1950 000e 0000     		.2byte	0
 1951 0010 00000000 		.4byte	.LFB448
 1952 0014 54000000 		.4byte	.LFE448-.LFB448
 1953 0018 00000000 		.4byte	.LFB449
 1954 001c 2C000000 		.4byte	.LFE449-.LFB449
 1955 0020 00000000 		.4byte	0
 1956 0024 00000000 		.4byte	0
 1957              		.section	.debug_rnglists,"",%progbits
 1958              	.Ldebug_ranges0:
 1959 0000 2D000000 		.4byte	.Ldebug_ranges3-.Ldebug_ranges2
 1960              	.Ldebug_ranges2:
 1961 0004 0500     		.2byte	0x5
 1962 0006 04       		.byte	0x4
 1963 0007 00       		.byte	0
 1964 0008 00000000 		.4byte	0
 1965              	.LLRL0:
 1966 000c 05       		.byte	0x5
 1967 000d 00000000 		.4byte	.LBB54
 1968 0011 04       		.byte	0x4
 1969 0012 00       		.uleb128 .LBB54-.LBB54
 1970 0013 02       		.uleb128 .LBE54-.LBB54
 1971 0014 04       		.byte	0x4
 1972 0015 08       		.uleb128 .LBB61-.LBB54
 1973 0016 10       		.uleb128 .LBE61-.LBB54
 1974 0017 04       		.byte	0x4
 1975 0018 12       		.uleb128 .LBB62-.LBB54
 1976 0019 16       		.uleb128 .LBE62-.LBB54
 1977 001a 04       		.byte	0x4
 1978 001b 1A       		.uleb128 .LBB63-.LBB54
 1979 001c 1E       		.uleb128 .LBE63-.LBB54
 1980 001d 04       		.byte	0x4
 1981 001e 20       		.uleb128 .LBB64-.LBB54
 1982 001f 28       		.uleb128 .LBE64-.LBB54
 1983 0020 04       		.byte	0x4
 1984 0021 2A       		.uleb128 .LBB65-.LBB54
 1985 0022 2E       		.uleb128 .LBE65-.LBB54
 1986 0023 00       		.byte	0
 1987              	.LLRL6:
 1988 0024 07       		.byte	0x7
 1989 0025 00000000 		.4byte	.LFB448
 1990 0029 54       		.uleb128 .LFE448-.LFB448
 1991 002a 07       		.byte	0x7
 1992 002b 00000000 		.4byte	.LFB449
 1993 002f 2C       		.uleb128 .LFE449-.LFB449
 1994 0030 00       		.byte	0
 1995              	.Ldebug_ranges3:
ARM GAS  C:\Users\DEVELO~1\AppData\Local\Temp\ccfX5QOj.s 			page 36


 1996              		.section	.debug_line,"",%progbits
 1997              	.Ldebug_line0:
 1998 0000 32040000 		.section	.debug_str,"MS",%progbits,1
 1998      03007102 
 1998      00000201 
 1998      FB0E0D00 
 1998      01010101 
 1999              	.LASF94:
 2000 0000 73745F6C 		.ascii	"st_lld_serve_interrupt\000"
 2000      6C645F73 
 2000      65727665 
 2000      5F696E74 
 2000      65727275 
 2001              	.LASF36:
 2002 0017 504C4C31 		.ascii	"PLL1DIVR\000"
 2002      44495652 
 2002      00
 2003              	.LASF108:
 2004 0020 2E2F4368 		.ascii	"./ChibiOS/os/hal/ports/STM32/LLD/SYSTICKv1/hal_st_l"
 2004      6962694F 
 2004      532F6F73 
 2004      2F68616C 
 2004      2F706F72 
 2005 0053 6C642E63 		.ascii	"ld.c\000"
 2005      00
 2006              	.LASF85:
 2007 0058 44494552 		.ascii	"DIER\000"
 2007      00
 2008              	.LASF99:
 2009 005d 6F73616C 		.ascii	"osalSysLockFromISR\000"
 2009      5379734C 
 2009      6F636B46 
 2009      726F6D49 
 2009      535200
 2010              	.LASF21:
 2011 0070 41504232 		.ascii	"APB2FZ1\000"
 2011      465A3100 
 2012              	.LASF91:
 2013 0078 43434D52 		.ascii	"CCMR3\000"
 2013      3300
 2014              	.LASF78:
 2015 007e 41504231 		.ascii	"APB1HLPENR\000"
 2015      484C5045 
 2015      4E5200
 2016              	.LASF7:
 2017 0089 6C6F6E67 		.ascii	"long int\000"
 2017      20696E74 
 2017      00
 2018              	.LASF105:
 2019 0092 706F7274 		.ascii	"port_lock\000"
 2019      5F6C6F63 
 2019      6B00
 2020              	.LASF9:
 2021 009c 6C6F6E67 		.ascii	"long long unsigned int\000"
 2021      206C6F6E 
 2021      6720756E 
 2021      7369676E 
ARM GAS  C:\Users\DEVELO~1\AppData\Local\Temp\ccfX5QOj.s 			page 37


 2021      65642069 
 2022              	.LASF13:
 2023 00b3 4944434F 		.ascii	"IDCODE\000"
 2023      444500
 2024              	.LASF60:
 2025 00ba 4433414D 		.ascii	"D3AMR\000"
 2025      5200
 2026              	.LASF98:
 2027 00c0 6F73616C 		.ascii	"osalSysUnlockFromISR\000"
 2027      53797355 
 2027      6E6C6F63 
 2027      6B46726F 
 2027      6D495352 
 2028              	.LASF95:
 2029 00d5 73745F6C 		.ascii	"st_lld_init\000"
 2029      6C645F69 
 2029      6E697400 
 2030              	.LASF89:
 2031 00e1 42445452 		.ascii	"BDTR\000"
 2031      00
 2032              	.LASF73:
 2033 00e6 41484231 		.ascii	"AHB1LPENR\000"
 2033      4C50454E 
 2033      5200
 2034              	.LASF47:
 2035 00f0 43494552 		.ascii	"CIER\000"
 2035      00
 2036              	.LASF54:
 2037 00f5 41484234 		.ascii	"AHB4RSTR\000"
 2037      52535452 
 2037      00
 2038              	.LASF87:
 2039 00fe 43434D52 		.ascii	"CCMR2\000"
 2039      3200
 2040              	.LASF1:
 2041 0104 6C6F6E67 		.ascii	"long long int\000"
 2041      206C6F6E 
 2041      6720696E 
 2041      7400
 2042              	.LASF3:
 2043 0112 7369676E 		.ascii	"signed char\000"
 2043      65642063 
 2043      68617200 
 2044              	.LASF52:
 2045 011e 41484231 		.ascii	"AHB1RSTR\000"
 2045      52535452 
 2045      00
 2046              	.LASF106:
 2047 0127 62617365 		.ascii	"basePri\000"
 2047      50726900 
 2048              	.LASF61:
 2049 012f 52455345 		.ascii	"RESERVED11\000"
 2049      52564544 
 2049      313100
 2050              	.LASF71:
 2051 013a 52455345 		.ascii	"RESERVED12\000"
 2051      52564544 
ARM GAS  C:\Users\DEVELO~1\AppData\Local\Temp\ccfX5QOj.s 			page 38


 2051      313200
 2052              	.LASF81:
 2053 0145 52455345 		.ascii	"RESERVED13\000"
 2053      52564544 
 2053      313300
 2054              	.LASF37:
 2055 0150 504C4C31 		.ascii	"PLL1FRACR\000"
 2055      46524143 
 2055      5200
 2056              	.LASF58:
 2057 015a 41504232 		.ascii	"APB2RSTR\000"
 2057      52535452 
 2057      00
 2058              	.LASF88:
 2059 0163 43434552 		.ascii	"CCER\000"
 2059      00
 2060              	.LASF32:
 2061 0168 44334346 		.ascii	"D3CFGR\000"
 2061      475200
 2062              	.LASF109:
 2063 016f 433A5C43 		.ascii	"C:\\ChibiStudio\\chibios2111\\demos\\STM32\\RT-STM3"
 2063      68696269 
 2063      53747564 
 2063      696F5C63 
 2063      68696269 
 2064 019d 32483734 		.ascii	"2H743ZI_REV_XY-NUCLEO144 - Copie\000"
 2064      335A495F 
 2064      5245565F 
 2064      58592D4E 
 2064      55434C45 
 2065              	.LASF104:
 2066 01be 706F7274 		.ascii	"port_unlock\000"
 2066      5F756E6C 
 2066      6F636B00 
 2067              	.LASF48:
 2068 01ca 43494652 		.ascii	"CIFR\000"
 2068      00
 2069              	.LASF40:
 2070 01cf 504C4C33 		.ascii	"PLL3DIVR\000"
 2070      44495652 
 2070      00
 2071              	.LASF10:
 2072 01d8 5F5F7569 		.ascii	"__uint32_t\000"
 2072      6E743332 
 2072      5F7400
 2073              	.LASF96:
 2074 01e3 6D61736B 		.ascii	"mask\000"
 2074      00
 2075              	.LASF44:
 2076 01e8 44324343 		.ascii	"D2CCIP1R\000"
 2076      49503152 
 2076      00
 2077              	.LASF46:
 2078 01f1 44334343 		.ascii	"D3CCIPR\000"
 2078      49505200 
 2079              	.LASF17:
 2080 01f9 41504231 		.ascii	"APB1LFZ1\000"
ARM GAS  C:\Users\DEVELO~1\AppData\Local\Temp\ccfX5QOj.s 			page 39


 2080      4C465A31 
 2080      00
 2081              	.LASF39:
 2082 0202 504C4C32 		.ascii	"PLL2FRACR\000"
 2082      46524143 
 2082      5200
 2083              	.LASF0:
 2084 020c 756E7369 		.ascii	"unsigned int\000"
 2084      676E6564 
 2084      20696E74 
 2084      00
 2085              	.LASF8:
 2086 0219 6C6F6E67 		.ascii	"long unsigned int\000"
 2086      20756E73 
 2086      69676E65 
 2086      6420696E 
 2086      7400
 2087              	.LASF82:
 2088 022b 5243435F 		.ascii	"RCC_TypeDef\000"
 2088      54797065 
 2088      44656600 
 2089              	.LASF107:
 2090 0237 474E5520 		.ascii	"GNU C17 11.3.1 20220712 -mcpu=cortex-m7 -mthumb -mf"
 2090      43313720 
 2090      31312E33 
 2090      2E312032 
 2090      30323230 
 2091 026a 6C6F6174 		.ascii	"loat-abi=soft -march=armv7e-m -ggdb -O2 -fomit-fram"
 2091      2D616269 
 2091      3D736F66 
 2091      74202D6D 
 2091      61726368 
 2092 029d 652D706F 		.ascii	"e-pointer -falign-functions=16 -ffunction-sections "
 2092      696E7465 
 2092      72202D66 
 2092      616C6967 
 2092      6E2D6675 
 2093 02d0 2D666461 		.ascii	"-fdata-sections -fno-common\000"
 2093      74612D73 
 2093      65637469 
 2093      6F6E7320 
 2093      2D666E6F 
 2094              	.LASF6:
 2095 02ec 73686F72 		.ascii	"short unsigned int\000"
 2095      7420756E 
 2095      7369676E 
 2095      65642069 
 2095      6E7400
 2096              	.LASF34:
 2097 02ff 504C4C43 		.ascii	"PLLCKSELR\000"
 2097      4B53454C 
 2097      5200
 2098              	.LASF25:
 2099 0309 48534943 		.ascii	"HSICFGR\000"
 2099      46475200 
 2100              	.LASF51:
 2101 0311 41484233 		.ascii	"AHB3RSTR\000"
ARM GAS  C:\Users\DEVELO~1\AppData\Local\Temp\ccfX5QOj.s 			page 40


 2101      52535452 
 2101      00
 2102              	.LASF68:
 2103 031a 41504231 		.ascii	"APB1HENR\000"
 2103      48454E52 
 2103      00
 2104              	.LASF45:
 2105 0323 44324343 		.ascii	"D2CCIP2R\000"
 2105      49503252 
 2105      00
 2106              	.LASF93:
 2107 032c 73746D33 		.ascii	"stm32_tim_t\000"
 2107      325F7469 
 2107      6D5F7400 
 2108              	.LASF56:
 2109 0338 41504231 		.ascii	"APB1LRSTR\000"
 2109      4C525354 
 2109      5200
 2110              	.LASF79:
 2111 0342 41504232 		.ascii	"APB2LPENR\000"
 2111      4C50454E 
 2111      5200
 2112              	.LASF41:
 2113 034c 504C4C33 		.ascii	"PLL3FRACR\000"
 2113      46524143 
 2113      5200
 2114              	.LASF113:
 2115 0356 72636345 		.ascii	"rccEnableAPB1L\000"
 2115      6E61626C 
 2115      65415042 
 2115      314C00
 2116              	.LASF59:
 2117 0365 41504234 		.ascii	"APB4RSTR\000"
 2117      52535452 
 2117      00
 2118              	.LASF97:
 2119 036e 6F73616C 		.ascii	"osalOsTimerHandlerI\000"
 2119      4F735469 
 2119      6D657248 
 2119      616E646C 
 2119      65724900 
 2120              	.LASF70:
 2121 0382 41504234 		.ascii	"APB4ENR\000"
 2121      454E5200 
 2122              	.LASF57:
 2123 038a 41504231 		.ascii	"APB1HRSTR\000"
 2123      48525354 
 2123      5200
 2124              	.LASF74:
 2125 0394 41484232 		.ascii	"AHB2LPENR\000"
 2125      4C50454E 
 2125      5200
 2126              	.LASF76:
 2127 039e 41504233 		.ascii	"APB3LPENR\000"
 2127      4C50454E 
 2127      5200
 2128              	.LASF35:
ARM GAS  C:\Users\DEVELO~1\AppData\Local\Temp\ccfX5QOj.s 			page 41


 2129 03a8 504C4C43 		.ascii	"PLLCFGR\000"
 2129      46475200 
 2130              	.LASF111:
 2131 03b0 74696D70 		.ascii	"timp\000"
 2131      00
 2132              	.LASF66:
 2133 03b5 41504233 		.ascii	"APB3ENR\000"
 2133      454E5200 
 2134              	.LASF65:
 2135 03bd 41484234 		.ascii	"AHB4ENR\000"
 2135      454E5200 
 2136              	.LASF29:
 2137 03c5 52455345 		.ascii	"RESERVED1\000"
 2137      52564544 
 2137      3100
 2138              	.LASF33:
 2139 03cf 52455345 		.ascii	"RESERVED2\000"
 2139      52564544 
 2139      3200
 2140              	.LASF42:
 2141 03d9 52455345 		.ascii	"RESERVED3\000"
 2141      52564544 
 2141      3300
 2142              	.LASF31:
 2143 03e3 44324346 		.ascii	"D2CFGR\000"
 2143      475200
 2144              	.LASF16:
 2145 03ea 52455345 		.ascii	"RESERVED5\000"
 2145      52564544 
 2145      3500
 2146              	.LASF18:
 2147 03f4 52455345 		.ascii	"RESERVED6\000"
 2147      52564544 
 2147      3600
 2148              	.LASF20:
 2149 03fe 52455345 		.ascii	"RESERVED7\000"
 2149      52564544 
 2149      3700
 2150              	.LASF22:
 2151 0408 52455345 		.ascii	"RESERVED8\000"
 2151      52564544 
 2151      3800
 2152              	.LASF100:
 2153 0412 63685379 		.ascii	"chSysUnlockFromISR\000"
 2153      73556E6C 
 2153      6F636B46 
 2153      726F6D49 
 2153      535200
 2154              	.LASF83:
 2155 0425 5F426F6F 		.ascii	"_Bool\000"
 2155      6C00
 2156              	.LASF38:
 2157 042b 504C4C32 		.ascii	"PLL2DIVR\000"
 2157      44495652 
 2157      00
 2158              	.LASF4:
 2159 0434 756E7369 		.ascii	"unsigned char\000"
ARM GAS  C:\Users\DEVELO~1\AppData\Local\Temp\ccfX5QOj.s 			page 42


 2159      676E6564 
 2159      20636861 
 2159      7200
 2160              	.LASF5:
 2161 0442 73686F72 		.ascii	"short int\000"
 2161      7420696E 
 2161      7400
 2162              	.LASF72:
 2163 044c 41484233 		.ascii	"AHB3LPENR\000"
 2163      4C50454E 
 2163      5200
 2164              	.LASF80:
 2165 0456 41504234 		.ascii	"APB4LPENR\000"
 2165      4C50454E 
 2165      5200
 2166              	.LASF112:
 2167 0460 5F5F6675 		.ascii	"__func__\000"
 2167      6E635F5F 
 2167      00
 2168              	.LASF69:
 2169 0469 41504232 		.ascii	"APB2ENR\000"
 2169      454E5200 
 2170              	.LASF62:
 2171 0471 41484233 		.ascii	"AHB3ENR\000"
 2171      454E5200 
 2172              	.LASF92:
 2173 0479 43435852 		.ascii	"CCXR\000"
 2173      00
 2174              	.LASF24:
 2175 047e 4442474D 		.ascii	"DBGMCU_TypeDef\000"
 2175      43555F54 
 2175      79706544 
 2175      656600
 2176              	.LASF14:
 2177 048d 52455345 		.ascii	"RESERVED4\000"
 2177      52564544 
 2177      3400
 2178              	.LASF11:
 2179 0497 75696E74 		.ascii	"uint32_t\000"
 2179      33325F74 
 2179      00
 2180              	.LASF19:
 2181 04a0 41504231 		.ascii	"APB1HFZ1\000"
 2181      48465A31 
 2181      00
 2182              	.LASF2:
 2183 04a9 6C6F6E67 		.ascii	"long double\000"
 2183      20646F75 
 2183      626C6500 
 2184              	.LASF12:
 2185 04b5 63686172 		.ascii	"char\000"
 2185      00
 2186              	.LASF84:
 2187 04ba 534D4352 		.ascii	"SMCR\000"
 2187      00
 2188              	.LASF90:
 2189 04bf 444D4152 		.ascii	"DMAR\000"
ARM GAS  C:\Users\DEVELO~1\AppData\Local\Temp\ccfX5QOj.s 			page 43


 2189      00
 2190              	.LASF53:
 2191 04c4 41484232 		.ascii	"AHB2RSTR\000"
 2191      52535452 
 2191      00
 2192              	.LASF102:
 2193 04cd 706F7274 		.ascii	"port_unlock_from_isr\000"
 2193      5F756E6C 
 2193      6F636B5F 
 2193      66726F6D 
 2193      5F697372 
 2194              	.LASF110:
 2195 04e2 63685379 		.ascii	"chSysTimerHandlerI\000"
 2195      7354696D 
 2195      65724861 
 2195      6E646C65 
 2195      724900
 2196              	.LASF75:
 2197 04f5 41484234 		.ascii	"AHB4LPENR\000"
 2197      4C50454E 
 2197      5200
 2198              	.LASF114:
 2199 04ff 5F5F7365 		.ascii	"__set_BASEPRI\000"
 2199      745F4241 
 2199      53455052 
 2199      4900
 2200              	.LASF23:
 2201 050d 41504234 		.ascii	"APB4FZ1\000"
 2201      465A3100 
 2202              	.LASF64:
 2203 0515 41484232 		.ascii	"AHB2ENR\000"
 2203      454E5200 
 2204              	.LASF55:
 2205 051d 41504233 		.ascii	"APB3RSTR\000"
 2205      52535452 
 2205      00
 2206              	.LASF27:
 2207 0526 43534943 		.ascii	"CSICFGR\000"
 2207      46475200 
 2208              	.LASF103:
 2209 052e 706F7274 		.ascii	"port_lock_from_isr\000"
 2209      5F6C6F63 
 2209      6B5F6672 
 2209      6F6D5F69 
 2209      737200
 2210              	.LASF26:
 2211 0541 43525243 		.ascii	"CRRCR\000"
 2211      5200
 2212              	.LASF77:
 2213 0547 41504231 		.ascii	"APB1LLPENR\000"
 2213      4C4C5045 
 2213      4E5200
 2214              	.LASF49:
 2215 0552 43494352 		.ascii	"CICR\000"
 2215      00
 2216              	.LASF50:
 2217 0557 42444352 		.ascii	"BDCR\000"
ARM GAS  C:\Users\DEVELO~1\AppData\Local\Temp\ccfX5QOj.s 			page 44


 2217      00
 2218              	.LASF101:
 2219 055c 63685379 		.ascii	"chSysLockFromISR\000"
 2219      734C6F63 
 2219      6B46726F 
 2219      6D495352 
 2219      00
 2220              	.LASF15:
 2221 056d 41504233 		.ascii	"APB3FZ1\000"
 2221      465A3100 
 2222              	.LASF63:
 2223 0575 41484231 		.ascii	"AHB1ENR\000"
 2223      454E5200 
 2224              	.LASF28:
 2225 057d 43464752 		.ascii	"CFGR\000"
 2225      00
 2226              	.LASF67:
 2227 0582 41504231 		.ascii	"APB1LENR\000"
 2227      4C454E52 
 2227      00
 2228              	.LASF43:
 2229 058b 44314343 		.ascii	"D1CCIPR\000"
 2229      49505200 
 2230              	.LASF86:
 2231 0593 43434D52 		.ascii	"CCMR1\000"
 2231      3100
 2232              	.LASF30:
 2233 0599 44314346 		.ascii	"D1CFGR\000"
 2233      475200
 2234              		.ident	"GCC: (Arm GNU Toolchain 11.3.Rel1) 11.3.1 20220712"
ARM GAS  C:\Users\DEVELO~1\AppData\Local\Temp\ccfX5QOj.s 			page 45


DEFINED SYMBOLS
                            *ABS*:00000000 hal_st_lld.c
C:\Users\DEVELO~1\AppData\Local\Temp\ccfX5QOj.s:18     .text.st_lld_init:00000000 $t
C:\Users\DEVELO~1\AppData\Local\Temp\ccfX5QOj.s:25     .text.st_lld_init:00000000 st_lld_init
C:\Users\DEVELO~1\AppData\Local\Temp\ccfX5QOj.s:142    .text.st_lld_init:0000004c $d
C:\Users\DEVELO~1\AppData\Local\Temp\ccfX5QOj.s:148    .text.st_lld_serve_interrupt:00000000 $t
C:\Users\DEVELO~1\AppData\Local\Temp\ccfX5QOj.s:155    .text.st_lld_serve_interrupt:00000000 st_lld_serve_interrupt

UNDEFINED SYMBOLS
chSysTimerHandlerI
