ARM GAS  C:\Users\DEVELO~1\AppData\Local\Temp\ccJT7xvm.s 			page 1


   1              		.cpu cortex-m7
   2              		.arch armv7e-m
   3              		.fpu softvfp
   4              		.eabi_attribute 20, 1
   5              		.eabi_attribute 21, 1
   6              		.eabi_attribute 23, 3
   7              		.eabi_attribute 24, 1
   8              		.eabi_attribute 25, 1
   9              		.eabi_attribute 26, 1
  10              		.eabi_attribute 30, 2
  11              		.eabi_attribute 34, 1
  12              		.eabi_attribute 18, 4
  13              		.file	"hall_midi.c"
  14              		.text
  15              	.Ltext0:
  16              		.cfi_sections	.debug_frame
  17              		.section	.rodata.hall_midi_thread_func.str1.4,"aMS",%progbits,1
  18              		.align	2
  19              	.LC0:
  20 0000 68616C6C 		.ascii	"hall_midi\000"
  20      5F6D6964 
  20      6900
  21              		.section	.text.hall_midi_thread_func,"ax",%progbits
  22              		.align	1
  23              		.p2align 4,,15
  24              		.syntax unified
  25              		.thumb
  26              		.thumb_func
  27              		.type	hall_midi_thread_func, %function
  28              	hall_midi_thread_func:
  29              	.LVL0:
  30              	.LFB438:
  31              		.file 1 "drivers/hall_midi.c"
  32              		.loc 1 91 49 view -0
  33              		.cfi_startproc
  34              		@ args = 0, pretend = 0, frame = 24
  35              		@ frame_needed = 0, uses_anonymous_args = 0
  36              		.loc 1 92 3 view .LVU1
  37              		.loc 1 93 3 view .LVU2
  38              	.LBB107:
  39              	.LBI107:
  40              		.file 2 "../../../os/rt/include/chregistry.h"
  41              		.loc 2 165 20 view .LVU3
  42              	.LBB108:
  43              		.loc 2 168 3 view .LVU4
  44 0000 974B     		ldr	r3, .L61
  45              		.loc 2 168 32 is_stmt 0 view .LVU5
  46 0002 984A     		ldr	r2, .L61+4
  47 0004 DB68     		ldr	r3, [r3, #12]
  48              	.LBE108:
  49              	.LBE107:
  50              		.loc 1 91 49 view .LVU6
  51 0006 2DE9F04F 		push	{r4, r5, r6, r7, r8, r9, r10, fp, lr}
  52              		.cfi_def_cfa_offset 36
  53              		.cfi_offset 4, -36
  54              		.cfi_offset 5, -32
  55              		.cfi_offset 6, -28
ARM GAS  C:\Users\DEVELO~1\AppData\Local\Temp\ccJT7xvm.s 			page 2


  56              		.cfi_offset 7, -24
  57              		.cfi_offset 8, -20
  58              		.cfi_offset 9, -16
  59              		.cfi_offset 10, -12
  60              		.cfi_offset 11, -8
  61              		.cfi_offset 14, -4
  62              	.LBB110:
  63              	.LBB109:
  64              		.loc 2 168 32 view .LVU7
  65 000a DA61     		str	r2, [r3, #28]
  66              	.LVL1:
  67              		.loc 2 168 32 view .LVU8
  68              	.LBE109:
  69              	.LBE110:
  70              		.loc 1 95 3 is_stmt 1 view .LVU9
  71              		.loc 1 96 3 view .LVU10
  72              		.loc 1 97 3 view .LVU11
  73              		.loc 1 98 3 view .LVU12
  74              		.loc 1 100 3 view .LVU13
  75              		.loc 1 91 49 is_stmt 0 view .LVU14
  76 000c 87B0     		sub	sp, sp, #28
  77              		.cfi_def_cfa_offset 64
  78              		.loc 1 100 3 view .LVU15
  79 000e FFF7FEFF 		bl	drv_hall_init
  80              	.LVL2:
  81              		.loc 1 101 3 is_stmt 1 view .LVU16
  82              	.LBB111:
  83              	.LBI111:
  84              		.loc 1 44 13 view .LVU17
  85              	.LBB112:
  86              		.loc 1 45 3 view .LVU18
  87              	.LBE112:
  88              	.LBE111:
  89              	.LBB115:
  90              	.LBB116:
  91              		.loc 1 69 29 is_stmt 0 view .LVU19
  92 0012 DFF854A2 		ldr	r10, .L61+8
  93              	.LBE116:
  94              	.LBE115:
  95              	.LBB120:
  96              	.LBB113:
  97              		.loc 1 45 3 view .LVU20
  98 0016 0023     		movs	r3, #0
  99              	.LBE113:
 100              	.LBE120:
 101              	.LBB121:
 102              	.LBB117:
 103              		.loc 1 70 29 view .LVU21
 104 0018 4FF0FF32 		mov	r2, #-1
 105 001c DFF84CB2 		ldr	fp, .L61+12
 106              	.LBE117:
 107              	.LBE121:
 108              		.loc 1 98 8 view .LVU22
 109 0020 1C46     		mov	r4, r3
 110              		.loc 1 96 8 view .LVU23
 111 0022 1D46     		mov	r5, r3
 112              	.LBB122:
ARM GAS  C:\Users\DEVELO~1\AppData\Local\Temp\ccJT7xvm.s 			page 3


 113              	.LBB123:
 114              	.LBB124:
 115              	.LBB125:
 116              		.loc 1 158 13 view .LVU24
 117 0024 9946     		mov	r9, r3
 118              	.LBE125:
 119              	.LBE124:
 120              	.LBE123:
 121              	.LBE122:
 122              	.LBB206:
 123              	.LBB118:
 124              		.loc 1 72 32 view .LVU25
 125 0026 AAF80830 		strh	r3, [r10, #8]	@ movhi
 126              	.LBE118:
 127              	.LBE206:
 128              		.loc 1 97 8 view .LVU26
 129 002a 0193     		str	r3, [sp, #4]
 130              	.LBB207:
 131              	.LBB114:
 132              		.loc 1 45 3 view .LVU27
 133 002c CDE90233 		strd	r3, r3, [sp, #8]
 134 0030 CDE90433 		strd	r3, r3, [sp, #16]
 135              	.LVL3:
 136              		.loc 1 45 3 view .LVU28
 137              	.LBE114:
 138              	.LBE207:
 139              		.loc 1 102 3 is_stmt 1 view .LVU29
 140              	.LBB208:
 141              	.LBI115:
 142              		.loc 1 68 13 view .LVU30
 143              	.LBB119:
 144              		.loc 1 69 3 view .LVU31
 145              		.loc 1 70 3 view .LVU32
 146              		.loc 1 71 3 view .LVU33
 147              		.loc 1 72 3 view .LVU34
 148              		.loc 1 73 3 view .LVU35
 149              		.loc 1 70 29 is_stmt 0 view .LVU36
 150 0034 CAE90032 		strd	r3, r2, [r10]
 151              		.loc 1 74 1 view .LVU37
 152 0038 14E0     		b	.L28
 153              	.LVL4:
 154              	.L52:
 155              		.loc 1 74 1 view .LVU38
 156              	.LBE119:
 157              	.LBE208:
 158              	.LBB209:
 159              		.loc 1 110 8 view .LVU39
 160 003a 0FB3     		cbz	r7, .L4
 161              		.loc 1 111 7 is_stmt 1 view .LVU40
 162              		.loc 1 111 24 is_stmt 0 view .LVU41
 163 003c 8C4B     		ldr	r3, .L61+16
 164              		.loc 1 112 26 view .LVU42
 165 003e 0446     		mov	r4, r0
 166              	.LVL5:
 167              		.loc 1 112 26 view .LVU43
 168 0040 8BF80090 		strb	r9, [fp]
 169              		.loc 1 111 24 view .LVU44
ARM GAS  C:\Users\DEVELO~1\AppData\Local\Temp\ccJT7xvm.s 			page 4


 170 0044 1860     		str	r0, [r3]
 171              		.loc 1 112 7 is_stmt 1 view .LVU45
 172              		.loc 1 115 5 view .LVU46
 173              		.loc 1 128 5 view .LVU47
 174              	.L3:
 175              	.LVL6:
 176              	.LBB146:
 177              	.LBI146:
 178              		.file 3 "../../../os/rt/include/chvt.h"
 179              		.loc 3 159 29 discriminator 2 view .LVU48
 180              		.loc 3 161 3 discriminator 2 view .LVU49
 181              	.LBB147:
 182              	.LBI147:
 183              		.loc 3 122 25 discriminator 2 view .LVU50
 184              		.loc 3 127 3 discriminator 2 view .LVU51
 185              	.LBB148:
 186              	.LBI148:
 187              		.file 4 "../../../os/hal/osal/rt-nil/chcore_timer.h"
 188              		.loc 4 111 25 discriminator 2 view .LVU52
 189              	.LBB149:
 190              		.loc 4 113 3 discriminator 2 view .LVU53
 191              		.loc 4 113 10 is_stmt 0 discriminator 2 view .LVU54
 192 0046 FFF7FEFF 		bl	stGetCounter
 193              	.LVL7:
 194              		.loc 4 113 10 discriminator 2 view .LVU55
 195              	.LBE149:
 196              	.LBE148:
 197              	.LBE147:
 198              	.LBB150:
 199              	.LBI150:
 200              		.file 5 "../../../os/rt/include/chtime.h"
 201              		.loc 5 461 29 is_stmt 1 discriminator 2 view .LVU56
 202              	.LBB151:
 203              		.loc 5 465 3 discriminator 2 view .LVU57
 204              		.loc 5 465 3 is_stmt 0 discriminator 2 view .LVU58
 205              	.LBE151:
 206              	.LBE150:
 207              	.LBE146:
 208              		.loc 1 128 43 discriminator 2 view .LVU59
 209 004a 40F6B733 		movw	r3, #2999
 210              	.LBB154:
 211              	.LBB153:
 212              	.LBB152:
 213              		.loc 5 465 10 discriminator 2 view .LVU60
 214 004e 001B     		subs	r0, r0, r4
 215              	.LBE152:
 216              	.LBE153:
 217              	.LBE154:
 218              		.loc 1 128 43 discriminator 2 view .LVU61
 219 0050 9842     		cmp	r0, r3
 220 0052 00F2A580 		bhi	.L51
 221              		.loc 1 138 5 is_stmt 1 view .LVU62
 222              		.loc 1 138 20 is_stmt 0 view .LVU63
 223 0056 9BF80030 		ldrb	r3, [fp]	@ zero_extendqisi2
 224 005a 53BB     		cbnz	r3, .L5
 225              	.LVL8:
 226              	.L9:
ARM GAS  C:\Users\DEVELO~1\AppData\Local\Temp\ccJT7xvm.s 			page 5


 227              		.loc 1 197 5 is_stmt 1 view .LVU64
 228              		.loc 1 198 5 view .LVU65
 229 005c 0A20     		movs	r0, #10
 230              		.loc 1 107 29 is_stmt 0 view .LVU66
 231 005e 3C46     		mov	r4, r7
 232              		.loc 1 198 5 view .LVU67
 233 0060 FFF7FEFF 		bl	chThdSleep
 234              	.LVL9:
 235              	.LBE209:
 236              		.loc 1 104 9 is_stmt 1 view .LVU68
 237              	.L28:
 238              		.loc 1 104 3 view .LVU69
 239              	.LBB210:
 240              		.loc 1 105 5 view .LVU70
 241 0064 FFF7FEFF 		bl	drv_hall_task
 242              	.LVL10:
 243              		.loc 1 107 5 view .LVU71
 244              		.loc 1 107 29 is_stmt 0 view .LVU72
 245 0068 FFF7FEFF 		bl	usb_device_active
 246              	.LVL11:
 247 006c 0746     		mov	r7, r0
 248              	.LVL12:
 249              		.loc 1 108 5 is_stmt 1 view .LVU73
 250              	.LBB155:
 251              	.LBI155:
 252              		.loc 3 122 25 view .LVU74
 253              		.loc 3 127 3 view .LVU75
 254              	.LBB156:
 255              	.LBI156:
 256              		.loc 4 111 25 view .LVU76
 257              	.LBB157:
 258              		.loc 4 113 3 view .LVU77
 259              		.loc 4 113 10 is_stmt 0 view .LVU78
 260 006e FFF7FEFF 		bl	stGetCounter
 261              	.LVL13:
 262              	.LBE157:
 263              	.LBE156:
 264              	.LBE155:
 265              		.loc 1 110 23 view .LVU79
 266 0072 84F00103 		eor	r3, r4, #1
 267              	.LBB160:
 268              	.LBB159:
 269              	.LBB158:
 270              		.loc 4 113 10 view .LVU80
 271 0076 8046     		mov	r8, r0
 272              	.LVL14:
 273              		.loc 4 113 10 view .LVU81
 274              	.LBE158:
 275              	.LBE159:
 276              	.LBE160:
 277              		.loc 1 110 5 is_stmt 1 view .LVU82
 278              		.loc 1 110 8 is_stmt 0 view .LVU83
 279 0078 DBB2     		uxtb	r3, r3
 280 007a 002B     		cmp	r3, #0
 281 007c DDD1     		bne	.L52
 282              		.loc 1 115 5 is_stmt 1 view .LVU84
 283              		.loc 1 115 8 is_stmt 0 view .LVU85
ARM GAS  C:\Users\DEVELO~1\AppData\Local\Temp\ccJT7xvm.s 			page 6


 284 007e 9FB9     		cbnz	r7, .L53
 285              	.L4:
 286              		.loc 1 116 7 is_stmt 1 view .LVU86
 287              		.loc 1 116 26 is_stmt 0 view .LVU87
 288 0080 8BF80090 		strb	r9, [fp]
 289              		.loc 1 117 7 is_stmt 1 view .LVU88
 290              		.loc 1 117 10 is_stmt 0 view .LVU89
 291 0084 002C     		cmp	r4, #0
 292 0086 7ED0     		beq	.L7
 293              		.loc 1 118 9 is_stmt 1 view .LVU90
 294              	.LBB161:
 295              	.LBI161:
 296              		.loc 1 85 13 view .LVU91
 297              	.LBB162:
 298              		.loc 1 86 3 view .LVU92
 299              		.loc 1 86 7 is_stmt 0 view .LVU93
 300 0088 FFF7FEFF 		bl	usb_device_active
 301              	.LVL15:
 302              		.loc 1 86 6 view .LVU94
 303 008c 0028     		cmp	r0, #0
 304 008e 40F0AC80 		bne	.L54
 305              	.L8:
 306              	.LBE162:
 307              	.LBE161:
 308              		.loc 1 119 9 is_stmt 1 view .LVU95
 309              	.LVL16:
 310              	.LBB166:
 311              	.LBI166:
 312              		.loc 1 44 13 view .LVU96
 313              	.LBB167:
 314              		.loc 1 45 3 view .LVU97
 315              	.LBE167:
 316              	.LBE166:
 317              	.LBB169:
 318              	.LBB170:
 319              		.loc 1 70 29 is_stmt 0 view .LVU98
 320 0092 4FF0FF33 		mov	r3, #-1
 321              		.loc 1 72 32 view .LVU99
 322 0096 AAF80890 		strh	r9, [r10, #8]	@ movhi
 323              	.LBE170:
 324              	.LBE169:
 325              	.LBB172:
 326              	.LBB168:
 327              		.loc 1 45 3 view .LVU100
 328 009a CDE90299 		strd	r9, r9, [sp, #8]
 329 009e CDE90499 		strd	r9, r9, [sp, #16]
 330              	.LVL17:
 331              		.loc 1 45 3 view .LVU101
 332              	.LBE168:
 333              	.LBE172:
 334              		.loc 1 120 9 is_stmt 1 view .LVU102
 335              	.LBB173:
 336              	.LBI169:
 337              		.loc 1 68 13 view .LVU103
 338              	.LBB171:
 339              		.loc 1 69 3 view .LVU104
 340              		.loc 1 70 3 view .LVU105
ARM GAS  C:\Users\DEVELO~1\AppData\Local\Temp\ccJT7xvm.s 			page 7


 341              		.loc 1 71 3 view .LVU106
 342              		.loc 1 72 3 view .LVU107
 343              		.loc 1 73 3 view .LVU108
 344              		.loc 1 70 29 is_stmt 0 view .LVU109
 345 00a2 CAE90093 		strd	r9, r3, [r10]
 346              		.loc 1 74 1 view .LVU110
 347 00a6 D9E7     		b	.L9
 348              	.LVL18:
 349              	.L53:
 350              		.loc 1 74 1 view .LVU111
 351              	.LBE171:
 352              	.LBE173:
 353              		.loc 1 128 5 is_stmt 1 view .LVU112
 354              		.loc 1 128 20 is_stmt 0 view .LVU113
 355 00a8 9BF80030 		ldrb	r3, [fp]	@ zero_extendqisi2
 356 00ac 002B     		cmp	r3, #0
 357 00ae 00F0D480 		beq	.L55
 358              	.LVL19:
 359              	.L5:
 360              		.loc 1 139 7 is_stmt 1 view .LVU114
 361              		.loc 1 139 10 is_stmt 0 view .LVU115
 362 00b2 002D     		cmp	r5, #0
 363 00b4 00F09E80 		beq	.L56
 364              	.LVL20:
 365              	.L13:
 366              		.loc 1 144 7 is_stmt 1 view .LVU116
 367              		.loc 1 144 10 is_stmt 0 view .LVU117
 368 00b8 019B     		ldr	r3, [sp, #4]
 369 00ba 002B     		cmp	r3, #0
 370 00bc 00F08B80 		beq	.L30
 371              	.LVL21:
 372              	.L14:
 373              		.loc 1 149 7 is_stmt 1 view .LVU118
 374              	.LBB174:
 375              		.loc 1 149 12 view .LVU119
 376              		.loc 1 149 29 view .LVU120
 377 00c0 0DF10706 		add	r6, sp, #7
 378              	.LBE174:
 379              		.loc 1 146 31 is_stmt 0 view .LVU121
 380 00c4 0025     		movs	r5, #0
 381 00c6 05E0     		b	.L19
 382              	.LVL22:
 383              	.L58:
 384              	.LBB175:
 385              	.LBB141:
 386              	.LBB135:
 387              		.loc 1 156 13 view .LVU122
 388 00c8 FFF7FEFF 		bl	midi_note_on
 389              	.LVL23:
 390              	.L17:
 391              		.loc 1 156 13 view .LVU123
 392              	.LBE135:
 393              		.loc 1 162 9 is_stmt 1 discriminator 2 view .LVU124
 394              	.LBE141:
 395              		.loc 1 149 29 is_stmt 0 discriminator 2 view .LVU125
 396 00cc 0135     		adds	r5, r5, #1
 397              	.LVL24:
ARM GAS  C:\Users\DEVELO~1\AppData\Local\Temp\ccJT7xvm.s 			page 8


 398              	.LBB142:
 399              		.loc 1 162 23 discriminator 2 view .LVU126
 400 00ce 3470     		strb	r4, [r6]
 401              	.LBE142:
 402              		.loc 1 149 55 is_stmt 1 discriminator 2 view .LVU127
 403              		.loc 1 149 29 discriminator 2 view .LVU128
 404 00d0 102D     		cmp	r5, #16
 405 00d2 19D0     		beq	.L57
 406              	.L19:
 407              		.loc 1 149 29 is_stmt 0 discriminator 2 view .LVU129
 408 00d4 ECB2     		uxtb	r4, r5
 409              	.LVL25:
 410              	.LBB143:
 411              		.loc 1 150 9 is_stmt 1 view .LVU130
 412              		.loc 1 150 30 is_stmt 0 view .LVU131
 413 00d6 2046     		mov	r0, r4
 414 00d8 FFF7FEFF 		bl	drv_hall_is_pressed
 415              	.LVL26:
 416              	.LBB136:
 417              		.loc 1 153 11 is_stmt 1 view .LVU132
 418              	.LBB126:
 419              	.LBI126:
 420              		.loc 1 40 23 view .LVU133
 421              		.loc 1 41 3 view .LVU134
 422              	.LBB127:
 423              	.LBI127:
 424              		.loc 1 33 23 view .LVU135
 425              	.LBB128:
 426              		.loc 1 34 3 view .LVU136
 427              		.loc 1 37 3 view .LVU137
 428              	.LBE128:
 429              	.LBE127:
 430              	.LBE126:
 431              	.LBE136:
 432              		.loc 1 152 12 is_stmt 0 view .LVU138
 433 00dc 16F8013F 		ldrb	r3, [r6, #1]!	@ zero_extendqisi2
 434              	.LBB137:
 435              	.LBB133:
 436              	.LBB131:
 437              	.LBB129:
 438              		.loc 1 37 10 view .LVU139
 439 00e0 04F13C02 		add	r2, r4, #60
 440              	.LBE129:
 441              	.LBE131:
 442              	.LBE133:
 443              	.LBE137:
 444              		.loc 1 150 30 view .LVU140
 445 00e4 0446     		mov	r4, r0
 446              	.LVL27:
 447              		.loc 1 152 9 is_stmt 1 view .LVU141
 448              		.loc 1 152 12 is_stmt 0 view .LVU142
 449 00e6 8342     		cmp	r3, r0
 450              	.LBB138:
 451              	.LBB134:
 452              	.LBB132:
 453              	.LBB130:
 454              		.loc 1 37 10 view .LVU143
ARM GAS  C:\Users\DEVELO~1\AppData\Local\Temp\ccJT7xvm.s 			page 9


 455 00e8 D2B2     		uxtb	r2, r2
 456              	.LVL28:
 457              		.loc 1 37 10 view .LVU144
 458              	.LBE130:
 459              	.LBE132:
 460              	.LBE134:
 461              		.loc 1 155 11 is_stmt 1 view .LVU145
 462              	.LBE138:
 463              		.loc 1 152 12 is_stmt 0 view .LVU146
 464 00ea EFD0     		beq	.L17
 465              	.LBB139:
 466              		.loc 1 156 13 is_stmt 1 view .LVU147
 467              		.loc 1 158 13 view .LVU148
 468              		.loc 1 156 13 is_stmt 0 view .LVU149
 469 00ec 6423     		movs	r3, #100
 470 00ee 0021     		movs	r1, #0
 471 00f0 0220     		movs	r0, #2
 472              	.LVL29:
 473              		.loc 1 155 14 view .LVU150
 474 00f2 002C     		cmp	r4, #0
 475 00f4 E8D1     		bne	.L58
 476              	.LBE139:
 477              	.LBE143:
 478              		.loc 1 149 29 view .LVU151
 479 00f6 0135     		adds	r5, r5, #1
 480              	.LVL30:
 481              	.LBB144:
 482              	.LBB140:
 483              		.loc 1 158 13 view .LVU152
 484 00f8 2346     		mov	r3, r4
 485 00fa 2146     		mov	r1, r4
 486 00fc 0220     		movs	r0, #2
 487 00fe FFF7FEFF 		bl	midi_note_off
 488              	.LVL31:
 489              		.loc 1 158 13 view .LVU153
 490              	.LBE140:
 491              		.loc 1 162 9 is_stmt 1 view .LVU154
 492              	.LBE144:
 493              		.loc 1 149 29 is_stmt 0 view .LVU155
 494 0102 102D     		cmp	r5, #16
 495              	.LBB145:
 496              		.loc 1 162 23 view .LVU156
 497 0104 3470     		strb	r4, [r6]
 498              	.LBE145:
 499              		.loc 1 149 55 is_stmt 1 view .LVU157
 500              		.loc 1 149 29 view .LVU158
 501 0106 E5D1     		bne	.L19
 502              	.L57:
 503              	.LBE175:
 504              		.loc 1 165 7 view .LVU159
 505              		.loc 1 165 11 is_stmt 0 view .LVU160
 506 0108 DAF80040 		ldr	r4, [r10]
 507              	.LVL32:
 508              	.LBB176:
 509              	.LBI176:
 510              		.loc 3 159 29 is_stmt 1 view .LVU161
 511              		.loc 3 161 3 view .LVU162
ARM GAS  C:\Users\DEVELO~1\AppData\Local\Temp\ccJT7xvm.s 			page 10


 512              	.LBB177:
 513              	.LBI177:
 514              		.loc 3 122 25 view .LVU163
 515              		.loc 3 127 3 view .LVU164
 516              	.LBB178:
 517              	.LBI178:
 518              		.loc 4 111 25 view .LVU165
 519              	.LBB179:
 520              		.loc 4 113 3 view .LVU166
 521              		.loc 4 113 10 is_stmt 0 view .LVU167
 522 010c FFF7FEFF 		bl	stGetCounter
 523              	.LVL33:
 524              		.loc 4 113 10 view .LVU168
 525              	.LBE179:
 526              	.LBE178:
 527              	.LBE177:
 528              	.LBB180:
 529              	.LBI180:
 530              		.loc 5 461 29 is_stmt 1 view .LVU169
 531              	.LBB181:
 532              		.loc 5 465 3 view .LVU170
 533              		.loc 5 465 10 is_stmt 0 view .LVU171
 534 0110 001B     		subs	r0, r0, r4
 535              	.LBE181:
 536              	.LBE180:
 537              	.LBE176:
 538              		.loc 1 165 10 view .LVU172
 539 0112 B0F5FA6F 		cmp	r0, #2000
 540 0116 41D3     		bcc	.L31
 541              	.LBB182:
 542              		.loc 1 166 9 is_stmt 1 view .LVU173
 543              		.loc 1 168 31 is_stmt 0 view .LVU174
 544 0118 0020     		movs	r0, #0
 545              		.loc 1 166 35 view .LVU175
 546 011a CAF80080 		str	r8, [r10]
 547              		.loc 1 168 9 is_stmt 1 view .LVU176
 548              		.loc 1 168 31 is_stmt 0 view .LVU177
 549 011e FFF7FEFF 		bl	drv_hall_get_raw
 550              	.LVL34:
 551 0122 0446     		mov	r4, r0
 552              		.loc 1 169 31 view .LVU178
 553 0124 0120     		movs	r0, #1
 554              	.LVL35:
 555              		.loc 1 169 9 is_stmt 1 view .LVU179
 556              		.loc 1 169 31 is_stmt 0 view .LVU180
 557 0126 FFF7FEFF 		bl	drv_hall_get_raw
 558              	.LVL36:
 559              		.loc 1 171 9 view .LVU181
 560 012a C4F34F13 		ubfx	r3, r4, #5, #16
 561              		.loc 1 169 31 view .LVU182
 562 012e 0646     		mov	r6, r0
 563              	.LVL37:
 564              		.loc 1 171 9 is_stmt 1 view .LVU183
 565 0130 1422     		movs	r2, #20
 566 0132 7F2B     		cmp	r3, #127
 567 0134 4FF00001 		mov	r1, #0
 568 0138 4FF00200 		mov	r0, #2
ARM GAS  C:\Users\DEVELO~1\AppData\Local\Temp\ccJT7xvm.s 			page 11


 569 013c 28BF     		it	cs
 570 013e 7F23     		movcs	r3, #127
 571 0140 DBB2     		uxtb	r3, r3
 572 0142 FFF7FEFF 		bl	midi_cc
 573              	.LVL38:
 574              		.loc 1 172 9 view .LVU184
 575 0146 C6F34F13 		ubfx	r3, r6, #5, #16
 576 014a 1522     		movs	r2, #21
 577 014c 0021     		movs	r1, #0
 578 014e 7F2B     		cmp	r3, #127
 579 0150 4FF00200 		mov	r0, #2
 580 0154 28BF     		it	cs
 581 0156 7F23     		movcs	r3, #127
 582 0158 DBB2     		uxtb	r3, r3
 583 015a FFF7FEFF 		bl	midi_cc
 584              	.LVL39:
 585              		.loc 1 174 9 view .LVU185
 586              		.loc 1 175 9 view .LVU186
 587              		.loc 1 175 68 is_stmt 0 view .LVU187
 588 015e BAF80430 		ldrh	r3, [r10, #4]
 589 0162 A342     		cmp	r3, r4
 590 0164 4DD0     		beq	.L59
 591              	.L20:
 592              	.LVL40:
 593              		.loc 1 178 9 is_stmt 1 discriminator 6 view .LVU188
 594              		.loc 1 178 12 is_stmt 0 discriminator 6 view .LVU189
 595 0166 9AF80930 		ldrb	r3, [r10, #9]	@ zero_extendqisi2
 596 016a 33B9     		cbnz	r3, .L23
 597              		.loc 1 179 11 is_stmt 1 view .LVU190
 598              		.loc 1 179 14 is_stmt 0 view .LVU191
 599 016c 44EA0602 		orr	r2, r4, r6
 600 0170 92B2     		uxth	r2, r2
 601 0172 002A     		cmp	r2, #0
 602 0174 4DD0     		beq	.L29
 603              		.loc 1 188 13 is_stmt 1 view .LVU192
 604              		.loc 1 188 42 is_stmt 0 view .LVU193
 605 0176 8AF80830 		strb	r3, [r10, #8]
 606              	.LVL41:
 607              	.L23:
 608              		.loc 1 192 9 is_stmt 1 view .LVU194
 609              		.loc 1 193 35 is_stmt 0 view .LVU195
 610 017a 0125     		movs	r5, #1
 611              		.loc 1 192 35 view .LVU196
 612 017c AAF80440 		strh	r4, [r10, #4]	@ movhi
 613              		.loc 1 193 9 is_stmt 1 view .LVU197
 614              		.loc 1 193 35 is_stmt 0 view .LVU198
 615 0180 AAF80660 		strh	r6, [r10, #6]	@ movhi
 616 0184 6AE7     		b	.L9
 617              	.LVL42:
 618              	.L7:
 619              		.loc 1 193 35 view .LVU199
 620 0186 0DF10706 		add	r6, sp, #7
 621              	.LVL43:
 622              	.L10:
 623              		.loc 1 193 35 view .LVU200
 624              	.LBE182:
 625              	.LBB183:
ARM GAS  C:\Users\DEVELO~1\AppData\Local\Temp\ccJT7xvm.s 			page 12


 626              		.loc 1 123 11 is_stmt 1 discriminator 3 view .LVU201
 627              		.loc 1 123 27 is_stmt 0 discriminator 3 view .LVU202
 628 018a E0B2     		uxtb	r0, r4
 629              		.loc 1 122 31 discriminator 3 view .LVU203
 630 018c 0134     		adds	r4, r4, #1
 631              	.LVL44:
 632              		.loc 1 123 27 discriminator 3 view .LVU204
 633 018e FFF7FEFF 		bl	drv_hall_is_pressed
 634              	.LVL45:
 635              		.loc 1 123 25 discriminator 3 view .LVU205
 636 0192 06F8010F 		strb	r0, [r6, #1]!
 637              		.loc 1 122 57 is_stmt 1 discriminator 3 view .LVU206
 638              		.loc 1 122 31 discriminator 3 view .LVU207
 639 0196 102C     		cmp	r4, #16
 640 0198 F7D1     		bne	.L10
 641 019a 5FE7     		b	.L9
 642              	.LVL46:
 643              	.L31:
 644              		.loc 1 122 31 is_stmt 0 discriminator 3 view .LVU208
 645              	.LBE183:
 646 019c 0125     		movs	r5, #1
 647 019e 5DE7     		b	.L9
 648              	.LVL47:
 649              	.L51:
 650              		.loc 1 130 7 is_stmt 1 view .LVU209
 651              		.loc 1 130 26 is_stmt 0 view .LVU210
 652 01a0 0123     		movs	r3, #1
 653 01a2 8BF80030 		strb	r3, [fp]
 654              		.loc 1 131 7 is_stmt 1 view .LVU211
 655              	.LBB184:
 656              	.LBI184:
 657              		.loc 1 85 13 view .LVU212
 658              	.LBB185:
 659              		.loc 1 86 3 view .LVU213
 660              		.loc 1 86 7 is_stmt 0 view .LVU214
 661 01a6 FFF7FEFF 		bl	usb_device_active
 662              	.LVL48:
 663              		.loc 1 86 6 view .LVU215
 664 01aa 0028     		cmp	r0, #0
 665 01ac 50D1     		bne	.L60
 666              	.L12:
 667              	.LBE185:
 668              	.LBE184:
 669              		.loc 1 132 7 is_stmt 1 view .LVU216
 670              	.LVL49:
 671              	.LBB189:
 672              	.LBI189:
 673              		.loc 1 44 13 view .LVU217
 674              	.LBB190:
 675              		.loc 1 45 3 view .LVU218
 676              	.LBE190:
 677              	.LBE189:
 678              	.LBB192:
 679              	.LBB193:
 680              		.loc 1 70 29 is_stmt 0 view .LVU219
 681 01ae 4FF0FF33 		mov	r3, #-1
 682              	.LBE193:
ARM GAS  C:\Users\DEVELO~1\AppData\Local\Temp\ccJT7xvm.s 			page 13


 683              	.LBE192:
 684              		.loc 1 138 20 view .LVU220
 685 01b2 9BF80050 		ldrb	r5, [fp]	@ zero_extendqisi2
 686              	.LVL50:
 687              	.LBB197:
 688              	.LBB194:
 689              		.loc 1 72 32 view .LVU221
 690 01b6 AAF80890 		strh	r9, [r10, #8]	@ movhi
 691              	.LBE194:
 692              	.LBE197:
 693              	.LBB198:
 694              	.LBB191:
 695              		.loc 1 45 3 view .LVU222
 696 01ba CDE90299 		strd	r9, r9, [sp, #8]
 697 01be CDE90499 		strd	r9, r9, [sp, #16]
 698              	.LVL51:
 699              		.loc 1 45 3 view .LVU223
 700              	.LBE191:
 701              	.LBE198:
 702              		.loc 1 133 7 is_stmt 1 view .LVU224
 703              		.loc 1 134 7 view .LVU225
 704              		.loc 1 135 7 view .LVU226
 705              	.LBB199:
 706              	.LBI192:
 707              		.loc 1 68 13 view .LVU227
 708              	.LBB195:
 709              		.loc 1 69 3 view .LVU228
 710              		.loc 1 70 3 view .LVU229
 711              		.loc 1 71 3 view .LVU230
 712              		.loc 1 72 3 view .LVU231
 713              		.loc 1 73 3 view .LVU232
 714              		.loc 1 73 3 is_stmt 0 view .LVU233
 715              	.LBE195:
 716              	.LBE199:
 717              		.loc 1 138 5 is_stmt 1 view .LVU234
 718              	.LBB200:
 719              	.LBB196:
 720              		.loc 1 70 29 is_stmt 0 view .LVU235
 721 01c2 CAE90093 		strd	r9, r3, [r10]
 722              	.LBE196:
 723              	.LBE200:
 724              		.loc 1 138 20 view .LVU236
 725 01c6 002D     		cmp	r5, #0
 726 01c8 40D0     		beq	.L32
 727              		.loc 1 140 9 is_stmt 1 view .LVU237
 728 01ca 6423     		movs	r3, #100
 729 01cc 1922     		movs	r2, #25
 730 01ce 0021     		movs	r1, #0
 731 01d0 0220     		movs	r0, #2
 732 01d2 FFF7FEFF 		bl	midi_note_on
 733              	.LVL52:
 734              		.loc 1 141 9 view .LVU238
 735              		.loc 1 144 7 view .LVU239
 736              	.L30:
 737              		.loc 1 112 26 is_stmt 0 view .LVU240
 738 01d6 0024     		movs	r4, #0
 739              	.L16:
ARM GAS  C:\Users\DEVELO~1\AppData\Local\Temp\ccJT7xvm.s 			page 14


 740              	.LVL53:
 741              	.LBB201:
 742              	.LBB202:
 743              		.loc 1 78 5 is_stmt 1 view .LVU241
 744              		.loc 1 78 9 is_stmt 0 view .LVU242
 745 01d8 E0B2     		uxtb	r0, r4
 746              		.loc 1 77 25 view .LVU243
 747 01da 0134     		adds	r4, r4, #1
 748              	.LVL54:
 749              		.loc 1 78 9 view .LVU244
 750 01dc FFF7FEFF 		bl	drv_hall_get_raw
 751              	.LVL55:
 752              		.loc 1 77 51 is_stmt 1 view .LVU245
 753              		.loc 1 77 25 view .LVU246
 754              		.loc 1 78 8 is_stmt 0 view .LVU247
 755 01e0 58BB     		cbnz	r0, .L15
 756              		.loc 1 77 25 view .LVU248
 757 01e2 102C     		cmp	r4, #16
 758 01e4 F8D1     		bne	.L16
 759 01e6 0190     		str	r0, [sp, #4]
 760 01e8 6AE7     		b	.L14
 761              	.LVL56:
 762              	.L54:
 763              		.loc 1 77 25 view .LVU249
 764              	.LBE202:
 765              	.LBE201:
 766              	.LBB203:
 767              	.LBB165:
 768              	.LBB163:
 769              	.LBI163:
 770              		.loc 1 85 13 is_stmt 1 view .LVU250
 771              	.LBB164:
 772              		.loc 1 87 5 view .LVU251
 773 01ea 0021     		movs	r1, #0
 774 01ec 0220     		movs	r0, #2
 775 01ee FFF7FEFF 		bl	midi_all_notes_off
 776              	.LVL57:
 777              		.loc 1 89 1 is_stmt 0 view .LVU252
 778 01f2 4EE7     		b	.L8
 779              	.LVL58:
 780              	.L56:
 781              		.loc 1 89 1 view .LVU253
 782              	.LBE164:
 783              	.LBE163:
 784              	.LBE165:
 785              	.LBE203:
 786              		.loc 1 140 9 is_stmt 1 view .LVU254
 787 01f4 6423     		movs	r3, #100
 788 01f6 1922     		movs	r2, #25
 789 01f8 2946     		mov	r1, r5
 790 01fa 0220     		movs	r0, #2
 791 01fc FFF7FEFF 		bl	midi_note_on
 792              	.LVL59:
 793              		.loc 1 141 9 view .LVU255
 794              		.loc 1 141 9 is_stmt 0 view .LVU256
 795 0200 5AE7     		b	.L13
 796              	.LVL60:
ARM GAS  C:\Users\DEVELO~1\AppData\Local\Temp\ccJT7xvm.s 			page 15


 797              	.L59:
 798              	.LBB204:
 799              		.loc 1 175 68 discriminator 1 view .LVU257
 800 0202 BAF80630 		ldrh	r3, [r10, #6]
 801 0206 B342     		cmp	r3, r6
 802 0208 ADD1     		bne	.L20
 803              	.LVL61:
 804              		.loc 1 178 9 is_stmt 1 view .LVU258
 805              		.loc 1 178 12 is_stmt 0 view .LVU259
 806 020a 9AF80930 		ldrb	r3, [r10, #9]	@ zero_extendqisi2
 807 020e 002B     		cmp	r3, #0
 808 0210 B3D1     		bne	.L23
 809              	.LVL62:
 810              	.L29:
 811              		.loc 1 180 13 is_stmt 1 view .LVU260
 812              		.loc 1 180 32 is_stmt 0 view .LVU261
 813 0212 9AF80830 		ldrb	r3, [r10, #8]	@ zero_extendqisi2
 814              		.loc 1 180 16 view .LVU262
 815 0216 FF2B     		cmp	r3, #255
 816 0218 05D0     		beq	.L26
 817              		.loc 1 181 15 is_stmt 1 view .LVU263
 818              		.loc 1 181 43 is_stmt 0 view .LVU264
 819 021a 0133     		adds	r3, r3, #1
 820 021c DBB2     		uxtb	r3, r3
 821              		.loc 1 183 16 view .LVU265
 822 021e 042B     		cmp	r3, #4
 823              		.loc 1 181 43 view .LVU266
 824 0220 8AF80830 		strb	r3, [r10, #8]
 825              		.loc 1 183 13 is_stmt 1 view .LVU267
 826              		.loc 1 183 16 is_stmt 0 view .LVU268
 827 0224 A9D9     		bls	.L23
 828              	.L26:
 829              		.loc 1 184 15 is_stmt 1 view .LVU269
 830 0226 6423     		movs	r3, #100
 831 0228 1E22     		movs	r2, #30
 832 022a 0021     		movs	r1, #0
 833 022c 0220     		movs	r0, #2
 834 022e FFF7FEFF 		bl	midi_note_on
 835              	.LVL63:
 836              		.loc 1 185 15 view .LVU270
 837              		.loc 1 185 42 is_stmt 0 view .LVU271
 838 0232 0123     		movs	r3, #1
 839 0234 8AF80930 		strb	r3, [r10, #9]
 840 0238 9FE7     		b	.L23
 841              	.LVL64:
 842              	.L15:
 843              		.loc 1 185 42 view .LVU272
 844              	.LBE204:
 845              		.loc 1 145 9 is_stmt 1 view .LVU273
 846 023a 6423     		movs	r3, #100
 847 023c 1A22     		movs	r2, #26
 848 023e 0021     		movs	r1, #0
 849 0240 0220     		movs	r0, #2
 850 0242 FFF7FEFF 		bl	midi_note_on
 851              	.LVL65:
 852              		.loc 1 146 9 view .LVU274
 853              		.loc 1 146 31 is_stmt 0 view .LVU275
ARM GAS  C:\Users\DEVELO~1\AppData\Local\Temp\ccJT7xvm.s 			page 16


 854 0246 0123     		movs	r3, #1
 855 0248 0193     		str	r3, [sp, #4]
 856 024a 39E7     		b	.L14
 857              	.LVL66:
 858              	.L32:
 859              		.loc 1 134 29 view .LVU276
 860 024c 0195     		str	r5, [sp, #4]
 861 024e 05E7     		b	.L9
 862              	.LVL67:
 863              	.L60:
 864              	.LBB205:
 865              	.LBB188:
 866              	.LBB186:
 867              	.LBI186:
 868              		.loc 1 85 13 is_stmt 1 view .LVU277
 869              	.LBB187:
 870              		.loc 1 87 5 view .LVU278
 871 0250 0021     		movs	r1, #0
 872 0252 0220     		movs	r0, #2
 873 0254 FFF7FEFF 		bl	midi_all_notes_off
 874              	.LVL68:
 875              		.loc 1 89 1 is_stmt 0 view .LVU279
 876 0258 A9E7     		b	.L12
 877              	.LVL69:
 878              	.L55:
 879              		.loc 1 89 1 view .LVU280
 880              	.LBE187:
 881              	.LBE186:
 882              	.LBE188:
 883              	.LBE205:
 884              		.loc 1 129 10 view .LVU281
 885 025a 054B     		ldr	r3, .L61+16
 886 025c 1C68     		ldr	r4, [r3]
 887              	.LVL70:
 888              		.loc 1 129 10 view .LVU282
 889 025e F2E6     		b	.L3
 890              	.L62:
 891              		.align	2
 892              	.L61:
 893 0260 00000000 		.word	ch0
 894 0264 00000000 		.word	.LC0
 895 0268 00000000 		.word	.LANCHOR0
 896 026c 00000000 		.word	.LANCHOR2
 897 0270 00000000 		.word	.LANCHOR1
 898              	.LBE210:
 899              		.cfi_endproc
 900              	.LFE438:
 901              		.size	hall_midi_thread_func, .-hall_midi_thread_func
 902              		.section	.text.hall_midi_start,"ax",%progbits
 903              		.align	1
 904              		.p2align 4,,15
 905              		.global	hall_midi_start
 906              		.syntax unified
 907              		.thumb
 908              		.thumb_func
 909              		.type	hall_midi_start, %function
 910              	hall_midi_start:
ARM GAS  C:\Users\DEVELO~1\AppData\Local\Temp\ccJT7xvm.s 			page 17


 911              	.LFB439:
 912              		.loc 1 202 28 is_stmt 1 view -0
 913              		.cfi_startproc
 914              		@ args = 0, pretend = 0, frame = 0
 915              		@ frame_needed = 0, uses_anonymous_args = 0
 916              		.loc 1 203 3 view .LVU284
 917              		.loc 1 202 28 is_stmt 0 view .LVU285
 918 0000 10B5     		push	{r4, lr}
 919              		.cfi_def_cfa_offset 8
 920              		.cfi_offset 4, -8
 921              		.cfi_offset 14, -4
 922              		.loc 1 203 24 view .LVU286
 923 0002 084C     		ldr	r4, .L67
 924              		.loc 1 202 28 view .LVU287
 925 0004 82B0     		sub	sp, sp, #8
 926              		.cfi_def_cfa_offset 16
 927              		.loc 1 203 6 view .LVU288
 928 0006 2068     		ldr	r0, [r4]
 929 0008 08B1     		cbz	r0, .L66
 930              		.loc 1 214 1 view .LVU289
 931 000a 02B0     		add	sp, sp, #8
 932              		.cfi_remember_state
 933              		.cfi_def_cfa_offset 8
 934              		@ sp needed
 935 000c 10BD     		pop	{r4, pc}
 936              	.L66:
 937              		.cfi_restore_state
 938              		.loc 1 207 3 is_stmt 1 view .LVU290
 939              		.loc 1 207 22 is_stmt 0 view .LVU291
 940 000e 064B     		ldr	r3, .L67+4
 941 0010 0222     		movs	r2, #2
 942 0012 4FF49E61 		mov	r1, #1264
 943 0016 0090     		str	r0, [sp]
 944 0018 0448     		ldr	r0, .L67+8
 945 001a FFF7FEFF 		bl	chThdCreateStatic
 946              	.LVL71:
 947              		.loc 1 207 20 view .LVU292
 948 001e 2060     		str	r0, [r4]
 949              		.loc 1 214 1 view .LVU293
 950 0020 02B0     		add	sp, sp, #8
 951              		.cfi_def_cfa_offset 8
 952              		@ sp needed
 953 0022 10BD     		pop	{r4, pc}
 954              	.L68:
 955              		.align	2
 956              	.L67:
 957 0024 00000000 		.word	.LANCHOR3
 958 0028 00000000 		.word	hall_midi_thread_func
 959 002c 00000000 		.word	.LANCHOR4
 960              		.cfi_endproc
 961              	.LFE439:
 962              		.size	hall_midi_start, .-hall_midi_start
 963              		.section	.bss.hall_midi_thread,"aw",%nobits
 964              		.align	2
 965              		.set	.LANCHOR3,. + 0
 966              		.type	hall_midi_thread, %object
 967              		.size	hall_midi_thread, 4
ARM GAS  C:\Users\DEVELO~1\AppData\Local\Temp\ccJT7xvm.s 			page 18


 968              	hall_midi_thread:
 969 0000 00000000 		.space	4
 970              		.section	.bss.hall_midi_wa,"aw",%nobits
 971              		.align	3
 972              		.set	.LANCHOR4,. + 0
 973              		.type	hall_midi_wa, %object
 974              		.size	hall_midi_wa, 1264
 975              	hall_midi_wa:
 976 0000 00000000 		.space	1264
 976      00000000 
 976      00000000 
 976      00000000 
 976      00000000 
 977              		.section	.bss.usb_active_since,"aw",%nobits
 978              		.align	2
 979              		.set	.LANCHOR1,. + 0
 980              		.type	usb_active_since, %object
 981              		.size	usb_active_since, 4
 982              	usb_active_since:
 983 0000 00000000 		.space	4
 984              		.section	.bss.usb_ready_for_midi,"aw",%nobits
 985              		.set	.LANCHOR2,. + 0
 986              		.type	usb_ready_for_midi, %object
 987              		.size	usb_ready_for_midi, 1
 988              	usb_ready_for_midi:
 989 0000 00       		.space	1
 990              		.section	.data.hall_diag_state,"aw"
 991              		.align	2
 992              		.set	.LANCHOR0,. + 0
 993              		.type	hall_diag_state, %object
 994              		.size	hall_diag_state, 12
 995              	hall_diag_state:
 996 0000 00000000 		.word	0
 997 0004 FFFF     		.short	-1
 998 0006 FFFF     		.short	-1
 999 0008 00       		.byte	0
 1000 0009 00       		.byte	0
 1001 000a 0000     		.space	2
 1002              		.text
 1003              	.Letext0:
 1004              		.file 6 "c:\\chibistudio\\tools\\gnu tools arm embedded\\11.3 2022.08\\lib\\gcc\\arm-none-eabi\\11
 1005              		.file 7 "c:\\chibistudio\\tools\\gnu tools arm embedded\\11.3 2022.08\\arm-none-eabi\\include\\mac
 1006              		.file 8 "c:\\chibistudio\\tools\\gnu tools arm embedded\\11.3 2022.08\\arm-none-eabi\\include\\sys
 1007              		.file 9 "../../../os/common/ports/ARM-common/chtypes.h"
 1008              		.file 10 "../../../os/rt/include/chearly.h"
 1009              		.file 11 "../../../os/rt/include/chobjects.h"
 1010              		.file 12 "../../../os/rt/include/chrfcu.h"
 1011              		.file 13 "../../../os/rt/include/chdebug.h"
 1012              		.file 14 "../../../os/rt/include/chlists.h"
 1013              		.file 15 "../../../os/rt/include/chtrace.h"
 1014              		.file 16 "../../../os/common/ports/ARMv7-M/chcore.h"
 1015              		.file 17 "../../../os/rt/include/chsem.h"
 1016              		.file 18 "../../../os/rt/include/chmtx.h"
 1017              		.file 19 "../../../os/rt/include/chthreads.h"
 1018              		.file 20 "drivers/midi/midi.h"
 1019              		.file 21 "c:\\chibistudio\\tools\\gnu tools arm embedded\\11.3 2022.08\\arm-none-eabi\\include\\st
 1020              		.file 22 "drivers/HallEffect/drv_hall.h"
ARM GAS  C:\Users\DEVELO~1\AppData\Local\Temp\ccJT7xvm.s 			page 19


 1021              		.file 23 "../../../os/hal/include/hal_st.h"
 1022              		.file 24 "drivers/usb/usb_device.h"
 1023              		.file 25 "../../../os/rt/include/chsys.h"