ARM GAS  C:\Users\DEVELO~1\AppData\Local\Temp\ccNdMB7f.s 			page 1


   1              		.cpu cortex-m7
   2              		.arch armv7e-m
   3              		.fpu softvfp
   4              		.eabi_attribute 20, 1
   5              		.eabi_attribute 21, 1
   6              		.eabi_attribute 23, 3
   7              		.eabi_attribute 24, 1
   8              		.eabi_attribute 25, 1
   9              		.eabi_attribute 26, 1
  10              		.eabi_attribute 30, 2
  11              		.eabi_attribute 34, 1
  12              		.eabi_attribute 18, 4
  13              		.file	"main.c"
  14              		.text
  15              	.Ltext0:
  16              		.cfi_sections	.debug_frame
  17              		.section	.text.drv_audio_process_block,"ax",%progbits
  18              		.align	1
  19              		.p2align 4,,15
  20              		.weak	drv_audio_process_block
  21              		.syntax unified
  22              		.thumb
  23              		.thumb_func
  24              		.type	drv_audio_process_block, %function
  25              	drv_audio_process_block:
  26              	.LVL0:
  27              	.LFB448:
  28              		.file 1 "main.c"
  29              		.loc 1 18 67 view -0
  30              		.cfi_startproc
  31              		@ args = 4, pretend = 0, frame = 0
  32              		@ frame_needed = 0, uses_anonymous_args = 0
  33              		.loc 1 19 5 view .LVU1
  34              		.loc 1 20 5 view .LVU2
  35              		.loc 1 22 5 view .LVU3
  36              		.loc 1 23 5 view .LVU4
  37              		.loc 1 24 5 view .LVU5
  38              		.loc 1 25 5 view .LVU6
  39              		.loc 1 26 5 view .LVU7
  40              		.loc 1 27 5 view .LVU8
  41              		.loc 1 29 5 view .LVU9
  42              	.LBB2:
  43              		.loc 1 29 10 view .LVU10
  44              		.loc 1 29 10 is_stmt 0 view .LVU11
  45              	.LBE2:
  46              		.loc 1 18 67 view .LVU12
  47 0000 2DE9F047 		push	{r4, r5, r6, r7, r8, r9, r10, lr}
  48              		.cfi_def_cfa_offset 32
  49              		.cfi_offset 4, -32
  50              		.cfi_offset 5, -28
  51              		.cfi_offset 6, -24
  52              		.cfi_offset 7, -20
  53              		.cfi_offset 8, -16
  54              		.cfi_offset 9, -12
  55              		.cfi_offset 10, -8
  56              		.cfi_offset 14, -4
  57              		.loc 1 18 67 view .LVU13
ARM GAS  C:\Users\DEVELO~1\AppData\Local\Temp\ccNdMB7f.s 			page 2


  58 0004 089D     		ldr	r5, [sp, #32]
  59              	.LBB6:
  60              		.loc 1 29 26 is_stmt 1 view .LVU14
  61              	.LBE6:
  62              		.loc 1 18 67 is_stmt 0 view .LVU15
  63 0006 1846     		mov	r0, r3
  64              	.LVL1:
  65              	.LBB7:
  66              		.loc 1 29 26 view .LVU16
  67 0008 7DB3     		cbz	r5, .L2
  68 000a DFF87CA0 		ldr	r10, .L18
  69 000e 02F11C01 		add	r1, r2, #28
  70              	.LVL2:
  71              		.loc 1 29 26 view .LVU17
  72 0012 DFF87890 		ldr	r9, .L18+4
  73              	.LBB3:
  74              		.loc 1 30 43 view .LVU18
  75 0016 4FF4964E 		mov	lr, #19200
  76 001a DAF80040 		ldr	r4, [r10]
  77 001e 1C4E     		ldr	r6, .L18+8
  78 0020 04EB050C 		add	ip, r4, r5
  79              		.loc 1 35 63 view .LVU19
  80 0024 DFF86C80 		ldr	r8, .L18+12
  81 0028 D9F80050 		ldr	r5, [r9]
  82 002c 1A4F     		ldr	r7, .L18+16
  83              	.LVL3:
  84              	.L6:
  85              		.loc 1 30 9 is_stmt 1 view .LVU20
  86              		.loc 1 31 9 view .LVU21
  87              		.loc 1 33 9 view .LVU22
  88              		.loc 1 30 43 is_stmt 0 view .LVU23
  89 002e A6FB0432 		umull	r3, r2, r6, r4
  90 0032 D20A     		lsrs	r2, r2, #11
  91 0034 0EFB1242 		mls	r2, lr, r2, r4
  92              		.loc 1 33 12 view .LVU24
  93 0038 B2F5165F 		cmp	r2, #9600
  94 003c 1DD2     		bcs	.L8
  95              		.loc 1 34 13 is_stmt 1 view .LVU25
  96              		.loc 1 35 63 is_stmt 0 view .LVU26
  97 003e 172D     		cmp	r5, #23
  98              		.loc 1 36 23 view .LVU27
  99 0040 05F10105 		add	r5, r5, #1
 100              		.loc 1 35 63 view .LVU28
 101 0044 1CD9     		bls	.L4
 102              	.LVL4:
 103              		.loc 1 36 13 is_stmt 1 view .LVU29
 104              		.loc 1 37 13 view .LVU30
 105              		.loc 1 37 16 is_stmt 0 view .LVU31
 106 0046 2F2D     		cmp	r5, #47
 107 0048 00D9     		bls	.L16
 108              		.loc 1 38 28 view .LVU32
 109 004a 0025     		movs	r5, #0
 110              	.L16:
 111              		.loc 1 35 63 view .LVU33
 112 004c 3B46     		mov	r3, r7
 113              	.LVL5:
 114              	.L3:
ARM GAS  C:\Users\DEVELO~1\AppData\Local\Temp\ccNdMB7f.s 			page 3


 115              		.loc 1 44 9 is_stmt 1 view .LVU34
 116              	.LBB4:
 117              		.loc 1 44 14 view .LVU35
 118              		.loc 1 44 32 view .LVU36
 119 004e A1F12002 		sub	r2, r1, #32
 120              	.LVL6:
 121              	.L5:
 122              		.loc 1 45 13 discriminator 3 view .LVU37
 123              		.loc 1 45 25 is_stmt 0 discriminator 3 view .LVU38
 124 0052 42F8043F 		str	r3, [r2, #4]!
 125              		.loc 1 44 61 is_stmt 1 discriminator 3 view .LVU39
 126              		.loc 1 44 32 discriminator 3 view .LVU40
 127 0056 9142     		cmp	r1, r2
 128 0058 FBD1     		bne	.L5
 129              		.loc 1 44 32 is_stmt 0 discriminator 3 view .LVU41
 130              	.LBE4:
 131              		.loc 1 48 9 is_stmt 1 discriminator 2 view .LVU42
 132              	.LVL7:
 133              		.loc 1 49 9 discriminator 2 view .LVU43
 134              	.LBE3:
 135              		.loc 1 29 36 discriminator 2 view .LVU44
 136              		.loc 1 29 26 discriminator 2 view .LVU45
 137 005a 0134     		adds	r4, r4, #1
 138              	.LVL8:
 139              		.loc 1 29 26 is_stmt 0 discriminator 2 view .LVU46
 140 005c 2031     		adds	r1, r1, #32
 141              	.LVL9:
 142              		.loc 1 29 26 discriminator 2 view .LVU47
 143 005e 6445     		cmp	r4, ip
 144 0060 E5D1     		bne	.L6
 145 0062 CAF80040 		str	r4, [r10]
 146 0066 C9F80050 		str	r5, [r9]
 147              	.LVL10:
 148              	.L2:
 149              		.loc 1 29 26 discriminator 2 view .LVU48
 150              	.LBE7:
 151              		.loc 1 52 5 is_stmt 1 view .LVU49
 152              		.loc 1 52 8 is_stmt 0 view .LVU50
 153 006a 58B1     		cbz	r0, .L1
 154              		.loc 1 53 9 is_stmt 1 view .LVU51
 155 006c 4FF48062 		mov	r2, #1024
 156 0070 0021     		movs	r1, #0
 157              		.loc 1 55 1 is_stmt 0 view .LVU52
 158 0072 BDE8F047 		pop	{r4, r5, r6, r7, r8, r9, r10, lr}
 159              		.cfi_remember_state
 160              		.cfi_restore 14
 161              		.cfi_restore 10
 162              		.cfi_restore 9
 163              		.cfi_restore 8
 164              		.cfi_restore 7
 165              		.cfi_restore 6
 166              		.cfi_restore 5
 167              		.cfi_restore 4
 168              		.cfi_def_cfa_offset 0
 169              	.LVL11:
 170              		.loc 1 53 9 view .LVU53
 171 0076 FFF7FEBF 		b	memset
ARM GAS  C:\Users\DEVELO~1\AppData\Local\Temp\ccNdMB7f.s 			page 4


 172              	.LVL12:
 173              	.L8:
 174              		.cfi_restore_state
 175              	.LBB8:
 176              	.LBB5:
 177              		.loc 1 41 24 view .LVU54
 178 007a 0025     		movs	r5, #0
 179              		.loc 1 31 17 view .LVU55
 180 007c 2B46     		mov	r3, r5
 181 007e E6E7     		b	.L3
 182              	.L4:
 183              	.LVL13:
 184              		.loc 1 36 13 is_stmt 1 view .LVU56
 185              		.loc 1 37 13 view .LVU57
 186              		.loc 1 35 63 is_stmt 0 view .LVU58
 187 0080 4346     		mov	r3, r8
 188 0082 E4E7     		b	.L3
 189              	.LVL14:
 190              	.L1:
 191              		.loc 1 35 63 view .LVU59
 192              	.LBE5:
 193              	.LBE8:
 194              		.loc 1 55 1 view .LVU60
 195 0084 BDE8F087 		pop	{r4, r5, r6, r7, r8, r9, r10, pc}
 196              	.LVL15:
 197              	.L19:
 198              		.loc 1 55 1 view .LVU61
 199              		.align	2
 200              	.L18:
 201 0088 00000000 		.word	.LANCHOR0
 202 008c 00000000 		.word	.LANCHOR1
 203 0090 B5814E1B 		.word	458129845
 204 0094 CCCC4C00 		.word	5033164
 205 0098 3433B3FF 		.word	-5033164
 206              		.cfi_endproc
 207              	.LFE448:
 208              		.size	drv_audio_process_block, .-drv_audio_process_block
 209              		.section	.text.startup.main,"ax",%progbits
 210              		.align	1
 211              		.p2align 4,,15
 212              		.global	main
 213              		.syntax unified
 214              		.thumb
 215              		.thumb_func
 216              		.type	main, %function
 217              	main:
 218              	.LFB449:
 219              		.loc 1 57 16 is_stmt 1 view -0
 220              		.cfi_startproc
 221              		@ Volatile: function does not return.
 222              		@ args = 0, pretend = 0, frame = 0
 223              		@ frame_needed = 0, uses_anonymous_args = 0
 224              		.loc 1 58 5 view .LVU63
 225              		.loc 1 57 16 is_stmt 0 view .LVU64
 226 0000 08B5     		push	{r3, lr}
 227              		.cfi_def_cfa_offset 8
 228              		.cfi_offset 3, -8
ARM GAS  C:\Users\DEVELO~1\AppData\Local\Temp\ccNdMB7f.s 			page 5


 229              		.cfi_offset 14, -4
 230              		.loc 1 58 5 view .LVU65
 231 0002 FFF7FEFF 		bl	halInit
 232              	.LVL16:
 233              		.loc 1 59 5 is_stmt 1 view .LVU66
 234 0006 FFF7FEFF 		bl	chSysInit
 235              	.LVL17:
 236              		.loc 1 61 5 view .LVU67
 237 000a FFF7FEFF 		bl	drv_audio_init
 238              	.LVL18:
 239              		.loc 1 62 5 view .LVU68
 240 000e FFF7FEFF 		bl	drv_audio_start
 241              	.LVL19:
 242              	.L21:
 243              		.loc 1 64 5 discriminator 1 view .LVU69
 244              		.loc 1 65 9 discriminator 1 view .LVU70
 245 0012 42F21070 		movw	r0, #10000
 246 0016 FFF7FEFF 		bl	chThdSleep
 247              	.LVL20:
 248              		.loc 1 64 11 discriminator 1 view .LVU71
 249 001a FAE7     		b	.L21
 250              		.cfi_endproc
 251              	.LFE449:
 252              		.size	main, .-main
 253              		.section	.bss.beep_sample.1,"aw",%nobits
 254              		.align	2
 255              		.set	.LANCHOR0,. + 0
 256              		.type	beep_sample.1, %object
 257              		.size	beep_sample.1, 4
 258              	beep_sample.1:
 259 0000 00000000 		.space	4
 260              		.section	.bss.tone_phase.0,"aw",%nobits
 261              		.align	2
 262              		.set	.LANCHOR1,. + 0
 263              		.type	tone_phase.0, %object
 264              		.size	tone_phase.0, 4
 265              	tone_phase.0:
 266 0000 00000000 		.space	4
 267              		.text
 268              	.Letext0:
 269              		.file 2 "c:\\chibistudio\\tools\\gnu tools arm embedded\\11.3 2022.08\\lib\\gcc\\arm-none-eabi\\11
 270              		.file 3 "c:\\chibistudio\\tools\\gnu tools arm embedded\\11.3 2022.08\\arm-none-eabi\\include\\mac
 271              		.file 4 "c:\\chibistudio\\tools\\gnu tools arm embedded\\11.3 2022.08\\arm-none-eabi\\include\\sys
 272              		.file 5 "./ChibiOS/os/rt/include/chtime.h"
 273              		.file 6 "drivers/audio/drv_audio.h"
 274              		.file 7 "./ChibiOS/os/rt/include/chsys.h"
 275              		.file 8 "./ChibiOS/os/hal/include/hal.h"
 276              		.file 9 "./ChibiOS/os/rt/include/chthreads.h"
 277              		.file 10 "c:\\chibistudio\\tools\\gnu tools arm embedded\\11.3 2022.08\\arm-none-eabi\\include\\st
 278              		.file 11 "<built-in>"
 279              		.section	.debug_info,"",%progbits
 280              	.Ldebug_info0:
 281 0000 25030000 		.4byte	0x325
 282 0004 0500     		.2byte	0x5
 283 0006 01       		.byte	0x1
 284 0007 04       		.byte	0x4
 285 0008 00000000 		.4byte	.Ldebug_abbrev0
ARM GAS  C:\Users\DEVELO~1\AppData\Local\Temp\ccNdMB7f.s 			page 6


 286 000c 11       		.uleb128 0x11
 287 000d 95000000 		.4byte	.LASF38
 288 0011 1D       		.byte	0x1d
 289 0012 5C020000 		.4byte	.LASF39
 290 0016 84020000 		.4byte	.LASF40
 291 001a 2B000000 		.4byte	.LLRL11
 292 001e 00000000 		.4byte	0
 293 0022 00000000 		.4byte	.Ldebug_line0
 294 0026 12       		.uleb128 0x12
 295 0027 04       		.byte	0x4
 296 0028 05       		.byte	0x5
 297 0029 696E7400 		.ascii	"int\000"
 298 002d 02       		.uleb128 0x2
 299 002e 0A000000 		.4byte	.LASF7
 300 0032 02       		.byte	0x2
 301 0033 D1       		.byte	0xd1
 302 0034 17       		.byte	0x17
 303 0035 39000000 		.4byte	0x39
 304 0039 01       		.uleb128 0x1
 305 003a 04       		.byte	0x4
 306 003b 07       		.byte	0x7
 307 003c ED010000 		.4byte	.LASF0
 308 0040 01       		.uleb128 0x1
 309 0041 08       		.byte	0x8
 310 0042 05       		.byte	0x5
 311 0043 4E020000 		.4byte	.LASF1
 312 0047 01       		.uleb128 0x1
 313 0048 08       		.byte	0x8
 314 0049 04       		.byte	0x4
 315 004a E5020000 		.4byte	.LASF2
 316 004e 01       		.uleb128 0x1
 317 004f 01       		.byte	0x1
 318 0050 06       		.byte	0x6
 319 0051 F1020000 		.4byte	.LASF3
 320 0055 01       		.uleb128 0x1
 321 0056 01       		.byte	0x1
 322 0057 08       		.byte	0x8
 323 0058 69010000 		.4byte	.LASF4
 324 005c 01       		.uleb128 0x1
 325 005d 02       		.byte	0x2
 326 005e 05       		.byte	0x5
 327 005f 6F020000 		.4byte	.LASF5
 328 0063 01       		.uleb128 0x1
 329 0064 02       		.byte	0x2
 330 0065 07       		.byte	0x7
 331 0066 A5010000 		.4byte	.LASF6
 332 006a 02       		.uleb128 0x2
 333 006b 3C000000 		.4byte	.LASF8
 334 006f 03       		.byte	0x3
 335 0070 4D       		.byte	0x4d
 336 0071 18       		.byte	0x18
 337 0072 76000000 		.4byte	0x76
 338 0076 01       		.uleb128 0x1
 339 0077 04       		.byte	0x4
 340 0078 05       		.byte	0x5
 341 0079 DC020000 		.4byte	.LASF9
 342 007d 02       		.uleb128 0x2
ARM GAS  C:\Users\DEVELO~1\AppData\Local\Temp\ccNdMB7f.s 			page 7


 343 007e D5010000 		.4byte	.LASF10
 344 0082 03       		.byte	0x3
 345 0083 4F       		.byte	0x4f
 346 0084 19       		.byte	0x19
 347 0085 89000000 		.4byte	0x89
 348 0089 01       		.uleb128 0x1
 349 008a 04       		.byte	0x4
 350 008b 07       		.byte	0x7
 351 008c 93010000 		.4byte	.LASF11
 352 0090 02       		.uleb128 0x2
 353 0091 79020000 		.4byte	.LASF12
 354 0095 03       		.byte	0x3
 355 0096 69       		.byte	0x69
 356 0097 19       		.byte	0x19
 357 0098 9C000000 		.4byte	0x9c
 358 009c 01       		.uleb128 0x1
 359 009d 08       		.byte	0x8
 360 009e 07       		.byte	0x7
 361 009f 52010000 		.4byte	.LASF13
 362 00a3 02       		.uleb128 0x2
 363 00a4 46020000 		.4byte	.LASF14
 364 00a8 04       		.byte	0x4
 365 00a9 2C       		.byte	0x2c
 366 00aa 13       		.byte	0x13
 367 00ab 6A000000 		.4byte	0x6a
 368 00af 08       		.uleb128 0x8
 369 00b0 A3000000 		.4byte	0xa3
 370 00b4 02       		.uleb128 0x2
 371 00b5 D3020000 		.4byte	.LASF15
 372 00b9 04       		.byte	0x4
 373 00ba 30       		.byte	0x30
 374 00bb 14       		.byte	0x14
 375 00bc 7D000000 		.4byte	0x7d
 376 00c0 08       		.uleb128 0x8
 377 00c1 B4000000 		.4byte	0xb4
 378 00c5 02       		.uleb128 0x2
 379 00c6 7A000000 		.4byte	.LASF16
 380 00ca 04       		.byte	0x4
 381 00cb 3C       		.byte	0x3c
 382 00cc 14       		.byte	0x14
 383 00cd 90000000 		.4byte	0x90
 384 00d1 01       		.uleb128 0x1
 385 00d2 01       		.byte	0x1
 386 00d3 08       		.byte	0x8
 387 00d4 63020000 		.4byte	.LASF17
 388 00d8 02       		.uleb128 0x2
 389 00d9 1C020000 		.4byte	.LASF18
 390 00dd 05       		.byte	0x5
 391 00de 79       		.byte	0x79
 392 00df 12       		.byte	0x12
 393 00e0 B4000000 		.4byte	0xb4
 394 00e4 02       		.uleb128 0x2
 395 00e5 5E000000 		.4byte	.LASF19
 396 00e9 05       		.byte	0x5
 397 00ea 9B       		.byte	0x9b
 398 00eb 12       		.byte	0x12
 399 00ec C5000000 		.4byte	0xc5
ARM GAS  C:\Users\DEVELO~1\AppData\Local\Temp\ccNdMB7f.s 			page 8


 400 00f0 13       		.uleb128 0x13
 401 00f1 04       		.byte	0x4
 402 00f2 01       		.uleb128 0x1
 403 00f3 01       		.byte	0x1
 404 00f4 02       		.byte	0x2
 405 00f5 FD020000 		.4byte	.LASF20
 406 00f9 08       		.uleb128 0x8
 407 00fa F2000000 		.4byte	0xf2
 408 00fe 04       		.uleb128 0x4
 409 00ff 03010000 		.4byte	0x103
 410 0103 0B       		.uleb128 0xb
 411 0104 A3000000 		.4byte	0xa3
 412 0108 19010000 		.4byte	0x119
 413 010c 05       		.uleb128 0x5
 414 010d 39000000 		.4byte	0x39
 415 0111 0F       		.byte	0xf
 416 0112 05       		.uleb128 0x5
 417 0113 39000000 		.4byte	0x39
 418 0117 03       		.byte	0x3
 419 0118 00       		.byte	0
 420 0119 04       		.uleb128 0x4
 421 011a 1E010000 		.4byte	0x11e
 422 011e 0B       		.uleb128 0xb
 423 011f AF000000 		.4byte	0xaf
 424 0123 34010000 		.4byte	0x134
 425 0127 05       		.uleb128 0x5
 426 0128 39000000 		.4byte	0x39
 427 012c 0F       		.byte	0xf
 428 012d 05       		.uleb128 0x5
 429 012e 39000000 		.4byte	0x39
 430 0132 03       		.byte	0x3
 431 0133 00       		.byte	0
 432 0134 14       		.uleb128 0x14
 433 0135 77010000 		.4byte	.LASF41
 434 0139 09       		.byte	0x9
 435 013a DC01     		.2byte	0x1dc
 436 013c 08       		.byte	0x8
 437 013d 47010000 		.4byte	0x147
 438 0141 06       		.uleb128 0x6
 439 0142 D8000000 		.4byte	0xd8
 440 0146 00       		.byte	0
 441 0147 0C       		.uleb128 0xc
 442 0148 6A000000 		.4byte	.LASF21
 443 014c 12       		.byte	0x12
 444 014d 0C       		.uleb128 0xc
 445 014e 2D000000 		.4byte	.LASF22
 446 0152 11       		.byte	0x11
 447 0153 0D       		.uleb128 0xd
 448 0154 00000000 		.4byte	.LASF23
 449 0158 07       		.byte	0x7
 450 0159 2C01     		.2byte	0x12c
 451 015b 0D       		.uleb128 0xd
 452 015c 4A010000 		.4byte	.LASF24
 453 0160 08       		.byte	0x8
 454 0161 0101     		.2byte	0x101
 455 0163 15       		.uleb128 0x15
 456 0164 C0010000 		.4byte	.LASF42
ARM GAS  C:\Users\DEVELO~1\AppData\Local\Temp\ccNdMB7f.s 			page 9


 457 0168 0A       		.byte	0xa
 458 0169 21       		.byte	0x21
 459 016a 09       		.byte	0x9
 460 016b F0000000 		.4byte	0xf0
 461 016f 83010000 		.4byte	0x183
 462 0173 06       		.uleb128 0x6
 463 0174 F0000000 		.4byte	0xf0
 464 0178 06       		.uleb128 0x6
 465 0179 26000000 		.4byte	0x26
 466 017d 06       		.uleb128 0x6
 467 017e 2D000000 		.4byte	0x2d
 468 0182 00       		.byte	0
 469 0183 16       		.uleb128 0x16
 470 0184 E8010000 		.4byte	.LASF43
 471 0188 01       		.byte	0x1
 472 0189 39       		.byte	0x39
 473 018a 05       		.byte	0x5
 474 018b 26000000 		.4byte	0x26
 475 018f 00000000 		.4byte	.LFB449
 476 0193 1C000000 		.4byte	.LFE449-.LFB449
 477 0197 01       		.uleb128 0x1
 478 0198 9C       		.byte	0x9c
 479 0199 D3010000 		.4byte	0x1d3
 480 019d 07       		.uleb128 0x7
 481 019e 06000000 		.4byte	.LVL16
 482 01a2 5B010000 		.4byte	0x15b
 483 01a6 07       		.uleb128 0x7
 484 01a7 0A000000 		.4byte	.LVL17
 485 01ab 53010000 		.4byte	0x153
 486 01af 07       		.uleb128 0x7
 487 01b0 0E000000 		.4byte	.LVL18
 488 01b4 4D010000 		.4byte	0x14d
 489 01b8 07       		.uleb128 0x7
 490 01b9 12000000 		.4byte	.LVL19
 491 01bd 47010000 		.4byte	0x147
 492 01c1 17       		.uleb128 0x17
 493 01c2 1A000000 		.4byte	.LVL20
 494 01c6 34010000 		.4byte	0x134
 495 01ca 09       		.uleb128 0x9
 496 01cb 01       		.uleb128 0x1
 497 01cc 50       		.byte	0x50
 498 01cd 03       		.uleb128 0x3
 499 01ce 0A       		.byte	0xa
 500 01cf 1027     		.2byte	0x2710
 501 01d1 00       		.byte	0
 502 01d2 00       		.byte	0
 503 01d3 18       		.uleb128 0x18
 504 01d4 46000000 		.4byte	.LASF44
 505 01d8 01       		.byte	0x1
 506 01d9 0E       		.byte	0xe
 507 01da 06       		.byte	0x6
 508 01db 00000000 		.4byte	.LFB448
 509 01df 9C000000 		.4byte	.LFE448-.LFB448
 510 01e3 01       		.uleb128 0x1
 511 01e4 9C       		.byte	0x9c
 512 01e5 13030000 		.4byte	0x313
 513 01e9 03       		.uleb128 0x3
ARM GAS  C:\Users\DEVELO~1\AppData\Local\Temp\ccNdMB7f.s 			page 10


 514 01ea C7010000 		.4byte	.LASF25
 515 01ee 0E       		.byte	0xe
 516 01ef 3B       		.byte	0x3b
 517 01f0 13030000 		.4byte	0x313
 518 01f4 10000000 		.4byte	.LLST0
 519 01f8 0C000000 		.4byte	.LVUS0
 520 01fc 03       		.uleb128 0x3
 521 01fd CE010000 		.4byte	.LASF26
 522 0201 0F       		.byte	0xf
 523 0202 3A       		.byte	0x3a
 524 0203 19010000 		.4byte	0x119
 525 0207 28000000 		.4byte	.LLST1
 526 020b 24000000 		.4byte	.LVUS1
 527 020f 03       		.uleb128 0x3
 528 0210 B8010000 		.4byte	.LASF27
 529 0214 10       		.byte	0x10
 530 0215 3B       		.byte	0x3b
 531 0216 18030000 		.4byte	0x318
 532 021a 46000000 		.4byte	.LLST2
 533 021e 3C000000 		.4byte	.LVUS2
 534 0222 03       		.uleb128 0x3
 535 0223 25000000 		.4byte	.LASF28
 536 0227 11       		.byte	0x11
 537 0228 3B       		.byte	0x3b
 538 0229 FE000000 		.4byte	0xfe
 539 022d 76000000 		.4byte	.LLST3
 540 0231 6E000000 		.4byte	.LVUS3
 541 0235 03       		.uleb128 0x3
 542 0236 68020000 		.4byte	.LASF29
 543 023a 12       		.byte	0x12
 544 023b 3B       		.byte	0x3b
 545 023c 2D000000 		.4byte	0x2d
 546 0240 9C000000 		.4byte	.LLST4
 547 0244 94000000 		.4byte	.LVUS4
 548 0248 0E       		.uleb128 0xe
 549 0249 3A020000 		.4byte	.LASF30
 550 024d 16       		.byte	0x16
 551 024e B4000000 		.4byte	0xb4
 552 0252 05       		.uleb128 0x5
 553 0253 03       		.byte	0x3
 554 0254 00000000 		.4byte	beep_sample.1
 555 0258 0E       		.uleb128 0xe
 556 0259 11000000 		.4byte	.LASF31
 557 025d 17       		.byte	0x17
 558 025e B4000000 		.4byte	0xb4
 559 0262 05       		.uleb128 0x5
 560 0263 03       		.byte	0x3
 561 0264 00000000 		.4byte	tone_phase.0
 562 0268 19       		.uleb128 0x19
 563 0269 83000000 		.4byte	.LASF32
 564 026d 01       		.byte	0x1
 565 026e 18       		.byte	0x18
 566 026f 14       		.byte	0x14
 567 0270 C0000000 		.4byte	0xc0
 568 0274 30       		.byte	0x30
 569 0275 0A       		.uleb128 0xa
 570 0276 FA010000 		.4byte	.LASF33
ARM GAS  C:\Users\DEVELO~1\AppData\Local\Temp\ccNdMB7f.s 			page 11


 571 027a 19       		.byte	0x19
 572 027b C0000000 		.4byte	0xc0
 573 027f 8025     		.2byte	0x2580
 574 0281 0A       		.uleb128 0xa
 575 0282 2A020000 		.4byte	.LASF34
 576 0286 1A       		.byte	0x1a
 577 0287 C0000000 		.4byte	0xc0
 578 028b 8025     		.2byte	0x2580
 579 028d 0A       		.uleb128 0xa
 580 028e 09020000 		.4byte	.LASF35
 581 0292 1B       		.byte	0x1b
 582 0293 C0000000 		.4byte	0xc0
 583 0297 004B     		.2byte	0x4b00
 584 0299 1A       		.uleb128 0x1a
 585 029a 0C000000 		.4byte	.LLRL5
 586 029e FC020000 		.4byte	0x2fc
 587 02a2 0F       		.uleb128 0xf
 588 02a3 6E00     		.ascii	"n\000"
 589 02a5 1D       		.byte	0x1d
 590 02a6 11       		.byte	0x11
 591 02a7 2D000000 		.4byte	0x2d
 592 02ab C3000000 		.4byte	.LLST6
 593 02af BD000000 		.4byte	.LVUS6
 594 02b3 1B       		.uleb128 0x1b
 595 02b4 1F000000 		.4byte	.LLRL7
 596 02b8 10       		.uleb128 0x10
 597 02b9 E0010000 		.4byte	.LASF36
 598 02bd 1E       		.byte	0x1e
 599 02be 14       		.byte	0x14
 600 02bf F9000000 		.4byte	0xf9
 601 02c3 E2000000 		.4byte	.LLST8
 602 02c7 DC000000 		.4byte	.LVUS8
 603 02cb 10       		.uleb128 0x10
 604 02cc 1C000000 		.4byte	.LASF37
 605 02d0 1F       		.byte	0x1f
 606 02d1 11       		.byte	0x11
 607 02d2 A3000000 		.4byte	0xa3
 608 02d6 31010000 		.4byte	.LLST9
 609 02da 27010000 		.4byte	.LVUS9
 610 02de 1C       		.uleb128 0x1c
 611 02df 4E000000 		.4byte	.LBB4
 612 02e3 0C000000 		.4byte	.LBE4-.LBB4
 613 02e7 0F       		.uleb128 0xf
 614 02e8 636800   		.ascii	"ch\000"
 615 02eb 2C       		.byte	0x2c
 616 02ec 15       		.byte	0x15
 617 02ed 2D000000 		.4byte	0x2d
 618 02f1 5E010000 		.4byte	.LLST10
 619 02f5 5C010000 		.4byte	.LVUS10
 620 02f9 00       		.byte	0
 621 02fa 00       		.byte	0
 622 02fb 00       		.byte	0
 623 02fc 1D       		.uleb128 0x1d
 624 02fd 7A000000 		.4byte	.LVL12
 625 0301 1D030000 		.4byte	0x31d
 626 0305 09       		.uleb128 0x9
 627 0306 01       		.uleb128 0x1
ARM GAS  C:\Users\DEVELO~1\AppData\Local\Temp\ccNdMB7f.s 			page 12


 628 0307 51       		.byte	0x51
 629 0308 01       		.uleb128 0x1
 630 0309 30       		.byte	0x30
 631 030a 09       		.uleb128 0x9
 632 030b 01       		.uleb128 0x1
 633 030c 52       		.byte	0x52
 634 030d 03       		.uleb128 0x3
 635 030e 0A       		.byte	0xa
 636 030f 0004     		.2byte	0x400
 637 0311 00       		.byte	0
 638 0312 00       		.byte	0
 639 0313 04       		.uleb128 0x4
 640 0314 AF000000 		.4byte	0xaf
 641 0318 04       		.uleb128 0x4
 642 0319 A3000000 		.4byte	0xa3
 643 031d 1E       		.uleb128 0x1e
 644 031e C0010000 		.4byte	.LASF42
 645 0322 82010000 		.4byte	.LASF45
 646 0326 0B       		.byte	0xb
 647 0327 00       		.byte	0
 648 0328 00       		.byte	0
 649              		.section	.debug_abbrev,"",%progbits
 650              	.Ldebug_abbrev0:
 651 0000 01       		.uleb128 0x1
 652 0001 24       		.uleb128 0x24
 653 0002 00       		.byte	0
 654 0003 0B       		.uleb128 0xb
 655 0004 0B       		.uleb128 0xb
 656 0005 3E       		.uleb128 0x3e
 657 0006 0B       		.uleb128 0xb
 658 0007 03       		.uleb128 0x3
 659 0008 0E       		.uleb128 0xe
 660 0009 00       		.byte	0
 661 000a 00       		.byte	0
 662 000b 02       		.uleb128 0x2
 663 000c 16       		.uleb128 0x16
 664 000d 00       		.byte	0
 665 000e 03       		.uleb128 0x3
 666 000f 0E       		.uleb128 0xe
 667 0010 3A       		.uleb128 0x3a
 668 0011 0B       		.uleb128 0xb
 669 0012 3B       		.uleb128 0x3b
 670 0013 0B       		.uleb128 0xb
 671 0014 39       		.uleb128 0x39
 672 0015 0B       		.uleb128 0xb
 673 0016 49       		.uleb128 0x49
 674 0017 13       		.uleb128 0x13
 675 0018 00       		.byte	0
 676 0019 00       		.byte	0
 677 001a 03       		.uleb128 0x3
 678 001b 05       		.uleb128 0x5
 679 001c 00       		.byte	0
 680 001d 03       		.uleb128 0x3
 681 001e 0E       		.uleb128 0xe
 682 001f 3A       		.uleb128 0x3a
 683 0020 21       		.uleb128 0x21
 684 0021 01       		.sleb128 1
ARM GAS  C:\Users\DEVELO~1\AppData\Local\Temp\ccNdMB7f.s 			page 13


 685 0022 3B       		.uleb128 0x3b
 686 0023 0B       		.uleb128 0xb
 687 0024 39       		.uleb128 0x39
 688 0025 0B       		.uleb128 0xb
 689 0026 49       		.uleb128 0x49
 690 0027 13       		.uleb128 0x13
 691 0028 02       		.uleb128 0x2
 692 0029 17       		.uleb128 0x17
 693 002a B742     		.uleb128 0x2137
 694 002c 17       		.uleb128 0x17
 695 002d 00       		.byte	0
 696 002e 00       		.byte	0
 697 002f 04       		.uleb128 0x4
 698 0030 0F       		.uleb128 0xf
 699 0031 00       		.byte	0
 700 0032 0B       		.uleb128 0xb
 701 0033 21       		.uleb128 0x21
 702 0034 04       		.sleb128 4
 703 0035 49       		.uleb128 0x49
 704 0036 13       		.uleb128 0x13
 705 0037 00       		.byte	0
 706 0038 00       		.byte	0
 707 0039 05       		.uleb128 0x5
 708 003a 21       		.uleb128 0x21
 709 003b 00       		.byte	0
 710 003c 49       		.uleb128 0x49
 711 003d 13       		.uleb128 0x13
 712 003e 2F       		.uleb128 0x2f
 713 003f 0B       		.uleb128 0xb
 714 0040 00       		.byte	0
 715 0041 00       		.byte	0
 716 0042 06       		.uleb128 0x6
 717 0043 05       		.uleb128 0x5
 718 0044 00       		.byte	0
 719 0045 49       		.uleb128 0x49
 720 0046 13       		.uleb128 0x13
 721 0047 00       		.byte	0
 722 0048 00       		.byte	0
 723 0049 07       		.uleb128 0x7
 724 004a 48       		.uleb128 0x48
 725 004b 00       		.byte	0
 726 004c 7D       		.uleb128 0x7d
 727 004d 01       		.uleb128 0x1
 728 004e 7F       		.uleb128 0x7f
 729 004f 13       		.uleb128 0x13
 730 0050 00       		.byte	0
 731 0051 00       		.byte	0
 732 0052 08       		.uleb128 0x8
 733 0053 26       		.uleb128 0x26
 734 0054 00       		.byte	0
 735 0055 49       		.uleb128 0x49
 736 0056 13       		.uleb128 0x13
 737 0057 00       		.byte	0
 738 0058 00       		.byte	0
 739 0059 09       		.uleb128 0x9
 740 005a 49       		.uleb128 0x49
 741 005b 00       		.byte	0
ARM GAS  C:\Users\DEVELO~1\AppData\Local\Temp\ccNdMB7f.s 			page 14


 742 005c 02       		.uleb128 0x2
 743 005d 18       		.uleb128 0x18
 744 005e 7E       		.uleb128 0x7e
 745 005f 18       		.uleb128 0x18
 746 0060 00       		.byte	0
 747 0061 00       		.byte	0
 748 0062 0A       		.uleb128 0xa
 749 0063 34       		.uleb128 0x34
 750 0064 00       		.byte	0
 751 0065 03       		.uleb128 0x3
 752 0066 0E       		.uleb128 0xe
 753 0067 3A       		.uleb128 0x3a
 754 0068 21       		.uleb128 0x21
 755 0069 01       		.sleb128 1
 756 006a 3B       		.uleb128 0x3b
 757 006b 0B       		.uleb128 0xb
 758 006c 39       		.uleb128 0x39
 759 006d 21       		.uleb128 0x21
 760 006e 14       		.sleb128 20
 761 006f 49       		.uleb128 0x49
 762 0070 13       		.uleb128 0x13
 763 0071 1C       		.uleb128 0x1c
 764 0072 05       		.uleb128 0x5
 765 0073 00       		.byte	0
 766 0074 00       		.byte	0
 767 0075 0B       		.uleb128 0xb
 768 0076 01       		.uleb128 0x1
 769 0077 01       		.byte	0x1
 770 0078 49       		.uleb128 0x49
 771 0079 13       		.uleb128 0x13
 772 007a 01       		.uleb128 0x1
 773 007b 13       		.uleb128 0x13
 774 007c 00       		.byte	0
 775 007d 00       		.byte	0
 776 007e 0C       		.uleb128 0xc
 777 007f 2E       		.uleb128 0x2e
 778 0080 00       		.byte	0
 779 0081 3F       		.uleb128 0x3f
 780 0082 19       		.uleb128 0x19
 781 0083 03       		.uleb128 0x3
 782 0084 0E       		.uleb128 0xe
 783 0085 3A       		.uleb128 0x3a
 784 0086 21       		.uleb128 0x21
 785 0087 06       		.sleb128 6
 786 0088 3B       		.uleb128 0x3b
 787 0089 0B       		.uleb128 0xb
 788 008a 39       		.uleb128 0x39
 789 008b 21       		.uleb128 0x21
 790 008c 06       		.sleb128 6
 791 008d 27       		.uleb128 0x27
 792 008e 19       		.uleb128 0x19
 793 008f 3C       		.uleb128 0x3c
 794 0090 19       		.uleb128 0x19
 795 0091 00       		.byte	0
 796 0092 00       		.byte	0
 797 0093 0D       		.uleb128 0xd
 798 0094 2E       		.uleb128 0x2e
ARM GAS  C:\Users\DEVELO~1\AppData\Local\Temp\ccNdMB7f.s 			page 15


 799 0095 00       		.byte	0
 800 0096 3F       		.uleb128 0x3f
 801 0097 19       		.uleb128 0x19
 802 0098 03       		.uleb128 0x3
 803 0099 0E       		.uleb128 0xe
 804 009a 3A       		.uleb128 0x3a
 805 009b 0B       		.uleb128 0xb
 806 009c 3B       		.uleb128 0x3b
 807 009d 05       		.uleb128 0x5
 808 009e 39       		.uleb128 0x39
 809 009f 21       		.uleb128 0x21
 810 00a0 08       		.sleb128 8
 811 00a1 27       		.uleb128 0x27
 812 00a2 19       		.uleb128 0x19
 813 00a3 3C       		.uleb128 0x3c
 814 00a4 19       		.uleb128 0x19
 815 00a5 00       		.byte	0
 816 00a6 00       		.byte	0
 817 00a7 0E       		.uleb128 0xe
 818 00a8 34       		.uleb128 0x34
 819 00a9 00       		.byte	0
 820 00aa 03       		.uleb128 0x3
 821 00ab 0E       		.uleb128 0xe
 822 00ac 3A       		.uleb128 0x3a
 823 00ad 21       		.uleb128 0x21
 824 00ae 01       		.sleb128 1
 825 00af 3B       		.uleb128 0x3b
 826 00b0 0B       		.uleb128 0xb
 827 00b1 39       		.uleb128 0x39
 828 00b2 21       		.uleb128 0x21
 829 00b3 15       		.sleb128 21
 830 00b4 49       		.uleb128 0x49
 831 00b5 13       		.uleb128 0x13
 832 00b6 02       		.uleb128 0x2
 833 00b7 18       		.uleb128 0x18
 834 00b8 00       		.byte	0
 835 00b9 00       		.byte	0
 836 00ba 0F       		.uleb128 0xf
 837 00bb 34       		.uleb128 0x34
 838 00bc 00       		.byte	0
 839 00bd 03       		.uleb128 0x3
 840 00be 08       		.uleb128 0x8
 841 00bf 3A       		.uleb128 0x3a
 842 00c0 21       		.uleb128 0x21
 843 00c1 01       		.sleb128 1
 844 00c2 3B       		.uleb128 0x3b
 845 00c3 0B       		.uleb128 0xb
 846 00c4 39       		.uleb128 0x39
 847 00c5 0B       		.uleb128 0xb
 848 00c6 49       		.uleb128 0x49
 849 00c7 13       		.uleb128 0x13
 850 00c8 02       		.uleb128 0x2
 851 00c9 17       		.uleb128 0x17
 852 00ca B742     		.uleb128 0x2137
 853 00cc 17       		.uleb128 0x17
 854 00cd 00       		.byte	0
 855 00ce 00       		.byte	0
ARM GAS  C:\Users\DEVELO~1\AppData\Local\Temp\ccNdMB7f.s 			page 16


 856 00cf 10       		.uleb128 0x10
 857 00d0 34       		.uleb128 0x34
 858 00d1 00       		.byte	0
 859 00d2 03       		.uleb128 0x3
 860 00d3 0E       		.uleb128 0xe
 861 00d4 3A       		.uleb128 0x3a
 862 00d5 21       		.uleb128 0x21
 863 00d6 01       		.sleb128 1
 864 00d7 3B       		.uleb128 0x3b
 865 00d8 0B       		.uleb128 0xb
 866 00d9 39       		.uleb128 0x39
 867 00da 0B       		.uleb128 0xb
 868 00db 49       		.uleb128 0x49
 869 00dc 13       		.uleb128 0x13
 870 00dd 02       		.uleb128 0x2
 871 00de 17       		.uleb128 0x17
 872 00df B742     		.uleb128 0x2137
 873 00e1 17       		.uleb128 0x17
 874 00e2 00       		.byte	0
 875 00e3 00       		.byte	0
 876 00e4 11       		.uleb128 0x11
 877 00e5 11       		.uleb128 0x11
 878 00e6 01       		.byte	0x1
 879 00e7 25       		.uleb128 0x25
 880 00e8 0E       		.uleb128 0xe
 881 00e9 13       		.uleb128 0x13
 882 00ea 0B       		.uleb128 0xb
 883 00eb 03       		.uleb128 0x3
 884 00ec 0E       		.uleb128 0xe
 885 00ed 1B       		.uleb128 0x1b
 886 00ee 0E       		.uleb128 0xe
 887 00ef 55       		.uleb128 0x55
 888 00f0 17       		.uleb128 0x17
 889 00f1 11       		.uleb128 0x11
 890 00f2 01       		.uleb128 0x1
 891 00f3 10       		.uleb128 0x10
 892 00f4 17       		.uleb128 0x17
 893 00f5 00       		.byte	0
 894 00f6 00       		.byte	0
 895 00f7 12       		.uleb128 0x12
 896 00f8 24       		.uleb128 0x24
 897 00f9 00       		.byte	0
 898 00fa 0B       		.uleb128 0xb
 899 00fb 0B       		.uleb128 0xb
 900 00fc 3E       		.uleb128 0x3e
 901 00fd 0B       		.uleb128 0xb
 902 00fe 03       		.uleb128 0x3
 903 00ff 08       		.uleb128 0x8
 904 0100 00       		.byte	0
 905 0101 00       		.byte	0
 906 0102 13       		.uleb128 0x13
 907 0103 0F       		.uleb128 0xf
 908 0104 00       		.byte	0
 909 0105 0B       		.uleb128 0xb
 910 0106 0B       		.uleb128 0xb
 911 0107 00       		.byte	0
 912 0108 00       		.byte	0
ARM GAS  C:\Users\DEVELO~1\AppData\Local\Temp\ccNdMB7f.s 			page 17


 913 0109 14       		.uleb128 0x14
 914 010a 2E       		.uleb128 0x2e
 915 010b 01       		.byte	0x1
 916 010c 3F       		.uleb128 0x3f
 917 010d 19       		.uleb128 0x19
 918 010e 03       		.uleb128 0x3
 919 010f 0E       		.uleb128 0xe
 920 0110 3A       		.uleb128 0x3a
 921 0111 0B       		.uleb128 0xb
 922 0112 3B       		.uleb128 0x3b
 923 0113 05       		.uleb128 0x5
 924 0114 39       		.uleb128 0x39
 925 0115 0B       		.uleb128 0xb
 926 0116 27       		.uleb128 0x27
 927 0117 19       		.uleb128 0x19
 928 0118 3C       		.uleb128 0x3c
 929 0119 19       		.uleb128 0x19
 930 011a 01       		.uleb128 0x1
 931 011b 13       		.uleb128 0x13
 932 011c 00       		.byte	0
 933 011d 00       		.byte	0
 934 011e 15       		.uleb128 0x15
 935 011f 2E       		.uleb128 0x2e
 936 0120 01       		.byte	0x1
 937 0121 3F       		.uleb128 0x3f
 938 0122 19       		.uleb128 0x19
 939 0123 03       		.uleb128 0x3
 940 0124 0E       		.uleb128 0xe
 941 0125 3A       		.uleb128 0x3a
 942 0126 0B       		.uleb128 0xb
 943 0127 3B       		.uleb128 0x3b
 944 0128 0B       		.uleb128 0xb
 945 0129 39       		.uleb128 0x39
 946 012a 0B       		.uleb128 0xb
 947 012b 27       		.uleb128 0x27
 948 012c 19       		.uleb128 0x19
 949 012d 49       		.uleb128 0x49
 950 012e 13       		.uleb128 0x13
 951 012f 3C       		.uleb128 0x3c
 952 0130 19       		.uleb128 0x19
 953 0131 01       		.uleb128 0x1
 954 0132 13       		.uleb128 0x13
 955 0133 00       		.byte	0
 956 0134 00       		.byte	0
 957 0135 16       		.uleb128 0x16
 958 0136 2E       		.uleb128 0x2e
 959 0137 01       		.byte	0x1
 960 0138 3F       		.uleb128 0x3f
 961 0139 19       		.uleb128 0x19
 962 013a 03       		.uleb128 0x3
 963 013b 0E       		.uleb128 0xe
 964 013c 3A       		.uleb128 0x3a
 965 013d 0B       		.uleb128 0xb
 966 013e 3B       		.uleb128 0x3b
 967 013f 0B       		.uleb128 0xb
 968 0140 39       		.uleb128 0x39
 969 0141 0B       		.uleb128 0xb
ARM GAS  C:\Users\DEVELO~1\AppData\Local\Temp\ccNdMB7f.s 			page 18


 970 0142 27       		.uleb128 0x27
 971 0143 19       		.uleb128 0x19
 972 0144 49       		.uleb128 0x49
 973 0145 13       		.uleb128 0x13
 974 0146 11       		.uleb128 0x11
 975 0147 01       		.uleb128 0x1
 976 0148 12       		.uleb128 0x12
 977 0149 06       		.uleb128 0x6
 978 014a 40       		.uleb128 0x40
 979 014b 18       		.uleb128 0x18
 980 014c 7A       		.uleb128 0x7a
 981 014d 19       		.uleb128 0x19
 982 014e 01       		.uleb128 0x1
 983 014f 13       		.uleb128 0x13
 984 0150 00       		.byte	0
 985 0151 00       		.byte	0
 986 0152 17       		.uleb128 0x17
 987 0153 48       		.uleb128 0x48
 988 0154 01       		.byte	0x1
 989 0155 7D       		.uleb128 0x7d
 990 0156 01       		.uleb128 0x1
 991 0157 7F       		.uleb128 0x7f
 992 0158 13       		.uleb128 0x13
 993 0159 00       		.byte	0
 994 015a 00       		.byte	0
 995 015b 18       		.uleb128 0x18
 996 015c 2E       		.uleb128 0x2e
 997 015d 01       		.byte	0x1
 998 015e 3F       		.uleb128 0x3f
 999 015f 19       		.uleb128 0x19
 1000 0160 03       		.uleb128 0x3
 1001 0161 0E       		.uleb128 0xe
 1002 0162 3A       		.uleb128 0x3a
 1003 0163 0B       		.uleb128 0xb
 1004 0164 3B       		.uleb128 0x3b
 1005 0165 0B       		.uleb128 0xb
 1006 0166 39       		.uleb128 0x39
 1007 0167 0B       		.uleb128 0xb
 1008 0168 27       		.uleb128 0x27
 1009 0169 19       		.uleb128 0x19
 1010 016a 11       		.uleb128 0x11
 1011 016b 01       		.uleb128 0x1
 1012 016c 12       		.uleb128 0x12
 1013 016d 06       		.uleb128 0x6
 1014 016e 40       		.uleb128 0x40
 1015 016f 18       		.uleb128 0x18
 1016 0170 7A       		.uleb128 0x7a
 1017 0171 19       		.uleb128 0x19
 1018 0172 01       		.uleb128 0x1
 1019 0173 13       		.uleb128 0x13
 1020 0174 00       		.byte	0
 1021 0175 00       		.byte	0
 1022 0176 19       		.uleb128 0x19
 1023 0177 34       		.uleb128 0x34
 1024 0178 00       		.byte	0
 1025 0179 03       		.uleb128 0x3
 1026 017a 0E       		.uleb128 0xe
ARM GAS  C:\Users\DEVELO~1\AppData\Local\Temp\ccNdMB7f.s 			page 19


 1027 017b 3A       		.uleb128 0x3a
 1028 017c 0B       		.uleb128 0xb
 1029 017d 3B       		.uleb128 0x3b
 1030 017e 0B       		.uleb128 0xb
 1031 017f 39       		.uleb128 0x39
 1032 0180 0B       		.uleb128 0xb
 1033 0181 49       		.uleb128 0x49
 1034 0182 13       		.uleb128 0x13
 1035 0183 1C       		.uleb128 0x1c
 1036 0184 0B       		.uleb128 0xb
 1037 0185 00       		.byte	0
 1038 0186 00       		.byte	0
 1039 0187 1A       		.uleb128 0x1a
 1040 0188 0B       		.uleb128 0xb
 1041 0189 01       		.byte	0x1
 1042 018a 55       		.uleb128 0x55
 1043 018b 17       		.uleb128 0x17
 1044 018c 01       		.uleb128 0x1
 1045 018d 13       		.uleb128 0x13
 1046 018e 00       		.byte	0
 1047 018f 00       		.byte	0
 1048 0190 1B       		.uleb128 0x1b
 1049 0191 0B       		.uleb128 0xb
 1050 0192 01       		.byte	0x1
 1051 0193 55       		.uleb128 0x55
 1052 0194 17       		.uleb128 0x17
 1053 0195 00       		.byte	0
 1054 0196 00       		.byte	0
 1055 0197 1C       		.uleb128 0x1c
 1056 0198 0B       		.uleb128 0xb
 1057 0199 01       		.byte	0x1
 1058 019a 11       		.uleb128 0x11
 1059 019b 01       		.uleb128 0x1
 1060 019c 12       		.uleb128 0x12
 1061 019d 06       		.uleb128 0x6
 1062 019e 00       		.byte	0
 1063 019f 00       		.byte	0
 1064 01a0 1D       		.uleb128 0x1d
 1065 01a1 48       		.uleb128 0x48
 1066 01a2 01       		.byte	0x1
 1067 01a3 7D       		.uleb128 0x7d
 1068 01a4 01       		.uleb128 0x1
 1069 01a5 8201     		.uleb128 0x82
 1070 01a7 19       		.uleb128 0x19
 1071 01a8 7F       		.uleb128 0x7f
 1072 01a9 13       		.uleb128 0x13
 1073 01aa 00       		.byte	0
 1074 01ab 00       		.byte	0
 1075 01ac 1E       		.uleb128 0x1e
 1076 01ad 2E       		.uleb128 0x2e
 1077 01ae 00       		.byte	0
 1078 01af 3F       		.uleb128 0x3f
 1079 01b0 19       		.uleb128 0x19
 1080 01b1 3C       		.uleb128 0x3c
 1081 01b2 19       		.uleb128 0x19
 1082 01b3 6E       		.uleb128 0x6e
 1083 01b4 0E       		.uleb128 0xe
ARM GAS  C:\Users\DEVELO~1\AppData\Local\Temp\ccNdMB7f.s 			page 20


 1084 01b5 03       		.uleb128 0x3
 1085 01b6 0E       		.uleb128 0xe
 1086 01b7 3A       		.uleb128 0x3a
 1087 01b8 0B       		.uleb128 0xb
 1088 01b9 3B       		.uleb128 0x3b
 1089 01ba 0B       		.uleb128 0xb
 1090 01bb 00       		.byte	0
 1091 01bc 00       		.byte	0
 1092 01bd 00       		.byte	0
 1093              		.section	.debug_loclists,"",%progbits
 1094 0000 64010000 		.4byte	.Ldebug_loc3-.Ldebug_loc2
 1095              	.Ldebug_loc2:
 1096 0004 0500     		.2byte	0x5
 1097 0006 04       		.byte	0x4
 1098 0007 00       		.byte	0
 1099 0008 00000000 		.4byte	0
 1100              	.Ldebug_loc0:
 1101              	.LVUS0:
 1102 000c 00       		.uleb128 0
 1103 000d 00       		.uleb128 .LVU16
 1104 000e 00       		.uleb128 .LVU16
 1105 000f 00       		.uleb128 0
 1106              	.LLST0:
 1107 0010 06       		.byte	0x6
 1108 0011 00000000 		.4byte	.LVL0
 1109 0015 04       		.byte	0x4
 1110 0016 00       		.uleb128 .LVL0-.LVL0
 1111 0017 08       		.uleb128 .LVL1-.LVL0
 1112 0018 01       		.uleb128 0x1
 1113 0019 50       		.byte	0x50
 1114 001a 04       		.byte	0x4
 1115 001b 08       		.uleb128 .LVL1-.LVL0
 1116 001c 9C01     		.uleb128 .LFE448-.LVL0
 1117 001e 04       		.uleb128 0x4
 1118 001f A3       		.byte	0xa3
 1119 0020 01       		.uleb128 0x1
 1120 0021 50       		.byte	0x50
 1121 0022 9F       		.byte	0x9f
 1122 0023 00       		.byte	0
 1123              	.LVUS1:
 1124 0024 00       		.uleb128 0
 1125 0025 00       		.uleb128 .LVU17
 1126 0026 00       		.uleb128 .LVU17
 1127 0027 00       		.uleb128 0
 1128              	.LLST1:
 1129 0028 06       		.byte	0x6
 1130 0029 00000000 		.4byte	.LVL0
 1131 002d 04       		.byte	0x4
 1132 002e 00       		.uleb128 .LVL0-.LVL0
 1133 002f 12       		.uleb128 .LVL2-.LVL0
 1134 0030 01       		.uleb128 0x1
 1135 0031 51       		.byte	0x51
 1136 0032 04       		.byte	0x4
 1137 0033 12       		.uleb128 .LVL2-.LVL0
 1138 0034 9C01     		.uleb128 .LFE448-.LVL0
 1139 0036 04       		.uleb128 0x4
 1140 0037 A3       		.byte	0xa3
ARM GAS  C:\Users\DEVELO~1\AppData\Local\Temp\ccNdMB7f.s 			page 21


 1141 0038 01       		.uleb128 0x1
 1142 0039 51       		.byte	0x51
 1143 003a 9F       		.byte	0x9f
 1144 003b 00       		.byte	0
 1145              	.LVUS2:
 1146 003c 00       		.uleb128 0
 1147 003d 00       		.uleb128 .LVU20
 1148 003e 00       		.uleb128 .LVU20
 1149 003f 02       		.uleb128 .LVU43
 1150 0040 02       		.uleb128 .LVU43
 1151 0041 00       		.uleb128 .LVU47
 1152 0042 00       		.uleb128 .LVU47
 1153 0043 00       		.uleb128 .LVU48
 1154 0044 00       		.uleb128 .LVU54
 1155 0045 00       		.uleb128 .LVU59
 1156              	.LLST2:
 1157 0046 06       		.byte	0x6
 1158 0047 00000000 		.4byte	.LVL0
 1159 004b 04       		.byte	0x4
 1160 004c 00       		.uleb128 .LVL0-.LVL0
 1161 004d 2E       		.uleb128 .LVL3-.LVL0
 1162 004e 01       		.uleb128 0x1
 1163 004f 52       		.byte	0x52
 1164 0050 04       		.byte	0x4
 1165 0051 2E       		.uleb128 .LVL3-.LVL0
 1166 0052 5A       		.uleb128 .LVL7-.LVL0
 1167 0053 03       		.uleb128 0x3
 1168 0054 71       		.byte	0x71
 1169 0055 64       		.sleb128 -28
 1170 0056 9F       		.byte	0x9f
 1171 0057 04       		.byte	0x4
 1172 0058 5A       		.uleb128 .LVL7-.LVL0
 1173 0059 5E       		.uleb128 .LVL9-.LVL0
 1174 005a 03       		.uleb128 0x3
 1175 005b 71       		.byte	0x71
 1176 005c 04       		.sleb128 4
 1177 005d 9F       		.byte	0x9f
 1178 005e 04       		.byte	0x4
 1179 005f 5E       		.uleb128 .LVL9-.LVL0
 1180 0060 6A       		.uleb128 .LVL10-.LVL0
 1181 0061 03       		.uleb128 0x3
 1182 0062 71       		.byte	0x71
 1183 0063 64       		.sleb128 -28
 1184 0064 9F       		.byte	0x9f
 1185 0065 04       		.byte	0x4
 1186 0066 7A       		.uleb128 .LVL12-.LVL0
 1187 0067 8401     		.uleb128 .LVL14-.LVL0
 1188 0069 03       		.uleb128 0x3
 1189 006a 71       		.byte	0x71
 1190 006b 64       		.sleb128 -28
 1191 006c 9F       		.byte	0x9f
 1192 006d 00       		.byte	0
 1193              	.LVUS3:
 1194 006e 00       		.uleb128 0
 1195 006f 00       		.uleb128 .LVU20
 1196 0070 00       		.uleb128 .LVU20
 1197 0071 00       		.uleb128 .LVU54
ARM GAS  C:\Users\DEVELO~1\AppData\Local\Temp\ccNdMB7f.s 			page 22


 1198 0072 00       		.uleb128 .LVU54
 1199 0073 00       		.uleb128 .LVU54
 1200 0074 00       		.uleb128 .LVU54
 1201 0075 00       		.uleb128 0
 1202              	.LLST3:
 1203 0076 06       		.byte	0x6
 1204 0077 00000000 		.4byte	.LVL0
 1205 007b 04       		.byte	0x4
 1206 007c 00       		.uleb128 .LVL0-.LVL0
 1207 007d 2E       		.uleb128 .LVL3-.LVL0
 1208 007e 01       		.uleb128 0x1
 1209 007f 53       		.byte	0x53
 1210 0080 04       		.byte	0x4
 1211 0081 2E       		.uleb128 .LVL3-.LVL0
 1212 0082 79       		.uleb128 .LVL12-1-.LVL0
 1213 0083 01       		.uleb128 0x1
 1214 0084 50       		.byte	0x50
 1215 0085 04       		.byte	0x4
 1216 0086 79       		.uleb128 .LVL12-1-.LVL0
 1217 0087 7A       		.uleb128 .LVL12-.LVL0
 1218 0088 04       		.uleb128 0x4
 1219 0089 A3       		.byte	0xa3
 1220 008a 01       		.uleb128 0x1
 1221 008b 53       		.byte	0x53
 1222 008c 9F       		.byte	0x9f
 1223 008d 04       		.byte	0x4
 1224 008e 7A       		.uleb128 .LVL12-.LVL0
 1225 008f 9C01     		.uleb128 .LFE448-.LVL0
 1226 0091 01       		.uleb128 0x1
 1227 0092 50       		.byte	0x50
 1228 0093 00       		.byte	0
 1229              	.LVUS4:
 1230 0094 00       		.uleb128 0
 1231 0095 00       		.uleb128 .LVU53
 1232 0096 00       		.uleb128 .LVU53
 1233 0097 00       		.uleb128 .LVU54
 1234 0098 00       		.uleb128 .LVU54
 1235 0099 00       		.uleb128 .LVU61
 1236 009a 00       		.uleb128 .LVU61
 1237 009b 00       		.uleb128 0
 1238              	.LLST4:
 1239 009c 06       		.byte	0x6
 1240 009d 00000000 		.4byte	.LVL0
 1241 00a1 04       		.byte	0x4
 1242 00a2 00       		.uleb128 .LVL0-.LVL0
 1243 00a3 76       		.uleb128 .LVL11-.LVL0
 1244 00a4 02       		.uleb128 0x2
 1245 00a5 91       		.byte	0x91
 1246 00a6 00       		.sleb128 0
 1247 00a7 04       		.byte	0x4
 1248 00a8 76       		.uleb128 .LVL11-.LVL0
 1249 00a9 7A       		.uleb128 .LVL12-.LVL0
 1250 00aa 02       		.uleb128 0x2
 1251 00ab 7D       		.byte	0x7d
 1252 00ac 00       		.sleb128 0
 1253 00ad 04       		.byte	0x4
 1254 00ae 7A       		.uleb128 .LVL12-.LVL0
ARM GAS  C:\Users\DEVELO~1\AppData\Local\Temp\ccNdMB7f.s 			page 23


 1255 00af 8801     		.uleb128 .LVL15-.LVL0
 1256 00b1 02       		.uleb128 0x2
 1257 00b2 91       		.byte	0x91
 1258 00b3 00       		.sleb128 0
 1259 00b4 04       		.byte	0x4
 1260 00b5 8801     		.uleb128 .LVL15-.LVL0
 1261 00b7 9C01     		.uleb128 .LFE448-.LVL0
 1262 00b9 02       		.uleb128 0x2
 1263 00ba 7D       		.byte	0x7d
 1264 00bb 00       		.sleb128 0
 1265 00bc 00       		.byte	0
 1266              	.LVUS6:
 1267 00bd 0B       		.uleb128 .LVU11
 1268 00be 04       		.uleb128 .LVU45
 1269 00bf 04       		.uleb128 .LVU45
 1270 00c0 00       		.uleb128 .LVU48
 1271 00c1 00       		.uleb128 .LVU54
 1272 00c2 00       		.uleb128 .LVU59
 1273              	.LLST6:
 1274 00c3 06       		.byte	0x6
 1275 00c4 00000000 		.4byte	.LVL0
 1276 00c8 04       		.byte	0x4
 1277 00c9 00       		.uleb128 .LVL0-.LVL0
 1278 00ca 5A       		.uleb128 .LVL7-.LVL0
 1279 00cb 02       		.uleb128 0x2
 1280 00cc 30       		.byte	0x30
 1281 00cd 9F       		.byte	0x9f
 1282 00ce 04       		.byte	0x4
 1283 00cf 5A       		.uleb128 .LVL7-.LVL0
 1284 00d0 6A       		.uleb128 .LVL10-.LVL0
 1285 00d1 02       		.uleb128 0x2
 1286 00d2 31       		.byte	0x31
 1287 00d3 9F       		.byte	0x9f
 1288 00d4 04       		.byte	0x4
 1289 00d5 7A       		.uleb128 .LVL12-.LVL0
 1290 00d6 8401     		.uleb128 .LVL14-.LVL0
 1291 00d8 02       		.uleb128 0x2
 1292 00d9 30       		.byte	0x30
 1293 00da 9F       		.byte	0x9f
 1294 00db 00       		.byte	0
 1295              	.LVUS8:
 1296 00dc 01       		.uleb128 .LVU21
 1297 00dd 00       		.uleb128 .LVU46
 1298 00de 00       		.uleb128 .LVU46
 1299 00df 00       		.uleb128 .LVU48
 1300 00e0 00       		.uleb128 .LVU54
 1301 00e1 00       		.uleb128 .LVU59
 1302              	.LLST8:
 1303 00e2 06       		.byte	0x6
 1304 00e3 2E000000 		.4byte	.LVL3
 1305 00e7 04       		.byte	0x4
 1306 00e8 00       		.uleb128 .LVL3-.LVL3
 1307 00e9 2E       		.uleb128 .LVL8-.LVL3
 1308 00ea 11       		.uleb128 0x11
 1309 00eb 74       		.byte	0x74
 1310 00ec 00       		.sleb128 0
 1311 00ed 0A       		.byte	0xa
ARM GAS  C:\Users\DEVELO~1\AppData\Local\Temp\ccNdMB7f.s 			page 24


 1312 00ee 004B     		.2byte	0x4b00
 1313 00f0 1D       		.byte	0x1d
 1314 00f1 40       		.byte	0x40
 1315 00f2 4B       		.byte	0x4b
 1316 00f3 24       		.byte	0x24
 1317 00f4 22       		.byte	0x22
 1318 00f5 0C       		.byte	0xc
 1319 00f6 7F250080 		.4byte	0x8000257f
 1320 00fa 2C       		.byte	0x2c
 1321 00fb 9F       		.byte	0x9f
 1322 00fc 04       		.byte	0x4
 1323 00fd 2E       		.uleb128 .LVL8-.LVL3
 1324 00fe 3C       		.uleb128 .LVL10-.LVL3
 1325 00ff 11       		.uleb128 0x11
 1326 0100 74       		.byte	0x74
 1327 0101 7F       		.sleb128 -1
 1328 0102 0A       		.byte	0xa
 1329 0103 004B     		.2byte	0x4b00
 1330 0105 1D       		.byte	0x1d
 1331 0106 40       		.byte	0x40
 1332 0107 4B       		.byte	0x4b
 1333 0108 24       		.byte	0x24
 1334 0109 22       		.byte	0x22
 1335 010a 0C       		.byte	0xc
 1336 010b 7F250080 		.4byte	0x8000257f
 1337 010f 2C       		.byte	0x2c
 1338 0110 9F       		.byte	0x9f
 1339 0111 04       		.byte	0x4
 1340 0112 4C       		.uleb128 .LVL12-.LVL3
 1341 0113 56       		.uleb128 .LVL14-.LVL3
 1342 0114 11       		.uleb128 0x11
 1343 0115 74       		.byte	0x74
 1344 0116 00       		.sleb128 0
 1345 0117 0A       		.byte	0xa
 1346 0118 004B     		.2byte	0x4b00
 1347 011a 1D       		.byte	0x1d
 1348 011b 40       		.byte	0x40
 1349 011c 4B       		.byte	0x4b
 1350 011d 24       		.byte	0x24
 1351 011e 22       		.byte	0x22
 1352 011f 0C       		.byte	0xc
 1353 0120 7F250080 		.4byte	0x8000257f
 1354 0124 2C       		.byte	0x2c
 1355 0125 9F       		.byte	0x9f
 1356 0126 00       		.byte	0
 1357              	.LVUS9:
 1358 0127 02       		.uleb128 .LVU22
 1359 0128 00       		.uleb128 .LVU29
 1360 0129 00       		.uleb128 .LVU29
 1361 012a 00       		.uleb128 .LVU34
 1362 012b 00       		.uleb128 .LVU34
 1363 012c 00       		.uleb128 .LVU48
 1364 012d 00       		.uleb128 .LVU54
 1365 012e 00       		.uleb128 .LVU56
 1366 012f 00       		.uleb128 .LVU56
 1367 0130 00       		.uleb128 .LVU59
 1368              	.LLST9:
ARM GAS  C:\Users\DEVELO~1\AppData\Local\Temp\ccNdMB7f.s 			page 25


 1369 0131 06       		.byte	0x6
 1370 0132 2E000000 		.4byte	.LVL3
 1371 0136 04       		.byte	0x4
 1372 0137 00       		.uleb128 .LVL3-.LVL3
 1373 0138 18       		.uleb128 .LVL4-.LVL3
 1374 0139 02       		.uleb128 0x2
 1375 013a 30       		.byte	0x30
 1376 013b 9F       		.byte	0x9f
 1377 013c 04       		.byte	0x4
 1378 013d 18       		.uleb128 .LVL4-.LVL3
 1379 013e 20       		.uleb128 .LVL5-.LVL3
 1380 013f 06       		.uleb128 0x6
 1381 0140 11       		.byte	0x11
 1382 0141 B4E6CC7D 		.sleb128 -5033164
 1383 0145 9F       		.byte	0x9f
 1384 0146 04       		.byte	0x4
 1385 0147 20       		.uleb128 .LVL5-.LVL3
 1386 0148 3C       		.uleb128 .LVL10-.LVL3
 1387 0149 01       		.uleb128 0x1
 1388 014a 53       		.byte	0x53
 1389 014b 04       		.byte	0x4
 1390 014c 4C       		.uleb128 .LVL12-.LVL3
 1391 014d 52       		.uleb128 .LVL13-.LVL3
 1392 014e 02       		.uleb128 0x2
 1393 014f 30       		.byte	0x30
 1394 0150 9F       		.byte	0x9f
 1395 0151 04       		.byte	0x4
 1396 0152 52       		.uleb128 .LVL13-.LVL3
 1397 0153 56       		.uleb128 .LVL14-.LVL3
 1398 0154 06       		.uleb128 0x6
 1399 0155 0C       		.byte	0xc
 1400 0156 CCCC4C00 		.4byte	0x4ccccc
 1401 015a 9F       		.byte	0x9f
 1402 015b 00       		.byte	0
 1403              	.LVUS10:
 1404 015c 02       		.uleb128 .LVU36
 1405 015d 00       		.uleb128 .LVU37
 1406              	.LLST10:
 1407 015e 08       		.byte	0x8
 1408 015f 4E000000 		.4byte	.LVL5
 1409 0163 04       		.uleb128 .LVL6-.LVL5
 1410 0164 02       		.uleb128 0x2
 1411 0165 30       		.byte	0x30
 1412 0166 9F       		.byte	0x9f
 1413 0167 00       		.byte	0
 1414              	.Ldebug_loc3:
 1415              		.section	.debug_aranges,"",%progbits
 1416 0000 24000000 		.4byte	0x24
 1417 0004 0200     		.2byte	0x2
 1418 0006 00000000 		.4byte	.Ldebug_info0
 1419 000a 04       		.byte	0x4
 1420 000b 00       		.byte	0
 1421 000c 0000     		.2byte	0
 1422 000e 0000     		.2byte	0
 1423 0010 00000000 		.4byte	.LFB448
 1424 0014 9C000000 		.4byte	.LFE448-.LFB448
 1425 0018 00000000 		.4byte	.LFB449
ARM GAS  C:\Users\DEVELO~1\AppData\Local\Temp\ccNdMB7f.s 			page 26


 1426 001c 1C000000 		.4byte	.LFE449-.LFB449
 1427 0020 00000000 		.4byte	0
 1428 0024 00000000 		.4byte	0
 1429              		.section	.debug_rnglists,"",%progbits
 1430              	.Ldebug_ranges0:
 1431 0000 35000000 		.4byte	.Ldebug_ranges3-.Ldebug_ranges2
 1432              	.Ldebug_ranges2:
 1433 0004 0500     		.2byte	0x5
 1434 0006 04       		.byte	0x4
 1435 0007 00       		.byte	0
 1436 0008 00000000 		.4byte	0
 1437              	.LLRL5:
 1438 000c 05       		.byte	0x5
 1439 000d 00000000 		.4byte	.LBB2
 1440 0011 04       		.byte	0x4
 1441 0012 00       		.uleb128 .LBB2-.LBB2
 1442 0013 00       		.uleb128 .LBE2-.LBB2
 1443 0014 04       		.byte	0x4
 1444 0015 06       		.uleb128 .LBB6-.LBB2
 1445 0016 06       		.uleb128 .LBE6-.LBB2
 1446 0017 04       		.byte	0x4
 1447 0018 08       		.uleb128 .LBB7-.LBB2
 1448 0019 6A       		.uleb128 .LBE7-.LBB2
 1449 001a 04       		.byte	0x4
 1450 001b 7A       		.uleb128 .LBB8-.LBB2
 1451 001c 8401     		.uleb128 .LBE8-.LBB2
 1452 001e 00       		.byte	0
 1453              	.LLRL7:
 1454 001f 05       		.byte	0x5
 1455 0020 16000000 		.4byte	.LBB3
 1456 0024 04       		.byte	0x4
 1457 0025 00       		.uleb128 .LBB3-.LBB3
 1458 0026 44       		.uleb128 .LBE3-.LBB3
 1459 0027 04       		.byte	0x4
 1460 0028 64       		.uleb128 .LBB5-.LBB3
 1461 0029 6E       		.uleb128 .LBE5-.LBB3
 1462 002a 00       		.byte	0
 1463              	.LLRL11:
 1464 002b 07       		.byte	0x7
 1465 002c 00000000 		.4byte	.LFB448
 1466 0030 9C01     		.uleb128 .LFE448-.LFB448
 1467 0032 07       		.byte	0x7
 1468 0033 00000000 		.4byte	.LFB449
 1469 0037 1C       		.uleb128 .LFE449-.LFB449
 1470 0038 00       		.byte	0
 1471              	.Ldebug_ranges3:
 1472              		.section	.debug_line,"",%progbits
 1473              	.Ldebug_line0:
 1474 0000 65030000 		.section	.debug_str,"MS",%progbits,1
 1474      03003802 
 1474      00000201 
 1474      FB0E0D00 
 1474      01010101 
 1475              	.LASF23:
 1476 0000 63685379 		.ascii	"chSysInit\000"
 1476      73496E69 
 1476      7400
ARM GAS  C:\Users\DEVELO~1\AppData\Local\Temp\ccNdMB7f.s 			page 27


 1477              	.LASF7:
 1478 000a 73697A65 		.ascii	"size_t\000"
 1478      5F7400
 1479              	.LASF31:
 1480 0011 746F6E65 		.ascii	"tone_phase\000"
 1480      5F706861 
 1480      736500
 1481              	.LASF37:
 1482 001c 73616D70 		.ascii	"sample_i\000"
 1482      6C655F69 
 1482      00
 1483              	.LASF28:
 1484 0025 7370695F 		.ascii	"spi_out\000"
 1484      6F757400 
 1485              	.LASF22:
 1486 002d 6472765F 		.ascii	"drv_audio_init\000"
 1486      61756469 
 1486      6F5F696E 
 1486      697400
 1487              	.LASF8:
 1488 003c 5F5F696E 		.ascii	"__int32_t\000"
 1488      7433325F 
 1488      7400
 1489              	.LASF44:
 1490 0046 6472765F 		.ascii	"drv_audio_process_block\000"
 1490      61756469 
 1490      6F5F7072 
 1490      6F636573 
 1490      735F626C 
 1491              	.LASF19:
 1492 005e 74696D65 		.ascii	"time_conv_t\000"
 1492      5F636F6E 
 1492      765F7400 
 1493              	.LASF21:
 1494 006a 6472765F 		.ascii	"drv_audio_start\000"
 1494      61756469 
 1494      6F5F7374 
 1494      61727400 
 1495              	.LASF16:
 1496 007a 75696E74 		.ascii	"uint64_t\000"
 1496      36345F74 
 1496      00
 1497              	.LASF32:
 1498 0083 73616D70 		.ascii	"samples_per_cycle\000"
 1498      6C65735F 
 1498      7065725F 
 1498      6379636C 
 1498      6500
 1499              	.LASF38:
 1500 0095 474E5520 		.ascii	"GNU C17 11.3.1 20220712 -mcpu=cortex-m7 -mthumb -mf"
 1500      43313720 
 1500      31312E33 
 1500      2E312032 
 1500      30323230 
 1501 00c8 6C6F6174 		.ascii	"loat-abi=soft -march=armv7e-m -ggdb -O2 -fomit-fram"
 1501      2D616269 
 1501      3D736F66 
ARM GAS  C:\Users\DEVELO~1\AppData\Local\Temp\ccNdMB7f.s 			page 28


 1501      74202D6D 
 1501      61726368 
 1502 00fb 652D706F 		.ascii	"e-pointer -falign-functions=16 -ffunction-sections "
 1502      696E7465 
 1502      72202D66 
 1502      616C6967 
 1502      6E2D6675 
 1503 012e 2D666461 		.ascii	"-fdata-sections -fno-common\000"
 1503      74612D73 
 1503      65637469 
 1503      6F6E7320 
 1503      2D666E6F 
 1504              	.LASF24:
 1505 014a 68616C49 		.ascii	"halInit\000"
 1505      6E697400 
 1506              	.LASF13:
 1507 0152 6C6F6E67 		.ascii	"long long unsigned int\000"
 1507      206C6F6E 
 1507      6720756E 
 1507      7369676E 
 1507      65642069 
 1508              	.LASF4:
 1509 0169 756E7369 		.ascii	"unsigned char\000"
 1509      676E6564 
 1509      20636861 
 1509      7200
 1510              	.LASF41:
 1511 0177 63685468 		.ascii	"chThdSleep\000"
 1511      64536C65 
 1511      657000
 1512              	.LASF45:
 1513 0182 5F5F6275 		.ascii	"__builtin_memset\000"
 1513      696C7469 
 1513      6E5F6D65 
 1513      6D736574 
 1513      00
 1514              	.LASF11:
 1515 0193 6C6F6E67 		.ascii	"long unsigned int\000"
 1515      20756E73 
 1515      69676E65 
 1515      6420696E 
 1515      7400
 1516              	.LASF6:
 1517 01a5 73686F72 		.ascii	"short unsigned int\000"
 1517      7420756E 
 1517      7369676E 
 1517      65642069 
 1517      6E7400
 1518              	.LASF27:
 1519 01b8 6461635F 		.ascii	"dac_out\000"
 1519      6F757400 
 1520              	.LASF42:
 1521 01c0 6D656D73 		.ascii	"memset\000"
 1521      657400
 1522              	.LASF25:
 1523 01c7 6164635F 		.ascii	"adc_in\000"
 1523      696E00
ARM GAS  C:\Users\DEVELO~1\AppData\Local\Temp\ccNdMB7f.s 			page 29


 1524              	.LASF26:
 1525 01ce 7370695F 		.ascii	"spi_in\000"
 1525      696E00
 1526              	.LASF10:
 1527 01d5 5F5F7569 		.ascii	"__uint32_t\000"
 1527      6E743332 
 1527      5F7400
 1528              	.LASF36:
 1529 01e0 62656570 		.ascii	"beep_on\000"
 1529      5F6F6E00 
 1530              	.LASF43:
 1531 01e8 6D61696E 		.ascii	"main\000"
 1531      00
 1532              	.LASF0:
 1533 01ed 756E7369 		.ascii	"unsigned int\000"
 1533      676E6564 
 1533      20696E74 
 1533      00
 1534              	.LASF33:
 1535 01fa 73616D70 		.ascii	"samples_per_on\000"
 1535      6C65735F 
 1535      7065725F 
 1535      6F6E00
 1536              	.LASF35:
 1537 0209 73616D70 		.ascii	"samples_per_period\000"
 1537      6C65735F 
 1537      7065725F 
 1537      70657269 
 1537      6F6400
 1538              	.LASF18:
 1539 021c 73797369 		.ascii	"sysinterval_t\000"
 1539      6E746572 
 1539      76616C5F 
 1539      7400
 1540              	.LASF34:
 1541 022a 73616D70 		.ascii	"samples_per_off\000"
 1541      6C65735F 
 1541      7065725F 
 1541      6F666600 
 1542              	.LASF30:
 1543 023a 62656570 		.ascii	"beep_sample\000"
 1543      5F73616D 
 1543      706C6500 
 1544              	.LASF14:
 1545 0246 696E7433 		.ascii	"int32_t\000"
 1545      325F7400 
 1546              	.LASF1:
 1547 024e 6C6F6E67 		.ascii	"long long int\000"
 1547      206C6F6E 
 1547      6720696E 
 1547      7400
 1548              	.LASF39:
 1549 025c 6D61696E 		.ascii	"main.c\000"
 1549      2E6300
 1550              	.LASF17:
 1551 0263 63686172 		.ascii	"char\000"
 1551      00
ARM GAS  C:\Users\DEVELO~1\AppData\Local\Temp\ccNdMB7f.s 			page 30


 1552              	.LASF29:
 1553 0268 6672616D 		.ascii	"frames\000"
 1553      657300
 1554              	.LASF5:
 1555 026f 73686F72 		.ascii	"short int\000"
 1555      7420696E 
 1555      7400
 1556              	.LASF12:
 1557 0279 5F5F7569 		.ascii	"__uint64_t\000"
 1557      6E743634 
 1557      5F7400
 1558              	.LASF40:
 1559 0284 433A5C43 		.ascii	"C:\\ChibiStudio\\chibios2111\\demos\\STM32\\RT-STM3"
 1559      68696269 
 1559      53747564 
 1559      696F5C63 
 1559      68696269 
 1560 02b2 32483734 		.ascii	"2H743ZI_REV_XY-NUCLEO144 - Copie\000"
 1560      335A495F 
 1560      5245565F 
 1560      58592D4E 
 1560      55434C45 
 1561              	.LASF15:
 1562 02d3 75696E74 		.ascii	"uint32_t\000"
 1562      33325F74 
 1562      00
 1563              	.LASF9:
 1564 02dc 6C6F6E67 		.ascii	"long int\000"
 1564      20696E74 
 1564      00
 1565              	.LASF2:
 1566 02e5 6C6F6E67 		.ascii	"long double\000"
 1566      20646F75 
 1566      626C6500 
 1567              	.LASF3:
 1568 02f1 7369676E 		.ascii	"signed char\000"
 1568      65642063 
 1568      68617200 
 1569              	.LASF20:
 1570 02fd 5F426F6F 		.ascii	"_Bool\000"
 1570      6C00
 1571              		.ident	"GCC: (Arm GNU Toolchain 11.3.Rel1) 11.3.1 20220712"
ARM GAS  C:\Users\DEVELO~1\AppData\Local\Temp\ccNdMB7f.s 			page 31


DEFINED SYMBOLS
                            *ABS*:00000000 main.c
C:\Users\DEVELO~1\AppData\Local\Temp\ccNdMB7f.s:18     .text.drv_audio_process_block:00000000 $t
C:\Users\DEVELO~1\AppData\Local\Temp\ccNdMB7f.s:25     .text.drv_audio_process_block:00000000 drv_audio_process_block
C:\Users\DEVELO~1\AppData\Local\Temp\ccNdMB7f.s:201    .text.drv_audio_process_block:00000088 $d
C:\Users\DEVELO~1\AppData\Local\Temp\ccNdMB7f.s:210    .text.startup.main:00000000 $t
C:\Users\DEVELO~1\AppData\Local\Temp\ccNdMB7f.s:217    .text.startup.main:00000000 main
C:\Users\DEVELO~1\AppData\Local\Temp\ccNdMB7f.s:254    .bss.beep_sample.1:00000000 $d
C:\Users\DEVELO~1\AppData\Local\Temp\ccNdMB7f.s:258    .bss.beep_sample.1:00000000 beep_sample.1
C:\Users\DEVELO~1\AppData\Local\Temp\ccNdMB7f.s:261    .bss.tone_phase.0:00000000 $d
C:\Users\DEVELO~1\AppData\Local\Temp\ccNdMB7f.s:265    .bss.tone_phase.0:00000000 tone_phase.0

UNDEFINED SYMBOLS
memset
halInit
chSysInit
drv_audio_init
drv_audio_start
chThdSleep
