ARM GAS  C:\Users\DEVELO~1\AppData\Local\Temp\cceDdCeg.s 			page 1


   1              		.cpu cortex-m7
   2              		.arch armv7e-m
   3              		.fpu softvfp
   4              		.eabi_attribute 20, 1
   5              		.eabi_attribute 21, 1
   6              		.eabi_attribute 23, 3
   7              		.eabi_attribute 24, 1
   8              		.eabi_attribute 25, 1
   9              		.eabi_attribute 26, 1
  10              		.eabi_attribute 30, 2
  11              		.eabi_attribute 34, 1
  12              		.eabi_attribute 18, 4
  13              		.file	"main.c"
  14              		.text
  15              	.Ltext0:
  16              		.cfi_sections	.debug_frame
  17              		.global	__aeabi_fmul
  18              		.global	__aeabi_f2iz
  19              		.global	__aeabi_fadd
  20              		.global	__aeabi_fcmpge
  21              		.global	__aeabi_fsub
  22              		.section	.text.drv_audio_process_block,"ax",%progbits
  23              		.align	1
  24              		.p2align 4,,15
  25              		.weak	drv_audio_process_block
  26              		.syntax unified
  27              		.thumb
  28              		.thumb_func
  29              		.type	drv_audio_process_block, %function
  30              	drv_audio_process_block:
  31              	.LVL0:
  32              	.LFB448:
  33              		.file 1 "main.c"
  34              		.loc 1 17 67 view -0
  35              		.cfi_startproc
  36              		@ args = 4, pretend = 0, frame = 8
  37              		@ frame_needed = 0, uses_anonymous_args = 0
  38              		.loc 1 18 5 view .LVU1
  39              		.loc 1 19 5 view .LVU2
  40              		.loc 1 21 5 view .LVU3
  41              		.loc 1 22 5 view .LVU4
  42              		.loc 1 23 5 view .LVU5
  43              		.loc 1 25 5 view .LVU6
  44              	.LBB2:
  45              		.loc 1 25 10 view .LVU7
  46              		.loc 1 25 10 is_stmt 0 view .LVU8
  47              	.LBE2:
  48              		.loc 1 17 67 view .LVU9
  49 0000 2DE9F04F 		push	{r4, r5, r6, r7, r8, r9, r10, fp, lr}
  50              		.cfi_def_cfa_offset 36
  51              		.cfi_offset 4, -36
  52              		.cfi_offset 5, -32
  53              		.cfi_offset 6, -28
  54              		.cfi_offset 7, -24
  55              		.cfi_offset 8, -20
  56              		.cfi_offset 9, -16
  57              		.cfi_offset 10, -12
ARM GAS  C:\Users\DEVELO~1\AppData\Local\Temp\cceDdCeg.s 			page 2


  58              		.cfi_offset 11, -8
  59              		.cfi_offset 14, -4
  60 0004 83B0     		sub	sp, sp, #12
  61              		.cfi_def_cfa_offset 48
  62              		.loc 1 17 67 view .LVU10
  63 0006 0C9F     		ldr	r7, [sp, #48]
  64              	.LBB6:
  65              		.loc 1 25 26 is_stmt 1 view .LVU11
  66              	.LBE6:
  67              		.loc 1 17 67 is_stmt 0 view .LVU12
  68 0008 0193     		str	r3, [sp, #4]
  69              	.LBB7:
  70              		.loc 1 25 26 view .LVU13
  71 000a 6FB3     		cbz	r7, .L2
  72 000c 1D4B     		ldr	r3, .L14
  73              	.LVL1:
  74              		.loc 1 25 26 view .LVU14
  75 000e 9246     		mov	r10, r2
  76              		.loc 1 25 17 view .LVU15
  77 0010 4FF0000B 		mov	fp, #0
  78              	.LBB3:
  79              		.loc 1 26 15 view .LVU16
  80 0014 DFF87090 		ldr	r9, .L14+4
  81 0018 1C68     		ldr	r4, [r3]	@ float
  82              		.loc 1 35 15 view .LVU17
  83 001a DFF87080 		ldr	r8, .L14+8
  84              		.loc 1 36 12 view .LVU18
  85 001e 1C4E     		ldr	r6, .L14+12
  86              	.LVL2:
  87              	.L5:
  88              		.loc 1 26 9 is_stmt 1 view .LVU19
  89              		.loc 1 26 24 is_stmt 0 view .LVU20
  90 0020 2046     		mov	r0, r4
  91              	.LBE3:
  92              		.loc 1 25 36 view .LVU21
  93 0022 0BF1010B 		add	fp, fp, #1
  94              	.LVL3:
  95              	.LBB4:
  96              		.loc 1 26 24 view .LVU22
  97 0026 FFF7FEFF 		bl	sinf
  98              	.LVL4:
  99              		.loc 1 27 9 is_stmt 1 view .LVU23
 100              		.loc 1 26 15 is_stmt 0 view .LVU24
 101 002a 4946     		mov	r1, r9
 102 002c FFF7FEFF 		bl	__aeabi_fmul
 103              	.LVL5:
 104              		.loc 1 34 17 view .LVU25
 105 0030 0AF1100A 		add	r10, r10, #16
 106              	.LVL6:
 107              		.loc 1 27 17 view .LVU26
 108 0034 FFF7FEFF 		bl	__aeabi_f2iz
 109              	.LVL7:
 110              		.loc 1 35 15 view .LVU27
 111 0038 4146     		mov	r1, r8
 112              		.loc 1 27 17 view .LVU28
 113 003a 0546     		mov	r5, r0
 114              		.loc 1 35 15 view .LVU29
ARM GAS  C:\Users\DEVELO~1\AppData\Local\Temp\cceDdCeg.s 			page 3


 115 003c 2046     		mov	r0, r4
 116              	.LVL8:
 117              		.loc 1 29 9 is_stmt 1 view .LVU30
 118              		.loc 1 30 9 view .LVU31
 119              		.loc 1 31 9 view .LVU32
 120              		.loc 1 32 9 view .LVU33
 121              		.loc 1 34 9 view .LVU34
 122              		.loc 1 35 9 view .LVU35
 123              		.loc 1 35 15 is_stmt 0 view .LVU36
 124 003e FFF7FEFF 		bl	__aeabi_fadd
 125              	.LVL9:
 126              		.loc 1 36 12 view .LVU37
 127 0042 3146     		mov	r1, r6
 128              		.loc 1 35 15 view .LVU38
 129 0044 0446     		mov	r4, r0
 130              		.loc 1 36 9 is_stmt 1 view .LVU39
 131              		.loc 1 36 12 is_stmt 0 view .LVU40
 132 0046 FFF7FEFF 		bl	__aeabi_fcmpge
 133              	.LVL10:
 134              		.loc 1 37 13 is_stmt 1 view .LVU41
 135              		.loc 1 36 12 is_stmt 0 view .LVU42
 136 004a 0346     		mov	r3, r0
 137              		.loc 1 37 19 view .LVU43
 138 004c 3146     		mov	r1, r6
 139 004e 2046     		mov	r0, r4
 140              		.loc 1 36 12 view .LVU44
 141 0050 13B1     		cbz	r3, .L3
 142              		.loc 1 37 19 view .LVU45
 143 0052 FFF7FEFF 		bl	__aeabi_fsub
 144              	.LVL11:
 145 0056 0446     		mov	r4, r0
 146              	.L3:
 147              	.LBE4:
 148              		.loc 1 25 26 discriminator 2 view .LVU46
 149 0058 5F45     		cmp	r7, fp
 150              	.LBB5:
 151              		.loc 1 30 20 discriminator 2 view .LVU47
 152 005a 4AE90455 		strd	r5, r5, [r10, #-16]
 153              		.loc 1 32 20 discriminator 2 view .LVU48
 154 005e 4AE90255 		strd	r5, r5, [r10, #-8]
 155              	.LBE5:
 156              		.loc 1 25 36 is_stmt 1 discriminator 2 view .LVU49
 157              	.LVL12:
 158              		.loc 1 25 26 discriminator 2 view .LVU50
 159 0062 DDD1     		bne	.L5
 160              		.loc 1 25 26 is_stmt 0 discriminator 2 view .LVU51
 161 0064 074B     		ldr	r3, .L14
 162 0066 1C60     		str	r4, [r3]	@ float
 163              	.LVL13:
 164              	.L2:
 165              		.loc 1 25 26 discriminator 2 view .LVU52
 166              	.LBE7:
 167              		.loc 1 41 5 is_stmt 1 view .LVU53
 168              		.loc 1 41 8 is_stmt 0 view .LVU54
 169 0068 019B     		ldr	r3, [sp, #4]
 170 006a 43B1     		cbz	r3, .L1
 171              		.loc 1 42 9 is_stmt 1 view .LVU55
ARM GAS  C:\Users\DEVELO~1\AppData\Local\Temp\cceDdCeg.s 			page 4


 172 006c 4FF48062 		mov	r2, #1024
 173 0070 0021     		movs	r1, #0
 174 0072 1846     		mov	r0, r3
 175              		.loc 1 44 1 is_stmt 0 view .LVU56
 176 0074 03B0     		add	sp, sp, #12
 177              		.cfi_remember_state
 178              		.cfi_def_cfa_offset 36
 179              		@ sp needed
 180 0076 BDE8F04F 		pop	{r4, r5, r6, r7, r8, r9, r10, fp, lr}
 181              		.cfi_restore 14
 182              		.cfi_restore 11
 183              		.cfi_restore 10
 184              		.cfi_restore 9
 185              		.cfi_restore 8
 186              		.cfi_restore 7
 187              		.cfi_restore 6
 188              		.cfi_restore 5
 189              		.cfi_restore 4
 190              		.cfi_def_cfa_offset 0
 191              	.LVL14:
 192              		.loc 1 42 9 view .LVU57
 193 007a FFF7FEBF 		b	memset
 194              	.LVL15:
 195              	.L1:
 196              		.cfi_restore_state
 197              		.loc 1 44 1 view .LVU58
 198 007e 03B0     		add	sp, sp, #12
 199              		.cfi_def_cfa_offset 36
 200              		@ sp needed
 201 0080 BDE8F08F 		pop	{r4, r5, r6, r7, r8, r9, r10, fp, pc}
 202              	.LVL16:
 203              	.L15:
 204              		.loc 1 44 1 view .LVU59
 205              		.align	2
 206              	.L14:
 207 0084 00000000 		.word	.LANCHOR0
 208 0088 CBCCCC49 		.word	1238158539
 209 008c A4E96B3D 		.word	1030482340
 210 0090 DB0FC940 		.word	1086918619
 211              		.cfi_endproc
 212              	.LFE448:
 213              		.size	drv_audio_process_block, .-drv_audio_process_block
 214              		.section	.text.startup.main,"ax",%progbits
 215              		.align	1
 216              		.p2align 4,,15
 217              		.global	main
 218              		.syntax unified
 219              		.thumb
 220              		.thumb_func
 221              		.type	main, %function
 222              	main:
 223              	.LFB449:
 224              		.loc 1 46 16 is_stmt 1 view -0
 225              		.cfi_startproc
 226              		@ Volatile: function does not return.
 227              		@ args = 0, pretend = 0, frame = 0
 228              		@ frame_needed = 0, uses_anonymous_args = 0
ARM GAS  C:\Users\DEVELO~1\AppData\Local\Temp\cceDdCeg.s 			page 5


 229              		.loc 1 47 5 view .LVU61
 230              		.loc 1 46 16 is_stmt 0 view .LVU62
 231 0000 08B5     		push	{r3, lr}
 232              		.cfi_def_cfa_offset 8
 233              		.cfi_offset 3, -8
 234              		.cfi_offset 14, -4
 235              		.loc 1 47 5 view .LVU63
 236 0002 FFF7FEFF 		bl	halInit
 237              	.LVL17:
 238              		.loc 1 48 5 is_stmt 1 view .LVU64
 239 0006 FFF7FEFF 		bl	chSysInit
 240              	.LVL18:
 241              		.loc 1 50 5 view .LVU65
 242 000a FFF7FEFF 		bl	drv_audio_init
 243              	.LVL19:
 244              		.loc 1 51 5 view .LVU66
 245 000e FFF7FEFF 		bl	drv_audio_start
 246              	.LVL20:
 247              	.L17:
 248              		.loc 1 53 5 discriminator 1 view .LVU67
 249              		.loc 1 54 9 discriminator 1 view .LVU68
 250 0012 42F21070 		movw	r0, #10000
 251 0016 FFF7FEFF 		bl	chThdSleep
 252              	.LVL21:
 253              		.loc 1 53 11 discriminator 1 view .LVU69
 254 001a FAE7     		b	.L17
 255              		.cfi_endproc
 256              	.LFE449:
 257              		.size	main, .-main
 258              		.section	.bss.phase.0,"aw",%nobits
 259              		.align	2
 260              		.set	.LANCHOR0,. + 0
 261              		.type	phase.0, %object
 262              		.size	phase.0, 4
 263              	phase.0:
 264 0000 00000000 		.space	4
 265              		.text
 266              	.Letext0:
 267              		.file 2 "c:\\chibistudio\\tools\\gnu tools arm embedded\\11.3 2022.08\\lib\\gcc\\arm-none-eabi\\11
 268              		.file 3 "c:\\chibistudio\\tools\\gnu tools arm embedded\\11.3 2022.08\\arm-none-eabi\\include\\mac
 269              		.file 4 "c:\\chibistudio\\tools\\gnu tools arm embedded\\11.3 2022.08\\arm-none-eabi\\include\\sys
 270              		.file 5 "./ChibiOS/os/rt/include/chtime.h"
 271              		.file 6 "drivers/audio/drv_audio.h"
 272              		.file 7 "./ChibiOS/os/rt/include/chsys.h"
 273              		.file 8 "./ChibiOS/os/hal/include/hal.h"
 274              		.file 9 "c:\\chibistudio\\tools\\gnu tools arm embedded\\11.3 2022.08\\arm-none-eabi\\include\\str
 275              		.file 10 "c:\\chibistudio\\tools\\gnu tools arm embedded\\11.3 2022.08\\arm-none-eabi\\include\\ma
 276              		.file 11 "./ChibiOS/os/rt/include/chthreads.h"
 277              		.file 12 "<built-in>"