ARM GAS  C:\Users\DEVELO~1\AppData\Local\Temp\ccAozvLj.s 			page 1


   1              		.cpu cortex-m7
   2              		.arch armv7e-m
   3              		.fpu softvfp
   4              		.eabi_attribute 20, 1
   5              		.eabi_attribute 21, 1
   6              		.eabi_attribute 23, 3
   7              		.eabi_attribute 24, 1
   8              		.eabi_attribute 25, 1
   9              		.eabi_attribute 26, 1
  10              		.eabi_attribute 30, 2
  11              		.eabi_attribute 34, 1
  12              		.eabi_attribute 18, 4
  13              		.file	"midi.c"
  14              		.text
  15              	.Ltext0:
  16              		.cfi_sections	.debug_frame
  17              		.section	.text.post_mb_or_drop,"ax",%progbits
  18              		.align	1
  19              		.p2align 4,,15
  20              		.syntax unified
  21              		.thumb
  22              		.thumb_func
  23              		.type	post_mb_or_drop, %function
  24              	post_mb_or_drop:
  25              	.LVL0:
  26              	.LFB444:
  27              		.file 1 "drivers/midi/midi.c"
  28              		.loc 1 378 62 view -0
  29              		.cfi_startproc
  30              		@ args = 0, pretend = 0, frame = 8
  31              		@ frame_needed = 0, uses_anonymous_args = 0
  32              		.loc 1 379 3 view .LVU1
  33              		.loc 1 378 62 is_stmt 0 view .LVU2
  34 0000 30B5     		push	{r4, r5, lr}
  35              		.cfi_def_cfa_offset 12
  36              		.cfi_offset 4, -12
  37              		.cfi_offset 5, -8
  38              		.cfi_offset 14, -4
  39 0002 0446     		mov	r4, r0
  40 0004 83B0     		sub	sp, sp, #12
  41              		.cfi_def_cfa_offset 24
  42              		.loc 1 378 62 view .LVU3
  43 0006 0D46     		mov	r5, r1
  44              		.loc 1 379 7 view .LVU4
  45 0008 0022     		movs	r2, #0
  46 000a 1C48     		ldr	r0, .L25
  47              	.LVL1:
  48              		.loc 1 379 7 view .LVU5
  49 000c 2146     		mov	r1, r4
  50              	.LVL2:
  51              		.loc 1 379 7 view .LVU6
  52 000e FFF7FEFF 		bl	chMBPostTimeout
  53              	.LVL3:
  54              		.loc 1 379 6 view .LVU7
  55 0012 F0B1     		cbz	r0, .L2
  56              		.loc 1 380 5 is_stmt 1 view .LVU8
  57              		.loc 1 380 8 is_stmt 0 view .LVU9
ARM GAS  C:\Users\DEVELO~1\AppData\Local\Temp\ccAozvLj.s 			page 2


  58 0014 2DB9     		cbnz	r5, .L24
  59              	.L3:
  60              		.loc 1 390 7 is_stmt 1 view .LVU10
  61              		.loc 1 390 20 is_stmt 0 view .LVU11
  62 0016 1A4A     		ldr	r2, .L25+4
  63 0018 5369     		ldr	r3, [r2, #20]
  64              		.loc 1 390 32 view .LVU12
  65 001a 0133     		adds	r3, r3, #1
  66 001c 5361     		str	r3, [r2, #20]
  67              		.loc 1 395 1 view .LVU13
  68 001e 03B0     		add	sp, sp, #12
  69              		.cfi_remember_state
  70              		.cfi_def_cfa_offset 12
  71              		@ sp needed
  72 0020 30BD     		pop	{r4, r5, pc}
  73              	.LVL4:
  74              	.L24:
  75              		.cfi_restore_state
  76              	.LBB364:
  77              	.LBI364:
  78              		.loc 1 378 13 is_stmt 1 view .LVU14
  79              	.LBB365:
  80              	.LBB366:
  81              		.loc 1 381 7 view .LVU15
  82              		.loc 1 382 7 view .LVU16
  83              		.loc 1 382 11 is_stmt 0 view .LVU17
  84 0022 0022     		movs	r2, #0
  85 0024 01A9     		add	r1, sp, #4
  86 0026 1548     		ldr	r0, .L25
  87 0028 FFF7FEFF 		bl	chMBFetchTimeout
  88              	.LVL5:
  89              		.loc 1 382 10 view .LVU18
  90 002c 50B9     		cbnz	r0, .L4
  91              		.loc 1 383 9 is_stmt 1 view .LVU19
  92              	.LBB367:
  93              	.LBI367:
  94              		.loc 1 132 20 view .LVU20
  95              	.LBB368:
  96              		.loc 1 133 3 view .LVU21
  97              	.LBB369:
  98              	.LBI369:
  99              		.file 2 "../../../os/hal/osal/rt-nil/osal.h"
 100              		.loc 2 573 20 view .LVU22
 101              		.loc 2 575 3 view .LVU23
 102              	.LBB370:
 103              	.LBI370:
 104              		.file 3 "../../../os/rt/include/chsys.h"
 105              		.loc 3 407 20 view .LVU24
 106              		.loc 3 409 3 view .LVU25
 107              	.LBB371:
 108              	.LBI371:
 109              		.file 4 "../../../os/common/ports/ARMv7-M/chcore.h"
 110              		.loc 4 806 27 view .LVU26
 111              		.loc 4 814 3 view .LVU27
 112              	.LVL6:
 113              	.LBB372:
 114              	.LBI372:
ARM GAS  C:\Users\DEVELO~1\AppData\Local\Temp\ccAozvLj.s 			page 3


 115              		.file 5 "../../../os/common/ext/ARM/CMSIS/Core/Include/cmsis_gcc.h"
 116              		.loc 5 491 27 view .LVU28
 117              	.LBB373:
 118              		.loc 5 493 3 view .LVU29
 119 002e 3023     		movs	r3, #48
 120              		.syntax unified
 121              	@ 493 "../../../os/common/ext/ARM/CMSIS/Core/Include/cmsis_gcc.h" 1
 122 0030 83F31188 		MSR basepri, r3
 123              	@ 0 "" 2
 124              	.LVL7:
 125              		.loc 5 493 3 is_stmt 0 view .LVU30
 126              		.thumb
 127              		.syntax unified
 128              	.LBE373:
 129              	.LBE372:
 130              	.LBE371:
 131              		.loc 3 410 35 is_stmt 1 view .LVU31
 132              		.loc 3 411 21 view .LVU32
 133              	.LBE370:
 134              	.LBE369:
 135              		.loc 1 134 3 view .LVU33
 136              		.loc 1 134 27 is_stmt 0 view .LVU34
 137 0034 134A     		ldr	r2, .L25+8
 138 0036 1388     		ldrh	r3, [r2]
 139              		.loc 1 134 6 view .LVU35
 140 0038 0BB1     		cbz	r3, .L5
 141              		.loc 1 135 5 is_stmt 1 view .LVU36
 142              		.loc 1 135 24 is_stmt 0 view .LVU37
 143 003a 013B     		subs	r3, r3, #1
 144 003c 1380     		strh	r3, [r2]	@ movhi
 145              	.L5:
 146              		.loc 1 137 3 is_stmt 1 view .LVU38
 147              	.LBB374:
 148              	.LBI374:
 149              		.loc 2 584 20 view .LVU39
 150              		.loc 2 586 3 view .LVU40
 151              	.LBB375:
 152              	.LBI375:
 153              		.loc 3 421 20 view .LVU41
 154              	.LBB376:
 155              		.loc 3 423 23 view .LVU42
 156              		.loc 3 424 34 view .LVU43
 157              		.loc 3 430 3 view .LVU44
 158              		.loc 3 430 3 view .LVU45
 159              		.loc 3 430 3 view .LVU46
 160              		.loc 3 434 3 view .LVU47
 161              	.LBB377:
 162              	.LBI377:
 163              		.loc 4 830 27 view .LVU48
 164              		.loc 4 833 3 view .LVU49
 165              	.LVL8:
 166              	.LBB378:
 167              	.LBI378:
 168              		.loc 5 491 27 view .LVU50
 169              	.LBB379:
 170              		.loc 5 493 3 view .LVU51
 171 003e 0023     		movs	r3, #0
ARM GAS  C:\Users\DEVELO~1\AppData\Local\Temp\ccAozvLj.s 			page 4


 172              		.syntax unified
 173              	@ 493 "../../../os/common/ext/ARM/CMSIS/Core/Include/cmsis_gcc.h" 1
 174 0040 83F31188 		MSR basepri, r3
 175              	@ 0 "" 2
 176              	.LVL9:
 177              		.thumb
 178              		.syntax unified
 179              	.L4:
 180              		.loc 5 493 3 is_stmt 0 view .LVU52
 181              	.LBE379:
 182              	.LBE378:
 183              	.LBE377:
 184              	.LBE376:
 185              	.LBE375:
 186              	.LBE374:
 187              	.LBE368:
 188              	.LBE367:
 189              		.loc 1 385 7 is_stmt 1 view .LVU53
 190              		.loc 1 385 11 is_stmt 0 view .LVU54
 191 0044 0022     		movs	r2, #0
 192 0046 2146     		mov	r1, r4
 193 0048 0C48     		ldr	r0, .L25
 194 004a FFF7FEFF 		bl	chMBPostTimeout
 195              	.LVL10:
 196              		.loc 1 385 10 view .LVU55
 197 004e 0028     		cmp	r0, #0
 198 0050 E1D1     		bne	.L3
 199              	.LVL11:
 200              	.L2:
 201              		.loc 1 385 10 view .LVU56
 202              	.LBE366:
 203              	.LBE365:
 204              	.LBE364:
 205              		.loc 1 393 5 is_stmt 1 view .LVU57
 206              	.LBB380:
 207              	.LBI380:
 208              		.loc 1 121 20 view .LVU58
 209              	.LBB381:
 210              		.loc 1 122 3 view .LVU59
 211              	.LBB382:
 212              	.LBI382:
 213              		.loc 2 573 20 view .LVU60
 214              		.loc 2 575 3 view .LVU61
 215              	.LBB383:
 216              	.LBI383:
 217              		.loc 3 407 20 view .LVU62
 218              		.loc 3 409 3 view .LVU63
 219              	.LBB384:
 220              	.LBI384:
 221              		.loc 4 806 27 view .LVU64
 222              		.loc 4 814 3 view .LVU65
 223              	.LBB385:
 224              	.LBI385:
 225              		.loc 5 491 27 view .LVU66
 226              	.LBB386:
 227              		.loc 5 493 3 view .LVU67
 228 0052 3023     		movs	r3, #48
ARM GAS  C:\Users\DEVELO~1\AppData\Local\Temp\ccAozvLj.s 			page 5


 229              		.syntax unified
 230              	@ 493 "../../../os/common/ext/ARM/CMSIS/Core/Include/cmsis_gcc.h" 1
 231 0054 83F31188 		MSR basepri, r3
 232              	@ 0 "" 2
 233              	.LVL12:
 234              		.loc 5 493 3 is_stmt 0 view .LVU68
 235              		.thumb
 236              		.syntax unified
 237              	.LBE386:
 238              	.LBE385:
 239              	.LBE384:
 240              		.loc 3 410 35 is_stmt 1 view .LVU69
 241              		.loc 3 411 21 view .LVU70
 242              	.LBE383:
 243              	.LBE382:
 244              		.loc 1 123 3 view .LVU71
 245              		.loc 1 123 27 is_stmt 0 view .LVU72
 246 0058 0A4A     		ldr	r2, .L25+8
 247 005a 1388     		ldrh	r3, [r2]
 248              		.loc 1 123 6 view .LVU73
 249 005c FF2B     		cmp	r3, #255
 250 005e 07D8     		bhi	.L13
 251              		.loc 1 124 5 is_stmt 1 view .LVU74
 252              		.loc 1 125 29 is_stmt 0 view .LVU75
 253 0060 0949     		ldr	r1, .L25+12
 254              		.loc 1 124 24 view .LVU76
 255 0062 0133     		adds	r3, r3, #1
 256              		.loc 1 125 8 view .LVU77
 257 0064 0888     		ldrh	r0, [r1]
 258              		.loc 1 124 24 view .LVU78
 259 0066 9BB2     		uxth	r3, r3
 260              		.loc 1 125 8 view .LVU79
 261 0068 9842     		cmp	r0, r3
 262              		.loc 1 124 24 view .LVU80
 263 006a 1380     		strh	r3, [r2]	@ movhi
 264              		.loc 1 125 5 is_stmt 1 view .LVU81
 265              		.loc 1 126 7 view .LVU82
 266              		.loc 1 126 33 is_stmt 0 view .LVU83
 267 006c 38BF     		it	cc
 268 006e 0B80     		strhcc	r3, [r1]	@ movhi
 269              	.L13:
 270              		.loc 1 129 3 is_stmt 1 view .LVU84
 271              	.LBB387:
 272              	.LBI387:
 273              		.loc 2 584 20 view .LVU85
 274              		.loc 2 586 3 view .LVU86
 275              	.LBB388:
 276              	.LBI388:
 277              		.loc 3 421 20 view .LVU87
 278              	.LBB389:
 279              		.loc 3 423 23 view .LVU88
 280              		.loc 3 424 34 view .LVU89
 281              		.loc 3 430 3 view .LVU90
 282              		.loc 3 430 3 view .LVU91
 283              		.loc 3 430 3 view .LVU92
 284              		.loc 3 434 3 view .LVU93
 285              	.LBB390:
ARM GAS  C:\Users\DEVELO~1\AppData\Local\Temp\ccAozvLj.s 			page 6


 286              	.LBI390:
 287              		.loc 4 830 27 view .LVU94
 288              		.loc 4 833 3 view .LVU95
 289              	.LVL13:
 290              	.LBB391:
 291              	.LBI391:
 292              		.loc 5 491 27 view .LVU96
 293              	.LBB392:
 294              		.loc 5 493 3 view .LVU97
 295 0070 0023     		movs	r3, #0
 296              		.syntax unified
 297              	@ 493 "../../../os/common/ext/ARM/CMSIS/Core/Include/cmsis_gcc.h" 1
 298 0072 83F31188 		MSR basepri, r3
 299              	@ 0 "" 2
 300              	.LVL14:
 301              		.loc 5 493 3 is_stmt 0 view .LVU98
 302              		.thumb
 303              		.syntax unified
 304              	.LBE392:
 305              	.LBE391:
 306              	.LBE390:
 307              	.LBE389:
 308              	.LBE388:
 309              	.LBE387:
 310              	.LBE381:
 311              	.LBE380:
 312              		.loc 1 395 1 view .LVU99
 313 0076 03B0     		add	sp, sp, #12
 314              		.cfi_def_cfa_offset 12
 315              		@ sp needed
 316 0078 30BD     		pop	{r4, r5, pc}
 317              	.LVL15:
 318              	.L26:
 319              		.loc 1 395 1 view .LVU100
 320 007a 00BF     		.align	2
 321              	.L25:
 322 007c 00000000 		.word	.LANCHOR0
 323 0080 00000000 		.word	.LANCHOR2
 324 0084 00000000 		.word	.LANCHOR1
 325 0088 00000000 		.word	.LANCHOR3
 326              		.cfi_endproc
 327              	.LFE444:
 328              		.size	post_mb_or_drop, .-post_mb_or_drop
 329              		.section	.text.send_usb,"ax",%progbits
 330              		.align	1
 331              		.p2align 4,,15
 332              		.syntax unified
 333              		.thumb
 334              		.thumb_func
 335              		.type	send_usb, %function
 336              	send_usb:
 337              	.LVL16:
 338              	.LFB448:
 339              		.loc 1 518 54 is_stmt 1 view -0
 340              		.cfi_startproc
 341              		@ args = 0, pretend = 0, frame = 8
 342              		@ frame_needed = 0, uses_anonymous_args = 0
ARM GAS  C:\Users\DEVELO~1\AppData\Local\Temp\ccAozvLj.s 			page 7


 343              		.loc 1 519 3 view .LVU102
 344              		.loc 1 518 54 is_stmt 0 view .LVU103
 345 0000 30B5     		push	{r4, r5, lr}
 346              		.cfi_def_cfa_offset 12
 347              		.cfi_offset 4, -12
 348              		.cfi_offset 5, -8
 349              		.cfi_offset 14, -4
 350              		.loc 1 519 11 view .LVU104
 351 0002 0023     		movs	r3, #0
 352              		.loc 1 518 54 view .LVU105
 353 0004 83B0     		sub	sp, sp, #12
 354              		.cfi_def_cfa_offset 24
 355              		.loc 1 520 17 view .LVU106
 356 0006 0278     		ldrb	r2, [r0]	@ zero_extendqisi2
 357              		.loc 1 519 11 view .LVU107
 358 0008 0193     		str	r3, [sp, #4]
 359              		.loc 1 520 3 is_stmt 1 view .LVU108
 360              	.LVL17:
 361              		.loc 1 521 3 view .LVU109
 362              		.loc 1 523 3 view .LVU110
 363              		.loc 1 526 3 view .LVU111
 364 000a 02F0F003 		and	r3, r2, #240
 365              		.loc 1 526 6 is_stmt 0 view .LVU112
 366 000e 802B     		cmp	r3, #128
 367 0010 2BD0     		beq	.L88
 368              		.loc 1 527 8 is_stmt 1 view .LVU113
 369              		.loc 1 527 11 is_stmt 0 view .LVU114
 370 0012 902B     		cmp	r3, #144
 371 0014 15D0     		beq	.L89
 372              		.loc 1 528 8 is_stmt 1 view .LVU115
 373              		.loc 1 528 11 is_stmt 0 view .LVU116
 374 0016 A02B     		cmp	r3, #160
 375 0018 17D0     		beq	.L90
 376              		.loc 1 529 8 is_stmt 1 view .LVU117
 377              		.loc 1 529 11 is_stmt 0 view .LVU118
 378 001a B02B     		cmp	r3, #176
 379 001c 4AD0     		beq	.L91
 380              		.loc 1 530 8 is_stmt 1 view .LVU119
 381              		.loc 1 530 11 is_stmt 0 view .LVU120
 382 001e E02B     		cmp	r3, #224
 383 0020 55D0     		beq	.L92
 384              		.loc 1 531 8 is_stmt 1 view .LVU121
 385              		.loc 1 531 11 is_stmt 0 view .LVU122
 386 0022 C02B     		cmp	r3, #192
 387 0024 3FD1     		bne	.L36
 388              		.loc 1 531 30 discriminator 1 view .LVU123
 389 0026 0129     		cmp	r1, #1
 390 0028 00F08F80 		beq	.L37
 391              		.loc 1 531 42 is_stmt 1 discriminator 2 view .LVU124
 392              		.loc 1 531 51 is_stmt 0 discriminator 2 view .LVU125
 393 002c 0C21     		movs	r1, #12
 394              	.LVL18:
 395              	.L86:
 396              		.loc 1 532 91 discriminator 2 view .LVU126
 397 002e 4378     		ldrb	r3, [r0, #1]	@ zero_extendqisi2
 398              		.loc 1 532 73 discriminator 2 view .LVU127
 399 0030 8DF80520 		strb	r2, [sp, #5]
ARM GAS  C:\Users\DEVELO~1\AppData\Local\Temp\ccAozvLj.s 			page 8


 400              		.loc 1 532 51 discriminator 2 view .LVU128
 401 0034 8DF80410 		strb	r1, [sp, #4]
 402              		.loc 1 532 64 is_stmt 1 discriminator 2 view .LVU129
 403              		.loc 1 532 82 discriminator 2 view .LVU130
 404              		.loc 1 532 91 is_stmt 0 discriminator 2 view .LVU131
 405 0038 8DF80630 		strb	r3, [sp, #6]
 406              		.loc 1 532 100 is_stmt 1 discriminator 2 view .LVU132
 407              		.loc 1 574 3 discriminator 2 view .LVU133
 408 003c 0198     		ldr	r0, [sp, #4]
 409              	.LVL19:
 410              		.loc 1 574 3 is_stmt 0 discriminator 2 view .LVU134
 411 003e 00BA     		rev	r0, r0
 412 0040 2CE0     		b	.L33
 413              	.LVL20:
 414              	.L89:
 415              		.loc 1 527 30 discriminator 1 view .LVU135
 416 0042 0329     		cmp	r1, #3
 417 0044 38D1     		bne	.L29
 418              		.loc 1 527 42 is_stmt 1 discriminator 2 view .LVU136
 419              		.loc 1 527 51 is_stmt 0 discriminator 2 view .LVU137
 420 0046 0924     		movs	r4, #9
 421 0048 12E0     		b	.L83
 422              	.L90:
 423              		.loc 1 528 30 discriminator 1 view .LVU138
 424 004a 0329     		cmp	r1, #3
 425 004c 34D1     		bne	.L29
 426              		.loc 1 528 42 is_stmt 1 discriminator 2 view .LVU139
 427              		.loc 1 528 51 is_stmt 0 discriminator 2 view .LVU140
 428 004e 0A24     		movs	r4, #10
 429              	.L84:
 430              		.loc 1 530 91 discriminator 2 view .LVU141
 431 0050 4178     		ldrb	r1, [r0, #1]	@ zero_extendqisi2
 432              	.LVL21:
 433              		.loc 1 530 109 discriminator 2 view .LVU142
 434 0052 8378     		ldrb	r3, [r0, #2]	@ zero_extendqisi2
 435              		.loc 1 530 73 discriminator 2 view .LVU143
 436 0054 8DF80520 		strb	r2, [sp, #5]
 437              		.loc 1 530 51 discriminator 2 view .LVU144
 438 0058 8DF80440 		strb	r4, [sp, #4]
 439              		.loc 1 530 64 is_stmt 1 discriminator 2 view .LVU145
 440              		.loc 1 530 82 discriminator 2 view .LVU146
 441              		.loc 1 530 91 is_stmt 0 discriminator 2 view .LVU147
 442 005c 8DF80610 		strb	r1, [sp, #6]
 443              	.L85:
 444              		.loc 1 530 100 is_stmt 1 discriminator 2 view .LVU148
 445              		.loc 1 530 109 is_stmt 0 discriminator 2 view .LVU149
 446 0060 8DF80730 		strb	r3, [sp, #7]
 447              		.loc 1 574 3 is_stmt 1 discriminator 2 view .LVU150
 448 0064 0198     		ldr	r0, [sp, #4]
 449              	.LVL22:
 450              		.loc 1 574 3 is_stmt 0 discriminator 2 view .LVU151
 451 0066 00BA     		rev	r0, r0
 452 0068 18E0     		b	.L33
 453              	.LVL23:
 454              	.L88:
 455              		.loc 1 526 25 discriminator 1 view .LVU152
 456 006a 0329     		cmp	r1, #3
ARM GAS  C:\Users\DEVELO~1\AppData\Local\Temp\ccAozvLj.s 			page 9


 457 006c 24D1     		bne	.L29
 458              		.loc 1 526 37 is_stmt 1 discriminator 2 view .LVU153
 459              		.loc 1 526 46 is_stmt 0 discriminator 2 view .LVU154
 460 006e 0824     		movs	r4, #8
 461              	.L83:
 462              		.loc 1 527 91 discriminator 2 view .LVU155
 463 0070 4178     		ldrb	r1, [r0, #1]	@ zero_extendqisi2
 464              	.LVL24:
 465              		.loc 1 527 113 discriminator 2 view .LVU156
 466 0072 8378     		ldrb	r3, [r0, #2]	@ zero_extendqisi2
 467              		.loc 1 527 51 discriminator 2 view .LVU157
 468 0074 8DF80440 		strb	r4, [sp, #4]
 469              		.loc 1 527 64 is_stmt 1 discriminator 2 view .LVU158
 470              		.loc 1 527 82 discriminator 2 view .LVU159
 471              	.LBB480:
 472              	.LBB481:
 473              	.LBB482:
 474              	.LBB483:
 475              	.LBB484:
 476              	.LBB485:
 477              	.LBB486:
 478              		.loc 5 493 3 is_stmt 0 discriminator 2 view .LVU160
 479 0078 3024     		movs	r4, #48
 480              	.LBE486:
 481              	.LBE485:
 482              	.LBE484:
 483              	.LBE483:
 484              	.LBE482:
 485              	.LBE481:
 486              	.LBE480:
 487              		.loc 1 527 73 discriminator 2 view .LVU161
 488 007a 8DF80520 		strb	r2, [sp, #5]
 489              		.loc 1 527 91 discriminator 2 view .LVU162
 490 007e 8DF80610 		strb	r1, [sp, #6]
 491              		.loc 1 527 100 is_stmt 1 discriminator 2 view .LVU163
 492              		.loc 1 527 118 discriminator 2 view .LVU164
 493              	.LVL25:
 494              		.loc 1 574 3 discriminator 2 view .LVU165
 495              		.loc 1 527 109 is_stmt 0 discriminator 2 view .LVU166
 496 0082 8DF80730 		strb	r3, [sp, #7]
 497              		.loc 1 575 5 is_stmt 1 discriminator 2 view .LVU167
 498              	.LBB505:
 499              	.LBI480:
 500              		.loc 1 42 20 discriminator 2 view .LVU168
 501              	.LBB504:
 502              		.loc 1 43 3 discriminator 2 view .LVU169
 503              		.loc 1 44 3 discriminator 2 view .LVU170
 504              	.LBB491:
 505              	.LBI482:
 506              		.loc 2 573 20 discriminator 2 view .LVU171
 507              		.loc 2 575 3 discriminator 2 view .LVU172
 508              	.LBB490:
 509              	.LBI483:
 510              		.loc 3 407 20 discriminator 2 view .LVU173
 511              		.loc 3 409 3 discriminator 2 view .LVU174
 512              	.LBB489:
 513              	.LBI484:
ARM GAS  C:\Users\DEVELO~1\AppData\Local\Temp\ccAozvLj.s 			page 10


 514              		.loc 4 806 27 discriminator 2 view .LVU175
 515              		.loc 4 814 3 discriminator 2 view .LVU176
 516              	.LVL26:
 517              	.LBB488:
 518              	.LBI485:
 519              		.loc 5 491 27 discriminator 2 view .LVU177
 520              	.LBB487:
 521              		.loc 5 493 3 discriminator 2 view .LVU178
 522              		.syntax unified
 523              	@ 493 "../../../os/common/ext/ARM/CMSIS/Core/Include/cmsis_gcc.h" 1
 524 0086 84F31188 		MSR basepri, r4
 525              	@ 0 "" 2
 526              	.LVL27:
 527              		.loc 5 493 3 is_stmt 0 discriminator 2 view .LVU179
 528              		.thumb
 529              		.syntax unified
 530              	.LBE487:
 531              	.LBE488:
 532              	.LBE489:
 533              		.loc 3 410 35 is_stmt 1 discriminator 2 view .LVU180
 534              		.loc 3 411 21 discriminator 2 view .LVU181
 535              	.LBE490:
 536              	.LBE491:
 537              		.loc 1 45 3 discriminator 2 view .LVU182
 538              		.loc 1 45 9 is_stmt 0 discriminator 2 view .LVU183
 539 008a 674B     		ldr	r3, .L97
 540              	.LBB492:
 541              	.LBB493:
 542              	.LBB494:
 543              	.LBB495:
 544              	.LBB496:
 545              	.LBB497:
 546              		.loc 5 493 3 discriminator 2 view .LVU184
 547 008c 0021     		movs	r1, #0
 548              	.LBE497:
 549              	.LBE496:
 550              	.LBE495:
 551              	.LBE494:
 552              	.LBE493:
 553              	.LBE492:
 554              		.loc 1 45 9 discriminator 2 view .LVU185
 555 008e 1B78     		ldrb	r3, [r3]	@ zero_extendqisi2
 556 0090 DBB2     		uxtb	r3, r3
 557              	.LVL28:
 558              		.loc 1 46 3 is_stmt 1 discriminator 2 view .LVU186
 559              	.LBB503:
 560              	.LBI492:
 561              		.loc 2 584 20 discriminator 2 view .LVU187
 562              		.loc 2 586 3 discriminator 2 view .LVU188
 563              	.LBB502:
 564              	.LBI493:
 565              		.loc 3 421 20 discriminator 2 view .LVU189
 566              	.LBB501:
 567              		.loc 3 423 23 discriminator 2 view .LVU190
 568              		.loc 3 424 34 discriminator 2 view .LVU191
 569              		.loc 3 430 3 discriminator 2 view .LVU192
 570              		.loc 3 430 3 discriminator 2 view .LVU193
ARM GAS  C:\Users\DEVELO~1\AppData\Local\Temp\ccAozvLj.s 			page 11


 571              		.loc 3 430 3 discriminator 2 view .LVU194
 572              		.loc 3 434 3 discriminator 2 view .LVU195
 573              	.LBB500:
 574              	.LBI495:
 575              		.loc 4 830 27 discriminator 2 view .LVU196
 576              		.loc 4 833 3 discriminator 2 view .LVU197
 577              	.LBB499:
 578              	.LBI496:
 579              		.loc 5 491 27 discriminator 2 view .LVU198
 580              	.LBB498:
 581              		.loc 5 493 3 discriminator 2 view .LVU199
 582              		.syntax unified
 583              	@ 493 "../../../os/common/ext/ARM/CMSIS/Core/Include/cmsis_gcc.h" 1
 584 0092 81F31188 		MSR basepri, r1
 585              	@ 0 "" 2
 586              	.LVL29:
 587              		.loc 5 493 3 is_stmt 0 discriminator 2 view .LVU200
 588              		.thumb
 589              		.syntax unified
 590              	.LBE498:
 591              	.LBE499:
 592              	.LBE500:
 593              	.LBE501:
 594              	.LBE502:
 595              	.LBE503:
 596              		.loc 1 47 3 is_stmt 1 discriminator 2 view .LVU201
 597              		.loc 1 47 3 is_stmt 0 discriminator 2 view .LVU202
 598              	.LBE504:
 599              	.LBE505:
 600              		.loc 1 575 8 discriminator 2 view .LVU203
 601 0096 7BBB     		cbnz	r3, .L93
 602              	.LVL30:
 603              	.L56:
 604              		.loc 1 575 8 discriminator 2 view .LVU204
 605 0098 0198     		ldr	r0, [sp, #4]
 606 009a 00BA     		rev	r0, r0
 607              	.LVL31:
 608              	.L33:
 609              		.loc 1 581 3 is_stmt 1 view .LVU205
 610              		.loc 1 582 3 view .LVU206
 611 009c 0021     		movs	r1, #0
 612 009e FFF7FEFF 		bl	post_mb_or_drop
 613              	.LVL32:
 614              	.L27:
 615              		.loc 1 583 1 is_stmt 0 view .LVU207
 616 00a2 03B0     		add	sp, sp, #12
 617              		.cfi_remember_state
 618              		.cfi_def_cfa_offset 12
 619              		@ sp needed
 620 00a4 30BD     		pop	{r4, r5, pc}
 621              	.LVL33:
 622              	.L36:
 623              		.cfi_restore_state
 624              		.loc 1 532 8 is_stmt 1 view .LVU208
 625              		.loc 1 532 11 is_stmt 0 view .LVU209
 626 00a6 D02B     		cmp	r3, #208
 627 00a8 15D1     		bne	.L38
ARM GAS  C:\Users\DEVELO~1\AppData\Local\Temp\ccAozvLj.s 			page 12


 628              		.loc 1 532 30 discriminator 1 view .LVU210
 629 00aa 0129     		cmp	r1, #1
 630 00ac 00F09080 		beq	.L39
 631              		.loc 1 532 42 is_stmt 1 discriminator 2 view .LVU211
 632              		.loc 1 532 51 is_stmt 0 discriminator 2 view .LVU212
 633 00b0 0D21     		movs	r1, #13
 634              	.LVL34:
 635              		.loc 1 532 51 discriminator 2 view .LVU213
 636 00b2 BCE7     		b	.L86
 637              	.LVL35:
 638              	.L91:
 639              		.loc 1 529 30 discriminator 1 view .LVU214
 640 00b4 0329     		cmp	r1, #3
 641 00b6 35D0     		beq	.L94
 642              	.L29:
 643              		.loc 1 535 8 is_stmt 1 view .LVU215
 644              		.loc 1 535 27 is_stmt 0 view .LVU216
 645 00b8 0129     		cmp	r1, #1
 646 00ba 94BF     		ite	ls
 647 00bc 0023     		movls	r3, #0
 648 00be 0123     		movhi	r3, #1
 649              		.loc 1 536 8 is_stmt 1 view .LVU217
 650              	.L59:
 651              		.loc 1 537 8 view .LVU218
 652              		.loc 1 537 11 is_stmt 0 view .LVU219
 653 00c0 F32A     		cmp	r2, #243
 654 00c2 42D1     		bne	.L37
 655 00c4 002B     		cmp	r3, #0
 656 00c6 40D0     		beq	.L37
 657              		.loc 1 537 33 is_stmt 1 discriminator 1 view .LVU220
 658              		.loc 1 537 55 discriminator 1 view .LVU221
 659              		.loc 1 537 42 is_stmt 0 discriminator 1 view .LVU222
 660 00c8 4FF20232 		movw	r2, #62210
 661              	.LVL36:
 662              		.loc 1 537 42 discriminator 1 view .LVU223
 663 00cc 0CE0     		b	.L87
 664              	.LVL37:
 665              	.L92:
 666              		.loc 1 530 30 discriminator 1 view .LVU224
 667 00ce 0329     		cmp	r1, #3
 668 00d0 F2D1     		bne	.L29
 669              		.loc 1 530 42 is_stmt 1 discriminator 2 view .LVU225
 670              		.loc 1 530 51 is_stmt 0 discriminator 2 view .LVU226
 671 00d2 0E24     		movs	r4, #14
 672 00d4 BCE7     		b	.L84
 673              	.L38:
 674              		.loc 1 535 8 is_stmt 1 view .LVU227
 675              		.loc 1 535 27 is_stmt 0 view .LVU228
 676 00d6 0129     		cmp	r1, #1
 677 00d8 94BF     		ite	ls
 678 00da 0023     		movls	r3, #0
 679 00dc 0123     		movhi	r3, #1
 680              		.loc 1 535 11 view .LVU229
 681 00de F12A     		cmp	r2, #241
 682 00e0 22D1     		bne	.L40
 683 00e2 0BB3     		cbz	r3, .L40
 684              		.loc 1 535 33 is_stmt 1 discriminator 1 view .LVU230
ARM GAS  C:\Users\DEVELO~1\AppData\Local\Temp\ccAozvLj.s 			page 13


 685              		.loc 1 535 55 discriminator 1 view .LVU231
 686              		.loc 1 535 42 is_stmt 0 discriminator 1 view .LVU232
 687 00e4 4FF20212 		movw	r2, #61698
 688              	.LVL38:
 689              	.L87:
 690              		.loc 1 537 80 discriminator 1 view .LVU233
 691 00e8 4378     		ldrb	r3, [r0, #1]	@ zero_extendqisi2
 692              		.loc 1 537 42 discriminator 1 view .LVU234
 693 00ea ADF80420 		strh	r2, [sp, #4]	@ movhi
 694              		.loc 1 537 71 is_stmt 1 discriminator 1 view .LVU235
 695              		.loc 1 537 80 is_stmt 0 discriminator 1 view .LVU236
 696 00ee 8DF80630 		strb	r3, [sp, #6]
 697              		.loc 1 574 3 is_stmt 1 discriminator 1 view .LVU237
 698 00f2 0198     		ldr	r0, [sp, #4]
 699              	.LVL39:
 700              		.loc 1 574 3 is_stmt 0 discriminator 1 view .LVU238
 701 00f4 00BA     		rev	r0, r0
 702 00f6 D1E7     		b	.L33
 703              	.LVL40:
 704              	.L93:
 705              	.LBB506:
 706              	.LBI506:
 707              		.file 6 "../../../os/oslib/include/chbsem.h"
 708              		.loc 6 211 21 is_stmt 1 view .LVU239
 709              	.LBB507:
 710              		.loc 6 214 3 view .LVU240
 711              		.loc 6 214 10 is_stmt 0 view .LVU241
 712 00f8 4C48     		ldr	r0, .L97+4
 713              	.LVL41:
 714              		.loc 6 214 10 view .LVU242
 715 00fa FFF7FEFF 		bl	chSemWaitTimeout
 716              	.LVL42:
 717              		.loc 6 214 10 view .LVU243
 718              	.LBE507:
 719              	.LBE506:
 720              		.loc 1 575 26 view .LVU244
 721 00fe 0546     		mov	r5, r0
 722 0100 0028     		cmp	r0, #0
 723 0102 C9D1     		bne	.L56
 724              	.LVL43:
 725              	.L57:
 726              		.loc 1 576 7 is_stmt 1 view .LVU245
 727              	.LBB508:
 728              	.LBI508:
 729              		.loc 1 157 20 view .LVU246
 730              	.LBB509:
 731              		.loc 1 158 3 view .LVU247
 732              		.loc 1 159 3 view .LVU248
 733              	.LBB510:
 734              	.LBI510:
 735              		.loc 2 573 20 view .LVU249
 736              		.loc 2 575 3 view .LVU250
 737              	.LBB511:
 738              	.LBI511:
 739              		.loc 3 407 20 view .LVU251
 740              		.loc 3 409 3 view .LVU252
 741              	.LBB512:
ARM GAS  C:\Users\DEVELO~1\AppData\Local\Temp\ccAozvLj.s 			page 14


 742              	.LBI512:
 743              		.loc 4 806 27 view .LVU253
 744              		.loc 4 814 3 view .LVU254
 745              	.LBB513:
 746              	.LBI513:
 747              		.loc 5 491 27 view .LVU255
 748              	.LBB514:
 749              		.loc 5 493 3 view .LVU256
 750              		.syntax unified
 751              	@ 493 "../../../os/common/ext/ARM/CMSIS/Core/Include/cmsis_gcc.h" 1
 752 0104 84F31188 		MSR basepri, r4
 753              	@ 0 "" 2
 754              	.LVL44:
 755              		.loc 5 493 3 is_stmt 0 view .LVU257
 756              		.thumb
 757              		.syntax unified
 758              	.LBE514:
 759              	.LBE513:
 760              	.LBE512:
 761              		.loc 3 410 35 is_stmt 1 view .LVU258
 762              		.loc 3 411 21 view .LVU259
 763              	.LBE511:
 764              	.LBE510:
 765              		.loc 1 160 3 view .LVU260
 766 0108 0423     		movs	r3, #4
 767 010a 0221     		movs	r1, #2
 768 010c 4848     		ldr	r0, .L97+8
 769 010e 0DEB0302 		add	r2, sp, r3
 770 0112 FFF7FEFF 		bl	usbStartTransmitI
 771              	.LVL45:
 772              		.loc 1 161 3 view .LVU261
 773              	.LBB515:
 774              	.LBI515:
 775              		.loc 2 584 20 view .LVU262
 776              		.loc 2 586 3 view .LVU263
 777              	.LBB516:
 778              	.LBI516:
 779              		.loc 3 421 20 view .LVU264
 780              	.LBB517:
 781              		.loc 3 423 23 view .LVU265
 782              		.loc 3 424 34 view .LVU266
 783              		.loc 3 430 3 view .LVU267
 784              		.loc 3 430 3 view .LVU268
 785              		.loc 3 430 3 view .LVU269
 786              		.loc 3 434 3 view .LVU270
 787              	.LBB518:
 788              	.LBI518:
 789              		.loc 4 830 27 view .LVU271
 790              		.loc 4 833 3 view .LVU272
 791              	.LBB519:
 792              	.LBI519:
 793              		.loc 5 491 27 view .LVU273
 794              	.LBB520:
 795              		.loc 5 493 3 view .LVU274
 796              		.syntax unified
 797              	@ 493 "../../../os/common/ext/ARM/CMSIS/Core/Include/cmsis_gcc.h" 1
 798 0116 85F31188 		MSR basepri, r5
ARM GAS  C:\Users\DEVELO~1\AppData\Local\Temp\ccAozvLj.s 			page 15


 799              	@ 0 "" 2
 800              	.LVL46:
 801              		.loc 5 493 3 is_stmt 0 view .LVU275
 802              		.thumb
 803              		.syntax unified
 804              	.LBE520:
 805              	.LBE519:
 806              	.LBE518:
 807              	.LBE517:
 808              	.LBE516:
 809              	.LBE515:
 810              	.LBE509:
 811              	.LBE508:
 812              		.loc 1 577 7 is_stmt 1 view .LVU276
 813              		.loc 1 577 20 is_stmt 0 view .LVU277
 814 011a 464A     		ldr	r2, .L97+12
 815 011c 1368     		ldr	r3, [r2]
 816              		.loc 1 577 38 view .LVU278
 817 011e 0133     		adds	r3, r3, #1
 818 0120 1360     		str	r3, [r2]
 819              		.loc 1 577 42 is_stmt 1 view .LVU279
 820 0122 BEE7     		b	.L27
 821              	.LVL47:
 822              	.L94:
 823              		.loc 1 529 42 discriminator 2 view .LVU280
 824              		.loc 1 529 51 is_stmt 0 discriminator 2 view .LVU281
 825 0124 0B24     		movs	r4, #11
 826 0126 93E7     		b	.L84
 827              	.L40:
 828              		.loc 1 536 8 is_stmt 1 view .LVU282
 829              		.loc 1 536 11 is_stmt 0 view .LVU283
 830 0128 F22A     		cmp	r2, #242
 831 012a C9D1     		bne	.L59
 832 012c 0229     		cmp	r1, #2
 833 012e C7D9     		bls	.L59
 834              		.loc 1 536 33 is_stmt 1 discriminator 1 view .LVU284
 835              		.loc 1 536 55 discriminator 1 view .LVU285
 836              		.loc 1 536 80 is_stmt 0 discriminator 1 view .LVU286
 837 0130 4278     		ldrb	r2, [r0, #1]	@ zero_extendqisi2
 838              	.LVL48:
 839              		.loc 1 536 42 discriminator 1 view .LVU287
 840 0132 4FF20321 		movw	r1, #61955
 841              	.LVL49:
 842              		.loc 1 536 98 discriminator 1 view .LVU288
 843 0136 8378     		ldrb	r3, [r0, #2]	@ zero_extendqisi2
 844              		.loc 1 536 42 discriminator 1 view .LVU289
 845 0138 ADF80410 		strh	r1, [sp, #4]	@ movhi
 846              		.loc 1 536 71 is_stmt 1 discriminator 1 view .LVU290
 847              		.loc 1 536 80 is_stmt 0 discriminator 1 view .LVU291
 848 013c 8DF80620 		strb	r2, [sp, #6]
 849              		.loc 1 536 89 is_stmt 1 discriminator 1 view .LVU292
 850              		.loc 1 536 98 is_stmt 0 discriminator 1 view .LVU293
 851 0140 8DF80730 		strb	r3, [sp, #7]
 852              		.loc 1 574 3 is_stmt 1 discriminator 1 view .LVU294
 853 0144 0198     		ldr	r0, [sp, #4]
 854              	.LVL50:
 855              		.loc 1 574 3 is_stmt 0 discriminator 1 view .LVU295
ARM GAS  C:\Users\DEVELO~1\AppData\Local\Temp\ccAozvLj.s 			page 16


 856 0146 00BA     		rev	r0, r0
 857 0148 A8E7     		b	.L33
 858              	.LVL51:
 859              	.L37:
 860              		.loc 1 538 8 is_stmt 1 view .LVU296
 861              		.loc 1 538 11 is_stmt 0 view .LVU297
 862 014a F62A     		cmp	r2, #246
 863 014c 05D1     		bne	.L45
 864              		.loc 1 538 32 is_stmt 1 discriminator 1 view .LVU298
 865              		.loc 1 538 54 discriminator 1 view .LVU299
 866              		.loc 1 538 41 is_stmt 0 discriminator 1 view .LVU300
 867 014e 4FF20F63 		movw	r3, #62991
 868 0152 3948     		ldr	r0, .L97+16
 869              	.LVL52:
 870              		.loc 1 538 41 discriminator 1 view .LVU301
 871 0154 ADF80430 		strh	r3, [sp, #4]	@ movhi
 872              		.loc 1 574 3 is_stmt 1 discriminator 1 view .LVU302
 873 0158 A0E7     		b	.L33
 874              	.LVL53:
 875              	.L45:
 876              		.loc 1 541 8 view .LVU303
 877              	.LBB521:
 878              		.loc 1 542 14 is_stmt 0 view .LVU304
 879 015a 0F23     		movs	r3, #15
 880              	.LBE521:
 881              		.loc 1 541 11 view .LVU305
 882 015c F72A     		cmp	r2, #247
 883              	.LBB579:
 884              		.loc 1 542 36 view .LVU306
 885 015e 8DF80520 		strb	r2, [sp, #5]
 886              		.loc 1 542 14 view .LVU307
 887 0162 8DF80430 		strb	r3, [sp, #4]
 888              	.LBE579:
 889              		.loc 1 541 11 view .LVU308
 890 0166 10D9     		bls	.L46
 891              	.LBB580:
 892              		.loc 1 542 5 is_stmt 1 view .LVU309
 893              		.loc 1 542 27 view .LVU310
 894              		.loc 1 544 5 view .LVU311
 895              		.loc 1 544 8 is_stmt 0 view .LVU312
 896 0168 F82A     		cmp	r2, #248
 897 016a 38D0     		beq	.L95
 898              		.loc 1 555 5 is_stmt 1 view .LVU313
 899              		.loc 1 555 30 is_stmt 0 view .LVU314
 900 016c 931D     		adds	r3, r2, #6
 901 016e DBB2     		uxtb	r3, r3
 902              		.loc 1 555 54 view .LVU315
 903 0170 022B     		cmp	r3, #2
 904 0172 13D9     		bls	.L60
 905 0174 FD2A     		cmp	r2, #253
 906 0176 94BF     		ite	ls
 907 0178 0021     		movls	r1, #0
 908              	.LVL54:
 909              		.loc 1 555 54 view .LVU316
 910 017a 0121     		movhi	r1, #1
 911 017c 71B9     		cbnz	r1, .L60
 912              		.loc 1 567 5 is_stmt 1 view .LVU317
ARM GAS  C:\Users\DEVELO~1\AppData\Local\Temp\ccAozvLj.s 			page 17


 913              	.LVL55:
 914              		.loc 1 568 5 view .LVU318
 915              		.loc 1 567 54 is_stmt 0 view .LVU319
 916 017e 1204     		lsls	r2, r2, #16
 917              	.LVL56:
 918              		.loc 1 568 5 view .LVU320
 919 0180 42F07060 		orr	r0, r2, #251658240
 920              	.LVL57:
 921              		.loc 1 568 5 view .LVU321
 922 0184 FFF7FEFF 		bl	post_mb_or_drop
 923              	.LVL58:
 924              		.loc 1 569 5 is_stmt 1 view .LVU322
 925 0188 8BE7     		b	.L27
 926              	.LVL59:
 927              	.L46:
 928              		.loc 1 569 5 is_stmt 0 view .LVU323
 929              	.LBE580:
 930              		.loc 1 572 10 is_stmt 1 view .LVU324
 931              		.loc 1 572 32 view .LVU325
 932              		.loc 1 572 58 view .LVU326
 933              		.loc 1 572 67 is_stmt 0 view .LVU327
 934 018a 0129     		cmp	r1, #1
 935 018c 25D0     		beq	.L55
 936              		.loc 1 572 67 discriminator 5 view .LVU328
 937 018e 4378     		ldrb	r3, [r0, #1]	@ zero_extendqisi2
 938              		.loc 1 572 93 discriminator 5 view .LVU329
 939 0190 0329     		cmp	r1, #3
 940              		.loc 1 572 67 discriminator 5 view .LVU330
 941 0192 8DF80630 		strb	r3, [sp, #6]
 942              		.loc 1 572 84 is_stmt 1 discriminator 5 view .LVU331
 943              		.loc 1 572 93 is_stmt 0 discriminator 5 view .LVU332
 944 0196 20D1     		bne	.L55
 945              		.loc 1 572 93 discriminator 9 view .LVU333
 946 0198 8378     		ldrb	r3, [r0, #2]	@ zero_extendqisi2
 947 019a 61E7     		b	.L85
 948              	.LVL60:
 949              	.L60:
 950              	.LBB581:
 951              		.loc 1 556 7 is_stmt 1 view .LVU334
 952              	.LBB522:
 953              	.LBI522:
 954              		.loc 1 42 20 view .LVU335
 955              	.LBB523:
 956              		.loc 1 43 3 view .LVU336
 957              		.loc 1 44 3 view .LVU337
 958              	.LBB524:
 959              	.LBI524:
 960              		.loc 2 573 20 view .LVU338
 961              		.loc 2 575 3 view .LVU339
 962              	.LBB525:
 963              	.LBI525:
 964              		.loc 3 407 20 view .LVU340
 965              		.loc 3 409 3 view .LVU341
 966              	.LBB526:
 967              	.LBI526:
 968              		.loc 4 806 27 view .LVU342
 969              		.loc 4 814 3 view .LVU343
ARM GAS  C:\Users\DEVELO~1\AppData\Local\Temp\ccAozvLj.s 			page 18


 970              	.LBB527:
 971              	.LBI527:
 972              		.loc 5 491 27 view .LVU344
 973              	.LBB528:
 974              		.loc 5 493 3 view .LVU345
 975 019c 3024     		movs	r4, #48
 976              		.syntax unified
 977              	@ 493 "../../../os/common/ext/ARM/CMSIS/Core/Include/cmsis_gcc.h" 1
 978 019e 84F31188 		MSR basepri, r4
 979              	@ 0 "" 2
 980              	.LVL61:
 981              		.loc 5 493 3 is_stmt 0 view .LVU346
 982              		.thumb
 983              		.syntax unified
 984              	.LBE528:
 985              	.LBE527:
 986              	.LBE526:
 987              		.loc 3 410 35 is_stmt 1 view .LVU347
 988              		.loc 3 411 21 view .LVU348
 989              	.LBE525:
 990              	.LBE524:
 991              		.loc 1 45 3 view .LVU349
 992              		.loc 1 45 9 is_stmt 0 view .LVU350
 993 01a2 214B     		ldr	r3, .L97
 994              	.LBB529:
 995              	.LBB530:
 996              	.LBB531:
 997              	.LBB532:
 998              	.LBB533:
 999              	.LBB534:
 1000              		.loc 5 493 3 view .LVU351
 1001 01a4 0021     		movs	r1, #0
 1002              	.LBE534:
 1003              	.LBE533:
 1004              	.LBE532:
 1005              	.LBE531:
 1006              	.LBE530:
 1007              	.LBE529:
 1008              		.loc 1 45 9 view .LVU352
 1009 01a6 1B78     		ldrb	r3, [r3]	@ zero_extendqisi2
 1010 01a8 DBB2     		uxtb	r3, r3
 1011              	.LVL62:
 1012              		.loc 1 46 3 is_stmt 1 view .LVU353
 1013              	.LBB540:
 1014              	.LBI529:
 1015              		.loc 2 584 20 view .LVU354
 1016              		.loc 2 586 3 view .LVU355
 1017              	.LBB539:
 1018              	.LBI530:
 1019              		.loc 3 421 20 view .LVU356
 1020              	.LBB538:
 1021              		.loc 3 423 23 view .LVU357
 1022              		.loc 3 424 34 view .LVU358
 1023              		.loc 3 430 3 view .LVU359
 1024              		.loc 3 430 3 view .LVU360
 1025              		.loc 3 430 3 view .LVU361
 1026              		.loc 3 434 3 view .LVU362
ARM GAS  C:\Users\DEVELO~1\AppData\Local\Temp\ccAozvLj.s 			page 19


 1027              	.LBB537:
 1028              	.LBI532:
 1029              		.loc 4 830 27 view .LVU363
 1030              		.loc 4 833 3 view .LVU364
 1031              	.LBB536:
 1032              	.LBI533:
 1033              		.loc 5 491 27 view .LVU365
 1034              	.LBB535:
 1035              		.loc 5 493 3 view .LVU366
 1036              		.syntax unified
 1037              	@ 493 "../../../os/common/ext/ARM/CMSIS/Core/Include/cmsis_gcc.h" 1
 1038 01aa 81F31188 		MSR basepri, r1
 1039              	@ 0 "" 2
 1040              	.LVL63:
 1041              		.loc 5 493 3 is_stmt 0 view .LVU367
 1042              		.thumb
 1043              		.syntax unified
 1044              	.LBE535:
 1045              	.LBE536:
 1046              	.LBE537:
 1047              	.LBE538:
 1048              	.LBE539:
 1049              	.LBE540:
 1050              		.loc 1 47 3 is_stmt 1 view .LVU368
 1051              		.loc 1 47 3 is_stmt 0 view .LVU369
 1052              	.LBE523:
 1053              	.LBE522:
 1054              		.loc 1 556 10 view .LVU370
 1055 01ae 2BB1     		cbz	r3, .L52
 1056              	.LVL64:
 1057              	.LBB541:
 1058              	.LBI541:
 1059              		.loc 6 211 21 is_stmt 1 view .LVU371
 1060              	.LBB542:
 1061              		.loc 6 214 3 view .LVU372
 1062              		.loc 6 214 10 is_stmt 0 view .LVU373
 1063 01b0 1E48     		ldr	r0, .L97+4
 1064              	.LVL65:
 1065              		.loc 6 214 10 view .LVU374
 1066 01b2 FFF7FEFF 		bl	chSemWaitTimeout
 1067              	.LVL66:
 1068              		.loc 6 214 10 view .LVU375
 1069              	.LBE542:
 1070              	.LBE541:
 1071              		.loc 1 556 28 view .LVU376
 1072 01b6 0546     		mov	r5, r0
 1073 01b8 0028     		cmp	r0, #0
 1074 01ba A3D0     		beq	.L57
 1075              	.L52:
 1076              	.LBB543:
 1077              		.loc 1 560 9 is_stmt 1 view .LVU377
 1078              		.loc 1 560 22 is_stmt 0 view .LVU378
 1079 01bc 1D4A     		ldr	r2, .L97+12
 1080              		.loc 1 562 9 view .LVU379
 1081 01be 0121     		movs	r1, #1
 1082 01c0 0198     		ldr	r0, [sp, #4]
 1083              		.loc 1 560 22 view .LVU380
ARM GAS  C:\Users\DEVELO~1\AppData\Local\Temp\ccAozvLj.s 			page 20


 1084 01c2 1369     		ldr	r3, [r2, #16]
 1085              		.loc 1 562 9 view .LVU381
 1086 01c4 00BA     		rev	r0, r0
 1087              		.loc 1 560 44 view .LVU382
 1088 01c6 0B44     		add	r3, r3, r1
 1089 01c8 1361     		str	r3, [r2, #16]
 1090              		.loc 1 561 9 is_stmt 1 view .LVU383
 1091              	.LVL67:
 1092              		.loc 1 562 9 view .LVU384
 1093 01ca FFF7FEFF 		bl	post_mb_or_drop
 1094              	.LVL68:
 1095              		.loc 1 562 9 is_stmt 0 view .LVU385
 1096 01ce 68E7     		b	.L27
 1097              	.LVL69:
 1098              	.L39:
 1099              		.loc 1 562 9 view .LVU386
 1100              	.LBE543:
 1101              	.LBE581:
 1102              		.loc 1 537 8 is_stmt 1 view .LVU387
 1103              		.loc 1 538 8 view .LVU388
 1104              		.loc 1 572 10 view .LVU389
 1105              		.loc 1 572 19 is_stmt 0 view .LVU390
 1106 01d0 0F23     		movs	r3, #15
 1107              		.loc 1 572 41 view .LVU391
 1108 01d2 8DF80520 		strb	r2, [sp, #5]
 1109              		.loc 1 572 19 view .LVU392
 1110 01d6 8DF80430 		strb	r3, [sp, #4]
 1111              		.loc 1 572 32 is_stmt 1 view .LVU393
 1112              		.loc 1 572 58 view .LVU394
 1113              	.L55:
 1114              		.loc 1 572 93 is_stmt 0 view .LVU395
 1115 01da 0023     		movs	r3, #0
 1116 01dc 40E7     		b	.L85
 1117              	.L95:
 1118              	.LBB582:
 1119              		.loc 1 545 7 is_stmt 1 view .LVU396
 1120              	.LBB544:
 1121              	.LBI544:
 1122              		.loc 1 42 20 view .LVU397
 1123              	.LBB545:
 1124              		.loc 1 43 3 view .LVU398
 1125              		.loc 1 44 3 view .LVU399
 1126              	.LBB546:
 1127              	.LBI546:
 1128              		.loc 2 573 20 view .LVU400
 1129              		.loc 2 575 3 view .LVU401
 1130              	.LBB547:
 1131              	.LBI547:
 1132              		.loc 3 407 20 view .LVU402
 1133              		.loc 3 409 3 view .LVU403
 1134              	.LBB548:
 1135              	.LBI548:
 1136              		.loc 4 806 27 view .LVU404
 1137              		.loc 4 814 3 view .LVU405
 1138              	.LVL70:
 1139              	.LBB549:
 1140              	.LBI549:
ARM GAS  C:\Users\DEVELO~1\AppData\Local\Temp\ccAozvLj.s 			page 21


 1141              		.loc 5 491 27 view .LVU406
 1142              	.LBB550:
 1143              		.loc 5 493 3 view .LVU407
 1144 01de 3025     		movs	r5, #48
 1145              		.syntax unified
 1146              	@ 493 "../../../os/common/ext/ARM/CMSIS/Core/Include/cmsis_gcc.h" 1
 1147 01e0 85F31188 		MSR basepri, r5
 1148              	@ 0 "" 2
 1149              	.LVL71:
 1150              		.loc 5 493 3 is_stmt 0 view .LVU408
 1151              		.thumb
 1152              		.syntax unified
 1153              	.LBE550:
 1154              	.LBE549:
 1155              	.LBE548:
 1156              		.loc 3 410 35 is_stmt 1 view .LVU409
 1157              		.loc 3 411 21 view .LVU410
 1158              	.LBE547:
 1159              	.LBE546:
 1160              		.loc 1 45 3 view .LVU411
 1161              		.loc 1 45 9 is_stmt 0 view .LVU412
 1162 01e4 104B     		ldr	r3, .L97
 1163              	.LBB551:
 1164              	.LBB552:
 1165              	.LBB553:
 1166              	.LBB554:
 1167              	.LBB555:
 1168              	.LBB556:
 1169              		.loc 5 493 3 view .LVU413
 1170 01e6 0021     		movs	r1, #0
 1171              	.LVL72:
 1172              		.loc 5 493 3 view .LVU414
 1173              	.LBE556:
 1174              	.LBE555:
 1175              	.LBE554:
 1176              	.LBE553:
 1177              	.LBE552:
 1178              	.LBE551:
 1179              		.loc 1 45 9 view .LVU415
 1180 01e8 1B78     		ldrb	r3, [r3]	@ zero_extendqisi2
 1181 01ea DBB2     		uxtb	r3, r3
 1182              	.LVL73:
 1183              		.loc 1 46 3 is_stmt 1 view .LVU416
 1184              	.LBB562:
 1185              	.LBI551:
 1186              		.loc 2 584 20 view .LVU417
 1187              		.loc 2 586 3 view .LVU418
 1188              	.LBB561:
 1189              	.LBI552:
 1190              		.loc 3 421 20 view .LVU419
 1191              	.LBB560:
 1192              		.loc 3 423 23 view .LVU420
 1193              		.loc 3 424 34 view .LVU421
 1194              		.loc 3 430 3 view .LVU422
 1195              		.loc 3 430 3 view .LVU423
 1196              		.loc 3 430 3 view .LVU424
 1197              		.loc 3 434 3 view .LVU425
ARM GAS  C:\Users\DEVELO~1\AppData\Local\Temp\ccAozvLj.s 			page 22


 1198              	.LBB559:
 1199              	.LBI554:
 1200              		.loc 4 830 27 view .LVU426
 1201              		.loc 4 833 3 view .LVU427
 1202              	.LBB558:
 1203              	.LBI555:
 1204              		.loc 5 491 27 view .LVU428
 1205              	.LBB557:
 1206              		.loc 5 493 3 view .LVU429
 1207              		.syntax unified
 1208              	@ 493 "../../../os/common/ext/ARM/CMSIS/Core/Include/cmsis_gcc.h" 1
 1209 01ec 81F31188 		MSR basepri, r1
 1210              	@ 0 "" 2
 1211              	.LVL74:
 1212              		.loc 5 493 3 is_stmt 0 view .LVU430
 1213              		.thumb
 1214              		.syntax unified
 1215              	.LBE557:
 1216              	.LBE558:
 1217              	.LBE559:
 1218              	.LBE560:
 1219              	.LBE561:
 1220              	.LBE562:
 1221              		.loc 1 47 3 is_stmt 1 view .LVU431
 1222              		.loc 1 47 3 is_stmt 0 view .LVU432
 1223              	.LBE545:
 1224              	.LBE544:
 1225              		.loc 1 545 10 view .LVU433
 1226 01f0 23B1     		cbz	r3, .L48
 1227              	.LVL75:
 1228              	.LBB563:
 1229              	.LBI563:
 1230              		.loc 6 211 21 is_stmt 1 view .LVU434
 1231              	.LBB564:
 1232              		.loc 6 214 3 view .LVU435
 1233              		.loc 6 214 10 is_stmt 0 view .LVU436
 1234 01f2 0E48     		ldr	r0, .L97+4
 1235              	.LVL76:
 1236              		.loc 6 214 10 view .LVU437
 1237 01f4 FFF7FEFF 		bl	chSemWaitTimeout
 1238              	.LVL77:
 1239              		.loc 6 214 10 view .LVU438
 1240              	.LBE564:
 1241              	.LBE563:
 1242              		.loc 1 545 28 view .LVU439
 1243 01f8 0446     		mov	r4, r0
 1244 01fa 28B1     		cbz	r0, .L96
 1245              	.L48:
 1246              	.LBB565:
 1247              		.loc 1 549 9 is_stmt 1 view .LVU440
 1248              	.LVL78:
 1249              		.loc 1 550 9 view .LVU441
 1250 01fc 0198     		ldr	r0, [sp, #4]
 1251 01fe 0021     		movs	r1, #0
 1252 0200 00BA     		rev	r0, r0
 1253 0202 FFF7FEFF 		bl	post_mb_or_drop
 1254              	.LVL79:
ARM GAS  C:\Users\DEVELO~1\AppData\Local\Temp\ccAozvLj.s 			page 23


 1255              		.loc 1 550 9 is_stmt 0 view .LVU442
 1256 0206 4CE7     		b	.L27
 1257              	.L96:
 1258              		.loc 1 550 9 view .LVU443
 1259              	.LBE565:
 1260              		.loc 1 546 9 is_stmt 1 view .LVU444
 1261              	.LVL80:
 1262              	.LBB566:
 1263              	.LBI566:
 1264              		.loc 1 157 20 view .LVU445
 1265              	.LBB567:
 1266              		.loc 1 158 3 view .LVU446
 1267              		.loc 1 159 3 view .LVU447
 1268              	.LBB568:
 1269              	.LBI568:
 1270              		.loc 2 573 20 view .LVU448
 1271              		.loc 2 575 3 view .LVU449
 1272              	.LBB569:
 1273              	.LBI569:
 1274              		.loc 3 407 20 view .LVU450
 1275              		.loc 3 409 3 view .LVU451
 1276              	.LBB570:
 1277              	.LBI570:
 1278              		.loc 4 806 27 view .LVU452
 1279              		.loc 4 814 3 view .LVU453
 1280              	.LBB571:
 1281              	.LBI571:
 1282              		.loc 5 491 27 view .LVU454
 1283              	.LBB572:
 1284              		.loc 5 493 3 view .LVU455
 1285              		.syntax unified
 1286              	@ 493 "../../../os/common/ext/ARM/CMSIS/Core/Include/cmsis_gcc.h" 1
 1287 0208 85F31188 		MSR basepri, r5
 1288              	@ 0 "" 2
 1289              	.LVL81:
 1290              		.loc 5 493 3 is_stmt 0 view .LVU456
 1291              		.thumb
 1292              		.syntax unified
 1293              	.LBE572:
 1294              	.LBE571:
 1295              	.LBE570:
 1296              		.loc 3 410 35 is_stmt 1 view .LVU457
 1297              		.loc 3 411 21 view .LVU458
 1298              	.LBE569:
 1299              	.LBE568:
 1300              		.loc 1 160 3 view .LVU459
 1301 020c 0423     		movs	r3, #4
 1302 020e 0221     		movs	r1, #2
 1303 0210 0748     		ldr	r0, .L97+8
 1304 0212 0DEB0302 		add	r2, sp, r3
 1305 0216 FFF7FEFF 		bl	usbStartTransmitI
 1306              	.LVL82:
 1307              		.loc 1 161 3 view .LVU460
 1308              	.LBB573:
 1309              	.LBI573:
 1310              		.loc 2 584 20 view .LVU461
 1311              		.loc 2 586 3 view .LVU462
ARM GAS  C:\Users\DEVELO~1\AppData\Local\Temp\ccAozvLj.s 			page 24


 1312              	.LBB574:
 1313              	.LBI574:
 1314              		.loc 3 421 20 view .LVU463
 1315              	.LBB575:
 1316              		.loc 3 423 23 view .LVU464
 1317              		.loc 3 424 34 view .LVU465
 1318              		.loc 3 430 3 view .LVU466
 1319              		.loc 3 430 3 view .LVU467
 1320              		.loc 3 430 3 view .LVU468
 1321              		.loc 3 434 3 view .LVU469
 1322              	.LBB576:
 1323              	.LBI576:
 1324              		.loc 4 830 27 view .LVU470
 1325              		.loc 4 833 3 view .LVU471
 1326              	.LBB577:
 1327              	.LBI577:
 1328              		.loc 5 491 27 view .LVU472
 1329              	.LBB578:
 1330              		.loc 5 493 3 view .LVU473
 1331              		.syntax unified
 1332              	@ 493 "../../../os/common/ext/ARM/CMSIS/Core/Include/cmsis_gcc.h" 1
 1333 021a 84F31188 		MSR basepri, r4
 1334              	@ 0 "" 2
 1335              	.LVL83:
 1336              		.loc 5 493 3 is_stmt 0 view .LVU474
 1337              		.thumb
 1338              		.syntax unified
 1339              	.LBE578:
 1340              	.LBE577:
 1341              	.LBE576:
 1342              	.LBE575:
 1343              	.LBE574:
 1344              	.LBE573:
 1345              	.LBE567:
 1346              	.LBE566:
 1347              		.loc 1 547 9 is_stmt 1 view .LVU475
 1348              		.loc 1 547 22 is_stmt 0 view .LVU476
 1349 021e 054A     		ldr	r2, .L97+12
 1350 0220 1368     		ldr	r3, [r2]
 1351              		.loc 1 547 40 view .LVU477
 1352 0222 0133     		adds	r3, r3, #1
 1353 0224 1360     		str	r3, [r2]
 1354 0226 3CE7     		b	.L27
 1355              	.L98:
 1356              		.align	2
 1357              	.L97:
 1358 0228 00000000 		.word	usb_midi_tx_ready
 1359 022c 00000000 		.word	.LANCHOR4
 1360 0230 00000000 		.word	USBD1
 1361 0234 00000000 		.word	.LANCHOR2
 1362 0238 0000F60F 		.word	267780096
 1363              	.LBE582:
 1364              		.cfi_endproc
 1365              	.LFE448:
 1366              		.size	send_usb, .-send_usb
 1367              		.section	.text.midi_send,"ax",%progbits
 1368              		.align	1
ARM GAS  C:\Users\DEVELO~1\AppData\Local\Temp\ccAozvLj.s 			page 25


 1369              		.p2align 4,,15
 1370              		.syntax unified
 1371              		.thumb
 1372              		.thumb_func
 1373              		.type	midi_send, %function
 1374              	midi_send:
 1375              	.LVL84:
 1376              	.LFB449:
 1377              		.loc 1 595 65 is_stmt 1 view -0
 1378              		.cfi_startproc
 1379              		@ args = 0, pretend = 0, frame = 0
 1380              		@ frame_needed = 0, uses_anonymous_args = 0
 1381              		.loc 1 596 3 is_stmt 0 view .LVU479
 1382 0000 0228     		cmp	r0, #2
 1383              		.loc 1 595 65 view .LVU480
 1384 0002 70B5     		push	{r4, r5, r6, lr}
 1385              		.cfi_def_cfa_offset 16
 1386              		.cfi_offset 4, -16
 1387              		.cfi_offset 5, -12
 1388              		.cfi_offset 6, -8
 1389              		.cfi_offset 14, -4
 1390              		.loc 1 595 65 view .LVU481
 1391 0004 0C46     		mov	r4, r1
 1392              		.loc 1 596 3 is_stmt 1 view .LVU482
 1393              		.loc 1 595 65 is_stmt 0 view .LVU483
 1394 0006 1546     		mov	r5, r2
 1395              		.loc 1 596 3 view .LVU484
 1396 0008 09D0     		beq	.L104
 1397 000a 0328     		cmp	r0, #3
 1398 000c 02D0     		beq	.L101
 1399 000e 0128     		cmp	r0, #1
 1400 0010 0BD0     		beq	.L105
 1401              		.loc 1 602 1 view .LVU485
 1402 0012 70BD     		pop	{r4, r5, r6, pc}
 1403              	.L101:
 1404              	.LVL85:
 1405              	.LBB593:
 1406              	.LBI593:
 1407              		.loc 1 595 13 is_stmt 1 view .LVU486
 1408              	.LBB594:
 1409              		.loc 1 599 26 view .LVU487
 1410              	.LBB595:
 1411              	.LBI595:
 1412              		.loc 1 368 13 view .LVU488
 1413              	.LBB596:
 1414              		.loc 1 368 57 view .LVU489
 1415 0014 4FF0FF33 		mov	r3, #-1
 1416 0018 0748     		ldr	r0, .L106
 1417              	.LVL86:
 1418              		.loc 1 368 57 is_stmt 0 view .LVU490
 1419 001a FFF7FEFF 		bl	oqWriteTimeout
 1420              	.LVL87:
 1421              	.L104:
 1422              		.loc 1 368 57 view .LVU491
 1423              	.LBE596:
 1424              	.LBE595:
 1425              		.loc 1 599 42 is_stmt 1 view .LVU492
ARM GAS  C:\Users\DEVELO~1\AppData\Local\Temp\ccAozvLj.s 			page 26


 1426 001e 2946     		mov	r1, r5
 1427 0020 2046     		mov	r0, r4
 1428              	.LBE594:
 1429              	.LBE593:
 1430              		.loc 1 602 1 is_stmt 0 view .LVU493
 1431 0022 BDE87040 		pop	{r4, r5, r6, lr}
 1432              		.cfi_remember_state
 1433              		.cfi_restore 14
 1434              		.cfi_restore 6
 1435              		.cfi_restore 5
 1436              		.cfi_restore 4
 1437              		.cfi_def_cfa_offset 0
 1438              	.LVL88:
 1439              	.LBB598:
 1440              	.LBB597:
 1441              		.loc 1 599 42 view .LVU494
 1442 0026 FFF7FEBF 		b	send_usb
 1443              	.LVL89:
 1444              	.L105:
 1445              		.cfi_restore_state
 1446              		.loc 1 599 42 view .LVU495
 1447              	.LBE597:
 1448              	.LBE598:
 1449              		.loc 1 597 26 is_stmt 1 view .LVU496
 1450              	.LBB599:
 1451              	.LBI599:
 1452              		.loc 1 368 13 view .LVU497
 1453              	.LBB600:
 1454              		.loc 1 368 57 view .LVU498
 1455 002a 4FF0FF33 		mov	r3, #-1
 1456 002e 0248     		ldr	r0, .L106
 1457              	.LVL90:
 1458              		.loc 1 368 57 is_stmt 0 view .LVU499
 1459              	.LBE600:
 1460              	.LBE599:
 1461              		.loc 1 602 1 view .LVU500
 1462 0030 BDE87040 		pop	{r4, r5, r6, lr}
 1463              		.cfi_restore 14
 1464              		.cfi_restore 6
 1465              		.cfi_restore 5
 1466              		.cfi_restore 4
 1467              		.cfi_def_cfa_offset 0
 1468              	.LBB602:
 1469              	.LBB601:
 1470              		.loc 1 368 57 view .LVU501
 1471 0034 FFF7FEBF 		b	oqWriteTimeout
 1472              	.LVL91:
 1473              	.L107:
 1474              		.loc 1 368 57 view .LVU502
 1475              		.align	2
 1476              	.L106:
 1477 0038 30000000 		.word	SD3+48
 1478              	.LBE601:
 1479              	.LBE602:
 1480              		.cfi_endproc
 1481              	.LFE449:
 1482              		.size	midi_send, .-midi_send
ARM GAS  C:\Users\DEVELO~1\AppData\Local\Temp\ccAozvLj.s 			page 27


 1483              		.section	.text.midi_internal_receive,"ax",%progbits
 1484              		.align	1
 1485              		.p2align 4,,15
 1486              		.weak	midi_internal_receive
 1487              		.syntax unified
 1488              		.thumb
 1489              		.thumb_func
 1490              		.type	midi_internal_receive, %function
 1491              	midi_internal_receive:
 1492              	.LVL92:
 1493              	.LFB433:
 1494              		.loc 1 65 82 is_stmt 1 view -0
 1495              		.cfi_startproc
 1496              		@ args = 0, pretend = 0, frame = 0
 1497              		@ frame_needed = 0, uses_anonymous_args = 0
 1498              		@ link register save eliminated.
 1499              		.loc 1 66 3 view .LVU504
 1500              		.loc 1 66 14 view .LVU505
 1501              		.loc 1 67 1 is_stmt 0 view .LVU506
 1502 0000 7047     		bx	lr
 1503              		.cfi_endproc
 1504              	.LFE433:
 1505              		.size	midi_internal_receive, .-midi_internal_receive
 1506              		.section	.rodata.thdMidiUsbTx.str1.4,"aMS",%progbits,1
 1507              		.align	2
 1508              	.LC0:
 1509 0000 4D494449 		.ascii	"MIDI_USB_TX\000"
 1509      5F555342 
 1509      5F545800 
 1510              		.section	.text.thdMidiUsbTx,"ax",%progbits
 1511              		.align	1
 1512              		.p2align 4,,15
 1513              		.syntax unified
 1514              		.thumb
 1515              		.thumb_func
 1516              		.type	thdMidiUsbTx, %function
 1517              	thdMidiUsbTx:
 1518              	.LVL93:
 1519              	.LFB440:
 1520              		.loc 1 256 40 is_stmt 1 view -0
 1521              		.cfi_startproc
 1522              		@ args = 0, pretend = 0, frame = 72
 1523              		@ frame_needed = 0, uses_anonymous_args = 0
 1524              		.loc 1 257 3 view .LVU508
 1525              		.loc 1 259 3 view .LVU509
 1526              	.LBB703:
 1527              	.LBI703:
 1528              		.file 7 "../../../os/rt/include/chregistry.h"
 1529              		.loc 7 165 20 view .LVU510
 1530              	.LBB704:
 1531              		.loc 7 168 3 view .LVU511
 1532 0000 834B     		ldr	r3, .L151
 1533              		.loc 7 168 32 is_stmt 0 view .LVU512
 1534 0002 844A     		ldr	r2, .L151+4
 1535 0004 DB68     		ldr	r3, [r3, #12]
 1536              	.LBE704:
 1537              	.LBE703:
ARM GAS  C:\Users\DEVELO~1\AppData\Local\Temp\ccAozvLj.s 			page 28


 1538              		.loc 1 256 40 view .LVU513
 1539 0006 2DE9F04F 		push	{r4, r5, r6, r7, r8, r9, r10, fp, lr}
 1540              		.cfi_def_cfa_offset 36
 1541              		.cfi_offset 4, -36
 1542              		.cfi_offset 5, -32
 1543              		.cfi_offset 6, -28
 1544              		.cfi_offset 7, -24
 1545              		.cfi_offset 8, -20
 1546              		.cfi_offset 9, -16
 1547              		.cfi_offset 10, -12
 1548              		.cfi_offset 11, -8
 1549              		.cfi_offset 14, -4
 1550              		.loc 1 262 10 view .LVU514
 1551 000a 4FF00009 		mov	r9, #0
 1552              		.loc 1 256 40 view .LVU515
 1553 000e 93B0     		sub	sp, sp, #76
 1554              		.cfi_def_cfa_offset 112
 1555 0010 814E     		ldr	r6, .L151+8
 1556 0012 DFF808A2 		ldr	r10, .L151+12
 1557 0016 824D     		ldr	r5, .L151+16
 1558              	.LBB706:
 1559              	.LBB707:
 1560              	.LBB708:
 1561              		.loc 1 477 11 view .LVU516
 1562 0018 DFF80882 		ldr	r8, .L151+20
 1563              	.LBE708:
 1564              	.LBE707:
 1565              	.LBE706:
 1566              	.LBB843:
 1567              	.LBB705:
 1568              		.loc 7 168 32 view .LVU517
 1569 001c DA61     		str	r2, [r3, #28]
 1570              	.LVL94:
 1571              		.loc 7 168 32 view .LVU518
 1572              	.LBE705:
 1573              	.LBE843:
 1574              		.loc 1 261 3 is_stmt 1 view .LVU519
 1575              		.loc 1 262 3 view .LVU520
 1576              	.L129:
 1577              		.loc 1 264 3 view .LVU521
 1578              	.LBB844:
 1579              		.loc 1 265 5 view .LVU522
 1580              	.LBB749:
 1581              	.LBI707:
 1582              		.loc 1 471 13 view .LVU523
 1583              	.LBB747:
 1584              		.loc 1 472 3 view .LVU524
 1585              		.loc 1 473 3 view .LVU525
 1586              		.loc 1 474 3 view .LVU526
 1587              		.loc 1 476 3 view .LVU527
 1588              		.loc 1 476 34 view .LVU528
 1589              	.LBB709:
 1590              	.LBB710:
 1591              	.LBB711:
 1592              		.loc 1 437 20 is_stmt 0 view .LVU529
 1593 001e 1024     		movs	r4, #16
 1594              	.LBE711:
ARM GAS  C:\Users\DEVELO~1\AppData\Local\Temp\ccAozvLj.s 			page 29


 1595              	.LBE710:
 1596              	.LBE709:
 1597              		.loc 1 477 11 view .LVU530
 1598 0020 0027     		movs	r7, #0
 1599 0022 0DE0     		b	.L110
 1600              	.LVL95:
 1601              	.L146:
 1602              	.LBB741:
 1603              	.LBB717:
 1604              	.LBB712:
 1605              		.loc 1 408 3 view .LVU531
 1606 0024 43F20403 		movw	r3, #12292
 1607 0028 1A42     		tst	r2, r3
 1608 002a 40F08C80 		bne	.L113
 1609 002e 0F28     		cmp	r0, #15
 1610 0030 00F09180 		beq	.L145
 1611              	.L115:
 1612              	.LVL96:
 1613              		.loc 1 408 3 view .LVU532
 1614              	.LBE712:
 1615              	.LBE717:
 1616              		.loc 1 493 7 is_stmt 1 view .LVU533
 1617              		.loc 1 496 5 view .LVU534
 1618              		.loc 1 496 5 is_stmt 0 view .LVU535
 1619              	.LBE741:
 1620              		.loc 1 476 34 is_stmt 1 view .LVU536
 1621              	.LBB742:
 1622              		.loc 1 493 20 is_stmt 0 view .LVU537
 1623 0034 EB68     		ldr	r3, [r5, #12]
 1624              	.LBE742:
 1625              		.loc 1 476 34 view .LVU538
 1626 0036 013C     		subs	r4, r4, #1
 1627              	.LVL97:
 1628              	.LBB743:
 1629              		.loc 1 493 35 view .LVU539
 1630 0038 03F10103 		add	r3, r3, #1
 1631 003c EB60     		str	r3, [r5, #12]
 1632              	.LBE743:
 1633              		.loc 1 476 34 view .LVU540
 1634 003e 35D0     		beq	.L122
 1635              	.LVL98:
 1636              	.L110:
 1637              		.loc 1 477 11 view .LVU541
 1638 0040 0022     		movs	r2, #0
 1639 0042 6946     		mov	r1, sp
 1640 0044 4046     		mov	r0, r8
 1641 0046 FFF7FEFF 		bl	chMBFetchTimeout
 1642              	.LVL99:
 1643              		.loc 1 476 34 view .LVU542
 1644 004a 78BB     		cbnz	r0, .L122
 1645              	.LBB744:
 1646              		.loc 1 478 5 is_stmt 1 view .LVU543
 1647              	.LBB718:
 1648              	.LBI718:
 1649              		.loc 2 573 20 view .LVU544
 1650              		.loc 2 575 3 view .LVU545
 1651              	.LBB719:
ARM GAS  C:\Users\DEVELO~1\AppData\Local\Temp\ccAozvLj.s 			page 30


 1652              	.LBI719:
 1653              		.loc 3 407 20 view .LVU546
 1654              		.loc 3 409 3 view .LVU547
 1655              	.LBB720:
 1656              	.LBI720:
 1657              		.loc 4 806 27 view .LVU548
 1658              		.loc 4 814 3 view .LVU549
 1659              	.LVL100:
 1660              	.LBB721:
 1661              	.LBI721:
 1662              		.loc 5 491 27 view .LVU550
 1663              	.LBB722:
 1664              		.loc 5 493 3 view .LVU551
 1665 004c 3023     		movs	r3, #48
 1666              		.syntax unified
 1667              	@ 493 "../../../os/common/ext/ARM/CMSIS/Core/Include/cmsis_gcc.h" 1
 1668 004e 83F31188 		MSR basepri, r3
 1669              	@ 0 "" 2
 1670              	.LVL101:
 1671              		.loc 5 493 3 is_stmt 0 view .LVU552
 1672              		.thumb
 1673              		.syntax unified
 1674              	.LBE722:
 1675              	.LBE721:
 1676              	.LBE720:
 1677              		.loc 3 410 35 is_stmt 1 view .LVU553
 1678              		.loc 3 411 21 view .LVU554
 1679              	.LBE719:
 1680              	.LBE718:
 1681              		.loc 1 479 5 view .LVU555
 1682              	.LBB723:
 1683              	.LBI723:
 1684              		.loc 1 150 20 view .LVU556
 1685              	.LBB724:
 1686              		.loc 1 152 3 view .LVU557
 1687              		.loc 1 152 30 is_stmt 0 view .LVU558
 1688 0052 3388     		ldrh	r3, [r6]
 1689              		.loc 1 152 6 view .LVU559
 1690 0054 0BB1     		cbz	r3, .L111
 1691              		.loc 1 153 5 is_stmt 1 view .LVU560
 1692              		.loc 1 153 27 is_stmt 0 view .LVU561
 1693 0056 013B     		subs	r3, r3, #1
 1694 0058 3380     		strh	r3, [r6]	@ movhi
 1695              	.L111:
 1696              	.LBE724:
 1697              	.LBE723:
 1698              		.loc 1 480 5 is_stmt 1 view .LVU562
 1699              	.LBB725:
 1700              	.LBI725:
 1701              		.loc 2 584 20 view .LVU563
 1702              		.loc 2 586 3 view .LVU564
 1703              	.LBB726:
 1704              	.LBI726:
 1705              		.loc 3 421 20 view .LVU565
 1706              	.LBB727:
 1707              		.loc 3 423 23 view .LVU566
 1708              		.loc 3 424 34 view .LVU567
ARM GAS  C:\Users\DEVELO~1\AppData\Local\Temp\ccAozvLj.s 			page 31


 1709              		.loc 3 430 3 view .LVU568
 1710              		.loc 3 430 3 view .LVU569
 1711              		.loc 3 430 3 view .LVU570
 1712              		.loc 3 434 3 view .LVU571
 1713              	.LBB728:
 1714              	.LBI728:
 1715              		.loc 4 830 27 view .LVU572
 1716              		.loc 4 833 3 view .LVU573
 1717              	.LVL102:
 1718              	.LBB729:
 1719              	.LBI729:
 1720              		.loc 5 491 27 view .LVU574
 1721              	.LBB730:
 1722              		.loc 5 493 3 view .LVU575
 1723              		.syntax unified
 1724              	@ 493 "../../../os/common/ext/ARM/CMSIS/Core/Include/cmsis_gcc.h" 1
 1725 005a 87F31188 		MSR basepri, r7
 1726              	@ 0 "" 2
 1727              	.LVL103:
 1728              		.loc 5 493 3 is_stmt 0 view .LVU576
 1729              		.thumb
 1730              		.syntax unified
 1731              	.LBE730:
 1732              	.LBE729:
 1733              	.LBE728:
 1734              	.LBE727:
 1735              	.LBE726:
 1736              	.LBE725:
 1737              		.loc 1 482 5 is_stmt 1 view .LVU577
 1738              		.loc 1 483 5 view .LVU578
 1739              		.loc 1 483 29 is_stmt 0 view .LVU579
 1740 005e 009B     		ldr	r3, [sp]
 1741              		.loc 1 484 5 is_stmt 1 view .LVU580
 1742 0060 0121     		movs	r1, #1
 1743              	.LBB731:
 1744              	.LBB713:
 1745              		.loc 1 408 3 is_stmt 0 view .LVU581
 1746 0062 44F6087C 		movw	ip, #20232
 1747              		.loc 1 406 17 view .LVU582
 1748 0066 C3F30360 		ubfx	r0, r3, #24, #4
 1749              	.LBE713:
 1750              	.LBE731:
 1751              		.loc 1 484 14 view .LVU583
 1752 006a C3F3074E 		ubfx	lr, r3, #16, #8
 1753              		.loc 1 485 5 is_stmt 1 view .LVU584
 1754              		.loc 1 485 14 is_stmt 0 view .LVU585
 1755 006e C3F3072B 		ubfx	fp, r3, #8, #8
 1756              		.loc 1 486 5 is_stmt 1 view .LVU586
 1757              		.loc 1 488 5 view .LVU587
 1758              		.loc 1 489 5 view .LVU588
 1759              	.LVL104:
 1760              	.LBB732:
 1761              	.LBI710:
 1762              		.loc 1 401 13 view .LVU589
 1763              	.LBB714:
 1764              		.loc 1 402 3 view .LVU590
 1765              		.loc 1 406 3 view .LVU591
ARM GAS  C:\Users\DEVELO~1\AppData\Local\Temp\ccAozvLj.s 			page 32


 1766              		.loc 1 408 3 view .LVU592
 1767 0072 01FA00F2 		lsl	r2, r1, r0
 1768 0076 12EA0C0F 		tst	r2, ip
 1769 007a D3D0     		beq	.L146
 1770              		.loc 1 434 7 view .LVU593
 1771              		.loc 1 434 16 is_stmt 0 view .LVU594
 1772 007c 0321     		movs	r1, #3
 1773              		.loc 1 435 20 view .LVU595
 1774 007e 8DF804E0 		strb	lr, [sp, #4]
 1775              		.loc 1 436 20 view .LVU596
 1776 0082 8DF805B0 		strb	fp, [sp, #5]
 1777              	.LBE714:
 1778              	.LBE732:
 1779              		.loc 1 486 14 view .LVU597
 1780 0086 8DF80630 		strb	r3, [sp, #6]
 1781              	.LBB733:
 1782              	.LBB715:
 1783              		.loc 1 434 16 view .LVU598
 1784 008a 8DF80710 		strb	r1, [sp, #7]
 1785              		.loc 1 435 7 is_stmt 1 view .LVU599
 1786              		.loc 1 436 7 view .LVU600
 1787              		.loc 1 437 7 view .LVU601
 1788              		.loc 1 438 7 view .LVU602
 1789              	.LVL105:
 1790              	.L116:
 1791              		.loc 1 438 7 is_stmt 0 view .LVU603
 1792              	.LBE715:
 1793              	.LBE733:
 1794              		.loc 1 490 7 is_stmt 1 view .LVU604
 1795              	.LBB734:
 1796              	.LBI734:
 1797              		.loc 1 463 13 view .LVU605
 1798              	.LBB735:
 1799              		.loc 1 464 3 view .LVU606
 1800 008e 01A8     		add	r0, sp, #4
 1801              	.LVL106:
 1802              		.loc 1 464 3 is_stmt 0 view .LVU607
 1803 0090 FFF7FEFF 		bl	midi_internal_receive
 1804              	.LVL107:
 1805              		.loc 1 466 3 is_stmt 1 view .LVU608
 1806              		.loc 1 466 40 is_stmt 0 view .LVU609
 1807 0094 9AF80030 		ldrb	r3, [r10]	@ zero_extendqisi2
 1808              		.loc 1 466 6 view .LVU610
 1809 0098 03F0FD03 		and	r3, r3, #253
 1810 009c 012B     		cmp	r3, #1
 1811 009e 6BD0     		beq	.L147
 1812              	.L117:
 1813              	.LVL108:
 1814              		.loc 1 466 6 view .LVU611
 1815              	.LBE735:
 1816              	.LBE734:
 1817              		.loc 1 491 7 is_stmt 1 view .LVU612
 1818              		.loc 1 491 20 is_stmt 0 view .LVU613
 1819 00a0 AB68     		ldr	r3, [r5, #8]
 1820              	.LBE744:
 1821              		.loc 1 476 34 view .LVU614
 1822 00a2 013C     		subs	r4, r4, #1
ARM GAS  C:\Users\DEVELO~1\AppData\Local\Temp\ccAozvLj.s 			page 33


 1823              	.LVL109:
 1824              	.LBB745:
 1825              		.loc 1 491 35 view .LVU615
 1826 00a4 03F10103 		add	r3, r3, #1
 1827 00a8 AB60     		str	r3, [r5, #8]
 1828              		.loc 1 496 5 is_stmt 1 view .LVU616
 1829              	.LVL110:
 1830              		.loc 1 496 5 is_stmt 0 view .LVU617
 1831              	.LBE745:
 1832              		.loc 1 476 34 is_stmt 1 view .LVU618
 1833 00aa C9D1     		bne	.L110
 1834              	.L122:
 1835              		.loc 1 476 34 is_stmt 0 view .LVU619
 1836              	.LBE747:
 1837              	.LBE749:
 1838              		.loc 1 267 5 is_stmt 1 view .LVU620
 1839              		.loc 1 268 5 view .LVU621
 1840              		.loc 1 268 17 is_stmt 0 view .LVU622
 1841 00ac 0A22     		movs	r2, #10
 1842 00ae 01A9     		add	r1, sp, #4
 1843 00b0 5D48     		ldr	r0, .L151+24
 1844 00b2 FFF7FEFF 		bl	chMBFetchTimeout
 1845              	.LVL111:
 1846              		.loc 1 270 5 is_stmt 1 view .LVU623
 1847              		.loc 1 270 8 is_stmt 0 view .LVU624
 1848 00b6 0028     		cmp	r0, #0
 1849 00b8 67D1     		bne	.L148
 1850              		.loc 1 271 7 is_stmt 1 view .LVU625
 1851              	.LBB750:
 1852              	.LBI750:
 1853              		.loc 1 132 20 view .LVU626
 1854              	.LBB751:
 1855              		.loc 1 133 3 view .LVU627
 1856              	.LBB752:
 1857              	.LBI752:
 1858              		.loc 2 573 20 view .LVU628
 1859              		.loc 2 575 3 view .LVU629
 1860              	.LBB753:
 1861              	.LBI753:
 1862              		.loc 3 407 20 view .LVU630
 1863              		.loc 3 409 3 view .LVU631
 1864              	.LBB754:
 1865              	.LBI754:
 1866              		.loc 4 806 27 view .LVU632
 1867              		.loc 4 814 3 view .LVU633
 1868              	.LVL112:
 1869              	.LBB755:
 1870              	.LBI755:
 1871              		.loc 5 491 27 view .LVU634
 1872              	.LBB756:
 1873              		.loc 5 493 3 view .LVU635
 1874 00ba 3023     		movs	r3, #48
 1875              		.syntax unified
 1876              	@ 493 "../../../os/common/ext/ARM/CMSIS/Core/Include/cmsis_gcc.h" 1
 1877 00bc 83F31188 		MSR basepri, r3
 1878              	@ 0 "" 2
 1879              	.LVL113:
ARM GAS  C:\Users\DEVELO~1\AppData\Local\Temp\ccAozvLj.s 			page 34


 1880              		.loc 5 493 3 is_stmt 0 view .LVU636
 1881              		.thumb
 1882              		.syntax unified
 1883              	.LBE756:
 1884              	.LBE755:
 1885              	.LBE754:
 1886              		.loc 3 410 35 is_stmt 1 view .LVU637
 1887              		.loc 3 411 21 view .LVU638
 1888              	.LBE753:
 1889              	.LBE752:
 1890              		.loc 1 134 3 view .LVU639
 1891              		.loc 1 134 27 is_stmt 0 view .LVU640
 1892 00c0 5A4A     		ldr	r2, .L151+28
 1893 00c2 1388     		ldrh	r3, [r2]
 1894              		.loc 1 134 6 view .LVU641
 1895 00c4 0BB1     		cbz	r3, .L123
 1896              		.loc 1 135 5 is_stmt 1 view .LVU642
 1897              		.loc 1 135 24 is_stmt 0 view .LVU643
 1898 00c6 013B     		subs	r3, r3, #1
 1899 00c8 1380     		strh	r3, [r2]	@ movhi
 1900              	.L123:
 1901              		.loc 1 137 3 is_stmt 1 view .LVU644
 1902              	.LBB757:
 1903              	.LBI757:
 1904              		.loc 2 584 20 view .LVU645
 1905              		.loc 2 586 3 view .LVU646
 1906              	.LBB758:
 1907              	.LBI758:
 1908              		.loc 3 421 20 view .LVU647
 1909              	.LBB759:
 1910              		.loc 3 423 23 view .LVU648
 1911              		.loc 3 424 34 view .LVU649
 1912              		.loc 3 430 3 view .LVU650
 1913              		.loc 3 430 3 view .LVU651
 1914              		.loc 3 430 3 view .LVU652
 1915              		.loc 3 434 3 view .LVU653
 1916              	.LBB760:
 1917              	.LBI760:
 1918              		.loc 4 830 27 view .LVU654
 1919              		.loc 4 833 3 view .LVU655
 1920              	.LVL114:
 1921              	.LBB761:
 1922              	.LBI761:
 1923              		.loc 5 491 27 view .LVU656
 1924              	.LBB762:
 1925              		.loc 5 493 3 view .LVU657
 1926 00ca 0024     		movs	r4, #0
 1927              		.syntax unified
 1928              	@ 493 "../../../os/common/ext/ARM/CMSIS/Core/Include/cmsis_gcc.h" 1
 1929 00cc 84F31188 		MSR basepri, r4
 1930              	@ 0 "" 2
 1931              	.LVL115:
 1932              		.loc 5 493 3 is_stmt 0 view .LVU658
 1933              		.thumb
 1934              		.syntax unified
 1935              	.LBE762:
 1936              	.LBE761:
ARM GAS  C:\Users\DEVELO~1\AppData\Local\Temp\ccAozvLj.s 			page 35


 1937              	.LBE760:
 1938              	.LBE759:
 1939              	.LBE758:
 1940              	.LBE757:
 1941              	.LBE751:
 1942              	.LBE750:
 1943              		.loc 1 272 7 is_stmt 1 view .LVU659
 1944              		.loc 1 272 33 is_stmt 0 view .LVU660
 1945 00d0 019B     		ldr	r3, [sp, #4]
 1946              	.LVL116:
 1947              		.loc 1 272 16 view .LVU661
 1948 00d2 09F14801 		add	r1, r9, #72
 1949              		.loc 1 275 16 view .LVU662
 1950 00d6 09F14B02 		add	r2, r9, #75
 1951              		.loc 1 275 12 view .LVU663
 1952 00da 09F10409 		add	r9, r9, #4
 1953              	.LVL117:
 1954              		.loc 1 272 16 view .LVU664
 1955 00de 6944     		add	r1, sp, r1
 1956              		.loc 1 272 33 view .LVU665
 1957 00e0 1816     		asrs	r0, r3, #24
 1958              	.LVL118:
 1959              		.loc 1 275 16 view .LVU666
 1960 00e2 6A44     		add	r2, sp, r2
 1961              		.loc 1 277 10 view .LVU667
 1962 00e4 B9F1400F 		cmp	r9, #64
 1963              		.loc 1 272 18 view .LVU668
 1964 00e8 01F8400C 		strb	r0, [r1, #-64]
 1965              		.loc 1 273 7 is_stmt 1 view .LVU669
 1966              	.LVL119:
 1967              		.loc 1 273 33 is_stmt 0 view .LVU670
 1968 00ec 4FEA2340 		asr	r0, r3, #16
 1969              		.loc 1 273 18 view .LVU671
 1970 00f0 01F83F0C 		strb	r0, [r1, #-63]
 1971              		.loc 1 274 7 is_stmt 1 view .LVU672
 1972              	.LVL120:
 1973              		.loc 1 274 33 is_stmt 0 view .LVU673
 1974 00f4 4FEA2320 		asr	r0, r3, #8
 1975              		.loc 1 274 18 view .LVU674
 1976 00f8 01F83E0C 		strb	r0, [r1, #-62]
 1977              		.loc 1 275 7 is_stmt 1 view .LVU675
 1978              	.LVL121:
 1979              		.loc 1 275 18 is_stmt 0 view .LVU676
 1980 00fc 02F8403C 		strb	r3, [r2, #-64]
 1981              		.loc 1 277 7 is_stmt 1 view .LVU677
 1982              		.loc 1 277 10 is_stmt 0 view .LVU678
 1983 0100 8DD1     		bne	.L129
 1984              	.LBB763:
 1985              		.loc 1 278 9 is_stmt 1 view .LVU679
 1986              	.LBB764:
 1987              	.LBI764:
 1988              		.loc 1 42 20 view .LVU680
 1989              	.LBB765:
 1990              		.loc 1 43 3 view .LVU681
 1991              		.loc 1 44 3 view .LVU682
 1992              	.LBB766:
 1993              	.LBI766:
ARM GAS  C:\Users\DEVELO~1\AppData\Local\Temp\ccAozvLj.s 			page 36


 1994              		.loc 2 573 20 view .LVU683
 1995              		.loc 2 575 3 view .LVU684
 1996              	.LBB767:
 1997              	.LBI767:
 1998              		.loc 3 407 20 view .LVU685
 1999              		.loc 3 409 3 view .LVU686
 2000              	.LBB768:
 2001              	.LBI768:
 2002              		.loc 4 806 27 view .LVU687
 2003              		.loc 4 814 3 view .LVU688
 2004              	.LVL122:
 2005              	.LBB769:
 2006              	.LBI769:
 2007              		.loc 5 491 27 view .LVU689
 2008              	.LBB770:
 2009              		.loc 5 493 3 view .LVU690
 2010 0102 4FF0300B 		mov	fp, #48
 2011              		.syntax unified
 2012              	@ 493 "../../../os/common/ext/ARM/CMSIS/Core/Include/cmsis_gcc.h" 1
 2013 0106 8BF31188 		MSR basepri, fp
 2014              	@ 0 "" 2
 2015              	.LVL123:
 2016              		.loc 5 493 3 is_stmt 0 view .LVU691
 2017              		.thumb
 2018              		.syntax unified
 2019              	.LBE770:
 2020              	.LBE769:
 2021              	.LBE768:
 2022              		.loc 3 410 35 is_stmt 1 view .LVU692
 2023              		.loc 3 411 21 view .LVU693
 2024              	.LBE767:
 2025              	.LBE766:
 2026              		.loc 1 45 3 view .LVU694
 2027              		.loc 1 45 9 is_stmt 0 view .LVU695
 2028 010a 494B     		ldr	r3, .L151+32
 2029 010c 1B78     		ldrb	r3, [r3]	@ zero_extendqisi2
 2030 010e DBB2     		uxtb	r3, r3
 2031              	.LVL124:
 2032              		.loc 1 46 3 is_stmt 1 view .LVU696
 2033              	.LBB771:
 2034              	.LBI771:
 2035              		.loc 2 584 20 view .LVU697
 2036              		.loc 2 586 3 view .LVU698
 2037              	.LBB772:
 2038              	.LBI772:
 2039              		.loc 3 421 20 view .LVU699
 2040              	.LBB773:
 2041              		.loc 3 423 23 view .LVU700
 2042              		.loc 3 424 34 view .LVU701
 2043              		.loc 3 430 3 view .LVU702
 2044              		.loc 3 430 3 view .LVU703
 2045              		.loc 3 430 3 view .LVU704
 2046              		.loc 3 434 3 view .LVU705
 2047              	.LBB774:
 2048              	.LBI774:
 2049              		.loc 4 830 27 view .LVU706
 2050              		.loc 4 833 3 view .LVU707
ARM GAS  C:\Users\DEVELO~1\AppData\Local\Temp\ccAozvLj.s 			page 37


 2051              	.LBB775:
 2052              	.LBI775:
 2053              		.loc 5 491 27 view .LVU708
 2054              	.LBB776:
 2055              		.loc 5 493 3 view .LVU709
 2056              		.syntax unified
 2057              	@ 493 "../../../os/common/ext/ARM/CMSIS/Core/Include/cmsis_gcc.h" 1
 2058 0110 84F31188 		MSR basepri, r4
 2059              	@ 0 "" 2
 2060              	.LVL125:
 2061              		.loc 5 493 3 is_stmt 0 view .LVU710
 2062              		.thumb
 2063              		.syntax unified
 2064              	.LBE776:
 2065              	.LBE775:
 2066              	.LBE774:
 2067              	.LBE773:
 2068              	.LBE772:
 2069              	.LBE771:
 2070              		.loc 1 47 3 is_stmt 1 view .LVU711
 2071              		.loc 1 47 3 is_stmt 0 view .LVU712
 2072              	.LBE765:
 2073              	.LBE764:
 2074              		.loc 1 279 9 is_stmt 1 view .LVU713
 2075              		.loc 1 279 12 is_stmt 0 view .LVU714
 2076 0114 002B     		cmp	r3, #0
 2077 0116 51D0     		beq	.L125
 2078              	.LBB777:
 2079              		.loc 1 280 11 is_stmt 1 view .LVU715
 2080              	.LVL126:
 2081              		.loc 1 281 11 view .LVU716
 2082              	.LBB778:
 2083              	.LBI778:
 2084              		.loc 6 211 21 view .LVU717
 2085              	.LBB779:
 2086              		.loc 6 214 3 view .LVU718
 2087              		.loc 6 214 10 is_stmt 0 view .LVU719
 2088 0118 1421     		movs	r1, #20
 2089 011a 4648     		ldr	r0, .L151+36
 2090 011c FFF7FEFF 		bl	chSemWaitTimeout
 2091              	.LVL127:
 2092              		.loc 6 214 10 view .LVU720
 2093              	.LBE779:
 2094              	.LBE778:
 2095              		.loc 1 281 14 view .LVU721
 2096 0120 0746     		mov	r7, r0
 2097 0122 0028     		cmp	r0, #0
 2098 0124 5DD1     		bne	.L126
 2099              		.loc 1 282 13 is_stmt 1 view .LVU722
 2100              	.LVL128:
 2101              	.LBB780:
 2102              	.LBI780:
 2103              		.loc 1 157 20 view .LVU723
 2104              	.LBB781:
 2105              		.loc 1 158 3 view .LVU724
 2106              		.loc 1 159 3 view .LVU725
 2107              	.LBB782:
ARM GAS  C:\Users\DEVELO~1\AppData\Local\Temp\ccAozvLj.s 			page 38


 2108              	.LBI782:
 2109              		.loc 2 573 20 view .LVU726
 2110              		.loc 2 575 3 view .LVU727
 2111              	.LBB783:
 2112              	.LBI783:
 2113              		.loc 3 407 20 view .LVU728
 2114              		.loc 3 409 3 view .LVU729
 2115              	.LBB784:
 2116              	.LBI784:
 2117              		.loc 4 806 27 view .LVU730
 2118              		.loc 4 814 3 view .LVU731
 2119              	.LBB785:
 2120              	.LBI785:
 2121              		.loc 5 491 27 view .LVU732
 2122              	.LBB786:
 2123              		.loc 5 493 3 view .LVU733
 2124              		.syntax unified
 2125              	@ 493 "../../../os/common/ext/ARM/CMSIS/Core/Include/cmsis_gcc.h" 1
 2126 0126 8BF31188 		MSR basepri, fp
 2127              	@ 0 "" 2
 2128              	.LVL129:
 2129              		.loc 5 493 3 is_stmt 0 view .LVU734
 2130              		.thumb
 2131              		.syntax unified
 2132              	.LBE786:
 2133              	.LBE785:
 2134              	.LBE784:
 2135              		.loc 3 410 35 is_stmt 1 view .LVU735
 2136              		.loc 3 411 21 view .LVU736
 2137              	.LBE783:
 2138              	.LBE782:
 2139              		.loc 1 160 3 view .LVU737
 2140 012a 0221     		movs	r1, #2
 2141 012c 4B46     		mov	r3, r9
 2142 012e 02AA     		add	r2, sp, #8
 2143              	.LVL130:
 2144              		.loc 1 160 3 is_stmt 0 view .LVU738
 2145 0130 4148     		ldr	r0, .L151+40
 2146 0132 FFF7FEFF 		bl	usbStartTransmitI
 2147              	.LVL131:
 2148              		.loc 1 161 3 is_stmt 1 view .LVU739
 2149              	.LBB787:
 2150              	.LBI787:
 2151              		.loc 2 584 20 view .LVU740
 2152              		.loc 2 586 3 view .LVU741
 2153              	.LBB788:
 2154              	.LBI788:
 2155              		.loc 3 421 20 view .LVU742
 2156              	.LBB789:
 2157              		.loc 3 423 23 view .LVU743
 2158              		.loc 3 424 34 view .LVU744
 2159              		.loc 3 430 3 view .LVU745
 2160              		.loc 3 430 3 view .LVU746
 2161              		.loc 3 430 3 view .LVU747
 2162              		.loc 3 434 3 view .LVU748
 2163              	.LBB790:
 2164              	.LBI790:
ARM GAS  C:\Users\DEVELO~1\AppData\Local\Temp\ccAozvLj.s 			page 39


 2165              		.loc 4 830 27 view .LVU749
 2166              		.loc 4 833 3 view .LVU750
 2167              	.LBB791:
 2168              	.LBI791:
 2169              		.loc 5 491 27 view .LVU751
 2170              	.LBB792:
 2171              		.loc 5 493 3 view .LVU752
 2172              		.syntax unified
 2173              	@ 493 "../../../os/common/ext/ARM/CMSIS/Core/Include/cmsis_gcc.h" 1
 2174 0136 87F31188 		MSR basepri, r7
 2175              	@ 0 "" 2
 2176              	.LVL132:
 2177              		.loc 5 493 3 is_stmt 0 view .LVU753
 2178              		.thumb
 2179              		.syntax unified
 2180              	.LBE792:
 2181              	.LBE791:
 2182              	.LBE790:
 2183              	.LBE789:
 2184              	.LBE788:
 2185              	.LBE787:
 2186              	.LBE781:
 2187              	.LBE780:
 2188              		.loc 1 283 13 is_stmt 1 view .LVU754
 2189              		.loc 1 283 26 is_stmt 0 view .LVU755
 2190 013a 404A     		ldr	r2, .L151+44
 2191              	.LBE777:
 2192              		.loc 1 291 11 view .LVU756
 2193 013c B946     		mov	r9, r7
 2194              	.LVL133:
 2195              	.LBB793:
 2196              		.loc 1 283 26 view .LVU757
 2197 013e 5368     		ldr	r3, [r2, #4]
 2198              		.loc 1 283 42 view .LVU758
 2199 0140 0133     		adds	r3, r3, #1
 2200 0142 5360     		str	r3, [r2, #4]
 2201 0144 6BE7     		b	.L129
 2202              	.LVL134:
 2203              	.L113:
 2204              		.loc 1 283 42 view .LVU759
 2205              	.LBE793:
 2206              	.LBE763:
 2207              	.LBB796:
 2208              	.LBB748:
 2209              	.LBB746:
 2210              	.LBB739:
 2211              	.LBB716:
 2212              		.loc 1 428 7 is_stmt 1 view .LVU760
 2213              		.loc 1 428 16 is_stmt 0 view .LVU761
 2214 0146 0221     		movs	r1, #2
 2215              		.loc 1 429 20 view .LVU762
 2216 0148 8DF804E0 		strb	lr, [sp, #4]
 2217              		.loc 1 430 20 view .LVU763
 2218 014c 8DF805B0 		strb	fp, [sp, #5]
 2219              		.loc 1 428 16 view .LVU764
 2220 0150 8DF80710 		strb	r1, [sp, #7]
 2221              		.loc 1 429 7 is_stmt 1 view .LVU765
ARM GAS  C:\Users\DEVELO~1\AppData\Local\Temp\ccAozvLj.s 			page 40


 2222              		.loc 1 430 7 view .LVU766
 2223              		.loc 1 431 7 view .LVU767
 2224              	.LVL135:
 2225              		.loc 1 431 7 is_stmt 0 view .LVU768
 2226 0154 9BE7     		b	.L116
 2227              	.LVL136:
 2228              	.L145:
 2229              		.loc 1 441 7 is_stmt 1 view .LVU769
 2230 0156 0EF10803 		add	r3, lr, #8
 2231 015a DBB2     		uxtb	r3, r3
 2232 015c 072B     		cmp	r3, #7
 2233 015e 3FF669AF 		bhi	.L115
 2234 0162 DD22     		movs	r2, #221
 2235 0164 22FA03F3 		lsr	r3, r2, r3
 2236 0168 DB07     		lsls	r3, r3, #31
 2237 016a 7FF563AF 		bpl	.L115
 2238              		.loc 1 448 11 view .LVU770
 2239              		.loc 1 449 24 is_stmt 0 view .LVU771
 2240 016e 8DF804E0 		strb	lr, [sp, #4]
 2241              		.loc 1 448 20 view .LVU772
 2242 0172 8DF80710 		strb	r1, [sp, #7]
 2243              		.loc 1 449 11 is_stmt 1 view .LVU773
 2244              		.loc 1 450 11 view .LVU774
 2245              	.LVL137:
 2246              		.loc 1 450 11 is_stmt 0 view .LVU775
 2247 0176 8AE7     		b	.L116
 2248              	.LVL138:
 2249              	.L147:
 2250              		.loc 1 450 11 view .LVU776
 2251              	.LBE716:
 2252              	.LBE739:
 2253              	.LBB740:
 2254              	.LBB738:
 2255              		.loc 1 467 5 is_stmt 1 view .LVU777
 2256              	.LBB736:
 2257              	.LBI736:
 2258              		.loc 1 368 13 view .LVU778
 2259              	.LBB737:
 2260              		.loc 1 368 57 view .LVU779
 2261 0178 4FF0FF33 		mov	r3, #-1
 2262 017c 9DF80720 		ldrb	r2, [sp, #7]	@ zero_extendqisi2
 2263              	.LVL139:
 2264              		.loc 1 368 57 is_stmt 0 view .LVU780
 2265 0180 01A9     		add	r1, sp, #4
 2266              	.LVL140:
 2267              		.loc 1 368 57 view .LVU781
 2268 0182 2F48     		ldr	r0, .L151+48
 2269 0184 FFF7FEFF 		bl	oqWriteTimeout
 2270              	.LVL141:
 2271              		.loc 1 368 87 view .LVU782
 2272 0188 8AE7     		b	.L117
 2273              	.LVL142:
 2274              	.L148:
 2275              		.loc 1 368 87 view .LVU783
 2276              	.LBE737:
 2277              	.LBE736:
 2278              	.LBE738:
ARM GAS  C:\Users\DEVELO~1\AppData\Local\Temp\ccAozvLj.s 			page 41


 2279              	.LBE740:
 2280              	.LBE746:
 2281              	.LBE748:
 2282              	.LBE796:
 2283              		.loc 1 293 12 is_stmt 1 view .LVU784
 2284              		.loc 1 293 15 is_stmt 0 view .LVU785
 2285 018a B9F1000F 		cmp	r9, #0
 2286 018e 3FF446AF 		beq	.L129
 2287              	.LBB797:
 2288              		.loc 1 295 7 is_stmt 1 view .LVU786
 2289              	.LVL143:
 2290              	.LBB798:
 2291              	.LBI798:
 2292              		.loc 6 211 21 view .LVU787
 2293              	.LBB799:
 2294              		.loc 6 214 3 view .LVU788
 2295              		.loc 6 214 10 is_stmt 0 view .LVU789
 2296 0192 0A21     		movs	r1, #10
 2297 0194 2B48     		ldr	r0, .L151+52
 2298              	.LVL144:
 2299              		.loc 6 214 10 view .LVU790
 2300 0196 FFF7FEFF 		bl	chSemWaitTimeout
 2301              	.LVL145:
 2302              		.loc 6 214 10 view .LVU791
 2303              	.LBE799:
 2304              	.LBE798:
 2305              		.loc 1 296 7 is_stmt 1 view .LVU792
 2306              	.LBB800:
 2307              	.LBI800:
 2308              		.loc 1 42 20 view .LVU793
 2309              	.LBB801:
 2310              		.loc 1 43 3 view .LVU794
 2311              		.loc 1 44 3 view .LVU795
 2312              	.LBB802:
 2313              	.LBI802:
 2314              		.loc 2 573 20 view .LVU796
 2315              		.loc 2 575 3 view .LVU797
 2316              	.LBB803:
 2317              	.LBI803:
 2318              		.loc 3 407 20 view .LVU798
 2319              		.loc 3 409 3 view .LVU799
 2320              	.LBB804:
 2321              	.LBI804:
 2322              		.loc 4 806 27 view .LVU800
 2323              		.loc 4 814 3 view .LVU801
 2324              	.LBB805:
 2325              	.LBI805:
 2326              		.loc 5 491 27 view .LVU802
 2327              	.LBB806:
 2328              		.loc 5 493 3 view .LVU803
 2329 019a 3027     		movs	r7, #48
 2330              		.syntax unified
 2331              	@ 493 "../../../os/common/ext/ARM/CMSIS/Core/Include/cmsis_gcc.h" 1
 2332 019c 87F31188 		MSR basepri, r7
 2333              	@ 0 "" 2
 2334              	.LVL146:
 2335              		.loc 5 493 3 is_stmt 0 view .LVU804
ARM GAS  C:\Users\DEVELO~1\AppData\Local\Temp\ccAozvLj.s 			page 42


 2336              		.thumb
 2337              		.syntax unified
 2338              	.LBE806:
 2339              	.LBE805:
 2340              	.LBE804:
 2341              		.loc 3 410 35 is_stmt 1 view .LVU805
 2342              		.loc 3 411 21 view .LVU806
 2343              	.LBE803:
 2344              	.LBE802:
 2345              		.loc 1 45 3 view .LVU807
 2346              		.loc 1 45 9 is_stmt 0 view .LVU808
 2347 01a0 234B     		ldr	r3, .L151+32
 2348              	.LBB807:
 2349              	.LBB808:
 2350              	.LBB809:
 2351              	.LBB810:
 2352              	.LBB811:
 2353              	.LBB812:
 2354              		.loc 5 493 3 view .LVU809
 2355 01a2 0024     		movs	r4, #0
 2356              	.LBE812:
 2357              	.LBE811:
 2358              	.LBE810:
 2359              	.LBE809:
 2360              	.LBE808:
 2361              	.LBE807:
 2362              		.loc 1 45 9 view .LVU810
 2363 01a4 1B78     		ldrb	r3, [r3]	@ zero_extendqisi2
 2364 01a6 DBB2     		uxtb	r3, r3
 2365              	.LVL147:
 2366              		.loc 1 46 3 is_stmt 1 view .LVU811
 2367              	.LBB818:
 2368              	.LBI807:
 2369              		.loc 2 584 20 view .LVU812
 2370              		.loc 2 586 3 view .LVU813
 2371              	.LBB817:
 2372              	.LBI808:
 2373              		.loc 3 421 20 view .LVU814
 2374              	.LBB816:
 2375              		.loc 3 423 23 view .LVU815
 2376              		.loc 3 424 34 view .LVU816
 2377              		.loc 3 430 3 view .LVU817
 2378              		.loc 3 430 3 view .LVU818
 2379              		.loc 3 430 3 view .LVU819
 2380              		.loc 3 434 3 view .LVU820
 2381              	.LBB815:
 2382              	.LBI810:
 2383              		.loc 4 830 27 view .LVU821
 2384              		.loc 4 833 3 view .LVU822
 2385              	.LBB814:
 2386              	.LBI811:
 2387              		.loc 5 491 27 view .LVU823
 2388              	.LBB813:
 2389              		.loc 5 493 3 view .LVU824
 2390              		.syntax unified
 2391              	@ 493 "../../../os/common/ext/ARM/CMSIS/Core/Include/cmsis_gcc.h" 1
 2392 01a8 84F31188 		MSR basepri, r4
ARM GAS  C:\Users\DEVELO~1\AppData\Local\Temp\ccAozvLj.s 			page 43


 2393              	@ 0 "" 2
 2394              	.LVL148:
 2395              		.loc 5 493 3 is_stmt 0 view .LVU825
 2396              		.thumb
 2397              		.syntax unified
 2398              	.LBE813:
 2399              	.LBE814:
 2400              	.LBE815:
 2401              	.LBE816:
 2402              	.LBE817:
 2403              	.LBE818:
 2404              		.loc 1 47 3 is_stmt 1 view .LVU826
 2405              		.loc 1 47 3 is_stmt 0 view .LVU827
 2406              	.LBE801:
 2407              	.LBE800:
 2408              		.loc 1 297 7 is_stmt 1 view .LVU828
 2409              		.loc 1 297 10 is_stmt 0 view .LVU829
 2410 01ac 63B9     		cbnz	r3, .L149
 2411              		.loc 1 306 9 is_stmt 1 view .LVU830
 2412              		.loc 1 306 43 is_stmt 0 view .LVU831
 2413 01ae 2349     		ldr	r1, .L151+44
 2414 01b0 8A69     		ldr	r2, [r1, #24]
 2415 01b2 02EB9902 		add	r2, r2, r9, lsr #2
 2416              		.loc 1 308 9 view .LVU832
 2417 01b6 9946     		mov	r9, r3
 2418              	.LVL149:
 2419              		.loc 1 308 9 view .LVU833
 2420              	.LBE797:
 2421              	.LBE844:
 2422              		.loc 1 264 9 is_stmt 1 view .LVU834
 2423              	.LBB845:
 2424              	.LBB838:
 2425              		.loc 1 306 43 is_stmt 0 view .LVU835
 2426 01b8 8A61     		str	r2, [r1, #24]
 2427              	.LBE838:
 2428              	.LBE845:
 2429              		.loc 1 264 16 view .LVU836
 2430 01ba 30E7     		b	.L129
 2431              	.LVL150:
 2432              	.L125:
 2433              	.LBB846:
 2434              	.LBB839:
 2435              		.loc 1 289 11 is_stmt 1 view .LVU837
 2436              		.loc 1 289 45 is_stmt 0 view .LVU838
 2437 01bc 1F4A     		ldr	r2, .L151+44
 2438              		.loc 1 291 11 view .LVU839
 2439 01be 9946     		mov	r9, r3
 2440              	.LVL151:
 2441              		.loc 1 289 45 view .LVU840
 2442 01c0 9369     		ldr	r3, [r2, #24]
 2443              	.LVL152:
 2444              		.loc 1 289 45 view .LVU841
 2445 01c2 1033     		adds	r3, r3, #16
 2446 01c4 9361     		str	r3, [r2, #24]
 2447 01c6 2AE7     		b	.L129
 2448              	.LVL153:
 2449              	.L149:
ARM GAS  C:\Users\DEVELO~1\AppData\Local\Temp\ccAozvLj.s 			page 44


 2450              		.loc 1 289 45 view .LVU842
 2451              	.LBE839:
 2452              	.LBB840:
 2453              	.LBB819:
 2454              		.loc 1 298 9 is_stmt 1 view .LVU843
 2455              		.loc 1 299 9 view .LVU844
 2456              	.LBB820:
 2457              	.LBI820:
 2458              		.loc 6 211 21 view .LVU845
 2459              	.LBB821:
 2460              		.loc 6 214 3 view .LVU846
 2461              		.loc 6 214 10 is_stmt 0 view .LVU847
 2462 01c8 1421     		movs	r1, #20
 2463 01ca 1A48     		ldr	r0, .L151+36
 2464 01cc FFF7FEFF 		bl	chSemWaitTimeout
 2465              	.LVL154:
 2466              		.loc 6 214 10 view .LVU848
 2467              	.LBE821:
 2468              	.LBE820:
 2469              		.loc 1 299 12 view .LVU849
 2470 01d0 8346     		mov	fp, r0
 2471 01d2 60B1     		cbz	r0, .L150
 2472              		.loc 1 303 11 is_stmt 1 view .LVU850
 2473              		.loc 1 303 45 is_stmt 0 view .LVU851
 2474 01d4 194A     		ldr	r2, .L151+44
 2475 01d6 9369     		ldr	r3, [r2, #24]
 2476 01d8 03EB9903 		add	r3, r3, r9, lsr #2
 2477              	.LBE819:
 2478              		.loc 1 308 9 view .LVU852
 2479 01dc A146     		mov	r9, r4
 2480              	.LVL155:
 2481              	.LBB835:
 2482              		.loc 1 303 45 view .LVU853
 2483 01de 9361     		str	r3, [r2, #24]
 2484 01e0 1DE7     		b	.L129
 2485              	.LVL156:
 2486              	.L126:
 2487              		.loc 1 303 45 view .LVU854
 2488              	.LBE835:
 2489              	.LBE840:
 2490              	.LBB841:
 2491              	.LBB794:
 2492              		.loc 1 286 13 is_stmt 1 view .LVU855
 2493              		.loc 1 286 47 is_stmt 0 view .LVU856
 2494 01e2 164A     		ldr	r2, .L151+44
 2495              	.LBE794:
 2496              		.loc 1 291 11 view .LVU857
 2497 01e4 A146     		mov	r9, r4
 2498              	.LVL157:
 2499              	.LBB795:
 2500              		.loc 1 286 47 view .LVU858
 2501 01e6 9369     		ldr	r3, [r2, #24]
 2502 01e8 1033     		adds	r3, r3, #16
 2503 01ea 9361     		str	r3, [r2, #24]
 2504 01ec 17E7     		b	.L129
 2505              	.LVL158:
 2506              	.L150:
ARM GAS  C:\Users\DEVELO~1\AppData\Local\Temp\ccAozvLj.s 			page 45


 2507              		.loc 1 286 47 view .LVU859
 2508              	.LBE795:
 2509              	.LBE841:
 2510              	.LBB842:
 2511              	.LBB836:
 2512              		.loc 1 300 11 is_stmt 1 view .LVU860
 2513              	.LBB822:
 2514              	.LBI822:
 2515              		.loc 1 157 20 view .LVU861
 2516              	.LBB823:
 2517              		.loc 1 158 3 view .LVU862
 2518              		.loc 1 159 3 view .LVU863
 2519              	.LBB824:
 2520              	.LBI824:
 2521              		.loc 2 573 20 view .LVU864
 2522              		.loc 2 575 3 view .LVU865
 2523              	.LBB825:
 2524              	.LBI825:
 2525              		.loc 3 407 20 view .LVU866
 2526              		.loc 3 409 3 view .LVU867
 2527              	.LBB826:
 2528              	.LBI826:
 2529              		.loc 4 806 27 view .LVU868
 2530              		.loc 4 814 3 view .LVU869
 2531              	.LBB827:
 2532              	.LBI827:
 2533              		.loc 5 491 27 view .LVU870
 2534              	.LBB828:
 2535              		.loc 5 493 3 view .LVU871
 2536              		.syntax unified
 2537              	@ 493 "../../../os/common/ext/ARM/CMSIS/Core/Include/cmsis_gcc.h" 1
 2538 01ee 87F31188 		MSR basepri, r7
 2539              	@ 0 "" 2
 2540              	.LVL159:
 2541              		.loc 5 493 3 is_stmt 0 view .LVU872
 2542              		.thumb
 2543              		.syntax unified
 2544              	.LBE828:
 2545              	.LBE827:
 2546              	.LBE826:
 2547              		.loc 3 410 35 is_stmt 1 view .LVU873
 2548              		.loc 3 411 21 view .LVU874
 2549              	.LBE825:
 2550              	.LBE824:
 2551              		.loc 1 160 3 view .LVU875
 2552 01f2 0221     		movs	r1, #2
 2553 01f4 4B46     		mov	r3, r9
 2554 01f6 02AA     		add	r2, sp, #8
 2555              	.LVL160:
 2556              		.loc 1 160 3 is_stmt 0 view .LVU876
 2557 01f8 0F48     		ldr	r0, .L151+40
 2558 01fa FFF7FEFF 		bl	usbStartTransmitI
 2559              	.LVL161:
 2560              		.loc 1 161 3 is_stmt 1 view .LVU877
 2561              	.LBB829:
 2562              	.LBI829:
 2563              		.loc 2 584 20 view .LVU878
ARM GAS  C:\Users\DEVELO~1\AppData\Local\Temp\ccAozvLj.s 			page 46


 2564              		.loc 2 586 3 view .LVU879
 2565              	.LBB830:
 2566              	.LBI830:
 2567              		.loc 3 421 20 view .LVU880
 2568              	.LBB831:
 2569              		.loc 3 423 23 view .LVU881
 2570              		.loc 3 424 34 view .LVU882
 2571              		.loc 3 430 3 view .LVU883
 2572              		.loc 3 430 3 view .LVU884
 2573              		.loc 3 430 3 view .LVU885
 2574              		.loc 3 434 3 view .LVU886
 2575              	.LBB832:
 2576              	.LBI832:
 2577              		.loc 4 830 27 view .LVU887
 2578              		.loc 4 833 3 view .LVU888
 2579              	.LBB833:
 2580              	.LBI833:
 2581              		.loc 5 491 27 view .LVU889
 2582              	.LBB834:
 2583              		.loc 5 493 3 view .LVU890
 2584              		.syntax unified
 2585              	@ 493 "../../../os/common/ext/ARM/CMSIS/Core/Include/cmsis_gcc.h" 1
 2586 01fe 8BF31188 		MSR basepri, fp
 2587              	@ 0 "" 2
 2588              	.LVL162:
 2589              		.loc 5 493 3 is_stmt 0 view .LVU891
 2590              		.thumb
 2591              		.syntax unified
 2592              	.LBE834:
 2593              	.LBE833:
 2594              	.LBE832:
 2595              	.LBE831:
 2596              	.LBE830:
 2597              	.LBE829:
 2598              	.LBE823:
 2599              	.LBE822:
 2600              		.loc 1 301 11 is_stmt 1 view .LVU892
 2601              		.loc 1 301 24 is_stmt 0 view .LVU893
 2602 0202 0E4A     		ldr	r2, .L151+44
 2603              	.LBE836:
 2604              		.loc 1 308 9 view .LVU894
 2605 0204 D946     		mov	r9, fp
 2606              	.LVL163:
 2607              	.LBB837:
 2608              		.loc 1 301 24 view .LVU895
 2609 0206 5368     		ldr	r3, [r2, #4]
 2610              		.loc 1 301 40 view .LVU896
 2611 0208 0133     		adds	r3, r3, #1
 2612 020a 5360     		str	r3, [r2, #4]
 2613 020c 07E7     		b	.L129
 2614              	.L152:
 2615 020e 00BF     		.align	2
 2616              	.L151:
 2617 0210 00000000 		.word	ch0
 2618 0214 00000000 		.word	.LC0
 2619 0218 00000000 		.word	.LANCHOR5
 2620 021c 00000000 		.word	.LANCHOR6
ARM GAS  C:\Users\DEVELO~1\AppData\Local\Temp\ccAozvLj.s 			page 47


 2621 0220 00000000 		.word	.LANCHOR7
 2622 0224 00000000 		.word	.LANCHOR8
 2623 0228 00000000 		.word	.LANCHOR0
 2624 022c 00000000 		.word	.LANCHOR1
 2625 0230 00000000 		.word	usb_midi_tx_ready
 2626 0234 00000000 		.word	.LANCHOR4
 2627 0238 00000000 		.word	USBD1
 2628 023c 00000000 		.word	.LANCHOR2
 2629 0240 30000000 		.word	SD3+48
 2630 0244 00000000 		.word	.LANCHOR9
 2631              	.LBE837:
 2632              	.LBE842:
 2633              	.LBE846:
 2634              		.cfi_endproc
 2635              	.LFE440:
 2636              		.size	thdMidiUsbTx, .-thdMidiUsbTx
 2637              		.section	.text.midi_usb_rx_submit_from_isr,"ax",%progbits
 2638              		.align	1
 2639              		.p2align 4,,15
 2640              		.global	midi_usb_rx_submit_from_isr
 2641              		.syntax unified
 2642              		.thumb
 2643              		.thumb_func
 2644              		.type	midi_usb_rx_submit_from_isr, %function
 2645              	midi_usb_rx_submit_from_isr:
 2646              	.LVL164:
 2647              	.LFB439:
 2648              		.loc 1 164 69 is_stmt 1 view -0
 2649              		.cfi_startproc
 2650              		@ args = 0, pretend = 0, frame = 0
 2651              		@ frame_needed = 0, uses_anonymous_args = 0
 2652              		.loc 1 165 3 view .LVU898
 2653              		.loc 1 165 6 is_stmt 0 view .LVU899
 2654 0000 0028     		cmp	r0, #0
 2655 0002 45D0     		beq	.L165
 2656 0004 0329     		cmp	r1, #3
 2657 0006 43D9     		bls	.L165
 2658              		.loc 1 169 3 is_stmt 1 view .LVU900
 2659              		.loc 1 169 16 is_stmt 0 view .LVU901
 2660 0008 8908     		lsrs	r1, r1, #2
 2661              	.LVL165:
 2662              		.loc 1 171 3 is_stmt 1 view .LVU902
 2663              	.LBB870:
 2664              	.LBI870:
 2665              		.loc 2 595 20 view .LVU903
 2666              		.loc 2 597 3 view .LVU904
 2667              	.LBB871:
 2668              	.LBI871:
 2669              		.loc 3 451 20 view .LVU905
 2670              		.loc 3 453 3 view .LVU906
 2671              	.LBB872:
 2672              	.LBI872:
 2673              		.loc 4 845 27 view .LVU907
 2674              		.loc 4 847 3 view .LVU908
 2675              	.LBB873:
 2676              	.LBI873:
 2677              		.loc 4 806 27 view .LVU909
ARM GAS  C:\Users\DEVELO~1\AppData\Local\Temp\ccAozvLj.s 			page 48


 2678              		.loc 4 814 3 view .LVU910
 2679              	.LBB874:
 2680              	.LBI874:
 2681              		.loc 5 491 27 view .LVU911
 2682              	.LBB875:
 2683              		.loc 5 493 3 view .LVU912
 2684 000a 3023     		movs	r3, #48
 2685              	.LBE875:
 2686              	.LBE874:
 2687              	.LBE873:
 2688              	.LBE872:
 2689              	.LBE871:
 2690              	.LBE870:
 2691              		.loc 1 164 69 is_stmt 0 view .LVU913
 2692 000c 2DE9F047 		push	{r4, r5, r6, r7, r8, r9, r10, lr}
 2693              		.cfi_def_cfa_offset 32
 2694              		.cfi_offset 4, -32
 2695              		.cfi_offset 5, -28
 2696              		.cfi_offset 6, -24
 2697              		.cfi_offset 7, -20
 2698              		.cfi_offset 8, -16
 2699              		.cfi_offset 9, -12
 2700              		.cfi_offset 10, -8
 2701              		.cfi_offset 14, -4
 2702              	.LBB881:
 2703              	.LBB880:
 2704              	.LBB879:
 2705              	.LBB878:
 2706              	.LBB877:
 2707              	.LBB876:
 2708              		.loc 5 493 3 view .LVU914
 2709              		.syntax unified
 2710              	@ 493 "../../../os/common/ext/ARM/CMSIS/Core/Include/cmsis_gcc.h" 1
 2711 0010 83F31188 		MSR basepri, r3
 2712              	@ 0 "" 2
 2713              	.LVL166:
 2714              		.loc 5 493 3 view .LVU915
 2715              		.thumb
 2716              		.syntax unified
 2717              	.LBE876:
 2718              	.LBE877:
 2719              	.LBE878:
 2720              	.LBE879:
 2721              		.loc 3 454 35 is_stmt 1 view .LVU916
 2722              		.loc 3 455 30 view .LVU917
 2723              	.LBE880:
 2724              	.LBE881:
 2725              		.loc 1 172 3 view .LVU918
 2726              		.loc 1 172 21 is_stmt 0 view .LVU919
 2727 0014 DFF87CA0 		ldr	r10, .L170
 2728              		.loc 1 172 6 view .LVU920
 2729 0018 DAF80030 		ldr	r3, [r10]
 2730 001c A3B3     		cbz	r3, .L168
 2731 001e 0446     		mov	r4, r0
 2732 0020 00EB8105 		add	r5, r0, r1, lsl #2
 2733 0024 DFF87090 		ldr	r9, .L170+4
 2734 0028 1C4E     		ldr	r6, .L170+8
ARM GAS  C:\Users\DEVELO~1\AppData\Local\Temp\ccAozvLj.s 			page 49


 2735              	.LBB882:
 2736              	.LBB883:
 2737              		.loc 1 191 26 view .LVU921
 2738 002a 1D4F     		ldr	r7, .L170+12
 2739              	.LBB884:
 2740              	.LBB885:
 2741              		.loc 1 144 32 view .LVU922
 2742 002c DFF87480 		ldr	r8, .L170+16
 2743 0030 09E0     		b	.L162
 2744              	.LVL167:
 2745              	.L158:
 2746              		.loc 1 144 32 view .LVU923
 2747              	.LBE885:
 2748              	.LBE884:
 2749              		.loc 1 191 26 view .LVU924
 2750 0032 3B68     		ldr	r3, [r7]
 2751              	.LBE883:
 2752              		.loc 1 195 12 view .LVU925
 2753 0034 0434     		adds	r4, r4, #4
 2754              	.LVL168:
 2755              	.LBB890:
 2756              		.loc 1 191 26 view .LVU926
 2757 0036 0133     		adds	r3, r3, #1
 2758              	.LBE890:
 2759              		.loc 1 177 24 view .LVU927
 2760 0038 A542     		cmp	r5, r4
 2761              	.LBB891:
 2762              		.loc 1 191 26 view .LVU928
 2763 003a 3B60     		str	r3, [r7]
 2764              		.loc 1 192 9 is_stmt 1 view .LVU929
 2765              		.loc 1 192 22 is_stmt 0 view .LVU930
 2766 003c 7368     		ldr	r3, [r6, #4]
 2767              		.loc 1 192 35 view .LVU931
 2768 003e 03F10103 		add	r3, r3, #1
 2769 0042 7360     		str	r3, [r6, #4]
 2770              	.LBE891:
 2771              		.loc 1 195 5 is_stmt 1 view .LVU932
 2772              	.LVL169:
 2773              		.loc 1 177 36 view .LVU933
 2774              		.loc 1 177 24 view .LVU934
 2775 0044 1FD0     		beq	.L169
 2776              	.L162:
 2777              		.loc 1 178 5 view .LVU935
 2778              		.loc 1 179 7 view .LVU936
 2779              		.loc 1 178 8 is_stmt 0 view .LVU937
 2780 0046 B9F80030 		ldrh	r3, [r9]
 2781 004a 7F2B     		cmp	r3, #127
 2782 004c F1D8     		bhi	.L158
 2783              	.LBB892:
 2784              		.loc 1 182 7 is_stmt 1 view .LVU938
 2785              	.LVL170:
 2786              		.loc 1 187 7 view .LVU939
 2787 004e 2168     		ldr	r1, [r4]	@ unaligned
 2788              		.loc 1 187 11 is_stmt 0 view .LVU940
 2789 0050 5046     		mov	r0, r10
 2790 0052 09BA     		rev	r1, r1
 2791 0054 FFF7FEFF 		bl	chMBPostI
ARM GAS  C:\Users\DEVELO~1\AppData\Local\Temp\ccAozvLj.s 			page 50


 2792              	.LVL171:
 2793              		.loc 1 191 9 is_stmt 1 view .LVU941
 2794              		.loc 1 187 10 is_stmt 0 view .LVU942
 2795 0058 0028     		cmp	r0, #0
 2796 005a EAD1     		bne	.L158
 2797              		.loc 1 188 9 is_stmt 1 view .LVU943
 2798              	.LBB888:
 2799              	.LBI884:
 2800              		.loc 1 140 20 view .LVU944
 2801              	.LBB886:
 2802              		.loc 1 142 3 view .LVU945
 2803              		.loc 1 143 5 view .LVU946
 2804              	.LBE886:
 2805              	.LBE888:
 2806              		.loc 1 189 9 view .LVU947
 2807              	.LBB889:
 2808              	.LBB887:
 2809              		.loc 1 142 30 is_stmt 0 view .LVU948
 2810 005c B9F80030 		ldrh	r3, [r9]
 2811              		.loc 1 142 6 view .LVU949
 2812 0060 7F2B     		cmp	r3, #127
 2813              		.loc 1 143 27 view .LVU950
 2814 0062 03F10103 		add	r3, r3, #1
 2815 0066 9BB2     		uxth	r3, r3
 2816              		.loc 1 142 6 view .LVU951
 2817 0068 07D8     		bhi	.L160
 2818              		.loc 1 145 7 is_stmt 1 view .LVU952
 2819              		.loc 1 144 8 is_stmt 0 view .LVU953
 2820 006a B8F80020 		ldrh	r2, [r8]
 2821              		.loc 1 143 27 view .LVU954
 2822 006e A9F80030 		strh	r3, [r9]	@ movhi
 2823              		.loc 1 144 5 is_stmt 1 view .LVU955
 2824              		.loc 1 144 8 is_stmt 0 view .LVU956
 2825 0072 9A42     		cmp	r2, r3
 2826              		.loc 1 145 36 view .LVU957
 2827 0074 38BF     		it	cc
 2828 0076 A8F80030 		strhcc	r3, [r8]	@ movhi
 2829              	.L160:
 2830              	.LBE887:
 2831              	.LBE889:
 2832              		.loc 1 189 22 view .LVU958
 2833 007a 3368     		ldr	r3, [r6]
 2834              	.LBE892:
 2835              		.loc 1 195 12 view .LVU959
 2836 007c 0434     		adds	r4, r4, #4
 2837              	.LVL172:
 2838              	.LBB893:
 2839              		.loc 1 189 38 view .LVU960
 2840 007e 0133     		adds	r3, r3, #1
 2841              	.LBE893:
 2842              		.loc 1 177 24 view .LVU961
 2843 0080 A542     		cmp	r5, r4
 2844              	.LBB894:
 2845              		.loc 1 189 38 view .LVU962
 2846 0082 3360     		str	r3, [r6]
 2847              	.LBE894:
 2848              		.loc 1 195 5 is_stmt 1 view .LVU963
ARM GAS  C:\Users\DEVELO~1\AppData\Local\Temp\ccAozvLj.s 			page 51


 2849              	.LVL173:
 2850              		.loc 1 177 36 view .LVU964
 2851              		.loc 1 177 24 view .LVU965
 2852 0084 DFD1     		bne	.L162
 2853              	.L169:
 2854              		.loc 1 177 24 is_stmt 0 view .LVU966
 2855              	.LBE882:
 2856              		.loc 1 197 3 is_stmt 1 view .LVU967
 2857              	.LBB895:
 2858              	.LBI895:
 2859              		.loc 2 606 20 view .LVU968
 2860              	.LBB896:
 2861              		.loc 2 608 3 view .LVU969
 2862              	.LBB897:
 2863              	.LBI897:
 2864              		.loc 3 473 20 view .LVU970
 2865              		.loc 3 475 32 view .LVU971
 2866              		.loc 3 476 34 view .LVU972
 2867              		.loc 3 477 3 view .LVU973
 2868              	.LBB898:
 2869              	.LBI898:
 2870              		.loc 4 856 27 view .LVU974
 2871              		.loc 4 858 3 view .LVU975
 2872              	.LBB899:
 2873              	.LBI899:
 2874              		.loc 4 830 27 view .LVU976
 2875              		.loc 4 833 3 view .LVU977
 2876              	.LVL174:
 2877              	.LBB900:
 2878              	.LBI900:
 2879              		.loc 5 491 27 view .LVU978
 2880              	.LBB901:
 2881              		.loc 5 493 3 view .LVU979
 2882 0086 0023     		movs	r3, #0
 2883              	.LVL175:
 2884              	.L168:
 2885              		.loc 5 493 3 is_stmt 0 view .LVU980
 2886              		.syntax unified
 2887              	@ 493 "../../../os/common/ext/ARM/CMSIS/Core/Include/cmsis_gcc.h" 1
 2888 0088 83F31188 		MSR basepri, r3
 2889              	@ 0 "" 2
 2890              		.thumb
 2891              		.syntax unified
 2892              	.LBE901:
 2893              	.LBE900:
 2894              	.LBE899:
 2895              	.LBE898:
 2896              	.LBE897:
 2897              	.LBE896:
 2898              	.LBE895:
 2899              		.loc 1 198 1 view .LVU981
 2900 008c BDE8F087 		pop	{r4, r5, r6, r7, r8, r9, r10, pc}
 2901              	.LVL176:
 2902              	.L165:
 2903              		.cfi_def_cfa_offset 0
 2904              		.cfi_restore 4
 2905              		.cfi_restore 5
ARM GAS  C:\Users\DEVELO~1\AppData\Local\Temp\ccAozvLj.s 			page 52


 2906              		.cfi_restore 6
 2907              		.cfi_restore 7
 2908              		.cfi_restore 8
 2909              		.cfi_restore 9
 2910              		.cfi_restore 10
 2911              		.cfi_restore 14
 2912              		.loc 1 198 1 view .LVU982
 2913 0090 7047     		bx	lr
 2914              	.L171:
 2915 0092 00BF     		.align	2
 2916              	.L170:
 2917 0094 00000000 		.word	.LANCHOR8
 2918 0098 00000000 		.word	.LANCHOR5
 2919 009c 00000000 		.word	.LANCHOR7
 2920 00a0 00000000 		.word	.LANCHOR10
 2921 00a4 00000000 		.word	.LANCHOR11
 2922              		.cfi_endproc
 2923              	.LFE439:
 2924              		.size	midi_usb_rx_submit_from_isr, .-midi_usb_rx_submit_from_isr
 2925              		.section	.text.midi_init,"ax",%progbits
 2926              		.align	1
 2927              		.p2align 4,,15
 2928              		.global	midi_init
 2929              		.syntax unified
 2930              		.thumb
 2931              		.thumb_func
 2932              		.type	midi_init, %function
 2933              	midi_init:
 2934              	.LFB441:
 2935              		.loc 1 325 22 is_stmt 1 view -0
 2936              		.cfi_startproc
 2937              		@ args = 0, pretend = 0, frame = 0
 2938              		@ frame_needed = 0, uses_anonymous_args = 0
 2939              		.loc 1 326 3 view .LVU984
 2940              	.LBB902:
 2941              	.LBI902:
 2942              		.loc 2 573 20 view .LVU985
 2943              		.loc 2 575 3 view .LVU986
 2944              	.LBB903:
 2945              	.LBI903:
 2946              		.loc 3 407 20 view .LVU987
 2947              		.loc 3 409 3 view .LVU988
 2948              	.LBB904:
 2949              	.LBI904:
 2950              		.loc 4 806 27 view .LVU989
 2951              		.loc 4 814 3 view .LVU990
 2952              	.LVL177:
 2953              	.LBB905:
 2954              	.LBI905:
 2955              		.loc 5 491 27 view .LVU991
 2956              	.LBB906:
 2957              		.loc 5 493 3 view .LVU992
 2958              	.LBE906:
 2959              	.LBE905:
 2960              	.LBE904:
 2961              	.LBE903:
 2962              	.LBE902:
ARM GAS  C:\Users\DEVELO~1\AppData\Local\Temp\ccAozvLj.s 			page 53


 2963              		.loc 1 325 22 is_stmt 0 view .LVU993
 2964 0000 10B5     		push	{r4, lr}
 2965              		.cfi_def_cfa_offset 8
 2966              		.cfi_offset 4, -8
 2967              		.cfi_offset 14, -4
 2968              	.LBB915:
 2969              	.LBB913:
 2970              	.LBB911:
 2971              	.LBB909:
 2972              	.LBB907:
 2973              		.loc 5 493 3 view .LVU994
 2974 0002 3023     		movs	r3, #48
 2975              	.LBE907:
 2976              	.LBE909:
 2977              	.LBE911:
 2978              	.LBE913:
 2979              	.LBE915:
 2980              		.loc 1 325 22 view .LVU995
 2981 0004 82B0     		sub	sp, sp, #8
 2982              		.cfi_def_cfa_offset 16
 2983              	.LBB916:
 2984              	.LBB914:
 2985              	.LBB912:
 2986              	.LBB910:
 2987              	.LBB908:
 2988              		.loc 5 493 3 view .LVU996
 2989              		.syntax unified
 2990              	@ 493 "../../../os/common/ext/ARM/CMSIS/Core/Include/cmsis_gcc.h" 1
 2991 0006 83F31188 		MSR basepri, r3
 2992              	@ 0 "" 2
 2993              	.LVL178:
 2994              		.loc 5 493 3 view .LVU997
 2995              		.thumb
 2996              		.syntax unified
 2997              	.LBE908:
 2998              	.LBE910:
 2999              	.LBE912:
 3000              		.loc 3 410 35 is_stmt 1 view .LVU998
 3001              		.loc 3 411 21 view .LVU999
 3002              	.LBE914:
 3003              	.LBE916:
 3004              		.loc 1 327 3 view .LVU1000
 3005              		.loc 1 327 7 is_stmt 0 view .LVU1001
 3006 000a 1B4B     		ldr	r3, .L176
 3007              		.loc 1 327 6 view .LVU1002
 3008 000c 1C78     		ldrb	r4, [r3]	@ zero_extendqisi2
 3009 000e 24B1     		cbz	r4, .L173
 3010              		.loc 1 328 5 is_stmt 1 view .LVU1003
 3011              	.LBB917:
 3012              	.LBI917:
 3013              		.loc 2 584 20 view .LVU1004
 3014              		.loc 2 586 3 view .LVU1005
 3015              	.LBB918:
 3016              	.LBI918:
 3017              		.loc 3 421 20 view .LVU1006
 3018              	.LBB919:
 3019              		.loc 3 423 23 view .LVU1007
ARM GAS  C:\Users\DEVELO~1\AppData\Local\Temp\ccAozvLj.s 			page 54


 3020              		.loc 3 424 34 view .LVU1008
 3021              		.loc 3 430 3 view .LVU1009
 3022              		.loc 3 430 3 view .LVU1010
 3023              		.loc 3 430 3 view .LVU1011
 3024              		.loc 3 434 3 view .LVU1012
 3025              	.LBB920:
 3026              	.LBI920:
 3027              		.loc 4 830 27 view .LVU1013
 3028              		.loc 4 833 3 view .LVU1014
 3029              	.LVL179:
 3030              	.LBB921:
 3031              	.LBI921:
 3032              		.loc 5 491 27 view .LVU1015
 3033              	.LBB922:
 3034              		.loc 5 493 3 view .LVU1016
 3035 0010 0023     		movs	r3, #0
 3036              		.syntax unified
 3037              	@ 493 "../../../os/common/ext/ARM/CMSIS/Core/Include/cmsis_gcc.h" 1
 3038 0012 83F31188 		MSR basepri, r3
 3039              	@ 0 "" 2
 3040              	.LVL180:
 3041              		.loc 5 493 3 is_stmt 0 view .LVU1017
 3042              		.thumb
 3043              		.syntax unified
 3044              	.LBE922:
 3045              	.LBE921:
 3046              	.LBE920:
 3047              	.LBE919:
 3048              	.LBE918:
 3049              	.LBE917:
 3050              		.loc 1 329 5 is_stmt 1 view .LVU1018
 3051              		.loc 1 347 1 is_stmt 0 view .LVU1019
 3052 0016 02B0     		add	sp, sp, #8
 3053              		.cfi_remember_state
 3054              		.cfi_def_cfa_offset 8
 3055              		@ sp needed
 3056 0018 10BD     		pop	{r4, pc}
 3057              	.L173:
 3058              		.cfi_restore_state
 3059              		.loc 1 331 3 is_stmt 1 view .LVU1020
 3060              		.loc 1 331 20 is_stmt 0 view .LVU1021
 3061 001a 0122     		movs	r2, #1
 3062 001c 1A70     		strb	r2, [r3]
 3063              		.loc 1 332 3 is_stmt 1 view .LVU1022
 3064              	.LBB923:
 3065              	.LBI923:
 3066              		.loc 2 584 20 view .LVU1023
 3067              		.loc 2 586 3 view .LVU1024
 3068              	.LBB924:
 3069              	.LBI924:
 3070              		.loc 3 421 20 view .LVU1025
 3071              	.LBB925:
 3072              		.loc 3 423 23 view .LVU1026
 3073              		.loc 3 424 34 view .LVU1027
 3074              		.loc 3 430 3 view .LVU1028
 3075              		.loc 3 430 3 view .LVU1029
 3076              		.loc 3 430 3 view .LVU1030
ARM GAS  C:\Users\DEVELO~1\AppData\Local\Temp\ccAozvLj.s 			page 55


 3077              		.loc 3 434 3 view .LVU1031
 3078              	.LBB926:
 3079              	.LBI926:
 3080              		.loc 4 830 27 view .LVU1032
 3081              		.loc 4 833 3 view .LVU1033
 3082              	.LVL181:
 3083              	.LBB927:
 3084              	.LBI927:
 3085              		.loc 5 491 27 view .LVU1034
 3086              	.LBB928:
 3087              		.loc 5 493 3 view .LVU1035
 3088              		.syntax unified
 3089              	@ 493 "../../../os/common/ext/ARM/CMSIS/Core/Include/cmsis_gcc.h" 1
 3090 001e 84F31188 		MSR basepri, r4
 3091              	@ 0 "" 2
 3092              	.LVL182:
 3093              		.loc 5 493 3 is_stmt 0 view .LVU1036
 3094              		.thumb
 3095              		.syntax unified
 3096              	.LBE928:
 3097              	.LBE927:
 3098              	.LBE926:
 3099              	.LBE925:
 3100              	.LBE924:
 3101              	.LBE923:
 3102              		.loc 1 334 3 is_stmt 1 view .LVU1037
 3103              		.loc 1 335 3 view .LVU1038
 3104 0022 1649     		ldr	r1, .L176+4
 3105 0024 1648     		ldr	r0, .L176+8
 3106 0026 FFF7FEFF 		bl	sdStart
 3107              	.LVL183:
 3108              		.loc 1 336 3 view .LVU1039
 3109              		.loc 1 337 29 is_stmt 0 view .LVU1040
 3110 002a 164B     		ldr	r3, .L176+12
 3111              		.loc 1 336 23 view .LVU1041
 3112 002c 164A     		ldr	r2, .L176+16
 3113              		.loc 1 338 26 view .LVU1042
 3114 002e 1748     		ldr	r0, .L176+20
 3115              		.loc 1 339 32 view .LVU1043
 3116 0030 1749     		ldr	r1, .L176+24
 3117              		.loc 1 337 29 view .LVU1044
 3118 0032 1C80     		strh	r4, [r3]	@ movhi
 3119              		.loc 1 340 21 view .LVU1045
 3120 0034 174B     		ldr	r3, .L176+28
 3121              		.loc 1 336 23 view .LVU1046
 3122 0036 1480     		strh	r4, [r2]	@ movhi
 3123              		.loc 1 337 3 is_stmt 1 view .LVU1047
 3124              		.loc 1 338 3 view .LVU1048
 3125              		.loc 1 341 3 is_stmt 0 view .LVU1049
 3126 0038 4FF48072 		mov	r2, #256
 3127              		.loc 1 338 26 view .LVU1050
 3128 003c 0480     		strh	r4, [r0]	@ movhi
 3129              		.loc 1 339 3 is_stmt 1 view .LVU1051
 3130              		.loc 1 339 32 is_stmt 0 view .LVU1052
 3131 003e 0C80     		strh	r4, [r1]	@ movhi
 3132              		.loc 1 340 3 is_stmt 1 view .LVU1053
 3133              		.loc 1 341 3 is_stmt 0 view .LVU1054
ARM GAS  C:\Users\DEVELO~1\AppData\Local\Temp\ccAozvLj.s 			page 56


 3134 0040 1548     		ldr	r0, .L176+32
 3135 0042 1649     		ldr	r1, .L176+36
 3136              		.loc 1 340 21 view .LVU1055
 3137 0044 1C60     		str	r4, [r3]
 3138              		.loc 1 341 3 is_stmt 1 view .LVU1056
 3139 0046 FFF7FEFF 		bl	chMBObjectInit
 3140              	.LVL184:
 3141              		.loc 1 342 3 view .LVU1057
 3142 004a 8022     		movs	r2, #128
 3143 004c 1448     		ldr	r0, .L176+40
 3144 004e 1549     		ldr	r1, .L176+44
 3145 0050 FFF7FEFF 		bl	chMBObjectInit
 3146              	.LVL185:
 3147              		.loc 1 343 3 view .LVU1058
 3148              	.LBB929:
 3149              	.LBI929:
 3150              		.loc 6 124 20 view .LVU1059
 3151              	.LBB930:
 3152              		.loc 6 126 3 view .LVU1060
 3153 0054 2146     		mov	r1, r4
 3154 0056 1448     		ldr	r0, .L176+48
 3155 0058 FFF7FEFF 		bl	chSemObjectInit
 3156              	.LVL186:
 3157              		.loc 6 126 3 is_stmt 0 view .LVU1061
 3158              	.LBE930:
 3159              	.LBE929:
 3160              		.loc 1 344 3 is_stmt 1 view .LVU1062
 3161              	.LBB931:
 3162              	.LBI931:
 3163              		.loc 6 124 20 view .LVU1063
 3164              	.LBB932:
 3165              		.loc 6 126 3 view .LVU1064
 3166 005c 2146     		mov	r1, r4
 3167 005e 1348     		ldr	r0, .L176+52
 3168 0060 FFF7FEFF 		bl	chSemObjectInit
 3169              	.LVL187:
 3170              		.loc 6 126 3 is_stmt 0 view .LVU1065
 3171              	.LBE932:
 3172              	.LBE931:
 3173              		.loc 1 345 3 is_stmt 1 view .LVU1066
 3174 0064 124B     		ldr	r3, .L176+56
 3175 0066 8122     		movs	r2, #129
 3176 0068 4FF43C71 		mov	r1, #752
 3177 006c 0094     		str	r4, [sp]
 3178 006e 1148     		ldr	r0, .L176+60
 3179 0070 FFF7FEFF 		bl	chThdCreateStatic
 3180              	.LVL188:
 3181              		.loc 1 347 1 is_stmt 0 view .LVU1067
 3182 0074 02B0     		add	sp, sp, #8
 3183              		.cfi_def_cfa_offset 8
 3184              		@ sp needed
 3185 0076 10BD     		pop	{r4, pc}
 3186              	.L177:
 3187              		.align	2
 3188              	.L176:
 3189 0078 00000000 		.word	.LANCHOR12
 3190 007c 00000000 		.word	.LANCHOR13
ARM GAS  C:\Users\DEVELO~1\AppData\Local\Temp\ccAozvLj.s 			page 57


 3191 0080 00000000 		.word	SD3
 3192 0084 00000000 		.word	.LANCHOR3
 3193 0088 00000000 		.word	.LANCHOR1
 3194 008c 00000000 		.word	.LANCHOR5
 3195 0090 00000000 		.word	.LANCHOR11
 3196 0094 00000000 		.word	.LANCHOR10
 3197 0098 00000000 		.word	.LANCHOR0
 3198 009c 00000000 		.word	.LANCHOR14
 3199 00a0 00000000 		.word	.LANCHOR8
 3200 00a4 00000000 		.word	.LANCHOR15
 3201 00a8 00000000 		.word	.LANCHOR4
 3202 00ac 00000000 		.word	.LANCHOR9
 3203 00b0 00000000 		.word	thdMidiUsbTx
 3204 00b4 00000000 		.word	.LANCHOR16
 3205              		.cfi_endproc
 3206              	.LFE441:
 3207              		.size	midi_init, .-midi_init
 3208              		.section	.text.midi_is_initialized,"ax",%progbits
 3209              		.align	1
 3210              		.p2align 4,,15
 3211              		.global	midi_is_initialized
 3212              		.syntax unified
 3213              		.thumb
 3214              		.thumb_func
 3215              		.type	midi_is_initialized, %function
 3216              	midi_is_initialized:
 3217              	.LFB442:
 3218              		.loc 1 349 32 is_stmt 1 view -0
 3219              		.cfi_startproc
 3220              		@ args = 0, pretend = 0, frame = 0
 3221              		@ frame_needed = 0, uses_anonymous_args = 0
 3222              		@ link register save eliminated.
 3223              		.loc 1 350 3 view .LVU1069
 3224              		.loc 1 352 3 view .LVU1070
 3225              	.LBB933:
 3226              	.LBI933:
 3227              		.loc 2 573 20 view .LVU1071
 3228              		.loc 2 575 3 view .LVU1072
 3229              	.LBB934:
 3230              	.LBI934:
 3231              		.loc 3 407 20 view .LVU1073
 3232              		.loc 3 409 3 view .LVU1074
 3233              	.LBB935:
 3234              	.LBI935:
 3235              		.loc 4 806 27 view .LVU1075
 3236              		.loc 4 814 3 view .LVU1076
 3237              	.LVL189:
 3238              	.LBB936:
 3239              	.LBI936:
 3240              		.loc 5 491 27 view .LVU1077
 3241              	.LBB937:
 3242              		.loc 5 493 3 view .LVU1078
 3243 0000 3023     		movs	r3, #48
 3244              		.syntax unified
 3245              	@ 493 "../../../os/common/ext/ARM/CMSIS/Core/Include/cmsis_gcc.h" 1
 3246 0002 83F31188 		MSR basepri, r3
 3247              	@ 0 "" 2
ARM GAS  C:\Users\DEVELO~1\AppData\Local\Temp\ccAozvLj.s 			page 58


 3248              	.LVL190:
 3249              		.loc 5 493 3 is_stmt 0 view .LVU1079
 3250              		.thumb
 3251              		.syntax unified
 3252              	.LBE937:
 3253              	.LBE936:
 3254              	.LBE935:
 3255              		.loc 3 410 35 is_stmt 1 view .LVU1080
 3256              		.loc 3 411 21 view .LVU1081
 3257              	.LBE934:
 3258              	.LBE933:
 3259              		.loc 1 353 3 view .LVU1082
 3260              		.loc 1 353 15 is_stmt 0 view .LVU1083
 3261 0006 034A     		ldr	r2, .L179
 3262              	.LBB938:
 3263              	.LBB939:
 3264              	.LBB940:
 3265              	.LBB941:
 3266              	.LBB942:
 3267              	.LBB943:
 3268              		.loc 5 493 3 view .LVU1084
 3269 0008 0023     		movs	r3, #0
 3270              	.LBE943:
 3271              	.LBE942:
 3272              	.LBE941:
 3273              	.LBE940:
 3274              	.LBE939:
 3275              	.LBE938:
 3276              		.loc 1 353 15 view .LVU1085
 3277 000a 1078     		ldrb	r0, [r2]	@ zero_extendqisi2
 3278              	.LVL191:
 3279              		.loc 1 354 3 is_stmt 1 view .LVU1086
 3280              	.LBB949:
 3281              	.LBI938:
 3282              		.loc 2 584 20 view .LVU1087
 3283              		.loc 2 586 3 view .LVU1088
 3284              	.LBB948:
 3285              	.LBI939:
 3286              		.loc 3 421 20 view .LVU1089
 3287              	.LBB947:
 3288              		.loc 3 423 23 view .LVU1090
 3289              		.loc 3 424 34 view .LVU1091
 3290              		.loc 3 430 3 view .LVU1092
 3291              		.loc 3 430 3 view .LVU1093
 3292              		.loc 3 430 3 view .LVU1094
 3293              		.loc 3 434 3 view .LVU1095
 3294              	.LBB946:
 3295              	.LBI941:
 3296              		.loc 4 830 27 view .LVU1096
 3297              		.loc 4 833 3 view .LVU1097
 3298              	.LBB945:
 3299              	.LBI942:
 3300              		.loc 5 491 27 view .LVU1098
 3301              	.LBB944:
 3302              		.loc 5 493 3 view .LVU1099
 3303              		.syntax unified
 3304              	@ 493 "../../../os/common/ext/ARM/CMSIS/Core/Include/cmsis_gcc.h" 1
ARM GAS  C:\Users\DEVELO~1\AppData\Local\Temp\ccAozvLj.s 			page 59


 3305 000c 83F31188 		MSR basepri, r3
 3306              	@ 0 "" 2
 3307              	.LVL192:
 3308              		.loc 5 493 3 is_stmt 0 view .LVU1100
 3309              		.thumb
 3310              		.syntax unified
 3311              	.LBE944:
 3312              	.LBE945:
 3313              	.LBE946:
 3314              	.LBE947:
 3315              	.LBE948:
 3316              	.LBE949:
 3317              		.loc 1 356 3 is_stmt 1 view .LVU1101
 3318              		.loc 1 357 1 is_stmt 0 view .LVU1102
 3319 0010 7047     		bx	lr
 3320              	.L180:
 3321 0012 00BF     		.align	2
 3322              	.L179:
 3323 0014 00000000 		.word	.LANCHOR12
 3324              		.cfi_endproc
 3325              	.LFE442:
 3326              		.size	midi_is_initialized, .-midi_is_initialized
 3327              		.section	.text.midi_set_rx_destination,"ax",%progbits
 3328              		.align	1
 3329              		.p2align 4,,15
 3330              		.global	midi_set_rx_destination
 3331              		.syntax unified
 3332              		.thumb
 3333              		.thumb_func
 3334              		.type	midi_set_rx_destination, %function
 3335              	midi_set_rx_destination:
 3336              	.LVL193:
 3337              	.LFB450:
 3338              		.loc 1 604 48 is_stmt 1 view -0
 3339              		.cfi_startproc
 3340              		@ args = 0, pretend = 0, frame = 0
 3341              		@ frame_needed = 0, uses_anonymous_args = 0
 3342              		@ link register save eliminated.
 3343              		.loc 1 605 3 view .LVU1104
 3344 0000 421E     		subs	r2, r0, #1
 3345 0002 034B     		ldr	r3, .L183
 3346              		.loc 1 612 20 is_stmt 0 view .LVU1105
 3347 0004 032A     		cmp	r2, #3
 3348 0006 28BF     		it	cs
 3349 0008 0320     		movcs	r0, #3
 3350              	.LVL194:
 3351              		.loc 1 612 20 view .LVU1106
 3352 000a 1870     		strb	r0, [r3]
 3353              		.loc 1 615 1 view .LVU1107
 3354 000c 7047     		bx	lr
 3355              	.L184:
 3356 000e 00BF     		.align	2
 3357              	.L183:
 3358 0010 00000000 		.word	.LANCHOR6
 3359              		.cfi_endproc
 3360              	.LFE450:
 3361              		.size	midi_set_rx_destination, .-midi_set_rx_destination
ARM GAS  C:\Users\DEVELO~1\AppData\Local\Temp\ccAozvLj.s 			page 60


 3362              		.section	.text.midi_get_rx_destination,"ax",%progbits
 3363              		.align	1
 3364              		.p2align 4,,15
 3365              		.global	midi_get_rx_destination
 3366              		.syntax unified
 3367              		.thumb
 3368              		.thumb_func
 3369              		.type	midi_get_rx_destination, %function
 3370              	midi_get_rx_destination:
 3371              	.LFB451:
 3372              		.loc 1 617 43 is_stmt 1 view -0
 3373              		.cfi_startproc
 3374              		@ args = 0, pretend = 0, frame = 0
 3375              		@ frame_needed = 0, uses_anonymous_args = 0
 3376              		@ link register save eliminated.
 3377              		.loc 1 618 3 view .LVU1109
 3378              		.loc 1 618 10 is_stmt 0 view .LVU1110
 3379 0000 014B     		ldr	r3, .L186
 3380              		.loc 1 619 1 view .LVU1111
 3381 0002 1878     		ldrb	r0, [r3]	@ zero_extendqisi2
 3382 0004 7047     		bx	lr
 3383              	.L187:
 3384 0006 00BF     		.align	2
 3385              	.L186:
 3386 0008 00000000 		.word	.LANCHOR6
 3387              		.cfi_endproc
 3388              	.LFE451:
 3389              		.size	midi_get_rx_destination, .-midi_get_rx_destination
 3390              		.section	.text.midi_note_on,"ax",%progbits
 3391              		.align	1
 3392              		.p2align 4,,15
 3393              		.global	midi_note_on
 3394              		.syntax unified
 3395              		.thumb
 3396              		.thumb_func
 3397              		.type	midi_note_on, %function
 3398              	midi_note_on:
 3399              	.LVL195:
 3400              	.LFB452:
 3401              		.loc 1 625 64 is_stmt 1 view -0
 3402              		.cfi_startproc
 3403              		@ args = 0, pretend = 0, frame = 8
 3404              		@ frame_needed = 0, uses_anonymous_args = 0
 3405              		.loc 1 626 3 view .LVU1113
 3406              		.loc 1 626 23 view .LVU1114
 3407              		.loc 1 625 64 is_stmt 0 view .LVU1115
 3408 0000 00B5     		push	{lr}
 3409              		.cfi_def_cfa_offset 4
 3410              		.cfi_offset 14, -4
 3411              		.loc 1 626 6 view .LVU1116
 3412 0002 13F07F03 		ands	r3, r3, #127
 3413              	.LVL196:
 3414              		.loc 1 625 64 view .LVU1117
 3415 0006 83B0     		sub	sp, sp, #12
 3416              		.cfi_def_cfa_offset 16
 3417              	.LBB952:
 3418              	.LBB953:
ARM GAS  C:\Users\DEVELO~1\AppData\Local\Temp\ccAozvLj.s 			page 61


 3419              		.loc 1 632 36 view .LVU1118
 3420 0008 01F00F01 		and	r1, r1, #15
 3421              	.LVL197:
 3422              		.loc 1 632 45 view .LVU1119
 3423 000c 02F07F0C 		and	ip, r2, #127
 3424              		.loc 1 632 11 view .LVU1120
 3425 0010 8DF80630 		strb	r3, [sp, #6]
 3426              		.loc 1 633 3 view .LVU1121
 3427 0014 4FF00302 		mov	r2, #3
 3428              	.LVL198:
 3429              		.loc 1 633 3 view .LVU1122
 3430              	.LBE953:
 3431              	.LBI952:
 3432              		.loc 1 631 6 is_stmt 1 view .LVU1123
 3433              	.LBB954:
 3434              		.loc 1 632 3 view .LVU1124
 3435              		.loc 1 633 3 view .LVU1125
 3436              	.LBE954:
 3437              	.LBE952:
 3438              		.loc 1 627 3 view .LVU1126
 3439              		.loc 1 628 3 view .LVU1127
 3440              	.LBB956:
 3441              	.LBB955:
 3442              		.loc 1 632 32 is_stmt 0 view .LVU1128
 3443 0018 0CBF     		ite	eq
 3444 001a 61F07F03 		orneq	r3, r1, #127
 3445              	.LBE955:
 3446              	.LBE956:
 3447              		.loc 1 627 32 view .LVU1129
 3448 001e 61F06F03 		ornne	r3, r1, #111
 3449              		.loc 1 628 3 view .LVU1130
 3450 0022 01A9     		add	r1, sp, #4
 3451              	.LVL199:
 3452              		.loc 1 627 11 view .LVU1131
 3453 0024 8DF805C0 		strb	ip, [sp, #5]
 3454 0028 8DF80430 		strb	r3, [sp, #4]
 3455              		.loc 1 628 3 view .LVU1132
 3456 002c FFF7FEFF 		bl	midi_send
 3457              	.LVL200:
 3458              		.loc 1 629 1 view .LVU1133
 3459 0030 03B0     		add	sp, sp, #12
 3460              		.cfi_def_cfa_offset 4
 3461              		@ sp needed
 3462 0032 5DF804FB 		ldr	pc, [sp], #4
 3463              		.cfi_endproc
 3464              	.LFE452:
 3465              		.size	midi_note_on, .-midi_note_on
 3466 0036 00BF     		.section	.text.midi_note_off,"ax",%progbits
 3467              		.align	1
 3468              		.p2align 4,,15
 3469              		.global	midi_note_off
 3470              		.syntax unified
 3471              		.thumb
 3472              		.thumb_func
 3473              		.type	midi_note_off, %function
 3474              	midi_note_off:
 3475              	.LVL201:
ARM GAS  C:\Users\DEVELO~1\AppData\Local\Temp\ccAozvLj.s 			page 62


 3476              	.LFB453:
 3477              		.loc 1 631 65 is_stmt 1 view -0
 3478              		.cfi_startproc
 3479              		@ args = 0, pretend = 0, frame = 8
 3480              		@ frame_needed = 0, uses_anonymous_args = 0
 3481              		.loc 1 632 3 view .LVU1135
 3482              		.loc 1 632 36 is_stmt 0 view .LVU1136
 3483 0000 01F00F01 		and	r1, r1, #15
 3484              	.LVL202:
 3485              		.loc 1 632 45 view .LVU1137
 3486 0004 02F07F02 		and	r2, r2, #127
 3487              	.LVL203:
 3488              		.loc 1 632 64 view .LVU1138
 3489 0008 03F07F03 		and	r3, r3, #127
 3490              	.LVL204:
 3491              	.LBB967:
 3492              	.LBB968:
 3493              		.loc 1 596 3 view .LVU1139
 3494 000c 0228     		cmp	r0, #2
 3495              	.LBE968:
 3496              	.LBE967:
 3497              		.loc 1 632 32 view .LVU1140
 3498 000e 61F07F01 		orn	r1, r1, #127
 3499              		.loc 1 631 65 view .LVU1141
 3500 0012 10B5     		push	{r4, lr}
 3501              		.cfi_def_cfa_offset 8
 3502              		.cfi_offset 4, -8
 3503              		.cfi_offset 14, -4
 3504 0014 82B0     		sub	sp, sp, #8
 3505              		.cfi_def_cfa_offset 16
 3506              		.loc 1 632 11 view .LVU1142
 3507 0016 8DF80520 		strb	r2, [sp, #5]
 3508 001a 8DF80630 		strb	r3, [sp, #6]
 3509              		.loc 1 633 3 is_stmt 1 view .LVU1143
 3510              	.LVL205:
 3511              	.LBB980:
 3512              	.LBI967:
 3513              		.loc 1 595 13 view .LVU1144
 3514              	.LBB975:
 3515              		.loc 1 596 3 view .LVU1145
 3516              	.LBE975:
 3517              	.LBE980:
 3518              		.loc 1 632 11 is_stmt 0 view .LVU1146
 3519 001e 8DF80410 		strb	r1, [sp, #4]
 3520              	.LBB981:
 3521              	.LBB976:
 3522              		.loc 1 596 3 view .LVU1147
 3523 0022 06D0     		beq	.L193
 3524 0024 0328     		cmp	r0, #3
 3525 0026 0446     		mov	r4, r0
 3526 0028 12D0     		beq	.L194
 3527 002a 0128     		cmp	r0, #1
 3528 002c 07D0     		beq	.L197
 3529              	.LBE976:
 3530              	.LBE981:
 3531              		.loc 1 634 1 view .LVU1148
 3532 002e 02B0     		add	sp, sp, #8
ARM GAS  C:\Users\DEVELO~1\AppData\Local\Temp\ccAozvLj.s 			page 63


 3533              		.cfi_remember_state
 3534              		.cfi_def_cfa_offset 8
 3535              		@ sp needed
 3536 0030 10BD     		pop	{r4, pc}
 3537              	.LVL206:
 3538              	.L193:
 3539              		.cfi_restore_state
 3540              	.LBB982:
 3541              	.LBB977:
 3542              		.loc 1 598 26 is_stmt 1 view .LVU1149
 3543 0032 0321     		movs	r1, #3
 3544 0034 01A8     		add	r0, sp, #4
 3545              	.LVL207:
 3546              		.loc 1 598 26 is_stmt 0 view .LVU1150
 3547 0036 FFF7FEFF 		bl	send_usb
 3548              	.LVL208:
 3549              		.loc 1 598 42 is_stmt 1 view .LVU1151
 3550              	.LBE977:
 3551              	.LBE982:
 3552              		.loc 1 634 1 is_stmt 0 view .LVU1152
 3553 003a 02B0     		add	sp, sp, #8
 3554              		.cfi_remember_state
 3555              		.cfi_def_cfa_offset 8
 3556              		@ sp needed
 3557 003c 10BD     		pop	{r4, pc}
 3558              	.LVL209:
 3559              	.L197:
 3560              		.cfi_restore_state
 3561              	.LBB983:
 3562              	.LBB978:
 3563              		.loc 1 597 26 is_stmt 1 view .LVU1153
 3564              	.LBB969:
 3565              	.LBI969:
 3566              		.loc 1 368 13 view .LVU1154
 3567              	.LBB970:
 3568              		.loc 1 368 57 view .LVU1155
 3569 003e 4FF0FF33 		mov	r3, #-1
 3570 0042 0322     		movs	r2, #3
 3571 0044 01A9     		add	r1, sp, #4
 3572              	.LVL210:
 3573              		.loc 1 368 57 is_stmt 0 view .LVU1156
 3574 0046 0948     		ldr	r0, .L198
 3575              	.LVL211:
 3576              		.loc 1 368 57 view .LVU1157
 3577 0048 FFF7FEFF 		bl	oqWriteTimeout
 3578              	.LVL212:
 3579              		.loc 1 368 57 view .LVU1158
 3580              	.LBE970:
 3581              	.LBE969:
 3582              	.LBE978:
 3583              	.LBE983:
 3584              		.loc 1 634 1 view .LVU1159
 3585 004c 02B0     		add	sp, sp, #8
 3586              		.cfi_remember_state
 3587              		.cfi_def_cfa_offset 8
 3588              		@ sp needed
 3589 004e 10BD     		pop	{r4, pc}
ARM GAS  C:\Users\DEVELO~1\AppData\Local\Temp\ccAozvLj.s 			page 64


 3590              	.LVL213:
 3591              	.L194:
 3592              		.cfi_restore_state
 3593              	.LBB984:
 3594              	.LBB979:
 3595              	.LBB971:
 3596              	.LBI971:
 3597              		.loc 1 595 13 is_stmt 1 view .LVU1160
 3598              	.LBB972:
 3599              		.loc 1 599 26 view .LVU1161
 3600              	.LBB973:
 3601              	.LBI973:
 3602              		.loc 1 368 13 view .LVU1162
 3603              	.LBB974:
 3604              		.loc 1 368 57 view .LVU1163
 3605 0050 0246     		mov	r2, r0
 3606 0052 4FF0FF33 		mov	r3, #-1
 3607 0056 01A9     		add	r1, sp, #4
 3608              	.LVL214:
 3609              		.loc 1 368 57 is_stmt 0 view .LVU1164
 3610 0058 0448     		ldr	r0, .L198
 3611              	.LVL215:
 3612              		.loc 1 368 57 view .LVU1165
 3613 005a FFF7FEFF 		bl	oqWriteTimeout
 3614              	.LVL216:
 3615              		.loc 1 368 57 view .LVU1166
 3616              	.LBE974:
 3617              	.LBE973:
 3618              		.loc 1 599 42 is_stmt 1 view .LVU1167
 3619 005e 2146     		mov	r1, r4
 3620 0060 01A8     		add	r0, sp, #4
 3621              	.LVL217:
 3622              		.loc 1 599 42 is_stmt 0 view .LVU1168
 3623 0062 FFF7FEFF 		bl	send_usb
 3624              	.LVL218:
 3625              		.loc 1 599 57 is_stmt 1 view .LVU1169
 3626              		.loc 1 599 57 is_stmt 0 view .LVU1170
 3627              	.LBE972:
 3628              	.LBE971:
 3629              	.LBE979:
 3630              	.LBE984:
 3631              		.loc 1 634 1 view .LVU1171
 3632 0066 02B0     		add	sp, sp, #8
 3633              		.cfi_def_cfa_offset 8
 3634              		@ sp needed
 3635 0068 10BD     		pop	{r4, pc}
 3636              	.L199:
 3637 006a 00BF     		.align	2
 3638              	.L198:
 3639 006c 30000000 		.word	SD3+48
 3640              		.cfi_endproc
 3641              	.LFE453:
 3642              		.size	midi_note_off, .-midi_note_off
 3643              		.section	.text.midi_poly_aftertouch,"ax",%progbits
 3644              		.align	1
 3645              		.p2align 4,,15
 3646              		.global	midi_poly_aftertouch
ARM GAS  C:\Users\DEVELO~1\AppData\Local\Temp\ccAozvLj.s 			page 65


 3647              		.syntax unified
 3648              		.thumb
 3649              		.thumb_func
 3650              		.type	midi_poly_aftertouch, %function
 3651              	midi_poly_aftertouch:
 3652              	.LVL219:
 3653              	.LFB454:
 3654              		.loc 1 636 72 is_stmt 1 view -0
 3655              		.cfi_startproc
 3656              		@ args = 0, pretend = 0, frame = 8
 3657              		@ frame_needed = 0, uses_anonymous_args = 0
 3658              		.loc 1 637 3 view .LVU1173
 3659              		.loc 1 637 36 is_stmt 0 view .LVU1174
 3660 0000 01F00F01 		and	r1, r1, #15
 3661              	.LVL220:
 3662              		.loc 1 637 45 view .LVU1175
 3663 0004 02F07F02 		and	r2, r2, #127
 3664              	.LVL221:
 3665              		.loc 1 637 64 view .LVU1176
 3666 0008 03F07F03 		and	r3, r3, #127
 3667              	.LVL222:
 3668              	.LBB995:
 3669              	.LBB996:
 3670              		.loc 1 596 3 view .LVU1177
 3671 000c 0228     		cmp	r0, #2
 3672              	.LBE996:
 3673              	.LBE995:
 3674              		.loc 1 637 32 view .LVU1178
 3675 000e 61F05F01 		orn	r1, r1, #95
 3676              		.loc 1 636 72 view .LVU1179
 3677 0012 10B5     		push	{r4, lr}
 3678              		.cfi_def_cfa_offset 8
 3679              		.cfi_offset 4, -8
 3680              		.cfi_offset 14, -4
 3681 0014 82B0     		sub	sp, sp, #8
 3682              		.cfi_def_cfa_offset 16
 3683              		.loc 1 637 11 view .LVU1180
 3684 0016 8DF80520 		strb	r2, [sp, #5]
 3685 001a 8DF80630 		strb	r3, [sp, #6]
 3686              		.loc 1 638 3 is_stmt 1 view .LVU1181
 3687              	.LVL223:
 3688              	.LBB1008:
 3689              	.LBI995:
 3690              		.loc 1 595 13 view .LVU1182
 3691              	.LBB1003:
 3692              		.loc 1 596 3 view .LVU1183
 3693              	.LBE1003:
 3694              	.LBE1008:
 3695              		.loc 1 637 11 is_stmt 0 view .LVU1184
 3696 001e 8DF80410 		strb	r1, [sp, #4]
 3697              	.LBB1009:
 3698              	.LBB1004:
 3699              		.loc 1 596 3 view .LVU1185
 3700 0022 06D0     		beq	.L201
 3701 0024 0328     		cmp	r0, #3
 3702 0026 0446     		mov	r4, r0
 3703 0028 12D0     		beq	.L202
ARM GAS  C:\Users\DEVELO~1\AppData\Local\Temp\ccAozvLj.s 			page 66


 3704 002a 0128     		cmp	r0, #1
 3705 002c 07D0     		beq	.L205
 3706              	.LBE1004:
 3707              	.LBE1009:
 3708              		.loc 1 639 1 view .LVU1186
 3709 002e 02B0     		add	sp, sp, #8
 3710              		.cfi_remember_state
 3711              		.cfi_def_cfa_offset 8
 3712              		@ sp needed
 3713 0030 10BD     		pop	{r4, pc}
 3714              	.LVL224:
 3715              	.L201:
 3716              		.cfi_restore_state
 3717              	.LBB1010:
 3718              	.LBB1005:
 3719              		.loc 1 598 26 is_stmt 1 view .LVU1187
 3720 0032 0321     		movs	r1, #3
 3721 0034 01A8     		add	r0, sp, #4
 3722              	.LVL225:
 3723              		.loc 1 598 26 is_stmt 0 view .LVU1188
 3724 0036 FFF7FEFF 		bl	send_usb
 3725              	.LVL226:
 3726              		.loc 1 598 42 is_stmt 1 view .LVU1189
 3727              	.LBE1005:
 3728              	.LBE1010:
 3729              		.loc 1 639 1 is_stmt 0 view .LVU1190
 3730 003a 02B0     		add	sp, sp, #8
 3731              		.cfi_remember_state
 3732              		.cfi_def_cfa_offset 8
 3733              		@ sp needed
 3734 003c 10BD     		pop	{r4, pc}
 3735              	.LVL227:
 3736              	.L205:
 3737              		.cfi_restore_state
 3738              	.LBB1011:
 3739              	.LBB1006:
 3740              		.loc 1 597 26 is_stmt 1 view .LVU1191
 3741              	.LBB997:
 3742              	.LBI997:
 3743              		.loc 1 368 13 view .LVU1192
 3744              	.LBB998:
 3745              		.loc 1 368 57 view .LVU1193
 3746 003e 4FF0FF33 		mov	r3, #-1
 3747 0042 0322     		movs	r2, #3
 3748 0044 01A9     		add	r1, sp, #4
 3749              	.LVL228:
 3750              		.loc 1 368 57 is_stmt 0 view .LVU1194
 3751 0046 0948     		ldr	r0, .L206
 3752              	.LVL229:
 3753              		.loc 1 368 57 view .LVU1195
 3754 0048 FFF7FEFF 		bl	oqWriteTimeout
 3755              	.LVL230:
 3756              		.loc 1 368 57 view .LVU1196
 3757              	.LBE998:
 3758              	.LBE997:
 3759              	.LBE1006:
 3760              	.LBE1011:
ARM GAS  C:\Users\DEVELO~1\AppData\Local\Temp\ccAozvLj.s 			page 67


 3761              		.loc 1 639 1 view .LVU1197
 3762 004c 02B0     		add	sp, sp, #8
 3763              		.cfi_remember_state
 3764              		.cfi_def_cfa_offset 8
 3765              		@ sp needed
 3766 004e 10BD     		pop	{r4, pc}
 3767              	.LVL231:
 3768              	.L202:
 3769              		.cfi_restore_state
 3770              	.LBB1012:
 3771              	.LBB1007:
 3772              	.LBB999:
 3773              	.LBI999:
 3774              		.loc 1 595 13 is_stmt 1 view .LVU1198
 3775              	.LBB1000:
 3776              		.loc 1 599 26 view .LVU1199
 3777              	.LBB1001:
 3778              	.LBI1001:
 3779              		.loc 1 368 13 view .LVU1200
 3780              	.LBB1002:
 3781              		.loc 1 368 57 view .LVU1201
 3782 0050 0246     		mov	r2, r0
 3783 0052 4FF0FF33 		mov	r3, #-1
 3784 0056 01A9     		add	r1, sp, #4
 3785              	.LVL232:
 3786              		.loc 1 368 57 is_stmt 0 view .LVU1202
 3787 0058 0448     		ldr	r0, .L206
 3788              	.LVL233:
 3789              		.loc 1 368 57 view .LVU1203
 3790 005a FFF7FEFF 		bl	oqWriteTimeout
 3791              	.LVL234:
 3792              		.loc 1 368 57 view .LVU1204
 3793              	.LBE1002:
 3794              	.LBE1001:
 3795              		.loc 1 599 42 is_stmt 1 view .LVU1205
 3796 005e 2146     		mov	r1, r4
 3797 0060 01A8     		add	r0, sp, #4
 3798              	.LVL235:
 3799              		.loc 1 599 42 is_stmt 0 view .LVU1206
 3800 0062 FFF7FEFF 		bl	send_usb
 3801              	.LVL236:
 3802              		.loc 1 599 57 is_stmt 1 view .LVU1207
 3803              		.loc 1 599 57 is_stmt 0 view .LVU1208
 3804              	.LBE1000:
 3805              	.LBE999:
 3806              	.LBE1007:
 3807              	.LBE1012:
 3808              		.loc 1 639 1 view .LVU1209
 3809 0066 02B0     		add	sp, sp, #8
 3810              		.cfi_def_cfa_offset 8
 3811              		@ sp needed
 3812 0068 10BD     		pop	{r4, pc}
 3813              	.L207:
 3814 006a 00BF     		.align	2
 3815              	.L206:
 3816 006c 30000000 		.word	SD3+48
 3817              		.cfi_endproc
ARM GAS  C:\Users\DEVELO~1\AppData\Local\Temp\ccAozvLj.s 			page 68


 3818              	.LFE454:
 3819              		.size	midi_poly_aftertouch, .-midi_poly_aftertouch
 3820              		.section	.text.midi_cc,"ax",%progbits
 3821              		.align	1
 3822              		.p2align 4,,15
 3823              		.global	midi_cc
 3824              		.syntax unified
 3825              		.thumb
 3826              		.thumb_func
 3827              		.type	midi_cc, %function
 3828              	midi_cc:
 3829              	.LVL237:
 3830              	.LFB455:
 3831              		.loc 1 641 59 is_stmt 1 view -0
 3832              		.cfi_startproc
 3833              		@ args = 0, pretend = 0, frame = 8
 3834              		@ frame_needed = 0, uses_anonymous_args = 0
 3835              		.loc 1 642 3 view .LVU1211
 3836              		.loc 1 642 36 is_stmt 0 view .LVU1212
 3837 0000 01F00F01 		and	r1, r1, #15
 3838              	.LVL238:
 3839              		.loc 1 642 45 view .LVU1213
 3840 0004 02F07F02 		and	r2, r2, #127
 3841              	.LVL239:
 3842              		.loc 1 642 64 view .LVU1214
 3843 0008 03F07F03 		and	r3, r3, #127
 3844              	.LVL240:
 3845              	.LBB1023:
 3846              	.LBB1024:
 3847              		.loc 1 596 3 view .LVU1215
 3848 000c 0228     		cmp	r0, #2
 3849              	.LBE1024:
 3850              	.LBE1023:
 3851              		.loc 1 642 32 view .LVU1216
 3852 000e 61F04F01 		orn	r1, r1, #79
 3853              		.loc 1 641 59 view .LVU1217
 3854 0012 10B5     		push	{r4, lr}
 3855              		.cfi_def_cfa_offset 8
 3856              		.cfi_offset 4, -8
 3857              		.cfi_offset 14, -4
 3858 0014 82B0     		sub	sp, sp, #8
 3859              		.cfi_def_cfa_offset 16
 3860              		.loc 1 642 11 view .LVU1218
 3861 0016 8DF80520 		strb	r2, [sp, #5]
 3862 001a 8DF80630 		strb	r3, [sp, #6]
 3863              		.loc 1 643 3 is_stmt 1 view .LVU1219
 3864              	.LVL241:
 3865              	.LBB1036:
 3866              	.LBI1023:
 3867              		.loc 1 595 13 view .LVU1220
 3868              	.LBB1031:
 3869              		.loc 1 596 3 view .LVU1221
 3870              	.LBE1031:
 3871              	.LBE1036:
 3872              		.loc 1 642 11 is_stmt 0 view .LVU1222
 3873 001e 8DF80410 		strb	r1, [sp, #4]
 3874              	.LBB1037:
ARM GAS  C:\Users\DEVELO~1\AppData\Local\Temp\ccAozvLj.s 			page 69


 3875              	.LBB1032:
 3876              		.loc 1 596 3 view .LVU1223
 3877 0022 06D0     		beq	.L209
 3878 0024 0328     		cmp	r0, #3
 3879 0026 0446     		mov	r4, r0
 3880 0028 12D0     		beq	.L210
 3881 002a 0128     		cmp	r0, #1
 3882 002c 07D0     		beq	.L213
 3883              	.LBE1032:
 3884              	.LBE1037:
 3885              		.loc 1 644 1 view .LVU1224
 3886 002e 02B0     		add	sp, sp, #8
 3887              		.cfi_remember_state
 3888              		.cfi_def_cfa_offset 8
 3889              		@ sp needed
 3890 0030 10BD     		pop	{r4, pc}
 3891              	.LVL242:
 3892              	.L209:
 3893              		.cfi_restore_state
 3894              	.LBB1038:
 3895              	.LBB1033:
 3896              		.loc 1 598 26 is_stmt 1 view .LVU1225
 3897 0032 0321     		movs	r1, #3
 3898 0034 01A8     		add	r0, sp, #4
 3899              	.LVL243:
 3900              		.loc 1 598 26 is_stmt 0 view .LVU1226
 3901 0036 FFF7FEFF 		bl	send_usb
 3902              	.LVL244:
 3903              		.loc 1 598 42 is_stmt 1 view .LVU1227
 3904              	.LBE1033:
 3905              	.LBE1038:
 3906              		.loc 1 644 1 is_stmt 0 view .LVU1228
 3907 003a 02B0     		add	sp, sp, #8
 3908              		.cfi_remember_state
 3909              		.cfi_def_cfa_offset 8
 3910              		@ sp needed
 3911 003c 10BD     		pop	{r4, pc}
 3912              	.LVL245:
 3913              	.L213:
 3914              		.cfi_restore_state
 3915              	.LBB1039:
 3916              	.LBB1034:
 3917              		.loc 1 597 26 is_stmt 1 view .LVU1229
 3918              	.LBB1025:
 3919              	.LBI1025:
 3920              		.loc 1 368 13 view .LVU1230
 3921              	.LBB1026:
 3922              		.loc 1 368 57 view .LVU1231
 3923 003e 4FF0FF33 		mov	r3, #-1
 3924 0042 0322     		movs	r2, #3
 3925 0044 01A9     		add	r1, sp, #4
 3926              	.LVL246:
 3927              		.loc 1 368 57 is_stmt 0 view .LVU1232
 3928 0046 0948     		ldr	r0, .L214
 3929              	.LVL247:
 3930              		.loc 1 368 57 view .LVU1233
 3931 0048 FFF7FEFF 		bl	oqWriteTimeout
ARM GAS  C:\Users\DEVELO~1\AppData\Local\Temp\ccAozvLj.s 			page 70


 3932              	.LVL248:
 3933              		.loc 1 368 57 view .LVU1234
 3934              	.LBE1026:
 3935              	.LBE1025:
 3936              	.LBE1034:
 3937              	.LBE1039:
 3938              		.loc 1 644 1 view .LVU1235
 3939 004c 02B0     		add	sp, sp, #8
 3940              		.cfi_remember_state
 3941              		.cfi_def_cfa_offset 8
 3942              		@ sp needed
 3943 004e 10BD     		pop	{r4, pc}
 3944              	.LVL249:
 3945              	.L210:
 3946              		.cfi_restore_state
 3947              	.LBB1040:
 3948              	.LBB1035:
 3949              	.LBB1027:
 3950              	.LBI1027:
 3951              		.loc 1 595 13 is_stmt 1 view .LVU1236
 3952              	.LBB1028:
 3953              		.loc 1 599 26 view .LVU1237
 3954              	.LBB1029:
 3955              	.LBI1029:
 3956              		.loc 1 368 13 view .LVU1238
 3957              	.LBB1030:
 3958              		.loc 1 368 57 view .LVU1239
 3959 0050 0246     		mov	r2, r0
 3960 0052 4FF0FF33 		mov	r3, #-1
 3961 0056 01A9     		add	r1, sp, #4
 3962              	.LVL250:
 3963              		.loc 1 368 57 is_stmt 0 view .LVU1240
 3964 0058 0448     		ldr	r0, .L214
 3965              	.LVL251:
 3966              		.loc 1 368 57 view .LVU1241
 3967 005a FFF7FEFF 		bl	oqWriteTimeout
 3968              	.LVL252:
 3969              		.loc 1 368 57 view .LVU1242
 3970              	.LBE1030:
 3971              	.LBE1029:
 3972              		.loc 1 599 42 is_stmt 1 view .LVU1243
 3973 005e 2146     		mov	r1, r4
 3974 0060 01A8     		add	r0, sp, #4
 3975              	.LVL253:
 3976              		.loc 1 599 42 is_stmt 0 view .LVU1244
 3977 0062 FFF7FEFF 		bl	send_usb
 3978              	.LVL254:
 3979              		.loc 1 599 57 is_stmt 1 view .LVU1245
 3980              		.loc 1 599 57 is_stmt 0 view .LVU1246
 3981              	.LBE1028:
 3982              	.LBE1027:
 3983              	.LBE1035:
 3984              	.LBE1040:
 3985              		.loc 1 644 1 view .LVU1247
 3986 0066 02B0     		add	sp, sp, #8
 3987              		.cfi_def_cfa_offset 8
 3988              		@ sp needed
ARM GAS  C:\Users\DEVELO~1\AppData\Local\Temp\ccAozvLj.s 			page 71


 3989 0068 10BD     		pop	{r4, pc}
 3990              	.L215:
 3991 006a 00BF     		.align	2
 3992              	.L214:
 3993 006c 30000000 		.word	SD3+48
 3994              		.cfi_endproc
 3995              	.LFE455:
 3996              		.size	midi_cc, .-midi_cc
 3997              		.section	.text.midi_program_change,"ax",%progbits
 3998              		.align	1
 3999              		.p2align 4,,15
 4000              		.global	midi_program_change
 4001              		.syntax unified
 4002              		.thumb
 4003              		.thumb_func
 4004              		.type	midi_program_change, %function
 4005              	midi_program_change:
 4006              	.LVL255:
 4007              	.LFB456:
 4008              		.loc 1 646 62 is_stmt 1 view -0
 4009              		.cfi_startproc
 4010              		@ args = 0, pretend = 0, frame = 8
 4011              		@ frame_needed = 0, uses_anonymous_args = 0
 4012              		.loc 1 647 3 view .LVU1249
 4013              		.loc 1 647 36 is_stmt 0 view .LVU1250
 4014 0000 01F00F01 		and	r1, r1, #15
 4015              	.LVL256:
 4016              		.loc 1 647 45 view .LVU1251
 4017 0004 02F07F02 		and	r2, r2, #127
 4018              	.LVL257:
 4019              	.LBB1051:
 4020              	.LBB1052:
 4021              		.loc 1 596 3 view .LVU1252
 4022 0008 0228     		cmp	r0, #2
 4023              	.LBE1052:
 4024              	.LBE1051:
 4025              		.loc 1 647 32 view .LVU1253
 4026 000a 61F03F01 		orn	r1, r1, #63
 4027              		.loc 1 646 62 view .LVU1254
 4028 000e 00B5     		push	{lr}
 4029              		.cfi_def_cfa_offset 4
 4030              		.cfi_offset 14, -4
 4031 0010 83B0     		sub	sp, sp, #12
 4032              		.cfi_def_cfa_offset 16
 4033              		.loc 1 647 11 view .LVU1255
 4034 0012 8DF80520 		strb	r2, [sp, #5]
 4035              		.loc 1 648 3 is_stmt 1 view .LVU1256
 4036              	.LVL258:
 4037              	.LBB1063:
 4038              	.LBI1051:
 4039              		.loc 1 595 13 view .LVU1257
 4040              	.LBB1059:
 4041              		.loc 1 596 3 view .LVU1258
 4042              	.LBE1059:
 4043              	.LBE1063:
 4044              		.loc 1 647 11 is_stmt 0 view .LVU1259
 4045 0016 8DF80410 		strb	r1, [sp, #4]
ARM GAS  C:\Users\DEVELO~1\AppData\Local\Temp\ccAozvLj.s 			page 72


 4046              	.LBB1064:
 4047              	.LBB1060:
 4048              		.loc 1 596 3 view .LVU1260
 4049 001a 0DD0     		beq	.L221
 4050 001c 0328     		cmp	r0, #3
 4051 001e 04D0     		beq	.L218
 4052 0020 0128     		cmp	r0, #1
 4053 0022 10D0     		beq	.L222
 4054              	.LBE1060:
 4055              	.LBE1064:
 4056              		.loc 1 649 1 view .LVU1261
 4057 0024 03B0     		add	sp, sp, #12
 4058              		.cfi_remember_state
 4059              		.cfi_def_cfa_offset 4
 4060              		@ sp needed
 4061 0026 5DF804FB 		ldr	pc, [sp], #4
 4062              	.LVL259:
 4063              	.L218:
 4064              		.cfi_restore_state
 4065              	.LBB1065:
 4066              	.LBB1061:
 4067              	.LBB1053:
 4068              	.LBI1053:
 4069              		.loc 1 595 13 is_stmt 1 view .LVU1262
 4070              	.LBB1054:
 4071              		.loc 1 599 26 view .LVU1263
 4072              	.LBB1055:
 4073              	.LBI1055:
 4074              		.loc 1 368 13 view .LVU1264
 4075              	.LBB1056:
 4076              		.loc 1 368 57 view .LVU1265
 4077 002a 4FF0FF33 		mov	r3, #-1
 4078 002e 0222     		movs	r2, #2
 4079 0030 0A48     		ldr	r0, .L223
 4080              	.LVL260:
 4081              		.loc 1 368 57 is_stmt 0 view .LVU1266
 4082 0032 01A9     		add	r1, sp, #4
 4083              	.LVL261:
 4084              		.loc 1 368 57 view .LVU1267
 4085 0034 FFF7FEFF 		bl	oqWriteTimeout
 4086              	.LVL262:
 4087              	.L221:
 4088              		.loc 1 368 57 view .LVU1268
 4089              	.LBE1056:
 4090              	.LBE1055:
 4091              		.loc 1 599 42 is_stmt 1 view .LVU1269
 4092 0038 0221     		movs	r1, #2
 4093 003a 01A8     		add	r0, sp, #4
 4094              	.LVL263:
 4095              		.loc 1 599 42 is_stmt 0 view .LVU1270
 4096 003c FFF7FEFF 		bl	send_usb
 4097              	.LVL264:
 4098              		.loc 1 599 57 is_stmt 1 view .LVU1271
 4099              		.loc 1 599 57 is_stmt 0 view .LVU1272
 4100              	.LBE1054:
 4101              	.LBE1053:
 4102              	.LBE1061:
ARM GAS  C:\Users\DEVELO~1\AppData\Local\Temp\ccAozvLj.s 			page 73


 4103              	.LBE1065:
 4104              		.loc 1 649 1 view .LVU1273
 4105 0040 03B0     		add	sp, sp, #12
 4106              		.cfi_remember_state
 4107              		.cfi_def_cfa_offset 4
 4108              		@ sp needed
 4109 0042 5DF804FB 		ldr	pc, [sp], #4
 4110              	.LVL265:
 4111              	.L222:
 4112              		.cfi_restore_state
 4113              	.LBB1066:
 4114              	.LBB1062:
 4115              		.loc 1 597 26 is_stmt 1 view .LVU1274
 4116              	.LBB1057:
 4117              	.LBI1057:
 4118              		.loc 1 368 13 view .LVU1275
 4119              	.LBB1058:
 4120              		.loc 1 368 57 view .LVU1276
 4121 0046 4FF0FF33 		mov	r3, #-1
 4122 004a 0222     		movs	r2, #2
 4123 004c 01A9     		add	r1, sp, #4
 4124              	.LVL266:
 4125              		.loc 1 368 57 is_stmt 0 view .LVU1277
 4126 004e 0348     		ldr	r0, .L223
 4127              	.LVL267:
 4128              		.loc 1 368 57 view .LVU1278
 4129 0050 FFF7FEFF 		bl	oqWriteTimeout
 4130              	.LVL268:
 4131              		.loc 1 368 57 view .LVU1279
 4132              	.LBE1058:
 4133              	.LBE1057:
 4134              	.LBE1062:
 4135              	.LBE1066:
 4136              		.loc 1 649 1 view .LVU1280
 4137 0054 03B0     		add	sp, sp, #12
 4138              		.cfi_def_cfa_offset 4
 4139              		@ sp needed
 4140 0056 5DF804FB 		ldr	pc, [sp], #4
 4141              	.LVL269:
 4142              	.L224:
 4143              		.loc 1 649 1 view .LVU1281
 4144 005a 00BF     		.align	2
 4145              	.L223:
 4146 005c 30000000 		.word	SD3+48
 4147              		.cfi_endproc
 4148              	.LFE456:
 4149              		.size	midi_program_change, .-midi_program_change
 4150              		.section	.text.midi_channel_pressure,"ax",%progbits
 4151              		.align	1
 4152              		.p2align 4,,15
 4153              		.global	midi_channel_pressure
 4154              		.syntax unified
 4155              		.thumb
 4156              		.thumb_func
 4157              		.type	midi_channel_pressure, %function
 4158              	midi_channel_pressure:
 4159              	.LVL270:
ARM GAS  C:\Users\DEVELO~1\AppData\Local\Temp\ccAozvLj.s 			page 74


 4160              	.LFB457:
 4161              		.loc 1 651 63 is_stmt 1 view -0
 4162              		.cfi_startproc
 4163              		@ args = 0, pretend = 0, frame = 8
 4164              		@ frame_needed = 0, uses_anonymous_args = 0
 4165              		.loc 1 652 3 view .LVU1283
 4166              		.loc 1 652 36 is_stmt 0 view .LVU1284
 4167 0000 01F00F01 		and	r1, r1, #15
 4168              	.LVL271:
 4169              		.loc 1 652 45 view .LVU1285
 4170 0004 02F07F02 		and	r2, r2, #127
 4171              	.LVL272:
 4172              	.LBB1077:
 4173              	.LBB1078:
 4174              		.loc 1 596 3 view .LVU1286
 4175 0008 0228     		cmp	r0, #2
 4176              	.LBE1078:
 4177              	.LBE1077:
 4178              		.loc 1 652 32 view .LVU1287
 4179 000a 61F02F01 		orn	r1, r1, #47
 4180              		.loc 1 651 63 view .LVU1288
 4181 000e 00B5     		push	{lr}
 4182              		.cfi_def_cfa_offset 4
 4183              		.cfi_offset 14, -4
 4184 0010 83B0     		sub	sp, sp, #12
 4185              		.cfi_def_cfa_offset 16
 4186              		.loc 1 652 11 view .LVU1289
 4187 0012 8DF80520 		strb	r2, [sp, #5]
 4188              		.loc 1 653 3 is_stmt 1 view .LVU1290
 4189              	.LVL273:
 4190              	.LBB1089:
 4191              	.LBI1077:
 4192              		.loc 1 595 13 view .LVU1291
 4193              	.LBB1085:
 4194              		.loc 1 596 3 view .LVU1292
 4195              	.LBE1085:
 4196              	.LBE1089:
 4197              		.loc 1 652 11 is_stmt 0 view .LVU1293
 4198 0016 8DF80410 		strb	r1, [sp, #4]
 4199              	.LBB1090:
 4200              	.LBB1086:
 4201              		.loc 1 596 3 view .LVU1294
 4202 001a 0DD0     		beq	.L230
 4203 001c 0328     		cmp	r0, #3
 4204 001e 04D0     		beq	.L227
 4205 0020 0128     		cmp	r0, #1
 4206 0022 10D0     		beq	.L231
 4207              	.LBE1086:
 4208              	.LBE1090:
 4209              		.loc 1 654 1 view .LVU1295
 4210 0024 03B0     		add	sp, sp, #12
 4211              		.cfi_remember_state
 4212              		.cfi_def_cfa_offset 4
 4213              		@ sp needed
 4214 0026 5DF804FB 		ldr	pc, [sp], #4
 4215              	.LVL274:
 4216              	.L227:
ARM GAS  C:\Users\DEVELO~1\AppData\Local\Temp\ccAozvLj.s 			page 75


 4217              		.cfi_restore_state
 4218              	.LBB1091:
 4219              	.LBB1087:
 4220              	.LBB1079:
 4221              	.LBI1079:
 4222              		.loc 1 595 13 is_stmt 1 view .LVU1296
 4223              	.LBB1080:
 4224              		.loc 1 599 26 view .LVU1297
 4225              	.LBB1081:
 4226              	.LBI1081:
 4227              		.loc 1 368 13 view .LVU1298
 4228              	.LBB1082:
 4229              		.loc 1 368 57 view .LVU1299
 4230 002a 4FF0FF33 		mov	r3, #-1
 4231 002e 0222     		movs	r2, #2
 4232 0030 0A48     		ldr	r0, .L232
 4233              	.LVL275:
 4234              		.loc 1 368 57 is_stmt 0 view .LVU1300
 4235 0032 01A9     		add	r1, sp, #4
 4236              	.LVL276:
 4237              		.loc 1 368 57 view .LVU1301
 4238 0034 FFF7FEFF 		bl	oqWriteTimeout
 4239              	.LVL277:
 4240              	.L230:
 4241              		.loc 1 368 57 view .LVU1302
 4242              	.LBE1082:
 4243              	.LBE1081:
 4244              		.loc 1 599 42 is_stmt 1 view .LVU1303
 4245 0038 0221     		movs	r1, #2
 4246 003a 01A8     		add	r0, sp, #4
 4247              	.LVL278:
 4248              		.loc 1 599 42 is_stmt 0 view .LVU1304
 4249 003c FFF7FEFF 		bl	send_usb
 4250              	.LVL279:
 4251              		.loc 1 599 57 is_stmt 1 view .LVU1305
 4252              		.loc 1 599 57 is_stmt 0 view .LVU1306
 4253              	.LBE1080:
 4254              	.LBE1079:
 4255              	.LBE1087:
 4256              	.LBE1091:
 4257              		.loc 1 654 1 view .LVU1307
 4258 0040 03B0     		add	sp, sp, #12
 4259              		.cfi_remember_state
 4260              		.cfi_def_cfa_offset 4
 4261              		@ sp needed
 4262 0042 5DF804FB 		ldr	pc, [sp], #4
 4263              	.LVL280:
 4264              	.L231:
 4265              		.cfi_restore_state
 4266              	.LBB1092:
 4267              	.LBB1088:
 4268              		.loc 1 597 26 is_stmt 1 view .LVU1308
 4269              	.LBB1083:
 4270              	.LBI1083:
 4271              		.loc 1 368 13 view .LVU1309
 4272              	.LBB1084:
 4273              		.loc 1 368 57 view .LVU1310
ARM GAS  C:\Users\DEVELO~1\AppData\Local\Temp\ccAozvLj.s 			page 76


 4274 0046 4FF0FF33 		mov	r3, #-1
 4275 004a 0222     		movs	r2, #2
 4276 004c 01A9     		add	r1, sp, #4
 4277              	.LVL281:
 4278              		.loc 1 368 57 is_stmt 0 view .LVU1311
 4279 004e 0348     		ldr	r0, .L232
 4280              	.LVL282:
 4281              		.loc 1 368 57 view .LVU1312
 4282 0050 FFF7FEFF 		bl	oqWriteTimeout
 4283              	.LVL283:
 4284              		.loc 1 368 57 view .LVU1313
 4285              	.LBE1084:
 4286              	.LBE1083:
 4287              	.LBE1088:
 4288              	.LBE1092:
 4289              		.loc 1 654 1 view .LVU1314
 4290 0054 03B0     		add	sp, sp, #12
 4291              		.cfi_def_cfa_offset 4
 4292              		@ sp needed
 4293 0056 5DF804FB 		ldr	pc, [sp], #4
 4294              	.LVL284:
 4295              	.L233:
 4296              		.loc 1 654 1 view .LVU1315
 4297 005a 00BF     		.align	2
 4298              	.L232:
 4299 005c 30000000 		.word	SD3+48
 4300              		.cfi_endproc
 4301              	.LFE457:
 4302              		.size	midi_channel_pressure, .-midi_channel_pressure
 4303              		.section	.text.midi_pitchbend,"ax",%progbits
 4304              		.align	1
 4305              		.p2align 4,,15
 4306              		.global	midi_pitchbend
 4307              		.syntax unified
 4308              		.thumb
 4309              		.thumb_func
 4310              		.type	midi_pitchbend, %function
 4311              	midi_pitchbend:
 4312              	.LVL285:
 4313              	.LFB458:
 4314              		.loc 1 656 58 is_stmt 1 view -0
 4315              		.cfi_startproc
 4316              		@ args = 0, pretend = 0, frame = 8
 4317              		@ frame_needed = 0, uses_anonymous_args = 0
 4318              		.loc 1 657 3 view .LVU1317
 4319              		.loc 1 657 12 is_stmt 0 view .LVU1318
 4320 0000 02F50053 		add	r3, r2, #8192
 4321              	.LVL286:
 4322              		.loc 1 658 3 is_stmt 1 view .LVU1319
 4323              		.loc 1 659 3 view .LVU1320
 4324              		.loc 1 659 38 is_stmt 0 view .LVU1321
 4325 0004 01F00F01 		and	r1, r1, #15
 4326              	.LVL287:
 4327              		.loc 1 658 11 view .LVU1322
 4328 0008 02F07F02 		and	r2, r2, #127
 4329              	.LVL288:
 4330              	.LBB1103:
ARM GAS  C:\Users\DEVELO~1\AppData\Local\Temp\ccAozvLj.s 			page 77


 4331              	.LBB1104:
 4332              		.loc 1 596 3 view .LVU1323
 4333 000c 0228     		cmp	r0, #2
 4334              	.LBE1104:
 4335              	.LBE1103:
 4336              		.loc 1 659 34 view .LVU1324
 4337 000e 61F01F01 		orn	r1, r1, #31
 4338              		.loc 1 658 21 view .LVU1325
 4339 0012 C3F3C613 		ubfx	r3, r3, #7, #7
 4340              	.LVL289:
 4341              		.loc 1 656 58 view .LVU1326
 4342 0016 10B5     		push	{r4, lr}
 4343              		.cfi_def_cfa_offset 8
 4344              		.cfi_offset 4, -8
 4345              		.cfi_offset 14, -4
 4346 0018 82B0     		sub	sp, sp, #8
 4347              		.cfi_def_cfa_offset 16
 4348              		.loc 1 659 11 view .LVU1327
 4349 001a 8DF80520 		strb	r2, [sp, #5]
 4350 001e 8DF80410 		strb	r1, [sp, #4]
 4351 0022 8DF80630 		strb	r3, [sp, #6]
 4352              		.loc 1 660 3 is_stmt 1 view .LVU1328
 4353              	.LVL290:
 4354              	.LBB1115:
 4355              	.LBI1103:
 4356              		.loc 1 595 13 view .LVU1329
 4357              	.LBB1111:
 4358              		.loc 1 596 3 view .LVU1330
 4359 0026 06D0     		beq	.L235
 4360 0028 0328     		cmp	r0, #3
 4361 002a 0446     		mov	r4, r0
 4362 002c 12D0     		beq	.L236
 4363 002e 0128     		cmp	r0, #1
 4364 0030 07D0     		beq	.L239
 4365              	.LBE1111:
 4366              	.LBE1115:
 4367              		.loc 1 661 1 is_stmt 0 view .LVU1331
 4368 0032 02B0     		add	sp, sp, #8
 4369              		.cfi_remember_state
 4370              		.cfi_def_cfa_offset 8
 4371              		@ sp needed
 4372 0034 10BD     		pop	{r4, pc}
 4373              	.LVL291:
 4374              	.L235:
 4375              		.cfi_restore_state
 4376              	.LBB1116:
 4377              	.LBB1112:
 4378              		.loc 1 598 26 is_stmt 1 view .LVU1332
 4379 0036 0321     		movs	r1, #3
 4380 0038 01A8     		add	r0, sp, #4
 4381              	.LVL292:
 4382              		.loc 1 598 26 is_stmt 0 view .LVU1333
 4383 003a FFF7FEFF 		bl	send_usb
 4384              	.LVL293:
 4385              		.loc 1 598 42 is_stmt 1 view .LVU1334
 4386              	.LBE1112:
 4387              	.LBE1116:
ARM GAS  C:\Users\DEVELO~1\AppData\Local\Temp\ccAozvLj.s 			page 78


 4388              		.loc 1 661 1 is_stmt 0 view .LVU1335
 4389 003e 02B0     		add	sp, sp, #8
 4390              		.cfi_remember_state
 4391              		.cfi_def_cfa_offset 8
 4392              		@ sp needed
 4393 0040 10BD     		pop	{r4, pc}
 4394              	.LVL294:
 4395              	.L239:
 4396              		.cfi_restore_state
 4397              	.LBB1117:
 4398              	.LBB1113:
 4399              		.loc 1 597 26 is_stmt 1 view .LVU1336
 4400              	.LBB1105:
 4401              	.LBI1105:
 4402              		.loc 1 368 13 view .LVU1337
 4403              	.LBB1106:
 4404              		.loc 1 368 57 view .LVU1338
 4405 0042 4FF0FF33 		mov	r3, #-1
 4406 0046 0322     		movs	r2, #3
 4407 0048 01A9     		add	r1, sp, #4
 4408              	.LVL295:
 4409              		.loc 1 368 57 is_stmt 0 view .LVU1339
 4410 004a 0948     		ldr	r0, .L240
 4411              	.LVL296:
 4412              		.loc 1 368 57 view .LVU1340
 4413 004c FFF7FEFF 		bl	oqWriteTimeout
 4414              	.LVL297:
 4415              		.loc 1 368 57 view .LVU1341
 4416              	.LBE1106:
 4417              	.LBE1105:
 4418              	.LBE1113:
 4419              	.LBE1117:
 4420              		.loc 1 661 1 view .LVU1342
 4421 0050 02B0     		add	sp, sp, #8
 4422              		.cfi_remember_state
 4423              		.cfi_def_cfa_offset 8
 4424              		@ sp needed
 4425 0052 10BD     		pop	{r4, pc}
 4426              	.LVL298:
 4427              	.L236:
 4428              		.cfi_restore_state
 4429              	.LBB1118:
 4430              	.LBB1114:
 4431              	.LBB1107:
 4432              	.LBI1107:
 4433              		.loc 1 595 13 is_stmt 1 view .LVU1343
 4434              	.LBB1108:
 4435              		.loc 1 599 26 view .LVU1344
 4436              	.LBB1109:
 4437              	.LBI1109:
 4438              		.loc 1 368 13 view .LVU1345
 4439              	.LBB1110:
 4440              		.loc 1 368 57 view .LVU1346
 4441 0054 0246     		mov	r2, r0
 4442 0056 4FF0FF33 		mov	r3, #-1
 4443 005a 01A9     		add	r1, sp, #4
 4444              	.LVL299:
ARM GAS  C:\Users\DEVELO~1\AppData\Local\Temp\ccAozvLj.s 			page 79


 4445              		.loc 1 368 57 is_stmt 0 view .LVU1347
 4446 005c 0448     		ldr	r0, .L240
 4447              	.LVL300:
 4448              		.loc 1 368 57 view .LVU1348
 4449 005e FFF7FEFF 		bl	oqWriteTimeout
 4450              	.LVL301:
 4451              		.loc 1 368 57 view .LVU1349
 4452              	.LBE1110:
 4453              	.LBE1109:
 4454              		.loc 1 599 42 is_stmt 1 view .LVU1350
 4455 0062 2146     		mov	r1, r4
 4456 0064 01A8     		add	r0, sp, #4
 4457              	.LVL302:
 4458              		.loc 1 599 42 is_stmt 0 view .LVU1351
 4459 0066 FFF7FEFF 		bl	send_usb
 4460              	.LVL303:
 4461              		.loc 1 599 57 is_stmt 1 view .LVU1352
 4462              		.loc 1 599 57 is_stmt 0 view .LVU1353
 4463              	.LBE1108:
 4464              	.LBE1107:
 4465              	.LBE1114:
 4466              	.LBE1118:
 4467              		.loc 1 661 1 view .LVU1354
 4468 006a 02B0     		add	sp, sp, #8
 4469              		.cfi_def_cfa_offset 8
 4470              		@ sp needed
 4471 006c 10BD     		pop	{r4, pc}
 4472              	.L241:
 4473 006e 00BF     		.align	2
 4474              	.L240:
 4475 0070 30000000 		.word	SD3+48
 4476              		.cfi_endproc
 4477              	.LFE458:
 4478              		.size	midi_pitchbend, .-midi_pitchbend
 4479              		.section	.text.midi_mtc_quarter_frame,"ax",%progbits
 4480              		.align	1
 4481              		.p2align 4,,15
 4482              		.global	midi_mtc_quarter_frame
 4483              		.syntax unified
 4484              		.thumb
 4485              		.thumb_func
 4486              		.type	midi_mtc_quarter_frame, %function
 4487              	midi_mtc_quarter_frame:
 4488              	.LVL304:
 4489              	.LFB459:
 4490              		.loc 1 663 54 is_stmt 1 view -0
 4491              		.cfi_startproc
 4492              		@ args = 0, pretend = 0, frame = 8
 4493              		@ frame_needed = 0, uses_anonymous_args = 0
 4494              		.loc 1 664 3 view .LVU1356
 4495              		.loc 1 663 54 is_stmt 0 view .LVU1357
 4496 0000 00B5     		push	{lr}
 4497              		.cfi_def_cfa_offset 4
 4498              		.cfi_offset 14, -4
 4499              		.loc 1 664 11 view .LVU1358
 4500 0002 F123     		movs	r3, #241
 4501              		.loc 1 663 54 view .LVU1359
ARM GAS  C:\Users\DEVELO~1\AppData\Local\Temp\ccAozvLj.s 			page 80


 4502 0004 83B0     		sub	sp, sp, #12
 4503              		.cfi_def_cfa_offset 16
 4504              		.loc 1 664 23 view .LVU1360
 4505 0006 01F07F01 		and	r1, r1, #127
 4506              	.LVL305:
 4507              	.LBB1129:
 4508              	.LBB1130:
 4509              		.loc 1 596 3 view .LVU1361
 4510 000a 0228     		cmp	r0, #2
 4511              	.LBE1130:
 4512              	.LBE1129:
 4513              		.loc 1 664 11 view .LVU1362
 4514 000c 8DF80430 		strb	r3, [sp, #4]
 4515 0010 8DF80510 		strb	r1, [sp, #5]
 4516              		.loc 1 665 3 is_stmt 1 view .LVU1363
 4517              	.LVL306:
 4518              	.LBB1140:
 4519              	.LBI1129:
 4520              		.loc 1 595 13 view .LVU1364
 4521              	.LBB1137:
 4522              		.loc 1 596 3 view .LVU1365
 4523 0014 0DD0     		beq	.L247
 4524 0016 0328     		cmp	r0, #3
 4525 0018 04D0     		beq	.L244
 4526 001a 0128     		cmp	r0, #1
 4527 001c 10D0     		beq	.L248
 4528              	.LBE1137:
 4529              	.LBE1140:
 4530              		.loc 1 666 1 is_stmt 0 view .LVU1366
 4531 001e 03B0     		add	sp, sp, #12
 4532              		.cfi_remember_state
 4533              		.cfi_def_cfa_offset 4
 4534              		@ sp needed
 4535 0020 5DF804FB 		ldr	pc, [sp], #4
 4536              	.LVL307:
 4537              	.L244:
 4538              		.cfi_restore_state
 4539              	.LBB1141:
 4540              	.LBB1138:
 4541              	.LBB1131:
 4542              	.LBI1131:
 4543              		.loc 1 595 13 is_stmt 1 view .LVU1367
 4544              	.LBB1132:
 4545              		.loc 1 599 26 view .LVU1368
 4546              	.LBB1133:
 4547              	.LBI1133:
 4548              		.loc 1 368 13 view .LVU1369
 4549              	.LBB1134:
 4550              		.loc 1 368 57 view .LVU1370
 4551 0024 4FF0FF33 		mov	r3, #-1
 4552 0028 0222     		movs	r2, #2
 4553 002a 0A48     		ldr	r0, .L249
 4554              	.LVL308:
 4555              		.loc 1 368 57 is_stmt 0 view .LVU1371
 4556 002c 01A9     		add	r1, sp, #4
 4557              	.LVL309:
 4558              		.loc 1 368 57 view .LVU1372
ARM GAS  C:\Users\DEVELO~1\AppData\Local\Temp\ccAozvLj.s 			page 81


 4559 002e FFF7FEFF 		bl	oqWriteTimeout
 4560              	.LVL310:
 4561              	.L247:
 4562              		.loc 1 368 57 view .LVU1373
 4563              	.LBE1134:
 4564              	.LBE1133:
 4565              		.loc 1 599 42 is_stmt 1 view .LVU1374
 4566 0032 0221     		movs	r1, #2
 4567 0034 01A8     		add	r0, sp, #4
 4568              	.LVL311:
 4569              		.loc 1 599 42 is_stmt 0 view .LVU1375
 4570 0036 FFF7FEFF 		bl	send_usb
 4571              	.LVL312:
 4572              		.loc 1 599 57 is_stmt 1 view .LVU1376
 4573              		.loc 1 599 57 is_stmt 0 view .LVU1377
 4574              	.LBE1132:
 4575              	.LBE1131:
 4576              	.LBE1138:
 4577              	.LBE1141:
 4578              		.loc 1 666 1 view .LVU1378
 4579 003a 03B0     		add	sp, sp, #12
 4580              		.cfi_remember_state
 4581              		.cfi_def_cfa_offset 4
 4582              		@ sp needed
 4583 003c 5DF804FB 		ldr	pc, [sp], #4
 4584              	.LVL313:
 4585              	.L248:
 4586              		.cfi_restore_state
 4587              	.LBB1142:
 4588              	.LBB1139:
 4589              		.loc 1 597 26 is_stmt 1 view .LVU1379
 4590              	.LBB1135:
 4591              	.LBI1135:
 4592              		.loc 1 368 13 view .LVU1380
 4593              	.LBB1136:
 4594              		.loc 1 368 57 view .LVU1381
 4595 0040 4FF0FF33 		mov	r3, #-1
 4596 0044 0222     		movs	r2, #2
 4597 0046 01A9     		add	r1, sp, #4
 4598              	.LVL314:
 4599              		.loc 1 368 57 is_stmt 0 view .LVU1382
 4600 0048 0248     		ldr	r0, .L249
 4601              	.LVL315:
 4602              		.loc 1 368 57 view .LVU1383
 4603 004a FFF7FEFF 		bl	oqWriteTimeout
 4604              	.LVL316:
 4605              		.loc 1 368 57 view .LVU1384
 4606              	.LBE1136:
 4607              	.LBE1135:
 4608              	.LBE1139:
 4609              	.LBE1142:
 4610              		.loc 1 666 1 view .LVU1385
 4611 004e 03B0     		add	sp, sp, #12
 4612              		.cfi_def_cfa_offset 4
 4613              		@ sp needed
 4614 0050 5DF804FB 		ldr	pc, [sp], #4
 4615              	.LVL317:
ARM GAS  C:\Users\DEVELO~1\AppData\Local\Temp\ccAozvLj.s 			page 82


 4616              	.L250:
 4617              		.loc 1 666 1 view .LVU1386
 4618              		.align	2
 4619              	.L249:
 4620 0054 30000000 		.word	SD3+48
 4621              		.cfi_endproc
 4622              	.LFE459:
 4623              		.size	midi_mtc_quarter_frame, .-midi_mtc_quarter_frame
 4624              		.section	.text.midi_song_position,"ax",%progbits
 4625              		.align	1
 4626              		.p2align 4,,15
 4627              		.global	midi_song_position
 4628              		.syntax unified
 4629              		.thumb
 4630              		.thumb_func
 4631              		.type	midi_song_position, %function
 4632              	midi_song_position:
 4633              	.LVL318:
 4634              	.LFB460:
 4635              		.loc 1 668 52 is_stmt 1 view -0
 4636              		.cfi_startproc
 4637              		@ args = 0, pretend = 0, frame = 8
 4638              		@ frame_needed = 0, uses_anonymous_args = 0
 4639              		.loc 1 669 3 view .LVU1388
 4640              		.loc 1 668 52 is_stmt 0 view .LVU1389
 4641 0000 10B5     		push	{r4, lr}
 4642              		.cfi_def_cfa_offset 8
 4643              		.cfi_offset 4, -8
 4644              		.cfi_offset 14, -4
 4645              		.loc 1 670 11 view .LVU1390
 4646 0002 F223     		movs	r3, #242
 4647              	.LVL319:
 4648              		.loc 1 670 3 is_stmt 1 view .LVU1391
 4649              		.loc 1 668 52 is_stmt 0 view .LVU1392
 4650 0004 82B0     		sub	sp, sp, #8
 4651              		.cfi_def_cfa_offset 16
 4652              	.LBB1153:
 4653              	.LBB1154:
 4654              		.loc 1 596 3 view .LVU1393
 4655 0006 0228     		cmp	r0, #2
 4656              	.LBE1154:
 4657              	.LBE1153:
 4658              		.loc 1 670 11 view .LVU1394
 4659 0008 8DF80430 		strb	r3, [sp, #4]
 4660              		.loc 1 669 11 view .LVU1395
 4661 000c 01F07F03 		and	r3, r1, #127
 4662              		.loc 1 669 33 view .LVU1396
 4663 0010 C1F3C611 		ubfx	r1, r1, #7, #7
 4664              	.LVL320:
 4665              		.loc 1 670 11 view .LVU1397
 4666 0014 8DF80530 		strb	r3, [sp, #5]
 4667 0018 8DF80610 		strb	r1, [sp, #6]
 4668              		.loc 1 671 3 is_stmt 1 view .LVU1398
 4669              	.LVL321:
 4670              	.LBB1165:
 4671              	.LBI1153:
 4672              		.loc 1 595 13 view .LVU1399
ARM GAS  C:\Users\DEVELO~1\AppData\Local\Temp\ccAozvLj.s 			page 83


 4673              	.LBB1161:
 4674              		.loc 1 596 3 view .LVU1400
 4675 001c 06D0     		beq	.L252
 4676 001e 0328     		cmp	r0, #3
 4677 0020 0446     		mov	r4, r0
 4678 0022 12D0     		beq	.L253
 4679 0024 0128     		cmp	r0, #1
 4680 0026 07D0     		beq	.L256
 4681              	.LBE1161:
 4682              	.LBE1165:
 4683              		.loc 1 672 1 is_stmt 0 view .LVU1401
 4684 0028 02B0     		add	sp, sp, #8
 4685              		.cfi_remember_state
 4686              		.cfi_def_cfa_offset 8
 4687              		@ sp needed
 4688 002a 10BD     		pop	{r4, pc}
 4689              	.LVL322:
 4690              	.L252:
 4691              		.cfi_restore_state
 4692              	.LBB1166:
 4693              	.LBB1162:
 4694              		.loc 1 598 26 is_stmt 1 view .LVU1402
 4695 002c 0321     		movs	r1, #3
 4696 002e 01A8     		add	r0, sp, #4
 4697              	.LVL323:
 4698              		.loc 1 598 26 is_stmt 0 view .LVU1403
 4699 0030 FFF7FEFF 		bl	send_usb
 4700              	.LVL324:
 4701              		.loc 1 598 42 is_stmt 1 view .LVU1404
 4702              	.LBE1162:
 4703              	.LBE1166:
 4704              		.loc 1 672 1 is_stmt 0 view .LVU1405
 4705 0034 02B0     		add	sp, sp, #8
 4706              		.cfi_remember_state
 4707              		.cfi_def_cfa_offset 8
 4708              		@ sp needed
 4709 0036 10BD     		pop	{r4, pc}
 4710              	.LVL325:
 4711              	.L256:
 4712              		.cfi_restore_state
 4713              	.LBB1167:
 4714              	.LBB1163:
 4715              		.loc 1 597 26 is_stmt 1 view .LVU1406
 4716              	.LBB1155:
 4717              	.LBI1155:
 4718              		.loc 1 368 13 view .LVU1407
 4719              	.LBB1156:
 4720              		.loc 1 368 57 view .LVU1408
 4721 0038 4FF0FF33 		mov	r3, #-1
 4722 003c 0322     		movs	r2, #3
 4723 003e 01A9     		add	r1, sp, #4
 4724              	.LVL326:
 4725              		.loc 1 368 57 is_stmt 0 view .LVU1409
 4726 0040 0848     		ldr	r0, .L257
 4727              	.LVL327:
 4728              		.loc 1 368 57 view .LVU1410
 4729 0042 FFF7FEFF 		bl	oqWriteTimeout
ARM GAS  C:\Users\DEVELO~1\AppData\Local\Temp\ccAozvLj.s 			page 84


 4730              	.LVL328:
 4731              		.loc 1 368 57 view .LVU1411
 4732              	.LBE1156:
 4733              	.LBE1155:
 4734              	.LBE1163:
 4735              	.LBE1167:
 4736              		.loc 1 672 1 view .LVU1412
 4737 0046 02B0     		add	sp, sp, #8
 4738              		.cfi_remember_state
 4739              		.cfi_def_cfa_offset 8
 4740              		@ sp needed
 4741 0048 10BD     		pop	{r4, pc}
 4742              	.LVL329:
 4743              	.L253:
 4744              		.cfi_restore_state
 4745              	.LBB1168:
 4746              	.LBB1164:
 4747              	.LBB1157:
 4748              	.LBI1157:
 4749              		.loc 1 595 13 is_stmt 1 view .LVU1413
 4750              	.LBB1158:
 4751              		.loc 1 599 26 view .LVU1414
 4752              	.LBB1159:
 4753              	.LBI1159:
 4754              		.loc 1 368 13 view .LVU1415
 4755              	.LBB1160:
 4756              		.loc 1 368 57 view .LVU1416
 4757 004a 0246     		mov	r2, r0
 4758 004c 4FF0FF33 		mov	r3, #-1
 4759 0050 01A9     		add	r1, sp, #4
 4760              	.LVL330:
 4761              		.loc 1 368 57 is_stmt 0 view .LVU1417
 4762 0052 0448     		ldr	r0, .L257
 4763              	.LVL331:
 4764              		.loc 1 368 57 view .LVU1418
 4765 0054 FFF7FEFF 		bl	oqWriteTimeout
 4766              	.LVL332:
 4767              		.loc 1 368 57 view .LVU1419
 4768              	.LBE1160:
 4769              	.LBE1159:
 4770              		.loc 1 599 42 is_stmt 1 view .LVU1420
 4771 0058 2146     		mov	r1, r4
 4772 005a 01A8     		add	r0, sp, #4
 4773              	.LVL333:
 4774              		.loc 1 599 42 is_stmt 0 view .LVU1421
 4775 005c FFF7FEFF 		bl	send_usb
 4776              	.LVL334:
 4777              		.loc 1 599 57 is_stmt 1 view .LVU1422
 4778              		.loc 1 599 57 is_stmt 0 view .LVU1423
 4779              	.LBE1158:
 4780              	.LBE1157:
 4781              	.LBE1164:
 4782              	.LBE1168:
 4783              		.loc 1 672 1 view .LVU1424
 4784 0060 02B0     		add	sp, sp, #8
 4785              		.cfi_def_cfa_offset 8
 4786              		@ sp needed
ARM GAS  C:\Users\DEVELO~1\AppData\Local\Temp\ccAozvLj.s 			page 85


 4787 0062 10BD     		pop	{r4, pc}
 4788              	.L258:
 4789              		.align	2
 4790              	.L257:
 4791 0064 30000000 		.word	SD3+48
 4792              		.cfi_endproc
 4793              	.LFE460:
 4794              		.size	midi_song_position, .-midi_song_position
 4795              		.section	.text.midi_song_select,"ax",%progbits
 4796              		.align	1
 4797              		.p2align 4,,15
 4798              		.global	midi_song_select
 4799              		.syntax unified
 4800              		.thumb
 4801              		.thumb_func
 4802              		.type	midi_song_select, %function
 4803              	midi_song_select:
 4804              	.LVL335:
 4805              	.LFB461:
 4806              		.loc 1 674 47 is_stmt 1 view -0
 4807              		.cfi_startproc
 4808              		@ args = 0, pretend = 0, frame = 8
 4809              		@ frame_needed = 0, uses_anonymous_args = 0
 4810              		.loc 1 675 3 view .LVU1426
 4811              		.loc 1 674 47 is_stmt 0 view .LVU1427
 4812 0000 00B5     		push	{lr}
 4813              		.cfi_def_cfa_offset 4
 4814              		.cfi_offset 14, -4
 4815              		.loc 1 675 11 view .LVU1428
 4816 0002 F323     		movs	r3, #243
 4817              		.loc 1 674 47 view .LVU1429
 4818 0004 83B0     		sub	sp, sp, #12
 4819              		.cfi_def_cfa_offset 16
 4820              		.loc 1 675 23 view .LVU1430
 4821 0006 01F07F01 		and	r1, r1, #127
 4822              	.LVL336:
 4823              	.LBB1179:
 4824              	.LBB1180:
 4825              		.loc 1 596 3 view .LVU1431
 4826 000a 0228     		cmp	r0, #2
 4827              	.LBE1180:
 4828              	.LBE1179:
 4829              		.loc 1 675 11 view .LVU1432
 4830 000c 8DF80430 		strb	r3, [sp, #4]
 4831 0010 8DF80510 		strb	r1, [sp, #5]
 4832              		.loc 1 676 3 is_stmt 1 view .LVU1433
 4833              	.LVL337:
 4834              	.LBB1190:
 4835              	.LBI1179:
 4836              		.loc 1 595 13 view .LVU1434
 4837              	.LBB1187:
 4838              		.loc 1 596 3 view .LVU1435
 4839 0014 0DD0     		beq	.L264
 4840 0016 0328     		cmp	r0, #3
 4841 0018 04D0     		beq	.L261
 4842 001a 0128     		cmp	r0, #1
 4843 001c 10D0     		beq	.L265
ARM GAS  C:\Users\DEVELO~1\AppData\Local\Temp\ccAozvLj.s 			page 86


 4844              	.LBE1187:
 4845              	.LBE1190:
 4846              		.loc 1 677 1 is_stmt 0 view .LVU1436
 4847 001e 03B0     		add	sp, sp, #12
 4848              		.cfi_remember_state
 4849              		.cfi_def_cfa_offset 4
 4850              		@ sp needed
 4851 0020 5DF804FB 		ldr	pc, [sp], #4
 4852              	.LVL338:
 4853              	.L261:
 4854              		.cfi_restore_state
 4855              	.LBB1191:
 4856              	.LBB1188:
 4857              	.LBB1181:
 4858              	.LBI1181:
 4859              		.loc 1 595 13 is_stmt 1 view .LVU1437
 4860              	.LBB1182:
 4861              		.loc 1 599 26 view .LVU1438
 4862              	.LBB1183:
 4863              	.LBI1183:
 4864              		.loc 1 368 13 view .LVU1439
 4865              	.LBB1184:
 4866              		.loc 1 368 57 view .LVU1440
 4867 0024 4FF0FF33 		mov	r3, #-1
 4868 0028 0222     		movs	r2, #2
 4869 002a 0A48     		ldr	r0, .L266
 4870              	.LVL339:
 4871              		.loc 1 368 57 is_stmt 0 view .LVU1441
 4872 002c 01A9     		add	r1, sp, #4
 4873              	.LVL340:
 4874              		.loc 1 368 57 view .LVU1442
 4875 002e FFF7FEFF 		bl	oqWriteTimeout
 4876              	.LVL341:
 4877              	.L264:
 4878              		.loc 1 368 57 view .LVU1443
 4879              	.LBE1184:
 4880              	.LBE1183:
 4881              		.loc 1 599 42 is_stmt 1 view .LVU1444
 4882 0032 0221     		movs	r1, #2
 4883 0034 01A8     		add	r0, sp, #4
 4884              	.LVL342:
 4885              		.loc 1 599 42 is_stmt 0 view .LVU1445
 4886 0036 FFF7FEFF 		bl	send_usb
 4887              	.LVL343:
 4888              		.loc 1 599 57 is_stmt 1 view .LVU1446
 4889              		.loc 1 599 57 is_stmt 0 view .LVU1447
 4890              	.LBE1182:
 4891              	.LBE1181:
 4892              	.LBE1188:
 4893              	.LBE1191:
 4894              		.loc 1 677 1 view .LVU1448
 4895 003a 03B0     		add	sp, sp, #12
 4896              		.cfi_remember_state
 4897              		.cfi_def_cfa_offset 4
 4898              		@ sp needed
 4899 003c 5DF804FB 		ldr	pc, [sp], #4
 4900              	.LVL344:
ARM GAS  C:\Users\DEVELO~1\AppData\Local\Temp\ccAozvLj.s 			page 87


 4901              	.L265:
 4902              		.cfi_restore_state
 4903              	.LBB1192:
 4904              	.LBB1189:
 4905              		.loc 1 597 26 is_stmt 1 view .LVU1449
 4906              	.LBB1185:
 4907              	.LBI1185:
 4908              		.loc 1 368 13 view .LVU1450
 4909              	.LBB1186:
 4910              		.loc 1 368 57 view .LVU1451
 4911 0040 4FF0FF33 		mov	r3, #-1
 4912 0044 0222     		movs	r2, #2
 4913 0046 01A9     		add	r1, sp, #4
 4914              	.LVL345:
 4915              		.loc 1 368 57 is_stmt 0 view .LVU1452
 4916 0048 0248     		ldr	r0, .L266
 4917              	.LVL346:
 4918              		.loc 1 368 57 view .LVU1453
 4919 004a FFF7FEFF 		bl	oqWriteTimeout
 4920              	.LVL347:
 4921              		.loc 1 368 57 view .LVU1454
 4922              	.LBE1186:
 4923              	.LBE1185:
 4924              	.LBE1189:
 4925              	.LBE1192:
 4926              		.loc 1 677 1 view .LVU1455
 4927 004e 03B0     		add	sp, sp, #12
 4928              		.cfi_def_cfa_offset 4
 4929              		@ sp needed
 4930 0050 5DF804FB 		ldr	pc, [sp], #4
 4931              	.LVL348:
 4932              	.L267:
 4933              		.loc 1 677 1 view .LVU1456
 4934              		.align	2
 4935              	.L266:
 4936 0054 30000000 		.word	SD3+48
 4937              		.cfi_endproc
 4938              	.LFE461:
 4939              		.size	midi_song_select, .-midi_song_select
 4940              		.section	.text.midi_tune_request,"ax",%progbits
 4941              		.align	1
 4942              		.p2align 4,,15
 4943              		.global	midi_tune_request
 4944              		.syntax unified
 4945              		.thumb
 4946              		.thumb_func
 4947              		.type	midi_tune_request, %function
 4948              	midi_tune_request:
 4949              	.LVL349:
 4950              	.LFB462:
 4951              		.loc 1 679 38 is_stmt 1 view -0
 4952              		.cfi_startproc
 4953              		@ args = 0, pretend = 0, frame = 8
 4954              		@ frame_needed = 0, uses_anonymous_args = 0
 4955              		.loc 1 680 3 view .LVU1458
 4956              		.loc 1 679 38 is_stmt 0 view .LVU1459
 4957 0000 00B5     		push	{lr}
ARM GAS  C:\Users\DEVELO~1\AppData\Local\Temp\ccAozvLj.s 			page 88


 4958              		.cfi_def_cfa_offset 4
 4959              		.cfi_offset 14, -4
 4960              		.loc 1 680 11 view .LVU1460
 4961 0002 F623     		movs	r3, #246
 4962              		.loc 1 679 38 view .LVU1461
 4963 0004 83B0     		sub	sp, sp, #12
 4964              		.cfi_def_cfa_offset 16
 4965              	.LBB1203:
 4966              	.LBB1204:
 4967              		.loc 1 596 3 view .LVU1462
 4968 0006 0228     		cmp	r0, #2
 4969              	.LBE1204:
 4970              	.LBE1203:
 4971              		.loc 1 680 11 view .LVU1463
 4972 0008 8DF80430 		strb	r3, [sp, #4]
 4973              		.loc 1 681 3 is_stmt 1 view .LVU1464
 4974              	.LVL350:
 4975              	.LBB1214:
 4976              	.LBI1203:
 4977              		.loc 1 595 13 view .LVU1465
 4978              	.LBB1211:
 4979              		.loc 1 596 3 view .LVU1466
 4980 000c 0DD0     		beq	.L273
 4981 000e 0328     		cmp	r0, #3
 4982 0010 04D0     		beq	.L270
 4983 0012 0128     		cmp	r0, #1
 4984 0014 10D0     		beq	.L274
 4985              	.LBE1211:
 4986              	.LBE1214:
 4987              		.loc 1 682 1 is_stmt 0 view .LVU1467
 4988 0016 03B0     		add	sp, sp, #12
 4989              		.cfi_remember_state
 4990              		.cfi_def_cfa_offset 4
 4991              		@ sp needed
 4992 0018 5DF804FB 		ldr	pc, [sp], #4
 4993              	.LVL351:
 4994              	.L270:
 4995              		.cfi_restore_state
 4996              	.LBB1215:
 4997              	.LBB1212:
 4998              	.LBB1205:
 4999              	.LBI1205:
 5000              		.loc 1 595 13 is_stmt 1 view .LVU1468
 5001              	.LBB1206:
 5002              		.loc 1 599 26 view .LVU1469
 5003              	.LBB1207:
 5004              	.LBI1207:
 5005              		.loc 1 368 13 view .LVU1470
 5006              	.LBB1208:
 5007              		.loc 1 368 57 view .LVU1471
 5008 001c 4FF0FF33 		mov	r3, #-1
 5009 0020 0122     		movs	r2, #1
 5010 0022 0A48     		ldr	r0, .L275
 5011              	.LVL352:
 5012              		.loc 1 368 57 is_stmt 0 view .LVU1472
 5013 0024 01A9     		add	r1, sp, #4
 5014              	.LVL353:
ARM GAS  C:\Users\DEVELO~1\AppData\Local\Temp\ccAozvLj.s 			page 89


 5015              		.loc 1 368 57 view .LVU1473
 5016 0026 FFF7FEFF 		bl	oqWriteTimeout
 5017              	.LVL354:
 5018              	.L273:
 5019              		.loc 1 368 57 view .LVU1474
 5020              	.LBE1208:
 5021              	.LBE1207:
 5022              		.loc 1 599 42 is_stmt 1 view .LVU1475
 5023 002a 0121     		movs	r1, #1
 5024 002c 01A8     		add	r0, sp, #4
 5025              	.LVL355:
 5026              		.loc 1 599 42 is_stmt 0 view .LVU1476
 5027 002e FFF7FEFF 		bl	send_usb
 5028              	.LVL356:
 5029              		.loc 1 599 57 is_stmt 1 view .LVU1477
 5030              		.loc 1 599 57 is_stmt 0 view .LVU1478
 5031              	.LBE1206:
 5032              	.LBE1205:
 5033              	.LBE1212:
 5034              	.LBE1215:
 5035              		.loc 1 682 1 view .LVU1479
 5036 0032 03B0     		add	sp, sp, #12
 5037              		.cfi_remember_state
 5038              		.cfi_def_cfa_offset 4
 5039              		@ sp needed
 5040 0034 5DF804FB 		ldr	pc, [sp], #4
 5041              	.LVL357:
 5042              	.L274:
 5043              		.cfi_restore_state
 5044              	.LBB1216:
 5045              	.LBB1213:
 5046              		.loc 1 597 26 is_stmt 1 view .LVU1480
 5047              	.LBB1209:
 5048              	.LBI1209:
 5049              		.loc 1 368 13 view .LVU1481
 5050              	.LBB1210:
 5051              		.loc 1 368 57 view .LVU1482
 5052 0038 0246     		mov	r2, r0
 5053 003a 4FF0FF33 		mov	r3, #-1
 5054 003e 01A9     		add	r1, sp, #4
 5055              	.LVL358:
 5056              		.loc 1 368 57 is_stmt 0 view .LVU1483
 5057 0040 0248     		ldr	r0, .L275
 5058              	.LVL359:
 5059              		.loc 1 368 57 view .LVU1484
 5060 0042 FFF7FEFF 		bl	oqWriteTimeout
 5061              	.LVL360:
 5062              		.loc 1 368 57 view .LVU1485
 5063              	.LBE1210:
 5064              	.LBE1209:
 5065              	.LBE1213:
 5066              	.LBE1216:
 5067              		.loc 1 682 1 view .LVU1486
 5068 0046 03B0     		add	sp, sp, #12
 5069              		.cfi_def_cfa_offset 4
 5070              		@ sp needed
 5071 0048 5DF804FB 		ldr	pc, [sp], #4
ARM GAS  C:\Users\DEVELO~1\AppData\Local\Temp\ccAozvLj.s 			page 90


 5072              	.LVL361:
 5073              	.L276:
 5074              		.loc 1 682 1 view .LVU1487
 5075              		.align	2
 5076              	.L275:
 5077 004c 30000000 		.word	SD3+48
 5078              		.cfi_endproc
 5079              	.LFE462:
 5080              		.size	midi_tune_request, .-midi_tune_request
 5081              		.section	.text.midi_clock,"ax",%progbits
 5082              		.align	1
 5083              		.p2align 4,,15
 5084              		.global	midi_clock
 5085              		.syntax unified
 5086              		.thumb
 5087              		.thumb_func
 5088              		.type	midi_clock, %function
 5089              	midi_clock:
 5090              	.LVL362:
 5091              	.LFB463:
 5092              		.loc 1 684 31 is_stmt 1 view -0
 5093              		.cfi_startproc
 5094              		@ args = 0, pretend = 0, frame = 8
 5095              		@ frame_needed = 0, uses_anonymous_args = 0
 5096              		.loc 1 685 3 view .LVU1489
 5097              		.loc 1 684 31 is_stmt 0 view .LVU1490
 5098 0000 00B5     		push	{lr}
 5099              		.cfi_def_cfa_offset 4
 5100              		.cfi_offset 14, -4
 5101              		.loc 1 685 11 view .LVU1491
 5102 0002 F823     		movs	r3, #248
 5103              		.loc 1 684 31 view .LVU1492
 5104 0004 83B0     		sub	sp, sp, #12
 5105              		.cfi_def_cfa_offset 16
 5106              	.LBB1227:
 5107              	.LBB1228:
 5108              		.loc 1 596 3 view .LVU1493
 5109 0006 0228     		cmp	r0, #2
 5110              	.LBE1228:
 5111              	.LBE1227:
 5112              		.loc 1 685 11 view .LVU1494
 5113 0008 8DF80430 		strb	r3, [sp, #4]
 5114              		.loc 1 686 3 is_stmt 1 view .LVU1495
 5115              	.LVL363:
 5116              	.LBB1238:
 5117              	.LBI1227:
 5118              		.loc 1 595 13 view .LVU1496
 5119              	.LBB1235:
 5120              		.loc 1 596 3 view .LVU1497
 5121 000c 0DD0     		beq	.L282
 5122 000e 0328     		cmp	r0, #3
 5123 0010 04D0     		beq	.L279
 5124 0012 0128     		cmp	r0, #1
 5125 0014 10D0     		beq	.L283
 5126              	.LBE1235:
 5127              	.LBE1238:
 5128              		.loc 1 687 1 is_stmt 0 view .LVU1498
ARM GAS  C:\Users\DEVELO~1\AppData\Local\Temp\ccAozvLj.s 			page 91


 5129 0016 03B0     		add	sp, sp, #12
 5130              		.cfi_remember_state
 5131              		.cfi_def_cfa_offset 4
 5132              		@ sp needed
 5133 0018 5DF804FB 		ldr	pc, [sp], #4
 5134              	.LVL364:
 5135              	.L279:
 5136              		.cfi_restore_state
 5137              	.LBB1239:
 5138              	.LBB1236:
 5139              	.LBB1229:
 5140              	.LBI1229:
 5141              		.loc 1 595 13 is_stmt 1 view .LVU1499
 5142              	.LBB1230:
 5143              		.loc 1 599 26 view .LVU1500
 5144              	.LBB1231:
 5145              	.LBI1231:
 5146              		.loc 1 368 13 view .LVU1501
 5147              	.LBB1232:
 5148              		.loc 1 368 57 view .LVU1502
 5149 001c 4FF0FF33 		mov	r3, #-1
 5150 0020 0122     		movs	r2, #1
 5151 0022 0A48     		ldr	r0, .L284
 5152              	.LVL365:
 5153              		.loc 1 368 57 is_stmt 0 view .LVU1503
 5154 0024 01A9     		add	r1, sp, #4
 5155              	.LVL366:
 5156              		.loc 1 368 57 view .LVU1504
 5157 0026 FFF7FEFF 		bl	oqWriteTimeout
 5158              	.LVL367:
 5159              	.L282:
 5160              		.loc 1 368 57 view .LVU1505
 5161              	.LBE1232:
 5162              	.LBE1231:
 5163              		.loc 1 599 42 is_stmt 1 view .LVU1506
 5164 002a 0121     		movs	r1, #1
 5165 002c 01A8     		add	r0, sp, #4
 5166              	.LVL368:
 5167              		.loc 1 599 42 is_stmt 0 view .LVU1507
 5168 002e FFF7FEFF 		bl	send_usb
 5169              	.LVL369:
 5170              		.loc 1 599 57 is_stmt 1 view .LVU1508
 5171              		.loc 1 599 57 is_stmt 0 view .LVU1509
 5172              	.LBE1230:
 5173              	.LBE1229:
 5174              	.LBE1236:
 5175              	.LBE1239:
 5176              		.loc 1 687 1 view .LVU1510
 5177 0032 03B0     		add	sp, sp, #12
 5178              		.cfi_remember_state
 5179              		.cfi_def_cfa_offset 4
 5180              		@ sp needed
 5181 0034 5DF804FB 		ldr	pc, [sp], #4
 5182              	.LVL370:
 5183              	.L283:
 5184              		.cfi_restore_state
 5185              	.LBB1240:
ARM GAS  C:\Users\DEVELO~1\AppData\Local\Temp\ccAozvLj.s 			page 92


 5186              	.LBB1237:
 5187              		.loc 1 597 26 is_stmt 1 view .LVU1511
 5188              	.LBB1233:
 5189              	.LBI1233:
 5190              		.loc 1 368 13 view .LVU1512
 5191              	.LBB1234:
 5192              		.loc 1 368 57 view .LVU1513
 5193 0038 0246     		mov	r2, r0
 5194 003a 4FF0FF33 		mov	r3, #-1
 5195 003e 01A9     		add	r1, sp, #4
 5196              	.LVL371:
 5197              		.loc 1 368 57 is_stmt 0 view .LVU1514
 5198 0040 0248     		ldr	r0, .L284
 5199              	.LVL372:
 5200              		.loc 1 368 57 view .LVU1515
 5201 0042 FFF7FEFF 		bl	oqWriteTimeout
 5202              	.LVL373:
 5203              		.loc 1 368 57 view .LVU1516
 5204              	.LBE1234:
 5205              	.LBE1233:
 5206              	.LBE1237:
 5207              	.LBE1240:
 5208              		.loc 1 687 1 view .LVU1517
 5209 0046 03B0     		add	sp, sp, #12
 5210              		.cfi_def_cfa_offset 4
 5211              		@ sp needed
 5212 0048 5DF804FB 		ldr	pc, [sp], #4
 5213              	.LVL374:
 5214              	.L285:
 5215              		.loc 1 687 1 view .LVU1518
 5216              		.align	2
 5217              	.L284:
 5218 004c 30000000 		.word	SD3+48
 5219              		.cfi_endproc
 5220              	.LFE463:
 5221              		.size	midi_clock, .-midi_clock
 5222              		.section	.text.midi_start,"ax",%progbits
 5223              		.align	1
 5224              		.p2align 4,,15
 5225              		.global	midi_start
 5226              		.syntax unified
 5227              		.thumb
 5228              		.thumb_func
 5229              		.type	midi_start, %function
 5230              	midi_start:
 5231              	.LVL375:
 5232              	.LFB464:
 5233              		.loc 1 689 31 is_stmt 1 view -0
 5234              		.cfi_startproc
 5235              		@ args = 0, pretend = 0, frame = 8
 5236              		@ frame_needed = 0, uses_anonymous_args = 0
 5237              		.loc 1 690 3 view .LVU1520
 5238              		.loc 1 689 31 is_stmt 0 view .LVU1521
 5239 0000 00B5     		push	{lr}
 5240              		.cfi_def_cfa_offset 4
 5241              		.cfi_offset 14, -4
 5242              		.loc 1 690 11 view .LVU1522
ARM GAS  C:\Users\DEVELO~1\AppData\Local\Temp\ccAozvLj.s 			page 93


 5243 0002 FA23     		movs	r3, #250
 5244              		.loc 1 689 31 view .LVU1523
 5245 0004 83B0     		sub	sp, sp, #12
 5246              		.cfi_def_cfa_offset 16
 5247              	.LBB1251:
 5248              	.LBB1252:
 5249              		.loc 1 596 3 view .LVU1524
 5250 0006 0228     		cmp	r0, #2
 5251              	.LBE1252:
 5252              	.LBE1251:
 5253              		.loc 1 690 11 view .LVU1525
 5254 0008 8DF80430 		strb	r3, [sp, #4]
 5255              		.loc 1 691 3 is_stmt 1 view .LVU1526
 5256              	.LVL376:
 5257              	.LBB1262:
 5258              	.LBI1251:
 5259              		.loc 1 595 13 view .LVU1527
 5260              	.LBB1259:
 5261              		.loc 1 596 3 view .LVU1528
 5262 000c 0DD0     		beq	.L291
 5263 000e 0328     		cmp	r0, #3
 5264 0010 04D0     		beq	.L288
 5265 0012 0128     		cmp	r0, #1
 5266 0014 10D0     		beq	.L292
 5267              	.LBE1259:
 5268              	.LBE1262:
 5269              		.loc 1 692 1 is_stmt 0 view .LVU1529
 5270 0016 03B0     		add	sp, sp, #12
 5271              		.cfi_remember_state
 5272              		.cfi_def_cfa_offset 4
 5273              		@ sp needed
 5274 0018 5DF804FB 		ldr	pc, [sp], #4
 5275              	.LVL377:
 5276              	.L288:
 5277              		.cfi_restore_state
 5278              	.LBB1263:
 5279              	.LBB1260:
 5280              	.LBB1253:
 5281              	.LBI1253:
 5282              		.loc 1 595 13 is_stmt 1 view .LVU1530
 5283              	.LBB1254:
 5284              		.loc 1 599 26 view .LVU1531
 5285              	.LBB1255:
 5286              	.LBI1255:
 5287              		.loc 1 368 13 view .LVU1532
 5288              	.LBB1256:
 5289              		.loc 1 368 57 view .LVU1533
 5290 001c 4FF0FF33 		mov	r3, #-1
 5291 0020 0122     		movs	r2, #1
 5292 0022 0A48     		ldr	r0, .L293
 5293              	.LVL378:
 5294              		.loc 1 368 57 is_stmt 0 view .LVU1534
 5295 0024 01A9     		add	r1, sp, #4
 5296              	.LVL379:
 5297              		.loc 1 368 57 view .LVU1535
 5298 0026 FFF7FEFF 		bl	oqWriteTimeout
 5299              	.LVL380:
ARM GAS  C:\Users\DEVELO~1\AppData\Local\Temp\ccAozvLj.s 			page 94


 5300              	.L291:
 5301              		.loc 1 368 57 view .LVU1536
 5302              	.LBE1256:
 5303              	.LBE1255:
 5304              		.loc 1 599 42 is_stmt 1 view .LVU1537
 5305 002a 0121     		movs	r1, #1
 5306 002c 01A8     		add	r0, sp, #4
 5307              	.LVL381:
 5308              		.loc 1 599 42 is_stmt 0 view .LVU1538
 5309 002e FFF7FEFF 		bl	send_usb
 5310              	.LVL382:
 5311              		.loc 1 599 57 is_stmt 1 view .LVU1539
 5312              		.loc 1 599 57 is_stmt 0 view .LVU1540
 5313              	.LBE1254:
 5314              	.LBE1253:
 5315              	.LBE1260:
 5316              	.LBE1263:
 5317              		.loc 1 692 1 view .LVU1541
 5318 0032 03B0     		add	sp, sp, #12
 5319              		.cfi_remember_state
 5320              		.cfi_def_cfa_offset 4
 5321              		@ sp needed
 5322 0034 5DF804FB 		ldr	pc, [sp], #4
 5323              	.LVL383:
 5324              	.L292:
 5325              		.cfi_restore_state
 5326              	.LBB1264:
 5327              	.LBB1261:
 5328              		.loc 1 597 26 is_stmt 1 view .LVU1542
 5329              	.LBB1257:
 5330              	.LBI1257:
 5331              		.loc 1 368 13 view .LVU1543
 5332              	.LBB1258:
 5333              		.loc 1 368 57 view .LVU1544
 5334 0038 0246     		mov	r2, r0
 5335 003a 4FF0FF33 		mov	r3, #-1
 5336 003e 01A9     		add	r1, sp, #4
 5337              	.LVL384:
 5338              		.loc 1 368 57 is_stmt 0 view .LVU1545
 5339 0040 0248     		ldr	r0, .L293
 5340              	.LVL385:
 5341              		.loc 1 368 57 view .LVU1546
 5342 0042 FFF7FEFF 		bl	oqWriteTimeout
 5343              	.LVL386:
 5344              		.loc 1 368 57 view .LVU1547
 5345              	.LBE1258:
 5346              	.LBE1257:
 5347              	.LBE1261:
 5348              	.LBE1264:
 5349              		.loc 1 692 1 view .LVU1548
 5350 0046 03B0     		add	sp, sp, #12
 5351              		.cfi_def_cfa_offset 4
 5352              		@ sp needed
 5353 0048 5DF804FB 		ldr	pc, [sp], #4
 5354              	.LVL387:
 5355              	.L294:
 5356              		.loc 1 692 1 view .LVU1549
ARM GAS  C:\Users\DEVELO~1\AppData\Local\Temp\ccAozvLj.s 			page 95


 5357              		.align	2
 5358              	.L293:
 5359 004c 30000000 		.word	SD3+48
 5360              		.cfi_endproc
 5361              	.LFE464:
 5362              		.size	midi_start, .-midi_start
 5363              		.section	.text.midi_continue,"ax",%progbits
 5364              		.align	1
 5365              		.p2align 4,,15
 5366              		.global	midi_continue
 5367              		.syntax unified
 5368              		.thumb
 5369              		.thumb_func
 5370              		.type	midi_continue, %function
 5371              	midi_continue:
 5372              	.LVL388:
 5373              	.LFB465:
 5374              		.loc 1 694 34 is_stmt 1 view -0
 5375              		.cfi_startproc
 5376              		@ args = 0, pretend = 0, frame = 8
 5377              		@ frame_needed = 0, uses_anonymous_args = 0
 5378              		.loc 1 695 3 view .LVU1551
 5379              		.loc 1 694 34 is_stmt 0 view .LVU1552
 5380 0000 00B5     		push	{lr}
 5381              		.cfi_def_cfa_offset 4
 5382              		.cfi_offset 14, -4
 5383              		.loc 1 695 11 view .LVU1553
 5384 0002 FB23     		movs	r3, #251
 5385              		.loc 1 694 34 view .LVU1554
 5386 0004 83B0     		sub	sp, sp, #12
 5387              		.cfi_def_cfa_offset 16
 5388              	.LBB1275:
 5389              	.LBB1276:
 5390              		.loc 1 596 3 view .LVU1555
 5391 0006 0228     		cmp	r0, #2
 5392              	.LBE1276:
 5393              	.LBE1275:
 5394              		.loc 1 695 11 view .LVU1556
 5395 0008 8DF80430 		strb	r3, [sp, #4]
 5396              		.loc 1 696 3 is_stmt 1 view .LVU1557
 5397              	.LVL389:
 5398              	.LBB1286:
 5399              	.LBI1275:
 5400              		.loc 1 595 13 view .LVU1558
 5401              	.LBB1283:
 5402              		.loc 1 596 3 view .LVU1559
 5403 000c 0DD0     		beq	.L300
 5404 000e 0328     		cmp	r0, #3
 5405 0010 04D0     		beq	.L297
 5406 0012 0128     		cmp	r0, #1
 5407 0014 10D0     		beq	.L301
 5408              	.LBE1283:
 5409              	.LBE1286:
 5410              		.loc 1 697 1 is_stmt 0 view .LVU1560
 5411 0016 03B0     		add	sp, sp, #12
 5412              		.cfi_remember_state
 5413              		.cfi_def_cfa_offset 4
ARM GAS  C:\Users\DEVELO~1\AppData\Local\Temp\ccAozvLj.s 			page 96


 5414              		@ sp needed
 5415 0018 5DF804FB 		ldr	pc, [sp], #4
 5416              	.LVL390:
 5417              	.L297:
 5418              		.cfi_restore_state
 5419              	.LBB1287:
 5420              	.LBB1284:
 5421              	.LBB1277:
 5422              	.LBI1277:
 5423              		.loc 1 595 13 is_stmt 1 view .LVU1561
 5424              	.LBB1278:
 5425              		.loc 1 599 26 view .LVU1562
 5426              	.LBB1279:
 5427              	.LBI1279:
 5428              		.loc 1 368 13 view .LVU1563
 5429              	.LBB1280:
 5430              		.loc 1 368 57 view .LVU1564
 5431 001c 4FF0FF33 		mov	r3, #-1
 5432 0020 0122     		movs	r2, #1
 5433 0022 0A48     		ldr	r0, .L302
 5434              	.LVL391:
 5435              		.loc 1 368 57 is_stmt 0 view .LVU1565
 5436 0024 01A9     		add	r1, sp, #4
 5437              	.LVL392:
 5438              		.loc 1 368 57 view .LVU1566
 5439 0026 FFF7FEFF 		bl	oqWriteTimeout
 5440              	.LVL393:
 5441              	.L300:
 5442              		.loc 1 368 57 view .LVU1567
 5443              	.LBE1280:
 5444              	.LBE1279:
 5445              		.loc 1 599 42 is_stmt 1 view .LVU1568
 5446 002a 0121     		movs	r1, #1
 5447 002c 01A8     		add	r0, sp, #4
 5448              	.LVL394:
 5449              		.loc 1 599 42 is_stmt 0 view .LVU1569
 5450 002e FFF7FEFF 		bl	send_usb
 5451              	.LVL395:
 5452              		.loc 1 599 57 is_stmt 1 view .LVU1570
 5453              		.loc 1 599 57 is_stmt 0 view .LVU1571
 5454              	.LBE1278:
 5455              	.LBE1277:
 5456              	.LBE1284:
 5457              	.LBE1287:
 5458              		.loc 1 697 1 view .LVU1572
 5459 0032 03B0     		add	sp, sp, #12
 5460              		.cfi_remember_state
 5461              		.cfi_def_cfa_offset 4
 5462              		@ sp needed
 5463 0034 5DF804FB 		ldr	pc, [sp], #4
 5464              	.LVL396:
 5465              	.L301:
 5466              		.cfi_restore_state
 5467              	.LBB1288:
 5468              	.LBB1285:
 5469              		.loc 1 597 26 is_stmt 1 view .LVU1573
 5470              	.LBB1281:
ARM GAS  C:\Users\DEVELO~1\AppData\Local\Temp\ccAozvLj.s 			page 97


 5471              	.LBI1281:
 5472              		.loc 1 368 13 view .LVU1574
 5473              	.LBB1282:
 5474              		.loc 1 368 57 view .LVU1575
 5475 0038 0246     		mov	r2, r0
 5476 003a 4FF0FF33 		mov	r3, #-1
 5477 003e 01A9     		add	r1, sp, #4
 5478              	.LVL397:
 5479              		.loc 1 368 57 is_stmt 0 view .LVU1576
 5480 0040 0248     		ldr	r0, .L302
 5481              	.LVL398:
 5482              		.loc 1 368 57 view .LVU1577
 5483 0042 FFF7FEFF 		bl	oqWriteTimeout
 5484              	.LVL399:
 5485              		.loc 1 368 57 view .LVU1578
 5486              	.LBE1282:
 5487              	.LBE1281:
 5488              	.LBE1285:
 5489              	.LBE1288:
 5490              		.loc 1 697 1 view .LVU1579
 5491 0046 03B0     		add	sp, sp, #12
 5492              		.cfi_def_cfa_offset 4
 5493              		@ sp needed
 5494 0048 5DF804FB 		ldr	pc, [sp], #4
 5495              	.LVL400:
 5496              	.L303:
 5497              		.loc 1 697 1 view .LVU1580
 5498              		.align	2
 5499              	.L302:
 5500 004c 30000000 		.word	SD3+48
 5501              		.cfi_endproc
 5502              	.LFE465:
 5503              		.size	midi_continue, .-midi_continue
 5504              		.section	.text.midi_stop,"ax",%progbits
 5505              		.align	1
 5506              		.p2align 4,,15
 5507              		.global	midi_stop
 5508              		.syntax unified
 5509              		.thumb
 5510              		.thumb_func
 5511              		.type	midi_stop, %function
 5512              	midi_stop:
 5513              	.LVL401:
 5514              	.LFB466:
 5515              		.loc 1 699 30 is_stmt 1 view -0
 5516              		.cfi_startproc
 5517              		@ args = 0, pretend = 0, frame = 8
 5518              		@ frame_needed = 0, uses_anonymous_args = 0
 5519              		.loc 1 700 3 view .LVU1582
 5520              		.loc 1 699 30 is_stmt 0 view .LVU1583
 5521 0000 00B5     		push	{lr}
 5522              		.cfi_def_cfa_offset 4
 5523              		.cfi_offset 14, -4
 5524              		.loc 1 700 11 view .LVU1584
 5525 0002 FC23     		movs	r3, #252
 5526              		.loc 1 699 30 view .LVU1585
 5527 0004 83B0     		sub	sp, sp, #12
ARM GAS  C:\Users\DEVELO~1\AppData\Local\Temp\ccAozvLj.s 			page 98


 5528              		.cfi_def_cfa_offset 16
 5529              	.LBB1299:
 5530              	.LBB1300:
 5531              		.loc 1 596 3 view .LVU1586
 5532 0006 0228     		cmp	r0, #2
 5533              	.LBE1300:
 5534              	.LBE1299:
 5535              		.loc 1 700 11 view .LVU1587
 5536 0008 8DF80430 		strb	r3, [sp, #4]
 5537              		.loc 1 701 3 is_stmt 1 view .LVU1588
 5538              	.LVL402:
 5539              	.LBB1310:
 5540              	.LBI1299:
 5541              		.loc 1 595 13 view .LVU1589
 5542              	.LBB1307:
 5543              		.loc 1 596 3 view .LVU1590
 5544 000c 0DD0     		beq	.L309
 5545 000e 0328     		cmp	r0, #3
 5546 0010 04D0     		beq	.L306
 5547 0012 0128     		cmp	r0, #1
 5548 0014 10D0     		beq	.L310
 5549              	.LBE1307:
 5550              	.LBE1310:
 5551              		.loc 1 702 1 is_stmt 0 view .LVU1591
 5552 0016 03B0     		add	sp, sp, #12
 5553              		.cfi_remember_state
 5554              		.cfi_def_cfa_offset 4
 5555              		@ sp needed
 5556 0018 5DF804FB 		ldr	pc, [sp], #4
 5557              	.LVL403:
 5558              	.L306:
 5559              		.cfi_restore_state
 5560              	.LBB1311:
 5561              	.LBB1308:
 5562              	.LBB1301:
 5563              	.LBI1301:
 5564              		.loc 1 595 13 is_stmt 1 view .LVU1592
 5565              	.LBB1302:
 5566              		.loc 1 599 26 view .LVU1593
 5567              	.LBB1303:
 5568              	.LBI1303:
 5569              		.loc 1 368 13 view .LVU1594
 5570              	.LBB1304:
 5571              		.loc 1 368 57 view .LVU1595
 5572 001c 4FF0FF33 		mov	r3, #-1
 5573 0020 0122     		movs	r2, #1
 5574 0022 0A48     		ldr	r0, .L311
 5575              	.LVL404:
 5576              		.loc 1 368 57 is_stmt 0 view .LVU1596
 5577 0024 01A9     		add	r1, sp, #4
 5578              	.LVL405:
 5579              		.loc 1 368 57 view .LVU1597
 5580 0026 FFF7FEFF 		bl	oqWriteTimeout
 5581              	.LVL406:
 5582              	.L309:
 5583              		.loc 1 368 57 view .LVU1598
 5584              	.LBE1304:
ARM GAS  C:\Users\DEVELO~1\AppData\Local\Temp\ccAozvLj.s 			page 99


 5585              	.LBE1303:
 5586              		.loc 1 599 42 is_stmt 1 view .LVU1599
 5587 002a 0121     		movs	r1, #1
 5588 002c 01A8     		add	r0, sp, #4
 5589              	.LVL407:
 5590              		.loc 1 599 42 is_stmt 0 view .LVU1600
 5591 002e FFF7FEFF 		bl	send_usb
 5592              	.LVL408:
 5593              		.loc 1 599 57 is_stmt 1 view .LVU1601
 5594              		.loc 1 599 57 is_stmt 0 view .LVU1602
 5595              	.LBE1302:
 5596              	.LBE1301:
 5597              	.LBE1308:
 5598              	.LBE1311:
 5599              		.loc 1 702 1 view .LVU1603
 5600 0032 03B0     		add	sp, sp, #12
 5601              		.cfi_remember_state
 5602              		.cfi_def_cfa_offset 4
 5603              		@ sp needed
 5604 0034 5DF804FB 		ldr	pc, [sp], #4
 5605              	.LVL409:
 5606              	.L310:
 5607              		.cfi_restore_state
 5608              	.LBB1312:
 5609              	.LBB1309:
 5610              		.loc 1 597 26 is_stmt 1 view .LVU1604
 5611              	.LBB1305:
 5612              	.LBI1305:
 5613              		.loc 1 368 13 view .LVU1605
 5614              	.LBB1306:
 5615              		.loc 1 368 57 view .LVU1606
 5616 0038 0246     		mov	r2, r0
 5617 003a 4FF0FF33 		mov	r3, #-1
 5618 003e 01A9     		add	r1, sp, #4
 5619              	.LVL410:
 5620              		.loc 1 368 57 is_stmt 0 view .LVU1607
 5621 0040 0248     		ldr	r0, .L311
 5622              	.LVL411:
 5623              		.loc 1 368 57 view .LVU1608
 5624 0042 FFF7FEFF 		bl	oqWriteTimeout
 5625              	.LVL412:
 5626              		.loc 1 368 57 view .LVU1609
 5627              	.LBE1306:
 5628              	.LBE1305:
 5629              	.LBE1309:
 5630              	.LBE1312:
 5631              		.loc 1 702 1 view .LVU1610
 5632 0046 03B0     		add	sp, sp, #12
 5633              		.cfi_def_cfa_offset 4
 5634              		@ sp needed
 5635 0048 5DF804FB 		ldr	pc, [sp], #4
 5636              	.LVL413:
 5637              	.L312:
 5638              		.loc 1 702 1 view .LVU1611
 5639              		.align	2
 5640              	.L311:
 5641 004c 30000000 		.word	SD3+48
ARM GAS  C:\Users\DEVELO~1\AppData\Local\Temp\ccAozvLj.s 			page 100


 5642              		.cfi_endproc
 5643              	.LFE466:
 5644              		.size	midi_stop, .-midi_stop
 5645              		.section	.text.midi_active_sensing,"ax",%progbits
 5646              		.align	1
 5647              		.p2align 4,,15
 5648              		.global	midi_active_sensing
 5649              		.syntax unified
 5650              		.thumb
 5651              		.thumb_func
 5652              		.type	midi_active_sensing, %function
 5653              	midi_active_sensing:
 5654              	.LVL414:
 5655              	.LFB467:
 5656              		.loc 1 704 40 is_stmt 1 view -0
 5657              		.cfi_startproc
 5658              		@ args = 0, pretend = 0, frame = 8
 5659              		@ frame_needed = 0, uses_anonymous_args = 0
 5660              		.loc 1 705 3 view .LVU1613
 5661              		.loc 1 704 40 is_stmt 0 view .LVU1614
 5662 0000 00B5     		push	{lr}
 5663              		.cfi_def_cfa_offset 4
 5664              		.cfi_offset 14, -4
 5665              		.loc 1 705 11 view .LVU1615
 5666 0002 FE23     		movs	r3, #254
 5667              		.loc 1 704 40 view .LVU1616
 5668 0004 83B0     		sub	sp, sp, #12
 5669              		.cfi_def_cfa_offset 16
 5670              	.LBB1323:
 5671              	.LBB1324:
 5672              		.loc 1 596 3 view .LVU1617
 5673 0006 0228     		cmp	r0, #2
 5674              	.LBE1324:
 5675              	.LBE1323:
 5676              		.loc 1 705 11 view .LVU1618
 5677 0008 8DF80430 		strb	r3, [sp, #4]
 5678              		.loc 1 706 3 is_stmt 1 view .LVU1619
 5679              	.LVL415:
 5680              	.LBB1334:
 5681              	.LBI1323:
 5682              		.loc 1 595 13 view .LVU1620
 5683              	.LBB1331:
 5684              		.loc 1 596 3 view .LVU1621
 5685 000c 0DD0     		beq	.L318
 5686 000e 0328     		cmp	r0, #3
 5687 0010 04D0     		beq	.L315
 5688 0012 0128     		cmp	r0, #1
 5689 0014 10D0     		beq	.L319
 5690              	.LBE1331:
 5691              	.LBE1334:
 5692              		.loc 1 707 1 is_stmt 0 view .LVU1622
 5693 0016 03B0     		add	sp, sp, #12
 5694              		.cfi_remember_state
 5695              		.cfi_def_cfa_offset 4
 5696              		@ sp needed
 5697 0018 5DF804FB 		ldr	pc, [sp], #4
 5698              	.LVL416:
ARM GAS  C:\Users\DEVELO~1\AppData\Local\Temp\ccAozvLj.s 			page 101


 5699              	.L315:
 5700              		.cfi_restore_state
 5701              	.LBB1335:
 5702              	.LBB1332:
 5703              	.LBB1325:
 5704              	.LBI1325:
 5705              		.loc 1 595 13 is_stmt 1 view .LVU1623
 5706              	.LBB1326:
 5707              		.loc 1 599 26 view .LVU1624
 5708              	.LBB1327:
 5709              	.LBI1327:
 5710              		.loc 1 368 13 view .LVU1625
 5711              	.LBB1328:
 5712              		.loc 1 368 57 view .LVU1626
 5713 001c 4FF0FF33 		mov	r3, #-1
 5714 0020 0122     		movs	r2, #1
 5715 0022 0A48     		ldr	r0, .L320
 5716              	.LVL417:
 5717              		.loc 1 368 57 is_stmt 0 view .LVU1627
 5718 0024 01A9     		add	r1, sp, #4
 5719              	.LVL418:
 5720              		.loc 1 368 57 view .LVU1628
 5721 0026 FFF7FEFF 		bl	oqWriteTimeout
 5722              	.LVL419:
 5723              	.L318:
 5724              		.loc 1 368 57 view .LVU1629
 5725              	.LBE1328:
 5726              	.LBE1327:
 5727              		.loc 1 599 42 is_stmt 1 view .LVU1630
 5728 002a 0121     		movs	r1, #1
 5729 002c 01A8     		add	r0, sp, #4
 5730              	.LVL420:
 5731              		.loc 1 599 42 is_stmt 0 view .LVU1631
 5732 002e FFF7FEFF 		bl	send_usb
 5733              	.LVL421:
 5734              		.loc 1 599 57 is_stmt 1 view .LVU1632
 5735              		.loc 1 599 57 is_stmt 0 view .LVU1633
 5736              	.LBE1326:
 5737              	.LBE1325:
 5738              	.LBE1332:
 5739              	.LBE1335:
 5740              		.loc 1 707 1 view .LVU1634
 5741 0032 03B0     		add	sp, sp, #12
 5742              		.cfi_remember_state
 5743              		.cfi_def_cfa_offset 4
 5744              		@ sp needed
 5745 0034 5DF804FB 		ldr	pc, [sp], #4
 5746              	.LVL422:
 5747              	.L319:
 5748              		.cfi_restore_state
 5749              	.LBB1336:
 5750              	.LBB1333:
 5751              		.loc 1 597 26 is_stmt 1 view .LVU1635
 5752              	.LBB1329:
 5753              	.LBI1329:
 5754              		.loc 1 368 13 view .LVU1636
 5755              	.LBB1330:
ARM GAS  C:\Users\DEVELO~1\AppData\Local\Temp\ccAozvLj.s 			page 102


 5756              		.loc 1 368 57 view .LVU1637
 5757 0038 0246     		mov	r2, r0
 5758 003a 4FF0FF33 		mov	r3, #-1
 5759 003e 01A9     		add	r1, sp, #4
 5760              	.LVL423:
 5761              		.loc 1 368 57 is_stmt 0 view .LVU1638
 5762 0040 0248     		ldr	r0, .L320
 5763              	.LVL424:
 5764              		.loc 1 368 57 view .LVU1639
 5765 0042 FFF7FEFF 		bl	oqWriteTimeout
 5766              	.LVL425:
 5767              		.loc 1 368 57 view .LVU1640
 5768              	.LBE1330:
 5769              	.LBE1329:
 5770              	.LBE1333:
 5771              	.LBE1336:
 5772              		.loc 1 707 1 view .LVU1641
 5773 0046 03B0     		add	sp, sp, #12
 5774              		.cfi_def_cfa_offset 4
 5775              		@ sp needed
 5776 0048 5DF804FB 		ldr	pc, [sp], #4
 5777              	.LVL426:
 5778              	.L321:
 5779              		.loc 1 707 1 view .LVU1642
 5780              		.align	2
 5781              	.L320:
 5782 004c 30000000 		.word	SD3+48
 5783              		.cfi_endproc
 5784              	.LFE467:
 5785              		.size	midi_active_sensing, .-midi_active_sensing
 5786              		.section	.text.midi_system_reset,"ax",%progbits
 5787              		.align	1
 5788              		.p2align 4,,15
 5789              		.global	midi_system_reset
 5790              		.syntax unified
 5791              		.thumb
 5792              		.thumb_func
 5793              		.type	midi_system_reset, %function
 5794              	midi_system_reset:
 5795              	.LVL427:
 5796              	.LFB468:
 5797              		.loc 1 709 38 is_stmt 1 view -0
 5798              		.cfi_startproc
 5799              		@ args = 0, pretend = 0, frame = 8
 5800              		@ frame_needed = 0, uses_anonymous_args = 0
 5801              		.loc 1 710 3 view .LVU1644
 5802              		.loc 1 709 38 is_stmt 0 view .LVU1645
 5803 0000 00B5     		push	{lr}
 5804              		.cfi_def_cfa_offset 4
 5805              		.cfi_offset 14, -4
 5806              		.loc 1 710 11 view .LVU1646
 5807 0002 FF23     		movs	r3, #255
 5808              		.loc 1 709 38 view .LVU1647
 5809 0004 83B0     		sub	sp, sp, #12
 5810              		.cfi_def_cfa_offset 16
 5811              	.LBB1347:
 5812              	.LBB1348:
ARM GAS  C:\Users\DEVELO~1\AppData\Local\Temp\ccAozvLj.s 			page 103


 5813              		.loc 1 596 3 view .LVU1648
 5814 0006 0228     		cmp	r0, #2
 5815              	.LBE1348:
 5816              	.LBE1347:
 5817              		.loc 1 710 11 view .LVU1649
 5818 0008 8DF80430 		strb	r3, [sp, #4]
 5819              		.loc 1 711 3 is_stmt 1 view .LVU1650
 5820              	.LVL428:
 5821              	.LBB1358:
 5822              	.LBI1347:
 5823              		.loc 1 595 13 view .LVU1651
 5824              	.LBB1355:
 5825              		.loc 1 596 3 view .LVU1652
 5826 000c 0DD0     		beq	.L327
 5827 000e 0328     		cmp	r0, #3
 5828 0010 04D0     		beq	.L324
 5829 0012 0128     		cmp	r0, #1
 5830 0014 10D0     		beq	.L328
 5831              	.LBE1355:
 5832              	.LBE1358:
 5833              		.loc 1 712 1 is_stmt 0 view .LVU1653
 5834 0016 03B0     		add	sp, sp, #12
 5835              		.cfi_remember_state
 5836              		.cfi_def_cfa_offset 4
 5837              		@ sp needed
 5838 0018 5DF804FB 		ldr	pc, [sp], #4
 5839              	.LVL429:
 5840              	.L324:
 5841              		.cfi_restore_state
 5842              	.LBB1359:
 5843              	.LBB1356:
 5844              	.LBB1349:
 5845              	.LBI1349:
 5846              		.loc 1 595 13 is_stmt 1 view .LVU1654
 5847              	.LBB1350:
 5848              		.loc 1 599 26 view .LVU1655
 5849              	.LBB1351:
 5850              	.LBI1351:
 5851              		.loc 1 368 13 view .LVU1656
 5852              	.LBB1352:
 5853              		.loc 1 368 57 view .LVU1657
 5854 001c 4FF0FF33 		mov	r3, #-1
 5855 0020 0122     		movs	r2, #1
 5856 0022 0A48     		ldr	r0, .L329
 5857              	.LVL430:
 5858              		.loc 1 368 57 is_stmt 0 view .LVU1658
 5859 0024 01A9     		add	r1, sp, #4
 5860              	.LVL431:
 5861              		.loc 1 368 57 view .LVU1659
 5862 0026 FFF7FEFF 		bl	oqWriteTimeout
 5863              	.LVL432:
 5864              	.L327:
 5865              		.loc 1 368 57 view .LVU1660
 5866              	.LBE1352:
 5867              	.LBE1351:
 5868              		.loc 1 599 42 is_stmt 1 view .LVU1661
 5869 002a 0121     		movs	r1, #1
ARM GAS  C:\Users\DEVELO~1\AppData\Local\Temp\ccAozvLj.s 			page 104


 5870 002c 01A8     		add	r0, sp, #4
 5871              	.LVL433:
 5872              		.loc 1 599 42 is_stmt 0 view .LVU1662
 5873 002e FFF7FEFF 		bl	send_usb
 5874              	.LVL434:
 5875              		.loc 1 599 57 is_stmt 1 view .LVU1663
 5876              		.loc 1 599 57 is_stmt 0 view .LVU1664
 5877              	.LBE1350:
 5878              	.LBE1349:
 5879              	.LBE1356:
 5880              	.LBE1359:
 5881              		.loc 1 712 1 view .LVU1665
 5882 0032 03B0     		add	sp, sp, #12
 5883              		.cfi_remember_state
 5884              		.cfi_def_cfa_offset 4
 5885              		@ sp needed
 5886 0034 5DF804FB 		ldr	pc, [sp], #4
 5887              	.LVL435:
 5888              	.L328:
 5889              		.cfi_restore_state
 5890              	.LBB1360:
 5891              	.LBB1357:
 5892              		.loc 1 597 26 is_stmt 1 view .LVU1666
 5893              	.LBB1353:
 5894              	.LBI1353:
 5895              		.loc 1 368 13 view .LVU1667
 5896              	.LBB1354:
 5897              		.loc 1 368 57 view .LVU1668
 5898 0038 0246     		mov	r2, r0
 5899 003a 4FF0FF33 		mov	r3, #-1
 5900 003e 01A9     		add	r1, sp, #4
 5901              	.LVL436:
 5902              		.loc 1 368 57 is_stmt 0 view .LVU1669
 5903 0040 0248     		ldr	r0, .L329
 5904              	.LVL437:
 5905              		.loc 1 368 57 view .LVU1670
 5906 0042 FFF7FEFF 		bl	oqWriteTimeout
 5907              	.LVL438:
 5908              		.loc 1 368 57 view .LVU1671
 5909              	.LBE1354:
 5910              	.LBE1353:
 5911              	.LBE1357:
 5912              	.LBE1360:
 5913              		.loc 1 712 1 view .LVU1672
 5914 0046 03B0     		add	sp, sp, #12
 5915              		.cfi_def_cfa_offset 4
 5916              		@ sp needed
 5917 0048 5DF804FB 		ldr	pc, [sp], #4
 5918              	.LVL439:
 5919              	.L330:
 5920              		.loc 1 712 1 view .LVU1673
 5921              		.align	2
 5922              	.L329:
 5923 004c 30000000 		.word	SD3+48
 5924              		.cfi_endproc
 5925              	.LFE468:
 5926              		.size	midi_system_reset, .-midi_system_reset
ARM GAS  C:\Users\DEVELO~1\AppData\Local\Temp\ccAozvLj.s 			page 105


 5927              		.section	.text.midi_all_sound_off,"ax",%progbits
 5928              		.align	1
 5929              		.p2align 4,,15
 5930              		.global	midi_all_sound_off
 5931              		.syntax unified
 5932              		.thumb
 5933              		.thumb_func
 5934              		.type	midi_all_sound_off, %function
 5935              	midi_all_sound_off:
 5936              	.LVL440:
 5937              	.LFB470:
 5938              		.loc 1 724 55 is_stmt 1 view -0
 5939              		.cfi_startproc
 5940              		@ args = 0, pretend = 0, frame = 8
 5941              		@ frame_needed = 0, uses_anonymous_args = 0
 5942              		.loc 1 725 3 view .LVU1675
 5943              	.LBB1373:
 5944              	.LBB1374:
 5945              		.loc 1 642 36 is_stmt 0 view .LVU1676
 5946 0000 01F00F01 		and	r1, r1, #15
 5947              	.LVL441:
 5948              		.loc 1 642 11 view .LVU1677
 5949 0004 7822     		movs	r2, #120
 5950 0006 0023     		movs	r3, #0
 5951              	.LVL442:
 5952              		.loc 1 642 11 view .LVU1678
 5953              	.LBE1374:
 5954              	.LBI1373:
 5955              		.loc 1 641 6 is_stmt 1 view .LVU1679
 5956              	.LBB1393:
 5957              		.loc 1 642 3 view .LVU1680
 5958              	.LBB1375:
 5959              	.LBB1376:
 5960              		.loc 1 596 3 is_stmt 0 view .LVU1681
 5961 0008 0228     		cmp	r0, #2
 5962              	.LBE1376:
 5963              	.LBE1375:
 5964              		.loc 1 642 32 view .LVU1682
 5965 000a 61F04F01 		orn	r1, r1, #79
 5966              	.LBE1393:
 5967              	.LBE1373:
 5968              		.loc 1 724 55 view .LVU1683
 5969 000e 10B5     		push	{r4, lr}
 5970              		.cfi_def_cfa_offset 8
 5971              		.cfi_offset 4, -8
 5972              		.cfi_offset 14, -4
 5973 0010 82B0     		sub	sp, sp, #8
 5974              		.cfi_def_cfa_offset 16
 5975              	.LBB1398:
 5976              	.LBB1394:
 5977              		.loc 1 642 11 view .LVU1684
 5978 0012 8DF80520 		strb	r2, [sp, #5]
 5979 0016 8DF80630 		strb	r3, [sp, #6]
 5980              		.loc 1 643 3 is_stmt 1 view .LVU1685
 5981              	.LVL443:
 5982              	.LBB1388:
 5983              	.LBI1375:
ARM GAS  C:\Users\DEVELO~1\AppData\Local\Temp\ccAozvLj.s 			page 106


 5984              		.loc 1 595 13 view .LVU1686
 5985              	.LBB1383:
 5986              		.loc 1 596 3 view .LVU1687
 5987              	.LBE1383:
 5988              	.LBE1388:
 5989              		.loc 1 642 11 is_stmt 0 view .LVU1688
 5990 001a 8DF80410 		strb	r1, [sp, #4]
 5991              	.LBB1389:
 5992              	.LBB1384:
 5993              		.loc 1 596 3 view .LVU1689
 5994 001e 06D0     		beq	.L332
 5995 0020 0328     		cmp	r0, #3
 5996 0022 0446     		mov	r4, r0
 5997 0024 12D0     		beq	.L333
 5998 0026 0128     		cmp	r0, #1
 5999 0028 07D0     		beq	.L336
 6000              	.LBE1384:
 6001              	.LBE1389:
 6002              	.LBE1394:
 6003              	.LBE1398:
 6004              		.loc 1 726 1 view .LVU1690
 6005 002a 02B0     		add	sp, sp, #8
 6006              		.cfi_remember_state
 6007              		.cfi_def_cfa_offset 8
 6008              		@ sp needed
 6009 002c 10BD     		pop	{r4, pc}
 6010              	.LVL444:
 6011              	.L332:
 6012              		.cfi_restore_state
 6013              	.LBB1399:
 6014              	.LBB1395:
 6015              	.LBB1390:
 6016              	.LBB1385:
 6017              		.loc 1 598 26 is_stmt 1 view .LVU1691
 6018 002e 0321     		movs	r1, #3
 6019 0030 01A8     		add	r0, sp, #4
 6020              	.LVL445:
 6021              		.loc 1 598 26 is_stmt 0 view .LVU1692
 6022 0032 FFF7FEFF 		bl	send_usb
 6023              	.LVL446:
 6024              		.loc 1 598 42 is_stmt 1 view .LVU1693
 6025              	.LBE1385:
 6026              	.LBE1390:
 6027              	.LBE1395:
 6028              	.LBE1399:
 6029              		.loc 1 726 1 is_stmt 0 view .LVU1694
 6030 0036 02B0     		add	sp, sp, #8
 6031              		.cfi_remember_state
 6032              		.cfi_def_cfa_offset 8
 6033              		@ sp needed
 6034 0038 10BD     		pop	{r4, pc}
 6035              	.LVL447:
 6036              	.L336:
 6037              		.cfi_restore_state
 6038              	.LBB1400:
 6039              	.LBB1396:
 6040              	.LBB1391:
ARM GAS  C:\Users\DEVELO~1\AppData\Local\Temp\ccAozvLj.s 			page 107


 6041              	.LBB1386:
 6042              		.loc 1 597 26 is_stmt 1 view .LVU1695
 6043              	.LBB1377:
 6044              	.LBI1377:
 6045              		.loc 1 368 13 view .LVU1696
 6046              	.LBB1378:
 6047              		.loc 1 368 57 view .LVU1697
 6048 003a 4FF0FF33 		mov	r3, #-1
 6049 003e 0322     		movs	r2, #3
 6050 0040 01A9     		add	r1, sp, #4
 6051              	.LVL448:
 6052              		.loc 1 368 57 is_stmt 0 view .LVU1698
 6053 0042 0948     		ldr	r0, .L337
 6054              	.LVL449:
 6055              		.loc 1 368 57 view .LVU1699
 6056 0044 FFF7FEFF 		bl	oqWriteTimeout
 6057              	.LVL450:
 6058              		.loc 1 368 57 view .LVU1700
 6059              	.LBE1378:
 6060              	.LBE1377:
 6061              	.LBE1386:
 6062              	.LBE1391:
 6063              	.LBE1396:
 6064              	.LBE1400:
 6065              		.loc 1 726 1 view .LVU1701
 6066 0048 02B0     		add	sp, sp, #8
 6067              		.cfi_remember_state
 6068              		.cfi_def_cfa_offset 8
 6069              		@ sp needed
 6070 004a 10BD     		pop	{r4, pc}
 6071              	.LVL451:
 6072              	.L333:
 6073              		.cfi_restore_state
 6074              	.LBB1401:
 6075              	.LBB1397:
 6076              	.LBB1392:
 6077              	.LBB1387:
 6078              	.LBB1379:
 6079              	.LBI1379:
 6080              		.loc 1 595 13 is_stmt 1 view .LVU1702
 6081              	.LBB1380:
 6082              		.loc 1 599 26 view .LVU1703
 6083              	.LBB1381:
 6084              	.LBI1381:
 6085              		.loc 1 368 13 view .LVU1704
 6086              	.LBB1382:
 6087              		.loc 1 368 57 view .LVU1705
 6088 004c 0246     		mov	r2, r0
 6089 004e 4FF0FF33 		mov	r3, #-1
 6090 0052 01A9     		add	r1, sp, #4
 6091              	.LVL452:
 6092              		.loc 1 368 57 is_stmt 0 view .LVU1706
 6093 0054 0448     		ldr	r0, .L337
 6094              	.LVL453:
 6095              		.loc 1 368 57 view .LVU1707
 6096 0056 FFF7FEFF 		bl	oqWriteTimeout
 6097              	.LVL454:
ARM GAS  C:\Users\DEVELO~1\AppData\Local\Temp\ccAozvLj.s 			page 108


 6098              		.loc 1 368 57 view .LVU1708
 6099              	.LBE1382:
 6100              	.LBE1381:
 6101              		.loc 1 599 42 is_stmt 1 view .LVU1709
 6102 005a 2146     		mov	r1, r4
 6103 005c 01A8     		add	r0, sp, #4
 6104              	.LVL455:
 6105              		.loc 1 599 42 is_stmt 0 view .LVU1710
 6106 005e FFF7FEFF 		bl	send_usb
 6107              	.LVL456:
 6108              		.loc 1 599 57 is_stmt 1 view .LVU1711
 6109              		.loc 1 599 57 is_stmt 0 view .LVU1712
 6110              	.LBE1380:
 6111              	.LBE1379:
 6112              	.LBE1387:
 6113              	.LBE1392:
 6114              	.LBE1397:
 6115              	.LBE1401:
 6116              		.loc 1 726 1 view .LVU1713
 6117 0062 02B0     		add	sp, sp, #8
 6118              		.cfi_def_cfa_offset 8
 6119              		@ sp needed
 6120 0064 10BD     		pop	{r4, pc}
 6121              	.L338:
 6122 0066 00BF     		.align	2
 6123              	.L337:
 6124 0068 30000000 		.word	SD3+48
 6125              		.cfi_endproc
 6126              	.LFE470:
 6127              		.size	midi_all_sound_off, .-midi_all_sound_off
 6128              		.section	.text.midi_reset_all_controllers,"ax",%progbits
 6129              		.align	1
 6130              		.p2align 4,,15
 6131              		.global	midi_reset_all_controllers
 6132              		.syntax unified
 6133              		.thumb
 6134              		.thumb_func
 6135              		.type	midi_reset_all_controllers, %function
 6136              	midi_reset_all_controllers:
 6137              	.LVL457:
 6138              	.LFB471:
 6139              		.loc 1 728 63 is_stmt 1 view -0
 6140              		.cfi_startproc
 6141              		@ args = 0, pretend = 0, frame = 8
 6142              		@ frame_needed = 0, uses_anonymous_args = 0
 6143              		.loc 1 729 3 view .LVU1715
 6144              	.LBB1414:
 6145              	.LBB1415:
 6146              		.loc 1 642 36 is_stmt 0 view .LVU1716
 6147 0000 01F00F01 		and	r1, r1, #15
 6148              	.LVL458:
 6149              		.loc 1 642 11 view .LVU1717
 6150 0004 7922     		movs	r2, #121
 6151 0006 0023     		movs	r3, #0
 6152              	.LVL459:
 6153              		.loc 1 642 11 view .LVU1718
 6154              	.LBE1415:
ARM GAS  C:\Users\DEVELO~1\AppData\Local\Temp\ccAozvLj.s 			page 109


 6155              	.LBI1414:
 6156              		.loc 1 641 6 is_stmt 1 view .LVU1719
 6157              	.LBB1434:
 6158              		.loc 1 642 3 view .LVU1720
 6159              	.LBB1416:
 6160              	.LBB1417:
 6161              		.loc 1 596 3 is_stmt 0 view .LVU1721
 6162 0008 0228     		cmp	r0, #2
 6163              	.LBE1417:
 6164              	.LBE1416:
 6165              		.loc 1 642 32 view .LVU1722
 6166 000a 61F04F01 		orn	r1, r1, #79
 6167              	.LBE1434:
 6168              	.LBE1414:
 6169              		.loc 1 728 63 view .LVU1723
 6170 000e 10B5     		push	{r4, lr}
 6171              		.cfi_def_cfa_offset 8
 6172              		.cfi_offset 4, -8
 6173              		.cfi_offset 14, -4
 6174 0010 82B0     		sub	sp, sp, #8
 6175              		.cfi_def_cfa_offset 16
 6176              	.LBB1439:
 6177              	.LBB1435:
 6178              		.loc 1 642 11 view .LVU1724
 6179 0012 8DF80520 		strb	r2, [sp, #5]
 6180 0016 8DF80630 		strb	r3, [sp, #6]
 6181              		.loc 1 643 3 is_stmt 1 view .LVU1725
 6182              	.LVL460:
 6183              	.LBB1429:
 6184              	.LBI1416:
 6185              		.loc 1 595 13 view .LVU1726
 6186              	.LBB1424:
 6187              		.loc 1 596 3 view .LVU1727
 6188              	.LBE1424:
 6189              	.LBE1429:
 6190              		.loc 1 642 11 is_stmt 0 view .LVU1728
 6191 001a 8DF80410 		strb	r1, [sp, #4]
 6192              	.LBB1430:
 6193              	.LBB1425:
 6194              		.loc 1 596 3 view .LVU1729
 6195 001e 06D0     		beq	.L340
 6196 0020 0328     		cmp	r0, #3
 6197 0022 0446     		mov	r4, r0
 6198 0024 12D0     		beq	.L341
 6199 0026 0128     		cmp	r0, #1
 6200 0028 07D0     		beq	.L344
 6201              	.LBE1425:
