ARM GAS  C:\Users\DEVELO~1\AppData\Local\Temp\ccORRwr3.s 			page 1


   1              		.cpu cortex-m7
   2              		.arch armv7e-m
   3              		.fpu softvfp
   4              		.eabi_attribute 20, 1
   5              		.eabi_attribute 21, 1
   6              		.eabi_attribute 23, 3
   7              		.eabi_attribute 24, 1
   8              		.eabi_attribute 25, 1
   9              		.eabi_attribute 26, 1
  10              		.eabi_attribute 30, 2
  11              		.eabi_attribute 34, 1
  12              		.eabi_attribute 18, 4
  13              		.file	"nvic.c"
  14              		.text
  15              	.Ltext0:
  16              		.cfi_sections	.debug_frame
  17              		.section	.text.nvicInit,"ax",%progbits
  18              		.align	1
  19              		.p2align 4,,15
  20              		.global	nvicInit
  21              		.syntax unified
  22              		.thumb
  23              		.thumb_func
  24              		.type	nvicInit, %function
  25              	nvicInit:
  26              	.LFB431:
  27              		.file 1 "../../../os/hal/ports/common/ARMCMx/nvic.c"
  28              		.loc 1 79 21 view -0
  29              		.cfi_startproc
  30              		@ args = 0, pretend = 0, frame = 0
  31              		@ frame_needed = 0, uses_anonymous_args = 0
  32              		@ link register save eliminated.
  33              		.loc 1 84 3 view .LVU1
  34              		.loc 1 84 12 is_stmt 0 view .LVU2
  35 0000 4FF0E022 		mov	r2, #-536813568
  36              	.LBB2:
  37              		.loc 1 87 17 view .LVU3
  38 0004 0023     		movs	r3, #0
  39              		.loc 1 88 21 view .LVU4
  40 0006 4FF0FF30 		mov	r0, #-1
  41              	.LBE2:
  42              		.loc 1 79 21 view .LVU5
  43 000a 30B4     		push	{r4, r5}
  44              		.cfi_def_cfa_offset 8
  45              		.cfi_offset 4, -8
  46              		.cfi_offset 5, -4
  47 000c 064D     		ldr	r5, .L6
  48              		.loc 1 84 12 view .LVU6
  49 000e 5468     		ldr	r4, [r2, #4]
  50              	.LVL0:
  51              		.loc 1 87 3 is_stmt 1 view .LVU7
  52              	.LBB3:
  53              		.loc 1 87 8 view .LVU8
  54              		.loc 1 87 27 view .LVU9
  55              	.L2:
  56              		.loc 1 88 5 discriminator 3 view .LVU10
  57 0010 05EB8301 		add	r1, r5, r3, lsl #2
ARM GAS  C:\Users\DEVELO~1\AppData\Local\Temp\ccORRwr3.s 			page 2


  58              		.loc 1 87 27 is_stmt 0 discriminator 3 view .LVU11
  59 0014 9C42     		cmp	r4, r3
  60 0016 03F10103 		add	r3, r3, #1
  61              	.LVL1:
  62              		.loc 1 88 21 discriminator 3 view .LVU12
  63 001a C1F88000 		str	r0, [r1, #128]
  64              		.loc 1 89 5 is_stmt 1 discriminator 3 view .LVU13
  65              		.loc 1 89 21 is_stmt 0 discriminator 3 view .LVU14
  66 001e C1F88001 		str	r0, [r1, #384]
  67              		.loc 1 87 34 is_stmt 1 discriminator 3 view .LVU15
  68              	.LVL2:
  69              		.loc 1 87 27 discriminator 3 view .LVU16
  70 0022 F5D1     		bne	.L2
  71              	.LBE3:
  72              		.loc 1 94 1 is_stmt 0 view .LVU17
  73 0024 30BC     		pop	{r4, r5}
  74              		.cfi_restore 5
  75              		.cfi_restore 4
  76              		.cfi_def_cfa_offset 0
  77              	.LVL3:
  78              		.loc 1 94 1 view .LVU18
  79 0026 7047     		bx	lr
  80              	.L7:
  81              		.align	2
  82              	.L6:
  83 0028 00E100E0 		.word	-536813312
  84              		.cfi_endproc
  85              	.LFE431:
  86              		.size	nvicInit, .-nvicInit
  87              		.section	.text.nvicEnableVector,"ax",%progbits
  88              		.align	1
  89              		.p2align 4,,15
  90              		.global	nvicEnableVector
  91              		.syntax unified
  92              		.thumb
  93              		.thumb_func
  94              		.type	nvicEnableVector, %function
  95              	nvicEnableVector:
  96              	.LVL4:
  97              	.LFB432:
  98              		.loc 1 102 50 is_stmt 1 view -0
  99              		.cfi_startproc
 100              		@ args = 0, pretend = 0, frame = 0
 101              		@ frame_needed = 0, uses_anonymous_args = 0
 102              		.loc 1 109 3 view .LVU20
 103              		.loc 1 109 18 is_stmt 0 view .LVU21
 104 0000 0A4A     		ldr	r2, .L10
 105              		.loc 1 109 20 view .LVU22
 106 0002 0901     		lsls	r1, r1, #4
 107              	.LVL5:
 108              		.loc 1 111 18 view .LVU23
 109 0004 4FEA501C 		lsr	ip, r0, #5
 110              		.loc 1 111 30 view .LVU24
 111 0008 0123     		movs	r3, #1
 112              		.loc 1 109 20 view .LVU25
 113 000a C9B2     		uxtb	r1, r1
 114              		.loc 1 102 50 view .LVU26
ARM GAS  C:\Users\DEVELO~1\AppData\Local\Temp\ccORRwr3.s 			page 3


 115 000c 00B5     		push	{lr}
 116              		.cfi_def_cfa_offset 4
 117              		.cfi_offset 14, -4
 118              		.loc 1 111 36 view .LVU27
 119 000e 00F01F0E 		and	lr, r0, #31
 120              		.loc 1 109 18 view .LVU28
 121 0012 1044     		add	r0, r0, r2
 122              	.LVL6:
 123              		.loc 1 111 30 view .LVU29
 124 0014 03FA0EF3 		lsl	r3, r3, lr
 125              		.loc 1 109 18 view .LVU30
 126 0018 80F80013 		strb	r1, [r0, #768]
 127              		.loc 1 111 3 is_stmt 1 view .LVU31
 128 001c 02EB8C01 		add	r1, r2, ip, lsl #2
 129              		.loc 1 111 25 is_stmt 0 view .LVU32
 130 0020 C1F88031 		str	r3, [r1, #384]
 131              		.loc 1 112 3 is_stmt 1 view .LVU33
 132              		.loc 1 112 25 is_stmt 0 view .LVU34
 133 0024 42F82C30 		str	r3, [r2, ip, lsl #2]
 134              		.loc 1 118 1 view .LVU35
 135 0028 5DF804FB 		ldr	pc, [sp], #4
 136              	.L11:
 137              		.align	2
 138              	.L10:
 139 002c 00E100E0 		.word	-536813312
 140              		.cfi_endproc
 141              	.LFE432:
 142              		.size	nvicEnableVector, .-nvicEnableVector
 143              		.section	.text.nvicDisableVector,"ax",%progbits
 144              		.align	1
 145              		.p2align 4,,15
 146              		.global	nvicDisableVector
 147              		.syntax unified
 148              		.thumb
 149              		.thumb_func
 150              		.type	nvicDisableVector, %function
 151              	nvicDisableVector:
 152              	.LVL7:
 153              	.LFB433:
 154              		.loc 1 125 36 is_stmt 1 view -0
 155              		.cfi_startproc
 156              		@ args = 0, pretend = 0, frame = 0
 157              		@ frame_needed = 0, uses_anonymous_args = 0
 158              		@ link register save eliminated.
 159              		.loc 1 127 3 view .LVU37
 160              		.loc 1 127 36 is_stmt 0 view .LVU38
 161 0000 00F01F0C 		and	ip, r0, #31
 162              		.loc 1 127 30 view .LVU39
 163 0004 0122     		movs	r2, #1
 164 0006 084B     		ldr	r3, .L13
 165              		.loc 1 133 18 view .LVU40
 166 0008 0021     		movs	r1, #0
 167              		.loc 1 127 30 view .LVU41
 168 000a 02FA0CF2 		lsl	r2, r2, ip
 169              		.loc 1 127 18 view .LVU42
 170 000e 4FEA501C 		lsr	ip, r0, #5
 171              		.loc 1 133 18 view .LVU43
ARM GAS  C:\Users\DEVELO~1\AppData\Local\Temp\ccORRwr3.s 			page 4


 172 0012 1844     		add	r0, r0, r3
 173              	.LVL8:
 174              		.loc 1 133 18 view .LVU44
 175 0014 03EB8C03 		add	r3, r3, ip, lsl #2
 176              		.loc 1 127 25 view .LVU45
 177 0018 C3F88020 		str	r2, [r3, #128]
 178              		.loc 1 128 3 is_stmt 1 view .LVU46
 179              		.loc 1 128 25 is_stmt 0 view .LVU47
 180 001c C3F88021 		str	r2, [r3, #384]
 181              		.loc 1 133 3 is_stmt 1 view .LVU48
 182              		.loc 1 133 18 is_stmt 0 view .LVU49
 183 0020 80F80013 		strb	r1, [r0, #768]
 184              		.loc 1 139 1 view .LVU50
 185 0024 7047     		bx	lr
 186              	.L14:
 187 0026 00BF     		.align	2
 188              	.L13:
 189 0028 00E100E0 		.word	-536813312
 190              		.cfi_endproc
 191              	.LFE433:
 192              		.size	nvicDisableVector, .-nvicDisableVector
 193              		.section	.text.nvicSetSystemHandlerPriority,"ax",%progbits
 194              		.align	1
 195              		.p2align 4,,15
 196              		.global	nvicSetSystemHandlerPriority
 197              		.syntax unified
 198              		.thumb
 199              		.thumb_func
 200              		.type	nvicSetSystemHandlerPriority, %function
 201              	nvicSetSystemHandlerPriority:
 202              	.LVL9:
 203              	.LFB434:
 204              		.loc 1 147 68 is_stmt 1 view -0
 205              		.cfi_startproc
 206              		@ args = 0, pretend = 0, frame = 0
 207              		@ frame_needed = 0, uses_anonymous_args = 0
 208              		@ link register save eliminated.
 209              		.loc 1 149 3 view .LVU52
 210              		.loc 1 149 3 view .LVU53
 211              		.loc 1 149 3 view .LVU54
 212              		.loc 1 156 3 view .LVU55
 213              		.loc 1 156 24 is_stmt 0 view .LVU56
 214 0000 024B     		ldr	r3, .L16
 215              		.loc 1 156 26 view .LVU57
 216 0002 0901     		lsls	r1, r1, #4
 217              	.LVL10:
 218              		.loc 1 156 24 view .LVU58
 219 0004 0344     		add	r3, r3, r0
 220              		.loc 1 156 26 view .LVU59
 221 0006 C9B2     		uxtb	r1, r1
 222              		.loc 1 156 24 view .LVU60
 223 0008 1976     		strb	r1, [r3, #24]
 224              		.loc 1 158 1 view .LVU61
 225 000a 7047     		bx	lr
 226              	.L17:
 227              		.align	2
 228              	.L16:
ARM GAS  C:\Users\DEVELO~1\AppData\Local\Temp\ccORRwr3.s 			page 5


 229 000c 00ED00E0 		.word	-536810240
 230              		.cfi_endproc
 231              	.LFE434:
 232              		.size	nvicSetSystemHandlerPriority, .-nvicSetSystemHandlerPriority
 233              		.section	.text.nvicClearPending,"ax",%progbits
 234              		.align	1
 235              		.p2align 4,,15
 236              		.global	nvicClearPending
 237              		.syntax unified
 238              		.thumb
 239              		.thumb_func
 240              		.type	nvicClearPending, %function
 241              	nvicClearPending:
 242              	.LVL11:
 243              	.LFB435:
 244              		.loc 1 165 35 is_stmt 1 view -0
 245              		.cfi_startproc
 246              		@ args = 0, pretend = 0, frame = 0
 247              		@ frame_needed = 0, uses_anonymous_args = 0
 248              		@ link register save eliminated.
 249              		.loc 1 167 3 view .LVU63
 250              		.loc 1 167 18 is_stmt 0 view .LVU64
 251 0000 4309     		lsrs	r3, r0, #5
 252              		.loc 1 167 28 view .LVU65
 253 0002 0122     		movs	r2, #1
 254              		.loc 1 167 34 view .LVU66
 255 0004 00F01F00 		and	r0, r0, #31
 256              	.LVL12:
 257              		.loc 1 167 24 view .LVU67
 258 0008 0249     		ldr	r1, .L19
 259 000a 6033     		adds	r3, r3, #96
 260              		.loc 1 167 28 view .LVU68
 261 000c 8240     		lsls	r2, r2, r0
 262              		.loc 1 167 24 view .LVU69
 263 000e 41F82320 		str	r2, [r1, r3, lsl #2]
 264              		.loc 1 168 1 view .LVU70
 265 0012 7047     		bx	lr
 266              	.L20:
 267              		.align	2
 268              	.L19:
 269 0014 00E100E0 		.word	-536813312
 270              		.cfi_endproc
 271              	.LFE435:
 272              		.size	nvicClearPending, .-nvicClearPending
 273              		.section	.text.nvicSetPending,"ax",%progbits
 274              		.align	1
 275              		.p2align 4,,15
 276              		.global	nvicSetPending
 277              		.syntax unified
 278              		.thumb
 279              		.thumb_func
 280              		.type	nvicSetPending, %function
 281              	nvicSetPending:
 282              	.LVL13:
 283              	.LFB436:
 284              		.loc 1 175 33 is_stmt 1 view -0
 285              		.cfi_startproc
ARM GAS  C:\Users\DEVELO~1\AppData\Local\Temp\ccORRwr3.s 			page 6


 286              		@ args = 0, pretend = 0, frame = 0
 287              		@ frame_needed = 0, uses_anonymous_args = 0
 288              		@ link register save eliminated.
 289              		.loc 1 177 3 view .LVU72
 290              		.loc 1 177 18 is_stmt 0 view .LVU73
 291 0000 4309     		lsrs	r3, r0, #5
 292              		.loc 1 177 28 view .LVU74
 293 0002 0122     		movs	r2, #1
 294              		.loc 1 177 34 view .LVU75
 295 0004 00F01F00 		and	r0, r0, #31
 296              	.LVL14:
 297              		.loc 1 177 24 view .LVU76
 298 0008 0249     		ldr	r1, .L22
 299 000a 4033     		adds	r3, r3, #64
 300              		.loc 1 177 28 view .LVU77
 301 000c 8240     		lsls	r2, r2, r0
 302              		.loc 1 177 24 view .LVU78
 303 000e 41F82320 		str	r2, [r1, r3, lsl #2]
 304              		.loc 1 178 1 view .LVU79
 305 0012 7047     		bx	lr
 306              	.L23:
 307              		.align	2
 308              	.L22:
 309 0014 00E100E0 		.word	-536813312
 310              		.cfi_endproc
 311              	.LFE436:
 312              		.size	nvicSetPending, .-nvicSetPending
 313              		.text
 314              	.Letext0:
 315              		.file 2 "c:\\chibistudio\\tools\\gnu tools arm embedded\\11.3 2022.08\\arm-none-eabi\\include\\mac
 316              		.file 3 "c:\\chibistudio\\tools\\gnu tools arm embedded\\11.3 2022.08\\arm-none-eabi\\include\\sys
 317              		.file 4 "../../../os/common/ext/ARM/CMSIS/Core/Include/core_cm7.h"
 318              		.section	.debug_info,"",%progbits
 319              	.Ldebug_info0:
 320 0000 85060000 		.4byte	0x685
 321 0004 0500     		.2byte	0x5
 322 0006 01       		.byte	0x1
 323 0007 04       		.byte	0x4
 324 0008 00000000 		.4byte	.Ldebug_abbrev0
 325 000c 10       		.uleb128 0x10
 326 000d 7D000000 		.4byte	.LASF83
 327 0011 1D       		.byte	0x1d
 328 0012 BB030000 		.4byte	.LASF84
 329 0016 D9010000 		.4byte	.LASF85
 330 001a 18000000 		.4byte	.LLRL9
 331 001e 00000000 		.4byte	0
 332 0022 00000000 		.4byte	.Ldebug_line0
 333 0026 11       		.uleb128 0x11
 334 0027 04       		.byte	0x4
 335 0028 05       		.byte	0x5
 336 0029 696E7400 		.ascii	"int\000"
 337 002d 03       		.uleb128 0x3
 338 002e 04       		.byte	0x4
 339 002f 07       		.byte	0x7
 340 0030 F9030000 		.4byte	.LASF0
 341 0034 03       		.uleb128 0x3
 342 0035 08       		.byte	0x8
ARM GAS  C:\Users\DEVELO~1\AppData\Local\Temp\ccORRwr3.s 			page 7


 343 0036 05       		.byte	0x5
 344 0037 BD010000 		.4byte	.LASF1
 345 003b 03       		.uleb128 0x3
 346 003c 08       		.byte	0x8
 347 003d 04       		.byte	0x4
 348 003e 5D000000 		.4byte	.LASF2
 349 0042 03       		.uleb128 0x3
 350 0043 01       		.byte	0x1
 351 0044 06       		.byte	0x6
 352 0045 A0020000 		.4byte	.LASF3
 353 0049 09       		.uleb128 0x9
 354 004a 28020000 		.4byte	.LASF8
 355 004e 02       		.byte	0x2
 356 004f 2B       		.byte	0x2b
 357 0050 18       		.byte	0x18
 358 0051 55000000 		.4byte	0x55
 359 0055 03       		.uleb128 0x3
 360 0056 01       		.byte	0x1
 361 0057 08       		.byte	0x8
 362 0058 47020000 		.4byte	.LASF4
 363 005c 03       		.uleb128 0x3
 364 005d 02       		.byte	0x2
 365 005e 05       		.byte	0x5
 366 005f 2B000000 		.4byte	.LASF5
 367 0063 03       		.uleb128 0x3
 368 0064 02       		.byte	0x2
 369 0065 07       		.byte	0x7
 370 0066 F5020000 		.4byte	.LASF6
 371 006a 03       		.uleb128 0x3
 372 006b 04       		.byte	0x4
 373 006c 05       		.byte	0x5
 374 006d D0010000 		.4byte	.LASF7
 375 0071 09       		.uleb128 0x9
 376 0072 69000000 		.4byte	.LASF9
 377 0076 02       		.byte	0x2
 378 0077 4F       		.byte	0x4f
 379 0078 19       		.byte	0x19
 380 0079 7D000000 		.4byte	0x7d
 381 007d 03       		.uleb128 0x3
 382 007e 04       		.byte	0x4
 383 007f 07       		.byte	0x7
 384 0080 80030000 		.4byte	.LASF10
 385 0084 03       		.uleb128 0x3
 386 0085 08       		.byte	0x8
 387 0086 07       		.byte	0x7
 388 0087 B1020000 		.4byte	.LASF11
 389 008b 09       		.uleb128 0x9
 390 008c 64010000 		.4byte	.LASF12
 391 0090 03       		.byte	0x3
 392 0091 18       		.byte	0x18
 393 0092 13       		.byte	0x13
 394 0093 49000000 		.4byte	0x49
 395 0097 06       		.uleb128 0x6
 396 0098 8B000000 		.4byte	0x8b
 397 009c 09       		.uleb128 0x9
 398 009d 59030000 		.4byte	.LASF13
 399 00a1 03       		.byte	0x3
ARM GAS  C:\Users\DEVELO~1\AppData\Local\Temp\ccORRwr3.s 			page 8


 400 00a2 30       		.byte	0x30
 401 00a3 14       		.byte	0x14
 402 00a4 71000000 		.4byte	0x71
 403 00a8 06       		.uleb128 0x6
 404 00a9 9C000000 		.4byte	0x9c
 405 00ad 07       		.uleb128 0x7
 406 00ae A8000000 		.4byte	0xa8
 407 00b2 03       		.uleb128 0x3
 408 00b3 01       		.byte	0x1
 409 00b4 08       		.byte	0x8
 410 00b5 0F030000 		.4byte	.LASF14
 411 00b9 07       		.uleb128 0x7
 412 00ba B2000000 		.4byte	0xb2
 413 00be 0D       		.uleb128 0xd
 414 00bf 040E     		.2byte	0xe04
 415 00c1 A501     		.2byte	0x1a5
 416 00c3 6E010000 		.4byte	0x16e
 417 00c7 02       		.uleb128 0x2
 418 00c8 54030000 		.4byte	.LASF15
 419 00cc A701     		.2byte	0x1a7
 420 00ce 7E010000 		.4byte	0x17e
 421 00d2 00       		.byte	0
 422 00d3 02       		.uleb128 0x2
 423 00d4 3B000000 		.4byte	.LASF16
 424 00d8 A801     		.2byte	0x1a8
 425 00da 83010000 		.4byte	0x183
 426 00de 20       		.byte	0x20
 427 00df 02       		.uleb128 0x2
 428 00e0 E4020000 		.4byte	.LASF17
 429 00e4 A901     		.2byte	0x1a9
 430 00e6 7E010000 		.4byte	0x17e
 431 00ea 80       		.byte	0x80
 432 00eb 02       		.uleb128 0x2
 433 00ec AE010000 		.4byte	.LASF18
 434 00f0 AA01     		.2byte	0x1aa
 435 00f2 83010000 		.4byte	0x183
 436 00f6 A0       		.byte	0xa0
 437 00f7 01       		.uleb128 0x1
 438 00f8 32030000 		.4byte	.LASF19
 439 00fc AB01     		.2byte	0x1ab
 440 00fe 7E010000 		.4byte	0x17e
 441 0102 0001     		.2byte	0x100
 442 0104 01       		.uleb128 0x1
 443 0105 5A010000 		.4byte	.LASF20
 444 0109 AC01     		.2byte	0x1ac
 445 010b 83010000 		.4byte	0x183
 446 010f 2001     		.2byte	0x120
 447 0111 01       		.uleb128 0x1
 448 0112 9B020000 		.4byte	.LASF21
 449 0116 AD01     		.2byte	0x1ad
 450 0118 7E010000 		.4byte	0x17e
 451 011c 8001     		.2byte	0x180
 452 011e 01       		.uleb128 0x1
 453 011f 62030000 		.4byte	.LASF22
 454 0123 AE01     		.2byte	0x1ae
 455 0125 83010000 		.4byte	0x183
 456 0129 A001     		.2byte	0x1a0
ARM GAS  C:\Users\DEVELO~1\AppData\Local\Temp\ccORRwr3.s 			page 9


 457 012b 01       		.uleb128 0x1
 458 012c 0F000000 		.4byte	.LASF23
 459 0130 AF01     		.2byte	0x1af
 460 0132 7E010000 		.4byte	0x17e
 461 0136 0002     		.2byte	0x200
 462 0138 01       		.uleb128 0x1
 463 0139 6C030000 		.4byte	.LASF24
 464 013d B001     		.2byte	0x1b0
 465 013f 93010000 		.4byte	0x193
 466 0143 2002     		.2byte	0x220
 467 0145 12       		.uleb128 0x12
 468 0146 495000   		.ascii	"IP\000"
 469 0149 04       		.byte	0x4
 470 014a B101     		.2byte	0x1b1
 471 014c 12       		.byte	0x12
 472 014d B3010000 		.4byte	0x1b3
 473 0151 0003     		.2byte	0x300
 474 0153 01       		.uleb128 0x1
 475 0154 76030000 		.4byte	.LASF25
 476 0158 B201     		.2byte	0x1b2
 477 015a B8010000 		.4byte	0x1b8
 478 015e F003     		.2byte	0x3f0
 479 0160 01       		.uleb128 0x1
 480 0161 8B010000 		.4byte	.LASF26
 481 0165 B301     		.2byte	0x1b3
 482 0167 A8000000 		.4byte	0xa8
 483 016b 000E     		.2byte	0xe00
 484 016d 00       		.byte	0
 485 016e 04       		.uleb128 0x4
 486 016f A8000000 		.4byte	0xa8
 487 0173 7E010000 		.4byte	0x17e
 488 0177 05       		.uleb128 0x5
 489 0178 2D000000 		.4byte	0x2d
 490 017c 07       		.byte	0x7
 491 017d 00       		.byte	0
 492 017e 06       		.uleb128 0x6
 493 017f 6E010000 		.4byte	0x16e
 494 0183 04       		.uleb128 0x4
 495 0184 9C000000 		.4byte	0x9c
 496 0188 93010000 		.4byte	0x193
 497 018c 05       		.uleb128 0x5
 498 018d 2D000000 		.4byte	0x2d
 499 0191 17       		.byte	0x17
 500 0192 00       		.byte	0
 501 0193 04       		.uleb128 0x4
 502 0194 9C000000 		.4byte	0x9c
 503 0198 A3010000 		.4byte	0x1a3
 504 019c 05       		.uleb128 0x5
 505 019d 2D000000 		.4byte	0x2d
 506 01a1 37       		.byte	0x37
 507 01a2 00       		.byte	0
 508 01a3 04       		.uleb128 0x4
 509 01a4 97000000 		.4byte	0x97
 510 01a8 B3010000 		.4byte	0x1b3
 511 01ac 05       		.uleb128 0x5
 512 01ad 2D000000 		.4byte	0x2d
 513 01b1 EF       		.byte	0xef
ARM GAS  C:\Users\DEVELO~1\AppData\Local\Temp\ccORRwr3.s 			page 10


 514 01b2 00       		.byte	0
 515 01b3 06       		.uleb128 0x6
 516 01b4 A3010000 		.4byte	0x1a3
 517 01b8 04       		.uleb128 0x4
 518 01b9 9C000000 		.4byte	0x9c
 519 01bd C9010000 		.4byte	0x1c9
 520 01c1 13       		.uleb128 0x13
 521 01c2 2D000000 		.4byte	0x2d
 522 01c6 8302     		.2byte	0x283
 523 01c8 00       		.byte	0
 524 01c9 0B       		.uleb128 0xb
 525 01ca 91020000 		.4byte	.LASF27
 526 01ce B401     		.2byte	0x1b4
 527 01d0 04       		.byte	0x4
 528 01d1 BE000000 		.4byte	0xbe
 529 01d5 0D       		.uleb128 0xd
 530 01d6 AC02     		.2byte	0x2ac
 531 01d8 C701     		.2byte	0x1c7
 532 01da 4F040000 		.4byte	0x44f
 533 01de 02       		.uleb128 0x2
 534 01df 42010000 		.4byte	.LASF28
 535 01e3 C901     		.2byte	0x1c9
 536 01e5 AD000000 		.4byte	0xad
 537 01e9 00       		.byte	0
 538 01ea 02       		.uleb128 0x2
 539 01eb A9010000 		.4byte	.LASF29
 540 01ef CA01     		.2byte	0x1ca
 541 01f1 A8000000 		.4byte	0xa8
 542 01f5 04       		.byte	0x4
 543 01f6 02       		.uleb128 0x2
 544 01f7 1C030000 		.4byte	.LASF30
 545 01fb CB01     		.2byte	0x1cb
 546 01fd A8000000 		.4byte	0xa8
 547 0201 08       		.byte	0x8
 548 0202 02       		.uleb128 0x2
 549 0203 65020000 		.4byte	.LASF31
 550 0207 CC01     		.2byte	0x1cc
 551 0209 A8000000 		.4byte	0xa8
 552 020d 0C       		.byte	0xc
 553 020e 0C       		.uleb128 0xc
 554 020f 53435200 		.ascii	"SCR\000"
 555 0213 CD01     		.2byte	0x1cd
 556 0215 A8000000 		.4byte	0xa8
 557 0219 10       		.byte	0x10
 558 021a 0C       		.uleb128 0xc
 559 021b 43435200 		.ascii	"CCR\000"
 560 021f CE01     		.2byte	0x1ce
 561 0221 A8000000 		.4byte	0xa8
 562 0225 14       		.byte	0x14
 563 0226 02       		.uleb128 0x2
 564 0227 AC020000 		.4byte	.LASF32
 565 022b CF01     		.2byte	0x1cf
 566 022d 5F040000 		.4byte	0x45f
 567 0231 18       		.byte	0x18
 568 0232 02       		.uleb128 0x2
 569 0233 C8020000 		.4byte	.LASF33
 570 0237 D001     		.2byte	0x1d0
ARM GAS  C:\Users\DEVELO~1\AppData\Local\Temp\ccORRwr3.s 			page 11


 571 0239 A8000000 		.4byte	0xa8
 572 023d 24       		.byte	0x24
 573 023e 02       		.uleb128 0x2
 574 023f 32020000 		.4byte	.LASF34
 575 0243 D101     		.2byte	0x1d1
 576 0245 A8000000 		.4byte	0xa8
 577 0249 28       		.byte	0x28
 578 024a 02       		.uleb128 0x2
 579 024b 4A030000 		.4byte	.LASF35
 580 024f D201     		.2byte	0x1d2
 581 0251 A8000000 		.4byte	0xa8
 582 0255 2C       		.byte	0x2c
 583 0256 02       		.uleb128 0x2
 584 0257 37030000 		.4byte	.LASF36
 585 025b D301     		.2byte	0x1d3
 586 025d A8000000 		.4byte	0xa8
 587 0261 30       		.byte	0x30
 588 0262 02       		.uleb128 0x2
 589 0263 25000000 		.4byte	.LASF37
 590 0267 D401     		.2byte	0x1d4
 591 0269 A8000000 		.4byte	0xa8
 592 026d 34       		.byte	0x34
 593 026e 02       		.uleb128 0x2
 594 026f CB010000 		.4byte	.LASF38
 595 0273 D501     		.2byte	0x1d5
 596 0275 A8000000 		.4byte	0xa8
 597 0279 38       		.byte	0x38
 598 027a 02       		.uleb128 0x2
 599 027b ED030000 		.4byte	.LASF39
 600 027f D601     		.2byte	0x1d6
 601 0281 A8000000 		.4byte	0xa8
 602 0285 3C       		.byte	0x3c
 603 0286 02       		.uleb128 0x2
 604 0287 CE020000 		.4byte	.LASF40
 605 028b D701     		.2byte	0x1d7
 606 028d 79040000 		.4byte	0x479
 607 0291 40       		.byte	0x40
 608 0292 02       		.uleb128 0x2
 609 0293 F2030000 		.4byte	.LASF41
 610 0297 D801     		.2byte	0x1d8
 611 0299 AD000000 		.4byte	0xad
 612 029d 48       		.byte	0x48
 613 029e 02       		.uleb128 0x2
 614 029f 90010000 		.4byte	.LASF42
 615 02a3 D901     		.2byte	0x1d9
 616 02a5 AD000000 		.4byte	0xad
 617 02a9 4C       		.byte	0x4c
 618 02aa 02       		.uleb128 0x2
 619 02ab E6030000 		.4byte	.LASF43
 620 02af DA01     		.2byte	0x1da
 621 02b1 93040000 		.4byte	0x493
 622 02b5 50       		.byte	0x50
 623 02b6 02       		.uleb128 0x2
 624 02b7 5D020000 		.4byte	.LASF44
 625 02bb DB01     		.2byte	0x1db
 626 02bd AD040000 		.4byte	0x4ad
 627 02c1 60       		.byte	0x60
ARM GAS  C:\Users\DEVELO~1\AppData\Local\Temp\ccORRwr3.s 			page 12


 628 02c2 02       		.uleb128 0x2
 629 02c3 3B000000 		.4byte	.LASF16
 630 02c7 DC01     		.2byte	0x1dc
 631 02c9 B2040000 		.4byte	0x4b2
 632 02cd 74       		.byte	0x74
 633 02ce 02       		.uleb128 0x2
 634 02cf 85010000 		.4byte	.LASF45
 635 02d3 DD01     		.2byte	0x1dd
 636 02d5 AD000000 		.4byte	0xad
 637 02d9 78       		.byte	0x78
 638 02da 0C       		.uleb128 0xc
 639 02db 43545200 		.ascii	"CTR\000"
 640 02df DE01     		.2byte	0x1de
 641 02e1 AD000000 		.4byte	0xad
 642 02e5 7C       		.byte	0x7c
 643 02e6 02       		.uleb128 0x2
 644 02e7 08030000 		.4byte	.LASF46
 645 02eb DF01     		.2byte	0x1df
 646 02ed AD000000 		.4byte	0xad
 647 02f1 80       		.byte	0x80
 648 02f2 02       		.uleb128 0x2
 649 02f3 EE020000 		.4byte	.LASF47
 650 02f7 E001     		.2byte	0x1e0
 651 02f9 A8000000 		.4byte	0xa8
 652 02fd 84       		.byte	0x84
 653 02fe 02       		.uleb128 0x2
 654 02ff 06040000 		.4byte	.LASF48
 655 0303 E101     		.2byte	0x1e1
 656 0305 A8000000 		.4byte	0xa8
 657 0309 88       		.byte	0x88
 658 030a 02       		.uleb128 0x2
 659 030b 62030000 		.4byte	.LASF22
 660 030f E201     		.2byte	0x1e2
 661 0311 C2040000 		.4byte	0x4c2
 662 0315 8C       		.byte	0x8c
 663 0316 01       		.uleb128 0x1
 664 0317 8B010000 		.4byte	.LASF26
 665 031b E301     		.2byte	0x1e3
 666 031d A8000000 		.4byte	0xa8
 667 0321 0002     		.2byte	0x200
 668 0323 01       		.uleb128 0x1
 669 0324 6C030000 		.4byte	.LASF24
 670 0328 E401     		.2byte	0x1e4
 671 032a D2040000 		.4byte	0x4d2
 672 032e 0402     		.2byte	0x204
 673 0330 01       		.uleb128 0x1
 674 0331 48010000 		.4byte	.LASF49
 675 0335 E501     		.2byte	0x1e5
 676 0337 AD000000 		.4byte	0xad
 677 033b 4002     		.2byte	0x240
 678 033d 01       		.uleb128 0x1
 679 033e 4E010000 		.4byte	.LASF50
 680 0342 E601     		.2byte	0x1e6
 681 0344 AD000000 		.4byte	0xad
 682 0348 4402     		.2byte	0x244
 683 034a 01       		.uleb128 0x1
 684 034b 54010000 		.4byte	.LASF51
ARM GAS  C:\Users\DEVELO~1\AppData\Local\Temp\ccORRwr3.s 			page 13


 685 034f E701     		.2byte	0x1e7
 686 0351 AD000000 		.4byte	0xad
 687 0355 4802     		.2byte	0x248
 688 0357 01       		.uleb128 0x1
 689 0358 76030000 		.4byte	.LASF25
 690 035c E801     		.2byte	0x1e8
 691 035e B2040000 		.4byte	0x4b2
 692 0362 4C02     		.2byte	0x24c
 693 0364 01       		.uleb128 0x1
 694 0365 37020000 		.4byte	.LASF52
 695 0369 E901     		.2byte	0x1e9
 696 036b A8000000 		.4byte	0xa8
 697 036f 5002     		.2byte	0x250
 698 0371 01       		.uleb128 0x1
 699 0372 7B010000 		.4byte	.LASF53
 700 0376 EA01     		.2byte	0x1ea
 701 0378 B2040000 		.4byte	0x4b2
 702 037c 5402     		.2byte	0x254
 703 037e 01       		.uleb128 0x1
 704 037f 55020000 		.4byte	.LASF54
 705 0383 EB01     		.2byte	0x1eb
 706 0385 A8000000 		.4byte	0xa8
 707 0389 5802     		.2byte	0x258
 708 038b 01       		.uleb128 0x1
 709 038c 3F020000 		.4byte	.LASF55
 710 0390 EC01     		.2byte	0x1ec
 711 0392 A8000000 		.4byte	0xa8
 712 0396 5C02     		.2byte	0x25c
 713 0398 01       		.uleb128 0x1
 714 0399 57000000 		.4byte	.LASF56
 715 039d ED01     		.2byte	0x1ed
 716 039f A8000000 		.4byte	0xa8
 717 03a3 6002     		.2byte	0x260
 718 03a5 01       		.uleb128 0x1
 719 03a6 14030000 		.4byte	.LASF57
 720 03aa EE01     		.2byte	0x1ee
 721 03ac A8000000 		.4byte	0xa8
 722 03b0 6402     		.2byte	0x264
 723 03b2 01       		.uleb128 0x1
 724 03b3 DC020000 		.4byte	.LASF58
 725 03b7 EF01     		.2byte	0x1ef
 726 03b9 A8000000 		.4byte	0xa8
 727 03bd 6802     		.2byte	0x268
 728 03bf 01       		.uleb128 0x1
 729 03c0 09000000 		.4byte	.LASF59
 730 03c4 F001     		.2byte	0x1f0
 731 03c6 A8000000 		.4byte	0xa8
 732 03ca 6C02     		.2byte	0x26c
 733 03cc 01       		.uleb128 0x1
 734 03cd 74000000 		.4byte	.LASF60
 735 03d1 F101     		.2byte	0x1f1
 736 03d3 A8000000 		.4byte	0xa8
 737 03d7 7002     		.2byte	0x270
 738 03d9 01       		.uleb128 0x1
 739 03da AD030000 		.4byte	.LASF61
 740 03de F201     		.2byte	0x1f2
 741 03e0 A8000000 		.4byte	0xa8
ARM GAS  C:\Users\DEVELO~1\AppData\Local\Temp\ccORRwr3.s 			page 14


 742 03e4 7402     		.2byte	0x274
 743 03e6 01       		.uleb128 0x1
 744 03e7 92030000 		.4byte	.LASF62
 745 03eb F301     		.2byte	0x1f3
 746 03ed E2040000 		.4byte	0x4e2
 747 03f1 7802     		.2byte	0x278
 748 03f3 01       		.uleb128 0x1
 749 03f4 D5020000 		.4byte	.LASF63
 750 03f8 F401     		.2byte	0x1f4
 751 03fa A8000000 		.4byte	0xa8
 752 03fe 9002     		.2byte	0x290
 753 0400 01       		.uleb128 0x1
 754 0401 11040000 		.4byte	.LASF64
 755 0405 F501     		.2byte	0x1f5
 756 0407 A8000000 		.4byte	0xa8
 757 040b 9402     		.2byte	0x294
 758 040d 01       		.uleb128 0x1
 759 040e 32010000 		.4byte	.LASF65
 760 0412 F601     		.2byte	0x1f6
 761 0414 A8000000 		.4byte	0xa8
 762 0418 9802     		.2byte	0x298
 763 041a 01       		.uleb128 0x1
 764 041b 4F030000 		.4byte	.LASF66
 765 041f F701     		.2byte	0x1f7
 766 0421 A8000000 		.4byte	0xa8
 767 0425 9C02     		.2byte	0x29c
 768 0427 01       		.uleb128 0x1
 769 0428 B4030000 		.4byte	.LASF67
 770 042c F801     		.2byte	0x1f8
 771 042e A8000000 		.4byte	0xa8
 772 0432 A002     		.2byte	0x2a0
 773 0434 01       		.uleb128 0x1
 774 0435 9C030000 		.4byte	.LASF68
 775 0439 F901     		.2byte	0x1f9
 776 043b B2040000 		.4byte	0x4b2
 777 043f A402     		.2byte	0x2a4
 778 0441 01       		.uleb128 0x1
 779 0442 B7010000 		.4byte	.LASF69
 780 0446 FA01     		.2byte	0x1fa
 781 0448 A8000000 		.4byte	0xa8
 782 044c A802     		.2byte	0x2a8
 783 044e 00       		.byte	0
 784 044f 04       		.uleb128 0x4
 785 0450 97000000 		.4byte	0x97
 786 0454 5F040000 		.4byte	0x45f
 787 0458 05       		.uleb128 0x5
 788 0459 2D000000 		.4byte	0x2d
 789 045d 0B       		.byte	0xb
 790 045e 00       		.byte	0
 791 045f 06       		.uleb128 0x6
 792 0460 4F040000 		.4byte	0x44f
 793 0464 04       		.uleb128 0x4
 794 0465 AD000000 		.4byte	0xad
 795 0469 74040000 		.4byte	0x474
 796 046d 05       		.uleb128 0x5
 797 046e 2D000000 		.4byte	0x2d
 798 0472 01       		.byte	0x1
ARM GAS  C:\Users\DEVELO~1\AppData\Local\Temp\ccORRwr3.s 			page 15


 799 0473 00       		.byte	0
 800 0474 07       		.uleb128 0x7
 801 0475 64040000 		.4byte	0x464
 802 0479 06       		.uleb128 0x6
 803 047a 74040000 		.4byte	0x474
 804 047e 04       		.uleb128 0x4
 805 047f AD000000 		.4byte	0xad
 806 0483 8E040000 		.4byte	0x48e
 807 0487 05       		.uleb128 0x5
 808 0488 2D000000 		.4byte	0x2d
 809 048c 03       		.byte	0x3
 810 048d 00       		.byte	0
 811 048e 07       		.uleb128 0x7
 812 048f 7E040000 		.4byte	0x47e
 813 0493 06       		.uleb128 0x6
 814 0494 8E040000 		.4byte	0x48e
 815 0498 04       		.uleb128 0x4
 816 0499 AD000000 		.4byte	0xad
 817 049d A8040000 		.4byte	0x4a8
 818 04a1 05       		.uleb128 0x5
 819 04a2 2D000000 		.4byte	0x2d
 820 04a6 04       		.byte	0x4
 821 04a7 00       		.byte	0
 822 04a8 07       		.uleb128 0x7
 823 04a9 98040000 		.4byte	0x498
 824 04ad 06       		.uleb128 0x6
 825 04ae A8040000 		.4byte	0x4a8
 826 04b2 04       		.uleb128 0x4
 827 04b3 9C000000 		.4byte	0x9c
 828 04b7 C2040000 		.4byte	0x4c2
 829 04bb 05       		.uleb128 0x5
 830 04bc 2D000000 		.4byte	0x2d
 831 04c0 00       		.byte	0
 832 04c1 00       		.byte	0
 833 04c2 04       		.uleb128 0x4
 834 04c3 9C000000 		.4byte	0x9c
 835 04c7 D2040000 		.4byte	0x4d2
 836 04cb 05       		.uleb128 0x5
 837 04cc 2D000000 		.4byte	0x2d
 838 04d0 5C       		.byte	0x5c
 839 04d1 00       		.byte	0
 840 04d2 04       		.uleb128 0x4
 841 04d3 9C000000 		.4byte	0x9c
 842 04d7 E2040000 		.4byte	0x4e2
 843 04db 05       		.uleb128 0x5
 844 04dc 2D000000 		.4byte	0x2d
 845 04e0 0E       		.byte	0xe
 846 04e1 00       		.byte	0
 847 04e2 04       		.uleb128 0x4
 848 04e3 9C000000 		.4byte	0x9c
 849 04e7 F2040000 		.4byte	0x4f2
 850 04eb 05       		.uleb128 0x5
 851 04ec 2D000000 		.4byte	0x2d
 852 04f0 05       		.byte	0x5
 853 04f1 00       		.byte	0
 854 04f2 0B       		.uleb128 0xb
 855 04f3 00000000 		.4byte	.LASF70
ARM GAS  C:\Users\DEVELO~1\AppData\Local\Temp\ccORRwr3.s 			page 16


 856 04f7 FB01     		.2byte	0x1fb
 857 04f9 03       		.byte	0x3
 858 04fa D5010000 		.4byte	0x1d5
 859 04fe 14       		.uleb128 0x14
 860 04ff 0C       		.byte	0xc
 861 0500 04       		.byte	0x4
 862 0501 9903     		.2byte	0x399
 863 0503 09       		.byte	0x9
 864 0504 2D050000 		.4byte	0x52d
 865 0508 02       		.uleb128 0x2
 866 0509 3B000000 		.4byte	.LASF16
 867 050d 9B03     		.2byte	0x39b
 868 050f B2040000 		.4byte	0x4b2
 869 0513 00       		.byte	0
 870 0514 02       		.uleb128 0x2
 871 0515 E9020000 		.4byte	.LASF71
 872 0519 9C03     		.2byte	0x39c
 873 051b AD000000 		.4byte	0xad
 874 051f 04       		.byte	0x4
 875 0520 02       		.uleb128 0x2
 876 0521 35000000 		.4byte	.LASF72
 877 0525 9D03     		.2byte	0x39d
 878 0527 A8000000 		.4byte	0xa8
 879 052b 08       		.byte	0x8
 880 052c 00       		.byte	0
 881 052d 0B       		.uleb128 0xb
 882 052e 97010000 		.4byte	.LASF73
 883 0532 9E03     		.2byte	0x39e
 884 0534 03       		.byte	0x3
 885 0535 FE040000 		.4byte	0x4fe
 886 0539 03       		.uleb128 0x3
 887 053a 04       		.byte	0x4
 888 053b 04       		.byte	0x4
 889 053c A3010000 		.4byte	.LASF74
 890 0540 03       		.uleb128 0x3
 891 0541 08       		.byte	0x8
 892 0542 04       		.byte	0x4
 893 0543 A6030000 		.4byte	.LASF75
 894 0547 03       		.uleb128 0x3
 895 0548 01       		.byte	0x1
 896 0549 02       		.byte	0x2
 897 054a 3C030000 		.4byte	.LASF76
 898 054e 08       		.uleb128 0x8
 899 054f 6C010000 		.4byte	.LASF77
 900 0553 AF       		.byte	0xaf
 901 0554 00000000 		.4byte	.LFB436
 902 0558 18000000 		.4byte	.LFE436-.LFB436
 903 055c 01       		.uleb128 0x1
 904 055d 9C       		.byte	0x9c
 905 055e 74050000 		.4byte	0x574
 906 0562 0A       		.uleb128 0xa
 907 0563 6E00     		.ascii	"n\000"
 908 0565 AF       		.byte	0xaf
 909 0566 1E       		.byte	0x1e
 910 0567 9C000000 		.4byte	0x9c
 911 056b 10000000 		.4byte	.LLST8
 912 056f 0C000000 		.4byte	.LVUS8
ARM GAS  C:\Users\DEVELO~1\AppData\Local\Temp\ccORRwr3.s 			page 17


 913 0573 00       		.byte	0
 914 0574 08       		.uleb128 0x8
 915 0575 21030000 		.4byte	.LASF78
 916 0579 A5       		.byte	0xa5
 917 057a 00000000 		.4byte	.LFB435
 918 057e 18000000 		.4byte	.LFE435-.LFB435
 919 0582 01       		.uleb128 0x1
 920 0583 9C       		.byte	0x9c
 921 0584 9A050000 		.4byte	0x59a
 922 0588 0A       		.uleb128 0xa
 923 0589 6E00     		.ascii	"n\000"
 924 058b A5       		.byte	0xa5
 925 058c 20       		.byte	0x20
 926 058d 9C000000 		.4byte	0x9c
 927 0591 27000000 		.4byte	.LLST7
 928 0595 23000000 		.4byte	.LVUS7
 929 0599 00       		.byte	0
 930 059a 08       		.uleb128 0x8
 931 059b 74020000 		.4byte	.LASF79
 932 059f 93       		.byte	0x93
 933 05a0 00000000 		.4byte	.LFB434
 934 05a4 10000000 		.4byte	.LFE434-.LFB434
 935 05a8 01       		.uleb128 0x1
 936 05a9 9C       		.byte	0x9c
 937 05aa D9050000 		.4byte	0x5d9
 938 05ae 15       		.uleb128 0x15
 939 05af 42030000 		.4byte	.LASF86
 940 05b3 01       		.byte	0x1
 941 05b4 93       		.byte	0x93
 942 05b5 2C       		.byte	0x2c
 943 05b6 9C000000 		.4byte	0x9c
 944 05ba 01       		.uleb128 0x1
 945 05bb 50       		.byte	0x50
 946 05bc 0E       		.uleb128 0xe
 947 05bd 0C040000 		.4byte	.LASF80
 948 05c1 93       		.byte	0x93
 949 05c2 3E       		.byte	0x3e
 950 05c3 9C000000 		.4byte	0x9c
 951 05c7 3E000000 		.4byte	.LLST6
 952 05cb 3A000000 		.4byte	.LVUS6
 953 05cf 16       		.uleb128 0x16
 954 05d0 6B020000 		.4byte	.LASF87
 955 05d4 E9050000 		.4byte	0x5e9
 956 05d8 00       		.byte	0
 957 05d9 04       		.uleb128 0x4
 958 05da B9000000 		.4byte	0xb9
 959 05de E9050000 		.4byte	0x5e9
 960 05e2 05       		.uleb128 0x5
 961 05e3 2D000000 		.4byte	0x2d
 962 05e7 1C       		.byte	0x1c
 963 05e8 00       		.byte	0
 964 05e9 07       		.uleb128 0x7
 965 05ea D9050000 		.4byte	0x5d9
 966 05ee 08       		.uleb128 0x8
 967 05ef 45000000 		.4byte	.LASF81
 968 05f3 7D       		.byte	0x7d
 969 05f4 00000000 		.4byte	.LFB433
ARM GAS  C:\Users\DEVELO~1\AppData\Local\Temp\ccORRwr3.s 			page 18


 970 05f8 2C000000 		.4byte	.LFE433-.LFB433
 971 05fc 01       		.uleb128 0x1
 972 05fd 9C       		.byte	0x9c
 973 05fe 14060000 		.4byte	0x614
 974 0602 0A       		.uleb128 0xa
 975 0603 6E00     		.ascii	"n\000"
 976 0605 7D       		.byte	0x7d
 977 0606 21       		.byte	0x21
 978 0607 9C000000 		.4byte	0x9c
 979 060b 55000000 		.4byte	.LLST5
 980 060f 51000000 		.4byte	.LVUS5
 981 0613 00       		.byte	0
 982 0614 08       		.uleb128 0x8
 983 0615 14000000 		.4byte	.LASF82
 984 0619 66       		.byte	0x66
 985 061a 00000000 		.4byte	.LFB432
 986 061e 30000000 		.4byte	.LFE432-.LFB432
 987 0622 01       		.uleb128 0x1
 988 0623 9C       		.byte	0x9c
 989 0624 4D060000 		.4byte	0x64d
 990 0628 0A       		.uleb128 0xa
 991 0629 6E00     		.ascii	"n\000"
 992 062b 66       		.byte	0x66
 993 062c 20       		.byte	0x20
 994 062d 9C000000 		.4byte	0x9c
 995 0631 6F000000 		.4byte	.LLST3
 996 0635 6B000000 		.4byte	.LVUS3
 997 0639 0E       		.uleb128 0xe
 998 063a 0C040000 		.4byte	.LASF80
 999 063e 66       		.byte	0x66
 1000 063f 2C       		.byte	0x2c
 1001 0640 9C000000 		.4byte	0x9c
 1002 0644 89000000 		.4byte	.LLST4
 1003 0648 85000000 		.4byte	.LVUS4
 1004 064c 00       		.byte	0
 1005 064d 17       		.uleb128 0x17
 1006 064e 39010000 		.4byte	.LASF88
 1007 0652 01       		.byte	0x1
 1008 0653 4F       		.byte	0x4f
 1009 0654 06       		.byte	0x6
 1010 0655 00000000 		.4byte	.LFB431
 1011 0659 2C000000 		.4byte	.LFE431-.LFB431
 1012 065d 01       		.uleb128 0x1
 1013 065e 9C       		.byte	0x9c
 1014 065f 0F       		.uleb128 0xf
 1015 0660 6E00     		.ascii	"n\000"
 1016 0662 54       		.byte	0x54
 1017 0663 0C       		.byte	0xc
 1018 0664 9C000000 		.4byte	0x9c
 1019 0668 9E000000 		.4byte	.LLST0
 1020 066c 9C000000 		.4byte	.LVUS0
 1021 0670 18       		.uleb128 0x18
 1022 0671 0C000000 		.4byte	.LLRL1
 1023 0675 0F       		.uleb128 0xf
 1024 0676 6900     		.ascii	"i\000"
 1025 0678 57       		.byte	0x57
 1026 0679 11       		.byte	0x11
ARM GAS  C:\Users\DEVELO~1\AppData\Local\Temp\ccORRwr3.s 			page 19


 1027 067a 9C000000 		.4byte	0x9c
 1028 067e AD000000 		.4byte	.LLST2
 1029 0682 A7000000 		.4byte	.LVUS2
 1030 0686 00       		.byte	0
 1031 0687 00       		.byte	0
 1032 0688 00       		.byte	0
 1033              		.section	.debug_abbrev,"",%progbits
 1034              	.Ldebug_abbrev0:
 1035 0000 01       		.uleb128 0x1
 1036 0001 0D       		.uleb128 0xd
 1037 0002 00       		.byte	0
 1038 0003 03       		.uleb128 0x3
 1039 0004 0E       		.uleb128 0xe
 1040 0005 3A       		.uleb128 0x3a
 1041 0006 21       		.uleb128 0x21
 1042 0007 04       		.sleb128 4
 1043 0008 3B       		.uleb128 0x3b
 1044 0009 05       		.uleb128 0x5
 1045 000a 39       		.uleb128 0x39
 1046 000b 21       		.uleb128 0x21
 1047 000c 12       		.sleb128 18
 1048 000d 49       		.uleb128 0x49
 1049 000e 13       		.uleb128 0x13
 1050 000f 38       		.uleb128 0x38
 1051 0010 05       		.uleb128 0x5
 1052 0011 00       		.byte	0
 1053 0012 00       		.byte	0
 1054 0013 02       		.uleb128 0x2
 1055 0014 0D       		.uleb128 0xd
 1056 0015 00       		.byte	0
 1057 0016 03       		.uleb128 0x3
 1058 0017 0E       		.uleb128 0xe
 1059 0018 3A       		.uleb128 0x3a
 1060 0019 21       		.uleb128 0x21
 1061 001a 04       		.sleb128 4
 1062 001b 3B       		.uleb128 0x3b
 1063 001c 05       		.uleb128 0x5
 1064 001d 39       		.uleb128 0x39
 1065 001e 21       		.uleb128 0x21
 1066 001f 12       		.sleb128 18
 1067 0020 49       		.uleb128 0x49
 1068 0021 13       		.uleb128 0x13
 1069 0022 38       		.uleb128 0x38
 1070 0023 0B       		.uleb128 0xb
 1071 0024 00       		.byte	0
 1072 0025 00       		.byte	0
 1073 0026 03       		.uleb128 0x3
 1074 0027 24       		.uleb128 0x24
 1075 0028 00       		.byte	0
 1076 0029 0B       		.uleb128 0xb
 1077 002a 0B       		.uleb128 0xb
 1078 002b 3E       		.uleb128 0x3e
 1079 002c 0B       		.uleb128 0xb
 1080 002d 03       		.uleb128 0x3
 1081 002e 0E       		.uleb128 0xe
 1082 002f 00       		.byte	0
 1083 0030 00       		.byte	0
ARM GAS  C:\Users\DEVELO~1\AppData\Local\Temp\ccORRwr3.s 			page 20


 1084 0031 04       		.uleb128 0x4
 1085 0032 01       		.uleb128 0x1
 1086 0033 01       		.byte	0x1
 1087 0034 49       		.uleb128 0x49
 1088 0035 13       		.uleb128 0x13
 1089 0036 01       		.uleb128 0x1
 1090 0037 13       		.uleb128 0x13
 1091 0038 00       		.byte	0
 1092 0039 00       		.byte	0
 1093 003a 05       		.uleb128 0x5
 1094 003b 21       		.uleb128 0x21
 1095 003c 00       		.byte	0
 1096 003d 49       		.uleb128 0x49
 1097 003e 13       		.uleb128 0x13
 1098 003f 2F       		.uleb128 0x2f
 1099 0040 0B       		.uleb128 0xb
 1100 0041 00       		.byte	0
 1101 0042 00       		.byte	0
 1102 0043 06       		.uleb128 0x6
 1103 0044 35       		.uleb128 0x35
 1104 0045 00       		.byte	0
 1105 0046 49       		.uleb128 0x49
 1106 0047 13       		.uleb128 0x13
 1107 0048 00       		.byte	0
 1108 0049 00       		.byte	0
 1109 004a 07       		.uleb128 0x7
 1110 004b 26       		.uleb128 0x26
 1111 004c 00       		.byte	0
 1112 004d 49       		.uleb128 0x49
 1113 004e 13       		.uleb128 0x13
 1114 004f 00       		.byte	0
 1115 0050 00       		.byte	0
 1116 0051 08       		.uleb128 0x8
 1117 0052 2E       		.uleb128 0x2e
 1118 0053 01       		.byte	0x1
 1119 0054 3F       		.uleb128 0x3f
 1120 0055 19       		.uleb128 0x19
 1121 0056 03       		.uleb128 0x3
 1122 0057 0E       		.uleb128 0xe
 1123 0058 3A       		.uleb128 0x3a
 1124 0059 21       		.uleb128 0x21
 1125 005a 01       		.sleb128 1
 1126 005b 3B       		.uleb128 0x3b
 1127 005c 0B       		.uleb128 0xb
 1128 005d 39       		.uleb128 0x39
 1129 005e 21       		.uleb128 0x21
 1130 005f 06       		.sleb128 6
 1131 0060 27       		.uleb128 0x27
 1132 0061 19       		.uleb128 0x19
 1133 0062 11       		.uleb128 0x11
 1134 0063 01       		.uleb128 0x1
 1135 0064 12       		.uleb128 0x12
 1136 0065 06       		.uleb128 0x6
 1137 0066 40       		.uleb128 0x40
 1138 0067 18       		.uleb128 0x18
 1139 0068 7A       		.uleb128 0x7a
 1140 0069 19       		.uleb128 0x19
ARM GAS  C:\Users\DEVELO~1\AppData\Local\Temp\ccORRwr3.s 			page 21


 1141 006a 01       		.uleb128 0x1
 1142 006b 13       		.uleb128 0x13
 1143 006c 00       		.byte	0
 1144 006d 00       		.byte	0
 1145 006e 09       		.uleb128 0x9
 1146 006f 16       		.uleb128 0x16
 1147 0070 00       		.byte	0
 1148 0071 03       		.uleb128 0x3
 1149 0072 0E       		.uleb128 0xe
 1150 0073 3A       		.uleb128 0x3a
 1151 0074 0B       		.uleb128 0xb
 1152 0075 3B       		.uleb128 0x3b
 1153 0076 0B       		.uleb128 0xb
 1154 0077 39       		.uleb128 0x39
 1155 0078 0B       		.uleb128 0xb
 1156 0079 49       		.uleb128 0x49
 1157 007a 13       		.uleb128 0x13
 1158 007b 00       		.byte	0
 1159 007c 00       		.byte	0
 1160 007d 0A       		.uleb128 0xa
 1161 007e 05       		.uleb128 0x5
 1162 007f 00       		.byte	0
 1163 0080 03       		.uleb128 0x3
 1164 0081 08       		.uleb128 0x8
 1165 0082 3A       		.uleb128 0x3a
 1166 0083 21       		.uleb128 0x21
 1167 0084 01       		.sleb128 1
 1168 0085 3B       		.uleb128 0x3b
 1169 0086 0B       		.uleb128 0xb
 1170 0087 39       		.uleb128 0x39
 1171 0088 0B       		.uleb128 0xb
 1172 0089 49       		.uleb128 0x49
 1173 008a 13       		.uleb128 0x13
 1174 008b 02       		.uleb128 0x2
 1175 008c 17       		.uleb128 0x17
 1176 008d B742     		.uleb128 0x2137
 1177 008f 17       		.uleb128 0x17
 1178 0090 00       		.byte	0
 1179 0091 00       		.byte	0
 1180 0092 0B       		.uleb128 0xb
 1181 0093 16       		.uleb128 0x16
 1182 0094 00       		.byte	0
 1183 0095 03       		.uleb128 0x3
 1184 0096 0E       		.uleb128 0xe
 1185 0097 3A       		.uleb128 0x3a
 1186 0098 21       		.uleb128 0x21
 1187 0099 04       		.sleb128 4
 1188 009a 3B       		.uleb128 0x3b
 1189 009b 05       		.uleb128 0x5
 1190 009c 39       		.uleb128 0x39
 1191 009d 0B       		.uleb128 0xb
 1192 009e 49       		.uleb128 0x49
 1193 009f 13       		.uleb128 0x13
 1194 00a0 00       		.byte	0
 1195 00a1 00       		.byte	0
 1196 00a2 0C       		.uleb128 0xc
 1197 00a3 0D       		.uleb128 0xd
ARM GAS  C:\Users\DEVELO~1\AppData\Local\Temp\ccORRwr3.s 			page 22


 1198 00a4 00       		.byte	0
 1199 00a5 03       		.uleb128 0x3
 1200 00a6 08       		.uleb128 0x8
 1201 00a7 3A       		.uleb128 0x3a
 1202 00a8 21       		.uleb128 0x21
 1203 00a9 04       		.sleb128 4
 1204 00aa 3B       		.uleb128 0x3b
 1205 00ab 05       		.uleb128 0x5
 1206 00ac 39       		.uleb128 0x39
 1207 00ad 21       		.uleb128 0x21
 1208 00ae 12       		.sleb128 18
 1209 00af 49       		.uleb128 0x49
 1210 00b0 13       		.uleb128 0x13
 1211 00b1 38       		.uleb128 0x38
 1212 00b2 0B       		.uleb128 0xb
 1213 00b3 00       		.byte	0
 1214 00b4 00       		.byte	0
 1215 00b5 0D       		.uleb128 0xd
 1216 00b6 13       		.uleb128 0x13
 1217 00b7 01       		.byte	0x1
 1218 00b8 0B       		.uleb128 0xb
 1219 00b9 05       		.uleb128 0x5
 1220 00ba 3A       		.uleb128 0x3a
 1221 00bb 21       		.uleb128 0x21
 1222 00bc 04       		.sleb128 4
 1223 00bd 3B       		.uleb128 0x3b
 1224 00be 05       		.uleb128 0x5
 1225 00bf 39       		.uleb128 0x39
 1226 00c0 21       		.uleb128 0x21
 1227 00c1 09       		.sleb128 9
 1228 00c2 01       		.uleb128 0x1
 1229 00c3 13       		.uleb128 0x13
 1230 00c4 00       		.byte	0
 1231 00c5 00       		.byte	0
 1232 00c6 0E       		.uleb128 0xe
 1233 00c7 05       		.uleb128 0x5
 1234 00c8 00       		.byte	0
 1235 00c9 03       		.uleb128 0x3
 1236 00ca 0E       		.uleb128 0xe
 1237 00cb 3A       		.uleb128 0x3a
 1238 00cc 21       		.uleb128 0x21
 1239 00cd 01       		.sleb128 1
 1240 00ce 3B       		.uleb128 0x3b
 1241 00cf 0B       		.uleb128 0xb
 1242 00d0 39       		.uleb128 0x39
 1243 00d1 0B       		.uleb128 0xb
 1244 00d2 49       		.uleb128 0x49
 1245 00d3 13       		.uleb128 0x13
 1246 00d4 02       		.uleb128 0x2
 1247 00d5 17       		.uleb128 0x17
 1248 00d6 B742     		.uleb128 0x2137
 1249 00d8 17       		.uleb128 0x17
 1250 00d9 00       		.byte	0
 1251 00da 00       		.byte	0
 1252 00db 0F       		.uleb128 0xf
 1253 00dc 34       		.uleb128 0x34
 1254 00dd 00       		.byte	0
ARM GAS  C:\Users\DEVELO~1\AppData\Local\Temp\ccORRwr3.s 			page 23


 1255 00de 03       		.uleb128 0x3
 1256 00df 08       		.uleb128 0x8
 1257 00e0 3A       		.uleb128 0x3a
 1258 00e1 21       		.uleb128 0x21
 1259 00e2 01       		.sleb128 1
 1260 00e3 3B       		.uleb128 0x3b
 1261 00e4 0B       		.uleb128 0xb
 1262 00e5 39       		.uleb128 0x39
 1263 00e6 0B       		.uleb128 0xb
 1264 00e7 49       		.uleb128 0x49
 1265 00e8 13       		.uleb128 0x13
 1266 00e9 02       		.uleb128 0x2
 1267 00ea 17       		.uleb128 0x17
 1268 00eb B742     		.uleb128 0x2137
 1269 00ed 17       		.uleb128 0x17
 1270 00ee 00       		.byte	0
 1271 00ef 00       		.byte	0
 1272 00f0 10       		.uleb128 0x10
 1273 00f1 11       		.uleb128 0x11
 1274 00f2 01       		.byte	0x1
 1275 00f3 25       		.uleb128 0x25
 1276 00f4 0E       		.uleb128 0xe
 1277 00f5 13       		.uleb128 0x13
 1278 00f6 0B       		.uleb128 0xb
 1279 00f7 03       		.uleb128 0x3
 1280 00f8 0E       		.uleb128 0xe
 1281 00f9 1B       		.uleb128 0x1b
 1282 00fa 0E       		.uleb128 0xe
 1283 00fb 55       		.uleb128 0x55
 1284 00fc 17       		.uleb128 0x17
 1285 00fd 11       		.uleb128 0x11
 1286 00fe 01       		.uleb128 0x1
 1287 00ff 10       		.uleb128 0x10
 1288 0100 17       		.uleb128 0x17
 1289 0101 00       		.byte	0
 1290 0102 00       		.byte	0
 1291 0103 11       		.uleb128 0x11
 1292 0104 24       		.uleb128 0x24
 1293 0105 00       		.byte	0
 1294 0106 0B       		.uleb128 0xb
 1295 0107 0B       		.uleb128 0xb
 1296 0108 3E       		.uleb128 0x3e
 1297 0109 0B       		.uleb128 0xb
 1298 010a 03       		.uleb128 0x3
 1299 010b 08       		.uleb128 0x8
 1300 010c 00       		.byte	0
 1301 010d 00       		.byte	0
 1302 010e 12       		.uleb128 0x12
 1303 010f 0D       		.uleb128 0xd
 1304 0110 00       		.byte	0
 1305 0111 03       		.uleb128 0x3
 1306 0112 08       		.uleb128 0x8
 1307 0113 3A       		.uleb128 0x3a
 1308 0114 0B       		.uleb128 0xb
 1309 0115 3B       		.uleb128 0x3b
 1310 0116 05       		.uleb128 0x5
 1311 0117 39       		.uleb128 0x39
ARM GAS  C:\Users\DEVELO~1\AppData\Local\Temp\ccORRwr3.s 			page 24


 1312 0118 0B       		.uleb128 0xb
 1313 0119 49       		.uleb128 0x49
 1314 011a 13       		.uleb128 0x13
 1315 011b 38       		.uleb128 0x38
 1316 011c 05       		.uleb128 0x5
 1317 011d 00       		.byte	0
 1318 011e 00       		.byte	0
 1319 011f 13       		.uleb128 0x13
 1320 0120 21       		.uleb128 0x21
 1321 0121 00       		.byte	0
 1322 0122 49       		.uleb128 0x49
 1323 0123 13       		.uleb128 0x13
 1324 0124 2F       		.uleb128 0x2f
 1325 0125 05       		.uleb128 0x5
 1326 0126 00       		.byte	0
 1327 0127 00       		.byte	0
 1328 0128 14       		.uleb128 0x14
 1329 0129 13       		.uleb128 0x13
 1330 012a 01       		.byte	0x1
 1331 012b 0B       		.uleb128 0xb
 1332 012c 0B       		.uleb128 0xb
 1333 012d 3A       		.uleb128 0x3a
 1334 012e 0B       		.uleb128 0xb
 1335 012f 3B       		.uleb128 0x3b
 1336 0130 05       		.uleb128 0x5
 1337 0131 39       		.uleb128 0x39
 1338 0132 0B       		.uleb128 0xb
 1339 0133 01       		.uleb128 0x1
 1340 0134 13       		.uleb128 0x13
 1341 0135 00       		.byte	0
 1342 0136 00       		.byte	0
 1343 0137 15       		.uleb128 0x15
 1344 0138 05       		.uleb128 0x5
 1345 0139 00       		.byte	0
 1346 013a 03       		.uleb128 0x3
 1347 013b 0E       		.uleb128 0xe
 1348 013c 3A       		.uleb128 0x3a
 1349 013d 0B       		.uleb128 0xb
 1350 013e 3B       		.uleb128 0x3b
 1351 013f 0B       		.uleb128 0xb
 1352 0140 39       		.uleb128 0x39
 1353 0141 0B       		.uleb128 0xb
 1354 0142 49       		.uleb128 0x49
 1355 0143 13       		.uleb128 0x13
 1356 0144 02       		.uleb128 0x2
 1357 0145 18       		.uleb128 0x18
 1358 0146 00       		.byte	0
 1359 0147 00       		.byte	0
 1360 0148 16       		.uleb128 0x16
 1361 0149 34       		.uleb128 0x34
 1362 014a 00       		.byte	0
 1363 014b 03       		.uleb128 0x3
 1364 014c 0E       		.uleb128 0xe
 1365 014d 49       		.uleb128 0x49
 1366 014e 13       		.uleb128 0x13
 1367 014f 34       		.uleb128 0x34
 1368 0150 19       		.uleb128 0x19
ARM GAS  C:\Users\DEVELO~1\AppData\Local\Temp\ccORRwr3.s 			page 25


 1369 0151 00       		.byte	0
 1370 0152 00       		.byte	0
 1371 0153 17       		.uleb128 0x17
 1372 0154 2E       		.uleb128 0x2e
 1373 0155 01       		.byte	0x1
 1374 0156 3F       		.uleb128 0x3f
 1375 0157 19       		.uleb128 0x19
 1376 0158 03       		.uleb128 0x3
 1377 0159 0E       		.uleb128 0xe
 1378 015a 3A       		.uleb128 0x3a
 1379 015b 0B       		.uleb128 0xb
 1380 015c 3B       		.uleb128 0x3b
 1381 015d 0B       		.uleb128 0xb
 1382 015e 39       		.uleb128 0x39
 1383 015f 0B       		.uleb128 0xb
 1384 0160 27       		.uleb128 0x27
 1385 0161 19       		.uleb128 0x19
 1386 0162 11       		.uleb128 0x11
 1387 0163 01       		.uleb128 0x1
 1388 0164 12       		.uleb128 0x12
 1389 0165 06       		.uleb128 0x6
 1390 0166 40       		.uleb128 0x40
 1391 0167 18       		.uleb128 0x18
 1392 0168 7A       		.uleb128 0x7a
 1393 0169 19       		.uleb128 0x19
 1394 016a 00       		.byte	0
 1395 016b 00       		.byte	0
 1396 016c 18       		.uleb128 0x18
 1397 016d 0B       		.uleb128 0xb
 1398 016e 01       		.byte	0x1
 1399 016f 55       		.uleb128 0x55
 1400 0170 17       		.uleb128 0x17
 1401 0171 00       		.byte	0
 1402 0172 00       		.byte	0
 1403 0173 00       		.byte	0
 1404              		.section	.debug_loclists,"",%progbits
 1405 0000 C1000000 		.4byte	.Ldebug_loc3-.Ldebug_loc2
 1406              	.Ldebug_loc2:
 1407 0004 0500     		.2byte	0x5
 1408 0006 04       		.byte	0x4
 1409 0007 00       		.byte	0
 1410 0008 00000000 		.4byte	0
 1411              	.Ldebug_loc0:
 1412              	.LVUS8:
 1413 000c 00       		.uleb128 0
 1414 000d 00       		.uleb128 .LVU76
 1415 000e 00       		.uleb128 .LVU76
 1416 000f 00       		.uleb128 0
 1417              	.LLST8:
 1418 0010 06       		.byte	0x6
 1419 0011 00000000 		.4byte	.LVL13
 1420 0015 04       		.byte	0x4
 1421 0016 00       		.uleb128 .LVL13-.LVL13
 1422 0017 08       		.uleb128 .LVL14-.LVL13
 1423 0018 01       		.uleb128 0x1
 1424 0019 50       		.byte	0x50
 1425 001a 04       		.byte	0x4
ARM GAS  C:\Users\DEVELO~1\AppData\Local\Temp\ccORRwr3.s 			page 26


 1426 001b 08       		.uleb128 .LVL14-.LVL13
 1427 001c 18       		.uleb128 .LFE436-.LVL13
 1428 001d 04       		.uleb128 0x4
 1429 001e A3       		.byte	0xa3
 1430 001f 01       		.uleb128 0x1
 1431 0020 50       		.byte	0x50
 1432 0021 9F       		.byte	0x9f
 1433 0022 00       		.byte	0
 1434              	.LVUS7:
 1435 0023 00       		.uleb128 0
 1436 0024 00       		.uleb128 .LVU67
 1437 0025 00       		.uleb128 .LVU67
 1438 0026 00       		.uleb128 0
 1439              	.LLST7:
 1440 0027 06       		.byte	0x6
 1441 0028 00000000 		.4byte	.LVL11
 1442 002c 04       		.byte	0x4
 1443 002d 00       		.uleb128 .LVL11-.LVL11
 1444 002e 08       		.uleb128 .LVL12-.LVL11
 1445 002f 01       		.uleb128 0x1
 1446 0030 50       		.byte	0x50
 1447 0031 04       		.byte	0x4
 1448 0032 08       		.uleb128 .LVL12-.LVL11
 1449 0033 18       		.uleb128 .LFE435-.LVL11
 1450 0034 04       		.uleb128 0x4
 1451 0035 A3       		.byte	0xa3
 1452 0036 01       		.uleb128 0x1
 1453 0037 50       		.byte	0x50
 1454 0038 9F       		.byte	0x9f
 1455 0039 00       		.byte	0
 1456              	.LVUS6:
 1457 003a 00       		.uleb128 0
 1458 003b 00       		.uleb128 .LVU58
 1459 003c 00       		.uleb128 .LVU58
 1460 003d 00       		.uleb128 0
 1461              	.LLST6:
 1462 003e 06       		.byte	0x6
 1463 003f 00000000 		.4byte	.LVL9
 1464 0043 04       		.byte	0x4
 1465 0044 00       		.uleb128 .LVL9-.LVL9
 1466 0045 04       		.uleb128 .LVL10-.LVL9
 1467 0046 01       		.uleb128 0x1
 1468 0047 51       		.byte	0x51
 1469 0048 04       		.byte	0x4
 1470 0049 04       		.uleb128 .LVL10-.LVL9
 1471 004a 10       		.uleb128 .LFE434-.LVL9
 1472 004b 04       		.uleb128 0x4
 1473 004c A3       		.byte	0xa3
 1474 004d 01       		.uleb128 0x1
 1475 004e 51       		.byte	0x51
 1476 004f 9F       		.byte	0x9f
 1477 0050 00       		.byte	0
 1478              	.LVUS5:
 1479 0051 00       		.uleb128 0
 1480 0052 00       		.uleb128 .LVU44
 1481 0053 00       		.uleb128 .LVU44
 1482 0054 00       		.uleb128 0
ARM GAS  C:\Users\DEVELO~1\AppData\Local\Temp\ccORRwr3.s 			page 27


 1483              	.LLST5:
 1484 0055 06       		.byte	0x6
 1485 0056 00000000 		.4byte	.LVL7
 1486 005a 04       		.byte	0x4
 1487 005b 00       		.uleb128 .LVL7-.LVL7
 1488 005c 14       		.uleb128 .LVL8-.LVL7
 1489 005d 01       		.uleb128 0x1
 1490 005e 50       		.byte	0x50
 1491 005f 04       		.byte	0x4
 1492 0060 14       		.uleb128 .LVL8-.LVL7
 1493 0061 2C       		.uleb128 .LFE433-.LVL7
 1494 0062 07       		.uleb128 0x7
 1495 0063 70       		.byte	0x70
 1496 0064 80BEFCFF 		.sleb128 536813312
 1496      01
 1497 0069 9F       		.byte	0x9f
 1498 006a 00       		.byte	0
 1499              	.LVUS3:
 1500 006b 00       		.uleb128 0
 1501 006c 00       		.uleb128 .LVU29
 1502 006d 00       		.uleb128 .LVU29
 1503 006e 00       		.uleb128 0
 1504              	.LLST3:
 1505 006f 06       		.byte	0x6
 1506 0070 00000000 		.4byte	.LVL4
 1507 0074 04       		.byte	0x4
 1508 0075 00       		.uleb128 .LVL4-.LVL4
 1509 0076 14       		.uleb128 .LVL6-.LVL4
 1510 0077 01       		.uleb128 0x1
 1511 0078 50       		.byte	0x50
 1512 0079 04       		.byte	0x4
 1513 007a 14       		.uleb128 .LVL6-.LVL4
 1514 007b 30       		.uleb128 .LFE432-.LVL4
 1515 007c 07       		.uleb128 0x7
 1516 007d 70       		.byte	0x70
 1517 007e 80BEFCFF 		.sleb128 536813312
 1517      01
 1518 0083 9F       		.byte	0x9f
 1519 0084 00       		.byte	0
 1520              	.LVUS4:
 1521 0085 00       		.uleb128 0
 1522 0086 00       		.uleb128 .LVU23
 1523 0087 00       		.uleb128 .LVU23
 1524 0088 00       		.uleb128 0
 1525              	.LLST4:
 1526 0089 06       		.byte	0x6
 1527 008a 00000000 		.4byte	.LVL4
 1528 008e 04       		.byte	0x4
 1529 008f 00       		.uleb128 .LVL4-.LVL4
 1530 0090 04       		.uleb128 .LVL5-.LVL4
 1531 0091 01       		.uleb128 0x1
 1532 0092 51       		.byte	0x51
 1533 0093 04       		.byte	0x4
 1534 0094 04       		.uleb128 .LVL5-.LVL4
 1535 0095 30       		.uleb128 .LFE432-.LVL4
 1536 0096 04       		.uleb128 0x4
 1537 0097 A3       		.byte	0xa3
ARM GAS  C:\Users\DEVELO~1\AppData\Local\Temp\ccORRwr3.s 			page 28


 1538 0098 01       		.uleb128 0x1
 1539 0099 51       		.byte	0x51
 1540 009a 9F       		.byte	0x9f
 1541 009b 00       		.byte	0
 1542              	.LVUS0:
 1543 009c 00       		.uleb128 .LVU7
 1544 009d 00       		.uleb128 .LVU18
 1545              	.LLST0:
 1546 009e 08       		.byte	0x8
 1547 009f 10000000 		.4byte	.LVL0
 1548 00a3 16       		.uleb128 .LVL3-.LVL0
 1549 00a4 01       		.uleb128 0x1
 1550 00a5 54       		.byte	0x54
 1551 00a6 00       		.byte	0
 1552              	.LVUS2:
 1553 00a7 02       		.uleb128 .LVU9
 1554 00a8 03       		.uleb128 .LVU10
 1555 00a9 03       		.uleb128 .LVU10
 1556 00aa 00       		.uleb128 .LVU12
 1557 00ab 00       		.uleb128 .LVU12
 1558 00ac 01       		.uleb128 .LVU16
 1559              	.LLST2:
 1560 00ad 06       		.byte	0x6
 1561 00ae 10000000 		.4byte	.LVL0
 1562 00b2 04       		.byte	0x4
 1563 00b3 00       		.uleb128 .LVL0-.LVL0
 1564 00b4 00       		.uleb128 .LVL0-.LVL0
 1565 00b5 02       		.uleb128 0x2
 1566 00b6 30       		.byte	0x30
 1567 00b7 9F       		.byte	0x9f
 1568 00b8 04       		.byte	0x4
 1569 00b9 00       		.uleb128 .LVL0-.LVL0
 1570 00ba 0A       		.uleb128 .LVL1-.LVL0
 1571 00bb 01       		.uleb128 0x1
 1572 00bc 53       		.byte	0x53
 1573 00bd 04       		.byte	0x4
 1574 00be 0A       		.uleb128 .LVL1-.LVL0
 1575 00bf 12       		.uleb128 .LVL2-.LVL0
 1576 00c0 03       		.uleb128 0x3
 1577 00c1 73       		.byte	0x73
 1578 00c2 7F       		.sleb128 -1
 1579 00c3 9F       		.byte	0x9f
 1580 00c4 00       		.byte	0
 1581              	.Ldebug_loc3:
 1582              		.section	.debug_aranges,"",%progbits
 1583 0000 44000000 		.4byte	0x44
 1584 0004 0200     		.2byte	0x2
 1585 0006 00000000 		.4byte	.Ldebug_info0
 1586 000a 04       		.byte	0x4
 1587 000b 00       		.byte	0
 1588 000c 0000     		.2byte	0
 1589 000e 0000     		.2byte	0
 1590 0010 00000000 		.4byte	.LFB431
 1591 0014 2C000000 		.4byte	.LFE431-.LFB431
 1592 0018 00000000 		.4byte	.LFB432
 1593 001c 30000000 		.4byte	.LFE432-.LFB432
 1594 0020 00000000 		.4byte	.LFB433
ARM GAS  C:\Users\DEVELO~1\AppData\Local\Temp\ccORRwr3.s 			page 29


 1595 0024 2C000000 		.4byte	.LFE433-.LFB433
 1596 0028 00000000 		.4byte	.LFB434
 1597 002c 10000000 		.4byte	.LFE434-.LFB434
 1598 0030 00000000 		.4byte	.LFB435
 1599 0034 18000000 		.4byte	.LFE435-.LFB435
 1600 0038 00000000 		.4byte	.LFB436
 1601 003c 18000000 		.4byte	.LFE436-.LFB436
 1602 0040 00000000 		.4byte	0
 1603 0044 00000000 		.4byte	0
 1604              		.section	.debug_rnglists,"",%progbits
 1605              	.Ldebug_ranges0:
 1606 0000 39000000 		.4byte	.Ldebug_ranges3-.Ldebug_ranges2
 1607              	.Ldebug_ranges2:
 1608 0004 0500     		.2byte	0x5
 1609 0006 04       		.byte	0x4
 1610 0007 00       		.byte	0
 1611 0008 00000000 		.4byte	0
 1612              	.LLRL1:
 1613 000c 05       		.byte	0x5
 1614 000d 04000000 		.4byte	.LBB2
 1615 0011 04       		.byte	0x4
 1616 0012 00       		.uleb128 .LBB2-.LBB2
 1617 0013 06       		.uleb128 .LBE2-.LBB2
 1618 0014 04       		.byte	0x4
 1619 0015 0C       		.uleb128 .LBB3-.LBB2
 1620 0016 20       		.uleb128 .LBE3-.LBB2
 1621 0017 00       		.byte	0
 1622              	.LLRL9:
 1623 0018 07       		.byte	0x7
 1624 0019 00000000 		.4byte	.LFB431
 1625 001d 2C       		.uleb128 .LFE431-.LFB431
 1626 001e 07       		.byte	0x7
 1627 001f 00000000 		.4byte	.LFB432
 1628 0023 30       		.uleb128 .LFE432-.LFB432
 1629 0024 07       		.byte	0x7
 1630 0025 00000000 		.4byte	.LFB433
 1631 0029 2C       		.uleb128 .LFE433-.LFB433
 1632 002a 07       		.byte	0x7
 1633 002b 00000000 		.4byte	.LFB434
 1634 002f 10       		.uleb128 .LFE434-.LFB434
 1635 0030 07       		.byte	0x7
 1636 0031 00000000 		.4byte	.LFB435
 1637 0035 18       		.uleb128 .LFE435-.LFB435
 1638 0036 07       		.byte	0x7
 1639 0037 00000000 		.4byte	.LFB436
 1640 003b 18       		.uleb128 .LFE436-.LFB436
 1641 003c 00       		.byte	0
 1642              	.Ldebug_ranges3:
 1643              		.section	.debug_line,"",%progbits
 1644              	.Ldebug_line0:
 1645 0000 C4020000 		.section	.debug_str,"MS",%progbits,1
 1645      03004801 
 1645      00000201 
 1645      FB0E0D00 
 1645      01010101 
 1646              	.LASF70:
 1647 0000 5343425F 		.ascii	"SCB_Type\000"
ARM GAS  C:\Users\DEVELO~1\AppData\Local\Temp\ccORRwr3.s 			page 30


 1647      54797065 
 1647      00
 1648              	.LASF59:
 1649 0009 44434353 		.ascii	"DCCSW\000"
 1649      5700
 1650              	.LASF23:
 1651 000f 49414252 		.ascii	"IABR\000"
 1651      00
 1652              	.LASF82:
 1653 0014 6E766963 		.ascii	"nvicEnableVector\000"
 1653      456E6162 
 1653      6C655665 
 1653      63746F72 
 1653      00
 1654              	.LASF37:
 1655 0025 4D4D4641 		.ascii	"MMFAR\000"
 1655      5200
 1656              	.LASF5:
 1657 002b 73686F72 		.ascii	"short int\000"
 1657      7420696E 
 1657      7400
 1658              	.LASF72:
 1659 0035 4143544C 		.ascii	"ACTLR\000"
 1659      5200
 1660              	.LASF16:
 1661 003b 52455345 		.ascii	"RESERVED0\000"
 1661      52564544 
 1661      3000
 1662              	.LASF81:
 1663 0045 6E766963 		.ascii	"nvicDisableVector\000"
 1663      44697361 
 1663      626C6556 
 1663      6563746F 
 1663      7200
 1664              	.LASF56:
 1665 0057 44434953 		.ascii	"DCISW\000"
 1665      5700
 1666              	.LASF2:
 1667 005d 6C6F6E67 		.ascii	"long double\000"
 1667      20646F75 
 1667      626C6500 
 1668              	.LASF9:
 1669 0069 5F5F7569 		.ascii	"__uint32_t\000"
 1669      6E743332 
 1669      5F7400
 1670              	.LASF60:
 1671 0074 44434349 		.ascii	"DCCIMVAC\000"
 1671      4D564143 
 1671      00
 1672              	.LASF83:
 1673 007d 474E5520 		.ascii	"GNU C17 11.3.1 20220712 -mcpu=cortex-m7 -mthumb -mf"
 1673      43313720 
 1673      31312E33 
 1673      2E312032 
 1673      30323230 
 1674 00b0 6C6F6174 		.ascii	"loat-abi=soft -march=armv7e-m -ggdb -O2 -fomit-fram"
 1674      2D616269 
ARM GAS  C:\Users\DEVELO~1\AppData\Local\Temp\ccORRwr3.s 			page 31


 1674      3D736F66 
 1674      74202D6D 
 1674      61726368 
 1675 00e3 652D706F 		.ascii	"e-pointer -falign-functions=16 -ffunction-sections "
 1675      696E7465 
 1675      72202D66 
 1675      616C6967 
 1675      6E2D6675 
 1676 0116 2D666461 		.ascii	"-fdata-sections -fno-common\000"
 1676      74612D73 
 1676      65637469 
 1676      6F6E7320 
 1676      2D666E6F 
 1677              	.LASF65:
 1678 0132 41484250 		.ascii	"AHBPCR\000"
 1678      435200
 1679              	.LASF88:
 1680 0139 6E766963 		.ascii	"nvicInit\000"
 1680      496E6974 
 1680      00
 1681              	.LASF28:
 1682 0142 43505549 		.ascii	"CPUID\000"
 1682      4400
 1683              	.LASF49:
 1684 0148 4D564652 		.ascii	"MVFR0\000"
 1684      3000
 1685              	.LASF50:
 1686 014e 4D564652 		.ascii	"MVFR1\000"
 1686      3100
 1687              	.LASF51:
 1688 0154 4D564652 		.ascii	"MVFR2\000"
 1688      3200
 1689              	.LASF20:
 1690 015a 52455345 		.ascii	"RESERVED2\000"
 1690      52564544 
 1690      3200
 1691              	.LASF12:
 1692 0164 75696E74 		.ascii	"uint8_t\000"
 1692      385F7400 
 1693              	.LASF77:
 1694 016c 6E766963 		.ascii	"nvicSetPending\000"
 1694      53657450 
 1694      656E6469 
 1694      6E6700
 1695              	.LASF53:
 1696 017b 52455345 		.ascii	"RESERVED6\000"
 1696      52564544 
 1696      3600
 1697              	.LASF45:
 1698 0185 434C4944 		.ascii	"CLIDR\000"
 1698      5200
 1699              	.LASF26:
 1700 018b 53544952 		.ascii	"STIR\000"
 1700      00
 1701              	.LASF42:
 1702 0190 49445F41 		.ascii	"ID_AFR\000"
 1702      465200
ARM GAS  C:\Users\DEVELO~1\AppData\Local\Temp\ccORRwr3.s 			page 32


 1703              	.LASF73:
 1704 0197 53436E53 		.ascii	"SCnSCB_Type\000"
 1704      43425F54 
 1704      79706500 
 1705              	.LASF74:
 1706 01a3 666C6F61 		.ascii	"float\000"
 1706      7400
 1707              	.LASF29:
 1708 01a9 49435352 		.ascii	"ICSR\000"
 1708      00
 1709              	.LASF18:
 1710 01ae 52534552 		.ascii	"RSERVED1\000"
 1710      56454431 
 1710      00
 1711              	.LASF69:
 1712 01b7 41424653 		.ascii	"ABFSR\000"
 1712      5200
 1713              	.LASF1:
 1714 01bd 6C6F6E67 		.ascii	"long long int\000"
 1714      206C6F6E 
 1714      6720696E 
 1714      7400
 1715              	.LASF38:
 1716 01cb 42464152 		.ascii	"BFAR\000"
 1716      00
 1717              	.LASF7:
 1718 01d0 6C6F6E67 		.ascii	"long int\000"
 1718      20696E74 
 1718      00
 1719              	.LASF85:
 1720 01d9 433A5C43 		.ascii	"C:\\ChibiStudio\\chibios2111\\demos\\STM32\\RT-STM3"
 1720      68696269 
 1720      53747564 
 1720      696F5C63 
 1720      68696269 
 1721 0207 32483734 		.ascii	"2H743ZI_REV_XY-NUCLEO144 - Copie\000"
 1721      335A495F 
 1721      5245565F 
 1721      58592D4E 
 1721      55434C45 
 1722              	.LASF8:
 1723 0228 5F5F7569 		.ascii	"__uint8_t\000"
 1723      6E74385F 
 1723      7400
 1724              	.LASF34:
 1725 0232 43465352 		.ascii	"CFSR\000"
 1725      00
 1726              	.LASF52:
 1727 0237 49434941 		.ascii	"ICIALLU\000"
 1727      4C4C5500 
 1728              	.LASF55:
 1729 023f 4443494D 		.ascii	"DCIMVAC\000"
 1729      56414300 
 1730              	.LASF4:
 1731 0247 756E7369 		.ascii	"unsigned char\000"
 1731      676E6564 
 1731      20636861 
ARM GAS  C:\Users\DEVELO~1\AppData\Local\Temp\ccORRwr3.s 			page 33


 1731      7200
 1732              	.LASF54:
 1733 0255 4943494D 		.ascii	"ICIMVAU\000"
 1733      56415500 
 1734              	.LASF44:
 1735 025d 49445F49 		.ascii	"ID_ISAR\000"
 1735      53415200 
 1736              	.LASF31:
 1737 0265 41495243 		.ascii	"AIRCR\000"
 1737      5200
 1738              	.LASF87:
 1739 026b 5F5F6675 		.ascii	"__func__\000"
 1739      6E635F5F 
 1739      00
 1740              	.LASF79:
 1741 0274 6E766963 		.ascii	"nvicSetSystemHandlerPriority\000"
 1741      53657453 
 1741      79737465 
 1741      6D48616E 
 1741      646C6572 
 1742              	.LASF27:
 1743 0291 4E564943 		.ascii	"NVIC_Type\000"
 1743      5F547970 
 1743      6500
 1744              	.LASF21:
 1745 029b 49435052 		.ascii	"ICPR\000"
 1745      00
 1746              	.LASF3:
 1747 02a0 7369676E 		.ascii	"signed char\000"
 1747      65642063 
 1747      68617200 
 1748              	.LASF32:
 1749 02ac 53485052 		.ascii	"SHPR\000"
 1749      00
 1750              	.LASF11:
 1751 02b1 6C6F6E67 		.ascii	"long long unsigned int\000"
 1751      206C6F6E 
 1751      6720756E 
 1751      7369676E 
 1751      65642069 
 1752              	.LASF33:
 1753 02c8 53484353 		.ascii	"SHCSR\000"
 1753      5200
 1754              	.LASF40:
 1755 02ce 49445F50 		.ascii	"ID_PFR\000"
 1755      465200
 1756              	.LASF63:
 1757 02d5 4954434D 		.ascii	"ITCMCR\000"
 1757      435200
 1758              	.LASF58:
 1759 02dc 4443434D 		.ascii	"DCCMVAC\000"
 1759      56414300 
 1760              	.LASF17:
 1761 02e4 49434552 		.ascii	"ICER\000"
 1761      00
 1762              	.LASF71:
 1763 02e9 49435452 		.ascii	"ICTR\000"
ARM GAS  C:\Users\DEVELO~1\AppData\Local\Temp\ccORRwr3.s 			page 34


 1763      00
 1764              	.LASF47:
 1765 02ee 43535345 		.ascii	"CSSELR\000"
 1765      4C5200
 1766              	.LASF6:
 1767 02f5 73686F72 		.ascii	"short unsigned int\000"
 1767      7420756E 
 1767      7369676E 
 1767      65642069 
 1767      6E7400
 1768              	.LASF46:
 1769 0308 43435349 		.ascii	"CCSIDR\000"
 1769      445200
 1770              	.LASF14:
 1771 030f 63686172 		.ascii	"char\000"
 1771      00
 1772              	.LASF57:
 1773 0314 4443434D 		.ascii	"DCCMVAU\000"
 1773      56415500 
 1774              	.LASF30:
 1775 031c 56544F52 		.ascii	"VTOR\000"
 1775      00
 1776              	.LASF78:
 1777 0321 6E766963 		.ascii	"nvicClearPending\000"
 1777      436C6561 
 1777      7250656E 
 1777      64696E67 
 1777      00
 1778              	.LASF19:
 1779 0332 49535052 		.ascii	"ISPR\000"
 1779      00
 1780              	.LASF36:
 1781 0337 44465352 		.ascii	"DFSR\000"
 1781      00
 1782              	.LASF76:
 1783 033c 5F426F6F 		.ascii	"_Bool\000"
 1783      6C00
 1784              	.LASF86:
 1785 0342 68616E64 		.ascii	"handler\000"
 1785      6C657200 
 1786              	.LASF35:
 1787 034a 48465352 		.ascii	"HFSR\000"
 1787      00
 1788              	.LASF66:
 1789 034f 43414352 		.ascii	"CACR\000"
 1789      00
 1790              	.LASF15:
 1791 0354 49534552 		.ascii	"ISER\000"
 1791      00
 1792              	.LASF13:
 1793 0359 75696E74 		.ascii	"uint32_t\000"
 1793      33325F74 
 1793      00
 1794              	.LASF22:
 1795 0362 52455345 		.ascii	"RESERVED3\000"
 1795      52564544 
 1795      3300
ARM GAS  C:\Users\DEVELO~1\AppData\Local\Temp\ccORRwr3.s 			page 35


 1796              	.LASF24:
 1797 036c 52455345 		.ascii	"RESERVED4\000"
 1797      52564544 
 1797      3400
 1798              	.LASF25:
 1799 0376 52455345 		.ascii	"RESERVED5\000"
 1799      52564544 
 1799      3500
 1800              	.LASF10:
 1801 0380 6C6F6E67 		.ascii	"long unsigned int\000"
 1801      20756E73 
 1801      69676E65 
 1801      6420696E 
 1801      7400
 1802              	.LASF62:
 1803 0392 52455345 		.ascii	"RESERVED7\000"
 1803      52564544 
 1803      3700
 1804              	.LASF68:
 1805 039c 52455345 		.ascii	"RESERVED8\000"
 1805      52564544 
 1805      3800
 1806              	.LASF75:
 1807 03a6 646F7562 		.ascii	"double\000"
 1807      6C6500
 1808              	.LASF61:
 1809 03ad 44434349 		.ascii	"DCCISW\000"
 1809      535700
 1810              	.LASF67:
 1811 03b4 41484253 		.ascii	"AHBSCR\000"
 1811      435200
 1812              	.LASF84:
 1813 03bb 2E2E2F2E 		.ascii	"../../../os/hal/ports/common/ARMCMx/nvic.c\000"
 1813      2E2F2E2E 
 1813      2F6F732F 
 1813      68616C2F 
 1813      706F7274 
 1814              	.LASF43:
 1815 03e6 49445F4D 		.ascii	"ID_MFR\000"
 1815      465200
 1816              	.LASF39:
 1817 03ed 41465352 		.ascii	"AFSR\000"
 1817      00
 1818              	.LASF41:
 1819 03f2 49445F44 		.ascii	"ID_DFR\000"
 1819      465200
 1820              	.LASF0:
 1821 03f9 756E7369 		.ascii	"unsigned int\000"
 1821      676E6564 
 1821      20696E74 
 1821      00
 1822              	.LASF48:
 1823 0406 43504143 		.ascii	"CPACR\000"
 1823      5200
 1824              	.LASF80:
 1825 040c 7072696F 		.ascii	"prio\000"
 1825      00
ARM GAS  C:\Users\DEVELO~1\AppData\Local\Temp\ccORRwr3.s 			page 36


 1826              	.LASF64:
 1827 0411 4454434D 		.ascii	"DTCMCR\000"
 1827      435200
 1828              		.ident	"GCC: (Arm GNU Toolchain 11.3.Rel1) 11.3.1 20220712"
ARM GAS  C:\Users\DEVELO~1\AppData\Local\Temp\ccORRwr3.s 			page 37


DEFINED SYMBOLS
                            *ABS*:00000000 nvic.c
C:\Users\DEVELO~1\AppData\Local\Temp\ccORRwr3.s:18     .text.nvicInit:00000000 $t
C:\Users\DEVELO~1\AppData\Local\Temp\ccORRwr3.s:25     .text.nvicInit:00000000 nvicInit
C:\Users\DEVELO~1\AppData\Local\Temp\ccORRwr3.s:83     .text.nvicInit:00000028 $d
C:\Users\DEVELO~1\AppData\Local\Temp\ccORRwr3.s:88     .text.nvicEnableVector:00000000 $t
C:\Users\DEVELO~1\AppData\Local\Temp\ccORRwr3.s:95     .text.nvicEnableVector:00000000 nvicEnableVector
C:\Users\DEVELO~1\AppData\Local\Temp\ccORRwr3.s:139    .text.nvicEnableVector:0000002c $d
C:\Users\DEVELO~1\AppData\Local\Temp\ccORRwr3.s:144    .text.nvicDisableVector:00000000 $t
C:\Users\DEVELO~1\AppData\Local\Temp\ccORRwr3.s:151    .text.nvicDisableVector:00000000 nvicDisableVector
C:\Users\DEVELO~1\AppData\Local\Temp\ccORRwr3.s:189    .text.nvicDisableVector:00000028 $d
C:\Users\DEVELO~1\AppData\Local\Temp\ccORRwr3.s:194    .text.nvicSetSystemHandlerPriority:00000000 $t
C:\Users\DEVELO~1\AppData\Local\Temp\ccORRwr3.s:201    .text.nvicSetSystemHandlerPriority:00000000 nvicSetSystemHandlerPriority
C:\Users\DEVELO~1\AppData\Local\Temp\ccORRwr3.s:229    .text.nvicSetSystemHandlerPriority:0000000c $d
C:\Users\DEVELO~1\AppData\Local\Temp\ccORRwr3.s:234    .text.nvicClearPending:00000000 $t
C:\Users\DEVELO~1\AppData\Local\Temp\ccORRwr3.s:241    .text.nvicClearPending:00000000 nvicClearPending
C:\Users\DEVELO~1\AppData\Local\Temp\ccORRwr3.s:269    .text.nvicClearPending:00000014 $d
C:\Users\DEVELO~1\AppData\Local\Temp\ccORRwr3.s:274    .text.nvicSetPending:00000000 $t
C:\Users\DEVELO~1\AppData\Local\Temp\ccORRwr3.s:281    .text.nvicSetPending:00000000 nvicSetPending
C:\Users\DEVELO~1\AppData\Local\Temp\ccORRwr3.s:309    .text.nvicSetPending:00000014 $d

NO UNDEFINED SYMBOLS
