ARM GAS  C:\Users\DEVELO~1\AppData\Local\Temp\ccORRwr3.s 			page 1


   1              		.cpu cortex-m7
   2              		.arch armv7e-m
   3              		.fpu softvfp
   4              		.eabi_attribute 20, 1
   5              		.eabi_attribute 21, 1
   6              		.eabi_attribute 23, 3
   7              		.eabi_attribute 24, 1
   8              		.eabi_attribute 25, 1
   9              		.eabi_attribute 26, 1
  10              		.eabi_attribute 30, 2
  11              		.eabi_attribute 34, 1
  12              		.eabi_attribute 18, 4
  13              		.file	"nvic.c"
  14              		.text
  15              	.Ltext0:
  16              		.cfi_sections	.debug_frame
  17              		.section	.text.nvicInit,"ax",%progbits
  18              		.align	1
  19              		.p2align 4,,15
  20              		.global	nvicInit
  21              		.syntax unified
  22              		.thumb
  23              		.thumb_func
  24              		.type	nvicInit, %function
  25              	nvicInit:
  26              	.LFB431:
  27              		.file 1 "../../../os/hal/ports/common/ARMCMx/nvic.c"
  28              		.loc 1 79 21 view -0
  29              		.cfi_startproc
  30              		@ args = 0, pretend = 0, frame = 0
  31              		@ frame_needed = 0, uses_anonymous_args = 0
  32              		@ link register save eliminated.
  33              		.loc 1 84 3 view .LVU1
  34              		.loc 1 84 12 is_stmt 0 view .LVU2
  35 0000 4FF0E022 		mov	r2, #-536813568
  36              	.LBB2:
  37              		.loc 1 87 17 view .LVU3
  38 0004 0023     		movs	r3, #0
  39              		.loc 1 88 21 view .LVU4
  40 0006 4FF0FF30 		mov	r0, #-1
  41              	.LBE2:
  42              		.loc 1 79 21 view .LVU5
  43 000a 30B4     		push	{r4, r5}
  44              		.cfi_def_cfa_offset 8
  45              		.cfi_offset 4, -8
  46              		.cfi_offset 5, -4
  47 000c 064D     		ldr	r5, .L6
  48              		.loc 1 84 12 view .LVU6
  49 000e 5468     		ldr	r4, [r2, #4]
  50              	.LVL0:
  51              		.loc 1 87 3 is_stmt 1 view .LVU7
  52              	.LBB3:
  53              		.loc 1 87 8 view .LVU8
  54              		.loc 1 87 27 view .LVU9
  55              	.L2:
  56              		.loc 1 88 5 discriminator 3 view .LVU10
  57 0010 05EB8301 		add	r1, r5, r3, lsl #2
ARM GAS  C:\Users\DEVELO~1\AppData\Local\Temp\ccORRwr3.s 			page 2


  58              		.loc 1 87 27 is_stmt 0 discriminator 3 view .LVU11
  59 0014 9C42     		cmp	r4, r3
  60 0016 03F10103 		add	r3, r3, #1
  61              	.LVL1:
  62              		.loc 1 88 21 discriminator 3 view .LVU12
  63 001a C1F88000 		str	r0, [r1, #128]
  64              		.loc 1 89 5 is_stmt 1 discriminator 3 view .LVU13
  65              		.loc 1 89 21 is_stmt 0 discriminator 3 view .LVU14
  66 001e C1F88001 		str	r0, [r1, #384]
  67              		.loc 1 87 34 is_stmt 1 discriminator 3 view .LVU15
  68              	.LVL2:
  69              		.loc 1 87 27 discriminator 3 view .LVU16
  70 0022 F5D1     		bne	.L2
  71              	.LBE3:
  72              		.loc 1 94 1 is_stmt 0 view .LVU17
  73 0024 30BC     		pop	{r4, r5}
  74              		.cfi_restore 5
  75              		.cfi_restore 4
  76              		.cfi_def_cfa_offset 0
  77              	.LVL3:
  78              		.loc 1 94 1 view .LVU18
  79 0026 7047     		bx	lr
  80              	.L7:
  81              		.align	2
  82              	.L6:
  83 0028 00E100E0 		.word	-536813312
  84              		.cfi_endproc
  85              	.LFE431:
  86              		.size	nvicInit, .-nvicInit
  87              		.section	.text.nvicEnableVector,"ax",%progbits
  88              		.align	1
  89              		.p2align 4,,15
  90              		.global	nvicEnableVector
  91              		.syntax unified
  92              		.thumb
  93              		.thumb_func
  94              		.type	nvicEnableVector, %function
  95              	nvicEnableVector:
  96              	.LVL4:
  97              	.LFB432:
  98              		.loc 1 102 50 is_stmt 1 view -0
  99              		.cfi_startproc
 100              		@ args = 0, pretend = 0, frame = 0
 101              		@ frame_needed = 0, uses_anonymous_args = 0
 102              		.loc 1 109 3 view .LVU20
 103              		.loc 1 109 18 is_stmt 0 view .LVU21
 104 0000 0A4A     		ldr	r2, .L10
 105              		.loc 1 109 20 view .LVU22
 106 0002 0901     		lsls	r1, r1, #4
 107              	.LVL5:
 108              		.loc 1 111 18 view .LVU23
 109 0004 4FEA501C 		lsr	ip, r0, #5
 110              		.loc 1 111 30 view .LVU24
 111 0008 0123     		movs	r3, #1
 112              		.loc 1 109 20 view .LVU25
 113 000a C9B2     		uxtb	r1, r1
 114              		.loc 1 102 50 view .LVU26
ARM GAS  C:\Users\DEVELO~1\AppData\Local\Temp\ccORRwr3.s 			page 3


 115 000c 00B5     		push	{lr}
 116              		.cfi_def_cfa_offset 4
 117              		.cfi_offset 14, -4
 118              		.loc 1 111 36 view .LVU27
 119 000e 00F01F0E 		and	lr, r0, #31
 120              		.loc 1 109 18 view .LVU28
 121 0012 1044     		add	r0, r0, r2
 122              	.LVL6:
 123              		.loc 1 111 30 view .LVU29
 124 0014 03FA0EF3 		lsl	r3, r3, lr
 125              		.loc 1 109 18 view .LVU30
 126 0018 80F80013 		strb	r1, [r0, #768]
 127              		.loc 1 111 3 is_stmt 1 view .LVU31
 128 001c 02EB8C01 		add	r1, r2, ip, lsl #2
 129              		.loc 1 111 25 is_stmt 0 view .LVU32
 130 0020 C1F88031 		str	r3, [r1, #384]
 131              		.loc 1 112 3 is_stmt 1 view .LVU33
 132              		.loc 1 112 25 is_stmt 0 view .LVU34
 133 0024 42F82C30 		str	r3, [r2, ip, lsl #2]
 134              		.loc 1 118 1 view .LVU35
 135 0028 5DF804FB 		ldr	pc, [sp], #4
 136              	.L11:
 137              		.align	2
 138              	.L10:
 139 002c 00E100E0 		.word	-536813312
 140              		.cfi_endproc
 141              	.LFE432:
 142              		.size	nvicEnableVector, .-nvicEnableVector
 143              		.section	.text.nvicDisableVector,"ax",%progbits
 144              		.align	1
 145              		.p2align 4,,15
 146              		.global	nvicDisableVector
 147              		.syntax unified
 148              		.thumb
 149              		.thumb_func
 150              		.type	nvicDisableVector, %function
 151              	nvicDisableVector:
 152              	.LVL7:
 153              	.LFB433:
 154              		.loc 1 125 36 is_stmt 1 view -0
 155              		.cfi_startproc
 156              		@ args = 0, pretend = 0, frame = 0
 157              		@ frame_needed = 0, uses_anonymous_args = 0
 158              		@ link register save eliminated.
 159              		.loc 1 127 3 view .LVU37
 160              		.loc 1 127 36 is_stmt 0 view .LVU38
 161 0000 00F01F0C 		and	ip, r0, #31
 162              		.loc 1 127 30 view .LVU39
 163 0004 0122     		movs	r2, #1
 164 0006 084B     		ldr	r3, .L13
 165              		.loc 1 133 18 view .LVU40
 166 0008 0021     		movs	r1, #0
 167              		.loc 1 127 30 view .LVU41
 168 000a 02FA0CF2 		lsl	r2, r2, ip
 169              		.loc 1 127 18 view .LVU42
 170 000e 4FEA501C 		lsr	ip, r0, #5
 171              		.loc 1 133 18 view .LVU43
ARM GAS  C:\Users\DEVELO~1\AppData\Local\Temp\ccORRwr3.s 			page 4


 172 0012 1844     		add	r0, r0, r3
 173              	.LVL8:
 174              		.loc 1 133 18 view .LVU44
 175 0014 03EB8C03 		add	r3, r3, ip, lsl #2
 176              		.loc 1 127 25 view .LVU45
 177 0018 C3F88020 		str	r2, [r3, #128]
 178              		.loc 1 128 3 is_stmt 1 view .LVU46
 179              		.loc 1 128 25 is_stmt 0 view .LVU47
 180 001c C3F88021 		str	r2, [r3, #384]
 181              		.loc 1 133 3 is_stmt 1 view .LVU48
 182              		.loc 1 133 18 is_stmt 0 view .LVU49
 183 0020 80F80013 		strb	r1, [r0, #768]
 184              		.loc 1 139 1 view .LVU50
 185 0024 7047     		bx	lr
 186              	.L14:
 187 0026 00BF     		.align	2
 188              	.L13:
 189 0028 00E100E0 		.word	-536813312
 190              		.cfi_endproc
 191              	.LFE433:
 192              		.size	nvicDisableVector, .-nvicDisableVector
 193              		.section	.text.nvicSetSystemHandlerPriority,"ax",%progbits
 194              		.align	1
 195              		.p2align 4,,15
 196              		.global	nvicSetSystemHandlerPriority
 197              		.syntax unified
 198              		.thumb
 199              		.thumb_func
 200              		.type	nvicSetSystemHandlerPriority, %function
 201              	nvicSetSystemHandlerPriority:
 202              	.LVL9:
 203              	.LFB434:
 204              		.loc 1 147 68 is_stmt 1 view -0
 205              		.cfi_startproc
 206              		@ args = 0, pretend = 0, frame = 0
 207              		@ frame_needed = 0, uses_anonymous_args = 0
 208              		@ link register save eliminated.
 209              		.loc 1 149 3 view .LVU52
 210              		.loc 1 149 3 view .LVU53
 211              		.loc 1 149 3 view .LVU54
 212              		.loc 1 156 3 view .LVU55
 213              		.loc 1 156 24 is_stmt 0 view .LVU56
 214 0000 024B     		ldr	r3, .L16
 215              		.loc 1 156 26 view .LVU57
 216 0002 0901     		lsls	r1, r1, #4
 217              	.LVL10:
 218              		.loc 1 156 24 view .LVU58
 219 0004 0344     		add	r3, r3, r0
 220              		.loc 1 156 26 view .LVU59
 221 0006 C9B2     		uxtb	r1, r1
 222              		.loc 1 156 24 view .LVU60
 223 0008 1976     		strb	r1, [r3, #24]
 224              		.loc 1 158 1 view .LVU61
 225 000a 7047     		bx	lr
 226              	.L17:
 227              		.align	2
 228              	.L16:
ARM GAS  C:\Users\DEVELO~1\AppData\Local\Temp\ccORRwr3.s 			page 5


 229 000c 00ED00E0 		.word	-536810240
 230              		.cfi_endproc
 231              	.LFE434:
 232              		.size	nvicSetSystemHandlerPriority, .-nvicSetSystemHandlerPriority
 233              		.section	.text.nvicClearPending,"ax",%progbits
 234              		.align	1
 235              		.p2align 4,,15
 236              		.global	nvicClearPending
 237              		.syntax unified
 238              		.thumb
 239              		.thumb_func
 240              		.type	nvicClearPending, %function
 241              	nvicClearPending:
 242              	.LVL11:
 243              	.LFB435:
 244              		.loc 1 165 35 is_stmt 1 view -0
 245              		.cfi_startproc
 246              		@ args = 0, pretend = 0, frame = 0
 247              		@ frame_needed = 0, uses_anonymous_args = 0
 248              		@ link register save eliminated.
 249              		.loc 1 167 3 view .LVU63
 250              		.loc 1 167 18 is_stmt 0 view .LVU64
 251 0000 4309     		lsrs	r3, r0, #5
 252              		.loc 1 167 28 view .LVU65
 253 0002 0122     		movs	r2, #1
 254              		.loc 1 167 34 view .LVU66
 255 0004 00F01F00 		and	r0, r0, #31
 256              	.LVL12:
 257              		.loc 1 167 24 view .LVU67
 258 0008 0249     		ldr	r1, .L19
 259 000a 6033     		adds	r3, r3, #96
 260              		.loc 1 167 28 view .LVU68
 261 000c 8240     		lsls	r2, r2, r0
 262              		.loc 1 167 24 view .LVU69
 263 000e 41F82320 		str	r2, [r1, r3, lsl #2]
 264              		.loc 1 168 1 view .LVU70
 265 0012 7047     		bx	lr
 266              	.L20:
 267              		.align	2
 268              	.L19:
 269 0014 00E100E0 		.word	-536813312
 270              		.cfi_endproc
 271              	.LFE435:
 272              		.size	nvicClearPending, .-nvicClearPending
 273              		.section	.text.nvicSetPending,"ax",%progbits
 274              		.align	1
 275              		.p2align 4,,15
 276              		.global	nvicSetPending
 277              		.syntax unified
 278              		.thumb
 279              		.thumb_func
 280              		.type	nvicSetPending, %function
 281              	nvicSetPending:
 282              	.LVL13:
 283              	.LFB436:
 284              		.loc 1 175 33 is_stmt 1 view -0
 285              		.cfi_startproc
ARM GAS  C:\Users\DEVELO~1\AppData\Local\Temp\ccORRwr3.s 			page 6


 286              		@ args = 0, pretend = 0, frame = 0
 287              		@ frame_needed = 0, uses_anonymous_args = 0
 288              		@ link register save eliminated.
 289              		.loc 1 177 3 view .LVU72
 290              		.loc 1 177 18 is_stmt 0 view .LVU73
 291 0000 4309     		lsrs	r3, r0, #5
 292              		.loc 1 177 28 view .LVU74
 293 0002 0122     		movs	r2, #1
 294              		.loc 1 177 34 view .LVU75
 295 0004 00F01F00 		and	r0, r0, #31
 296              	.LVL14:
 297              		.loc 1 177 24 view .LVU76
 298 0008 0249     		ldr	r1, .L22
 299 000a 4033     		adds	r3, r3, #64
 300              		.loc 1 177 28 view .LVU77
 301 000c 8240     		lsls	r2, r2, r0
 302              		.loc 1 177 24 view .LVU78
 303 000e 41F82320 		str	r2, [r1, r3, lsl #2]
 304              		.loc 1 178 1 view .LVU79
 305 0012 7047     		bx	lr
 306              	.L23:
 307              		.align	2
 308              	.L22:
 309 0014 00E100E0 		.word	-536813312
 310              		.cfi_endproc
 311              	.LFE436:
 312              		.size	nvicSetPending, .-nvicSetPending
 313              		.text
 314              	.Letext0:
 315              		.file 2 "c:\\chibistudio\\tools\\gnu tools arm embedded\\11.3 2022.08\\arm-none-eabi\\include\\mac
 316              		.file 3 "c:\\chibistudio\\tools\\gnu tools arm embedded\\11.3 2022.08\\arm-none-eabi\\include\\sys
 317              		.file 4 "../../../os/common/ext/ARM/CMSIS/Core/Include/core_cm7.h"