ARM GAS  C:\Users\DEVELO~1\AppData\Local\Temp\ccL8ooCN.s 			page 1


   1              		.cpu cortex-m7
   2              		.arch armv7e-m
   3              		.fpu softvfp
   4              		.eabi_attribute 20, 1
   5              		.eabi_attribute 21, 1
   6              		.eabi_attribute 23, 3
   7              		.eabi_attribute 24, 1
   8              		.eabi_attribute 25, 1
   9              		.eabi_attribute 26, 1
  10              		.eabi_attribute 30, 2
  11              		.eabi_attribute 34, 1
  12              		.eabi_attribute 18, 4
  13              		.file	"oslib_test_sequence_006.c"
  14              		.text
  15              	.Ltext0:
  16              		.cfi_sections	.debug_frame
  17              		.section	.text.obj_write,"ax",%progbits
  18              		.align	1
  19              		.p2align 4,,15
  20              		.syntax unified
  21              		.thumb
  22              		.thumb_func
  23              		.type	obj_write, %function
  24              	obj_write:
  25              	.LVL0:
  26              	.LFB436:
  27              		.file 1 "../../../test/oslib/source/test/oslib_test_sequence_006.c"
  28              		.loc 1 82 35 view -0
  29              		.cfi_startproc
  30              		@ args = 0, pretend = 0, frame = 0
  31              		@ frame_needed = 0, uses_anonymous_args = 0
  32              		.loc 1 83 3 view .LVU1
  33              		.loc 1 84 3 view .LVU2
  34              		.loc 1 86 3 view .LVU3
  35 0000 4869     		ldr	r0, [r1, #20]
  36              	.LVL1:
  37              		.loc 1 86 3 is_stmt 0 view .LVU4
  38 0002 4130     		adds	r0, r0, #65
  39              		.loc 1 82 35 view .LVU5
  40 0004 08B5     		push	{r3, lr}
  41              		.cfi_def_cfa_offset 8
  42              		.cfi_offset 3, -8
  43              		.cfi_offset 14, -4
  44              		.loc 1 86 3 view .LVU6
  45 0006 C0B2     		uxtb	r0, r0
  46 0008 FFF7FEFF 		bl	test_emit_token
  47              	.LVL2:
  48              		.loc 1 88 3 is_stmt 1 view .LVU7
  49              		.loc 1 89 1 is_stmt 0 view .LVU8
  50 000c 0020     		movs	r0, #0
  51 000e 08BD     		pop	{r3, pc}
  52              		.cfi_endproc
  53              	.LFE436:
  54              		.size	obj_write, .-obj_write
  55              		.section	.text.obj_read,"ax",%progbits
  56              		.align	1
  57              		.p2align 4,,15
ARM GAS  C:\Users\DEVELO~1\AppData\Local\Temp\ccL8ooCN.s 			page 2


  58              		.syntax unified
  59              		.thumb
  60              		.thumb_func
  61              		.type	obj_read, %function
  62              	obj_read:
  63              	.LVL3:
  64              	.LFB435:
  65              		.loc 1 67 34 is_stmt 1 view -0
  66              		.cfi_startproc
  67              		@ args = 0, pretend = 0, frame = 0
  68              		@ frame_needed = 0, uses_anonymous_args = 0
  69              		.loc 1 69 3 view .LVU10
  70 0000 4B69     		ldr	r3, [r1, #20]
  71 0002 6133     		adds	r3, r3, #97
  72              		.loc 1 67 34 is_stmt 0 view .LVU11
  73 0004 70B5     		push	{r4, r5, r6, lr}
  74              		.cfi_def_cfa_offset 16
  75              		.cfi_offset 4, -16
  76              		.cfi_offset 5, -12
  77              		.cfi_offset 6, -8
  78              		.cfi_offset 14, -4
  79              		.loc 1 67 34 view .LVU12
  80 0006 0C46     		mov	r4, r1
  81 0008 0646     		mov	r6, r0
  82              		.loc 1 69 3 view .LVU13
  83 000a D8B2     		uxtb	r0, r3
  84              	.LVL4:
  85              		.loc 1 67 34 view .LVU14
  86 000c 1546     		mov	r5, r2
  87              		.loc 1 69 3 view .LVU15
  88 000e FFF7FEFF 		bl	test_emit_token
  89              	.LVL5:
  90              		.loc 1 71 3 is_stmt 1 view .LVU16
  91              		.loc 1 71 19 is_stmt 0 view .LVU17
  92 0012 636A     		ldr	r3, [r4, #36]
  93 0014 23F00803 		bic	r3, r3, #8
  94 0018 6362     		str	r3, [r4, #36]
  95              		.loc 1 73 3 is_stmt 1 view .LVU18
  96              		.loc 1 73 6 is_stmt 0 view .LVU19
  97 001a 0DB9     		cbnz	r5, .L10
  98              		.loc 1 77 3 is_stmt 1 view .LVU20
  99              		.loc 1 78 1 is_stmt 0 view .LVU21
 100 001c 0020     		movs	r0, #0
 101 001e 70BD     		pop	{r4, r5, r6, pc}
 102              	.LVL6:
 103              	.L10:
 104              		.loc 1 74 5 is_stmt 1 view .LVU22
 105              	.LBB35:
 106              	.LBI35:
 107              		.file 2 "../../../os/oslib/include/chobjcaches.h"
 108              		.loc 2 295 20 view .LVU23
 109              	.LBB36:
 110              		.loc 2 298 3 view .LVU24
 111              	.LBB37:
 112              	.LBI37:
 113              		.file 3 "../../../os/rt/include/chsys.h"
 114              		.loc 3 407 20 view .LVU25
ARM GAS  C:\Users\DEVELO~1\AppData\Local\Temp\ccL8ooCN.s 			page 3


 115              		.loc 3 409 3 view .LVU26
 116              	.LBB38:
 117              	.LBI38:
 118              		.file 4 "../../../os/common/ports/ARMv7-M/chcore.h"
 119              		.loc 4 806 27 view .LVU27
 120              		.loc 4 814 3 view .LVU28
 121              	.LBB39:
 122              	.LBI39:
 123              		.file 5 "../../../os/common/ext/ARM/CMSIS/Core/Include/cmsis_gcc.h"
 124              		.loc 5 491 27 view .LVU29
 125              	.LBB40:
 126              		.loc 5 493 3 view .LVU30
 127 0020 3023     		movs	r3, #48
 128              		.syntax unified
 129              	@ 493 "../../../os/common/ext/ARM/CMSIS/Core/Include/cmsis_gcc.h" 1
 130 0022 83F31188 		MSR basepri, r3
 131              	@ 0 "" 2
 132              	.LVL7:
 133              		.loc 5 493 3 is_stmt 0 view .LVU31
 134              		.thumb
 135              		.syntax unified
 136              	.LBE40:
 137              	.LBE39:
 138              	.LBE38:
 139              		.loc 3 410 35 is_stmt 1 view .LVU32
 140              		.loc 3 411 21 view .LVU33
 141              	.LBE37:
 142              		.loc 2 299 3 view .LVU34
 143 0026 2146     		mov	r1, r4
 144 0028 3046     		mov	r0, r6
 145 002a FFF7FEFF 		bl	chCacheReleaseObjectI
 146              	.LVL8:
 147              		.loc 2 300 3 view .LVU35
 148 002e FFF7FEFF 		bl	chSchRescheduleS
 149              	.LVL9:
 150              		.loc 2 301 3 view .LVU36
 151              	.LBB41:
 152              	.LBI41:
 153              		.loc 3 421 20 view .LVU37
 154              	.LBB42:
 155              		.loc 3 423 23 view .LVU38
 156              		.loc 3 424 34 view .LVU39
 157              		.loc 3 430 3 view .LVU40
 158              		.loc 3 430 3 view .LVU41
 159              		.loc 3 430 3 view .LVU42
 160              		.loc 3 434 3 view .LVU43
 161              	.LBB43:
 162              	.LBI43:
 163              		.loc 4 830 27 view .LVU44
 164              		.loc 4 833 3 view .LVU45
 165              	.LBB44:
 166              	.LBI44:
 167              		.loc 5 491 27 view .LVU46
 168              	.LBB45:
 169              		.loc 5 493 3 view .LVU47
 170 0032 0023     		movs	r3, #0
 171              		.syntax unified
ARM GAS  C:\Users\DEVELO~1\AppData\Local\Temp\ccL8ooCN.s 			page 4


 172              	@ 493 "../../../os/common/ext/ARM/CMSIS/Core/Include/cmsis_gcc.h" 1
 173 0034 83F31188 		MSR basepri, r3
 174              	@ 0 "" 2
 175              	.LVL10:
 176              		.loc 5 493 3 is_stmt 0 view .LVU48
 177              		.thumb
 178              		.syntax unified
 179              	.LBE45:
 180              	.LBE44:
 181              	.LBE43:
 182              	.LBE42:
 183              	.LBE41:
 184              	.LBE36:
 185              	.LBE35:
 186              		.loc 1 77 3 is_stmt 1 view .LVU49
 187              		.loc 1 78 1 is_stmt 0 view .LVU50
 188 0038 0020     		movs	r0, #0
 189 003a 70BD     		pop	{r4, r5, r6, pc}
 190              		.loc 1 78 1 view .LVU51
 191              		.cfi_endproc
 192              	.LFE435:
 193              		.size	obj_read, .-obj_read
 194              		.section	.rodata.oslib_test_006_001_execute.str1.4,"aMS",%progbits,1
 195              		.align	2
 196              	.LC0:
 197 0000 6E6F7420 		.ascii	"not in hash\000"
 197      696E2068 
 197      61736800 
 198              		.align	2
 199              	.LC1:
 200 000c 73686F75 		.ascii	"should not be in sync\000"
 200      6C64206E 
 200      6F742062 
 200      6520696E 
 200      2073796E 
 201 0022 0000     		.align	2
 202              	.LC2:
 203 0024 756E6578 		.ascii	"unexpected tokens\000"
 203      70656374 
 203      65642074 
 203      6F6B656E 
 203      7300
 204 0036 0000     		.align	2
 205              	.LC3:
 206 0038 00       		.ascii	"\000"
 207 0039 000000   		.align	2
 208              	.LC4:
 209 003c 696E2073 		.ascii	"in sync\000"
 209      796E6300 
 210              		.align	2
 211              	.LC5:
 212 0044 72657475 		.ascii	"returned error\000"
 212      726E6564 
 212      20657272 
 212      6F7200
 213 0053 00       		.align	2
 214              	.LC6:
ARM GAS  C:\Users\DEVELO~1\AppData\Local\Temp\ccL8ooCN.s 			page 5


 215 0054 6E6F7420 		.ascii	"not in sync\000"
 215      696E2073 
 215      796E6300 
 216              		.align	2
 217              	.LC7:
 218 0060 61626364 		.ascii	"abcdefgh\000"
 218      65666768 
 218      00
 219              		.section	.text.oslib_test_006_001_execute,"ax",%progbits
 220              		.align	1
 221              		.p2align 4,,15
 222              		.syntax unified
 223              		.thumb
 224              		.thumb_func
 225              		.type	oslib_test_006_001_execute, %function
 226              	oslib_test_006_001_execute:
 227              	.LFB437:
 228              		.loc 1 113 46 is_stmt 1 view -0
 229              		.cfi_startproc
 230              		@ args = 0, pretend = 0, frame = 0
 231              		@ frame_needed = 0, uses_anonymous_args = 0
 232              		.loc 1 116 3 view .LVU53
 233              		.loc 1 113 46 is_stmt 0 view .LVU54
 234 0000 2DE9F047 		push	{r4, r5, r6, r7, r8, r9, r10, lr}
 235              		.cfi_def_cfa_offset 32
 236              		.cfi_offset 4, -32
 237              		.cfi_offset 5, -28
 238              		.cfi_offset 6, -24
 239              		.cfi_offset 7, -20
 240              		.cfi_offset 8, -16
 241              		.cfi_offset 9, -12
 242              		.cfi_offset 10, -8
 243              		.cfi_offset 14, -4
 244              		.loc 1 118 5 view .LVU55
 245 0004 3C20     		movs	r0, #60
 246              		.loc 1 113 46 view .LVU56
 247 0006 84B0     		sub	sp, sp, #16
 248              		.cfi_def_cfa_offset 48
 249              		.loc 1 118 5 view .LVU57
 250 0008 B34B     		ldr	r3, .L26
 251              	.LBB111:
 252              		.loc 1 134 12 view .LVU58
 253 000a 0026     		movs	r6, #0
 254              	.LBE111:
 255              		.loc 1 118 5 view .LVU59
 256 000c 0090     		str	r0, [sp]
 257              		.loc 1 116 3 view .LVU60
 258 000e 0120     		movs	r0, #1
 259              		.loc 1 118 5 view .LVU61
 260 0010 B249     		ldr	r1, .L26+4
 261 0012 B34A     		ldr	r2, .L26+8
 262              		.loc 1 116 3 view .LVU62
 263 0014 DFF8CC82 		ldr	r8, .L26+12
 264              		.loc 1 118 5 view .LVU63
 265 0018 0393     		str	r3, [sp, #12]
 266 001a 0423     		movs	r3, #4
 267              	.LBB131:
ARM GAS  C:\Users\DEVELO~1\AppData\Local\Temp\ccL8ooCN.s 			page 6


 268              	.LBB112:
 269              		.loc 1 135 28 view .LVU64
 270 001c B24F     		ldr	r7, .L26+16
 271              		.loc 1 137 7 view .LVU65
 272 001e DFF8CCA2 		ldr	r10, .L26+20
 273              		.loc 1 138 7 view .LVU66
 274 0022 DFF8CC92 		ldr	r9, .L26+24
 275              	.LBE112:
 276              	.LBE131:
 277              		.loc 1 118 5 view .LVU67
 278 0026 CDE90121 		strd	r2, r1, [sp, #4]
 279              		.loc 1 116 3 view .LVU68
 280 002a C8F80000 		str	r0, [r8]
 281              		.loc 1 118 5 is_stmt 1 view .LVU69
 282 002e 0821     		movs	r1, #8
 283 0030 B04A     		ldr	r2, .L26+28
 284 0032 AD48     		ldr	r0, .L26+16
 285 0034 FFF7FEFF 		bl	chCacheObjectInit
 286              	.LVL11:
 287              		.loc 1 127 3 view .LVU70
 288              		.loc 1 127 19 view .LVU71
 289              		.loc 1 130 3 view .LVU72
 290 0038 0223     		movs	r3, #2
 291 003a C8F80030 		str	r3, [r8]
 292              	.LBB132:
 293              		.loc 1 132 5 view .LVU73
 294              		.loc 1 134 5 view .LVU74
 295              	.LVL12:
 296              		.loc 1 134 19 view .LVU75
 297              	.L15:
 298              	.LBB130:
 299              		.loc 1 135 7 view .LVU76
 300              		.loc 1 135 28 is_stmt 0 view .LVU77
 301 003e 3246     		mov	r2, r6
 302 0040 0021     		movs	r1, #0
 303 0042 3846     		mov	r0, r7
 304 0044 FFF7FEFF 		bl	chCacheGetObject
 305              	.LVL13:
 306 0048 0446     		mov	r4, r0
 307              	.LVL14:
 308              		.loc 1 137 7 is_stmt 1 view .LVU78
 309 004a 406A     		ldr	r0, [r0, #36]
 310              	.LVL15:
 311              		.loc 1 137 7 is_stmt 0 view .LVU79
 312 004c 5146     		mov	r1, r10
 313 004e C0F34000 		ubfx	r0, r0, #1, #1
 314 0052 FFF7FEFF 		bl	__test_assert
 315              	.LVL16:
 316              		.loc 1 137 75 is_stmt 1 view .LVU80
 317              		.loc 1 138 7 view .LVU81
 318 0056 4946     		mov	r1, r9
 319              		.loc 1 137 7 is_stmt 0 view .LVU82
 320 0058 0028     		cmp	r0, #0
 321 005a 40F03A81 		bne	.L11
 322              		.loc 1 138 7 discriminator 2 view .LVU83
 323 005e 606A     		ldr	r0, [r4, #36]
 324 0060 C0F3C000 		ubfx	r0, r0, #3, #1
ARM GAS  C:\Users\DEVELO~1\AppData\Local\Temp\ccL8ooCN.s 			page 7


 325 0064 FFF7FEFF 		bl	__test_assert
 326              	.LVL17:
 327              		.loc 1 138 86 is_stmt 1 discriminator 2 view .LVU84
 328              		.loc 1 140 7 discriminator 2 view .LVU85
 329              	.LBB113:
 330              	.LBI113:
 331              		.loc 2 295 20 discriminator 2 view .LVU86
 332              	.LBB114:
 333              		.loc 2 298 3 discriminator 2 view .LVU87
 334              	.LBB115:
 335              	.LBI115:
 336              		.loc 3 407 20 discriminator 2 view .LVU88
 337              		.loc 3 409 3 discriminator 2 view .LVU89
 338              	.LBB116:
 339              	.LBI116:
 340              		.loc 4 806 27 discriminator 2 view .LVU90
 341              		.loc 4 814 3 discriminator 2 view .LVU91
 342              	.LBB117:
 343              	.LBI117:
 344              		.loc 5 491 27 discriminator 2 view .LVU92
 345              	.LBB118:
 346              		.loc 5 493 3 discriminator 2 view .LVU93
 347 0068 3023     		movs	r3, #48
 348              	.LBE118:
 349              	.LBE117:
 350              	.LBE116:
 351              	.LBE115:
 352              	.LBE114:
 353              	.LBE113:
 354              		.loc 1 138 7 is_stmt 0 discriminator 2 view .LVU94
 355 006a 0546     		mov	r5, r0
 356 006c 0028     		cmp	r0, #0
 357 006e 40F03081 		bne	.L11
 358              	.LBB129:
 359              	.LBB128:
 360              	.LBB122:
 361              	.LBB121:
 362              	.LBB120:
 363              	.LBB119:
 364              		.loc 5 493 3 view .LVU95
 365              		.syntax unified
 366              	@ 493 "../../../os/common/ext/ARM/CMSIS/Core/Include/cmsis_gcc.h" 1
 367 0072 83F31188 		MSR basepri, r3
 368              	@ 0 "" 2
 369              	.LVL18:
 370              		.loc 5 493 3 view .LVU96
 371              		.thumb
 372              		.syntax unified
 373              	.LBE119:
 374              	.LBE120:
 375              	.LBE121:
 376              		.loc 3 410 35 is_stmt 1 view .LVU97
 377              		.loc 3 411 21 view .LVU98
 378              	.LBE122:
 379              		.loc 2 299 3 view .LVU99
 380 0076 2146     		mov	r1, r4
 381 0078 3846     		mov	r0, r7
ARM GAS  C:\Users\DEVELO~1\AppData\Local\Temp\ccL8ooCN.s 			page 8


 382 007a FFF7FEFF 		bl	chCacheReleaseObjectI
 383              	.LVL19:
 384              		.loc 2 300 3 view .LVU100
 385 007e FFF7FEFF 		bl	chSchRescheduleS
 386              	.LVL20:
 387              		.loc 2 301 3 view .LVU101
 388              	.LBB123:
 389              	.LBI123:
 390              		.loc 3 421 20 view .LVU102
 391              	.LBB124:
 392              		.loc 3 423 23 view .LVU103
 393              		.loc 3 424 34 view .LVU104
 394              		.loc 3 430 3 view .LVU105
 395              		.loc 3 430 3 view .LVU106
 396              		.loc 3 430 3 view .LVU107
 397              		.loc 3 434 3 view .LVU108
 398              	.LBB125:
 399              	.LBI125:
 400              		.loc 4 830 27 view .LVU109
 401              		.loc 4 833 3 view .LVU110
 402              	.LBB126:
 403              	.LBI126:
 404              		.loc 5 491 27 view .LVU111
 405              	.LBB127:
 406              		.loc 5 493 3 view .LVU112
 407              		.syntax unified
 408              	@ 493 "../../../os/common/ext/ARM/CMSIS/Core/Include/cmsis_gcc.h" 1
 409 0082 85F31188 		MSR basepri, r5
 410              	@ 0 "" 2
 411              	.LVL21:
 412              		.loc 5 493 3 is_stmt 0 view .LVU113
 413              		.thumb
 414              		.syntax unified
 415              	.LBE127:
 416              	.LBE126:
 417              	.LBE125:
 418              	.LBE124:
 419              	.LBE123:
 420              	.LBE128:
 421              	.LBE129:
 422              	.LBE130:
 423              		.loc 1 134 41 is_stmt 1 view .LVU114
 424 0086 0136     		adds	r6, r6, #1
 425              	.LVL22:
 426              		.loc 1 134 19 view .LVU115
 427 0088 082E     		cmp	r6, #8
 428 008a D8D1     		bne	.L15
 429              		.loc 1 143 5 view .LVU116
 430 008c 9A49     		ldr	r1, .L26+32
 431 008e 9B48     		ldr	r0, .L26+36
 432 0090 FFF7FEFF 		bl	__test_assert_sequence
 433              	.LVL23:
 434 0094 0546     		mov	r5, r0
 435 0096 0028     		cmp	r0, #0
 436 0098 40F01B81 		bne	.L11
 437              		.loc 1 143 50 discriminator 2 view .LVU117
 438              	.LBE132:
ARM GAS  C:\Users\DEVELO~1\AppData\Local\Temp\ccL8ooCN.s 			page 9


 439              		.loc 1 145 3 discriminator 2 view .LVU118
 440              		.loc 1 145 19 discriminator 2 view .LVU119
 441              		.loc 1 149 3 discriminator 2 view .LVU120
 442 009c 0323     		movs	r3, #3
 443              	.LBB133:
 444              	.LBB134:
 445              		.loc 1 155 27 is_stmt 0 discriminator 2 view .LVU121
 446 009e 924E     		ldr	r6, .L26+16
 447              	.LVL24:
 448              		.loc 1 157 7 discriminator 2 view .LVU122
 449 00a0 924F     		ldr	r7, .L26+20
 450              		.loc 1 158 7 discriminator 2 view .LVU123
 451 00a2 DFF85C92 		ldr	r9, .L26+40
 452              	.LBE134:
 453              	.LBE133:
 454              		.loc 1 149 3 discriminator 2 view .LVU124
 455 00a6 C8F80030 		str	r3, [r8]
 456              	.LBB153:
 457              		.loc 1 151 5 is_stmt 1 discriminator 2 view .LVU125
 458              		.loc 1 152 5 discriminator 2 view .LVU126
 459              		.loc 1 154 5 discriminator 2 view .LVU127
 460              	.LVL25:
 461              		.loc 1 154 19 discriminator 2 view .LVU128
 462              	.L16:
 463              	.LBB152:
 464              		.loc 1 155 7 view .LVU129
 465              		.loc 1 155 27 is_stmt 0 view .LVU130
 466 00aa 2A46     		mov	r2, r5
 467 00ac 0021     		movs	r1, #0
 468 00ae 3046     		mov	r0, r6
 469 00b0 FFF7FEFF 		bl	chCacheGetObject
 470              	.LVL26:
 471 00b4 0446     		mov	r4, r0
 472              	.LVL27:
 473              		.loc 1 157 7 is_stmt 1 view .LVU131
 474 00b6 406A     		ldr	r0, [r0, #36]
 475              	.LVL28:
 476              		.loc 1 157 7 is_stmt 0 view .LVU132
 477 00b8 3946     		mov	r1, r7
 478 00ba C0F34000 		ubfx	r0, r0, #1, #1
 479 00be FFF7FEFF 		bl	__test_assert
 480              	.LVL29:
 481              		.loc 1 157 75 is_stmt 1 view .LVU133
 482              		.loc 1 158 7 view .LVU134
 483 00c2 4946     		mov	r1, r9
 484              		.loc 1 157 7 is_stmt 0 view .LVU135
 485 00c4 0028     		cmp	r0, #0
 486 00c6 40F00481 		bne	.L11
 487              		.loc 1 158 7 discriminator 2 view .LVU136
 488 00ca 606A     		ldr	r0, [r4, #36]
 489 00cc C0F3C000 		ubfx	r0, r0, #3, #1
 490 00d0 FFF7FEFF 		bl	__test_assert
 491              	.LVL30:
 492              		.loc 1 158 72 is_stmt 1 discriminator 2 view .LVU137
 493              		.loc 1 160 7 discriminator 2 view .LVU138
 494              		.loc 1 158 7 is_stmt 0 discriminator 2 view .LVU139
 495 00d4 0246     		mov	r2, r0
ARM GAS  C:\Users\DEVELO~1\AppData\Local\Temp\ccL8ooCN.s 			page 10


 496              		.loc 1 160 15 discriminator 2 view .LVU140
 497 00d6 2146     		mov	r1, r4
 498 00d8 3046     		mov	r0, r6
 499              		.loc 1 158 7 discriminator 2 view .LVU141
 500 00da 002A     		cmp	r2, #0
 501 00dc 40F0F980 		bne	.L11
 502              		.loc 1 160 15 discriminator 2 view .LVU142
 503 00e0 FFF7FEFF 		bl	chCacheReadObject
 504              	.LVL31:
 505              		.loc 1 162 7 is_stmt 1 discriminator 2 view .LVU143
 506 00e4 80F00100 		eor	r0, r0, #1
 507              	.LVL32:
 508              		.loc 1 162 7 is_stmt 0 discriminator 2 view .LVU144
 509 00e8 8649     		ldr	r1, .L26+44
 510 00ea C0B2     		uxtb	r0, r0
 511 00ec FFF7FEFF 		bl	__test_assert
 512              	.LVL33:
 513              		.loc 1 162 52 is_stmt 1 discriminator 2 view .LVU145
 514              		.loc 1 163 7 discriminator 2 view .LVU146
 515 00f0 3946     		mov	r1, r7
 516              		.loc 1 162 7 is_stmt 0 discriminator 2 view .LVU147
 517 00f2 0028     		cmp	r0, #0
 518 00f4 40F0ED80 		bne	.L11
 519              		.loc 1 163 7 discriminator 2 view .LVU148
 520 00f8 606A     		ldr	r0, [r4, #36]
 521 00fa C0F34000 		ubfx	r0, r0, #1, #1
 522 00fe FFF7FEFF 		bl	__test_assert
 523              	.LVL34:
 524              		.loc 1 163 75 is_stmt 1 discriminator 2 view .LVU149
 525              		.loc 1 164 7 discriminator 2 view .LVU150
 526 0102 8149     		ldr	r1, .L26+48
 527              		.loc 1 163 7 is_stmt 0 discriminator 2 view .LVU151
 528 0104 0028     		cmp	r0, #0
 529 0106 40F0E480 		bne	.L11
 530              		.loc 1 164 7 discriminator 2 view .LVU152
 531 010a 606A     		ldr	r0, [r4, #36]
 532 010c 80F00800 		eor	r0, r0, #8
 533 0110 C0F3C000 		ubfx	r0, r0, #3, #1
 534 0114 FFF7FEFF 		bl	__test_assert
 535              	.LVL35:
 536              		.loc 1 164 76 is_stmt 1 discriminator 2 view .LVU153
 537              		.loc 1 166 7 discriminator 2 view .LVU154
 538              	.LBB135:
 539              	.LBI135:
 540              		.loc 2 295 20 discriminator 2 view .LVU155
 541              	.LBB136:
 542              		.loc 2 298 3 discriminator 2 view .LVU156
 543              	.LBB137:
 544              	.LBI137:
 545              		.loc 3 407 20 discriminator 2 view .LVU157
 546              		.loc 3 409 3 discriminator 2 view .LVU158
 547              	.LBB138:
 548              	.LBI138:
 549              		.loc 4 806 27 discriminator 2 view .LVU159
 550              		.loc 4 814 3 discriminator 2 view .LVU160
 551              	.LBB139:
 552              	.LBI139:
ARM GAS  C:\Users\DEVELO~1\AppData\Local\Temp\ccL8ooCN.s 			page 11


 553              		.loc 5 491 27 discriminator 2 view .LVU161
 554              	.LBB140:
 555              		.loc 5 493 3 discriminator 2 view .LVU162
 556 0118 3023     		movs	r3, #48
 557              	.LBE140:
 558              	.LBE139:
 559              	.LBE138:
 560              	.LBE137:
 561              	.LBE136:
 562              	.LBE135:
 563              		.loc 1 164 7 is_stmt 0 discriminator 2 view .LVU163
 564 011a 8246     		mov	r10, r0
 565 011c 0028     		cmp	r0, #0
 566 011e 40F0D880 		bne	.L11
 567              	.LBB151:
 568              	.LBB150:
 569              	.LBB144:
 570              	.LBB143:
 571              	.LBB142:
 572              	.LBB141:
 573              		.loc 5 493 3 view .LVU164
 574              		.syntax unified
 575              	@ 493 "../../../os/common/ext/ARM/CMSIS/Core/Include/cmsis_gcc.h" 1
 576 0122 83F31188 		MSR basepri, r3
 577              	@ 0 "" 2
 578              	.LVL36:
 579              		.loc 5 493 3 view .LVU165
 580              		.thumb
 581              		.syntax unified
 582              	.LBE141:
 583              	.LBE142:
 584              	.LBE143:
 585              		.loc 3 410 35 is_stmt 1 view .LVU166
 586              		.loc 3 411 21 view .LVU167
 587              	.LBE144:
 588              		.loc 2 299 3 view .LVU168
 589 0126 2146     		mov	r1, r4
 590 0128 3046     		mov	r0, r6
 591 012a FFF7FEFF 		bl	chCacheReleaseObjectI
 592              	.LVL37:
 593              		.loc 2 300 3 view .LVU169
 594 012e FFF7FEFF 		bl	chSchRescheduleS
 595              	.LVL38:
 596              		.loc 2 301 3 view .LVU170
 597              	.LBB145:
 598              	.LBI145:
 599              		.loc 3 421 20 view .LVU171
 600              	.LBB146:
 601              		.loc 3 423 23 view .LVU172
 602              		.loc 3 424 34 view .LVU173
 603              		.loc 3 430 3 view .LVU174
 604              		.loc 3 430 3 view .LVU175
 605              		.loc 3 430 3 view .LVU176
 606              		.loc 3 434 3 view .LVU177
 607              	.LBB147:
 608              	.LBI147:
 609              		.loc 4 830 27 view .LVU178
ARM GAS  C:\Users\DEVELO~1\AppData\Local\Temp\ccL8ooCN.s 			page 12


 610              		.loc 4 833 3 view .LVU179
 611              	.LBB148:
 612              	.LBI148:
 613              		.loc 5 491 27 view .LVU180
 614              	.LBB149:
 615              		.loc 5 493 3 view .LVU181
 616              		.syntax unified
 617              	@ 493 "../../../os/common/ext/ARM/CMSIS/Core/Include/cmsis_gcc.h" 1
 618 0132 8AF31188 		MSR basepri, r10
 619              	@ 0 "" 2
 620              	.LVL39:
 621              		.loc 5 493 3 is_stmt 0 view .LVU182
 622              		.thumb
 623              		.syntax unified
 624              	.LBE149:
 625              	.LBE148:
 626              	.LBE147:
 627              	.LBE146:
 628              	.LBE145:
 629              	.LBE150:
 630              	.LBE151:
 631              	.LBE152:
 632              		.loc 1 154 41 is_stmt 1 view .LVU183
 633 0136 0135     		adds	r5, r5, #1
 634              	.LVL40:
 635              		.loc 1 154 19 view .LVU184
 636 0138 082D     		cmp	r5, #8
 637 013a B6D1     		bne	.L16
 638              		.loc 1 169 5 view .LVU185
 639 013c 6E49     		ldr	r1, .L26+32
 640 013e 7348     		ldr	r0, .L26+52
 641 0140 FFF7FEFF 		bl	__test_assert_sequence
 642              	.LVL41:
 643 0144 0446     		mov	r4, r0
 644              	.LVL42:
 645              		.loc 1 169 5 is_stmt 0 view .LVU186
 646 0146 0028     		cmp	r0, #0
 647 0148 40F0C380 		bne	.L11
 648              		.loc 1 169 58 is_stmt 1 discriminator 2 view .LVU187
 649              	.LBE153:
 650              		.loc 1 171 3 discriminator 2 view .LVU188
 651              		.loc 1 171 19 discriminator 2 view .LVU189
 652              		.loc 1 175 3 discriminator 2 view .LVU190
 653 014c 0423     		movs	r3, #4
 654              	.LBB154:
 655              	.LBB155:
 656              		.loc 1 181 27 is_stmt 0 discriminator 2 view .LVU191
 657 014e 664E     		ldr	r6, .L26+16
 658              		.loc 1 183 7 discriminator 2 view .LVU192
 659 0150 664F     		ldr	r7, .L26+20
 660              		.loc 1 184 7 discriminator 2 view .LVU193
 661 0152 DFF8AC91 		ldr	r9, .L26+40
 662              	.LBE155:
 663              	.LBE154:
 664              		.loc 1 175 3 discriminator 2 view .LVU194
 665 0156 C8F80030 		str	r3, [r8]
 666              	.LBB174:
ARM GAS  C:\Users\DEVELO~1\AppData\Local\Temp\ccL8ooCN.s 			page 13


 667              		.loc 1 177 5 is_stmt 1 discriminator 2 view .LVU195
 668              		.loc 1 178 5 discriminator 2 view .LVU196
 669              		.loc 1 180 5 discriminator 2 view .LVU197
 670              	.LVL43:
 671              		.loc 1 180 19 discriminator 2 view .LVU198
 672              	.L17:
 673              	.LBB173:
 674              		.loc 1 181 7 view .LVU199
 675              		.loc 1 181 27 is_stmt 0 view .LVU200
 676 015a 0021     		movs	r1, #0
 677 015c 2246     		mov	r2, r4
 678 015e 3046     		mov	r0, r6
 679 0160 FFF7FEFF 		bl	chCacheGetObject
 680              	.LVL44:
 681 0164 0546     		mov	r5, r0
 682              	.LVL45:
 683              		.loc 1 183 7 is_stmt 1 view .LVU201
 684 0166 406A     		ldr	r0, [r0, #36]
 685              	.LVL46:
 686              		.loc 1 183 7 is_stmt 0 view .LVU202
 687 0168 3946     		mov	r1, r7
 688 016a C0F34000 		ubfx	r0, r0, #1, #1
 689 016e FFF7FEFF 		bl	__test_assert
 690              	.LVL47:
 691              		.loc 1 183 75 is_stmt 1 view .LVU203
 692              		.loc 1 184 7 view .LVU204
 693              		.loc 1 183 7 is_stmt 0 view .LVU205
 694 0172 0028     		cmp	r0, #0
 695 0174 40F0AD80 		bne	.L11
 696              		.loc 1 184 7 discriminator 2 view .LVU206
 697 0178 686A     		ldr	r0, [r5, #36]
 698 017a 4946     		mov	r1, r9
 699 017c C0F3C000 		ubfx	r0, r0, #3, #1
 700 0180 FFF7FEFF 		bl	__test_assert
 701              	.LVL48:
 702              		.loc 1 184 72 is_stmt 1 discriminator 2 view .LVU207
 703              		.loc 1 186 7 discriminator 2 view .LVU208
 704              		.loc 1 184 7 is_stmt 0 discriminator 2 view .LVU209
 705 0184 0028     		cmp	r0, #0
 706 0186 40F0A480 		bne	.L11
 707              		.loc 1 186 15 discriminator 2 view .LVU210
 708 018a 0122     		movs	r2, #1
 709 018c 2946     		mov	r1, r5
 710 018e 3046     		mov	r0, r6
 711 0190 FFF7FEFF 		bl	chCacheReadObject
 712              	.LVL49:
 713              		.loc 1 188 7 is_stmt 1 discriminator 2 view .LVU211
 714 0194 80F00100 		eor	r0, r0, #1
 715              	.LVL50:
 716              		.loc 1 188 7 is_stmt 0 discriminator 2 view .LVU212
 717 0198 5A49     		ldr	r1, .L26+44
 718 019a C0B2     		uxtb	r0, r0
 719 019c FFF7FEFF 		bl	__test_assert
 720              	.LVL51:
 721              		.loc 1 188 52 is_stmt 1 discriminator 2 view .LVU213
 722              		.loc 1 190 7 discriminator 2 view .LVU214
 723              		.loc 1 188 7 is_stmt 0 discriminator 2 view .LVU215
ARM GAS  C:\Users\DEVELO~1\AppData\Local\Temp\ccL8ooCN.s 			page 14


 724 01a0 0146     		mov	r1, r0
 725              		.loc 1 190 14 discriminator 2 view .LVU216
 726 01a2 2246     		mov	r2, r4
 727 01a4 3046     		mov	r0, r6
 728              		.loc 1 188 7 discriminator 2 view .LVU217
 729 01a6 0029     		cmp	r1, #0
 730 01a8 40F09380 		bne	.L11
 731              		.loc 1 190 14 discriminator 2 view .LVU218
 732 01ac FFF7FEFF 		bl	chCacheGetObject
 733              	.LVL52:
 734 01b0 0546     		mov	r5, r0
 735              	.LVL53:
 736              		.loc 1 192 7 is_stmt 1 discriminator 2 view .LVU219
 737 01b2 406A     		ldr	r0, [r0, #36]
 738              	.LVL54:
 739              		.loc 1 192 7 is_stmt 0 discriminator 2 view .LVU220
 740 01b4 3946     		mov	r1, r7
 741 01b6 C0F34000 		ubfx	r0, r0, #1, #1
 742 01ba FFF7FEFF 		bl	__test_assert
 743              	.LVL55:
 744              		.loc 1 192 75 is_stmt 1 discriminator 2 view .LVU221
 745              		.loc 1 193 7 discriminator 2 view .LVU222
 746              		.loc 1 192 7 is_stmt 0 discriminator 2 view .LVU223
 747 01be 0028     		cmp	r0, #0
 748 01c0 40F08780 		bne	.L11
 749              		.loc 1 193 7 discriminator 2 view .LVU224
 750 01c4 686A     		ldr	r0, [r5, #36]
 751 01c6 5049     		ldr	r1, .L26+48
 752 01c8 80F00800 		eor	r0, r0, #8
 753 01cc C0F3C000 		ubfx	r0, r0, #3, #1
 754 01d0 FFF7FEFF 		bl	__test_assert
 755              	.LVL56:
 756              		.loc 1 193 76 is_stmt 1 discriminator 2 view .LVU225
 757              		.loc 1 195 7 discriminator 2 view .LVU226
 758              	.LBB156:
 759              	.LBI156:
 760              		.loc 2 295 20 discriminator 2 view .LVU227
 761              	.LBB157:
 762              		.loc 2 298 3 discriminator 2 view .LVU228
 763              	.LBB158:
 764              	.LBI158:
 765              		.loc 3 407 20 discriminator 2 view .LVU229
 766              		.loc 3 409 3 discriminator 2 view .LVU230
 767              	.LBB159:
 768              	.LBI159:
 769              		.loc 4 806 27 discriminator 2 view .LVU231
 770              		.loc 4 814 3 discriminator 2 view .LVU232
 771              	.LBB160:
 772              	.LBI160:
 773              		.loc 5 491 27 discriminator 2 view .LVU233
 774              	.LBB161:
 775              		.loc 5 493 3 discriminator 2 view .LVU234
 776 01d4 3023     		movs	r3, #48
 777              	.LBE161:
 778              	.LBE160:
 779              	.LBE159:
 780              	.LBE158:
ARM GAS  C:\Users\DEVELO~1\AppData\Local\Temp\ccL8ooCN.s 			page 15


 781              	.LBE157:
 782              	.LBE156:
 783              		.loc 1 193 7 is_stmt 0 discriminator 2 view .LVU235
 784 01d6 8246     		mov	r10, r0
 785 01d8 0028     		cmp	r0, #0
 786 01da 7AD1     		bne	.L11
 787              	.LBB172:
 788              	.LBB171:
 789              	.LBB165:
 790              	.LBB164:
 791              	.LBB163:
 792              	.LBB162:
 793              		.loc 5 493 3 view .LVU236
 794              		.syntax unified
 795              	@ 493 "../../../os/common/ext/ARM/CMSIS/Core/Include/cmsis_gcc.h" 1
 796 01dc 83F31188 		MSR basepri, r3
 797              	@ 0 "" 2
 798              	.LVL57:
 799              		.loc 5 493 3 view .LVU237
 800              		.thumb
 801              		.syntax unified
 802              	.LBE162:
 803              	.LBE163:
 804              	.LBE164:
 805              		.loc 3 410 35 is_stmt 1 view .LVU238
 806              		.loc 3 411 21 view .LVU239
 807              	.LBE165:
 808              		.loc 2 299 3 view .LVU240
 809 01e0 2946     		mov	r1, r5
 810 01e2 3046     		mov	r0, r6
 811 01e4 FFF7FEFF 		bl	chCacheReleaseObjectI
 812              	.LVL58:
 813              		.loc 2 300 3 view .LVU241
 814 01e8 FFF7FEFF 		bl	chSchRescheduleS
 815              	.LVL59:
 816              		.loc 2 301 3 view .LVU242
 817              	.LBB166:
 818              	.LBI166:
 819              		.loc 3 421 20 view .LVU243
 820              	.LBB167:
 821              		.loc 3 423 23 view .LVU244
 822              		.loc 3 424 34 view .LVU245
 823              		.loc 3 430 3 view .LVU246
 824              		.loc 3 430 3 view .LVU247
 825              		.loc 3 430 3 view .LVU248
 826              		.loc 3 434 3 view .LVU249
 827              	.LBB168:
 828              	.LBI168:
 829              		.loc 4 830 27 view .LVU250
 830              		.loc 4 833 3 view .LVU251
 831              	.LBB169:
 832              	.LBI169:
 833              		.loc 5 491 27 view .LVU252
 834              	.LBB170:
 835              		.loc 5 493 3 view .LVU253
 836              		.syntax unified
 837              	@ 493 "../../../os/common/ext/ARM/CMSIS/Core/Include/cmsis_gcc.h" 1
ARM GAS  C:\Users\DEVELO~1\AppData\Local\Temp\ccL8ooCN.s 			page 16


 838 01ec 8AF31188 		MSR basepri, r10
 839              	@ 0 "" 2
 840              	.LVL60:
 841              		.loc 5 493 3 is_stmt 0 view .LVU254
 842              		.thumb
 843              		.syntax unified
 844              	.LBE170:
 845              	.LBE169:
 846              	.LBE168:
 847              	.LBE167:
 848              	.LBE166:
 849              	.LBE171:
 850              	.LBE172:
 851              	.LBE173:
 852              		.loc 1 180 41 is_stmt 1 view .LVU255
 853 01f0 0134     		adds	r4, r4, #1
 854              	.LVL61:
 855              		.loc 1 180 19 view .LVU256
 856 01f2 082C     		cmp	r4, #8
 857 01f4 B1D1     		bne	.L17
 858              		.loc 1 198 5 view .LVU257
 859 01f6 4049     		ldr	r1, .L26+32
 860 01f8 4448     		ldr	r0, .L26+52
 861 01fa FFF7FEFF 		bl	__test_assert_sequence
 862              	.LVL62:
 863 01fe 0028     		cmp	r0, #0
 864 0200 67D1     		bne	.L11
 865              		.loc 1 198 58 discriminator 2 view .LVU258
 866              	.LBE174:
 867              		.loc 1 200 3 discriminator 2 view .LVU259
 868              		.loc 1 200 19 discriminator 2 view .LVU260
 869              		.loc 1 203 3 discriminator 2 view .LVU261
 870 0202 0523     		movs	r3, #5
 871              	.LBB175:
 872              		.loc 1 207 12 is_stmt 0 discriminator 2 view .LVU262
 873 0204 0426     		movs	r6, #4
 874              	.LBB176:
 875              		.loc 1 208 27 discriminator 2 view .LVU263
 876 0206 384F     		ldr	r7, .L26+16
 877              		.loc 1 210 7 discriminator 2 view .LVU264
 878 0208 DFF8E090 		ldr	r9, .L26+20
 879              		.loc 1 211 7 discriminator 2 view .LVU265
 880 020c DFF8F8A0 		ldr	r10, .L26+48
 881              	.LBE176:
 882              	.LBE175:
 883              		.loc 1 203 3 discriminator 2 view .LVU266
 884 0210 C8F80030 		str	r3, [r8]
 885              	.LBB195:
 886              		.loc 1 205 5 is_stmt 1 discriminator 2 view .LVU267
 887              		.loc 1 207 5 discriminator 2 view .LVU268
 888              	.LVL63:
 889              		.loc 1 207 29 discriminator 2 view .LVU269
 890              	.L18:
 891              	.LBB194:
 892              		.loc 1 208 7 view .LVU270
 893              		.loc 1 208 27 is_stmt 0 view .LVU271
 894 0214 0021     		movs	r1, #0
ARM GAS  C:\Users\DEVELO~1\AppData\Local\Temp\ccL8ooCN.s 			page 17


 895 0216 3246     		mov	r2, r6
 896 0218 3846     		mov	r0, r7
 897 021a FFF7FEFF 		bl	chCacheGetObject
 898              	.LVL64:
 899 021e 0446     		mov	r4, r0
 900              	.LVL65:
 901              		.loc 1 210 7 is_stmt 1 view .LVU272
 902 0220 406A     		ldr	r0, [r0, #36]
 903              	.LVL66:
 904              		.loc 1 210 7 is_stmt 0 view .LVU273
 905 0222 4946     		mov	r1, r9
 906 0224 C0F34000 		ubfx	r0, r0, #1, #1
 907 0228 FFF7FEFF 		bl	__test_assert
 908              	.LVL67:
 909              		.loc 1 210 75 is_stmt 1 view .LVU274
 910              		.loc 1 211 7 view .LVU275
 911              		.loc 1 210 7 is_stmt 0 view .LVU276
 912 022c 0028     		cmp	r0, #0
 913 022e 50D1     		bne	.L11
 914              		.loc 1 211 7 discriminator 2 view .LVU277
 915 0230 606A     		ldr	r0, [r4, #36]
 916 0232 5146     		mov	r1, r10
 917 0234 80F00800 		eor	r0, r0, #8
 918 0238 C0F3C000 		ubfx	r0, r0, #3, #1
 919 023c FFF7FEFF 		bl	__test_assert
 920              	.LVL68:
 921              		.loc 1 211 76 is_stmt 1 discriminator 2 view .LVU278
 922              		.loc 1 213 7 discriminator 2 view .LVU279
 923              	.LBB177:
 924              	.LBI177:
 925              		.loc 2 295 20 discriminator 2 view .LVU280
 926              	.LBB178:
 927              		.loc 2 298 3 discriminator 2 view .LVU281
 928              	.LBB179:
 929              	.LBI179:
 930              		.loc 3 407 20 discriminator 2 view .LVU282
 931              		.loc 3 409 3 discriminator 2 view .LVU283
 932              	.LBB180:
 933              	.LBI180:
 934              		.loc 4 806 27 discriminator 2 view .LVU284
 935              		.loc 4 814 3 discriminator 2 view .LVU285
 936              	.LBB181:
 937              	.LBI181:
 938              		.loc 5 491 27 discriminator 2 view .LVU286
 939              	.LBB182:
 940              		.loc 5 493 3 discriminator 2 view .LVU287
 941 0240 3023     		movs	r3, #48
 942              	.LBE182:
 943              	.LBE181:
 944              	.LBE180:
 945              	.LBE179:
 946              	.LBE178:
 947              	.LBE177:
 948              		.loc 1 211 7 is_stmt 0 discriminator 2 view .LVU288
 949 0242 0546     		mov	r5, r0
 950 0244 0028     		cmp	r0, #0
 951 0246 44D1     		bne	.L11
ARM GAS  C:\Users\DEVELO~1\AppData\Local\Temp\ccL8ooCN.s 			page 18


 952              	.LBB193:
 953              	.LBB192:
 954              	.LBB186:
 955              	.LBB185:
 956              	.LBB184:
 957              	.LBB183:
 958              		.loc 5 493 3 view .LVU289
 959              		.syntax unified
 960              	@ 493 "../../../os/common/ext/ARM/CMSIS/Core/Include/cmsis_gcc.h" 1
 961 0248 83F31188 		MSR basepri, r3
 962              	@ 0 "" 2
 963              	.LVL69:
 964              		.loc 5 493 3 view .LVU290
 965              		.thumb
 966              		.syntax unified
 967              	.LBE183:
 968              	.LBE184:
 969              	.LBE185:
 970              		.loc 3 410 35 is_stmt 1 view .LVU291
 971              		.loc 3 411 21 view .LVU292
 972              	.LBE186:
 973              		.loc 2 299 3 view .LVU293
 974 024c 2146     		mov	r1, r4
 975 024e 3846     		mov	r0, r7
 976 0250 FFF7FEFF 		bl	chCacheReleaseObjectI
 977              	.LVL70:
 978              		.loc 2 300 3 view .LVU294
 979 0254 FFF7FEFF 		bl	chSchRescheduleS
 980              	.LVL71:
 981              		.loc 2 301 3 view .LVU295
 982              	.LBB187:
 983              	.LBI187:
 984              		.loc 3 421 20 view .LVU296
 985              	.LBB188:
 986              		.loc 3 423 23 view .LVU297
 987              		.loc 3 424 34 view .LVU298
 988              		.loc 3 430 3 view .LVU299
 989              		.loc 3 430 3 view .LVU300
 990              		.loc 3 430 3 view .LVU301
 991              		.loc 3 434 3 view .LVU302
 992              	.LBB189:
 993              	.LBI189:
 994              		.loc 4 830 27 view .LVU303
 995              		.loc 4 833 3 view .LVU304
 996              	.LBB190:
 997              	.LBI190:
 998              		.loc 5 491 27 view .LVU305
 999              	.LBB191:
 1000              		.loc 5 493 3 view .LVU306
 1001              		.syntax unified
 1002              	@ 493 "../../../os/common/ext/ARM/CMSIS/Core/Include/cmsis_gcc.h" 1
 1003 0258 85F31188 		MSR basepri, r5
 1004              	@ 0 "" 2
 1005              	.LVL72:
 1006              		.loc 5 493 3 is_stmt 0 view .LVU307
 1007              		.thumb
 1008              		.syntax unified
ARM GAS  C:\Users\DEVELO~1\AppData\Local\Temp\ccL8ooCN.s 			page 19


 1009              	.LBE191:
 1010              	.LBE190:
 1011              	.LBE189:
 1012              	.LBE188:
 1013              	.LBE187:
 1014              	.LBE192:
 1015              	.LBE193:
 1016              	.LBE194:
 1017              		.loc 1 207 51 is_stmt 1 view .LVU308
 1018 025c 0136     		adds	r6, r6, #1
 1019              	.LVL73:
 1020              		.loc 1 207 29 view .LVU309
 1021 025e 082E     		cmp	r6, #8
 1022 0260 D8D1     		bne	.L18
 1023              		.loc 1 216 5 view .LVU310
 1024 0262 2549     		ldr	r1, .L26+32
 1025 0264 2548     		ldr	r0, .L26+36
 1026 0266 FFF7FEFF 		bl	__test_assert_sequence
 1027              	.LVL74:
 1028 026a 0446     		mov	r4, r0
 1029              	.LVL75:
 1030              		.loc 1 216 5 is_stmt 0 view .LVU311
 1031 026c 88BB     		cbnz	r0, .L11
 1032              		.loc 1 216 50 is_stmt 1 discriminator 2 view .LVU312
 1033              	.LBE195:
 1034              		.loc 1 218 3 discriminator 2 view .LVU313
 1035              		.loc 1 218 19 discriminator 2 view .LVU314
 1036              		.loc 1 221 3 discriminator 2 view .LVU315
 1037 026e 0623     		movs	r3, #6
 1038              	.LBB196:
 1039              	.LBB197:
 1040              		.loc 1 226 27 is_stmt 0 discriminator 2 view .LVU316
 1041 0270 1D4F     		ldr	r7, .L26+16
 1042              		.loc 1 228 7 discriminator 2 view .LVU317
 1043 0272 DFF87890 		ldr	r9, .L26+20
 1044              	.LBE197:
 1045              	.LBE196:
 1046              		.loc 1 221 3 discriminator 2 view .LVU318
 1047 0276 C8F80030 		str	r3, [r8]
 1048              	.LBB216:
 1049              		.loc 1 223 5 is_stmt 1 discriminator 2 view .LVU319
 1050              		.loc 1 225 5 discriminator 2 view .LVU320
 1051              	.LVL76:
 1052              		.loc 1 225 19 discriminator 2 view .LVU321
 1053              	.LBB215:
 1054              		.loc 1 229 7 is_stmt 0 discriminator 2 view .LVU322
 1055 027a DFF88480 		ldr	r8, .L26+40
 1056              	.LVL77:
 1057              	.L19:
 1058              		.loc 1 226 7 is_stmt 1 view .LVU323
 1059              		.loc 1 226 27 is_stmt 0 view .LVU324
 1060 027e 0021     		movs	r1, #0
 1061 0280 2246     		mov	r2, r4
 1062 0282 3846     		mov	r0, r7
 1063 0284 FFF7FEFF 		bl	chCacheGetObject
 1064              	.LVL78:
 1065 0288 0546     		mov	r5, r0
ARM GAS  C:\Users\DEVELO~1\AppData\Local\Temp\ccL8ooCN.s 			page 20


 1066              	.LVL79:
 1067              		.loc 1 228 7 is_stmt 1 view .LVU325
 1068 028a 406A     		ldr	r0, [r0, #36]
 1069              	.LVL80:
 1070              		.loc 1 228 7 is_stmt 0 view .LVU326
 1071 028c 4946     		mov	r1, r9
 1072 028e C0F34000 		ubfx	r0, r0, #1, #1
 1073 0292 FFF7FEFF 		bl	__test_assert
 1074              	.LVL81:
 1075              		.loc 1 228 75 is_stmt 1 view .LVU327
 1076              		.loc 1 229 7 view .LVU328
 1077              		.loc 1 228 7 is_stmt 0 view .LVU329
 1078 0296 E0B9     		cbnz	r0, .L11
 1079              		.loc 1 229 7 discriminator 2 view .LVU330
 1080 0298 686A     		ldr	r0, [r5, #36]
 1081 029a 4146     		mov	r1, r8
 1082 029c C0F3C000 		ubfx	r0, r0, #3, #1
 1083 02a0 FFF7FEFF 		bl	__test_assert
 1084              	.LVL82:
 1085              		.loc 1 229 72 is_stmt 1 discriminator 2 view .LVU331
 1086              		.loc 1 231 7 discriminator 2 view .LVU332
 1087              	.LBB198:
 1088              	.LBI198:
 1089              		.loc 2 295 20 discriminator 2 view .LVU333
 1090              	.LBB199:
 1091              		.loc 2 298 3 discriminator 2 view .LVU334
 1092              	.LBB200:
 1093              	.LBI200:
 1094              		.loc 3 407 20 discriminator 2 view .LVU335
 1095              		.loc 3 409 3 discriminator 2 view .LVU336
 1096              	.LBB201:
 1097              	.LBI201:
 1098              		.loc 4 806 27 discriminator 2 view .LVU337
 1099              		.loc 4 814 3 discriminator 2 view .LVU338
 1100              	.LBB202:
 1101              	.LBI202:
 1102              		.loc 5 491 27 discriminator 2 view .LVU339
 1103              	.LBB203:
 1104              		.loc 5 493 3 discriminator 2 view .LVU340
 1105 02a4 3023     		movs	r3, #48
 1106              	.LBE203:
 1107              	.LBE202:
 1108              	.LBE201:
 1109              	.LBE200:
 1110              	.LBE199:
 1111              	.LBE198:
 1112              		.loc 1 229 7 is_stmt 0 discriminator 2 view .LVU341
 1113 02a6 0646     		mov	r6, r0
 1114 02a8 98B9     		cbnz	r0, .L11
 1115              	.LBB214:
 1116              	.LBB213:
 1117              	.LBB207:
 1118              	.LBB206:
 1119              	.LBB205:
 1120              	.LBB204:
 1121              		.loc 5 493 3 view .LVU342
 1122              		.syntax unified
ARM GAS  C:\Users\DEVELO~1\AppData\Local\Temp\ccL8ooCN.s 			page 21


 1123              	@ 493 "../../../os/common/ext/ARM/CMSIS/Core/Include/cmsis_gcc.h" 1
 1124 02aa 83F31188 		MSR basepri, r3
 1125              	@ 0 "" 2
 1126              	.LVL83:
 1127              		.loc 5 493 3 view .LVU343
 1128              		.thumb
 1129              		.syntax unified
 1130              	.LBE204:
 1131              	.LBE205:
 1132              	.LBE206:
 1133              		.loc 3 410 35 is_stmt 1 view .LVU344
 1134              		.loc 3 411 21 view .LVU345
 1135              	.LBE207:
 1136              		.loc 2 299 3 view .LVU346
 1137 02ae 2946     		mov	r1, r5
 1138 02b0 3846     		mov	r0, r7
 1139 02b2 FFF7FEFF 		bl	chCacheReleaseObjectI
 1140              	.LVL84:
 1141              		.loc 2 300 3 view .LVU347
 1142 02b6 FFF7FEFF 		bl	chSchRescheduleS
 1143              	.LVL85:
 1144              		.loc 2 301 3 view .LVU348
 1145              	.LBB208:
 1146              	.LBI208:
 1147              		.loc 3 421 20 view .LVU349
 1148              	.LBB209:
 1149              		.loc 3 423 23 view .LVU350
 1150              		.loc 3 424 34 view .LVU351
 1151              		.loc 3 430 3 view .LVU352
 1152              		.loc 3 430 3 view .LVU353
 1153              		.loc 3 430 3 view .LVU354
 1154              		.loc 3 434 3 view .LVU355
 1155              	.LBB210:
 1156              	.LBI210:
 1157              		.loc 4 830 27 view .LVU356
 1158              		.loc 4 833 3 view .LVU357
 1159              	.LBB211:
 1160              	.LBI211:
 1161              		.loc 5 491 27 view .LVU358
 1162              	.LBB212:
 1163              		.loc 5 493 3 view .LVU359
 1164              		.syntax unified
 1165              	@ 493 "../../../os/common/ext/ARM/CMSIS/Core/Include/cmsis_gcc.h" 1
 1166 02ba 86F31188 		MSR basepri, r6
 1167              	@ 0 "" 2
 1168              	.LVL86:
 1169              		.loc 5 493 3 is_stmt 0 view .LVU360
 1170              		.thumb
 1171              		.syntax unified
 1172              	.LBE212:
 1173              	.LBE211:
 1174              	.LBE210:
 1175              	.LBE209:
 1176              	.LBE208:
 1177              	.LBE213:
 1178              	.LBE214:
 1179              	.LBE215:
ARM GAS  C:\Users\DEVELO~1\AppData\Local\Temp\ccL8ooCN.s 			page 22


 1180              		.loc 1 225 35 is_stmt 1 view .LVU361
 1181 02be 0134     		adds	r4, r4, #1
 1182              	.LVL87:
 1183              		.loc 1 225 19 view .LVU362
 1184 02c0 042C     		cmp	r4, #4
 1185 02c2 DCD1     		bne	.L19
 1186              		.loc 1 234 5 view .LVU363
 1187 02c4 0C49     		ldr	r1, .L26+32
 1188 02c6 0D48     		ldr	r0, .L26+36
 1189              	.LBE216:
 1190              		.loc 1 237 1 is_stmt 0 view .LVU364
 1191 02c8 04B0     		add	sp, sp, #16
 1192              		.cfi_remember_state
 1193              		.cfi_def_cfa_offset 32
 1194              		@ sp needed
 1195 02ca BDE8F047 		pop	{r4, r5, r6, r7, r8, r9, r10, lr}
 1196              		.cfi_restore 14
 1197              		.cfi_restore 10
 1198              		.cfi_restore 9
 1199              		.cfi_restore 8
 1200              		.cfi_restore 7
 1201              		.cfi_restore 6
 1202              		.cfi_restore 5
 1203              		.cfi_restore 4
 1204              		.cfi_def_cfa_offset 0
 1205              	.LVL88:
 1206              	.LBB217:
 1207              		.loc 1 234 5 view .LVU365
 1208 02ce FFF7FEBF 		b	__test_assert_sequence
 1209              	.LVL89:
 1210              	.L11:
 1211              		.cfi_restore_state
 1212              		.loc 1 234 5 view .LVU366
 1213              	.LBE217:
 1214              		.loc 1 237 1 view .LVU367
 1215 02d2 04B0     		add	sp, sp, #16
 1216              		.cfi_def_cfa_offset 32
 1217              		@ sp needed
 1218 02d4 BDE8F087 		pop	{r4, r5, r6, r7, r8, r9, r10, pc}
 1219              	.L27:
 1220              		.align	2
 1221              	.L26:
 1222 02d8 00000000 		.word	obj_write
 1223 02dc 00000000 		.word	obj_read
 1224 02e0 00000000 		.word	.LANCHOR2
 1225 02e4 00000000 		.word	chtest
 1226 02e8 00000000 		.word	.LANCHOR1
 1227 02ec 00000000 		.word	.LC0
 1228 02f0 0C000000 		.word	.LC1
 1229 02f4 00000000 		.word	.LANCHOR0
 1230 02f8 24000000 		.word	.LC2
 1231 02fc 38000000 		.word	.LC3
 1232 0300 3C000000 		.word	.LC4
 1233 0304 44000000 		.word	.LC5
 1234 0308 54000000 		.word	.LC6
 1235 030c 60000000 		.word	.LC7
 1236              		.cfi_endproc
ARM GAS  C:\Users\DEVELO~1\AppData\Local\Temp\ccL8ooCN.s 			page 23


 1237              	.LFE437:
 1238              		.size	oslib_test_006_001_execute, .-oslib_test_006_001_execute
 1239              		.global	oslib_test_sequence_006
 1240              		.section	.rodata.str1.4,"aMS",%progbits,1
 1241              		.align	2
 1242              	.LC8:
 1243 0000 4F626A65 		.ascii	"Objects Caches\000"
 1243      63747320 
 1243      43616368 
 1243      657300
 1244              		.global	oslib_test_sequence_006_array
 1245 000f 00       		.align	2
 1246              	.LC9:
 1247 0010 43616368 		.ascii	"Cache initialization\000"
 1247      6520696E 
 1247      69746961 
 1247      6C697A61 
 1247      74696F6E 
 1248              		.section	.bss.cache1,"aw",%nobits
 1249              		.align	2
 1250              		.set	.LANCHOR1,. + 0
 1251              		.type	cache1, %object
 1252              		.size	cache1, 68
 1253              	cache1:
 1254 0000 00000000 		.space	68
 1254      00000000 
 1254      00000000 
 1254      00000000 
 1254      00000000 
 1255              		.section	.bss.hash_headers,"aw",%nobits
 1256              		.align	2
 1257              		.set	.LANCHOR0,. + 0
 1258              		.type	hash_headers, %object
 1259              		.size	hash_headers, 64
 1260              	hash_headers:
 1261 0000 00000000 		.space	64
 1261      00000000 
 1261      00000000 
 1261      00000000 
 1261      00000000 
 1262              		.section	.bss.objects,"aw",%nobits
 1263              		.align	2
 1264              		.set	.LANCHOR2,. + 0
 1265              		.type	objects, %object
 1266              		.size	objects, 240
 1267              	objects:
 1268 0000 00000000 		.space	240
 1268      00000000 
 1268      00000000 
 1268      00000000 
 1268      00000000 
 1269              		.section	.rodata.oslib_test_006_001,"a"
 1270              		.align	2
 1271              		.type	oslib_test_006_001, %object
 1272              		.size	oslib_test_006_001, 16
 1273              	oslib_test_006_001:
 1274 0000 10000000 		.word	.LC9
ARM GAS  C:\Users\DEVELO~1\AppData\Local\Temp\ccL8ooCN.s 			page 24


 1275 0004 00000000 		.word	0
 1276 0008 00000000 		.word	0
 1277 000c 00000000 		.word	oslib_test_006_001_execute
 1278              		.section	.rodata.oslib_test_sequence_006,"a"
 1279              		.align	2
 1280              		.type	oslib_test_sequence_006, %object
 1281              		.size	oslib_test_sequence_006, 8
 1282              	oslib_test_sequence_006:
 1283 0000 00000000 		.word	.LC8
 1284 0004 00000000 		.word	oslib_test_sequence_006_array
 1285              		.section	.rodata.oslib_test_sequence_006_array,"a"
 1286              		.align	2
 1287              		.type	oslib_test_sequence_006_array, %object
 1288              		.size	oslib_test_sequence_006_array, 8
 1289              	oslib_test_sequence_006_array:
 1290 0000 00000000 		.word	oslib_test_006_001
 1291 0004 00000000 		.word	0
 1292              		.text
 1293              	.Letext0:
 1294              		.file 6 "c:\\chibistudio\\tools\\gnu tools arm embedded\\11.3 2022.08\\lib\\gcc\\arm-none-eabi\\11
 1295              		.file 7 "c:\\chibistudio\\tools\\gnu tools arm embedded\\11.3 2022.08\\arm-none-eabi\\include\\mac
 1296              		.file 8 "c:\\chibistudio\\tools\\gnu tools arm embedded\\11.3 2022.08\\arm-none-eabi\\include\\sys
 1297              		.file 9 "../../../os/rt/include/chearly.h"
 1298              		.file 10 "../../../os/rt/include/chlists.h"
 1299              		.file 11 "../../../os/rt/include/chsem.h"
 1300              		.file 12 "../../../os/hal/include/hal_streams.h"
 1301              		.file 13 "../../../os/test/include/ch_test.h"
 1302              		.file 14 "../../../test/oslib/source/test/oslib_test_sequence_006.h"
 1303              		.file 15 "../../../os/rt/include/chschd.h"