ARM GAS  C:\Users\DEVELO~1\AppData\Local\Temp\ccj9sl6p.s 			page 1


   1              		.cpu cortex-m7
   2              		.arch armv7e-m
   3              		.fpu softvfp
   4              		.eabi_attribute 20, 1
   5              		.eabi_attribute 21, 1
   6              		.eabi_attribute 23, 3
   7              		.eabi_attribute 24, 1
   8              		.eabi_attribute 25, 1
   9              		.eabi_attribute 26, 1
  10              		.eabi_attribute 30, 2
  11              		.eabi_attribute 34, 1
  12              		.eabi_attribute 18, 4
  13              		.file	"oslib_test_sequence_001.c"
  14              		.text
  15              	.Ltext0:
  16              		.cfi_sections	.debug_frame
  17              		.section	.rodata.oslib_test_001_003_execute.str1.4,"aMS",%progbits,1
  18              		.align	2
  19              	.LC0:
  20 0000 2D2D2D20 		.ascii	"--- CH_CFG_USE_MAILBOXES:               \000"
  20      43485F43 
  20      46475F55 
  20      53455F4D 
  20      41494C42 
  21 0029 000000   		.align	2
  22              	.LC1:
  23 002c 257300   		.ascii	"%s\000"
  24 002f 00       		.align	2
  25              	.LC2:
  26 0030 257500   		.ascii	"%u\000"
  27 0033 00       		.align	2
  28              	.LC3:
  29 0034 00       		.ascii	"\000"
  30 0035 000000   		.align	2
  31              	.LC4:
  32 0038 25730D0A 		.ascii	"%s\015\012\000"
  32      00
  33 003d 000000   		.align	2
  34              	.LC5:
  35 0040 2D2D2D20 		.ascii	"--- CH_CFG_USE_MEMCHECKS:               \000"
  35      43485F43 
  35      46475F55 
  35      53455F4D 
  35      454D4348 
  36 0069 000000   		.align	2
  37              	.LC6:
  38 006c 2D2D2D20 		.ascii	"--- CH_CFG_USE_MEMCORE:                 \000"
  38      43485F43 
  38      46475F55 
  38      53455F4D 
  38      454D434F 
  39 0095 000000   		.align	2
  40              	.LC7:
  41 0098 2D2D2D20 		.ascii	"--- CH_CFG_MEMCORE_SIZE:                \000"
  41      43485F43 
  41      46475F4D 
  41      454D434F 
ARM GAS  C:\Users\DEVELO~1\AppData\Local\Temp\ccj9sl6p.s 			page 2


  41      52455F53 
  42 00c1 000000   		.align	2
  43              	.LC8:
  44 00c4 2D2D2D20 		.ascii	"--- CH_CFG_USE_HEAP:                    \000"
  44      43485F43 
  44      46475F55 
  44      53455F48 
  44      4541503A 
  45 00ed 000000   		.align	2
  46              	.LC9:
  47 00f0 2D2D2D20 		.ascii	"--- CH_CFG_USE_MEMPOOLS:                \000"
  47      43485F43 
  47      46475F55 
  47      53455F4D 
  47      454D504F 
  48 0119 000000   		.align	2
  49              	.LC10:
  50 011c 2D2D2D20 		.ascii	"--- CH_CFG_USE_OBJ_FIFOS:               \000"
  50      43485F43 
  50      46475F55 
  50      53455F4F 
  50      424A5F46 
  51 0145 000000   		.align	2
  52              	.LC11:
  53 0148 2D2D2D20 		.ascii	"--- CH_CFG_USE_PIPES:                   \000"
  53      43485F43 
  53      46475F55 
  53      53455F50 
  53      49504553 
  54 0171 000000   		.align	2
  55              	.LC12:
  56 0174 2D2D2D20 		.ascii	"--- CH_CFG_USE_OBJ_CACHES:              \000"
  56      43485F43 
  56      46475F55 
  56      53455F4F 
  56      424A5F43 
  57 019d 000000   		.align	2
  58              	.LC13:
  59 01a0 2D2D2D20 		.ascii	"--- CH_CFG_USE_DELEGATES:               \000"
  59      43485F43 
  59      46475F55 
  59      53455F44 
  59      454C4547 
  60 01c9 000000   		.align	2
  61              	.LC14:
  62 01cc 2D2D2D20 		.ascii	"--- CH_CFG_USE_FACTORY:                 \000"
  62      43485F43 
  62      46475F55 
  62      53455F46 
  62      4143544F 
  63 01f5 000000   		.align	2
  64              	.LC15:
  65 01f8 2D2D2D20 		.ascii	"--- CH_CFG_FACTORY_MAX_NAMES_LENGTH:    \000"
  65      43485F43 
  65      46475F46 
  65      4143544F 
  65      52595F4D 
ARM GAS  C:\Users\DEVELO~1\AppData\Local\Temp\ccj9sl6p.s 			page 3


  66 0221 000000   		.align	2
  67              	.LC16:
  68 0224 2D2D2D20 		.ascii	"--- CH_CFG_FACTORY_OBJECTS_REGISTRY:    \000"
  68      43485F43 
  68      46475F46 
  68      4143544F 
  68      52595F4F 
  69 024d 000000   		.align	2
  70              	.LC17:
  71 0250 2D2D2D20 		.ascii	"--- CH_CFG_FACTORY_GENERIC_BUFFERS:     \000"
  71      43485F43 
  71      46475F46 
  71      4143544F 
  71      52595F47 
  72 0279 000000   		.align	2
  73              	.LC18:
  74 027c 2D2D2D20 		.ascii	"--- CH_CFG_FACTORY_SEMAPHORES:          \000"
  74      43485F43 
  74      46475F46 
  74      4143544F 
  74      52595F53 
  75 02a5 000000   		.align	2
  76              	.LC19:
  77 02a8 2D2D2D20 		.ascii	"--- CH_CFG_FACTORY_MAILBOXES:           \000"
  77      43485F43 
  77      46475F46 
  77      4143544F 
  77      52595F4D 
  78 02d1 000000   		.align	2
  79              	.LC20:
  80 02d4 2D2D2D20 		.ascii	"--- CH_CFG_FACTORY_OBJ_FIFOS:           \000"
  80      43485F43 
  80      46475F46 
  80      4143544F 
  80      52595F4F 
  81 02fd 000000   		.align	2
  82              	.LC21:
  83 0300 2D2D2D20 		.ascii	"--- CH_CFG_FACTORY_PIPES:               \000"
  83      43485F43 
  83      46475F46 
  83      4143544F 
  83      52595F50 
  84              		.section	.text.oslib_test_001_003_execute,"ax",%progbits
  85              		.align	1
  86              		.p2align 4,,15
  87              		.syntax unified
  88              		.thumb
  89              		.thumb_func
  90              		.type	oslib_test_001_003_execute, %function
  91              	oslib_test_001_003_execute:
  92              	.LFB454:
  93              		.file 1 "./ChibiOS/test/oslib/source/test/oslib_test_sequence_001.c"
  94              		.loc 1 160 46 view -0
  95              		.cfi_startproc
  96              		@ args = 0, pretend = 0, frame = 0
  97              		@ frame_needed = 0, uses_anonymous_args = 0
  98              		.loc 1 163 3 view .LVU1
ARM GAS  C:\Users\DEVELO~1\AppData\Local\Temp\ccj9sl6p.s 			page 4


  99              		.loc 1 160 46 is_stmt 0 view .LVU2
 100 0000 2DE9F041 		push	{r4, r5, r6, r7, r8, lr}
 101              		.cfi_def_cfa_offset 24
 102              		.cfi_offset 4, -24
 103              		.cfi_offset 5, -20
 104              		.cfi_offset 6, -16
 105              		.cfi_offset 7, -12
 106              		.cfi_offset 8, -8
 107              		.cfi_offset 14, -4
 108              	.LBB174:
 109              	.LBB175:
 110              		.file 2 "./ChibiOS/os/test/include/ch_test.h"
 111              		.loc 2 371 3 view .LVU3
 112 0004 714F     		ldr	r7, .L4
 113              	.LBE175:
 114              	.LBE174:
 115              		.loc 1 163 3 view .LVU4
 116 0006 4FF00108 		mov	r8, #1
 117 000a 714B     		ldr	r3, .L4+4
 118              	.LBB179:
 119              	.LBB180:
 120              		.loc 2 359 3 view .LVU5
 121 000c 714E     		ldr	r6, .L4+8
 122              	.LBE180:
 123              	.LBE179:
 124              	.LBB182:
 125              	.LBB176:
 126              		.loc 2 371 3 view .LVU6
 127 000e 3846     		mov	r0, r7
 128              	.LBE176:
 129              	.LBE182:
 130              	.LBB183:
 131              	.LBB184:
 132              		.loc 2 383 3 view .LVU7
 133 0010 714D     		ldr	r5, .L4+12
 134 0012 724C     		ldr	r4, .L4+16
 135              	.LBE184:
 136              	.LBE183:
 137              	.LBB186:
 138              	.LBB177:
 139              		.loc 2 371 3 view .LVU8
 140 0014 7249     		ldr	r1, .L4+20
 141              	.LBE177:
 142              	.LBE186:
 143              		.loc 1 163 3 view .LVU9
 144 0016 C3F80080 		str	r8, [r3]
 145              		.loc 1 165 5 is_stmt 1 view .LVU10
 146              	.LVL0:
 147              	.LBB187:
 148              	.LBI174:
 149              		.loc 2 369 20 view .LVU11
 150              	.LBB178:
 151              		.loc 2 371 3 view .LVU12
 152 001a FFF7FEFF 		bl	test_printf
 153              	.LVL1:
 154              		.loc 2 371 3 is_stmt 0 view .LVU13
 155              	.LBE178:
ARM GAS  C:\Users\DEVELO~1\AppData\Local\Temp\ccj9sl6p.s 			page 5


 156              	.LBE187:
 157              		.loc 1 166 5 is_stmt 1 view .LVU14
 158              	.LBB188:
 159              	.LBI179:
 160              		.loc 2 357 20 view .LVU15
 161              	.LBB181:
 162              		.loc 2 359 3 view .LVU16
 163 001e 4146     		mov	r1, r8
 164 0020 3046     		mov	r0, r6
 165 0022 FFF7FEFF 		bl	test_printf
 166              	.LVL2:
 167              		.loc 2 359 3 is_stmt 0 view .LVU17
 168              	.LBE181:
 169              	.LBE188:
 170              		.loc 1 167 5 is_stmt 1 view .LVU18
 171              	.LBB189:
 172              	.LBI183:
 173              		.loc 2 381 20 view .LVU19
 174              	.LBB185:
 175              		.loc 2 383 3 view .LVU20
 176 0026 2946     		mov	r1, r5
 177 0028 2046     		mov	r0, r4
 178 002a FFF7FEFF 		bl	test_printf
 179              	.LVL3:
 180              		.loc 2 383 3 is_stmt 0 view .LVU21
 181              	.LBE185:
 182              	.LBE189:
 183              		.loc 1 168 5 is_stmt 1 view .LVU22
 184              	.LBB190:
 185              	.LBI190:
 186              		.loc 2 369 20 view .LVU23
 187              	.LBB191:
 188              		.loc 2 371 3 view .LVU24
 189 002e 6D49     		ldr	r1, .L4+24
 190 0030 3846     		mov	r0, r7
 191 0032 FFF7FEFF 		bl	test_printf
 192              	.LVL4:
 193              		.loc 2 371 3 is_stmt 0 view .LVU25
 194              	.LBE191:
 195              	.LBE190:
 196              		.loc 1 169 5 is_stmt 1 view .LVU26
 197              	.LBB192:
 198              	.LBI192:
 199              		.loc 2 357 20 view .LVU27
 200              	.LBB193:
 201              		.loc 2 359 3 view .LVU28
 202 0036 4146     		mov	r1, r8
 203 0038 3046     		mov	r0, r6
 204 003a FFF7FEFF 		bl	test_printf
 205              	.LVL5:
 206              		.loc 2 359 3 is_stmt 0 view .LVU29
 207              	.LBE193:
 208              	.LBE192:
 209              		.loc 1 170 5 is_stmt 1 view .LVU30
 210              	.LBB194:
 211              	.LBI194:
 212              		.loc 2 381 20 view .LVU31
ARM GAS  C:\Users\DEVELO~1\AppData\Local\Temp\ccj9sl6p.s 			page 6


 213              	.LBB195:
 214              		.loc 2 383 3 view .LVU32
 215 003e 2946     		mov	r1, r5
 216 0040 2046     		mov	r0, r4
 217 0042 FFF7FEFF 		bl	test_printf
 218              	.LVL6:
 219              		.loc 2 383 3 is_stmt 0 view .LVU33
 220              	.LBE195:
 221              	.LBE194:
 222              		.loc 1 171 5 is_stmt 1 view .LVU34
 223              	.LBB196:
 224              	.LBI196:
 225              		.loc 2 369 20 view .LVU35
 226              	.LBB197:
 227              		.loc 2 371 3 view .LVU36
 228 0046 6849     		ldr	r1, .L4+28
 229 0048 3846     		mov	r0, r7
 230 004a FFF7FEFF 		bl	test_printf
 231              	.LVL7:
 232              		.loc 2 371 3 is_stmt 0 view .LVU37
 233              	.LBE197:
 234              	.LBE196:
 235              		.loc 1 172 5 is_stmt 1 view .LVU38
 236              	.LBB198:
 237              	.LBI198:
 238              		.loc 2 357 20 view .LVU39
 239              	.LBB199:
 240              		.loc 2 359 3 view .LVU40
 241 004e 4146     		mov	r1, r8
 242 0050 3046     		mov	r0, r6
 243 0052 FFF7FEFF 		bl	test_printf
 244              	.LVL8:
 245              		.loc 2 359 3 is_stmt 0 view .LVU41
 246              	.LBE199:
 247              	.LBE198:
 248              		.loc 1 173 5 is_stmt 1 view .LVU42
 249              	.LBB200:
 250              	.LBI200:
 251              		.loc 2 381 20 view .LVU43
 252              	.LBB201:
 253              		.loc 2 383 3 view .LVU44
 254 0056 2946     		mov	r1, r5
 255 0058 2046     		mov	r0, r4
 256 005a FFF7FEFF 		bl	test_printf
 257              	.LVL9:
 258              		.loc 2 383 3 is_stmt 0 view .LVU45
 259              	.LBE201:
 260              	.LBE200:
 261              		.loc 1 174 5 is_stmt 1 view .LVU46
 262              	.LBB202:
 263              	.LBI202:
 264              		.loc 2 369 20 view .LVU47
 265              	.LBB203:
 266              		.loc 2 371 3 view .LVU48
 267 005e 6349     		ldr	r1, .L4+32
 268 0060 3846     		mov	r0, r7
 269 0062 FFF7FEFF 		bl	test_printf
ARM GAS  C:\Users\DEVELO~1\AppData\Local\Temp\ccj9sl6p.s 			page 7


 270              	.LVL10:
 271              		.loc 2 371 3 is_stmt 0 view .LVU49
 272              	.LBE203:
 273              	.LBE202:
 274              		.loc 1 175 5 is_stmt 1 view .LVU50
 275              	.LBB204:
 276              	.LBI204:
 277              		.loc 2 357 20 view .LVU51
 278              	.LBB205:
 279              		.loc 2 359 3 view .LVU52
 280 0066 0021     		movs	r1, #0
 281 0068 3046     		mov	r0, r6
 282 006a FFF7FEFF 		bl	test_printf
 283              	.LVL11:
 284              		.loc 2 359 3 is_stmt 0 view .LVU53
 285              	.LBE205:
 286              	.LBE204:
 287              		.loc 1 176 5 is_stmt 1 view .LVU54
 288              	.LBB206:
 289              	.LBI206:
 290              		.loc 2 381 20 view .LVU55
 291              	.LBB207:
 292              		.loc 2 383 3 view .LVU56
 293 006e 2946     		mov	r1, r5
 294 0070 2046     		mov	r0, r4
 295 0072 FFF7FEFF 		bl	test_printf
 296              	.LVL12:
 297              		.loc 2 383 3 is_stmt 0 view .LVU57
 298              	.LBE207:
 299              	.LBE206:
 300              		.loc 1 177 5 is_stmt 1 view .LVU58
 301              	.LBB208:
 302              	.LBI208:
 303              		.loc 2 369 20 view .LVU59
 304              	.LBB209:
 305              		.loc 2 371 3 view .LVU60
 306 0076 5E49     		ldr	r1, .L4+36
 307 0078 3846     		mov	r0, r7
 308 007a FFF7FEFF 		bl	test_printf
 309              	.LVL13:
 310              		.loc 2 371 3 is_stmt 0 view .LVU61
 311              	.LBE209:
 312              	.LBE208:
 313              		.loc 1 178 5 is_stmt 1 view .LVU62
 314              	.LBB210:
 315              	.LBI210:
 316              		.loc 2 357 20 view .LVU63
 317              	.LBB211:
 318              		.loc 2 359 3 view .LVU64
 319 007e 4146     		mov	r1, r8
 320 0080 3046     		mov	r0, r6
 321 0082 FFF7FEFF 		bl	test_printf
 322              	.LVL14:
 323              		.loc 2 359 3 is_stmt 0 view .LVU65
 324              	.LBE211:
 325              	.LBE210:
 326              		.loc 1 179 5 is_stmt 1 view .LVU66
ARM GAS  C:\Users\DEVELO~1\AppData\Local\Temp\ccj9sl6p.s 			page 8


 327              	.LBB212:
 328              	.LBI212:
 329              		.loc 2 381 20 view .LVU67
 330              	.LBB213:
 331              		.loc 2 383 3 view .LVU68
 332 0086 2946     		mov	r1, r5
 333 0088 2046     		mov	r0, r4
 334 008a FFF7FEFF 		bl	test_printf
 335              	.LVL15:
 336              		.loc 2 383 3 is_stmt 0 view .LVU69
 337              	.LBE213:
 338              	.LBE212:
 339              		.loc 1 180 5 is_stmt 1 view .LVU70
 340              	.LBB214:
 341              	.LBI214:
 342              		.loc 2 369 20 view .LVU71
 343              	.LBB215:
 344              		.loc 2 371 3 view .LVU72
 345 008e 5949     		ldr	r1, .L4+40
 346 0090 3846     		mov	r0, r7
 347 0092 FFF7FEFF 		bl	test_printf
 348              	.LVL16:
 349              		.loc 2 371 3 is_stmt 0 view .LVU73
 350              	.LBE215:
 351              	.LBE214:
 352              		.loc 1 181 5 is_stmt 1 view .LVU74
 353              	.LBB216:
 354              	.LBI216:
 355              		.loc 2 357 20 view .LVU75
 356              	.LBB217:
 357              		.loc 2 359 3 view .LVU76
 358 0096 4146     		mov	r1, r8
 359 0098 3046     		mov	r0, r6
 360 009a FFF7FEFF 		bl	test_printf
 361              	.LVL17:
 362              		.loc 2 359 3 is_stmt 0 view .LVU77
 363              	.LBE217:
 364              	.LBE216:
 365              		.loc 1 182 5 is_stmt 1 view .LVU78
 366              	.LBB218:
 367              	.LBI218:
 368              		.loc 2 381 20 view .LVU79
 369              	.LBB219:
 370              		.loc 2 383 3 view .LVU80
 371 009e 2946     		mov	r1, r5
 372 00a0 2046     		mov	r0, r4
 373 00a2 FFF7FEFF 		bl	test_printf
 374              	.LVL18:
 375              		.loc 2 383 3 is_stmt 0 view .LVU81
 376              	.LBE219:
 377              	.LBE218:
 378              		.loc 1 183 5 is_stmt 1 view .LVU82
 379              	.LBB220:
 380              	.LBI220:
 381              		.loc 2 369 20 view .LVU83
 382              	.LBB221:
 383              		.loc 2 371 3 view .LVU84
ARM GAS  C:\Users\DEVELO~1\AppData\Local\Temp\ccj9sl6p.s 			page 9


 384 00a6 5449     		ldr	r1, .L4+44
 385 00a8 3846     		mov	r0, r7
 386 00aa FFF7FEFF 		bl	test_printf
 387              	.LVL19:
 388              		.loc 2 371 3 is_stmt 0 view .LVU85
 389              	.LBE221:
 390              	.LBE220:
 391              		.loc 1 184 5 is_stmt 1 view .LVU86
 392              	.LBB222:
 393              	.LBI222:
 394              		.loc 2 357 20 view .LVU87
 395              	.LBB223:
 396              		.loc 2 359 3 view .LVU88
 397 00ae 4146     		mov	r1, r8
 398 00b0 3046     		mov	r0, r6
 399 00b2 FFF7FEFF 		bl	test_printf
 400              	.LVL20:
 401              		.loc 2 359 3 is_stmt 0 view .LVU89
 402              	.LBE223:
 403              	.LBE222:
 404              		.loc 1 185 5 is_stmt 1 view .LVU90
 405              	.LBB224:
 406              	.LBI224:
 407              		.loc 2 381 20 view .LVU91
 408              	.LBB225:
 409              		.loc 2 383 3 view .LVU92
 410 00b6 2946     		mov	r1, r5
 411 00b8 2046     		mov	r0, r4
 412 00ba FFF7FEFF 		bl	test_printf
 413              	.LVL21:
 414              		.loc 2 383 3 is_stmt 0 view .LVU93
 415              	.LBE225:
 416              	.LBE224:
 417              		.loc 1 186 5 is_stmt 1 view .LVU94
 418              	.LBB226:
 419              	.LBI226:
 420              		.loc 2 369 20 view .LVU95
 421              	.LBB227:
 422              		.loc 2 371 3 view .LVU96
 423 00be 4F49     		ldr	r1, .L4+48
 424 00c0 3846     		mov	r0, r7
 425 00c2 FFF7FEFF 		bl	test_printf
 426              	.LVL22:
 427              		.loc 2 371 3 is_stmt 0 view .LVU97
 428              	.LBE227:
 429              	.LBE226:
 430              		.loc 1 187 5 is_stmt 1 view .LVU98
 431              	.LBB228:
 432              	.LBI228:
 433              		.loc 2 357 20 view .LVU99
 434              	.LBB229:
 435              		.loc 2 359 3 view .LVU100
 436 00c6 4146     		mov	r1, r8
 437 00c8 3046     		mov	r0, r6
 438 00ca FFF7FEFF 		bl	test_printf
 439              	.LVL23:
 440              		.loc 2 359 3 is_stmt 0 view .LVU101
ARM GAS  C:\Users\DEVELO~1\AppData\Local\Temp\ccj9sl6p.s 			page 10


 441              	.LBE229:
 442              	.LBE228:
 443              		.loc 1 188 5 is_stmt 1 view .LVU102
 444              	.LBB230:
 445              	.LBI230:
 446              		.loc 2 381 20 view .LVU103
 447              	.LBB231:
 448              		.loc 2 383 3 view .LVU104
 449 00ce 2946     		mov	r1, r5
 450 00d0 2046     		mov	r0, r4
 451 00d2 FFF7FEFF 		bl	test_printf
 452              	.LVL24:
 453              		.loc 2 383 3 is_stmt 0 view .LVU105
 454              	.LBE231:
 455              	.LBE230:
 456              		.loc 1 189 5 is_stmt 1 view .LVU106
 457              	.LBB232:
 458              	.LBI232:
 459              		.loc 2 369 20 view .LVU107
 460              	.LBB233:
 461              		.loc 2 371 3 view .LVU108
 462 00d6 4A49     		ldr	r1, .L4+52
 463 00d8 3846     		mov	r0, r7
 464 00da FFF7FEFF 		bl	test_printf
 465              	.LVL25:
 466              		.loc 2 371 3 is_stmt 0 view .LVU109
 467              	.LBE233:
 468              	.LBE232:
 469              		.loc 1 190 5 is_stmt 1 view .LVU110
 470              	.LBB234:
 471              	.LBI234:
 472              		.loc 2 357 20 view .LVU111
 473              	.LBB235:
 474              		.loc 2 359 3 view .LVU112
 475 00de 4146     		mov	r1, r8
 476 00e0 3046     		mov	r0, r6
 477 00e2 FFF7FEFF 		bl	test_printf
 478              	.LVL26:
 479              		.loc 2 359 3 is_stmt 0 view .LVU113
 480              	.LBE235:
 481              	.LBE234:
 482              		.loc 1 191 5 is_stmt 1 view .LVU114
 483              	.LBB236:
 484              	.LBI236:
 485              		.loc 2 381 20 view .LVU115
 486              	.LBB237:
 487              		.loc 2 383 3 view .LVU116
 488 00e6 2946     		mov	r1, r5
 489 00e8 2046     		mov	r0, r4
 490 00ea FFF7FEFF 		bl	test_printf
 491              	.LVL27:
 492              		.loc 2 383 3 is_stmt 0 view .LVU117
 493              	.LBE237:
 494              	.LBE236:
 495              		.loc 1 192 5 is_stmt 1 view .LVU118
 496              	.LBB238:
 497              	.LBI238:
ARM GAS  C:\Users\DEVELO~1\AppData\Local\Temp\ccj9sl6p.s 			page 11


 498              		.loc 2 369 20 view .LVU119
 499              	.LBB239:
 500              		.loc 2 371 3 view .LVU120
 501 00ee 4549     		ldr	r1, .L4+56
 502 00f0 3846     		mov	r0, r7
 503 00f2 FFF7FEFF 		bl	test_printf
 504              	.LVL28:
 505              		.loc 2 371 3 is_stmt 0 view .LVU121
 506              	.LBE239:
 507              	.LBE238:
 508              		.loc 1 193 5 is_stmt 1 view .LVU122
 509              	.LBB240:
 510              	.LBI240:
 511              		.loc 2 357 20 view .LVU123
 512              	.LBB241:
 513              		.loc 2 359 3 view .LVU124
 514 00f6 4146     		mov	r1, r8
 515 00f8 3046     		mov	r0, r6
 516 00fa FFF7FEFF 		bl	test_printf
 517              	.LVL29:
 518              		.loc 2 359 3 is_stmt 0 view .LVU125
 519              	.LBE241:
 520              	.LBE240:
 521              		.loc 1 194 5 is_stmt 1 view .LVU126
 522              	.LBB242:
 523              	.LBI242:
 524              		.loc 2 381 20 view .LVU127
 525              	.LBB243:
 526              		.loc 2 383 3 view .LVU128
 527 00fe 2946     		mov	r1, r5
 528 0100 2046     		mov	r0, r4
 529 0102 FFF7FEFF 		bl	test_printf
 530              	.LVL30:
 531              		.loc 2 383 3 is_stmt 0 view .LVU129
 532              	.LBE243:
 533              	.LBE242:
 534              		.loc 1 195 5 is_stmt 1 view .LVU130
 535              	.LBB244:
 536              	.LBI244:
 537              		.loc 2 369 20 view .LVU131
 538              	.LBB245:
 539              		.loc 2 371 3 view .LVU132
 540 0106 4049     		ldr	r1, .L4+60
 541 0108 3846     		mov	r0, r7
 542 010a FFF7FEFF 		bl	test_printf
 543              	.LVL31:
 544              		.loc 2 371 3 is_stmt 0 view .LVU133
 545              	.LBE245:
 546              	.LBE244:
 547              		.loc 1 196 5 is_stmt 1 view .LVU134
 548              	.LBB246:
 549              	.LBI246:
 550              		.loc 2 357 20 view .LVU135
 551              	.LBB247:
 552              		.loc 2 359 3 view .LVU136
 553 010e 4146     		mov	r1, r8
 554 0110 3046     		mov	r0, r6
ARM GAS  C:\Users\DEVELO~1\AppData\Local\Temp\ccj9sl6p.s 			page 12


 555 0112 FFF7FEFF 		bl	test_printf
 556              	.LVL32:
 557              		.loc 2 359 3 is_stmt 0 view .LVU137
 558              	.LBE247:
 559              	.LBE246:
 560              		.loc 1 197 5 is_stmt 1 view .LVU138
 561              	.LBB248:
 562              	.LBI248:
 563              		.loc 2 381 20 view .LVU139
 564              	.LBB249:
 565              		.loc 2 383 3 view .LVU140
 566 0116 2946     		mov	r1, r5
 567 0118 2046     		mov	r0, r4
 568 011a FFF7FEFF 		bl	test_printf
 569              	.LVL33:
 570              		.loc 2 383 3 is_stmt 0 view .LVU141
 571              	.LBE249:
 572              	.LBE248:
 573              		.loc 1 198 5 is_stmt 1 view .LVU142
 574              	.LBB250:
 575              	.LBI250:
 576              		.loc 2 369 20 view .LVU143
 577              	.LBB251:
 578              		.loc 2 371 3 view .LVU144
 579 011e 3B49     		ldr	r1, .L4+64
 580 0120 3846     		mov	r0, r7
 581 0122 FFF7FEFF 		bl	test_printf
 582              	.LVL34:
 583              		.loc 2 371 3 is_stmt 0 view .LVU145
 584              	.LBE251:
 585              	.LBE250:
 586              		.loc 1 199 5 is_stmt 1 view .LVU146
 587              	.LBB252:
 588              	.LBI252:
 589              		.loc 2 357 20 view .LVU147
 590              	.LBB253:
 591              		.loc 2 359 3 view .LVU148
 592 0126 0821     		movs	r1, #8
 593 0128 3046     		mov	r0, r6
 594 012a FFF7FEFF 		bl	test_printf
 595              	.LVL35:
 596              		.loc 2 359 3 is_stmt 0 view .LVU149
 597              	.LBE253:
 598              	.LBE252:
 599              		.loc 1 200 5 is_stmt 1 view .LVU150
 600              	.LBB254:
 601              	.LBI254:
 602              		.loc 2 381 20 view .LVU151
 603              	.LBB255:
 604              		.loc 2 383 3 view .LVU152
 605 012e 2946     		mov	r1, r5
 606 0130 2046     		mov	r0, r4
 607 0132 FFF7FEFF 		bl	test_printf
 608              	.LVL36:
 609              		.loc 2 383 3 is_stmt 0 view .LVU153
 610              	.LBE255:
 611              	.LBE254:
ARM GAS  C:\Users\DEVELO~1\AppData\Local\Temp\ccj9sl6p.s 			page 13


 612              		.loc 1 201 5 is_stmt 1 view .LVU154
 613              	.LBB256:
 614              	.LBI256:
 615              		.loc 2 369 20 view .LVU155
 616              	.LBB257:
 617              		.loc 2 371 3 view .LVU156
 618 0136 3649     		ldr	r1, .L4+68
 619 0138 3846     		mov	r0, r7
 620 013a FFF7FEFF 		bl	test_printf
 621              	.LVL37:
 622              		.loc 2 371 3 is_stmt 0 view .LVU157
 623              	.LBE257:
 624              	.LBE256:
 625              		.loc 1 202 5 is_stmt 1 view .LVU158
 626              	.LBB258:
 627              	.LBI258:
 628              		.loc 2 357 20 view .LVU159
 629              	.LBB259:
 630              		.loc 2 359 3 view .LVU160
 631 013e 4146     		mov	r1, r8
 632 0140 3046     		mov	r0, r6
 633 0142 FFF7FEFF 		bl	test_printf
 634              	.LVL38:
 635              		.loc 2 359 3 is_stmt 0 view .LVU161
 636              	.LBE259:
 637              	.LBE258:
 638              		.loc 1 203 5 is_stmt 1 view .LVU162
 639              	.LBB260:
 640              	.LBI260:
 641              		.loc 2 381 20 view .LVU163
 642              	.LBB261:
 643              		.loc 2 383 3 view .LVU164
 644 0146 2946     		mov	r1, r5
 645 0148 2046     		mov	r0, r4
 646 014a FFF7FEFF 		bl	test_printf
 647              	.LVL39:
 648              		.loc 2 383 3 is_stmt 0 view .LVU165
 649              	.LBE261:
 650              	.LBE260:
 651              		.loc 1 204 5 is_stmt 1 view .LVU166
 652              	.LBB262:
 653              	.LBI262:
 654              		.loc 2 369 20 view .LVU167
 655              	.LBB263:
 656              		.loc 2 371 3 view .LVU168
 657 014e 3149     		ldr	r1, .L4+72
 658 0150 3846     		mov	r0, r7
 659 0152 FFF7FEFF 		bl	test_printf
 660              	.LVL40:
 661              		.loc 2 371 3 is_stmt 0 view .LVU169
 662              	.LBE263:
 663              	.LBE262:
 664              		.loc 1 205 5 is_stmt 1 view .LVU170
 665              	.LBB264:
 666              	.LBI264:
 667              		.loc 2 357 20 view .LVU171
 668              	.LBB265:
ARM GAS  C:\Users\DEVELO~1\AppData\Local\Temp\ccj9sl6p.s 			page 14


 669              		.loc 2 359 3 view .LVU172
 670 0156 4146     		mov	r1, r8
 671 0158 3046     		mov	r0, r6
 672 015a FFF7FEFF 		bl	test_printf
 673              	.LVL41:
 674              		.loc 2 359 3 is_stmt 0 view .LVU173
 675              	.LBE265:
 676              	.LBE264:
 677              		.loc 1 206 5 is_stmt 1 view .LVU174
 678              	.LBB266:
 679              	.LBI266:
 680              		.loc 2 381 20 view .LVU175
 681              	.LBB267:
 682              		.loc 2 383 3 view .LVU176
 683 015e 2946     		mov	r1, r5
 684 0160 2046     		mov	r0, r4
 685 0162 FFF7FEFF 		bl	test_printf
 686              	.LVL42:
 687              		.loc 2 383 3 is_stmt 0 view .LVU177
 688              	.LBE267:
 689              	.LBE266:
 690              		.loc 1 207 5 is_stmt 1 view .LVU178
 691              	.LBB268:
 692              	.LBI268:
 693              		.loc 2 369 20 view .LVU179
 694              	.LBB269:
 695              		.loc 2 371 3 view .LVU180
 696 0166 2C49     		ldr	r1, .L4+76
 697 0168 3846     		mov	r0, r7
 698 016a FFF7FEFF 		bl	test_printf
 699              	.LVL43:
 700              		.loc 2 371 3 is_stmt 0 view .LVU181
 701              	.LBE269:
 702              	.LBE268:
 703              		.loc 1 208 5 is_stmt 1 view .LVU182
 704              	.LBB270:
 705              	.LBI270:
 706              		.loc 2 357 20 view .LVU183
 707              	.LBB271:
 708              		.loc 2 359 3 view .LVU184
 709 016e 4146     		mov	r1, r8
 710 0170 3046     		mov	r0, r6
 711 0172 FFF7FEFF 		bl	test_printf
 712              	.LVL44:
 713              		.loc 2 359 3 is_stmt 0 view .LVU185
 714              	.LBE271:
 715              	.LBE270:
 716              		.loc 1 209 5 is_stmt 1 view .LVU186
 717              	.LBB272:
 718              	.LBI272:
 719              		.loc 2 381 20 view .LVU187
 720              	.LBB273:
 721              		.loc 2 383 3 view .LVU188
 722 0176 2946     		mov	r1, r5
 723 0178 2046     		mov	r0, r4
 724 017a FFF7FEFF 		bl	test_printf
 725              	.LVL45:
ARM GAS  C:\Users\DEVELO~1\AppData\Local\Temp\ccj9sl6p.s 			page 15


 726              		.loc 2 383 3 is_stmt 0 view .LVU189
 727              	.LBE273:
 728              	.LBE272:
 729              		.loc 1 210 5 is_stmt 1 view .LVU190
 730              	.LBB274:
 731              	.LBI274:
 732              		.loc 2 369 20 view .LVU191
 733              	.LBB275:
 734              		.loc 2 371 3 view .LVU192
 735 017e 2749     		ldr	r1, .L4+80
 736 0180 3846     		mov	r0, r7
 737 0182 FFF7FEFF 		bl	test_printf
 738              	.LVL46:
 739              		.loc 2 371 3 is_stmt 0 view .LVU193
 740              	.LBE275:
 741              	.LBE274:
 742              		.loc 1 211 5 is_stmt 1 view .LVU194
 743              	.LBB276:
 744              	.LBI276:
 745              		.loc 2 357 20 view .LVU195
 746              	.LBB277:
 747              		.loc 2 359 3 view .LVU196
 748 0186 4146     		mov	r1, r8
 749 0188 3046     		mov	r0, r6
 750 018a FFF7FEFF 		bl	test_printf
 751              	.LVL47:
 752              		.loc 2 359 3 is_stmt 0 view .LVU197
 753              	.LBE277:
 754              	.LBE276:
 755              		.loc 1 212 5 is_stmt 1 view .LVU198
 756              	.LBB278:
 757              	.LBI278:
 758              		.loc 2 381 20 view .LVU199
 759              	.LBB279:
 760              		.loc 2 383 3 view .LVU200
 761 018e 2946     		mov	r1, r5
 762 0190 2046     		mov	r0, r4
 763 0192 FFF7FEFF 		bl	test_printf
 764              	.LVL48:
 765              		.loc 2 383 3 is_stmt 0 view .LVU201
 766              	.LBE279:
 767              	.LBE278:
 768              		.loc 1 213 5 is_stmt 1 view .LVU202
 769              	.LBB280:
 770              	.LBI280:
 771              		.loc 2 369 20 view .LVU203
 772              	.LBB281:
 773              		.loc 2 371 3 view .LVU204
 774 0196 2249     		ldr	r1, .L4+84
 775 0198 3846     		mov	r0, r7
 776 019a FFF7FEFF 		bl	test_printf
 777              	.LVL49:
 778              		.loc 2 371 3 is_stmt 0 view .LVU205
 779              	.LBE281:
 780              	.LBE280:
 781              		.loc 1 214 5 is_stmt 1 view .LVU206
 782              	.LBB282:
ARM GAS  C:\Users\DEVELO~1\AppData\Local\Temp\ccj9sl6p.s 			page 16


 783              	.LBI282:
 784              		.loc 2 357 20 view .LVU207
 785              	.LBB283:
 786              		.loc 2 359 3 view .LVU208
 787 019e 4146     		mov	r1, r8
 788 01a0 3046     		mov	r0, r6
 789 01a2 FFF7FEFF 		bl	test_printf
 790              	.LVL50:
 791              		.loc 2 359 3 is_stmt 0 view .LVU209
 792              	.LBE283:
 793              	.LBE282:
 794              		.loc 1 215 5 is_stmt 1 view .LVU210
 795              	.LBB284:
 796              	.LBI284:
 797              		.loc 2 381 20 view .LVU211
 798              	.LBB285:
 799              		.loc 2 383 3 view .LVU212
 800 01a6 2946     		mov	r1, r5
 801 01a8 2046     		mov	r0, r4
 802 01aa FFF7FEFF 		bl	test_printf
 803              	.LVL51:
 804              		.loc 2 383 3 is_stmt 0 view .LVU213
 805              	.LBE285:
 806              	.LBE284:
 807              		.loc 1 216 5 is_stmt 1 view .LVU214
 808              	.LBB286:
 809              	.LBI286:
 810              		.loc 2 369 20 view .LVU215
 811              	.LBB287:
 812              		.loc 2 371 3 view .LVU216
 813 01ae 3846     		mov	r0, r7
 814 01b0 1C49     		ldr	r1, .L4+88
 815 01b2 FFF7FEFF 		bl	test_printf
 816              	.LVL52:
 817              		.loc 2 371 3 is_stmt 0 view .LVU217
 818              	.LBE287:
 819              	.LBE286:
 820              		.loc 1 217 5 is_stmt 1 view .LVU218
 821              	.LBB288:
 822              	.LBI288:
 823              		.loc 2 357 20 view .LVU219
 824              	.LBB289:
 825              		.loc 2 359 3 view .LVU220
 826 01b6 4146     		mov	r1, r8
 827 01b8 3046     		mov	r0, r6
 828 01ba FFF7FEFF 		bl	test_printf
 829              	.LVL53:
 830              		.loc 2 359 3 is_stmt 0 view .LVU221
 831              	.LBE289:
 832              	.LBE288:
 833              		.loc 1 218 5 is_stmt 1 view .LVU222
 834              	.LBB290:
 835              	.LBI290:
 836              		.loc 2 381 20 view .LVU223
 837              	.LBB291:
 838              		.loc 2 383 3 view .LVU224
 839 01be 2946     		mov	r1, r5
ARM GAS  C:\Users\DEVELO~1\AppData\Local\Temp\ccj9sl6p.s 			page 17


 840 01c0 2046     		mov	r0, r4
 841              	.LBE291:
 842              	.LBE290:
 843              		.loc 1 221 1 is_stmt 0 view .LVU225
 844 01c2 BDE8F041 		pop	{r4, r5, r6, r7, r8, lr}
 845              		.cfi_restore 14
 846              		.cfi_restore 8
 847              		.cfi_restore 7
 848              		.cfi_restore 6
 849              		.cfi_restore 5
 850              		.cfi_restore 4
 851              		.cfi_def_cfa_offset 0
 852              	.LBB293:
 853              	.LBB292:
 854              		.loc 2 383 3 view .LVU226
 855 01c6 FFF7FEBF 		b	test_printf
 856              	.LVL54:
 857              	.L5:
 858 01ca 00BF     		.align	2
 859              	.L4:
 860 01cc 2C000000 		.word	.LC1
 861 01d0 00000000 		.word	chtest
 862 01d4 30000000 		.word	.LC2
 863 01d8 34000000 		.word	.LC3
 864 01dc 38000000 		.word	.LC4
 865 01e0 00000000 		.word	.LC0
 866 01e4 40000000 		.word	.LC5
 867 01e8 6C000000 		.word	.LC6
 868 01ec 98000000 		.word	.LC7
 869 01f0 C4000000 		.word	.LC8
 870 01f4 F0000000 		.word	.LC9
 871 01f8 1C010000 		.word	.LC10
 872 01fc 48010000 		.word	.LC11
 873 0200 74010000 		.word	.LC12
 874 0204 A0010000 		.word	.LC13
 875 0208 CC010000 		.word	.LC14
 876 020c F8010000 		.word	.LC15
 877 0210 24020000 		.word	.LC16
 878 0214 50020000 		.word	.LC17
 879 0218 7C020000 		.word	.LC18
 880 021c A8020000 		.word	.LC19
 881 0220 D4020000 		.word	.LC20
 882 0224 00030000 		.word	.LC21
 883              	.LBE292:
 884              	.LBE293:
 885              		.cfi_endproc
 886              	.LFE454:
 887              		.size	oslib_test_001_003_execute, .-oslib_test_001_003_execute
 888              		.section	.rodata.oslib_test_001_002_execute.str1.4,"aMS",%progbits,1
 889              		.align	2
 890              	.LC22:
 891 0000 2D2D2D20 		.ascii	"--- Product:                            ChibiOS/LIB"
 891      50726F64 
 891      7563743A 
 891      20202020 
 891      20202020 
 892 0033 00       		.ascii	"\000"
ARM GAS  C:\Users\DEVELO~1\AppData\Local\Temp\ccj9sl6p.s 			page 18


 893              		.align	2
 894              	.LC23:
 895 0034 2D2D2D20 		.ascii	"--- Stable Flag:                        \000"
 895      53746162 
 895      6C652046 
 895      6C61673A 
 895      20202020 
 896 005d 000000   		.align	2
 897              	.LC24:
 898 0060 2D2D2D20 		.ascii	"--- Version String:                     \000"
 898      56657273 
 898      696F6E20 
 898      53747269 
 898      6E673A20 
 899 0089 000000   		.align	2
 900              	.LC25:
 901 008c 312E342E 		.ascii	"1.4.0\000"
 901      3000
 902 0092 0000     		.align	2
 903              	.LC26:
 904 0094 2D2D2D20 		.ascii	"--- Major Number:                       \000"
 904      4D616A6F 
 904      72204E75 
 904      6D626572 
 904      3A202020 
 905 00bd 000000   		.align	2
 906              	.LC27:
 907 00c0 2D2D2D20 		.ascii	"--- Minor Number:                       \000"
 907      4D696E6F 
 907      72204E75 
 907      6D626572 
 907      3A202020 
 908 00e9 000000   		.align	2
 909              	.LC28:
 910 00ec 2D2D2D20 		.ascii	"--- Patch Number:                       \000"
 910      50617463 
 910      68204E75 
 910      6D626572 
 910      3A202020 
 911              		.section	.text.oslib_test_001_002_execute,"ax",%progbits
 912              		.align	1
 913              		.p2align 4,,15
 914              		.syntax unified
 915              		.thumb
 916              		.thumb_func
 917              		.type	oslib_test_001_002_execute, %function
 918              	oslib_test_001_002_execute:
 919              	.LFB453:
 920              		.loc 1 118 46 is_stmt 1 view -0
 921              		.cfi_startproc
 922              		@ args = 0, pretend = 0, frame = 0
 923              		@ frame_needed = 0, uses_anonymous_args = 0
 924              		.loc 1 121 3 view .LVU228
 925              		.loc 1 118 46 is_stmt 0 view .LVU229
 926 0000 2DE9F041 		push	{r4, r5, r6, r7, r8, lr}
 927              		.cfi_def_cfa_offset 24
 928              		.cfi_offset 4, -24
ARM GAS  C:\Users\DEVELO~1\AppData\Local\Temp\ccj9sl6p.s 			page 19


 929              		.cfi_offset 5, -20
 930              		.cfi_offset 6, -16
 931              		.cfi_offset 7, -12
 932              		.cfi_offset 8, -8
 933              		.cfi_offset 14, -4
 934              	.LBB294:
 935              	.LBB295:
 936              		.loc 2 383 3 view .LVU230
 937 0004 234C     		ldr	r4, .L8
 938              	.LBE295:
 939              	.LBE294:
 940              		.loc 1 121 3 view .LVU231
 941 0006 4FF00108 		mov	r8, #1
 942 000a 234B     		ldr	r3, .L8+4
 943              	.LBB299:
 944              	.LBB300:
 945              		.loc 2 371 3 view .LVU232
 946 000c 234D     		ldr	r5, .L8+8
 947              	.LBE300:
 948              	.LBE299:
 949              	.LBB303:
 950              	.LBB296:
 951              		.loc 2 383 3 view .LVU233
 952 000e 2046     		mov	r0, r4
 953              	.LBE296:
 954              	.LBE303:
 955              	.LBB304:
 956              	.LBB305:
 957              		.loc 2 359 3 view .LVU234
 958 0010 234F     		ldr	r7, .L8+12
 959              	.LBE305:
 960              	.LBE304:
 961              	.LBB307:
 962              	.LBB297:
 963              		.loc 2 383 3 view .LVU235
 964 0012 2449     		ldr	r1, .L8+16
 965              	.LBE297:
 966              	.LBE307:
 967              		.loc 1 121 3 view .LVU236
 968 0014 C3F80080 		str	r8, [r3]
 969              		.loc 1 123 5 is_stmt 1 view .LVU237
 970              	.LVL55:
 971              	.LBB308:
 972              	.LBI294:
 973              		.loc 2 381 20 view .LVU238
 974              	.LBB298:
 975              		.loc 2 383 3 view .LVU239
 976 0018 FFF7FEFF 		bl	test_printf
 977              	.LVL56:
 978              		.loc 2 383 3 is_stmt 0 view .LVU240
 979              	.LBE298:
 980              	.LBE308:
 981              		.loc 1 124 5 is_stmt 1 view .LVU241
 982              	.LBB309:
 983              	.LBI299:
 984              		.loc 2 369 20 view .LVU242
 985              	.LBB301:
ARM GAS  C:\Users\DEVELO~1\AppData\Local\Temp\ccj9sl6p.s 			page 20


 986              		.loc 2 371 3 view .LVU243
 987              	.LBE301:
 988              	.LBE309:
 989              	.LBB310:
 990              	.LBB311:
 991              		.loc 2 383 3 is_stmt 0 view .LVU244
 992 001c 224E     		ldr	r6, .L8+20
 993              	.LBE311:
 994              	.LBE310:
 995              	.LBB313:
 996              	.LBB302:
 997              		.loc 2 371 3 view .LVU245
 998 001e 2846     		mov	r0, r5
 999 0020 2249     		ldr	r1, .L8+24
 1000 0022 FFF7FEFF 		bl	test_printf
 1001              	.LVL57:
 1002              		.loc 2 371 3 view .LVU246
 1003              	.LBE302:
 1004              	.LBE313:
 1005              		.loc 1 125 5 is_stmt 1 view .LVU247
 1006              	.LBB314:
 1007              	.LBI304:
 1008              		.loc 2 357 20 view .LVU248
 1009              	.LBB306:
 1010              		.loc 2 359 3 view .LVU249
 1011 0026 0021     		movs	r1, #0
 1012 0028 3846     		mov	r0, r7
 1013 002a FFF7FEFF 		bl	test_printf
 1014              	.LVL58:
 1015              		.loc 2 359 3 is_stmt 0 view .LVU250
 1016              	.LBE306:
 1017              	.LBE314:
 1018              		.loc 1 126 5 is_stmt 1 view .LVU251
 1019              	.LBB315:
 1020              	.LBI310:
 1021              		.loc 2 381 20 view .LVU252
 1022              	.LBB312:
 1023              		.loc 2 383 3 view .LVU253
 1024 002e 3146     		mov	r1, r6
 1025 0030 2046     		mov	r0, r4
 1026 0032 FFF7FEFF 		bl	test_printf
 1027              	.LVL59:
 1028              		.loc 2 383 3 is_stmt 0 view .LVU254
 1029              	.LBE312:
 1030              	.LBE315:
 1031              		.loc 1 127 5 is_stmt 1 view .LVU255
 1032              	.LBB316:
 1033              	.LBI316:
 1034              		.loc 2 369 20 view .LVU256
 1035              	.LBB317:
 1036              		.loc 2 371 3 view .LVU257
 1037 0036 1E49     		ldr	r1, .L8+28
 1038 0038 2846     		mov	r0, r5
 1039 003a FFF7FEFF 		bl	test_printf
 1040              	.LVL60:
 1041              		.loc 2 371 3 is_stmt 0 view .LVU258
 1042              	.LBE317:
ARM GAS  C:\Users\DEVELO~1\AppData\Local\Temp\ccj9sl6p.s 			page 21


 1043              	.LBE316:
 1044              		.loc 1 128 5 is_stmt 1 view .LVU259
 1045              	.LBB318:
 1046              	.LBI318:
 1047              		.loc 2 381 20 view .LVU260
 1048              	.LBB319:
 1049              		.loc 2 383 3 view .LVU261
 1050 003e 1D49     		ldr	r1, .L8+32
 1051 0040 2046     		mov	r0, r4
 1052 0042 FFF7FEFF 		bl	test_printf
 1053              	.LVL61:
 1054              		.loc 2 383 3 is_stmt 0 view .LVU262
 1055              	.LBE319:
 1056              	.LBE318:
 1057              		.loc 1 129 5 is_stmt 1 view .LVU263
 1058              	.LBB320:
 1059              	.LBI320:
 1060              		.loc 2 369 20 view .LVU264
 1061              	.LBB321:
 1062              		.loc 2 371 3 view .LVU265
 1063 0046 1C49     		ldr	r1, .L8+36
 1064 0048 2846     		mov	r0, r5
 1065 004a FFF7FEFF 		bl	test_printf
 1066              	.LVL62:
 1067              		.loc 2 371 3 is_stmt 0 view .LVU266
 1068              	.LBE321:
 1069              	.LBE320:
 1070              		.loc 1 130 5 is_stmt 1 view .LVU267
 1071              	.LBB322:
 1072              	.LBI322:
 1073              		.loc 2 357 20 view .LVU268
 1074              	.LBB323:
 1075              		.loc 2 359 3 view .LVU269
 1076 004e 4146     		mov	r1, r8
 1077 0050 3846     		mov	r0, r7
 1078 0052 FFF7FEFF 		bl	test_printf
 1079              	.LVL63:
 1080              		.loc 2 359 3 is_stmt 0 view .LVU270
 1081              	.LBE323:
 1082              	.LBE322:
 1083              		.loc 1 131 5 is_stmt 1 view .LVU271
 1084              	.LBB324:
 1085              	.LBI324:
 1086              		.loc 2 381 20 view .LVU272
 1087              	.LBB325:
 1088              		.loc 2 383 3 view .LVU273
 1089 0056 3146     		mov	r1, r6
 1090 0058 2046     		mov	r0, r4
 1091 005a FFF7FEFF 		bl	test_printf
 1092              	.LVL64:
 1093              		.loc 2 383 3 is_stmt 0 view .LVU274
 1094              	.LBE325:
 1095              	.LBE324:
 1096              		.loc 1 132 5 is_stmt 1 view .LVU275
 1097              	.LBB326:
 1098              	.LBI326:
 1099              		.loc 2 369 20 view .LVU276
ARM GAS  C:\Users\DEVELO~1\AppData\Local\Temp\ccj9sl6p.s 			page 22


 1100              	.LBB327:
 1101              		.loc 2 371 3 view .LVU277
 1102 005e 1749     		ldr	r1, .L8+40
 1103 0060 2846     		mov	r0, r5
 1104 0062 FFF7FEFF 		bl	test_printf
 1105              	.LVL65:
 1106              		.loc 2 371 3 is_stmt 0 view .LVU278
 1107              	.LBE327:
 1108              	.LBE326:
 1109              		.loc 1 133 5 is_stmt 1 view .LVU279
 1110              	.LBB328:
 1111              	.LBI328:
 1112              		.loc 2 357 20 view .LVU280
 1113              	.LBB329:
 1114              		.loc 2 359 3 view .LVU281
 1115 0066 0421     		movs	r1, #4
 1116 0068 3846     		mov	r0, r7
 1117 006a FFF7FEFF 		bl	test_printf
 1118              	.LVL66:
 1119              		.loc 2 359 3 is_stmt 0 view .LVU282
 1120              	.LBE329:
 1121              	.LBE328:
 1122              		.loc 1 134 5 is_stmt 1 view .LVU283
 1123              	.LBB330:
 1124              	.LBI330:
 1125              		.loc 2 381 20 view .LVU284
 1126              	.LBB331:
 1127              		.loc 2 383 3 view .LVU285
 1128 006e 3146     		mov	r1, r6
 1129 0070 2046     		mov	r0, r4
 1130 0072 FFF7FEFF 		bl	test_printf
 1131              	.LVL67:
 1132              		.loc 2 383 3 is_stmt 0 view .LVU286
 1133              	.LBE331:
 1134              	.LBE330:
 1135              		.loc 1 135 5 is_stmt 1 view .LVU287
 1136              	.LBB332:
 1137              	.LBI332:
 1138              		.loc 2 369 20 view .LVU288
 1139              	.LBB333:
 1140              		.loc 2 371 3 view .LVU289
 1141 0076 1249     		ldr	r1, .L8+44
 1142 0078 2846     		mov	r0, r5
 1143 007a FFF7FEFF 		bl	test_printf
 1144              	.LVL68:
 1145              		.loc 2 371 3 is_stmt 0 view .LVU290
 1146              	.LBE333:
 1147              	.LBE332:
 1148              		.loc 1 136 5 is_stmt 1 view .LVU291
 1149              	.LBB334:
 1150              	.LBI334:
 1151              		.loc 2 357 20 view .LVU292
 1152              	.LBB335:
 1153              		.loc 2 359 3 view .LVU293
 1154 007e 0021     		movs	r1, #0
 1155 0080 3846     		mov	r0, r7
 1156 0082 FFF7FEFF 		bl	test_printf
ARM GAS  C:\Users\DEVELO~1\AppData\Local\Temp\ccj9sl6p.s 			page 23


 1157              	.LVL69:
 1158              		.loc 2 359 3 is_stmt 0 view .LVU294
 1159              	.LBE335:
 1160              	.LBE334:
 1161              		.loc 1 137 5 is_stmt 1 view .LVU295
 1162              	.LBB336:
 1163              	.LBI336:
 1164              		.loc 2 381 20 view .LVU296
 1165              	.LBB337:
 1166              		.loc 2 383 3 view .LVU297
 1167 0086 3146     		mov	r1, r6
 1168 0088 2046     		mov	r0, r4
 1169              	.LBE337:
 1170              	.LBE336:
 1171              		.loc 1 140 1 is_stmt 0 view .LVU298
 1172 008a BDE8F041 		pop	{r4, r5, r6, r7, r8, lr}
 1173              		.cfi_restore 14
 1174              		.cfi_restore 8
 1175              		.cfi_restore 7
 1176              		.cfi_restore 6
 1177              		.cfi_restore 5
 1178              		.cfi_restore 4
 1179              		.cfi_def_cfa_offset 0
 1180              	.LBB339:
 1181              	.LBB338:
 1182              		.loc 2 383 3 view .LVU299
 1183 008e FFF7FEBF 		b	test_printf
 1184              	.LVL70:
 1185              	.L9:
 1186 0092 00BF     		.align	2
 1187              	.L8:
 1188 0094 38000000 		.word	.LC4
 1189 0098 00000000 		.word	chtest
 1190 009c 2C000000 		.word	.LC1
 1191 00a0 30000000 		.word	.LC2
 1192 00a4 00000000 		.word	.LC22
 1193 00a8 34000000 		.word	.LC3
 1194 00ac 34000000 		.word	.LC23
 1195 00b0 60000000 		.word	.LC24
 1196 00b4 8C000000 		.word	.LC25
 1197 00b8 94000000 		.word	.LC26
 1198 00bc C0000000 		.word	.LC27
 1199 00c0 EC000000 		.word	.LC28
 1200              	.LBE338:
 1201              	.LBE339:
 1202              		.cfi_endproc
 1203              	.LFE453:
 1204              		.size	oslib_test_001_002_execute, .-oslib_test_001_002_execute
 1205              		.section	.rodata.oslib_test_001_001_execute.str1.4,"aMS",%progbits,1
 1206              		.align	2
 1207              	.LC29:
 1208 0000 2D2D2D20 		.ascii	"--- Architecture:                       \000"
 1208      41726368 
 1208      69746563 
 1208      74757265 
 1208      3A202020 
 1209 0029 000000   		.align	2
ARM GAS  C:\Users\DEVELO~1\AppData\Local\Temp\ccj9sl6p.s 			page 24


 1210              	.LC30:
 1211 002c 41524D76 		.ascii	"ARMv7E-M\000"
 1211      37452D4D 
 1211      00
 1212 0035 000000   		.align	2
 1213              	.LC31:
 1214 0038 2D2D2D20 		.ascii	"--- Core Variant:                       \000"
 1214      436F7265 
 1214      20566172 
 1214      69616E74 
 1214      3A202020 
 1215 0061 000000   		.align	2
 1216              	.LC32:
 1217 0064 436F7274 		.ascii	"Cortex-M7\000"
 1217      65782D4D 
 1217      3700
 1218 006e 0000     		.align	2
 1219              	.LC33:
 1220 0070 2D2D2D20 		.ascii	"--- Compiler:                           \000"
 1220      436F6D70 
 1220      696C6572 
 1220      3A202020 
 1220      20202020 
 1221 0099 000000   		.align	2
 1222              	.LC34:
 1223 009c 47434320 		.ascii	"GCC 11.3.1 20220712\000"
 1223      31312E33 
 1223      2E312032 
 1223      30323230 
 1223      37313200 
 1224              		.align	2
 1225              	.LC35:
 1226 00b0 2D2D2D20 		.ascii	"--- Port Info:                          \000"
 1226      506F7274 
 1226      20496E66 
 1226      6F3A2020 
 1226      20202020 
 1227 00d9 000000   		.align	2
 1228              	.LC36:
 1229 00dc 41647661 		.ascii	"Advanced kernel mode\000"
 1229      6E636564 
 1229      206B6572 
 1229      6E656C20 
 1229      6D6F6465 
 1230 00f1 000000   		.align	2
 1231              	.LC37:
 1232 00f4 2D2D2D20 		.ascii	"--- Natural alignment:                  \000"
 1232      4E617475 
 1232      72616C20 
 1232      616C6967 
 1232      6E6D656E 
 1233 011d 000000   		.align	2
 1234              	.LC38:
 1235 0120 2D2D2D20 		.ascii	"--- Stack alignment:                    \000"
 1235      53746163 
 1235      6B20616C 
 1235      69676E6D 
ARM GAS  C:\Users\DEVELO~1\AppData\Local\Temp\ccj9sl6p.s 			page 25


 1235      656E743A 
 1236 0149 000000   		.align	2
 1237              	.LC39:
 1238 014c 2D2D2D20 		.ascii	"--- Working area alignment:             \000"
 1238      576F726B 
 1238      696E6720 
 1238      61726561 
 1238      20616C69 
 1239              		.section	.text.oslib_test_001_001_execute,"ax",%progbits
 1240              		.align	1
 1241              		.p2align 4,,15
 1242              		.syntax unified
 1243              		.thumb
 1244              		.thumb_func
 1245              		.type	oslib_test_001_001_execute, %function
 1246              	oslib_test_001_001_execute:
 1247              	.LFB452:
 1248              		.loc 1 60 46 is_stmt 1 view -0
 1249              		.cfi_startproc
 1250              		@ args = 0, pretend = 0, frame = 0
 1251              		@ frame_needed = 0, uses_anonymous_args = 0
 1252              		.loc 1 63 3 view .LVU301
 1253              		.loc 1 60 46 is_stmt 0 view .LVU302
 1254 0000 F8B5     		push	{r3, r4, r5, r6, r7, lr}
 1255              		.cfi_def_cfa_offset 24
 1256              		.cfi_offset 3, -24
 1257              		.cfi_offset 4, -20
 1258              		.cfi_offset 5, -16
 1259              		.cfi_offset 6, -12
 1260              		.cfi_offset 7, -8
 1261              		.cfi_offset 14, -4
 1262              	.LBB340:
 1263              	.LBB341:
 1264              		.loc 2 371 3 view .LVU303
 1265 0002 264D     		ldr	r5, .L12
 1266              	.LBE341:
 1267              	.LBE340:
 1268              		.loc 1 63 3 view .LVU304
 1269 0004 0122     		movs	r2, #1
 1270 0006 264B     		ldr	r3, .L12+4
 1271              	.LBB344:
 1272              	.LBB345:
 1273              		.loc 2 383 3 view .LVU305
 1274 0008 264C     		ldr	r4, .L12+8
 1275              	.LBE345:
 1276              	.LBE344:
 1277              	.LBB347:
 1278              	.LBB342:
 1279              		.loc 2 371 3 view .LVU306
 1280 000a 2846     		mov	r0, r5
 1281 000c 2649     		ldr	r1, .L12+12
 1282              	.LBE342:
 1283              	.LBE347:
 1284              		.loc 1 63 3 view .LVU307
 1285 000e 1A60     		str	r2, [r3]
 1286              		.loc 1 66 5 is_stmt 1 view .LVU308
 1287              	.LVL71:
ARM GAS  C:\Users\DEVELO~1\AppData\Local\Temp\ccj9sl6p.s 			page 26


 1288              	.LBB348:
 1289              	.LBI340:
 1290              		.loc 2 369 20 view .LVU309
 1291              	.LBB343:
 1292              		.loc 2 371 3 view .LVU310
 1293 0010 FFF7FEFF 		bl	test_printf
 1294              	.LVL72:
 1295              		.loc 2 371 3 is_stmt 0 view .LVU311
 1296              	.LBE343:
 1297              	.LBE348:
 1298              		.loc 1 67 5 is_stmt 1 view .LVU312
 1299              	.LBB349:
 1300              	.LBI344:
 1301              		.loc 2 381 20 view .LVU313
 1302              	.LBB346:
 1303              		.loc 2 383 3 view .LVU314
 1304 0014 2549     		ldr	r1, .L12+16
 1305 0016 2046     		mov	r0, r4
 1306 0018 FFF7FEFF 		bl	test_printf
 1307              	.LVL73:
 1308              		.loc 2 383 3 is_stmt 0 view .LVU315
 1309              	.LBE346:
 1310              	.LBE349:
 1311              		.loc 1 70 5 is_stmt 1 view .LVU316
 1312              	.LBB350:
 1313              	.LBI350:
 1314              		.loc 2 369 20 view .LVU317
 1315              	.LBB351:
 1316              		.loc 2 371 3 view .LVU318
 1317 001c 2449     		ldr	r1, .L12+20
 1318 001e 2846     		mov	r0, r5
 1319              	.LBE351:
 1320              	.LBE350:
 1321              	.LBB353:
 1322              	.LBB354:
 1323              		.loc 2 359 3 is_stmt 0 view .LVU319
 1324 0020 244F     		ldr	r7, .L12+24
 1325              	.LBE354:
 1326              	.LBE353:
 1327              	.LBB356:
 1328              	.LBB352:
 1329              		.loc 2 371 3 view .LVU320
 1330 0022 FFF7FEFF 		bl	test_printf
 1331              	.LVL74:
 1332              		.loc 2 371 3 view .LVU321
 1333              	.LBE352:
 1334              	.LBE356:
 1335              		.loc 1 71 5 is_stmt 1 view .LVU322
 1336              	.LBB357:
 1337              	.LBI357:
 1338              		.loc 2 381 20 view .LVU323
 1339              	.LBB358:
 1340              		.loc 2 383 3 view .LVU324
 1341 0026 2449     		ldr	r1, .L12+28
 1342 0028 2046     		mov	r0, r4
 1343              	.LBE358:
 1344              	.LBE357:
ARM GAS  C:\Users\DEVELO~1\AppData\Local\Temp\ccj9sl6p.s 			page 27


 1345              	.LBB360:
 1346              	.LBB361:
 1347 002a 244E     		ldr	r6, .L12+32
 1348              	.LBE361:
 1349              	.LBE360:
 1350              	.LBB363:
 1351              	.LBB359:
 1352 002c FFF7FEFF 		bl	test_printf
 1353              	.LVL75:
 1354              		.loc 2 383 3 is_stmt 0 view .LVU325
 1355              	.LBE359:
 1356              	.LBE363:
 1357              		.loc 1 74 5 is_stmt 1 view .LVU326
 1358              	.LBB364:
 1359              	.LBI364:
 1360              		.loc 2 369 20 view .LVU327
 1361              	.LBB365:
 1362              		.loc 2 371 3 view .LVU328
 1363 0030 2349     		ldr	r1, .L12+36
 1364 0032 2846     		mov	r0, r5
 1365 0034 FFF7FEFF 		bl	test_printf
 1366              	.LVL76:
 1367              		.loc 2 371 3 is_stmt 0 view .LVU329
 1368              	.LBE365:
 1369              	.LBE364:
 1370              		.loc 1 75 5 is_stmt 1 view .LVU330
 1371              	.LBB366:
 1372              	.LBI366:
 1373              		.loc 2 381 20 view .LVU331
 1374              	.LBB367:
 1375              		.loc 2 383 3 view .LVU332
 1376 0038 2249     		ldr	r1, .L12+40
 1377 003a 2046     		mov	r0, r4
 1378 003c FFF7FEFF 		bl	test_printf
 1379              	.LVL77:
 1380              		.loc 2 383 3 is_stmt 0 view .LVU333
 1381              	.LBE367:
 1382              	.LBE366:
 1383              		.loc 1 78 5 is_stmt 1 view .LVU334
 1384              	.LBB368:
 1385              	.LBI368:
 1386              		.loc 2 369 20 view .LVU335
 1387              	.LBB369:
 1388              		.loc 2 371 3 view .LVU336
 1389 0040 2149     		ldr	r1, .L12+44
 1390 0042 2846     		mov	r0, r5
 1391 0044 FFF7FEFF 		bl	test_printf
 1392              	.LVL78:
 1393              		.loc 2 371 3 is_stmt 0 view .LVU337
 1394              	.LBE369:
 1395              	.LBE368:
 1396              		.loc 1 79 5 is_stmt 1 view .LVU338
 1397              	.LBB370:
 1398              	.LBI370:
 1399              		.loc 2 381 20 view .LVU339
 1400              	.LBB371:
 1401              		.loc 2 383 3 view .LVU340
ARM GAS  C:\Users\DEVELO~1\AppData\Local\Temp\ccj9sl6p.s 			page 28


 1402 0048 2049     		ldr	r1, .L12+48
 1403 004a 2046     		mov	r0, r4
 1404 004c FFF7FEFF 		bl	test_printf
 1405              	.LVL79:
 1406              		.loc 2 383 3 is_stmt 0 view .LVU341
 1407              	.LBE371:
 1408              	.LBE370:
 1409              		.loc 1 82 5 is_stmt 1 view .LVU342
 1410              	.LBB372:
 1411              	.LBI372:
 1412              		.loc 2 369 20 view .LVU343
 1413              	.LBB373:
 1414              		.loc 2 371 3 view .LVU344
 1415 0050 1F49     		ldr	r1, .L12+52
 1416 0052 2846     		mov	r0, r5
 1417 0054 FFF7FEFF 		bl	test_printf
 1418              	.LVL80:
 1419              		.loc 2 371 3 is_stmt 0 view .LVU345
 1420              	.LBE373:
 1421              	.LBE372:
 1422              		.loc 1 83 5 is_stmt 1 view .LVU346
 1423              	.LBB374:
 1424              	.LBI353:
 1425              		.loc 2 357 20 view .LVU347
 1426              	.LBB355:
 1427              		.loc 2 359 3 view .LVU348
 1428 0058 0421     		movs	r1, #4
 1429 005a 3846     		mov	r0, r7
 1430 005c FFF7FEFF 		bl	test_printf
 1431              	.LVL81:
 1432              		.loc 2 359 3 is_stmt 0 view .LVU349
 1433              	.LBE355:
 1434              	.LBE374:
 1435              		.loc 1 84 5 is_stmt 1 view .LVU350
 1436              	.LBB375:
 1437              	.LBI360:
 1438              		.loc 2 381 20 view .LVU351
 1439              	.LBB362:
 1440              		.loc 2 383 3 view .LVU352
 1441 0060 3146     		mov	r1, r6
 1442 0062 2046     		mov	r0, r4
 1443 0064 FFF7FEFF 		bl	test_printf
 1444              	.LVL82:
 1445              		.loc 2 383 3 is_stmt 0 view .LVU353
 1446              	.LBE362:
 1447              	.LBE375:
 1448              		.loc 1 87 5 is_stmt 1 view .LVU354
 1449              	.LBB376:
 1450              	.LBI376:
 1451              		.loc 2 369 20 view .LVU355
 1452              	.LBB377:
 1453              		.loc 2 371 3 view .LVU356
 1454 0068 1A49     		ldr	r1, .L12+56
 1455 006a 2846     		mov	r0, r5
 1456 006c FFF7FEFF 		bl	test_printf
 1457              	.LVL83:
 1458              		.loc 2 371 3 is_stmt 0 view .LVU357
ARM GAS  C:\Users\DEVELO~1\AppData\Local\Temp\ccj9sl6p.s 			page 29


 1459              	.LBE377:
 1460              	.LBE376:
 1461              		.loc 1 88 5 is_stmt 1 view .LVU358
 1462              	.LBB378:
 1463              	.LBI378:
 1464              		.loc 2 357 20 view .LVU359
 1465              	.LBB379:
 1466              		.loc 2 359 3 view .LVU360
 1467 0070 2021     		movs	r1, #32
 1468 0072 3846     		mov	r0, r7
 1469 0074 FFF7FEFF 		bl	test_printf
 1470              	.LVL84:
 1471              		.loc 2 359 3 is_stmt 0 view .LVU361
 1472              	.LBE379:
 1473              	.LBE378:
 1474              		.loc 1 89 5 is_stmt 1 view .LVU362
 1475              	.LBB380:
 1476              	.LBI380:
 1477              		.loc 2 381 20 view .LVU363
 1478              	.LBB381:
 1479              		.loc 2 383 3 view .LVU364
 1480 0078 3146     		mov	r1, r6
 1481 007a 2046     		mov	r0, r4
 1482 007c FFF7FEFF 		bl	test_printf
 1483              	.LVL85:
 1484              		.loc 2 383 3 is_stmt 0 view .LVU365
 1485              	.LBE381:
 1486              	.LBE380:
 1487              		.loc 1 92 5 is_stmt 1 view .LVU366
 1488              	.LBB382:
 1489              	.LBI382:
 1490              		.loc 2 369 20 view .LVU367
 1491              	.LBB383:
 1492              		.loc 2 371 3 view .LVU368
 1493 0080 1549     		ldr	r1, .L12+60
 1494 0082 2846     		mov	r0, r5
 1495 0084 FFF7FEFF 		bl	test_printf
 1496              	.LVL86:
 1497              		.loc 2 371 3 is_stmt 0 view .LVU369
 1498              	.LBE383:
 1499              	.LBE382:
 1500              		.loc 1 93 5 is_stmt 1 view .LVU370
 1501              	.LBB384:
 1502              	.LBI384:
 1503              		.loc 2 357 20 view .LVU371
 1504              	.LBB385:
 1505              		.loc 2 359 3 view .LVU372
 1506 0088 2021     		movs	r1, #32
 1507 008a 3846     		mov	r0, r7
 1508 008c FFF7FEFF 		bl	test_printf
 1509              	.LVL87:
 1510              		.loc 2 359 3 is_stmt 0 view .LVU373
 1511              	.LBE385:
 1512              	.LBE384:
 1513              		.loc 1 94 5 is_stmt 1 view .LVU374
 1514              	.LBB386:
 1515              	.LBI386:
ARM GAS  C:\Users\DEVELO~1\AppData\Local\Temp\ccj9sl6p.s 			page 30


 1516              		.loc 2 381 20 view .LVU375
 1517              	.LBB387:
 1518              		.loc 2 383 3 view .LVU376
 1519 0090 3146     		mov	r1, r6
 1520 0092 2046     		mov	r0, r4
 1521              	.LBE387:
 1522              	.LBE386:
 1523              		.loc 1 98 1 is_stmt 0 view .LVU377
 1524 0094 BDE8F840 		pop	{r3, r4, r5, r6, r7, lr}
 1525              		.cfi_restore 14
 1526              		.cfi_restore 7
 1527              		.cfi_restore 6
 1528              		.cfi_restore 5
 1529              		.cfi_restore 4
 1530              		.cfi_restore 3
 1531              		.cfi_def_cfa_offset 0
 1532              	.LBB389:
 1533              	.LBB388:
 1534              		.loc 2 383 3 view .LVU378
 1535 0098 FFF7FEBF 		b	test_printf
 1536              	.LVL88:
 1537              	.L13:
 1538              		.align	2
 1539              	.L12:
 1540 009c 2C000000 		.word	.LC1
 1541 00a0 00000000 		.word	chtest
 1542 00a4 38000000 		.word	.LC4
 1543 00a8 00000000 		.word	.LC29
 1544 00ac 2C000000 		.word	.LC30
 1545 00b0 38000000 		.word	.LC31
 1546 00b4 30000000 		.word	.LC2
 1547 00b8 64000000 		.word	.LC32
 1548 00bc 34000000 		.word	.LC3
 1549 00c0 70000000 		.word	.LC33
 1550 00c4 9C000000 		.word	.LC34
 1551 00c8 B0000000 		.word	.LC35
 1552 00cc DC000000 		.word	.LC36
 1553 00d0 F4000000 		.word	.LC37
 1554 00d4 20010000 		.word	.LC38
 1555 00d8 4C010000 		.word	.LC39
 1556              	.LBE388:
 1557              	.LBE389:
 1558              		.cfi_endproc
 1559              	.LFE452:
 1560              		.size	oslib_test_001_001_execute, .-oslib_test_001_001_execute
 1561              		.global	oslib_test_sequence_001
 1562              		.section	.rodata.str1.4,"aMS",%progbits,1
 1563              		.align	2
 1564              	.LC40:
 1565 0000 496E666F 		.ascii	"Information\000"
 1565      726D6174 
 1565      696F6E00 
 1566              		.global	oslib_test_sequence_001_array
 1567              		.align	2
 1568              	.LC41:
 1569 000c 4F53204C 		.ascii	"OS Library Settings\000"
 1569      69627261 
ARM GAS  C:\Users\DEVELO~1\AppData\Local\Temp\ccj9sl6p.s 			page 31


 1569      72792053 
 1569      65747469 
 1569      6E677300 
 1570              		.align	2
 1571              	.LC42:
 1572 0020 4F53204C 		.ascii	"OS Library Info\000"
 1572      69627261 
 1572      72792049 
 1572      6E666F00 
 1573              		.align	2
 1574              	.LC43:
 1575 0030 506F7274 		.ascii	"Port Info\000"
 1575      20496E66 
 1575      6F00
 1576              		.section	.rodata.oslib_test_001_001,"a"
 1577              		.align	2
 1578              		.type	oslib_test_001_001, %object
 1579              		.size	oslib_test_001_001, 16
 1580              	oslib_test_001_001:
 1581 0000 30000000 		.word	.LC43
 1582 0004 00000000 		.word	0
 1583 0008 00000000 		.word	0
 1584 000c 00000000 		.word	oslib_test_001_001_execute
 1585              		.section	.rodata.oslib_test_001_002,"a"
 1586              		.align	2
 1587              		.type	oslib_test_001_002, %object
 1588              		.size	oslib_test_001_002, 16
 1589              	oslib_test_001_002:
 1590 0000 20000000 		.word	.LC42
 1591 0004 00000000 		.word	0
 1592 0008 00000000 		.word	0
 1593 000c 00000000 		.word	oslib_test_001_002_execute
 1594              		.section	.rodata.oslib_test_001_003,"a"
 1595              		.align	2
 1596              		.type	oslib_test_001_003, %object
 1597              		.size	oslib_test_001_003, 16
 1598              	oslib_test_001_003:
 1599 0000 0C000000 		.word	.LC41
 1600 0004 00000000 		.word	0
 1601 0008 00000000 		.word	0
 1602 000c 00000000 		.word	oslib_test_001_003_execute
 1603              		.section	.rodata.oslib_test_sequence_001,"a"
 1604              		.align	2
 1605              		.type	oslib_test_sequence_001, %object
 1606              		.size	oslib_test_sequence_001, 8
 1607              	oslib_test_sequence_001:
 1608 0000 00000000 		.word	.LC40
 1609 0004 00000000 		.word	oslib_test_sequence_001_array
 1610              		.section	.rodata.oslib_test_sequence_001_array,"a"
 1611              		.align	2
 1612              		.type	oslib_test_sequence_001_array, %object
 1613              		.size	oslib_test_sequence_001_array, 16
 1614              	oslib_test_sequence_001_array:
 1615 0000 00000000 		.word	oslib_test_001_001
 1616 0004 00000000 		.word	oslib_test_001_002
 1617 0008 00000000 		.word	oslib_test_001_003
 1618 000c 00000000 		.word	0
ARM GAS  C:\Users\DEVELO~1\AppData\Local\Temp\ccj9sl6p.s 			page 32


 1619              		.text
 1620              	.Letext0:
 1621              		.file 3 "c:\\chibistudio\\tools\\gnu tools arm embedded\\11.3 2022.08\\lib\\gcc\\arm-none-eabi\\11
 1622              		.file 4 "c:\\chibistudio\\tools\\gnu tools arm embedded\\11.3 2022.08\\arm-none-eabi\\include\\mac
 1623              		.file 5 "c:\\chibistudio\\tools\\gnu tools arm embedded\\11.3 2022.08\\arm-none-eabi\\include\\sys
 1624              		.file 6 "./ChibiOS/os/rt/include/chearly.h"
 1625              		.file 7 "./ChibiOS/os/hal/include/hal_streams.h"
 1626              		.file 8 "./ChibiOS/test/oslib/source/test/oslib_test_sequence_001.h"