ARM GAS  C:\Users\DEVELO~1\AppData\Local\Temp\cc5wr7T7.s 			page 1


   1              		.cpu cortex-m7
   2              		.arch armv7e-m
   3              		.fpu softvfp
   4              		.eabi_attribute 20, 1
   5              		.eabi_attribute 21, 1
   6              		.eabi_attribute 23, 3
   7              		.eabi_attribute 24, 1
   8              		.eabi_attribute 25, 1
   9              		.eabi_attribute 26, 1
  10              		.eabi_attribute 30, 2
  11              		.eabi_attribute 34, 1
  12              		.eabi_attribute 18, 4
  13              		.file	"oslib_test_sequence_002.c"
  14              		.text
  15              	.Ltext0:
  16              		.cfi_sections	.debug_frame
  17              		.section	.text.oslib_test_002_001_teardown,"ax",%progbits
  18              		.align	1
  19              		.p2align 4,,15
  20              		.syntax unified
  21              		.thumb
  22              		.thumb_func
  23              		.type	oslib_test_002_001_teardown, %function
  24              	oslib_test_002_001_teardown:
  25              	.LFB436:
  26              		.file 1 "../../../test/oslib/source/test/oslib_test_sequence_002.c"
  27              		.loc 1 90 47 view -0
  28              		.cfi_startproc
  29              		@ args = 0, pretend = 0, frame = 0
  30              		@ frame_needed = 0, uses_anonymous_args = 0
  31              		@ link register save eliminated.
  32              		.loc 1 91 3 view .LVU1
  33 0000 0148     		ldr	r0, .L3
  34 0002 FFF7FEBF 		b	chMBReset
  35              	.LVL0:
  36              	.L4:
  37 0006 00BF     		.align	2
  38              	.L3:
  39 0008 00000000 		.word	.LANCHOR0
  40              		.cfi_endproc
  41              	.LFE436:
  42              		.size	oslib_test_002_001_teardown, .-oslib_test_002_001_teardown
  43              		.section	.rodata.oslib_test_002_003_execute.str1.4,"aMS",%progbits,1
  44              		.align	2
  45              	.LC0:
  46 0000 77726F6E 		.ascii	"wrong wake-up message\000"
  46      67207761 
  46      6B652D75 
  46      70206D65 
  46      73736167 
  47              		.section	.text.oslib_test_002_003_execute,"ax",%progbits
  48              		.align	1
  49              		.p2align 4,,15
  50              		.syntax unified
  51              		.thumb
  52              		.thumb_func
  53              		.type	oslib_test_002_003_execute, %function
ARM GAS  C:\Users\DEVELO~1\AppData\Local\Temp\cc5wr7T7.s 			page 2


  54              	oslib_test_002_003_execute:
  55              	.LFB443:
  56              		.loc 1 351 46 view -0
  57              		.cfi_startproc
  58              		@ args = 0, pretend = 0, frame = 8
  59              		@ frame_needed = 0, uses_anonymous_args = 0
  60              		.loc 1 352 3 view .LVU3
  61              		.loc 1 353 3 view .LVU4
  62              		.loc 1 356 3 view .LVU5
  63              		.loc 1 351 46 is_stmt 0 view .LVU6
  64 0000 F0B5     		push	{r4, r5, r6, r7, lr}
  65              		.cfi_def_cfa_offset 20
  66              		.cfi_offset 4, -20
  67              		.cfi_offset 5, -16
  68              		.cfi_offset 6, -12
  69              		.cfi_offset 7, -8
  70              		.cfi_offset 14, -4
  71              		.loc 1 356 3 view .LVU7
  72 0002 0123     		movs	r3, #1
  73 0004 444F     		ldr	r7, .L13
  74              		.loc 1 351 46 view .LVU8
  75 0006 83B0     		sub	sp, sp, #12
  76              		.cfi_def_cfa_offset 32
  77              		.loc 1 356 3 view .LVU9
  78 0008 4224     		movs	r4, #66
  79 000a 444D     		ldr	r5, .L13+4
  80              		.loc 1 360 7 view .LVU10
  81 000c 444E     		ldr	r6, .L13+8
  82              		.loc 1 356 3 view .LVU11
  83 000e 3B60     		str	r3, [r7]
  84              		.loc 1 358 5 is_stmt 1 view .LVU12
  85              	.LVL1:
  86              		.loc 1 358 19 view .LVU13
  87              	.L8:
  88              		.loc 1 359 7 view .LVU14
  89              		.loc 1 359 14 is_stmt 0 view .LVU15
  90 0010 2146     		mov	r1, r4
  91 0012 4FF0FF32 		mov	r2, #-1
  92 0016 2846     		mov	r0, r5
  93              		.loc 1 358 19 view .LVU16
  94 0018 0134     		adds	r4, r4, #1
  95              	.LVL2:
  96              		.loc 1 359 14 view .LVU17
  97 001a FFF7FEFF 		bl	chMBPostTimeout
  98              	.LVL3:
  99              		.loc 1 360 7 is_stmt 1 view .LVU18
 100 001e B0FA80F0 		clz	r0, r0
 101              	.LVL4:
 102              		.loc 1 360 7 is_stmt 0 view .LVU19
 103 0022 3146     		mov	r1, r6
 104 0024 4009     		lsrs	r0, r0, #5
 105 0026 FFF7FEFF 		bl	__test_assert
 106              	.LVL5:
 107              		.loc 1 360 59 is_stmt 1 view .LVU20
 108              		.loc 1 358 31 view .LVU21
 109              		.loc 1 358 19 view .LVU22
 110              		.loc 1 360 7 is_stmt 0 view .LVU23
ARM GAS  C:\Users\DEVELO~1\AppData\Local\Temp\cc5wr7T7.s 			page 3


 111 002a 90B9     		cbnz	r0, .L5
 112              		.loc 1 358 19 discriminator 2 view .LVU24
 113 002c 462C     		cmp	r4, #70
 114 002e EFD1     		bne	.L8
 115              		.loc 1 363 3 is_stmt 1 view .LVU25
 116              		.loc 1 363 19 view .LVU26
 117              		.loc 1 367 3 view .LVU27
 118 0030 0223     		movs	r3, #2
 119              		.loc 1 369 12 is_stmt 0 view .LVU28
 120 0032 0122     		movs	r2, #1
 121 0034 5821     		movs	r1, #88
 122 0036 3948     		ldr	r0, .L13+4
 123              		.loc 1 367 3 view .LVU29
 124 0038 3B60     		str	r3, [r7]
 125              		.loc 1 369 5 is_stmt 1 view .LVU30
 126              		.loc 1 369 12 is_stmt 0 view .LVU31
 127 003a FFF7FEFF 		bl	chMBPostTimeout
 128              	.LVL6:
 129              		.loc 1 370 5 is_stmt 1 view .LVU32
 130 003e A0F1FF30 		sub	r0, r0, #-1
 131              	.LVL7:
 132              		.loc 1 370 5 is_stmt 0 view .LVU33
 133 0042 3749     		ldr	r1, .L13+8
 134 0044 B0FA80F0 		clz	r0, r0
 135              	.LVL8:
 136              		.loc 1 370 5 view .LVU34
 137 0048 4009     		lsrs	r0, r0, #5
 138 004a FFF7FEFF 		bl	__test_assert
 139              	.LVL9:
 140 004e 0446     		mov	r4, r0
 141 0050 08B1     		cbz	r0, .L12
 142              	.L5:
 143              		.loc 1 404 1 view .LVU35
 144 0052 03B0     		add	sp, sp, #12
 145              		.cfi_remember_state
 146              		.cfi_def_cfa_offset 20
 147              		@ sp needed
 148 0054 F0BD     		pop	{r4, r5, r6, r7, pc}
 149              	.L12:
 150              		.cfi_restore_state
 151              		.loc 1 370 62 is_stmt 1 view .LVU36
 152              		.loc 1 371 5 view .LVU37
 153              	.LBB1004:
 154              	.LBI1004:
 155              		.file 2 "../../../os/rt/include/chsys.h"
 156              		.loc 2 407 20 view .LVU38
 157              		.loc 2 409 3 view .LVU39
 158              	.LBB1005:
 159              	.LBI1005:
 160              		.file 3 "../../../os/common/ports/ARMv7-M/chcore.h"
 161              		.loc 3 806 27 view .LVU40
 162              		.loc 3 814 3 view .LVU41
 163              	.LVL10:
 164              	.LBB1006:
 165              	.LBI1006:
 166              		.file 4 "../../../os/common/ext/ARM/CMSIS/Core/Include/cmsis_gcc.h"
 167              		.loc 4 491 27 view .LVU42
ARM GAS  C:\Users\DEVELO~1\AppData\Local\Temp\cc5wr7T7.s 			page 4


 168              	.LBB1007:
 169              		.loc 4 493 3 view .LVU43
 170 0056 3026     		movs	r6, #48
 171              		.syntax unified
 172              	@ 493 "../../../os/common/ext/ARM/CMSIS/Core/Include/cmsis_gcc.h" 1
 173 0058 86F31188 		MSR basepri, r6
 174              	@ 0 "" 2
 175              	.LVL11:
 176              		.loc 4 493 3 is_stmt 0 view .LVU44
 177              		.thumb
 178              		.syntax unified
 179              	.LBE1007:
 180              	.LBE1006:
 181              	.LBE1005:
 182              		.loc 2 410 35 is_stmt 1 view .LVU45
 183              		.loc 2 411 21 view .LVU46
 184              	.LBE1004:
 185              		.loc 1 372 5 view .LVU47
 186              		.loc 1 372 12 is_stmt 0 view .LVU48
 187 005c 5821     		movs	r1, #88
 188 005e 2F48     		ldr	r0, .L13+4
 189 0060 FFF7FEFF 		bl	chMBPostI
 190              	.LVL12:
 191              		.loc 1 373 5 is_stmt 1 view .LVU49
 192              	.LBB1008:
 193              	.LBI1008:
 194              		.loc 2 421 20 view .LVU50
 195              	.LBB1009:
 196              		.loc 2 423 23 view .LVU51
 197              		.loc 2 424 34 view .LVU52
 198              		.loc 2 430 3 view .LVU53
 199              		.loc 2 430 3 view .LVU54
 200              		.loc 2 430 3 view .LVU55
 201              		.loc 2 434 3 view .LVU56
 202              	.LBB1010:
 203              	.LBI1010:
 204              		.loc 3 830 27 view .LVU57
 205              		.loc 3 833 3 view .LVU58
 206              	.LBB1011:
 207              	.LBI1011:
 208              		.loc 4 491 27 view .LVU59
 209              	.LBB1012:
 210              		.loc 4 493 3 view .LVU60
 211              		.syntax unified
 212              	@ 493 "../../../os/common/ext/ARM/CMSIS/Core/Include/cmsis_gcc.h" 1
 213 0064 84F31188 		MSR basepri, r4
 214              	@ 0 "" 2
 215              	.LVL13:
 216              		.loc 4 493 3 is_stmt 0 view .LVU61
 217              		.thumb
 218              		.syntax unified
 219              	.LBE1012:
 220              	.LBE1011:
 221              	.LBE1010:
 222              	.LBE1009:
 223              	.LBE1008:
 224              		.loc 1 374 5 is_stmt 1 view .LVU62
ARM GAS  C:\Users\DEVELO~1\AppData\Local\Temp\cc5wr7T7.s 			page 5


 225 0068 A0F1FF30 		sub	r0, r0, #-1
 226              	.LVL14:
 227              		.loc 1 374 5 is_stmt 0 view .LVU63
 228 006c 2C49     		ldr	r1, .L13+8
 229 006e B0FA80F0 		clz	r0, r0
 230              	.LVL15:
 231              		.loc 1 374 5 view .LVU64
 232 0072 4009     		lsrs	r0, r0, #5
 233 0074 FFF7FEFF 		bl	__test_assert
 234              	.LVL16:
 235 0078 0028     		cmp	r0, #0
 236 007a EAD1     		bne	.L5
 237              		.loc 1 374 62 is_stmt 1 discriminator 2 view .LVU65
 238              		.loc 1 375 5 discriminator 2 view .LVU66
 239              		.loc 1 375 12 is_stmt 0 discriminator 2 view .LVU67
 240 007c 0122     		movs	r2, #1
 241 007e 5821     		movs	r1, #88
 242 0080 2648     		ldr	r0, .L13+4
 243 0082 FFF7FEFF 		bl	chMBPostAheadTimeout
 244              	.LVL17:
 245              		.loc 1 376 5 is_stmt 1 discriminator 2 view .LVU68
 246 0086 A0F1FF30 		sub	r0, r0, #-1
 247              	.LVL18:
 248              		.loc 1 376 5 is_stmt 0 discriminator 2 view .LVU69
 249 008a 2549     		ldr	r1, .L13+8
 250 008c B0FA80F0 		clz	r0, r0
 251              	.LVL19:
 252              		.loc 1 376 5 discriminator 2 view .LVU70
 253 0090 4009     		lsrs	r0, r0, #5
 254 0092 FFF7FEFF 		bl	__test_assert
 255              	.LVL20:
 256 0096 0446     		mov	r4, r0
 257 0098 0028     		cmp	r0, #0
 258 009a DAD1     		bne	.L5
 259              		.loc 1 376 62 is_stmt 1 view .LVU71
 260              		.loc 1 377 5 view .LVU72
 261              	.LBB1013:
 262              	.LBI1013:
 263              		.loc 2 407 20 view .LVU73
 264              		.loc 2 409 3 view .LVU74
 265              	.LBB1014:
 266              	.LBI1014:
 267              		.loc 3 806 27 view .LVU75
 268              		.loc 3 814 3 view .LVU76
 269              	.LVL21:
 270              	.LBB1015:
 271              	.LBI1015:
 272              		.loc 4 491 27 view .LVU77
 273              	.LBB1016:
 274              		.loc 4 493 3 view .LVU78
 275              		.syntax unified
 276              	@ 493 "../../../os/common/ext/ARM/CMSIS/Core/Include/cmsis_gcc.h" 1
 277 009c 86F31188 		MSR basepri, r6
 278              	@ 0 "" 2
 279              	.LVL22:
 280              		.loc 4 493 3 is_stmt 0 view .LVU79
 281              		.thumb
ARM GAS  C:\Users\DEVELO~1\AppData\Local\Temp\cc5wr7T7.s 			page 6


 282              		.syntax unified
 283              	.LBE1016:
 284              	.LBE1015:
 285              	.LBE1014:
 286              		.loc 2 410 35 is_stmt 1 view .LVU80
 287              		.loc 2 411 21 view .LVU81
 288              	.LBE1013:
 289              		.loc 1 378 5 view .LVU82
 290              		.loc 1 378 12 is_stmt 0 view .LVU83
 291 00a0 5821     		movs	r1, #88
 292 00a2 1E48     		ldr	r0, .L13+4
 293 00a4 FFF7FEFF 		bl	chMBPostAheadI
 294              	.LVL23:
 295              		.loc 1 379 5 is_stmt 1 view .LVU84
 296              	.LBB1017:
 297              	.LBI1017:
 298              		.loc 2 421 20 view .LVU85
 299              	.LBB1018:
 300              		.loc 2 423 23 view .LVU86
 301              		.loc 2 424 34 view .LVU87
 302              		.loc 2 430 3 view .LVU88
 303              		.loc 2 430 3 view .LVU89
 304              		.loc 2 430 3 view .LVU90
 305              		.loc 2 434 3 view .LVU91
 306              	.LBB1019:
 307              	.LBI1019:
 308              		.loc 3 830 27 view .LVU92
 309              		.loc 3 833 3 view .LVU93
 310              	.LBB1020:
 311              	.LBI1020:
 312              		.loc 4 491 27 view .LVU94
 313              	.LBB1021:
 314              		.loc 4 493 3 view .LVU95
 315              		.syntax unified
 316              	@ 493 "../../../os/common/ext/ARM/CMSIS/Core/Include/cmsis_gcc.h" 1
 317 00a8 84F31188 		MSR basepri, r4
 318              	@ 0 "" 2
 319              	.LVL24:
 320              		.loc 4 493 3 is_stmt 0 view .LVU96
 321              		.thumb
 322              		.syntax unified
 323              	.LBE1021:
 324              	.LBE1020:
 325              	.LBE1019:
 326              	.LBE1018:
 327              	.LBE1017:
 328              		.loc 1 380 5 is_stmt 1 view .LVU97
 329 00ac A0F1FF30 		sub	r0, r0, #-1
 330              	.LVL25:
 331              		.loc 1 380 5 is_stmt 0 view .LVU98
 332 00b0 1B49     		ldr	r1, .L13+8
 333 00b2 B0FA80F0 		clz	r0, r0
 334              	.LVL26:
 335              		.loc 1 380 5 view .LVU99
 336 00b6 4009     		lsrs	r0, r0, #5
 337 00b8 FFF7FEFF 		bl	__test_assert
 338              	.LVL27:
ARM GAS  C:\Users\DEVELO~1\AppData\Local\Temp\cc5wr7T7.s 			page 7


 339 00bc 0446     		mov	r4, r0
 340 00be 0028     		cmp	r0, #0
 341 00c0 C7D1     		bne	.L5
 342              		.loc 1 380 62 is_stmt 1 discriminator 2 view .LVU100
 343              		.loc 1 382 3 discriminator 2 view .LVU101
 344              		.loc 1 382 19 discriminator 2 view .LVU102
 345              		.loc 1 386 3 discriminator 2 view .LVU103
 346 00c2 0323     		movs	r3, #3
 347              		.loc 1 388 5 is_stmt 0 discriminator 2 view .LVU104
 348 00c4 1548     		ldr	r0, .L13+4
 349              		.loc 1 386 3 discriminator 2 view .LVU105
 350 00c6 3B60     		str	r3, [r7]
 351              		.loc 1 388 5 is_stmt 1 discriminator 2 view .LVU106
 352 00c8 FFF7FEFF 		bl	chMBReset
 353              	.LVL28:
 354              		.loc 1 389 5 discriminator 2 view .LVU107
 355              	.LBB1022:
 356              	.LBI1022:
 357              		.file 5 "../../../os/oslib/include/chmboxes.h"
 358              		.loc 5 200 20 discriminator 2 view .LVU108
 359              	.LBB1023:
 360              		.loc 5 202 3 discriminator 2 view .LVU109
 361              	.LBE1023:
 362              	.LBE1022:
 363              		.loc 1 394 3 is_stmt 0 discriminator 2 view .LVU110
 364 00cc 0423     		movs	r3, #4
 365              		.loc 1 396 12 discriminator 2 view .LVU111
 366 00ce 0122     		movs	r2, #1
 367 00d0 1248     		ldr	r0, .L13+4
 368 00d2 0DEB0301 		add	r1, sp, r3
 369              		.loc 1 394 3 discriminator 2 view .LVU112
 370 00d6 3B60     		str	r3, [r7]
 371              	.LBB1025:
 372              	.LBB1024:
 373              		.loc 5 202 14 discriminator 2 view .LVU113
 374 00d8 2C75     		strb	r4, [r5, #20]
 375              	.LVL29:
 376              		.loc 5 202 14 discriminator 2 view .LVU114
 377              	.LBE1024:
 378              	.LBE1025:
 379              		.loc 1 391 3 is_stmt 1 discriminator 2 view .LVU115
 380              		.loc 1 391 19 discriminator 2 view .LVU116
 381              		.loc 1 394 3 discriminator 2 view .LVU117
 382              		.loc 1 396 5 discriminator 2 view .LVU118
 383              		.loc 1 396 12 is_stmt 0 discriminator 2 view .LVU119
 384 00da FFF7FEFF 		bl	chMBFetchTimeout
 385              	.LVL30:
 386              		.loc 1 397 5 is_stmt 1 discriminator 2 view .LVU120
 387 00de A0F1FF30 		sub	r0, r0, #-1
 388              	.LVL31:
 389              		.loc 1 397 5 is_stmt 0 discriminator 2 view .LVU121
 390 00e2 0F49     		ldr	r1, .L13+8
 391 00e4 B0FA80F0 		clz	r0, r0
 392              	.LVL32:
 393              		.loc 1 397 5 discriminator 2 view .LVU122
 394 00e8 4009     		lsrs	r0, r0, #5
 395 00ea FFF7FEFF 		bl	__test_assert
ARM GAS  C:\Users\DEVELO~1\AppData\Local\Temp\cc5wr7T7.s 			page 8


 396              	.LVL33:
 397 00ee 0446     		mov	r4, r0
 398 00f0 0028     		cmp	r0, #0
 399 00f2 AED1     		bne	.L5
 400              		.loc 1 397 62 is_stmt 1 view .LVU123
 401              		.loc 1 398 5 view .LVU124
 402              	.LBB1026:
 403              	.LBI1026:
 404              		.loc 2 407 20 view .LVU125
 405              		.loc 2 409 3 view .LVU126
 406              	.LBB1027:
 407              	.LBI1027:
 408              		.loc 3 806 27 view .LVU127
 409              		.loc 3 814 3 view .LVU128
 410              	.LVL34:
 411              	.LBB1028:
 412              	.LBI1028:
 413              		.loc 4 491 27 view .LVU129
 414              	.LBB1029:
 415              		.loc 4 493 3 view .LVU130
 416              		.syntax unified
 417              	@ 493 "../../../os/common/ext/ARM/CMSIS/Core/Include/cmsis_gcc.h" 1
 418 00f4 86F31188 		MSR basepri, r6
 419              	@ 0 "" 2
 420              	.LVL35:
 421              		.loc 4 493 3 is_stmt 0 view .LVU131
 422              		.thumb
 423              		.syntax unified
 424              	.LBE1029:
 425              	.LBE1028:
 426              	.LBE1027:
 427              		.loc 2 410 35 is_stmt 1 view .LVU132
 428              		.loc 2 411 21 view .LVU133
 429              	.LBE1026:
 430              		.loc 1 399 5 view .LVU134
 431              		.loc 1 399 12 is_stmt 0 view .LVU135
 432 00f8 0848     		ldr	r0, .L13+4
 433 00fa 01A9     		add	r1, sp, #4
 434 00fc FFF7FEFF 		bl	chMBFetchI
 435              	.LVL36:
 436              		.loc 1 400 5 is_stmt 1 view .LVU136
 437              	.LBB1030:
 438              	.LBI1030:
 439              		.loc 2 421 20 view .LVU137
 440              	.LBB1031:
 441              		.loc 2 423 23 view .LVU138
 442              		.loc 2 424 34 view .LVU139
 443              		.loc 2 430 3 view .LVU140
 444              		.loc 2 430 3 view .LVU141
 445              		.loc 2 430 3 view .LVU142
 446              		.loc 2 434 3 view .LVU143
 447              	.LBB1032:
 448              	.LBI1032:
 449              		.loc 3 830 27 view .LVU144
 450              		.loc 3 833 3 view .LVU145
 451              	.LBB1033:
 452              	.LBI1033:
ARM GAS  C:\Users\DEVELO~1\AppData\Local\Temp\cc5wr7T7.s 			page 9


 453              		.loc 4 491 27 view .LVU146
 454              	.LBB1034:
 455              		.loc 4 493 3 view .LVU147
 456              		.syntax unified
 457              	@ 493 "../../../os/common/ext/ARM/CMSIS/Core/Include/cmsis_gcc.h" 1
 458 0100 84F31188 		MSR basepri, r4
 459              	@ 0 "" 2
 460              	.LVL37:
 461              		.loc 4 493 3 is_stmt 0 view .LVU148
 462              		.thumb
 463              		.syntax unified
 464              	.LBE1034:
 465              	.LBE1033:
 466              	.LBE1032:
 467              	.LBE1031:
 468              	.LBE1030:
 469              		.loc 1 401 5 is_stmt 1 view .LVU149
 470 0104 A0F1FF30 		sub	r0, r0, #-1
 471              	.LVL38:
 472              		.loc 1 401 5 is_stmt 0 view .LVU150
 473 0108 0549     		ldr	r1, .L13+8
 474 010a B0FA80F0 		clz	r0, r0
 475              	.LVL39:
 476              		.loc 1 401 5 view .LVU151
 477 010e 4009     		lsrs	r0, r0, #5
 478 0110 FFF7FEFF 		bl	__test_assert
 479              	.LVL40:
 480              		.loc 1 401 5 is_stmt 1 view .LVU152
 481 0114 9DE7     		b	.L5
 482              	.L14:
 483 0116 00BF     		.align	2
 484              	.L13:
 485 0118 00000000 		.word	chtest
 486 011c 00000000 		.word	.LANCHOR0
 487 0120 00000000 		.word	.LC0
 488              		.cfi_endproc
 489              	.LFE443:
 490              		.size	oslib_test_002_003_execute, .-oslib_test_002_003_execute
 491              		.section	.text.oslib_test_002_001_setup,"ax",%progbits
 492              		.align	1
 493              		.p2align 4,,15
 494              		.syntax unified
 495              		.thumb
 496              		.thumb_func
 497              		.type	oslib_test_002_001_setup, %function
 498              	oslib_test_002_001_setup:
 499              	.LFB435:
 500              		.loc 1 86 44 view -0
 501              		.cfi_startproc
 502              		@ args = 0, pretend = 0, frame = 0
 503              		@ frame_needed = 0, uses_anonymous_args = 0
 504              		@ link register save eliminated.
 505              		.loc 1 87 3 view .LVU154
 506 0000 0422     		movs	r2, #4
 507 0002 0249     		ldr	r1, .L16
 508 0004 0248     		ldr	r0, .L16+4
 509 0006 FFF7FEBF 		b	chMBObjectInit
ARM GAS  C:\Users\DEVELO~1\AppData\Local\Temp\cc5wr7T7.s 			page 10


 510              	.LVL41:
 511              	.L17:
 512 000a 00BF     		.align	2
 513              	.L16:
 514 000c 00000000 		.word	.LANCHOR1
 515 0010 00000000 		.word	.LANCHOR0
 516              		.cfi_endproc
 517              	.LFE435:
 518              		.size	oslib_test_002_001_setup, .-oslib_test_002_001_setup
 519              		.section	.rodata.oslib_test_002_002_execute.str1.4,"aMS",%progbits,1
 520              		.align	2
 521              	.LC1:
 522 0000 77726F6E 		.ascii	"wrong size\000"
 522      67207369 
 522      7A6500
 523 000b 00       		.align	2
 524              	.LC2:
 525 000c 6E6F7420 		.ascii	"not empty\000"
 525      656D7074 
 525      7900
 526 0016 0000     		.align	2
 527              	.LC3:
 528 0018 7374696C 		.ascii	"still full\000"
 528      6C206675 
 528      6C6C00
 529 0023 00       		.align	2
 530              	.LC4:
 531 0024 77726974 		.ascii	"write pointer not aligned to base\000"
 531      6520706F 
 531      696E7465 
 531      72206E6F 
 531      7420616C 
 532 0046 0000     		.align	2
 533              	.LC5:
 534 0048 72656164 		.ascii	"read pointer not aligned to base\000"
 534      20706F69 
 534      6E746572 
 534      206E6F74 
 534      20616C69 
 535 0069 000000   		.align	2
 536              	.LC6:
 537 006c 7374696C 		.ascii	"still empty\000"
 537      6C20656D 
 537      70747900 
 538              		.align	2
 539              	.LC7:
 540 0078 6E6F7420 		.ascii	"not full\000"
 540      66756C6C 
 540      00
 541 0081 000000   		.align	2
 542              	.LC8:
 543 0084 706F696E 		.ascii	"pointers not aligned\000"
 543      74657273 
 543      206E6F74 
 543      20616C69 
 543      676E6564 
 544 0099 000000   		.align	2
ARM GAS  C:\Users\DEVELO~1\AppData\Local\Temp\cc5wr7T7.s 			page 11


 545              	.LC9:
 546 009c 77726F6E 		.ascii	"wrong get sequence\000"
 546      67206765 
 546      74207365 
 546      7175656E 
 546      636500
 547 00af 00       		.align	2
 548              	.LC10:
 549 00b0 41424344 		.ascii	"ABCD\000"
 549      00
 550              		.section	.text.oslib_test_002_002_execute,"ax",%progbits
 551              		.align	1
 552              		.p2align 4,,15
 553              		.syntax unified
 554              		.thumb
 555              		.thumb_func
 556              		.type	oslib_test_002_002_execute, %function
 557              	oslib_test_002_002_execute:
 558              	.LFB440:
 559              		.loc 1 229 46 view -0
 560              		.cfi_startproc
 561              		@ args = 0, pretend = 0, frame = 8
 562              		@ frame_needed = 0, uses_anonymous_args = 0
 563              		.loc 1 230 3 view .LVU156
 564              		.loc 1 231 3 view .LVU157
 565              		.loc 1 234 3 view .LVU158
 566              		.loc 1 229 46 is_stmt 0 view .LVU159
 567 0000 2DE9F043 		push	{r4, r5, r6, r7, r8, r9, lr}
 568              		.cfi_def_cfa_offset 28
 569              		.cfi_offset 4, -28
 570              		.cfi_offset 5, -24
 571              		.cfi_offset 6, -20
 572              		.cfi_offset 7, -16
 573              		.cfi_offset 8, -12
 574              		.cfi_offset 9, -8
 575              		.cfi_offset 14, -4
 576              		.loc 1 234 3 view .LVU160
 577 0004 0123     		movs	r3, #1
 578 0006 AB4F     		ldr	r7, .L43
 579              		.loc 1 229 46 view .LVU161
 580 0008 83B0     		sub	sp, sp, #12
 581              		.cfi_def_cfa_offset 40
 582              	.LBB1292:
 583              	.LBB1293:
 584              	.LBB1294:
 585              	.LBB1295:
 586              	.LBB1296:
 587              		.loc 4 493 3 view .LVU162
 588 000a 3026     		movs	r6, #48
 589              	.LBE1296:
 590              	.LBE1295:
 591              	.LBE1294:
 592              	.LBE1293:
 593              	.LBE1292:
 594              		.loc 1 234 3 view .LVU163
 595 000c 3B60     		str	r3, [r7]
 596              		.loc 1 236 5 is_stmt 1 view .LVU164
ARM GAS  C:\Users\DEVELO~1\AppData\Local\Temp\cc5wr7T7.s 			page 12


 597              	.LBB1301:
 598              	.LBI1292:
 599              		.file 6 "../../../os/hal/osal/rt-nil/osal.h"
 600              		.loc 6 573 20 view .LVU165
 601              		.loc 6 575 3 view .LVU166
 602              	.LBB1300:
 603              	.LBI1293:
 604              		.loc 2 407 20 view .LVU167
 605              		.loc 2 409 3 view .LVU168
 606              	.LBB1299:
 607              	.LBI1294:
 608              		.loc 3 806 27 view .LVU169
 609              		.loc 3 814 3 view .LVU170
 610              	.LVL42:
 611              	.LBB1298:
 612              	.LBI1295:
 613              		.loc 4 491 27 view .LVU171
 614              	.LBB1297:
 615              		.loc 4 493 3 view .LVU172
 616              		.syntax unified
 617              	@ 493 "../../../os/common/ext/ARM/CMSIS/Core/Include/cmsis_gcc.h" 1
 618 000e 86F31188 		MSR basepri, r6
 619              	@ 0 "" 2
 620              	.LVL43:
 621              		.loc 4 493 3 is_stmt 0 view .LVU173
 622              		.thumb
 623              		.syntax unified
 624              	.LBE1297:
 625              	.LBE1298:
 626              	.LBE1299:
 627              		.loc 2 410 35 is_stmt 1 view .LVU174
 628              		.loc 2 411 21 view .LVU175
 629              	.LBE1300:
 630              	.LBE1301:
 631              		.loc 1 236 5 view .LVU176
 632              	.LBB1302:
 633              	.LBI1302:
 634              		.loc 5 167 22 view .LVU177
 635              	.LBB1303:
 636              		.loc 5 169 21 view .LVU178
 637              		.loc 5 171 3 view .LVU179
 638              	.LBB1304:
 639              	.LBI1304:
 640              		.loc 5 136 22 view .LVU180
 641              	.LBB1305:
 642              		.loc 5 140 3 view .LVU181
 643              		.loc 5 140 3 is_stmt 0 view .LVU182
 644              	.LBE1305:
 645              	.LBE1304:
 646              	.LBB1308:
 647              	.LBI1308:
 648              		.loc 5 152 22 is_stmt 1 view .LVU183
 649              	.LBB1309:
 650              		.loc 5 154 21 view .LVU184
 651              		.loc 5 156 3 view .LVU185
 652              		.loc 5 156 3 is_stmt 0 view .LVU186
 653              	.LBE1309:
ARM GAS  C:\Users\DEVELO~1\AppData\Local\Temp\cc5wr7T7.s 			page 13


 654              	.LBE1308:
 655              	.LBB1310:
 656              	.LBB1306:
 657              		.loc 5 140 22 view .LVU187
 658 0012 A94C     		ldr	r4, .L43+4
 659              	.LBE1306:
 660              	.LBE1310:
 661              	.LBE1303:
 662              	.LBE1302:
 663              		.loc 1 236 5 view .LVU188
 664 0014 A949     		ldr	r1, .L43+8
 665              	.LBB1313:
 666              	.LBB1312:
 667              		.loc 5 171 28 view .LVU189
 668 0016 2069     		ldr	r0, [r4, #16]
 669              	.LBB1311:
 670              	.LBB1307:
 671              		.loc 5 140 28 view .LVU190
 672 0018 D4E90023 		ldrd	r2, r3, [r4]
 673 001c 9B1A     		subs	r3, r3, r2
 674              	.LBE1307:
 675              	.LBE1311:
 676              		.loc 5 171 28 view .LVU191
 677 001e C0EBA300 		rsb	r0, r0, r3, asr #2
 678              	.LBE1312:
 679              	.LBE1313:
 680              		.loc 1 236 5 view .LVU192
 681 0022 A0F10400 		sub	r0, #4
 682 0026 B0FA80F0 		clz	r0, r0
 683 002a 4009     		lsrs	r0, r0, #5
 684 002c FFF7FEFF 		bl	__test_assert
 685              	.LVL44:
 686 0030 28B1     		cbz	r0, .L19
 687              		.loc 1 236 5 is_stmt 1 view .LVU193
 688              	.LBB1314:
 689              	.LBI1314:
 690              		.loc 6 584 20 view .LVU194
 691              		.loc 6 586 3 view .LVU195
 692              	.LBB1315:
 693              	.LBI1315:
 694              		.loc 2 421 20 view .LVU196
 695              	.LBB1316:
 696              		.loc 2 423 23 view .LVU197
 697              		.loc 2 424 34 view .LVU198
 698              		.loc 2 430 3 view .LVU199
 699              		.loc 2 430 3 view .LVU200
 700              		.loc 2 430 3 view .LVU201
 701              		.loc 2 434 3 view .LVU202
 702              	.LBB1317:
 703              	.LBI1317:
 704              		.loc 3 830 27 view .LVU203
 705              		.loc 3 833 3 view .LVU204
 706              	.LVL45:
 707              	.LBB1318:
 708              	.LBI1318:
 709              		.loc 4 491 27 view .LVU205
 710              	.LBB1319:
ARM GAS  C:\Users\DEVELO~1\AppData\Local\Temp\cc5wr7T7.s 			page 14


 711              		.loc 4 493 3 view .LVU206
 712 0032 0023     		movs	r3, #0
 713              		.syntax unified
 714              	@ 493 "../../../os/common/ext/ARM/CMSIS/Core/Include/cmsis_gcc.h" 1
 715 0034 83F31188 		MSR basepri, r3
 716              	@ 0 "" 2
 717              	.LVL46:
 718              		.loc 4 493 3 is_stmt 0 view .LVU207
 719              		.thumb
 720              		.syntax unified
 721              	.LBE1319:
 722              	.LBE1318:
 723              	.LBE1317:
 724              	.LBE1316:
 725              	.LBE1315:
 726              	.LBE1314:
 727              		.loc 1 236 5 is_stmt 1 view .LVU208
 728              	.L18:
 729              		.loc 1 318 1 is_stmt 0 view .LVU209
 730 0038 03B0     		add	sp, sp, #12
 731              		.cfi_remember_state
 732              		.cfi_def_cfa_offset 28
 733              		@ sp needed
 734 003a BDE8F083 		pop	{r4, r5, r6, r7, r8, r9, pc}
 735              	.L19:
 736              		.cfi_restore_state
 737              	.LBB1320:
 738              	.LBI1320:
 739              		.loc 1 229 13 is_stmt 1 view .LVU210
 740              	.LBB1321:
 741              		.loc 1 236 5 view .LVU211
 742              	.LBB1322:
 743              	.LBI1322:
 744              		.loc 6 584 20 view .LVU212
 745              		.loc 6 586 3 view .LVU213
 746              	.LBB1323:
 747              	.LBI1323:
 748              		.loc 2 421 20 view .LVU214
 749              	.LBB1324:
 750              		.loc 2 423 23 view .LVU215
 751              		.loc 2 424 34 view .LVU216
 752              		.loc 2 430 3 view .LVU217
 753              		.loc 2 430 3 view .LVU218
 754              		.loc 2 430 3 view .LVU219
 755              		.loc 2 434 3 view .LVU220
 756              	.LBB1325:
 757              	.LBI1325:
 758              		.loc 3 830 27 view .LVU221
 759              		.loc 3 833 3 view .LVU222
 760              	.LVL47:
 761              	.LBB1326:
 762              	.LBI1326:
 763              		.loc 4 491 27 view .LVU223
 764              	.LBB1327:
 765              		.loc 4 493 3 view .LVU224
 766 003e 0546     		mov	r5, r0
 767              		.syntax unified
ARM GAS  C:\Users\DEVELO~1\AppData\Local\Temp\cc5wr7T7.s 			page 15


 768              	@ 493 "../../../os/common/ext/ARM/CMSIS/Core/Include/cmsis_gcc.h" 1
 769 0040 80F31188 		MSR basepri, r0
 770              	@ 0 "" 2
 771              	.LVL48:
 772              		.loc 4 493 3 is_stmt 0 view .LVU225
 773              		.thumb
 774              		.syntax unified
 775              	.LBE1327:
 776              	.LBE1326:
 777              	.LBE1325:
 778              	.LBE1324:
 779              	.LBE1323:
 780              	.LBE1322:
 781              		.loc 1 236 71 is_stmt 1 view .LVU226
 782              		.loc 1 238 3 view .LVU227
 783              		.loc 1 238 19 view .LVU228
 784              		.loc 1 242 3 view .LVU229
 785 0044 0223     		movs	r3, #2
 786 0046 3B60     		str	r3, [r7]
 787              		.loc 1 244 5 view .LVU230
 788              	.LBB1328:
 789              	.LBI1328:
 790              		.loc 2 407 20 view .LVU231
 791              		.loc 2 409 3 view .LVU232
 792              	.LBB1329:
 793              	.LBI1329:
 794              		.loc 3 806 27 view .LVU233
 795              		.loc 3 814 3 view .LVU234
 796              	.LVL49:
 797              	.LBB1330:
 798              	.LBI1330:
 799              		.loc 4 491 27 view .LVU235
 800              	.LBB1331:
 801              		.loc 4 493 3 view .LVU236
 802              		.syntax unified
 803              	@ 493 "../../../os/common/ext/ARM/CMSIS/Core/Include/cmsis_gcc.h" 1
 804 0048 86F31188 		MSR basepri, r6
 805              	@ 0 "" 2
 806              	.LVL50:
 807              		.loc 4 493 3 is_stmt 0 view .LVU237
 808              		.thumb
 809              		.syntax unified
 810              	.LBE1331:
 811              	.LBE1330:
 812              	.LBE1329:
 813              		.loc 2 410 35 is_stmt 1 view .LVU238
 814              		.loc 2 411 21 view .LVU239
 815              	.LBE1328:
 816              		.loc 1 245 5 view .LVU240
 817 004c 2046     		mov	r0, r4
 818 004e FFF7FEFF 		bl	chMBResetI
 819              	.LVL51:
 820              		.loc 1 246 5 view .LVU241
 821              	.LBB1332:
 822              	.LBI1332:
 823              		.loc 2 421 20 view .LVU242
 824              	.LBB1333:
ARM GAS  C:\Users\DEVELO~1\AppData\Local\Temp\cc5wr7T7.s 			page 16


 825              		.loc 2 423 23 view .LVU243
 826              		.loc 2 424 34 view .LVU244
 827              		.loc 2 430 3 view .LVU245
 828              		.loc 2 430 3 view .LVU246
 829              		.loc 2 430 3 view .LVU247
 830              		.loc 2 434 3 view .LVU248
 831              	.LBB1334:
 832              	.LBI1334:
 833              		.loc 3 830 27 view .LVU249
 834              		.loc 3 833 3 view .LVU250
 835              	.LBB1335:
 836              	.LBI1335:
 837              		.loc 4 491 27 view .LVU251
 838              	.LBB1336:
 839              		.loc 4 493 3 view .LVU252
 840              		.syntax unified
 841              	@ 493 "../../../os/common/ext/ARM/CMSIS/Core/Include/cmsis_gcc.h" 1
 842 0052 85F31188 		MSR basepri, r5
 843              	@ 0 "" 2
 844              	.LVL52:
 845              		.loc 4 493 3 is_stmt 0 view .LVU253
 846              		.thumb
 847              		.syntax unified
 848              	.LBE1336:
 849              	.LBE1335:
 850              	.LBE1334:
 851              	.LBE1333:
 852              	.LBE1332:
 853              		.loc 1 247 5 is_stmt 1 view .LVU254
 854              	.LBB1337:
 855              	.LBI1337:
 856              		.loc 6 573 20 view .LVU255
 857              		.loc 6 575 3 view .LVU256
 858              	.LBB1338:
 859              	.LBI1338:
 860              		.loc 2 407 20 view .LVU257
 861              		.loc 2 409 3 view .LVU258
 862              	.LBB1339:
 863              	.LBI1339:
 864              		.loc 3 806 27 view .LVU259
 865              		.loc 3 814 3 view .LVU260
 866              	.LBB1340:
 867              	.LBI1340:
 868              		.loc 4 491 27 view .LVU261
 869              	.LBB1341:
 870              		.loc 4 493 3 view .LVU262
 871              		.syntax unified
 872              	@ 493 "../../../os/common/ext/ARM/CMSIS/Core/Include/cmsis_gcc.h" 1
 873 0056 86F31188 		MSR basepri, r6
 874              	@ 0 "" 2
 875              	.LVL53:
 876              		.loc 4 493 3 is_stmt 0 view .LVU263
 877              		.thumb
 878              		.syntax unified
 879              	.LBE1341:
 880              	.LBE1340:
 881              	.LBE1339:
ARM GAS  C:\Users\DEVELO~1\AppData\Local\Temp\cc5wr7T7.s 			page 17


 882              		.loc 2 410 35 is_stmt 1 view .LVU264
 883              		.loc 2 411 21 view .LVU265
 884              	.LBE1338:
 885              	.LBE1337:
 886              		.loc 1 247 5 view .LVU266
 887              	.LBB1342:
 888              	.LBI1342:
 889              		.loc 5 167 22 view .LVU267
 890              	.LBB1343:
 891              		.loc 5 169 21 view .LVU268
 892              		.loc 5 171 3 view .LVU269
 893              	.LBB1344:
 894              	.LBI1344:
 895              		.loc 5 136 22 view .LVU270
 896              	.LBB1345:
 897              		.loc 5 140 3 view .LVU271
 898              		.loc 5 140 3 is_stmt 0 view .LVU272
 899              	.LBE1345:
 900              	.LBE1344:
 901              	.LBB1348:
 902              	.LBI1348:
 903              		.loc 5 152 22 is_stmt 1 view .LVU273
 904              	.LBB1349:
 905              		.loc 5 154 21 view .LVU274
 906              		.loc 5 156 3 view .LVU275
 907              		.loc 5 156 3 is_stmt 0 view .LVU276
 908              	.LBE1349:
 909              	.LBE1348:
 910              	.LBB1350:
 911              	.LBB1346:
 912              		.loc 5 140 28 view .LVU277
 913 005a D4E90023 		ldrd	r2, r3, [r4]
 914              	.LBE1346:
 915              	.LBE1350:
 916              		.loc 5 171 28 view .LVU278
 917 005e 2069     		ldr	r0, [r4, #16]
 918              	.LBB1351:
 919              	.LBB1347:
 920              		.loc 5 140 28 view .LVU279
 921 0060 9B1A     		subs	r3, r3, r2
 922              	.LBE1347:
 923              	.LBE1351:
 924              	.LBE1343:
 925              	.LBE1342:
 926              		.loc 1 247 5 view .LVU280
 927 0062 9749     		ldr	r1, .L43+12
 928              	.LBB1353:
 929              	.LBB1352:
 930              		.loc 5 171 28 view .LVU281
 931 0064 C0EBA300 		rsb	r0, r0, r3, asr #2
 932              	.LBE1352:
 933              	.LBE1353:
 934              		.loc 1 247 5 view .LVU282
 935 0068 A0F10400 		sub	r0, #4
 936 006c B0FA80F0 		clz	r0, r0
 937 0070 4009     		lsrs	r0, r0, #5
 938 0072 FFF7FEFF 		bl	__test_assert
ARM GAS  C:\Users\DEVELO~1\AppData\Local\Temp\cc5wr7T7.s 			page 18


 939              	.LVL54:
 940 0076 8046     		mov	r8, r0
 941 0078 88B9     		cbnz	r0, .L41
 942              		.loc 1 247 5 is_stmt 1 view .LVU283
 943              	.LBB1354:
 944              	.LBI1354:
 945              		.loc 6 584 20 view .LVU284
 946              		.loc 6 586 3 view .LVU285
 947              	.LBB1355:
 948              	.LBI1355:
 949              		.loc 2 421 20 view .LVU286
 950              	.LBB1356:
 951              		.loc 2 423 23 view .LVU287
 952              		.loc 2 424 34 view .LVU288
 953              		.loc 2 430 3 view .LVU289
 954              		.loc 2 430 3 view .LVU290
 955              		.loc 2 430 3 view .LVU291
 956              		.loc 2 434 3 view .LVU292
 957              	.LBB1357:
 958              	.LBI1357:
 959              		.loc 3 830 27 view .LVU293
 960              		.loc 3 833 3 view .LVU294
 961              	.LVL55:
 962              	.LBB1358:
 963              	.LBI1358:
 964              		.loc 4 491 27 view .LVU295
 965              	.LBB1359:
 966              		.loc 4 493 3 view .LVU296
 967              		.syntax unified
 968              	@ 493 "../../../os/common/ext/ARM/CMSIS/Core/Include/cmsis_gcc.h" 1
 969 007a 80F31188 		MSR basepri, r0
 970              	@ 0 "" 2
 971              	.LVL56:
 972              		.loc 4 493 3 is_stmt 0 view .LVU297
 973              		.thumb
 974              		.syntax unified
 975              	.LBE1359:
 976              	.LBE1358:
 977              	.LBE1357:
 978              	.LBE1356:
 979              	.LBE1355:
 980              	.LBE1354:
 981              		.loc 1 247 70 is_stmt 1 view .LVU298
 982              		.loc 1 248 5 view .LVU299
 983              	.LBB1360:
 984              	.LBI1360:
 985              		.loc 6 573 20 view .LVU300
 986              		.loc 6 575 3 view .LVU301
 987              	.LBB1361:
 988              	.LBI1361:
 989              		.loc 2 407 20 view .LVU302
 990              		.loc 2 409 3 view .LVU303
 991              	.LBB1362:
 992              	.LBI1362:
 993              		.loc 3 806 27 view .LVU304
 994              		.loc 3 814 3 view .LVU305
 995              	.LBB1363:
ARM GAS  C:\Users\DEVELO~1\AppData\Local\Temp\cc5wr7T7.s 			page 19


 996              	.LBI1363:
 997              		.loc 4 491 27 view .LVU306
 998              	.LBB1364:
 999              		.loc 4 493 3 view .LVU307
 1000              		.syntax unified
 1001              	@ 493 "../../../os/common/ext/ARM/CMSIS/Core/Include/cmsis_gcc.h" 1
 1002 007e 86F31188 		MSR basepri, r6
 1003              	@ 0 "" 2
 1004              	.LVL57:
 1005              		.loc 4 493 3 is_stmt 0 view .LVU308
 1006              		.thumb
 1007              		.syntax unified
 1008              	.LBE1364:
 1009              	.LBE1363:
 1010              	.LBE1362:
 1011              		.loc 2 410 35 is_stmt 1 view .LVU309
 1012              		.loc 2 411 21 view .LVU310
 1013              	.LBE1361:
 1014              	.LBE1360:
 1015              		.loc 1 248 5 view .LVU311
 1016              	.LBB1365:
 1017              	.LBI1365:
 1018              		.loc 5 152 22 view .LVU312
 1019              	.LBB1366:
 1020              		.loc 5 154 21 view .LVU313
 1021              		.loc 5 156 3 view .LVU314
 1022              		.loc 5 156 3 is_stmt 0 view .LVU315
 1023              	.LBE1366:
 1024              	.LBE1365:
 1025              		.loc 1 248 5 view .LVU316
 1026 0082 2069     		ldr	r0, [r4, #16]
 1027 0084 8F49     		ldr	r1, .L43+16
 1028 0086 B0FA80F0 		clz	r0, r0
 1029 008a 4009     		lsrs	r0, r0, #5
 1030 008c FFF7FEFF 		bl	__test_assert
 1031              	.LVL58:
 1032 0090 0546     		mov	r5, r0
 1033 0092 48B1     		cbz	r0, .L23
 1034              	.L42:
 1035              		.loc 1 277 5 is_stmt 1 view .LVU317
 1036              	.LBB1367:
 1037              	.LBI1367:
 1038              		.loc 6 584 20 view .LVU318
 1039              		.loc 6 586 3 view .LVU319
 1040              	.LBB1368:
 1041              	.LBI1368:
 1042              		.loc 2 421 20 view .LVU320
 1043              	.LBB1369:
 1044              		.loc 2 423 23 view .LVU321
 1045              		.loc 2 424 34 view .LVU322
 1046              		.loc 2 430 3 view .LVU323
 1047              		.loc 2 430 3 view .LVU324
 1048              		.loc 2 430 3 view .LVU325
 1049              		.loc 2 434 3 view .LVU326
 1050              	.LBB1370:
 1051              	.LBI1370:
 1052              		.loc 3 830 27 view .LVU327
ARM GAS  C:\Users\DEVELO~1\AppData\Local\Temp\cc5wr7T7.s 			page 20


 1053              		.loc 3 833 3 view .LVU328
 1054              	.LVL59:
 1055              	.LBB1371:
 1056              	.LBI1371:
 1057              		.loc 4 491 27 view .LVU329
 1058              	.LBB1372:
 1059              		.loc 4 493 3 view .LVU330
 1060              		.syntax unified
 1061              	@ 493 "../../../os/common/ext/ARM/CMSIS/Core/Include/cmsis_gcc.h" 1
 1062 0094 88F31188 		MSR basepri, r8
 1063              	@ 0 "" 2
 1064              	.LVL60:
 1065              		.loc 4 493 3 is_stmt 0 view .LVU331
 1066              		.thumb
 1067              		.syntax unified
 1068              	.LBE1372:
 1069              	.LBE1371:
 1070              	.LBE1370:
 1071              	.LBE1369:
 1072              	.LBE1368:
 1073              	.LBE1367:
 1074              		.loc 1 277 5 is_stmt 1 view .LVU332
 1075              	.LBE1321:
 1076              	.LBE1320:
 1077              		.loc 1 318 1 is_stmt 0 view .LVU333
 1078 0098 03B0     		add	sp, sp, #12
 1079              		.cfi_remember_state
 1080              		.cfi_def_cfa_offset 28
 1081              		@ sp needed
 1082 009a BDE8F083 		pop	{r4, r5, r6, r7, r8, r9, pc}
 1083              	.L41:
 1084              		.cfi_restore_state
 1085              	.LBB1531:
 1086              	.LBB1529:
 1087              		.loc 1 278 5 is_stmt 1 view .LVU334
 1088              	.LBB1373:
 1089              	.LBI1373:
 1090              		.loc 6 584 20 view .LVU335
 1091              		.loc 6 586 3 view .LVU336
 1092              	.LBB1374:
 1093              	.LBI1374:
 1094              		.loc 2 421 20 view .LVU337
 1095              	.LBB1375:
 1096              		.loc 2 423 23 view .LVU338
 1097              		.loc 2 424 34 view .LVU339
 1098              		.loc 2 430 3 view .LVU340
 1099              		.loc 2 430 3 view .LVU341
 1100              		.loc 2 430 3 view .LVU342
 1101              		.loc 2 434 3 view .LVU343
 1102              	.LBB1376:
 1103              	.LBI1376:
 1104              		.loc 3 830 27 view .LVU344
 1105              		.loc 3 833 3 view .LVU345
 1106              	.LVL61:
 1107              	.LBB1377:
 1108              	.LBI1377:
 1109              		.loc 4 491 27 view .LVU346
ARM GAS  C:\Users\DEVELO~1\AppData\Local\Temp\cc5wr7T7.s 			page 21


 1110              	.LBB1378:
 1111              		.loc 4 493 3 view .LVU347
 1112              		.syntax unified
 1113              	@ 493 "../../../os/common/ext/ARM/CMSIS/Core/Include/cmsis_gcc.h" 1
 1114 009e 85F31188 		MSR basepri, r5
 1115              	@ 0 "" 2
 1116              	.LVL62:
 1117              		.loc 4 493 3 is_stmt 0 view .LVU348
 1118              		.thumb
 1119              		.syntax unified
 1120              	.LBE1378:
 1121              	.LBE1377:
 1122              	.LBE1376:
 1123              	.LBE1375:
 1124              	.LBE1374:
 1125              	.LBE1373:
 1126              		.loc 1 278 5 is_stmt 1 view .LVU349
 1127              	.LBE1529:
 1128              	.LBE1531:
 1129              		.loc 1 318 1 is_stmt 0 view .LVU350
 1130 00a2 03B0     		add	sp, sp, #12
 1131              		.cfi_remember_state
 1132              		.cfi_def_cfa_offset 28
 1133              		@ sp needed
 1134 00a4 BDE8F083 		pop	{r4, r5, r6, r7, r8, r9, pc}
 1135              	.L23:
 1136              		.cfi_restore_state
 1137              	.LBB1532:
 1138              	.LBB1530:
 1139              		.loc 1 248 5 is_stmt 1 view .LVU351
 1140              	.LBB1379:
 1141              	.LBI1379:
 1142              		.loc 6 584 20 view .LVU352
 1143              		.loc 6 586 3 view .LVU353
 1144              	.LBB1380:
 1145              	.LBI1380:
 1146              		.loc 2 421 20 view .LVU354
 1147              	.LBB1381:
 1148              		.loc 2 423 23 view .LVU355
 1149              		.loc 2 424 34 view .LVU356
 1150              		.loc 2 430 3 view .LVU357
 1151              		.loc 2 430 3 view .LVU358
 1152              		.loc 2 430 3 view .LVU359
 1153              		.loc 2 434 3 view .LVU360
 1154              	.LBB1382:
 1155              	.LBI1382:
 1156              		.loc 3 830 27 view .LVU361
 1157              		.loc 3 833 3 view .LVU362
 1158              	.LVL63:
 1159              	.LBB1383:
 1160              	.LBI1383:
 1161              		.loc 4 491 27 view .LVU363
 1162              	.LBB1384:
 1163              		.loc 4 493 3 view .LVU364
 1164              		.syntax unified
 1165              	@ 493 "../../../os/common/ext/ARM/CMSIS/Core/Include/cmsis_gcc.h" 1
 1166 00a8 80F31188 		MSR basepri, r0
ARM GAS  C:\Users\DEVELO~1\AppData\Local\Temp\cc5wr7T7.s 			page 22


 1167              	@ 0 "" 2
 1168              	.LVL64:
 1169              		.loc 4 493 3 is_stmt 0 view .LVU365
 1170              		.thumb
 1171              		.syntax unified
 1172              	.LBE1384:
 1173              	.LBE1383:
 1174              	.LBE1382:
 1175              	.LBE1381:
 1176              	.LBE1380:
 1177              	.LBE1379:
 1178              		.loc 1 248 65 is_stmt 1 view .LVU366
 1179              		.loc 1 249 5 view .LVU367
 1180              	.LBB1385:
 1181              	.LBI1385:
 1182              		.loc 6 573 20 view .LVU368
 1183              		.loc 6 575 3 view .LVU369
 1184              	.LBB1386:
 1185              	.LBI1386:
 1186              		.loc 2 407 20 view .LVU370
 1187              		.loc 2 409 3 view .LVU371
 1188              	.LBB1387:
 1189              	.LBI1387:
 1190              		.loc 3 806 27 view .LVU372
 1191              		.loc 3 814 3 view .LVU373
 1192              	.LBB1388:
 1193              	.LBI1388:
 1194              		.loc 4 491 27 view .LVU374
 1195              	.LBB1389:
 1196              		.loc 4 493 3 view .LVU375
 1197              		.syntax unified
 1198              	@ 493 "../../../os/common/ext/ARM/CMSIS/Core/Include/cmsis_gcc.h" 1
 1199 00ac 86F31188 		MSR basepri, r6
 1200              	@ 0 "" 2
 1201              	.LVL65:
 1202              		.loc 4 493 3 is_stmt 0 view .LVU376
 1203              		.thumb
 1204              		.syntax unified
 1205              	.LBE1389:
 1206              	.LBE1388:
 1207              	.LBE1387:
 1208              		.loc 2 410 35 is_stmt 1 view .LVU377
 1209              		.loc 2 411 21 view .LVU378
 1210              	.LBE1386:
 1211              	.LBE1385:
 1212              		.loc 1 249 5 view .LVU379
 1213 00b0 2068     		ldr	r0, [r4]
 1214 00b2 A368     		ldr	r3, [r4, #8]
 1215 00b4 8449     		ldr	r1, .L43+20
 1216 00b6 C01A     		subs	r0, r0, r3
 1217 00b8 B0FA80F0 		clz	r0, r0
 1218 00bc 4009     		lsrs	r0, r0, #5
 1219 00be FFF7FEFF 		bl	__test_assert
 1220              	.LVL66:
 1221 00c2 8046     		mov	r8, r0
 1222 00c4 0028     		cmp	r0, #0
 1223 00c6 EAD1     		bne	.L41
ARM GAS  C:\Users\DEVELO~1\AppData\Local\Temp\cc5wr7T7.s 			page 23


 1224              		.loc 1 249 5 view .LVU380
 1225              	.LBB1390:
 1226              	.LBI1390:
 1227              		.loc 6 584 20 view .LVU381
 1228              		.loc 6 586 3 view .LVU382
 1229              	.LBB1391:
 1230              	.LBI1391:
 1231              		.loc 2 421 20 view .LVU383
 1232              	.LBB1392:
 1233              		.loc 2 423 23 view .LVU384
 1234              		.loc 2 424 34 view .LVU385
 1235              		.loc 2 430 3 view .LVU386
 1236              		.loc 2 430 3 view .LVU387
 1237              		.loc 2 430 3 view .LVU388
 1238              		.loc 2 434 3 view .LVU389
 1239              	.LBB1393:
 1240              	.LBI1393:
 1241              		.loc 3 830 27 view .LVU390
 1242              		.loc 3 833 3 view .LVU391
 1243              	.LVL67:
 1244              	.LBB1394:
 1245              	.LBI1394:
 1246              		.loc 4 491 27 view .LVU392
 1247              	.LBB1395:
 1248              		.loc 4 493 3 view .LVU393
 1249              		.syntax unified
 1250              	@ 493 "../../../os/common/ext/ARM/CMSIS/Core/Include/cmsis_gcc.h" 1
 1251 00c8 80F31188 		MSR basepri, r0
 1252              	@ 0 "" 2
 1253              	.LVL68:
 1254              		.loc 4 493 3 is_stmt 0 view .LVU394
 1255              		.thumb
 1256              		.syntax unified
 1257              	.LBE1395:
 1258              	.LBE1394:
 1259              	.LBE1393:
 1260              	.LBE1392:
 1261              	.LBE1391:
 1262              	.LBE1390:
 1263              		.loc 1 249 83 is_stmt 1 view .LVU395
 1264              		.loc 1 250 5 view .LVU396
 1265              	.LBB1396:
 1266              	.LBI1396:
 1267              		.loc 6 573 20 view .LVU397
 1268              		.loc 6 575 3 view .LVU398
 1269              	.LBB1397:
 1270              	.LBI1397:
 1271              		.loc 2 407 20 view .LVU399
 1272              		.loc 2 409 3 view .LVU400
 1273              	.LBB1398:
 1274              	.LBI1398:
 1275              		.loc 3 806 27 view .LVU401
 1276              		.loc 3 814 3 view .LVU402
 1277              	.LBB1399:
 1278              	.LBI1399:
 1279              		.loc 4 491 27 view .LVU403
 1280              	.LBB1400:
ARM GAS  C:\Users\DEVELO~1\AppData\Local\Temp\cc5wr7T7.s 			page 24


 1281              		.loc 4 493 3 view .LVU404
 1282              		.syntax unified
 1283              	@ 493 "../../../os/common/ext/ARM/CMSIS/Core/Include/cmsis_gcc.h" 1
 1284 00cc 86F31188 		MSR basepri, r6
 1285              	@ 0 "" 2
 1286              	.LVL69:
 1287              		.loc 4 493 3 is_stmt 0 view .LVU405
 1288              		.thumb
 1289              		.syntax unified
 1290              	.LBE1400:
 1291              	.LBE1399:
 1292              	.LBE1398:
 1293              		.loc 2 410 35 is_stmt 1 view .LVU406
 1294              		.loc 2 411 21 view .LVU407
 1295              	.LBE1397:
 1296              	.LBE1396:
 1297              		.loc 1 250 5 view .LVU408
 1298 00d0 2068     		ldr	r0, [r4]
 1299 00d2 E368     		ldr	r3, [r4, #12]
 1300 00d4 7D49     		ldr	r1, .L43+24
 1301 00d6 C01A     		subs	r0, r0, r3
 1302 00d8 B0FA80F0 		clz	r0, r0
 1303 00dc 4009     		lsrs	r0, r0, #5
 1304 00de FFF7FEFF 		bl	__test_assert
 1305              	.LVL70:
 1306 00e2 0028     		cmp	r0, #0
 1307 00e4 D6D1     		bne	.L42
 1308              		.loc 1 250 5 view .LVU409
 1309              	.LBB1401:
 1310              	.LBI1401:
 1311              		.loc 6 584 20 view .LVU410
 1312              		.loc 6 586 3 view .LVU411
 1313              	.LBB1402:
 1314              	.LBI1402:
 1315              		.loc 2 421 20 view .LVU412
 1316              	.LBB1403:
 1317              		.loc 2 423 23 view .LVU413
 1318              		.loc 2 424 34 view .LVU414
 1319              		.loc 2 430 3 view .LVU415
 1320              		.loc 2 430 3 view .LVU416
 1321              		.loc 2 430 3 view .LVU417
 1322              		.loc 2 434 3 view .LVU418
 1323              	.LBB1404:
 1324              	.LBI1404:
 1325              		.loc 3 830 27 view .LVU419
 1326              		.loc 3 833 3 view .LVU420
 1327              	.LVL71:
 1328              	.LBB1405:
 1329              	.LBI1405:
 1330              		.loc 4 491 27 view .LVU421
 1331              	.LBB1406:
 1332              		.loc 4 493 3 view .LVU422
 1333              		.syntax unified
 1334              	@ 493 "../../../os/common/ext/ARM/CMSIS/Core/Include/cmsis_gcc.h" 1
 1335 00e6 80F31188 		MSR basepri, r0
 1336              	@ 0 "" 2
 1337              	.LVL72:
ARM GAS  C:\Users\DEVELO~1\AppData\Local\Temp\cc5wr7T7.s 			page 25


 1338              		.loc 4 493 3 is_stmt 0 view .LVU423
 1339              		.thumb
 1340              		.syntax unified
 1341              	.LBE1406:
 1342              	.LBE1405:
 1343              	.LBE1404:
 1344              	.LBE1403:
 1345              	.LBE1402:
 1346              	.LBE1401:
 1347              		.loc 1 250 82 is_stmt 1 view .LVU424
 1348              		.loc 1 251 5 view .LVU425
 1349              	.LBB1407:
 1350              	.LBI1407:
 1351              		.loc 5 200 20 view .LVU426
 1352              	.LBB1408:
 1353              		.loc 5 202 3 view .LVU427
 1354              	.LBE1408:
 1355              	.LBE1407:
 1356              		.loc 1 257 3 is_stmt 0 view .LVU428
 1357 00ea 0323     		movs	r3, #3
 1358 00ec 4FF04208 		mov	r8, #66
 1359              		.loc 1 263 7 view .LVU429
 1360 00f0 DFF8DC91 		ldr	r9, .L43+28
 1361              	.LBB1410:
 1362              	.LBB1409:
 1363              		.loc 5 202 14 view .LVU430
 1364 00f4 2075     		strb	r0, [r4, #20]
 1365              	.LVL73:
 1366              		.loc 5 202 14 view .LVU431
 1367              	.LBE1409:
 1368              	.LBE1410:
 1369              		.loc 1 253 3 is_stmt 1 view .LVU432
 1370              		.loc 1 253 19 view .LVU433
 1371              		.loc 1 257 3 view .LVU434
 1372 00f6 3B60     		str	r3, [r7]
 1373              		.loc 1 259 5 view .LVU435
 1374              	.LVL74:
 1375              		.loc 1 259 19 view .LVU436
 1376              	.L27:
 1377              		.loc 1 260 7 view .LVU437
 1378              	.LBB1411:
 1379              	.LBI1411:
 1380              		.loc 2 407 20 view .LVU438
 1381              		.loc 2 409 3 view .LVU439
 1382              	.LBB1412:
 1383              	.LBI1412:
 1384              		.loc 3 806 27 view .LVU440
 1385              		.loc 3 814 3 view .LVU441
 1386              	.LBB1413:
 1387              	.LBI1413:
 1388              		.loc 4 491 27 view .LVU442
 1389              	.LBB1414:
 1390              		.loc 4 493 3 view .LVU443
 1391              		.syntax unified
 1392              	@ 493 "../../../os/common/ext/ARM/CMSIS/Core/Include/cmsis_gcc.h" 1
 1393 00f8 86F31188 		MSR basepri, r6
 1394              	@ 0 "" 2
ARM GAS  C:\Users\DEVELO~1\AppData\Local\Temp\cc5wr7T7.s 			page 26


 1395              	.LVL75:
 1396              		.loc 4 493 3 is_stmt 0 view .LVU444
 1397              		.thumb
 1398              		.syntax unified
 1399              	.LBE1414:
 1400              	.LBE1413:
 1401              	.LBE1412:
 1402              		.loc 2 410 35 is_stmt 1 view .LVU445
 1403              		.loc 2 411 21 view .LVU446
 1404              	.LBE1411:
 1405              		.loc 1 261 7 view .LVU447
 1406              		.loc 1 261 14 is_stmt 0 view .LVU448
 1407 00fc 4146     		mov	r1, r8
 1408 00fe 2046     		mov	r0, r4
 1409 0100 FFF7FEFF 		bl	chMBPostI
 1410              	.LVL76:
 1411              		.loc 1 262 7 is_stmt 1 view .LVU449
 1412              	.LBB1415:
 1413              	.LBI1415:
 1414              		.loc 2 421 20 view .LVU450
 1415              	.LBB1416:
 1416              		.loc 2 423 23 view .LVU451
 1417              		.loc 2 424 34 view .LVU452
 1418              		.loc 2 430 3 view .LVU453
 1419              		.loc 2 430 3 view .LVU454
 1420              		.loc 2 430 3 view .LVU455
 1421              		.loc 2 434 3 view .LVU456
 1422              	.LBB1417:
 1423              	.LBI1417:
 1424              		.loc 3 830 27 view .LVU457
 1425              		.loc 3 833 3 view .LVU458
 1426              	.LBB1418:
 1427              	.LBI1418:
 1428              		.loc 4 491 27 view .LVU459
 1429              	.LBB1419:
 1430              		.loc 4 493 3 view .LVU460
 1431 0104 0023     		movs	r3, #0
 1432              		.syntax unified
 1433              	@ 493 "../../../os/common/ext/ARM/CMSIS/Core/Include/cmsis_gcc.h" 1
 1434 0106 83F31188 		MSR basepri, r3
 1435              	@ 0 "" 2
 1436              	.LVL77:
 1437              		.loc 4 493 3 is_stmt 0 view .LVU461
 1438              		.thumb
 1439              		.syntax unified
 1440              	.LBE1419:
 1441              	.LBE1418:
 1442              	.LBE1417:
 1443              	.LBE1416:
 1444              	.LBE1415:
 1445              		.loc 1 263 7 is_stmt 1 view .LVU462
 1446 010a B0FA80F0 		clz	r0, r0
 1447              	.LVL78:
 1448              		.loc 1 263 7 is_stmt 0 view .LVU463
 1449 010e 4946     		mov	r1, r9
 1450              		.loc 1 259 19 view .LVU464
 1451 0110 08F10108 		add	r8, r8, #1
ARM GAS  C:\Users\DEVELO~1\AppData\Local\Temp\cc5wr7T7.s 			page 27


 1452              	.LVL79:
 1453              		.loc 1 263 7 view .LVU465
 1454 0114 4009     		lsrs	r0, r0, #5
 1455 0116 FFF7FEFF 		bl	__test_assert
 1456              	.LVL80:
 1457              		.loc 1 263 59 is_stmt 1 view .LVU466
 1458              		.loc 1 259 35 view .LVU467
 1459              		.loc 1 259 19 view .LVU468
 1460              		.loc 1 263 7 is_stmt 0 view .LVU469
 1461 011a 0546     		mov	r5, r0
 1462 011c 0028     		cmp	r0, #0
 1463 011e 8BD1     		bne	.L18
 1464              		.loc 1 259 19 view .LVU470
 1465 0120 B8F1450F 		cmp	r8, #69
 1466 0124 E8D1     		bne	.L27
 1467              		.loc 1 265 5 is_stmt 1 view .LVU471
 1468              	.LBB1420:
 1469              	.LBI1420:
 1470              		.loc 2 407 20 view .LVU472
 1471              		.loc 2 409 3 view .LVU473
 1472              	.LBB1421:
 1473              	.LBI1421:
 1474              		.loc 3 806 27 view .LVU474
 1475              		.loc 3 814 3 view .LVU475
 1476              	.LVL81:
 1477              	.LBB1422:
 1478              	.LBI1422:
 1479              		.loc 4 491 27 view .LVU476
 1480              	.LBB1423:
 1481              		.loc 4 493 3 view .LVU477
 1482              		.syntax unified
 1483              	@ 493 "../../../os/common/ext/ARM/CMSIS/Core/Include/cmsis_gcc.h" 1
 1484 0126 86F31188 		MSR basepri, r6
 1485              	@ 0 "" 2
 1486              	.LVL82:
 1487              		.loc 4 493 3 is_stmt 0 view .LVU478
 1488              		.thumb
 1489              		.syntax unified
 1490              	.LBE1423:
 1491              	.LBE1422:
 1492              	.LBE1421:
 1493              		.loc 2 410 35 is_stmt 1 view .LVU479
 1494              		.loc 2 411 21 view .LVU480
 1495              	.LBE1420:
 1496              		.loc 1 266 5 view .LVU481
 1497              		.loc 1 266 12 is_stmt 0 view .LVU482
 1498 012a 4121     		movs	r1, #65
 1499 012c 6248     		ldr	r0, .L43+4
 1500 012e FFF7FEFF 		bl	chMBPostAheadI
 1501              	.LVL83:
 1502              		.loc 1 267 5 is_stmt 1 view .LVU483
 1503              	.LBB1424:
 1504              	.LBI1424:
 1505              		.loc 2 421 20 view .LVU484
 1506              	.LBB1425:
 1507              		.loc 2 423 23 view .LVU485
 1508              		.loc 2 424 34 view .LVU486
ARM GAS  C:\Users\DEVELO~1\AppData\Local\Temp\cc5wr7T7.s 			page 28


 1509              		.loc 2 430 3 view .LVU487
 1510              		.loc 2 430 3 view .LVU488
 1511              		.loc 2 430 3 view .LVU489
 1512              		.loc 2 434 3 view .LVU490
 1513              	.LBB1426:
 1514              	.LBI1426:
 1515              		.loc 3 830 27 view .LVU491
 1516              		.loc 3 833 3 view .LVU492
 1517              	.LBB1427:
 1518              	.LBI1427:
 1519              		.loc 4 491 27 view .LVU493
 1520              	.LBB1428:
 1521              		.loc 4 493 3 view .LVU494
 1522              		.syntax unified
 1523              	@ 493 "../../../os/common/ext/ARM/CMSIS/Core/Include/cmsis_gcc.h" 1
 1524 0132 85F31188 		MSR basepri, r5
 1525              	@ 0 "" 2
 1526              	.LVL84:
 1527              		.loc 4 493 3 is_stmt 0 view .LVU495
 1528              		.thumb
 1529              		.syntax unified
 1530              	.LBE1428:
 1531              	.LBE1427:
 1532              	.LBE1426:
 1533              	.LBE1425:
 1534              	.LBE1424:
 1535              		.loc 1 268 5 is_stmt 1 view .LVU496
 1536 0136 B0FA80F0 		clz	r0, r0
 1537              	.LVL85:
 1538              		.loc 1 268 5 is_stmt 0 view .LVU497
 1539 013a 6549     		ldr	r1, .L43+28
 1540 013c 4009     		lsrs	r0, r0, #5
 1541 013e FFF7FEFF 		bl	__test_assert
 1542              	.LVL86:
 1543 0142 0546     		mov	r5, r0
 1544 0144 0028     		cmp	r0, #0
 1545 0146 7FF477AF 		bne	.L18
 1546              		.loc 1 268 57 is_stmt 1 view .LVU498
 1547              		.loc 1 270 3 view .LVU499
 1548              		.loc 1 270 19 view .LVU500
 1549              		.loc 1 274 3 view .LVU501
 1550 014a 4FF00409 		mov	r9, #4
 1551 014e C7F80090 		str	r9, [r7]
 1552              		.loc 1 276 5 view .LVU502
 1553              	.LBB1429:
 1554              	.LBI1429:
 1555              		.loc 6 573 20 view .LVU503
 1556              		.loc 6 575 3 view .LVU504
 1557              	.LBB1430:
 1558              	.LBI1430:
 1559              		.loc 2 407 20 view .LVU505
 1560              		.loc 2 409 3 view .LVU506
 1561              	.LBB1431:
 1562              	.LBI1431:
 1563              		.loc 3 806 27 view .LVU507
 1564              		.loc 3 814 3 view .LVU508
 1565              	.LVL87:
ARM GAS  C:\Users\DEVELO~1\AppData\Local\Temp\cc5wr7T7.s 			page 29


 1566              	.LBB1432:
 1567              	.LBI1432:
 1568              		.loc 4 491 27 view .LVU509
 1569              	.LBB1433:
 1570              		.loc 4 493 3 view .LVU510
 1571              		.syntax unified
 1572              	@ 493 "../../../os/common/ext/ARM/CMSIS/Core/Include/cmsis_gcc.h" 1
 1573 0152 86F31188 		MSR basepri, r6
 1574              	@ 0 "" 2
 1575              	.LVL88:
 1576              		.loc 4 493 3 is_stmt 0 view .LVU511
 1577              		.thumb
 1578              		.syntax unified
 1579              	.LBE1433:
 1580              	.LBE1432:
 1581              	.LBE1431:
 1582              		.loc 2 410 35 is_stmt 1 view .LVU512
 1583              		.loc 2 411 21 view .LVU513
 1584              	.LBE1430:
 1585              	.LBE1429:
 1586              		.loc 1 276 5 view .LVU514
 1587              	.LBB1434:
 1588              	.LBI1434:
 1589              		.loc 5 167 22 view .LVU515
 1590              		.loc 5 169 21 view .LVU516
 1591              		.loc 5 171 3 view .LVU517
 1592              	.LBB1435:
 1593              	.LBI1435:
 1594              		.loc 5 136 22 view .LVU518
 1595              	.LBB1436:
 1596              		.loc 5 140 3 view .LVU519
 1597              		.loc 5 140 3 is_stmt 0 view .LVU520
 1598              	.LBE1436:
 1599              	.LBE1435:
 1600              	.LBB1439:
 1601              	.LBI1439:
 1602              		.loc 5 152 22 is_stmt 1 view .LVU521
 1603              	.LBB1440:
 1604              		.loc 5 154 21 view .LVU522
 1605              		.loc 5 156 3 view .LVU523
 1606              		.loc 5 156 3 is_stmt 0 view .LVU524
 1607              	.LBE1440:
 1608              	.LBE1439:
 1609              	.LBB1441:
 1610              	.LBB1437:
 1611              		.loc 5 140 28 view .LVU525
 1612 0156 D4E90023 		ldrd	r2, r3, [r4]
 1613              	.LBE1437:
 1614              	.LBE1441:
 1615              	.LBE1434:
 1616              		.loc 1 276 5 view .LVU526
 1617 015a 5E49     		ldr	r1, .L43+32
 1618              	.LBB1443:
 1619              	.LBB1442:
 1620              	.LBB1438:
 1621              		.loc 5 140 28 view .LVU527
 1622 015c 9B1A     		subs	r3, r3, r2
ARM GAS  C:\Users\DEVELO~1\AppData\Local\Temp\cc5wr7T7.s 			page 30


 1623              	.LBE1438:
 1624              	.LBE1442:
 1625              	.LBE1443:
 1626              		.loc 1 276 5 view .LVU528
 1627 015e 2269     		ldr	r2, [r4, #16]
 1628 0160 B2EBA30F 		cmp	r2, r3, asr #2
 1629 0164 0CBF     		ite	eq
 1630 0166 0120     		moveq	r0, #1
 1631 0168 0020     		movne	r0, #0
 1632 016a FFF7FEFF 		bl	__test_assert
 1633              	.LVL89:
 1634 016e 8046     		mov	r8, r0
 1635 0170 0028     		cmp	r0, #0
 1636 0172 94D1     		bne	.L41
 1637              		.loc 1 276 5 is_stmt 1 view .LVU529
 1638              	.LBB1444:
 1639              	.LBI1444:
 1640              		.loc 6 584 20 view .LVU530
 1641              		.loc 6 586 3 view .LVU531
 1642              	.LBB1445:
 1643              	.LBI1445:
 1644              		.loc 2 421 20 view .LVU532
 1645              	.LBB1446:
 1646              		.loc 2 423 23 view .LVU533
 1647              		.loc 2 424 34 view .LVU534
 1648              		.loc 2 430 3 view .LVU535
 1649              		.loc 2 430 3 view .LVU536
 1650              		.loc 2 430 3 view .LVU537
 1651              		.loc 2 434 3 view .LVU538
 1652              	.LBB1447:
 1653              	.LBI1447:
 1654              		.loc 3 830 27 view .LVU539
 1655              		.loc 3 833 3 view .LVU540
 1656              	.LVL90:
 1657              	.LBB1448:
 1658              	.LBI1448:
 1659              		.loc 4 491 27 view .LVU541
 1660              	.LBB1449:
 1661              		.loc 4 493 3 view .LVU542
 1662              		.syntax unified
 1663              	@ 493 "../../../os/common/ext/ARM/CMSIS/Core/Include/cmsis_gcc.h" 1
 1664 0174 80F31188 		MSR basepri, r0
 1665              	@ 0 "" 2
 1666              	.LVL91:
 1667              		.loc 4 493 3 is_stmt 0 view .LVU543
 1668              		.thumb
 1669              		.syntax unified
 1670              	.LBE1449:
 1671              	.LBE1448:
 1672              	.LBE1447:
 1673              	.LBE1446:
 1674              	.LBE1445:
 1675              	.LBE1444:
 1676              		.loc 1 276 66 is_stmt 1 view .LVU544
 1677              		.loc 1 277 5 view .LVU545
 1678              	.LBB1450:
 1679              	.LBI1450:
ARM GAS  C:\Users\DEVELO~1\AppData\Local\Temp\cc5wr7T7.s 			page 31


 1680              		.loc 6 573 20 view .LVU546
 1681              		.loc 6 575 3 view .LVU547
 1682              	.LBB1451:
 1683              	.LBI1451:
 1684              		.loc 2 407 20 view .LVU548
 1685              		.loc 2 409 3 view .LVU549
 1686              	.LBB1452:
 1687              	.LBI1452:
 1688              		.loc 3 806 27 view .LVU550
 1689              		.loc 3 814 3 view .LVU551
 1690              	.LBB1453:
 1691              	.LBI1453:
 1692              		.loc 4 491 27 view .LVU552
 1693              	.LBB1454:
 1694              		.loc 4 493 3 view .LVU553
 1695              		.syntax unified
 1696              	@ 493 "../../../os/common/ext/ARM/CMSIS/Core/Include/cmsis_gcc.h" 1
 1697 0178 86F31188 		MSR basepri, r6
 1698              	@ 0 "" 2
 1699              	.LVL92:
 1700              		.loc 4 493 3 is_stmt 0 view .LVU554
 1701              		.thumb
 1702              		.syntax unified
 1703              	.LBE1454:
 1704              	.LBE1453:
 1705              	.LBE1452:
 1706              		.loc 2 410 35 is_stmt 1 view .LVU555
 1707              		.loc 2 411 21 view .LVU556
 1708              	.LBE1451:
 1709              	.LBE1450:
 1710              		.loc 1 277 5 view .LVU557
 1711              	.LBB1455:
 1712              	.LBI1455:
 1713              		.loc 5 152 22 view .LVU558
 1714              	.LBB1456:
 1715              		.loc 5 154 21 view .LVU559
 1716              		.loc 5 156 3 view .LVU560
 1717              		.loc 5 156 3 is_stmt 0 view .LVU561
 1718              	.LBE1456:
 1719              	.LBE1455:
 1720              		.loc 1 277 5 view .LVU562
 1721 017c 2069     		ldr	r0, [r4, #16]
 1722 017e 5649     		ldr	r1, .L43+36
 1723 0180 A0F10400 		sub	r0, #4
 1724 0184 B0FA80F0 		clz	r0, r0
 1725 0188 4009     		lsrs	r0, r0, #5
 1726 018a FFF7FEFF 		bl	__test_assert
 1727              	.LVL93:
 1728 018e 0546     		mov	r5, r0
 1729 0190 0028     		cmp	r0, #0
 1730 0192 7FF47FAF 		bne	.L42
 1731              		.loc 1 277 5 is_stmt 1 view .LVU563
 1732              	.LBB1457:
 1733              	.LBI1457:
 1734              		.loc 6 584 20 view .LVU564
 1735              		.loc 6 586 3 view .LVU565
 1736              	.LBB1458:
ARM GAS  C:\Users\DEVELO~1\AppData\Local\Temp\cc5wr7T7.s 			page 32


 1737              	.LBI1458:
 1738              		.loc 2 421 20 view .LVU566
 1739              	.LBB1459:
 1740              		.loc 2 423 23 view .LVU567
 1741              		.loc 2 424 34 view .LVU568
 1742              		.loc 2 430 3 view .LVU569
 1743              		.loc 2 430 3 view .LVU570
 1744              		.loc 2 430 3 view .LVU571
 1745              		.loc 2 434 3 view .LVU572
 1746              	.LBB1460:
 1747              	.LBI1460:
 1748              		.loc 3 830 27 view .LVU573
 1749              		.loc 3 833 3 view .LVU574
 1750              	.LVL94:
 1751              	.LBB1461:
 1752              	.LBI1461:
 1753              		.loc 4 491 27 view .LVU575
 1754              	.LBB1462:
 1755              		.loc 4 493 3 view .LVU576
 1756              		.syntax unified
 1757              	@ 493 "../../../os/common/ext/ARM/CMSIS/Core/Include/cmsis_gcc.h" 1
 1758 0196 80F31188 		MSR basepri, r0
 1759              	@ 0 "" 2
 1760              	.LVL95:
 1761              		.loc 4 493 3 is_stmt 0 view .LVU577
 1762              		.thumb
 1763              		.syntax unified
 1764              	.LBE1462:
 1765              	.LBE1461:
 1766              	.LBE1460:
 1767              	.LBE1459:
 1768              	.LBE1458:
 1769              	.LBE1457:
 1770              		.loc 1 277 69 is_stmt 1 view .LVU578
 1771              		.loc 1 278 5 view .LVU579
 1772              	.LBB1463:
 1773              	.LBI1463:
 1774              		.loc 6 573 20 view .LVU580
 1775              		.loc 6 575 3 view .LVU581
 1776              	.LBB1464:
 1777              	.LBI1464:
 1778              		.loc 2 407 20 view .LVU582
 1779              		.loc 2 409 3 view .LVU583
 1780              	.LBB1465:
 1781              	.LBI1465:
 1782              		.loc 3 806 27 view .LVU584
 1783              		.loc 3 814 3 view .LVU585
 1784              	.LBB1466:
 1785              	.LBI1466:
 1786              		.loc 4 491 27 view .LVU586
 1787              	.LBB1467:
 1788              		.loc 4 493 3 view .LVU587
 1789              		.syntax unified
 1790              	@ 493 "../../../os/common/ext/ARM/CMSIS/Core/Include/cmsis_gcc.h" 1
 1791 019a 86F31188 		MSR basepri, r6
 1792              	@ 0 "" 2
 1793              	.LVL96:
ARM GAS  C:\Users\DEVELO~1\AppData\Local\Temp\cc5wr7T7.s 			page 33


 1794              		.loc 4 493 3 is_stmt 0 view .LVU588
 1795              		.thumb
 1796              		.syntax unified
 1797              	.LBE1467:
 1798              	.LBE1466:
 1799              	.LBE1465:
 1800              		.loc 2 410 35 is_stmt 1 view .LVU589
 1801              		.loc 2 411 21 view .LVU590
 1802              	.LBE1464:
 1803              	.LBE1463:
 1804              		.loc 1 278 5 view .LVU591
 1805 019e D4E90230 		ldrd	r3, r0, [r4, #8]
 1806 01a2 4E49     		ldr	r1, .L43+40
 1807 01a4 C01A     		subs	r0, r0, r3
 1808 01a6 B0FA80F0 		clz	r0, r0
 1809 01aa 4009     		lsrs	r0, r0, #5
 1810 01ac FFF7FEFF 		bl	__test_assert
 1811              	.LVL97:
 1812 01b0 0028     		cmp	r0, #0
 1813 01b2 7FF474AF 		bne	.L41
 1814              		.loc 1 278 5 view .LVU592
 1815              	.LBB1468:
 1816              	.LBI1468:
 1817              		.loc 6 584 20 view .LVU593
 1818              		.loc 6 586 3 view .LVU594
 1819              	.LBB1469:
 1820              	.LBI1469:
 1821              		.loc 2 421 20 view .LVU595
 1822              	.LBB1470:
 1823              		.loc 2 423 23 view .LVU596
 1824              		.loc 2 424 34 view .LVU597
 1825              		.loc 2 430 3 view .LVU598
 1826              		.loc 2 430 3 view .LVU599
 1827              		.loc 2 430 3 view .LVU600
 1828              		.loc 2 434 3 view .LVU601
 1829              	.LBB1471:
 1830              	.LBI1471:
 1831              		.loc 3 830 27 view .LVU602
 1832              		.loc 3 833 3 view .LVU603
 1833              	.LVL98:
 1834              	.LBB1472:
 1835              	.LBI1472:
 1836              		.loc 4 491 27 view .LVU604
 1837              	.LBB1473:
 1838              		.loc 4 493 3 view .LVU605
 1839              		.syntax unified
 1840              	@ 493 "../../../os/common/ext/ARM/CMSIS/Core/Include/cmsis_gcc.h" 1
 1841 01b6 80F31188 		MSR basepri, r0
 1842              	@ 0 "" 2
 1843              	.LVL99:
 1844              		.loc 4 493 3 is_stmt 0 view .LVU606
 1845              		.thumb
 1846              		.syntax unified
 1847              	.LBE1473:
 1848              	.LBE1472:
 1849              	.LBE1471:
 1850              	.LBE1470:
ARM GAS  C:\Users\DEVELO~1\AppData\Local\Temp\cc5wr7T7.s 			page 34


 1851              	.LBE1469:
 1852              	.LBE1468:
 1853              		.loc 1 278 69 is_stmt 1 view .LVU607
 1854              		.loc 1 280 3 view .LVU608
 1855              		.loc 1 280 19 view .LVU609
 1856              		.loc 1 284 3 view .LVU610
 1857 01ba 0523     		movs	r3, #5
 1858              	.LBB1474:
 1859              	.LBB1475:
 1860              	.LBB1476:
 1861              	.LBB1477:
 1862              		.loc 4 493 3 is_stmt 0 view .LVU611
 1863 01bc 3025     		movs	r5, #48
 1864              	.LBE1477:
 1865              	.LBE1476:
 1866              	.LBE1475:
 1867              	.LBE1474:
 1868              		.loc 1 288 14 view .LVU612
 1869 01be DFF8F880 		ldr	r8, .L43+4
 1870              		.loc 1 290 7 view .LVU613
 1871 01c2 434E     		ldr	r6, .L43+28
 1872              		.loc 1 284 3 view .LVU614
 1873 01c4 3B60     		str	r3, [r7]
 1874              		.loc 1 286 5 is_stmt 1 view .LVU615
 1875              	.LVL100:
 1876              		.loc 1 286 19 view .LVU616
 1877              	.L32:
 1878              		.loc 1 287 7 view .LVU617
 1879              	.LBB1481:
 1880              	.LBI1474:
 1881              		.loc 2 407 20 view .LVU618
 1882              		.loc 2 409 3 view .LVU619
 1883              	.LBB1480:
 1884              	.LBI1475:
 1885              		.loc 3 806 27 view .LVU620
 1886              		.loc 3 814 3 view .LVU621
 1887              	.LBB1479:
 1888              	.LBI1476:
 1889              		.loc 4 491 27 view .LVU622
 1890              	.LBB1478:
 1891              		.loc 4 493 3 view .LVU623
 1892              		.syntax unified
 1893              	@ 493 "../../../os/common/ext/ARM/CMSIS/Core/Include/cmsis_gcc.h" 1
 1894 01c6 85F31188 		MSR basepri, r5
 1895              	@ 0 "" 2
 1896              	.LVL101:
 1897              		.loc 4 493 3 is_stmt 0 view .LVU624
 1898              		.thumb
 1899              		.syntax unified
 1900              	.LBE1478:
 1901              	.LBE1479:
 1902              	.LBE1480:
 1903              		.loc 2 410 35 is_stmt 1 view .LVU625
 1904              		.loc 2 411 21 view .LVU626
 1905              	.LBE1481:
 1906              		.loc 1 288 7 view .LVU627
 1907              		.loc 1 288 14 is_stmt 0 view .LVU628
ARM GAS  C:\Users\DEVELO~1\AppData\Local\Temp\cc5wr7T7.s 			page 35


 1908 01ca 01A9     		add	r1, sp, #4
 1909 01cc 4046     		mov	r0, r8
 1910 01ce FFF7FEFF 		bl	chMBFetchI
 1911              	.LVL102:
 1912              		.loc 1 289 7 is_stmt 1 view .LVU629
 1913              	.LBB1482:
 1914              	.LBI1482:
 1915              		.loc 2 421 20 view .LVU630
 1916              	.LBB1483:
 1917              		.loc 2 423 23 view .LVU631
 1918              		.loc 2 424 34 view .LVU632
 1919              		.loc 2 430 3 view .LVU633
 1920              		.loc 2 430 3 view .LVU634
 1921              		.loc 2 430 3 view .LVU635
 1922              		.loc 2 434 3 view .LVU636
 1923              	.LBB1484:
 1924              	.LBI1484:
 1925              		.loc 3 830 27 view .LVU637
 1926              		.loc 3 833 3 view .LVU638
 1927              	.LBB1485:
 1928              	.LBI1485:
 1929              		.loc 4 491 27 view .LVU639
 1930              	.LBB1486:
 1931              		.loc 4 493 3 view .LVU640
 1932 01d2 0023     		movs	r3, #0
 1933              		.syntax unified
 1934              	@ 493 "../../../os/common/ext/ARM/CMSIS/Core/Include/cmsis_gcc.h" 1
 1935 01d4 83F31188 		MSR basepri, r3
 1936              	@ 0 "" 2
 1937              	.LVL103:
 1938              		.loc 4 493 3 is_stmt 0 view .LVU641
 1939              		.thumb
 1940              		.syntax unified
 1941              	.LBE1486:
 1942              	.LBE1485:
 1943              	.LBE1484:
 1944              	.LBE1483:
 1945              	.LBE1482:
 1946              		.loc 1 290 7 is_stmt 1 view .LVU642
 1947 01d8 B0FA80F0 		clz	r0, r0
 1948              	.LVL104:
 1949              		.loc 1 290 7 is_stmt 0 view .LVU643
 1950 01dc 3146     		mov	r1, r6
 1951 01de 4009     		lsrs	r0, r0, #5
 1952 01e0 FFF7FEFF 		bl	__test_assert
 1953              	.LVL105:
 1954              		.loc 1 290 59 is_stmt 1 view .LVU644
 1955              		.loc 1 291 7 view .LVU645
 1956              		.loc 1 290 7 is_stmt 0 view .LVU646
 1957 01e4 0028     		cmp	r0, #0
 1958 01e6 7FF427AF 		bne	.L18
 1959              		.loc 1 291 7 view .LVU647
 1960 01ea 9DF80400 		ldrb	r0, [sp, #4]	@ zero_extendqisi2
 1961 01ee FFF7FEFF 		bl	test_emit_token
 1962              	.LVL106:
 1963              		.loc 1 286 31 is_stmt 1 view .LVU648
 1964              		.loc 1 286 19 view .LVU649
ARM GAS  C:\Users\DEVELO~1\AppData\Local\Temp\cc5wr7T7.s 			page 36


 1965 01f2 B9F10109 		subs	r9, r9, #1
 1966              	.LVL107:
 1967              		.loc 1 286 19 is_stmt 0 view .LVU650
 1968 01f6 E6D1     		bne	.L32
 1969              		.loc 1 293 5 is_stmt 1 view .LVU651
 1970 01f8 3949     		ldr	r1, .L43+44
 1971 01fa 3A48     		ldr	r0, .L43+48
 1972 01fc FFF7FEFF 		bl	__test_assert_sequence
 1973              	.LVL108:
 1974 0200 0028     		cmp	r0, #0
 1975 0202 7FF419AF 		bne	.L18
 1976              		.loc 1 293 55 view .LVU652
 1977              		.loc 1 295 3 view .LVU653
 1978              		.loc 1 295 19 view .LVU654
 1979              		.loc 1 299 3 view .LVU655
 1980 0206 0623     		movs	r3, #6
 1981              		.loc 1 301 12 is_stmt 0 view .LVU656
 1982 0208 4621     		movs	r1, #70
 1983 020a 4FF0FF32 		mov	r2, #-1
 1984 020e 2A48     		ldr	r0, .L43+4
 1985              		.loc 1 299 3 view .LVU657
 1986 0210 3B60     		str	r3, [r7]
 1987              		.loc 1 301 5 is_stmt 1 view .LVU658
 1988              		.loc 1 301 12 is_stmt 0 view .LVU659
 1989 0212 FFF7FEFF 		bl	chMBPostTimeout
 1990              	.LVL109:
 1991              		.loc 1 302 5 is_stmt 1 view .LVU660
 1992 0216 B0FA80F0 		clz	r0, r0
 1993              	.LVL110:
 1994              		.loc 1 302 5 is_stmt 0 view .LVU661
 1995 021a 2D49     		ldr	r1, .L43+28
 1996 021c 4009     		lsrs	r0, r0, #5
 1997 021e FFF7FEFF 		bl	__test_assert
 1998              	.LVL111:
 1999 0222 0028     		cmp	r0, #0
 2000 0224 7FF408AF 		bne	.L18
 2001              		.loc 1 302 57 is_stmt 1 view .LVU662
 2002              		.loc 1 303 5 view .LVU663
 2003              		.loc 1 303 12 is_stmt 0 view .LVU664
 2004 0228 01A9     		add	r1, sp, #4
 2005 022a 4FF0FF32 		mov	r2, #-1
 2006 022e 2248     		ldr	r0, .L43+4
 2007 0230 FFF7FEFF 		bl	chMBFetchTimeout
 2008              	.LVL112:
 2009              		.loc 1 304 5 is_stmt 1 view .LVU665
 2010 0234 B0FA80F0 		clz	r0, r0
 2011              	.LVL113:
 2012              		.loc 1 304 5 is_stmt 0 view .LVU666
 2013 0238 2549     		ldr	r1, .L43+28
 2014 023a 4009     		lsrs	r0, r0, #5
 2015 023c FFF7FEFF 		bl	__test_assert
 2016              	.LVL114:
 2017 0240 0028     		cmp	r0, #0
 2018 0242 7FF4F9AE 		bne	.L18
 2019              		.loc 1 304 57 is_stmt 1 view .LVU667
 2020              		.loc 1 306 3 view .LVU668
 2021              		.loc 1 306 19 view .LVU669
ARM GAS  C:\Users\DEVELO~1\AppData\Local\Temp\cc5wr7T7.s 			page 37


 2022              		.loc 1 310 3 view .LVU670
 2023 0246 0723     		movs	r3, #7
 2024 0248 3B60     		str	r3, [r7]
 2025              		.loc 1 312 5 view .LVU671
 2026              	.LBB1487:
 2027              	.LBI1487:
 2028              		.loc 6 573 20 view .LVU672
 2029              		.loc 6 575 3 view .LVU673
 2030              	.LBB1488:
 2031              	.LBI1488:
 2032              		.loc 2 407 20 view .LVU674
 2033              		.loc 2 409 3 view .LVU675
 2034              	.LBB1489:
 2035              	.LBI1489:
 2036              		.loc 3 806 27 view .LVU676
 2037              		.loc 3 814 3 view .LVU677
 2038              	.LVL115:
 2039              	.LBB1490:
 2040              	.LBI1490:
 2041              		.loc 4 491 27 view .LVU678
 2042              	.LBB1491:
 2043              		.loc 4 493 3 view .LVU679
 2044              		.syntax unified
 2045              	@ 493 "../../../os/common/ext/ARM/CMSIS/Core/Include/cmsis_gcc.h" 1
 2046 024a 85F31188 		MSR basepri, r5
 2047              	@ 0 "" 2
 2048              	.LVL116:
 2049              		.loc 4 493 3 is_stmt 0 view .LVU680
 2050              		.thumb
 2051              		.syntax unified
 2052              	.LBE1491:
 2053              	.LBE1490:
 2054              	.LBE1489:
 2055              		.loc 2 410 35 is_stmt 1 view .LVU681
 2056              		.loc 2 411 21 view .LVU682
 2057              	.LBE1488:
 2058              	.LBE1487:
 2059              		.loc 1 312 5 view .LVU683
 2060              	.LBB1492:
 2061              	.LBI1492:
 2062              		.loc 5 167 22 view .LVU684
 2063              	.LBB1493:
 2064              		.loc 5 169 21 view .LVU685
 2065              		.loc 5 171 3 view .LVU686
 2066              	.LBB1494:
 2067              	.LBI1494:
 2068              		.loc 5 136 22 view .LVU687
 2069              	.LBB1495:
 2070              		.loc 5 140 3 view .LVU688
 2071              		.loc 5 140 3 is_stmt 0 view .LVU689
 2072              	.LBE1495:
 2073              	.LBE1494:
 2074              	.LBB1498:
 2075              	.LBI1498:
 2076              		.loc 5 152 22 is_stmt 1 view .LVU690
 2077              	.LBB1499:
 2078              		.loc 5 154 21 view .LVU691
ARM GAS  C:\Users\DEVELO~1\AppData\Local\Temp\cc5wr7T7.s 			page 38


 2079              		.loc 5 156 3 view .LVU692
 2080              		.loc 5 156 3 is_stmt 0 view .LVU693
 2081              	.LBE1499:
 2082              	.LBE1498:
 2083              	.LBB1500:
 2084              	.LBB1496:
 2085              		.loc 5 140 28 view .LVU694
 2086 024e D4E90023 		ldrd	r2, r3, [r4]
 2087              	.LBE1496:
 2088              	.LBE1500:
 2089              	.LBE1493:
 2090              	.LBE1492:
 2091              		.loc 1 312 5 view .LVU695
 2092 0252 1B49     		ldr	r1, .L43+12
 2093              	.LBB1503:
 2094              	.LBB1502:
 2095              	.LBB1501:
 2096              	.LBB1497:
 2097              		.loc 5 140 28 view .LVU696
 2098 0254 9A1A     		subs	r2, r3, r2
 2099              	.LBE1497:
 2100              	.LBE1501:
 2101              		.loc 5 171 28 view .LVU697
 2102 0256 2369     		ldr	r3, [r4, #16]
 2103 0258 C3EBA203 		rsb	r3, r3, r2, asr #2
 2104              	.LBE1502:
 2105              	.LBE1503:
 2106              		.loc 1 312 5 view .LVU698
 2107 025c 1E1F     		subs	r6, r3, #4
 2108 025e 7042     		rsbs	r0, r6, #0
 2109 0260 7041     		adcs	r0, r0, r6
 2110 0262 FFF7FEFF 		bl	__test_assert
 2111              	.LVL117:
 2112 0266 08BB     		cbnz	r0, .L40
 2113              		.loc 1 312 5 is_stmt 1 view .LVU699
 2114              	.LBB1504:
 2115              	.LBI1504:
 2116              		.loc 6 584 20 view .LVU700
 2117              		.loc 6 586 3 view .LVU701
 2118              	.LBB1505:
 2119              	.LBI1505:
 2120              		.loc 2 421 20 view .LVU702
 2121              	.LBB1506:
 2122              		.loc 2 423 23 view .LVU703
 2123              		.loc 2 424 34 view .LVU704
 2124              		.loc 2 430 3 view .LVU705
 2125              		.loc 2 430 3 view .LVU706
 2126              		.loc 2 430 3 view .LVU707
 2127              		.loc 2 434 3 view .LVU708
 2128              	.LBB1507:
 2129              	.LBI1507:
 2130              		.loc 3 830 27 view .LVU709
 2131              		.loc 3 833 3 view .LVU710
 2132              	.LVL118:
 2133              	.LBB1508:
 2134              	.LBI1508:
 2135              		.loc 4 491 27 view .LVU711
ARM GAS  C:\Users\DEVELO~1\AppData\Local\Temp\cc5wr7T7.s 			page 39


 2136              	.LBB1509:
 2137              		.loc 4 493 3 view .LVU712
 2138              		.syntax unified
 2139              	@ 493 "../../../os/common/ext/ARM/CMSIS/Core/Include/cmsis_gcc.h" 1
 2140 0268 89F31188 		MSR basepri, r9
 2141              	@ 0 "" 2
 2142              	.LVL119:
 2143              		.loc 4 493 3 is_stmt 0 view .LVU713
 2144              		.thumb
 2145              		.syntax unified
 2146              	.LBE1509:
 2147              	.LBE1508:
 2148              	.LBE1507:
 2149              	.LBE1506:
 2150              	.LBE1505:
 2151              	.LBE1504:
 2152              		.loc 1 312 70 is_stmt 1 view .LVU714
 2153              		.loc 1 313 5 view .LVU715
 2154              	.LBB1510:
 2155              	.LBI1510:
 2156              		.loc 6 573 20 view .LVU716
 2157              		.loc 6 575 3 view .LVU717
 2158              	.LBB1511:
 2159              	.LBI1511:
 2160              		.loc 2 407 20 view .LVU718
 2161              		.loc 2 409 3 view .LVU719
 2162              	.LBB1512:
 2163              	.LBI1512:
 2164              		.loc 3 806 27 view .LVU720
 2165              		.loc 3 814 3 view .LVU721
 2166              	.LBB1513:
 2167              	.LBI1513:
 2168              		.loc 4 491 27 view .LVU722
 2169              	.LBB1514:
 2170              		.loc 4 493 3 view .LVU723
 2171              		.syntax unified
 2172              	@ 493 "../../../os/common/ext/ARM/CMSIS/Core/Include/cmsis_gcc.h" 1
 2173 026c 85F31188 		MSR basepri, r5
 2174              	@ 0 "" 2
 2175              	.LVL120:
 2176              		.loc 4 493 3 is_stmt 0 view .LVU724
 2177              		.thumb
 2178              		.syntax unified
 2179              	.LBE1514:
 2180              	.LBE1513:
 2181              	.LBE1512:
 2182              		.loc 2 410 35 is_stmt 1 view .LVU725
 2183              		.loc 2 411 21 view .LVU726
 2184              	.LBE1511:
 2185              	.LBE1510:
 2186              		.loc 1 313 5 view .LVU727
 2187              	.LBB1515:
 2188              	.LBI1515:
 2189              		.loc 5 152 22 view .LVU728
 2190              	.LBB1516:
 2191              		.loc 5 154 21 view .LVU729
 2192              		.loc 5 156 3 view .LVU730
ARM GAS  C:\Users\DEVELO~1\AppData\Local\Temp\cc5wr7T7.s 			page 40


 2193              		.loc 5 156 3 is_stmt 0 view .LVU731
 2194              	.LBE1516:
 2195              	.LBE1515:
 2196              		.loc 1 313 5 view .LVU732
 2197 0270 2069     		ldr	r0, [r4, #16]
 2198 0272 1449     		ldr	r1, .L43+16
 2199 0274 B0FA80F0 		clz	r0, r0
 2200 0278 4009     		lsrs	r0, r0, #5
 2201 027a FFF7FEFF 		bl	__test_assert
 2202              	.LVL121:
 2203 027e A8B9     		cbnz	r0, .L40
 2204              		.loc 1 313 5 is_stmt 1 view .LVU733
 2205              	.LBB1517:
 2206              	.LBI1517:
 2207              		.loc 6 584 20 view .LVU734
 2208              		.loc 6 586 3 view .LVU735
 2209              	.LBB1518:
 2210              	.LBI1518:
 2211              		.loc 2 421 20 view .LVU736
 2212              	.LBB1519:
 2213              		.loc 2 423 23 view .LVU737
 2214              		.loc 2 424 34 view .LVU738
 2215              		.loc 2 430 3 view .LVU739
 2216              		.loc 2 430 3 view .LVU740
 2217              		.loc 2 430 3 view .LVU741
 2218              		.loc 2 434 3 view .LVU742
 2219              	.LBB1520:
 2220              	.LBI1520:
 2221              		.loc 3 830 27 view .LVU743
 2222              		.loc 3 833 3 view .LVU744
 2223              	.LVL122:
 2224              	.LBB1521:
 2225              	.LBI1521:
 2226              		.loc 4 491 27 view .LVU745
 2227              	.LBB1522:
 2228              		.loc 4 493 3 view .LVU746
 2229              		.syntax unified
 2230              	@ 493 "../../../os/common/ext/ARM/CMSIS/Core/Include/cmsis_gcc.h" 1
 2231 0280 89F31188 		MSR basepri, r9
 2232              	@ 0 "" 2
 2233              	.LVL123:
 2234              		.loc 4 493 3 is_stmt 0 view .LVU747
 2235              		.thumb
 2236              		.syntax unified
 2237              	.LBE1522:
 2238              	.LBE1521:
 2239              	.LBE1520:
 2240              	.LBE1519:
 2241              	.LBE1518:
 2242              	.LBE1517:
 2243              		.loc 1 313 65 is_stmt 1 view .LVU748
 2244              		.loc 1 314 5 view .LVU749
 2245 0284 2068     		ldr	r0, [r4]
 2246 0286 A368     		ldr	r3, [r4, #8]
 2247 0288 0F49     		ldr	r1, .L43+20
 2248 028a C21A     		subs	r2, r0, r3
 2249 028c 5042     		rsbs	r0, r2, #0
ARM GAS  C:\Users\DEVELO~1\AppData\Local\Temp\cc5wr7T7.s 			page 41


 2250 028e 5041     		adcs	r0, r0, r2
 2251 0290 FFF7FEFF 		bl	__test_assert
 2252              	.LVL124:
 2253 0294 0028     		cmp	r0, #0
 2254 0296 7FF4CFAE 		bne	.L18
 2255              		.loc 1 314 78 view .LVU750
 2256              		.loc 1 315 5 view .LVU751
 2257 029a 2068     		ldr	r0, [r4]
 2258 029c E368     		ldr	r3, [r4, #12]
 2259 029e 0B49     		ldr	r1, .L43+24
 2260 02a0 C31A     		subs	r3, r0, r3
 2261 02a2 5842     		rsbs	r0, r3, #0
 2262 02a4 5841     		adcs	r0, r0, r3
 2263 02a6 FFF7FEFF 		bl	__test_assert
 2264              	.LVL125:
 2265              		.loc 1 315 5 view .LVU752
 2266              		.loc 1 315 5 is_stmt 0 view .LVU753
 2267 02aa C5E6     		b	.L18
 2268              	.LVL126:
 2269              	.L40:
 2270              		.loc 1 313 5 is_stmt 1 view .LVU754
 2271              	.LBB1523:
 2272              	.LBI1523:
 2273              		.loc 6 584 20 view .LVU755
 2274              		.loc 6 586 3 view .LVU756
 2275              	.LBB1524:
 2276              	.LBI1524:
 2277              		.loc 2 421 20 view .LVU757
 2278              	.LBB1525:
 2279              		.loc 2 423 23 view .LVU758
 2280              		.loc 2 424 34 view .LVU759
 2281              		.loc 2 430 3 view .LVU760
 2282              		.loc 2 430 3 view .LVU761
 2283              		.loc 2 430 3 view .LVU762
 2284              		.loc 2 434 3 view .LVU763
 2285              	.LBB1526:
 2286              	.LBI1526:
 2287              		.loc 3 830 27 view .LVU764
 2288              		.loc 3 833 3 view .LVU765
 2289              	.LBB1527:
 2290              	.LBI1527:
 2291              		.loc 4 491 27 view .LVU766
 2292              	.LBB1528:
 2293              		.loc 4 493 3 view .LVU767
 2294              		.syntax unified
 2295              	@ 493 "../../../os/common/ext/ARM/CMSIS/Core/Include/cmsis_gcc.h" 1
 2296 02ac 89F31188 		MSR basepri, r9
 2297              	@ 0 "" 2
 2298              	.LVL127:
 2299              		.loc 4 493 3 is_stmt 0 view .LVU768
 2300              		.thumb
 2301              		.syntax unified
 2302              	.LBE1528:
 2303              	.LBE1527:
 2304              	.LBE1526:
 2305              	.LBE1525:
 2306              	.LBE1524:
ARM GAS  C:\Users\DEVELO~1\AppData\Local\Temp\cc5wr7T7.s 			page 42


 2307              	.LBE1523:
 2308              		.loc 1 313 5 is_stmt 1 view .LVU769
 2309 02b0 C2E6     		b	.L18
 2310              	.L44:
 2311 02b2 00BF     		.align	2
 2312              	.L43:
 2313 02b4 00000000 		.word	chtest
 2314 02b8 00000000 		.word	.LANCHOR0
 2315 02bc 00000000 		.word	.LC1
 2316 02c0 0C000000 		.word	.LC2
 2317 02c4 18000000 		.word	.LC3
 2318 02c8 24000000 		.word	.LC4
 2319 02cc 48000000 		.word	.LC5
 2320 02d0 00000000 		.word	.LC0
 2321 02d4 6C000000 		.word	.LC6
 2322 02d8 78000000 		.word	.LC7
 2323 02dc 84000000 		.word	.LC8
 2324 02e0 9C000000 		.word	.LC9
 2325 02e4 B0000000 		.word	.LC10
 2326              	.LBE1530:
 2327              	.LBE1532:
 2328              		.cfi_endproc
 2329              	.LFE440:
 2330              		.size	oslib_test_002_002_execute, .-oslib_test_002_002_execute
 2331              		.section	.rodata.oslib_test_002_001_execute.str1.4,"aMS",%progbits,1
 2332              		.align	2
 2333              	.LC11:
 2334 0000 6E6F7420 		.ascii	"not in reset state\000"
 2334      696E2072 
 2334      65736574 
 2334      20737461 
 2334      746500
 2335              		.section	.text.oslib_test_002_001_execute,"ax",%progbits
 2336              		.align	1
 2337              		.p2align 4,,15
 2338              		.syntax unified
 2339              		.thumb
 2340              		.thumb_func
 2341              		.type	oslib_test_002_001_execute, %function
 2342              	oslib_test_002_001_execute:
 2343              	.LFB437:
 2344              		.loc 1 94 46 view -0
 2345              		.cfi_startproc
 2346              		@ args = 0, pretend = 0, frame = 8
 2347              		@ frame_needed = 0, uses_anonymous_args = 0
 2348              		.loc 1 95 3 view .LVU771
 2349              		.loc 1 96 3 view .LVU772
 2350              		.loc 1 99 3 view .LVU773
 2351              		.loc 1 94 46 is_stmt 0 view .LVU774
 2352 0000 2DE9F041 		push	{r4, r5, r6, r7, r8, lr}
 2353              		.cfi_def_cfa_offset 24
 2354              		.cfi_offset 4, -24
 2355              		.cfi_offset 5, -20
 2356              		.cfi_offset 6, -16
 2357              		.cfi_offset 7, -12
 2358              		.cfi_offset 8, -8
 2359              		.cfi_offset 14, -4
ARM GAS  C:\Users\DEVELO~1\AppData\Local\Temp\cc5wr7T7.s 			page 43


 2360              		.loc 1 99 3 view .LVU775
 2361 0004 0123     		movs	r3, #1
 2362 0006 BE4F     		ldr	r7, .L68
 2363              		.loc 1 94 46 view .LVU776
 2364 0008 82B0     		sub	sp, sp, #8
 2365              		.cfi_def_cfa_offset 32
 2366              	.LBB1754:
 2367              	.LBB1755:
 2368              	.LBB1756:
 2369              	.LBB1757:
 2370              	.LBB1758:
 2371              		.loc 4 493 3 view .LVU777
 2372 000a 3026     		movs	r6, #48
 2373              	.LBE1758:
 2374              	.LBE1757:
 2375              	.LBE1756:
 2376              	.LBE1755:
 2377              	.LBE1754:
 2378              		.loc 1 99 3 view .LVU778
 2379 000c 3B60     		str	r3, [r7]
 2380              		.loc 1 101 5 is_stmt 1 view .LVU779
 2381              	.LBB1763:
 2382              	.LBI1754:
 2383              		.loc 6 573 20 view .LVU780
 2384              		.loc 6 575 3 view .LVU781
 2385              	.LBB1762:
 2386              	.LBI1755:
 2387              		.loc 2 407 20 view .LVU782
 2388              		.loc 2 409 3 view .LVU783
 2389              	.LBB1761:
 2390              	.LBI1756:
 2391              		.loc 3 806 27 view .LVU784
 2392              		.loc 3 814 3 view .LVU785
 2393              	.LVL128:
 2394              	.LBB1760:
 2395              	.LBI1757:
 2396              		.loc 4 491 27 view .LVU786
 2397              	.LBB1759:
 2398              		.loc 4 493 3 view .LVU787
 2399              		.syntax unified
 2400              	@ 493 "../../../os/common/ext/ARM/CMSIS/Core/Include/cmsis_gcc.h" 1
 2401 000e 86F31188 		MSR basepri, r6
 2402              	@ 0 "" 2
 2403              	.LVL129:
 2404              		.loc 4 493 3 is_stmt 0 view .LVU788
 2405              		.thumb
 2406              		.syntax unified
 2407              	.LBE1759:
 2408              	.LBE1760:
 2409              	.LBE1761:
 2410              		.loc 2 410 35 is_stmt 1 view .LVU789
 2411              		.loc 2 411 21 view .LVU790
 2412              	.LBE1762:
 2413              	.LBE1763:
 2414              		.loc 1 101 5 view .LVU791
 2415              	.LBB1764:
 2416              	.LBI1764:
ARM GAS  C:\Users\DEVELO~1\AppData\Local\Temp\cc5wr7T7.s 			page 44


 2417              		.loc 5 167 22 view .LVU792
 2418              	.LBB1765:
 2419              		.loc 5 169 21 view .LVU793
 2420              		.loc 5 171 3 view .LVU794
 2421              	.LBB1766:
 2422              	.LBI1766:
 2423              		.loc 5 136 22 view .LVU795
 2424              	.LBB1767:
 2425              		.loc 5 140 3 view .LVU796
 2426              		.loc 5 140 3 is_stmt 0 view .LVU797
 2427              	.LBE1767:
 2428              	.LBE1766:
 2429              	.LBB1770:
 2430              	.LBI1770:
 2431              		.loc 5 152 22 is_stmt 1 view .LVU798
 2432              	.LBB1771:
 2433              		.loc 5 154 21 view .LVU799
 2434              		.loc 5 156 3 view .LVU800
 2435              		.loc 5 156 3 is_stmt 0 view .LVU801
 2436              	.LBE1771:
 2437              	.LBE1770:
 2438              	.LBB1772:
 2439              	.LBB1768:
 2440              		.loc 5 140 22 view .LVU802
 2441 0012 BC4C     		ldr	r4, .L68+4
 2442              	.LBE1768:
 2443              	.LBE1772:
 2444              	.LBE1765:
 2445              	.LBE1764:
 2446              		.loc 1 101 5 view .LVU803
 2447 0014 BC49     		ldr	r1, .L68+8
 2448              	.LBB1775:
 2449              	.LBB1774:
 2450              		.loc 5 171 28 view .LVU804
 2451 0016 2069     		ldr	r0, [r4, #16]
 2452              	.LBB1773:
 2453              	.LBB1769:
 2454              		.loc 5 140 28 view .LVU805
 2455 0018 D4E90023 		ldrd	r2, r3, [r4]
 2456 001c 9B1A     		subs	r3, r3, r2
 2457              	.LBE1769:
 2458              	.LBE1773:
 2459              		.loc 5 171 28 view .LVU806
 2460 001e C0EBA300 		rsb	r0, r0, r3, asr #2
 2461              	.LBE1774:
 2462              	.LBE1775:
 2463              		.loc 1 101 5 view .LVU807
 2464 0022 A0F10400 		sub	r0, #4
 2465 0026 B0FA80F0 		clz	r0, r0
 2466 002a 4009     		lsrs	r0, r0, #5
 2467 002c FFF7FEFF 		bl	__test_assert
 2468              	.LVL130:
 2469 0030 28B1     		cbz	r0, .L46
 2470              		.loc 1 101 5 is_stmt 1 view .LVU808
 2471              	.LBB1776:
 2472              	.LBI1776:
 2473              		.loc 6 584 20 view .LVU809
ARM GAS  C:\Users\DEVELO~1\AppData\Local\Temp\cc5wr7T7.s 			page 45


 2474              		.loc 6 586 3 view .LVU810
 2475              	.LBB1777:
 2476              	.LBI1777:
 2477              		.loc 2 421 20 view .LVU811
 2478              	.LBB1778:
 2479              		.loc 2 423 23 view .LVU812
 2480              		.loc 2 424 34 view .LVU813
 2481              		.loc 2 430 3 view .LVU814
 2482              		.loc 2 430 3 view .LVU815
 2483              		.loc 2 430 3 view .LVU816
 2484              		.loc 2 434 3 view .LVU817
 2485              	.LBB1779:
 2486              	.LBI1779:
 2487              		.loc 3 830 27 view .LVU818
 2488              		.loc 3 833 3 view .LVU819
 2489              	.LVL131:
 2490              	.LBB1780:
 2491              	.LBI1780:
 2492              		.loc 4 491 27 view .LVU820
 2493              	.LBB1781:
 2494              		.loc 4 493 3 view .LVU821
 2495 0032 0023     		movs	r3, #0
 2496              		.syntax unified
 2497              	@ 493 "../../../os/common/ext/ARM/CMSIS/Core/Include/cmsis_gcc.h" 1
 2498 0034 83F31188 		MSR basepri, r3
 2499              	@ 0 "" 2
 2500              	.LVL132:
 2501              		.loc 4 493 3 is_stmt 0 view .LVU822
 2502              		.thumb
 2503              		.syntax unified
 2504              	.LBE1781:
 2505              	.LBE1780:
 2506              	.LBE1779:
 2507              	.LBE1778:
 2508              	.LBE1777:
 2509              	.LBE1776:
 2510              		.loc 1 101 5 is_stmt 1 view .LVU823
 2511              	.L45:
 2512              		.loc 1 188 1 is_stmt 0 view .LVU824
 2513 0038 02B0     		add	sp, sp, #8
 2514              		.cfi_remember_state
 2515              		.cfi_def_cfa_offset 24
 2516              		@ sp needed
 2517 003a BDE8F081 		pop	{r4, r5, r6, r7, r8, pc}
 2518              	.L46:
 2519              		.cfi_restore_state
 2520              	.LBB1782:
 2521              	.LBI1782:
 2522              		.loc 1 94 13 is_stmt 1 view .LVU825
 2523              	.LBB1783:
 2524              		.loc 1 101 5 view .LVU826
 2525              	.LBB1784:
 2526              	.LBI1784:
 2527              		.loc 6 584 20 view .LVU827
 2528              		.loc 6 586 3 view .LVU828
 2529              	.LBB1785:
 2530              	.LBI1785:
ARM GAS  C:\Users\DEVELO~1\AppData\Local\Temp\cc5wr7T7.s 			page 46


 2531              		.loc 2 421 20 view .LVU829
 2532              	.LBB1786:
 2533              		.loc 2 423 23 view .LVU830
 2534              		.loc 2 424 34 view .LVU831
 2535              		.loc 2 430 3 view .LVU832
 2536              		.loc 2 430 3 view .LVU833
 2537              		.loc 2 430 3 view .LVU834
 2538              		.loc 2 434 3 view .LVU835
 2539              	.LBB1787:
 2540              	.LBI1787:
 2541              		.loc 3 830 27 view .LVU836
 2542              		.loc 3 833 3 view .LVU837
 2543              	.LVL133:
 2544              	.LBB1788:
 2545              	.LBI1788:
 2546              		.loc 4 491 27 view .LVU838
 2547              	.LBB1789:
 2548              		.loc 4 493 3 view .LVU839
 2549 003e 0546     		mov	r5, r0
 2550              		.syntax unified
 2551              	@ 493 "../../../os/common/ext/ARM/CMSIS/Core/Include/cmsis_gcc.h" 1
 2552 0040 80F31188 		MSR basepri, r0
 2553              	@ 0 "" 2
 2554              	.LVL134:
 2555              		.loc 4 493 3 is_stmt 0 view .LVU840
 2556              		.thumb
 2557              		.syntax unified
 2558              	.LBE1789:
 2559              	.LBE1788:
 2560              	.LBE1787:
 2561              	.LBE1786:
 2562              	.LBE1785:
 2563              	.LBE1784:
 2564              		.loc 1 101 71 is_stmt 1 view .LVU841
 2565              		.loc 1 103 3 view .LVU842
 2566              		.loc 1 103 19 view .LVU843
 2567              		.loc 1 107 3 view .LVU844
 2568 0044 0223     		movs	r3, #2
 2569              		.loc 1 109 5 is_stmt 0 view .LVU845
 2570 0046 2046     		mov	r0, r4
 2571              		.loc 1 107 3 view .LVU846
 2572 0048 3B60     		str	r3, [r7]
 2573              		.loc 1 109 5 is_stmt 1 view .LVU847
 2574 004a FFF7FEFF 		bl	chMBReset
 2575              	.LVL135:
 2576              		.loc 1 110 5 view .LVU848
 2577              	.LBB1790:
 2578              	.LBI1790:
 2579              		.loc 6 573 20 view .LVU849
 2580              		.loc 6 575 3 view .LVU850
 2581              	.LBB1791:
 2582              	.LBI1791:
 2583              		.loc 2 407 20 view .LVU851
 2584              		.loc 2 409 3 view .LVU852
 2585              	.LBB1792:
 2586              	.LBI1792:
 2587              		.loc 3 806 27 view .LVU853
ARM GAS  C:\Users\DEVELO~1\AppData\Local\Temp\cc5wr7T7.s 			page 47


 2588              		.loc 3 814 3 view .LVU854
 2589              	.LBB1793:
 2590              	.LBI1793:
 2591              		.loc 4 491 27 view .LVU855
 2592              	.LBB1794:
 2593              		.loc 4 493 3 view .LVU856
 2594              		.syntax unified
 2595              	@ 493 "../../../os/common/ext/ARM/CMSIS/Core/Include/cmsis_gcc.h" 1
 2596 004e 86F31188 		MSR basepri, r6
 2597              	@ 0 "" 2
 2598              	.LVL136:
 2599              		.loc 4 493 3 is_stmt 0 view .LVU857
 2600              		.thumb
 2601              		.syntax unified
 2602              	.LBE1794:
 2603              	.LBE1793:
 2604              	.LBE1792:
 2605              		.loc 2 410 35 is_stmt 1 view .LVU858
 2606              		.loc 2 411 21 view .LVU859
 2607              	.LBE1791:
 2608              	.LBE1790:
 2609              		.loc 1 110 5 view .LVU860
 2610              	.LBB1795:
 2611              	.LBI1795:
 2612              		.loc 5 167 22 view .LVU861
 2613              	.LBB1796:
 2614              		.loc 5 169 21 view .LVU862
 2615              		.loc 5 171 3 view .LVU863
 2616              	.LBB1797:
 2617              	.LBI1797:
 2618              		.loc 5 136 22 view .LVU864
 2619              	.LBB1798:
 2620              		.loc 5 140 3 view .LVU865
 2621              		.loc 5 140 3 is_stmt 0 view .LVU866
 2622              	.LBE1798:
 2623              	.LBE1797:
 2624              	.LBB1801:
 2625              	.LBI1801:
 2626              		.loc 5 152 22 is_stmt 1 view .LVU867
 2627              	.LBB1802:
 2628              		.loc 5 154 21 view .LVU868
 2629              		.loc 5 156 3 view .LVU869
 2630              		.loc 5 156 3 is_stmt 0 view .LVU870
 2631              	.LBE1802:
 2632              	.LBE1801:
 2633              	.LBB1803:
 2634              	.LBB1799:
 2635              		.loc 5 140 28 view .LVU871
 2636 0052 D4E90023 		ldrd	r2, r3, [r4]
 2637              	.LBE1799:
 2638              	.LBE1803:
 2639              		.loc 5 171 28 view .LVU872
 2640 0056 2069     		ldr	r0, [r4, #16]
 2641              	.LBB1804:
 2642              	.LBB1800:
 2643              		.loc 5 140 28 view .LVU873
 2644 0058 9B1A     		subs	r3, r3, r2
ARM GAS  C:\Users\DEVELO~1\AppData\Local\Temp\cc5wr7T7.s 			page 48


 2645              	.LBE1800:
 2646              	.LBE1804:
 2647              	.LBE1796:
 2648              	.LBE1795:
 2649              		.loc 1 110 5 view .LVU874
 2650 005a AC49     		ldr	r1, .L68+12
 2651              	.LBB1806:
 2652              	.LBB1805:
 2653              		.loc 5 171 28 view .LVU875
 2654 005c C0EBA300 		rsb	r0, r0, r3, asr #2
 2655              	.LBE1805:
 2656              	.LBE1806:
 2657              		.loc 1 110 5 view .LVU876
 2658 0060 A0F10400 		sub	r0, #4
 2659 0064 B0FA80F0 		clz	r0, r0
 2660 0068 4009     		lsrs	r0, r0, #5
 2661 006a FFF7FEFF 		bl	__test_assert
 2662              	.LVL137:
 2663 006e 8046     		mov	r8, r0
 2664 0070 88B9     		cbnz	r0, .L67
 2665              		.loc 1 110 5 is_stmt 1 view .LVU877
 2666              	.LBB1807:
 2667              	.LBI1807:
 2668              		.loc 6 584 20 view .LVU878
 2669              		.loc 6 586 3 view .LVU879
 2670              	.LBB1808:
 2671              	.LBI1808:
 2672              		.loc 2 421 20 view .LVU880
 2673              	.LBB1809:
 2674              		.loc 2 423 23 view .LVU881
 2675              		.loc 2 424 34 view .LVU882
 2676              		.loc 2 430 3 view .LVU883
 2677              		.loc 2 430 3 view .LVU884
 2678              		.loc 2 430 3 view .LVU885
 2679              		.loc 2 434 3 view .LVU886
 2680              	.LBB1810:
 2681              	.LBI1810:
 2682              		.loc 3 830 27 view .LVU887
 2683              		.loc 3 833 3 view .LVU888
 2684              	.LVL138:
 2685              	.LBB1811:
 2686              	.LBI1811:
 2687              		.loc 4 491 27 view .LVU889
 2688              	.LBB1812:
 2689              		.loc 4 493 3 view .LVU890
 2690              		.syntax unified
 2691              	@ 493 "../../../os/common/ext/ARM/CMSIS/Core/Include/cmsis_gcc.h" 1
 2692 0072 80F31188 		MSR basepri, r0
 2693              	@ 0 "" 2
 2694              	.LVL139:
 2695              		.loc 4 493 3 is_stmt 0 view .LVU891
 2696              		.thumb
 2697              		.syntax unified
 2698              	.LBE1812:
 2699              	.LBE1811:
 2700              	.LBE1810:
 2701              	.LBE1809:
ARM GAS  C:\Users\DEVELO~1\AppData\Local\Temp\cc5wr7T7.s 			page 49


 2702              	.LBE1808:
 2703              	.LBE1807:
 2704              		.loc 1 110 70 is_stmt 1 view .LVU892
 2705              		.loc 1 111 5 view .LVU893
 2706              	.LBB1813:
 2707              	.LBI1813:
 2708              		.loc 6 573 20 view .LVU894
 2709              		.loc 6 575 3 view .LVU895
 2710              	.LBB1814:
 2711              	.LBI1814:
 2712              		.loc 2 407 20 view .LVU896
 2713              		.loc 2 409 3 view .LVU897
 2714              	.LBB1815:
 2715              	.LBI1815:
 2716              		.loc 3 806 27 view .LVU898
 2717              		.loc 3 814 3 view .LVU899
 2718              	.LBB1816:
 2719              	.LBI1816:
 2720              		.loc 4 491 27 view .LVU900
 2721              	.LBB1817:
 2722              		.loc 4 493 3 view .LVU901
 2723              		.syntax unified
 2724              	@ 493 "../../../os/common/ext/ARM/CMSIS/Core/Include/cmsis_gcc.h" 1
 2725 0076 86F31188 		MSR basepri, r6
 2726              	@ 0 "" 2
 2727              	.LVL140:
 2728              		.loc 4 493 3 is_stmt 0 view .LVU902
 2729              		.thumb
 2730              		.syntax unified
 2731              	.LBE1817:
 2732              	.LBE1816:
 2733              	.LBE1815:
 2734              		.loc 2 410 35 is_stmt 1 view .LVU903
 2735              		.loc 2 411 21 view .LVU904
 2736              	.LBE1814:
 2737              	.LBE1813:
 2738              		.loc 1 111 5 view .LVU905
 2739              	.LBB1818:
 2740              	.LBI1818:
 2741              		.loc 5 152 22 view .LVU906
 2742              	.LBB1819:
 2743              		.loc 5 154 21 view .LVU907
 2744              		.loc 5 156 3 view .LVU908
 2745              		.loc 5 156 3 is_stmt 0 view .LVU909
 2746              	.LBE1819:
 2747              	.LBE1818:
 2748              		.loc 1 111 5 view .LVU910
 2749 007a 2069     		ldr	r0, [r4, #16]
 2750 007c A449     		ldr	r1, .L68+16
 2751 007e B0FA80F0 		clz	r0, r0
 2752 0082 4009     		lsrs	r0, r0, #5
 2753 0084 FFF7FEFF 		bl	__test_assert
 2754              	.LVL141:
 2755 0088 0546     		mov	r5, r0
 2756 008a 48B1     		cbz	r0, .L50
 2757              	.L66:
 2758              		.loc 1 113 5 is_stmt 1 view .LVU911
ARM GAS  C:\Users\DEVELO~1\AppData\Local\Temp\cc5wr7T7.s 			page 50


 2759              	.LBB1820:
 2760              	.LBI1820:
 2761              		.loc 6 584 20 view .LVU912
 2762              		.loc 6 586 3 view .LVU913
 2763              	.LBB1821:
 2764              	.LBI1821:
 2765              		.loc 2 421 20 view .LVU914
 2766              	.LBB1822:
 2767              		.loc 2 423 23 view .LVU915
 2768              		.loc 2 424 34 view .LVU916
 2769              		.loc 2 430 3 view .LVU917
 2770              		.loc 2 430 3 view .LVU918
 2771              		.loc 2 430 3 view .LVU919
 2772              		.loc 2 434 3 view .LVU920
 2773              	.LBB1823:
 2774              	.LBI1823:
 2775              		.loc 3 830 27 view .LVU921
 2776              		.loc 3 833 3 view .LVU922
 2777              	.LVL142:
 2778              	.LBB1824:
 2779              	.LBI1824:
 2780              		.loc 4 491 27 view .LVU923
 2781              	.LBB1825:
 2782              		.loc 4 493 3 view .LVU924
 2783              		.syntax unified
 2784              	@ 493 "../../../os/common/ext/ARM/CMSIS/Core/Include/cmsis_gcc.h" 1
 2785 008c 88F31188 		MSR basepri, r8
 2786              	@ 0 "" 2
 2787              	.LVL143:
 2788              		.loc 4 493 3 is_stmt 0 view .LVU925
 2789              		.thumb
 2790              		.syntax unified
 2791              	.LBE1825:
 2792              	.LBE1824:
 2793              	.LBE1823:
 2794              	.LBE1822:
 2795              	.LBE1821:
 2796              	.LBE1820:
 2797              		.loc 1 113 5 is_stmt 1 view .LVU926
 2798              	.LBE1783:
 2799              	.LBE1782:
 2800              		.loc 1 188 1 is_stmt 0 view .LVU927
 2801 0090 02B0     		add	sp, sp, #8
 2802              		.cfi_remember_state
 2803              		.cfi_def_cfa_offset 24
 2804              		@ sp needed
 2805 0092 BDE8F081 		pop	{r4, r5, r6, r7, r8, pc}
 2806              	.L67:
 2807              		.cfi_restore_state
 2808              	.LBB1963:
 2809              	.LBB1961:
 2810              		.loc 1 183 5 is_stmt 1 view .LVU928
 2811              	.LBB1826:
 2812              	.LBI1826:
 2813              		.loc 6 584 20 view .LVU929
 2814              		.loc 6 586 3 view .LVU930
 2815              	.LBB1827:
ARM GAS  C:\Users\DEVELO~1\AppData\Local\Temp\cc5wr7T7.s 			page 51


 2816              	.LBI1827:
 2817              		.loc 2 421 20 view .LVU931
 2818              	.LBB1828:
 2819              		.loc 2 423 23 view .LVU932
 2820              		.loc 2 424 34 view .LVU933
 2821              		.loc 2 430 3 view .LVU934
 2822              		.loc 2 430 3 view .LVU935
 2823              		.loc 2 430 3 view .LVU936
 2824              		.loc 2 434 3 view .LVU937
 2825              	.LBB1829:
 2826              	.LBI1829:
 2827              		.loc 3 830 27 view .LVU938
 2828              		.loc 3 833 3 view .LVU939
 2829              	.LVL144:
 2830              	.LBB1830:
 2831              	.LBI1830:
 2832              		.loc 4 491 27 view .LVU940
 2833              	.LBB1831:
 2834              		.loc 4 493 3 view .LVU941
 2835              		.syntax unified
 2836              	@ 493 "../../../os/common/ext/ARM/CMSIS/Core/Include/cmsis_gcc.h" 1
 2837 0096 85F31188 		MSR basepri, r5
 2838              	@ 0 "" 2
 2839              	.LVL145:
 2840              		.loc 4 493 3 is_stmt 0 view .LVU942
 2841              		.thumb
 2842              		.syntax unified
 2843              	.LBE1831:
 2844              	.LBE1830:
 2845              	.LBE1829:
 2846              	.LBE1828:
 2847              	.LBE1827:
 2848              	.LBE1826:
 2849              		.loc 1 183 5 is_stmt 1 view .LVU943
 2850              	.LBE1961:
 2851              	.LBE1963:
 2852              		.loc 1 188 1 is_stmt 0 view .LVU944
 2853 009a 02B0     		add	sp, sp, #8
 2854              		.cfi_remember_state
 2855              		.cfi_def_cfa_offset 24
 2856              		@ sp needed
 2857 009c BDE8F081 		pop	{r4, r5, r6, r7, r8, pc}
 2858              	.L50:
 2859              		.cfi_restore_state
 2860              	.LBB1964:
 2861              	.LBB1962:
 2862              		.loc 1 111 5 is_stmt 1 view .LVU945
 2863              	.LBB1832:
 2864              	.LBI1832:
 2865              		.loc 6 584 20 view .LVU946
 2866              		.loc 6 586 3 view .LVU947
 2867              	.LBB1833:
 2868              	.LBI1833:
 2869              		.loc 2 421 20 view .LVU948
 2870              	.LBB1834:
 2871              		.loc 2 423 23 view .LVU949
 2872              		.loc 2 424 34 view .LVU950
ARM GAS  C:\Users\DEVELO~1\AppData\Local\Temp\cc5wr7T7.s 			page 52


 2873              		.loc 2 430 3 view .LVU951
 2874              		.loc 2 430 3 view .LVU952
 2875              		.loc 2 430 3 view .LVU953
 2876              		.loc 2 434 3 view .LVU954
 2877              	.LBB1835:
 2878              	.LBI1835:
 2879              		.loc 3 830 27 view .LVU955
 2880              		.loc 3 833 3 view .LVU956
 2881              	.LVL146:
 2882              	.LBB1836:
 2883              	.LBI1836:
 2884              		.loc 4 491 27 view .LVU957
 2885              	.LBB1837:
 2886              		.loc 4 493 3 view .LVU958
 2887              		.syntax unified
 2888              	@ 493 "../../../os/common/ext/ARM/CMSIS/Core/Include/cmsis_gcc.h" 1
 2889 00a0 80F31188 		MSR basepri, r0
 2890              	@ 0 "" 2
 2891              	.LVL147:
 2892              		.loc 4 493 3 is_stmt 0 view .LVU959
 2893              		.thumb
 2894              		.syntax unified
 2895              	.LBE1837:
 2896              	.LBE1836:
 2897              	.LBE1835:
 2898              	.LBE1834:
 2899              	.LBE1833:
 2900              	.LBE1832:
 2901              		.loc 1 111 65 is_stmt 1 view .LVU960
 2902              		.loc 1 112 5 view .LVU961
 2903              	.LBB1838:
 2904              	.LBI1838:
 2905              		.loc 6 573 20 view .LVU962
 2906              		.loc 6 575 3 view .LVU963
 2907              	.LBB1839:
 2908              	.LBI1839:
 2909              		.loc 2 407 20 view .LVU964
 2910              		.loc 2 409 3 view .LVU965
 2911              	.LBB1840:
 2912              	.LBI1840:
 2913              		.loc 3 806 27 view .LVU966
 2914              		.loc 3 814 3 view .LVU967
 2915              	.LBB1841:
 2916              	.LBI1841:
 2917              		.loc 4 491 27 view .LVU968
 2918              	.LBB1842:
 2919              		.loc 4 493 3 view .LVU969
 2920              		.syntax unified
 2921              	@ 493 "../../../os/common/ext/ARM/CMSIS/Core/Include/cmsis_gcc.h" 1
 2922 00a4 86F31188 		MSR basepri, r6
 2923              	@ 0 "" 2
 2924              	.LVL148:
 2925              		.loc 4 493 3 is_stmt 0 view .LVU970
 2926              		.thumb
 2927              		.syntax unified
 2928              	.LBE1842:
 2929              	.LBE1841:
ARM GAS  C:\Users\DEVELO~1\AppData\Local\Temp\cc5wr7T7.s 			page 53


 2930              	.LBE1840:
 2931              		.loc 2 410 35 is_stmt 1 view .LVU971
 2932              		.loc 2 411 21 view .LVU972
 2933              	.LBE1839:
 2934              	.LBE1838:
 2935              		.loc 1 112 5 view .LVU973
 2936 00a8 2068     		ldr	r0, [r4]
 2937 00aa A368     		ldr	r3, [r4, #8]
 2938 00ac 9949     		ldr	r1, .L68+20
 2939 00ae C01A     		subs	r0, r0, r3
 2940 00b0 B0FA80F0 		clz	r0, r0
 2941 00b4 4009     		lsrs	r0, r0, #5
 2942 00b6 FFF7FEFF 		bl	__test_assert
 2943              	.LVL149:
 2944 00ba 8046     		mov	r8, r0
 2945 00bc 0028     		cmp	r0, #0
 2946 00be EAD1     		bne	.L67
 2947              		.loc 1 112 5 view .LVU974
 2948              	.LBB1843:
 2949              	.LBI1843:
 2950              		.loc 6 584 20 view .LVU975
 2951              		.loc 6 586 3 view .LVU976
 2952              	.LBB1844:
 2953              	.LBI1844:
 2954              		.loc 2 421 20 view .LVU977
 2955              	.LBB1845:
 2956              		.loc 2 423 23 view .LVU978
 2957              		.loc 2 424 34 view .LVU979
 2958              		.loc 2 430 3 view .LVU980
 2959              		.loc 2 430 3 view .LVU981
 2960              		.loc 2 430 3 view .LVU982
 2961              		.loc 2 434 3 view .LVU983
 2962              	.LBB1846:
 2963              	.LBI1846:
 2964              		.loc 3 830 27 view .LVU984
 2965              		.loc 3 833 3 view .LVU985
 2966              	.LVL150:
 2967              	.LBB1847:
 2968              	.LBI1847:
 2969              		.loc 4 491 27 view .LVU986
 2970              	.LBB1848:
 2971              		.loc 4 493 3 view .LVU987
 2972              		.syntax unified
 2973              	@ 493 "../../../os/common/ext/ARM/CMSIS/Core/Include/cmsis_gcc.h" 1
 2974 00c0 80F31188 		MSR basepri, r0
 2975              	@ 0 "" 2
 2976              	.LVL151:
 2977              		.loc 4 493 3 is_stmt 0 view .LVU988
 2978              		.thumb
 2979              		.syntax unified
 2980              	.LBE1848:
 2981              	.LBE1847:
 2982              	.LBE1846:
 2983              	.LBE1845:
 2984              	.LBE1844:
 2985              	.LBE1843:
 2986              		.loc 1 112 83 is_stmt 1 view .LVU989
ARM GAS  C:\Users\DEVELO~1\AppData\Local\Temp\cc5wr7T7.s 			page 54


 2987              		.loc 1 113 5 view .LVU990
 2988              	.LBB1849:
 2989              	.LBI1849:
 2990              		.loc 6 573 20 view .LVU991
 2991              		.loc 6 575 3 view .LVU992
 2992              	.LBB1850:
 2993              	.LBI1850:
 2994              		.loc 2 407 20 view .LVU993
 2995              		.loc 2 409 3 view .LVU994
 2996              	.LBB1851:
 2997              	.LBI1851:
 2998              		.loc 3 806 27 view .LVU995
 2999              		.loc 3 814 3 view .LVU996
 3000              	.LBB1852:
 3001              	.LBI1852:
 3002              		.loc 4 491 27 view .LVU997
 3003              	.LBB1853:
 3004              		.loc 4 493 3 view .LVU998
 3005              		.syntax unified
 3006              	@ 493 "../../../os/common/ext/ARM/CMSIS/Core/Include/cmsis_gcc.h" 1
 3007 00c4 86F31188 		MSR basepri, r6
 3008              	@ 0 "" 2
 3009              	.LVL152:
 3010              		.loc 4 493 3 is_stmt 0 view .LVU999
 3011              		.thumb
 3012              		.syntax unified
 3013              	.LBE1853:
 3014              	.LBE1852:
 3015              	.LBE1851:
 3016              		.loc 2 410 35 is_stmt 1 view .LVU1000
 3017              		.loc 2 411 21 view .LVU1001
 3018              	.LBE1850:
 3019              	.LBE1849:
 3020              		.loc 1 113 5 view .LVU1002
 3021 00c8 2068     		ldr	r0, [r4]
 3022 00ca E368     		ldr	r3, [r4, #12]
 3023 00cc 9249     		ldr	r1, .L68+24
 3024 00ce C01A     		subs	r0, r0, r3
 3025 00d0 B0FA80F0 		clz	r0, r0
 3026 00d4 4009     		lsrs	r0, r0, #5
 3027 00d6 FFF7FEFF 		bl	__test_assert
 3028              	.LVL153:
 3029 00da 0028     		cmp	r0, #0
 3030 00dc D6D1     		bne	.L66
 3031              		.loc 1 113 5 view .LVU1003
 3032              	.LBB1854:
 3033              	.LBI1854:
 3034              		.loc 6 584 20 view .LVU1004
 3035              		.loc 6 586 3 view .LVU1005
 3036              	.LBB1855:
 3037              	.LBI1855:
 3038              		.loc 2 421 20 view .LVU1006
 3039              	.LBB1856:
 3040              		.loc 2 423 23 view .LVU1007
 3041              		.loc 2 424 34 view .LVU1008
 3042              		.loc 2 430 3 view .LVU1009
 3043              		.loc 2 430 3 view .LVU1010
ARM GAS  C:\Users\DEVELO~1\AppData\Local\Temp\cc5wr7T7.s 			page 55


 3044              		.loc 2 430 3 view .LVU1011
 3045              		.loc 2 434 3 view .LVU1012
 3046              	.LBB1857:
 3047              	.LBI1857:
 3048              		.loc 3 830 27 view .LVU1013
 3049              		.loc 3 833 3 view .LVU1014
 3050              	.LVL154:
 3051              	.LBB1858:
 3052              	.LBI1858:
 3053              		.loc 4 491 27 view .LVU1015
 3054              	.LBB1859:
 3055              		.loc 4 493 3 view .LVU1016
 3056              		.syntax unified
 3057              	@ 493 "../../../os/common/ext/ARM/CMSIS/Core/Include/cmsis_gcc.h" 1
 3058 00de 80F31188 		MSR basepri, r0
 3059              	@ 0 "" 2
 3060              	.LVL155:
 3061              		.loc 4 493 3 is_stmt 0 view .LVU1017
 3062              		.thumb
 3063              		.syntax unified
 3064              	.LBE1859:
 3065              	.LBE1858:
 3066              	.LBE1857:
 3067              	.LBE1856:
 3068              	.LBE1855:
 3069              	.LBE1854:
 3070              		.loc 1 113 82 is_stmt 1 view .LVU1018
 3071              		.loc 1 115 3 view .LVU1019
 3072              		.loc 1 115 19 view .LVU1020
 3073              		.loc 1 119 3 view .LVU1021
 3074 00e2 0323     		movs	r3, #3
 3075              		.loc 1 121 12 is_stmt 0 view .LVU1022
 3076 00e4 0146     		mov	r1, r0
 3077 00e6 4FF0FF32 		mov	r2, #-1
 3078 00ea 2046     		mov	r0, r4
 3079              		.loc 1 119 3 view .LVU1023
 3080 00ec 3B60     		str	r3, [r7]
 3081              		.loc 1 121 5 is_stmt 1 view .LVU1024
 3082              		.loc 1 121 12 is_stmt 0 view .LVU1025
 3083 00ee FFF7FEFF 		bl	chMBPostTimeout
 3084              	.LVL156:
 3085              		.loc 1 122 5 is_stmt 1 view .LVU1026
 3086 00f2 851C     		adds	r5, r0, #2
 3087 00f4 8949     		ldr	r1, .L68+28
 3088 00f6 14BF     		ite	ne
 3089 00f8 0020     		movne	r0, #0
 3090              	.LVL157:
 3091              		.loc 1 122 5 is_stmt 0 view .LVU1027
 3092 00fa 0120     		moveq	r0, #1
 3093 00fc FFF7FEFF 		bl	__test_assert
 3094              	.LVL158:
 3095 0100 0028     		cmp	r0, #0
 3096 0102 99D1     		bne	.L45
 3097              		.loc 1 122 57 is_stmt 1 view .LVU1028
 3098              		.loc 1 123 5 view .LVU1029
 3099              		.loc 1 123 12 is_stmt 0 view .LVU1030
 3100 0104 0146     		mov	r1, r0
ARM GAS  C:\Users\DEVELO~1\AppData\Local\Temp\cc5wr7T7.s 			page 56


 3101 0106 4FF0FF32 		mov	r2, #-1
 3102 010a 2046     		mov	r0, r4
 3103 010c FFF7FEFF 		bl	chMBPostAheadTimeout
 3104              	.LVL159:
 3105              		.loc 1 124 5 is_stmt 1 view .LVU1031
 3106 0110 821C     		adds	r2, r0, #2
 3107 0112 8249     		ldr	r1, .L68+28
 3108 0114 14BF     		ite	ne
 3109 0116 0020     		movne	r0, #0
 3110              	.LVL160:
 3111              		.loc 1 124 5 is_stmt 0 view .LVU1032
 3112 0118 0120     		moveq	r0, #1
 3113 011a FFF7FEFF 		bl	__test_assert
 3114              	.LVL161:
 3115              		.loc 1 124 5 view .LVU1033
 3116 011e 0028     		cmp	r0, #0
 3117 0120 8AD1     		bne	.L45
 3118              		.loc 1 124 57 is_stmt 1 view .LVU1034
 3119              		.loc 1 125 5 view .LVU1035
 3120              		.loc 1 125 12 is_stmt 0 view .LVU1036
 3121 0122 01A9     		add	r1, sp, #4
 3122 0124 4FF0FF32 		mov	r2, #-1
 3123 0128 2046     		mov	r0, r4
 3124 012a FFF7FEFF 		bl	chMBFetchTimeout
 3125              	.LVL162:
 3126              		.loc 1 126 5 is_stmt 1 view .LVU1037
 3127 012e 831C     		adds	r3, r0, #2
 3128 0130 7A49     		ldr	r1, .L68+28
 3129 0132 14BF     		ite	ne
 3130 0134 0020     		movne	r0, #0
 3131              	.LVL163:
 3132              		.loc 1 126 5 is_stmt 0 view .LVU1038
 3133 0136 0120     		moveq	r0, #1
 3134 0138 FFF7FEFF 		bl	__test_assert
 3135              	.LVL164:
 3136              		.loc 1 126 5 view .LVU1039
 3137 013c 0028     		cmp	r0, #0
 3138 013e 7FF47BAF 		bne	.L45
 3139              		.loc 1 126 57 is_stmt 1 view .LVU1040
 3140              		.loc 1 127 5 view .LVU1041
 3141              	.LVL165:
 3142              	.LBB1860:
 3143              	.LBI1860:
 3144              		.loc 5 200 20 view .LVU1042
 3145              	.LBB1861:
 3146              		.loc 5 202 3 view .LVU1043
 3147              	.LBE1861:
 3148              	.LBE1860:
 3149              		.loc 1 133 3 is_stmt 0 view .LVU1044
 3150 0142 0423     		movs	r3, #4
 3151 0144 4225     		movs	r5, #66
 3152              		.loc 1 137 7 view .LVU1045
 3153 0146 764E     		ldr	r6, .L68+32
 3154              	.LBB1863:
 3155              	.LBB1862:
 3156              		.loc 5 202 14 view .LVU1046
 3157 0148 2075     		strb	r0, [r4, #20]
ARM GAS  C:\Users\DEVELO~1\AppData\Local\Temp\cc5wr7T7.s 			page 57


 3158              	.LVL166:
 3159              		.loc 5 202 14 view .LVU1047
 3160              	.LBE1862:
 3161              	.LBE1863:
 3162              		.loc 1 129 3 is_stmt 1 view .LVU1048
 3163              		.loc 1 129 19 view .LVU1049
 3164              		.loc 1 133 3 view .LVU1050
 3165 014a 3B60     		str	r3, [r7]
 3166              		.loc 1 135 5 view .LVU1051
 3167              	.LVL167:
 3168              		.loc 1 135 19 view .LVU1052
 3169              	.L55:
 3170              		.loc 1 136 7 view .LVU1053
 3171              		.loc 1 136 14 is_stmt 0 view .LVU1054
 3172 014c 2946     		mov	r1, r5
 3173 014e 4FF0FF32 		mov	r2, #-1
 3174 0152 2046     		mov	r0, r4
 3175              		.loc 1 135 19 view .LVU1055
 3176 0154 0135     		adds	r5, r5, #1
 3177              	.LVL168:
 3178              		.loc 1 136 14 view .LVU1056
 3179 0156 FFF7FEFF 		bl	chMBPostTimeout
 3180              	.LVL169:
 3181              		.loc 1 137 7 is_stmt 1 view .LVU1057
 3182 015a B0FA80F0 		clz	r0, r0
 3183              	.LVL170:
 3184              		.loc 1 137 7 is_stmt 0 view .LVU1058
 3185 015e 3146     		mov	r1, r6
 3186 0160 4009     		lsrs	r0, r0, #5
 3187 0162 FFF7FEFF 		bl	__test_assert
 3188              	.LVL171:
 3189              		.loc 1 137 59 is_stmt 1 view .LVU1059
 3190              		.loc 1 135 35 view .LVU1060
 3191              		.loc 1 135 19 view .LVU1061
 3192              		.loc 1 137 7 is_stmt 0 view .LVU1062
 3193 0166 0028     		cmp	r0, #0
 3194 0168 7FF466AF 		bne	.L45
 3195              		.loc 1 135 19 view .LVU1063
 3196 016c 452D     		cmp	r5, #69
 3197 016e EDD1     		bne	.L55
 3198              		.loc 1 139 5 is_stmt 1 view .LVU1064
 3199              		.loc 1 139 12 is_stmt 0 view .LVU1065
 3200 0170 4FF0FF32 		mov	r2, #-1
 3201 0174 4121     		movs	r1, #65
 3202 0176 6348     		ldr	r0, .L68+4
 3203 0178 FFF7FEFF 		bl	chMBPostAheadTimeout
 3204              	.LVL172:
 3205              		.loc 1 140 5 is_stmt 1 view .LVU1066
 3206 017c B0FA80F0 		clz	r0, r0
 3207              	.LVL173:
 3208              		.loc 1 140 5 is_stmt 0 view .LVU1067
 3209 0180 6749     		ldr	r1, .L68+32
 3210 0182 4009     		lsrs	r0, r0, #5
 3211 0184 FFF7FEFF 		bl	__test_assert
 3212              	.LVL174:
 3213 0188 0546     		mov	r5, r0
 3214 018a 0028     		cmp	r0, #0
ARM GAS  C:\Users\DEVELO~1\AppData\Local\Temp\cc5wr7T7.s 			page 58


 3215 018c 7FF454AF 		bne	.L45
 3216              		.loc 1 140 57 is_stmt 1 view .LVU1068
 3217              		.loc 1 142 3 view .LVU1069
 3218              		.loc 1 142 19 view .LVU1070
 3219              		.loc 1 146 3 view .LVU1071
 3220 0190 0523     		movs	r3, #5
 3221              	.LBB1864:
 3222              	.LBB1865:
 3223              	.LBB1866:
 3224              	.LBB1867:
 3225              	.LBB1868:
 3226              		.loc 4 493 3 is_stmt 0 view .LVU1072
 3227 0192 4FF03008 		mov	r8, #48
 3228              	.LBE1868:
 3229              	.LBE1867:
 3230              	.LBE1866:
 3231              	.LBE1865:
 3232              	.LBE1864:
 3233              		.loc 1 146 3 view .LVU1073
 3234 0196 3B60     		str	r3, [r7]
 3235              		.loc 1 148 5 is_stmt 1 view .LVU1074
 3236              	.LBB1873:
 3237              	.LBI1864:
 3238              		.loc 6 573 20 view .LVU1075
 3239              		.loc 6 575 3 view .LVU1076
 3240              	.LBB1872:
 3241              	.LBI1865:
 3242              		.loc 2 407 20 view .LVU1077
 3243              		.loc 2 409 3 view .LVU1078
 3244              	.LBB1871:
 3245              	.LBI1866:
 3246              		.loc 3 806 27 view .LVU1079
 3247              		.loc 3 814 3 view .LVU1080
 3248              	.LVL175:
 3249              	.LBB1870:
 3250              	.LBI1867:
 3251              		.loc 4 491 27 view .LVU1081
 3252              	.LBB1869:
 3253              		.loc 4 493 3 view .LVU1082
 3254              		.syntax unified
 3255              	@ 493 "../../../os/common/ext/ARM/CMSIS/Core/Include/cmsis_gcc.h" 1
 3256 0198 88F31188 		MSR basepri, r8
 3257              	@ 0 "" 2
 3258              	.LVL176:
 3259              		.loc 4 493 3 is_stmt 0 view .LVU1083
 3260              		.thumb
 3261              		.syntax unified
 3262              	.LBE1869:
 3263              	.LBE1870:
 3264              	.LBE1871:
 3265              		.loc 2 410 35 is_stmt 1 view .LVU1084
 3266              		.loc 2 411 21 view .LVU1085
 3267              	.LBE1872:
 3268              	.LBE1873:
 3269              		.loc 1 148 5 view .LVU1086
 3270              	.LBB1874:
 3271              	.LBI1874:
ARM GAS  C:\Users\DEVELO~1\AppData\Local\Temp\cc5wr7T7.s 			page 59


 3272              		.loc 5 167 22 view .LVU1087
 3273              		.loc 5 169 21 view .LVU1088
 3274              		.loc 5 171 3 view .LVU1089
 3275              	.LBB1875:
 3276              	.LBI1875:
 3277              		.loc 5 136 22 view .LVU1090
 3278              	.LBB1876:
 3279              		.loc 5 140 3 view .LVU1091
 3280              		.loc 5 140 3 is_stmt 0 view .LVU1092
 3281              	.LBE1876:
 3282              	.LBE1875:
 3283              	.LBB1879:
 3284              	.LBI1879:
 3285              		.loc 5 152 22 is_stmt 1 view .LVU1093
 3286              	.LBB1880:
 3287              		.loc 5 154 21 view .LVU1094
 3288              		.loc 5 156 3 view .LVU1095
 3289              		.loc 5 156 3 is_stmt 0 view .LVU1096
 3290              	.LBE1880:
 3291              	.LBE1879:
 3292              	.LBB1881:
 3293              	.LBB1877:
 3294              		.loc 5 140 28 view .LVU1097
 3295 019c D4E90023 		ldrd	r2, r3, [r4]
 3296              	.LBE1877:
 3297              	.LBE1881:
 3298              	.LBE1874:
 3299              		.loc 1 148 5 view .LVU1098
 3300 01a0 6049     		ldr	r1, .L68+36
 3301              	.LBB1883:
 3302              	.LBB1882:
 3303              	.LBB1878:
 3304              		.loc 5 140 28 view .LVU1099
 3305 01a2 9B1A     		subs	r3, r3, r2
 3306              	.LBE1878:
 3307              	.LBE1882:
 3308              	.LBE1883:
 3309              		.loc 1 148 5 view .LVU1100
 3310 01a4 2269     		ldr	r2, [r4, #16]
 3311 01a6 B2EBA30F 		cmp	r2, r3, asr #2
 3312 01aa 0CBF     		ite	eq
 3313 01ac 0120     		moveq	r0, #1
 3314 01ae 0020     		movne	r0, #0
 3315 01b0 FFF7FEFF 		bl	__test_assert
 3316              	.LVL177:
 3317 01b4 0646     		mov	r6, r0
 3318 01b6 0028     		cmp	r0, #0
 3319 01b8 7FF46DAF 		bne	.L67
 3320              		.loc 1 148 5 is_stmt 1 view .LVU1101
 3321              	.LBB1884:
 3322              	.LBI1884:
 3323              		.loc 6 584 20 view .LVU1102
 3324              		.loc 6 586 3 view .LVU1103
 3325              	.LBB1885:
 3326              	.LBI1885:
 3327              		.loc 2 421 20 view .LVU1104
 3328              	.LBB1886:
ARM GAS  C:\Users\DEVELO~1\AppData\Local\Temp\cc5wr7T7.s 			page 60


 3329              		.loc 2 423 23 view .LVU1105
 3330              		.loc 2 424 34 view .LVU1106
 3331              		.loc 2 430 3 view .LVU1107
 3332              		.loc 2 430 3 view .LVU1108
 3333              		.loc 2 430 3 view .LVU1109
 3334              		.loc 2 434 3 view .LVU1110
 3335              	.LBB1887:
 3336              	.LBI1887:
 3337              		.loc 3 830 27 view .LVU1111
 3338              		.loc 3 833 3 view .LVU1112
 3339              	.LVL178:
 3340              	.LBB1888:
 3341              	.LBI1888:
 3342              		.loc 4 491 27 view .LVU1113
 3343              	.LBB1889:
 3344              		.loc 4 493 3 view .LVU1114
 3345              		.syntax unified
 3346              	@ 493 "../../../os/common/ext/ARM/CMSIS/Core/Include/cmsis_gcc.h" 1
 3347 01bc 80F31188 		MSR basepri, r0
 3348              	@ 0 "" 2
 3349              	.LVL179:
 3350              		.loc 4 493 3 is_stmt 0 view .LVU1115
 3351              		.thumb
 3352              		.syntax unified
 3353              	.LBE1889:
 3354              	.LBE1888:
 3355              	.LBE1887:
 3356              	.LBE1886:
 3357              	.LBE1885:
 3358              	.LBE1884:
 3359              		.loc 1 148 66 is_stmt 1 view .LVU1116
 3360              		.loc 1 149 5 view .LVU1117
 3361              	.LBB1890:
 3362              	.LBI1890:
 3363              		.loc 6 573 20 view .LVU1118
 3364              		.loc 6 575 3 view .LVU1119
 3365              	.LBB1891:
 3366              	.LBI1891:
 3367              		.loc 2 407 20 view .LVU1120
 3368              		.loc 2 409 3 view .LVU1121
 3369              	.LBB1892:
 3370              	.LBI1892:
 3371              		.loc 3 806 27 view .LVU1122
 3372              		.loc 3 814 3 view .LVU1123
 3373              	.LBB1893:
 3374              	.LBI1893:
 3375              		.loc 4 491 27 view .LVU1124
 3376              	.LBB1894:
 3377              		.loc 4 493 3 view .LVU1125
 3378              		.syntax unified
 3379              	@ 493 "../../../os/common/ext/ARM/CMSIS/Core/Include/cmsis_gcc.h" 1
 3380 01c0 88F31188 		MSR basepri, r8
 3381              	@ 0 "" 2
 3382              	.LVL180:
 3383              		.loc 4 493 3 is_stmt 0 view .LVU1126
 3384              		.thumb
 3385              		.syntax unified
ARM GAS  C:\Users\DEVELO~1\AppData\Local\Temp\cc5wr7T7.s 			page 61


 3386              	.LBE1894:
 3387              	.LBE1893:
 3388              	.LBE1892:
 3389              		.loc 2 410 35 is_stmt 1 view .LVU1127
 3390              		.loc 2 411 21 view .LVU1128
 3391              	.LBE1891:
 3392              	.LBE1890:
 3393              		.loc 1 149 5 view .LVU1129
 3394              	.LBB1895:
 3395              	.LBI1895:
 3396              		.loc 5 152 22 view .LVU1130
 3397              	.LBB1896:
 3398              		.loc 5 154 21 view .LVU1131
 3399              		.loc 5 156 3 view .LVU1132
 3400              		.loc 5 156 3 is_stmt 0 view .LVU1133
 3401              	.LBE1896:
 3402              	.LBE1895:
 3403              		.loc 1 149 5 view .LVU1134
 3404 01c4 2069     		ldr	r0, [r4, #16]
 3405 01c6 5849     		ldr	r1, .L68+40
 3406 01c8 A0F1040E 		sub	lr, r0, #4
 3407 01cc DEF10000 		rsbs	r0, lr, #0
 3408 01d0 40EB0E00 		adc	r0, r0, lr
 3409 01d4 FFF7FEFF 		bl	__test_assert
 3410              	.LVL181:
 3411 01d8 0546     		mov	r5, r0
 3412 01da 10B1     		cbz	r0, .L57
 3413              		.loc 1 149 5 is_stmt 1 view .LVU1135
 3414              	.LBB1897:
 3415              	.LBI1897:
 3416              		.loc 6 584 20 view .LVU1136
 3417              		.loc 6 586 3 view .LVU1137
 3418              	.LBB1898:
 3419              	.LBI1898:
 3420              		.loc 2 421 20 view .LVU1138
 3421              	.LBB1899:
 3422              		.loc 2 423 23 view .LVU1139
 3423              		.loc 2 424 34 view .LVU1140
 3424              		.loc 2 430 3 view .LVU1141
 3425              		.loc 2 430 3 view .LVU1142
 3426              		.loc 2 430 3 view .LVU1143
 3427              		.loc 2 434 3 view .LVU1144
 3428              	.LBB1900:
 3429              	.LBI1900:
 3430              		.loc 3 830 27 view .LVU1145
 3431              		.loc 3 833 3 view .LVU1146
 3432              	.LVL182:
 3433              	.LBB1901:
 3434              	.LBI1901:
 3435              		.loc 4 491 27 view .LVU1147
 3436              	.LBB1902:
 3437              		.loc 4 493 3 view .LVU1148
 3438              		.syntax unified
 3439              	@ 493 "../../../os/common/ext/ARM/CMSIS/Core/Include/cmsis_gcc.h" 1
 3440 01dc 86F31188 		MSR basepri, r6
 3441              	@ 0 "" 2
 3442              	.LVL183:
ARM GAS  C:\Users\DEVELO~1\AppData\Local\Temp\cc5wr7T7.s 			page 62


 3443              		.loc 4 493 3 is_stmt 0 view .LVU1149
 3444              		.thumb
 3445              		.syntax unified
 3446              	.LBE1902:
 3447              	.LBE1901:
 3448              	.LBE1900:
 3449              	.LBE1899:
 3450              	.LBE1898:
 3451              	.LBE1897:
 3452              		.loc 1 149 5 is_stmt 1 view .LVU1150
 3453 01e0 2AE7     		b	.L45
 3454              	.L57:
 3455              		.loc 1 149 5 view .LVU1151
 3456              	.LBB1903:
 3457              	.LBI1903:
 3458              		.loc 6 584 20 view .LVU1152
 3459              		.loc 6 586 3 view .LVU1153
 3460              	.LBB1904:
 3461              	.LBI1904:
 3462              		.loc 2 421 20 view .LVU1154
 3463              	.LBB1905:
 3464              		.loc 2 423 23 view .LVU1155
 3465              		.loc 2 424 34 view .LVU1156
 3466              		.loc 2 430 3 view .LVU1157
 3467              		.loc 2 430 3 view .LVU1158
 3468              		.loc 2 430 3 view .LVU1159
 3469              		.loc 2 434 3 view .LVU1160
 3470              	.LBB1906:
 3471              	.LBI1906:
 3472              		.loc 3 830 27 view .LVU1161
 3473              		.loc 3 833 3 view .LVU1162
 3474              	.LVL184:
 3475              	.LBB1907:
 3476              	.LBI1907:
 3477              		.loc 4 491 27 view .LVU1163
 3478              	.LBB1908:
 3479              		.loc 4 493 3 view .LVU1164
 3480              		.syntax unified
 3481              	@ 493 "../../../os/common/ext/ARM/CMSIS/Core/Include/cmsis_gcc.h" 1
 3482 01e2 80F31188 		MSR basepri, r0
 3483              	@ 0 "" 2
 3484              	.LVL185:
 3485              		.loc 4 493 3 is_stmt 0 view .LVU1165
 3486              		.thumb
 3487              		.syntax unified
 3488              	.LBE1908:
 3489              	.LBE1907:
 3490              	.LBE1906:
 3491              	.LBE1905:
 3492              	.LBE1904:
 3493              	.LBE1903:
 3494              		.loc 1 149 69 is_stmt 1 view .LVU1166
 3495              		.loc 1 150 5 view .LVU1167
 3496              	.LBB1909:
 3497              	.LBI1909:
 3498              		.loc 6 573 20 view .LVU1168
 3499              		.loc 6 575 3 view .LVU1169
ARM GAS  C:\Users\DEVELO~1\AppData\Local\Temp\cc5wr7T7.s 			page 63


 3500              	.LBB1910:
 3501              	.LBI1910:
 3502              		.loc 2 407 20 view .LVU1170
 3503              		.loc 2 409 3 view .LVU1171
 3504              	.LBB1911:
 3505              	.LBI1911:
 3506              		.loc 3 806 27 view .LVU1172
 3507              		.loc 3 814 3 view .LVU1173
 3508              	.LBB1912:
 3509              	.LBI1912:
 3510              		.loc 4 491 27 view .LVU1174
 3511              	.LBB1913:
 3512              		.loc 4 493 3 view .LVU1175
 3513              		.syntax unified
 3514              	@ 493 "../../../os/common/ext/ARM/CMSIS/Core/Include/cmsis_gcc.h" 1
 3515 01e6 88F31188 		MSR basepri, r8
 3516              	@ 0 "" 2
 3517              	.LVL186:
 3518              		.loc 4 493 3 is_stmt 0 view .LVU1176
 3519              		.thumb
 3520              		.syntax unified
 3521              	.LBE1913:
 3522              	.LBE1912:
 3523              	.LBE1911:
 3524              		.loc 2 410 35 is_stmt 1 view .LVU1177
 3525              		.loc 2 411 21 view .LVU1178
 3526              	.LBE1910:
 3527              	.LBE1909:
 3528              		.loc 1 150 5 view .LVU1179
 3529 01ea D4E90230 		ldrd	r3, r0, [r4, #8]
 3530 01ee 4F49     		ldr	r1, .L68+44
 3531 01f0 A0EB030C 		sub	ip, r0, r3
 3532 01f4 DCF10000 		rsbs	r0, ip, #0
 3533 01f8 40EB0C00 		adc	r0, r0, ip
 3534 01fc FFF7FEFF 		bl	__test_assert
 3535              	.LVL187:
 3536 0200 0028     		cmp	r0, #0
 3537 0202 7FF448AF 		bne	.L67
 3538              		.loc 1 150 5 view .LVU1180
 3539              	.LBB1914:
 3540              	.LBI1914:
 3541              		.loc 6 584 20 view .LVU1181
 3542              		.loc 6 586 3 view .LVU1182
 3543              	.LBB1915:
 3544              	.LBI1915:
 3545              		.loc 2 421 20 view .LVU1183
 3546              	.LBB1916:
 3547              		.loc 2 423 23 view .LVU1184
 3548              		.loc 2 424 34 view .LVU1185
 3549              		.loc 2 430 3 view .LVU1186
 3550              		.loc 2 430 3 view .LVU1187
 3551              		.loc 2 430 3 view .LVU1188
 3552              		.loc 2 434 3 view .LVU1189
 3553              	.LBB1917:
 3554              	.LBI1917:
 3555              		.loc 3 830 27 view .LVU1190
 3556              		.loc 3 833 3 view .LVU1191
ARM GAS  C:\Users\DEVELO~1\AppData\Local\Temp\cc5wr7T7.s 			page 64


 3557              	.LVL188:
 3558              	.LBB1918:
 3559              	.LBI1918:
 3560              		.loc 4 491 27 view .LVU1192
 3561              	.LBB1919:
 3562              		.loc 4 493 3 view .LVU1193
 3563              		.syntax unified
 3564              	@ 493 "../../../os/common/ext/ARM/CMSIS/Core/Include/cmsis_gcc.h" 1
 3565 0206 80F31188 		MSR basepri, r0
 3566              	@ 0 "" 2
 3567              	.LVL189:
 3568              		.loc 4 493 3 is_stmt 0 view .LVU1194
 3569              		.thumb
 3570              		.syntax unified
 3571              	.LBE1919:
 3572              	.LBE1918:
 3573              	.LBE1917:
 3574              	.LBE1916:
 3575              	.LBE1915:
 3576              	.LBE1914:
 3577              		.loc 1 150 69 is_stmt 1 view .LVU1195
 3578              		.loc 1 152 3 view .LVU1196
 3579              		.loc 1 152 19 view .LVU1197
 3580              		.loc 1 156 3 view .LVU1198
 3581 020a 0623     		movs	r3, #6
 3582 020c 0425     		movs	r5, #4
 3583              		.loc 1 159 14 is_stmt 0 view .LVU1199
 3584 020e DFF8F480 		ldr	r8, .L68+4
 3585              		.loc 1 160 7 view .LVU1200
 3586 0212 434E     		ldr	r6, .L68+32
 3587              		.loc 1 156 3 view .LVU1201
 3588 0214 3B60     		str	r3, [r7]
 3589              		.loc 1 158 5 is_stmt 1 view .LVU1202
 3590              	.LVL190:
 3591              		.loc 1 158 19 view .LVU1203
 3592              	.L59:
 3593              		.loc 1 159 7 view .LVU1204
 3594              		.loc 1 159 14 is_stmt 0 view .LVU1205
 3595 0216 01A9     		add	r1, sp, #4
 3596 0218 4FF0FF32 		mov	r2, #-1
 3597 021c 4046     		mov	r0, r8
 3598 021e FFF7FEFF 		bl	chMBFetchTimeout
 3599              	.LVL191:
 3600              		.loc 1 160 7 is_stmt 1 view .LVU1206
 3601 0222 B0FA80F0 		clz	r0, r0
 3602              	.LVL192:
 3603              		.loc 1 160 7 is_stmt 0 view .LVU1207
 3604 0226 3146     		mov	r1, r6
 3605 0228 4009     		lsrs	r0, r0, #5
 3606 022a FFF7FEFF 		bl	__test_assert
 3607              	.LVL193:
 3608              		.loc 1 160 59 is_stmt 1 view .LVU1208
 3609              		.loc 1 161 7 view .LVU1209
 3610              		.loc 1 160 7 is_stmt 0 view .LVU1210
 3611 022e 0028     		cmp	r0, #0
 3612 0230 7FF402AF 		bne	.L45
 3613              		.loc 1 161 7 view .LVU1211
ARM GAS  C:\Users\DEVELO~1\AppData\Local\Temp\cc5wr7T7.s 			page 65


 3614 0234 9DF80400 		ldrb	r0, [sp, #4]	@ zero_extendqisi2
 3615 0238 FFF7FEFF 		bl	test_emit_token
 3616              	.LVL194:
 3617              		.loc 1 158 31 is_stmt 1 view .LVU1212
 3618              		.loc 1 158 19 view .LVU1213
 3619 023c 013D     		subs	r5, r5, #1
 3620              	.LVL195:
 3621              		.loc 1 158 19 is_stmt 0 view .LVU1214
 3622 023e EAD1     		bne	.L59
 3623              		.loc 1 163 5 is_stmt 1 view .LVU1215
 3624 0240 3B49     		ldr	r1, .L68+48
 3625 0242 3C48     		ldr	r0, .L68+52
 3626 0244 FFF7FEFF 		bl	__test_assert_sequence
 3627              	.LVL196:
 3628 0248 0028     		cmp	r0, #0
 3629 024a 7FF4F5AE 		bne	.L45
 3630              		.loc 1 163 55 view .LVU1216
 3631              		.loc 1 165 3 view .LVU1217
 3632              		.loc 1 165 19 view .LVU1218
 3633              		.loc 1 169 3 view .LVU1219
 3634 024e 0723     		movs	r3, #7
 3635              		.loc 1 171 12 is_stmt 0 view .LVU1220
 3636 0250 4621     		movs	r1, #70
 3637 0252 4FF0FF32 		mov	r2, #-1
 3638 0256 2B48     		ldr	r0, .L68+4
 3639              		.loc 1 169 3 view .LVU1221
 3640 0258 3B60     		str	r3, [r7]
 3641              		.loc 1 171 5 is_stmt 1 view .LVU1222
 3642              		.loc 1 171 12 is_stmt 0 view .LVU1223
 3643 025a FFF7FEFF 		bl	chMBPostTimeout
 3644              	.LVL197:
 3645              		.loc 1 172 5 is_stmt 1 view .LVU1224
 3646 025e B0FA80F0 		clz	r0, r0
 3647              	.LVL198:
 3648              		.loc 1 172 5 is_stmt 0 view .LVU1225
 3649 0262 2F49     		ldr	r1, .L68+32
 3650 0264 4009     		lsrs	r0, r0, #5
 3651 0266 FFF7FEFF 		bl	__test_assert
 3652              	.LVL199:
 3653 026a 0028     		cmp	r0, #0
 3654 026c 7FF4E4AE 		bne	.L45
 3655              		.loc 1 172 57 is_stmt 1 view .LVU1226
 3656              		.loc 1 173 5 view .LVU1227
 3657              		.loc 1 173 12 is_stmt 0 view .LVU1228
 3658 0270 01A9     		add	r1, sp, #4
 3659 0272 4FF0FF32 		mov	r2, #-1
 3660 0276 2348     		ldr	r0, .L68+4
 3661 0278 FFF7FEFF 		bl	chMBFetchTimeout
 3662              	.LVL200:
 3663              		.loc 1 174 5 is_stmt 1 view .LVU1229
 3664 027c B0FA80F0 		clz	r0, r0
 3665              	.LVL201:
 3666              		.loc 1 174 5 is_stmt 0 view .LVU1230
 3667 0280 2749     		ldr	r1, .L68+32
 3668 0282 4009     		lsrs	r0, r0, #5
 3669 0284 FFF7FEFF 		bl	__test_assert
 3670              	.LVL202:
ARM GAS  C:\Users\DEVELO~1\AppData\Local\Temp\cc5wr7T7.s 			page 66


 3671 0288 0028     		cmp	r0, #0
 3672 028a 7FF4D5AE 		bne	.L45
 3673              		.loc 1 174 57 is_stmt 1 view .LVU1231
 3674              		.loc 1 176 3 view .LVU1232
 3675              		.loc 1 176 19 view .LVU1233
 3676              		.loc 1 180 3 view .LVU1234
 3677 028e 0823     		movs	r3, #8
 3678              	.LBB1920:
 3679              	.LBB1921:
 3680              	.LBB1922:
 3681              	.LBB1923:
 3682              	.LBB1924:
 3683              		.loc 4 493 3 is_stmt 0 view .LVU1235
 3684 0290 3026     		movs	r6, #48
 3685              	.LBE1924:
 3686              	.LBE1923:
 3687              	.LBE1922:
 3688              	.LBE1921:
 3689              	.LBE1920:
 3690              		.loc 1 180 3 view .LVU1236
 3691 0292 3B60     		str	r3, [r7]
 3692              		.loc 1 182 5 is_stmt 1 view .LVU1237
 3693              	.LBB1929:
 3694              	.LBI1920:
 3695              		.loc 6 573 20 view .LVU1238
 3696              		.loc 6 575 3 view .LVU1239
 3697              	.LBB1928:
 3698              	.LBI1921:
 3699              		.loc 2 407 20 view .LVU1240
 3700              		.loc 2 409 3 view .LVU1241
 3701              	.LBB1927:
 3702              	.LBI1922:
 3703              		.loc 3 806 27 view .LVU1242
 3704              		.loc 3 814 3 view .LVU1243
 3705              	.LVL203:
 3706              	.LBB1926:
 3707              	.LBI1923:
 3708              		.loc 4 491 27 view .LVU1244
 3709              	.LBB1925:
 3710              		.loc 4 493 3 view .LVU1245
 3711              		.syntax unified
 3712              	@ 493 "../../../os/common/ext/ARM/CMSIS/Core/Include/cmsis_gcc.h" 1
 3713 0294 86F31188 		MSR basepri, r6
 3714              	@ 0 "" 2
 3715              	.LVL204:
 3716              		.loc 4 493 3 is_stmt 0 view .LVU1246
 3717              		.thumb
 3718              		.syntax unified
 3719              	.LBE1925:
 3720              	.LBE1926:
 3721              	.LBE1927:
 3722              		.loc 2 410 35 is_stmt 1 view .LVU1247
 3723              		.loc 2 411 21 view .LVU1248
 3724              	.LBE1928:
 3725              	.LBE1929:
 3726              		.loc 1 182 5 view .LVU1249
 3727              	.LBB1930:
ARM GAS  C:\Users\DEVELO~1\AppData\Local\Temp\cc5wr7T7.s 			page 67


 3728              	.LBI1930:
 3729              		.loc 5 167 22 view .LVU1250
 3730              	.LBB1931:
 3731              		.loc 5 169 21 view .LVU1251
 3732              		.loc 5 171 3 view .LVU1252
 3733              	.LBB1932:
 3734              	.LBI1932:
 3735              		.loc 5 136 22 view .LVU1253
 3736              	.LBB1933:
 3737              		.loc 5 140 3 view .LVU1254
 3738              		.loc 5 140 3 is_stmt 0 view .LVU1255
 3739              	.LBE1933:
 3740              	.LBE1932:
 3741              	.LBB1936:
 3742              	.LBI1936:
 3743              		.loc 5 152 22 is_stmt 1 view .LVU1256
 3744              	.LBB1937:
 3745              		.loc 5 154 21 view .LVU1257
 3746              		.loc 5 156 3 view .LVU1258
 3747              		.loc 5 156 3 is_stmt 0 view .LVU1259
 3748              	.LBE1937:
 3749              	.LBE1936:
 3750              	.LBB1938:
 3751              	.LBB1934:
 3752              		.loc 5 140 28 view .LVU1260
 3753 0298 D4E90023 		ldrd	r2, r3, [r4]
 3754              	.LBE1934:
 3755              	.LBE1938:
 3756              	.LBE1931:
 3757              	.LBE1930:
 3758              		.loc 1 182 5 view .LVU1261
 3759 029c 1B49     		ldr	r1, .L68+12
 3760              	.LBB1941:
 3761              	.LBB1940:
 3762              	.LBB1939:
 3763              	.LBB1935:
 3764              		.loc 5 140 28 view .LVU1262
 3765 029e 9A1A     		subs	r2, r3, r2
 3766              	.LBE1935:
 3767              	.LBE1939:
 3768              		.loc 5 171 28 view .LVU1263
 3769 02a0 2369     		ldr	r3, [r4, #16]
 3770 02a2 C3EBA203 		rsb	r3, r3, r2, asr #2
 3771              	.LBE1940:
 3772              	.LBE1941:
 3773              		.loc 1 182 5 view .LVU1264
 3774 02a6 1F1F     		subs	r7, r3, #4
 3775 02a8 7842     		rsbs	r0, r7, #0
 3776 02aa 7841     		adcs	r0, r0, r7
 3777 02ac FFF7FEFF 		bl	__test_assert
 3778              	.LVL205:
 3779 02b0 0028     		cmp	r0, #0
 3780 02b2 7FF4F0AE 		bne	.L67
 3781              		.loc 1 182 5 is_stmt 1 view .LVU1265
 3782              	.LBB1942:
 3783              	.LBI1942:
 3784              		.loc 6 584 20 view .LVU1266
ARM GAS  C:\Users\DEVELO~1\AppData\Local\Temp\cc5wr7T7.s 			page 68


 3785              		.loc 6 586 3 view .LVU1267
 3786              	.LBB1943:
 3787              	.LBI1943:
 3788              		.loc 2 421 20 view .LVU1268
 3789              	.LBB1944:
 3790              		.loc 2 423 23 view .LVU1269
 3791              		.loc 2 424 34 view .LVU1270
 3792              		.loc 2 430 3 view .LVU1271
 3793              		.loc 2 430 3 view .LVU1272
 3794              		.loc 2 430 3 view .LVU1273
 3795              		.loc 2 434 3 view .LVU1274
 3796              	.LBB1945:
 3797              	.LBI1945:
 3798              		.loc 3 830 27 view .LVU1275
 3799              		.loc 3 833 3 view .LVU1276
 3800              	.LVL206:
 3801              	.LBB1946:
 3802              	.LBI1946:
 3803              		.loc 4 491 27 view .LVU1277
 3804              	.LBB1947:
 3805              		.loc 4 493 3 view .LVU1278
 3806              		.syntax unified
 3807              	@ 493 "../../../os/common/ext/ARM/CMSIS/Core/Include/cmsis_gcc.h" 1
 3808 02b6 85F31188 		MSR basepri, r5
 3809              	@ 0 "" 2
 3810              	.LVL207:
 3811              		.loc 4 493 3 is_stmt 0 view .LVU1279
 3812              		.thumb
 3813              		.syntax unified
 3814              	.LBE1947:
 3815              	.LBE1946:
 3816              	.LBE1945:
 3817              	.LBE1944:
 3818              	.LBE1943:
 3819              	.LBE1942:
 3820              		.loc 1 182 70 is_stmt 1 view .LVU1280
 3821              		.loc 1 183 5 view .LVU1281
 3822              	.LBB1948:
 3823              	.LBI1948:
 3824              		.loc 6 573 20 view .LVU1282
 3825              		.loc 6 575 3 view .LVU1283
 3826              	.LBB1949:
 3827              	.LBI1949:
 3828              		.loc 2 407 20 view .LVU1284
 3829              		.loc 2 409 3 view .LVU1285
 3830              	.LBB1950:
 3831              	.LBI1950:
 3832              		.loc 3 806 27 view .LVU1286
 3833              		.loc 3 814 3 view .LVU1287
 3834              	.LBB1951:
 3835              	.LBI1951:
 3836              		.loc 4 491 27 view .LVU1288
 3837              	.LBB1952:
 3838              		.loc 4 493 3 view .LVU1289
 3839              		.syntax unified
 3840              	@ 493 "../../../os/common/ext/ARM/CMSIS/Core/Include/cmsis_gcc.h" 1
 3841 02ba 86F31188 		MSR basepri, r6
ARM GAS  C:\Users\DEVELO~1\AppData\Local\Temp\cc5wr7T7.s 			page 69


 3842              	@ 0 "" 2
 3843              	.LVL208:
 3844              		.loc 4 493 3 is_stmt 0 view .LVU1290
 3845              		.thumb
 3846              		.syntax unified
 3847              	.LBE1952:
 3848              	.LBE1951:
 3849              	.LBE1950:
 3850              		.loc 2 410 35 is_stmt 1 view .LVU1291
 3851              		.loc 2 411 21 view .LVU1292
 3852              	.LBE1949:
 3853              	.LBE1948:
 3854              		.loc 1 183 5 view .LVU1293
 3855              	.LBB1953:
 3856              	.LBI1953:
 3857              		.loc 5 152 22 view .LVU1294
 3858              	.LBB1954:
 3859              		.loc 5 154 21 view .LVU1295
 3860              		.loc 5 156 3 view .LVU1296
 3861              		.loc 5 156 3 is_stmt 0 view .LVU1297
 3862              	.LBE1954:
 3863              	.LBE1953:
 3864              		.loc 1 183 5 view .LVU1298
 3865 02be 2069     		ldr	r0, [r4, #16]
 3866 02c0 1349     		ldr	r1, .L68+16
 3867 02c2 B0FA80F0 		clz	r0, r0
 3868 02c6 4009     		lsrs	r0, r0, #5
 3869 02c8 FFF7FEFF 		bl	__test_assert
 3870              	.LVL209:
 3871 02cc 0028     		cmp	r0, #0
 3872 02ce 7FF4E2AE 		bne	.L67
 3873              		.loc 1 183 5 is_stmt 1 view .LVU1299
 3874              	.LBB1955:
 3875              	.LBI1955:
 3876              		.loc 6 584 20 view .LVU1300
 3877              		.loc 6 586 3 view .LVU1301
 3878              	.LBB1956:
 3879              	.LBI1956:
 3880              		.loc 2 421 20 view .LVU1302
 3881              	.LBB1957:
 3882              		.loc 2 423 23 view .LVU1303
 3883              		.loc 2 424 34 view .LVU1304
 3884              		.loc 2 430 3 view .LVU1305
 3885              		.loc 2 430 3 view .LVU1306
 3886              		.loc 2 430 3 view .LVU1307
 3887              		.loc 2 434 3 view .LVU1308
 3888              	.LBB1958:
 3889              	.LBI1958:
 3890              		.loc 3 830 27 view .LVU1309
 3891              		.loc 3 833 3 view .LVU1310
 3892              	.LVL210:
 3893              	.LBB1959:
 3894              	.LBI1959:
 3895              		.loc 4 491 27 view .LVU1311
 3896              	.LBB1960:
 3897              		.loc 4 493 3 view .LVU1312
 3898              		.syntax unified
ARM GAS  C:\Users\DEVELO~1\AppData\Local\Temp\cc5wr7T7.s 			page 70


 3899              	@ 493 "../../../os/common/ext/ARM/CMSIS/Core/Include/cmsis_gcc.h" 1
 3900 02d2 85F31188 		MSR basepri, r5
 3901              	@ 0 "" 2
 3902              	.LVL211:
 3903              		.loc 4 493 3 is_stmt 0 view .LVU1313
 3904              		.thumb
 3905              		.syntax unified
 3906              	.LBE1960:
 3907              	.LBE1959:
 3908              	.LBE1958:
 3909              	.LBE1957:
 3910              	.LBE1956:
 3911              	.LBE1955:
 3912              		.loc 1 183 65 is_stmt 1 view .LVU1314
 3913              		.loc 1 184 5 view .LVU1315
 3914 02d6 2068     		ldr	r0, [r4]
 3915 02d8 A368     		ldr	r3, [r4, #8]
 3916 02da 0E49     		ldr	r1, .L68+20
 3917 02dc C21A     		subs	r2, r0, r3
 3918 02de 5042     		rsbs	r0, r2, #0
 3919 02e0 5041     		adcs	r0, r0, r2
 3920 02e2 FFF7FEFF 		bl	__test_assert
 3921              	.LVL212:
 3922 02e6 0028     		cmp	r0, #0
 3923 02e8 7FF4A6AE 		bne	.L45
 3924              		.loc 1 184 78 view .LVU1316
 3925              		.loc 1 185 5 view .LVU1317
 3926 02ec 2068     		ldr	r0, [r4]
 3927 02ee E368     		ldr	r3, [r4, #12]
 3928 02f0 0949     		ldr	r1, .L68+24
 3929 02f2 C31A     		subs	r3, r0, r3
 3930 02f4 5842     		rsbs	r0, r3, #0
 3931 02f6 5841     		adcs	r0, r0, r3
 3932 02f8 FFF7FEFF 		bl	__test_assert
 3933              	.LVL213:
 3934              		.loc 1 185 5 view .LVU1318
 3935              		.loc 1 185 5 is_stmt 0 view .LVU1319
 3936 02fc 9CE6     		b	.L45
 3937              	.L69:
 3938 02fe 00BF     		.align	2
 3939              	.L68:
 3940 0300 00000000 		.word	chtest
 3941 0304 00000000 		.word	.LANCHOR0
 3942 0308 00000000 		.word	.LC1
 3943 030c 0C000000 		.word	.LC2
 3944 0310 18000000 		.word	.LC3
 3945 0314 24000000 		.word	.LC4
 3946 0318 48000000 		.word	.LC5
 3947 031c 00000000 		.word	.LC11
 3948 0320 00000000 		.word	.LC0
 3949 0324 6C000000 		.word	.LC6
 3950 0328 78000000 		.word	.LC7
 3951 032c 84000000 		.word	.LC8
 3952 0330 9C000000 		.word	.LC9
 3953 0334 B0000000 		.word	.LC10
 3954              	.LBE1962:
 3955              	.LBE1964:
ARM GAS  C:\Users\DEVELO~1\AppData\Local\Temp\cc5wr7T7.s 			page 71


 3956              		.cfi_endproc
 3957              	.LFE437:
 3958              		.size	oslib_test_002_001_execute, .-oslib_test_002_001_execute
 3959              		.section	.text.oslib_test_002_003_teardown,"ax",%progbits
 3960              		.align	1
 3961              		.p2align 4,,15
 3962              		.syntax unified
 3963              		.thumb
 3964              		.thumb_func
 3965              		.type	oslib_test_002_003_teardown, %function
 3966              	oslib_test_002_003_teardown:
 3967              	.LFB453:
 3968              		.cfi_startproc
 3969              		@ args = 0, pretend = 0, frame = 0
 3970              		@ frame_needed = 0, uses_anonymous_args = 0
 3971              		@ link register save eliminated.
 3972 0000 0148     		ldr	r0, .L71
 3973 0002 FFF7FEBF 		b	chMBReset
 3974              	.L72:
 3975 0006 00BF     		.align	2
 3976              	.L71:
 3977 0008 00000000 		.word	.LANCHOR0
 3978              		.cfi_endproc
 3979              	.LFE453:
 3980              		.size	oslib_test_002_003_teardown, .-oslib_test_002_003_teardown
 3981              		.section	.text.oslib_test_002_002_teardown,"ax",%progbits
 3982              		.align	1
 3983              		.p2align 4,,15
 3984              		.syntax unified
 3985              		.thumb
 3986              		.thumb_func
 3987              		.type	oslib_test_002_002_teardown, %function
 3988              	oslib_test_002_002_teardown:
 3989              	.LFB451:
 3990              		.cfi_startproc
 3991              		@ args = 0, pretend = 0, frame = 0
 3992              		@ frame_needed = 0, uses_anonymous_args = 0
 3993              		@ link register save eliminated.
 3994 0000 0148     		ldr	r0, .L74
 3995 0002 FFF7FEBF 		b	chMBReset
 3996              	.L75:
 3997 0006 00BF     		.align	2
 3998              	.L74:
 3999 0008 00000000 		.word	.LANCHOR0
 4000              		.cfi_endproc
 4001              	.LFE451:
 4002              		.size	oslib_test_002_002_teardown, .-oslib_test_002_002_teardown
 4003              		.section	.text.oslib_test_002_002_setup,"ax",%progbits
 4004              		.align	1
 4005              		.p2align 4,,15
 4006              		.syntax unified
 4007              		.thumb
 4008              		.thumb_func
 4009              		.type	oslib_test_002_002_setup, %function
 4010              	oslib_test_002_002_setup:
 4011              	.LFB447:
 4012              		.cfi_startproc
ARM GAS  C:\Users\DEVELO~1\AppData\Local\Temp\cc5wr7T7.s 			page 72


 4013              		@ args = 0, pretend = 0, frame = 0
 4014              		@ frame_needed = 0, uses_anonymous_args = 0
 4015              		@ link register save eliminated.
 4016 0000 0422     		movs	r2, #4
 4017 0002 0249     		ldr	r1, .L77
 4018 0004 0248     		ldr	r0, .L77+4
 4019 0006 FFF7FEBF 		b	chMBObjectInit
 4020              	.L78:
 4021 000a 00BF     		.align	2
 4022              	.L77:
 4023 000c 00000000 		.word	.LANCHOR1
 4024 0010 00000000 		.word	.LANCHOR0
 4025              		.cfi_endproc
 4026              	.LFE447:
 4027              		.size	oslib_test_002_002_setup, .-oslib_test_002_002_setup
 4028              		.section	.text.oslib_test_002_003_setup,"ax",%progbits
 4029              		.align	1
 4030              		.p2align 4,,15
 4031              		.syntax unified
 4032              		.thumb
 4033              		.thumb_func
 4034              		.type	oslib_test_002_003_setup, %function
 4035              	oslib_test_002_003_setup:
 4036              	.LFB449:
 4037              		.cfi_startproc
 4038              		@ args = 0, pretend = 0, frame = 0
 4039              		@ frame_needed = 0, uses_anonymous_args = 0
 4040              		@ link register save eliminated.
 4041 0000 0422     		movs	r2, #4
 4042 0002 0249     		ldr	r1, .L80
 4043 0004 0248     		ldr	r0, .L80+4
 4044 0006 FFF7FEBF 		b	chMBObjectInit
 4045              	.L81:
 4046 000a 00BF     		.align	2
 4047              	.L80:
 4048 000c 00000000 		.word	.LANCHOR1
 4049 0010 00000000 		.word	.LANCHOR0
 4050              		.cfi_endproc
 4051              	.LFE449:
 4052              		.size	oslib_test_002_003_setup, .-oslib_test_002_003_setup
 4053              		.global	oslib_test_sequence_002
 4054              		.section	.rodata.str1.4,"aMS",%progbits,1
 4055              		.align	2
 4056              	.LC12:
 4057 0000 4D61696C 		.ascii	"Mailboxes\000"
 4057      626F7865 
 4057      7300
 4058              		.global	oslib_test_sequence_002_array
 4059 000a 0000     		.align	2
 4060              	.LC13:
 4061 000c 4D61696C 		.ascii	"Mailbox timeouts\000"
 4061      626F7820 
 4061      74696D65 
 4061      6F757473 
 4061      00
 4062 001d 000000   		.align	2
 4063              	.LC14:
ARM GAS  C:\Users\DEVELO~1\AppData\Local\Temp\cc5wr7T7.s 			page 73


 4064 0020 4D61696C 		.ascii	"Mailbox I-Class API, non-blocking tests\000"
 4064      626F7820 
 4064      492D436C 
 4064      61737320 
 4064      4150492C 
 4065              		.align	2
 4066              	.LC15:
 4067 0048 4D61696C 		.ascii	"Mailbox normal API, non-blocking tests\000"
 4067      626F7820 
 4067      6E6F726D 
 4067      616C2041 
 4067      50492C20 
 4068              		.section	.bss.mb_buffer,"aw",%nobits
 4069              		.align	2
 4070              		.set	.LANCHOR1,. + 0
 4071              		.type	mb_buffer, %object
 4072              		.size	mb_buffer, 16
 4073              	mb_buffer:
 4074 0000 00000000 		.space	16
 4074      00000000 
 4074      00000000 
 4074      00000000 
 4075              		.section	.data.mb1,"aw"
 4076              		.align	2
 4077              		.set	.LANCHOR0,. + 0
 4078              		.type	mb1, %object
 4079              		.size	mb1, 40
 4080              	mb1:
 4081 0000 00000000 		.word	mb_buffer
 4082 0004 10000000 		.word	mb_buffer+16
 4083 0008 00000000 		.word	mb_buffer
 4084 000c 00000000 		.word	mb_buffer
 4085 0010 00000000 		.word	0
 4086 0014 00       		.byte	0
 4087 0015 000000   		.space	3
 4088 0018 18000000 		.word	mb1+24
 4089 001c 18000000 		.word	mb1+24
 4090 0020 20000000 		.word	mb1+32
 4091 0024 20000000 		.word	mb1+32
 4092              		.section	.rodata.oslib_test_002_001,"a"
 4093              		.align	2
 4094              		.type	oslib_test_002_001, %object
 4095              		.size	oslib_test_002_001, 16
 4096              	oslib_test_002_001:
 4097 0000 48000000 		.word	.LC15
 4098 0004 00000000 		.word	oslib_test_002_001_setup
 4099 0008 00000000 		.word	oslib_test_002_001_teardown
 4100 000c 00000000 		.word	oslib_test_002_001_execute
 4101              		.section	.rodata.oslib_test_002_002,"a"
 4102              		.align	2
 4103              		.type	oslib_test_002_002, %object
 4104              		.size	oslib_test_002_002, 16
 4105              	oslib_test_002_002:
 4106 0000 20000000 		.word	.LC14
 4107 0004 00000000 		.word	oslib_test_002_002_setup
 4108 0008 00000000 		.word	oslib_test_002_002_teardown
 4109 000c 00000000 		.word	oslib_test_002_002_execute
ARM GAS  C:\Users\DEVELO~1\AppData\Local\Temp\cc5wr7T7.s 			page 74


 4110              		.section	.rodata.oslib_test_002_003,"a"
 4111              		.align	2
 4112              		.type	oslib_test_002_003, %object
 4113              		.size	oslib_test_002_003, 16
 4114              	oslib_test_002_003:
 4115 0000 0C000000 		.word	.LC13
 4116 0004 00000000 		.word	oslib_test_002_003_setup
 4117 0008 00000000 		.word	oslib_test_002_003_teardown
 4118 000c 00000000 		.word	oslib_test_002_003_execute
 4119              		.section	.rodata.oslib_test_sequence_002,"a"
 4120              		.align	2
 4121              		.type	oslib_test_sequence_002, %object
 4122              		.size	oslib_test_sequence_002, 8
 4123              	oslib_test_sequence_002:
 4124 0000 00000000 		.word	.LC12
 4125 0004 00000000 		.word	oslib_test_sequence_002_array
 4126              		.section	.rodata.oslib_test_sequence_002_array,"a"
 4127              		.align	2
 4128              		.type	oslib_test_sequence_002_array, %object
 4129              		.size	oslib_test_sequence_002_array, 16
 4130              	oslib_test_sequence_002_array:
 4131 0000 00000000 		.word	oslib_test_002_001
 4132 0004 00000000 		.word	oslib_test_002_002
 4133 0008 00000000 		.word	oslib_test_002_003
 4134 000c 00000000 		.word	0
 4135              		.text
 4136              	.Letext0:
 4137              		.file 7 "c:\\chibistudio\\tools\\gnu tools arm embedded\\11.3 2022.08\\lib\\gcc\\arm-none-eabi\\11
 4138              		.file 8 "c:\\chibistudio\\tools\\gnu tools arm embedded\\11.3 2022.08\\arm-none-eabi\\include\\mac
 4139              		.file 9 "c:\\chibistudio\\tools\\gnu tools arm embedded\\11.3 2022.08\\arm-none-eabi\\include\\sys
 4140              		.file 10 "../../../os/rt/include/chearly.h"
 4141              		.file 11 "../../../os/rt/include/chtime.h"
 4142              		.file 12 "../../../os/rt/include/chlists.h"
 4143              		.file 13 "../../../os/rt/include/chobjects.h"
 4144              		.file 14 "../../../os/hal/include/hal_streams.h"
 4145              		.file 15 "../../../os/test/include/ch_test.h"
 4146              		.file 16 "../../../test/oslib/source/test/oslib_test_sequence_002.h"
 4147              		.section	.debug_info,"",%progbits
 4148              	.Ldebug_info0:
 4149 0000 C92C0000 		.4byte	0x2cc9
 4150 0004 0500     		.2byte	0x5
 4151 0006 01       		.byte	0x1
 4152 0007 04       		.byte	0x4
 4153 0008 00000000 		.4byte	.Ldebug_abbrev0
 4154 000c 2E       		.uleb128 0x2e
 4155 000d 8D040000 		.4byte	.LASF98
 4156 0011 1D       		.byte	0x1d
 4157 0012 31060000 		.4byte	.LASF99
 4158 0016 23020000 		.4byte	.LASF100
 4159 001a 64010000 		.4byte	.LLRL127
 4160 001e 00000000 		.4byte	0
 4161 0022 00000000 		.4byte	.Ldebug_line0
 4162 0026 2F       		.uleb128 0x2f
 4163 0027 04       		.byte	0x4
 4164 0028 05       		.byte	0x5
 4165 0029 696E7400 		.ascii	"int\000"
 4166 002d 0B       		.uleb128 0xb
ARM GAS  C:\Users\DEVELO~1\AppData\Local\Temp\cc5wr7T7.s 			page 75


 4167 002e B2000000 		.4byte	.LASF4
 4168 0032 07       		.byte	0x7
 4169 0033 D1       		.byte	0xd1
 4170 0034 17       		.byte	0x17
 4171 0035 39000000 		.4byte	0x39
 4172 0039 0C       		.uleb128 0xc
 4173 003a 04       		.byte	0x4
 4174 003b 07       		.byte	0x7
 4175 003c 63030000 		.4byte	.LASF0
 4176 0040 0C       		.uleb128 0xc
 4177 0041 08       		.byte	0x8
 4178 0042 05       		.byte	0x5
 4179 0043 E9010000 		.4byte	.LASF1
 4180 0047 0C       		.uleb128 0xc
 4181 0048 08       		.byte	0x8
 4182 0049 04       		.byte	0x4
 4183 004a 00000000 		.4byte	.LASF2
 4184 004e 0C       		.uleb128 0xc
 4185 004f 01       		.byte	0x1
 4186 0050 06       		.byte	0x6
 4187 0051 09030000 		.4byte	.LASF3
 4188 0055 0B       		.uleb128 0xb
 4189 0056 72020000 		.4byte	.LASF5
 4190 005a 08       		.byte	0x8
 4191 005b 2B       		.byte	0x2b
 4192 005c 18       		.byte	0x18
 4193 005d 61000000 		.4byte	0x61
 4194 0061 0C       		.uleb128 0xc
 4195 0062 01       		.byte	0x1
 4196 0063 08       		.byte	0x8
 4197 0064 C2020000 		.4byte	.LASF6
 4198 0068 0C       		.uleb128 0xc
 4199 0069 02       		.byte	0x2
 4200 006a 05       		.byte	0x5
 4201 006b A8000000 		.4byte	.LASF7
 4202 006f 0C       		.uleb128 0xc
 4203 0070 02       		.byte	0x2
 4204 0071 07       		.byte	0x7
 4205 0072 C9030000 		.4byte	.LASF8
 4206 0076 0B       		.uleb128 0xb
 4207 0077 73050000 		.4byte	.LASF9
 4208 007b 08       		.byte	0x8
 4209 007c 4D       		.byte	0x4d
 4210 007d 18       		.byte	0x18
 4211 007e 82000000 		.4byte	0x82
 4212 0082 0C       		.uleb128 0xc
 4213 0083 04       		.byte	0x4
 4214 0084 05       		.byte	0x5
 4215 0085 1A040000 		.4byte	.LASF10
 4216 0089 0B       		.uleb128 0xb
 4217 008a 56050000 		.4byte	.LASF11
 4218 008e 08       		.byte	0x8
 4219 008f 4F       		.byte	0x4f
 4220 0090 19       		.byte	0x19
 4221 0091 95000000 		.4byte	0x95
 4222 0095 0C       		.uleb128 0xc
 4223 0096 04       		.byte	0x4
ARM GAS  C:\Users\DEVELO~1\AppData\Local\Temp\cc5wr7T7.s 			page 76


 4224 0097 07       		.byte	0x7
 4225 0098 83030000 		.4byte	.LASF12
 4226 009c 0C       		.uleb128 0xc
 4227 009d 08       		.byte	0x8
 4228 009e 07       		.byte	0x7
 4229 009f 15030000 		.4byte	.LASF13
 4230 00a3 0B       		.uleb128 0xb
 4231 00a4 69010000 		.4byte	.LASF14
 4232 00a8 09       		.byte	0x9
 4233 00a9 18       		.byte	0x18
 4234 00aa 13       		.byte	0x13
 4235 00ab 55000000 		.4byte	0x55
 4236 00af 0E       		.uleb128 0xe
 4237 00b0 A3000000 		.4byte	0xa3
 4238 00b4 0B       		.uleb128 0xb
 4239 00b5 3B040000 		.4byte	.LASF15
 4240 00b9 09       		.byte	0x9
 4241 00ba 2C       		.byte	0x2c
 4242 00bb 13       		.byte	0x13
 4243 00bc 76000000 		.4byte	0x76
 4244 00c0 0B       		.uleb128 0xb
 4245 00c1 9C010000 		.4byte	.LASF16
 4246 00c5 09       		.byte	0x9
 4247 00c6 30       		.byte	0x30
 4248 00c7 14       		.byte	0x14
 4249 00c8 89000000 		.4byte	0x89
 4250 00cc 0B       		.uleb128 0xb
 4251 00cd 26060000 		.4byte	.LASF17
 4252 00d1 0A       		.byte	0xa
 4253 00d2 58       		.byte	0x58
 4254 00d3 19       		.byte	0x19
 4255 00d4 B4000000 		.4byte	0xb4
 4256 00d8 0A       		.uleb128 0xa
 4257 00d9 E4000000 		.4byte	0xe4
 4258 00dd 0C       		.uleb128 0xc
 4259 00de 01       		.byte	0x1
 4260 00df 08       		.byte	0x8
 4261 00e0 15040000 		.4byte	.LASF18
 4262 00e4 0E       		.uleb128 0xe
 4263 00e5 DD000000 		.4byte	0xdd
 4264 00e9 0B       		.uleb128 0xb
 4265 00ea B0030000 		.4byte	.LASF19
 4266 00ee 0B       		.byte	0xb
 4267 00ef 79       		.byte	0x79
 4268 00f0 12       		.byte	0x12
 4269 00f1 C0000000 		.4byte	0xc0
 4270 00f5 0B       		.uleb128 0xb
 4271 00f6 82010000 		.4byte	.LASF20
 4272 00fa 0C       		.byte	0xc
 4273 00fb 3F       		.byte	0x3f
 4274 00fc 19       		.byte	0x19
 4275 00fd 01010000 		.4byte	0x101
 4276 0101 1D       		.uleb128 0x1d
 4277 0102 BA050000 		.4byte	.LASF25
 4278 0106 08       		.byte	0x8
 4279 0107 0C       		.byte	0xc
 4280 0108 45       		.byte	0x45
ARM GAS  C:\Users\DEVELO~1\AppData\Local\Temp\cc5wr7T7.s 			page 77


 4281 0109 08       		.byte	0x8
 4282 010a 29010000 		.4byte	0x129
 4283 010e 08       		.uleb128 0x8
 4284 010f 2C060000 		.4byte	.LASF21
 4285 0113 0C       		.byte	0xc
 4286 0114 46       		.byte	0x46
 4287 0115 1A       		.byte	0x1a
 4288 0116 29010000 		.4byte	0x129
 4289 011a 00       		.byte	0
 4290 011b 08       		.uleb128 0x8
 4291 011c 15060000 		.4byte	.LASF22
 4292 0120 0C       		.byte	0xc
 4293 0121 47       		.byte	0x47
 4294 0122 1A       		.byte	0x1a
 4295 0123 29010000 		.4byte	0x129
 4296 0127 04       		.byte	0x4
 4297 0128 00       		.byte	0
 4298 0129 0A       		.uleb128 0xa
 4299 012a F5000000 		.4byte	0xf5
 4300 012e 30       		.uleb128 0x30
 4301 012f 04       		.byte	0x4
 4302 0130 0A       		.uleb128 0xa
 4303 0131 35010000 		.4byte	0x135
 4304 0135 31       		.uleb128 0x31
 4305 0136 0A       		.uleb128 0xa
 4306 0137 DD000000 		.4byte	0xdd
 4307 013b 0C       		.uleb128 0xc
 4308 013c 04       		.byte	0x4
 4309 013d 04       		.byte	0x4
 4310 013e 70040000 		.4byte	.LASF23
 4311 0142 0C       		.uleb128 0xc
 4312 0143 08       		.byte	0x8
 4313 0144 04       		.byte	0x4
 4314 0145 42050000 		.4byte	.LASF24
 4315 0149 0A       		.uleb128 0xa
 4316 014a A3000000 		.4byte	0xa3
 4317 014e 1D       		.uleb128 0x1d
 4318 014f 71010000 		.4byte	.LASF26
 4319 0153 08       		.byte	0x8
 4320 0154 0D       		.byte	0xd
 4321 0155 8F       		.byte	0x8f
 4322 0156 10       		.byte	0x10
 4323 0157 69010000 		.4byte	0x169
 4324 015b 08       		.uleb128 0x8
 4325 015c AB020000 		.4byte	.LASF27
 4326 0160 0D       		.byte	0xd
 4327 0161 93       		.byte	0x93
 4328 0162 21       		.byte	0x21
 4329 0163 F5000000 		.4byte	0xf5
 4330 0167 00       		.byte	0
 4331 0168 00       		.byte	0
 4332 0169 0B       		.uleb128 0xb
 4333 016a 59000000 		.4byte	.LASF28
 4334 016e 0D       		.byte	0xd
 4335 016f 94       		.byte	0x94
 4336 0170 03       		.byte	0x3
 4337 0171 4E010000 		.4byte	0x14e
ARM GAS  C:\Users\DEVELO~1\AppData\Local\Temp\cc5wr7T7.s 			page 78


 4338 0175 13       		.uleb128 0x13
 4339 0176 28       		.byte	0x28
 4340 0177 05       		.byte	0x5
 4341 0178 34       		.byte	0x34
 4342 0179 E4010000 		.4byte	0x1e4
 4343 017d 08       		.uleb128 0x8
 4344 017e 69040000 		.4byte	.LASF29
 4345 0182 05       		.byte	0x5
 4346 0183 35       		.byte	0x35
 4347 0184 1A       		.byte	0x1a
 4348 0185 E4010000 		.4byte	0x1e4
 4349 0189 00       		.byte	0
 4350 018a 10       		.uleb128 0x10
 4351 018b 746F7000 		.ascii	"top\000"
 4352 018f 05       		.byte	0x5
 4353 0190 37       		.byte	0x37
 4354 0191 1A       		.byte	0x1a
 4355 0192 E4010000 		.4byte	0x1e4
 4356 0196 04       		.byte	0x4
 4357 0197 08       		.uleb128 0x8
 4358 0198 B2010000 		.4byte	.LASF30
 4359 019c 05       		.byte	0x5
 4360 019d 39       		.byte	0x39
 4361 019e 1A       		.byte	0x1a
 4362 019f E4010000 		.4byte	0x1e4
 4363 01a3 08       		.byte	0x8
 4364 01a4 08       		.uleb128 0x8
 4365 01a5 C3050000 		.4byte	.LASF31
 4366 01a9 05       		.byte	0x5
 4367 01aa 3A       		.byte	0x3a
 4368 01ab 1A       		.byte	0x1a
 4369 01ac E4010000 		.4byte	0x1e4
 4370 01b0 0C       		.byte	0xc
 4371 01b1 10       		.uleb128 0x10
 4372 01b2 636E7400 		.ascii	"cnt\000"
 4373 01b6 05       		.byte	0x5
 4374 01b7 3B       		.byte	0x3b
 4375 01b8 19       		.byte	0x19
 4376 01b9 2D000000 		.4byte	0x2d
 4377 01bd 10       		.byte	0x10
 4378 01be 08       		.uleb128 0x8
 4379 01bf 6D050000 		.4byte	.LASF32
 4380 01c3 05       		.byte	0x5
 4381 01c4 3C       		.byte	0x3c
 4382 01c5 19       		.byte	0x19
 4383 01c6 E9010000 		.4byte	0x1e9
 4384 01ca 14       		.byte	0x14
 4385 01cb 10       		.uleb128 0x10
 4386 01cc 717700   		.ascii	"qw\000"
 4387 01cf 05       		.byte	0x5
 4388 01d0 3D       		.byte	0x3d
 4389 01d1 19       		.byte	0x19
 4390 01d2 69010000 		.4byte	0x169
 4391 01d6 18       		.byte	0x18
 4392 01d7 10       		.uleb128 0x10
 4393 01d8 717200   		.ascii	"qr\000"
 4394 01db 05       		.byte	0x5
ARM GAS  C:\Users\DEVELO~1\AppData\Local\Temp\cc5wr7T7.s 			page 79


 4395 01dc 3E       		.byte	0x3e
 4396 01dd 19       		.byte	0x19
 4397 01de 69010000 		.4byte	0x169
 4398 01e2 20       		.byte	0x20
 4399 01e3 00       		.byte	0
 4400 01e4 0A       		.uleb128 0xa
 4401 01e5 CC000000 		.4byte	0xcc
 4402 01e9 0C       		.uleb128 0xc
 4403 01ea 01       		.byte	0x1
 4404 01eb 02       		.byte	0x2
 4405 01ec 4D040000 		.4byte	.LASF33
 4406 01f0 0B       		.uleb128 0xb
 4407 01f1 43040000 		.4byte	.LASF34
 4408 01f5 05       		.byte	0x5
 4409 01f6 3F       		.byte	0x3f
 4410 01f7 03       		.byte	0x3
 4411 01f8 75010000 		.4byte	0x175
 4412 01fc 0E       		.uleb128 0xe
 4413 01fd F0010000 		.4byte	0x1f0
 4414 0201 1D       		.uleb128 0x1d
 4415 0202 23040000 		.4byte	.LASF35
 4416 0206 14       		.byte	0x14
 4417 0207 0E       		.byte	0xe
 4418 0208 48       		.byte	0x48
 4419 0209 08       		.byte	0x8
 4420 020a 50020000 		.4byte	0x250
 4421 020e 08       		.uleb128 0x8
 4422 020f F7010000 		.4byte	.LASF36
 4423 0213 0E       		.byte	0xe
 4424 0214 49       		.byte	0x49
 4425 0215 03       		.byte	0x3
 4426 0216 2D000000 		.4byte	0x2d
 4427 021a 00       		.byte	0
 4428 021b 08       		.uleb128 0x8
 4429 021c 69000000 		.4byte	.LASF37
 4430 0220 0E       		.byte	0xe
 4431 0221 49       		.byte	0x49
 4432 0222 03       		.byte	0x3
 4433 0223 73020000 		.4byte	0x273
 4434 0227 04       		.byte	0x4
 4435 0228 08       		.uleb128 0x8
 4436 0229 E4010000 		.4byte	.LASF38
 4437 022d 0E       		.byte	0xe
 4438 022e 49       		.byte	0x49
 4439 022f 03       		.byte	0x3
 4440 0230 91020000 		.4byte	0x291
 4441 0234 08       		.byte	0x8
 4442 0235 10       		.uleb128 0x10
 4443 0236 70757400 		.ascii	"put\000"
 4444 023a 0E       		.byte	0xe
 4445 023b 49       		.byte	0x49
 4446 023c 03       		.byte	0x3
 4447 023d AA020000 		.4byte	0x2aa
 4448 0241 0C       		.byte	0xc
 4449 0242 10       		.uleb128 0x10
 4450 0243 67657400 		.ascii	"get\000"
 4451 0247 0E       		.byte	0xe
ARM GAS  C:\Users\DEVELO~1\AppData\Local\Temp\cc5wr7T7.s 			page 80


 4452 0248 49       		.byte	0x49
 4453 0249 03       		.byte	0x3
 4454 024a BE020000 		.4byte	0x2be
 4455 024e 10       		.byte	0x10
 4456 024f 00       		.byte	0
 4457 0250 0E       		.uleb128 0xe
 4458 0251 01020000 		.4byte	0x201
 4459 0255 14       		.uleb128 0x14
 4460 0256 2D000000 		.4byte	0x2d
 4461 025a 6E020000 		.4byte	0x26e
 4462 025e 06       		.uleb128 0x6
 4463 025f 2E010000 		.4byte	0x12e
 4464 0263 06       		.uleb128 0x6
 4465 0264 6E020000 		.4byte	0x26e
 4466 0268 06       		.uleb128 0x6
 4467 0269 2D000000 		.4byte	0x2d
 4468 026d 00       		.byte	0
 4469 026e 0A       		.uleb128 0xa
 4470 026f AF000000 		.4byte	0xaf
 4471 0273 0A       		.uleb128 0xa
 4472 0274 55020000 		.4byte	0x255
 4473 0278 14       		.uleb128 0x14
 4474 0279 2D000000 		.4byte	0x2d
 4475 027d 91020000 		.4byte	0x291
 4476 0281 06       		.uleb128 0x6
 4477 0282 2E010000 		.4byte	0x12e
 4478 0286 06       		.uleb128 0x6
 4479 0287 49010000 		.4byte	0x149
 4480 028b 06       		.uleb128 0x6
 4481 028c 2D000000 		.4byte	0x2d
 4482 0290 00       		.byte	0
 4483 0291 0A       		.uleb128 0xa
 4484 0292 78020000 		.4byte	0x278
 4485 0296 14       		.uleb128 0x14
 4486 0297 CC000000 		.4byte	0xcc
 4487 029b AA020000 		.4byte	0x2aa
 4488 029f 06       		.uleb128 0x6
 4489 02a0 2E010000 		.4byte	0x12e
 4490 02a4 06       		.uleb128 0x6
 4491 02a5 A3000000 		.4byte	0xa3
 4492 02a9 00       		.byte	0
 4493 02aa 0A       		.uleb128 0xa
 4494 02ab 96020000 		.4byte	0x296
 4495 02af 14       		.uleb128 0x14
 4496 02b0 CC000000 		.4byte	0xcc
 4497 02b4 BE020000 		.4byte	0x2be
 4498 02b8 06       		.uleb128 0x6
 4499 02b9 2E010000 		.4byte	0x12e
 4500 02bd 00       		.byte	0
 4501 02be 0A       		.uleb128 0xa
 4502 02bf AF020000 		.4byte	0x2af
 4503 02c3 13       		.uleb128 0x13
 4504 02c4 04       		.byte	0x4
 4505 02c5 0E       		.byte	0xe
 4506 02c6 53       		.byte	0x53
 4507 02c7 D9020000 		.4byte	0x2d9
 4508 02cb 10       		.uleb128 0x10
ARM GAS  C:\Users\DEVELO~1\AppData\Local\Temp\cc5wr7T7.s 			page 81


 4509 02cc 766D7400 		.ascii	"vmt\000"
 4510 02d0 0E       		.byte	0xe
 4511 02d1 55       		.byte	0x55
 4512 02d2 29       		.byte	0x29
 4513 02d3 D9020000 		.4byte	0x2d9
 4514 02d7 00       		.byte	0
 4515 02d8 00       		.byte	0
 4516 02d9 0A       		.uleb128 0xa
 4517 02da 50020000 		.4byte	0x250
 4518 02de 0B       		.uleb128 0xb
 4519 02df F1000000 		.4byte	.LASF39
 4520 02e3 0E       		.byte	0xe
 4521 02e4 57       		.byte	0x57
 4522 02e5 03       		.byte	0x3
 4523 02e6 C3020000 		.4byte	0x2c3
 4524 02ea 0B       		.uleb128 0xb
 4525 02eb 8D010000 		.4byte	.LASF40
 4526 02ef 0F       		.byte	0xf
 4527 02f0 7D       		.byte	0x7d
 4528 02f1 0F       		.byte	0xf
 4529 02f2 F6020000 		.4byte	0x2f6
 4530 02f6 0A       		.uleb128 0xa
 4531 02f7 FB020000 		.4byte	0x2fb
 4532 02fb 14       		.uleb128 0x14
 4533 02fc 26000000 		.4byte	0x26
 4534 0300 0A030000 		.4byte	0x30a
 4535 0304 06       		.uleb128 0x6
 4536 0305 26000000 		.4byte	0x26
 4537 0309 00       		.byte	0
 4538 030a 13       		.uleb128 0x13
 4539 030b 28       		.byte	0x28
 4540 030c 0F       		.byte	0xf
 4541 030d 82       		.byte	0x82
 4542 030e 7B030000 		.4byte	0x37b
 4543 0312 08       		.uleb128 0x8
 4544 0313 A5010000 		.4byte	.LASF41
 4545 0317 0F       		.byte	0xf
 4546 0318 86       		.byte	0x86
 4547 0319 15       		.byte	0x15
 4548 031a 39000000 		.4byte	0x39
 4549 031e 00       		.byte	0
 4550 031f 08       		.uleb128 0x8
 4551 0320 CB000000 		.4byte	.LASF42
 4552 0324 0F       		.byte	0xf
 4553 0325 8A       		.byte	0x8a
 4554 0326 15       		.byte	0x15
 4555 0327 E9010000 		.4byte	0x1e9
 4556 032b 04       		.byte	0x4
 4557 032c 08       		.uleb128 0x8
 4558 032d D9020000 		.4byte	.LASF43
 4559 0331 0F       		.byte	0xf
 4560 0332 8E       		.byte	0x8e
 4561 0333 15       		.byte	0x15
 4562 0334 E9010000 		.4byte	0x1e9
 4563 0338 05       		.byte	0x5
 4564 0339 08       		.uleb128 0x8
 4565 033a 07020000 		.4byte	.LASF44
ARM GAS  C:\Users\DEVELO~1\AppData\Local\Temp\cc5wr7T7.s 			page 82


 4566 033e 0F       		.byte	0xf
 4567 033f 92       		.byte	0x92
 4568 0340 16       		.byte	0x16
 4569 0341 D8000000 		.4byte	0xd8
 4570 0345 08       		.byte	0x8
 4571 0346 08       		.uleb128 0x8
 4572 0347 17020000 		.4byte	.LASF45
 4573 034b 0F       		.byte	0xf
 4574 034c 96       		.byte	0x96
 4575 034d 16       		.byte	0x16
 4576 034e 36010000 		.4byte	0x136
 4577 0352 0C       		.byte	0xc
 4578 0353 08       		.uleb128 0x8
 4579 0354 B8010000 		.4byte	.LASF46
 4580 0358 0F       		.byte	0xf
 4581 0359 9A       		.byte	0x9a
 4582 035a 15       		.byte	0x15
 4583 035b 7B030000 		.4byte	0x37b
 4584 035f 10       		.byte	0x10
 4585 0360 08       		.uleb128 0x8
 4586 0361 E9000000 		.4byte	.LASF47
 4587 0365 0F       		.byte	0xf
 4588 0366 9E       		.byte	0x9e
 4589 0367 15       		.byte	0x15
 4590 0368 EA020000 		.4byte	0x2ea
 4591 036c 20       		.byte	0x20
 4592 036d 08       		.uleb128 0x8
 4593 036e 1C020000 		.4byte	.LASF48
 4594 0372 0F       		.byte	0xf
 4595 0373 A3       		.byte	0xa3
 4596 0374 19       		.byte	0x19
 4597 0375 8B030000 		.4byte	0x38b
 4598 0379 24       		.byte	0x24
 4599 037a 00       		.byte	0
 4600 037b 17       		.uleb128 0x17
 4601 037c DD000000 		.4byte	0xdd
 4602 0380 8B030000 		.4byte	0x38b
 4603 0384 18       		.uleb128 0x18
 4604 0385 39000000 		.4byte	0x39
 4605 0389 0F       		.byte	0xf
 4606 038a 00       		.byte	0
 4607 038b 0A       		.uleb128 0xa
 4608 038c DE020000 		.4byte	0x2de
 4609 0390 0B       		.uleb128 0xb
 4610 0391 2E000000 		.4byte	.LASF49
 4611 0395 0F       		.byte	0xf
 4612 0396 A5       		.byte	0xa5
 4613 0397 03       		.byte	0x3
 4614 0398 0A030000 		.4byte	0x30a
 4615 039c 13       		.uleb128 0x13
 4616 039d 10       		.byte	0x10
 4617 039e 0F       		.byte	0xf
 4618 039f AA       		.byte	0xaa
 4619 03a0 D9030000 		.4byte	0x3d9
 4620 03a4 08       		.uleb128 0x8
 4621 03a5 B1020000 		.4byte	.LASF50
 4622 03a9 0F       		.byte	0xf
ARM GAS  C:\Users\DEVELO~1\AppData\Local\Temp\cc5wr7T7.s 			page 83


 4623 03aa AB       		.byte	0xab
 4624 03ab 0F       		.byte	0xf
 4625 03ac D8000000 		.4byte	0xd8
 4626 03b0 00       		.byte	0
 4627 03b1 08       		.uleb128 0x8
 4628 03b2 D0010000 		.4byte	.LASF51
 4629 03b6 0F       		.byte	0xf
 4630 03b7 AC       		.byte	0xac
 4631 03b8 0A       		.byte	0xa
 4632 03b9 30010000 		.4byte	0x130
 4633 03bd 04       		.byte	0x4
 4634 03be 08       		.uleb128 0x8
 4635 03bf A2020000 		.4byte	.LASF52
 4636 03c3 0F       		.byte	0xf
 4637 03c4 AD       		.byte	0xad
 4638 03c5 0A       		.byte	0xa
 4639 03c6 30010000 		.4byte	0x130
 4640 03ca 08       		.byte	0x8
 4641 03cb 08       		.uleb128 0x8
 4642 03cc DC050000 		.4byte	.LASF53
 4643 03d0 0F       		.byte	0xf
 4644 03d1 AE       		.byte	0xae
 4645 03d2 0A       		.byte	0xa
 4646 03d3 30010000 		.4byte	0x130
 4647 03d7 0C       		.byte	0xc
 4648 03d8 00       		.byte	0
 4649 03d9 0B       		.uleb128 0xb
 4650 03da 44010000 		.4byte	.LASF54
 4651 03de 0F       		.byte	0xf
 4652 03df AF       		.byte	0xaf
 4653 03e0 03       		.byte	0x3
 4654 03e1 9C030000 		.4byte	0x39c
 4655 03e5 0E       		.uleb128 0xe
 4656 03e6 D9030000 		.4byte	0x3d9
 4657 03ea 13       		.uleb128 0x13
 4658 03eb 08       		.byte	0x8
 4659 03ec 0F       		.byte	0xf
 4660 03ed B4       		.byte	0xb4
 4661 03ee 0D040000 		.4byte	0x40d
 4662 03f2 08       		.uleb128 0x8
 4663 03f3 B1020000 		.4byte	.LASF50
 4664 03f7 0F       		.byte	0xf
 4665 03f8 B5       		.byte	0xb5
 4666 03f9 16       		.byte	0x16
 4667 03fa D8000000 		.4byte	0xd8
 4668 03fe 00       		.byte	0
 4669 03ff 08       		.uleb128 0x8
 4670 0400 0C000000 		.4byte	.LASF55
 4671 0404 0F       		.byte	0xf
 4672 0405 B6       		.byte	0xb6
 4673 0406 1E       		.byte	0x1e
 4674 0407 0D040000 		.4byte	0x40d
 4675 040b 04       		.byte	0x4
 4676 040c 00       		.byte	0
 4677 040d 0A       		.uleb128 0xa
 4678 040e 17040000 		.4byte	0x417
 4679 0412 0A       		.uleb128 0xa
ARM GAS  C:\Users\DEVELO~1\AppData\Local\Temp\cc5wr7T7.s 			page 84


 4680 0413 E5030000 		.4byte	0x3e5
 4681 0417 0E       		.uleb128 0xe
 4682 0418 12040000 		.4byte	0x412
 4683 041c 0B       		.uleb128 0xb
 4684 041d 35010000 		.4byte	.LASF56
 4685 0421 0F       		.byte	0xf
 4686 0422 B7       		.byte	0xb7
 4687 0423 03       		.byte	0x3
 4688 0424 EA030000 		.4byte	0x3ea
 4689 0428 0E       		.uleb128 0xe
 4690 0429 1C040000 		.4byte	0x41c
 4691 042d 32       		.uleb128 0x32
 4692 042e 14010000 		.4byte	.LASF57
 4693 0432 0F       		.byte	0xf
 4694 0433 2901     		.2byte	0x129
 4695 0435 1A       		.byte	0x1a
 4696 0436 90030000 		.4byte	0x390
 4697 043a 33       		.uleb128 0x33
 4698 043b FD030000 		.4byte	.LASF58
 4699 043f 10       		.byte	0x10
 4700 0440 19       		.byte	0x19
 4701 0441 1D       		.byte	0x1d
 4702 0442 28040000 		.4byte	0x428
 4703 0446 17       		.uleb128 0x17
 4704 0447 CC000000 		.4byte	0xcc
 4705 044b 56040000 		.4byte	0x456
 4706 044f 18       		.uleb128 0x18
 4707 0450 39000000 		.4byte	0x39
 4708 0454 03       		.byte	0x3
 4709 0455 00       		.byte	0
 4710 0456 23       		.uleb128 0x23
 4711 0457 98020000 		.4byte	.LASF59
 4712 045b 35       		.byte	0x35
 4713 045c 0E       		.byte	0xe
 4714 045d 46040000 		.4byte	0x446
 4715 0461 05       		.uleb128 0x5
 4716 0462 03       		.byte	0x3
 4717 0463 00000000 		.4byte	mb_buffer
 4718 0467 34       		.uleb128 0x34
 4719 0468 6D623100 		.ascii	"mb1\000"
 4720 046c 01       		.byte	0x1
 4721 046d 36       		.byte	0x36
 4722 046e 08       		.byte	0x8
 4723 046f F0010000 		.4byte	0x1f0
 4724 0473 05       		.uleb128 0x5
 4725 0474 03       		.byte	0x3
 4726 0475 00000000 		.4byte	mb1
 4727 0479 23       		.uleb128 0x23
 4728 047a C9050000 		.4byte	.LASF60
 4729 047e BE       		.byte	0xbe
 4730 047f 19       		.byte	0x19
 4731 0480 E5030000 		.4byte	0x3e5
 4732 0484 05       		.uleb128 0x5
 4733 0485 03       		.byte	0x3
 4734 0486 00000000 		.4byte	oslib_test_002_001
 4735 048a 1E       		.uleb128 0x1e
 4736 048b 70030000 		.4byte	.LASF61
ARM GAS  C:\Users\DEVELO~1\AppData\Local\Temp\cc5wr7T7.s 			page 85


 4737 048f 4001     		.2byte	0x140
 4738 0491 19       		.byte	0x19
 4739 0492 E5030000 		.4byte	0x3e5
 4740 0496 05       		.uleb128 0x5
 4741 0497 03       		.byte	0x3
 4742 0498 00000000 		.4byte	oslib_test_002_002
 4743 049c 1E       		.uleb128 0x1e
 4744 049d E4050000 		.4byte	.LASF62
 4745 04a1 9601     		.2byte	0x196
 4746 04a3 19       		.byte	0x19
 4747 04a4 E5030000 		.4byte	0x3e5
 4748 04a8 05       		.uleb128 0x5
 4749 04a9 03       		.byte	0x3
 4750 04aa 00000000 		.4byte	oslib_test_002_003
 4751 04ae 17       		.uleb128 0x17
 4752 04af 17040000 		.4byte	0x417
 4753 04b3 BE040000 		.4byte	0x4be
 4754 04b7 18       		.uleb128 0x18
 4755 04b8 39000000 		.4byte	0x39
 4756 04bc 03       		.byte	0x3
 4757 04bd 00       		.byte	0
 4758 04be 0E       		.uleb128 0xe
 4759 04bf AE040000 		.4byte	0x4ae
 4760 04c3 35       		.uleb128 0x35
 4761 04c4 9C050000 		.4byte	.LASF63
 4762 04c8 01       		.byte	0x1
 4763 04c9 A401     		.2byte	0x1a4
 4764 04cb 1A       		.byte	0x1a
 4765 04cc BE040000 		.4byte	0x4be
 4766 04d0 05       		.uleb128 0x5
 4767 04d1 03       		.byte	0x3
 4768 04d2 00000000 		.4byte	oslib_test_sequence_002_array
 4769 04d6 36       		.uleb128 0x36
 4770 04d7 3A040000 		.4byte	0x43a
 4771 04db 01       		.byte	0x1
 4772 04dc AE01     		.2byte	0x1ae
 4773 04de 16       		.byte	0x16
 4774 04df 05       		.uleb128 0x5
 4775 04e0 03       		.byte	0x3
 4776 04e1 00000000 		.4byte	oslib_test_sequence_002
 4777 04e5 24       		.uleb128 0x24
 4778 04e6 76040000 		.4byte	.LASF67
 4779 04ea 3101     		.2byte	0x131
 4780 04ec E9010000 		.4byte	0x1e9
 4781 04f0 FF040000 		.4byte	0x4ff
 4782 04f4 06       		.uleb128 0x6
 4783 04f5 36010000 		.4byte	0x136
 4784 04f9 06       		.uleb128 0x6
 4785 04fa D8000000 		.4byte	0xd8
 4786 04fe 00       		.byte	0
 4787 04ff 37       		.uleb128 0x37
 4788 0500 05060000 		.4byte	.LASF64
 4789 0504 0F       		.byte	0xf
 4790 0505 3A01     		.2byte	0x13a
 4791 0507 08       		.byte	0x8
 4792 0508 12050000 		.4byte	0x512
 4793 050c 06       		.uleb128 0x6
ARM GAS  C:\Users\DEVELO~1\AppData\Local\Temp\cc5wr7T7.s 			page 86


 4794 050d DD000000 		.4byte	0xdd
 4795 0511 00       		.byte	0
 4796 0512 1F       		.uleb128 0x1f
 4797 0513 5E010000 		.4byte	.LASF65
 4798 0517 6E       		.byte	0x6e
 4799 0518 22050000 		.4byte	0x522
 4800 051c 06       		.uleb128 0x6
 4801 051d 22050000 		.4byte	0x522
 4802 0521 00       		.byte	0
 4803 0522 0A       		.uleb128 0xa
 4804 0523 F0010000 		.4byte	0x1f0
 4805 0527 1F       		.uleb128 0x1f
 4806 0528 6F000000 		.4byte	.LASF66
 4807 052c 6C       		.byte	0x6c
 4808 052d 41050000 		.4byte	0x541
 4809 0531 06       		.uleb128 0x6
 4810 0532 22050000 		.4byte	0x522
 4811 0536 06       		.uleb128 0x6
 4812 0537 E4010000 		.4byte	0x1e4
 4813 053b 06       		.uleb128 0x6
 4814 053c 2D000000 		.4byte	0x2d
 4815 0540 00       		.byte	0
 4816 0541 11       		.uleb128 0x11
 4817 0542 BE030000 		.4byte	.LASF68
 4818 0546 77       		.byte	0x77
 4819 0547 CC000000 		.4byte	0xcc
 4820 054b 5A050000 		.4byte	0x55a
 4821 054f 06       		.uleb128 0x6
 4822 0550 22050000 		.4byte	0x522
 4823 0554 06       		.uleb128 0x6
 4824 0555 E4010000 		.4byte	0x1e4
 4825 0559 00       		.byte	0
 4826 055a 11       		.uleb128 0x11
 4827 055b 7E000000 		.4byte	.LASF69
 4828 055f 75       		.byte	0x75
 4829 0560 CC000000 		.4byte	0xcc
 4830 0564 78050000 		.4byte	0x578
 4831 0568 06       		.uleb128 0x6
 4832 0569 22050000 		.4byte	0x522
 4833 056d 06       		.uleb128 0x6
 4834 056e E4010000 		.4byte	0x1e4
 4835 0572 06       		.uleb128 0x6
 4836 0573 E9000000 		.4byte	0xe9
 4837 0577 00       		.byte	0
 4838 0578 1F       		.uleb128 0x1f
 4839 0579 7D050000 		.4byte	.LASF70
 4840 057d 6D       		.byte	0x6d
 4841 057e 88050000 		.4byte	0x588
 4842 0582 06       		.uleb128 0x6
 4843 0583 22050000 		.4byte	0x522
 4844 0587 00       		.byte	0
 4845 0588 11       		.uleb128 0x11
 4846 0589 4F010000 		.4byte	.LASF71
 4847 058d 74       		.byte	0x74
 4848 058e CC000000 		.4byte	0xcc
 4849 0592 A1050000 		.4byte	0x5a1
 4850 0596 06       		.uleb128 0x6
ARM GAS  C:\Users\DEVELO~1\AppData\Local\Temp\cc5wr7T7.s 			page 87


 4851 0597 22050000 		.4byte	0x522
 4852 059b 06       		.uleb128 0x6
 4853 059c CC000000 		.4byte	0xcc
 4854 05a0 00       		.byte	0
 4855 05a1 11       		.uleb128 0x11
 4856 05a2 87050000 		.4byte	.LASF72
 4857 05a6 72       		.byte	0x72
 4858 05a7 CC000000 		.4byte	0xcc
 4859 05ab BF050000 		.4byte	0x5bf
 4860 05af 06       		.uleb128 0x6
 4861 05b0 22050000 		.4byte	0x522
 4862 05b4 06       		.uleb128 0x6
 4863 05b5 CC000000 		.4byte	0xcc
 4864 05b9 06       		.uleb128 0x6
 4865 05ba E9000000 		.4byte	0xe9
 4866 05be 00       		.byte	0
 4867 05bf 11       		.uleb128 0x11
 4868 05c0 FF020000 		.4byte	.LASF73
 4869 05c4 71       		.byte	0x71
 4870 05c5 CC000000 		.4byte	0xcc
 4871 05c9 D8050000 		.4byte	0x5d8
 4872 05cd 06       		.uleb128 0x6
 4873 05ce 22050000 		.4byte	0x522
 4874 05d2 06       		.uleb128 0x6
 4875 05d3 CC000000 		.4byte	0xcc
 4876 05d7 00       		.byte	0
 4877 05d8 24       		.uleb128 0x24
 4878 05d9 D6010000 		.4byte	.LASF74
 4879 05dd 3001     		.2byte	0x130
 4880 05df E9010000 		.4byte	0x1e9
 4881 05e3 F2050000 		.4byte	0x5f2
 4882 05e7 06       		.uleb128 0x6
 4883 05e8 E9010000 		.4byte	0x1e9
 4884 05ec 06       		.uleb128 0x6
 4885 05ed D8000000 		.4byte	0xd8
 4886 05f1 00       		.byte	0
 4887 05f2 11       		.uleb128 0x11
 4888 05f3 1B010000 		.4byte	.LASF75
 4889 05f7 6F       		.byte	0x6f
 4890 05f8 CC000000 		.4byte	0xcc
 4891 05fc 10060000 		.4byte	0x610
 4892 0600 06       		.uleb128 0x6
 4893 0601 22050000 		.4byte	0x522
 4894 0605 06       		.uleb128 0x6
 4895 0606 CC000000 		.4byte	0xcc
 4896 060a 06       		.uleb128 0x6
 4897 060b E9000000 		.4byte	0xe9
 4898 060f 00       		.byte	0
 4899 0610 38       		.uleb128 0x38
 4900 0611 95030000 		.4byte	.LASF101
 4901 0615 01       		.byte	0x1
 4902 0616 5F01     		.2byte	0x15f
 4903 0618 0D       		.byte	0xd
 4904 0619 00000000 		.4byte	.LFB443
 4905 061d 24010000 		.4byte	.LFE443-.LFB443
 4906 0621 01       		.uleb128 0x1
 4907 0622 9C       		.byte	0x9c
ARM GAS  C:\Users\DEVELO~1\AppData\Local\Temp\cc5wr7T7.s 			page 88


 4908 0623 FD090000 		.4byte	0x9fd
 4909 0627 39       		.uleb128 0x39
 4910 0628 C6010000 		.4byte	.LASF76
 4911 062c 01       		.byte	0x1
 4912 062d 6001     		.2byte	0x160
 4913 062f 09       		.byte	0x9
 4914 0630 CC000000 		.4byte	0xcc
 4915 0634 26000000 		.4byte	.LLST0
 4916 0638 0C000000 		.4byte	.LVUS0
 4917 063c 1E       		.uleb128 0x1e
 4918 063d CB010000 		.4byte	.LASF77
 4919 0641 6001     		.2byte	0x160
 4920 0643 0F       		.byte	0xf
 4921 0644 CC000000 		.4byte	0xcc
 4922 0648 02       		.uleb128 0x2
 4923 0649 91       		.byte	0x91
 4924 064a 64       		.sleb128 -28
 4925 064b 3A       		.uleb128 0x3a
 4926 064c 6900     		.ascii	"i\000"
 4927 064e 01       		.byte	0x1
 4928 064f 6101     		.2byte	0x161
 4929 0651 0C       		.byte	0xc
 4930 0652 39000000 		.4byte	0x39
 4931 0656 8D000000 		.4byte	.LLST1
 4932 065a 85000000 		.4byte	.LVUS1
 4933 065e 07       		.uleb128 0x7
 4934 065f 250B0000 		.4byte	0xb25
 4935 0663 56000000 		.4byte	.LBI1004
 4936 0667 0200     		.2byte	.LVU38
 4937 0669 56000000 		.4byte	.LBB1004
 4938 066d 06000000 		.4byte	.LBE1004-.LBB1004
 4939 0671 7301     		.2byte	0x173
 4940 0673 05       		.byte	0x5
 4941 0674 B4060000 		.4byte	0x6b4
 4942 0678 01       		.uleb128 0x1
 4943 0679 370B0000 		.4byte	0xb37
 4944 067d 56000000 		.4byte	.LBI1005
 4945 0681 0400     		.2byte	.LVU40
 4946 0683 56000000 		.4byte	.LBB1005
 4947 0687 06000000 		.4byte	.LBE1005-.LBB1005
 4948 068b 02       		.byte	0x2
 4949 068c 9901     		.2byte	0x199
 4950 068e 01       		.uleb128 0x1
 4951 068f 400B0000 		.4byte	0xb40
 4952 0693 56000000 		.4byte	.LBI1006
 4953 0697 0600     		.2byte	.LVU42
 4954 0699 56000000 		.4byte	.LBB1006
 4955 069d 06000000 		.4byte	.LBE1006-.LBB1006
 4956 06a1 03       		.byte	0x3
 4957 06a2 2E03     		.2byte	0x32e
 4958 06a4 03       		.uleb128 0x3
 4959 06a5 4D0B0000 		.4byte	0xb4d
 4960 06a9 B3000000 		.4byte	.LLST2
 4961 06ad B1000000 		.4byte	.LVUS2
 4962 06b1 00       		.byte	0
 4963 06b2 00       		.byte	0
 4964 06b3 00       		.byte	0
ARM GAS  C:\Users\DEVELO~1\AppData\Local\Temp\cc5wr7T7.s 			page 89


 4965 06b4 07       		.uleb128 0x7
 4966 06b5 F90A0000 		.4byte	0xaf9
 4967 06b9 64000000 		.4byte	.LBI1008
 4968 06bd 0100     		.2byte	.LVU50
 4969 06bf 64000000 		.4byte	.LBB1008
 4970 06c3 04000000 		.4byte	.LBE1008-.LBB1008
 4971 06c7 7501     		.2byte	0x175
 4972 06c9 05       		.byte	0x5
 4973 06ca 0A070000 		.4byte	0x70a
 4974 06ce 01       		.uleb128 0x1
 4975 06cf 2E0B0000 		.4byte	0xb2e
 4976 06d3 64000000 		.4byte	.LBI1010
 4977 06d7 0800     		.2byte	.LVU57
 4978 06d9 64000000 		.4byte	.LBB1010
 4979 06dd 04000000 		.4byte	.LBE1010-.LBB1010
 4980 06e1 02       		.byte	0x2
 4981 06e2 B201     		.2byte	0x1b2
 4982 06e4 01       		.uleb128 0x1
 4983 06e5 400B0000 		.4byte	0xb40
 4984 06e9 64000000 		.4byte	.LBI1011
 4985 06ed 0A00     		.2byte	.LVU59
 4986 06ef 64000000 		.4byte	.LBB1011
 4987 06f3 04000000 		.4byte	.LBE1011-.LBB1011
 4988 06f7 03       		.byte	0x3
 4989 06f8 4103     		.2byte	0x341
 4990 06fa 03       		.uleb128 0x3
 4991 06fb 4D0B0000 		.4byte	0xb4d
 4992 06ff C0000000 		.4byte	.LLST3
 4993 0703 BE000000 		.4byte	.LVUS3
 4994 0707 00       		.byte	0
 4995 0708 00       		.byte	0
 4996 0709 00       		.byte	0
 4997 070a 07       		.uleb128 0x7
 4998 070b 250B0000 		.4byte	0xb25
 4999 070f 9C000000 		.4byte	.LBI1013
 5000 0713 0200     		.2byte	.LVU73
 5001 0715 9C000000 		.4byte	.LBB1013
 5002 0719 04000000 		.4byte	.LBE1013-.LBB1013
 5003 071d 7901     		.2byte	0x179
 5004 071f 05       		.byte	0x5
 5005 0720 60070000 		.4byte	0x760
 5006 0724 01       		.uleb128 0x1
 5007 0725 370B0000 		.4byte	0xb37
 5008 0729 9C000000 		.4byte	.LBI1014
 5009 072d 0400     		.2byte	.LVU75
 5010 072f 9C000000 		.4byte	.LBB1014
 5011 0733 04000000 		.4byte	.LBE1014-.LBB1014
 5012 0737 02       		.byte	0x2
 5013 0738 9901     		.2byte	0x199
 5014 073a 01       		.uleb128 0x1
 5015 073b 400B0000 		.4byte	0xb40
 5016 073f 9C000000 		.4byte	.LBI1015
 5017 0743 0600     		.2byte	.LVU77
 5018 0745 9C000000 		.4byte	.LBB1015
 5019 0749 04000000 		.4byte	.LBE1015-.LBB1015
 5020 074d 03       		.byte	0x3
 5021 074e 2E03     		.2byte	0x32e
ARM GAS  C:\Users\DEVELO~1\AppData\Local\Temp\cc5wr7T7.s 			page 90


 5022 0750 03       		.uleb128 0x3
 5023 0751 4D0B0000 		.4byte	0xb4d
 5024 0755 CC000000 		.4byte	.LLST4
 5025 0759 CA000000 		.4byte	.LVUS4
 5026 075d 00       		.byte	0
 5027 075e 00       		.byte	0
 5028 075f 00       		.byte	0
 5029 0760 07       		.uleb128 0x7
 5030 0761 F90A0000 		.4byte	0xaf9
 5031 0765 A8000000 		.4byte	.LBI1017
 5032 0769 0100     		.2byte	.LVU85
 5033 076b A8000000 		.4byte	.LBB1017
 5034 076f 04000000 		.4byte	.LBE1017-.LBB1017
 5035 0773 7B01     		.2byte	0x17b
 5036 0775 05       		.byte	0x5
 5037 0776 B6070000 		.4byte	0x7b6
 5038 077a 01       		.uleb128 0x1
 5039 077b 2E0B0000 		.4byte	0xb2e
 5040 077f A8000000 		.4byte	.LBI1019
 5041 0783 0800     		.2byte	.LVU92
 5042 0785 A8000000 		.4byte	.LBB1019
 5043 0789 04000000 		.4byte	.LBE1019-.LBB1019
 5044 078d 02       		.byte	0x2
 5045 078e B201     		.2byte	0x1b2
 5046 0790 01       		.uleb128 0x1
 5047 0791 400B0000 		.4byte	0xb40
 5048 0795 A8000000 		.4byte	.LBI1020
 5049 0799 0A00     		.2byte	.LVU94
 5050 079b A8000000 		.4byte	.LBB1020
 5051 079f 04000000 		.4byte	.LBE1020-.LBB1020
 5052 07a3 03       		.byte	0x3
 5053 07a4 4103     		.2byte	0x341
 5054 07a6 03       		.uleb128 0x3
 5055 07a7 4D0B0000 		.4byte	0xb4d
 5056 07ab D9000000 		.4byte	.LLST5
 5057 07af D7000000 		.4byte	.LVUS5
 5058 07b3 00       		.byte	0
 5059 07b4 00       		.byte	0
 5060 07b5 00       		.byte	0
 5061 07b6 19       		.uleb128 0x19
 5062 07b7 8D0A0000 		.4byte	0xa8d
 5063 07bb CC000000 		.4byte	.LBI1022
 5064 07bf 0100     		.2byte	.LVU108
 5065 07c1 0C000000 		.4byte	.LLRL6
 5066 07c5 8501     		.2byte	0x185
 5067 07c7 05       		.byte	0x5
 5068 07c8 DA070000 		.4byte	0x7da
 5069 07cc 03       		.uleb128 0x3
 5070 07cd 9A0A0000 		.4byte	0xa9a
 5071 07d1 E5000000 		.4byte	.LLST7
 5072 07d5 E3000000 		.4byte	.LVUS7
 5073 07d9 00       		.byte	0
 5074 07da 07       		.uleb128 0x7
 5075 07db 250B0000 		.4byte	0xb25
 5076 07df F4000000 		.4byte	.LBI1026
 5077 07e3 0200     		.2byte	.LVU125
 5078 07e5 F4000000 		.4byte	.LBB1026
ARM GAS  C:\Users\DEVELO~1\AppData\Local\Temp\cc5wr7T7.s 			page 91


 5079 07e9 04000000 		.4byte	.LBE1026-.LBB1026
 5080 07ed 8E01     		.2byte	0x18e
 5081 07ef 05       		.byte	0x5
 5082 07f0 30080000 		.4byte	0x830
 5083 07f4 01       		.uleb128 0x1
 5084 07f5 370B0000 		.4byte	0xb37
 5085 07f9 F4000000 		.4byte	.LBI1027
 5086 07fd 0400     		.2byte	.LVU127
 5087 07ff F4000000 		.4byte	.LBB1027
 5088 0803 04000000 		.4byte	.LBE1027-.LBB1027
 5089 0807 02       		.byte	0x2
 5090 0808 9901     		.2byte	0x199
 5091 080a 01       		.uleb128 0x1
 5092 080b 400B0000 		.4byte	0xb40
 5093 080f F4000000 		.4byte	.LBI1028
 5094 0813 0600     		.2byte	.LVU129
 5095 0815 F4000000 		.4byte	.LBB1028
 5096 0819 04000000 		.4byte	.LBE1028-.LBB1028
 5097 081d 03       		.byte	0x3
 5098 081e 2E03     		.2byte	0x32e
 5099 0820 03       		.uleb128 0x3
 5100 0821 4D0B0000 		.4byte	0xb4d
 5101 0825 F5000000 		.4byte	.LLST8
 5102 0829 F3000000 		.4byte	.LVUS8
 5103 082d 00       		.byte	0
 5104 082e 00       		.byte	0
 5105 082f 00       		.byte	0
 5106 0830 07       		.uleb128 0x7
 5107 0831 F90A0000 		.4byte	0xaf9
 5108 0835 00010000 		.4byte	.LBI1030
 5109 0839 0100     		.2byte	.LVU137
 5110 083b 00010000 		.4byte	.LBB1030
 5111 083f 04000000 		.4byte	.LBE1030-.LBB1030
 5112 0843 9001     		.2byte	0x190
 5113 0845 05       		.byte	0x5
 5114 0846 86080000 		.4byte	0x886
 5115 084a 01       		.uleb128 0x1
 5116 084b 2E0B0000 		.4byte	0xb2e
 5117 084f 00010000 		.4byte	.LBI1032
 5118 0853 0800     		.2byte	.LVU144
 5119 0855 00010000 		.4byte	.LBB1032
 5120 0859 04000000 		.4byte	.LBE1032-.LBB1032
 5121 085d 02       		.byte	0x2
 5122 085e B201     		.2byte	0x1b2
 5123 0860 01       		.uleb128 0x1
 5124 0861 400B0000 		.4byte	0xb40
 5125 0865 00010000 		.4byte	.LBI1033
 5126 0869 0A00     		.2byte	.LVU146
 5127 086b 00010000 		.4byte	.LBB1033
 5128 086f 04000000 		.4byte	.LBE1033-.LBB1033
 5129 0873 03       		.byte	0x3
 5130 0874 4103     		.2byte	0x341
 5131 0876 03       		.uleb128 0x3
 5132 0877 4D0B0000 		.4byte	0xb4d
 5133 087b 02010000 		.4byte	.LLST9
 5134 087f 00010000 		.4byte	.LVUS9
 5135 0883 00       		.byte	0
ARM GAS  C:\Users\DEVELO~1\AppData\Local\Temp\cc5wr7T7.s 			page 92


 5136 0884 00       		.byte	0
 5137 0885 00       		.byte	0
 5138 0886 04       		.uleb128 0x4
 5139 0887 1E000000 		.4byte	.LVL3
 5140 088b F2050000 		.4byte	0x5f2
 5141 088f A6080000 		.4byte	0x8a6
 5142 0893 02       		.uleb128 0x2
 5143 0894 01       		.uleb128 0x1
 5144 0895 50       		.byte	0x50
 5145 0896 02       		.uleb128 0x2
 5146 0897 75       		.byte	0x75
 5147 0898 00       		.sleb128 0
 5148 0899 02       		.uleb128 0x2
 5149 089a 01       		.uleb128 0x1
 5150 089b 51       		.byte	0x51
 5151 089c 02       		.uleb128 0x2
 5152 089d 74       		.byte	0x74
 5153 089e 7F       		.sleb128 -1
 5154 089f 02       		.uleb128 0x2
 5155 08a0 01       		.uleb128 0x1
 5156 08a1 52       		.byte	0x52
 5157 08a2 02       		.uleb128 0x2
 5158 08a3 09       		.byte	0x9
 5159 08a4 FF       		.byte	0xff
 5160 08a5 00       		.byte	0
 5161 08a6 04       		.uleb128 0x4
 5162 08a7 2A000000 		.4byte	.LVL5
 5163 08ab D8050000 		.4byte	0x5d8
 5164 08af BA080000 		.4byte	0x8ba
 5165 08b3 02       		.uleb128 0x2
 5166 08b4 01       		.uleb128 0x1
 5167 08b5 51       		.byte	0x51
 5168 08b6 02       		.uleb128 0x2
 5169 08b7 76       		.byte	0x76
 5170 08b8 00       		.sleb128 0
 5171 08b9 00       		.byte	0
 5172 08ba 04       		.uleb128 0x4
 5173 08bb 3E000000 		.4byte	.LVL6
 5174 08bf F2050000 		.4byte	0x5f2
 5175 08c3 D9080000 		.4byte	0x8d9
 5176 08c7 02       		.uleb128 0x2
 5177 08c8 01       		.uleb128 0x1
 5178 08c9 50       		.byte	0x50
 5179 08ca 02       		.uleb128 0x2
 5180 08cb 75       		.byte	0x75
 5181 08cc 00       		.sleb128 0
 5182 08cd 02       		.uleb128 0x2
 5183 08ce 01       		.uleb128 0x1
 5184 08cf 51       		.byte	0x51
 5185 08d0 02       		.uleb128 0x2
 5186 08d1 08       		.byte	0x8
 5187 08d2 58       		.byte	0x58
 5188 08d3 02       		.uleb128 0x2
 5189 08d4 01       		.uleb128 0x1
 5190 08d5 52       		.byte	0x52
 5191 08d6 01       		.uleb128 0x1
 5192 08d7 31       		.byte	0x31
ARM GAS  C:\Users\DEVELO~1\AppData\Local\Temp\cc5wr7T7.s 			page 93


 5193 08d8 00       		.byte	0
 5194 08d9 04       		.uleb128 0x4
 5195 08da 4E000000 		.4byte	.LVL9
 5196 08de D8050000 		.4byte	0x5d8
 5197 08e2 ED080000 		.4byte	0x8ed
 5198 08e6 02       		.uleb128 0x2
 5199 08e7 01       		.uleb128 0x1
 5200 08e8 51       		.byte	0x51
 5201 08e9 02       		.uleb128 0x2
 5202 08ea 76       		.byte	0x76
 5203 08eb 00       		.sleb128 0
 5204 08ec 00       		.byte	0
 5205 08ed 04       		.uleb128 0x4
 5206 08ee 64000000 		.4byte	.LVL12
 5207 08f2 BF050000 		.4byte	0x5bf
 5208 08f6 07090000 		.4byte	0x907
 5209 08fa 02       		.uleb128 0x2
 5210 08fb 01       		.uleb128 0x1
 5211 08fc 50       		.byte	0x50
 5212 08fd 02       		.uleb128 0x2
 5213 08fe 75       		.byte	0x75
 5214 08ff 00       		.sleb128 0
 5215 0900 02       		.uleb128 0x2
 5216 0901 01       		.uleb128 0x1
 5217 0902 51       		.byte	0x51
 5218 0903 02       		.uleb128 0x2
 5219 0904 08       		.byte	0x8
 5220 0905 58       		.byte	0x58
 5221 0906 00       		.byte	0
 5222 0907 04       		.uleb128 0x4
 5223 0908 78000000 		.4byte	.LVL16
 5224 090c D8050000 		.4byte	0x5d8
 5225 0910 1E090000 		.4byte	0x91e
 5226 0914 02       		.uleb128 0x2
 5227 0915 01       		.uleb128 0x1
 5228 0916 51       		.byte	0x51
 5229 0917 05       		.uleb128 0x5
 5230 0918 03       		.byte	0x3
 5231 0919 00000000 		.4byte	.LC0
 5232 091d 00       		.byte	0
 5233 091e 04       		.uleb128 0x4
 5234 091f 86000000 		.4byte	.LVL17
 5235 0923 A1050000 		.4byte	0x5a1
 5236 0927 3D090000 		.4byte	0x93d
 5237 092b 02       		.uleb128 0x2
 5238 092c 01       		.uleb128 0x1
 5239 092d 50       		.byte	0x50
 5240 092e 02       		.uleb128 0x2
 5241 092f 75       		.byte	0x75
 5242 0930 00       		.sleb128 0
 5243 0931 02       		.uleb128 0x2
 5244 0932 01       		.uleb128 0x1
 5245 0933 51       		.byte	0x51
 5246 0934 02       		.uleb128 0x2
 5247 0935 08       		.byte	0x8
 5248 0936 58       		.byte	0x58
 5249 0937 02       		.uleb128 0x2
ARM GAS  C:\Users\DEVELO~1\AppData\Local\Temp\cc5wr7T7.s 			page 94


 5250 0938 01       		.uleb128 0x1
 5251 0939 52       		.byte	0x52
 5252 093a 01       		.uleb128 0x1
 5253 093b 31       		.byte	0x31
 5254 093c 00       		.byte	0
 5255 093d 04       		.uleb128 0x4
 5256 093e 96000000 		.4byte	.LVL20
 5257 0942 D8050000 		.4byte	0x5d8
 5258 0946 54090000 		.4byte	0x954
 5259 094a 02       		.uleb128 0x2
 5260 094b 01       		.uleb128 0x1
 5261 094c 51       		.byte	0x51
 5262 094d 05       		.uleb128 0x5
 5263 094e 03       		.byte	0x3
 5264 094f 00000000 		.4byte	.LC0
 5265 0953 00       		.byte	0
 5266 0954 04       		.uleb128 0x4
 5267 0955 A8000000 		.4byte	.LVL23
 5268 0959 88050000 		.4byte	0x588
 5269 095d 6E090000 		.4byte	0x96e
 5270 0961 02       		.uleb128 0x2
 5271 0962 01       		.uleb128 0x1
 5272 0963 50       		.byte	0x50
 5273 0964 02       		.uleb128 0x2
 5274 0965 75       		.byte	0x75
 5275 0966 00       		.sleb128 0
 5276 0967 02       		.uleb128 0x2
 5277 0968 01       		.uleb128 0x1
 5278 0969 51       		.byte	0x51
 5279 096a 02       		.uleb128 0x2
 5280 096b 08       		.byte	0x8
 5281 096c 58       		.byte	0x58
 5282 096d 00       		.byte	0
 5283 096e 04       		.uleb128 0x4
 5284 096f BC000000 		.4byte	.LVL27
 5285 0973 D8050000 		.4byte	0x5d8
 5286 0977 85090000 		.4byte	0x985
 5287 097b 02       		.uleb128 0x2
 5288 097c 01       		.uleb128 0x1
 5289 097d 51       		.byte	0x51
 5290 097e 05       		.uleb128 0x5
 5291 097f 03       		.byte	0x3
 5292 0980 00000000 		.4byte	.LC0
 5293 0984 00       		.byte	0
 5294 0985 04       		.uleb128 0x4
 5295 0986 CC000000 		.4byte	.LVL28
 5296 098a 78050000 		.4byte	0x578
 5297 098e 99090000 		.4byte	0x999
 5298 0992 02       		.uleb128 0x2
 5299 0993 01       		.uleb128 0x1
 5300 0994 50       		.byte	0x50
 5301 0995 02       		.uleb128 0x2
 5302 0996 75       		.byte	0x75
 5303 0997 00       		.sleb128 0
 5304 0998 00       		.byte	0
 5305 0999 04       		.uleb128 0x4
 5306 099a DE000000 		.4byte	.LVL30
ARM GAS  C:\Users\DEVELO~1\AppData\Local\Temp\cc5wr7T7.s 			page 95


 5307 099e 5A050000 		.4byte	0x55a
 5308 09a2 B8090000 		.4byte	0x9b8
 5309 09a6 02       		.uleb128 0x2
 5310 09a7 01       		.uleb128 0x1
 5311 09a8 50       		.byte	0x50
 5312 09a9 02       		.uleb128 0x2
 5313 09aa 75       		.byte	0x75
 5314 09ab 00       		.sleb128 0
 5315 09ac 02       		.uleb128 0x2
 5316 09ad 01       		.uleb128 0x1
 5317 09ae 51       		.byte	0x51
 5318 09af 02       		.uleb128 0x2
 5319 09b0 91       		.byte	0x91
 5320 09b1 64       		.sleb128 -28
 5321 09b2 02       		.uleb128 0x2
 5322 09b3 01       		.uleb128 0x1
 5323 09b4 52       		.byte	0x52
 5324 09b5 01       		.uleb128 0x1
 5325 09b6 31       		.byte	0x31
 5326 09b7 00       		.byte	0
 5327 09b8 04       		.uleb128 0x4
 5328 09b9 EE000000 		.4byte	.LVL33
 5329 09bd D8050000 		.4byte	0x5d8
 5330 09c1 CF090000 		.4byte	0x9cf
 5331 09c5 02       		.uleb128 0x2
 5332 09c6 01       		.uleb128 0x1
 5333 09c7 51       		.byte	0x51
 5334 09c8 05       		.uleb128 0x5
 5335 09c9 03       		.byte	0x3
 5336 09ca 00000000 		.4byte	.LC0
 5337 09ce 00       		.byte	0
 5338 09cf 04       		.uleb128 0x4
 5339 09d0 00010000 		.4byte	.LVL36
 5340 09d4 41050000 		.4byte	0x541
 5341 09d8 E9090000 		.4byte	0x9e9
 5342 09dc 02       		.uleb128 0x2
 5343 09dd 01       		.uleb128 0x1
 5344 09de 50       		.byte	0x50
 5345 09df 02       		.uleb128 0x2
 5346 09e0 75       		.byte	0x75
 5347 09e1 00       		.sleb128 0
 5348 09e2 02       		.uleb128 0x2
 5349 09e3 01       		.uleb128 0x1
 5350 09e4 51       		.byte	0x51
 5351 09e5 02       		.uleb128 0x2
 5352 09e6 91       		.byte	0x91
 5353 09e7 64       		.sleb128 -28
 5354 09e8 00       		.byte	0
 5355 09e9 15       		.uleb128 0x15
 5356 09ea 14010000 		.4byte	.LVL40
 5357 09ee D8050000 		.4byte	0x5d8
 5358 09f2 02       		.uleb128 0x2
 5359 09f3 01       		.uleb128 0x1
 5360 09f4 51       		.byte	0x51
 5361 09f5 05       		.uleb128 0x5
 5362 09f6 03       		.byte	0x3
 5363 09f7 00000000 		.4byte	.LC0
ARM GAS  C:\Users\DEVELO~1\AppData\Local\Temp\cc5wr7T7.s 			page 96


 5364 09fb 00       		.byte	0
 5365 09fc 00       		.byte	0
 5366 09fd 25       		.uleb128 0x25
 5367 09fe 7C020000 		.4byte	.LASF78
 5368 0a02 5B01     		.2byte	0x15b
 5369 0a04 25       		.uleb128 0x25
 5370 0a05 E4030000 		.4byte	.LASF79
 5371 0a09 5701     		.2byte	0x157
 5372 0a0b 20       		.uleb128 0x20
 5373 0a0c 48030000 		.4byte	.LASF82
 5374 0a10 01       		.byte	0x1
 5375 0a11 E5       		.byte	0xe5
 5376 0a12 0D       		.byte	0xd
 5377 0a13 01       		.byte	0x1
 5378 0a14 370A0000 		.4byte	0xa37
 5379 0a18 1A       		.uleb128 0x1a
 5380 0a19 C6010000 		.4byte	.LASF76
 5381 0a1d E6       		.byte	0xe6
 5382 0a1e 09       		.byte	0x9
 5383 0a1f CC000000 		.4byte	0xcc
 5384 0a23 1A       		.uleb128 0x1a
 5385 0a24 CB010000 		.4byte	.LASF77
 5386 0a28 E6       		.byte	0xe6
 5387 0a29 0F       		.byte	0xf
 5388 0a2a CC000000 		.4byte	0xcc
 5389 0a2e 26       		.uleb128 0x26
 5390 0a2f 6900     		.ascii	"i\000"
 5391 0a31 E7       		.byte	0xe7
 5392 0a32 39000000 		.4byte	0x39
 5393 0a36 00       		.byte	0
 5394 0a37 27       		.uleb128 0x27
 5395 0a38 12000000 		.4byte	.LASF80
 5396 0a3c E1       		.byte	0xe1
 5397 0a3d 27       		.uleb128 0x27
 5398 0a3e 8F000000 		.4byte	.LASF81
 5399 0a42 DD       		.byte	0xdd
 5400 0a43 20       		.uleb128 0x20
 5401 0a44 E4020000 		.4byte	.LASF83
 5402 0a48 01       		.byte	0x1
 5403 0a49 5E       		.byte	0x5e
 5404 0a4a 0D       		.byte	0xd
 5405 0a4b 01       		.byte	0x1
 5406 0a4c 6F0A0000 		.4byte	0xa6f
 5407 0a50 1A       		.uleb128 0x1a
 5408 0a51 C6010000 		.4byte	.LASF76
 5409 0a55 5F       		.byte	0x5f
 5410 0a56 09       		.byte	0x9
 5411 0a57 CC000000 		.4byte	0xcc
 5412 0a5b 1A       		.uleb128 0x1a
 5413 0a5c CB010000 		.4byte	.LASF77
 5414 0a60 5F       		.byte	0x5f
 5415 0a61 0F       		.byte	0xf
 5416 0a62 CC000000 		.4byte	0xcc
 5417 0a66 26       		.uleb128 0x26
 5418 0a67 6900     		.ascii	"i\000"
 5419 0a69 60       		.byte	0x60
 5420 0a6a 39000000 		.4byte	0x39
ARM GAS  C:\Users\DEVELO~1\AppData\Local\Temp\cc5wr7T7.s 			page 97


 5421 0a6e 00       		.byte	0
 5422 0a6f 28       		.uleb128 0x28
 5423 0a70 2C030000 		.4byte	.LASF84
 5424 0a74 5A       		.byte	0x5a
 5425 0a75 28       		.uleb128 0x28
 5426 0a76 40000000 		.4byte	.LASF85
 5427 0a7a 56       		.byte	0x56
 5428 0a7b 16       		.uleb128 0x16
 5429 0a7c 06010000 		.4byte	.LASF86
 5430 0a80 06       		.byte	0x6
 5431 0a81 4802     		.2byte	0x248
 5432 0a83 14       		.byte	0x14
 5433 0a84 16       		.uleb128 0x16
 5434 0a85 B6020000 		.4byte	.LASF87
 5435 0a89 06       		.byte	0x6
 5436 0a8a 3D02     		.2byte	0x23d
 5437 0a8c 14       		.byte	0x14
 5438 0a8d 20       		.uleb128 0x20
 5439 0a8e 1A060000 		.4byte	.LASF88
 5440 0a92 05       		.byte	0x5
 5441 0a93 C8       		.byte	0xc8
 5442 0a94 14       		.byte	0x14
 5443 0a95 03       		.byte	0x3
 5444 0a96 A60A0000 		.4byte	0xaa6
 5445 0a9a 1B       		.uleb128 0x1b
 5446 0a9b 6D627000 		.ascii	"mbp\000"
 5447 0a9f C8       		.byte	0xc8
 5448 0aa0 2B       		.byte	0x2b
 5449 0aa1 22050000 		.4byte	0x522
 5450 0aa5 00       		.byte	0
 5451 0aa6 21       		.uleb128 0x21
 5452 0aa7 B9000000 		.4byte	.LASF89
 5453 0aab A7       		.byte	0xa7
 5454 0aac 2D000000 		.4byte	0x2d
 5455 0ab0 C00A0000 		.4byte	0xac0
 5456 0ab4 1B       		.uleb128 0x1b
 5457 0ab5 6D627000 		.ascii	"mbp\000"
 5458 0ab9 A7       		.byte	0xa7
 5459 0aba 39       		.byte	0x39
 5460 0abb C00A0000 		.4byte	0xac0
 5461 0abf 00       		.byte	0
 5462 0ac0 0A       		.uleb128 0xa
 5463 0ac1 FC010000 		.4byte	0x1fc
 5464 0ac5 21       		.uleb128 0x21
 5465 0ac6 D7000000 		.4byte	.LASF90
 5466 0aca 98       		.byte	0x98
 5467 0acb 2D000000 		.4byte	0x2d
 5468 0acf DF0A0000 		.4byte	0xadf
 5469 0ad3 1B       		.uleb128 0x1b
 5470 0ad4 6D627000 		.ascii	"mbp\000"
 5471 0ad8 98       		.byte	0x98
 5472 0ad9 39       		.byte	0x39
 5473 0ada C00A0000 		.4byte	0xac0
 5474 0ade 00       		.byte	0
 5475 0adf 21       		.uleb128 0x21
 5476 0ae0 49050000 		.4byte	.LASF91
 5477 0ae4 88       		.byte	0x88
ARM GAS  C:\Users\DEVELO~1\AppData\Local\Temp\cc5wr7T7.s 			page 98


 5478 0ae5 2D000000 		.4byte	0x2d
 5479 0ae9 F90A0000 		.4byte	0xaf9
 5480 0aed 1B       		.uleb128 0x1b
 5481 0aee 6D627000 		.ascii	"mbp\000"
 5482 0af2 88       		.byte	0x88
 5483 0af3 34       		.byte	0x34
 5484 0af4 C00A0000 		.4byte	0xac0
 5485 0af8 00       		.byte	0
 5486 0af9 29       		.uleb128 0x29
 5487 0afa 61050000 		.4byte	.LASF92
 5488 0afe 02       		.byte	0x2
 5489 0aff A501     		.2byte	0x1a5
 5490 0b01 14       		.byte	0x14
 5491 0b02 100B0000 		.4byte	0xb10
 5492 0b06 3B       		.uleb128 0x3b
 5493 0b07 D0020000 		.4byte	.LASF102
 5494 0b0b 200B0000 		.4byte	0xb20
 5495 0b0f 00       		.byte	0
 5496 0b10 17       		.uleb128 0x17
 5497 0b11 E4000000 		.4byte	0xe4
 5498 0b15 200B0000 		.4byte	0xb20
 5499 0b19 18       		.uleb128 0x18
 5500 0b1a 39000000 		.4byte	0x39
 5501 0b1e 0B       		.byte	0xb
 5502 0b1f 00       		.byte	0
 5503 0b20 0E       		.uleb128 0xe
 5504 0b21 100B0000 		.4byte	0xb10
 5505 0b25 16       		.uleb128 0x16
 5506 0b26 2B010000 		.4byte	.LASF93
 5507 0b2a 02       		.byte	0x2
 5508 0b2b 9701     		.2byte	0x197
 5509 0b2d 14       		.byte	0x14
 5510 0b2e 16       		.uleb128 0x16
 5511 0b2f 53040000 		.4byte	.LASF94
 5512 0b33 03       		.byte	0x3
 5513 0b34 3E03     		.2byte	0x33e
 5514 0b36 1B       		.byte	0x1b
 5515 0b37 16       		.uleb128 0x16
 5516 0b38 5F040000 		.4byte	.LASF95
 5517 0b3c 03       		.byte	0x3
 5518 0b3d 2603     		.2byte	0x326
 5519 0b3f 1B       		.byte	0x1b
 5520 0b40 29       		.uleb128 0x29
 5521 0b41 F7050000 		.4byte	.LASF96
 5522 0b45 04       		.byte	0x4
 5523 0b46 EB01     		.2byte	0x1eb
 5524 0b48 1B       		.byte	0x1b
 5525 0b49 5B0B0000 		.4byte	0xb5b
 5526 0b4d 3C       		.uleb128 0x3c
 5527 0b4e DC030000 		.4byte	.LASF97
 5528 0b52 04       		.byte	0x4
 5529 0b53 EB01     		.2byte	0x1eb
 5530 0b55 32       		.byte	0x32
 5531 0b56 C0000000 		.4byte	0xc0
 5532 0b5a 00       		.byte	0
 5533 0b5b 22       		.uleb128 0x22
 5534 0b5c 6F0A0000 		.4byte	0xa6f
ARM GAS  C:\Users\DEVELO~1\AppData\Local\Temp\cc5wr7T7.s 			page 99


 5535 0b60 00000000 		.4byte	.LFB436
 5536 0b64 0C000000 		.4byte	.LFE436-.LFB436
 5537 0b68 01       		.uleb128 0x1
 5538 0b69 9C       		.byte	0x9c
 5539 0b6a 820B0000 		.4byte	0xb82
 5540 0b6e 2A       		.uleb128 0x2a
 5541 0b6f 06000000 		.4byte	.LVL0
 5542 0b73 78050000 		.4byte	0x578
 5543 0b77 02       		.uleb128 0x2
 5544 0b78 01       		.uleb128 0x1
 5545 0b79 50       		.byte	0x50
 5546 0b7a 05       		.uleb128 0x5
 5547 0b7b 03       		.byte	0x3
 5548 0b7c 00000000 		.4byte	.LANCHOR0
 5549 0b80 00       		.byte	0
 5550 0b81 00       		.byte	0
 5551 0b82 22       		.uleb128 0x22
 5552 0b83 750A0000 		.4byte	0xa75
 5553 0b87 00000000 		.4byte	.LFB435
 5554 0b8b 14000000 		.4byte	.LFE435-.LFB435
 5555 0b8f 01       		.uleb128 0x1
 5556 0b90 9C       		.byte	0x9c
 5557 0b91 B70B0000 		.4byte	0xbb7
 5558 0b95 2A       		.uleb128 0x2a
 5559 0b96 0A000000 		.4byte	.LVL41
 5560 0b9a 27050000 		.4byte	0x527
 5561 0b9e 02       		.uleb128 0x2
 5562 0b9f 01       		.uleb128 0x1
 5563 0ba0 50       		.byte	0x50
 5564 0ba1 05       		.uleb128 0x5
 5565 0ba2 03       		.byte	0x3
 5566 0ba3 00000000 		.4byte	.LANCHOR0
 5567 0ba7 02       		.uleb128 0x2
 5568 0ba8 01       		.uleb128 0x1
 5569 0ba9 51       		.byte	0x51
 5570 0baa 05       		.uleb128 0x5
 5571 0bab 03       		.byte	0x3
 5572 0bac 00000000 		.4byte	.LANCHOR1
 5573 0bb0 02       		.uleb128 0x2
 5574 0bb1 01       		.uleb128 0x1
 5575 0bb2 52       		.byte	0x52
 5576 0bb3 01       		.uleb128 0x1
 5577 0bb4 34       		.byte	0x34
 5578 0bb5 00       		.byte	0
 5579 0bb6 00       		.byte	0
 5580 0bb7 22       		.uleb128 0x22
 5581 0bb8 0B0A0000 		.4byte	0xa0b
 5582 0bbc 00000000 		.4byte	.LFB440
 5583 0bc0 E8020000 		.4byte	.LFE440-.LFB440
 5584 0bc4 01       		.uleb128 0x1
 5585 0bc5 9C       		.byte	0x9c
 5586 0bc6 4E1D0000 		.4byte	0x1d4e
 5587 0bca 12       		.uleb128 0x12
 5588 0bcb 180A0000 		.4byte	0xa18
 5589 0bcf 12       		.uleb128 0x12
 5590 0bd0 230A0000 		.4byte	0xa23
 5591 0bd4 12       		.uleb128 0x12
ARM GAS  C:\Users\DEVELO~1\AppData\Local\Temp\cc5wr7T7.s 			page 100


 5592 0bd5 2E0A0000 		.4byte	0xa2e
 5593 0bd9 09       		.uleb128 0x9
 5594 0bda 840A0000 		.4byte	0xa84
 5595 0bde 0E000000 		.4byte	.LBI1292
 5596 0be2 0100     		.2byte	.LVU165
 5597 0be4 18000000 		.4byte	.LLRL10
 5598 0be8 01       		.byte	0x1
 5599 0be9 EC       		.byte	0xec
 5600 0bea 05       		.byte	0x5
 5601 0beb 360C0000 		.4byte	0xc36
 5602 0bef 0D       		.uleb128 0xd
 5603 0bf0 250B0000 		.4byte	0xb25
 5604 0bf4 0E000000 		.4byte	.LBI1293
 5605 0bf8 0300     		.2byte	.LVU167
 5606 0bfa 18000000 		.4byte	.LLRL10
 5607 0bfe 06       		.byte	0x6
 5608 0bff 3F02     		.2byte	0x23f
 5609 0c01 0D       		.uleb128 0xd
 5610 0c02 370B0000 		.4byte	0xb37
 5611 0c06 0E000000 		.4byte	.LBI1294
 5612 0c0a 0500     		.2byte	.LVU169
 5613 0c0c 18000000 		.4byte	.LLRL10
 5614 0c10 02       		.byte	0x2
 5615 0c11 9901     		.2byte	0x199
 5616 0c13 0D       		.uleb128 0xd
 5617 0c14 400B0000 		.4byte	0xb40
 5618 0c18 0E000000 		.4byte	.LBI1295
 5619 0c1c 0700     		.2byte	.LVU171
 5620 0c1e 18000000 		.4byte	.LLRL10
 5621 0c22 03       		.byte	0x3
 5622 0c23 2E03     		.2byte	0x32e
 5623 0c25 03       		.uleb128 0x3
 5624 0c26 4D0B0000 		.4byte	0xb4d
 5625 0c2a 0E010000 		.4byte	.LLST11
 5626 0c2e 0C010000 		.4byte	.LVUS11
 5627 0c32 00       		.byte	0
 5628 0c33 00       		.byte	0
 5629 0c34 00       		.byte	0
 5630 0c35 00       		.byte	0
 5631 0c36 09       		.uleb128 0x9
 5632 0c37 A60A0000 		.4byte	0xaa6
 5633 0c3b 12000000 		.4byte	.LBI1302
 5634 0c3f 0400     		.2byte	.LVU177
 5635 0c41 24000000 		.4byte	.LLRL12
 5636 0c45 01       		.byte	0x1
 5637 0c46 EC       		.byte	0xec
 5638 0c47 05       		.byte	0x5
 5639 0c48 9F0C0000 		.4byte	0xc9f
 5640 0c4c 03       		.uleb128 0x3
 5641 0c4d B40A0000 		.4byte	0xab4
 5642 0c51 1B010000 		.4byte	.LLST13
 5643 0c55 19010000 		.4byte	.LVUS13
 5644 0c59 09       		.uleb128 0x9
 5645 0c5a DF0A0000 		.4byte	0xadf
 5646 0c5e 12000000 		.4byte	.LBI1304
 5647 0c62 0700     		.2byte	.LVU180
 5648 0c64 30000000 		.4byte	.LLRL14
ARM GAS  C:\Users\DEVELO~1\AppData\Local\Temp\cc5wr7T7.s 			page 101


 5649 0c68 05       		.byte	0x5
 5650 0c69 AB       		.byte	0xab
 5651 0c6a 0A       		.byte	0xa
 5652 0c6b 7D0C0000 		.4byte	0xc7d
 5653 0c6f 03       		.uleb128 0x3
 5654 0c70 ED0A0000 		.4byte	0xaed
 5655 0c74 2B010000 		.4byte	.LLST15
 5656 0c78 29010000 		.4byte	.LVUS15
 5657 0c7c 00       		.byte	0
 5658 0c7d 0F       		.uleb128 0xf
 5659 0c7e C50A0000 		.4byte	0xac5
 5660 0c82 12000000 		.4byte	.LBI1308
 5661 0c86 0A00     		.2byte	.LVU183
 5662 0c88 12000000 		.4byte	.LBB1308
 5663 0c8c 00000000 		.4byte	.LBE1308-.LBB1308
 5664 0c90 03       		.uleb128 0x3
 5665 0c91 D30A0000 		.4byte	0xad3
 5666 0c95 3B010000 		.4byte	.LLST16
 5667 0c99 39010000 		.4byte	.LVUS16
 5668 0c9d 00       		.byte	0
 5669 0c9e 00       		.byte	0
 5670 0c9f 05       		.uleb128 0x5
 5671 0ca0 7B0A0000 		.4byte	0xa7b
 5672 0ca4 32000000 		.4byte	.LBI1314
 5673 0ca8 0100     		.2byte	.LVU194
 5674 0caa 32000000 		.4byte	.LBB1314
 5675 0cae 06000000 		.4byte	.LBE1314-.LBB1314
 5676 0cb2 EC       		.byte	0xec
 5677 0cb3 0A0D0000 		.4byte	0xd0a
 5678 0cb7 01       		.uleb128 0x1
 5679 0cb8 F90A0000 		.4byte	0xaf9
 5680 0cbc 32000000 		.4byte	.LBI1315
 5681 0cc0 0300     		.2byte	.LVU196
 5682 0cc2 32000000 		.4byte	.LBB1315
 5683 0cc6 06000000 		.4byte	.LBE1315-.LBB1315
 5684 0cca 06       		.byte	0x6
 5685 0ccb 4A02     		.2byte	0x24a
 5686 0ccd 01       		.uleb128 0x1
 5687 0cce 2E0B0000 		.4byte	0xb2e
 5688 0cd2 32000000 		.4byte	.LBI1317
 5689 0cd6 0A00     		.2byte	.LVU203
 5690 0cd8 32000000 		.4byte	.LBB1317
 5691 0cdc 06000000 		.4byte	.LBE1317-.LBB1317
 5692 0ce0 02       		.byte	0x2
 5693 0ce1 B201     		.2byte	0x1b2
 5694 0ce3 01       		.uleb128 0x1
 5695 0ce4 400B0000 		.4byte	0xb40
 5696 0ce8 32000000 		.4byte	.LBI1318
 5697 0cec 0C00     		.2byte	.LVU205
 5698 0cee 32000000 		.4byte	.LBB1318
 5699 0cf2 06000000 		.4byte	.LBE1318-.LBB1318
 5700 0cf6 03       		.byte	0x3
 5701 0cf7 4103     		.2byte	0x341
 5702 0cf9 03       		.uleb128 0x3
 5703 0cfa 4D0B0000 		.4byte	0xb4d
 5704 0cfe 4B010000 		.4byte	.LLST17
 5705 0d02 49010000 		.4byte	.LVUS17
ARM GAS  C:\Users\DEVELO~1\AppData\Local\Temp\cc5wr7T7.s 			page 102


 5706 0d06 00       		.byte	0
 5707 0d07 00       		.byte	0
 5708 0d08 00       		.byte	0
 5709 0d09 00       		.byte	0
 5710 0d0a 09       		.uleb128 0x9
 5711 0d0b 0B0A0000 		.4byte	0xa0b
 5712 0d0f 3E000000 		.4byte	.LBI1320
 5713 0d13 0000     		.2byte	.LVU210
 5714 0d15 3F000000 		.4byte	.LLRL18
 5715 0d19 01       		.byte	0x1
 5716 0d1a E5       		.byte	0xe5
 5717 0d1b 0D       		.byte	0xd
 5718 0d1c 3A1D0000 		.4byte	0x1d3a
 5719 0d20 2B       		.uleb128 0x2b
 5720 0d21 3F000000 		.4byte	.LLRL18
 5721 0d25 1C       		.uleb128 0x1c
 5722 0d26 180A0000 		.4byte	0xa18
 5723 0d2a 5F010000 		.4byte	.LLST19
 5724 0d2e 55010000 		.4byte	.LVUS19
 5725 0d32 2C       		.uleb128 0x2c
 5726 0d33 230A0000 		.4byte	0xa23
 5727 0d37 02       		.uleb128 0x2
 5728 0d38 91       		.byte	0x91
 5729 0d39 5C       		.sleb128 -36
 5730 0d3a 1C       		.uleb128 0x1c
 5731 0d3b 2E0A0000 		.4byte	0xa2e
 5732 0d3f 94010000 		.4byte	.LLST20
 5733 0d43 84010000 		.4byte	.LVUS20
 5734 0d47 05       		.uleb128 0x5
 5735 0d48 7B0A0000 		.4byte	0xa7b
 5736 0d4c 3E000000 		.4byte	.LBI1322
 5737 0d50 0200     		.2byte	.LVU212
 5738 0d52 3E000000 		.4byte	.LBB1322
 5739 0d56 06000000 		.4byte	.LBE1322-.LBB1322
 5740 0d5a EC       		.byte	0xec
 5741 0d5b B20D0000 		.4byte	0xdb2
 5742 0d5f 01       		.uleb128 0x1
 5743 0d60 F90A0000 		.4byte	0xaf9
 5744 0d64 3E000000 		.4byte	.LBI1323
 5745 0d68 0400     		.2byte	.LVU214
 5746 0d6a 3E000000 		.4byte	.LBB1323
 5747 0d6e 06000000 		.4byte	.LBE1323-.LBB1323
 5748 0d72 06       		.byte	0x6
 5749 0d73 4A02     		.2byte	0x24a
 5750 0d75 01       		.uleb128 0x1
 5751 0d76 2E0B0000 		.4byte	0xb2e
 5752 0d7a 3E000000 		.4byte	.LBI1325
 5753 0d7e 0B00     		.2byte	.LVU221
 5754 0d80 3E000000 		.4byte	.LBB1325
 5755 0d84 06000000 		.4byte	.LBE1325-.LBB1325
 5756 0d88 02       		.byte	0x2
 5757 0d89 B201     		.2byte	0x1b2
 5758 0d8b 01       		.uleb128 0x1
 5759 0d8c 400B0000 		.4byte	0xb40
 5760 0d90 3E000000 		.4byte	.LBI1326
 5761 0d94 0D00     		.2byte	.LVU223
 5762 0d96 3E000000 		.4byte	.LBB1326
ARM GAS  C:\Users\DEVELO~1\AppData\Local\Temp\cc5wr7T7.s 			page 103


 5763 0d9a 06000000 		.4byte	.LBE1326-.LBB1326
 5764 0d9e 03       		.byte	0x3
 5765 0d9f 4103     		.2byte	0x341
 5766 0da1 03       		.uleb128 0x3
 5767 0da2 4D0B0000 		.4byte	0xb4d
 5768 0da6 E6010000 		.4byte	.LLST21
 5769 0daa E4010000 		.4byte	.LVUS21
 5770 0dae 00       		.byte	0
 5771 0daf 00       		.byte	0
 5772 0db0 00       		.byte	0
 5773 0db1 00       		.byte	0
 5774 0db2 05       		.uleb128 0x5
 5775 0db3 250B0000 		.4byte	0xb25
 5776 0db7 48000000 		.4byte	.LBI1328
 5777 0dbb 0100     		.2byte	.LVU231
 5778 0dbd 48000000 		.4byte	.LBB1328
 5779 0dc1 04000000 		.4byte	.LBE1328-.LBB1328
 5780 0dc5 F4       		.byte	0xf4
 5781 0dc6 060E0000 		.4byte	0xe06
 5782 0dca 01       		.uleb128 0x1
 5783 0dcb 370B0000 		.4byte	0xb37
 5784 0dcf 48000000 		.4byte	.LBI1329
 5785 0dd3 0300     		.2byte	.LVU233
 5786 0dd5 48000000 		.4byte	.LBB1329
 5787 0dd9 04000000 		.4byte	.LBE1329-.LBB1329
 5788 0ddd 02       		.byte	0x2
 5789 0dde 9901     		.2byte	0x199
 5790 0de0 01       		.uleb128 0x1
 5791 0de1 400B0000 		.4byte	0xb40
 5792 0de5 48000000 		.4byte	.LBI1330
 5793 0de9 0500     		.2byte	.LVU235
 5794 0deb 48000000 		.4byte	.LBB1330
 5795 0def 04000000 		.4byte	.LBE1330-.LBB1330
 5796 0df3 03       		.byte	0x3
 5797 0df4 2E03     		.2byte	0x32e
 5798 0df6 03       		.uleb128 0x3
 5799 0df7 4D0B0000 		.4byte	0xb4d
 5800 0dfb F2010000 		.4byte	.LLST22
 5801 0dff F0010000 		.4byte	.LVUS22
 5802 0e03 00       		.byte	0
 5803 0e04 00       		.byte	0
 5804 0e05 00       		.byte	0
 5805 0e06 05       		.uleb128 0x5
 5806 0e07 F90A0000 		.4byte	0xaf9
 5807 0e0b 52000000 		.4byte	.LBI1332
 5808 0e0f 0100     		.2byte	.LVU242
 5809 0e11 52000000 		.4byte	.LBB1332
 5810 0e15 04000000 		.4byte	.LBE1332-.LBB1332
 5811 0e19 F6       		.byte	0xf6
 5812 0e1a 5A0E0000 		.4byte	0xe5a
 5813 0e1e 01       		.uleb128 0x1
 5814 0e1f 2E0B0000 		.4byte	0xb2e
 5815 0e23 52000000 		.4byte	.LBI1334
 5816 0e27 0800     		.2byte	.LVU249
 5817 0e29 52000000 		.4byte	.LBB1334
 5818 0e2d 04000000 		.4byte	.LBE1334-.LBB1334
 5819 0e31 02       		.byte	0x2
ARM GAS  C:\Users\DEVELO~1\AppData\Local\Temp\cc5wr7T7.s 			page 104


 5820 0e32 B201     		.2byte	0x1b2
 5821 0e34 01       		.uleb128 0x1
 5822 0e35 400B0000 		.4byte	0xb40
 5823 0e39 52000000 		.4byte	.LBI1335
 5824 0e3d 0A00     		.2byte	.LVU251
 5825 0e3f 52000000 		.4byte	.LBB1335
 5826 0e43 04000000 		.4byte	.LBE1335-.LBB1335
 5827 0e47 03       		.byte	0x3
 5828 0e48 4103     		.2byte	0x341
 5829 0e4a 03       		.uleb128 0x3
 5830 0e4b 4D0B0000 		.4byte	0xb4d
 5831 0e4f FF010000 		.4byte	.LLST23
 5832 0e53 FD010000 		.4byte	.LVUS23
 5833 0e57 00       		.byte	0
 5834 0e58 00       		.byte	0
 5835 0e59 00       		.byte	0
 5836 0e5a 05       		.uleb128 0x5
 5837 0e5b 840A0000 		.4byte	0xa84
 5838 0e5f 56000000 		.4byte	.LBI1337
 5839 0e63 0200     		.2byte	.LVU255
 5840 0e65 56000000 		.4byte	.LBB1337
 5841 0e69 04000000 		.4byte	.LBE1337-.LBB1337
 5842 0e6d F7       		.byte	0xf7
 5843 0e6e C50E0000 		.4byte	0xec5
 5844 0e72 01       		.uleb128 0x1
 5845 0e73 250B0000 		.4byte	0xb25
 5846 0e77 56000000 		.4byte	.LBI1338
 5847 0e7b 0400     		.2byte	.LVU257
 5848 0e7d 56000000 		.4byte	.LBB1338
 5849 0e81 04000000 		.4byte	.LBE1338-.LBB1338
 5850 0e85 06       		.byte	0x6
 5851 0e86 3F02     		.2byte	0x23f
 5852 0e88 01       		.uleb128 0x1
 5853 0e89 370B0000 		.4byte	0xb37
 5854 0e8d 56000000 		.4byte	.LBI1339
 5855 0e91 0600     		.2byte	.LVU259
 5856 0e93 56000000 		.4byte	.LBB1339
 5857 0e97 04000000 		.4byte	.LBE1339-.LBB1339
 5858 0e9b 02       		.byte	0x2
 5859 0e9c 9901     		.2byte	0x199
 5860 0e9e 01       		.uleb128 0x1
 5861 0e9f 400B0000 		.4byte	0xb40
 5862 0ea3 56000000 		.4byte	.LBI1340
 5863 0ea7 0800     		.2byte	.LVU261
 5864 0ea9 56000000 		.4byte	.LBB1340
 5865 0ead 04000000 		.4byte	.LBE1340-.LBB1340
 5866 0eb1 03       		.byte	0x3
 5867 0eb2 2E03     		.2byte	0x32e
 5868 0eb4 03       		.uleb128 0x3
 5869 0eb5 4D0B0000 		.4byte	0xb4d
 5870 0eb9 0B020000 		.4byte	.LLST24
 5871 0ebd 09020000 		.4byte	.LVUS24
 5872 0ec1 00       		.byte	0
 5873 0ec2 00       		.byte	0
 5874 0ec3 00       		.byte	0
 5875 0ec4 00       		.byte	0
 5876 0ec5 09       		.uleb128 0x9
ARM GAS  C:\Users\DEVELO~1\AppData\Local\Temp\cc5wr7T7.s 			page 105


 5877 0ec6 A60A0000 		.4byte	0xaa6
 5878 0eca 5A000000 		.4byte	.LBI1342
 5879 0ece 0400     		.2byte	.LVU267
 5880 0ed0 4F000000 		.4byte	.LLRL25
 5881 0ed4 01       		.byte	0x1
 5882 0ed5 F7       		.byte	0xf7
 5883 0ed6 05       		.byte	0x5
 5884 0ed7 2E0F0000 		.4byte	0xf2e
 5885 0edb 03       		.uleb128 0x3
 5886 0edc B40A0000 		.4byte	0xab4
 5887 0ee0 18020000 		.4byte	.LLST26
 5888 0ee4 16020000 		.4byte	.LVUS26
 5889 0ee8 09       		.uleb128 0x9
 5890 0ee9 DF0A0000 		.4byte	0xadf
 5891 0eed 5A000000 		.4byte	.LBI1344
 5892 0ef1 0700     		.2byte	.LVU270
 5893 0ef3 5B000000 		.4byte	.LLRL27
 5894 0ef7 05       		.byte	0x5
 5895 0ef8 AB       		.byte	0xab
 5896 0ef9 0A       		.byte	0xa
 5897 0efa 0C0F0000 		.4byte	0xf0c
 5898 0efe 03       		.uleb128 0x3
 5899 0eff ED0A0000 		.4byte	0xaed
 5900 0f03 28020000 		.4byte	.LLST28
 5901 0f07 26020000 		.4byte	.LVUS28
 5902 0f0b 00       		.byte	0
 5903 0f0c 0F       		.uleb128 0xf
 5904 0f0d C50A0000 		.4byte	0xac5
 5905 0f11 5A000000 		.4byte	.LBI1348
 5906 0f15 0A00     		.2byte	.LVU273
 5907 0f17 5A000000 		.4byte	.LBB1348
 5908 0f1b 00000000 		.4byte	.LBE1348-.LBB1348
 5909 0f1f 03       		.uleb128 0x3
 5910 0f20 D30A0000 		.4byte	0xad3
 5911 0f24 38020000 		.4byte	.LLST29
 5912 0f28 36020000 		.4byte	.LVUS29
 5913 0f2c 00       		.byte	0
 5914 0f2d 00       		.byte	0
 5915 0f2e 05       		.uleb128 0x5
 5916 0f2f 7B0A0000 		.4byte	0xa7b
 5917 0f33 7A000000 		.4byte	.LBI1354
 5918 0f37 0100     		.2byte	.LVU284
 5919 0f39 7A000000 		.4byte	.LBB1354
 5920 0f3d 04000000 		.4byte	.LBE1354-.LBB1354
 5921 0f41 F7       		.byte	0xf7
 5922 0f42 990F0000 		.4byte	0xf99
 5923 0f46 01       		.uleb128 0x1
 5924 0f47 F90A0000 		.4byte	0xaf9
 5925 0f4b 7A000000 		.4byte	.LBI1355
 5926 0f4f 0300     		.2byte	.LVU286
 5927 0f51 7A000000 		.4byte	.LBB1355
 5928 0f55 04000000 		.4byte	.LBE1355-.LBB1355
 5929 0f59 06       		.byte	0x6
 5930 0f5a 4A02     		.2byte	0x24a
 5931 0f5c 01       		.uleb128 0x1
 5932 0f5d 2E0B0000 		.4byte	0xb2e
 5933 0f61 7A000000 		.4byte	.LBI1357
ARM GAS  C:\Users\DEVELO~1\AppData\Local\Temp\cc5wr7T7.s 			page 106


 5934 0f65 0A00     		.2byte	.LVU293
 5935 0f67 7A000000 		.4byte	.LBB1357
 5936 0f6b 04000000 		.4byte	.LBE1357-.LBB1357
 5937 0f6f 02       		.byte	0x2
 5938 0f70 B201     		.2byte	0x1b2
 5939 0f72 01       		.uleb128 0x1
 5940 0f73 400B0000 		.4byte	0xb40
 5941 0f77 7A000000 		.4byte	.LBI1358
 5942 0f7b 0C00     		.2byte	.LVU295
 5943 0f7d 7A000000 		.4byte	.LBB1358
 5944 0f81 04000000 		.4byte	.LBE1358-.LBB1358
 5945 0f85 03       		.byte	0x3
 5946 0f86 4103     		.2byte	0x341
 5947 0f88 03       		.uleb128 0x3
 5948 0f89 4D0B0000 		.4byte	0xb4d
 5949 0f8d 48020000 		.4byte	.LLST30
 5950 0f91 46020000 		.4byte	.LVUS30
 5951 0f95 00       		.byte	0
 5952 0f96 00       		.byte	0
 5953 0f97 00       		.byte	0
 5954 0f98 00       		.byte	0
 5955 0f99 05       		.uleb128 0x5
 5956 0f9a 840A0000 		.4byte	0xa84
 5957 0f9e 7E000000 		.4byte	.LBI1360
 5958 0fa2 0300     		.2byte	.LVU300
 5959 0fa4 7E000000 		.4byte	.LBB1360
 5960 0fa8 04000000 		.4byte	.LBE1360-.LBB1360
 5961 0fac F8       		.byte	0xf8
 5962 0fad 04100000 		.4byte	0x1004
 5963 0fb1 01       		.uleb128 0x1
 5964 0fb2 250B0000 		.4byte	0xb25
 5965 0fb6 7E000000 		.4byte	.LBI1361
 5966 0fba 0500     		.2byte	.LVU302
 5967 0fbc 7E000000 		.4byte	.LBB1361
 5968 0fc0 04000000 		.4byte	.LBE1361-.LBB1361
 5969 0fc4 06       		.byte	0x6
 5970 0fc5 3F02     		.2byte	0x23f
 5971 0fc7 01       		.uleb128 0x1
 5972 0fc8 370B0000 		.4byte	0xb37
 5973 0fcc 7E000000 		.4byte	.LBI1362
 5974 0fd0 0700     		.2byte	.LVU304
 5975 0fd2 7E000000 		.4byte	.LBB1362
 5976 0fd6 04000000 		.4byte	.LBE1362-.LBB1362
 5977 0fda 02       		.byte	0x2
 5978 0fdb 9901     		.2byte	0x199
 5979 0fdd 01       		.uleb128 0x1
 5980 0fde 400B0000 		.4byte	0xb40
 5981 0fe2 7E000000 		.4byte	.LBI1363
 5982 0fe6 0900     		.2byte	.LVU306
 5983 0fe8 7E000000 		.4byte	.LBB1363
 5984 0fec 04000000 		.4byte	.LBE1363-.LBB1363
 5985 0ff0 03       		.byte	0x3
 5986 0ff1 2E03     		.2byte	0x32e
 5987 0ff3 03       		.uleb128 0x3
 5988 0ff4 4D0B0000 		.4byte	0xb4d
 5989 0ff8 54020000 		.4byte	.LLST31
 5990 0ffc 52020000 		.4byte	.LVUS31
ARM GAS  C:\Users\DEVELO~1\AppData\Local\Temp\cc5wr7T7.s 			page 107


 5991 1000 00       		.byte	0
 5992 1001 00       		.byte	0
 5993 1002 00       		.byte	0
 5994 1003 00       		.byte	0
 5995 1004 05       		.uleb128 0x5
 5996 1005 C50A0000 		.4byte	0xac5
 5997 1009 82000000 		.4byte	.LBI1365
 5998 100d 0400     		.2byte	.LVU312
 5999 100f 82000000 		.4byte	.LBB1365
 6000 1013 00000000 		.4byte	.LBE1365-.LBB1365
 6001 1017 F8       		.byte	0xf8
 6002 1018 2A100000 		.4byte	0x102a
 6003 101c 03       		.uleb128 0x3
 6004 101d D30A0000 		.4byte	0xad3
 6005 1021 61020000 		.4byte	.LLST32
 6006 1025 5F020000 		.4byte	.LVUS32
 6007 1029 00       		.byte	0
 6008 102a 07       		.uleb128 0x7
 6009 102b 7B0A0000 		.4byte	0xa7b
 6010 102f 94000000 		.4byte	.LBI1367
 6011 1033 0100     		.2byte	.LVU318
 6012 1035 94000000 		.4byte	.LBB1367
 6013 1039 04000000 		.4byte	.LBE1367-.LBB1367
 6014 103d 1501     		.2byte	0x115
 6015 103f 05       		.byte	0x5
 6016 1040 97100000 		.4byte	0x1097
 6017 1044 01       		.uleb128 0x1
 6018 1045 F90A0000 		.4byte	0xaf9
 6019 1049 94000000 		.4byte	.LBI1368
 6020 104d 0300     		.2byte	.LVU320
 6021 104f 94000000 		.4byte	.LBB1368
 6022 1053 04000000 		.4byte	.LBE1368-.LBB1368
 6023 1057 06       		.byte	0x6
 6024 1058 4A02     		.2byte	0x24a
 6025 105a 01       		.uleb128 0x1
 6026 105b 2E0B0000 		.4byte	0xb2e
 6027 105f 94000000 		.4byte	.LBI1370
 6028 1063 0A00     		.2byte	.LVU327
 6029 1065 94000000 		.4byte	.LBB1370
 6030 1069 04000000 		.4byte	.LBE1370-.LBB1370
 6031 106d 02       		.byte	0x2
 6032 106e B201     		.2byte	0x1b2
 6033 1070 01       		.uleb128 0x1
 6034 1071 400B0000 		.4byte	0xb40
 6035 1075 94000000 		.4byte	.LBI1371
 6036 1079 0C00     		.2byte	.LVU329
 6037 107b 94000000 		.4byte	.LBB1371
 6038 107f 04000000 		.4byte	.LBE1371-.LBB1371
 6039 1083 03       		.byte	0x3
 6040 1084 4103     		.2byte	0x341
 6041 1086 03       		.uleb128 0x3
 6042 1087 4D0B0000 		.4byte	0xb4d
 6043 108b 71020000 		.4byte	.LLST33
 6044 108f 6F020000 		.4byte	.LVUS33
 6045 1093 00       		.byte	0
 6046 1094 00       		.byte	0
 6047 1095 00       		.byte	0
ARM GAS  C:\Users\DEVELO~1\AppData\Local\Temp\cc5wr7T7.s 			page 108


 6048 1096 00       		.byte	0
 6049 1097 07       		.uleb128 0x7
 6050 1098 7B0A0000 		.4byte	0xa7b
 6051 109c 9E000000 		.4byte	.LBI1373
 6052 10a0 0100     		.2byte	.LVU335
 6053 10a2 9E000000 		.4byte	.LBB1373
 6054 10a6 04000000 		.4byte	.LBE1373-.LBB1373
 6055 10aa 1601     		.2byte	0x116
 6056 10ac 05       		.byte	0x5
 6057 10ad 04110000 		.4byte	0x1104
 6058 10b1 01       		.uleb128 0x1
 6059 10b2 F90A0000 		.4byte	0xaf9
 6060 10b6 9E000000 		.4byte	.LBI1374
 6061 10ba 0300     		.2byte	.LVU337
 6062 10bc 9E000000 		.4byte	.LBB1374
 6063 10c0 04000000 		.4byte	.LBE1374-.LBB1374
 6064 10c4 06       		.byte	0x6
 6065 10c5 4A02     		.2byte	0x24a
 6066 10c7 01       		.uleb128 0x1
 6067 10c8 2E0B0000 		.4byte	0xb2e
 6068 10cc 9E000000 		.4byte	.LBI1376
 6069 10d0 0A00     		.2byte	.LVU344
 6070 10d2 9E000000 		.4byte	.LBB1376
 6071 10d6 04000000 		.4byte	.LBE1376-.LBB1376
 6072 10da 02       		.byte	0x2
 6073 10db B201     		.2byte	0x1b2
 6074 10dd 01       		.uleb128 0x1
 6075 10de 400B0000 		.4byte	0xb40
 6076 10e2 9E000000 		.4byte	.LBI1377
 6077 10e6 0C00     		.2byte	.LVU346
 6078 10e8 9E000000 		.4byte	.LBB1377
 6079 10ec 04000000 		.4byte	.LBE1377-.LBB1377
 6080 10f0 03       		.byte	0x3
 6081 10f1 4103     		.2byte	0x341
 6082 10f3 03       		.uleb128 0x3
 6083 10f4 4D0B0000 		.4byte	0xb4d
 6084 10f8 7D020000 		.4byte	.LLST34
 6085 10fc 7B020000 		.4byte	.LVUS34
 6086 1100 00       		.byte	0
 6087 1101 00       		.byte	0
 6088 1102 00       		.byte	0
 6089 1103 00       		.byte	0
 6090 1104 05       		.uleb128 0x5
 6091 1105 7B0A0000 		.4byte	0xa7b
 6092 1109 A8000000 		.4byte	.LBI1379
 6093 110d 0100     		.2byte	.LVU352
 6094 110f A8000000 		.4byte	.LBB1379
 6095 1113 04000000 		.4byte	.LBE1379-.LBB1379
 6096 1117 F8       		.byte	0xf8
 6097 1118 6F110000 		.4byte	0x116f
 6098 111c 01       		.uleb128 0x1
 6099 111d F90A0000 		.4byte	0xaf9
 6100 1121 A8000000 		.4byte	.LBI1380
 6101 1125 0300     		.2byte	.LVU354
 6102 1127 A8000000 		.4byte	.LBB1380
 6103 112b 04000000 		.4byte	.LBE1380-.LBB1380
 6104 112f 06       		.byte	0x6
ARM GAS  C:\Users\DEVELO~1\AppData\Local\Temp\cc5wr7T7.s 			page 109


 6105 1130 4A02     		.2byte	0x24a
 6106 1132 01       		.uleb128 0x1
 6107 1133 2E0B0000 		.4byte	0xb2e
 6108 1137 A8000000 		.4byte	.LBI1382
 6109 113b 0A00     		.2byte	.LVU361
 6110 113d A8000000 		.4byte	.LBB1382
 6111 1141 04000000 		.4byte	.LBE1382-.LBB1382
 6112 1145 02       		.byte	0x2
 6113 1146 B201     		.2byte	0x1b2
 6114 1148 01       		.uleb128 0x1
 6115 1149 400B0000 		.4byte	0xb40
 6116 114d A8000000 		.4byte	.LBI1383
 6117 1151 0C00     		.2byte	.LVU363
 6118 1153 A8000000 		.4byte	.LBB1383
 6119 1157 04000000 		.4byte	.LBE1383-.LBB1383
 6120 115b 03       		.byte	0x3
 6121 115c 4103     		.2byte	0x341
 6122 115e 03       		.uleb128 0x3
 6123 115f 4D0B0000 		.4byte	0xb4d
 6124 1163 89020000 		.4byte	.LLST35
 6125 1167 87020000 		.4byte	.LVUS35
 6126 116b 00       		.byte	0
 6127 116c 00       		.byte	0
 6128 116d 00       		.byte	0
 6129 116e 00       		.byte	0
 6130 116f 05       		.uleb128 0x5
 6131 1170 840A0000 		.4byte	0xa84
 6132 1174 AC000000 		.4byte	.LBI1385
 6133 1178 0300     		.2byte	.LVU368
 6134 117a AC000000 		.4byte	.LBB1385
 6135 117e 04000000 		.4byte	.LBE1385-.LBB1385
 6136 1182 F9       		.byte	0xf9
 6137 1183 DA110000 		.4byte	0x11da
 6138 1187 01       		.uleb128 0x1
 6139 1188 250B0000 		.4byte	0xb25
 6140 118c AC000000 		.4byte	.LBI1386
 6141 1190 0500     		.2byte	.LVU370
 6142 1192 AC000000 		.4byte	.LBB1386
 6143 1196 04000000 		.4byte	.LBE1386-.LBB1386
 6144 119a 06       		.byte	0x6
 6145 119b 3F02     		.2byte	0x23f
 6146 119d 01       		.uleb128 0x1
 6147 119e 370B0000 		.4byte	0xb37
 6148 11a2 AC000000 		.4byte	.LBI1387
 6149 11a6 0700     		.2byte	.LVU372
 6150 11a8 AC000000 		.4byte	.LBB1387
 6151 11ac 04000000 		.4byte	.LBE1387-.LBB1387
 6152 11b0 02       		.byte	0x2
 6153 11b1 9901     		.2byte	0x199
 6154 11b3 01       		.uleb128 0x1
 6155 11b4 400B0000 		.4byte	0xb40
 6156 11b8 AC000000 		.4byte	.LBI1388
 6157 11bc 0900     		.2byte	.LVU374
 6158 11be AC000000 		.4byte	.LBB1388
 6159 11c2 04000000 		.4byte	.LBE1388-.LBB1388
 6160 11c6 03       		.byte	0x3
 6161 11c7 2E03     		.2byte	0x32e
ARM GAS  C:\Users\DEVELO~1\AppData\Local\Temp\cc5wr7T7.s 			page 110


 6162 11c9 03       		.uleb128 0x3
 6163 11ca 4D0B0000 		.4byte	0xb4d
 6164 11ce 95020000 		.4byte	.LLST36
 6165 11d2 93020000 		.4byte	.LVUS36
 6166 11d6 00       		.byte	0
 6167 11d7 00       		.byte	0
 6168 11d8 00       		.byte	0
 6169 11d9 00       		.byte	0
 6170 11da 05       		.uleb128 0x5
 6171 11db 7B0A0000 		.4byte	0xa7b
 6172 11df C8000000 		.4byte	.LBI1390
 6173 11e3 0100     		.2byte	.LVU381
 6174 11e5 C8000000 		.4byte	.LBB1390
 6175 11e9 04000000 		.4byte	.LBE1390-.LBB1390
 6176 11ed F9       		.byte	0xf9
 6177 11ee 45120000 		.4byte	0x1245
 6178 11f2 01       		.uleb128 0x1
 6179 11f3 F90A0000 		.4byte	0xaf9
 6180 11f7 C8000000 		.4byte	.LBI1391
 6181 11fb 0300     		.2byte	.LVU383
 6182 11fd C8000000 		.4byte	.LBB1391
 6183 1201 04000000 		.4byte	.LBE1391-.LBB1391
 6184 1205 06       		.byte	0x6
 6185 1206 4A02     		.2byte	0x24a
 6186 1208 01       		.uleb128 0x1
 6187 1209 2E0B0000 		.4byte	0xb2e
 6188 120d C8000000 		.4byte	.LBI1393
 6189 1211 0A00     		.2byte	.LVU390
 6190 1213 C8000000 		.4byte	.LBB1393
 6191 1217 04000000 		.4byte	.LBE1393-.LBB1393
 6192 121b 02       		.byte	0x2
 6193 121c B201     		.2byte	0x1b2
 6194 121e 01       		.uleb128 0x1
 6195 121f 400B0000 		.4byte	0xb40
 6196 1223 C8000000 		.4byte	.LBI1394
 6197 1227 0C00     		.2byte	.LVU392
 6198 1229 C8000000 		.4byte	.LBB1394
 6199 122d 04000000 		.4byte	.LBE1394-.LBB1394
 6200 1231 03       		.byte	0x3
 6201 1232 4103     		.2byte	0x341
 6202 1234 03       		.uleb128 0x3
 6203 1235 4D0B0000 		.4byte	0xb4d
 6204 1239 A2020000 		.4byte	.LLST37
 6205 123d A0020000 		.4byte	.LVUS37
 6206 1241 00       		.byte	0
 6207 1242 00       		.byte	0
 6208 1243 00       		.byte	0
 6209 1244 00       		.byte	0
 6210 1245 05       		.uleb128 0x5
 6211 1246 840A0000 		.4byte	0xa84
 6212 124a CC000000 		.4byte	.LBI1396
 6213 124e 0300     		.2byte	.LVU397
 6214 1250 CC000000 		.4byte	.LBB1396
 6215 1254 04000000 		.4byte	.LBE1396-.LBB1396
 6216 1258 FA       		.byte	0xfa
 6217 1259 B0120000 		.4byte	0x12b0
 6218 125d 01       		.uleb128 0x1
ARM GAS  C:\Users\DEVELO~1\AppData\Local\Temp\cc5wr7T7.s 			page 111


 6219 125e 250B0000 		.4byte	0xb25
 6220 1262 CC000000 		.4byte	.LBI1397
 6221 1266 0500     		.2byte	.LVU399
 6222 1268 CC000000 		.4byte	.LBB1397
 6223 126c 04000000 		.4byte	.LBE1397-.LBB1397
 6224 1270 06       		.byte	0x6
 6225 1271 3F02     		.2byte	0x23f
 6226 1273 01       		.uleb128 0x1
 6227 1274 370B0000 		.4byte	0xb37
 6228 1278 CC000000 		.4byte	.LBI1398
 6229 127c 0700     		.2byte	.LVU401
 6230 127e CC000000 		.4byte	.LBB1398
 6231 1282 04000000 		.4byte	.LBE1398-.LBB1398
 6232 1286 02       		.byte	0x2
 6233 1287 9901     		.2byte	0x199
 6234 1289 01       		.uleb128 0x1
 6235 128a 400B0000 		.4byte	0xb40
 6236 128e CC000000 		.4byte	.LBI1399
 6237 1292 0900     		.2byte	.LVU403
 6238 1294 CC000000 		.4byte	.LBB1399
 6239 1298 04000000 		.4byte	.LBE1399-.LBB1399
 6240 129c 03       		.byte	0x3
 6241 129d 2E03     		.2byte	0x32e
 6242 129f 03       		.uleb128 0x3
 6243 12a0 4D0B0000 		.4byte	0xb4d
 6244 12a4 AE020000 		.4byte	.LLST38
 6245 12a8 AC020000 		.4byte	.LVUS38
 6246 12ac 00       		.byte	0
 6247 12ad 00       		.byte	0
 6248 12ae 00       		.byte	0
 6249 12af 00       		.byte	0
 6250 12b0 05       		.uleb128 0x5
 6251 12b1 7B0A0000 		.4byte	0xa7b
 6252 12b5 E6000000 		.4byte	.LBI1401
 6253 12b9 0100     		.2byte	.LVU410
 6254 12bb E6000000 		.4byte	.LBB1401
 6255 12bf 04000000 		.4byte	.LBE1401-.LBB1401
 6256 12c3 FA       		.byte	0xfa
 6257 12c4 1B130000 		.4byte	0x131b
 6258 12c8 01       		.uleb128 0x1
 6259 12c9 F90A0000 		.4byte	0xaf9
 6260 12cd E6000000 		.4byte	.LBI1402
 6261 12d1 0300     		.2byte	.LVU412
 6262 12d3 E6000000 		.4byte	.LBB1402
 6263 12d7 04000000 		.4byte	.LBE1402-.LBB1402
 6264 12db 06       		.byte	0x6
 6265 12dc 4A02     		.2byte	0x24a
 6266 12de 01       		.uleb128 0x1
 6267 12df 2E0B0000 		.4byte	0xb2e
 6268 12e3 E6000000 		.4byte	.LBI1404
 6269 12e7 0A00     		.2byte	.LVU419
 6270 12e9 E6000000 		.4byte	.LBB1404
 6271 12ed 04000000 		.4byte	.LBE1404-.LBB1404
 6272 12f1 02       		.byte	0x2
 6273 12f2 B201     		.2byte	0x1b2
 6274 12f4 01       		.uleb128 0x1
 6275 12f5 400B0000 		.4byte	0xb40
ARM GAS  C:\Users\DEVELO~1\AppData\Local\Temp\cc5wr7T7.s 			page 112


 6276 12f9 E6000000 		.4byte	.LBI1405
 6277 12fd 0C00     		.2byte	.LVU421
 6278 12ff E6000000 		.4byte	.LBB1405
 6279 1303 04000000 		.4byte	.LBE1405-.LBB1405
 6280 1307 03       		.byte	0x3
 6281 1308 4103     		.2byte	0x341
 6282 130a 03       		.uleb128 0x3
 6283 130b 4D0B0000 		.4byte	0xb4d
 6284 130f BB020000 		.4byte	.LLST39
 6285 1313 B9020000 		.4byte	.LVUS39
 6286 1317 00       		.byte	0
 6287 1318 00       		.byte	0
 6288 1319 00       		.byte	0
 6289 131a 00       		.byte	0
 6290 131b 09       		.uleb128 0x9
 6291 131c 8D0A0000 		.4byte	0xa8d
 6292 1320 EA000000 		.4byte	.LBI1407
 6293 1324 0300     		.2byte	.LVU426
 6294 1326 6A000000 		.4byte	.LLRL40
 6295 132a 01       		.byte	0x1
 6296 132b FB       		.byte	0xfb
 6297 132c 05       		.byte	0x5
 6298 132d 3F130000 		.4byte	0x133f
 6299 1331 03       		.uleb128 0x3
 6300 1332 9A0A0000 		.4byte	0xa9a
 6301 1336 C7020000 		.4byte	.LLST41
 6302 133a C5020000 		.4byte	.LVUS41
 6303 133e 00       		.byte	0
 6304 133f 07       		.uleb128 0x7
 6305 1340 250B0000 		.4byte	0xb25
 6306 1344 F8000000 		.4byte	.LBI1411
 6307 1348 0300     		.2byte	.LVU438
 6308 134a F8000000 		.4byte	.LBB1411
 6309 134e 04000000 		.4byte	.LBE1411-.LBB1411
 6310 1352 0401     		.2byte	0x104
 6311 1354 07       		.byte	0x7
 6312 1355 95130000 		.4byte	0x1395
 6313 1359 01       		.uleb128 0x1
 6314 135a 370B0000 		.4byte	0xb37
 6315 135e F8000000 		.4byte	.LBI1412
 6316 1362 0500     		.2byte	.LVU440
 6317 1364 F8000000 		.4byte	.LBB1412
 6318 1368 04000000 		.4byte	.LBE1412-.LBB1412
 6319 136c 02       		.byte	0x2
 6320 136d 9901     		.2byte	0x199
 6321 136f 01       		.uleb128 0x1
 6322 1370 400B0000 		.4byte	0xb40
 6323 1374 F8000000 		.4byte	.LBI1413
 6324 1378 0700     		.2byte	.LVU442
 6325 137a F8000000 		.4byte	.LBB1413
 6326 137e 04000000 		.4byte	.LBE1413-.LBB1413
 6327 1382 03       		.byte	0x3
 6328 1383 2E03     		.2byte	0x32e
 6329 1385 03       		.uleb128 0x3
 6330 1386 4D0B0000 		.4byte	0xb4d
 6331 138a D7020000 		.4byte	.LLST42
 6332 138e D5020000 		.4byte	.LVUS42
ARM GAS  C:\Users\DEVELO~1\AppData\Local\Temp\cc5wr7T7.s 			page 113


 6333 1392 00       		.byte	0
 6334 1393 00       		.byte	0
 6335 1394 00       		.byte	0
 6336 1395 07       		.uleb128 0x7
 6337 1396 F90A0000 		.4byte	0xaf9
 6338 139a 04010000 		.4byte	.LBI1415
 6339 139e 0100     		.2byte	.LVU450
 6340 13a0 04010000 		.4byte	.LBB1415
 6341 13a4 06000000 		.4byte	.LBE1415-.LBB1415
 6342 13a8 0601     		.2byte	0x106
 6343 13aa 07       		.byte	0x7
 6344 13ab EB130000 		.4byte	0x13eb
 6345 13af 01       		.uleb128 0x1
 6346 13b0 2E0B0000 		.4byte	0xb2e
 6347 13b4 04010000 		.4byte	.LBI1417
 6348 13b8 0800     		.2byte	.LVU457
 6349 13ba 04010000 		.4byte	.LBB1417
 6350 13be 06000000 		.4byte	.LBE1417-.LBB1417
 6351 13c2 02       		.byte	0x2
 6352 13c3 B201     		.2byte	0x1b2
 6353 13c5 01       		.uleb128 0x1
 6354 13c6 400B0000 		.4byte	0xb40
 6355 13ca 04010000 		.4byte	.LBI1418
 6356 13ce 0A00     		.2byte	.LVU459
 6357 13d0 04010000 		.4byte	.LBB1418
 6358 13d4 06000000 		.4byte	.LBE1418-.LBB1418
 6359 13d8 03       		.byte	0x3
 6360 13d9 4103     		.2byte	0x341
 6361 13db 03       		.uleb128 0x3
 6362 13dc 4D0B0000 		.4byte	0xb4d
 6363 13e0 E4020000 		.4byte	.LLST43
 6364 13e4 E2020000 		.4byte	.LVUS43
 6365 13e8 00       		.byte	0
 6366 13e9 00       		.byte	0
 6367 13ea 00       		.byte	0
 6368 13eb 07       		.uleb128 0x7
 6369 13ec 250B0000 		.4byte	0xb25
 6370 13f0 26010000 		.4byte	.LBI1420
 6371 13f4 0100     		.2byte	.LVU472
 6372 13f6 26010000 		.4byte	.LBB1420
 6373 13fa 04000000 		.4byte	.LBE1420-.LBB1420
 6374 13fe 0901     		.2byte	0x109
 6375 1400 05       		.byte	0x5
 6376 1401 41140000 		.4byte	0x1441
 6377 1405 01       		.uleb128 0x1
 6378 1406 370B0000 		.4byte	0xb37
 6379 140a 26010000 		.4byte	.LBI1421
 6380 140e 0300     		.2byte	.LVU474
 6381 1410 26010000 		.4byte	.LBB1421
 6382 1414 04000000 		.4byte	.LBE1421-.LBB1421
 6383 1418 02       		.byte	0x2
 6384 1419 9901     		.2byte	0x199
 6385 141b 01       		.uleb128 0x1
 6386 141c 400B0000 		.4byte	0xb40
 6387 1420 26010000 		.4byte	.LBI1422
 6388 1424 0500     		.2byte	.LVU476
 6389 1426 26010000 		.4byte	.LBB1422
ARM GAS  C:\Users\DEVELO~1\AppData\Local\Temp\cc5wr7T7.s 			page 114


 6390 142a 04000000 		.4byte	.LBE1422-.LBB1422
 6391 142e 03       		.byte	0x3
 6392 142f 2E03     		.2byte	0x32e
 6393 1431 03       		.uleb128 0x3
 6394 1432 4D0B0000 		.4byte	0xb4d
 6395 1436 F0020000 		.4byte	.LLST44
 6396 143a EE020000 		.4byte	.LVUS44
 6397 143e 00       		.byte	0
 6398 143f 00       		.byte	0
 6399 1440 00       		.byte	0
 6400 1441 07       		.uleb128 0x7
 6401 1442 F90A0000 		.4byte	0xaf9
 6402 1446 32010000 		.4byte	.LBI1424
 6403 144a 0100     		.2byte	.LVU484
 6404 144c 32010000 		.4byte	.LBB1424
 6405 1450 04000000 		.4byte	.LBE1424-.LBB1424
 6406 1454 0B01     		.2byte	0x10b
 6407 1456 05       		.byte	0x5
 6408 1457 97140000 		.4byte	0x1497
 6409 145b 01       		.uleb128 0x1
 6410 145c 2E0B0000 		.4byte	0xb2e
 6411 1460 32010000 		.4byte	.LBI1426
 6412 1464 0800     		.2byte	.LVU491
 6413 1466 32010000 		.4byte	.LBB1426
 6414 146a 04000000 		.4byte	.LBE1426-.LBB1426
 6415 146e 02       		.byte	0x2
 6416 146f B201     		.2byte	0x1b2
 6417 1471 01       		.uleb128 0x1
 6418 1472 400B0000 		.4byte	0xb40
 6419 1476 32010000 		.4byte	.LBI1427
 6420 147a 0A00     		.2byte	.LVU493
 6421 147c 32010000 		.4byte	.LBB1427
 6422 1480 04000000 		.4byte	.LBE1427-.LBB1427
 6423 1484 03       		.byte	0x3
 6424 1485 4103     		.2byte	0x341
 6425 1487 03       		.uleb128 0x3
 6426 1488 4D0B0000 		.4byte	0xb4d
 6427 148c FD020000 		.4byte	.LLST45
 6428 1490 FB020000 		.4byte	.LVUS45
 6429 1494 00       		.byte	0
 6430 1495 00       		.byte	0
 6431 1496 00       		.byte	0
 6432 1497 07       		.uleb128 0x7
 6433 1498 840A0000 		.4byte	0xa84
 6434 149c 52010000 		.4byte	.LBI1429
 6435 14a0 0100     		.2byte	.LVU503
 6436 14a2 52010000 		.4byte	.LBB1429
 6437 14a6 04000000 		.4byte	.LBE1429-.LBB1429
 6438 14aa 1401     		.2byte	0x114
 6439 14ac 05       		.byte	0x5
 6440 14ad 04150000 		.4byte	0x1504
 6441 14b1 01       		.uleb128 0x1
 6442 14b2 250B0000 		.4byte	0xb25
 6443 14b6 52010000 		.4byte	.LBI1430
 6444 14ba 0300     		.2byte	.LVU505
 6445 14bc 52010000 		.4byte	.LBB1430
 6446 14c0 04000000 		.4byte	.LBE1430-.LBB1430
ARM GAS  C:\Users\DEVELO~1\AppData\Local\Temp\cc5wr7T7.s 			page 115


 6447 14c4 06       		.byte	0x6
 6448 14c5 3F02     		.2byte	0x23f
 6449 14c7 01       		.uleb128 0x1
 6450 14c8 370B0000 		.4byte	0xb37
 6451 14cc 52010000 		.4byte	.LBI1431
 6452 14d0 0500     		.2byte	.LVU507
 6453 14d2 52010000 		.4byte	.LBB1431
 6454 14d6 04000000 		.4byte	.LBE1431-.LBB1431
 6455 14da 02       		.byte	0x2
 6456 14db 9901     		.2byte	0x199
 6457 14dd 01       		.uleb128 0x1
 6458 14de 400B0000 		.4byte	0xb40
 6459 14e2 52010000 		.4byte	.LBI1432
 6460 14e6 0700     		.2byte	.LVU509
 6461 14e8 52010000 		.4byte	.LBB1432
 6462 14ec 04000000 		.4byte	.LBE1432-.LBB1432
 6463 14f0 03       		.byte	0x3
 6464 14f1 2E03     		.2byte	0x32e
 6465 14f3 03       		.uleb128 0x3
 6466 14f4 4D0B0000 		.4byte	0xb4d
 6467 14f8 09030000 		.4byte	.LLST46
 6468 14fc 07030000 		.4byte	.LVUS46
 6469 1500 00       		.byte	0
 6470 1501 00       		.byte	0
 6471 1502 00       		.byte	0
 6472 1503 00       		.byte	0
 6473 1504 19       		.uleb128 0x19
 6474 1505 A60A0000 		.4byte	0xaa6
 6475 1509 56010000 		.4byte	.LBI1434
 6476 150d 0400     		.2byte	.LVU515
 6477 150f 76000000 		.4byte	.LLRL47
 6478 1513 1401     		.2byte	0x114
 6479 1515 05       		.byte	0x5
 6480 1516 6D150000 		.4byte	0x156d
 6481 151a 03       		.uleb128 0x3
 6482 151b B40A0000 		.4byte	0xab4
 6483 151f 16030000 		.4byte	.LLST48
 6484 1523 14030000 		.4byte	.LVUS48
 6485 1527 09       		.uleb128 0x9
 6486 1528 DF0A0000 		.4byte	0xadf
 6487 152c 56010000 		.4byte	.LBI1435
 6488 1530 0700     		.2byte	.LVU518
 6489 1532 82000000 		.4byte	.LLRL49
 6490 1536 05       		.byte	0x5
 6491 1537 AB       		.byte	0xab
 6492 1538 0A       		.byte	0xa
 6493 1539 4B150000 		.4byte	0x154b
 6494 153d 03       		.uleb128 0x3
 6495 153e ED0A0000 		.4byte	0xaed
 6496 1542 26030000 		.4byte	.LLST50
 6497 1546 24030000 		.4byte	.LVUS50
 6498 154a 00       		.byte	0
 6499 154b 0F       		.uleb128 0xf
 6500 154c C50A0000 		.4byte	0xac5
 6501 1550 56010000 		.4byte	.LBI1439
 6502 1554 0A00     		.2byte	.LVU521
 6503 1556 56010000 		.4byte	.LBB1439
ARM GAS  C:\Users\DEVELO~1\AppData\Local\Temp\cc5wr7T7.s 			page 116


 6504 155a 00000000 		.4byte	.LBE1439-.LBB1439
 6505 155e 03       		.uleb128 0x3
 6506 155f D30A0000 		.4byte	0xad3
 6507 1563 36030000 		.4byte	.LLST51
 6508 1567 34030000 		.4byte	.LVUS51
 6509 156b 00       		.byte	0
 6510 156c 00       		.byte	0
 6511 156d 07       		.uleb128 0x7
 6512 156e 7B0A0000 		.4byte	0xa7b
 6513 1572 74010000 		.4byte	.LBI1444
 6514 1576 0100     		.2byte	.LVU530
 6515 1578 74010000 		.4byte	.LBB1444
 6516 157c 04000000 		.4byte	.LBE1444-.LBB1444
 6517 1580 1401     		.2byte	0x114
 6518 1582 05       		.byte	0x5
 6519 1583 DA150000 		.4byte	0x15da
 6520 1587 01       		.uleb128 0x1
 6521 1588 F90A0000 		.4byte	0xaf9
 6522 158c 74010000 		.4byte	.LBI1445
 6523 1590 0300     		.2byte	.LVU532
 6524 1592 74010000 		.4byte	.LBB1445
 6525 1596 04000000 		.4byte	.LBE1445-.LBB1445
 6526 159a 06       		.byte	0x6
 6527 159b 4A02     		.2byte	0x24a
 6528 159d 01       		.uleb128 0x1
 6529 159e 2E0B0000 		.4byte	0xb2e
 6530 15a2 74010000 		.4byte	.LBI1447
 6531 15a6 0A00     		.2byte	.LVU539
 6532 15a8 74010000 		.4byte	.LBB1447
 6533 15ac 04000000 		.4byte	.LBE1447-.LBB1447
 6534 15b0 02       		.byte	0x2
 6535 15b1 B201     		.2byte	0x1b2
 6536 15b3 01       		.uleb128 0x1
 6537 15b4 400B0000 		.4byte	0xb40
 6538 15b8 74010000 		.4byte	.LBI1448
 6539 15bc 0C00     		.2byte	.LVU541
 6540 15be 74010000 		.4byte	.LBB1448
 6541 15c2 04000000 		.4byte	.LBE1448-.LBB1448
 6542 15c6 03       		.byte	0x3
 6543 15c7 4103     		.2byte	0x341
 6544 15c9 03       		.uleb128 0x3
 6545 15ca 4D0B0000 		.4byte	0xb4d
 6546 15ce 46030000 		.4byte	.LLST52
 6547 15d2 44030000 		.4byte	.LVUS52
 6548 15d6 00       		.byte	0
 6549 15d7 00       		.byte	0
 6550 15d8 00       		.byte	0
 6551 15d9 00       		.byte	0
 6552 15da 07       		.uleb128 0x7
 6553 15db 840A0000 		.4byte	0xa84
 6554 15df 78010000 		.4byte	.LBI1450
 6555 15e3 0300     		.2byte	.LVU546
 6556 15e5 78010000 		.4byte	.LBB1450
 6557 15e9 04000000 		.4byte	.LBE1450-.LBB1450
 6558 15ed 1501     		.2byte	0x115
 6559 15ef 05       		.byte	0x5
 6560 15f0 47160000 		.4byte	0x1647
ARM GAS  C:\Users\DEVELO~1\AppData\Local\Temp\cc5wr7T7.s 			page 117


 6561 15f4 01       		.uleb128 0x1
 6562 15f5 250B0000 		.4byte	0xb25
 6563 15f9 78010000 		.4byte	.LBI1451
 6564 15fd 0500     		.2byte	.LVU548
 6565 15ff 78010000 		.4byte	.LBB1451
 6566 1603 04000000 		.4byte	.LBE1451-.LBB1451
 6567 1607 06       		.byte	0x6
 6568 1608 3F02     		.2byte	0x23f
 6569 160a 01       		.uleb128 0x1
 6570 160b 370B0000 		.4byte	0xb37
 6571 160f 78010000 		.4byte	.LBI1452
 6572 1613 0700     		.2byte	.LVU550
 6573 1615 78010000 		.4byte	.LBB1452
 6574 1619 04000000 		.4byte	.LBE1452-.LBB1452
 6575 161d 02       		.byte	0x2
 6576 161e 9901     		.2byte	0x199
 6577 1620 01       		.uleb128 0x1
 6578 1621 400B0000 		.4byte	0xb40
 6579 1625 78010000 		.4byte	.LBI1453
 6580 1629 0900     		.2byte	.LVU552
 6581 162b 78010000 		.4byte	.LBB1453
 6582 162f 04000000 		.4byte	.LBE1453-.LBB1453
 6583 1633 03       		.byte	0x3
 6584 1634 2E03     		.2byte	0x32e
 6585 1636 03       		.uleb128 0x3
 6586 1637 4D0B0000 		.4byte	0xb4d
 6587 163b 52030000 		.4byte	.LLST53
 6588 163f 50030000 		.4byte	.LVUS53
 6589 1643 00       		.byte	0
 6590 1644 00       		.byte	0
 6591 1645 00       		.byte	0
 6592 1646 00       		.byte	0
 6593 1647 07       		.uleb128 0x7
 6594 1648 C50A0000 		.4byte	0xac5
 6595 164c 7C010000 		.4byte	.LBI1455
 6596 1650 0400     		.2byte	.LVU558
 6597 1652 7C010000 		.4byte	.LBB1455
 6598 1656 00000000 		.4byte	.LBE1455-.LBB1455
 6599 165a 1501     		.2byte	0x115
 6600 165c 05       		.byte	0x5
 6601 165d 6F160000 		.4byte	0x166f
 6602 1661 03       		.uleb128 0x3
 6603 1662 D30A0000 		.4byte	0xad3
 6604 1666 5F030000 		.4byte	.LLST54
 6605 166a 5D030000 		.4byte	.LVUS54
 6606 166e 00       		.byte	0
 6607 166f 07       		.uleb128 0x7
 6608 1670 7B0A0000 		.4byte	0xa7b
 6609 1674 96010000 		.4byte	.LBI1457
 6610 1678 0100     		.2byte	.LVU564
 6611 167a 96010000 		.4byte	.LBB1457
 6612 167e 04000000 		.4byte	.LBE1457-.LBB1457
 6613 1682 1501     		.2byte	0x115
 6614 1684 05       		.byte	0x5
 6615 1685 DC160000 		.4byte	0x16dc
 6616 1689 01       		.uleb128 0x1
 6617 168a F90A0000 		.4byte	0xaf9
ARM GAS  C:\Users\DEVELO~1\AppData\Local\Temp\cc5wr7T7.s 			page 118


 6618 168e 96010000 		.4byte	.LBI1458
 6619 1692 0300     		.2byte	.LVU566
 6620 1694 96010000 		.4byte	.LBB1458
 6621 1698 04000000 		.4byte	.LBE1458-.LBB1458
 6622 169c 06       		.byte	0x6
 6623 169d 4A02     		.2byte	0x24a
 6624 169f 01       		.uleb128 0x1
 6625 16a0 2E0B0000 		.4byte	0xb2e
 6626 16a4 96010000 		.4byte	.LBI1460
 6627 16a8 0A00     		.2byte	.LVU573
 6628 16aa 96010000 		.4byte	.LBB1460
 6629 16ae 04000000 		.4byte	.LBE1460-.LBB1460
 6630 16b2 02       		.byte	0x2
 6631 16b3 B201     		.2byte	0x1b2
 6632 16b5 01       		.uleb128 0x1
 6633 16b6 400B0000 		.4byte	0xb40
 6634 16ba 96010000 		.4byte	.LBI1461
 6635 16be 0C00     		.2byte	.LVU575
 6636 16c0 96010000 		.4byte	.LBB1461
 6637 16c4 04000000 		.4byte	.LBE1461-.LBB1461
 6638 16c8 03       		.byte	0x3
 6639 16c9 4103     		.2byte	0x341
 6640 16cb 03       		.uleb128 0x3
 6641 16cc 4D0B0000 		.4byte	0xb4d
 6642 16d0 6F030000 		.4byte	.LLST55
 6643 16d4 6D030000 		.4byte	.LVUS55
 6644 16d8 00       		.byte	0
 6645 16d9 00       		.byte	0
 6646 16da 00       		.byte	0
 6647 16db 00       		.byte	0
 6648 16dc 07       		.uleb128 0x7
 6649 16dd 840A0000 		.4byte	0xa84
 6650 16e1 9A010000 		.4byte	.LBI1463
 6651 16e5 0300     		.2byte	.LVU580
 6652 16e7 9A010000 		.4byte	.LBB1463
 6653 16eb 04000000 		.4byte	.LBE1463-.LBB1463
 6654 16ef 1601     		.2byte	0x116
 6655 16f1 05       		.byte	0x5
 6656 16f2 49170000 		.4byte	0x1749
 6657 16f6 01       		.uleb128 0x1
 6658 16f7 250B0000 		.4byte	0xb25
 6659 16fb 9A010000 		.4byte	.LBI1464
 6660 16ff 0500     		.2byte	.LVU582
 6661 1701 9A010000 		.4byte	.LBB1464
 6662 1705 04000000 		.4byte	.LBE1464-.LBB1464
 6663 1709 06       		.byte	0x6
 6664 170a 3F02     		.2byte	0x23f
 6665 170c 01       		.uleb128 0x1
 6666 170d 370B0000 		.4byte	0xb37
 6667 1711 9A010000 		.4byte	.LBI1465
 6668 1715 0700     		.2byte	.LVU584
 6669 1717 9A010000 		.4byte	.LBB1465
 6670 171b 04000000 		.4byte	.LBE1465-.LBB1465
 6671 171f 02       		.byte	0x2
 6672 1720 9901     		.2byte	0x199
 6673 1722 01       		.uleb128 0x1
 6674 1723 400B0000 		.4byte	0xb40
ARM GAS  C:\Users\DEVELO~1\AppData\Local\Temp\cc5wr7T7.s 			page 119


 6675 1727 9A010000 		.4byte	.LBI1466
 6676 172b 0900     		.2byte	.LVU586
 6677 172d 9A010000 		.4byte	.LBB1466
 6678 1731 04000000 		.4byte	.LBE1466-.LBB1466
 6679 1735 03       		.byte	0x3
 6680 1736 2E03     		.2byte	0x32e
 6681 1738 03       		.uleb128 0x3
 6682 1739 4D0B0000 		.4byte	0xb4d
 6683 173d 7B030000 		.4byte	.LLST56
 6684 1741 79030000 		.4byte	.LVUS56
 6685 1745 00       		.byte	0
 6686 1746 00       		.byte	0
 6687 1747 00       		.byte	0
 6688 1748 00       		.byte	0
 6689 1749 07       		.uleb128 0x7
 6690 174a 7B0A0000 		.4byte	0xa7b
 6691 174e B6010000 		.4byte	.LBI1468
 6692 1752 0100     		.2byte	.LVU593
 6693 1754 B6010000 		.4byte	.LBB1468
 6694 1758 04000000 		.4byte	.LBE1468-.LBB1468
 6695 175c 1601     		.2byte	0x116
 6696 175e 05       		.byte	0x5
 6697 175f B6170000 		.4byte	0x17b6
 6698 1763 01       		.uleb128 0x1
 6699 1764 F90A0000 		.4byte	0xaf9
 6700 1768 B6010000 		.4byte	.LBI1469
 6701 176c 0300     		.2byte	.LVU595
 6702 176e B6010000 		.4byte	.LBB1469
 6703 1772 04000000 		.4byte	.LBE1469-.LBB1469
 6704 1776 06       		.byte	0x6
 6705 1777 4A02     		.2byte	0x24a
 6706 1779 01       		.uleb128 0x1
 6707 177a 2E0B0000 		.4byte	0xb2e
 6708 177e B6010000 		.4byte	.LBI1471
 6709 1782 0A00     		.2byte	.LVU602
 6710 1784 B6010000 		.4byte	.LBB1471
 6711 1788 04000000 		.4byte	.LBE1471-.LBB1471
 6712 178c 02       		.byte	0x2
 6713 178d B201     		.2byte	0x1b2
 6714 178f 01       		.uleb128 0x1
 6715 1790 400B0000 		.4byte	0xb40
 6716 1794 B6010000 		.4byte	.LBI1472
 6717 1798 0C00     		.2byte	.LVU604
 6718 179a B6010000 		.4byte	.LBB1472
 6719 179e 04000000 		.4byte	.LBE1472-.LBB1472
 6720 17a2 03       		.byte	0x3
 6721 17a3 4103     		.2byte	0x341
 6722 17a5 03       		.uleb128 0x3
 6723 17a6 4D0B0000 		.4byte	0xb4d
 6724 17aa 88030000 		.4byte	.LLST57
 6725 17ae 86030000 		.4byte	.LVUS57
 6726 17b2 00       		.byte	0
 6727 17b3 00       		.byte	0
 6728 17b4 00       		.byte	0
 6729 17b5 00       		.byte	0
 6730 17b6 19       		.uleb128 0x19
 6731 17b7 250B0000 		.4byte	0xb25
ARM GAS  C:\Users\DEVELO~1\AppData\Local\Temp\cc5wr7T7.s 			page 120


 6732 17bb C6010000 		.4byte	.LBI1474
 6733 17bf 0300     		.2byte	.LVU618
 6734 17c1 91000000 		.4byte	.LLRL58
 6735 17c5 1F01     		.2byte	0x11f
 6736 17c7 07       		.byte	0x7
 6737 17c8 00180000 		.4byte	0x1800
 6738 17cc 0D       		.uleb128 0xd
 6739 17cd 370B0000 		.4byte	0xb37
 6740 17d1 C6010000 		.4byte	.LBI1475
 6741 17d5 0500     		.2byte	.LVU620
 6742 17d7 91000000 		.4byte	.LLRL58
 6743 17db 02       		.byte	0x2
 6744 17dc 9901     		.2byte	0x199
 6745 17de 0D       		.uleb128 0xd
 6746 17df 400B0000 		.4byte	0xb40
 6747 17e3 C6010000 		.4byte	.LBI1476
 6748 17e7 0700     		.2byte	.LVU622
 6749 17e9 91000000 		.4byte	.LLRL58
 6750 17ed 03       		.byte	0x3
 6751 17ee 2E03     		.2byte	0x32e
 6752 17f0 03       		.uleb128 0x3
 6753 17f1 4D0B0000 		.4byte	0xb4d
 6754 17f5 94030000 		.4byte	.LLST59
 6755 17f9 92030000 		.4byte	.LVUS59
 6756 17fd 00       		.byte	0
 6757 17fe 00       		.byte	0
 6758 17ff 00       		.byte	0
 6759 1800 07       		.uleb128 0x7
 6760 1801 F90A0000 		.4byte	0xaf9
 6761 1805 D2010000 		.4byte	.LBI1482
 6762 1809 0100     		.2byte	.LVU630
 6763 180b D2010000 		.4byte	.LBB1482
 6764 180f 06000000 		.4byte	.LBE1482-.LBB1482
 6765 1813 2101     		.2byte	0x121
 6766 1815 07       		.byte	0x7
 6767 1816 56180000 		.4byte	0x1856
 6768 181a 01       		.uleb128 0x1
 6769 181b 2E0B0000 		.4byte	0xb2e
 6770 181f D2010000 		.4byte	.LBI1484
 6771 1823 0800     		.2byte	.LVU637
 6772 1825 D2010000 		.4byte	.LBB1484
 6773 1829 06000000 		.4byte	.LBE1484-.LBB1484
 6774 182d 02       		.byte	0x2
 6775 182e B201     		.2byte	0x1b2
 6776 1830 01       		.uleb128 0x1
 6777 1831 400B0000 		.4byte	0xb40
 6778 1835 D2010000 		.4byte	.LBI1485
 6779 1839 0A00     		.2byte	.LVU639
 6780 183b D2010000 		.4byte	.LBB1485
 6781 183f 06000000 		.4byte	.LBE1485-.LBB1485
 6782 1843 03       		.byte	0x3
 6783 1844 4103     		.2byte	0x341
 6784 1846 03       		.uleb128 0x3
 6785 1847 4D0B0000 		.4byte	0xb4d
 6786 184b A1030000 		.4byte	.LLST60
 6787 184f 9F030000 		.4byte	.LVUS60
 6788 1853 00       		.byte	0
ARM GAS  C:\Users\DEVELO~1\AppData\Local\Temp\cc5wr7T7.s 			page 121


 6789 1854 00       		.byte	0
 6790 1855 00       		.byte	0
 6791 1856 07       		.uleb128 0x7
 6792 1857 840A0000 		.4byte	0xa84
 6793 185b 4A020000 		.4byte	.LBI1487
 6794 185f 0100     		.2byte	.LVU672
 6795 1861 4A020000 		.4byte	.LBB1487
 6796 1865 04000000 		.4byte	.LBE1487-.LBB1487
 6797 1869 3801     		.2byte	0x138
 6798 186b 05       		.byte	0x5
 6799 186c C3180000 		.4byte	0x18c3
 6800 1870 01       		.uleb128 0x1
 6801 1871 250B0000 		.4byte	0xb25
 6802 1875 4A020000 		.4byte	.LBI1488
 6803 1879 0300     		.2byte	.LVU674
 6804 187b 4A020000 		.4byte	.LBB1488
 6805 187f 04000000 		.4byte	.LBE1488-.LBB1488
 6806 1883 06       		.byte	0x6
 6807 1884 3F02     		.2byte	0x23f
 6808 1886 01       		.uleb128 0x1
 6809 1887 370B0000 		.4byte	0xb37
 6810 188b 4A020000 		.4byte	.LBI1489
 6811 188f 0500     		.2byte	.LVU676
 6812 1891 4A020000 		.4byte	.LBB1489
 6813 1895 04000000 		.4byte	.LBE1489-.LBB1489
 6814 1899 02       		.byte	0x2
 6815 189a 9901     		.2byte	0x199
 6816 189c 01       		.uleb128 0x1
 6817 189d 400B0000 		.4byte	0xb40
 6818 18a1 4A020000 		.4byte	.LBI1490
 6819 18a5 0700     		.2byte	.LVU678
 6820 18a7 4A020000 		.4byte	.LBB1490
 6821 18ab 04000000 		.4byte	.LBE1490-.LBB1490
 6822 18af 03       		.byte	0x3
 6823 18b0 2E03     		.2byte	0x32e
 6824 18b2 03       		.uleb128 0x3
 6825 18b3 4D0B0000 		.4byte	0xb4d
 6826 18b7 AD030000 		.4byte	.LLST61
 6827 18bb AB030000 		.4byte	.LVUS61
 6828 18bf 00       		.byte	0
 6829 18c0 00       		.byte	0
 6830 18c1 00       		.byte	0
 6831 18c2 00       		.byte	0
 6832 18c3 19       		.uleb128 0x19
 6833 18c4 A60A0000 		.4byte	0xaa6
 6834 18c8 4E020000 		.4byte	.LBI1492
 6835 18cc 0400     		.2byte	.LVU684
 6836 18ce 9D000000 		.4byte	.LLRL62
 6837 18d2 3801     		.2byte	0x138
 6838 18d4 05       		.byte	0x5
 6839 18d5 2C190000 		.4byte	0x192c
 6840 18d9 03       		.uleb128 0x3
 6841 18da B40A0000 		.4byte	0xab4
 6842 18de BA030000 		.4byte	.LLST63
 6843 18e2 B8030000 		.4byte	.LVUS63
 6844 18e6 09       		.uleb128 0x9
 6845 18e7 DF0A0000 		.4byte	0xadf
ARM GAS  C:\Users\DEVELO~1\AppData\Local\Temp\cc5wr7T7.s 			page 122


 6846 18eb 4E020000 		.4byte	.LBI1494
 6847 18ef 0700     		.2byte	.LVU687
 6848 18f1 A9000000 		.4byte	.LLRL64
 6849 18f5 05       		.byte	0x5
 6850 18f6 AB       		.byte	0xab
 6851 18f7 0A       		.byte	0xa
 6852 18f8 0A190000 		.4byte	0x190a
 6853 18fc 03       		.uleb128 0x3
 6854 18fd ED0A0000 		.4byte	0xaed
 6855 1901 CA030000 		.4byte	.LLST65
 6856 1905 C8030000 		.4byte	.LVUS65
 6857 1909 00       		.byte	0
 6858 190a 0F       		.uleb128 0xf
 6859 190b C50A0000 		.4byte	0xac5
 6860 190f 4E020000 		.4byte	.LBI1498
 6861 1913 0A00     		.2byte	.LVU690
 6862 1915 4E020000 		.4byte	.LBB1498
 6863 1919 00000000 		.4byte	.LBE1498-.LBB1498
 6864 191d 03       		.uleb128 0x3
 6865 191e D30A0000 		.4byte	0xad3
 6866 1922 DA030000 		.4byte	.LLST66
 6867 1926 D8030000 		.4byte	.LVUS66
 6868 192a 00       		.byte	0
 6869 192b 00       		.byte	0
 6870 192c 07       		.uleb128 0x7
 6871 192d 7B0A0000 		.4byte	0xa7b
 6872 1931 68020000 		.4byte	.LBI1504
 6873 1935 0100     		.2byte	.LVU700
 6874 1937 68020000 		.4byte	.LBB1504
 6875 193b 04000000 		.4byte	.LBE1504-.LBB1504
 6876 193f 3801     		.2byte	0x138
 6877 1941 05       		.byte	0x5
 6878 1942 99190000 		.4byte	0x1999
 6879 1946 01       		.uleb128 0x1
 6880 1947 F90A0000 		.4byte	0xaf9
 6881 194b 68020000 		.4byte	.LBI1505
 6882 194f 0300     		.2byte	.LVU702
 6883 1951 68020000 		.4byte	.LBB1505
 6884 1955 04000000 		.4byte	.LBE1505-.LBB1505
 6885 1959 06       		.byte	0x6
 6886 195a 4A02     		.2byte	0x24a
 6887 195c 01       		.uleb128 0x1
 6888 195d 2E0B0000 		.4byte	0xb2e
 6889 1961 68020000 		.4byte	.LBI1507
 6890 1965 0A00     		.2byte	.LVU709
 6891 1967 68020000 		.4byte	.LBB1507
 6892 196b 04000000 		.4byte	.LBE1507-.LBB1507
 6893 196f 02       		.byte	0x2
 6894 1970 B201     		.2byte	0x1b2
 6895 1972 01       		.uleb128 0x1
 6896 1973 400B0000 		.4byte	0xb40
 6897 1977 68020000 		.4byte	.LBI1508
 6898 197b 0C00     		.2byte	.LVU711
 6899 197d 68020000 		.4byte	.LBB1508
 6900 1981 04000000 		.4byte	.LBE1508-.LBB1508
 6901 1985 03       		.byte	0x3
 6902 1986 4103     		.2byte	0x341
ARM GAS  C:\Users\DEVELO~1\AppData\Local\Temp\cc5wr7T7.s 			page 123


 6903 1988 03       		.uleb128 0x3
 6904 1989 4D0B0000 		.4byte	0xb4d
 6905 198d EA030000 		.4byte	.LLST67
 6906 1991 E8030000 		.4byte	.LVUS67
 6907 1995 00       		.byte	0
 6908 1996 00       		.byte	0
 6909 1997 00       		.byte	0
 6910 1998 00       		.byte	0
 6911 1999 07       		.uleb128 0x7
 6912 199a 840A0000 		.4byte	0xa84
 6913 199e 6C020000 		.4byte	.LBI1510
 6914 19a2 0300     		.2byte	.LVU716
 6915 19a4 6C020000 		.4byte	.LBB1510
 6916 19a8 04000000 		.4byte	.LBE1510-.LBB1510
 6917 19ac 3901     		.2byte	0x139
 6918 19ae 05       		.byte	0x5
 6919 19af 061A0000 		.4byte	0x1a06
 6920 19b3 01       		.uleb128 0x1
 6921 19b4 250B0000 		.4byte	0xb25
 6922 19b8 6C020000 		.4byte	.LBI1511
 6923 19bc 0500     		.2byte	.LVU718
 6924 19be 6C020000 		.4byte	.LBB1511
 6925 19c2 04000000 		.4byte	.LBE1511-.LBB1511
 6926 19c6 06       		.byte	0x6
 6927 19c7 3F02     		.2byte	0x23f
 6928 19c9 01       		.uleb128 0x1
 6929 19ca 370B0000 		.4byte	0xb37
 6930 19ce 6C020000 		.4byte	.LBI1512
 6931 19d2 0700     		.2byte	.LVU720
 6932 19d4 6C020000 		.4byte	.LBB1512
 6933 19d8 04000000 		.4byte	.LBE1512-.LBB1512
 6934 19dc 02       		.byte	0x2
 6935 19dd 9901     		.2byte	0x199
 6936 19df 01       		.uleb128 0x1
 6937 19e0 400B0000 		.4byte	0xb40
 6938 19e4 6C020000 		.4byte	.LBI1513
 6939 19e8 0900     		.2byte	.LVU722
 6940 19ea 6C020000 		.4byte	.LBB1513
 6941 19ee 04000000 		.4byte	.LBE1513-.LBB1513
 6942 19f2 03       		.byte	0x3
 6943 19f3 2E03     		.2byte	0x32e
 6944 19f5 03       		.uleb128 0x3
 6945 19f6 4D0B0000 		.4byte	0xb4d
 6946 19fa F6030000 		.4byte	.LLST68
 6947 19fe F4030000 		.4byte	.LVUS68
 6948 1a02 00       		.byte	0
 6949 1a03 00       		.byte	0
 6950 1a04 00       		.byte	0
 6951 1a05 00       		.byte	0
 6952 1a06 07       		.uleb128 0x7
 6953 1a07 C50A0000 		.4byte	0xac5
 6954 1a0b 70020000 		.4byte	.LBI1515
 6955 1a0f 0400     		.2byte	.LVU728
 6956 1a11 70020000 		.4byte	.LBB1515
 6957 1a15 00000000 		.4byte	.LBE1515-.LBB1515
 6958 1a19 3901     		.2byte	0x139
 6959 1a1b 05       		.byte	0x5
ARM GAS  C:\Users\DEVELO~1\AppData\Local\Temp\cc5wr7T7.s 			page 124


 6960 1a1c 2E1A0000 		.4byte	0x1a2e
 6961 1a20 03       		.uleb128 0x3
 6962 1a21 D30A0000 		.4byte	0xad3
 6963 1a25 03040000 		.4byte	.LLST69
 6964 1a29 01040000 		.4byte	.LVUS69
 6965 1a2d 00       		.byte	0
 6966 1a2e 07       		.uleb128 0x7
 6967 1a2f 7B0A0000 		.4byte	0xa7b
 6968 1a33 80020000 		.4byte	.LBI1517
 6969 1a37 0100     		.2byte	.LVU734
 6970 1a39 80020000 		.4byte	.LBB1517
 6971 1a3d 04000000 		.4byte	.LBE1517-.LBB1517
 6972 1a41 3901     		.2byte	0x139
 6973 1a43 05       		.byte	0x5
 6974 1a44 9B1A0000 		.4byte	0x1a9b
 6975 1a48 01       		.uleb128 0x1
 6976 1a49 F90A0000 		.4byte	0xaf9
 6977 1a4d 80020000 		.4byte	.LBI1518
 6978 1a51 0300     		.2byte	.LVU736
 6979 1a53 80020000 		.4byte	.LBB1518
 6980 1a57 04000000 		.4byte	.LBE1518-.LBB1518
 6981 1a5b 06       		.byte	0x6
 6982 1a5c 4A02     		.2byte	0x24a
 6983 1a5e 01       		.uleb128 0x1
 6984 1a5f 2E0B0000 		.4byte	0xb2e
 6985 1a63 80020000 		.4byte	.LBI1520
 6986 1a67 0A00     		.2byte	.LVU743
 6987 1a69 80020000 		.4byte	.LBB1520
 6988 1a6d 04000000 		.4byte	.LBE1520-.LBB1520
 6989 1a71 02       		.byte	0x2
 6990 1a72 B201     		.2byte	0x1b2
 6991 1a74 01       		.uleb128 0x1
 6992 1a75 400B0000 		.4byte	0xb40
 6993 1a79 80020000 		.4byte	.LBI1521
 6994 1a7d 0C00     		.2byte	.LVU745
 6995 1a7f 80020000 		.4byte	.LBB1521
 6996 1a83 04000000 		.4byte	.LBE1521-.LBB1521
 6997 1a87 03       		.byte	0x3
 6998 1a88 4103     		.2byte	0x341
 6999 1a8a 03       		.uleb128 0x3
 7000 1a8b 4D0B0000 		.4byte	0xb4d
 7001 1a8f 13040000 		.4byte	.LLST70
 7002 1a93 11040000 		.4byte	.LVUS70
 7003 1a97 00       		.byte	0
 7004 1a98 00       		.byte	0
 7005 1a99 00       		.byte	0
 7006 1a9a 00       		.byte	0
 7007 1a9b 07       		.uleb128 0x7
 7008 1a9c 7B0A0000 		.4byte	0xa7b
 7009 1aa0 AC020000 		.4byte	.LBI1523
 7010 1aa4 0100     		.2byte	.LVU755
 7011 1aa6 AC020000 		.4byte	.LBB1523
 7012 1aaa 04000000 		.4byte	.LBE1523-.LBB1523
 7013 1aae 3901     		.2byte	0x139
 7014 1ab0 05       		.byte	0x5
 7015 1ab1 081B0000 		.4byte	0x1b08
 7016 1ab5 01       		.uleb128 0x1
ARM GAS  C:\Users\DEVELO~1\AppData\Local\Temp\cc5wr7T7.s 			page 125


 7017 1ab6 F90A0000 		.4byte	0xaf9
 7018 1aba AC020000 		.4byte	.LBI1524
 7019 1abe 0300     		.2byte	.LVU757
 7020 1ac0 AC020000 		.4byte	.LBB1524
 7021 1ac4 04000000 		.4byte	.LBE1524-.LBB1524
 7022 1ac8 06       		.byte	0x6
 7023 1ac9 4A02     		.2byte	0x24a
 7024 1acb 01       		.uleb128 0x1
 7025 1acc 2E0B0000 		.4byte	0xb2e
 7026 1ad0 AC020000 		.4byte	.LBI1526
 7027 1ad4 0A00     		.2byte	.LVU764
 7028 1ad6 AC020000 		.4byte	.LBB1526
 7029 1ada 04000000 		.4byte	.LBE1526-.LBB1526
 7030 1ade 02       		.byte	0x2
 7031 1adf B201     		.2byte	0x1b2
 7032 1ae1 01       		.uleb128 0x1
 7033 1ae2 400B0000 		.4byte	0xb40
 7034 1ae6 AC020000 		.4byte	.LBI1527
 7035 1aea 0C00     		.2byte	.LVU766
 7036 1aec AC020000 		.4byte	.LBB1527
 7037 1af0 04000000 		.4byte	.LBE1527-.LBB1527
 7038 1af4 03       		.byte	0x3
 7039 1af5 4103     		.2byte	0x341
 7040 1af7 03       		.uleb128 0x3
 7041 1af8 4D0B0000 		.4byte	0xb4d
 7042 1afc 1F040000 		.4byte	.LLST71
 7043 1b00 1D040000 		.4byte	.LVUS71
 7044 1b04 00       		.byte	0
 7045 1b05 00       		.byte	0
 7046 1b06 00       		.byte	0
 7047 1b07 00       		.byte	0
 7048 1b08 04       		.uleb128 0x4
 7049 1b09 52000000 		.4byte	.LVL51
 7050 1b0d 12050000 		.4byte	0x512
 7051 1b11 1C1B0000 		.4byte	0x1b1c
 7052 1b15 02       		.uleb128 0x2
 7053 1b16 01       		.uleb128 0x1
 7054 1b17 50       		.byte	0x50
 7055 1b18 02       		.uleb128 0x2
 7056 1b19 74       		.byte	0x74
 7057 1b1a 00       		.sleb128 0
 7058 1b1b 00       		.byte	0
 7059 1b1c 04       		.uleb128 0x4
 7060 1b1d 76000000 		.4byte	.LVL54
 7061 1b21 D8050000 		.4byte	0x5d8
 7062 1b25 331B0000 		.4byte	0x1b33
 7063 1b29 02       		.uleb128 0x2
 7064 1b2a 01       		.uleb128 0x1
 7065 1b2b 51       		.byte	0x51
 7066 1b2c 05       		.uleb128 0x5
 7067 1b2d 03       		.byte	0x3
 7068 1b2e 0C000000 		.4byte	.LC2
 7069 1b32 00       		.byte	0
 7070 1b33 04       		.uleb128 0x4
 7071 1b34 90000000 		.4byte	.LVL58
 7072 1b38 D8050000 		.4byte	0x5d8
 7073 1b3c 4A1B0000 		.4byte	0x1b4a
ARM GAS  C:\Users\DEVELO~1\AppData\Local\Temp\cc5wr7T7.s 			page 126


 7074 1b40 02       		.uleb128 0x2
 7075 1b41 01       		.uleb128 0x1
 7076 1b42 51       		.byte	0x51
 7077 1b43 05       		.uleb128 0x5
 7078 1b44 03       		.byte	0x3
 7079 1b45 18000000 		.4byte	.LC3
 7080 1b49 00       		.byte	0
 7081 1b4a 04       		.uleb128 0x4
 7082 1b4b C2000000 		.4byte	.LVL66
 7083 1b4f D8050000 		.4byte	0x5d8
 7084 1b53 611B0000 		.4byte	0x1b61
 7085 1b57 02       		.uleb128 0x2
 7086 1b58 01       		.uleb128 0x1
 7087 1b59 51       		.byte	0x51
 7088 1b5a 05       		.uleb128 0x5
 7089 1b5b 03       		.byte	0x3
 7090 1b5c 24000000 		.4byte	.LC4
 7091 1b60 00       		.byte	0
 7092 1b61 04       		.uleb128 0x4
 7093 1b62 E2000000 		.4byte	.LVL70
 7094 1b66 D8050000 		.4byte	0x5d8
 7095 1b6a 781B0000 		.4byte	0x1b78
 7096 1b6e 02       		.uleb128 0x2
 7097 1b6f 01       		.uleb128 0x1
 7098 1b70 51       		.byte	0x51
 7099 1b71 05       		.uleb128 0x5
 7100 1b72 03       		.byte	0x3
 7101 1b73 48000000 		.4byte	.LC5
 7102 1b77 00       		.byte	0
 7103 1b78 04       		.uleb128 0x4
 7104 1b79 04010000 		.4byte	.LVL76
 7105 1b7d BF050000 		.4byte	0x5bf
 7106 1b81 921B0000 		.4byte	0x1b92
 7107 1b85 02       		.uleb128 0x2
 7108 1b86 01       		.uleb128 0x1
 7109 1b87 50       		.byte	0x50
 7110 1b88 02       		.uleb128 0x2
 7111 1b89 74       		.byte	0x74
 7112 1b8a 00       		.sleb128 0
 7113 1b8b 02       		.uleb128 0x2
 7114 1b8c 01       		.uleb128 0x1
 7115 1b8d 51       		.byte	0x51
 7116 1b8e 02       		.uleb128 0x2
 7117 1b8f 78       		.byte	0x78
 7118 1b90 00       		.sleb128 0
 7119 1b91 00       		.byte	0
 7120 1b92 04       		.uleb128 0x4
 7121 1b93 1A010000 		.4byte	.LVL80
 7122 1b97 D8050000 		.4byte	0x5d8
 7123 1b9b A61B0000 		.4byte	0x1ba6
 7124 1b9f 02       		.uleb128 0x2
 7125 1ba0 01       		.uleb128 0x1
 7126 1ba1 51       		.byte	0x51
 7127 1ba2 02       		.uleb128 0x2
 7128 1ba3 79       		.byte	0x79
 7129 1ba4 00       		.sleb128 0
 7130 1ba5 00       		.byte	0
ARM GAS  C:\Users\DEVELO~1\AppData\Local\Temp\cc5wr7T7.s 			page 127


 7131 1ba6 04       		.uleb128 0x4
 7132 1ba7 32010000 		.4byte	.LVL83
 7133 1bab 88050000 		.4byte	0x588
 7134 1baf C01B0000 		.4byte	0x1bc0
 7135 1bb3 02       		.uleb128 0x2
 7136 1bb4 01       		.uleb128 0x1
 7137 1bb5 50       		.byte	0x50
 7138 1bb6 02       		.uleb128 0x2
 7139 1bb7 74       		.byte	0x74
 7140 1bb8 00       		.sleb128 0
 7141 1bb9 02       		.uleb128 0x2
 7142 1bba 01       		.uleb128 0x1
 7143 1bbb 51       		.byte	0x51
 7144 1bbc 02       		.uleb128 0x2
 7145 1bbd 08       		.byte	0x8
 7146 1bbe 41       		.byte	0x41
 7147 1bbf 00       		.byte	0
 7148 1bc0 04       		.uleb128 0x4
 7149 1bc1 42010000 		.4byte	.LVL86
 7150 1bc5 D8050000 		.4byte	0x5d8
 7151 1bc9 D41B0000 		.4byte	0x1bd4
 7152 1bcd 02       		.uleb128 0x2
 7153 1bce 01       		.uleb128 0x1
 7154 1bcf 51       		.byte	0x51
 7155 1bd0 02       		.uleb128 0x2
 7156 1bd1 79       		.byte	0x79
 7157 1bd2 00       		.sleb128 0
 7158 1bd3 00       		.byte	0
 7159 1bd4 04       		.uleb128 0x4
 7160 1bd5 6E010000 		.4byte	.LVL89
 7161 1bd9 D8050000 		.4byte	0x5d8
 7162 1bdd EB1B0000 		.4byte	0x1beb
 7163 1be1 02       		.uleb128 0x2
 7164 1be2 01       		.uleb128 0x1
 7165 1be3 51       		.byte	0x51
 7166 1be4 05       		.uleb128 0x5
 7167 1be5 03       		.byte	0x3
 7168 1be6 6C000000 		.4byte	.LC6
 7169 1bea 00       		.byte	0
 7170 1beb 04       		.uleb128 0x4
 7171 1bec 8E010000 		.4byte	.LVL93
 7172 1bf0 D8050000 		.4byte	0x5d8
 7173 1bf4 021C0000 		.4byte	0x1c02
 7174 1bf8 02       		.uleb128 0x2
 7175 1bf9 01       		.uleb128 0x1
 7176 1bfa 51       		.byte	0x51
 7177 1bfb 05       		.uleb128 0x5
 7178 1bfc 03       		.byte	0x3
 7179 1bfd 78000000 		.4byte	.LC7
 7180 1c01 00       		.byte	0
 7181 1c02 04       		.uleb128 0x4
 7182 1c03 B0010000 		.4byte	.LVL97
 7183 1c07 D8050000 		.4byte	0x5d8
 7184 1c0b 191C0000 		.4byte	0x1c19
 7185 1c0f 02       		.uleb128 0x2
 7186 1c10 01       		.uleb128 0x1
 7187 1c11 51       		.byte	0x51
ARM GAS  C:\Users\DEVELO~1\AppData\Local\Temp\cc5wr7T7.s 			page 128


 7188 1c12 05       		.uleb128 0x5
 7189 1c13 03       		.byte	0x3
 7190 1c14 84000000 		.4byte	.LC8
 7191 1c18 00       		.byte	0
 7192 1c19 04       		.uleb128 0x4
 7193 1c1a D2010000 		.4byte	.LVL102
 7194 1c1e 41050000 		.4byte	0x541
 7195 1c22 331C0000 		.4byte	0x1c33
 7196 1c26 02       		.uleb128 0x2
 7197 1c27 01       		.uleb128 0x1
 7198 1c28 50       		.byte	0x50
 7199 1c29 02       		.uleb128 0x2
 7200 1c2a 74       		.byte	0x74
 7201 1c2b 00       		.sleb128 0
 7202 1c2c 02       		.uleb128 0x2
 7203 1c2d 01       		.uleb128 0x1
 7204 1c2e 51       		.byte	0x51
 7205 1c2f 02       		.uleb128 0x2
 7206 1c30 91       		.byte	0x91
 7207 1c31 5C       		.sleb128 -36
 7208 1c32 00       		.byte	0
 7209 1c33 04       		.uleb128 0x4
 7210 1c34 E4010000 		.4byte	.LVL105
 7211 1c38 D8050000 		.4byte	0x5d8
 7212 1c3c 471C0000 		.4byte	0x1c47
 7213 1c40 02       		.uleb128 0x2
 7214 1c41 01       		.uleb128 0x1
 7215 1c42 51       		.byte	0x51
 7216 1c43 02       		.uleb128 0x2
 7217 1c44 76       		.byte	0x76
 7218 1c45 00       		.sleb128 0
 7219 1c46 00       		.byte	0
 7220 1c47 2D       		.uleb128 0x2d
 7221 1c48 F2010000 		.4byte	.LVL106
 7222 1c4c FF040000 		.4byte	0x4ff
 7223 1c50 04       		.uleb128 0x4
 7224 1c51 00020000 		.4byte	.LVL108
 7225 1c55 E5040000 		.4byte	0x4e5
 7226 1c59 701C0000 		.4byte	0x1c70
 7227 1c5d 02       		.uleb128 0x2
 7228 1c5e 01       		.uleb128 0x1
 7229 1c5f 50       		.byte	0x50
 7230 1c60 05       		.uleb128 0x5
 7231 1c61 03       		.byte	0x3
 7232 1c62 B0000000 		.4byte	.LC10
 7233 1c66 02       		.uleb128 0x2
 7234 1c67 01       		.uleb128 0x1
 7235 1c68 51       		.byte	0x51
 7236 1c69 05       		.uleb128 0x5
 7237 1c6a 03       		.byte	0x3
 7238 1c6b 9C000000 		.4byte	.LC9
 7239 1c6f 00       		.byte	0
 7240 1c70 04       		.uleb128 0x4
 7241 1c71 16020000 		.4byte	.LVL109
 7242 1c75 F2050000 		.4byte	0x5f2
 7243 1c79 901C0000 		.4byte	0x1c90
 7244 1c7d 02       		.uleb128 0x2
ARM GAS  C:\Users\DEVELO~1\AppData\Local\Temp\cc5wr7T7.s 			page 129


 7245 1c7e 01       		.uleb128 0x1
 7246 1c7f 50       		.byte	0x50
 7247 1c80 02       		.uleb128 0x2
 7248 1c81 74       		.byte	0x74
 7249 1c82 00       		.sleb128 0
 7250 1c83 02       		.uleb128 0x2
 7251 1c84 01       		.uleb128 0x1
 7252 1c85 51       		.byte	0x51
 7253 1c86 02       		.uleb128 0x2
 7254 1c87 08       		.byte	0x8
 7255 1c88 46       		.byte	0x46
 7256 1c89 02       		.uleb128 0x2
 7257 1c8a 01       		.uleb128 0x1
 7258 1c8b 52       		.byte	0x52
 7259 1c8c 02       		.uleb128 0x2
 7260 1c8d 09       		.byte	0x9
 7261 1c8e FF       		.byte	0xff
 7262 1c8f 00       		.byte	0
 7263 1c90 04       		.uleb128 0x4
 7264 1c91 22020000 		.4byte	.LVL111
 7265 1c95 D8050000 		.4byte	0x5d8
 7266 1c99 A41C0000 		.4byte	0x1ca4
 7267 1c9d 02       		.uleb128 0x2
 7268 1c9e 01       		.uleb128 0x1
 7269 1c9f 51       		.byte	0x51
 7270 1ca0 02       		.uleb128 0x2
 7271 1ca1 76       		.byte	0x76
 7272 1ca2 00       		.sleb128 0
 7273 1ca3 00       		.byte	0
 7274 1ca4 04       		.uleb128 0x4
 7275 1ca5 34020000 		.4byte	.LVL112
 7276 1ca9 5A050000 		.4byte	0x55a
 7277 1cad C41C0000 		.4byte	0x1cc4
 7278 1cb1 02       		.uleb128 0x2
 7279 1cb2 01       		.uleb128 0x1
 7280 1cb3 50       		.byte	0x50
 7281 1cb4 02       		.uleb128 0x2
 7282 1cb5 74       		.byte	0x74
 7283 1cb6 00       		.sleb128 0
 7284 1cb7 02       		.uleb128 0x2
 7285 1cb8 01       		.uleb128 0x1
 7286 1cb9 51       		.byte	0x51
 7287 1cba 02       		.uleb128 0x2
 7288 1cbb 91       		.byte	0x91
 7289 1cbc 5C       		.sleb128 -36
 7290 1cbd 02       		.uleb128 0x2
 7291 1cbe 01       		.uleb128 0x1
 7292 1cbf 52       		.byte	0x52
 7293 1cc0 02       		.uleb128 0x2
 7294 1cc1 09       		.byte	0x9
 7295 1cc2 FF       		.byte	0xff
 7296 1cc3 00       		.byte	0
 7297 1cc4 04       		.uleb128 0x4
 7298 1cc5 40020000 		.4byte	.LVL114
 7299 1cc9 D8050000 		.4byte	0x5d8
 7300 1ccd D81C0000 		.4byte	0x1cd8
 7301 1cd1 02       		.uleb128 0x2
ARM GAS  C:\Users\DEVELO~1\AppData\Local\Temp\cc5wr7T7.s 			page 130


 7302 1cd2 01       		.uleb128 0x1
 7303 1cd3 51       		.byte	0x51
 7304 1cd4 02       		.uleb128 0x2
 7305 1cd5 76       		.byte	0x76
 7306 1cd6 00       		.sleb128 0
 7307 1cd7 00       		.byte	0
 7308 1cd8 04       		.uleb128 0x4
 7309 1cd9 66020000 		.4byte	.LVL117
 7310 1cdd D8050000 		.4byte	0x5d8
 7311 1ce1 F71C0000 		.4byte	0x1cf7
 7312 1ce5 02       		.uleb128 0x2
 7313 1ce6 01       		.uleb128 0x1
 7314 1ce7 50       		.byte	0x50
 7315 1ce8 04       		.uleb128 0x4
 7316 1ce9 76       		.byte	0x76
 7317 1cea 00       		.sleb128 0
 7318 1ceb 30       		.byte	0x30
 7319 1cec 29       		.byte	0x29
 7320 1ced 02       		.uleb128 0x2
 7321 1cee 01       		.uleb128 0x1
 7322 1cef 51       		.byte	0x51
 7323 1cf0 05       		.uleb128 0x5
 7324 1cf1 03       		.byte	0x3
 7325 1cf2 0C000000 		.4byte	.LC2
 7326 1cf6 00       		.byte	0
 7327 1cf7 04       		.uleb128 0x4
 7328 1cf8 7E020000 		.4byte	.LVL121
 7329 1cfc D8050000 		.4byte	0x5d8
 7330 1d00 0E1D0000 		.4byte	0x1d0e
 7331 1d04 02       		.uleb128 0x2
 7332 1d05 01       		.uleb128 0x1
 7333 1d06 51       		.byte	0x51
 7334 1d07 05       		.uleb128 0x5
 7335 1d08 03       		.byte	0x3
 7336 1d09 18000000 		.4byte	.LC3
 7337 1d0d 00       		.byte	0
 7338 1d0e 04       		.uleb128 0x4
 7339 1d0f 94020000 		.4byte	.LVL124
 7340 1d13 D8050000 		.4byte	0x5d8
 7341 1d17 251D0000 		.4byte	0x1d25
 7342 1d1b 02       		.uleb128 0x2
 7343 1d1c 01       		.uleb128 0x1
 7344 1d1d 51       		.byte	0x51
 7345 1d1e 05       		.uleb128 0x5
 7346 1d1f 03       		.byte	0x3
 7347 1d20 24000000 		.4byte	.LC4
 7348 1d24 00       		.byte	0
 7349 1d25 15       		.uleb128 0x15
 7350 1d26 AA020000 		.4byte	.LVL125
 7351 1d2a D8050000 		.4byte	0x5d8
 7352 1d2e 02       		.uleb128 0x2
 7353 1d2f 01       		.uleb128 0x1
 7354 1d30 51       		.byte	0x51
 7355 1d31 05       		.uleb128 0x5
 7356 1d32 03       		.byte	0x3
 7357 1d33 48000000 		.4byte	.LC5
 7358 1d37 00       		.byte	0
ARM GAS  C:\Users\DEVELO~1\AppData\Local\Temp\cc5wr7T7.s 			page 131


 7359 1d38 00       		.byte	0
 7360 1d39 00       		.byte	0
 7361 1d3a 15       		.uleb128 0x15
 7362 1d3b 30000000 		.4byte	.LVL44
 7363 1d3f D8050000 		.4byte	0x5d8
 7364 1d43 02       		.uleb128 0x2
 7365 1d44 01       		.uleb128 0x1
 7366 1d45 51       		.byte	0x51
 7367 1d46 05       		.uleb128 0x5
 7368 1d47 03       		.byte	0x3
 7369 1d48 00000000 		.4byte	.LC1
 7370 1d4c 00       		.byte	0
 7371 1d4d 00       		.byte	0
 7372 1d4e 3D       		.uleb128 0x3d
 7373 1d4f 430A0000 		.4byte	0xa43
 7374 1d53 00000000 		.4byte	.LFB437
 7375 1d57 38030000 		.4byte	.LFE437-.LFB437
 7376 1d5b 01       		.uleb128 0x1
 7377 1d5c 9C       		.byte	0x9c
 7378 1d5d 12       		.uleb128 0x12
 7379 1d5e 500A0000 		.4byte	0xa50
 7380 1d62 12       		.uleb128 0x12
 7381 1d63 5B0A0000 		.4byte	0xa5b
 7382 1d67 12       		.uleb128 0x12
 7383 1d68 660A0000 		.4byte	0xa66
 7384 1d6c 09       		.uleb128 0x9
 7385 1d6d 840A0000 		.4byte	0xa84
 7386 1d71 0E000000 		.4byte	.LBI1754
 7387 1d75 0100     		.2byte	.LVU780
 7388 1d77 B8000000 		.4byte	.LLRL72
 7389 1d7b 01       		.byte	0x1
 7390 1d7c 65       		.byte	0x65
 7391 1d7d 05       		.byte	0x5
 7392 1d7e C91D0000 		.4byte	0x1dc9
 7393 1d82 0D       		.uleb128 0xd
 7394 1d83 250B0000 		.4byte	0xb25
 7395 1d87 0E000000 		.4byte	.LBI1755
 7396 1d8b 0300     		.2byte	.LVU782
 7397 1d8d B8000000 		.4byte	.LLRL72
 7398 1d91 06       		.byte	0x6
 7399 1d92 3F02     		.2byte	0x23f
 7400 1d94 0D       		.uleb128 0xd
 7401 1d95 370B0000 		.4byte	0xb37
 7402 1d99 0E000000 		.4byte	.LBI1756
 7403 1d9d 0500     		.2byte	.LVU784
 7404 1d9f B8000000 		.4byte	.LLRL72
 7405 1da3 02       		.byte	0x2
 7406 1da4 9901     		.2byte	0x199
 7407 1da6 0D       		.uleb128 0xd
 7408 1da7 400B0000 		.4byte	0xb40
 7409 1dab 0E000000 		.4byte	.LBI1757
 7410 1daf 0700     		.2byte	.LVU786
 7411 1db1 B8000000 		.4byte	.LLRL72
 7412 1db5 03       		.byte	0x3
 7413 1db6 2E03     		.2byte	0x32e
 7414 1db8 03       		.uleb128 0x3
 7415 1db9 4D0B0000 		.4byte	0xb4d
ARM GAS  C:\Users\DEVELO~1\AppData\Local\Temp\cc5wr7T7.s 			page 132


 7416 1dbd 2B040000 		.4byte	.LLST73
 7417 1dc1 29040000 		.4byte	.LVUS73
 7418 1dc5 00       		.byte	0
 7419 1dc6 00       		.byte	0
 7420 1dc7 00       		.byte	0
 7421 1dc8 00       		.byte	0
 7422 1dc9 09       		.uleb128 0x9
 7423 1dca A60A0000 		.4byte	0xaa6
 7424 1dce 12000000 		.4byte	.LBI1764
 7425 1dd2 0400     		.2byte	.LVU792
 7426 1dd4 C4000000 		.4byte	.LLRL74
 7427 1dd8 01       		.byte	0x1
 7428 1dd9 65       		.byte	0x65
 7429 1dda 05       		.byte	0x5
 7430 1ddb 321E0000 		.4byte	0x1e32
 7431 1ddf 03       		.uleb128 0x3
 7432 1de0 B40A0000 		.4byte	0xab4
 7433 1de4 38040000 		.4byte	.LLST75
 7434 1de8 36040000 		.4byte	.LVUS75
 7435 1dec 09       		.uleb128 0x9
 7436 1ded DF0A0000 		.4byte	0xadf
 7437 1df1 12000000 		.4byte	.LBI1766
 7438 1df5 0700     		.2byte	.LVU795
 7439 1df7 D0000000 		.4byte	.LLRL76
 7440 1dfb 05       		.byte	0x5
 7441 1dfc AB       		.byte	0xab
 7442 1dfd 0A       		.byte	0xa
 7443 1dfe 101E0000 		.4byte	0x1e10
 7444 1e02 03       		.uleb128 0x3
 7445 1e03 ED0A0000 		.4byte	0xaed
 7446 1e07 48040000 		.4byte	.LLST77
 7447 1e0b 46040000 		.4byte	.LVUS77
 7448 1e0f 00       		.byte	0
 7449 1e10 0F       		.uleb128 0xf
 7450 1e11 C50A0000 		.4byte	0xac5
 7451 1e15 12000000 		.4byte	.LBI1770
 7452 1e19 0A00     		.2byte	.LVU798
 7453 1e1b 12000000 		.4byte	.LBB1770
 7454 1e1f 00000000 		.4byte	.LBE1770-.LBB1770
 7455 1e23 03       		.uleb128 0x3
 7456 1e24 D30A0000 		.4byte	0xad3
 7457 1e28 58040000 		.4byte	.LLST78
 7458 1e2c 56040000 		.4byte	.LVUS78
 7459 1e30 00       		.byte	0
 7460 1e31 00       		.byte	0
 7461 1e32 05       		.uleb128 0x5
 7462 1e33 7B0A0000 		.4byte	0xa7b
 7463 1e37 32000000 		.4byte	.LBI1776
 7464 1e3b 0100     		.2byte	.LVU809
 7465 1e3d 32000000 		.4byte	.LBB1776
 7466 1e41 06000000 		.4byte	.LBE1776-.LBB1776
 7467 1e45 65       		.byte	0x65
 7468 1e46 9D1E0000 		.4byte	0x1e9d
 7469 1e4a 01       		.uleb128 0x1
 7470 1e4b F90A0000 		.4byte	0xaf9
 7471 1e4f 32000000 		.4byte	.LBI1777
 7472 1e53 0300     		.2byte	.LVU811
ARM GAS  C:\Users\DEVELO~1\AppData\Local\Temp\cc5wr7T7.s 			page 133


 7473 1e55 32000000 		.4byte	.LBB1777
 7474 1e59 06000000 		.4byte	.LBE1777-.LBB1777
 7475 1e5d 06       		.byte	0x6
 7476 1e5e 4A02     		.2byte	0x24a
 7477 1e60 01       		.uleb128 0x1
 7478 1e61 2E0B0000 		.4byte	0xb2e
 7479 1e65 32000000 		.4byte	.LBI1779
 7480 1e69 0A00     		.2byte	.LVU818
 7481 1e6b 32000000 		.4byte	.LBB1779
 7482 1e6f 06000000 		.4byte	.LBE1779-.LBB1779
 7483 1e73 02       		.byte	0x2
 7484 1e74 B201     		.2byte	0x1b2
 7485 1e76 01       		.uleb128 0x1
 7486 1e77 400B0000 		.4byte	0xb40
 7487 1e7b 32000000 		.4byte	.LBI1780
 7488 1e7f 0C00     		.2byte	.LVU820
 7489 1e81 32000000 		.4byte	.LBB1780
 7490 1e85 06000000 		.4byte	.LBE1780-.LBB1780
 7491 1e89 03       		.byte	0x3
 7492 1e8a 4103     		.2byte	0x341
 7493 1e8c 03       		.uleb128 0x3
 7494 1e8d 4D0B0000 		.4byte	0xb4d
 7495 1e91 68040000 		.4byte	.LLST79
 7496 1e95 66040000 		.4byte	.LVUS79
 7497 1e99 00       		.byte	0
 7498 1e9a 00       		.byte	0
 7499 1e9b 00       		.byte	0
 7500 1e9c 00       		.byte	0
 7501 1e9d 09       		.uleb128 0x9
 7502 1e9e 430A0000 		.4byte	0xa43
 7503 1ea2 3E000000 		.4byte	.LBI1782
 7504 1ea6 0000     		.2byte	.LVU825
 7505 1ea8 DF000000 		.4byte	.LLRL80
 7506 1eac 01       		.byte	0x1
 7507 1ead 5E       		.byte	0x5e
 7508 1eae 0D       		.byte	0xd
 7509 1eaf B82C0000 		.4byte	0x2cb8
 7510 1eb3 2B       		.uleb128 0x2b
 7511 1eb4 DF000000 		.4byte	.LLRL80
 7512 1eb8 1C       		.uleb128 0x1c
 7513 1eb9 500A0000 		.4byte	0xa50
 7514 1ebd 88040000 		.4byte	.LLST81
 7515 1ec1 72040000 		.4byte	.LVUS81
 7516 1ec5 2C       		.uleb128 0x2c
 7517 1ec6 5B0A0000 		.4byte	0xa5b
 7518 1eca 02       		.uleb128 0x2
 7519 1ecb 91       		.byte	0x91
 7520 1ecc 64       		.sleb128 -28
 7521 1ecd 1C       		.uleb128 0x1c
 7522 1ece 660A0000 		.4byte	0xa66
 7523 1ed2 E3040000 		.4byte	.LLST82
 7524 1ed6 D3040000 		.4byte	.LVUS82
 7525 1eda 05       		.uleb128 0x5
 7526 1edb 7B0A0000 		.4byte	0xa7b
 7527 1edf 3E000000 		.4byte	.LBI1784
 7528 1ee3 0200     		.2byte	.LVU827
 7529 1ee5 3E000000 		.4byte	.LBB1784
ARM GAS  C:\Users\DEVELO~1\AppData\Local\Temp\cc5wr7T7.s 			page 134


 7530 1ee9 06000000 		.4byte	.LBE1784-.LBB1784
 7531 1eed 65       		.byte	0x65
 7532 1eee 451F0000 		.4byte	0x1f45
 7533 1ef2 01       		.uleb128 0x1
 7534 1ef3 F90A0000 		.4byte	0xaf9
 7535 1ef7 3E000000 		.4byte	.LBI1785
 7536 1efb 0400     		.2byte	.LVU829
 7537 1efd 3E000000 		.4byte	.LBB1785
 7538 1f01 06000000 		.4byte	.LBE1785-.LBB1785
 7539 1f05 06       		.byte	0x6
 7540 1f06 4A02     		.2byte	0x24a
 7541 1f08 01       		.uleb128 0x1
 7542 1f09 2E0B0000 		.4byte	0xb2e
 7543 1f0d 3E000000 		.4byte	.LBI1787
 7544 1f11 0B00     		.2byte	.LVU836
 7545 1f13 3E000000 		.4byte	.LBB1787
 7546 1f17 06000000 		.4byte	.LBE1787-.LBB1787
 7547 1f1b 02       		.byte	0x2
 7548 1f1c B201     		.2byte	0x1b2
 7549 1f1e 01       		.uleb128 0x1
 7550 1f1f 400B0000 		.4byte	0xb40
 7551 1f23 3E000000 		.4byte	.LBI1788
 7552 1f27 0D00     		.2byte	.LVU838
 7553 1f29 3E000000 		.4byte	.LBB1788
 7554 1f2d 06000000 		.4byte	.LBE1788-.LBB1788
 7555 1f31 03       		.byte	0x3
 7556 1f32 4103     		.2byte	0x341
 7557 1f34 03       		.uleb128 0x3
 7558 1f35 4D0B0000 		.4byte	0xb4d
 7559 1f39 32050000 		.4byte	.LLST83
 7560 1f3d 30050000 		.4byte	.LVUS83
 7561 1f41 00       		.byte	0
 7562 1f42 00       		.byte	0
 7563 1f43 00       		.byte	0
 7564 1f44 00       		.byte	0
 7565 1f45 05       		.uleb128 0x5
 7566 1f46 840A0000 		.4byte	0xa84
 7567 1f4a 4E000000 		.4byte	.LBI1790
 7568 1f4e 0100     		.2byte	.LVU849
 7569 1f50 4E000000 		.4byte	.LBB1790
 7570 1f54 04000000 		.4byte	.LBE1790-.LBB1790
 7571 1f58 6E       		.byte	0x6e
 7572 1f59 B01F0000 		.4byte	0x1fb0
 7573 1f5d 01       		.uleb128 0x1
 7574 1f5e 250B0000 		.4byte	0xb25
 7575 1f62 4E000000 		.4byte	.LBI1791
 7576 1f66 0300     		.2byte	.LVU851
 7577 1f68 4E000000 		.4byte	.LBB1791
 7578 1f6c 04000000 		.4byte	.LBE1791-.LBB1791
 7579 1f70 06       		.byte	0x6
 7580 1f71 3F02     		.2byte	0x23f
 7581 1f73 01       		.uleb128 0x1
 7582 1f74 370B0000 		.4byte	0xb37
 7583 1f78 4E000000 		.4byte	.LBI1792
 7584 1f7c 0500     		.2byte	.LVU853
 7585 1f7e 4E000000 		.4byte	.LBB1792
 7586 1f82 04000000 		.4byte	.LBE1792-.LBB1792
ARM GAS  C:\Users\DEVELO~1\AppData\Local\Temp\cc5wr7T7.s 			page 135


 7587 1f86 02       		.byte	0x2
 7588 1f87 9901     		.2byte	0x199
 7589 1f89 01       		.uleb128 0x1
 7590 1f8a 400B0000 		.4byte	0xb40
 7591 1f8e 4E000000 		.4byte	.LBI1793
 7592 1f92 0700     		.2byte	.LVU855
 7593 1f94 4E000000 		.4byte	.LBB1793
 7594 1f98 04000000 		.4byte	.LBE1793-.LBB1793
 7595 1f9c 03       		.byte	0x3
 7596 1f9d 2E03     		.2byte	0x32e
 7597 1f9f 03       		.uleb128 0x3
 7598 1fa0 4D0B0000 		.4byte	0xb4d
 7599 1fa4 3E050000 		.4byte	.LLST84
 7600 1fa8 3C050000 		.4byte	.LVUS84
 7601 1fac 00       		.byte	0
 7602 1fad 00       		.byte	0
 7603 1fae 00       		.byte	0
 7604 1faf 00       		.byte	0
 7605 1fb0 09       		.uleb128 0x9
 7606 1fb1 A60A0000 		.4byte	0xaa6
 7607 1fb5 52000000 		.4byte	.LBI1795
 7608 1fb9 0400     		.2byte	.LVU861
 7609 1fbb EF000000 		.4byte	.LLRL85
 7610 1fbf 01       		.byte	0x1
 7611 1fc0 6E       		.byte	0x6e
 7612 1fc1 05       		.byte	0x5
 7613 1fc2 19200000 		.4byte	0x2019
 7614 1fc6 03       		.uleb128 0x3
 7615 1fc7 B40A0000 		.4byte	0xab4
 7616 1fcb 4B050000 		.4byte	.LLST86
 7617 1fcf 49050000 		.4byte	.LVUS86
 7618 1fd3 09       		.uleb128 0x9
 7619 1fd4 DF0A0000 		.4byte	0xadf
 7620 1fd8 52000000 		.4byte	.LBI1797
 7621 1fdc 0700     		.2byte	.LVU864
 7622 1fde FB000000 		.4byte	.LLRL87
 7623 1fe2 05       		.byte	0x5
 7624 1fe3 AB       		.byte	0xab
 7625 1fe4 0A       		.byte	0xa
 7626 1fe5 F71F0000 		.4byte	0x1ff7
 7627 1fe9 03       		.uleb128 0x3
 7628 1fea ED0A0000 		.4byte	0xaed
 7629 1fee 5B050000 		.4byte	.LLST88
 7630 1ff2 59050000 		.4byte	.LVUS88
 7631 1ff6 00       		.byte	0
 7632 1ff7 0F       		.uleb128 0xf
 7633 1ff8 C50A0000 		.4byte	0xac5
 7634 1ffc 52000000 		.4byte	.LBI1801
 7635 2000 0A00     		.2byte	.LVU867
 7636 2002 52000000 		.4byte	.LBB1801
 7637 2006 00000000 		.4byte	.LBE1801-.LBB1801
 7638 200a 03       		.uleb128 0x3
 7639 200b D30A0000 		.4byte	0xad3
 7640 200f 6B050000 		.4byte	.LLST89
 7641 2013 69050000 		.4byte	.LVUS89
 7642 2017 00       		.byte	0
 7643 2018 00       		.byte	0
ARM GAS  C:\Users\DEVELO~1\AppData\Local\Temp\cc5wr7T7.s 			page 136


 7644 2019 05       		.uleb128 0x5
 7645 201a 7B0A0000 		.4byte	0xa7b
 7646 201e 72000000 		.4byte	.LBI1807
 7647 2022 0100     		.2byte	.LVU878
 7648 2024 72000000 		.4byte	.LBB1807
 7649 2028 04000000 		.4byte	.LBE1807-.LBB1807
 7650 202c 6E       		.byte	0x6e
 7651 202d 84200000 		.4byte	0x2084
 7652 2031 01       		.uleb128 0x1
 7653 2032 F90A0000 		.4byte	0xaf9
 7654 2036 72000000 		.4byte	.LBI1808
 7655 203a 0300     		.2byte	.LVU880
 7656 203c 72000000 		.4byte	.LBB1808
 7657 2040 04000000 		.4byte	.LBE1808-.LBB1808
 7658 2044 06       		.byte	0x6
 7659 2045 4A02     		.2byte	0x24a
 7660 2047 01       		.uleb128 0x1
 7661 2048 2E0B0000 		.4byte	0xb2e
 7662 204c 72000000 		.4byte	.LBI1810
 7663 2050 0A00     		.2byte	.LVU887
 7664 2052 72000000 		.4byte	.LBB1810
 7665 2056 04000000 		.4byte	.LBE1810-.LBB1810
 7666 205a 02       		.byte	0x2
 7667 205b B201     		.2byte	0x1b2
 7668 205d 01       		.uleb128 0x1
 7669 205e 400B0000 		.4byte	0xb40
 7670 2062 72000000 		.4byte	.LBI1811
 7671 2066 0C00     		.2byte	.LVU889
 7672 2068 72000000 		.4byte	.LBB1811
 7673 206c 04000000 		.4byte	.LBE1811-.LBB1811
 7674 2070 03       		.byte	0x3
 7675 2071 4103     		.2byte	0x341
 7676 2073 03       		.uleb128 0x3
 7677 2074 4D0B0000 		.4byte	0xb4d
 7678 2078 7B050000 		.4byte	.LLST90
 7679 207c 79050000 		.4byte	.LVUS90
 7680 2080 00       		.byte	0
 7681 2081 00       		.byte	0
 7682 2082 00       		.byte	0
 7683 2083 00       		.byte	0
 7684 2084 05       		.uleb128 0x5
 7685 2085 840A0000 		.4byte	0xa84
 7686 2089 76000000 		.4byte	.LBI1813
 7687 208d 0300     		.2byte	.LVU894
 7688 208f 76000000 		.4byte	.LBB1813
 7689 2093 04000000 		.4byte	.LBE1813-.LBB1813
 7690 2097 6F       		.byte	0x6f
 7691 2098 EF200000 		.4byte	0x20ef
 7692 209c 01       		.uleb128 0x1
 7693 209d 250B0000 		.4byte	0xb25
 7694 20a1 76000000 		.4byte	.LBI1814
 7695 20a5 0500     		.2byte	.LVU896
 7696 20a7 76000000 		.4byte	.LBB1814
 7697 20ab 04000000 		.4byte	.LBE1814-.LBB1814
 7698 20af 06       		.byte	0x6
 7699 20b0 3F02     		.2byte	0x23f
 7700 20b2 01       		.uleb128 0x1
ARM GAS  C:\Users\DEVELO~1\AppData\Local\Temp\cc5wr7T7.s 			page 137


 7701 20b3 370B0000 		.4byte	0xb37
 7702 20b7 76000000 		.4byte	.LBI1815
 7703 20bb 0700     		.2byte	.LVU898
 7704 20bd 76000000 		.4byte	.LBB1815
 7705 20c1 04000000 		.4byte	.LBE1815-.LBB1815
 7706 20c5 02       		.byte	0x2
 7707 20c6 9901     		.2byte	0x199
 7708 20c8 01       		.uleb128 0x1
 7709 20c9 400B0000 		.4byte	0xb40
 7710 20cd 76000000 		.4byte	.LBI1816
 7711 20d1 0900     		.2byte	.LVU900
 7712 20d3 76000000 		.4byte	.LBB1816
 7713 20d7 04000000 		.4byte	.LBE1816-.LBB1816
 7714 20db 03       		.byte	0x3
 7715 20dc 2E03     		.2byte	0x32e
 7716 20de 03       		.uleb128 0x3
 7717 20df 4D0B0000 		.4byte	0xb4d
 7718 20e3 87050000 		.4byte	.LLST91
 7719 20e7 85050000 		.4byte	.LVUS91
 7720 20eb 00       		.byte	0
 7721 20ec 00       		.byte	0
 7722 20ed 00       		.byte	0
 7723 20ee 00       		.byte	0
 7724 20ef 05       		.uleb128 0x5
 7725 20f0 C50A0000 		.4byte	0xac5
 7726 20f4 7A000000 		.4byte	.LBI1818
 7727 20f8 0400     		.2byte	.LVU906
 7728 20fa 7A000000 		.4byte	.LBB1818
 7729 20fe 00000000 		.4byte	.LBE1818-.LBB1818
 7730 2102 6F       		.byte	0x6f
 7731 2103 15210000 		.4byte	0x2115
 7732 2107 03       		.uleb128 0x3
 7733 2108 D30A0000 		.4byte	0xad3
 7734 210c 94050000 		.4byte	.LLST92
 7735 2110 92050000 		.4byte	.LVUS92
 7736 2114 00       		.byte	0
 7737 2115 05       		.uleb128 0x5
 7738 2116 7B0A0000 		.4byte	0xa7b
 7739 211a 8C000000 		.4byte	.LBI1820
 7740 211e 0100     		.2byte	.LVU912
 7741 2120 8C000000 		.4byte	.LBB1820
 7742 2124 04000000 		.4byte	.LBE1820-.LBB1820
 7743 2128 71       		.byte	0x71
 7744 2129 80210000 		.4byte	0x2180
 7745 212d 01       		.uleb128 0x1
 7746 212e F90A0000 		.4byte	0xaf9
 7747 2132 8C000000 		.4byte	.LBI1821
 7748 2136 0300     		.2byte	.LVU914
 7749 2138 8C000000 		.4byte	.LBB1821
 7750 213c 04000000 		.4byte	.LBE1821-.LBB1821
 7751 2140 06       		.byte	0x6
 7752 2141 4A02     		.2byte	0x24a
 7753 2143 01       		.uleb128 0x1
 7754 2144 2E0B0000 		.4byte	0xb2e
 7755 2148 8C000000 		.4byte	.LBI1823
 7756 214c 0A00     		.2byte	.LVU921
 7757 214e 8C000000 		.4byte	.LBB1823
ARM GAS  C:\Users\DEVELO~1\AppData\Local\Temp\cc5wr7T7.s 			page 138


 7758 2152 04000000 		.4byte	.LBE1823-.LBB1823
 7759 2156 02       		.byte	0x2
 7760 2157 B201     		.2byte	0x1b2
 7761 2159 01       		.uleb128 0x1
 7762 215a 400B0000 		.4byte	0xb40
 7763 215e 8C000000 		.4byte	.LBI1824
 7764 2162 0C00     		.2byte	.LVU923
 7765 2164 8C000000 		.4byte	.LBB1824
 7766 2168 04000000 		.4byte	.LBE1824-.LBB1824
 7767 216c 03       		.byte	0x3
 7768 216d 4103     		.2byte	0x341
 7769 216f 03       		.uleb128 0x3
 7770 2170 4D0B0000 		.4byte	0xb4d
 7771 2174 A4050000 		.4byte	.LLST93
 7772 2178 A2050000 		.4byte	.LVUS93
 7773 217c 00       		.byte	0
 7774 217d 00       		.byte	0
 7775 217e 00       		.byte	0
 7776 217f 00       		.byte	0
 7777 2180 05       		.uleb128 0x5
 7778 2181 7B0A0000 		.4byte	0xa7b
 7779 2185 96000000 		.4byte	.LBI1826
 7780 2189 0100     		.2byte	.LVU929
 7781 218b 96000000 		.4byte	.LBB1826
 7782 218f 04000000 		.4byte	.LBE1826-.LBB1826
 7783 2193 B7       		.byte	0xb7
 7784 2194 EB210000 		.4byte	0x21eb
 7785 2198 01       		.uleb128 0x1
 7786 2199 F90A0000 		.4byte	0xaf9
 7787 219d 96000000 		.4byte	.LBI1827
 7788 21a1 0300     		.2byte	.LVU931
 7789 21a3 96000000 		.4byte	.LBB1827
 7790 21a7 04000000 		.4byte	.LBE1827-.LBB1827
 7791 21ab 06       		.byte	0x6
 7792 21ac 4A02     		.2byte	0x24a
 7793 21ae 01       		.uleb128 0x1
 7794 21af 2E0B0000 		.4byte	0xb2e
 7795 21b3 96000000 		.4byte	.LBI1829
 7796 21b7 0A00     		.2byte	.LVU938
 7797 21b9 96000000 		.4byte	.LBB1829
 7798 21bd 04000000 		.4byte	.LBE1829-.LBB1829
 7799 21c1 02       		.byte	0x2
 7800 21c2 B201     		.2byte	0x1b2
 7801 21c4 01       		.uleb128 0x1
 7802 21c5 400B0000 		.4byte	0xb40
 7803 21c9 96000000 		.4byte	.LBI1830
 7804 21cd 0C00     		.2byte	.LVU940
 7805 21cf 96000000 		.4byte	.LBB1830
 7806 21d3 04000000 		.4byte	.LBE1830-.LBB1830
 7807 21d7 03       		.byte	0x3
 7808 21d8 4103     		.2byte	0x341
 7809 21da 03       		.uleb128 0x3
 7810 21db 4D0B0000 		.4byte	0xb4d
 7811 21df B0050000 		.4byte	.LLST94
 7812 21e3 AE050000 		.4byte	.LVUS94
 7813 21e7 00       		.byte	0
 7814 21e8 00       		.byte	0
ARM GAS  C:\Users\DEVELO~1\AppData\Local\Temp\cc5wr7T7.s 			page 139


 7815 21e9 00       		.byte	0
 7816 21ea 00       		.byte	0
 7817 21eb 05       		.uleb128 0x5
 7818 21ec 7B0A0000 		.4byte	0xa7b
 7819 21f0 A0000000 		.4byte	.LBI1832
 7820 21f4 0100     		.2byte	.LVU946
 7821 21f6 A0000000 		.4byte	.LBB1832
 7822 21fa 04000000 		.4byte	.LBE1832-.LBB1832
 7823 21fe 6F       		.byte	0x6f
 7824 21ff 56220000 		.4byte	0x2256
 7825 2203 01       		.uleb128 0x1
 7826 2204 F90A0000 		.4byte	0xaf9
 7827 2208 A0000000 		.4byte	.LBI1833
 7828 220c 0300     		.2byte	.LVU948
 7829 220e A0000000 		.4byte	.LBB1833
 7830 2212 04000000 		.4byte	.LBE1833-.LBB1833
 7831 2216 06       		.byte	0x6
 7832 2217 4A02     		.2byte	0x24a
 7833 2219 01       		.uleb128 0x1
 7834 221a 2E0B0000 		.4byte	0xb2e
 7835 221e A0000000 		.4byte	.LBI1835
 7836 2222 0A00     		.2byte	.LVU955
 7837 2224 A0000000 		.4byte	.LBB1835
 7838 2228 04000000 		.4byte	.LBE1835-.LBB1835
 7839 222c 02       		.byte	0x2
 7840 222d B201     		.2byte	0x1b2
 7841 222f 01       		.uleb128 0x1
 7842 2230 400B0000 		.4byte	0xb40
 7843 2234 A0000000 		.4byte	.LBI1836
 7844 2238 0C00     		.2byte	.LVU957
 7845 223a A0000000 		.4byte	.LBB1836
 7846 223e 04000000 		.4byte	.LBE1836-.LBB1836
 7847 2242 03       		.byte	0x3
 7848 2243 4103     		.2byte	0x341
 7849 2245 03       		.uleb128 0x3
 7850 2246 4D0B0000 		.4byte	0xb4d
 7851 224a BC050000 		.4byte	.LLST95
 7852 224e BA050000 		.4byte	.LVUS95
 7853 2252 00       		.byte	0
 7854 2253 00       		.byte	0
 7855 2254 00       		.byte	0
 7856 2255 00       		.byte	0
 7857 2256 05       		.uleb128 0x5
 7858 2257 840A0000 		.4byte	0xa84
 7859 225b A4000000 		.4byte	.LBI1838
 7860 225f 0300     		.2byte	.LVU962
 7861 2261 A4000000 		.4byte	.LBB1838
 7862 2265 04000000 		.4byte	.LBE1838-.LBB1838
 7863 2269 70       		.byte	0x70
 7864 226a C1220000 		.4byte	0x22c1
 7865 226e 01       		.uleb128 0x1
 7866 226f 250B0000 		.4byte	0xb25
 7867 2273 A4000000 		.4byte	.LBI1839
 7868 2277 0500     		.2byte	.LVU964
 7869 2279 A4000000 		.4byte	.LBB1839
 7870 227d 04000000 		.4byte	.LBE1839-.LBB1839
 7871 2281 06       		.byte	0x6
ARM GAS  C:\Users\DEVELO~1\AppData\Local\Temp\cc5wr7T7.s 			page 140


 7872 2282 3F02     		.2byte	0x23f
 7873 2284 01       		.uleb128 0x1
 7874 2285 370B0000 		.4byte	0xb37
 7875 2289 A4000000 		.4byte	.LBI1840
 7876 228d 0700     		.2byte	.LVU966
 7877 228f A4000000 		.4byte	.LBB1840
 7878 2293 04000000 		.4byte	.LBE1840-.LBB1840
 7879 2297 02       		.byte	0x2
 7880 2298 9901     		.2byte	0x199
 7881 229a 01       		.uleb128 0x1
 7882 229b 400B0000 		.4byte	0xb40
 7883 229f A4000000 		.4byte	.LBI1841
 7884 22a3 0900     		.2byte	.LVU968
 7885 22a5 A4000000 		.4byte	.LBB1841
 7886 22a9 04000000 		.4byte	.LBE1841-.LBB1841
 7887 22ad 03       		.byte	0x3
 7888 22ae 2E03     		.2byte	0x32e
 7889 22b0 03       		.uleb128 0x3
 7890 22b1 4D0B0000 		.4byte	0xb4d
 7891 22b5 C8050000 		.4byte	.LLST96
 7892 22b9 C6050000 		.4byte	.LVUS96
 7893 22bd 00       		.byte	0
 7894 22be 00       		.byte	0
 7895 22bf 00       		.byte	0
 7896 22c0 00       		.byte	0
 7897 22c1 05       		.uleb128 0x5
 7898 22c2 7B0A0000 		.4byte	0xa7b
 7899 22c6 C0000000 		.4byte	.LBI1843
 7900 22ca 0100     		.2byte	.LVU975
 7901 22cc C0000000 		.4byte	.LBB1843
 7902 22d0 04000000 		.4byte	.LBE1843-.LBB1843
 7903 22d4 70       		.byte	0x70
 7904 22d5 2C230000 		.4byte	0x232c
 7905 22d9 01       		.uleb128 0x1
 7906 22da F90A0000 		.4byte	0xaf9
 7907 22de C0000000 		.4byte	.LBI1844
 7908 22e2 0300     		.2byte	.LVU977
 7909 22e4 C0000000 		.4byte	.LBB1844
 7910 22e8 04000000 		.4byte	.LBE1844-.LBB1844
 7911 22ec 06       		.byte	0x6
 7912 22ed 4A02     		.2byte	0x24a
 7913 22ef 01       		.uleb128 0x1
 7914 22f0 2E0B0000 		.4byte	0xb2e
 7915 22f4 C0000000 		.4byte	.LBI1846
 7916 22f8 0A00     		.2byte	.LVU984
 7917 22fa C0000000 		.4byte	.LBB1846
 7918 22fe 04000000 		.4byte	.LBE1846-.LBB1846
 7919 2302 02       		.byte	0x2
 7920 2303 B201     		.2byte	0x1b2
 7921 2305 01       		.uleb128 0x1
 7922 2306 400B0000 		.4byte	0xb40
 7923 230a C0000000 		.4byte	.LBI1847
 7924 230e 0C00     		.2byte	.LVU986
 7925 2310 C0000000 		.4byte	.LBB1847
 7926 2314 04000000 		.4byte	.LBE1847-.LBB1847
 7927 2318 03       		.byte	0x3
 7928 2319 4103     		.2byte	0x341
ARM GAS  C:\Users\DEVELO~1\AppData\Local\Temp\cc5wr7T7.s 			page 141


 7929 231b 03       		.uleb128 0x3
 7930 231c 4D0B0000 		.4byte	0xb4d
 7931 2320 D5050000 		.4byte	.LLST97
 7932 2324 D3050000 		.4byte	.LVUS97
 7933 2328 00       		.byte	0
 7934 2329 00       		.byte	0
 7935 232a 00       		.byte	0
 7936 232b 00       		.byte	0
 7937 232c 05       		.uleb128 0x5
 7938 232d 840A0000 		.4byte	0xa84
 7939 2331 C4000000 		.4byte	.LBI1849
 7940 2335 0300     		.2byte	.LVU991
 7941 2337 C4000000 		.4byte	.LBB1849
 7942 233b 04000000 		.4byte	.LBE1849-.LBB1849
 7943 233f 71       		.byte	0x71
 7944 2340 97230000 		.4byte	0x2397
 7945 2344 01       		.uleb128 0x1
 7946 2345 250B0000 		.4byte	0xb25
 7947 2349 C4000000 		.4byte	.LBI1850
 7948 234d 0500     		.2byte	.LVU993
 7949 234f C4000000 		.4byte	.LBB1850
 7950 2353 04000000 		.4byte	.LBE1850-.LBB1850
 7951 2357 06       		.byte	0x6
 7952 2358 3F02     		.2byte	0x23f
 7953 235a 01       		.uleb128 0x1
 7954 235b 370B0000 		.4byte	0xb37
 7955 235f C4000000 		.4byte	.LBI1851
 7956 2363 0700     		.2byte	.LVU995
 7957 2365 C4000000 		.4byte	.LBB1851
 7958 2369 04000000 		.4byte	.LBE1851-.LBB1851
 7959 236d 02       		.byte	0x2
 7960 236e 9901     		.2byte	0x199
 7961 2370 01       		.uleb128 0x1
 7962 2371 400B0000 		.4byte	0xb40
 7963 2375 C4000000 		.4byte	.LBI1852
 7964 2379 0900     		.2byte	.LVU997
 7965 237b C4000000 		.4byte	.LBB1852
 7966 237f 04000000 		.4byte	.LBE1852-.LBB1852
 7967 2383 03       		.byte	0x3
 7968 2384 2E03     		.2byte	0x32e
 7969 2386 03       		.uleb128 0x3
 7970 2387 4D0B0000 		.4byte	0xb4d
 7971 238b E1050000 		.4byte	.LLST98
 7972 238f DF050000 		.4byte	.LVUS98
 7973 2393 00       		.byte	0
 7974 2394 00       		.byte	0
 7975 2395 00       		.byte	0
 7976 2396 00       		.byte	0
 7977 2397 05       		.uleb128 0x5
 7978 2398 7B0A0000 		.4byte	0xa7b
 7979 239c DE000000 		.4byte	.LBI1854
 7980 23a0 0100     		.2byte	.LVU1004
 7981 23a2 DE000000 		.4byte	.LBB1854
 7982 23a6 04000000 		.4byte	.LBE1854-.LBB1854
 7983 23aa 71       		.byte	0x71
 7984 23ab 02240000 		.4byte	0x2402
 7985 23af 01       		.uleb128 0x1
ARM GAS  C:\Users\DEVELO~1\AppData\Local\Temp\cc5wr7T7.s 			page 142


 7986 23b0 F90A0000 		.4byte	0xaf9
 7987 23b4 DE000000 		.4byte	.LBI1855
 7988 23b8 0300     		.2byte	.LVU1006
 7989 23ba DE000000 		.4byte	.LBB1855
 7990 23be 04000000 		.4byte	.LBE1855-.LBB1855
 7991 23c2 06       		.byte	0x6
 7992 23c3 4A02     		.2byte	0x24a
 7993 23c5 01       		.uleb128 0x1
 7994 23c6 2E0B0000 		.4byte	0xb2e
 7995 23ca DE000000 		.4byte	.LBI1857
 7996 23ce 0A00     		.2byte	.LVU1013
 7997 23d0 DE000000 		.4byte	.LBB1857
 7998 23d4 04000000 		.4byte	.LBE1857-.LBB1857
 7999 23d8 02       		.byte	0x2
 8000 23d9 B201     		.2byte	0x1b2
 8001 23db 01       		.uleb128 0x1
 8002 23dc 400B0000 		.4byte	0xb40
 8003 23e0 DE000000 		.4byte	.LBI1858
 8004 23e4 0C00     		.2byte	.LVU1015
 8005 23e6 DE000000 		.4byte	.LBB1858
 8006 23ea 04000000 		.4byte	.LBE1858-.LBB1858
 8007 23ee 03       		.byte	0x3
 8008 23ef 4103     		.2byte	0x341
 8009 23f1 03       		.uleb128 0x3
 8010 23f2 4D0B0000 		.4byte	0xb4d
 8011 23f6 EE050000 		.4byte	.LLST99
 8012 23fa EC050000 		.4byte	.LVUS99
 8013 23fe 00       		.byte	0
 8014 23ff 00       		.byte	0
 8015 2400 00       		.byte	0
 8016 2401 00       		.byte	0
 8017 2402 09       		.uleb128 0x9
 8018 2403 8D0A0000 		.4byte	0xa8d
 8019 2407 42010000 		.4byte	.LBI1860
 8020 240b 0200     		.2byte	.LVU1042
 8021 240d 0A010000 		.4byte	.LLRL100
 8022 2411 01       		.byte	0x1
 8023 2412 7F       		.byte	0x7f
 8024 2413 05       		.byte	0x5
 8025 2414 26240000 		.4byte	0x2426
 8026 2418 03       		.uleb128 0x3
 8027 2419 9A0A0000 		.4byte	0xa9a
 8028 241d FA050000 		.4byte	.LLST101
 8029 2421 F8050000 		.4byte	.LVUS101
 8030 2425 00       		.byte	0
 8031 2426 09       		.uleb128 0x9
 8032 2427 840A0000 		.4byte	0xa84
 8033 242b 98010000 		.4byte	.LBI1864
 8034 242f 0100     		.2byte	.LVU1075
 8035 2431 16010000 		.4byte	.LLRL102
 8036 2435 01       		.byte	0x1
 8037 2436 94       		.byte	0x94
 8038 2437 05       		.byte	0x5
 8039 2438 83240000 		.4byte	0x2483
 8040 243c 0D       		.uleb128 0xd
 8041 243d 250B0000 		.4byte	0xb25
 8042 2441 98010000 		.4byte	.LBI1865
ARM GAS  C:\Users\DEVELO~1\AppData\Local\Temp\cc5wr7T7.s 			page 143


 8043 2445 0300     		.2byte	.LVU1077
 8044 2447 16010000 		.4byte	.LLRL102
 8045 244b 06       		.byte	0x6
 8046 244c 3F02     		.2byte	0x23f
 8047 244e 0D       		.uleb128 0xd
 8048 244f 370B0000 		.4byte	0xb37
 8049 2453 98010000 		.4byte	.LBI1866
 8050 2457 0500     		.2byte	.LVU1079
 8051 2459 16010000 		.4byte	.LLRL102
 8052 245d 02       		.byte	0x2
 8053 245e 9901     		.2byte	0x199
 8054 2460 0D       		.uleb128 0xd
 8055 2461 400B0000 		.4byte	0xb40
 8056 2465 98010000 		.4byte	.LBI1867
 8057 2469 0700     		.2byte	.LVU1081
 8058 246b 16010000 		.4byte	.LLRL102
 8059 246f 03       		.byte	0x3
 8060 2470 2E03     		.2byte	0x32e
 8061 2472 03       		.uleb128 0x3
 8062 2473 4D0B0000 		.4byte	0xb4d
 8063 2477 0A060000 		.4byte	.LLST103
 8064 247b 08060000 		.4byte	.LVUS103
 8065 247f 00       		.byte	0
 8066 2480 00       		.byte	0
 8067 2481 00       		.byte	0
 8068 2482 00       		.byte	0
 8069 2483 09       		.uleb128 0x9
 8070 2484 A60A0000 		.4byte	0xaa6
 8071 2488 9C010000 		.4byte	.LBI1874
 8072 248c 0400     		.2byte	.LVU1087
 8073 248e 22010000 		.4byte	.LLRL104
 8074 2492 01       		.byte	0x1
 8075 2493 94       		.byte	0x94
 8076 2494 05       		.byte	0x5
 8077 2495 EC240000 		.4byte	0x24ec
 8078 2499 03       		.uleb128 0x3
 8079 249a B40A0000 		.4byte	0xab4
 8080 249e 17060000 		.4byte	.LLST105
 8081 24a2 15060000 		.4byte	.LVUS105
 8082 24a6 09       		.uleb128 0x9
 8083 24a7 DF0A0000 		.4byte	0xadf
 8084 24ab 9C010000 		.4byte	.LBI1875
 8085 24af 0700     		.2byte	.LVU1090
 8086 24b1 2E010000 		.4byte	.LLRL106
 8087 24b5 05       		.byte	0x5
 8088 24b6 AB       		.byte	0xab
 8089 24b7 0A       		.byte	0xa
 8090 24b8 CA240000 		.4byte	0x24ca
 8091 24bc 03       		.uleb128 0x3
 8092 24bd ED0A0000 		.4byte	0xaed
 8093 24c1 27060000 		.4byte	.LLST107
 8094 24c5 25060000 		.4byte	.LVUS107
 8095 24c9 00       		.byte	0
 8096 24ca 0F       		.uleb128 0xf
 8097 24cb C50A0000 		.4byte	0xac5
 8098 24cf 9C010000 		.4byte	.LBI1879
 8099 24d3 0A00     		.2byte	.LVU1093
ARM GAS  C:\Users\DEVELO~1\AppData\Local\Temp\cc5wr7T7.s 			page 144


 8100 24d5 9C010000 		.4byte	.LBB1879
 8101 24d9 00000000 		.4byte	.LBE1879-.LBB1879
 8102 24dd 03       		.uleb128 0x3
 8103 24de D30A0000 		.4byte	0xad3
 8104 24e2 37060000 		.4byte	.LLST108
 8105 24e6 35060000 		.4byte	.LVUS108
 8106 24ea 00       		.byte	0
 8107 24eb 00       		.byte	0
 8108 24ec 05       		.uleb128 0x5
 8109 24ed 7B0A0000 		.4byte	0xa7b
 8110 24f1 BC010000 		.4byte	.LBI1884
 8111 24f5 0100     		.2byte	.LVU1102
 8112 24f7 BC010000 		.4byte	.LBB1884
 8113 24fb 04000000 		.4byte	.LBE1884-.LBB1884
 8114 24ff 94       		.byte	0x94
 8115 2500 57250000 		.4byte	0x2557
 8116 2504 01       		.uleb128 0x1
 8117 2505 F90A0000 		.4byte	0xaf9
 8118 2509 BC010000 		.4byte	.LBI1885
 8119 250d 0300     		.2byte	.LVU1104
 8120 250f BC010000 		.4byte	.LBB1885
 8121 2513 04000000 		.4byte	.LBE1885-.LBB1885
 8122 2517 06       		.byte	0x6
 8123 2518 4A02     		.2byte	0x24a
 8124 251a 01       		.uleb128 0x1
 8125 251b 2E0B0000 		.4byte	0xb2e
 8126 251f BC010000 		.4byte	.LBI1887
 8127 2523 0A00     		.2byte	.LVU1111
 8128 2525 BC010000 		.4byte	.LBB1887
 8129 2529 04000000 		.4byte	.LBE1887-.LBB1887
 8130 252d 02       		.byte	0x2
 8131 252e B201     		.2byte	0x1b2
 8132 2530 01       		.uleb128 0x1
 8133 2531 400B0000 		.4byte	0xb40
 8134 2535 BC010000 		.4byte	.LBI1888
 8135 2539 0C00     		.2byte	.LVU1113
 8136 253b BC010000 		.4byte	.LBB1888
 8137 253f 04000000 		.4byte	.LBE1888-.LBB1888
 8138 2543 03       		.byte	0x3
 8139 2544 4103     		.2byte	0x341
 8140 2546 03       		.uleb128 0x3
 8141 2547 4D0B0000 		.4byte	0xb4d
 8142 254b 47060000 		.4byte	.LLST109
 8143 254f 45060000 		.4byte	.LVUS109
 8144 2553 00       		.byte	0
 8145 2554 00       		.byte	0
 8146 2555 00       		.byte	0
 8147 2556 00       		.byte	0
 8148 2557 05       		.uleb128 0x5
 8149 2558 840A0000 		.4byte	0xa84
 8150 255c C0010000 		.4byte	.LBI1890
 8151 2560 0300     		.2byte	.LVU1118
 8152 2562 C0010000 		.4byte	.LBB1890
 8153 2566 04000000 		.4byte	.LBE1890-.LBB1890
 8154 256a 95       		.byte	0x95
 8155 256b C2250000 		.4byte	0x25c2
 8156 256f 01       		.uleb128 0x1
ARM GAS  C:\Users\DEVELO~1\AppData\Local\Temp\cc5wr7T7.s 			page 145


 8157 2570 250B0000 		.4byte	0xb25
 8158 2574 C0010000 		.4byte	.LBI1891
 8159 2578 0500     		.2byte	.LVU1120
 8160 257a C0010000 		.4byte	.LBB1891
 8161 257e 04000000 		.4byte	.LBE1891-.LBB1891
 8162 2582 06       		.byte	0x6
 8163 2583 3F02     		.2byte	0x23f
 8164 2585 01       		.uleb128 0x1
 8165 2586 370B0000 		.4byte	0xb37
 8166 258a C0010000 		.4byte	.LBI1892
 8167 258e 0700     		.2byte	.LVU1122
 8168 2590 C0010000 		.4byte	.LBB1892
 8169 2594 04000000 		.4byte	.LBE1892-.LBB1892
 8170 2598 02       		.byte	0x2
 8171 2599 9901     		.2byte	0x199
 8172 259b 01       		.uleb128 0x1
 8173 259c 400B0000 		.4byte	0xb40
 8174 25a0 C0010000 		.4byte	.LBI1893
 8175 25a4 0900     		.2byte	.LVU1124
 8176 25a6 C0010000 		.4byte	.LBB1893
 8177 25aa 04000000 		.4byte	.LBE1893-.LBB1893
 8178 25ae 03       		.byte	0x3
 8179 25af 2E03     		.2byte	0x32e
 8180 25b1 03       		.uleb128 0x3
 8181 25b2 4D0B0000 		.4byte	0xb4d
 8182 25b6 53060000 		.4byte	.LLST110
 8183 25ba 51060000 		.4byte	.LVUS110
 8184 25be 00       		.byte	0
 8185 25bf 00       		.byte	0
 8186 25c0 00       		.byte	0
 8187 25c1 00       		.byte	0
 8188 25c2 05       		.uleb128 0x5
 8189 25c3 C50A0000 		.4byte	0xac5
 8190 25c7 C4010000 		.4byte	.LBI1895
 8191 25cb 0400     		.2byte	.LVU1130
 8192 25cd C4010000 		.4byte	.LBB1895
 8193 25d1 00000000 		.4byte	.LBE1895-.LBB1895
 8194 25d5 95       		.byte	0x95
 8195 25d6 E8250000 		.4byte	0x25e8
 8196 25da 03       		.uleb128 0x3
 8197 25db D30A0000 		.4byte	0xad3
 8198 25df 60060000 		.4byte	.LLST111
 8199 25e3 5E060000 		.4byte	.LVUS111
 8200 25e7 00       		.byte	0
 8201 25e8 05       		.uleb128 0x5
 8202 25e9 7B0A0000 		.4byte	0xa7b
 8203 25ed DC010000 		.4byte	.LBI1897
 8204 25f1 0100     		.2byte	.LVU1136
 8205 25f3 DC010000 		.4byte	.LBB1897
 8206 25f7 04000000 		.4byte	.LBE1897-.LBB1897
 8207 25fb 95       		.byte	0x95
 8208 25fc 53260000 		.4byte	0x2653
 8209 2600 01       		.uleb128 0x1
 8210 2601 F90A0000 		.4byte	0xaf9
 8211 2605 DC010000 		.4byte	.LBI1898
 8212 2609 0300     		.2byte	.LVU1138
 8213 260b DC010000 		.4byte	.LBB1898
ARM GAS  C:\Users\DEVELO~1\AppData\Local\Temp\cc5wr7T7.s 			page 146


 8214 260f 04000000 		.4byte	.LBE1898-.LBB1898
 8215 2613 06       		.byte	0x6
 8216 2614 4A02     		.2byte	0x24a
 8217 2616 01       		.uleb128 0x1
 8218 2617 2E0B0000 		.4byte	0xb2e
 8219 261b DC010000 		.4byte	.LBI1900
 8220 261f 0A00     		.2byte	.LVU1145
 8221 2621 DC010000 		.4byte	.LBB1900
 8222 2625 04000000 		.4byte	.LBE1900-.LBB1900
 8223 2629 02       		.byte	0x2
 8224 262a B201     		.2byte	0x1b2
 8225 262c 01       		.uleb128 0x1
 8226 262d 400B0000 		.4byte	0xb40
 8227 2631 DC010000 		.4byte	.LBI1901
 8228 2635 0C00     		.2byte	.LVU1147
 8229 2637 DC010000 		.4byte	.LBB1901
 8230 263b 04000000 		.4byte	.LBE1901-.LBB1901
 8231 263f 03       		.byte	0x3
 8232 2640 4103     		.2byte	0x341
 8233 2642 03       		.uleb128 0x3
 8234 2643 4D0B0000 		.4byte	0xb4d
 8235 2647 70060000 		.4byte	.LLST112
 8236 264b 6E060000 		.4byte	.LVUS112
 8237 264f 00       		.byte	0
 8238 2650 00       		.byte	0
 8239 2651 00       		.byte	0
 8240 2652 00       		.byte	0
 8241 2653 05       		.uleb128 0x5
 8242 2654 7B0A0000 		.4byte	0xa7b
 8243 2658 E2010000 		.4byte	.LBI1903
 8244 265c 0100     		.2byte	.LVU1152
 8245 265e E2010000 		.4byte	.LBB1903
 8246 2662 04000000 		.4byte	.LBE1903-.LBB1903
 8247 2666 95       		.byte	0x95
 8248 2667 BE260000 		.4byte	0x26be
 8249 266b 01       		.uleb128 0x1
 8250 266c F90A0000 		.4byte	0xaf9
 8251 2670 E2010000 		.4byte	.LBI1904
 8252 2674 0300     		.2byte	.LVU1154
 8253 2676 E2010000 		.4byte	.LBB1904
 8254 267a 04000000 		.4byte	.LBE1904-.LBB1904
 8255 267e 06       		.byte	0x6
 8256 267f 4A02     		.2byte	0x24a
 8257 2681 01       		.uleb128 0x1
 8258 2682 2E0B0000 		.4byte	0xb2e
 8259 2686 E2010000 		.4byte	.LBI1906
 8260 268a 0A00     		.2byte	.LVU1161
 8261 268c E2010000 		.4byte	.LBB1906
 8262 2690 04000000 		.4byte	.LBE1906-.LBB1906
 8263 2694 02       		.byte	0x2
 8264 2695 B201     		.2byte	0x1b2
 8265 2697 01       		.uleb128 0x1
 8266 2698 400B0000 		.4byte	0xb40
 8267 269c E2010000 		.4byte	.LBI1907
 8268 26a0 0C00     		.2byte	.LVU1163
 8269 26a2 E2010000 		.4byte	.LBB1907
 8270 26a6 04000000 		.4byte	.LBE1907-.LBB1907
ARM GAS  C:\Users\DEVELO~1\AppData\Local\Temp\cc5wr7T7.s 			page 147


 8271 26aa 03       		.byte	0x3
 8272 26ab 4103     		.2byte	0x341
 8273 26ad 03       		.uleb128 0x3
 8274 26ae 4D0B0000 		.4byte	0xb4d
 8275 26b2 7C060000 		.4byte	.LLST113
 8276 26b6 7A060000 		.4byte	.LVUS113
 8277 26ba 00       		.byte	0
 8278 26bb 00       		.byte	0
 8279 26bc 00       		.byte	0
 8280 26bd 00       		.byte	0
 8281 26be 05       		.uleb128 0x5
 8282 26bf 840A0000 		.4byte	0xa84
 8283 26c3 E6010000 		.4byte	.LBI1909
 8284 26c7 0300     		.2byte	.LVU1168
 8285 26c9 E6010000 		.4byte	.LBB1909
 8286 26cd 04000000 		.4byte	.LBE1909-.LBB1909
 8287 26d1 96       		.byte	0x96
 8288 26d2 29270000 		.4byte	0x2729
 8289 26d6 01       		.uleb128 0x1
 8290 26d7 250B0000 		.4byte	0xb25
 8291 26db E6010000 		.4byte	.LBI1910
 8292 26df 0500     		.2byte	.LVU1170
 8293 26e1 E6010000 		.4byte	.LBB1910
 8294 26e5 04000000 		.4byte	.LBE1910-.LBB1910
 8295 26e9 06       		.byte	0x6
 8296 26ea 3F02     		.2byte	0x23f
 8297 26ec 01       		.uleb128 0x1
 8298 26ed 370B0000 		.4byte	0xb37
 8299 26f1 E6010000 		.4byte	.LBI1911
 8300 26f5 0700     		.2byte	.LVU1172
 8301 26f7 E6010000 		.4byte	.LBB1911
 8302 26fb 04000000 		.4byte	.LBE1911-.LBB1911
 8303 26ff 02       		.byte	0x2
 8304 2700 9901     		.2byte	0x199
 8305 2702 01       		.uleb128 0x1
 8306 2703 400B0000 		.4byte	0xb40
 8307 2707 E6010000 		.4byte	.LBI1912
 8308 270b 0900     		.2byte	.LVU1174
 8309 270d E6010000 		.4byte	.LBB1912
 8310 2711 04000000 		.4byte	.LBE1912-.LBB1912
 8311 2715 03       		.byte	0x3
 8312 2716 2E03     		.2byte	0x32e
 8313 2718 03       		.uleb128 0x3
 8314 2719 4D0B0000 		.4byte	0xb4d
 8315 271d 88060000 		.4byte	.LLST114
 8316 2721 86060000 		.4byte	.LVUS114
 8317 2725 00       		.byte	0
 8318 2726 00       		.byte	0
 8319 2727 00       		.byte	0
 8320 2728 00       		.byte	0
 8321 2729 05       		.uleb128 0x5
 8322 272a 7B0A0000 		.4byte	0xa7b
 8323 272e 06020000 		.4byte	.LBI1914
 8324 2732 0100     		.2byte	.LVU1181
 8325 2734 06020000 		.4byte	.LBB1914
 8326 2738 04000000 		.4byte	.LBE1914-.LBB1914
 8327 273c 96       		.byte	0x96
ARM GAS  C:\Users\DEVELO~1\AppData\Local\Temp\cc5wr7T7.s 			page 148


 8328 273d 94270000 		.4byte	0x2794
 8329 2741 01       		.uleb128 0x1
 8330 2742 F90A0000 		.4byte	0xaf9
 8331 2746 06020000 		.4byte	.LBI1915
 8332 274a 0300     		.2byte	.LVU1183
 8333 274c 06020000 		.4byte	.LBB1915
 8334 2750 04000000 		.4byte	.LBE1915-.LBB1915
 8335 2754 06       		.byte	0x6
 8336 2755 4A02     		.2byte	0x24a
 8337 2757 01       		.uleb128 0x1
 8338 2758 2E0B0000 		.4byte	0xb2e
 8339 275c 06020000 		.4byte	.LBI1917
 8340 2760 0A00     		.2byte	.LVU1190
 8341 2762 06020000 		.4byte	.LBB1917
 8342 2766 04000000 		.4byte	.LBE1917-.LBB1917
 8343 276a 02       		.byte	0x2
 8344 276b B201     		.2byte	0x1b2
 8345 276d 01       		.uleb128 0x1
 8346 276e 400B0000 		.4byte	0xb40
 8347 2772 06020000 		.4byte	.LBI1918
 8348 2776 0C00     		.2byte	.LVU1192
 8349 2778 06020000 		.4byte	.LBB1918
 8350 277c 04000000 		.4byte	.LBE1918-.LBB1918
 8351 2780 03       		.byte	0x3
 8352 2781 4103     		.2byte	0x341
 8353 2783 03       		.uleb128 0x3
 8354 2784 4D0B0000 		.4byte	0xb4d
 8355 2788 95060000 		.4byte	.LLST115
 8356 278c 93060000 		.4byte	.LVUS115
 8357 2790 00       		.byte	0
 8358 2791 00       		.byte	0
 8359 2792 00       		.byte	0
 8360 2793 00       		.byte	0
 8361 2794 09       		.uleb128 0x9
 8362 2795 840A0000 		.4byte	0xa84
 8363 2799 94020000 		.4byte	.LBI1920
 8364 279d 0100     		.2byte	.LVU1238
 8365 279f 3D010000 		.4byte	.LLRL116
 8366 27a3 01       		.byte	0x1
 8367 27a4 B6       		.byte	0xb6
 8368 27a5 05       		.byte	0x5
 8369 27a6 F1270000 		.4byte	0x27f1
 8370 27aa 0D       		.uleb128 0xd
 8371 27ab 250B0000 		.4byte	0xb25
 8372 27af 94020000 		.4byte	.LBI1921
 8373 27b3 0300     		.2byte	.LVU1240
 8374 27b5 3D010000 		.4byte	.LLRL116
 8375 27b9 06       		.byte	0x6
 8376 27ba 3F02     		.2byte	0x23f
 8377 27bc 0D       		.uleb128 0xd
 8378 27bd 370B0000 		.4byte	0xb37
 8379 27c1 94020000 		.4byte	.LBI1922
 8380 27c5 0500     		.2byte	.LVU1242
 8381 27c7 3D010000 		.4byte	.LLRL116
 8382 27cb 02       		.byte	0x2
 8383 27cc 9901     		.2byte	0x199
 8384 27ce 0D       		.uleb128 0xd
ARM GAS  C:\Users\DEVELO~1\AppData\Local\Temp\cc5wr7T7.s 			page 149


 8385 27cf 400B0000 		.4byte	0xb40
 8386 27d3 94020000 		.4byte	.LBI1923
 8387 27d7 0700     		.2byte	.LVU1244
 8388 27d9 3D010000 		.4byte	.LLRL116
 8389 27dd 03       		.byte	0x3
 8390 27de 2E03     		.2byte	0x32e
 8391 27e0 03       		.uleb128 0x3
 8392 27e1 4D0B0000 		.4byte	0xb4d
 8393 27e5 A1060000 		.4byte	.LLST117
 8394 27e9 9F060000 		.4byte	.LVUS117
 8395 27ed 00       		.byte	0
 8396 27ee 00       		.byte	0
 8397 27ef 00       		.byte	0
 8398 27f0 00       		.byte	0
 8399 27f1 09       		.uleb128 0x9
 8400 27f2 A60A0000 		.4byte	0xaa6
 8401 27f6 98020000 		.4byte	.LBI1930
 8402 27fa 0400     		.2byte	.LVU1250
 8403 27fc 49010000 		.4byte	.LLRL118
 8404 2800 01       		.byte	0x1
 8405 2801 B6       		.byte	0xb6
 8406 2802 05       		.byte	0x5
 8407 2803 5A280000 		.4byte	0x285a
 8408 2807 03       		.uleb128 0x3
 8409 2808 B40A0000 		.4byte	0xab4
 8410 280c AE060000 		.4byte	.LLST119
 8411 2810 AC060000 		.4byte	.LVUS119
 8412 2814 09       		.uleb128 0x9
 8413 2815 DF0A0000 		.4byte	0xadf
 8414 2819 98020000 		.4byte	.LBI1932
 8415 281d 0700     		.2byte	.LVU1253
 8416 281f 55010000 		.4byte	.LLRL120
 8417 2823 05       		.byte	0x5
 8418 2824 AB       		.byte	0xab
 8419 2825 0A       		.byte	0xa
 8420 2826 38280000 		.4byte	0x2838
 8421 282a 03       		.uleb128 0x3
 8422 282b ED0A0000 		.4byte	0xaed
 8423 282f BE060000 		.4byte	.LLST121
 8424 2833 BC060000 		.4byte	.LVUS121
 8425 2837 00       		.byte	0
 8426 2838 0F       		.uleb128 0xf
 8427 2839 C50A0000 		.4byte	0xac5
 8428 283d 98020000 		.4byte	.LBI1936
 8429 2841 0A00     		.2byte	.LVU1256
 8430 2843 98020000 		.4byte	.LBB1936
 8431 2847 00000000 		.4byte	.LBE1936-.LBB1936
 8432 284b 03       		.uleb128 0x3
 8433 284c D30A0000 		.4byte	0xad3
 8434 2850 CE060000 		.4byte	.LLST122
 8435 2854 CC060000 		.4byte	.LVUS122
 8436 2858 00       		.byte	0
 8437 2859 00       		.byte	0
 8438 285a 05       		.uleb128 0x5
 8439 285b 7B0A0000 		.4byte	0xa7b
 8440 285f B6020000 		.4byte	.LBI1942
 8441 2863 0100     		.2byte	.LVU1266
ARM GAS  C:\Users\DEVELO~1\AppData\Local\Temp\cc5wr7T7.s 			page 150


 8442 2865 B6020000 		.4byte	.LBB1942
 8443 2869 04000000 		.4byte	.LBE1942-.LBB1942
 8444 286d B6       		.byte	0xb6
 8445 286e C5280000 		.4byte	0x28c5
 8446 2872 01       		.uleb128 0x1
 8447 2873 F90A0000 		.4byte	0xaf9
 8448 2877 B6020000 		.4byte	.LBI1943
 8449 287b 0300     		.2byte	.LVU1268
 8450 287d B6020000 		.4byte	.LBB1943
 8451 2881 04000000 		.4byte	.LBE1943-.LBB1943
 8452 2885 06       		.byte	0x6
 8453 2886 4A02     		.2byte	0x24a
 8454 2888 01       		.uleb128 0x1
 8455 2889 2E0B0000 		.4byte	0xb2e
 8456 288d B6020000 		.4byte	.LBI1945
 8457 2891 0A00     		.2byte	.LVU1275
 8458 2893 B6020000 		.4byte	.LBB1945
 8459 2897 04000000 		.4byte	.LBE1945-.LBB1945
 8460 289b 02       		.byte	0x2
 8461 289c B201     		.2byte	0x1b2
 8462 289e 01       		.uleb128 0x1
 8463 289f 400B0000 		.4byte	0xb40
 8464 28a3 B6020000 		.4byte	.LBI1946
 8465 28a7 0C00     		.2byte	.LVU1277
 8466 28a9 B6020000 		.4byte	.LBB1946
 8467 28ad 04000000 		.4byte	.LBE1946-.LBB1946
 8468 28b1 03       		.byte	0x3
 8469 28b2 4103     		.2byte	0x341
 8470 28b4 03       		.uleb128 0x3
 8471 28b5 4D0B0000 		.4byte	0xb4d
 8472 28b9 DE060000 		.4byte	.LLST123
 8473 28bd DC060000 		.4byte	.LVUS123
 8474 28c1 00       		.byte	0
 8475 28c2 00       		.byte	0
 8476 28c3 00       		.byte	0
 8477 28c4 00       		.byte	0
 8478 28c5 05       		.uleb128 0x5
 8479 28c6 840A0000 		.4byte	0xa84
 8480 28ca BA020000 		.4byte	.LBI1948
 8481 28ce 0300     		.2byte	.LVU1282
 8482 28d0 BA020000 		.4byte	.LBB1948
 8483 28d4 04000000 		.4byte	.LBE1948-.LBB1948
 8484 28d8 B7       		.byte	0xb7
 8485 28d9 30290000 		.4byte	0x2930
 8486 28dd 01       		.uleb128 0x1
 8487 28de 250B0000 		.4byte	0xb25
 8488 28e2 BA020000 		.4byte	.LBI1949
 8489 28e6 0500     		.2byte	.LVU1284
 8490 28e8 BA020000 		.4byte	.LBB1949
 8491 28ec 04000000 		.4byte	.LBE1949-.LBB1949
 8492 28f0 06       		.byte	0x6
 8493 28f1 3F02     		.2byte	0x23f
 8494 28f3 01       		.uleb128 0x1
 8495 28f4 370B0000 		.4byte	0xb37
 8496 28f8 BA020000 		.4byte	.LBI1950
 8497 28fc 0700     		.2byte	.LVU1286
 8498 28fe BA020000 		.4byte	.LBB1950
ARM GAS  C:\Users\DEVELO~1\AppData\Local\Temp\cc5wr7T7.s 			page 151


 8499 2902 04000000 		.4byte	.LBE1950-.LBB1950
 8500 2906 02       		.byte	0x2
 8501 2907 9901     		.2byte	0x199
 8502 2909 01       		.uleb128 0x1
 8503 290a 400B0000 		.4byte	0xb40
 8504 290e BA020000 		.4byte	.LBI1951
 8505 2912 0900     		.2byte	.LVU1288
 8506 2914 BA020000 		.4byte	.LBB1951
 8507 2918 04000000 		.4byte	.LBE1951-.LBB1951
 8508 291c 03       		.byte	0x3
 8509 291d 2E03     		.2byte	0x32e
 8510 291f 03       		.uleb128 0x3
 8511 2920 4D0B0000 		.4byte	0xb4d
 8512 2924 EA060000 		.4byte	.LLST124
 8513 2928 E8060000 		.4byte	.LVUS124
 8514 292c 00       		.byte	0
 8515 292d 00       		.byte	0
 8516 292e 00       		.byte	0
 8517 292f 00       		.byte	0
 8518 2930 05       		.uleb128 0x5
 8519 2931 C50A0000 		.4byte	0xac5
 8520 2935 BE020000 		.4byte	.LBI1953
 8521 2939 0400     		.2byte	.LVU1294
 8522 293b BE020000 		.4byte	.LBB1953
 8523 293f 00000000 		.4byte	.LBE1953-.LBB1953
 8524 2943 B7       		.byte	0xb7
 8525 2944 56290000 		.4byte	0x2956
 8526 2948 03       		.uleb128 0x3
 8527 2949 D30A0000 		.4byte	0xad3
 8528 294d F7060000 		.4byte	.LLST125
 8529 2951 F5060000 		.4byte	.LVUS125
 8530 2955 00       		.byte	0
 8531 2956 05       		.uleb128 0x5
 8532 2957 7B0A0000 		.4byte	0xa7b
 8533 295b D2020000 		.4byte	.LBI1955
 8534 295f 0100     		.2byte	.LVU1300
 8535 2961 D2020000 		.4byte	.LBB1955
 8536 2965 04000000 		.4byte	.LBE1955-.LBB1955
 8537 2969 B7       		.byte	0xb7
 8538 296a C1290000 		.4byte	0x29c1
 8539 296e 01       		.uleb128 0x1
 8540 296f F90A0000 		.4byte	0xaf9
 8541 2973 D2020000 		.4byte	.LBI1956
 8542 2977 0300     		.2byte	.LVU1302
 8543 2979 D2020000 		.4byte	.LBB1956
 8544 297d 04000000 		.4byte	.LBE1956-.LBB1956
 8545 2981 06       		.byte	0x6
 8546 2982 4A02     		.2byte	0x24a
 8547 2984 01       		.uleb128 0x1
 8548 2985 2E0B0000 		.4byte	0xb2e
 8549 2989 D2020000 		.4byte	.LBI1958
 8550 298d 0A00     		.2byte	.LVU1309
 8551 298f D2020000 		.4byte	.LBB1958
 8552 2993 04000000 		.4byte	.LBE1958-.LBB1958
 8553 2997 02       		.byte	0x2
 8554 2998 B201     		.2byte	0x1b2
 8555 299a 01       		.uleb128 0x1
ARM GAS  C:\Users\DEVELO~1\AppData\Local\Temp\cc5wr7T7.s 			page 152


 8556 299b 400B0000 		.4byte	0xb40
 8557 299f D2020000 		.4byte	.LBI1959
 8558 29a3 0C00     		.2byte	.LVU1311
 8559 29a5 D2020000 		.4byte	.LBB1959
 8560 29a9 04000000 		.4byte	.LBE1959-.LBB1959
 8561 29ad 03       		.byte	0x3
 8562 29ae 4103     		.2byte	0x341
 8563 29b0 03       		.uleb128 0x3
 8564 29b1 4D0B0000 		.4byte	0xb4d
 8565 29b5 07070000 		.4byte	.LLST126
 8566 29b9 05070000 		.4byte	.LVUS126
 8567 29bd 00       		.byte	0
 8568 29be 00       		.byte	0
 8569 29bf 00       		.byte	0
 8570 29c0 00       		.byte	0
 8571 29c1 04       		.uleb128 0x4
 8572 29c2 4E000000 		.4byte	.LVL135
 8573 29c6 78050000 		.4byte	0x578
 8574 29ca D5290000 		.4byte	0x29d5
 8575 29ce 02       		.uleb128 0x2
 8576 29cf 01       		.uleb128 0x1
 8577 29d0 50       		.byte	0x50
 8578 29d1 02       		.uleb128 0x2
 8579 29d2 74       		.byte	0x74
 8580 29d3 00       		.sleb128 0
 8581 29d4 00       		.byte	0
 8582 29d5 04       		.uleb128 0x4
 8583 29d6 6E000000 		.4byte	.LVL137
 8584 29da D8050000 		.4byte	0x5d8
 8585 29de EC290000 		.4byte	0x29ec
 8586 29e2 02       		.uleb128 0x2
 8587 29e3 01       		.uleb128 0x1
 8588 29e4 51       		.byte	0x51
 8589 29e5 05       		.uleb128 0x5
 8590 29e6 03       		.byte	0x3
 8591 29e7 0C000000 		.4byte	.LC2
 8592 29eb 00       		.byte	0
 8593 29ec 04       		.uleb128 0x4
 8594 29ed 88000000 		.4byte	.LVL141
 8595 29f1 D8050000 		.4byte	0x5d8
 8596 29f5 032A0000 		.4byte	0x2a03
 8597 29f9 02       		.uleb128 0x2
 8598 29fa 01       		.uleb128 0x1
 8599 29fb 51       		.byte	0x51
 8600 29fc 05       		.uleb128 0x5
 8601 29fd 03       		.byte	0x3
 8602 29fe 18000000 		.4byte	.LC3
 8603 2a02 00       		.byte	0
 8604 2a03 04       		.uleb128 0x4
 8605 2a04 BA000000 		.4byte	.LVL149
 8606 2a08 D8050000 		.4byte	0x5d8
 8607 2a0c 1A2A0000 		.4byte	0x2a1a
 8608 2a10 02       		.uleb128 0x2
 8609 2a11 01       		.uleb128 0x1
 8610 2a12 51       		.byte	0x51
 8611 2a13 05       		.uleb128 0x5
 8612 2a14 03       		.byte	0x3
ARM GAS  C:\Users\DEVELO~1\AppData\Local\Temp\cc5wr7T7.s 			page 153


 8613 2a15 24000000 		.4byte	.LC4
 8614 2a19 00       		.byte	0
 8615 2a1a 04       		.uleb128 0x4
 8616 2a1b DA000000 		.4byte	.LVL153
 8617 2a1f D8050000 		.4byte	0x5d8
 8618 2a23 312A0000 		.4byte	0x2a31
 8619 2a27 02       		.uleb128 0x2
 8620 2a28 01       		.uleb128 0x1
 8621 2a29 51       		.byte	0x51
 8622 2a2a 05       		.uleb128 0x5
 8623 2a2b 03       		.byte	0x3
 8624 2a2c 48000000 		.4byte	.LC5
 8625 2a30 00       		.byte	0
 8626 2a31 04       		.uleb128 0x4
 8627 2a32 F2000000 		.4byte	.LVL156
 8628 2a36 F2050000 		.4byte	0x5f2
 8629 2a3a 4B2A0000 		.4byte	0x2a4b
 8630 2a3e 02       		.uleb128 0x2
 8631 2a3f 01       		.uleb128 0x1
 8632 2a40 50       		.byte	0x50
 8633 2a41 02       		.uleb128 0x2
 8634 2a42 74       		.byte	0x74
 8635 2a43 00       		.sleb128 0
 8636 2a44 02       		.uleb128 0x2
 8637 2a45 01       		.uleb128 0x1
 8638 2a46 52       		.byte	0x52
 8639 2a47 02       		.uleb128 0x2
 8640 2a48 09       		.byte	0x9
 8641 2a49 FF       		.byte	0xff
 8642 2a4a 00       		.byte	0
 8643 2a4b 04       		.uleb128 0x4
 8644 2a4c 00010000 		.4byte	.LVL158
 8645 2a50 D8050000 		.4byte	0x5d8
 8646 2a54 7C2A0000 		.4byte	0x2a7c
 8647 2a58 02       		.uleb128 0x2
 8648 2a59 01       		.uleb128 0x1
 8649 2a5a 50       		.byte	0x50
 8650 2a5b 16       		.uleb128 0x16
 8651 2a5c 31       		.byte	0x31
 8652 2a5d 30       		.byte	0x30
 8653 2a5e 75       		.byte	0x75
 8654 2a5f 7E       		.sleb128 -2
 8655 2a60 75       		.byte	0x75
 8656 2a61 00       		.sleb128 0
 8657 2a62 30       		.byte	0x30
 8658 2a63 2E       		.byte	0x2e
 8659 2a64 28       		.byte	0x28
 8660 2a65 0100     		.2byte	0x1
 8661 2a67 16       		.byte	0x16
 8662 2a68 13       		.byte	0x13
 8663 2a69 75       		.byte	0x75
 8664 2a6a 00       		.sleb128 0
 8665 2a6b 30       		.byte	0x30
 8666 2a6c 29       		.byte	0x29
 8667 2a6d 28       		.byte	0x28
 8668 2a6e 0100     		.2byte	0x1
 8669 2a70 16       		.byte	0x16
ARM GAS  C:\Users\DEVELO~1\AppData\Local\Temp\cc5wr7T7.s 			page 154


 8670 2a71 13       		.byte	0x13
 8671 2a72 02       		.uleb128 0x2
 8672 2a73 01       		.uleb128 0x1
 8673 2a74 51       		.byte	0x51
 8674 2a75 05       		.uleb128 0x5
 8675 2a76 03       		.byte	0x3
 8676 2a77 00000000 		.4byte	.LC11
 8677 2a7b 00       		.byte	0
 8678 2a7c 04       		.uleb128 0x4
 8679 2a7d 10010000 		.4byte	.LVL159
 8680 2a81 A1050000 		.4byte	0x5a1
 8681 2a85 962A0000 		.4byte	0x2a96
 8682 2a89 02       		.uleb128 0x2
 8683 2a8a 01       		.uleb128 0x1
 8684 2a8b 50       		.byte	0x50
 8685 2a8c 02       		.uleb128 0x2
 8686 2a8d 74       		.byte	0x74
 8687 2a8e 00       		.sleb128 0
 8688 2a8f 02       		.uleb128 0x2
 8689 2a90 01       		.uleb128 0x1
 8690 2a91 52       		.byte	0x52
 8691 2a92 02       		.uleb128 0x2
 8692 2a93 09       		.byte	0x9
 8693 2a94 FF       		.byte	0xff
 8694 2a95 00       		.byte	0
 8695 2a96 04       		.uleb128 0x4
 8696 2a97 1E010000 		.4byte	.LVL161
 8697 2a9b D8050000 		.4byte	0x5d8
 8698 2a9f AD2A0000 		.4byte	0x2aad
 8699 2aa3 02       		.uleb128 0x2
 8700 2aa4 01       		.uleb128 0x1
 8701 2aa5 51       		.byte	0x51
 8702 2aa6 05       		.uleb128 0x5
 8703 2aa7 03       		.byte	0x3
 8704 2aa8 00000000 		.4byte	.LC11
 8705 2aac 00       		.byte	0
 8706 2aad 04       		.uleb128 0x4
 8707 2aae 2E010000 		.4byte	.LVL162
 8708 2ab2 5A050000 		.4byte	0x55a
 8709 2ab6 CD2A0000 		.4byte	0x2acd
 8710 2aba 02       		.uleb128 0x2
 8711 2abb 01       		.uleb128 0x1
 8712 2abc 50       		.byte	0x50
 8713 2abd 02       		.uleb128 0x2
 8714 2abe 74       		.byte	0x74
 8715 2abf 00       		.sleb128 0
 8716 2ac0 02       		.uleb128 0x2
 8717 2ac1 01       		.uleb128 0x1
 8718 2ac2 51       		.byte	0x51
 8719 2ac3 02       		.uleb128 0x2
 8720 2ac4 91       		.byte	0x91
 8721 2ac5 64       		.sleb128 -28
 8722 2ac6 02       		.uleb128 0x2
 8723 2ac7 01       		.uleb128 0x1
 8724 2ac8 52       		.byte	0x52
 8725 2ac9 02       		.uleb128 0x2
 8726 2aca 09       		.byte	0x9
ARM GAS  C:\Users\DEVELO~1\AppData\Local\Temp\cc5wr7T7.s 			page 155


 8727 2acb FF       		.byte	0xff
 8728 2acc 00       		.byte	0
 8729 2acd 04       		.uleb128 0x4
 8730 2ace 3C010000 		.4byte	.LVL164
 8731 2ad2 D8050000 		.4byte	0x5d8
 8732 2ad6 E42A0000 		.4byte	0x2ae4
 8733 2ada 02       		.uleb128 0x2
 8734 2adb 01       		.uleb128 0x1
 8735 2adc 51       		.byte	0x51
 8736 2add 05       		.uleb128 0x5
 8737 2ade 03       		.byte	0x3
 8738 2adf 00000000 		.4byte	.LC11
 8739 2ae3 00       		.byte	0
 8740 2ae4 04       		.uleb128 0x4
 8741 2ae5 5A010000 		.4byte	.LVL169
 8742 2ae9 F2050000 		.4byte	0x5f2
 8743 2aed 042B0000 		.4byte	0x2b04
 8744 2af1 02       		.uleb128 0x2
 8745 2af2 01       		.uleb128 0x1
 8746 2af3 50       		.byte	0x50
 8747 2af4 02       		.uleb128 0x2
 8748 2af5 74       		.byte	0x74
 8749 2af6 00       		.sleb128 0
 8750 2af7 02       		.uleb128 0x2
 8751 2af8 01       		.uleb128 0x1
 8752 2af9 51       		.byte	0x51
 8753 2afa 02       		.uleb128 0x2
 8754 2afb 75       		.byte	0x75
 8755 2afc 7F       		.sleb128 -1
 8756 2afd 02       		.uleb128 0x2
 8757 2afe 01       		.uleb128 0x1
 8758 2aff 52       		.byte	0x52
 8759 2b00 02       		.uleb128 0x2
 8760 2b01 09       		.byte	0x9
 8761 2b02 FF       		.byte	0xff
 8762 2b03 00       		.byte	0
 8763 2b04 04       		.uleb128 0x4
 8764 2b05 66010000 		.4byte	.LVL171
 8765 2b09 D8050000 		.4byte	0x5d8
 8766 2b0d 182B0000 		.4byte	0x2b18
 8767 2b11 02       		.uleb128 0x2
 8768 2b12 01       		.uleb128 0x1
 8769 2b13 51       		.byte	0x51
 8770 2b14 02       		.uleb128 0x2
 8771 2b15 76       		.byte	0x76
 8772 2b16 00       		.sleb128 0
 8773 2b17 00       		.byte	0
 8774 2b18 04       		.uleb128 0x4
 8775 2b19 7C010000 		.4byte	.LVL172
 8776 2b1d A1050000 		.4byte	0x5a1
 8777 2b21 382B0000 		.4byte	0x2b38
 8778 2b25 02       		.uleb128 0x2
 8779 2b26 01       		.uleb128 0x1
 8780 2b27 50       		.byte	0x50
 8781 2b28 02       		.uleb128 0x2
 8782 2b29 74       		.byte	0x74
 8783 2b2a 00       		.sleb128 0
ARM GAS  C:\Users\DEVELO~1\AppData\Local\Temp\cc5wr7T7.s 			page 156


 8784 2b2b 02       		.uleb128 0x2
 8785 2b2c 01       		.uleb128 0x1
 8786 2b2d 51       		.byte	0x51
 8787 2b2e 02       		.uleb128 0x2
 8788 2b2f 08       		.byte	0x8
 8789 2b30 41       		.byte	0x41
 8790 2b31 02       		.uleb128 0x2
 8791 2b32 01       		.uleb128 0x1
 8792 2b33 52       		.byte	0x52
 8793 2b34 02       		.uleb128 0x2
 8794 2b35 09       		.byte	0x9
 8795 2b36 FF       		.byte	0xff
 8796 2b37 00       		.byte	0
 8797 2b38 04       		.uleb128 0x4
 8798 2b39 88010000 		.4byte	.LVL174
 8799 2b3d D8050000 		.4byte	0x5d8
 8800 2b41 4C2B0000 		.4byte	0x2b4c
 8801 2b45 02       		.uleb128 0x2
 8802 2b46 01       		.uleb128 0x1
 8803 2b47 51       		.byte	0x51
 8804 2b48 02       		.uleb128 0x2
 8805 2b49 76       		.byte	0x76
 8806 2b4a 00       		.sleb128 0
 8807 2b4b 00       		.byte	0
 8808 2b4c 04       		.uleb128 0x4
 8809 2b4d B4010000 		.4byte	.LVL177
 8810 2b51 D8050000 		.4byte	0x5d8
 8811 2b55 632B0000 		.4byte	0x2b63
 8812 2b59 02       		.uleb128 0x2
 8813 2b5a 01       		.uleb128 0x1
 8814 2b5b 51       		.byte	0x51
 8815 2b5c 05       		.uleb128 0x5
 8816 2b5d 03       		.byte	0x3
 8817 2b5e 6C000000 		.4byte	.LC6
 8818 2b62 00       		.byte	0
 8819 2b63 04       		.uleb128 0x4
 8820 2b64 D8010000 		.4byte	.LVL181
 8821 2b68 D8050000 		.4byte	0x5d8
 8822 2b6c 7A2B0000 		.4byte	0x2b7a
 8823 2b70 02       		.uleb128 0x2
 8824 2b71 01       		.uleb128 0x1
 8825 2b72 51       		.byte	0x51
 8826 2b73 05       		.uleb128 0x5
 8827 2b74 03       		.byte	0x3
 8828 2b75 78000000 		.4byte	.LC7
 8829 2b79 00       		.byte	0
 8830 2b7a 04       		.uleb128 0x4
 8831 2b7b 00020000 		.4byte	.LVL187
 8832 2b7f D8050000 		.4byte	0x5d8
 8833 2b83 912B0000 		.4byte	0x2b91
 8834 2b87 02       		.uleb128 0x2
 8835 2b88 01       		.uleb128 0x1
 8836 2b89 51       		.byte	0x51
 8837 2b8a 05       		.uleb128 0x5
 8838 2b8b 03       		.byte	0x3
 8839 2b8c 84000000 		.4byte	.LC8
 8840 2b90 00       		.byte	0
ARM GAS  C:\Users\DEVELO~1\AppData\Local\Temp\cc5wr7T7.s 			page 157


 8841 2b91 04       		.uleb128 0x4
 8842 2b92 22020000 		.4byte	.LVL191
 8843 2b96 5A050000 		.4byte	0x55a
 8844 2b9a B12B0000 		.4byte	0x2bb1
 8845 2b9e 02       		.uleb128 0x2
 8846 2b9f 01       		.uleb128 0x1
 8847 2ba0 50       		.byte	0x50
 8848 2ba1 02       		.uleb128 0x2
 8849 2ba2 74       		.byte	0x74
 8850 2ba3 00       		.sleb128 0
 8851 2ba4 02       		.uleb128 0x2
 8852 2ba5 01       		.uleb128 0x1
 8853 2ba6 51       		.byte	0x51
 8854 2ba7 02       		.uleb128 0x2
 8855 2ba8 91       		.byte	0x91
 8856 2ba9 64       		.sleb128 -28
 8857 2baa 02       		.uleb128 0x2
 8858 2bab 01       		.uleb128 0x1
 8859 2bac 52       		.byte	0x52
 8860 2bad 02       		.uleb128 0x2
 8861 2bae 09       		.byte	0x9
 8862 2baf FF       		.byte	0xff
 8863 2bb0 00       		.byte	0
 8864 2bb1 04       		.uleb128 0x4
 8865 2bb2 2E020000 		.4byte	.LVL193
 8866 2bb6 D8050000 		.4byte	0x5d8
 8867 2bba C52B0000 		.4byte	0x2bc5
 8868 2bbe 02       		.uleb128 0x2
 8869 2bbf 01       		.uleb128 0x1
 8870 2bc0 51       		.byte	0x51
 8871 2bc1 02       		.uleb128 0x2
 8872 2bc2 76       		.byte	0x76
 8873 2bc3 00       		.sleb128 0
 8874 2bc4 00       		.byte	0
 8875 2bc5 2D       		.uleb128 0x2d
 8876 2bc6 3C020000 		.4byte	.LVL194
 8877 2bca FF040000 		.4byte	0x4ff
 8878 2bce 04       		.uleb128 0x4
 8879 2bcf 48020000 		.4byte	.LVL196
 8880 2bd3 E5040000 		.4byte	0x4e5
 8881 2bd7 EE2B0000 		.4byte	0x2bee
 8882 2bdb 02       		.uleb128 0x2
 8883 2bdc 01       		.uleb128 0x1
 8884 2bdd 50       		.byte	0x50
 8885 2bde 05       		.uleb128 0x5
 8886 2bdf 03       		.byte	0x3
 8887 2be0 B0000000 		.4byte	.LC10
 8888 2be4 02       		.uleb128 0x2
 8889 2be5 01       		.uleb128 0x1
 8890 2be6 51       		.byte	0x51
 8891 2be7 05       		.uleb128 0x5
 8892 2be8 03       		.byte	0x3
 8893 2be9 9C000000 		.4byte	.LC9
 8894 2bed 00       		.byte	0
 8895 2bee 04       		.uleb128 0x4
 8896 2bef 5E020000 		.4byte	.LVL197
 8897 2bf3 F2050000 		.4byte	0x5f2
ARM GAS  C:\Users\DEVELO~1\AppData\Local\Temp\cc5wr7T7.s 			page 158


 8898 2bf7 0E2C0000 		.4byte	0x2c0e
 8899 2bfb 02       		.uleb128 0x2
 8900 2bfc 01       		.uleb128 0x1
 8901 2bfd 50       		.byte	0x50
 8902 2bfe 02       		.uleb128 0x2
 8903 2bff 74       		.byte	0x74
 8904 2c00 00       		.sleb128 0
 8905 2c01 02       		.uleb128 0x2
 8906 2c02 01       		.uleb128 0x1
 8907 2c03 51       		.byte	0x51
 8908 2c04 02       		.uleb128 0x2
 8909 2c05 08       		.byte	0x8
 8910 2c06 46       		.byte	0x46
 8911 2c07 02       		.uleb128 0x2
 8912 2c08 01       		.uleb128 0x1
 8913 2c09 52       		.byte	0x52
 8914 2c0a 02       		.uleb128 0x2
 8915 2c0b 09       		.byte	0x9
 8916 2c0c FF       		.byte	0xff
 8917 2c0d 00       		.byte	0
 8918 2c0e 04       		.uleb128 0x4
 8919 2c0f 6A020000 		.4byte	.LVL199
 8920 2c13 D8050000 		.4byte	0x5d8
 8921 2c17 222C0000 		.4byte	0x2c22
 8922 2c1b 02       		.uleb128 0x2
 8923 2c1c 01       		.uleb128 0x1
 8924 2c1d 51       		.byte	0x51
 8925 2c1e 02       		.uleb128 0x2
 8926 2c1f 76       		.byte	0x76
 8927 2c20 00       		.sleb128 0
 8928 2c21 00       		.byte	0
 8929 2c22 04       		.uleb128 0x4
 8930 2c23 7C020000 		.4byte	.LVL200
 8931 2c27 5A050000 		.4byte	0x55a
 8932 2c2b 422C0000 		.4byte	0x2c42
 8933 2c2f 02       		.uleb128 0x2
 8934 2c30 01       		.uleb128 0x1
 8935 2c31 50       		.byte	0x50
 8936 2c32 02       		.uleb128 0x2
 8937 2c33 74       		.byte	0x74
 8938 2c34 00       		.sleb128 0
 8939 2c35 02       		.uleb128 0x2
 8940 2c36 01       		.uleb128 0x1
 8941 2c37 51       		.byte	0x51
 8942 2c38 02       		.uleb128 0x2
 8943 2c39 91       		.byte	0x91
 8944 2c3a 64       		.sleb128 -28
 8945 2c3b 02       		.uleb128 0x2
 8946 2c3c 01       		.uleb128 0x1
 8947 2c3d 52       		.byte	0x52
 8948 2c3e 02       		.uleb128 0x2
 8949 2c3f 09       		.byte	0x9
 8950 2c40 FF       		.byte	0xff
 8951 2c41 00       		.byte	0
 8952 2c42 04       		.uleb128 0x4
 8953 2c43 88020000 		.4byte	.LVL202
 8954 2c47 D8050000 		.4byte	0x5d8
ARM GAS  C:\Users\DEVELO~1\AppData\Local\Temp\cc5wr7T7.s 			page 159


 8955 2c4b 562C0000 		.4byte	0x2c56
 8956 2c4f 02       		.uleb128 0x2
 8957 2c50 01       		.uleb128 0x1
 8958 2c51 51       		.byte	0x51
 8959 2c52 02       		.uleb128 0x2
 8960 2c53 76       		.byte	0x76
 8961 2c54 00       		.sleb128 0
 8962 2c55 00       		.byte	0
 8963 2c56 04       		.uleb128 0x4
 8964 2c57 B0020000 		.4byte	.LVL205
 8965 2c5b D8050000 		.4byte	0x5d8
 8966 2c5f 752C0000 		.4byte	0x2c75
 8967 2c63 02       		.uleb128 0x2
 8968 2c64 01       		.uleb128 0x1
 8969 2c65 50       		.byte	0x50
 8970 2c66 04       		.uleb128 0x4
 8971 2c67 77       		.byte	0x77
 8972 2c68 00       		.sleb128 0
 8973 2c69 30       		.byte	0x30
 8974 2c6a 29       		.byte	0x29
 8975 2c6b 02       		.uleb128 0x2
 8976 2c6c 01       		.uleb128 0x1
 8977 2c6d 51       		.byte	0x51
 8978 2c6e 05       		.uleb128 0x5
 8979 2c6f 03       		.byte	0x3
 8980 2c70 0C000000 		.4byte	.LC2
 8981 2c74 00       		.byte	0
 8982 2c75 04       		.uleb128 0x4
 8983 2c76 CC020000 		.4byte	.LVL209
 8984 2c7a D8050000 		.4byte	0x5d8
 8985 2c7e 8C2C0000 		.4byte	0x2c8c
 8986 2c82 02       		.uleb128 0x2
 8987 2c83 01       		.uleb128 0x1
 8988 2c84 51       		.byte	0x51
 8989 2c85 05       		.uleb128 0x5
 8990 2c86 03       		.byte	0x3
 8991 2c87 18000000 		.4byte	.LC3
 8992 2c8b 00       		.byte	0
 8993 2c8c 04       		.uleb128 0x4
 8994 2c8d E6020000 		.4byte	.LVL212
 8995 2c91 D8050000 		.4byte	0x5d8
 8996 2c95 A32C0000 		.4byte	0x2ca3
 8997 2c99 02       		.uleb128 0x2
 8998 2c9a 01       		.uleb128 0x1
 8999 2c9b 51       		.byte	0x51
 9000 2c9c 05       		.uleb128 0x5
 9001 2c9d 03       		.byte	0x3
 9002 2c9e 24000000 		.4byte	.LC4
 9003 2ca2 00       		.byte	0
 9004 2ca3 15       		.uleb128 0x15
 9005 2ca4 FC020000 		.4byte	.LVL213
 9006 2ca8 D8050000 		.4byte	0x5d8
 9007 2cac 02       		.uleb128 0x2
 9008 2cad 01       		.uleb128 0x1
 9009 2cae 51       		.byte	0x51
 9010 2caf 05       		.uleb128 0x5
 9011 2cb0 03       		.byte	0x3
ARM GAS  C:\Users\DEVELO~1\AppData\Local\Temp\cc5wr7T7.s 			page 160


 9012 2cb1 48000000 		.4byte	.LC5
 9013 2cb5 00       		.byte	0
 9014 2cb6 00       		.byte	0
 9015 2cb7 00       		.byte	0
 9016 2cb8 15       		.uleb128 0x15
 9017 2cb9 30000000 		.4byte	.LVL130
 9018 2cbd D8050000 		.4byte	0x5d8
 9019 2cc1 02       		.uleb128 0x2
 9020 2cc2 01       		.uleb128 0x1
 9021 2cc3 51       		.byte	0x51
 9022 2cc4 05       		.uleb128 0x5
 9023 2cc5 03       		.byte	0x3
 9024 2cc6 00000000 		.4byte	.LC1
 9025 2cca 00       		.byte	0
 9026 2ccb 00       		.byte	0
 9027 2ccc 00       		.byte	0
 9028              		.section	.debug_abbrev,"",%progbits
 9029              	.Ldebug_abbrev0:
 9030 0000 01       		.uleb128 0x1
 9031 0001 1D       		.uleb128 0x1d
 9032 0002 01       		.byte	0x1
 9033 0003 31       		.uleb128 0x31
 9034 0004 13       		.uleb128 0x13
 9035 0005 52       		.uleb128 0x52
 9036 0006 01       		.uleb128 0x1
 9037 0007 B842     		.uleb128 0x2138
 9038 0009 05       		.uleb128 0x5
 9039 000a 11       		.uleb128 0x11
 9040 000b 01       		.uleb128 0x1
 9041 000c 12       		.uleb128 0x12
 9042 000d 06       		.uleb128 0x6
 9043 000e 58       		.uleb128 0x58
 9044 000f 0B       		.uleb128 0xb
 9045 0010 59       		.uleb128 0x59
 9046 0011 05       		.uleb128 0x5
 9047 0012 57       		.uleb128 0x57
 9048 0013 21       		.uleb128 0x21
 9049 0014 03       		.sleb128 3
 9050 0015 00       		.byte	0
 9051 0016 00       		.byte	0
 9052 0017 02       		.uleb128 0x2
 9053 0018 49       		.uleb128 0x49
 9054 0019 00       		.byte	0
 9055 001a 02       		.uleb128 0x2
 9056 001b 18       		.uleb128 0x18
 9057 001c 7E       		.uleb128 0x7e
 9058 001d 18       		.uleb128 0x18
 9059 001e 00       		.byte	0
 9060 001f 00       		.byte	0
 9061 0020 03       		.uleb128 0x3
 9062 0021 05       		.uleb128 0x5
 9063 0022 00       		.byte	0
 9064 0023 31       		.uleb128 0x31
 9065 0024 13       		.uleb128 0x13
 9066 0025 02       		.uleb128 0x2
 9067 0026 17       		.uleb128 0x17
 9068 0027 B742     		.uleb128 0x2137
ARM GAS  C:\Users\DEVELO~1\AppData\Local\Temp\cc5wr7T7.s 			page 161


 9069 0029 17       		.uleb128 0x17
 9070 002a 00       		.byte	0
 9071 002b 00       		.byte	0
 9072 002c 04       		.uleb128 0x4
 9073 002d 48       		.uleb128 0x48
 9074 002e 01       		.byte	0x1
 9075 002f 7D       		.uleb128 0x7d
 9076 0030 01       		.uleb128 0x1
 9077 0031 7F       		.uleb128 0x7f
 9078 0032 13       		.uleb128 0x13
 9079 0033 01       		.uleb128 0x1
 9080 0034 13       		.uleb128 0x13
 9081 0035 00       		.byte	0
 9082 0036 00       		.byte	0
 9083 0037 05       		.uleb128 0x5
 9084 0038 1D       		.uleb128 0x1d
 9085 0039 01       		.byte	0x1
 9086 003a 31       		.uleb128 0x31
 9087 003b 13       		.uleb128 0x13
 9088 003c 52       		.uleb128 0x52
 9089 003d 01       		.uleb128 0x1
 9090 003e B842     		.uleb128 0x2138
 9091 0040 05       		.uleb128 0x5
 9092 0041 11       		.uleb128 0x11
 9093 0042 01       		.uleb128 0x1
 9094 0043 12       		.uleb128 0x12
 9095 0044 06       		.uleb128 0x6
 9096 0045 58       		.uleb128 0x58
 9097 0046 21       		.uleb128 0x21
 9098 0047 01       		.sleb128 1
 9099 0048 59       		.uleb128 0x59
 9100 0049 0B       		.uleb128 0xb
 9101 004a 57       		.uleb128 0x57
 9102 004b 21       		.uleb128 0x21
 9103 004c 05       		.sleb128 5
 9104 004d 01       		.uleb128 0x1
 9105 004e 13       		.uleb128 0x13
 9106 004f 00       		.byte	0
 9107 0050 00       		.byte	0
 9108 0051 06       		.uleb128 0x6
 9109 0052 05       		.uleb128 0x5
 9110 0053 00       		.byte	0
 9111 0054 49       		.uleb128 0x49
 9112 0055 13       		.uleb128 0x13
 9113 0056 00       		.byte	0
 9114 0057 00       		.byte	0
 9115 0058 07       		.uleb128 0x7
 9116 0059 1D       		.uleb128 0x1d
 9117 005a 01       		.byte	0x1
 9118 005b 31       		.uleb128 0x31
 9119 005c 13       		.uleb128 0x13
 9120 005d 52       		.uleb128 0x52
 9121 005e 01       		.uleb128 0x1
 9122 005f B842     		.uleb128 0x2138
 9123 0061 05       		.uleb128 0x5
 9124 0062 11       		.uleb128 0x11
 9125 0063 01       		.uleb128 0x1
ARM GAS  C:\Users\DEVELO~1\AppData\Local\Temp\cc5wr7T7.s 			page 162


 9126 0064 12       		.uleb128 0x12
 9127 0065 06       		.uleb128 0x6
 9128 0066 58       		.uleb128 0x58
 9129 0067 21       		.uleb128 0x21
 9130 0068 01       		.sleb128 1
 9131 0069 59       		.uleb128 0x59
 9132 006a 05       		.uleb128 0x5
 9133 006b 57       		.uleb128 0x57
 9134 006c 0B       		.uleb128 0xb
 9135 006d 01       		.uleb128 0x1
 9136 006e 13       		.uleb128 0x13
 9137 006f 00       		.byte	0
 9138 0070 00       		.byte	0
 9139 0071 08       		.uleb128 0x8
 9140 0072 0D       		.uleb128 0xd
 9141 0073 00       		.byte	0
 9142 0074 03       		.uleb128 0x3
 9143 0075 0E       		.uleb128 0xe
 9144 0076 3A       		.uleb128 0x3a
 9145 0077 0B       		.uleb128 0xb
 9146 0078 3B       		.uleb128 0x3b
 9147 0079 0B       		.uleb128 0xb
 9148 007a 39       		.uleb128 0x39
 9149 007b 0B       		.uleb128 0xb
 9150 007c 49       		.uleb128 0x49
 9151 007d 13       		.uleb128 0x13
 9152 007e 38       		.uleb128 0x38
 9153 007f 0B       		.uleb128 0xb
 9154 0080 00       		.byte	0
 9155 0081 00       		.byte	0
 9156 0082 09       		.uleb128 0x9
 9157 0083 1D       		.uleb128 0x1d
 9158 0084 01       		.byte	0x1
 9159 0085 31       		.uleb128 0x31
 9160 0086 13       		.uleb128 0x13
 9161 0087 52       		.uleb128 0x52
 9162 0088 01       		.uleb128 0x1
 9163 0089 B842     		.uleb128 0x2138
 9164 008b 05       		.uleb128 0x5
 9165 008c 55       		.uleb128 0x55
 9166 008d 17       		.uleb128 0x17
 9167 008e 58       		.uleb128 0x58
 9168 008f 0B       		.uleb128 0xb
 9169 0090 59       		.uleb128 0x59
 9170 0091 0B       		.uleb128 0xb
 9171 0092 57       		.uleb128 0x57
 9172 0093 0B       		.uleb128 0xb
 9173 0094 01       		.uleb128 0x1
 9174 0095 13       		.uleb128 0x13
 9175 0096 00       		.byte	0
 9176 0097 00       		.byte	0
 9177 0098 0A       		.uleb128 0xa
 9178 0099 0F       		.uleb128 0xf
 9179 009a 00       		.byte	0
 9180 009b 0B       		.uleb128 0xb
 9181 009c 21       		.uleb128 0x21
 9182 009d 04       		.sleb128 4
ARM GAS  C:\Users\DEVELO~1\AppData\Local\Temp\cc5wr7T7.s 			page 163


 9183 009e 49       		.uleb128 0x49
 9184 009f 13       		.uleb128 0x13
 9185 00a0 00       		.byte	0
 9186 00a1 00       		.byte	0
 9187 00a2 0B       		.uleb128 0xb
 9188 00a3 16       		.uleb128 0x16
 9189 00a4 00       		.byte	0
 9190 00a5 03       		.uleb128 0x3
 9191 00a6 0E       		.uleb128 0xe
 9192 00a7 3A       		.uleb128 0x3a
 9193 00a8 0B       		.uleb128 0xb
 9194 00a9 3B       		.uleb128 0x3b
 9195 00aa 0B       		.uleb128 0xb
 9196 00ab 39       		.uleb128 0x39
 9197 00ac 0B       		.uleb128 0xb
 9198 00ad 49       		.uleb128 0x49
 9199 00ae 13       		.uleb128 0x13
 9200 00af 00       		.byte	0
 9201 00b0 00       		.byte	0
 9202 00b1 0C       		.uleb128 0xc
 9203 00b2 24       		.uleb128 0x24
 9204 00b3 00       		.byte	0
 9205 00b4 0B       		.uleb128 0xb
 9206 00b5 0B       		.uleb128 0xb
 9207 00b6 3E       		.uleb128 0x3e
 9208 00b7 0B       		.uleb128 0xb
 9209 00b8 03       		.uleb128 0x3
 9210 00b9 0E       		.uleb128 0xe
 9211 00ba 00       		.byte	0
 9212 00bb 00       		.byte	0
 9213 00bc 0D       		.uleb128 0xd
 9214 00bd 1D       		.uleb128 0x1d
 9215 00be 01       		.byte	0x1
 9216 00bf 31       		.uleb128 0x31
 9217 00c0 13       		.uleb128 0x13
 9218 00c1 52       		.uleb128 0x52
 9219 00c2 01       		.uleb128 0x1
 9220 00c3 B842     		.uleb128 0x2138
 9221 00c5 05       		.uleb128 0x5
 9222 00c6 55       		.uleb128 0x55
 9223 00c7 17       		.uleb128 0x17
 9224 00c8 58       		.uleb128 0x58
 9225 00c9 0B       		.uleb128 0xb
 9226 00ca 59       		.uleb128 0x59
 9227 00cb 05       		.uleb128 0x5
 9228 00cc 57       		.uleb128 0x57
 9229 00cd 21       		.uleb128 0x21
 9230 00ce 03       		.sleb128 3
 9231 00cf 00       		.byte	0
 9232 00d0 00       		.byte	0
 9233 00d1 0E       		.uleb128 0xe
 9234 00d2 26       		.uleb128 0x26
 9235 00d3 00       		.byte	0
 9236 00d4 49       		.uleb128 0x49
 9237 00d5 13       		.uleb128 0x13
 9238 00d6 00       		.byte	0
 9239 00d7 00       		.byte	0
ARM GAS  C:\Users\DEVELO~1\AppData\Local\Temp\cc5wr7T7.s 			page 164


 9240 00d8 0F       		.uleb128 0xf
 9241 00d9 1D       		.uleb128 0x1d
 9242 00da 01       		.byte	0x1
 9243 00db 31       		.uleb128 0x31
 9244 00dc 13       		.uleb128 0x13
 9245 00dd 52       		.uleb128 0x52
 9246 00de 01       		.uleb128 0x1
 9247 00df B842     		.uleb128 0x2138
 9248 00e1 05       		.uleb128 0x5
 9249 00e2 11       		.uleb128 0x11
 9250 00e3 01       		.uleb128 0x1
 9251 00e4 12       		.uleb128 0x12
 9252 00e5 06       		.uleb128 0x6
 9253 00e6 58       		.uleb128 0x58
 9254 00e7 21       		.uleb128 0x21
 9255 00e8 05       		.sleb128 5
 9256 00e9 59       		.uleb128 0x59
 9257 00ea 21       		.uleb128 0x21
 9258 00eb AB01     		.sleb128 171
 9259 00ed 57       		.uleb128 0x57
 9260 00ee 21       		.uleb128 0x21
 9261 00ef 1E       		.sleb128 30
 9262 00f0 00       		.byte	0
 9263 00f1 00       		.byte	0
 9264 00f2 10       		.uleb128 0x10
 9265 00f3 0D       		.uleb128 0xd
 9266 00f4 00       		.byte	0
 9267 00f5 03       		.uleb128 0x3
 9268 00f6 08       		.uleb128 0x8
 9269 00f7 3A       		.uleb128 0x3a
 9270 00f8 0B       		.uleb128 0xb
 9271 00f9 3B       		.uleb128 0x3b
 9272 00fa 0B       		.uleb128 0xb
 9273 00fb 39       		.uleb128 0x39
 9274 00fc 0B       		.uleb128 0xb
 9275 00fd 49       		.uleb128 0x49
 9276 00fe 13       		.uleb128 0x13
 9277 00ff 38       		.uleb128 0x38
 9278 0100 0B       		.uleb128 0xb
 9279 0101 00       		.byte	0
 9280 0102 00       		.byte	0
 9281 0103 11       		.uleb128 0x11
 9282 0104 2E       		.uleb128 0x2e
 9283 0105 01       		.byte	0x1
 9284 0106 3F       		.uleb128 0x3f
 9285 0107 19       		.uleb128 0x19
 9286 0108 03       		.uleb128 0x3
 9287 0109 0E       		.uleb128 0xe
 9288 010a 3A       		.uleb128 0x3a
 9289 010b 21       		.uleb128 0x21
 9290 010c 05       		.sleb128 5
 9291 010d 3B       		.uleb128 0x3b
 9292 010e 0B       		.uleb128 0xb
 9293 010f 39       		.uleb128 0x39
 9294 0110 21       		.uleb128 0x21
 9295 0111 09       		.sleb128 9
 9296 0112 27       		.uleb128 0x27
ARM GAS  C:\Users\DEVELO~1\AppData\Local\Temp\cc5wr7T7.s 			page 165


 9297 0113 19       		.uleb128 0x19
 9298 0114 49       		.uleb128 0x49
 9299 0115 13       		.uleb128 0x13
 9300 0116 3C       		.uleb128 0x3c
 9301 0117 19       		.uleb128 0x19
 9302 0118 01       		.uleb128 0x1
 9303 0119 13       		.uleb128 0x13
 9304 011a 00       		.byte	0
 9305 011b 00       		.byte	0
 9306 011c 12       		.uleb128 0x12
 9307 011d 34       		.uleb128 0x34
 9308 011e 00       		.byte	0
 9309 011f 31       		.uleb128 0x31
 9310 0120 13       		.uleb128 0x13
 9311 0121 00       		.byte	0
 9312 0122 00       		.byte	0
 9313 0123 13       		.uleb128 0x13
 9314 0124 13       		.uleb128 0x13
 9315 0125 01       		.byte	0x1
 9316 0126 0B       		.uleb128 0xb
 9317 0127 0B       		.uleb128 0xb
 9318 0128 3A       		.uleb128 0x3a
 9319 0129 0B       		.uleb128 0xb
 9320 012a 3B       		.uleb128 0x3b
 9321 012b 0B       		.uleb128 0xb
 9322 012c 39       		.uleb128 0x39
 9323 012d 21       		.uleb128 0x21
 9324 012e 09       		.sleb128 9
 9325 012f 01       		.uleb128 0x1
 9326 0130 13       		.uleb128 0x13
 9327 0131 00       		.byte	0
 9328 0132 00       		.byte	0
 9329 0133 14       		.uleb128 0x14
 9330 0134 15       		.uleb128 0x15
 9331 0135 01       		.byte	0x1
 9332 0136 27       		.uleb128 0x27
 9333 0137 19       		.uleb128 0x19
 9334 0138 49       		.uleb128 0x49
 9335 0139 13       		.uleb128 0x13
 9336 013a 01       		.uleb128 0x1
 9337 013b 13       		.uleb128 0x13
 9338 013c 00       		.byte	0
 9339 013d 00       		.byte	0
 9340 013e 15       		.uleb128 0x15
 9341 013f 48       		.uleb128 0x48
 9342 0140 01       		.byte	0x1
 9343 0141 7D       		.uleb128 0x7d
 9344 0142 01       		.uleb128 0x1
 9345 0143 7F       		.uleb128 0x7f
 9346 0144 13       		.uleb128 0x13
 9347 0145 00       		.byte	0
 9348 0146 00       		.byte	0
 9349 0147 16       		.uleb128 0x16
 9350 0148 2E       		.uleb128 0x2e
 9351 0149 00       		.byte	0
 9352 014a 03       		.uleb128 0x3
 9353 014b 0E       		.uleb128 0xe
ARM GAS  C:\Users\DEVELO~1\AppData\Local\Temp\cc5wr7T7.s 			page 166


 9354 014c 3A       		.uleb128 0x3a
 9355 014d 0B       		.uleb128 0xb
 9356 014e 3B       		.uleb128 0x3b
 9357 014f 05       		.uleb128 0x5
 9358 0150 39       		.uleb128 0x39
 9359 0151 0B       		.uleb128 0xb
 9360 0152 27       		.uleb128 0x27
 9361 0153 19       		.uleb128 0x19
 9362 0154 20       		.uleb128 0x20
 9363 0155 21       		.uleb128 0x21
 9364 0156 03       		.sleb128 3
 9365 0157 00       		.byte	0
 9366 0158 00       		.byte	0
 9367 0159 17       		.uleb128 0x17
 9368 015a 01       		.uleb128 0x1
 9369 015b 01       		.byte	0x1
 9370 015c 49       		.uleb128 0x49
 9371 015d 13       		.uleb128 0x13
 9372 015e 01       		.uleb128 0x1
 9373 015f 13       		.uleb128 0x13
 9374 0160 00       		.byte	0
 9375 0161 00       		.byte	0
 9376 0162 18       		.uleb128 0x18
 9377 0163 21       		.uleb128 0x21
 9378 0164 00       		.byte	0
 9379 0165 49       		.uleb128 0x49
 9380 0166 13       		.uleb128 0x13
 9381 0167 2F       		.uleb128 0x2f
 9382 0168 0B       		.uleb128 0xb
 9383 0169 00       		.byte	0
 9384 016a 00       		.byte	0
 9385 016b 19       		.uleb128 0x19
 9386 016c 1D       		.uleb128 0x1d
 9387 016d 01       		.byte	0x1
 9388 016e 31       		.uleb128 0x31
 9389 016f 13       		.uleb128 0x13
 9390 0170 52       		.uleb128 0x52
 9391 0171 01       		.uleb128 0x1
 9392 0172 B842     		.uleb128 0x2138
 9393 0174 05       		.uleb128 0x5
 9394 0175 55       		.uleb128 0x55
 9395 0176 17       		.uleb128 0x17
 9396 0177 58       		.uleb128 0x58
 9397 0178 21       		.uleb128 0x21
 9398 0179 01       		.sleb128 1
 9399 017a 59       		.uleb128 0x59
 9400 017b 05       		.uleb128 0x5
 9401 017c 57       		.uleb128 0x57
 9402 017d 0B       		.uleb128 0xb
 9403 017e 01       		.uleb128 0x1
 9404 017f 13       		.uleb128 0x13
 9405 0180 00       		.byte	0
 9406 0181 00       		.byte	0
 9407 0182 1A       		.uleb128 0x1a
 9408 0183 34       		.uleb128 0x34
 9409 0184 00       		.byte	0
 9410 0185 03       		.uleb128 0x3
ARM GAS  C:\Users\DEVELO~1\AppData\Local\Temp\cc5wr7T7.s 			page 167


 9411 0186 0E       		.uleb128 0xe
 9412 0187 3A       		.uleb128 0x3a
 9413 0188 21       		.uleb128 0x21
 9414 0189 01       		.sleb128 1
 9415 018a 3B       		.uleb128 0x3b
 9416 018b 0B       		.uleb128 0xb
 9417 018c 39       		.uleb128 0x39
 9418 018d 0B       		.uleb128 0xb
 9419 018e 49       		.uleb128 0x49
 9420 018f 13       		.uleb128 0x13
 9421 0190 00       		.byte	0
 9422 0191 00       		.byte	0
 9423 0192 1B       		.uleb128 0x1b
 9424 0193 05       		.uleb128 0x5
 9425 0194 00       		.byte	0
 9426 0195 03       		.uleb128 0x3
 9427 0196 08       		.uleb128 0x8
 9428 0197 3A       		.uleb128 0x3a
 9429 0198 21       		.uleb128 0x21
 9430 0199 05       		.sleb128 5
 9431 019a 3B       		.uleb128 0x3b
 9432 019b 0B       		.uleb128 0xb
 9433 019c 39       		.uleb128 0x39
 9434 019d 0B       		.uleb128 0xb
 9435 019e 49       		.uleb128 0x49
 9436 019f 13       		.uleb128 0x13
 9437 01a0 00       		.byte	0
 9438 01a1 00       		.byte	0
 9439 01a2 1C       		.uleb128 0x1c
 9440 01a3 34       		.uleb128 0x34
 9441 01a4 00       		.byte	0
 9442 01a5 31       		.uleb128 0x31
 9443 01a6 13       		.uleb128 0x13
 9444 01a7 02       		.uleb128 0x2
 9445 01a8 17       		.uleb128 0x17
 9446 01a9 B742     		.uleb128 0x2137
 9447 01ab 17       		.uleb128 0x17
 9448 01ac 00       		.byte	0
 9449 01ad 00       		.byte	0
 9450 01ae 1D       		.uleb128 0x1d
 9451 01af 13       		.uleb128 0x13
 9452 01b0 01       		.byte	0x1
 9453 01b1 03       		.uleb128 0x3
 9454 01b2 0E       		.uleb128 0xe
 9455 01b3 0B       		.uleb128 0xb
 9456 01b4 0B       		.uleb128 0xb
 9457 01b5 3A       		.uleb128 0x3a
 9458 01b6 0B       		.uleb128 0xb
 9459 01b7 3B       		.uleb128 0x3b
 9460 01b8 0B       		.uleb128 0xb
 9461 01b9 39       		.uleb128 0x39
 9462 01ba 0B       		.uleb128 0xb
 9463 01bb 01       		.uleb128 0x1
 9464 01bc 13       		.uleb128 0x13
 9465 01bd 00       		.byte	0
 9466 01be 00       		.byte	0
 9467 01bf 1E       		.uleb128 0x1e
ARM GAS  C:\Users\DEVELO~1\AppData\Local\Temp\cc5wr7T7.s 			page 168


 9468 01c0 34       		.uleb128 0x34
 9469 01c1 00       		.byte	0
 9470 01c2 03       		.uleb128 0x3
 9471 01c3 0E       		.uleb128 0xe
 9472 01c4 3A       		.uleb128 0x3a
 9473 01c5 21       		.uleb128 0x21
 9474 01c6 01       		.sleb128 1
 9475 01c7 3B       		.uleb128 0x3b
 9476 01c8 05       		.uleb128 0x5
 9477 01c9 39       		.uleb128 0x39
 9478 01ca 0B       		.uleb128 0xb
 9479 01cb 49       		.uleb128 0x49
 9480 01cc 13       		.uleb128 0x13
 9481 01cd 02       		.uleb128 0x2
 9482 01ce 18       		.uleb128 0x18
 9483 01cf 00       		.byte	0
 9484 01d0 00       		.byte	0
 9485 01d1 1F       		.uleb128 0x1f
 9486 01d2 2E       		.uleb128 0x2e
 9487 01d3 01       		.byte	0x1
 9488 01d4 3F       		.uleb128 0x3f
 9489 01d5 19       		.uleb128 0x19
 9490 01d6 03       		.uleb128 0x3
 9491 01d7 0E       		.uleb128 0xe
 9492 01d8 3A       		.uleb128 0x3a
 9493 01d9 21       		.uleb128 0x21
 9494 01da 05       		.sleb128 5
 9495 01db 3B       		.uleb128 0x3b
 9496 01dc 0B       		.uleb128 0xb
 9497 01dd 39       		.uleb128 0x39
 9498 01de 21       		.uleb128 0x21
 9499 01df 08       		.sleb128 8
 9500 01e0 27       		.uleb128 0x27
 9501 01e1 19       		.uleb128 0x19
 9502 01e2 3C       		.uleb128 0x3c
 9503 01e3 19       		.uleb128 0x19
 9504 01e4 01       		.uleb128 0x1
 9505 01e5 13       		.uleb128 0x13
 9506 01e6 00       		.byte	0
 9507 01e7 00       		.byte	0
 9508 01e8 20       		.uleb128 0x20
 9509 01e9 2E       		.uleb128 0x2e
 9510 01ea 01       		.byte	0x1
 9511 01eb 03       		.uleb128 0x3
 9512 01ec 0E       		.uleb128 0xe
 9513 01ed 3A       		.uleb128 0x3a
 9514 01ee 0B       		.uleb128 0xb
 9515 01ef 3B       		.uleb128 0x3b
 9516 01f0 0B       		.uleb128 0xb
 9517 01f1 39       		.uleb128 0x39
 9518 01f2 0B       		.uleb128 0xb
 9519 01f3 27       		.uleb128 0x27
 9520 01f4 19       		.uleb128 0x19
 9521 01f5 20       		.uleb128 0x20
 9522 01f6 0B       		.uleb128 0xb
 9523 01f7 01       		.uleb128 0x1
 9524 01f8 13       		.uleb128 0x13
ARM GAS  C:\Users\DEVELO~1\AppData\Local\Temp\cc5wr7T7.s 			page 169


 9525 01f9 00       		.byte	0
 9526 01fa 00       		.byte	0
 9527 01fb 21       		.uleb128 0x21
 9528 01fc 2E       		.uleb128 0x2e
 9529 01fd 01       		.byte	0x1
 9530 01fe 03       		.uleb128 0x3
 9531 01ff 0E       		.uleb128 0xe
 9532 0200 3A       		.uleb128 0x3a
 9533 0201 21       		.uleb128 0x21
 9534 0202 05       		.sleb128 5
 9535 0203 3B       		.uleb128 0x3b
 9536 0204 0B       		.uleb128 0xb
 9537 0205 39       		.uleb128 0x39
 9538 0206 21       		.uleb128 0x21
 9539 0207 16       		.sleb128 22
 9540 0208 27       		.uleb128 0x27
 9541 0209 19       		.uleb128 0x19
 9542 020a 49       		.uleb128 0x49
 9543 020b 13       		.uleb128 0x13
 9544 020c 20       		.uleb128 0x20
 9545 020d 21       		.uleb128 0x21
 9546 020e 03       		.sleb128 3
 9547 020f 01       		.uleb128 0x1
 9548 0210 13       		.uleb128 0x13
 9549 0211 00       		.byte	0
 9550 0212 00       		.byte	0
 9551 0213 22       		.uleb128 0x22
 9552 0214 2E       		.uleb128 0x2e
 9553 0215 01       		.byte	0x1
 9554 0216 31       		.uleb128 0x31
 9555 0217 13       		.uleb128 0x13
 9556 0218 11       		.uleb128 0x11
 9557 0219 01       		.uleb128 0x1
 9558 021a 12       		.uleb128 0x12
 9559 021b 06       		.uleb128 0x6
 9560 021c 40       		.uleb128 0x40
 9561 021d 18       		.uleb128 0x18
 9562 021e 7A       		.uleb128 0x7a
 9563 021f 19       		.uleb128 0x19
 9564 0220 01       		.uleb128 0x1
 9565 0221 13       		.uleb128 0x13
 9566 0222 00       		.byte	0
 9567 0223 00       		.byte	0
 9568 0224 23       		.uleb128 0x23
 9569 0225 34       		.uleb128 0x34
 9570 0226 00       		.byte	0
 9571 0227 03       		.uleb128 0x3
 9572 0228 0E       		.uleb128 0xe
 9573 0229 3A       		.uleb128 0x3a
 9574 022a 21       		.uleb128 0x21
 9575 022b 01       		.sleb128 1
 9576 022c 3B       		.uleb128 0x3b
 9577 022d 0B       		.uleb128 0xb
 9578 022e 39       		.uleb128 0x39
 9579 022f 0B       		.uleb128 0xb
 9580 0230 49       		.uleb128 0x49
 9581 0231 13       		.uleb128 0x13
ARM GAS  C:\Users\DEVELO~1\AppData\Local\Temp\cc5wr7T7.s 			page 170


 9582 0232 02       		.uleb128 0x2
 9583 0233 18       		.uleb128 0x18
 9584 0234 00       		.byte	0
 9585 0235 00       		.byte	0
 9586 0236 24       		.uleb128 0x24
 9587 0237 2E       		.uleb128 0x2e
 9588 0238 01       		.byte	0x1
 9589 0239 3F       		.uleb128 0x3f
 9590 023a 19       		.uleb128 0x19
 9591 023b 03       		.uleb128 0x3
 9592 023c 0E       		.uleb128 0xe
 9593 023d 3A       		.uleb128 0x3a
 9594 023e 21       		.uleb128 0x21
 9595 023f 0F       		.sleb128 15
 9596 0240 3B       		.uleb128 0x3b
 9597 0241 05       		.uleb128 0x5
 9598 0242 39       		.uleb128 0x39
 9599 0243 21       		.uleb128 0x21
 9600 0244 08       		.sleb128 8
 9601 0245 27       		.uleb128 0x27
 9602 0246 19       		.uleb128 0x19
 9603 0247 49       		.uleb128 0x49
 9604 0248 13       		.uleb128 0x13
 9605 0249 3C       		.uleb128 0x3c
 9606 024a 19       		.uleb128 0x19
 9607 024b 01       		.uleb128 0x1
 9608 024c 13       		.uleb128 0x13
 9609 024d 00       		.byte	0
 9610 024e 00       		.byte	0
 9611 024f 25       		.uleb128 0x25
 9612 0250 2E       		.uleb128 0x2e
 9613 0251 00       		.byte	0
 9614 0252 03       		.uleb128 0x3
 9615 0253 0E       		.uleb128 0xe
 9616 0254 3A       		.uleb128 0x3a
 9617 0255 21       		.uleb128 0x21
 9618 0256 01       		.sleb128 1
 9619 0257 3B       		.uleb128 0x3b
 9620 0258 05       		.uleb128 0x5
 9621 0259 39       		.uleb128 0x39
 9622 025a 21       		.uleb128 0x21
 9623 025b 0D       		.sleb128 13
 9624 025c 27       		.uleb128 0x27
 9625 025d 19       		.uleb128 0x19
 9626 025e 00       		.byte	0
 9627 025f 00       		.byte	0
 9628 0260 26       		.uleb128 0x26
 9629 0261 34       		.uleb128 0x34
 9630 0262 00       		.byte	0
 9631 0263 03       		.uleb128 0x3
 9632 0264 08       		.uleb128 0x8
 9633 0265 3A       		.uleb128 0x3a
 9634 0266 21       		.uleb128 0x21
 9635 0267 01       		.sleb128 1
 9636 0268 3B       		.uleb128 0x3b
 9637 0269 0B       		.uleb128 0xb
 9638 026a 39       		.uleb128 0x39
ARM GAS  C:\Users\DEVELO~1\AppData\Local\Temp\cc5wr7T7.s 			page 171


 9639 026b 21       		.uleb128 0x21
 9640 026c 0C       		.sleb128 12
 9641 026d 49       		.uleb128 0x49
 9642 026e 13       		.uleb128 0x13
 9643 026f 00       		.byte	0
 9644 0270 00       		.byte	0
 9645 0271 27       		.uleb128 0x27
 9646 0272 2E       		.uleb128 0x2e
 9647 0273 00       		.byte	0
 9648 0274 03       		.uleb128 0x3
 9649 0275 0E       		.uleb128 0xe
 9650 0276 3A       		.uleb128 0x3a
 9651 0277 21       		.uleb128 0x21
 9652 0278 01       		.sleb128 1
 9653 0279 3B       		.uleb128 0x3b
 9654 027a 0B       		.uleb128 0xb
 9655 027b 39       		.uleb128 0x39
 9656 027c 21       		.uleb128 0x21
 9657 027d 0D       		.sleb128 13
 9658 027e 27       		.uleb128 0x27
 9659 027f 19       		.uleb128 0x19
 9660 0280 00       		.byte	0
 9661 0281 00       		.byte	0
 9662 0282 28       		.uleb128 0x28
 9663 0283 2E       		.uleb128 0x2e
 9664 0284 00       		.byte	0
 9665 0285 03       		.uleb128 0x3
 9666 0286 0E       		.uleb128 0xe
 9667 0287 3A       		.uleb128 0x3a
 9668 0288 21       		.uleb128 0x21
 9669 0289 01       		.sleb128 1
 9670 028a 3B       		.uleb128 0x3b
 9671 028b 0B       		.uleb128 0xb
 9672 028c 39       		.uleb128 0x39
 9673 028d 21       		.uleb128 0x21
 9674 028e 0D       		.sleb128 13
 9675 028f 27       		.uleb128 0x27
 9676 0290 19       		.uleb128 0x19
 9677 0291 20       		.uleb128 0x20
 9678 0292 21       		.uleb128 0x21
 9679 0293 01       		.sleb128 1
 9680 0294 00       		.byte	0
 9681 0295 00       		.byte	0
 9682 0296 29       		.uleb128 0x29
 9683 0297 2E       		.uleb128 0x2e
 9684 0298 01       		.byte	0x1
 9685 0299 03       		.uleb128 0x3
 9686 029a 0E       		.uleb128 0xe
 9687 029b 3A       		.uleb128 0x3a
 9688 029c 0B       		.uleb128 0xb
 9689 029d 3B       		.uleb128 0x3b
 9690 029e 05       		.uleb128 0x5
 9691 029f 39       		.uleb128 0x39
 9692 02a0 0B       		.uleb128 0xb
 9693 02a1 27       		.uleb128 0x27
 9694 02a2 19       		.uleb128 0x19
 9695 02a3 20       		.uleb128 0x20
ARM GAS  C:\Users\DEVELO~1\AppData\Local\Temp\cc5wr7T7.s 			page 172


 9696 02a4 21       		.uleb128 0x21
 9697 02a5 03       		.sleb128 3
 9698 02a6 01       		.uleb128 0x1
 9699 02a7 13       		.uleb128 0x13
 9700 02a8 00       		.byte	0
 9701 02a9 00       		.byte	0
 9702 02aa 2A       		.uleb128 0x2a
 9703 02ab 48       		.uleb128 0x48
 9704 02ac 01       		.byte	0x1
 9705 02ad 7D       		.uleb128 0x7d
 9706 02ae 01       		.uleb128 0x1
 9707 02af 8201     		.uleb128 0x82
 9708 02b1 19       		.uleb128 0x19
 9709 02b2 7F       		.uleb128 0x7f
 9710 02b3 13       		.uleb128 0x13
 9711 02b4 00       		.byte	0
 9712 02b5 00       		.byte	0
 9713 02b6 2B       		.uleb128 0x2b
 9714 02b7 0B       		.uleb128 0xb
 9715 02b8 01       		.byte	0x1
 9716 02b9 55       		.uleb128 0x55
 9717 02ba 17       		.uleb128 0x17
 9718 02bb 00       		.byte	0
 9719 02bc 00       		.byte	0
 9720 02bd 2C       		.uleb128 0x2c
 9721 02be 34       		.uleb128 0x34
 9722 02bf 00       		.byte	0
 9723 02c0 31       		.uleb128 0x31
 9724 02c1 13       		.uleb128 0x13
 9725 02c2 02       		.uleb128 0x2
 9726 02c3 18       		.uleb128 0x18
 9727 02c4 00       		.byte	0
 9728 02c5 00       		.byte	0
 9729 02c6 2D       		.uleb128 0x2d
 9730 02c7 48       		.uleb128 0x48
 9731 02c8 00       		.byte	0
 9732 02c9 7D       		.uleb128 0x7d
 9733 02ca 01       		.uleb128 0x1
 9734 02cb 7F       		.uleb128 0x7f
 9735 02cc 13       		.uleb128 0x13
 9736 02cd 00       		.byte	0
 9737 02ce 00       		.byte	0
 9738 02cf 2E       		.uleb128 0x2e
 9739 02d0 11       		.uleb128 0x11
 9740 02d1 01       		.byte	0x1
 9741 02d2 25       		.uleb128 0x25
 9742 02d3 0E       		.uleb128 0xe
 9743 02d4 13       		.uleb128 0x13
 9744 02d5 0B       		.uleb128 0xb
 9745 02d6 03       		.uleb128 0x3
 9746 02d7 0E       		.uleb128 0xe
 9747 02d8 1B       		.uleb128 0x1b
 9748 02d9 0E       		.uleb128 0xe
 9749 02da 55       		.uleb128 0x55
 9750 02db 17       		.uleb128 0x17
 9751 02dc 11       		.uleb128 0x11
 9752 02dd 01       		.uleb128 0x1
ARM GAS  C:\Users\DEVELO~1\AppData\Local\Temp\cc5wr7T7.s 			page 173


 9753 02de 10       		.uleb128 0x10
 9754 02df 17       		.uleb128 0x17
 9755 02e0 00       		.byte	0
 9756 02e1 00       		.byte	0
 9757 02e2 2F       		.uleb128 0x2f
 9758 02e3 24       		.uleb128 0x24
 9759 02e4 00       		.byte	0
 9760 02e5 0B       		.uleb128 0xb
 9761 02e6 0B       		.uleb128 0xb
 9762 02e7 3E       		.uleb128 0x3e
 9763 02e8 0B       		.uleb128 0xb
 9764 02e9 03       		.uleb128 0x3
 9765 02ea 08       		.uleb128 0x8
 9766 02eb 00       		.byte	0
 9767 02ec 00       		.byte	0
 9768 02ed 30       		.uleb128 0x30
 9769 02ee 0F       		.uleb128 0xf
 9770 02ef 00       		.byte	0
 9771 02f0 0B       		.uleb128 0xb
 9772 02f1 0B       		.uleb128 0xb
 9773 02f2 00       		.byte	0
 9774 02f3 00       		.byte	0
 9775 02f4 31       		.uleb128 0x31
 9776 02f5 15       		.uleb128 0x15
 9777 02f6 00       		.byte	0
 9778 02f7 27       		.uleb128 0x27
 9779 02f8 19       		.uleb128 0x19
 9780 02f9 00       		.byte	0
 9781 02fa 00       		.byte	0
 9782 02fb 32       		.uleb128 0x32
 9783 02fc 34       		.uleb128 0x34
 9784 02fd 00       		.byte	0
 9785 02fe 03       		.uleb128 0x3
 9786 02ff 0E       		.uleb128 0xe
 9787 0300 3A       		.uleb128 0x3a
 9788 0301 0B       		.uleb128 0xb
 9789 0302 3B       		.uleb128 0x3b
 9790 0303 05       		.uleb128 0x5
 9791 0304 39       		.uleb128 0x39
 9792 0305 0B       		.uleb128 0xb
 9793 0306 49       		.uleb128 0x49
 9794 0307 13       		.uleb128 0x13
 9795 0308 3F       		.uleb128 0x3f
 9796 0309 19       		.uleb128 0x19
 9797 030a 3C       		.uleb128 0x3c
 9798 030b 19       		.uleb128 0x19
 9799 030c 00       		.byte	0
 9800 030d 00       		.byte	0
 9801 030e 33       		.uleb128 0x33
 9802 030f 34       		.uleb128 0x34
 9803 0310 00       		.byte	0
 9804 0311 03       		.uleb128 0x3
 9805 0312 0E       		.uleb128 0xe
 9806 0313 3A       		.uleb128 0x3a
 9807 0314 0B       		.uleb128 0xb
 9808 0315 3B       		.uleb128 0x3b
 9809 0316 0B       		.uleb128 0xb
ARM GAS  C:\Users\DEVELO~1\AppData\Local\Temp\cc5wr7T7.s 			page 174


 9810 0317 39       		.uleb128 0x39
 9811 0318 0B       		.uleb128 0xb
 9812 0319 49       		.uleb128 0x49
 9813 031a 13       		.uleb128 0x13
 9814 031b 3F       		.uleb128 0x3f
 9815 031c 19       		.uleb128 0x19
 9816 031d 3C       		.uleb128 0x3c
 9817 031e 19       		.uleb128 0x19
 9818 031f 00       		.byte	0
 9819 0320 00       		.byte	0
 9820 0321 34       		.uleb128 0x34
 9821 0322 34       		.uleb128 0x34
 9822 0323 00       		.byte	0
 9823 0324 03       		.uleb128 0x3
 9824 0325 08       		.uleb128 0x8
 9825 0326 3A       		.uleb128 0x3a
 9826 0327 0B       		.uleb128 0xb
 9827 0328 3B       		.uleb128 0x3b
 9828 0329 0B       		.uleb128 0xb
 9829 032a 39       		.uleb128 0x39
 9830 032b 0B       		.uleb128 0xb
 9831 032c 49       		.uleb128 0x49
 9832 032d 13       		.uleb128 0x13
 9833 032e 02       		.uleb128 0x2
 9834 032f 18       		.uleb128 0x18
 9835 0330 00       		.byte	0
 9836 0331 00       		.byte	0
 9837 0332 35       		.uleb128 0x35
 9838 0333 34       		.uleb128 0x34
 9839 0334 00       		.byte	0
 9840 0335 03       		.uleb128 0x3
 9841 0336 0E       		.uleb128 0xe
 9842 0337 3A       		.uleb128 0x3a
 9843 0338 0B       		.uleb128 0xb
 9844 0339 3B       		.uleb128 0x3b
 9845 033a 05       		.uleb128 0x5
 9846 033b 39       		.uleb128 0x39
 9847 033c 0B       		.uleb128 0xb
 9848 033d 49       		.uleb128 0x49
 9849 033e 13       		.uleb128 0x13
 9850 033f 3F       		.uleb128 0x3f
 9851 0340 19       		.uleb128 0x19
 9852 0341 02       		.uleb128 0x2
 9853 0342 18       		.uleb128 0x18
 9854 0343 00       		.byte	0
 9855 0344 00       		.byte	0
 9856 0345 36       		.uleb128 0x36
 9857 0346 34       		.uleb128 0x34
 9858 0347 00       		.byte	0
 9859 0348 47       		.uleb128 0x47
 9860 0349 13       		.uleb128 0x13
 9861 034a 3A       		.uleb128 0x3a
 9862 034b 0B       		.uleb128 0xb
 9863 034c 3B       		.uleb128 0x3b
 9864 034d 05       		.uleb128 0x5
 9865 034e 39       		.uleb128 0x39
 9866 034f 0B       		.uleb128 0xb
ARM GAS  C:\Users\DEVELO~1\AppData\Local\Temp\cc5wr7T7.s 			page 175


 9867 0350 02       		.uleb128 0x2
 9868 0351 18       		.uleb128 0x18
 9869 0352 00       		.byte	0
 9870 0353 00       		.byte	0
 9871 0354 37       		.uleb128 0x37
 9872 0355 2E       		.uleb128 0x2e
 9873 0356 01       		.byte	0x1
 9874 0357 3F       		.uleb128 0x3f
 9875 0358 19       		.uleb128 0x19
 9876 0359 03       		.uleb128 0x3
 9877 035a 0E       		.uleb128 0xe
 9878 035b 3A       		.uleb128 0x3a
 9879 035c 0B       		.uleb128 0xb
 9880 035d 3B       		.uleb128 0x3b
 9881 035e 05       		.uleb128 0x5
 9882 035f 39       		.uleb128 0x39
 9883 0360 0B       		.uleb128 0xb
 9884 0361 27       		.uleb128 0x27
 9885 0362 19       		.uleb128 0x19
 9886 0363 3C       		.uleb128 0x3c
 9887 0364 19       		.uleb128 0x19
 9888 0365 01       		.uleb128 0x1
 9889 0366 13       		.uleb128 0x13
 9890 0367 00       		.byte	0
 9891 0368 00       		.byte	0
 9892 0369 38       		.uleb128 0x38
 9893 036a 2E       		.uleb128 0x2e
 9894 036b 01       		.byte	0x1
 9895 036c 03       		.uleb128 0x3
 9896 036d 0E       		.uleb128 0xe
 9897 036e 3A       		.uleb128 0x3a
 9898 036f 0B       		.uleb128 0xb
 9899 0370 3B       		.uleb128 0x3b
 9900 0371 05       		.uleb128 0x5
 9901 0372 39       		.uleb128 0x39
 9902 0373 0B       		.uleb128 0xb
 9903 0374 27       		.uleb128 0x27
 9904 0375 19       		.uleb128 0x19
 9905 0376 11       		.uleb128 0x11
 9906 0377 01       		.uleb128 0x1
 9907 0378 12       		.uleb128 0x12
 9908 0379 06       		.uleb128 0x6
 9909 037a 40       		.uleb128 0x40
 9910 037b 18       		.uleb128 0x18
 9911 037c 7A       		.uleb128 0x7a
 9912 037d 19       		.uleb128 0x19
 9913 037e 01       		.uleb128 0x1
 9914 037f 13       		.uleb128 0x13
 9915 0380 00       		.byte	0
 9916 0381 00       		.byte	0
 9917 0382 39       		.uleb128 0x39
 9918 0383 34       		.uleb128 0x34
 9919 0384 00       		.byte	0
 9920 0385 03       		.uleb128 0x3
 9921 0386 0E       		.uleb128 0xe
 9922 0387 3A       		.uleb128 0x3a
 9923 0388 0B       		.uleb128 0xb
ARM GAS  C:\Users\DEVELO~1\AppData\Local\Temp\cc5wr7T7.s 			page 176


 9924 0389 3B       		.uleb128 0x3b
 9925 038a 05       		.uleb128 0x5
 9926 038b 39       		.uleb128 0x39
 9927 038c 0B       		.uleb128 0xb
 9928 038d 49       		.uleb128 0x49
 9929 038e 13       		.uleb128 0x13
 9930 038f 02       		.uleb128 0x2
 9931 0390 17       		.uleb128 0x17
 9932 0391 B742     		.uleb128 0x2137
 9933 0393 17       		.uleb128 0x17
 9934 0394 00       		.byte	0
 9935 0395 00       		.byte	0
 9936 0396 3A       		.uleb128 0x3a
 9937 0397 34       		.uleb128 0x34
 9938 0398 00       		.byte	0
 9939 0399 03       		.uleb128 0x3
 9940 039a 08       		.uleb128 0x8
 9941 039b 3A       		.uleb128 0x3a
 9942 039c 0B       		.uleb128 0xb
 9943 039d 3B       		.uleb128 0x3b
 9944 039e 05       		.uleb128 0x5
 9945 039f 39       		.uleb128 0x39
 9946 03a0 0B       		.uleb128 0xb
 9947 03a1 49       		.uleb128 0x49
 9948 03a2 13       		.uleb128 0x13
 9949 03a3 02       		.uleb128 0x2
 9950 03a4 17       		.uleb128 0x17
 9951 03a5 B742     		.uleb128 0x2137
 9952 03a7 17       		.uleb128 0x17
 9953 03a8 00       		.byte	0
 9954 03a9 00       		.byte	0
 9955 03aa 3B       		.uleb128 0x3b
 9956 03ab 34       		.uleb128 0x34
 9957 03ac 00       		.byte	0
 9958 03ad 03       		.uleb128 0x3
 9959 03ae 0E       		.uleb128 0xe
 9960 03af 49       		.uleb128 0x49
 9961 03b0 13       		.uleb128 0x13
 9962 03b1 34       		.uleb128 0x34
 9963 03b2 19       		.uleb128 0x19
 9964 03b3 00       		.byte	0
 9965 03b4 00       		.byte	0
 9966 03b5 3C       		.uleb128 0x3c
 9967 03b6 05       		.uleb128 0x5
 9968 03b7 00       		.byte	0
 9969 03b8 03       		.uleb128 0x3
 9970 03b9 0E       		.uleb128 0xe
 9971 03ba 3A       		.uleb128 0x3a
 9972 03bb 0B       		.uleb128 0xb
 9973 03bc 3B       		.uleb128 0x3b
 9974 03bd 05       		.uleb128 0x5
 9975 03be 39       		.uleb128 0x39
 9976 03bf 0B       		.uleb128 0xb
 9977 03c0 49       		.uleb128 0x49
 9978 03c1 13       		.uleb128 0x13
 9979 03c2 00       		.byte	0
 9980 03c3 00       		.byte	0
ARM GAS  C:\Users\DEVELO~1\AppData\Local\Temp\cc5wr7T7.s 			page 177


 9981 03c4 3D       		.uleb128 0x3d
 9982 03c5 2E       		.uleb128 0x2e
 9983 03c6 01       		.byte	0x1
 9984 03c7 31       		.uleb128 0x31
 9985 03c8 13       		.uleb128 0x13
 9986 03c9 11       		.uleb128 0x11
 9987 03ca 01       		.uleb128 0x1
 9988 03cb 12       		.uleb128 0x12
 9989 03cc 06       		.uleb128 0x6
 9990 03cd 40       		.uleb128 0x40
 9991 03ce 18       		.uleb128 0x18
 9992 03cf 7A       		.uleb128 0x7a
 9993 03d0 19       		.uleb128 0x19
 9994 03d1 00       		.byte	0
 9995 03d2 00       		.byte	0
 9996 03d3 00       		.byte	0
 9997              		.section	.debug_loclists,"",%progbits
 9998 0000 0D070000 		.4byte	.Ldebug_loc3-.Ldebug_loc2
 9999              	.Ldebug_loc2:
 10000 0004 0500     		.2byte	0x5
 10001 0006 04       		.byte	0x4
 10002 0007 00       		.byte	0
 10003 0008 00000000 		.4byte	0
 10004              	.Ldebug_loc0:
 10005              	.LVUS0:
 10006 000c 00       		.uleb128 .LVU18
 10007 000d 00       		.uleb128 .LVU19
 10008 000e 00       		.uleb128 .LVU32
 10009 000f 00       		.uleb128 .LVU33
 10010 0010 00       		.uleb128 .LVU33
 10011 0011 00       		.uleb128 .LVU34
 10012 0012 00       		.uleb128 .LVU49
 10013 0013 00       		.uleb128 .LVU63
 10014 0014 00       		.uleb128 .LVU63
 10015 0015 00       		.uleb128 .LVU64
 10016 0016 00       		.uleb128 .LVU68
 10017 0017 00       		.uleb128 .LVU69
 10018 0018 00       		.uleb128 .LVU69
 10019 0019 00       		.uleb128 .LVU70
 10020 001a 00       		.uleb128 .LVU84
 10021 001b 00       		.uleb128 .LVU98
 10022 001c 00       		.uleb128 .LVU98
 10023 001d 00       		.uleb128 .LVU99
 10024 001e 00       		.uleb128 .LVU120
 10025 001f 00       		.uleb128 .LVU121
 10026 0020 00       		.uleb128 .LVU121
 10027 0021 00       		.uleb128 .LVU122
 10028 0022 00       		.uleb128 .LVU136
 10029 0023 00       		.uleb128 .LVU150
 10030 0024 00       		.uleb128 .LVU150
 10031 0025 00       		.uleb128 .LVU151
 10032              	.LLST0:
 10033 0026 06       		.byte	0x6
 10034 0027 1E000000 		.4byte	.LVL3
 10035 002b 04       		.byte	0x4
 10036 002c 00       		.uleb128 .LVL3-.LVL3
 10037 002d 04       		.uleb128 .LVL4-.LVL3
ARM GAS  C:\Users\DEVELO~1\AppData\Local\Temp\cc5wr7T7.s 			page 178


 10038 002e 01       		.uleb128 0x1
 10039 002f 50       		.byte	0x50
 10040 0030 04       		.byte	0x4
 10041 0031 20       		.uleb128 .LVL6-.LVL3
 10042 0032 24       		.uleb128 .LVL7-.LVL3
 10043 0033 01       		.uleb128 0x1
 10044 0034 50       		.byte	0x50
 10045 0035 04       		.byte	0x4
 10046 0036 24       		.uleb128 .LVL7-.LVL3
 10047 0037 2A       		.uleb128 .LVL8-.LVL3
 10048 0038 03       		.uleb128 0x3
 10049 0039 70       		.byte	0x70
 10050 003a 7F       		.sleb128 -1
 10051 003b 9F       		.byte	0x9f
 10052 003c 04       		.byte	0x4
 10053 003d 46       		.uleb128 .LVL12-.LVL3
 10054 003e 4E       		.uleb128 .LVL14-.LVL3
 10055 003f 01       		.uleb128 0x1
 10056 0040 50       		.byte	0x50
 10057 0041 04       		.byte	0x4
 10058 0042 4E       		.uleb128 .LVL14-.LVL3
 10059 0043 54       		.uleb128 .LVL15-.LVL3
 10060 0044 03       		.uleb128 0x3
 10061 0045 70       		.byte	0x70
 10062 0046 7F       		.sleb128 -1
 10063 0047 9F       		.byte	0x9f
 10064 0048 04       		.byte	0x4
 10065 0049 68       		.uleb128 .LVL17-.LVL3
 10066 004a 6C       		.uleb128 .LVL18-.LVL3
 10067 004b 01       		.uleb128 0x1
 10068 004c 50       		.byte	0x50
 10069 004d 04       		.byte	0x4
 10070 004e 6C       		.uleb128 .LVL18-.LVL3
 10071 004f 72       		.uleb128 .LVL19-.LVL3
 10072 0050 03       		.uleb128 0x3
 10073 0051 70       		.byte	0x70
 10074 0052 7F       		.sleb128 -1
 10075 0053 9F       		.byte	0x9f
 10076 0054 04       		.byte	0x4
 10077 0055 8A01     		.uleb128 .LVL23-.LVL3
 10078 0057 9201     		.uleb128 .LVL25-.LVL3
 10079 0059 01       		.uleb128 0x1
 10080 005a 50       		.byte	0x50
 10081 005b 04       		.byte	0x4
 10082 005c 9201     		.uleb128 .LVL25-.LVL3
 10083 005e 9801     		.uleb128 .LVL26-.LVL3
 10084 0060 03       		.uleb128 0x3
 10085 0061 70       		.byte	0x70
 10086 0062 7F       		.sleb128 -1
 10087 0063 9F       		.byte	0x9f
 10088 0064 04       		.byte	0x4
 10089 0065 C001     		.uleb128 .LVL30-.LVL3
 10090 0067 C401     		.uleb128 .LVL31-.LVL3
 10091 0069 01       		.uleb128 0x1
 10092 006a 50       		.byte	0x50
 10093 006b 04       		.byte	0x4
 10094 006c C401     		.uleb128 .LVL31-.LVL3
ARM GAS  C:\Users\DEVELO~1\AppData\Local\Temp\cc5wr7T7.s 			page 179


 10095 006e CA01     		.uleb128 .LVL32-.LVL3
 10096 0070 03       		.uleb128 0x3
 10097 0071 70       		.byte	0x70
 10098 0072 7F       		.sleb128 -1
 10099 0073 9F       		.byte	0x9f
 10100 0074 04       		.byte	0x4
 10101 0075 E201     		.uleb128 .LVL36-.LVL3
 10102 0077 EA01     		.uleb128 .LVL38-.LVL3
 10103 0079 01       		.uleb128 0x1
 10104 007a 50       		.byte	0x50
 10105 007b 04       		.byte	0x4
 10106 007c EA01     		.uleb128 .LVL38-.LVL3
 10107 007e F001     		.uleb128 .LVL39-.LVL3
 10108 0080 03       		.uleb128 0x3
 10109 0081 70       		.byte	0x70
 10110 0082 7F       		.sleb128 -1
 10111 0083 9F       		.byte	0x9f
 10112 0084 00       		.byte	0
 10113              	.LVUS1:
 10114 0085 01       		.uleb128 .LVU13
 10115 0086 02       		.uleb128 .LVU14
 10116 0087 02       		.uleb128 .LVU14
 10117 0088 00       		.uleb128 .LVU17
 10118 0089 00       		.uleb128 .LVU17
 10119 008a 00       		.uleb128 .LVU18
 10120 008b 00       		.uleb128 .LVU18
 10121 008c 02       		.uleb128 .LVU22
 10122              	.LLST1:
 10123 008d 06       		.byte	0x6
 10124 008e 10000000 		.4byte	.LVL1
 10125 0092 04       		.byte	0x4
 10126 0093 00       		.uleb128 .LVL1-.LVL1
 10127 0094 00       		.uleb128 .LVL1-.LVL1
 10128 0095 02       		.uleb128 0x2
 10129 0096 30       		.byte	0x30
 10130 0097 9F       		.byte	0x9f
 10131 0098 04       		.byte	0x4
 10132 0099 00       		.uleb128 .LVL1-.LVL1
 10133 009a 0A       		.uleb128 .LVL2-.LVL1
 10134 009b 04       		.uleb128 0x4
 10135 009c 74       		.byte	0x74
 10136 009d BE7F     		.sleb128 -66
 10137 009f 9F       		.byte	0x9f
 10138 00a0 04       		.byte	0x4
 10139 00a1 0A       		.uleb128 .LVL2-.LVL1
 10140 00a2 0D       		.uleb128 .LVL3-1-.LVL1
 10141 00a3 04       		.uleb128 0x4
 10142 00a4 71       		.byte	0x71
 10143 00a5 BE7F     		.sleb128 -66
 10144 00a7 9F       		.byte	0x9f
 10145 00a8 04       		.byte	0x4
 10146 00a9 0D       		.uleb128 .LVL3-1-.LVL1
 10147 00aa 1A       		.uleb128 .LVL5-.LVL1
 10148 00ab 04       		.uleb128 0x4
 10149 00ac 74       		.byte	0x74
 10150 00ad BD7F     		.sleb128 -67
 10151 00af 9F       		.byte	0x9f
ARM GAS  C:\Users\DEVELO~1\AppData\Local\Temp\cc5wr7T7.s 			page 180


 10152 00b0 00       		.byte	0
 10153              	.LVUS2:
 10154 00b1 06       		.uleb128 .LVU42
 10155 00b2 00       		.uleb128 .LVU44
 10156              	.LLST2:
 10157 00b3 08       		.byte	0x8
 10158 00b4 56000000 		.4byte	.LVL10
 10159 00b8 06       		.uleb128 .LVL11-.LVL10
 10160 00b9 03       		.uleb128 0x3
 10161 00ba 08       		.byte	0x8
 10162 00bb 30       		.byte	0x30
 10163 00bc 9F       		.byte	0x9f
 10164 00bd 00       		.byte	0
 10165              	.LVUS3:
 10166 00be 0A       		.uleb128 .LVU59
 10167 00bf 00       		.uleb128 .LVU61
 10168              	.LLST3:
 10169 00c0 08       		.byte	0x8
 10170 00c1 64000000 		.4byte	.LVL12
 10171 00c5 04       		.uleb128 .LVL13-.LVL12
 10172 00c6 02       		.uleb128 0x2
 10173 00c7 30       		.byte	0x30
 10174 00c8 9F       		.byte	0x9f
 10175 00c9 00       		.byte	0
 10176              	.LVUS4:
 10177 00ca 06       		.uleb128 .LVU77
 10178 00cb 00       		.uleb128 .LVU79
 10179              	.LLST4:
 10180 00cc 08       		.byte	0x8
 10181 00cd 9C000000 		.4byte	.LVL21
 10182 00d1 04       		.uleb128 .LVL22-.LVL21
 10183 00d2 03       		.uleb128 0x3
 10184 00d3 08       		.byte	0x8
 10185 00d4 30       		.byte	0x30
 10186 00d5 9F       		.byte	0x9f
 10187 00d6 00       		.byte	0
 10188              	.LVUS5:
 10189 00d7 0A       		.uleb128 .LVU94
 10190 00d8 00       		.uleb128 .LVU96
 10191              	.LLST5:
 10192 00d9 08       		.byte	0x8
 10193 00da A8000000 		.4byte	.LVL23
 10194 00de 04       		.uleb128 .LVL24-.LVL23
 10195 00df 02       		.uleb128 0x2
 10196 00e0 30       		.byte	0x30
 10197 00e1 9F       		.byte	0x9f
 10198 00e2 00       		.byte	0
 10199              	.LVUS7:
 10200 00e3 01       		.uleb128 .LVU108
 10201 00e4 00       		.uleb128 .LVU114
 10202              	.LLST7:
 10203 00e5 08       		.byte	0x8
 10204 00e6 CC000000 		.4byte	.LVL28
 10205 00ea 0E       		.uleb128 .LVL29-.LVL28
 10206 00eb 06       		.uleb128 0x6
 10207 00ec 03       		.byte	0x3
 10208 00ed 00000000 		.4byte	mb1
ARM GAS  C:\Users\DEVELO~1\AppData\Local\Temp\cc5wr7T7.s 			page 181


 10209 00f1 9F       		.byte	0x9f
 10210 00f2 00       		.byte	0
 10211              	.LVUS8:
 10212 00f3 06       		.uleb128 .LVU129
 10213 00f4 00       		.uleb128 .LVU131
 10214              	.LLST8:
 10215 00f5 08       		.byte	0x8
 10216 00f6 F4000000 		.4byte	.LVL34
 10217 00fa 04       		.uleb128 .LVL35-.LVL34
 10218 00fb 03       		.uleb128 0x3
 10219 00fc 08       		.byte	0x8
 10220 00fd 30       		.byte	0x30
 10221 00fe 9F       		.byte	0x9f
 10222 00ff 00       		.byte	0
 10223              	.LVUS9:
 10224 0100 0A       		.uleb128 .LVU146
 10225 0101 00       		.uleb128 .LVU148
 10226              	.LLST9:
 10227 0102 08       		.byte	0x8
 10228 0103 00010000 		.4byte	.LVL36
 10229 0107 04       		.uleb128 .LVL37-.LVL36
 10230 0108 02       		.uleb128 0x2
 10231 0109 30       		.byte	0x30
 10232 010a 9F       		.byte	0x9f
 10233 010b 00       		.byte	0
 10234              	.LVUS11:
 10235 010c 07       		.uleb128 .LVU171
 10236 010d 00       		.uleb128 .LVU173
 10237              	.LLST11:
 10238 010e 08       		.byte	0x8
 10239 010f 0E000000 		.4byte	.LVL42
 10240 0113 04       		.uleb128 .LVL43-.LVL42
 10241 0114 03       		.uleb128 0x3
 10242 0115 08       		.byte	0x8
 10243 0116 30       		.byte	0x30
 10244 0117 9F       		.byte	0x9f
 10245 0118 00       		.byte	0
 10246              	.LVUS13:
 10247 0119 04       		.uleb128 .LVU177
 10248 011a 0D       		.uleb128 .LVU186
 10249              	.LLST13:
 10250 011b 08       		.byte	0x8
 10251 011c 12000000 		.4byte	.LVL43
 10252 0120 00       		.uleb128 .LVL43-.LVL43
 10253 0121 06       		.uleb128 0x6
 10254 0122 03       		.byte	0x3
 10255 0123 00000000 		.4byte	mb1
 10256 0127 9F       		.byte	0x9f
 10257 0128 00       		.byte	0
 10258              	.LVUS15:
 10259 0129 07       		.uleb128 .LVU180
 10260 012a 09       		.uleb128 .LVU182
 10261              	.LLST15:
 10262 012b 08       		.byte	0x8
 10263 012c 12000000 		.4byte	.LVL43
 10264 0130 00       		.uleb128 .LVL43-.LVL43
 10265 0131 06       		.uleb128 0x6
ARM GAS  C:\Users\DEVELO~1\AppData\Local\Temp\cc5wr7T7.s 			page 182


 10266 0132 03       		.byte	0x3
 10267 0133 00000000 		.4byte	mb1
 10268 0137 9F       		.byte	0x9f
 10269 0138 00       		.byte	0
 10270              	.LVUS16:
 10271 0139 09       		.uleb128 .LVU182
 10272 013a 0D       		.uleb128 .LVU186
 10273              	.LLST16:
 10274 013b 08       		.byte	0x8
 10275 013c 12000000 		.4byte	.LVL43
 10276 0140 00       		.uleb128 .LVL43-.LVL43
 10277 0141 06       		.uleb128 0x6
 10278 0142 03       		.byte	0x3
 10279 0143 00000000 		.4byte	mb1
 10280 0147 9F       		.byte	0x9f
 10281 0148 00       		.byte	0
 10282              	.LVUS17:
 10283 0149 0C       		.uleb128 .LVU205
 10284 014a 00       		.uleb128 .LVU207
 10285              	.LLST17:
 10286 014b 08       		.byte	0x8
 10287 014c 32000000 		.4byte	.LVL45
 10288 0150 06       		.uleb128 .LVL46-.LVL45
 10289 0151 02       		.uleb128 0x2
 10290 0152 30       		.byte	0x30
 10291 0153 9F       		.byte	0x9f
 10292 0154 00       		.byte	0
 10293              	.LVUS19:
 10294 0155 00       		.uleb128 .LVU449
 10295 0156 00       		.uleb128 .LVU463
 10296 0157 00       		.uleb128 .LVU483
 10297 0158 00       		.uleb128 .LVU497
 10298 0159 00       		.uleb128 .LVU629
 10299 015a 00       		.uleb128 .LVU643
 10300 015b 00       		.uleb128 .LVU660
 10301 015c 00       		.uleb128 .LVU661
 10302 015d 00       		.uleb128 .LVU665
 10303 015e 00       		.uleb128 .LVU666
 10304              	.LLST19:
 10305 015f 06       		.byte	0x6
 10306 0160 04010000 		.4byte	.LVL76
 10307 0164 04       		.byte	0x4
 10308 0165 00       		.uleb128 .LVL76-.LVL76
 10309 0166 0A       		.uleb128 .LVL78-.LVL76
 10310 0167 01       		.uleb128 0x1
 10311 0168 50       		.byte	0x50
 10312 0169 04       		.byte	0x4
 10313 016a 2E       		.uleb128 .LVL83-.LVL76
 10314 016b 36       		.uleb128 .LVL85-.LVL76
 10315 016c 01       		.uleb128 0x1
 10316 016d 50       		.byte	0x50
 10317 016e 04       		.byte	0x4
 10318 016f CE01     		.uleb128 .LVL102-.LVL76
 10319 0171 D801     		.uleb128 .LVL104-.LVL76
 10320 0173 01       		.uleb128 0x1
 10321 0174 50       		.byte	0x50
 10322 0175 04       		.byte	0x4
ARM GAS  C:\Users\DEVELO~1\AppData\Local\Temp\cc5wr7T7.s 			page 183


 10323 0176 9202     		.uleb128 .LVL109-.LVL76
 10324 0178 9602     		.uleb128 .LVL110-.LVL76
 10325 017a 01       		.uleb128 0x1
 10326 017b 50       		.byte	0x50
 10327 017c 04       		.byte	0x4
 10328 017d B002     		.uleb128 .LVL112-.LVL76
 10329 017f B402     		.uleb128 .LVL113-.LVL76
 10330 0181 01       		.uleb128 0x1
 10331 0182 50       		.byte	0x50
 10332 0183 00       		.byte	0
 10333              	.LVUS20:
 10334 0184 01       		.uleb128 .LVU436
 10335 0185 02       		.uleb128 .LVU437
 10336 0186 02       		.uleb128 .LVU437
 10337 0187 00       		.uleb128 .LVU465
 10338 0188 00       		.uleb128 .LVU465
 10339 0189 02       		.uleb128 .LVU468
 10340 018a 01       		.uleb128 .LVU616
 10341 018b 02       		.uleb128 .LVU617
 10342 018c 02       		.uleb128 .LVU617
 10343 018d 01       		.uleb128 .LVU649
 10344 018e 01       		.uleb128 .LVU649
 10345 018f 00       		.uleb128 .LVU650
 10346 0190 00       		.uleb128 .LVU650
 10347 0191 01       		.uleb128 .LVU753
 10348 0192 00       		.uleb128 .LVU754
 10349 0193 00       		.uleb128 0
 10350              	.LLST20:
 10351 0194 06       		.byte	0x6
 10352 0195 F8000000 		.4byte	.LVL74
 10353 0199 04       		.byte	0x4
 10354 019a 00       		.uleb128 .LVL74-.LVL74
 10355 019b 00       		.uleb128 .LVL74-.LVL74
 10356 019c 02       		.uleb128 0x2
 10357 019d 30       		.byte	0x30
 10358 019e 9F       		.byte	0x9f
 10359 019f 04       		.byte	0x4
 10360 01a0 00       		.uleb128 .LVL74-.LVL74
 10361 01a1 1C       		.uleb128 .LVL79-.LVL74
 10362 01a2 04       		.uleb128 0x4
 10363 01a3 78       		.byte	0x78
 10364 01a4 BE7F     		.sleb128 -66
 10365 01a6 9F       		.byte	0x9f
 10366 01a7 04       		.byte	0x4
 10367 01a8 1C       		.uleb128 .LVL79-.LVL74
 10368 01a9 22       		.uleb128 .LVL80-.LVL74
 10369 01aa 04       		.uleb128 0x4
 10370 01ab 78       		.byte	0x78
 10371 01ac BD7F     		.sleb128 -67
 10372 01ae 9F       		.byte	0x9f
 10373 01af 04       		.byte	0x4
 10374 01b0 CE01     		.uleb128 .LVL100-.LVL74
 10375 01b2 CE01     		.uleb128 .LVL100-.LVL74
 10376 01b4 02       		.uleb128 0x2
 10377 01b5 30       		.byte	0x30
 10378 01b6 9F       		.byte	0x9f
 10379 01b7 04       		.byte	0x4
ARM GAS  C:\Users\DEVELO~1\AppData\Local\Temp\cc5wr7T7.s 			page 184


 10380 01b8 CE01     		.uleb128 .LVL100-.LVL74
 10381 01ba FA01     		.uleb128 .LVL106-.LVL74
 10382 01bc 05       		.uleb128 0x5
 10383 01bd 34       		.byte	0x34
 10384 01be 79       		.byte	0x79
 10385 01bf 00       		.sleb128 0
 10386 01c0 1C       		.byte	0x1c
 10387 01c1 9F       		.byte	0x9f
 10388 01c2 04       		.byte	0x4
 10389 01c3 FA01     		.uleb128 .LVL106-.LVL74
 10390 01c5 FE01     		.uleb128 .LVL107-.LVL74
 10391 01c7 05       		.uleb128 0x5
 10392 01c8 35       		.byte	0x35
 10393 01c9 79       		.byte	0x79
 10394 01ca 00       		.sleb128 0
 10395 01cb 1C       		.byte	0x1c
 10396 01cc 9F       		.byte	0x9f
 10397 01cd 04       		.byte	0x4
 10398 01ce FE01     		.uleb128 .LVL107-.LVL74
 10399 01d0 B203     		.uleb128 .LVL125-.LVL74
 10400 01d2 05       		.uleb128 0x5
 10401 01d3 34       		.byte	0x34
 10402 01d4 79       		.byte	0x79
 10403 01d5 00       		.sleb128 0
 10404 01d6 1C       		.byte	0x1c
 10405 01d7 9F       		.byte	0x9f
 10406 01d8 04       		.byte	0x4
 10407 01d9 B403     		.uleb128 .LVL126-.LVL74
 10408 01db F003     		.uleb128 .LFE440-.LVL74
 10409 01dd 05       		.uleb128 0x5
 10410 01de 34       		.byte	0x34
 10411 01df 79       		.byte	0x79
 10412 01e0 00       		.sleb128 0
 10413 01e1 1C       		.byte	0x1c
 10414 01e2 9F       		.byte	0x9f
 10415 01e3 00       		.byte	0
 10416              	.LVUS21:
 10417 01e4 0D       		.uleb128 .LVU223
 10418 01e5 00       		.uleb128 .LVU225
 10419              	.LLST21:
 10420 01e6 08       		.byte	0x8
 10421 01e7 3E000000 		.4byte	.LVL47
 10422 01eb 06       		.uleb128 .LVL48-.LVL47
 10423 01ec 02       		.uleb128 0x2
 10424 01ed 30       		.byte	0x30
 10425 01ee 9F       		.byte	0x9f
 10426 01ef 00       		.byte	0
 10427              	.LVUS22:
 10428 01f0 05       		.uleb128 .LVU235
 10429 01f1 00       		.uleb128 .LVU237
 10430              	.LLST22:
 10431 01f2 08       		.byte	0x8
 10432 01f3 48000000 		.4byte	.LVL49
 10433 01f7 04       		.uleb128 .LVL50-.LVL49
 10434 01f8 03       		.uleb128 0x3
 10435 01f9 08       		.byte	0x8
 10436 01fa 30       		.byte	0x30
ARM GAS  C:\Users\DEVELO~1\AppData\Local\Temp\cc5wr7T7.s 			page 185


 10437 01fb 9F       		.byte	0x9f
 10438 01fc 00       		.byte	0
 10439              	.LVUS23:
 10440 01fd 0A       		.uleb128 .LVU251
 10441 01fe 00       		.uleb128 .LVU253
 10442              	.LLST23:
 10443 01ff 08       		.byte	0x8
 10444 0200 52000000 		.4byte	.LVL51
 10445 0204 04       		.uleb128 .LVL52-.LVL51
 10446 0205 02       		.uleb128 0x2
 10447 0206 30       		.byte	0x30
 10448 0207 9F       		.byte	0x9f
 10449 0208 00       		.byte	0
 10450              	.LVUS24:
 10451 0209 08       		.uleb128 .LVU261
 10452 020a 00       		.uleb128 .LVU263
 10453              	.LLST24:
 10454 020b 08       		.byte	0x8
 10455 020c 56000000 		.4byte	.LVL52
 10456 0210 04       		.uleb128 .LVL53-.LVL52
 10457 0211 03       		.uleb128 0x3
 10458 0212 08       		.byte	0x8
 10459 0213 30       		.byte	0x30
 10460 0214 9F       		.byte	0x9f
 10461 0215 00       		.byte	0
 10462              	.LVUS26:
 10463 0216 04       		.uleb128 .LVU267
 10464 0217 0D       		.uleb128 .LVU276
 10465              	.LLST26:
 10466 0218 08       		.byte	0x8
 10467 0219 5A000000 		.4byte	.LVL53
 10468 021d 00       		.uleb128 .LVL53-.LVL53
 10469 021e 06       		.uleb128 0x6
 10470 021f 03       		.byte	0x3
 10471 0220 00000000 		.4byte	mb1
 10472 0224 9F       		.byte	0x9f
 10473 0225 00       		.byte	0
 10474              	.LVUS28:
 10475 0226 07       		.uleb128 .LVU270
 10476 0227 09       		.uleb128 .LVU272
 10477              	.LLST28:
 10478 0228 08       		.byte	0x8
 10479 0229 5A000000 		.4byte	.LVL53
 10480 022d 00       		.uleb128 .LVL53-.LVL53
 10481 022e 06       		.uleb128 0x6
 10482 022f 03       		.byte	0x3
 10483 0230 00000000 		.4byte	mb1
 10484 0234 9F       		.byte	0x9f
 10485 0235 00       		.byte	0
 10486              	.LVUS29:
 10487 0236 09       		.uleb128 .LVU272
 10488 0237 0D       		.uleb128 .LVU276
 10489              	.LLST29:
 10490 0238 08       		.byte	0x8
 10491 0239 5A000000 		.4byte	.LVL53
 10492 023d 00       		.uleb128 .LVL53-.LVL53
 10493 023e 06       		.uleb128 0x6
ARM GAS  C:\Users\DEVELO~1\AppData\Local\Temp\cc5wr7T7.s 			page 186


 10494 023f 03       		.byte	0x3
 10495 0240 00000000 		.4byte	mb1
 10496 0244 9F       		.byte	0x9f
 10497 0245 00       		.byte	0
 10498              	.LVUS30:
 10499 0246 0C       		.uleb128 .LVU295
 10500 0247 00       		.uleb128 .LVU297
 10501              	.LLST30:
 10502 0248 08       		.byte	0x8
 10503 0249 7A000000 		.4byte	.LVL55
 10504 024d 04       		.uleb128 .LVL56-.LVL55
 10505 024e 02       		.uleb128 0x2
 10506 024f 30       		.byte	0x30
 10507 0250 9F       		.byte	0x9f
 10508 0251 00       		.byte	0
 10509              	.LVUS31:
 10510 0252 09       		.uleb128 .LVU306
 10511 0253 00       		.uleb128 .LVU308
 10512              	.LLST31:
 10513 0254 08       		.byte	0x8
 10514 0255 7E000000 		.4byte	.LVL56
 10515 0259 04       		.uleb128 .LVL57-.LVL56
 10516 025a 03       		.uleb128 0x3
 10517 025b 08       		.byte	0x8
 10518 025c 30       		.byte	0x30
 10519 025d 9F       		.byte	0x9f
 10520 025e 00       		.byte	0
 10521              	.LVUS32:
 10522 025f 04       		.uleb128 .LVU312
 10523 0260 07       		.uleb128 .LVU315
 10524              	.LLST32:
 10525 0261 08       		.byte	0x8
 10526 0262 82000000 		.4byte	.LVL57
 10527 0266 00       		.uleb128 .LVL57-.LVL57
 10528 0267 06       		.uleb128 0x6
 10529 0268 03       		.byte	0x3
 10530 0269 00000000 		.4byte	mb1
 10531 026d 9F       		.byte	0x9f
 10532 026e 00       		.byte	0
 10533              	.LVUS33:
 10534 026f 0C       		.uleb128 .LVU329
 10535 0270 00       		.uleb128 .LVU331
 10536              	.LLST33:
 10537 0271 08       		.byte	0x8
 10538 0272 94000000 		.4byte	.LVL59
 10539 0276 04       		.uleb128 .LVL60-.LVL59
 10540 0277 02       		.uleb128 0x2
 10541 0278 30       		.byte	0x30
 10542 0279 9F       		.byte	0x9f
 10543 027a 00       		.byte	0
 10544              	.LVUS34:
 10545 027b 0C       		.uleb128 .LVU346
 10546 027c 00       		.uleb128 .LVU348
 10547              	.LLST34:
 10548 027d 08       		.byte	0x8
 10549 027e 9E000000 		.4byte	.LVL61
 10550 0282 04       		.uleb128 .LVL62-.LVL61
ARM GAS  C:\Users\DEVELO~1\AppData\Local\Temp\cc5wr7T7.s 			page 187


 10551 0283 02       		.uleb128 0x2
 10552 0284 30       		.byte	0x30
 10553 0285 9F       		.byte	0x9f
 10554 0286 00       		.byte	0
 10555              	.LVUS35:
 10556 0287 0C       		.uleb128 .LVU363
 10557 0288 00       		.uleb128 .LVU365
 10558              	.LLST35:
 10559 0289 08       		.byte	0x8
 10560 028a A8000000 		.4byte	.LVL63
 10561 028e 04       		.uleb128 .LVL64-.LVL63
 10562 028f 02       		.uleb128 0x2
 10563 0290 30       		.byte	0x30
 10564 0291 9F       		.byte	0x9f
 10565 0292 00       		.byte	0
 10566              	.LVUS36:
 10567 0293 09       		.uleb128 .LVU374
 10568 0294 00       		.uleb128 .LVU376
 10569              	.LLST36:
 10570 0295 08       		.byte	0x8
 10571 0296 AC000000 		.4byte	.LVL64
 10572 029a 04       		.uleb128 .LVL65-.LVL64
 10573 029b 03       		.uleb128 0x3
 10574 029c 08       		.byte	0x8
 10575 029d 30       		.byte	0x30
 10576 029e 9F       		.byte	0x9f
 10577 029f 00       		.byte	0
 10578              	.LVUS37:
 10579 02a0 0C       		.uleb128 .LVU392
 10580 02a1 00       		.uleb128 .LVU394
 10581              	.LLST37:
 10582 02a2 08       		.byte	0x8
 10583 02a3 C8000000 		.4byte	.LVL67
 10584 02a7 04       		.uleb128 .LVL68-.LVL67
 10585 02a8 02       		.uleb128 0x2
 10586 02a9 30       		.byte	0x30
 10587 02aa 9F       		.byte	0x9f
 10588 02ab 00       		.byte	0
 10589              	.LVUS38:
 10590 02ac 09       		.uleb128 .LVU403
 10591 02ad 00       		.uleb128 .LVU405
 10592              	.LLST38:
 10593 02ae 08       		.byte	0x8
 10594 02af CC000000 		.4byte	.LVL68
 10595 02b3 04       		.uleb128 .LVL69-.LVL68
 10596 02b4 03       		.uleb128 0x3
 10597 02b5 08       		.byte	0x8
 10598 02b6 30       		.byte	0x30
 10599 02b7 9F       		.byte	0x9f
 10600 02b8 00       		.byte	0
 10601              	.LVUS39:
 10602 02b9 0C       		.uleb128 .LVU421
 10603 02ba 00       		.uleb128 .LVU423
 10604              	.LLST39:
 10605 02bb 08       		.byte	0x8
 10606 02bc E6000000 		.4byte	.LVL71
 10607 02c0 04       		.uleb128 .LVL72-.LVL71
ARM GAS  C:\Users\DEVELO~1\AppData\Local\Temp\cc5wr7T7.s 			page 188


 10608 02c1 02       		.uleb128 0x2
 10609 02c2 30       		.byte	0x30
 10610 02c3 9F       		.byte	0x9f
 10611 02c4 00       		.byte	0
 10612              	.LVUS41:
 10613 02c5 03       		.uleb128 .LVU426
 10614 02c6 00       		.uleb128 .LVU431
 10615              	.LLST41:
 10616 02c7 08       		.byte	0x8
 10617 02c8 EA000000 		.4byte	.LVL72
 10618 02cc 0C       		.uleb128 .LVL73-.LVL72
 10619 02cd 06       		.uleb128 0x6
 10620 02ce 03       		.byte	0x3
 10621 02cf 00000000 		.4byte	mb1
 10622 02d3 9F       		.byte	0x9f
 10623 02d4 00       		.byte	0
 10624              	.LVUS42:
 10625 02d5 07       		.uleb128 .LVU442
 10626 02d6 00       		.uleb128 .LVU444
 10627              	.LLST42:
 10628 02d7 08       		.byte	0x8
 10629 02d8 F8000000 		.4byte	.LVL74
 10630 02dc 04       		.uleb128 .LVL75-.LVL74
 10631 02dd 03       		.uleb128 0x3
 10632 02de 08       		.byte	0x8
 10633 02df 30       		.byte	0x30
 10634 02e0 9F       		.byte	0x9f
 10635 02e1 00       		.byte	0
 10636              	.LVUS43:
 10637 02e2 0A       		.uleb128 .LVU459
 10638 02e3 00       		.uleb128 .LVU461
 10639              	.LLST43:
 10640 02e4 08       		.byte	0x8
 10641 02e5 04010000 		.4byte	.LVL76
 10642 02e9 06       		.uleb128 .LVL77-.LVL76
 10643 02ea 02       		.uleb128 0x2
 10644 02eb 30       		.byte	0x30
 10645 02ec 9F       		.byte	0x9f
 10646 02ed 00       		.byte	0
 10647              	.LVUS44:
 10648 02ee 05       		.uleb128 .LVU476
 10649 02ef 00       		.uleb128 .LVU478
 10650              	.LLST44:
 10651 02f0 08       		.byte	0x8
 10652 02f1 26010000 		.4byte	.LVL81
 10653 02f5 04       		.uleb128 .LVL82-.LVL81
 10654 02f6 03       		.uleb128 0x3
 10655 02f7 08       		.byte	0x8
 10656 02f8 30       		.byte	0x30
 10657 02f9 9F       		.byte	0x9f
 10658 02fa 00       		.byte	0
 10659              	.LVUS45:
 10660 02fb 0A       		.uleb128 .LVU493
 10661 02fc 00       		.uleb128 .LVU495
 10662              	.LLST45:
 10663 02fd 08       		.byte	0x8
 10664 02fe 32010000 		.4byte	.LVL83
ARM GAS  C:\Users\DEVELO~1\AppData\Local\Temp\cc5wr7T7.s 			page 189


 10665 0302 04       		.uleb128 .LVL84-.LVL83
 10666 0303 02       		.uleb128 0x2
 10667 0304 30       		.byte	0x30
 10668 0305 9F       		.byte	0x9f
 10669 0306 00       		.byte	0
 10670              	.LVUS46:
 10671 0307 07       		.uleb128 .LVU509
 10672 0308 00       		.uleb128 .LVU511
 10673              	.LLST46:
 10674 0309 08       		.byte	0x8
 10675 030a 52010000 		.4byte	.LVL87
 10676 030e 04       		.uleb128 .LVL88-.LVL87
 10677 030f 03       		.uleb128 0x3
 10678 0310 08       		.byte	0x8
 10679 0311 30       		.byte	0x30
 10680 0312 9F       		.byte	0x9f
 10681 0313 00       		.byte	0
 10682              	.LVUS48:
 10683 0314 04       		.uleb128 .LVU515
 10684 0315 0D       		.uleb128 .LVU524
 10685              	.LLST48:
 10686 0316 08       		.byte	0x8
 10687 0317 56010000 		.4byte	.LVL88
 10688 031b 00       		.uleb128 .LVL88-.LVL88
 10689 031c 06       		.uleb128 0x6
 10690 031d 03       		.byte	0x3
 10691 031e 00000000 		.4byte	mb1
 10692 0322 9F       		.byte	0x9f
 10693 0323 00       		.byte	0
 10694              	.LVUS50:
 10695 0324 07       		.uleb128 .LVU518
 10696 0325 09       		.uleb128 .LVU520
 10697              	.LLST50:
 10698 0326 08       		.byte	0x8
 10699 0327 56010000 		.4byte	.LVL88
 10700 032b 00       		.uleb128 .LVL88-.LVL88
 10701 032c 06       		.uleb128 0x6
 10702 032d 03       		.byte	0x3
 10703 032e 00000000 		.4byte	mb1
 10704 0332 9F       		.byte	0x9f
 10705 0333 00       		.byte	0
 10706              	.LVUS51:
 10707 0334 09       		.uleb128 .LVU520
 10708 0335 0D       		.uleb128 .LVU524
 10709              	.LLST51:
 10710 0336 08       		.byte	0x8
 10711 0337 56010000 		.4byte	.LVL88
 10712 033b 00       		.uleb128 .LVL88-.LVL88
 10713 033c 06       		.uleb128 0x6
 10714 033d 03       		.byte	0x3
 10715 033e 00000000 		.4byte	mb1
 10716 0342 9F       		.byte	0x9f
 10717 0343 00       		.byte	0
 10718              	.LVUS52:
 10719 0344 0C       		.uleb128 .LVU541
 10720 0345 00       		.uleb128 .LVU543
 10721              	.LLST52:
ARM GAS  C:\Users\DEVELO~1\AppData\Local\Temp\cc5wr7T7.s 			page 190


 10722 0346 08       		.byte	0x8
 10723 0347 74010000 		.4byte	.LVL90
 10724 034b 04       		.uleb128 .LVL91-.LVL90
 10725 034c 02       		.uleb128 0x2
 10726 034d 30       		.byte	0x30
 10727 034e 9F       		.byte	0x9f
 10728 034f 00       		.byte	0
 10729              	.LVUS53:
 10730 0350 09       		.uleb128 .LVU552
 10731 0351 00       		.uleb128 .LVU554
 10732              	.LLST53:
 10733 0352 08       		.byte	0x8
 10734 0353 78010000 		.4byte	.LVL91
 10735 0357 04       		.uleb128 .LVL92-.LVL91
 10736 0358 03       		.uleb128 0x3
 10737 0359 08       		.byte	0x8
 10738 035a 30       		.byte	0x30
 10739 035b 9F       		.byte	0x9f
 10740 035c 00       		.byte	0
 10741              	.LVUS54:
 10742 035d 04       		.uleb128 .LVU558
 10743 035e 07       		.uleb128 .LVU561
 10744              	.LLST54:
 10745 035f 08       		.byte	0x8
 10746 0360 7C010000 		.4byte	.LVL92
 10747 0364 00       		.uleb128 .LVL92-.LVL92
 10748 0365 06       		.uleb128 0x6
 10749 0366 03       		.byte	0x3
 10750 0367 00000000 		.4byte	mb1
 10751 036b 9F       		.byte	0x9f
 10752 036c 00       		.byte	0
 10753              	.LVUS55:
 10754 036d 0C       		.uleb128 .LVU575
 10755 036e 00       		.uleb128 .LVU577
 10756              	.LLST55:
 10757 036f 08       		.byte	0x8
 10758 0370 96010000 		.4byte	.LVL94
 10759 0374 04       		.uleb128 .LVL95-.LVL94
 10760 0375 02       		.uleb128 0x2
 10761 0376 30       		.byte	0x30
 10762 0377 9F       		.byte	0x9f
 10763 0378 00       		.byte	0
 10764              	.LVUS56:
 10765 0379 09       		.uleb128 .LVU586
 10766 037a 00       		.uleb128 .LVU588
 10767              	.LLST56:
 10768 037b 08       		.byte	0x8
 10769 037c 9A010000 		.4byte	.LVL95
 10770 0380 04       		.uleb128 .LVL96-.LVL95
 10771 0381 03       		.uleb128 0x3
 10772 0382 08       		.byte	0x8
 10773 0383 30       		.byte	0x30
 10774 0384 9F       		.byte	0x9f
 10775 0385 00       		.byte	0
 10776              	.LVUS57:
 10777 0386 0C       		.uleb128 .LVU604
 10778 0387 00       		.uleb128 .LVU606
ARM GAS  C:\Users\DEVELO~1\AppData\Local\Temp\cc5wr7T7.s 			page 191


 10779              	.LLST57:
 10780 0388 08       		.byte	0x8
 10781 0389 B6010000 		.4byte	.LVL98
 10782 038d 04       		.uleb128 .LVL99-.LVL98
 10783 038e 02       		.uleb128 0x2
 10784 038f 30       		.byte	0x30
 10785 0390 9F       		.byte	0x9f
 10786 0391 00       		.byte	0
 10787              	.LVUS59:
 10788 0392 07       		.uleb128 .LVU622
 10789 0393 00       		.uleb128 .LVU624
 10790              	.LLST59:
 10791 0394 08       		.byte	0x8
 10792 0395 C6010000 		.4byte	.LVL100
 10793 0399 04       		.uleb128 .LVL101-.LVL100
 10794 039a 03       		.uleb128 0x3
 10795 039b 08       		.byte	0x8
 10796 039c 30       		.byte	0x30
 10797 039d 9F       		.byte	0x9f
 10798 039e 00       		.byte	0
 10799              	.LVUS60:
 10800 039f 0A       		.uleb128 .LVU639
 10801 03a0 00       		.uleb128 .LVU641
 10802              	.LLST60:
 10803 03a1 08       		.byte	0x8
 10804 03a2 D2010000 		.4byte	.LVL102
 10805 03a6 06       		.uleb128 .LVL103-.LVL102
 10806 03a7 02       		.uleb128 0x2
 10807 03a8 30       		.byte	0x30
 10808 03a9 9F       		.byte	0x9f
 10809 03aa 00       		.byte	0
 10810              	.LVUS61:
 10811 03ab 07       		.uleb128 .LVU678
 10812 03ac 00       		.uleb128 .LVU680
 10813              	.LLST61:
 10814 03ad 08       		.byte	0x8
 10815 03ae 4A020000 		.4byte	.LVL115
 10816 03b2 04       		.uleb128 .LVL116-.LVL115
 10817 03b3 03       		.uleb128 0x3
 10818 03b4 08       		.byte	0x8
 10819 03b5 30       		.byte	0x30
 10820 03b6 9F       		.byte	0x9f
 10821 03b7 00       		.byte	0
 10822              	.LVUS63:
 10823 03b8 04       		.uleb128 .LVU684
 10824 03b9 0D       		.uleb128 .LVU693
 10825              	.LLST63:
 10826 03ba 08       		.byte	0x8
 10827 03bb 4E020000 		.4byte	.LVL116
 10828 03bf 00       		.uleb128 .LVL116-.LVL116
 10829 03c0 06       		.uleb128 0x6
 10830 03c1 03       		.byte	0x3
 10831 03c2 00000000 		.4byte	mb1
 10832 03c6 9F       		.byte	0x9f
 10833 03c7 00       		.byte	0
 10834              	.LVUS65:
 10835 03c8 07       		.uleb128 .LVU687
ARM GAS  C:\Users\DEVELO~1\AppData\Local\Temp\cc5wr7T7.s 			page 192


 10836 03c9 09       		.uleb128 .LVU689
 10837              	.LLST65:
 10838 03ca 08       		.byte	0x8
 10839 03cb 4E020000 		.4byte	.LVL116
 10840 03cf 00       		.uleb128 .LVL116-.LVL116
 10841 03d0 06       		.uleb128 0x6
 10842 03d1 03       		.byte	0x3
 10843 03d2 00000000 		.4byte	mb1
 10844 03d6 9F       		.byte	0x9f
 10845 03d7 00       		.byte	0
 10846              	.LVUS66:
 10847 03d8 09       		.uleb128 .LVU689
 10848 03d9 0D       		.uleb128 .LVU693
 10849              	.LLST66:
 10850 03da 08       		.byte	0x8
 10851 03db 4E020000 		.4byte	.LVL116
 10852 03df 00       		.uleb128 .LVL116-.LVL116
 10853 03e0 06       		.uleb128 0x6
 10854 03e1 03       		.byte	0x3
 10855 03e2 00000000 		.4byte	mb1
 10856 03e6 9F       		.byte	0x9f
 10857 03e7 00       		.byte	0
 10858              	.LVUS67:
 10859 03e8 0C       		.uleb128 .LVU711
 10860 03e9 00       		.uleb128 .LVU713
 10861              	.LLST67:
 10862 03ea 08       		.byte	0x8
 10863 03eb 68020000 		.4byte	.LVL118
 10864 03ef 04       		.uleb128 .LVL119-.LVL118
 10865 03f0 02       		.uleb128 0x2
 10866 03f1 30       		.byte	0x30
 10867 03f2 9F       		.byte	0x9f
 10868 03f3 00       		.byte	0
 10869              	.LVUS68:
 10870 03f4 09       		.uleb128 .LVU722
 10871 03f5 00       		.uleb128 .LVU724
 10872              	.LLST68:
 10873 03f6 08       		.byte	0x8
 10874 03f7 6C020000 		.4byte	.LVL119
 10875 03fb 04       		.uleb128 .LVL120-.LVL119
 10876 03fc 03       		.uleb128 0x3
 10877 03fd 08       		.byte	0x8
 10878 03fe 30       		.byte	0x30
 10879 03ff 9F       		.byte	0x9f
 10880 0400 00       		.byte	0
 10881              	.LVUS69:
 10882 0401 04       		.uleb128 .LVU728
 10883 0402 07       		.uleb128 .LVU731
 10884              	.LLST69:
 10885 0403 08       		.byte	0x8
 10886 0404 70020000 		.4byte	.LVL120
 10887 0408 00       		.uleb128 .LVL120-.LVL120
 10888 0409 06       		.uleb128 0x6
 10889 040a 03       		.byte	0x3
 10890 040b 00000000 		.4byte	mb1
 10891 040f 9F       		.byte	0x9f
 10892 0410 00       		.byte	0
ARM GAS  C:\Users\DEVELO~1\AppData\Local\Temp\cc5wr7T7.s 			page 193


 10893              	.LVUS70:
 10894 0411 0C       		.uleb128 .LVU745
 10895 0412 00       		.uleb128 .LVU747
 10896              	.LLST70:
 10897 0413 08       		.byte	0x8
 10898 0414 80020000 		.4byte	.LVL122
 10899 0418 04       		.uleb128 .LVL123-.LVL122
 10900 0419 02       		.uleb128 0x2
 10901 041a 30       		.byte	0x30
 10902 041b 9F       		.byte	0x9f
 10903 041c 00       		.byte	0
 10904              	.LVUS71:
 10905 041d 0C       		.uleb128 .LVU766
 10906 041e 00       		.uleb128 .LVU768
 10907              	.LLST71:
 10908 041f 08       		.byte	0x8
 10909 0420 AC020000 		.4byte	.LVL126
 10910 0424 04       		.uleb128 .LVL127-.LVL126
 10911 0425 02       		.uleb128 0x2
 10912 0426 30       		.byte	0x30
 10913 0427 9F       		.byte	0x9f
 10914 0428 00       		.byte	0
 10915              	.LVUS73:
 10916 0429 07       		.uleb128 .LVU786
 10917 042a 00       		.uleb128 .LVU788
 10918              	.LLST73:
 10919 042b 08       		.byte	0x8
 10920 042c 0E000000 		.4byte	.LVL128
 10921 0430 04       		.uleb128 .LVL129-.LVL128
 10922 0431 03       		.uleb128 0x3
 10923 0432 08       		.byte	0x8
 10924 0433 30       		.byte	0x30
 10925 0434 9F       		.byte	0x9f
 10926 0435 00       		.byte	0
 10927              	.LVUS75:
 10928 0436 04       		.uleb128 .LVU792
 10929 0437 0D       		.uleb128 .LVU801
 10930              	.LLST75:
 10931 0438 08       		.byte	0x8
 10932 0439 12000000 		.4byte	.LVL129
 10933 043d 00       		.uleb128 .LVL129-.LVL129
 10934 043e 06       		.uleb128 0x6
 10935 043f 03       		.byte	0x3
 10936 0440 00000000 		.4byte	mb1
 10937 0444 9F       		.byte	0x9f
 10938 0445 00       		.byte	0
 10939              	.LVUS77:
 10940 0446 07       		.uleb128 .LVU795
 10941 0447 09       		.uleb128 .LVU797
 10942              	.LLST77:
 10943 0448 08       		.byte	0x8
 10944 0449 12000000 		.4byte	.LVL129
 10945 044d 00       		.uleb128 .LVL129-.LVL129
 10946 044e 06       		.uleb128 0x6
 10947 044f 03       		.byte	0x3
 10948 0450 00000000 		.4byte	mb1
 10949 0454 9F       		.byte	0x9f
ARM GAS  C:\Users\DEVELO~1\AppData\Local\Temp\cc5wr7T7.s 			page 194


 10950 0455 00       		.byte	0
 10951              	.LVUS78:
 10952 0456 09       		.uleb128 .LVU797
 10953 0457 0D       		.uleb128 .LVU801
 10954              	.LLST78:
 10955 0458 08       		.byte	0x8
 10956 0459 12000000 		.4byte	.LVL129
 10957 045d 00       		.uleb128 .LVL129-.LVL129
 10958 045e 06       		.uleb128 0x6
 10959 045f 03       		.byte	0x3
 10960 0460 00000000 		.4byte	mb1
 10961 0464 9F       		.byte	0x9f
 10962 0465 00       		.byte	0
 10963              	.LVUS79:
 10964 0466 0C       		.uleb128 .LVU820
 10965 0467 00       		.uleb128 .LVU822
 10966              	.LLST79:
 10967 0468 08       		.byte	0x8
 10968 0469 32000000 		.4byte	.LVL131
 10969 046d 06       		.uleb128 .LVL132-.LVL131
 10970 046e 02       		.uleb128 0x2
 10971 046f 30       		.byte	0x30
 10972 0470 9F       		.byte	0x9f
 10973 0471 00       		.byte	0
 10974              	.LVUS81:
 10975 0472 00       		.uleb128 .LVU1026
 10976 0473 00       		.uleb128 .LVU1027
 10977 0474 00       		.uleb128 .LVU1027
 10978 0475 00       		.uleb128 .LVU1031
 10979 0476 00       		.uleb128 .LVU1031
 10980 0477 00       		.uleb128 .LVU1032
 10981 0478 00       		.uleb128 .LVU1032
 10982 0479 00       		.uleb128 .LVU1033
 10983 047a 00       		.uleb128 .LVU1037
 10984 047b 00       		.uleb128 .LVU1038
 10985 047c 00       		.uleb128 .LVU1038
 10986 047d 00       		.uleb128 .LVU1039
 10987 047e 00       		.uleb128 .LVU1057
 10988 047f 00       		.uleb128 .LVU1058
 10989 0480 00       		.uleb128 .LVU1066
 10990 0481 00       		.uleb128 .LVU1067
 10991 0482 00       		.uleb128 .LVU1206
 10992 0483 00       		.uleb128 .LVU1207
 10993 0484 00       		.uleb128 .LVU1224
 10994 0485 00       		.uleb128 .LVU1225
 10995 0486 00       		.uleb128 .LVU1229
 10996 0487 00       		.uleb128 .LVU1230
 10997              	.LLST81:
 10998 0488 06       		.byte	0x6
 10999 0489 F2000000 		.4byte	.LVL156
 11000 048d 04       		.byte	0x4
 11001 048e 00       		.uleb128 .LVL156-.LVL156
 11002 048f 08       		.uleb128 .LVL157-.LVL156
 11003 0490 01       		.uleb128 0x1
 11004 0491 50       		.byte	0x50
 11005 0492 04       		.byte	0x4
 11006 0493 08       		.uleb128 .LVL157-.LVL156
ARM GAS  C:\Users\DEVELO~1\AppData\Local\Temp\cc5wr7T7.s 			page 195


 11007 0494 1E       		.uleb128 .LVL159-.LVL156
 11008 0495 03       		.uleb128 0x3
 11009 0496 75       		.byte	0x75
 11010 0497 7E       		.sleb128 -2
 11011 0498 9F       		.byte	0x9f
 11012 0499 04       		.byte	0x4
 11013 049a 1E       		.uleb128 .LVL159-.LVL156
 11014 049b 26       		.uleb128 .LVL160-.LVL156
 11015 049c 01       		.uleb128 0x1
 11016 049d 50       		.byte	0x50
 11017 049e 04       		.byte	0x4
 11018 049f 26       		.uleb128 .LVL160-.LVL156
 11019 04a0 2B       		.uleb128 .LVL161-1-.LVL156
 11020 04a1 03       		.uleb128 0x3
 11021 04a2 72       		.byte	0x72
 11022 04a3 7E       		.sleb128 -2
 11023 04a4 9F       		.byte	0x9f
 11024 04a5 04       		.byte	0x4
 11025 04a6 3C       		.uleb128 .LVL162-.LVL156
 11026 04a7 44       		.uleb128 .LVL163-.LVL156
 11027 04a8 01       		.uleb128 0x1
 11028 04a9 50       		.byte	0x50
 11029 04aa 04       		.byte	0x4
 11030 04ab 44       		.uleb128 .LVL163-.LVL156
 11031 04ac 49       		.uleb128 .LVL164-1-.LVL156
 11032 04ad 03       		.uleb128 0x3
 11033 04ae 73       		.byte	0x73
 11034 04af 7E       		.sleb128 -2
 11035 04b0 9F       		.byte	0x9f
 11036 04b1 04       		.byte	0x4
 11037 04b2 68       		.uleb128 .LVL169-.LVL156
 11038 04b3 6C       		.uleb128 .LVL170-.LVL156
 11039 04b4 01       		.uleb128 0x1
 11040 04b5 50       		.byte	0x50
 11041 04b6 04       		.byte	0x4
 11042 04b7 8A01     		.uleb128 .LVL172-.LVL156
 11043 04b9 8E01     		.uleb128 .LVL173-.LVL156
 11044 04bb 01       		.uleb128 0x1
 11045 04bc 50       		.byte	0x50
 11046 04bd 04       		.byte	0x4
 11047 04be B002     		.uleb128 .LVL191-.LVL156
 11048 04c0 B402     		.uleb128 .LVL192-.LVL156
 11049 04c2 01       		.uleb128 0x1
 11050 04c3 50       		.byte	0x50
 11051 04c4 04       		.byte	0x4
 11052 04c5 EC02     		.uleb128 .LVL197-.LVL156
 11053 04c7 F002     		.uleb128 .LVL198-.LVL156
 11054 04c9 01       		.uleb128 0x1
 11055 04ca 50       		.byte	0x50
 11056 04cb 04       		.byte	0x4
 11057 04cc 8A03     		.uleb128 .LVL200-.LVL156
 11058 04ce 8E03     		.uleb128 .LVL201-.LVL156
 11059 04d0 01       		.uleb128 0x1
 11060 04d1 50       		.byte	0x50
 11061 04d2 00       		.byte	0
 11062              	.LVUS82:
 11063 04d3 01       		.uleb128 .LVU1052
ARM GAS  C:\Users\DEVELO~1\AppData\Local\Temp\cc5wr7T7.s 			page 196


 11064 04d4 02       		.uleb128 .LVU1053
 11065 04d5 02       		.uleb128 .LVU1053
 11066 04d6 00       		.uleb128 .LVU1056
 11067 04d7 00       		.uleb128 .LVU1056
 11068 04d8 00       		.uleb128 .LVU1057
 11069 04d9 00       		.uleb128 .LVU1057
 11070 04da 02       		.uleb128 .LVU1061
 11071 04db 01       		.uleb128 .LVU1203
 11072 04dc 02       		.uleb128 .LVU1204
 11073 04dd 02       		.uleb128 .LVU1204
 11074 04de 01       		.uleb128 .LVU1213
 11075 04df 01       		.uleb128 .LVU1213
 11076 04e0 00       		.uleb128 .LVU1214
 11077 04e1 00       		.uleb128 .LVU1214
 11078 04e2 01       		.uleb128 .LVU1319
 11079              	.LLST82:
 11080 04e3 06       		.byte	0x6
 11081 04e4 4C010000 		.4byte	.LVL167
 11082 04e8 04       		.byte	0x4
 11083 04e9 00       		.uleb128 .LVL167-.LVL167
 11084 04ea 00       		.uleb128 .LVL167-.LVL167
 11085 04eb 02       		.uleb128 0x2
 11086 04ec 30       		.byte	0x30
 11087 04ed 9F       		.byte	0x9f
 11088 04ee 04       		.byte	0x4
 11089 04ef 00       		.uleb128 .LVL167-.LVL167
 11090 04f0 0A       		.uleb128 .LVL168-.LVL167
 11091 04f1 04       		.uleb128 0x4
 11092 04f2 75       		.byte	0x75
 11093 04f3 BE7F     		.sleb128 -66
 11094 04f5 9F       		.byte	0x9f
 11095 04f6 04       		.byte	0x4
 11096 04f7 0A       		.uleb128 .LVL168-.LVL167
 11097 04f8 0D       		.uleb128 .LVL169-1-.LVL167
 11098 04f9 04       		.uleb128 0x4
 11099 04fa 71       		.byte	0x71
 11100 04fb BE7F     		.sleb128 -66
 11101 04fd 9F       		.byte	0x9f
 11102 04fe 04       		.byte	0x4
 11103 04ff 0D       		.uleb128 .LVL169-1-.LVL167
 11104 0500 1A       		.uleb128 .LVL171-.LVL167
 11105 0501 04       		.uleb128 0x4
 11106 0502 75       		.byte	0x75
 11107 0503 BD7F     		.sleb128 -67
 11108 0505 9F       		.byte	0x9f
 11109 0506 04       		.byte	0x4
 11110 0507 CA01     		.uleb128 .LVL190-.LVL167
 11111 0509 CA01     		.uleb128 .LVL190-.LVL167
 11112 050b 02       		.uleb128 0x2
 11113 050c 30       		.byte	0x30
 11114 050d 9F       		.byte	0x9f
 11115 050e 04       		.byte	0x4
 11116 050f CA01     		.uleb128 .LVL190-.LVL167
 11117 0511 F001     		.uleb128 .LVL194-.LVL167
 11118 0513 05       		.uleb128 0x5
 11119 0514 34       		.byte	0x34
 11120 0515 75       		.byte	0x75
ARM GAS  C:\Users\DEVELO~1\AppData\Local\Temp\cc5wr7T7.s 			page 197


 11121 0516 00       		.sleb128 0
 11122 0517 1C       		.byte	0x1c
 11123 0518 9F       		.byte	0x9f
 11124 0519 04       		.byte	0x4
 11125 051a F001     		.uleb128 .LVL194-.LVL167
 11126 051c F201     		.uleb128 .LVL195-.LVL167
 11127 051e 05       		.uleb128 0x5
 11128 051f 35       		.byte	0x35
 11129 0520 75       		.byte	0x75
 11130 0521 00       		.sleb128 0
 11131 0522 1C       		.byte	0x1c
 11132 0523 9F       		.byte	0x9f
 11133 0524 04       		.byte	0x4
 11134 0525 F201     		.uleb128 .LVL195-.LVL167
 11135 0527 B003     		.uleb128 .LVL213-.LVL167
 11136 0529 05       		.uleb128 0x5
 11137 052a 34       		.byte	0x34
 11138 052b 75       		.byte	0x75
 11139 052c 00       		.sleb128 0
 11140 052d 1C       		.byte	0x1c
 11141 052e 9F       		.byte	0x9f
 11142 052f 00       		.byte	0
 11143              	.LVUS83:
 11144 0530 0D       		.uleb128 .LVU838
 11145 0531 00       		.uleb128 .LVU840
 11146              	.LLST83:
 11147 0532 08       		.byte	0x8
 11148 0533 3E000000 		.4byte	.LVL133
 11149 0537 06       		.uleb128 .LVL134-.LVL133
 11150 0538 02       		.uleb128 0x2
 11151 0539 30       		.byte	0x30
 11152 053a 9F       		.byte	0x9f
 11153 053b 00       		.byte	0
 11154              	.LVUS84:
 11155 053c 07       		.uleb128 .LVU855
 11156 053d 00       		.uleb128 .LVU857
 11157              	.LLST84:
 11158 053e 08       		.byte	0x8
 11159 053f 4E000000 		.4byte	.LVL135
 11160 0543 04       		.uleb128 .LVL136-.LVL135
 11161 0544 03       		.uleb128 0x3
 11162 0545 08       		.byte	0x8
 11163 0546 30       		.byte	0x30
 11164 0547 9F       		.byte	0x9f
 11165 0548 00       		.byte	0
 11166              	.LVUS86:
 11167 0549 04       		.uleb128 .LVU861
 11168 054a 0D       		.uleb128 .LVU870
 11169              	.LLST86:
 11170 054b 08       		.byte	0x8
 11171 054c 52000000 		.4byte	.LVL136
 11172 0550 00       		.uleb128 .LVL136-.LVL136
 11173 0551 06       		.uleb128 0x6
 11174 0552 03       		.byte	0x3
 11175 0553 00000000 		.4byte	mb1
 11176 0557 9F       		.byte	0x9f
 11177 0558 00       		.byte	0
ARM GAS  C:\Users\DEVELO~1\AppData\Local\Temp\cc5wr7T7.s 			page 198


 11178              	.LVUS88:
 11179 0559 07       		.uleb128 .LVU864
 11180 055a 09       		.uleb128 .LVU866
 11181              	.LLST88:
 11182 055b 08       		.byte	0x8
 11183 055c 52000000 		.4byte	.LVL136
 11184 0560 00       		.uleb128 .LVL136-.LVL136
 11185 0561 06       		.uleb128 0x6
 11186 0562 03       		.byte	0x3
 11187 0563 00000000 		.4byte	mb1
 11188 0567 9F       		.byte	0x9f
 11189 0568 00       		.byte	0
 11190              	.LVUS89:
 11191 0569 09       		.uleb128 .LVU866
 11192 056a 0D       		.uleb128 .LVU870
 11193              	.LLST89:
 11194 056b 08       		.byte	0x8
 11195 056c 52000000 		.4byte	.LVL136
 11196 0570 00       		.uleb128 .LVL136-.LVL136
 11197 0571 06       		.uleb128 0x6
 11198 0572 03       		.byte	0x3
 11199 0573 00000000 		.4byte	mb1
 11200 0577 9F       		.byte	0x9f
 11201 0578 00       		.byte	0
 11202              	.LVUS90:
 11203 0579 0C       		.uleb128 .LVU889
 11204 057a 00       		.uleb128 .LVU891
 11205              	.LLST90:
 11206 057b 08       		.byte	0x8
 11207 057c 72000000 		.4byte	.LVL138
 11208 0580 04       		.uleb128 .LVL139-.LVL138
 11209 0581 02       		.uleb128 0x2
 11210 0582 30       		.byte	0x30
 11211 0583 9F       		.byte	0x9f
 11212 0584 00       		.byte	0
 11213              	.LVUS91:
 11214 0585 09       		.uleb128 .LVU900
 11215 0586 00       		.uleb128 .LVU902
 11216              	.LLST91:
 11217 0587 08       		.byte	0x8
 11218 0588 76000000 		.4byte	.LVL139
 11219 058c 04       		.uleb128 .LVL140-.LVL139
 11220 058d 03       		.uleb128 0x3
 11221 058e 08       		.byte	0x8
 11222 058f 30       		.byte	0x30
 11223 0590 9F       		.byte	0x9f
 11224 0591 00       		.byte	0
 11225              	.LVUS92:
 11226 0592 04       		.uleb128 .LVU906
 11227 0593 07       		.uleb128 .LVU909
 11228              	.LLST92:
 11229 0594 08       		.byte	0x8
 11230 0595 7A000000 		.4byte	.LVL140
 11231 0599 00       		.uleb128 .LVL140-.LVL140
 11232 059a 06       		.uleb128 0x6
 11233 059b 03       		.byte	0x3
 11234 059c 00000000 		.4byte	mb1
ARM GAS  C:\Users\DEVELO~1\AppData\Local\Temp\cc5wr7T7.s 			page 199


 11235 05a0 9F       		.byte	0x9f
 11236 05a1 00       		.byte	0
 11237              	.LVUS93:
 11238 05a2 0C       		.uleb128 .LVU923
 11239 05a3 00       		.uleb128 .LVU925
 11240              	.LLST93:
 11241 05a4 08       		.byte	0x8
 11242 05a5 8C000000 		.4byte	.LVL142
 11243 05a9 04       		.uleb128 .LVL143-.LVL142
 11244 05aa 02       		.uleb128 0x2
 11245 05ab 30       		.byte	0x30
 11246 05ac 9F       		.byte	0x9f
 11247 05ad 00       		.byte	0
 11248              	.LVUS94:
 11249 05ae 0C       		.uleb128 .LVU940
 11250 05af 00       		.uleb128 .LVU942
 11251              	.LLST94:
 11252 05b0 08       		.byte	0x8
 11253 05b1 96000000 		.4byte	.LVL144
 11254 05b5 04       		.uleb128 .LVL145-.LVL144
 11255 05b6 02       		.uleb128 0x2
 11256 05b7 30       		.byte	0x30
 11257 05b8 9F       		.byte	0x9f
 11258 05b9 00       		.byte	0
 11259              	.LVUS95:
 11260 05ba 0C       		.uleb128 .LVU957
 11261 05bb 00       		.uleb128 .LVU959
 11262              	.LLST95:
 11263 05bc 08       		.byte	0x8
 11264 05bd A0000000 		.4byte	.LVL146
 11265 05c1 04       		.uleb128 .LVL147-.LVL146
 11266 05c2 02       		.uleb128 0x2
 11267 05c3 30       		.byte	0x30
 11268 05c4 9F       		.byte	0x9f
 11269 05c5 00       		.byte	0
 11270              	.LVUS96:
 11271 05c6 09       		.uleb128 .LVU968
 11272 05c7 00       		.uleb128 .LVU970
 11273              	.LLST96:
 11274 05c8 08       		.byte	0x8
 11275 05c9 A4000000 		.4byte	.LVL147
 11276 05cd 04       		.uleb128 .LVL148-.LVL147
 11277 05ce 03       		.uleb128 0x3
 11278 05cf 08       		.byte	0x8
 11279 05d0 30       		.byte	0x30
 11280 05d1 9F       		.byte	0x9f
 11281 05d2 00       		.byte	0
 11282              	.LVUS97:
 11283 05d3 0C       		.uleb128 .LVU986
 11284 05d4 00       		.uleb128 .LVU988
 11285              	.LLST97:
 11286 05d5 08       		.byte	0x8
 11287 05d6 C0000000 		.4byte	.LVL150
 11288 05da 04       		.uleb128 .LVL151-.LVL150
 11289 05db 02       		.uleb128 0x2
 11290 05dc 30       		.byte	0x30
 11291 05dd 9F       		.byte	0x9f
ARM GAS  C:\Users\DEVELO~1\AppData\Local\Temp\cc5wr7T7.s 			page 200


 11292 05de 00       		.byte	0
 11293              	.LVUS98:
 11294 05df 09       		.uleb128 .LVU997
 11295 05e0 00       		.uleb128 .LVU999
 11296              	.LLST98:
 11297 05e1 08       		.byte	0x8
 11298 05e2 C4000000 		.4byte	.LVL151
 11299 05e6 04       		.uleb128 .LVL152-.LVL151
 11300 05e7 03       		.uleb128 0x3
 11301 05e8 08       		.byte	0x8
 11302 05e9 30       		.byte	0x30
 11303 05ea 9F       		.byte	0x9f
 11304 05eb 00       		.byte	0
 11305              	.LVUS99:
 11306 05ec 0C       		.uleb128 .LVU1015
 11307 05ed 00       		.uleb128 .LVU1017
 11308              	.LLST99:
 11309 05ee 08       		.byte	0x8
 11310 05ef DE000000 		.4byte	.LVL154
 11311 05f3 04       		.uleb128 .LVL155-.LVL154
 11312 05f4 02       		.uleb128 0x2
 11313 05f5 30       		.byte	0x30
 11314 05f6 9F       		.byte	0x9f
 11315 05f7 00       		.byte	0
 11316              	.LVUS101:
 11317 05f8 02       		.uleb128 .LVU1042
 11318 05f9 00       		.uleb128 .LVU1047
 11319              	.LLST101:
 11320 05fa 08       		.byte	0x8
 11321 05fb 42010000 		.4byte	.LVL165
 11322 05ff 08       		.uleb128 .LVL166-.LVL165
 11323 0600 06       		.uleb128 0x6
 11324 0601 03       		.byte	0x3
 11325 0602 00000000 		.4byte	mb1
 11326 0606 9F       		.byte	0x9f
 11327 0607 00       		.byte	0
 11328              	.LVUS103:
 11329 0608 07       		.uleb128 .LVU1081
 11330 0609 00       		.uleb128 .LVU1083
 11331              	.LLST103:
 11332 060a 08       		.byte	0x8
 11333 060b 98010000 		.4byte	.LVL175
 11334 060f 04       		.uleb128 .LVL176-.LVL175
 11335 0610 03       		.uleb128 0x3
 11336 0611 08       		.byte	0x8
 11337 0612 30       		.byte	0x30
 11338 0613 9F       		.byte	0x9f
 11339 0614 00       		.byte	0
 11340              	.LVUS105:
 11341 0615 04       		.uleb128 .LVU1087
 11342 0616 0D       		.uleb128 .LVU1096
 11343              	.LLST105:
 11344 0617 08       		.byte	0x8
 11345 0618 9C010000 		.4byte	.LVL176
 11346 061c 00       		.uleb128 .LVL176-.LVL176
 11347 061d 06       		.uleb128 0x6
 11348 061e 03       		.byte	0x3
ARM GAS  C:\Users\DEVELO~1\AppData\Local\Temp\cc5wr7T7.s 			page 201


 11349 061f 00000000 		.4byte	mb1
 11350 0623 9F       		.byte	0x9f
 11351 0624 00       		.byte	0
 11352              	.LVUS107:
 11353 0625 07       		.uleb128 .LVU1090
 11354 0626 09       		.uleb128 .LVU1092
 11355              	.LLST107:
 11356 0627 08       		.byte	0x8
 11357 0628 9C010000 		.4byte	.LVL176
 11358 062c 00       		.uleb128 .LVL176-.LVL176
 11359 062d 06       		.uleb128 0x6
 11360 062e 03       		.byte	0x3
 11361 062f 00000000 		.4byte	mb1
 11362 0633 9F       		.byte	0x9f
 11363 0634 00       		.byte	0
 11364              	.LVUS108:
 11365 0635 09       		.uleb128 .LVU1092
 11366 0636 0D       		.uleb128 .LVU1096
 11367              	.LLST108:
 11368 0637 08       		.byte	0x8
 11369 0638 9C010000 		.4byte	.LVL176
 11370 063c 00       		.uleb128 .LVL176-.LVL176
 11371 063d 06       		.uleb128 0x6
 11372 063e 03       		.byte	0x3
 11373 063f 00000000 		.4byte	mb1
 11374 0643 9F       		.byte	0x9f
 11375 0644 00       		.byte	0
 11376              	.LVUS109:
 11377 0645 0C       		.uleb128 .LVU1113
 11378 0646 00       		.uleb128 .LVU1115
 11379              	.LLST109:
 11380 0647 08       		.byte	0x8
 11381 0648 BC010000 		.4byte	.LVL178
 11382 064c 04       		.uleb128 .LVL179-.LVL178
 11383 064d 02       		.uleb128 0x2
 11384 064e 30       		.byte	0x30
 11385 064f 9F       		.byte	0x9f
 11386 0650 00       		.byte	0
 11387              	.LVUS110:
 11388 0651 09       		.uleb128 .LVU1124
 11389 0652 00       		.uleb128 .LVU1126
 11390              	.LLST110:
 11391 0653 08       		.byte	0x8
 11392 0654 C0010000 		.4byte	.LVL179
 11393 0658 04       		.uleb128 .LVL180-.LVL179
 11394 0659 03       		.uleb128 0x3
 11395 065a 08       		.byte	0x8
 11396 065b 30       		.byte	0x30
 11397 065c 9F       		.byte	0x9f
 11398 065d 00       		.byte	0
 11399              	.LVUS111:
 11400 065e 04       		.uleb128 .LVU1130
 11401 065f 07       		.uleb128 .LVU1133
 11402              	.LLST111:
 11403 0660 08       		.byte	0x8
 11404 0661 C4010000 		.4byte	.LVL180
 11405 0665 00       		.uleb128 .LVL180-.LVL180
ARM GAS  C:\Users\DEVELO~1\AppData\Local\Temp\cc5wr7T7.s 			page 202


 11406 0666 06       		.uleb128 0x6
 11407 0667 03       		.byte	0x3
 11408 0668 00000000 		.4byte	mb1
 11409 066c 9F       		.byte	0x9f
 11410 066d 00       		.byte	0
 11411              	.LVUS112:
 11412 066e 0C       		.uleb128 .LVU1147
 11413 066f 00       		.uleb128 .LVU1149
 11414              	.LLST112:
 11415 0670 08       		.byte	0x8
 11416 0671 DC010000 		.4byte	.LVL182
 11417 0675 04       		.uleb128 .LVL183-.LVL182
 11418 0676 02       		.uleb128 0x2
 11419 0677 30       		.byte	0x30
 11420 0678 9F       		.byte	0x9f
 11421 0679 00       		.byte	0
 11422              	.LVUS113:
 11423 067a 0C       		.uleb128 .LVU1163
 11424 067b 00       		.uleb128 .LVU1165
 11425              	.LLST113:
 11426 067c 08       		.byte	0x8
 11427 067d E2010000 		.4byte	.LVL184
 11428 0681 04       		.uleb128 .LVL185-.LVL184
 11429 0682 02       		.uleb128 0x2
 11430 0683 30       		.byte	0x30
 11431 0684 9F       		.byte	0x9f
 11432 0685 00       		.byte	0
 11433              	.LVUS114:
 11434 0686 09       		.uleb128 .LVU1174
 11435 0687 00       		.uleb128 .LVU1176
 11436              	.LLST114:
 11437 0688 08       		.byte	0x8
 11438 0689 E6010000 		.4byte	.LVL185
 11439 068d 04       		.uleb128 .LVL186-.LVL185
 11440 068e 03       		.uleb128 0x3
 11441 068f 08       		.byte	0x8
 11442 0690 30       		.byte	0x30
 11443 0691 9F       		.byte	0x9f
 11444 0692 00       		.byte	0
 11445              	.LVUS115:
 11446 0693 0C       		.uleb128 .LVU1192
 11447 0694 00       		.uleb128 .LVU1194
 11448              	.LLST115:
 11449 0695 08       		.byte	0x8
 11450 0696 06020000 		.4byte	.LVL188
 11451 069a 04       		.uleb128 .LVL189-.LVL188
 11452 069b 02       		.uleb128 0x2
 11453 069c 30       		.byte	0x30
 11454 069d 9F       		.byte	0x9f
 11455 069e 00       		.byte	0
 11456              	.LVUS117:
 11457 069f 07       		.uleb128 .LVU1244
 11458 06a0 00       		.uleb128 .LVU1246
 11459              	.LLST117:
 11460 06a1 08       		.byte	0x8
 11461 06a2 94020000 		.4byte	.LVL203
 11462 06a6 04       		.uleb128 .LVL204-.LVL203
ARM GAS  C:\Users\DEVELO~1\AppData\Local\Temp\cc5wr7T7.s 			page 203


 11463 06a7 03       		.uleb128 0x3
 11464 06a8 08       		.byte	0x8
 11465 06a9 30       		.byte	0x30
 11466 06aa 9F       		.byte	0x9f
 11467 06ab 00       		.byte	0
 11468              	.LVUS119:
 11469 06ac 04       		.uleb128 .LVU1250
 11470 06ad 0D       		.uleb128 .LVU1259
 11471              	.LLST119:
 11472 06ae 08       		.byte	0x8
 11473 06af 98020000 		.4byte	.LVL204
 11474 06b3 00       		.uleb128 .LVL204-.LVL204
 11475 06b4 06       		.uleb128 0x6
 11476 06b5 03       		.byte	0x3
 11477 06b6 00000000 		.4byte	mb1
 11478 06ba 9F       		.byte	0x9f
 11479 06bb 00       		.byte	0
 11480              	.LVUS121:
 11481 06bc 07       		.uleb128 .LVU1253
 11482 06bd 09       		.uleb128 .LVU1255
 11483              	.LLST121:
 11484 06be 08       		.byte	0x8
 11485 06bf 98020000 		.4byte	.LVL204
 11486 06c3 00       		.uleb128 .LVL204-.LVL204
 11487 06c4 06       		.uleb128 0x6
 11488 06c5 03       		.byte	0x3
 11489 06c6 00000000 		.4byte	mb1
 11490 06ca 9F       		.byte	0x9f
 11491 06cb 00       		.byte	0
 11492              	.LVUS122:
 11493 06cc 09       		.uleb128 .LVU1255
 11494 06cd 0D       		.uleb128 .LVU1259
 11495              	.LLST122:
 11496 06ce 08       		.byte	0x8
 11497 06cf 98020000 		.4byte	.LVL204
 11498 06d3 00       		.uleb128 .LVL204-.LVL204
 11499 06d4 06       		.uleb128 0x6
 11500 06d5 03       		.byte	0x3
 11501 06d6 00000000 		.4byte	mb1
 11502 06da 9F       		.byte	0x9f
 11503 06db 00       		.byte	0
 11504              	.LVUS123:
 11505 06dc 0C       		.uleb128 .LVU1277
 11506 06dd 00       		.uleb128 .LVU1279
 11507              	.LLST123:
 11508 06de 08       		.byte	0x8
 11509 06df B6020000 		.4byte	.LVL206
 11510 06e3 04       		.uleb128 .LVL207-.LVL206
 11511 06e4 02       		.uleb128 0x2
 11512 06e5 30       		.byte	0x30
 11513 06e6 9F       		.byte	0x9f
 11514 06e7 00       		.byte	0
 11515              	.LVUS124:
 11516 06e8 09       		.uleb128 .LVU1288
 11517 06e9 00       		.uleb128 .LVU1290
 11518              	.LLST124:
 11519 06ea 08       		.byte	0x8
ARM GAS  C:\Users\DEVELO~1\AppData\Local\Temp\cc5wr7T7.s 			page 204


 11520 06eb BA020000 		.4byte	.LVL207
 11521 06ef 04       		.uleb128 .LVL208-.LVL207
 11522 06f0 03       		.uleb128 0x3
 11523 06f1 08       		.byte	0x8
 11524 06f2 30       		.byte	0x30
 11525 06f3 9F       		.byte	0x9f
 11526 06f4 00       		.byte	0
 11527              	.LVUS125:
 11528 06f5 04       		.uleb128 .LVU1294
 11529 06f6 07       		.uleb128 .LVU1297
 11530              	.LLST125:
 11531 06f7 08       		.byte	0x8
 11532 06f8 BE020000 		.4byte	.LVL208
 11533 06fc 00       		.uleb128 .LVL208-.LVL208
 11534 06fd 06       		.uleb128 0x6
 11535 06fe 03       		.byte	0x3
 11536 06ff 00000000 		.4byte	mb1
 11537 0703 9F       		.byte	0x9f
 11538 0704 00       		.byte	0
 11539              	.LVUS126:
 11540 0705 0C       		.uleb128 .LVU1311
 11541 0706 00       		.uleb128 .LVU1313
 11542              	.LLST126:
 11543 0707 08       		.byte	0x8
 11544 0708 D2020000 		.4byte	.LVL210
 11545 070c 04       		.uleb128 .LVL211-.LVL210
 11546 070d 02       		.uleb128 0x2
 11547 070e 30       		.byte	0x30
 11548 070f 9F       		.byte	0x9f
 11549 0710 00       		.byte	0
 11550              	.Ldebug_loc3:
 11551              		.section	.debug_aranges,"",%progbits
 11552 0000 3C000000 		.4byte	0x3c
 11553 0004 0200     		.2byte	0x2
 11554 0006 00000000 		.4byte	.Ldebug_info0
 11555 000a 04       		.byte	0x4
 11556 000b 00       		.byte	0
 11557 000c 0000     		.2byte	0
 11558 000e 0000     		.2byte	0
 11559 0010 00000000 		.4byte	.LFB436
 11560 0014 0C000000 		.4byte	.LFE436-.LFB436
 11561 0018 00000000 		.4byte	.LFB443
 11562 001c 24010000 		.4byte	.LFE443-.LFB443
 11563 0020 00000000 		.4byte	.LFB435
 11564 0024 14000000 		.4byte	.LFE435-.LFB435
 11565 0028 00000000 		.4byte	.LFB440
 11566 002c E8020000 		.4byte	.LFE440-.LFB440
 11567 0030 00000000 		.4byte	.LFB437
 11568 0034 38030000 		.4byte	.LFE437-.LFB437
 11569 0038 00000000 		.4byte	0
 11570 003c 00000000 		.4byte	0
 11571              		.section	.debug_rnglists,"",%progbits
 11572              	.Ldebug_ranges0:
 11573 0000 82010000 		.4byte	.Ldebug_ranges3-.Ldebug_ranges2
 11574              	.Ldebug_ranges2:
 11575 0004 0500     		.2byte	0x5
 11576 0006 04       		.byte	0x4
ARM GAS  C:\Users\DEVELO~1\AppData\Local\Temp\cc5wr7T7.s 			page 205


 11577 0007 00       		.byte	0
 11578 0008 00000000 		.4byte	0
 11579              	.LLRL6:
 11580 000c 05       		.byte	0x5
 11581 000d CC000000 		.4byte	.LBB1022
 11582 0011 04       		.byte	0x4
 11583 0012 00       		.uleb128 .LBB1022-.LBB1022
 11584 0013 00       		.uleb128 .LBE1022-.LBB1022
 11585 0014 04       		.byte	0x4
 11586 0015 0C       		.uleb128 .LBB1025-.LBB1022
 11587 0016 0E       		.uleb128 .LBE1025-.LBB1022
 11588 0017 00       		.byte	0
 11589              	.LLRL10:
 11590 0018 05       		.byte	0x5
 11591 0019 0A000000 		.4byte	.LBB1292
 11592 001d 04       		.byte	0x4
 11593 001e 00       		.uleb128 .LBB1292-.LBB1292
 11594 001f 02       		.uleb128 .LBE1292-.LBB1292
 11595 0020 04       		.byte	0x4
 11596 0021 04       		.uleb128 .LBB1301-.LBB1292
 11597 0022 08       		.uleb128 .LBE1301-.LBB1292
 11598 0023 00       		.byte	0
 11599              	.LLRL12:
 11600 0024 05       		.byte	0x5
 11601 0025 12000000 		.4byte	.LBB1302
 11602 0029 04       		.byte	0x4
 11603 002a 00       		.uleb128 .LBB1302-.LBB1302
 11604 002b 02       		.uleb128 .LBE1302-.LBB1302
 11605 002c 04       		.byte	0x4
 11606 002d 04       		.uleb128 .LBB1313-.LBB1302
 11607 002e 10       		.uleb128 .LBE1313-.LBB1302
 11608 002f 00       		.byte	0
 11609              	.LLRL14:
 11610 0030 05       		.byte	0x5
 11611 0031 12000000 		.4byte	.LBB1304
 11612 0035 04       		.byte	0x4
 11613 0036 00       		.uleb128 .LBB1304-.LBB1304
 11614 0037 00       		.uleb128 .LBE1304-.LBB1304
 11615 0038 04       		.byte	0x4
 11616 0039 00       		.uleb128 .LBB1310-.LBB1304
 11617 003a 02       		.uleb128 .LBE1310-.LBB1304
 11618 003b 04       		.byte	0x4
 11619 003c 06       		.uleb128 .LBB1311-.LBB1304
 11620 003d 0C       		.uleb128 .LBE1311-.LBB1304
 11621 003e 00       		.byte	0
 11622              	.LLRL18:
 11623 003f 05       		.byte	0x5
 11624 0040 3E000000 		.4byte	.LBB1320
 11625 0044 04       		.byte	0x4
 11626 0045 00       		.uleb128 .LBB1320-.LBB1320
 11627 0046 5A       		.uleb128 .LBE1320-.LBB1320
 11628 0047 04       		.byte	0x4
 11629 0048 60       		.uleb128 .LBB1531-.LBB1320
 11630 0049 64       		.uleb128 .LBE1531-.LBB1320
 11631 004a 04       		.byte	0x4
 11632 004b 6A       		.uleb128 .LBB1532-.LBB1320
 11633 004c AA05     		.uleb128 .LBE1532-.LBB1320
ARM GAS  C:\Users\DEVELO~1\AppData\Local\Temp\cc5wr7T7.s 			page 206


 11634 004e 00       		.byte	0
 11635              	.LLRL25:
 11636 004f 05       		.byte	0x5
 11637 0050 5A000000 		.4byte	.LBB1342
 11638 0054 04       		.byte	0x4
 11639 0055 00       		.uleb128 .LBB1342-.LBB1342
 11640 0056 08       		.uleb128 .LBE1342-.LBB1342
 11641 0057 04       		.byte	0x4
 11642 0058 0A       		.uleb128 .LBB1353-.LBB1342
 11643 0059 0E       		.uleb128 .LBE1353-.LBB1342
 11644 005a 00       		.byte	0
 11645              	.LLRL27:
 11646 005b 05       		.byte	0x5
 11647 005c 5A000000 		.4byte	.LBB1344
 11648 0060 04       		.byte	0x4
 11649 0061 00       		.uleb128 .LBB1344-.LBB1344
 11650 0062 00       		.uleb128 .LBE1344-.LBB1344
 11651 0063 04       		.byte	0x4
 11652 0064 00       		.uleb128 .LBB1350-.LBB1344
 11653 0065 04       		.uleb128 .LBE1350-.LBB1344
 11654 0066 04       		.byte	0x4
 11655 0067 06       		.uleb128 .LBB1351-.LBB1344
 11656 0068 08       		.uleb128 .LBE1351-.LBB1344
 11657 0069 00       		.byte	0
 11658              	.LLRL40:
 11659 006a 05       		.byte	0x5
 11660 006b EA000000 		.4byte	.LBB1407
 11661 006f 04       		.byte	0x4
 11662 0070 00       		.uleb128 .LBB1407-.LBB1407
 11663 0071 00       		.uleb128 .LBE1407-.LBB1407
 11664 0072 04       		.byte	0x4
 11665 0073 0A       		.uleb128 .LBB1410-.LBB1407
 11666 0074 0C       		.uleb128 .LBE1410-.LBB1407
 11667 0075 00       		.byte	0
 11668              	.LLRL47:
 11669 0076 05       		.byte	0x5
 11670 0077 56010000 		.4byte	.LBB1434
 11671 007b 04       		.byte	0x4
 11672 007c 00       		.uleb128 .LBB1434-.LBB1434
 11673 007d 04       		.uleb128 .LBE1434-.LBB1434
 11674 007e 04       		.byte	0x4
 11675 007f 06       		.uleb128 .LBB1443-.LBB1434
 11676 0080 08       		.uleb128 .LBE1443-.LBB1434
 11677 0081 00       		.byte	0
 11678              	.LLRL49:
 11679 0082 05       		.byte	0x5
 11680 0083 56010000 		.4byte	.LBB1435
 11681 0087 04       		.byte	0x4
 11682 0088 00       		.uleb128 .LBB1435-.LBB1435
 11683 0089 00       		.uleb128 .LBE1435-.LBB1435
 11684 008a 04       		.byte	0x4
 11685 008b 00       		.uleb128 .LBB1441-.LBB1435
 11686 008c 04       		.uleb128 .LBE1441-.LBB1435
 11687 008d 04       		.byte	0x4
 11688 008e 06       		.uleb128 .LBB1442-.LBB1435
 11689 008f 08       		.uleb128 .LBE1442-.LBB1435
 11690 0090 00       		.byte	0
ARM GAS  C:\Users\DEVELO~1\AppData\Local\Temp\cc5wr7T7.s 			page 207


 11691              	.LLRL58:
 11692 0091 05       		.byte	0x5
 11693 0092 BC010000 		.4byte	.LBB1474
 11694 0096 04       		.byte	0x4
 11695 0097 00       		.uleb128 .LBB1474-.LBB1474
 11696 0098 02       		.uleb128 .LBE1474-.LBB1474
 11697 0099 04       		.byte	0x4
 11698 009a 0A       		.uleb128 .LBB1481-.LBB1474
 11699 009b 0E       		.uleb128 .LBE1481-.LBB1474
 11700 009c 00       		.byte	0
 11701              	.LLRL62:
 11702 009d 05       		.byte	0x5
 11703 009e 4E020000 		.4byte	.LBB1492
 11704 00a2 04       		.byte	0x4
 11705 00a3 00       		.uleb128 .LBB1492-.LBB1492
 11706 00a4 04       		.uleb128 .LBE1492-.LBB1492
 11707 00a5 04       		.byte	0x4
 11708 00a6 06       		.uleb128 .LBB1503-.LBB1492
 11709 00a7 0E       		.uleb128 .LBE1503-.LBB1492
 11710 00a8 00       		.byte	0
 11711              	.LLRL64:
 11712 00a9 05       		.byte	0x5
 11713 00aa 4E020000 		.4byte	.LBB1494
 11714 00ae 04       		.byte	0x4
 11715 00af 00       		.uleb128 .LBB1494-.LBB1494
 11716 00b0 00       		.uleb128 .LBE1494-.LBB1494
 11717 00b1 04       		.byte	0x4
 11718 00b2 00       		.uleb128 .LBB1500-.LBB1494
 11719 00b3 04       		.uleb128 .LBE1500-.LBB1494
 11720 00b4 04       		.byte	0x4
 11721 00b5 06       		.uleb128 .LBB1501-.LBB1494
 11722 00b6 08       		.uleb128 .LBE1501-.LBB1494
 11723 00b7 00       		.byte	0
 11724              	.LLRL72:
 11725 00b8 05       		.byte	0x5
 11726 00b9 0A000000 		.4byte	.LBB1754
 11727 00bd 04       		.byte	0x4
 11728 00be 00       		.uleb128 .LBB1754-.LBB1754
 11729 00bf 02       		.uleb128 .LBE1754-.LBB1754
 11730 00c0 04       		.byte	0x4
 11731 00c1 04       		.uleb128 .LBB1763-.LBB1754
 11732 00c2 08       		.uleb128 .LBE1763-.LBB1754
 11733 00c3 00       		.byte	0
 11734              	.LLRL74:
 11735 00c4 05       		.byte	0x5
 11736 00c5 12000000 		.4byte	.LBB1764
 11737 00c9 04       		.byte	0x4
 11738 00ca 00       		.uleb128 .LBB1764-.LBB1764
 11739 00cb 02       		.uleb128 .LBE1764-.LBB1764
 11740 00cc 04       		.byte	0x4
 11741 00cd 04       		.uleb128 .LBB1775-.LBB1764
 11742 00ce 10       		.uleb128 .LBE1775-.LBB1764
 11743 00cf 00       		.byte	0
 11744              	.LLRL76:
 11745 00d0 05       		.byte	0x5
 11746 00d1 12000000 		.4byte	.LBB1766
 11747 00d5 04       		.byte	0x4
ARM GAS  C:\Users\DEVELO~1\AppData\Local\Temp\cc5wr7T7.s 			page 208


 11748 00d6 00       		.uleb128 .LBB1766-.LBB1766
 11749 00d7 00       		.uleb128 .LBE1766-.LBB1766
 11750 00d8 04       		.byte	0x4
 11751 00d9 00       		.uleb128 .LBB1772-.LBB1766
 11752 00da 02       		.uleb128 .LBE1772-.LBB1766
 11753 00db 04       		.byte	0x4
 11754 00dc 06       		.uleb128 .LBB1773-.LBB1766
 11755 00dd 0C       		.uleb128 .LBE1773-.LBB1766
 11756 00de 00       		.byte	0
 11757              	.LLRL80:
 11758 00df 05       		.byte	0x5
 11759 00e0 3E000000 		.4byte	.LBB1782
 11760 00e4 04       		.byte	0x4
 11761 00e5 00       		.uleb128 .LBB1782-.LBB1782
 11762 00e6 52       		.uleb128 .LBE1782-.LBB1782
 11763 00e7 04       		.byte	0x4
 11764 00e8 58       		.uleb128 .LBB1963-.LBB1782
 11765 00e9 5C       		.uleb128 .LBE1963-.LBB1782
 11766 00ea 04       		.byte	0x4
 11767 00eb 62       		.uleb128 .LBB1964-.LBB1782
 11768 00ec FA05     		.uleb128 .LBE1964-.LBB1782
 11769 00ee 00       		.byte	0
 11770              	.LLRL85:
 11771 00ef 05       		.byte	0x5
 11772 00f0 52000000 		.4byte	.LBB1795
 11773 00f4 04       		.byte	0x4
 11774 00f5 00       		.uleb128 .LBB1795-.LBB1795
 11775 00f6 08       		.uleb128 .LBE1795-.LBB1795
 11776 00f7 04       		.byte	0x4
 11777 00f8 0A       		.uleb128 .LBB1806-.LBB1795
 11778 00f9 0E       		.uleb128 .LBE1806-.LBB1795
 11779 00fa 00       		.byte	0
 11780              	.LLRL87:
 11781 00fb 05       		.byte	0x5
 11782 00fc 52000000 		.4byte	.LBB1797
 11783 0100 04       		.byte	0x4
 11784 0101 00       		.uleb128 .LBB1797-.LBB1797
 11785 0102 00       		.uleb128 .LBE1797-.LBB1797
 11786 0103 04       		.byte	0x4
 11787 0104 00       		.uleb128 .LBB1803-.LBB1797
 11788 0105 04       		.uleb128 .LBE1803-.LBB1797
 11789 0106 04       		.byte	0x4
 11790 0107 06       		.uleb128 .LBB1804-.LBB1797
 11791 0108 08       		.uleb128 .LBE1804-.LBB1797
 11792 0109 00       		.byte	0
 11793              	.LLRL100:
 11794 010a 05       		.byte	0x5
 11795 010b 42010000 		.4byte	.LBB1860
 11796 010f 04       		.byte	0x4
 11797 0110 00       		.uleb128 .LBB1860-.LBB1860
 11798 0111 00       		.uleb128 .LBE1860-.LBB1860
 11799 0112 04       		.byte	0x4
 11800 0113 06       		.uleb128 .LBB1863-.LBB1860
 11801 0114 08       		.uleb128 .LBE1863-.LBB1860
 11802 0115 00       		.byte	0
 11803              	.LLRL102:
 11804 0116 05       		.byte	0x5
ARM GAS  C:\Users\DEVELO~1\AppData\Local\Temp\cc5wr7T7.s 			page 209


 11805 0117 92010000 		.4byte	.LBB1864
 11806 011b 04       		.byte	0x4
 11807 011c 00       		.uleb128 .LBB1864-.LBB1864
 11808 011d 04       		.uleb128 .LBE1864-.LBB1864
 11809 011e 04       		.byte	0x4
 11810 011f 06       		.uleb128 .LBB1873-.LBB1864
 11811 0120 0A       		.uleb128 .LBE1873-.LBB1864
 11812 0121 00       		.byte	0
 11813              	.LLRL104:
 11814 0122 05       		.byte	0x5
 11815 0123 9C010000 		.4byte	.LBB1874
 11816 0127 04       		.byte	0x4
 11817 0128 00       		.uleb128 .LBB1874-.LBB1874
 11818 0129 04       		.uleb128 .LBE1874-.LBB1874
 11819 012a 04       		.byte	0x4
 11820 012b 06       		.uleb128 .LBB1883-.LBB1874
 11821 012c 08       		.uleb128 .LBE1883-.LBB1874
 11822 012d 00       		.byte	0
 11823              	.LLRL106:
 11824 012e 05       		.byte	0x5
 11825 012f 9C010000 		.4byte	.LBB1875
 11826 0133 04       		.byte	0x4
 11827 0134 00       		.uleb128 .LBB1875-.LBB1875
 11828 0135 00       		.uleb128 .LBE1875-.LBB1875
 11829 0136 04       		.byte	0x4
 11830 0137 00       		.uleb128 .LBB1881-.LBB1875
 11831 0138 04       		.uleb128 .LBE1881-.LBB1875
 11832 0139 04       		.byte	0x4
 11833 013a 06       		.uleb128 .LBB1882-.LBB1875
 11834 013b 08       		.uleb128 .LBE1882-.LBB1875
 11835 013c 00       		.byte	0
 11836              	.LLRL116:
 11837 013d 05       		.byte	0x5
 11838 013e 90020000 		.4byte	.LBB1920
 11839 0142 04       		.byte	0x4
 11840 0143 00       		.uleb128 .LBB1920-.LBB1920
 11841 0144 02       		.uleb128 .LBE1920-.LBB1920
 11842 0145 04       		.byte	0x4
 11843 0146 04       		.uleb128 .LBB1929-.LBB1920
 11844 0147 08       		.uleb128 .LBE1929-.LBB1920
 11845 0148 00       		.byte	0
 11846              	.LLRL118:
 11847 0149 05       		.byte	0x5
 11848 014a 98020000 		.4byte	.LBB1930
 11849 014e 04       		.byte	0x4
 11850 014f 00       		.uleb128 .LBB1930-.LBB1930
 11851 0150 04       		.uleb128 .LBE1930-.LBB1930
 11852 0151 04       		.byte	0x4
 11853 0152 06       		.uleb128 .LBB1941-.LBB1930
 11854 0153 0E       		.uleb128 .LBE1941-.LBB1930
 11855 0154 00       		.byte	0
 11856              	.LLRL120:
 11857 0155 05       		.byte	0x5
 11858 0156 98020000 		.4byte	.LBB1932
 11859 015a 04       		.byte	0x4
 11860 015b 00       		.uleb128 .LBB1932-.LBB1932
 11861 015c 00       		.uleb128 .LBE1932-.LBB1932
ARM GAS  C:\Users\DEVELO~1\AppData\Local\Temp\cc5wr7T7.s 			page 210


 11862 015d 04       		.byte	0x4
 11863 015e 00       		.uleb128 .LBB1938-.LBB1932
 11864 015f 04       		.uleb128 .LBE1938-.LBB1932
 11865 0160 04       		.byte	0x4
 11866 0161 06       		.uleb128 .LBB1939-.LBB1932
 11867 0162 08       		.uleb128 .LBE1939-.LBB1932
 11868 0163 00       		.byte	0
 11869              	.LLRL127:
 11870 0164 07       		.byte	0x7
 11871 0165 00000000 		.4byte	.LFB436
 11872 0169 0C       		.uleb128 .LFE436-.LFB436
 11873 016a 07       		.byte	0x7
 11874 016b 00000000 		.4byte	.LFB443
 11875 016f A402     		.uleb128 .LFE443-.LFB443
 11876 0171 07       		.byte	0x7
 11877 0172 00000000 		.4byte	.LFB435
 11878 0176 14       		.uleb128 .LFE435-.LFB435
 11879 0177 07       		.byte	0x7
 11880 0178 00000000 		.4byte	.LFB440
 11881 017c E805     		.uleb128 .LFE440-.LFB440
 11882 017e 07       		.byte	0x7
 11883 017f 00000000 		.4byte	.LFB437
 11884 0183 B806     		.uleb128 .LFE437-.LFB437
 11885 0185 00       		.byte	0
 11886              	.Ldebug_ranges3:
 11887              		.section	.debug_line,"",%progbits
 11888              	.Ldebug_line0:
 11889 0000 1C1A0000 		.section	.debug_str,"MS",%progbits,1
 11889      03000003 
 11889      00000201 
 11889      FB0E0D00 
 11889      01010101 
 11890              	.LASF2:
 11891 0000 6C6F6E67 		.ascii	"long double\000"
 11891      20646F75 
 11891      626C6500 
 11892              	.LASF55:
 11893 000c 63617365 		.ascii	"cases\000"
 11893      7300
 11894              	.LASF80:
 11895 0012 6F736C69 		.ascii	"oslib_test_002_002_teardown\000"
 11895      625F7465 
 11895      73745F30 
 11895      30325F30 
 11895      30325F74 
 11896              	.LASF49:
 11897 002e 63685F74 		.ascii	"ch_test_context_t\000"
 11897      6573745F 
 11897      636F6E74 
 11897      6578745F 
 11897      7400
 11898              	.LASF85:
 11899 0040 6F736C69 		.ascii	"oslib_test_002_001_setup\000"
 11899      625F7465 
 11899      73745F30 
 11899      30325F30 
 11899      30315F73 
ARM GAS  C:\Users\DEVELO~1\AppData\Local\Temp\cc5wr7T7.s 			page 211


 11900              	.LASF28:
 11901 0059 74687265 		.ascii	"threads_queue_t\000"
 11901      6164735F 
 11901      71756575 
 11901      655F7400 
 11902              	.LASF37:
 11903 0069 77726974 		.ascii	"write\000"
 11903      6500
 11904              	.LASF66:
 11905 006f 63684D42 		.ascii	"chMBObjectInit\000"
 11905      4F626A65 
 11905      6374496E 
 11905      697400
 11906              	.LASF69:
 11907 007e 63684D42 		.ascii	"chMBFetchTimeout\000"
 11907      46657463 
 11907      6854696D 
 11907      656F7574 
 11907      00
 11908              	.LASF81:
 11909 008f 6F736C69 		.ascii	"oslib_test_002_002_setup\000"
 11909      625F7465 
 11909      73745F30 
 11909      30325F30 
 11909      30325F73 
 11910              	.LASF7:
 11911 00a8 73686F72 		.ascii	"short int\000"
 11911      7420696E 
 11911      7400
 11912              	.LASF4:
 11913 00b2 73697A65 		.ascii	"size_t\000"
 11913      5F7400
 11914              	.LASF89:
 11915 00b9 63684D42 		.ascii	"chMBGetFreeCountI\000"
 11915      47657446 
 11915      72656543 
 11915      6F756E74 
 11915      4900
 11916              	.LASF42:
 11917 00cb 676C6F62 		.ascii	"global_fail\000"
 11917      616C5F66 
 11917      61696C00 
 11918              	.LASF90:
 11919 00d7 63684D42 		.ascii	"chMBGetUsedCountI\000"
 11919      47657455 
 11919      73656443 
 11919      6F756E74 
 11919      4900
 11920              	.LASF47:
 11921 00e9 70757463 		.ascii	"putchar\000"
 11921      68617200 
 11922              	.LASF39:
 11923 00f1 42617365 		.ascii	"BaseSequentialStream\000"
 11923      53657175 
 11923      656E7469 
 11923      616C5374 
 11923      7265616D 
ARM GAS  C:\Users\DEVELO~1\AppData\Local\Temp\cc5wr7T7.s 			page 212


 11924              	.LASF86:
 11925 0106 6F73616C 		.ascii	"osalSysUnlock\000"
 11925      53797355 
 11925      6E6C6F63 
 11925      6B00
 11926              	.LASF57:
 11927 0114 63687465 		.ascii	"chtest\000"
 11927      737400
 11928              	.LASF75:
 11929 011b 63684D42 		.ascii	"chMBPostTimeout\000"
 11929      506F7374 
 11929      54696D65 
 11929      6F757400 
 11930              	.LASF93:
 11931 012b 63685379 		.ascii	"chSysLock\000"
 11931      734C6F63 
 11931      6B00
 11932              	.LASF56:
 11933 0135 74657374 		.ascii	"testsequence_t\000"
 11933      73657175 
 11933      656E6365 
 11933      5F7400
 11934              	.LASF54:
 11935 0144 74657374 		.ascii	"testcase_t\000"
 11935      63617365 
 11935      5F7400
 11936              	.LASF71:
 11937 014f 63684D42 		.ascii	"chMBPostAheadI\000"
 11937      506F7374 
 11937      41686561 
 11937      644900
 11938              	.LASF65:
 11939 015e 63684D42 		.ascii	"chMBResetI\000"
 11939      52657365 
 11939      744900
 11940              	.LASF14:
 11941 0169 75696E74 		.ascii	"uint8_t\000"
 11941      385F7400 
 11942              	.LASF26:
 11943 0171 63685F74 		.ascii	"ch_threads_queue\000"
 11943      68726561 
 11943      64735F71 
 11943      75657565 
 11943      00
 11944              	.LASF20:
 11945 0182 63685F71 		.ascii	"ch_queue_t\000"
 11945      75657565 
 11945      5F7400
 11946              	.LASF40:
 11947 018d 74657374 		.ascii	"test_putchar_t\000"
 11947      5F707574 
 11947      63686172 
 11947      5F7400
 11948              	.LASF16:
 11949 019c 75696E74 		.ascii	"uint32_t\000"
 11949      33325F74 
 11949      00
ARM GAS  C:\Users\DEVELO~1\AppData\Local\Temp\cc5wr7T7.s 			page 213


 11950              	.LASF41:
 11951 01a5 63757272 		.ascii	"current_step\000"
 11951      656E745F 
 11951      73746570 
 11951      00
 11952              	.LASF30:
 11953 01b2 77727074 		.ascii	"wrptr\000"
 11953      7200
 11954              	.LASF46:
 11955 01b8 746F6B65 		.ascii	"tokens_buffer\000"
 11955      6E735F62 
 11955      75666665 
 11955      7200
 11956              	.LASF76:
 11957 01c6 6D736731 		.ascii	"msg1\000"
 11957      00
 11958              	.LASF77:
 11959 01cb 6D736732 		.ascii	"msg2\000"
 11959      00
 11960              	.LASF51:
 11961 01d0 73657475 		.ascii	"setup\000"
 11961      7000
 11962              	.LASF74:
 11963 01d6 5F5F7465 		.ascii	"__test_assert\000"
 11963      73745F61 
 11963      73736572 
 11963      7400
 11964              	.LASF38:
 11965 01e4 72656164 		.ascii	"read\000"
 11965      00
 11966              	.LASF1:
 11967 01e9 6C6F6E67 		.ascii	"long long int\000"
 11967      206C6F6E 
 11967      6720696E 
 11967      7400
 11968              	.LASF36:
 11969 01f7 696E7374 		.ascii	"instance_offset\000"
 11969      616E6365 
 11969      5F6F6666 
 11969      73657400 
 11970              	.LASF44:
 11971 0207 6661696C 		.ascii	"failure_message\000"
 11971      7572655F 
 11971      6D657373 
 11971      61676500 
 11972              	.LASF45:
 11973 0217 746F6B70 		.ascii	"tokp\000"
 11973      00
 11974              	.LASF48:
 11975 021c 73747265 		.ascii	"stream\000"
 11975      616D00
 11976              	.LASF100:
 11977 0223 433A5C43 		.ascii	"C:\\ChibiStudio\\chibios2111\\demos\\STM32\\RT-STM3"
 11977      68696269 
 11977      53747564 
 11977      696F5C63 
 11977      68696269 
ARM GAS  C:\Users\DEVELO~1\AppData\Local\Temp\cc5wr7T7.s 			page 214


 11978 0251 32483734 		.ascii	"2H743ZI_REV_XY-NUCLEO144 - Copie\000"
 11978      335A495F 
 11978      5245565F 
 11978      58592D4E 
 11978      55434C45 
 11979              	.LASF5:
 11980 0272 5F5F7569 		.ascii	"__uint8_t\000"
 11980      6E74385F 
 11980      7400
 11981              	.LASF78:
 11982 027c 6F736C69 		.ascii	"oslib_test_002_003_teardown\000"
 11982      625F7465 
 11982      73745F30 
 11982      30325F30 
 11982      30335F74 
 11983              	.LASF59:
 11984 0298 6D625F62 		.ascii	"mb_buffer\000"
 11984      75666665 
 11984      7200
 11985              	.LASF52:
 11986 02a2 74656172 		.ascii	"teardown\000"
 11986      646F776E 
 11986      00
 11987              	.LASF27:
 11988 02ab 71756575 		.ascii	"queue\000"
 11988      6500
 11989              	.LASF50:
 11990 02b1 6E616D65 		.ascii	"name\000"
 11990      00
 11991              	.LASF87:
 11992 02b6 6F73616C 		.ascii	"osalSysLock\000"
 11992      5379734C 
 11992      6F636B00 
 11993              	.LASF6:
 11994 02c2 756E7369 		.ascii	"unsigned char\000"
 11994      676E6564 
 11994      20636861 
 11994      7200
 11995              	.LASF102:
 11996 02d0 5F5F6675 		.ascii	"__func__\000"
 11996      6E635F5F 
 11996      00
 11997              	.LASF43:
 11998 02d9 6C6F6361 		.ascii	"local_fail\000"
 11998      6C5F6661 
 11998      696C00
 11999              	.LASF83:
 12000 02e4 6F736C69 		.ascii	"oslib_test_002_001_execute\000"
 12000      625F7465 
 12000      73745F30 
 12000      30325F30 
 12000      30315F65 
 12001              	.LASF73:
 12002 02ff 63684D42 		.ascii	"chMBPostI\000"
 12002      506F7374 
 12002      4900
 12003              	.LASF3:
ARM GAS  C:\Users\DEVELO~1\AppData\Local\Temp\cc5wr7T7.s 			page 215


 12004 0309 7369676E 		.ascii	"signed char\000"
 12004      65642063 
 12004      68617200 
 12005              	.LASF13:
 12006 0315 6C6F6E67 		.ascii	"long long unsigned int\000"
 12006      206C6F6E 
 12006      6720756E 
 12006      7369676E 
 12006      65642069 
 12007              	.LASF84:
 12008 032c 6F736C69 		.ascii	"oslib_test_002_001_teardown\000"
 12008      625F7465 
 12008      73745F30 
 12008      30325F30 
 12008      30315F74 
 12009              	.LASF82:
 12010 0348 6F736C69 		.ascii	"oslib_test_002_002_execute\000"
 12010      625F7465 
 12010      73745F30 
 12010      30325F30 
 12010      30325F65 
 12011              	.LASF0:
 12012 0363 756E7369 		.ascii	"unsigned int\000"
 12012      676E6564 
 12012      20696E74 
 12012      00
 12013              	.LASF61:
 12014 0370 6F736C69 		.ascii	"oslib_test_002_002\000"
 12014      625F7465 
 12014      73745F30 
 12014      30325F30 
 12014      303200
 12015              	.LASF12:
 12016 0383 6C6F6E67 		.ascii	"long unsigned int\000"
 12016      20756E73 
 12016      69676E65 
 12016      6420696E 
 12016      7400
 12017              	.LASF101:
 12018 0395 6F736C69 		.ascii	"oslib_test_002_003_execute\000"
 12018      625F7465 
 12018      73745F30 
 12018      30325F30 
 12018      30335F65 
 12019              	.LASF19:
 12020 03b0 73797369 		.ascii	"sysinterval_t\000"
 12020      6E746572 
 12020      76616C5F 
 12020      7400
 12021              	.LASF68:
 12022 03be 63684D42 		.ascii	"chMBFetchI\000"
 12022      46657463 
 12022      684900
 12023              	.LASF8:
 12024 03c9 73686F72 		.ascii	"short unsigned int\000"
 12024      7420756E 
 12024      7369676E 
ARM GAS  C:\Users\DEVELO~1\AppData\Local\Temp\cc5wr7T7.s 			page 216


 12024      65642069 
 12024      6E7400
 12025              	.LASF97:
 12026 03dc 62617365 		.ascii	"basePri\000"
 12026      50726900 
 12027              	.LASF79:
 12028 03e4 6F736C69 		.ascii	"oslib_test_002_003_setup\000"
 12028      625F7465 
 12028      73745F30 
 12028      30325F30 
 12028      30335F73 
 12029              	.LASF58:
 12030 03fd 6F736C69 		.ascii	"oslib_test_sequence_002\000"
 12030      625F7465 
 12030      73745F73 
 12030      65717565 
 12030      6E63655F 
 12031              	.LASF18:
 12032 0415 63686172 		.ascii	"char\000"
 12032      00
 12033              	.LASF10:
 12034 041a 6C6F6E67 		.ascii	"long int\000"
 12034      20696E74 
 12034      00
 12035              	.LASF35:
 12036 0423 42617365 		.ascii	"BaseSequentialStreamVMT\000"
 12036      53657175 
 12036      656E7469 
 12036      616C5374 
 12036      7265616D 
 12037              	.LASF15:
 12038 043b 696E7433 		.ascii	"int32_t\000"
 12038      325F7400 
 12039              	.LASF34:
 12040 0443 6D61696C 		.ascii	"mailbox_t\000"
 12040      626F785F 
 12040      7400
 12041              	.LASF33:
 12042 044d 5F426F6F 		.ascii	"_Bool\000"
 12042      6C00
 12043              	.LASF94:
 12044 0453 706F7274 		.ascii	"port_unlock\000"
 12044      5F756E6C 
 12044      6F636B00 
 12045              	.LASF95:
 12046 045f 706F7274 		.ascii	"port_lock\000"
 12046      5F6C6F63 
 12046      6B00
 12047              	.LASF29:
 12048 0469 62756666 		.ascii	"buffer\000"
 12048      657200
 12049              	.LASF23:
 12050 0470 666C6F61 		.ascii	"float\000"
 12050      7400
 12051              	.LASF67:
 12052 0476 5F5F7465 		.ascii	"__test_assert_sequence\000"
 12052      73745F61 
ARM GAS  C:\Users\DEVELO~1\AppData\Local\Temp\cc5wr7T7.s 			page 217


 12052      73736572 
 12052      745F7365 
 12052      7175656E 
 12053              	.LASF98:
 12054 048d 474E5520 		.ascii	"GNU C17 11.3.1 20220712 -mcpu=cortex-m7 -mthumb -mf"
 12054      43313720 
 12054      31312E33 
 12054      2E312032 
 12054      30323230 
 12055 04c0 6C6F6174 		.ascii	"loat-abi=soft -march=armv7e-m -ggdb -O2 -fomit-fram"
 12055      2D616269 
 12055      3D736F66 
 12055      74202D6D 
 12055      61726368 
 12056 04f3 652D706F 		.ascii	"e-pointer -falign-functions=16 -ffunction-sections "
 12056      696E7465 
 12056      72202D66 
 12056      616C6967 
 12056      6E2D6675 
 12057 0526 2D666461 		.ascii	"-fdata-sections -fno-common\000"
 12057      74612D73 
 12057      65637469 
 12057      6F6E7320 
 12057      2D666E6F 
 12058              	.LASF24:
 12059 0542 646F7562 		.ascii	"double\000"
 12059      6C6500
 12060              	.LASF91:
 12061 0549 63684D42 		.ascii	"chMBGetSizeI\000"
 12061      47657453 
 12061      697A6549 
 12061      00
 12062              	.LASF11:
 12063 0556 5F5F7569 		.ascii	"__uint32_t\000"
 12063      6E743332 
 12063      5F7400
 12064              	.LASF92:
 12065 0561 63685379 		.ascii	"chSysUnlock\000"
 12065      73556E6C 
 12065      6F636B00 
 12066              	.LASF32:
 12067 056d 72657365 		.ascii	"reset\000"
 12067      7400
 12068              	.LASF9:
 12069 0573 5F5F696E 		.ascii	"__int32_t\000"
 12069      7433325F 
 12069      7400
 12070              	.LASF70:
 12071 057d 63684D42 		.ascii	"chMBReset\000"
 12071      52657365 
 12071      7400
 12072              	.LASF72:
 12073 0587 63684D42 		.ascii	"chMBPostAheadTimeout\000"
 12073      506F7374 
 12073      41686561 
 12073      6454696D 
 12073      656F7574 
ARM GAS  C:\Users\DEVELO~1\AppData\Local\Temp\cc5wr7T7.s 			page 218


 12074              	.LASF63:
 12075 059c 6F736C69 		.ascii	"oslib_test_sequence_002_array\000"
 12075      625F7465 
 12075      73745F73 
 12075      65717565 
 12075      6E63655F 
 12076              	.LASF25:
 12077 05ba 63685F71 		.ascii	"ch_queue\000"
 12077      75657565 
 12077      00
 12078              	.LASF31:
 12079 05c3 72647074 		.ascii	"rdptr\000"
 12079      7200
 12080              	.LASF60:
 12081 05c9 6F736C69 		.ascii	"oslib_test_002_001\000"
 12081      625F7465 
 12081      73745F30 
 12081      30325F30 
 12081      303100
 12082              	.LASF53:
 12083 05dc 65786563 		.ascii	"execute\000"
 12083      75746500 
 12084              	.LASF62:
 12085 05e4 6F736C69 		.ascii	"oslib_test_002_003\000"
 12085      625F7465 
 12085      73745F30 
 12085      30325F30 
 12085      303300
 12086              	.LASF96:
 12087 05f7 5F5F7365 		.ascii	"__set_BASEPRI\000"
 12087      745F4241 
 12087      53455052 
 12087      4900
 12088              	.LASF64:
 12089 0605 74657374 		.ascii	"test_emit_token\000"
 12089      5F656D69 
 12089      745F746F 
 12089      6B656E00 
 12090              	.LASF22:
 12091 0615 70726576 		.ascii	"prev\000"
 12091      00
 12092              	.LASF88:
 12093 061a 63684D42 		.ascii	"chMBResumeX\000"
 12093      52657375 
 12093      6D655800 
 12094              	.LASF17:
 12095 0626 6D73675F 		.ascii	"msg_t\000"
 12095      7400
 12096              	.LASF21:
 12097 062c 6E657874 		.ascii	"next\000"
 12097      00
 12098              	.LASF99:
 12099 0631 2E2E2F2E 		.ascii	"../../../test/oslib/source/test/oslib_test_sequence"
 12099      2E2F2E2E 
 12099      2F746573 
 12099      742F6F73 
 12099      6C69622F 
ARM GAS  C:\Users\DEVELO~1\AppData\Local\Temp\cc5wr7T7.s 			page 219


 12100 0664 5F303032 		.ascii	"_002.c\000"
 12100      2E6300
 12101              		.ident	"GCC: (Arm GNU Toolchain 11.3.Rel1) 11.3.1 20220712"
ARM GAS  C:\Users\DEVELO~1\AppData\Local\Temp\cc5wr7T7.s 			page 220


DEFINED SYMBOLS
                            *ABS*:00000000 oslib_test_sequence_002.c
C:\Users\DEVELO~1\AppData\Local\Temp\cc5wr7T7.s:18     .text.oslib_test_002_001_teardown:00000000 $t
C:\Users\DEVELO~1\AppData\Local\Temp\cc5wr7T7.s:24     .text.oslib_test_002_001_teardown:00000000 oslib_test_002_001_teardown
C:\Users\DEVELO~1\AppData\Local\Temp\cc5wr7T7.s:39     .text.oslib_test_002_001_teardown:00000008 $d
C:\Users\DEVELO~1\AppData\Local\Temp\cc5wr7T7.s:44     .rodata.oslib_test_002_003_execute.str1.4:00000000 $d
C:\Users\DEVELO~1\AppData\Local\Temp\cc5wr7T7.s:48     .text.oslib_test_002_003_execute:00000000 $t
C:\Users\DEVELO~1\AppData\Local\Temp\cc5wr7T7.s:54     .text.oslib_test_002_003_execute:00000000 oslib_test_002_003_execute
C:\Users\DEVELO~1\AppData\Local\Temp\cc5wr7T7.s:485    .text.oslib_test_002_003_execute:00000118 $d
C:\Users\DEVELO~1\AppData\Local\Temp\cc5wr7T7.s:492    .text.oslib_test_002_001_setup:00000000 $t
C:\Users\DEVELO~1\AppData\Local\Temp\cc5wr7T7.s:498    .text.oslib_test_002_001_setup:00000000 oslib_test_002_001_setup
C:\Users\DEVELO~1\AppData\Local\Temp\cc5wr7T7.s:514    .text.oslib_test_002_001_setup:0000000c $d
C:\Users\DEVELO~1\AppData\Local\Temp\cc5wr7T7.s:520    .rodata.oslib_test_002_002_execute.str1.4:00000000 $d
C:\Users\DEVELO~1\AppData\Local\Temp\cc5wr7T7.s:551    .text.oslib_test_002_002_execute:00000000 $t
C:\Users\DEVELO~1\AppData\Local\Temp\cc5wr7T7.s:557    .text.oslib_test_002_002_execute:00000000 oslib_test_002_002_execute
C:\Users\DEVELO~1\AppData\Local\Temp\cc5wr7T7.s:2313   .text.oslib_test_002_002_execute:000002b4 $d
C:\Users\DEVELO~1\AppData\Local\Temp\cc5wr7T7.s:2332   .rodata.oslib_test_002_001_execute.str1.4:00000000 $d
C:\Users\DEVELO~1\AppData\Local\Temp\cc5wr7T7.s:2336   .text.oslib_test_002_001_execute:00000000 $t
C:\Users\DEVELO~1\AppData\Local\Temp\cc5wr7T7.s:2342   .text.oslib_test_002_001_execute:00000000 oslib_test_002_001_execute
C:\Users\DEVELO~1\AppData\Local\Temp\cc5wr7T7.s:3940   .text.oslib_test_002_001_execute:00000300 $d
C:\Users\DEVELO~1\AppData\Local\Temp\cc5wr7T7.s:3960   .text.oslib_test_002_003_teardown:00000000 $t
C:\Users\DEVELO~1\AppData\Local\Temp\cc5wr7T7.s:3966   .text.oslib_test_002_003_teardown:00000000 oslib_test_002_003_teardown
C:\Users\DEVELO~1\AppData\Local\Temp\cc5wr7T7.s:3977   .text.oslib_test_002_003_teardown:00000008 $d
C:\Users\DEVELO~1\AppData\Local\Temp\cc5wr7T7.s:3982   .text.oslib_test_002_002_teardown:00000000 $t
C:\Users\DEVELO~1\AppData\Local\Temp\cc5wr7T7.s:3988   .text.oslib_test_002_002_teardown:00000000 oslib_test_002_002_teardown
C:\Users\DEVELO~1\AppData\Local\Temp\cc5wr7T7.s:3999   .text.oslib_test_002_002_teardown:00000008 $d
C:\Users\DEVELO~1\AppData\Local\Temp\cc5wr7T7.s:4004   .text.oslib_test_002_002_setup:00000000 $t
C:\Users\DEVELO~1\AppData\Local\Temp\cc5wr7T7.s:4010   .text.oslib_test_002_002_setup:00000000 oslib_test_002_002_setup
C:\Users\DEVELO~1\AppData\Local\Temp\cc5wr7T7.s:4023   .text.oslib_test_002_002_setup:0000000c $d
C:\Users\DEVELO~1\AppData\Local\Temp\cc5wr7T7.s:4029   .text.oslib_test_002_003_setup:00000000 $t
C:\Users\DEVELO~1\AppData\Local\Temp\cc5wr7T7.s:4035   .text.oslib_test_002_003_setup:00000000 oslib_test_002_003_setup
C:\Users\DEVELO~1\AppData\Local\Temp\cc5wr7T7.s:4048   .text.oslib_test_002_003_setup:0000000c $d
C:\Users\DEVELO~1\AppData\Local\Temp\cc5wr7T7.s:4123   .rodata.oslib_test_sequence_002:00000000 oslib_test_sequence_002
C:\Users\DEVELO~1\AppData\Local\Temp\cc5wr7T7.s:4055   .rodata.str1.4:00000000 $d
C:\Users\DEVELO~1\AppData\Local\Temp\cc5wr7T7.s:4130   .rodata.oslib_test_sequence_002_array:00000000 oslib_test_sequence_002_array
C:\Users\DEVELO~1\AppData\Local\Temp\cc5wr7T7.s:4069   .bss.mb_buffer:00000000 $d
C:\Users\DEVELO~1\AppData\Local\Temp\cc5wr7T7.s:4073   .bss.mb_buffer:00000000 mb_buffer
C:\Users\DEVELO~1\AppData\Local\Temp\cc5wr7T7.s:4076   .data.mb1:00000000 $d
C:\Users\DEVELO~1\AppData\Local\Temp\cc5wr7T7.s:4080   .data.mb1:00000000 mb1
C:\Users\DEVELO~1\AppData\Local\Temp\cc5wr7T7.s:4093   .rodata.oslib_test_002_001:00000000 $d
C:\Users\DEVELO~1\AppData\Local\Temp\cc5wr7T7.s:4096   .rodata.oslib_test_002_001:00000000 oslib_test_002_001
C:\Users\DEVELO~1\AppData\Local\Temp\cc5wr7T7.s:4102   .rodata.oslib_test_002_002:00000000 $d
C:\Users\DEVELO~1\AppData\Local\Temp\cc5wr7T7.s:4105   .rodata.oslib_test_002_002:00000000 oslib_test_002_002
C:\Users\DEVELO~1\AppData\Local\Temp\cc5wr7T7.s:4111   .rodata.oslib_test_002_003:00000000 $d
C:\Users\DEVELO~1\AppData\Local\Temp\cc5wr7T7.s:4114   .rodata.oslib_test_002_003:00000000 oslib_test_002_003
C:\Users\DEVELO~1\AppData\Local\Temp\cc5wr7T7.s:4120   .rodata.oslib_test_sequence_002:00000000 $d
C:\Users\DEVELO~1\AppData\Local\Temp\cc5wr7T7.s:4127   .rodata.oslib_test_sequence_002_array:00000000 $d

UNDEFINED SYMBOLS
chMBReset
chMBPostTimeout
__test_assert
chMBPostI
chMBPostAheadTimeout
chMBPostAheadI
chMBFetchTimeout
chMBFetchI
ARM GAS  C:\Users\DEVELO~1\AppData\Local\Temp\cc5wr7T7.s 			page 221


chtest
chMBObjectInit
chMBResetI
test_emit_token
__test_assert_sequence
