ARM GAS  C:\Users\DEVELO~1\AppData\Local\Temp\ccduc65F.s 			page 1


   1              		.cpu cortex-m7
   2              		.arch armv7e-m
   3              		.fpu softvfp
   4              		.eabi_attribute 20, 1
   5              		.eabi_attribute 21, 1
   6              		.eabi_attribute 23, 3
   7              		.eabi_attribute 24, 1
   8              		.eabi_attribute 25, 1
   9              		.eabi_attribute 26, 1
  10              		.eabi_attribute 30, 2
  11              		.eabi_attribute 34, 1
  12              		.eabi_attribute 18, 4
  13              		.file	"oslib_test_sequence_004.c"
  14              		.text
  15              	.Ltext0:
  16              		.cfi_sections	.debug_frame
  17              		.section	.text.job_slow,"ax",%progbits
  18              		.align	1
  19              		.p2align 4,,15
  20              		.syntax unified
  21              		.thumb
  22              		.thumb_func
  23              		.type	job_slow, %function
  24              	job_slow:
  25              	.LVL0:
  26              	.LFB452:
  27              		.file 1 "./ChibiOS/test/oslib/source/test/oslib_test_sequence_004.c"
  28              		.loc 1 55 33 view -0
  29              		.cfi_startproc
  30              		@ args = 0, pretend = 0, frame = 0
  31              		@ frame_needed = 0, uses_anonymous_args = 0
  32              		.loc 1 57 3 view .LVU1
  33 0000 C0B2     		uxtb	r0, r0
  34              	.LVL1:
  35              		.loc 1 55 33 is_stmt 0 view .LVU2
  36 0002 08B5     		push	{r3, lr}
  37              		.cfi_def_cfa_offset 8
  38              		.cfi_offset 3, -8
  39              		.cfi_offset 14, -4
  40              		.loc 1 57 3 view .LVU3
  41 0004 FFF7FEFF 		bl	test_emit_token
  42              	.LVL2:
  43              		.loc 1 58 3 is_stmt 1 view .LVU4
  44 0008 6420     		movs	r0, #100
  45              		.loc 1 59 1 is_stmt 0 view .LVU5
  46 000a BDE80840 		pop	{r3, lr}
  47              		.cfi_restore 14
  48              		.cfi_restore 3
  49              		.cfi_def_cfa_offset 0
  50              		.loc 1 58 3 view .LVU6
  51 000e FFF7FEBF 		b	chThdSleep
  52              	.LVL3:
  53              		.cfi_endproc
  54              	.LFE452:
  55              		.size	job_slow, .-job_slow
  56 0012 00BF     		.section	.text.Thread1,"ax",%progbits
  57              		.align	1
ARM GAS  C:\Users\DEVELO~1\AppData\Local\Temp\ccduc65F.s 			page 2


  58              		.p2align 4,,15
  59              		.syntax unified
  60              		.thumb
  61              		.thumb_func
  62              		.type	Thread1, %function
  63              	Thread1:
  64              	.LVL4:
  65              	.LFB453:
  66              		.loc 1 63 35 is_stmt 1 view -0
  67              		.cfi_startproc
  68              		@ args = 0, pretend = 0, frame = 8
  69              		@ frame_needed = 0, uses_anonymous_args = 0
  70              		.loc 1 63 35 is_stmt 0 view .LVU8
  71 0000 70B5     		push	{r4, r5, r6, lr}
  72              		.cfi_def_cfa_offset 16
  73              		.cfi_offset 4, -16
  74              		.cfi_offset 5, -12
  75              		.cfi_offset 6, -8
  76              		.cfi_offset 14, -4
  77              	.LBB33:
  78              	.LBB34:
  79              		.file 2 "./ChibiOS/os/oslib/include/chjobs.h"
  80              		.loc 2 350 9 view .LVU9
  81 0002 0C4D     		ldr	r5, .L10
  82              	.LBE34:
  83              	.LBE33:
  84              		.loc 1 63 35 view .LVU10
  85 0004 82B0     		sub	sp, sp, #8
  86              		.cfi_def_cfa_offset 24
  87              	.LBB41:
  88              	.LBB38:
  89              	.LBB35:
  90              		.loc 2 362 7 view .LVU11
  91 0006 A5F11C06 		sub	r6, r5, #28
  92              	.LVL5:
  93              	.L7:
  94              		.loc 2 362 7 view .LVU12
  95              	.LBE35:
  96              	.LBE38:
  97              	.LBE41:
  98              		.loc 1 64 3 is_stmt 1 discriminator 1 view .LVU13
  99              		.loc 1 66 3 discriminator 1 view .LVU14
 100              		.loc 1 68 3 discriminator 1 view .LVU15
 101              		.loc 1 69 5 discriminator 1 view .LVU16
 102              	.LBB42:
 103              	.LBI33:
 104              		.loc 2 346 21 discriminator 1 view .LVU17
 105              	.LBB39:
 106              		.loc 2 347 3 discriminator 1 view .LVU18
 107              		.loc 2 350 3 discriminator 1 view .LVU19
 108              		.loc 2 350 9 is_stmt 0 discriminator 1 view .LVU20
 109 000a 4FF0FF32 		mov	r2, #-1
 110 000e 01A9     		add	r1, sp, #4
 111 0010 2846     		mov	r0, r5
 112 0012 FFF7FEFF 		bl	chMBFetchTimeout
 113              	.LVL6:
 114              	.LBB36:
ARM GAS  C:\Users\DEVELO~1\AppData\Local\Temp\ccduc65F.s 			page 3


 115              		.loc 2 352 5 is_stmt 1 discriminator 1 view .LVU21
 116              		.loc 2 359 7 discriminator 1 view .LVU22
 117              		.loc 2 359 7 is_stmt 0 discriminator 1 view .LVU23
 118              	.LBE36:
 119              		.loc 2 351 3 is_stmt 1 discriminator 1 view .LVU24
 120              		.loc 2 351 6 is_stmt 0 discriminator 1 view .LVU25
 121 0016 08B1     		cbz	r0, .L9
 122              	.L4:
 123              	.LBE39:
 124              	.LBE42:
 125              		.loc 1 71 1 view .LVU26
 126 0018 02B0     		add	sp, sp, #8
 127              		.cfi_remember_state
 128              		.cfi_def_cfa_offset 16
 129              		@ sp needed
 130 001a 70BD     		pop	{r4, r5, r6, pc}
 131              	.L9:
 132              		.cfi_restore_state
 133              	.LBB43:
 134              	.LBB40:
 135              	.LBB37:
 136              		.loc 2 352 23 view .LVU27
 137 001c 019C     		ldr	r4, [sp, #4]
 138              	.LVL7:
 139              		.loc 2 354 5 is_stmt 1 view .LVU28
 140              		.loc 2 354 5 view .LVU29
 141              		.loc 2 354 5 view .LVU30
 142              		.loc 2 356 5 view .LVU31
 143              		.loc 2 356 11 is_stmt 0 view .LVU32
 144 001e 2368     		ldr	r3, [r4]
 145              		.loc 2 356 8 view .LVU33
 146 0020 002B     		cmp	r3, #0
 147 0022 F9D0     		beq	.L4
 148              		.loc 2 359 7 view .LVU34
 149 0024 6068     		ldr	r0, [r4, #4]
 150              	.LVL8:
 151              		.loc 2 359 7 view .LVU35
 152 0026 9847     		blx	r3
 153              	.LVL9:
 154              		.loc 2 362 7 is_stmt 1 view .LVU36
 155 0028 2146     		mov	r1, r4
 156 002a 3046     		mov	r0, r6
 157 002c FFF7FEFF 		bl	chGuardedPoolFree
 158              	.LVL10:
 159              		.loc 2 362 7 is_stmt 0 view .LVU37
 160              	.LBE37:
 161              		.loc 2 369 3 is_stmt 1 view .LVU38
 162              		.loc 2 369 3 is_stmt 0 view .LVU39
 163              	.LBE40:
 164              	.LBE43:
 165              		.loc 1 70 16 is_stmt 1 view .LVU40
 166 0030 EBE7     		b	.L7
 167              	.L11:
 168 0032 00BF     		.align	2
 169              	.L10:
 170 0034 1C000000 		.word	.LANCHOR0+28
 171              		.cfi_endproc
ARM GAS  C:\Users\DEVELO~1\AppData\Local\Temp\ccduc65F.s 			page 4


 172              	.LFE453:
 173              		.size	Thread1, .-Thread1
 174              		.section	.rodata.oslib_test_004_001_execute.str1.4,"aMS",%progbits,1
 175              		.align	2
 176              	.LC0:
 177 0000 64697370 		.ascii	"dispatcher1\000"
 177      61746368 
 177      65723100 
 178              		.align	2
 179              	.LC1:
 180 000c 64697370 		.ascii	"dispatcher2\000"
 180      61746368 
 180      65723200 
 181              		.align	2
 182              	.LC2:
 183 0018 756E6578 		.ascii	"unexpected tokens\000"
 183      70656374 
 183      65642074 
 183      6F6B656E 
 183      7300
 184 002a 0000     		.align	2
 185              	.LC3:
 186 002c 61626364 		.ascii	"abcdefgh\000"
 186      65666768 
 186      00
 187              		.section	.text.oslib_test_004_001_execute,"ax",%progbits
 188              		.align	1
 189              		.p2align 4,,15
 190              		.syntax unified
 191              		.thumb
 192              		.thumb_func
 193              		.type	oslib_test_004_001_execute, %function
 194              	oslib_test_004_001_execute:
 195              	.LFB454:
 196              		.loc 1 91 46 view -0
 197              		.cfi_startproc
 198              		@ args = 0, pretend = 0, frame = 56
 199              		@ frame_needed = 0, uses_anonymous_args = 0
 200              		.loc 1 92 3 view .LVU42
 201              		.loc 1 95 3 view .LVU43
 202              		.loc 1 91 46 is_stmt 0 view .LVU44
 203 0000 2DE9F047 		push	{r4, r5, r6, r7, r8, r9, r10, lr}
 204              		.cfi_def_cfa_offset 32
 205              		.cfi_offset 4, -32
 206              		.cfi_offset 5, -28
 207              		.cfi_offset 6, -24
 208              		.cfi_offset 7, -20
 209              		.cfi_offset 8, -16
 210              		.cfi_offset 9, -12
 211              		.cfi_offset 10, -8
 212              		.cfi_offset 14, -4
 213              		.loc 1 95 3 view .LVU45
 214 0004 0123     		movs	r3, #1
 215 0006 3D4F     		ldr	r7, .L16
 216              		.loc 1 91 46 view .LVU46
 217 0008 8EB0     		sub	sp, sp, #56
 218              		.cfi_def_cfa_offset 88
ARM GAS  C:\Users\DEVELO~1\AppData\Local\Temp\ccduc65F.s 			page 5


 219              	.LBB73:
 220              	.LBB74:
 221              	.LBB75:
 222              	.LBB76:
 223              		.file 3 "./ChibiOS/os/oslib/include/chmempools.h"
 224              		.loc 3 250 3 view .LVU47
 225 000a 0422     		movs	r2, #4
 226 000c 0821     		movs	r1, #8
 227 000e 3C48     		ldr	r0, .L16+4
 228              	.LBE76:
 229              	.LBE75:
 230              	.LBE74:
 231              	.LBE73:
 232              		.loc 1 95 3 view .LVU48
 233 0010 3B60     		str	r3, [r7]
 234              		.loc 1 97 5 is_stmt 1 view .LVU49
 235              	.LBB82:
 236              	.LBI73:
 237              		.loc 2 139 20 view .LVU50
 238              	.LVL11:
 239              	.LBB79:
 240              		.loc 2 144 3 view .LVU51
 241              		.loc 2 144 3 view .LVU52
 242              		.loc 2 144 3 view .LVU53
 243              		.loc 2 146 3 view .LVU54
 244              	.LBB78:
 245              	.LBI75:
 246              		.loc 3 247 20 view .LVU55
 247              	.LBB77:
 248              		.loc 3 250 3 view .LVU56
 249 0012 FFF7FEFF 		bl	chGuardedPoolObjectInitAligned
 250              	.LVL12:
 251              		.loc 3 250 3 is_stmt 0 view .LVU57
 252              	.LBE77:
 253              	.LBE78:
 254              		.loc 2 147 3 is_stmt 1 view .LVU58
 255              	.LBE79:
 256              	.LBE82:
 257              	.LBB83:
 258              	.LBB84:
 259              	.LBB85:
 260              	.LBB86:
 261              	.LBB87:
 262              		.file 4 "./ChibiOS/os/rt/include/chthreads.h"
 263              		.loc 4 529 10 is_stmt 0 view .LVU59
 264 0016 3B4E     		ldr	r6, .L16+8
 265              	.LBE87:
 266              	.LBE86:
 267              	.LBE85:
 268              	.LBE84:
 269              	.LBE83:
 270              	.LBB100:
 271              	.LBB80:
 272              		.loc 2 147 3 view .LVU60
 273 0018 0422     		movs	r2, #4
 274 001a 3B49     		ldr	r1, .L16+12
 275              	.LBE80:
ARM GAS  C:\Users\DEVELO~1\AppData\Local\Temp\ccduc65F.s 			page 6


 276              	.LBE100:
 277              	.LBB101:
 278              		.loc 1 104 25 view .LVU61
 279 001c 0024     		movs	r4, #0
 280              	.LBE101:
 281              	.LBB102:
 282              	.LBB81:
 283              		.loc 2 147 3 view .LVU62
 284 001e 3848     		ldr	r0, .L16+4
 285 0020 FFF7FEFF 		bl	chGuardedPoolLoadArray
 286              	.LVL13:
 287              		.loc 2 148 3 is_stmt 1 view .LVU63
 288 0024 0422     		movs	r2, #4
 289 0026 3949     		ldr	r1, .L16+16
 290 0028 3948     		ldr	r0, .L16+20
 291 002a FFF7FEFF 		bl	chMBObjectInit
 292              	.LVL14:
 293              		.loc 2 148 3 is_stmt 0 view .LVU64
 294              	.LBE81:
 295              	.LBE102:
 296              		.loc 1 99 3 is_stmt 1 view .LVU65
 297              		.loc 1 99 19 view .LVU66
 298              		.loc 1 102 3 view .LVU67
 299              	.LBB103:
 300              	.LBB92:
 301              	.LBB90:
 302              		.loc 4 542 37 is_stmt 0 view .LVU68
 303 002e F268     		ldr	r2, [r6, #12]
 304              	.LBE90:
 305              	.LBE92:
 306              		.loc 1 104 25 view .LVU69
 307 0030 384B     		ldr	r3, .L16+24
 308              	.LBE103:
 309              		.loc 1 102 3 view .LVU70
 310 0032 0221     		movs	r1, #2
 311              	.LBB104:
 312              		.loc 1 108 36 view .LVU71
 313 0034 9268     		ldr	r2, [r2, #8]
 314              		.loc 1 112 11 view .LVU72
 315 0036 6846     		mov	r0, sp
 316              		.loc 1 104 25 view .LVU73
 317 0038 0193     		str	r3, [sp, #4]
 318 003a 03F50873 		add	r3, r3, #544
 319              		.loc 1 108 36 view .LVU74
 320 003e 013A     		subs	r2, r2, #1
 321              		.loc 1 104 25 view .LVU75
 322 0040 354D     		ldr	r5, .L16+28
 323 0042 0293     		str	r3, [sp, #8]
 324 0044 354B     		ldr	r3, .L16+32
 325 0046 0694     		str	r4, [sp, #24]
 326              	.LBE104:
 327              		.loc 1 102 3 view .LVU76
 328 0048 3960     		str	r1, [r7]
 329              	.LBB105:
 330              		.loc 1 104 5 is_stmt 1 view .LVU77
 331              	.LBB93:
 332              	.LBI84:
ARM GAS  C:\Users\DEVELO~1\AppData\Local\Temp\ccduc65F.s 			page 7


 333              		.loc 4 540 23 view .LVU78
 334              	.LBB91:
 335              		.loc 4 542 3 view .LVU79
 336              	.LBB89:
 337              	.LBI86:
 338              		.loc 4 527 25 view .LVU80
 339              	.LBB88:
 340              		.loc 4 529 3 view .LVU81
 341              	.LBE88:
 342              	.LBE89:
 343              	.LBE91:
 344              	.LBE93:
 345              		.loc 1 104 25 is_stmt 0 view .LVU82
 346 004a 0594     		str	r4, [sp, #20]
 347 004c 0392     		str	r2, [sp, #12]
 348 004e 0495     		str	r5, [sp, #16]
 349              		.loc 1 112 5 is_stmt 1 view .LVU83
 350              		.loc 1 104 25 is_stmt 0 view .LVU84
 351 0050 0093     		str	r3, [sp]
 352              		.loc 1 112 11 view .LVU85
 353 0052 FFF7FEFF 		bl	chThdCreate
 354              	.LVL15:
 355              	.LBB94:
 356              	.LBB95:
 357              		.loc 4 542 37 view .LVU86
 358 0056 F268     		ldr	r2, [r6, #12]
 359              	.LBE95:
 360              	.LBE94:
 361              		.loc 1 112 11 view .LVU87
 362 0058 8146     		mov	r9, r0
 363              	.LVL16:
 364              		.loc 1 114 5 is_stmt 1 view .LVU88
 365              		.loc 1 114 25 is_stmt 0 view .LVU89
 366 005a 314B     		ldr	r3, .L16+36
 367              		.loc 1 122 11 view .LVU90
 368 005c 07A8     		add	r0, sp, #28
 369              	.LVL17:
 370              		.loc 1 118 36 view .LVU91
 371 005e 9268     		ldr	r2, [r2, #8]
 372              		.loc 1 114 25 view .LVU92
 373 0060 0793     		str	r3, [sp, #28]
 374 0062 304B     		ldr	r3, .L16+40
 375              		.loc 1 118 36 view .LVU93
 376 0064 023A     		subs	r2, r2, #2
 377              	.LBE105:
 378              	.LBB106:
 379              	.LBB107:
 380              	.LBB108:
 381              		.loc 2 184 30 view .LVU94
 382 0066 DFF898A0 		ldr	r10, .L16+4
 383              	.LBE108:
 384              	.LBE107:
 385              	.LBE106:
 386              	.LBB117:
 387              		.loc 1 114 25 view .LVU95
 388 006a 0893     		str	r3, [sp, #32]
 389 006c 03F50873 		add	r3, r3, #544
ARM GAS  C:\Users\DEVELO~1\AppData\Local\Temp\ccduc65F.s 			page 8


 390 0070 0B95     		str	r5, [sp, #44]
 391              	.LBE117:
 392              	.LBB118:
 393              	.LBB110:
 394              	.LBB111:
 395              		.loc 2 285 9 view .LVU96
 396 0072 0AF11C06 		add	r6, r10, #28
 397              	.LBE111:
 398              	.LBE110:
 399              	.LBE118:
 400              	.LBB119:
 401              		.loc 1 114 25 view .LVU97
 402 0076 0993     		str	r3, [sp, #36]
 403              	.LBB99:
 404              	.LBI94:
 405              		.loc 4 540 23 is_stmt 1 view .LVU98
 406              	.LBB98:
 407              		.loc 4 542 3 view .LVU99
 408              	.LBB96:
 409              	.LBI96:
 410              		.loc 4 527 25 view .LVU100
 411              	.LBB97:
 412              		.loc 4 529 3 view .LVU101
 413              	.LBE97:
 414              	.LBE96:
 415              	.LBE98:
 416              	.LBE99:
 417              		.loc 1 122 5 view .LVU102
 418              		.loc 1 114 25 is_stmt 0 view .LVU103
 419 0078 0A92     		str	r2, [sp, #40]
 420 007a 2B4D     		ldr	r5, .L16+44
 421 007c CDE90C44 		strd	r4, r4, [sp, #48]
 422              		.loc 1 122 11 view .LVU104
 423 0080 FFF7FEFF 		bl	chThdCreate
 424              	.LVL18:
 425              	.LBE119:
 426              		.loc 1 127 3 view .LVU105
 427 0084 6124     		movs	r4, #97
 428 0086 0323     		movs	r3, #3
 429              	.LBB120:
 430              		.loc 1 122 11 view .LVU106
 431 0088 8046     		mov	r8, r0
 432              	.LVL19:
 433              		.loc 1 122 11 view .LVU107
 434              	.LBE120:
 435              		.loc 1 124 3 is_stmt 1 view .LVU108
 436              		.loc 1 124 19 view .LVU109
 437              		.loc 1 127 3 view .LVU110
 438 008a 3B60     		str	r3, [r7]
 439              	.LBB121:
 440              		.loc 1 129 5 view .LVU111
 441              		.loc 1 130 5 view .LVU112
 442              		.loc 1 132 5 view .LVU113
 443              	.LVL20:
 444              		.loc 1 132 19 view .LVU114
 445              	.L13:
 446              		.loc 1 133 7 view .LVU115
ARM GAS  C:\Users\DEVELO~1\AppData\Local\Temp\ccduc65F.s 			page 9


 447              	.LBB114:
 448              	.LBI107:
 449              		.loc 2 182 33 view .LVU116
 450              	.LBB109:
 451              		.loc 2 184 3 view .LVU117
 452              		.loc 2 184 30 is_stmt 0 view .LVU118
 453 008c 4FF0FF31 		mov	r1, #-1
 454 0090 5046     		mov	r0, r10
 455 0092 FFF7FEFF 		bl	chGuardedPoolAllocTimeout
 456              	.LVL21:
 457 0096 0146     		mov	r1, r0
 458              	.LBE109:
 459              	.LBE114:
 460              	.LBB115:
 461              	.LBB112:
 462              		.loc 2 285 9 view .LVU119
 463 0098 0022     		movs	r2, #0
 464 009a 3046     		mov	r0, r6
 465              	.LVL22:
 466              		.loc 2 285 9 view .LVU120
 467              	.LBE112:
 468              	.LBE115:
 469              		.loc 1 134 7 is_stmt 1 view .LVU121
 470              		.loc 1 135 20 is_stmt 0 view .LVU122
 471 009c 4C60     		str	r4, [r1, #4]
 472              		.loc 1 132 19 view .LVU123
 473 009e 0134     		adds	r4, r4, #1
 474              	.LVL23:
 475              		.loc 1 134 20 view .LVU124
 476 00a0 0D60     		str	r5, [r1]
 477              		.loc 1 135 7 is_stmt 1 view .LVU125
 478              		.loc 1 136 7 view .LVU126
 479              	.LVL24:
 480              	.LBB116:
 481              	.LBI110:
 482              		.loc 2 282 20 view .LVU127
 483              	.LBB113:
 484              		.loc 2 283 3 view .LVU128
 485              		.loc 2 285 3 view .LVU129
 486              		.loc 2 285 9 is_stmt 0 view .LVU130
 487 00a2 FFF7FEFF 		bl	chMBPostTimeout
 488              	.LVL25:
 489              		.loc 2 286 3 is_stmt 1 view .LVU131
 490              		.loc 2 286 3 view .LVU132
 491              		.loc 2 286 3 view .LVU133
 492              		.loc 2 286 3 is_stmt 0 view .LVU134
 493              	.LBE113:
 494              	.LBE116:
 495              		.loc 1 132 25 is_stmt 1 view .LVU135
 496              		.loc 1 132 19 view .LVU136
 497 00a6 692C     		cmp	r4, #105
 498 00a8 F0D1     		bne	.L13
 499              	.LBE121:
 500              		.loc 1 139 3 view .LVU137
 501              		.loc 1 139 19 view .LVU138
 502              		.loc 1 142 3 view .LVU139
 503 00aa 0423     		movs	r3, #4
ARM GAS  C:\Users\DEVELO~1\AppData\Local\Temp\ccduc65F.s 			page 10


 504              	.LBB122:
 505              		.loc 1 147 18 is_stmt 0 view .LVU140
 506 00ac 0024     		movs	r4, #0
 507              	.LBB123:
 508              	.LBB124:
 509              		.loc 2 184 30 view .LVU141
 510 00ae 4FF0FF31 		mov	r1, #-1
 511 00b2 1348     		ldr	r0, .L16+4
 512              	.LBE124:
 513              	.LBE123:
 514              	.LBE122:
 515              		.loc 1 142 3 view .LVU142
 516 00b4 3B60     		str	r3, [r7]
 517              	.LBB141:
 518              		.loc 1 144 5 is_stmt 1 view .LVU143
 519              		.loc 1 146 5 view .LVU144
 520              	.LVL26:
 521              	.LBB127:
 522              	.LBI123:
 523              		.loc 2 182 33 view .LVU145
 524              	.LBB125:
 525              		.loc 2 184 3 view .LVU146
 526              		.loc 2 184 30 is_stmt 0 view .LVU147
 527 00b6 FFF7FEFF 		bl	chGuardedPoolAllocTimeout
 528              	.LVL27:
 529              	.LBE125:
 530              	.LBE127:
 531              	.LBB128:
 532              	.LBB129:
 533              		.loc 2 285 9 view .LVU148
 534 00ba 2246     		mov	r2, r4
 535              	.LBE129:
 536              	.LBE128:
 537              	.LBB131:
 538              	.LBB126:
 539              		.loc 2 184 30 view .LVU149
 540 00bc 0146     		mov	r1, r0
 541              	.LVL28:
 542              		.loc 2 184 30 view .LVU150
 543              	.LBE126:
 544              	.LBE131:
 545              		.loc 1 147 5 is_stmt 1 view .LVU151
 546              		.loc 1 148 18 is_stmt 0 view .LVU152
 547 00be C0E90044 		strd	r4, r4, [r0]
 548              		.loc 1 149 5 is_stmt 1 view .LVU153
 549              	.LVL29:
 550              	.LBB132:
 551              	.LBI128:
 552              		.loc 2 282 20 view .LVU154
 553              	.LBB130:
 554              		.loc 2 283 3 view .LVU155
 555              		.loc 2 285 3 view .LVU156
 556              		.loc 2 285 9 is_stmt 0 view .LVU157
 557 00c2 1348     		ldr	r0, .L16+20
 558              	.LVL30:
 559              		.loc 2 285 9 view .LVU158
 560 00c4 FFF7FEFF 		bl	chMBPostTimeout
ARM GAS  C:\Users\DEVELO~1\AppData\Local\Temp\ccduc65F.s 			page 11


 561              	.LVL31:
 562              		.loc 2 286 3 is_stmt 1 view .LVU159
 563              		.loc 2 286 3 view .LVU160
 564              		.loc 2 286 3 view .LVU161
 565              		.loc 2 286 3 is_stmt 0 view .LVU162
 566              	.LBE130:
 567              	.LBE132:
 568              		.loc 1 150 5 is_stmt 1 view .LVU163
 569              	.LBB133:
 570              	.LBI133:
 571              		.loc 2 182 33 view .LVU164
 572              	.LBB134:
 573              		.loc 2 184 3 view .LVU165
 574              		.loc 2 184 30 is_stmt 0 view .LVU166
 575 00c8 4FF0FF31 		mov	r1, #-1
 576 00cc 0C48     		ldr	r0, .L16+4
 577 00ce FFF7FEFF 		bl	chGuardedPoolAllocTimeout
 578              	.LVL32:
 579              	.LBE134:
 580              	.LBE133:
 581              	.LBB136:
 582              	.LBB137:
 583              		.loc 2 285 9 view .LVU167
 584 00d2 2246     		mov	r2, r4
 585              	.LBE137:
 586              	.LBE136:
 587              	.LBB139:
 588              	.LBB135:
 589              		.loc 2 184 30 view .LVU168
 590 00d4 0146     		mov	r1, r0
 591              	.LVL33:
 592              		.loc 2 184 30 view .LVU169
 593              	.LBE135:
 594              	.LBE139:
 595              		.loc 1 151 5 is_stmt 1 view .LVU170
 596              		.loc 1 152 18 is_stmt 0 view .LVU171
 597 00d6 C0E90044 		strd	r4, r4, [r0]
 598              		.loc 1 153 5 is_stmt 1 view .LVU172
 599              	.LVL34:
 600              	.LBB140:
 601              	.LBI136:
 602              		.loc 2 282 20 view .LVU173
 603              	.LBB138:
 604              		.loc 2 283 3 view .LVU174
 605              		.loc 2 285 3 view .LVU175
 606              		.loc 2 285 9 is_stmt 0 view .LVU176
 607 00da 0D48     		ldr	r0, .L16+20
 608              	.LVL35:
 609              		.loc 2 285 9 view .LVU177
 610 00dc FFF7FEFF 		bl	chMBPostTimeout
 611              	.LVL36:
 612              		.loc 2 286 3 is_stmt 1 view .LVU178
 613              		.loc 2 286 3 view .LVU179
 614              		.loc 2 286 3 view .LVU180
 615              		.loc 2 286 3 is_stmt 0 view .LVU181
 616              	.LBE138:
 617              	.LBE140:
ARM GAS  C:\Users\DEVELO~1\AppData\Local\Temp\ccduc65F.s 			page 12


 618              		.loc 1 154 5 is_stmt 1 view .LVU182
 619              		.loc 1 154 12 is_stmt 0 view .LVU183
 620 00e0 4846     		mov	r0, r9
 621 00e2 FFF7FEFF 		bl	chThdWait
 622              	.LVL37:
 623              		.loc 1 155 5 is_stmt 1 view .LVU184
 624              		.loc 1 155 12 is_stmt 0 view .LVU185
 625 00e6 4046     		mov	r0, r8
 626 00e8 FFF7FEFF 		bl	chThdWait
 627              	.LVL38:
 628              		.loc 1 156 5 is_stmt 1 view .LVU186
 629 00ec 0F49     		ldr	r1, .L16+48
 630 00ee 1048     		ldr	r0, .L16+52
 631              	.LBE141:
 632              		.loc 1 159 1 is_stmt 0 view .LVU187
 633 00f0 0EB0     		add	sp, sp, #56
 634              		.cfi_def_cfa_offset 32
 635              		@ sp needed
 636 00f2 BDE8F047 		pop	{r4, r5, r6, r7, r8, r9, r10, lr}
 637              		.cfi_restore 14
 638              		.cfi_restore 10
 639              		.cfi_restore 9
 640              		.cfi_restore 8
 641              		.cfi_restore 7
 642              		.cfi_restore 6
 643              		.cfi_restore 5
 644              		.cfi_restore 4
 645              		.cfi_def_cfa_offset 0
 646              	.LVL39:
 647              	.LBB142:
 648              		.loc 1 156 5 view .LVU188
 649 00f6 FFF7FEBF 		b	__test_assert_sequence
 650              	.LVL40:
 651              	.L17:
 652 00fa 00BF     		.align	2
 653              	.L16:
 654 00fc 00000000 		.word	chtest
 655 0100 00000000 		.word	.LANCHOR0
 656 0104 00000000 		.word	ch0
 657 0108 00000000 		.word	.LANCHOR1
 658 010c 00000000 		.word	.LANCHOR2
 659 0110 1C000000 		.word	.LANCHOR0+28
 660 0114 00000000 		.word	.LANCHOR3
 661 0118 00000000 		.word	Thread1
 662 011c 00000000 		.word	.LC0
 663 0120 0C000000 		.word	.LC1
 664 0124 00000000 		.word	.LANCHOR4
 665 0128 00000000 		.word	job_slow
 666 012c 18000000 		.word	.LC2
 667 0130 2C000000 		.word	.LC3
 668              	.LBE142:
 669              		.cfi_endproc
 670              	.LFE454:
 671              		.size	oslib_test_004_001_execute, .-oslib_test_004_001_execute
 672              		.global	oslib_test_sequence_004
 673              		.section	.rodata.str1.4,"aMS",%progbits,1
 674              		.align	2
ARM GAS  C:\Users\DEVELO~1\AppData\Local\Temp\ccduc65F.s 			page 13


 675              	.LC4:
 676 0000 4A6F6273 		.ascii	"Jobs Queues\000"
 676      20517565 
 676      75657300 
 677              		.global	oslib_test_sequence_004_array
 678              		.align	2
 679              	.LC5:
 680 000c 44697370 		.ascii	"Dispatcher test\000"
 680      61746368 
 680      65722074 
 680      65737400 
 681              		.section	.bss.jobs,"aw",%nobits
 682              		.align	2
 683              		.set	.LANCHOR1,. + 0
 684              		.type	jobs, %object
 685              		.size	jobs, 32
 686              	jobs:
 687 0000 00000000 		.space	32
 687      00000000 
 687      00000000 
 687      00000000 
 687      00000000 
 688              		.section	.bss.jq,"aw",%nobits
 689              		.align	2
 690              		.set	.LANCHOR0,. + 0
 691              		.type	jq, %object
 692              		.size	jq, 68
 693              	jq:
 694 0000 00000000 		.space	68
 694      00000000 
 694      00000000 
 694      00000000 
 694      00000000 
 695              		.section	.bss.msg_queue,"aw",%nobits
 696              		.align	2
 697              		.set	.LANCHOR2,. + 0
 698              		.type	msg_queue, %object
 699              		.size	msg_queue, 16
 700              	msg_queue:
 701 0000 00000000 		.space	16
 701      00000000 
 701      00000000 
 701      00000000 
 702              		.section	.bss.wa1Thread1,"aw",%nobits
 703              		.align	5
 704              		.set	.LANCHOR3,. + 0
 705              		.type	wa1Thread1, %object
 706              		.size	wa1Thread1, 544
 707              	wa1Thread1:
 708 0000 00000000 		.space	544
 708      00000000 
 708      00000000 
 708      00000000 
 708      00000000 
 709              		.section	.bss.wa2Thread1,"aw",%nobits
 710              		.align	5
 711              		.set	.LANCHOR4,. + 0
ARM GAS  C:\Users\DEVELO~1\AppData\Local\Temp\ccduc65F.s 			page 14


 712              		.type	wa2Thread1, %object
 713              		.size	wa2Thread1, 544
 714              	wa2Thread1:
 715 0000 00000000 		.space	544
 715      00000000 
 715      00000000 
 715      00000000 
 715      00000000 
 716              		.section	.rodata.oslib_test_004_001,"a"
 717              		.align	2
 718              		.type	oslib_test_004_001, %object
 719              		.size	oslib_test_004_001, 16
 720              	oslib_test_004_001:
 721 0000 0C000000 		.word	.LC5
 722 0004 00000000 		.word	0
 723 0008 00000000 		.word	0
 724 000c 00000000 		.word	oslib_test_004_001_execute
 725              		.section	.rodata.oslib_test_sequence_004,"a"
 726              		.align	2
 727              		.type	oslib_test_sequence_004, %object
 728              		.size	oslib_test_sequence_004, 8
 729              	oslib_test_sequence_004:
 730 0000 00000000 		.word	.LC4
 731 0004 00000000 		.word	oslib_test_sequence_004_array
 732              		.section	.rodata.oslib_test_sequence_004_array,"a"
 733              		.align	2
 734              		.type	oslib_test_sequence_004_array, %object
 735              		.size	oslib_test_sequence_004_array, 8
 736              	oslib_test_sequence_004_array:
 737 0000 00000000 		.word	oslib_test_004_001
 738 0004 00000000 		.word	0
 739              		.text
 740              	.Letext0:
 741              		.file 5 "c:\\chibistudio\\tools\\gnu tools arm embedded\\11.3 2022.08\\lib\\gcc\\arm-none-eabi\\11
 742              		.file 6 "c:\\chibistudio\\tools\\gnu tools arm embedded\\11.3 2022.08\\arm-none-eabi\\include\\mac
 743              		.file 7 "c:\\chibistudio\\tools\\gnu tools arm embedded\\11.3 2022.08\\arm-none-eabi\\include\\sys
 744              		.file 8 "./ChibiOS/os/common/ports/ARM-common/include/chtypes.h"
 745              		.file 9 "./ChibiOS/os/rt/include/chearly.h"
 746              		.file 10 "./ChibiOS/os/rt/include/chobjects.h"
 747              		.file 11 "./ChibiOS/os/rt/include/chrfcu.h"
 748              		.file 12 "./ChibiOS/os/rt/include/chdebug.h"
 749              		.file 13 "./ChibiOS/os/rt/include/chtime.h"
 750              		.file 14 "./ChibiOS/os/rt/include/chtrace.h"
 751              		.file 15 "./ChibiOS/os/common/ports/ARMv7-M/chcore.h"
 752              		.file 16 "./ChibiOS/os/rt/include/chlists.h"
 753              		.file 17 "./ChibiOS/os/rt/include/chsem.h"
 754              		.file 18 "./ChibiOS/os/rt/include/chmtx.h"
 755              		.file 19 "./ChibiOS/os/oslib/include/chmboxes.h"
 756              		.file 20 "./ChibiOS/os/oslib/include/chmemcore.h"
 757              		.file 21 "./ChibiOS/os/hal/include/hal_streams.h"
 758              		.file 22 "./ChibiOS/os/test/include/ch_test.h"
 759              		.file 23 "./ChibiOS/test/oslib/source/test/oslib_test_sequence_004.h"
 760              		.file 24 "./ChibiOS/os/rt/include/chsys.h"