ARM GAS  C:\Users\DEVELO~1\AppData\Local\Temp\ccKDbdyo.s 			page 1


   1              		.cpu cortex-m7
   2              		.arch armv7e-m
   3              		.fpu softvfp
   4              		.eabi_attribute 20, 1
   5              		.eabi_attribute 21, 1
   6              		.eabi_attribute 23, 3
   7              		.eabi_attribute 24, 1
   8              		.eabi_attribute 25, 1
   9              		.eabi_attribute 26, 1
  10              		.eabi_attribute 30, 2
  11              		.eabi_attribute 34, 1
  12              		.eabi_attribute 18, 4
  13              		.file	"rt_test_root.c"
  14              		.text
  15              	.Ltext0:
  16              		.cfi_sections	.debug_frame
  17              		.section	.text.test_terminate_threads,"ax",%progbits
  18              		.align	1
  19              		.p2align 4,,15
  20              		.global	test_terminate_threads
  21              		.syntax unified
  22              		.thumb
  23              		.thumb_func
  24              		.type	test_terminate_threads, %function
  25              	test_terminate_threads:
  26              	.LFB452:
  27              		.file 1 "./ChibiOS/test/rt/source/test/rt_test_root.c"
  28              		.loc 1 118 35 view -0
  29              		.cfi_startproc
  30              		@ args = 0, pretend = 0, frame = 0
  31              		@ frame_needed = 0, uses_anonymous_args = 0
  32              		.loc 1 119 3 view .LVU1
  33              		.loc 1 121 3 view .LVU2
  34              	.LVL0:
  35              		.loc 1 121 17 view .LVU3
  36              		.loc 1 118 35 is_stmt 0 view .LVU4
  37 0000 38B5     		push	{r3, r4, r5, lr}
  38              		.cfi_def_cfa_offset 16
  39              		.cfi_offset 3, -16
  40              		.cfi_offset 4, -12
  41              		.cfi_offset 5, -8
  42              		.cfi_offset 14, -4
  43 0002 054C     		ldr	r4, .L10
  44 0004 04F11405 		add	r5, r4, #20
  45              	.LVL1:
  46              	.L3:
  47              		.loc 1 122 5 is_stmt 1 view .LVU5
  48              		.loc 1 123 7 view .LVU6
  49              		.loc 1 122 16 is_stmt 0 view .LVU7
  50 0008 54F8040B 		ldr	r0, [r4], #4
  51              		.loc 1 122 8 view .LVU8
  52 000c 08B1     		cbz	r0, .L2
  53              		.loc 1 123 7 view .LVU9
  54 000e FFF7FEFF 		bl	chThdTerminate
  55              	.LVL2:
  56              	.L2:
  57              		.loc 1 121 33 is_stmt 1 discriminator 2 view .LVU10
ARM GAS  C:\Users\DEVELO~1\AppData\Local\Temp\ccKDbdyo.s 			page 2


  58              		.loc 1 121 17 discriminator 2 view .LVU11
  59 0012 AC42     		cmp	r4, r5
  60 0014 F8D1     		bne	.L3
  61              		.loc 1 124 1 is_stmt 0 view .LVU12
  62 0016 38BD     		pop	{r3, r4, r5, pc}
  63              	.L11:
  64              		.align	2
  65              	.L10:
  66 0018 00000000 		.word	.LANCHOR0
  67              		.cfi_endproc
  68              	.LFE452:
  69              		.size	test_terminate_threads, .-test_terminate_threads
  70              		.section	.text.test_wait_threads,"ax",%progbits
  71              		.align	1
  72              		.p2align 4,,15
  73              		.global	test_wait_threads
  74              		.syntax unified
  75              		.thumb
  76              		.thumb_func
  77              		.type	test_wait_threads, %function
  78              	test_wait_threads:
  79              	.LFB453:
  80              		.loc 1 129 30 is_stmt 1 view -0
  81              		.cfi_startproc
  82              		@ args = 0, pretend = 0, frame = 0
  83              		@ frame_needed = 0, uses_anonymous_args = 0
  84              		.loc 1 130 3 view .LVU14
  85              		.loc 1 132 3 view .LVU15
  86              	.LVL3:
  87              		.loc 1 132 17 view .LVU16
  88              		.loc 1 129 30 is_stmt 0 view .LVU17
  89 0000 70B5     		push	{r4, r5, r6, lr}
  90              		.cfi_def_cfa_offset 16
  91              		.cfi_offset 4, -16
  92              		.cfi_offset 5, -12
  93              		.cfi_offset 6, -8
  94              		.cfi_offset 14, -4
  95 0002 074C     		ldr	r4, .L20
  96              		.loc 1 135 18 view .LVU18
  97 0004 0026     		movs	r6, #0
  98 0006 04F11405 		add	r5, r4, #20
  99              	.LVL4:
 100              	.L14:
 101              		.loc 1 133 5 is_stmt 1 view .LVU19
 102              		.loc 1 134 7 view .LVU20
 103              		.loc 1 133 16 is_stmt 0 view .LVU21
 104 000a 54F8040B 		ldr	r0, [r4], #4
 105              		.loc 1 133 8 view .LVU22
 106 000e 18B1     		cbz	r0, .L13
 107              		.loc 1 134 7 view .LVU23
 108 0010 FFF7FEFF 		bl	chThdWait
 109              	.LVL5:
 110              		.loc 1 135 7 is_stmt 1 view .LVU24
 111              		.loc 1 135 18 is_stmt 0 view .LVU25
 112 0014 44F8046C 		str	r6, [r4, #-4]
 113              	.L13:
 114              		.loc 1 132 33 is_stmt 1 discriminator 2 view .LVU26
ARM GAS  C:\Users\DEVELO~1\AppData\Local\Temp\ccKDbdyo.s 			page 3


 115              		.loc 1 132 17 discriminator 2 view .LVU27
 116 0018 AC42     		cmp	r4, r5
 117 001a F6D1     		bne	.L14
 118              		.loc 1 137 1 is_stmt 0 view .LVU28
 119 001c 70BD     		pop	{r4, r5, r6, pc}
 120              	.L21:
 121 001e 00BF     		.align	2
 122              	.L20:
 123 0020 00000000 		.word	.LANCHOR0
 124              		.cfi_endproc
 125              	.LFE453:
 126              		.size	test_wait_threads, .-test_wait_threads
 127              		.section	.text.test_wait_tick,"ax",%progbits
 128              		.align	1
 129              		.p2align 4,,15
 130              		.global	test_wait_tick
 131              		.syntax unified
 132              		.thumb
 133              		.thumb_func
 134              		.type	test_wait_tick, %function
 135              	test_wait_tick:
 136              	.LFB454:
 137              		.loc 1 142 32 is_stmt 1 view -0
 138              		.cfi_startproc
 139              		@ args = 0, pretend = 0, frame = 0
 140              		@ frame_needed = 0, uses_anonymous_args = 0
 141              		.loc 1 144 3 view .LVU30
 142              		.loc 1 142 32 is_stmt 0 view .LVU31
 143 0000 08B5     		push	{r3, lr}
 144              		.cfi_def_cfa_offset 8
 145              		.cfi_offset 3, -8
 146              		.cfi_offset 14, -4
 147              		.loc 1 144 3 view .LVU32
 148 0002 0120     		movs	r0, #1
 149 0004 FFF7FEFF 		bl	chThdSleep
 150              	.LVL6:
 151              		.loc 1 145 3 is_stmt 1 view .LVU33
 152              	.LBB44:
 153              	.LBI44:
 154              		.file 2 "./ChibiOS/os/rt/include/chvt.h"
 155              		.loc 2 154 25 view .LVU34
 156              	.LBB45:
 157              		.loc 2 155 3 view .LVU35
 158              		.loc 2 157 3 view .LVU36
 159              	.LBB46:
 160              	.LBI46:
 161              		.file 3 "./ChibiOS/os/rt/include/chsys.h"
 162              		.loc 3 372 20 view .LVU37
 163              		.loc 3 374 3 view .LVU38
 164              	.LBB47:
 165              	.LBI47:
 166              		.file 4 "./ChibiOS/os/common/ports/ARMv7-M/chcore.h"
 167              		.loc 4 840 27 view .LVU39
 168              		.loc 4 848 3 view .LVU40
 169              	.LBB48:
 170              	.LBI48:
 171              		.file 5 "./ChibiOS/os/common/ext/ARM/CMSIS/Core/Include/cmsis_gcc.h"
ARM GAS  C:\Users\DEVELO~1\AppData\Local\Temp\ccKDbdyo.s 			page 4


 172              		.loc 5 491 27 view .LVU41
 173              	.LBB49:
 174              		.loc 5 493 3 view .LVU42
 175 0008 3023     		movs	r3, #48
 176              		.syntax unified
 177              	@ 493 "./ChibiOS/os/common/ext/ARM/CMSIS/Core/Include/cmsis_gcc.h" 1
 178 000a 83F31188 		MSR basepri, r3
 179              	@ 0 "" 2
 180              	.LVL7:
 181              		.loc 5 493 3 is_stmt 0 view .LVU43
 182              		.thumb
 183              		.syntax unified
 184              	.LBE49:
 185              	.LBE48:
 186              	.LBE47:
 187              		.loc 3 375 35 is_stmt 1 view .LVU44
 188              		.loc 3 376 21 view .LVU45
 189              	.LBE46:
 190              		.loc 2 158 3 view .LVU46
 191              	.LBB50:
 192              	.LBI50:
 193              		.loc 2 135 25 view .LVU47
 194              		.loc 2 140 3 view .LVU48
 195              	.LBB51:
 196              	.LBI51:
 197              		.file 6 "./ChibiOS/os/hal/osal/rt-nil/chcore_timer.h"
 198              		.loc 6 111 25 view .LVU49
 199              	.LBB52:
 200              		.loc 6 113 3 view .LVU50
 201              		.loc 6 113 10 is_stmt 0 view .LVU51
 202 000e FFF7FEFF 		bl	stGetCounter
 203              	.LVL8:
 204              		.loc 6 113 10 view .LVU52
 205              	.LBE52:
 206              	.LBE51:
 207              	.LBE50:
 208              		.loc 2 159 3 is_stmt 1 view .LVU53
 209              	.LBB53:
 210              	.LBI53:
 211              		.loc 3 386 20 view .LVU54
 212              	.LBB54:
 213              		.loc 3 388 23 view .LVU55
 214              		.loc 3 389 34 view .LVU56
 215              		.loc 3 395 3 view .LVU57
 216              		.loc 3 395 3 view .LVU58
 217              		.loc 3 395 3 view .LVU59
 218              		.loc 3 399 3 view .LVU60
 219              	.LBB55:
 220              	.LBI55:
 221              		.loc 4 864 27 view .LVU61
 222              		.loc 4 867 3 view .LVU62
 223              	.LBB56:
 224              	.LBI56:
 225              		.loc 5 491 27 view .LVU63
 226              	.LBB57:
 227              		.loc 5 493 3 view .LVU64
 228 0012 0023     		movs	r3, #0
ARM GAS  C:\Users\DEVELO~1\AppData\Local\Temp\ccKDbdyo.s 			page 5


 229              		.syntax unified
 230              	@ 493 "./ChibiOS/os/common/ext/ARM/CMSIS/Core/Include/cmsis_gcc.h" 1
 231 0014 83F31188 		MSR basepri, r3
 232              	@ 0 "" 2
 233              	.LVL9:
 234              		.loc 5 493 3 is_stmt 0 view .LVU65
 235              		.thumb
 236              		.syntax unified
 237              	.LBE57:
 238              	.LBE56:
 239              	.LBE55:
 240              	.LBE54:
 241              	.LBE53:
 242              		.loc 2 161 3 is_stmt 1 view .LVU66
 243              	.LBE45:
 244              	.LBE44:
 245              		.loc 1 146 1 is_stmt 0 view .LVU67
 246 0018 08BD     		pop	{r3, pc}
 247              		.cfi_endproc
 248              	.LFE454:
 249              		.size	test_wait_tick, .-test_wait_tick
 250              		.global	wa
 251              		.global	threads
 252              		.global	test_buffer
 253              		.global	rt_test_suite
 254 001a 00BF     		.section	.rodata.str1.4,"aMS",%progbits,1
 255              		.align	2
 256              	.LC0:
 257 0000 43686962 		.ascii	"ChibiOS/RT Test Suite\000"
 257      694F532F 
 257      52542054 
 257      65737420 
 257      53756974 
 258              		.global	rt_test_suite_array
 259              		.section	.bss.test_buffer,"aw",%nobits
 260              		.align	5
 261              		.type	test_buffer, %object
 262              		.size	test_buffer, 2400
 263              	test_buffer:
 264 0000 00000000 		.space	2400
 264      00000000 
 264      00000000 
 264      00000000 
 264      00000000 
 265              		.section	.bss.threads,"aw",%nobits
 266              		.align	2
 267              		.set	.LANCHOR0,. + 0
 268              		.type	threads, %object
 269              		.size	threads, 20
 270              	threads:
 271 0000 00000000 		.space	20
 271      00000000 
 271      00000000 
 271      00000000 
 271      00000000 
 272              		.section	.rodata.rt_test_suite,"a"
 273              		.align	2
ARM GAS  C:\Users\DEVELO~1\AppData\Local\Temp\ccKDbdyo.s 			page 6


 274              		.type	rt_test_suite, %object
 275              		.size	rt_test_suite, 8
 276              	rt_test_suite:
 277 0000 00000000 		.word	.LC0
 278 0004 00000000 		.word	rt_test_suite_array
 279              		.section	.rodata.rt_test_suite_array,"a"
 280              		.align	2
 281              		.type	rt_test_suite_array, %object
 282              		.size	rt_test_suite_array, 52
 283              	rt_test_suite_array:
 284 0000 00000000 		.word	rt_test_sequence_001
 285 0004 00000000 		.word	rt_test_sequence_002
 286 0008 00000000 		.word	rt_test_sequence_003
 287 000c 00000000 		.word	rt_test_sequence_004
 288 0010 00000000 		.word	rt_test_sequence_005
 289 0014 00000000 		.word	rt_test_sequence_006
 290 0018 00000000 		.word	rt_test_sequence_007
 291 001c 00000000 		.word	rt_test_sequence_008
 292 0020 00000000 		.word	rt_test_sequence_009
 293 0024 00000000 		.word	rt_test_sequence_010
 294 0028 00000000 		.word	rt_test_sequence_011
 295 002c 00000000 		.word	rt_test_sequence_012
 296 0030 00000000 		.word	0
 297              		.section	.rodata.wa,"a"
 298              		.align	2
 299              		.type	wa, %object
 300              		.size	wa, 20
 301              	wa:
 302 0000 00000000 		.word	test_buffer
 303 0004 E0010000 		.word	test_buffer+480
 304 0008 C0030000 		.word	test_buffer+960
 305 000c A0050000 		.word	test_buffer+1440
 306 0010 80070000 		.word	test_buffer+1920
 307              		.text
 308              	.Letext0:
 309              		.file 7 "c:\\chibistudio\\tools\\gnu tools arm embedded\\11.3 2022.08\\lib\\gcc\\arm-none-eabi\\11
 310              		.file 8 "c:\\chibistudio\\tools\\gnu tools arm embedded\\11.3 2022.08\\arm-none-eabi\\include\\mac
 311              		.file 9 "c:\\chibistudio\\tools\\gnu tools arm embedded\\11.3 2022.08\\arm-none-eabi\\include\\sys
 312              		.file 10 "./ChibiOS/os/common/ports/ARM-common/include/chtypes.h"
 313              		.file 11 "./ChibiOS/os/rt/include/chearly.h"
 314              		.file 12 "./ChibiOS/os/rt/include/chobjects.h"
 315              		.file 13 "./ChibiOS/os/rt/include/chrfcu.h"
 316              		.file 14 "./ChibiOS/os/rt/include/chdebug.h"
 317              		.file 15 "./ChibiOS/os/rt/include/chtime.h"
 318              		.file 16 "./ChibiOS/os/rt/include/chtrace.h"
 319              		.file 17 "./ChibiOS/os/rt/include/chlists.h"
 320              		.file 18 "./ChibiOS/os/rt/include/chsem.h"
 321              		.file 19 "./ChibiOS/os/rt/include/chmtx.h"
 322              		.file 20 "./ChibiOS/os/test/include/ch_test.h"
 323              		.file 21 "./ChibiOS/test/rt/source/test/rt_test_sequence_001.h"
 324              		.file 22 "./ChibiOS/test/rt/source/test/rt_test_sequence_002.h"
 325              		.file 23 "./ChibiOS/test/rt/source/test/rt_test_sequence_003.h"
 326              		.file 24 "./ChibiOS/test/rt/source/test/rt_test_sequence_004.h"
 327              		.file 25 "./ChibiOS/test/rt/source/test/rt_test_sequence_005.h"
 328              		.file 26 "./ChibiOS/test/rt/source/test/rt_test_sequence_006.h"
 329              		.file 27 "./ChibiOS/test/rt/source/test/rt_test_sequence_007.h"
 330              		.file 28 "./ChibiOS/test/rt/source/test/rt_test_sequence_008.h"
ARM GAS  C:\Users\DEVELO~1\AppData\Local\Temp\ccKDbdyo.s 			page 7


 331              		.file 29 "./ChibiOS/test/rt/source/test/rt_test_sequence_009.h"
 332              		.file 30 "./ChibiOS/test/rt/source/test/rt_test_sequence_010.h"
 333              		.file 31 "./ChibiOS/test/rt/source/test/rt_test_sequence_011.h"
 334              		.file 32 "./ChibiOS/test/rt/source/test/rt_test_sequence_012.h"
 335              		.file 33 "./ChibiOS/test/rt/source/test/rt_test_root.h"
 336              		.file 34 "./ChibiOS/os/rt/include/chthreads.h"
 337              		.file 35 "./ChibiOS/os/hal/include/hal_st.h"
 338              		.section	.debug_info,"",%progbits
 339              	.Ldebug_info0:
 340 0000 B00D0000 		.4byte	0xdb0
 341 0004 0500     		.2byte	0x5
 342 0006 01       		.byte	0x1
 343 0007 04       		.byte	0x4
 344 0008 00000000 		.4byte	.Ldebug_abbrev0
 345 000c 22       		.uleb128 0x22
 346 000d 9B020000 		.4byte	.LASF161
 347 0011 1D       		.byte	0x1d
 348 0012 E1010000 		.4byte	.LASF162
 349 0016 92010000 		.4byte	.LASF163
 350 001a 0C000000 		.4byte	.LLRL5
 351 001e 00000000 		.4byte	0
 352 0022 00000000 		.4byte	.Ldebug_line0
 353 0026 23       		.uleb128 0x23
 354 0027 04       		.byte	0x4
 355 0028 05       		.byte	0x5
 356 0029 696E7400 		.ascii	"int\000"
 357 002d 02       		.uleb128 0x2
 358 002e 0D000000 		.4byte	.LASF4
 359 0032 07       		.byte	0x7
 360 0033 D1       		.byte	0xd1
 361 0034 17       		.byte	0x17
 362 0035 39000000 		.4byte	0x39
 363 0039 06       		.uleb128 0x6
 364 003a 04       		.byte	0x4
 365 003b 07       		.byte	0x7
 366 003c 8F060000 		.4byte	.LASF0
 367 0040 06       		.uleb128 0x6
 368 0041 08       		.byte	0x8
 369 0042 05       		.byte	0x5
 370 0043 B3000000 		.4byte	.LASF1
 371 0047 06       		.uleb128 0x6
 372 0048 08       		.byte	0x8
 373 0049 04       		.byte	0x4
 374 004a 20070000 		.4byte	.LASF2
 375 004e 06       		.uleb128 0x6
 376 004f 01       		.byte	0x1
 377 0050 06       		.byte	0x6
 378 0051 C1000000 		.4byte	.LASF3
 379 0055 02       		.uleb128 0x2
 380 0056 20000000 		.4byte	.LASF5
 381 005a 08       		.byte	0x8
 382 005b 2B       		.byte	0x2b
 383 005c 18       		.byte	0x18
 384 005d 61000000 		.4byte	0x61
 385 0061 06       		.uleb128 0x6
 386 0062 01       		.byte	0x1
 387 0063 08       		.byte	0x8
ARM GAS  C:\Users\DEVELO~1\AppData\Local\Temp\ccKDbdyo.s 			page 8


 388 0064 81060000 		.4byte	.LASF6
 389 0068 06       		.uleb128 0x6
 390 0069 02       		.byte	0x2
 391 006a 05       		.byte	0x5
 392 006b A3060000 		.4byte	.LASF7
 393 006f 02       		.uleb128 0x2
 394 0070 3F070000 		.4byte	.LASF8
 395 0074 08       		.byte	0x8
 396 0075 39       		.byte	0x39
 397 0076 19       		.byte	0x19
 398 0077 7B000000 		.4byte	0x7b
 399 007b 06       		.uleb128 0x6
 400 007c 02       		.byte	0x2
 401 007d 07       		.byte	0x7
 402 007e 79030000 		.4byte	.LASF9
 403 0082 02       		.uleb128 0x2
 404 0083 92040000 		.4byte	.LASF10
 405 0087 08       		.byte	0x8
 406 0088 4D       		.byte	0x4d
 407 0089 18       		.byte	0x18
 408 008a 8E000000 		.4byte	0x8e
 409 008e 06       		.uleb128 0x6
 410 008f 04       		.byte	0x4
 411 0090 05       		.byte	0x5
 412 0091 47000000 		.4byte	.LASF11
 413 0095 02       		.uleb128 0x2
 414 0096 0E020000 		.4byte	.LASF12
 415 009a 08       		.byte	0x8
 416 009b 4F       		.byte	0x4f
 417 009c 19       		.byte	0x19
 418 009d A1000000 		.4byte	0xa1
 419 00a1 06       		.uleb128 0x6
 420 00a2 04       		.byte	0x4
 421 00a3 07       		.byte	0x7
 422 00a4 CD000000 		.4byte	.LASF13
 423 00a8 02       		.uleb128 0x2
 424 00a9 0B060000 		.4byte	.LASF14
 425 00ad 08       		.byte	0x8
 426 00ae 69       		.byte	0x69
 427 00af 19       		.byte	0x19
 428 00b0 B4000000 		.4byte	0xb4
 429 00b4 06       		.uleb128 0x6
 430 00b5 08       		.byte	0x8
 431 00b6 07       		.byte	0x7
 432 00b7 ED000000 		.4byte	.LASF15
 433 00bb 02       		.uleb128 0x2
 434 00bc 47080000 		.4byte	.LASF16
 435 00c0 09       		.byte	0x9
 436 00c1 18       		.byte	0x18
 437 00c2 13       		.byte	0x13
 438 00c3 55000000 		.4byte	0x55
 439 00c7 02       		.uleb128 0x2
 440 00c8 51010000 		.4byte	.LASF17
 441 00cc 09       		.byte	0x9
 442 00cd 24       		.byte	0x24
 443 00ce 14       		.byte	0x14
 444 00cf 6F000000 		.4byte	0x6f
ARM GAS  C:\Users\DEVELO~1\AppData\Local\Temp\ccKDbdyo.s 			page 9


 445 00d3 02       		.uleb128 0x2
 446 00d4 79060000 		.4byte	.LASF18
 447 00d8 09       		.byte	0x9
 448 00d9 2C       		.byte	0x2c
 449 00da 13       		.byte	0x13
 450 00db 82000000 		.4byte	0x82
 451 00df 02       		.uleb128 0x2
 452 00e0 0A070000 		.4byte	.LASF19
 453 00e4 09       		.byte	0x9
 454 00e5 30       		.byte	0x30
 455 00e6 14       		.byte	0x14
 456 00e7 95000000 		.4byte	0x95
 457 00eb 02       		.uleb128 0x2
 458 00ec 5C050000 		.4byte	.LASF20
 459 00f0 09       		.byte	0x9
 460 00f1 3C       		.byte	0x3c
 461 00f2 14       		.byte	0x14
 462 00f3 A8000000 		.4byte	0xa8
 463 00f7 19       		.uleb128 0x19
 464 00f8 EB000000 		.4byte	0xeb
 465 00fc 02       		.uleb128 0x2
 466 00fd 6B000000 		.4byte	.LASF21
 467 0101 0A       		.byte	0xa
 468 0102 48       		.byte	0x48
 469 0103 1D       		.byte	0x1d
 470 0104 EB000000 		.4byte	0xeb
 471 0108 02       		.uleb128 0x2
 472 0109 0C010000 		.4byte	.LASF22
 473 010d 0B       		.byte	0xb
 474 010e 50       		.byte	0x50
 475 010f 19       		.byte	0x19
 476 0110 FC000000 		.4byte	0xfc
 477 0114 02       		.uleb128 0x2
 478 0115 60040000 		.4byte	.LASF23
 479 0119 0B       		.byte	0xb
 480 011a 53       		.byte	0x53
 481 011b 19       		.byte	0x19
 482 011c BB000000 		.4byte	0xbb
 483 0120 02       		.uleb128 0x2
 484 0121 2B010000 		.4byte	.LASF24
 485 0125 0B       		.byte	0xb
 486 0126 54       		.byte	0x54
 487 0127 19       		.byte	0x19
 488 0128 BB000000 		.4byte	0xbb
 489 012c 02       		.uleb128 0x2
 490 012d 2A060000 		.4byte	.LASF25
 491 0131 0B       		.byte	0xb
 492 0132 55       		.byte	0x55
 493 0133 19       		.byte	0x19
 494 0134 BB000000 		.4byte	0xbb
 495 0138 02       		.uleb128 0x2
 496 0139 5B060000 		.4byte	.LASF26
 497 013d 0B       		.byte	0xb
 498 013e 57       		.byte	0x57
 499 013f 19       		.byte	0x19
 500 0140 DF000000 		.4byte	0xdf
 501 0144 02       		.uleb128 0x2
ARM GAS  C:\Users\DEVELO~1\AppData\Local\Temp\ccKDbdyo.s 			page 10


 502 0145 A9030000 		.4byte	.LASF27
 503 0149 0B       		.byte	0xb
 504 014a 58       		.byte	0x58
 505 014b 19       		.byte	0x19
 506 014c D3000000 		.4byte	0xd3
 507 0150 02       		.uleb128 0x2
 508 0151 86040000 		.4byte	.LASF28
 509 0155 0B       		.byte	0xb
 510 0156 5A       		.byte	0x5a
 511 0157 19       		.byte	0x19
 512 0158 DF000000 		.4byte	0xdf
 513 015c 02       		.uleb128 0x2
 514 015d 56020000 		.4byte	.LASF29
 515 0161 0B       		.byte	0xb
 516 0162 5C       		.byte	0x5c
 517 0163 19       		.byte	0x19
 518 0164 D3000000 		.4byte	0xd3
 519 0168 02       		.uleb128 0x2
 520 0169 20060000 		.4byte	.LASF30
 521 016d 0B       		.byte	0xb
 522 016e 80       		.byte	0x80
 523 016f 12       		.byte	0x12
 524 0170 39000000 		.4byte	0x39
 525 0174 02       		.uleb128 0x2
 526 0175 4A070000 		.4byte	.LASF31
 527 0179 0B       		.byte	0xb
 528 017a 85       		.byte	0x85
 529 017b 1A       		.byte	0x1a
 530 017c 80010000 		.4byte	0x180
 531 0180 08       		.uleb128 0x8
 532 0181 9F030000 		.4byte	.LASF48
 533 0185 50       		.byte	0x50
 534 0186 0C       		.byte	0xc
 535 0187 A9       		.byte	0xa9
 536 0188 08       		.byte	0x8
 537 0189 77020000 		.4byte	0x277
 538 018d 0A       		.uleb128 0xa
 539 018e 68647200 		.ascii	"hdr\000"
 540 0192 0C       		.byte	0xc
 541 0193 BA       		.byte	0xba
 542 0194 05       		.byte	0x5
 543 0195 68070000 		.4byte	0x768
 544 0199 00       		.byte	0
 545 019a 0A       		.uleb128 0xa
 546 019b 63747800 		.ascii	"ctx\000"
 547 019f 0C       		.byte	0xc
 548 01a0 BE       		.byte	0xbe
 549 01a1 21       		.byte	0x21
 550 01a2 B9050000 		.4byte	0x5b9
 551 01a6 0C       		.byte	0xc
 552 01a7 01       		.uleb128 0x1
 553 01a8 1A070000 		.4byte	.LASF32
 554 01ac 0C       		.byte	0xc
 555 01ad C2       		.byte	0xc2
 556 01ae 22       		.byte	0x22
 557 01af 6C080000 		.4byte	0x86c
 558 01b3 10       		.byte	0x10
ARM GAS  C:\Users\DEVELO~1\AppData\Local\Temp\ccKDbdyo.s 			page 11


 559 01b4 01       		.uleb128 0x1
 560 01b5 2C070000 		.4byte	.LASF33
 561 01b9 0C       		.byte	0xc
 562 01ba C8       		.byte	0xc8
 563 01bb 22       		.byte	0x22
 564 01bc 71080000 		.4byte	0x871
 565 01c0 14       		.byte	0x14
 566 01c1 01       		.uleb128 0x1
 567 01c2 3B080000 		.4byte	.LASF34
 568 01c6 0C       		.byte	0xc
 569 01c7 CD       		.byte	0xcd
 570 01c8 21       		.byte	0x21
 571 01c9 71080000 		.4byte	0x871
 572 01cd 18       		.byte	0x18
 573 01ce 01       		.uleb128 0x1
 574 01cf 16010000 		.4byte	.LASF35
 575 01d3 0C       		.byte	0xc
 576 01d4 D1       		.byte	0xd1
 577 01d5 21       		.byte	0x21
 578 01d6 20010000 		.4byte	0x120
 579 01da 1C       		.byte	0x1c
 580 01db 01       		.uleb128 0x1
 581 01dc 4F080000 		.4byte	.LASF36
 582 01e0 0C       		.byte	0xc
 583 01e1 D5       		.byte	0xd5
 584 01e2 21       		.byte	0x21
 585 01e3 14010000 		.4byte	0x114
 586 01e7 1D       		.byte	0x1d
 587 01e8 01       		.uleb128 0x1
 588 01e9 49060000 		.4byte	.LASF37
 589 01ed 0C       		.byte	0xc
 590 01ee DA       		.byte	0xda
 591 01ef 21       		.byte	0x21
 592 01f0 2C010000 		.4byte	0x12c
 593 01f4 1E       		.byte	0x1e
 594 01f5 01       		.uleb128 0x1
 595 01f6 50030000 		.4byte	.LASF38
 596 01fa 0C       		.byte	0xc
 597 01fb DE       		.byte	0xde
 598 01fc 22       		.byte	0x22
 599 01fd 64030000 		.4byte	0x364
 600 0201 20       		.byte	0x20
 601 0202 01       		.uleb128 0x1
 602 0203 8B020000 		.4byte	.LASF39
 603 0207 0C       		.byte	0xc
 604 0208 E2       		.byte	0xe2
 605 0209 21       		.byte	0x21
 606 020a 06060000 		.4byte	0x606
 607 020e 24       		.byte	0x24
 608 020f 01       		.uleb128 0x1
 609 0210 63000000 		.4byte	.LASF40
 610 0214 0C       		.byte	0xc
 611 0215 E8       		.byte	0xe8
 612 0216 21       		.byte	0x21
 613 0217 4C070000 		.4byte	0x74c
 614 021b 2C       		.byte	0x2c
 615 021c 01       		.uleb128 0x1
ARM GAS  C:\Users\DEVELO~1\AppData\Local\Temp\ccKDbdyo.s 			page 12


 616 021d A1000000 		.4byte	.LASF41
 617 0221 0C       		.byte	0xc
 618 0222 EE       		.byte	0xee
 619 0223 22       		.byte	0x22
 620 0224 C7030000 		.4byte	0x3c7
 621 0228 30       		.byte	0x30
 622 0229 07       		.uleb128 0x7
 623 022a 7500     		.ascii	"u\000"
 624 022c 0C       		.byte	0xc
 625 022d 3F01     		.2byte	0x13f
 626 022f 21       		.byte	0x21
 627 0230 95070000 		.4byte	0x795
 628 0234 34       		.byte	0x34
 629 0235 03       		.uleb128 0x3
 630 0236 29020000 		.4byte	.LASF42
 631 023a 4401     		.2byte	0x144
 632 023c 21       		.byte	0x21
 633 023d DA050000 		.4byte	0x5da
 634 0241 38       		.byte	0x38
 635 0242 03       		.uleb128 0x3
 636 0243 5C020000 		.4byte	.LASF43
 637 0247 4A01     		.2byte	0x14a
 638 0249 21       		.byte	0x21
 639 024a 06060000 		.4byte	0x606
 640 024e 3C       		.byte	0x3c
 641 024f 03       		.uleb128 0x3
 642 0250 D9030000 		.4byte	.LASF44
 643 0254 5001     		.2byte	0x150
 644 0256 21       		.byte	0x21
 645 0257 50010000 		.4byte	0x150
 646 025b 44       		.byte	0x44
 647 025c 03       		.uleb128 0x3
 648 025d 8D080000 		.4byte	.LASF45
 649 0261 5701     		.2byte	0x157
 650 0263 22       		.byte	0x22
 651 0264 67080000 		.4byte	0x867
 652 0268 48       		.byte	0x48
 653 0269 03       		.uleb128 0x3
 654 026a E3040000 		.4byte	.LASF46
 655 026e 5B01     		.2byte	0x15b
 656 0270 21       		.byte	0x21
 657 0271 38010000 		.4byte	0x138
 658 0275 4C       		.byte	0x4c
 659 0276 00       		.byte	0
 660 0277 02       		.uleb128 0x2
 661 0278 B0070000 		.4byte	.LASF47
 662 027c 0B       		.byte	0xb
 663 027d 8A       		.byte	0x8a
 664 027e 1F       		.byte	0x1f
 665 027f 83020000 		.4byte	0x283
 666 0283 24       		.uleb128 0x24
 667 0284 A1070000 		.4byte	.LASF49
 668 0288 F008     		.2byte	0x8f0
 669 028a 0C       		.byte	0xc
 670 028b 9701     		.2byte	0x197
 671 028d 08       		.byte	0x8
 672 028e 16030000 		.4byte	0x316
ARM GAS  C:\Users\DEVELO~1\AppData\Local\Temp\ccKDbdyo.s 			page 13


 673 0292 03       		.uleb128 0x3
 674 0293 41080000 		.4byte	.LASF50
 675 0297 9B01     		.2byte	0x19b
 676 0299 21       		.byte	0x21
 677 029a 9F080000 		.4byte	0x89f
 678 029e 00       		.byte	0
 679 029f 03       		.uleb128 0x3
 680 02a0 3B000000 		.4byte	.LASF51
 681 02a4 9F01     		.2byte	0x19f
 682 02a6 21       		.byte	0x21
 683 02a7 0D070000 		.4byte	0x70d
 684 02ab 10       		.byte	0x10
 685 02ac 03       		.uleb128 0x3
 686 02ad BE070000 		.4byte	.LASF52
 687 02b1 A601     		.2byte	0x1a6
 688 02b3 21       		.byte	0x21
 689 02b4 34070000 		.4byte	0x734
 690 02b8 30       		.byte	0x30
 691 02b9 03       		.uleb128 0x3
 692 02ba 6C030000 		.4byte	.LASF53
 693 02be AB01     		.2byte	0x1ab
 694 02c0 21       		.byte	0x21
 695 02c1 68010000 		.4byte	0x168
 696 02c5 38       		.byte	0x38
 697 02c6 03       		.uleb128 0x3
 698 02c7 1B000000 		.4byte	.LASF54
 699 02cb B101     		.2byte	0x1b1
 700 02cd 21       		.byte	0x21
 701 02ce 3D030000 		.4byte	0x33d
 702 02d2 3C       		.byte	0x3c
 703 02d3 03       		.uleb128 0x3
 704 02d4 38070000 		.4byte	.LASF55
 705 02d8 B601     		.2byte	0x1b6
 706 02da 22       		.byte	0x22
 707 02db 0A090000 		.4byte	0x90a
 708 02df 40       		.byte	0x40
 709 02e0 03       		.uleb128 0x3
 710 02e1 A4080000 		.4byte	.LASF56
 711 02e5 BA01     		.2byte	0x1ba
 712 02e7 21       		.byte	0x21
 713 02e8 74010000 		.4byte	0x174
 714 02ec 44       		.byte	0x44
 715 02ed 03       		.uleb128 0x3
 716 02ee 83000000 		.4byte	.LASF57
 717 02f2 BF01     		.2byte	0x1bf
 718 02f4 21       		.byte	0x21
 719 02f5 74010000 		.4byte	0x174
 720 02f9 94       		.byte	0x94
 721 02fa 07       		.uleb128 0x7
 722 02fb 64626700 		.ascii	"dbg\000"
 723 02ff 0C       		.byte	0xc
 724 0300 C401     		.2byte	0x1c4
 725 0302 21       		.byte	0x21
 726 0303 7A030000 		.4byte	0x37a
 727 0307 E4       		.byte	0xe4
 728 0308 03       		.uleb128 0x3
 729 0309 65080000 		.4byte	.LASF58
ARM GAS  C:\Users\DEVELO~1\AppData\Local\Temp\ccKDbdyo.s 			page 14


 730 030d C901     		.2byte	0x1c9
 731 030f 21       		.byte	0x21
 732 0310 27050000 		.4byte	0x527
 733 0314 E8       		.byte	0xe8
 734 0315 00       		.byte	0
 735 0316 02       		.uleb128 0x2
 736 0317 EC040000 		.4byte	.LASF59
 737 031b 0D       		.byte	0xd
 738 031c 3F       		.byte	0x3f
 739 031d 12       		.byte	0x12
 740 031e DF000000 		.4byte	0xdf
 741 0322 08       		.uleb128 0x8
 742 0323 34010000 		.4byte	.LASF60
 743 0327 04       		.byte	0x4
 744 0328 0D       		.byte	0xd
 745 0329 44       		.byte	0x44
 746 032a 10       		.byte	0x10
 747 032b 3D030000 		.4byte	0x33d
 748 032f 01       		.uleb128 0x1
 749 0330 19020000 		.4byte	.LASF61
 750 0334 0D       		.byte	0xd
 751 0335 48       		.byte	0x48
 752 0336 21       		.byte	0x21
 753 0337 16030000 		.4byte	0x316
 754 033b 00       		.byte	0
 755 033c 00       		.byte	0
 756 033d 02       		.uleb128 0x2
 757 033e 9C060000 		.4byte	.LASF62
 758 0342 0D       		.byte	0xd
 759 0343 49       		.byte	0x49
 760 0344 03       		.byte	0x3
 761 0345 22030000 		.4byte	0x322
 762 0349 08       		.uleb128 0x8
 763 034a 63060000 		.4byte	.LASF63
 764 034e 04       		.byte	0x4
 765 034f 0E       		.byte	0xe
 766 0350 3E       		.byte	0x3e
 767 0351 10       		.byte	0x10
 768 0352 64030000 		.4byte	0x364
 769 0356 01       		.uleb128 0x1
 770 0357 90070000 		.4byte	.LASF64
 771 035b 0E       		.byte	0xe
 772 035c 46       		.byte	0x46
 773 035d 24       		.byte	0x24
 774 035e 69030000 		.4byte	0x369
 775 0362 00       		.byte	0
 776 0363 00       		.byte	0
 777 0364 04       		.uleb128 0x4
 778 0365 75030000 		.4byte	0x375
 779 0369 19       		.uleb128 0x19
 780 036a 64030000 		.4byte	0x364
 781 036e 06       		.uleb128 0x6
 782 036f 01       		.byte	0x1
 783 0370 08       		.byte	0x8
 784 0371 33070000 		.4byte	.LASF65
 785 0375 09       		.uleb128 0x9
 786 0376 6E030000 		.4byte	0x36e
ARM GAS  C:\Users\DEVELO~1\AppData\Local\Temp\ccKDbdyo.s 			page 15


 787 037a 02       		.uleb128 0x2
 788 037b 76020000 		.4byte	.LASF66
 789 037f 0E       		.byte	0xe
 790 0380 51       		.byte	0x51
 791 0381 03       		.byte	0x3
 792 0382 49030000 		.4byte	0x349
 793 0386 02       		.uleb128 0x2
 794 0387 6B070000 		.4byte	.LASF67
 795 038b 0F       		.byte	0xf
 796 038c 6D       		.byte	0x6d
 797 038d 12       		.byte	0x12
 798 038e DF000000 		.4byte	0xdf
 799 0392 02       		.uleb128 0x2
 800 0393 48020000 		.4byte	.LASF68
 801 0397 0F       		.byte	0xf
 802 0398 79       		.byte	0x79
 803 0399 12       		.byte	0x12
 804 039a DF000000 		.4byte	0xdf
 805 039e 0B       		.uleb128 0xb
 806 039f 08       		.byte	0x8
 807 03a0 10       		.byte	0x10
 808 03a1 83       		.byte	0x83
 809 03a2 05       		.byte	0x5
 810 03a3 C2030000 		.4byte	0x3c2
 811 03a7 0A       		.uleb128 0xa
 812 03a8 6E747000 		.ascii	"ntp\000"
 813 03ac 10       		.byte	0x10
 814 03ad 87       		.byte	0x87
 815 03ae 1E       		.byte	0x1e
 816 03af C2030000 		.4byte	0x3c2
 817 03b3 00       		.byte	0
 818 03b4 01       		.uleb128 0x1
 819 03b5 5E080000 		.4byte	.LASF69
 820 03b9 10       		.byte	0x10
 821 03ba 8B       		.byte	0x8b
 822 03bb 1E       		.byte	0x1e
 823 03bc C7030000 		.4byte	0x3c7
 824 03c0 04       		.byte	0x4
 825 03c1 00       		.byte	0
 826 03c2 04       		.uleb128 0x4
 827 03c3 74010000 		.4byte	0x174
 828 03c7 25       		.uleb128 0x25
 829 03c8 04       		.byte	0x4
 830 03c9 09       		.uleb128 0x9
 831 03ca C7030000 		.4byte	0x3c7
 832 03ce 0B       		.uleb128 0xb
 833 03cf 08       		.byte	0x8
 834 03d0 10       		.byte	0x10
 835 03d1 90       		.byte	0x90
 836 03d2 05       		.byte	0x5
 837 03d3 F1030000 		.4byte	0x3f1
 838 03d7 0A       		.uleb128 0xa
 839 03d8 747000   		.ascii	"tp\000"
 840 03db 10       		.byte	0x10
 841 03dc 94       		.byte	0x94
 842 03dd 1E       		.byte	0x1e
 843 03de C2030000 		.4byte	0x3c2
ARM GAS  C:\Users\DEVELO~1\AppData\Local\Temp\ccKDbdyo.s 			page 16


 844 03e2 00       		.byte	0
 845 03e3 0A       		.uleb128 0xa
 846 03e4 6D736700 		.ascii	"msg\000"
 847 03e8 10       		.byte	0x10
 848 03e9 98       		.byte	0x98
 849 03ea 1D       		.byte	0x1d
 850 03eb 44010000 		.4byte	0x144
 851 03ef 04       		.byte	0x4
 852 03f0 00       		.byte	0
 853 03f1 0B       		.uleb128 0xb
 854 03f2 04       		.byte	0x4
 855 03f3 10       		.byte	0x10
 856 03f4 9D       		.byte	0x9d
 857 03f5 05       		.byte	0x5
 858 03f6 08040000 		.4byte	0x408
 859 03fa 01       		.uleb128 0x1
 860 03fb 50030000 		.4byte	.LASF38
 861 03ff 10       		.byte	0x10
 862 0400 A1       		.byte	0xa1
 863 0401 1E       		.byte	0x1e
 864 0402 64030000 		.4byte	0x364
 865 0406 00       		.byte	0
 866 0407 00       		.byte	0
 867 0408 0B       		.uleb128 0xb
 868 0409 04       		.byte	0x4
 869 040a 10       		.byte	0x10
 870 040b A6       		.byte	0xa6
 871 040c 05       		.byte	0x5
 872 040d 1F040000 		.4byte	0x41f
 873 0411 01       		.uleb128 0x1
 874 0412 E5060000 		.4byte	.LASF70
 875 0416 10       		.byte	0x10
 876 0417 AA       		.byte	0xaa
 877 0418 1E       		.byte	0x1e
 878 0419 64030000 		.4byte	0x364
 879 041d 00       		.byte	0
 880 041e 00       		.byte	0
 881 041f 0B       		.uleb128 0xb
 882 0420 08       		.byte	0x8
 883 0421 10       		.byte	0x10
 884 0422 AF       		.byte	0xaf
 885 0423 05       		.byte	0x5
 886 0424 43040000 		.4byte	0x443
 887 0428 0A       		.uleb128 0xa
 888 0429 75703100 		.ascii	"up1\000"
 889 042d 10       		.byte	0x10
 890 042e B3       		.byte	0xb3
 891 042f 1E       		.byte	0x1e
 892 0430 C7030000 		.4byte	0x3c7
 893 0434 00       		.byte	0
 894 0435 0A       		.uleb128 0xa
 895 0436 75703200 		.ascii	"up2\000"
 896 043a 10       		.byte	0x10
 897 043b B7       		.byte	0xb7
 898 043c 1E       		.byte	0x1e
 899 043d C7030000 		.4byte	0x3c7
 900 0441 04       		.byte	0x4
ARM GAS  C:\Users\DEVELO~1\AppData\Local\Temp\ccKDbdyo.s 			page 17


 901 0442 00       		.byte	0
 902 0443 1A       		.uleb128 0x1a
 903 0444 08       		.byte	0x8
 904 0445 10       		.byte	0x10
 905 0446 7F       		.byte	0x7f
 906 0447 81040000 		.4byte	0x481
 907 044b 14       		.uleb128 0x14
 908 044c 737700   		.ascii	"sw\000"
 909 044f 8C       		.byte	0x8c
 910 0450 9E030000 		.4byte	0x39e
 911 0454 14       		.uleb128 0x14
 912 0455 72647900 		.ascii	"rdy\000"
 913 0459 99       		.byte	0x99
 914 045a CE030000 		.4byte	0x3ce
 915 045e 14       		.uleb128 0x14
 916 045f 69737200 		.ascii	"isr\000"
 917 0463 A2       		.byte	0xa2
 918 0464 F1030000 		.4byte	0x3f1
 919 0468 0E       		.uleb128 0xe
 920 0469 5E000000 		.4byte	.LASF71
 921 046d 10       		.byte	0x10
 922 046e AB       		.byte	0xab
 923 046f 07       		.byte	0x7
 924 0470 08040000 		.4byte	0x408
 925 0474 0E       		.uleb128 0xe
 926 0475 4E060000 		.4byte	.LASF72
 927 0479 10       		.byte	0x10
 928 047a B8       		.byte	0xb8
 929 047b 07       		.byte	0x7
 930 047c 1F040000 		.4byte	0x41f
 931 0480 00       		.byte	0
 932 0481 0B       		.uleb128 0xb
 933 0482 10       		.byte	0x10
 934 0483 10       		.byte	0x10
 935 0484 6C       		.byte	0x6c
 936 0485 09       		.byte	0x9
 937 0486 C7040000 		.4byte	0x4c7
 938 048a 15       		.uleb128 0x15
 939 048b 42000000 		.4byte	.LASF73
 940 048f 70       		.byte	0x70
 941 0490 DF000000 		.4byte	0xdf
 942 0494 03       		.byte	0x3
 943 0495 00       		.byte	0
 944 0496 15       		.uleb128 0x15
 945 0497 16010000 		.4byte	.LASF35
 946 049b 74       		.byte	0x74
 947 049c DF000000 		.4byte	0xdf
 948 04a0 05       		.byte	0x5
 949 04a1 03       		.byte	0x3
 950 04a2 15       		.uleb128 0x15
 951 04a3 BD040000 		.4byte	.LASF74
 952 04a7 7A       		.byte	0x7a
 953 04a8 DF000000 		.4byte	0xdf
 954 04ac 18       		.byte	0x18
 955 04ad 08       		.byte	0x8
 956 04ae 01       		.uleb128 0x1
 957 04af EB050000 		.4byte	.LASF75
ARM GAS  C:\Users\DEVELO~1\AppData\Local\Temp\ccKDbdyo.s 			page 18


 958 04b3 10       		.byte	0x10
 959 04b4 7E       		.byte	0x7e
 960 04b5 19       		.byte	0x19
 961 04b6 86030000 		.4byte	0x386
 962 04ba 04       		.byte	0x4
 963 04bb 0A       		.uleb128 0xa
 964 04bc 7500     		.ascii	"u\000"
 965 04be 10       		.byte	0x10
 966 04bf B9       		.byte	0xb9
 967 04c0 05       		.byte	0x5
 968 04c1 43040000 		.4byte	0x443
 969 04c5 08       		.byte	0x8
 970 04c6 00       		.byte	0
 971 04c7 02       		.uleb128 0x2
 972 04c8 50000000 		.4byte	.LASF76
 973 04cc 10       		.byte	0x10
 974 04cd BA       		.byte	0xba
 975 04ce 03       		.byte	0x3
 976 04cf 81040000 		.4byte	0x481
 977 04d3 26       		.uleb128 0x26
 978 04d4 0808     		.2byte	0x808
 979 04d6 10       		.byte	0x10
 980 04d7 C0       		.byte	0xc0
 981 04d8 09       		.byte	0x9
 982 04d9 12050000 		.4byte	0x512
 983 04dd 01       		.uleb128 0x1
 984 04de 46050000 		.4byte	.LASF77
 985 04e2 10       		.byte	0x10
 986 04e3 C4       		.byte	0xc4
 987 04e4 19       		.byte	0x19
 988 04e5 C7000000 		.4byte	0xc7
 989 04e9 00       		.byte	0
 990 04ea 01       		.uleb128 0x1
 991 04eb 74030000 		.4byte	.LASF78
 992 04ef 10       		.byte	0x10
 993 04f0 C8       		.byte	0xc8
 994 04f1 19       		.byte	0x19
 995 04f2 C7000000 		.4byte	0xc7
 996 04f6 02       		.byte	0x2
 997 04f7 0A       		.uleb128 0xa
 998 04f8 70747200 		.ascii	"ptr\000"
 999 04fc 10       		.byte	0x10
 1000 04fd CC       		.byte	0xcc
 1001 04fe 1A       		.byte	0x1a
 1002 04ff 12050000 		.4byte	0x512
 1003 0503 04       		.byte	0x4
 1004 0504 01       		.uleb128 0x1
 1005 0505 75070000 		.4byte	.LASF79
 1006 0509 10       		.byte	0x10
 1007 050a D0       		.byte	0xd0
 1008 050b 19       		.byte	0x19
 1009 050c 17050000 		.4byte	0x517
 1010 0510 08       		.byte	0x8
 1011 0511 00       		.byte	0
 1012 0512 04       		.uleb128 0x4
 1013 0513 C7040000 		.4byte	0x4c7
 1014 0517 0D       		.uleb128 0xd
ARM GAS  C:\Users\DEVELO~1\AppData\Local\Temp\ccKDbdyo.s 			page 19


 1015 0518 C7040000 		.4byte	0x4c7
 1016 051c 27050000 		.4byte	0x527
 1017 0520 0F       		.uleb128 0xf
 1018 0521 39000000 		.4byte	0x39
 1019 0525 7F       		.byte	0x7f
 1020 0526 00       		.byte	0
 1021 0527 02       		.uleb128 0x2
 1022 0528 5A010000 		.4byte	.LASF80
 1023 052c 10       		.byte	0x10
 1024 052d D1       		.byte	0xd1
 1025 052e 03       		.byte	0x3
 1026 052f D3040000 		.4byte	0x4d3
 1027 0533 10       		.uleb128 0x10
 1028 0534 2F000000 		.4byte	.LASF81
 1029 0538 24       		.byte	0x24
 1030 0539 04       		.byte	0x4
 1031 053a 3F02     		.2byte	0x23f
 1032 053c 08       		.byte	0x8
 1033 053d B9050000 		.4byte	0x5b9
 1034 0541 07       		.uleb128 0x7
 1035 0542 723400   		.ascii	"r4\000"
 1036 0545 04       		.byte	0x4
 1037 0546 5202     		.2byte	0x252
 1038 0548 11       		.byte	0x11
 1039 0549 DF000000 		.4byte	0xdf
 1040 054d 00       		.byte	0
 1041 054e 07       		.uleb128 0x7
 1042 054f 723500   		.ascii	"r5\000"
 1043 0552 04       		.byte	0x4
 1044 0553 5302     		.2byte	0x253
 1045 0555 11       		.byte	0x11
 1046 0556 DF000000 		.4byte	0xdf
 1047 055a 04       		.byte	0x4
 1048 055b 07       		.uleb128 0x7
 1049 055c 723600   		.ascii	"r6\000"
 1050 055f 04       		.byte	0x4
 1051 0560 5402     		.2byte	0x254
 1052 0562 11       		.byte	0x11
 1053 0563 DF000000 		.4byte	0xdf
 1054 0567 08       		.byte	0x8
 1055 0568 07       		.uleb128 0x7
 1056 0569 723700   		.ascii	"r7\000"
 1057 056c 04       		.byte	0x4
 1058 056d 5502     		.2byte	0x255
 1059 056f 11       		.byte	0x11
 1060 0570 DF000000 		.4byte	0xdf
 1061 0574 0C       		.byte	0xc
 1062 0575 07       		.uleb128 0x7
 1063 0576 723800   		.ascii	"r8\000"
 1064 0579 04       		.byte	0x4
 1065 057a 5602     		.2byte	0x256
 1066 057c 11       		.byte	0x11
 1067 057d DF000000 		.4byte	0xdf
 1068 0581 10       		.byte	0x10
 1069 0582 07       		.uleb128 0x7
 1070 0583 723900   		.ascii	"r9\000"
 1071 0586 04       		.byte	0x4
ARM GAS  C:\Users\DEVELO~1\AppData\Local\Temp\ccKDbdyo.s 			page 20


 1072 0587 5702     		.2byte	0x257
 1073 0589 11       		.byte	0x11
 1074 058a DF000000 		.4byte	0xdf
 1075 058e 14       		.byte	0x14
 1076 058f 07       		.uleb128 0x7
 1077 0590 72313000 		.ascii	"r10\000"
 1078 0594 04       		.byte	0x4
 1079 0595 5802     		.2byte	0x258
 1080 0597 11       		.byte	0x11
 1081 0598 DF000000 		.4byte	0xdf
 1082 059c 18       		.byte	0x18
 1083 059d 07       		.uleb128 0x7
 1084 059e 72313100 		.ascii	"r11\000"
 1085 05a2 04       		.byte	0x4
 1086 05a3 5902     		.2byte	0x259
 1087 05a5 11       		.byte	0x11
 1088 05a6 DF000000 		.4byte	0xdf
 1089 05aa 1C       		.byte	0x1c
 1090 05ab 07       		.uleb128 0x7
 1091 05ac 6C7200   		.ascii	"lr\000"
 1092 05af 04       		.byte	0x4
 1093 05b0 5A02     		.2byte	0x25a
 1094 05b2 11       		.byte	0x11
 1095 05b3 DF000000 		.4byte	0xdf
 1096 05b7 20       		.byte	0x20
 1097 05b8 00       		.byte	0
 1098 05b9 10       		.uleb128 0x10
 1099 05ba BA050000 		.4byte	.LASF82
 1100 05be 04       		.byte	0x4
 1101 05bf 04       		.byte	0x4
 1102 05c0 6302     		.2byte	0x263
 1103 05c2 08       		.byte	0x8
 1104 05c3 D5050000 		.4byte	0x5d5
 1105 05c7 07       		.uleb128 0x7
 1106 05c8 737000   		.ascii	"sp\000"
 1107 05cb 04       		.byte	0x4
 1108 05cc 6402     		.2byte	0x264
 1109 05ce 1A       		.byte	0x1a
 1110 05cf D5050000 		.4byte	0x5d5
 1111 05d3 00       		.byte	0
 1112 05d4 00       		.byte	0
 1113 05d5 04       		.uleb128 0x4
 1114 05d6 33050000 		.4byte	0x533
 1115 05da 02       		.uleb128 0x2
 1116 05db 30050000 		.4byte	.LASF83
 1117 05df 11       		.byte	0x11
 1118 05e0 32       		.byte	0x32
 1119 05e1 18       		.byte	0x18
 1120 05e2 E6050000 		.4byte	0x5e6
 1121 05e6 08       		.uleb128 0x8
 1122 05e7 70040000 		.4byte	.LASF84
 1123 05eb 04       		.byte	0x4
 1124 05ec 11       		.byte	0x11
 1125 05ed 38       		.byte	0x38
 1126 05ee 08       		.byte	0x8
 1127 05ef 01060000 		.4byte	0x601
 1128 05f3 01       		.uleb128 0x1
ARM GAS  C:\Users\DEVELO~1\AppData\Local\Temp\ccKDbdyo.s 			page 21


 1129 05f4 9C000000 		.4byte	.LASF85
 1130 05f8 11       		.byte	0x11
 1131 05f9 39       		.byte	0x39
 1132 05fa 1A       		.byte	0x1a
 1133 05fb 01060000 		.4byte	0x601
 1134 05ff 00       		.byte	0
 1135 0600 00       		.byte	0
 1136 0601 04       		.uleb128 0x4
 1137 0602 DA050000 		.4byte	0x5da
 1138 0606 02       		.uleb128 0x2
 1139 0607 1E020000 		.4byte	.LASF86
 1140 060b 11       		.byte	0x11
 1141 060c 3F       		.byte	0x3f
 1142 060d 19       		.byte	0x19
 1143 060e 12060000 		.4byte	0x612
 1144 0612 08       		.uleb128 0x8
 1145 0613 48010000 		.4byte	.LASF87
 1146 0617 08       		.byte	0x8
 1147 0618 11       		.byte	0x11
 1148 0619 45       		.byte	0x45
 1149 061a 08       		.byte	0x8
 1150 061b 3A060000 		.4byte	0x63a
 1151 061f 01       		.uleb128 0x1
 1152 0620 9C000000 		.4byte	.LASF85
 1153 0624 11       		.byte	0x11
 1154 0625 46       		.byte	0x46
 1155 0626 1A       		.byte	0x1a
 1156 0627 3A060000 		.4byte	0x63a
 1157 062b 00       		.byte	0
 1158 062c 01       		.uleb128 0x1
 1159 062d 2A000000 		.4byte	.LASF88
 1160 0631 11       		.byte	0x11
 1161 0632 47       		.byte	0x47
 1162 0633 1A       		.byte	0x1a
 1163 0634 3A060000 		.4byte	0x63a
 1164 0638 04       		.byte	0x4
 1165 0639 00       		.byte	0
 1166 063a 04       		.uleb128 0x4
 1167 063b 06060000 		.4byte	0x606
 1168 063f 02       		.uleb128 0x2
 1169 0640 7C070000 		.4byte	.LASF89
 1170 0644 11       		.byte	0x11
 1171 0645 4E       		.byte	0x4e
 1172 0646 22       		.byte	0x22
 1173 0647 4B060000 		.4byte	0x64b
 1174 064b 08       		.uleb128 0x8
 1175 064c C6070000 		.4byte	.LASF90
 1176 0650 0C       		.byte	0xc
 1177 0651 11       		.byte	0x11
 1178 0652 55       		.byte	0x55
 1179 0653 08       		.byte	0x8
 1180 0654 80060000 		.4byte	0x680
 1181 0658 01       		.uleb128 0x1
 1182 0659 9C000000 		.4byte	.LASF85
 1183 065d 11       		.byte	0x11
 1184 065e 56       		.byte	0x56
 1185 065f 1A       		.byte	0x1a
ARM GAS  C:\Users\DEVELO~1\AppData\Local\Temp\ccKDbdyo.s 			page 22


 1186 0660 80060000 		.4byte	0x680
 1187 0664 00       		.byte	0
 1188 0665 01       		.uleb128 0x1
 1189 0666 2A000000 		.4byte	.LASF88
 1190 066a 11       		.byte	0x11
 1191 066b 57       		.byte	0x57
 1192 066c 1A       		.byte	0x1a
 1193 066d 80060000 		.4byte	0x680
 1194 0671 04       		.byte	0x4
 1195 0672 01       		.uleb128 0x1
 1196 0673 F0050000 		.4byte	.LASF91
 1197 0677 11       		.byte	0x11
 1198 0678 58       		.byte	0x58
 1199 0679 19       		.byte	0x19
 1200 067a 38010000 		.4byte	0x138
 1201 067e 08       		.byte	0x8
 1202 067f 00       		.byte	0
 1203 0680 04       		.uleb128 0x4
 1204 0681 3F060000 		.4byte	0x63f
 1205 0685 02       		.uleb128 0x2
 1206 0686 EC070000 		.4byte	.LASF92
 1207 068a 11       		.byte	0x11
 1208 068b 5F       		.byte	0x5f
 1209 068c 1E       		.byte	0x1e
 1210 068d 91060000 		.4byte	0x691
 1211 0691 08       		.uleb128 0x8
 1212 0692 DF000000 		.4byte	.LASF93
 1213 0696 0C       		.byte	0xc
 1214 0697 11       		.byte	0x11
 1215 0698 64       		.byte	0x64
 1216 0699 08       		.byte	0x8
 1217 069a C6060000 		.4byte	0x6c6
 1218 069e 01       		.uleb128 0x1
 1219 069f 9C000000 		.4byte	.LASF85
 1220 06a3 11       		.byte	0x11
 1221 06a4 65       		.byte	0x65
 1222 06a5 1A       		.byte	0x1a
 1223 06a6 C6060000 		.4byte	0x6c6
 1224 06aa 00       		.byte	0
 1225 06ab 01       		.uleb128 0x1
 1226 06ac 2A000000 		.4byte	.LASF88
 1227 06b0 11       		.byte	0x11
 1228 06b1 66       		.byte	0x66
 1229 06b2 1A       		.byte	0x1a
 1230 06b3 C6060000 		.4byte	0x6c6
 1231 06b7 04       		.byte	0x4
 1232 06b8 01       		.uleb128 0x1
 1233 06b9 96000000 		.4byte	.LASF94
 1234 06bd 11       		.byte	0x11
 1235 06be 67       		.byte	0x67
 1236 06bf 19       		.byte	0x19
 1237 06c0 92030000 		.4byte	0x392
 1238 06c4 08       		.byte	0x8
 1239 06c5 00       		.byte	0
 1240 06c6 04       		.uleb128 0x4
 1241 06c7 85060000 		.4byte	0x685
 1242 06cb 08       		.uleb128 0x8
ARM GAS  C:\Users\DEVELO~1\AppData\Local\Temp\ccKDbdyo.s 			page 23


 1243 06cc 0B050000 		.4byte	.LASF95
 1244 06d0 20       		.byte	0x20
 1245 06d1 0C       		.byte	0xc
 1246 06d2 64       		.byte	0x64
 1247 06d3 10       		.byte	0x10
 1248 06d4 0D070000 		.4byte	0x70d
 1249 06d8 01       		.uleb128 0x1
 1250 06d9 65070000 		.4byte	.LASF96
 1251 06dd 0C       		.byte	0xc
 1252 06de 68       		.byte	0x68
 1253 06df 21       		.byte	0x21
 1254 06e0 85060000 		.4byte	0x685
 1255 06e4 00       		.byte	0
 1256 06e5 01       		.uleb128 0x1
 1257 06e6 AD060000 		.4byte	.LASF97
 1258 06ea 0C       		.byte	0xc
 1259 06eb 73       		.byte	0x73
 1260 06ec 21       		.byte	0x21
 1261 06ed 86030000 		.4byte	0x386
 1262 06f1 0C       		.byte	0xc
 1263 06f2 01       		.uleb128 0x1
 1264 06f3 16060000 		.4byte	.LASF98
 1265 06f7 0C       		.byte	0xc
 1266 06f8 7B       		.byte	0x7b
 1267 06f9 21       		.byte	0x21
 1268 06fa 92030000 		.4byte	0x392
 1269 06fe 10       		.byte	0x10
 1270 06ff 01       		.uleb128 0x1
 1271 0700 D9040000 		.4byte	.LASF99
 1272 0704 0C       		.byte	0xc
 1273 0705 81       		.byte	0x81
 1274 0706 21       		.byte	0x21
 1275 0707 F7000000 		.4byte	0xf7
 1276 070b 18       		.byte	0x18
 1277 070c 00       		.byte	0
 1278 070d 02       		.uleb128 0x2
 1279 070e 9C040000 		.4byte	.LASF100
 1280 0712 0C       		.byte	0xc
 1281 0713 83       		.byte	0x83
 1282 0714 03       		.byte	0x3
 1283 0715 CB060000 		.4byte	0x6cb
 1284 0719 08       		.uleb128 0x8
 1285 071a 69010000 		.4byte	.LASF101
 1286 071e 08       		.byte	0x8
 1287 071f 0C       		.byte	0xc
 1288 0720 88       		.byte	0x88
 1289 0721 10       		.byte	0x10
 1290 0722 34070000 		.4byte	0x734
 1291 0726 01       		.uleb128 0x1
 1292 0727 66030000 		.4byte	.LASF102
 1293 072b 0C       		.byte	0xc
 1294 072c 8C       		.byte	0x8c
 1295 072d 21       		.byte	0x21
 1296 072e 06060000 		.4byte	0x606
 1297 0732 00       		.byte	0
 1298 0733 00       		.byte	0
 1299 0734 02       		.uleb128 0x2
ARM GAS  C:\Users\DEVELO~1\AppData\Local\Temp\ccKDbdyo.s 			page 24


 1300 0735 FF060000 		.4byte	.LASF103
 1301 0739 0C       		.byte	0xc
 1302 073a 8D       		.byte	0x8d
 1303 073b 03       		.byte	0x3
 1304 073c 19070000 		.4byte	0x719
 1305 0740 02       		.uleb128 0x2
 1306 0741 F8040000 		.4byte	.LASF104
 1307 0745 0C       		.byte	0xc
 1308 0746 92       		.byte	0x92
 1309 0747 14       		.byte	0x14
 1310 0748 C2030000 		.4byte	0x3c2
 1311 074c 02       		.uleb128 0x2
 1312 074d 55030000 		.4byte	.LASF105
 1313 0751 0C       		.byte	0xc
 1314 0752 A1       		.byte	0xa1
 1315 0753 10       		.byte	0x10
 1316 0754 58070000 		.4byte	0x758
 1317 0758 04       		.uleb128 0x4
 1318 0759 5D070000 		.4byte	0x75d
 1319 075d 27       		.uleb128 0x27
 1320 075e 68070000 		.4byte	0x768
 1321 0762 11       		.uleb128 0x11
 1322 0763 C2030000 		.4byte	0x3c2
 1323 0767 00       		.byte	0
 1324 0768 1A       		.uleb128 0x1a
 1325 0769 0C       		.byte	0xc
 1326 076a 0C       		.byte	0xc
 1327 076b AD       		.byte	0xad
 1328 076c 95070000 		.4byte	0x795
 1329 0770 0E       		.uleb128 0xe
 1330 0771 7E080000 		.4byte	.LASF106
 1331 0775 0C       		.byte	0xc
 1332 0776 B1       		.byte	0xb1
 1333 0777 21       		.byte	0x21
 1334 0778 DA050000 		.4byte	0x5da
 1335 077c 0E       		.uleb128 0xe
 1336 077d 66030000 		.4byte	.LASF102
 1337 0781 0C       		.byte	0xc
 1338 0782 B5       		.byte	0xb5
 1339 0783 21       		.byte	0x21
 1340 0784 06060000 		.4byte	0x606
 1341 0788 0E       		.uleb128 0xe
 1342 0789 9A070000 		.4byte	.LASF107
 1343 078d 0C       		.byte	0xc
 1344 078e B9       		.byte	0xb9
 1345 078f 21       		.byte	0x21
 1346 0790 3F060000 		.4byte	0x63f
 1347 0794 00       		.byte	0
 1348 0795 28       		.uleb128 0x28
 1349 0796 04       		.byte	0x4
 1350 0797 0C       		.byte	0xc
 1351 0798 0201     		.2byte	0x102
 1352 079a 03       		.byte	0x3
 1353 079b 00080000 		.4byte	0x800
 1354 079f 0C       		.uleb128 0xc
 1355 07a0 14000000 		.4byte	.LASF108
 1356 07a4 0901     		.2byte	0x109
ARM GAS  C:\Users\DEVELO~1\AppData\Local\Temp\ccKDbdyo.s 			page 25


 1357 07a6 21       		.byte	0x21
 1358 07a7 44010000 		.4byte	0x144
 1359 07ab 0C       		.uleb128 0xc
 1360 07ac 7A000000 		.4byte	.LASF109
 1361 07b0 1001     		.2byte	0x110
 1362 07b2 21       		.byte	0x21
 1363 07b3 44010000 		.4byte	0x144
 1364 07b7 0C       		.uleb128 0xc
 1365 07b8 5E080000 		.4byte	.LASF69
 1366 07bc 1701     		.2byte	0x117
 1367 07be 22       		.byte	0x22
 1368 07bf C7030000 		.4byte	0x3c7
 1369 07c3 0C       		.uleb128 0xc
 1370 07c4 85020000 		.4byte	.LASF110
 1371 07c8 1E01     		.2byte	0x11e
 1372 07ca 22       		.byte	0x22
 1373 07cb 00080000 		.4byte	0x800
 1374 07cf 0C       		.uleb128 0xc
 1375 07d0 8E000000 		.4byte	.LASF111
 1376 07d4 2301     		.2byte	0x123
 1377 07d6 21       		.byte	0x21
 1378 07d7 44010000 		.4byte	0x144
 1379 07db 0C       		.uleb128 0xc
 1380 07dc 6F020000 		.4byte	.LASF112
 1381 07e0 2C01     		.2byte	0x12c
 1382 07e2 22       		.byte	0x22
 1383 07e3 2D080000 		.4byte	0x82d
 1384 07e7 0C       		.uleb128 0xc
 1385 07e8 13070000 		.4byte	.LASF113
 1386 07ec 3501     		.2byte	0x135
 1387 07ee 22       		.byte	0x22
 1388 07ef 67080000 		.4byte	0x867
 1389 07f3 0C       		.uleb128 0xc
 1390 07f4 BE060000 		.4byte	.LASF114
 1391 07f8 3D01     		.2byte	0x13d
 1392 07fa 21       		.byte	0x21
 1393 07fb 50010000 		.4byte	0x150
 1394 07ff 00       		.byte	0
 1395 0800 04       		.uleb128 0x4
 1396 0801 40070000 		.4byte	0x740
 1397 0805 08       		.uleb128 0x8
 1398 0806 EC060000 		.4byte	.LASF115
 1399 080a 0C       		.byte	0xc
 1400 080b 12       		.byte	0x12
 1401 080c 34       		.byte	0x34
 1402 080d 10       		.byte	0x10
 1403 080e 2D080000 		.4byte	0x82d
 1404 0812 01       		.uleb128 0x1
 1405 0813 66030000 		.4byte	.LASF102
 1406 0817 12       		.byte	0x12
 1407 0818 35       		.byte	0x35
 1408 0819 19       		.byte	0x19
 1409 081a 06060000 		.4byte	0x606
 1410 081e 00       		.byte	0
 1411 081f 0A       		.uleb128 0xa
 1412 0820 636E7400 		.ascii	"cnt\000"
 1413 0824 12       		.byte	0x12
ARM GAS  C:\Users\DEVELO~1\AppData\Local\Temp\ccKDbdyo.s 			page 26


 1414 0825 37       		.byte	0x37
 1415 0826 19       		.byte	0x19
 1416 0827 5C010000 		.4byte	0x15c
 1417 082b 08       		.byte	0x8
 1418 082c 00       		.byte	0
 1419 082d 04       		.uleb128 0x4
 1420 082e 05080000 		.4byte	0x805
 1421 0832 08       		.uleb128 0x8
 1422 0833 55080000 		.4byte	.LASF116
 1423 0837 10       		.byte	0x10
 1424 0838 13       		.byte	0x13
 1425 0839 39       		.byte	0x39
 1426 083a 08       		.byte	0x8
 1427 083b 67080000 		.4byte	0x867
 1428 083f 01       		.uleb128 0x1
 1429 0840 66030000 		.4byte	.LASF102
 1430 0844 13       		.byte	0x13
 1431 0845 3A       		.byte	0x3a
 1432 0846 19       		.byte	0x19
 1433 0847 06060000 		.4byte	0x606
 1434 084b 00       		.byte	0
 1435 084c 01       		.uleb128 0x1
 1436 084d 1A070000 		.4byte	.LASF32
 1437 0851 13       		.byte	0x13
 1438 0852 3C       		.byte	0x3c
 1439 0853 1A       		.byte	0x1a
 1440 0854 C2030000 		.4byte	0x3c2
 1441 0858 08       		.byte	0x8
 1442 0859 01       		.uleb128 0x1
 1443 085a 9C000000 		.4byte	.LASF85
 1444 085e 13       		.byte	0x13
 1445 085f 3E       		.byte	0x3e
 1446 0860 1A       		.byte	0x1a
 1447 0861 1B090000 		.4byte	0x91b
 1448 0865 0C       		.byte	0xc
 1449 0866 00       		.byte	0
 1450 0867 04       		.uleb128 0x4
 1451 0868 32080000 		.4byte	0x832
 1452 086c 04       		.uleb128 0x4
 1453 086d 77020000 		.4byte	0x277
 1454 0871 04       		.uleb128 0x4
 1455 0872 08010000 		.4byte	0x108
 1456 0876 10       		.uleb128 0x10
 1457 0877 78040000 		.4byte	.LASF117
 1458 087b 10       		.byte	0x10
 1459 087c 0C       		.byte	0xc
 1460 087d 6C01     		.2byte	0x16c
 1461 087f 10       		.byte	0x10
 1462 0880 9F080000 		.4byte	0x89f
 1463 0884 03       		.uleb128 0x3
 1464 0885 9A070000 		.4byte	.LASF107
 1465 0889 7101     		.2byte	0x171
 1466 088b 21       		.byte	0x21
 1467 088c 3F060000 		.4byte	0x63f
 1468 0890 00       		.byte	0
 1469 0891 03       		.uleb128 0x3
 1470 0892 03060000 		.4byte	.LASF118
ARM GAS  C:\Users\DEVELO~1\AppData\Local\Temp\ccKDbdyo.s 			page 27


 1471 0896 7501     		.2byte	0x175
 1472 0898 22       		.byte	0x22
 1473 0899 C2030000 		.4byte	0x3c2
 1474 089d 0C       		.byte	0xc
 1475 089e 00       		.byte	0
 1476 089f 1B       		.uleb128 0x1b
 1477 08a0 00000000 		.4byte	.LASF119
 1478 08a4 7601     		.2byte	0x176
 1479 08a6 76080000 		.4byte	0x876
 1480 08aa 10       		.uleb128 0x10
 1481 08ab A4050000 		.4byte	.LASF120
 1482 08af 14       		.byte	0x14
 1483 08b0 0C       		.byte	0xc
 1484 08b1 7B01     		.2byte	0x17b
 1485 08b3 10       		.byte	0x10
 1486 08b4 FA080000 		.4byte	0x8fa
 1487 08b8 03       		.uleb128 0x3
 1488 08b9 50030000 		.4byte	.LASF38
 1489 08bd 7F01     		.2byte	0x17f
 1490 08bf 22       		.byte	0x22
 1491 08c0 64030000 		.4byte	0x364
 1492 08c4 00       		.byte	0
 1493 08c5 03       		.uleb128 0x3
 1494 08c6 50050000 		.4byte	.LASF121
 1495 08ca 8301     		.2byte	0x183
 1496 08cc 22       		.byte	0x22
 1497 08cd 71080000 		.4byte	0x871
 1498 08d1 04       		.byte	0x4
 1499 08d2 03       		.uleb128 0x3
 1500 08d3 A8000000 		.4byte	.LASF122
 1501 08d7 8701     		.2byte	0x187
 1502 08d9 22       		.byte	0x22
 1503 08da 71080000 		.4byte	0x871
 1504 08de 08       		.byte	0x8
 1505 08df 03       		.uleb128 0x3
 1506 08e0 31020000 		.4byte	.LASF123
 1507 08e4 8C01     		.2byte	0x18c
 1508 08e6 22       		.byte	0x22
 1509 08e7 71080000 		.4byte	0x871
 1510 08eb 0C       		.byte	0xc
 1511 08ec 03       		.uleb128 0x3
 1512 08ed F5050000 		.4byte	.LASF124
 1513 08f1 9001     		.2byte	0x190
 1514 08f3 22       		.byte	0x22
 1515 08f4 71080000 		.4byte	0x871
 1516 08f8 10       		.byte	0x10
 1517 08f9 00       		.byte	0
 1518 08fa 1B       		.uleb128 0x1b
 1519 08fb 1B080000 		.4byte	.LASF125
 1520 08ff 9201     		.2byte	0x192
 1521 0901 AA080000 		.4byte	0x8aa
 1522 0905 09       		.uleb128 0x9
 1523 0906 FA080000 		.4byte	0x8fa
 1524 090a 04       		.uleb128 0x4
 1525 090b 05090000 		.4byte	0x905
 1526 090f 02       		.uleb128 0x2
 1527 0910 40020000 		.4byte	.LASF126
ARM GAS  C:\Users\DEVELO~1\AppData\Local\Temp\ccKDbdyo.s 			page 28


 1528 0914 13       		.byte	0x13
 1529 0915 34       		.byte	0x34
 1530 0916 19       		.byte	0x19
 1531 0917 32080000 		.4byte	0x832
 1532 091b 04       		.uleb128 0x4
 1533 091c 0F090000 		.4byte	0x90f
 1534 0920 06       		.uleb128 0x6
 1535 0921 01       		.byte	0x1
 1536 0922 02       		.byte	0x2
 1537 0923 73060000 		.4byte	.LASF127
 1538 0927 0B       		.uleb128 0xb
 1539 0928 10       		.byte	0x10
 1540 0929 14       		.byte	0x14
 1541 092a AA       		.byte	0xaa
 1542 092b 09       		.byte	0x9
 1543 092c 65090000 		.4byte	0x965
 1544 0930 01       		.uleb128 0x1
 1545 0931 50030000 		.4byte	.LASF38
 1546 0935 14       		.byte	0x14
 1547 0936 AB       		.byte	0xab
 1548 0937 0F       		.byte	0xf
 1549 0938 64030000 		.4byte	0x364
 1550 093c 00       		.byte	0
 1551 093d 01       		.uleb128 0x1
 1552 093e D3050000 		.4byte	.LASF128
 1553 0942 14       		.byte	0x14
 1554 0943 AC       		.byte	0xac
 1555 0944 0A       		.byte	0xa
 1556 0945 66090000 		.4byte	0x966
 1557 0949 04       		.byte	0x4
 1558 094a 01       		.uleb128 0x1
 1559 094b 92020000 		.4byte	.LASF129
 1560 094f 14       		.byte	0x14
 1561 0950 AD       		.byte	0xad
 1562 0951 0A       		.byte	0xa
 1563 0952 66090000 		.4byte	0x966
 1564 0956 08       		.byte	0x8
 1565 0957 01       		.uleb128 0x1
 1566 0958 53060000 		.4byte	.LASF130
 1567 095c 14       		.byte	0x14
 1568 095d AE       		.byte	0xae
 1569 095e 0A       		.byte	0xa
 1570 095f 66090000 		.4byte	0x966
 1571 0963 0C       		.byte	0xc
 1572 0964 00       		.byte	0
 1573 0965 29       		.uleb128 0x29
 1574 0966 04       		.uleb128 0x4
 1575 0967 65090000 		.4byte	0x965
 1576 096b 02       		.uleb128 0x2
 1577 096c B2040000 		.4byte	.LASF131
 1578 0970 14       		.byte	0x14
 1579 0971 AF       		.byte	0xaf
 1580 0972 03       		.byte	0x3
 1581 0973 27090000 		.4byte	0x927
 1582 0977 09       		.uleb128 0x9
 1583 0978 6B090000 		.4byte	0x96b
 1584 097c 0B       		.uleb128 0xb
ARM GAS  C:\Users\DEVELO~1\AppData\Local\Temp\ccKDbdyo.s 			page 29


 1585 097d 08       		.byte	0x8
 1586 097e 14       		.byte	0x14
 1587 097f B4       		.byte	0xb4
 1588 0980 09       		.byte	0x9
 1589 0981 A0090000 		.4byte	0x9a0
 1590 0985 01       		.uleb128 0x1
 1591 0986 50030000 		.4byte	.LASF38
 1592 098a 14       		.byte	0x14
 1593 098b B5       		.byte	0xb5
 1594 098c 16       		.byte	0x16
 1595 098d 64030000 		.4byte	0x364
 1596 0991 00       		.byte	0
 1597 0992 01       		.uleb128 0x1
 1598 0993 F9060000 		.4byte	.LASF132
 1599 0997 14       		.byte	0x14
 1600 0998 B6       		.byte	0xb6
 1601 0999 1E       		.byte	0x1e
 1602 099a A0090000 		.4byte	0x9a0
 1603 099e 04       		.byte	0x4
 1604 099f 00       		.byte	0
 1605 09a0 04       		.uleb128 0x4
 1606 09a1 AA090000 		.4byte	0x9aa
 1607 09a5 04       		.uleb128 0x4
 1608 09a6 77090000 		.4byte	0x977
 1609 09aa 09       		.uleb128 0x9
 1610 09ab A5090000 		.4byte	0x9a5
 1611 09af 02       		.uleb128 0x2
 1612 09b0 1C010000 		.4byte	.LASF133
 1613 09b4 14       		.byte	0x14
 1614 09b5 B7       		.byte	0xb7
 1615 09b6 03       		.byte	0x3
 1616 09b7 7C090000 		.4byte	0x97c
 1617 09bb 09       		.uleb128 0x9
 1618 09bc AF090000 		.4byte	0x9af
 1619 09c0 0B       		.uleb128 0xb
 1620 09c1 08       		.byte	0x8
 1621 09c2 14       		.byte	0x14
 1622 09c3 BC       		.byte	0xbc
 1623 09c4 09       		.byte	0x9
 1624 09c5 E4090000 		.4byte	0x9e4
 1625 09c9 01       		.uleb128 0x1
 1626 09ca 50030000 		.4byte	.LASF38
 1627 09ce 14       		.byte	0x14
 1628 09cf BD       		.byte	0xbd
 1629 09d0 16       		.byte	0x16
 1630 09d1 64030000 		.4byte	0x364
 1631 09d5 00       		.byte	0
 1632 09d6 01       		.uleb128 0x1
 1633 09d7 FC070000 		.4byte	.LASF134
 1634 09db 14       		.byte	0x14
 1635 09dc BE       		.byte	0xbe
 1636 09dd 22       		.byte	0x22
 1637 09de E4090000 		.4byte	0x9e4
 1638 09e2 04       		.byte	0x4
 1639 09e3 00       		.byte	0
 1640 09e4 04       		.uleb128 0x4
 1641 09e5 EE090000 		.4byte	0x9ee
ARM GAS  C:\Users\DEVELO~1\AppData\Local\Temp\ccKDbdyo.s 			page 30


 1642 09e9 04       		.uleb128 0x4
 1643 09ea BB090000 		.4byte	0x9bb
 1644 09ee 09       		.uleb128 0x9
 1645 09ef E9090000 		.4byte	0x9e9
 1646 09f3 02       		.uleb128 0x2
 1647 09f4 C7050000 		.4byte	.LASF135
 1648 09f8 14       		.byte	0x14
 1649 09f9 BF       		.byte	0xbf
 1650 09fa 03       		.byte	0x3
 1651 09fb C0090000 		.4byte	0x9c0
 1652 09ff 09       		.uleb128 0x9
 1653 0a00 F3090000 		.4byte	0x9f3
 1654 0a04 05       		.uleb128 0x5
 1655 0a05 AF030000 		.4byte	.LASF136
 1656 0a09 15       		.byte	0x15
 1657 0a0a 19       		.byte	0x19
 1658 0a0b 1D       		.byte	0x1d
 1659 0a0c BB090000 		.4byte	0x9bb
 1660 0a10 05       		.uleb128 0x5
 1661 0a11 C4030000 		.4byte	.LASF137
 1662 0a15 16       		.byte	0x16
 1663 0a16 19       		.byte	0x19
 1664 0a17 1D       		.byte	0x1d
 1665 0a18 BB090000 		.4byte	0x9bb
 1666 0a1c 05       		.uleb128 0x5
 1667 0a1d 06080000 		.4byte	.LASF138
 1668 0a21 17       		.byte	0x17
 1669 0a22 19       		.byte	0x19
 1670 0a23 1D       		.byte	0x1d
 1671 0a24 BB090000 		.4byte	0x9bb
 1672 0a28 05       		.uleb128 0x5
 1673 0a29 E2030000 		.4byte	.LASF139
 1674 0a2d 18       		.byte	0x18
 1675 0a2e 19       		.byte	0x19
 1676 0a2f 1D       		.byte	0x1d
 1677 0a30 BB090000 		.4byte	0x9bb
 1678 0a34 05       		.uleb128 0x5
 1679 0a35 F7030000 		.4byte	.LASF140
 1680 0a39 19       		.byte	0x19
 1681 0a3a 19       		.byte	0x19
 1682 0a3b 1D       		.byte	0x1d
 1683 0a3c BB090000 		.4byte	0x9bb
 1684 0a40 05       		.uleb128 0x5
 1685 0a41 0C040000 		.4byte	.LASF141
 1686 0a45 1A       		.byte	0x1a
 1687 0a46 19       		.byte	0x19
 1688 0a47 1D       		.byte	0x1d
 1689 0a48 BB090000 		.4byte	0x9bb
 1690 0a4c 05       		.uleb128 0x5
 1691 0a4d 21040000 		.4byte	.LASF142
 1692 0a51 1B       		.byte	0x1b
 1693 0a52 19       		.byte	0x19
 1694 0a53 1D       		.byte	0x1d
 1695 0a54 BB090000 		.4byte	0x9bb
 1696 0a58 05       		.uleb128 0x5
 1697 0a59 36040000 		.4byte	.LASF143
 1698 0a5d 1C       		.byte	0x1c
ARM GAS  C:\Users\DEVELO~1\AppData\Local\Temp\ccKDbdyo.s 			page 31


 1699 0a5e 19       		.byte	0x19
 1700 0a5f 1D       		.byte	0x1d
 1701 0a60 BB090000 		.4byte	0x9bb
 1702 0a64 05       		.uleb128 0x5
 1703 0a65 4B040000 		.4byte	.LASF144
 1704 0a69 1D       		.byte	0x1d
 1705 0a6a 19       		.byte	0x19
 1706 0a6b 1D       		.byte	0x1d
 1707 0a6c BB090000 		.4byte	0x9bb
 1708 0a70 05       		.uleb128 0x5
 1709 0a71 65050000 		.4byte	.LASF145
 1710 0a75 1E       		.byte	0x1e
 1711 0a76 19       		.byte	0x19
 1712 0a77 1D       		.byte	0x1d
 1713 0a78 BB090000 		.4byte	0x9bb
 1714 0a7c 05       		.uleb128 0x5
 1715 0a7d 7A050000 		.4byte	.LASF146
 1716 0a81 1F       		.byte	0x1f
 1717 0a82 19       		.byte	0x19
 1718 0a83 1D       		.byte	0x1d
 1719 0a84 BB090000 		.4byte	0x9bb
 1720 0a88 05       		.uleb128 0x5
 1721 0a89 8F050000 		.4byte	.LASF147
 1722 0a8d 20       		.byte	0x20
 1723 0a8e 19       		.byte	0x19
 1724 0a8f 1D       		.byte	0x1d
 1725 0a90 BB090000 		.4byte	0x9bb
 1726 0a94 05       		.uleb128 0x5
 1727 0a95 84010000 		.4byte	.LASF148
 1728 0a99 21       		.byte	0x21
 1729 0a9a 2E       		.byte	0x2e
 1730 0a9b 1A       		.byte	0x1a
 1731 0a9c FF090000 		.4byte	0x9ff
 1732 0aa0 0D       		.uleb128 0xd
 1733 0aa1 BB000000 		.4byte	0xbb
 1734 0aa5 B10A0000 		.4byte	0xab1
 1735 0aa9 2A       		.uleb128 0x2a
 1736 0aaa 39000000 		.4byte	0x39
 1737 0aae 5F09     		.2byte	0x95f
 1738 0ab0 00       		.byte	0
 1739 0ab1 05       		.uleb128 0x5
 1740 0ab2 3A050000 		.4byte	.LASF149
 1741 0ab6 21       		.byte	0x21
 1742 0ab7 5E       		.byte	0x5e
 1743 0ab8 10       		.byte	0x10
 1744 0ab9 A00A0000 		.4byte	0xaa0
 1745 0abd 0D       		.uleb128 0xd
 1746 0abe C2030000 		.4byte	0x3c2
 1747 0ac2 CD0A0000 		.4byte	0xacd
 1748 0ac6 0F       		.uleb128 0xf
 1749 0ac7 39000000 		.4byte	0x39
 1750 0acb 04       		.byte	0x4
 1751 0acc 00       		.byte	0
 1752 0acd 05       		.uleb128 0x5
 1753 0ace B6060000 		.4byte	.LASF150
 1754 0ad2 21       		.byte	0x21
 1755 0ad3 5F       		.byte	0x5f
ARM GAS  C:\Users\DEVELO~1\AppData\Local\Temp\ccKDbdyo.s 			page 32


 1756 0ad4 12       		.byte	0x12
 1757 0ad5 BD0A0000 		.4byte	0xabd
 1758 0ad9 0D       		.uleb128 0xd
 1759 0ada C9030000 		.4byte	0x3c9
 1760 0ade E90A0000 		.4byte	0xae9
 1761 0ae2 0F       		.uleb128 0xf
 1762 0ae3 39000000 		.4byte	0x39
 1763 0ae7 04       		.byte	0x4
 1764 0ae8 00       		.byte	0
 1765 0ae9 09       		.uleb128 0x9
 1766 0aea D90A0000 		.4byte	0xad9
 1767 0aee 2B       		.uleb128 0x2b
 1768 0aef 776100   		.ascii	"wa\000"
 1769 0af2 21       		.byte	0x21
 1770 0af3 60       		.byte	0x60
 1771 0af4 18       		.byte	0x18
 1772 0af5 E90A0000 		.4byte	0xae9
 1773 0af9 0D       		.uleb128 0xd
 1774 0afa EE090000 		.4byte	0x9ee
 1775 0afe 090B0000 		.4byte	0xb09
 1776 0b02 0F       		.uleb128 0xf
 1777 0b03 39000000 		.4byte	0x39
 1778 0b07 0C       		.byte	0xc
 1779 0b08 00       		.byte	0
 1780 0b09 09       		.uleb128 0x9
 1781 0b0a F90A0000 		.4byte	0xaf9
 1782 0b0e 2C       		.uleb128 0x2c
 1783 0b0f C5040000 		.4byte	.LASF151
 1784 0b13 01       		.byte	0x1
 1785 0b14 38       		.byte	0x38
 1786 0b15 1E       		.byte	0x1e
 1787 0b16 090B0000 		.4byte	0xb09
 1788 0b1a 05       		.uleb128 0x5
 1789 0b1b 03       		.byte	0x3
 1790 0b1c 00000000 		.4byte	rt_test_suite_array
 1791 0b20 12       		.uleb128 0x12
 1792 0b21 940A0000 		.4byte	0xa94
 1793 0b25 57       		.byte	0x57
 1794 0b26 13       		.byte	0x13
 1795 0b27 05       		.uleb128 0x5
 1796 0b28 03       		.byte	0x3
 1797 0b29 00000000 		.4byte	rt_test_suite
 1798 0b2d 12       		.uleb128 0x12
 1799 0b2e B10A0000 		.4byte	0xab1
 1800 0b32 63       		.byte	0x63
 1801 0b33 2E       		.byte	0x2e
 1802 0b34 05       		.uleb128 0x5
 1803 0b35 03       		.byte	0x3
 1804 0b36 00000000 		.4byte	test_buffer
 1805 0b3a 12       		.uleb128 0x12
 1806 0b3b CD0A0000 		.4byte	0xacd
 1807 0b3f 68       		.byte	0x68
 1808 0b40 0B       		.byte	0xb
 1809 0b41 05       		.uleb128 0x5
 1810 0b42 03       		.byte	0x3
 1811 0b43 00000000 		.4byte	threads
 1812 0b47 12       		.uleb128 0x12
ARM GAS  C:\Users\DEVELO~1\AppData\Local\Temp\ccKDbdyo.s 			page 33


 1813 0b48 EE0A0000 		.4byte	0xaee
 1814 0b4c 6D       		.byte	0x6d
 1815 0b4d 11       		.byte	0x11
 1816 0b4e 05       		.uleb128 0x5
 1817 0b4f 03       		.byte	0x3
 1818 0b50 00000000 		.4byte	wa
 1819 0b54 2D       		.uleb128 0x2d
 1820 0b55 C5060000 		.4byte	.LASF164
 1821 0b59 23       		.byte	0x23
 1822 0b5a 4B       		.byte	0x4b
 1823 0b5b 0D       		.byte	0xd
 1824 0b5c 86030000 		.4byte	0x386
 1825 0b60 1C       		.uleb128 0x1c
 1826 0b61 30080000 		.4byte	.LASF152
 1827 0b65 DC01     		.2byte	0x1dc
 1828 0b67 710B0000 		.4byte	0xb71
 1829 0b6b 11       		.uleb128 0x11
 1830 0b6c 92030000 		.4byte	0x392
 1831 0b70 00       		.byte	0
 1832 0b71 2E       		.uleb128 0x2e
 1833 0b72 65020000 		.4byte	.LASF165
 1834 0b76 22       		.byte	0x22
 1835 0b77 CE01     		.2byte	0x1ce
 1836 0b79 09       		.byte	0x9
 1837 0b7a 44010000 		.4byte	0x144
 1838 0b7e 880B0000 		.4byte	0xb88
 1839 0b82 11       		.uleb128 0x11
 1840 0b83 C2030000 		.4byte	0x3c2
 1841 0b87 00       		.byte	0
 1842 0b88 1C       		.uleb128 0x1c
 1843 0b89 75010000 		.4byte	.LASF153
 1844 0b8d D101     		.2byte	0x1d1
 1845 0b8f 990B0000 		.4byte	0xb99
 1846 0b93 11       		.uleb128 0x11
 1847 0b94 C2030000 		.4byte	0x3c2
 1848 0b98 00       		.byte	0
 1849 0b99 2F       		.uleb128 0x2f
 1850 0b9a 95080000 		.4byte	.LASF166
 1851 0b9e 01       		.byte	0x1
 1852 0b9f 8E       		.byte	0x8e
 1853 0ba0 0B       		.byte	0xb
 1854 0ba1 86030000 		.4byte	0x386
 1855 0ba5 00000000 		.4byte	.LFB454
 1856 0ba9 1A000000 		.4byte	.LFE454-.LFB454
 1857 0bad 01       		.uleb128 0x1
 1858 0bae 9C       		.byte	0x9c
 1859 0baf C30C0000 		.4byte	0xcc3
 1860 0bb3 16       		.uleb128 0x16
 1861 0bb4 1F0D0000 		.4byte	0xd1f
 1862 0bb8 08000000 		.4byte	.LBI44
 1863 0bbc 01       		.byte	.LVU34
 1864 0bbd 08000000 		.4byte	.LBB44
 1865 0bc1 10000000 		.4byte	.LBE44-.LBB44
 1866 0bc5 01       		.byte	0x1
 1867 0bc6 91       		.byte	0x91
 1868 0bc7 0A       		.byte	0xa
 1869 0bc8 B30C0000 		.4byte	0xcb3
ARM GAS  C:\Users\DEVELO~1\AppData\Local\Temp\ccKDbdyo.s 			page 34


 1870 0bcc 30       		.uleb128 0x30
 1871 0bcd 300D0000 		.4byte	0xd30
 1872 0bd1 0E000000 		.4byte	.LLST2
 1873 0bd5 0C000000 		.4byte	.LVUS2
 1874 0bd9 16       		.uleb128 0x16
 1875 0bda 750D0000 		.4byte	0xd75
 1876 0bde 08000000 		.4byte	.LBI46
 1877 0be2 04       		.byte	.LVU37
 1878 0be3 08000000 		.4byte	.LBB46
 1879 0be7 06000000 		.4byte	.LBE46-.LBB46
 1880 0beb 02       		.byte	0x2
 1881 0bec 9D       		.byte	0x9d
 1882 0bed 03       		.byte	0x3
 1883 0bee 2C0C0000 		.4byte	0xc2c
 1884 0bf2 13       		.uleb128 0x13
 1885 0bf3 920D0000 		.4byte	0xd92
 1886 0bf7 08000000 		.4byte	.LBI47
 1887 0bfb 06       		.byte	.LVU39
 1888 0bfc 08000000 		.4byte	.LBB47
 1889 0c00 06000000 		.4byte	.LBE47-.LBB47
 1890 0c04 03       		.byte	0x3
 1891 0c05 7601     		.2byte	0x176
 1892 0c07 13       		.uleb128 0x13
 1893 0c08 9B0D0000 		.4byte	0xd9b
 1894 0c0c 08000000 		.4byte	.LBI48
 1895 0c10 08       		.byte	.LVU41
 1896 0c11 08000000 		.4byte	.LBB48
 1897 0c15 06000000 		.4byte	.LBE48-.LBB48
 1898 0c19 04       		.byte	0x4
 1899 0c1a 5003     		.2byte	0x350
 1900 0c1c 1D       		.uleb128 0x1d
 1901 0c1d A50D0000 		.4byte	0xda5
 1902 0c21 19000000 		.4byte	.LLST3
 1903 0c25 17000000 		.4byte	.LVUS3
 1904 0c29 00       		.byte	0
 1905 0c2a 00       		.byte	0
 1906 0c2b 00       		.byte	0
 1907 0c2c 16       		.uleb128 0x16
 1908 0c2d 3D0D0000 		.4byte	0xd3d
 1909 0c31 0E000000 		.4byte	.LBI50
 1910 0c35 04       		.byte	.LVU47
 1911 0c36 0E000000 		.4byte	.LBB50
 1912 0c3a 04000000 		.4byte	.LBE50-.LBB50
 1913 0c3e 02       		.byte	0x2
 1914 0c3f 9E       		.byte	0x9e
 1915 0c40 0D       		.byte	0xd
 1916 0c41 640C0000 		.4byte	0xc64
 1917 0c45 1E       		.uleb128 0x1e
 1918 0c46 7E0D0000 		.4byte	0xd7e
 1919 0c4a 0E000000 		.4byte	.LBI51
 1920 0c4e 06       		.byte	.LVU49
 1921 0c4f 0E000000 		.4byte	.LBB51
 1922 0c53 04000000 		.4byte	.LBE51-.LBB51
 1923 0c57 8C       		.byte	0x8c
 1924 0c58 0A       		.byte	0xa
 1925 0c59 17       		.uleb128 0x17
 1926 0c5a 12000000 		.4byte	.LVL8
ARM GAS  C:\Users\DEVELO~1\AppData\Local\Temp\ccKDbdyo.s 			page 35


 1927 0c5e 540B0000 		.4byte	0xb54
 1928 0c62 00       		.byte	0
 1929 0c63 00       		.byte	0
 1930 0c64 1E       		.uleb128 0x1e
 1931 0c65 480D0000 		.4byte	0xd48
 1932 0c69 12000000 		.4byte	.LBI53
 1933 0c6d 02       		.byte	.LVU54
 1934 0c6e 12000000 		.4byte	.LBB53
 1935 0c72 06000000 		.4byte	.LBE53-.LBB53
 1936 0c76 9F       		.byte	0x9f
 1937 0c77 03       		.byte	0x3
 1938 0c78 13       		.uleb128 0x13
 1939 0c79 890D0000 		.4byte	0xd89
 1940 0c7d 12000000 		.4byte	.LBI55
 1941 0c81 09       		.byte	.LVU61
 1942 0c82 12000000 		.4byte	.LBB55
 1943 0c86 06000000 		.4byte	.LBE55-.LBB55
 1944 0c8a 03       		.byte	0x3
 1945 0c8b 8F01     		.2byte	0x18f
 1946 0c8d 13       		.uleb128 0x13
 1947 0c8e 9B0D0000 		.4byte	0xd9b
 1948 0c92 12000000 		.4byte	.LBI56
 1949 0c96 0B       		.byte	.LVU63
 1950 0c97 12000000 		.4byte	.LBB56
 1951 0c9b 06000000 		.4byte	.LBE56-.LBB56
 1952 0c9f 04       		.byte	0x4
 1953 0ca0 6303     		.2byte	0x363
 1954 0ca2 1D       		.uleb128 0x1d
 1955 0ca3 A50D0000 		.4byte	0xda5
 1956 0ca7 26000000 		.4byte	.LLST4
 1957 0cab 24000000 		.4byte	.LVUS4
 1958 0caf 00       		.byte	0
 1959 0cb0 00       		.byte	0
 1960 0cb1 00       		.byte	0
 1961 0cb2 00       		.byte	0
 1962 0cb3 31       		.uleb128 0x31
 1963 0cb4 08000000 		.4byte	.LVL6
 1964 0cb8 600B0000 		.4byte	0xb60
 1965 0cbc 32       		.uleb128 0x32
 1966 0cbd 01       		.uleb128 0x1
 1967 0cbe 50       		.byte	0x50
 1968 0cbf 01       		.uleb128 0x1
 1969 0cc0 31       		.byte	0x31
 1970 0cc1 00       		.byte	0
 1971 0cc2 00       		.byte	0
 1972 0cc3 1F       		.uleb128 0x1f
 1973 0cc4 53070000 		.4byte	.LASF154
 1974 0cc8 81       		.byte	0x81
 1975 0cc9 00000000 		.4byte	.LFB453
 1976 0ccd 24000000 		.4byte	.LFE453-.LFB453
 1977 0cd1 01       		.uleb128 0x1
 1978 0cd2 9C       		.byte	0x9c
 1979 0cd3 F10C0000 		.4byte	0xcf1
 1980 0cd7 20       		.uleb128 0x20
 1981 0cd8 6900     		.ascii	"i\000"
 1982 0cda 82       		.byte	0x82
 1983 0cdb 39000000 		.4byte	0x39
ARM GAS  C:\Users\DEVELO~1\AppData\Local\Temp\ccKDbdyo.s 			page 36


 1984 0cdf 32000000 		.4byte	.LLST1
 1985 0ce3 30000000 		.4byte	.LVUS1
 1986 0ce7 17       		.uleb128 0x17
 1987 0ce8 14000000 		.4byte	.LVL5
 1988 0cec 710B0000 		.4byte	0xb71
 1989 0cf0 00       		.byte	0
 1990 0cf1 1F       		.uleb128 0x1f
 1991 0cf2 32060000 		.4byte	.LASF155
 1992 0cf6 76       		.byte	0x76
 1993 0cf7 00000000 		.4byte	.LFB452
 1994 0cfb 1C000000 		.4byte	.LFE452-.LFB452
 1995 0cff 01       		.uleb128 0x1
 1996 0d00 9C       		.byte	0x9c
 1997 0d01 1F0D0000 		.4byte	0xd1f
 1998 0d05 20       		.uleb128 0x20
 1999 0d06 6900     		.ascii	"i\000"
 2000 0d08 77       		.byte	0x77
 2001 0d09 39000000 		.4byte	0x39
 2002 0d0d 3E000000 		.4byte	.LLST0
 2003 0d11 3C000000 		.4byte	.LVUS0
 2004 0d15 17       		.uleb128 0x17
 2005 0d16 12000000 		.4byte	.LVL2
 2006 0d1a 880B0000 		.4byte	0xb88
 2007 0d1e 00       		.byte	0
 2008 0d1f 33       		.uleb128 0x33
 2009 0d20 D9050000 		.4byte	.LASF167
 2010 0d24 02       		.byte	0x2
 2011 0d25 9A       		.byte	0x9a
 2012 0d26 19       		.byte	0x19
 2013 0d27 86030000 		.4byte	0x386
 2014 0d2b 03       		.byte	0x3
 2015 0d2c 3D0D0000 		.4byte	0xd3d
 2016 0d30 34       		.uleb128 0x34
 2017 0d31 68040000 		.4byte	.LASF168
 2018 0d35 02       		.byte	0x2
 2019 0d36 9B       		.byte	0x9b
 2020 0d37 0D       		.byte	0xd
 2021 0d38 86030000 		.4byte	0x386
 2022 0d3c 00       		.byte	0
 2023 0d3d 21       		.uleb128 0x21
 2024 0d3e 8C030000 		.4byte	.LASF156
 2025 0d42 02       		.byte	0x2
 2026 0d43 87       		.byte	0x87
 2027 0d44 86030000 		.4byte	0x386
 2028 0d48 35       		.uleb128 0x35
 2029 0d49 72080000 		.4byte	.LASF169
 2030 0d4d 03       		.byte	0x3
 2031 0d4e 8201     		.2byte	0x182
 2032 0d50 14       		.byte	0x14
 2033 0d51 03       		.byte	0x3
 2034 0d52 600D0000 		.4byte	0xd60
 2035 0d56 36       		.uleb128 0x36
 2036 0d57 D2060000 		.4byte	.LASF170
 2037 0d5b 700D0000 		.4byte	0xd70
 2038 0d5f 00       		.byte	0
 2039 0d60 0D       		.uleb128 0xd
 2040 0d61 75030000 		.4byte	0x375
ARM GAS  C:\Users\DEVELO~1\AppData\Local\Temp\ccKDbdyo.s 			page 37


 2041 0d65 700D0000 		.4byte	0xd70
 2042 0d69 0F       		.uleb128 0xf
 2043 0d6a 39000000 		.4byte	0x39
 2044 0d6e 0B       		.byte	0xb
 2045 0d6f 00       		.byte	0
 2046 0d70 09       		.uleb128 0x9
 2047 0d71 600D0000 		.4byte	0xd60
 2048 0d75 18       		.uleb128 0x18
 2049 0d76 DB060000 		.4byte	.LASF158
 2050 0d7a 03       		.byte	0x3
 2051 0d7b 7401     		.2byte	0x174
 2052 0d7d 14       		.byte	0x14
 2053 0d7e 21       		.uleb128 0x21
 2054 0d7f D8070000 		.4byte	.LASF157
 2055 0d83 06       		.byte	0x6
 2056 0d84 6F       		.byte	0x6f
 2057 0d85 86030000 		.4byte	0x386
 2058 0d89 18       		.uleb128 0x18
 2059 0d8a 3C010000 		.4byte	.LASF159
 2060 0d8e 04       		.byte	0x4
 2061 0d8f 6003     		.2byte	0x360
 2062 0d91 1B       		.byte	0x1b
 2063 0d92 18       		.uleb128 0x18
 2064 0d93 83080000 		.4byte	.LASF160
 2065 0d97 04       		.byte	0x4
 2066 0d98 4803     		.2byte	0x348
 2067 0d9a 1B       		.byte	0x1b
 2068 0d9b 37       		.uleb128 0x37
 2069 0d9c 22050000 		.4byte	.LASF171
 2070 0da0 05       		.byte	0x5
 2071 0da1 EB01     		.2byte	0x1eb
 2072 0da3 1B       		.byte	0x1b
 2073 0da4 03       		.byte	0x3
 2074 0da5 38       		.uleb128 0x38
 2075 0da6 04010000 		.4byte	.LASF172
 2076 0daa 05       		.byte	0x5
 2077 0dab EB01     		.2byte	0x1eb
 2078 0dad 32       		.byte	0x32
 2079 0dae DF000000 		.4byte	0xdf
 2080 0db2 00       		.byte	0
 2081 0db3 00       		.byte	0
 2082              		.section	.debug_abbrev,"",%progbits
 2083              	.Ldebug_abbrev0:
 2084 0000 01       		.uleb128 0x1
 2085 0001 0D       		.uleb128 0xd
 2086 0002 00       		.byte	0
 2087 0003 03       		.uleb128 0x3
 2088 0004 0E       		.uleb128 0xe
 2089 0005 3A       		.uleb128 0x3a
 2090 0006 0B       		.uleb128 0xb
 2091 0007 3B       		.uleb128 0x3b
 2092 0008 0B       		.uleb128 0xb
 2093 0009 39       		.uleb128 0x39
 2094 000a 0B       		.uleb128 0xb
 2095 000b 49       		.uleb128 0x49
 2096 000c 13       		.uleb128 0x13
 2097 000d 38       		.uleb128 0x38
ARM GAS  C:\Users\DEVELO~1\AppData\Local\Temp\ccKDbdyo.s 			page 38


 2098 000e 0B       		.uleb128 0xb
 2099 000f 00       		.byte	0
 2100 0010 00       		.byte	0
 2101 0011 02       		.uleb128 0x2
 2102 0012 16       		.uleb128 0x16
 2103 0013 00       		.byte	0
 2104 0014 03       		.uleb128 0x3
 2105 0015 0E       		.uleb128 0xe
 2106 0016 3A       		.uleb128 0x3a
 2107 0017 0B       		.uleb128 0xb
 2108 0018 3B       		.uleb128 0x3b
 2109 0019 0B       		.uleb128 0xb
 2110 001a 39       		.uleb128 0x39
 2111 001b 0B       		.uleb128 0xb
 2112 001c 49       		.uleb128 0x49
 2113 001d 13       		.uleb128 0x13
 2114 001e 00       		.byte	0
 2115 001f 00       		.byte	0
 2116 0020 03       		.uleb128 0x3
 2117 0021 0D       		.uleb128 0xd
 2118 0022 00       		.byte	0
 2119 0023 03       		.uleb128 0x3
 2120 0024 0E       		.uleb128 0xe
 2121 0025 3A       		.uleb128 0x3a
 2122 0026 21       		.uleb128 0x21
 2123 0027 0C       		.sleb128 12
 2124 0028 3B       		.uleb128 0x3b
 2125 0029 05       		.uleb128 0x5
 2126 002a 39       		.uleb128 0x39
 2127 002b 0B       		.uleb128 0xb
 2128 002c 49       		.uleb128 0x49
 2129 002d 13       		.uleb128 0x13
 2130 002e 38       		.uleb128 0x38
 2131 002f 0B       		.uleb128 0xb
 2132 0030 00       		.byte	0
 2133 0031 00       		.byte	0
 2134 0032 04       		.uleb128 0x4
 2135 0033 0F       		.uleb128 0xf
 2136 0034 00       		.byte	0
 2137 0035 0B       		.uleb128 0xb
 2138 0036 21       		.uleb128 0x21
 2139 0037 04       		.sleb128 4
 2140 0038 49       		.uleb128 0x49
 2141 0039 13       		.uleb128 0x13
 2142 003a 00       		.byte	0
 2143 003b 00       		.byte	0
 2144 003c 05       		.uleb128 0x5
 2145 003d 34       		.uleb128 0x34
 2146 003e 00       		.byte	0
 2147 003f 03       		.uleb128 0x3
 2148 0040 0E       		.uleb128 0xe
 2149 0041 3A       		.uleb128 0x3a
 2150 0042 0B       		.uleb128 0xb
 2151 0043 3B       		.uleb128 0x3b
 2152 0044 0B       		.uleb128 0xb
 2153 0045 39       		.uleb128 0x39
 2154 0046 0B       		.uleb128 0xb
ARM GAS  C:\Users\DEVELO~1\AppData\Local\Temp\ccKDbdyo.s 			page 39


 2155 0047 49       		.uleb128 0x49
 2156 0048 13       		.uleb128 0x13
 2157 0049 3F       		.uleb128 0x3f
 2158 004a 19       		.uleb128 0x19
 2159 004b 3C       		.uleb128 0x3c
 2160 004c 19       		.uleb128 0x19
 2161 004d 00       		.byte	0
 2162 004e 00       		.byte	0
 2163 004f 06       		.uleb128 0x6
 2164 0050 24       		.uleb128 0x24
 2165 0051 00       		.byte	0
 2166 0052 0B       		.uleb128 0xb
 2167 0053 0B       		.uleb128 0xb
 2168 0054 3E       		.uleb128 0x3e
 2169 0055 0B       		.uleb128 0xb
 2170 0056 03       		.uleb128 0x3
 2171 0057 0E       		.uleb128 0xe
 2172 0058 00       		.byte	0
 2173 0059 00       		.byte	0
 2174 005a 07       		.uleb128 0x7
 2175 005b 0D       		.uleb128 0xd
 2176 005c 00       		.byte	0
 2177 005d 03       		.uleb128 0x3
 2178 005e 08       		.uleb128 0x8
 2179 005f 3A       		.uleb128 0x3a
 2180 0060 0B       		.uleb128 0xb
 2181 0061 3B       		.uleb128 0x3b
 2182 0062 05       		.uleb128 0x5
 2183 0063 39       		.uleb128 0x39
 2184 0064 0B       		.uleb128 0xb
 2185 0065 49       		.uleb128 0x49
 2186 0066 13       		.uleb128 0x13
 2187 0067 38       		.uleb128 0x38
 2188 0068 0B       		.uleb128 0xb
 2189 0069 00       		.byte	0
 2190 006a 00       		.byte	0
 2191 006b 08       		.uleb128 0x8
 2192 006c 13       		.uleb128 0x13
 2193 006d 01       		.byte	0x1
 2194 006e 03       		.uleb128 0x3
 2195 006f 0E       		.uleb128 0xe
 2196 0070 0B       		.uleb128 0xb
 2197 0071 0B       		.uleb128 0xb
 2198 0072 3A       		.uleb128 0x3a
 2199 0073 0B       		.uleb128 0xb
 2200 0074 3B       		.uleb128 0x3b
 2201 0075 0B       		.uleb128 0xb
 2202 0076 39       		.uleb128 0x39
 2203 0077 0B       		.uleb128 0xb
 2204 0078 01       		.uleb128 0x1
 2205 0079 13       		.uleb128 0x13
 2206 007a 00       		.byte	0
 2207 007b 00       		.byte	0
 2208 007c 09       		.uleb128 0x9
 2209 007d 26       		.uleb128 0x26
 2210 007e 00       		.byte	0
 2211 007f 49       		.uleb128 0x49
ARM GAS  C:\Users\DEVELO~1\AppData\Local\Temp\ccKDbdyo.s 			page 40


 2212 0080 13       		.uleb128 0x13
 2213 0081 00       		.byte	0
 2214 0082 00       		.byte	0
 2215 0083 0A       		.uleb128 0xa
 2216 0084 0D       		.uleb128 0xd
 2217 0085 00       		.byte	0
 2218 0086 03       		.uleb128 0x3
 2219 0087 08       		.uleb128 0x8
 2220 0088 3A       		.uleb128 0x3a
 2221 0089 0B       		.uleb128 0xb
 2222 008a 3B       		.uleb128 0x3b
 2223 008b 0B       		.uleb128 0xb
 2224 008c 39       		.uleb128 0x39
 2225 008d 0B       		.uleb128 0xb
 2226 008e 49       		.uleb128 0x49
 2227 008f 13       		.uleb128 0x13
 2228 0090 38       		.uleb128 0x38
 2229 0091 0B       		.uleb128 0xb
 2230 0092 00       		.byte	0
 2231 0093 00       		.byte	0
 2232 0094 0B       		.uleb128 0xb
 2233 0095 13       		.uleb128 0x13
 2234 0096 01       		.byte	0x1
 2235 0097 0B       		.uleb128 0xb
 2236 0098 0B       		.uleb128 0xb
 2237 0099 3A       		.uleb128 0x3a
 2238 009a 0B       		.uleb128 0xb
 2239 009b 3B       		.uleb128 0x3b
 2240 009c 0B       		.uleb128 0xb
 2241 009d 39       		.uleb128 0x39
 2242 009e 0B       		.uleb128 0xb
 2243 009f 01       		.uleb128 0x1
 2244 00a0 13       		.uleb128 0x13
 2245 00a1 00       		.byte	0
 2246 00a2 00       		.byte	0
 2247 00a3 0C       		.uleb128 0xc
 2248 00a4 0D       		.uleb128 0xd
 2249 00a5 00       		.byte	0
 2250 00a6 03       		.uleb128 0x3
 2251 00a7 0E       		.uleb128 0xe
 2252 00a8 3A       		.uleb128 0x3a
 2253 00a9 21       		.uleb128 0x21
 2254 00aa 0C       		.sleb128 12
 2255 00ab 3B       		.uleb128 0x3b
 2256 00ac 05       		.uleb128 0x5
 2257 00ad 39       		.uleb128 0x39
 2258 00ae 0B       		.uleb128 0xb
 2259 00af 49       		.uleb128 0x49
 2260 00b0 13       		.uleb128 0x13
 2261 00b1 00       		.byte	0
 2262 00b2 00       		.byte	0
 2263 00b3 0D       		.uleb128 0xd
 2264 00b4 01       		.uleb128 0x1
 2265 00b5 01       		.byte	0x1
 2266 00b6 49       		.uleb128 0x49
 2267 00b7 13       		.uleb128 0x13
 2268 00b8 01       		.uleb128 0x1
ARM GAS  C:\Users\DEVELO~1\AppData\Local\Temp\ccKDbdyo.s 			page 41


 2269 00b9 13       		.uleb128 0x13
 2270 00ba 00       		.byte	0
 2271 00bb 00       		.byte	0
 2272 00bc 0E       		.uleb128 0xe
 2273 00bd 0D       		.uleb128 0xd
 2274 00be 00       		.byte	0
 2275 00bf 03       		.uleb128 0x3
 2276 00c0 0E       		.uleb128 0xe
 2277 00c1 3A       		.uleb128 0x3a
 2278 00c2 0B       		.uleb128 0xb
 2279 00c3 3B       		.uleb128 0x3b
 2280 00c4 0B       		.uleb128 0xb
 2281 00c5 39       		.uleb128 0x39
 2282 00c6 0B       		.uleb128 0xb
 2283 00c7 49       		.uleb128 0x49
 2284 00c8 13       		.uleb128 0x13
 2285 00c9 00       		.byte	0
 2286 00ca 00       		.byte	0
 2287 00cb 0F       		.uleb128 0xf
 2288 00cc 21       		.uleb128 0x21
 2289 00cd 00       		.byte	0
 2290 00ce 49       		.uleb128 0x49
 2291 00cf 13       		.uleb128 0x13
 2292 00d0 2F       		.uleb128 0x2f
 2293 00d1 0B       		.uleb128 0xb
 2294 00d2 00       		.byte	0
 2295 00d3 00       		.byte	0
 2296 00d4 10       		.uleb128 0x10
 2297 00d5 13       		.uleb128 0x13
 2298 00d6 01       		.byte	0x1
 2299 00d7 03       		.uleb128 0x3
 2300 00d8 0E       		.uleb128 0xe
 2301 00d9 0B       		.uleb128 0xb
 2302 00da 0B       		.uleb128 0xb
 2303 00db 3A       		.uleb128 0x3a
 2304 00dc 0B       		.uleb128 0xb
 2305 00dd 3B       		.uleb128 0x3b
 2306 00de 05       		.uleb128 0x5
 2307 00df 39       		.uleb128 0x39
 2308 00e0 0B       		.uleb128 0xb
 2309 00e1 01       		.uleb128 0x1
 2310 00e2 13       		.uleb128 0x13
 2311 00e3 00       		.byte	0
 2312 00e4 00       		.byte	0
 2313 00e5 11       		.uleb128 0x11
 2314 00e6 05       		.uleb128 0x5
 2315 00e7 00       		.byte	0
 2316 00e8 49       		.uleb128 0x49
 2317 00e9 13       		.uleb128 0x13
 2318 00ea 00       		.byte	0
 2319 00eb 00       		.byte	0
 2320 00ec 12       		.uleb128 0x12
 2321 00ed 34       		.uleb128 0x34
 2322 00ee 00       		.byte	0
 2323 00ef 47       		.uleb128 0x47
 2324 00f0 13       		.uleb128 0x13
 2325 00f1 3A       		.uleb128 0x3a
ARM GAS  C:\Users\DEVELO~1\AppData\Local\Temp\ccKDbdyo.s 			page 42


 2326 00f2 21       		.uleb128 0x21
 2327 00f3 01       		.sleb128 1
 2328 00f4 3B       		.uleb128 0x3b
 2329 00f5 0B       		.uleb128 0xb
 2330 00f6 39       		.uleb128 0x39
 2331 00f7 0B       		.uleb128 0xb
 2332 00f8 02       		.uleb128 0x2
 2333 00f9 18       		.uleb128 0x18
 2334 00fa 00       		.byte	0
 2335 00fb 00       		.byte	0
 2336 00fc 13       		.uleb128 0x13
 2337 00fd 1D       		.uleb128 0x1d
 2338 00fe 01       		.byte	0x1
 2339 00ff 31       		.uleb128 0x31
 2340 0100 13       		.uleb128 0x13
 2341 0101 52       		.uleb128 0x52
 2342 0102 01       		.uleb128 0x1
 2343 0103 B842     		.uleb128 0x2138
 2344 0105 0B       		.uleb128 0xb
 2345 0106 11       		.uleb128 0x11
 2346 0107 01       		.uleb128 0x1
 2347 0108 12       		.uleb128 0x12
 2348 0109 06       		.uleb128 0x6
 2349 010a 58       		.uleb128 0x58
 2350 010b 0B       		.uleb128 0xb
 2351 010c 59       		.uleb128 0x59
 2352 010d 05       		.uleb128 0x5
 2353 010e 57       		.uleb128 0x57
 2354 010f 21       		.uleb128 0x21
 2355 0110 03       		.sleb128 3
 2356 0111 00       		.byte	0
 2357 0112 00       		.byte	0
 2358 0113 14       		.uleb128 0x14
 2359 0114 0D       		.uleb128 0xd
 2360 0115 00       		.byte	0
 2361 0116 03       		.uleb128 0x3
 2362 0117 08       		.uleb128 0x8
 2363 0118 3A       		.uleb128 0x3a
 2364 0119 21       		.uleb128 0x21
 2365 011a 10       		.sleb128 16
 2366 011b 3B       		.uleb128 0x3b
 2367 011c 0B       		.uleb128 0xb
 2368 011d 39       		.uleb128 0x39
 2369 011e 21       		.uleb128 0x21
 2370 011f 07       		.sleb128 7
 2371 0120 49       		.uleb128 0x49
 2372 0121 13       		.uleb128 0x13
 2373 0122 00       		.byte	0
 2374 0123 00       		.byte	0
 2375 0124 15       		.uleb128 0x15
 2376 0125 0D       		.uleb128 0xd
 2377 0126 00       		.byte	0
 2378 0127 03       		.uleb128 0x3
 2379 0128 0E       		.uleb128 0xe
 2380 0129 3A       		.uleb128 0x3a
 2381 012a 21       		.uleb128 0x21
 2382 012b 10       		.sleb128 16
ARM GAS  C:\Users\DEVELO~1\AppData\Local\Temp\ccKDbdyo.s 			page 43


 2383 012c 3B       		.uleb128 0x3b
 2384 012d 0B       		.uleb128 0xb
 2385 012e 39       		.uleb128 0x39
 2386 012f 21       		.uleb128 0x21
 2387 0130 19       		.sleb128 25
 2388 0131 49       		.uleb128 0x49
 2389 0132 13       		.uleb128 0x13
 2390 0133 0D       		.uleb128 0xd
 2391 0134 0B       		.uleb128 0xb
 2392 0135 6B       		.uleb128 0x6b
 2393 0136 0B       		.uleb128 0xb
 2394 0137 00       		.byte	0
 2395 0138 00       		.byte	0
 2396 0139 16       		.uleb128 0x16
 2397 013a 1D       		.uleb128 0x1d
 2398 013b 01       		.byte	0x1
 2399 013c 31       		.uleb128 0x31
 2400 013d 13       		.uleb128 0x13
 2401 013e 52       		.uleb128 0x52
 2402 013f 01       		.uleb128 0x1
 2403 0140 B842     		.uleb128 0x2138
 2404 0142 0B       		.uleb128 0xb
 2405 0143 11       		.uleb128 0x11
 2406 0144 01       		.uleb128 0x1
 2407 0145 12       		.uleb128 0x12
 2408 0146 06       		.uleb128 0x6
 2409 0147 58       		.uleb128 0x58
 2410 0148 0B       		.uleb128 0xb
 2411 0149 59       		.uleb128 0x59
 2412 014a 0B       		.uleb128 0xb
 2413 014b 57       		.uleb128 0x57
 2414 014c 0B       		.uleb128 0xb
 2415 014d 01       		.uleb128 0x1
 2416 014e 13       		.uleb128 0x13
 2417 014f 00       		.byte	0
 2418 0150 00       		.byte	0
 2419 0151 17       		.uleb128 0x17
 2420 0152 48       		.uleb128 0x48
 2421 0153 00       		.byte	0
 2422 0154 7D       		.uleb128 0x7d
 2423 0155 01       		.uleb128 0x1
 2424 0156 7F       		.uleb128 0x7f
 2425 0157 13       		.uleb128 0x13
 2426 0158 00       		.byte	0
 2427 0159 00       		.byte	0
 2428 015a 18       		.uleb128 0x18
 2429 015b 2E       		.uleb128 0x2e
 2430 015c 00       		.byte	0
 2431 015d 03       		.uleb128 0x3
 2432 015e 0E       		.uleb128 0xe
 2433 015f 3A       		.uleb128 0x3a
 2434 0160 0B       		.uleb128 0xb
 2435 0161 3B       		.uleb128 0x3b
 2436 0162 05       		.uleb128 0x5
 2437 0163 39       		.uleb128 0x39
 2438 0164 0B       		.uleb128 0xb
 2439 0165 27       		.uleb128 0x27
ARM GAS  C:\Users\DEVELO~1\AppData\Local\Temp\ccKDbdyo.s 			page 44


 2440 0166 19       		.uleb128 0x19
 2441 0167 20       		.uleb128 0x20
 2442 0168 21       		.uleb128 0x21
 2443 0169 03       		.sleb128 3
 2444 016a 00       		.byte	0
 2445 016b 00       		.byte	0
 2446 016c 19       		.uleb128 0x19
 2447 016d 35       		.uleb128 0x35
 2448 016e 00       		.byte	0
 2449 016f 49       		.uleb128 0x49
 2450 0170 13       		.uleb128 0x13
 2451 0171 00       		.byte	0
 2452 0172 00       		.byte	0
 2453 0173 1A       		.uleb128 0x1a
 2454 0174 17       		.uleb128 0x17
 2455 0175 01       		.byte	0x1
 2456 0176 0B       		.uleb128 0xb
 2457 0177 0B       		.uleb128 0xb
 2458 0178 3A       		.uleb128 0x3a
 2459 0179 0B       		.uleb128 0xb
 2460 017a 3B       		.uleb128 0x3b
 2461 017b 0B       		.uleb128 0xb
 2462 017c 39       		.uleb128 0x39
 2463 017d 21       		.uleb128 0x21
 2464 017e 03       		.sleb128 3
 2465 017f 01       		.uleb128 0x1
 2466 0180 13       		.uleb128 0x13
 2467 0181 00       		.byte	0
 2468 0182 00       		.byte	0
 2469 0183 1B       		.uleb128 0x1b
 2470 0184 16       		.uleb128 0x16
 2471 0185 00       		.byte	0
 2472 0186 03       		.uleb128 0x3
 2473 0187 0E       		.uleb128 0xe
 2474 0188 3A       		.uleb128 0x3a
 2475 0189 21       		.uleb128 0x21
 2476 018a 0C       		.sleb128 12
 2477 018b 3B       		.uleb128 0x3b
 2478 018c 05       		.uleb128 0x5
 2479 018d 39       		.uleb128 0x39
 2480 018e 21       		.uleb128 0x21
 2481 018f 03       		.sleb128 3
 2482 0190 49       		.uleb128 0x49
 2483 0191 13       		.uleb128 0x13
 2484 0192 00       		.byte	0
 2485 0193 00       		.byte	0
 2486 0194 1C       		.uleb128 0x1c
 2487 0195 2E       		.uleb128 0x2e
 2488 0196 01       		.byte	0x1
 2489 0197 3F       		.uleb128 0x3f
 2490 0198 19       		.uleb128 0x19
 2491 0199 03       		.uleb128 0x3
 2492 019a 0E       		.uleb128 0xe
 2493 019b 3A       		.uleb128 0x3a
 2494 019c 21       		.uleb128 0x21
 2495 019d 22       		.sleb128 34
 2496 019e 3B       		.uleb128 0x3b
ARM GAS  C:\Users\DEVELO~1\AppData\Local\Temp\ccKDbdyo.s 			page 45


 2497 019f 05       		.uleb128 0x5
 2498 01a0 39       		.uleb128 0x39
 2499 01a1 21       		.uleb128 0x21
 2500 01a2 08       		.sleb128 8
 2501 01a3 27       		.uleb128 0x27
 2502 01a4 19       		.uleb128 0x19
 2503 01a5 3C       		.uleb128 0x3c
 2504 01a6 19       		.uleb128 0x19
 2505 01a7 01       		.uleb128 0x1
 2506 01a8 13       		.uleb128 0x13
 2507 01a9 00       		.byte	0
 2508 01aa 00       		.byte	0
 2509 01ab 1D       		.uleb128 0x1d
 2510 01ac 05       		.uleb128 0x5
 2511 01ad 00       		.byte	0
 2512 01ae 31       		.uleb128 0x31
 2513 01af 13       		.uleb128 0x13
 2514 01b0 02       		.uleb128 0x2
 2515 01b1 17       		.uleb128 0x17
 2516 01b2 B742     		.uleb128 0x2137
 2517 01b4 17       		.uleb128 0x17
 2518 01b5 00       		.byte	0
 2519 01b6 00       		.byte	0
 2520 01b7 1E       		.uleb128 0x1e
 2521 01b8 1D       		.uleb128 0x1d
 2522 01b9 01       		.byte	0x1
 2523 01ba 31       		.uleb128 0x31
 2524 01bb 13       		.uleb128 0x13
 2525 01bc 52       		.uleb128 0x52
 2526 01bd 01       		.uleb128 0x1
 2527 01be B842     		.uleb128 0x2138
 2528 01c0 0B       		.uleb128 0xb
 2529 01c1 11       		.uleb128 0x11
 2530 01c2 01       		.uleb128 0x1
 2531 01c3 12       		.uleb128 0x12
 2532 01c4 06       		.uleb128 0x6
 2533 01c5 58       		.uleb128 0x58
 2534 01c6 21       		.uleb128 0x21
 2535 01c7 02       		.sleb128 2
 2536 01c8 59       		.uleb128 0x59
 2537 01c9 0B       		.uleb128 0xb
 2538 01ca 57       		.uleb128 0x57
 2539 01cb 0B       		.uleb128 0xb
 2540 01cc 00       		.byte	0
 2541 01cd 00       		.byte	0
 2542 01ce 1F       		.uleb128 0x1f
 2543 01cf 2E       		.uleb128 0x2e
 2544 01d0 01       		.byte	0x1
 2545 01d1 3F       		.uleb128 0x3f
 2546 01d2 19       		.uleb128 0x19
 2547 01d3 03       		.uleb128 0x3
 2548 01d4 0E       		.uleb128 0xe
 2549 01d5 3A       		.uleb128 0x3a
 2550 01d6 21       		.uleb128 0x21
 2551 01d7 01       		.sleb128 1
 2552 01d8 3B       		.uleb128 0x3b
 2553 01d9 0B       		.uleb128 0xb
ARM GAS  C:\Users\DEVELO~1\AppData\Local\Temp\ccKDbdyo.s 			page 46


 2554 01da 39       		.uleb128 0x39
 2555 01db 21       		.uleb128 0x21
 2556 01dc 06       		.sleb128 6
 2557 01dd 27       		.uleb128 0x27
 2558 01de 19       		.uleb128 0x19
 2559 01df 11       		.uleb128 0x11
 2560 01e0 01       		.uleb128 0x1
 2561 01e1 12       		.uleb128 0x12
 2562 01e2 06       		.uleb128 0x6
 2563 01e3 40       		.uleb128 0x40
 2564 01e4 18       		.uleb128 0x18
 2565 01e5 7A       		.uleb128 0x7a
 2566 01e6 19       		.uleb128 0x19
 2567 01e7 01       		.uleb128 0x1
 2568 01e8 13       		.uleb128 0x13
 2569 01e9 00       		.byte	0
 2570 01ea 00       		.byte	0
 2571 01eb 20       		.uleb128 0x20
 2572 01ec 34       		.uleb128 0x34
 2573 01ed 00       		.byte	0
 2574 01ee 03       		.uleb128 0x3
 2575 01ef 08       		.uleb128 0x8
 2576 01f0 3A       		.uleb128 0x3a
 2577 01f1 21       		.uleb128 0x21
 2578 01f2 01       		.sleb128 1
 2579 01f3 3B       		.uleb128 0x3b
 2580 01f4 0B       		.uleb128 0xb
 2581 01f5 39       		.uleb128 0x39
 2582 01f6 21       		.uleb128 0x21
 2583 01f7 0C       		.sleb128 12
 2584 01f8 49       		.uleb128 0x49
 2585 01f9 13       		.uleb128 0x13
 2586 01fa 02       		.uleb128 0x2
 2587 01fb 17       		.uleb128 0x17
 2588 01fc B742     		.uleb128 0x2137
 2589 01fe 17       		.uleb128 0x17
 2590 01ff 00       		.byte	0
 2591 0200 00       		.byte	0
 2592 0201 21       		.uleb128 0x21
 2593 0202 2E       		.uleb128 0x2e
 2594 0203 00       		.byte	0
 2595 0204 03       		.uleb128 0x3
 2596 0205 0E       		.uleb128 0xe
 2597 0206 3A       		.uleb128 0x3a
 2598 0207 0B       		.uleb128 0xb
 2599 0208 3B       		.uleb128 0x3b
 2600 0209 0B       		.uleb128 0xb
 2601 020a 39       		.uleb128 0x39
 2602 020b 21       		.uleb128 0x21
 2603 020c 19       		.sleb128 25
 2604 020d 27       		.uleb128 0x27
 2605 020e 19       		.uleb128 0x19
 2606 020f 49       		.uleb128 0x49
 2607 0210 13       		.uleb128 0x13
 2608 0211 20       		.uleb128 0x20
 2609 0212 21       		.uleb128 0x21
 2610 0213 03       		.sleb128 3
ARM GAS  C:\Users\DEVELO~1\AppData\Local\Temp\ccKDbdyo.s 			page 47


 2611 0214 00       		.byte	0
 2612 0215 00       		.byte	0
 2613 0216 22       		.uleb128 0x22
 2614 0217 11       		.uleb128 0x11
 2615 0218 01       		.byte	0x1
 2616 0219 25       		.uleb128 0x25
 2617 021a 0E       		.uleb128 0xe
 2618 021b 13       		.uleb128 0x13
 2619 021c 0B       		.uleb128 0xb
 2620 021d 03       		.uleb128 0x3
 2621 021e 0E       		.uleb128 0xe
 2622 021f 1B       		.uleb128 0x1b
 2623 0220 0E       		.uleb128 0xe
 2624 0221 55       		.uleb128 0x55
 2625 0222 17       		.uleb128 0x17
 2626 0223 11       		.uleb128 0x11
 2627 0224 01       		.uleb128 0x1
 2628 0225 10       		.uleb128 0x10
 2629 0226 17       		.uleb128 0x17
 2630 0227 00       		.byte	0
 2631 0228 00       		.byte	0
 2632 0229 23       		.uleb128 0x23
 2633 022a 24       		.uleb128 0x24
 2634 022b 00       		.byte	0
 2635 022c 0B       		.uleb128 0xb
 2636 022d 0B       		.uleb128 0xb
 2637 022e 3E       		.uleb128 0x3e
 2638 022f 0B       		.uleb128 0xb
 2639 0230 03       		.uleb128 0x3
 2640 0231 08       		.uleb128 0x8
 2641 0232 00       		.byte	0
 2642 0233 00       		.byte	0
 2643 0234 24       		.uleb128 0x24
 2644 0235 13       		.uleb128 0x13
 2645 0236 01       		.byte	0x1
 2646 0237 03       		.uleb128 0x3
 2647 0238 0E       		.uleb128 0xe
 2648 0239 0B       		.uleb128 0xb
 2649 023a 05       		.uleb128 0x5
 2650 023b 3A       		.uleb128 0x3a
 2651 023c 0B       		.uleb128 0xb
 2652 023d 3B       		.uleb128 0x3b
 2653 023e 05       		.uleb128 0x5
 2654 023f 39       		.uleb128 0x39
 2655 0240 0B       		.uleb128 0xb
 2656 0241 01       		.uleb128 0x1
 2657 0242 13       		.uleb128 0x13
 2658 0243 00       		.byte	0
 2659 0244 00       		.byte	0
 2660 0245 25       		.uleb128 0x25
 2661 0246 0F       		.uleb128 0xf
 2662 0247 00       		.byte	0
 2663 0248 0B       		.uleb128 0xb
 2664 0249 0B       		.uleb128 0xb
 2665 024a 00       		.byte	0
 2666 024b 00       		.byte	0
 2667 024c 26       		.uleb128 0x26
ARM GAS  C:\Users\DEVELO~1\AppData\Local\Temp\ccKDbdyo.s 			page 48


 2668 024d 13       		.uleb128 0x13
 2669 024e 01       		.byte	0x1
 2670 024f 0B       		.uleb128 0xb
 2671 0250 05       		.uleb128 0x5
 2672 0251 3A       		.uleb128 0x3a
 2673 0252 0B       		.uleb128 0xb
 2674 0253 3B       		.uleb128 0x3b
 2675 0254 0B       		.uleb128 0xb
 2676 0255 39       		.uleb128 0x39
 2677 0256 0B       		.uleb128 0xb
 2678 0257 01       		.uleb128 0x1
 2679 0258 13       		.uleb128 0x13
 2680 0259 00       		.byte	0
 2681 025a 00       		.byte	0
 2682 025b 27       		.uleb128 0x27
 2683 025c 15       		.uleb128 0x15
 2684 025d 01       		.byte	0x1
 2685 025e 27       		.uleb128 0x27
 2686 025f 19       		.uleb128 0x19
 2687 0260 01       		.uleb128 0x1
 2688 0261 13       		.uleb128 0x13
 2689 0262 00       		.byte	0
 2690 0263 00       		.byte	0
 2691 0264 28       		.uleb128 0x28
 2692 0265 17       		.uleb128 0x17
 2693 0266 01       		.byte	0x1
 2694 0267 0B       		.uleb128 0xb
 2695 0268 0B       		.uleb128 0xb
 2696 0269 3A       		.uleb128 0x3a
 2697 026a 0B       		.uleb128 0xb
 2698 026b 3B       		.uleb128 0x3b
 2699 026c 05       		.uleb128 0x5
 2700 026d 39       		.uleb128 0x39
 2701 026e 0B       		.uleb128 0xb
 2702 026f 01       		.uleb128 0x1
 2703 0270 13       		.uleb128 0x13
 2704 0271 00       		.byte	0
 2705 0272 00       		.byte	0
 2706 0273 29       		.uleb128 0x29
 2707 0274 15       		.uleb128 0x15
 2708 0275 00       		.byte	0
 2709 0276 27       		.uleb128 0x27
 2710 0277 19       		.uleb128 0x19
 2711 0278 00       		.byte	0
 2712 0279 00       		.byte	0
 2713 027a 2A       		.uleb128 0x2a
 2714 027b 21       		.uleb128 0x21
 2715 027c 00       		.byte	0
 2716 027d 49       		.uleb128 0x49
 2717 027e 13       		.uleb128 0x13
 2718 027f 2F       		.uleb128 0x2f
 2719 0280 05       		.uleb128 0x5
 2720 0281 00       		.byte	0
 2721 0282 00       		.byte	0
 2722 0283 2B       		.uleb128 0x2b
 2723 0284 34       		.uleb128 0x34
 2724 0285 00       		.byte	0
ARM GAS  C:\Users\DEVELO~1\AppData\Local\Temp\ccKDbdyo.s 			page 49


 2725 0286 03       		.uleb128 0x3
 2726 0287 08       		.uleb128 0x8
 2727 0288 3A       		.uleb128 0x3a
 2728 0289 0B       		.uleb128 0xb
 2729 028a 3B       		.uleb128 0x3b
 2730 028b 0B       		.uleb128 0xb
 2731 028c 39       		.uleb128 0x39
 2732 028d 0B       		.uleb128 0xb
 2733 028e 49       		.uleb128 0x49
 2734 028f 13       		.uleb128 0x13
 2735 0290 3F       		.uleb128 0x3f
 2736 0291 19       		.uleb128 0x19
 2737 0292 3C       		.uleb128 0x3c
 2738 0293 19       		.uleb128 0x19
 2739 0294 00       		.byte	0
 2740 0295 00       		.byte	0
 2741 0296 2C       		.uleb128 0x2c
 2742 0297 34       		.uleb128 0x34
 2743 0298 00       		.byte	0
 2744 0299 03       		.uleb128 0x3
 2745 029a 0E       		.uleb128 0xe
 2746 029b 3A       		.uleb128 0x3a
 2747 029c 0B       		.uleb128 0xb
 2748 029d 3B       		.uleb128 0x3b
 2749 029e 0B       		.uleb128 0xb
 2750 029f 39       		.uleb128 0x39
 2751 02a0 0B       		.uleb128 0xb
 2752 02a1 49       		.uleb128 0x49
 2753 02a2 13       		.uleb128 0x13
 2754 02a3 3F       		.uleb128 0x3f
 2755 02a4 19       		.uleb128 0x19
 2756 02a5 02       		.uleb128 0x2
 2757 02a6 18       		.uleb128 0x18
 2758 02a7 00       		.byte	0
 2759 02a8 00       		.byte	0
 2760 02a9 2D       		.uleb128 0x2d
 2761 02aa 2E       		.uleb128 0x2e
 2762 02ab 00       		.byte	0
 2763 02ac 3F       		.uleb128 0x3f
 2764 02ad 19       		.uleb128 0x19
 2765 02ae 03       		.uleb128 0x3
 2766 02af 0E       		.uleb128 0xe
 2767 02b0 3A       		.uleb128 0x3a
 2768 02b1 0B       		.uleb128 0xb
 2769 02b2 3B       		.uleb128 0x3b
 2770 02b3 0B       		.uleb128 0xb
 2771 02b4 39       		.uleb128 0x39
 2772 02b5 0B       		.uleb128 0xb
 2773 02b6 27       		.uleb128 0x27
 2774 02b7 19       		.uleb128 0x19
 2775 02b8 49       		.uleb128 0x49
 2776 02b9 13       		.uleb128 0x13
 2777 02ba 3C       		.uleb128 0x3c
 2778 02bb 19       		.uleb128 0x19
 2779 02bc 00       		.byte	0
 2780 02bd 00       		.byte	0
 2781 02be 2E       		.uleb128 0x2e
ARM GAS  C:\Users\DEVELO~1\AppData\Local\Temp\ccKDbdyo.s 			page 50


 2782 02bf 2E       		.uleb128 0x2e
 2783 02c0 01       		.byte	0x1
 2784 02c1 3F       		.uleb128 0x3f
 2785 02c2 19       		.uleb128 0x19
 2786 02c3 03       		.uleb128 0x3
 2787 02c4 0E       		.uleb128 0xe
 2788 02c5 3A       		.uleb128 0x3a
 2789 02c6 0B       		.uleb128 0xb
 2790 02c7 3B       		.uleb128 0x3b
 2791 02c8 05       		.uleb128 0x5
 2792 02c9 39       		.uleb128 0x39
 2793 02ca 0B       		.uleb128 0xb
 2794 02cb 27       		.uleb128 0x27
 2795 02cc 19       		.uleb128 0x19
 2796 02cd 49       		.uleb128 0x49
 2797 02ce 13       		.uleb128 0x13
 2798 02cf 3C       		.uleb128 0x3c
 2799 02d0 19       		.uleb128 0x19
 2800 02d1 01       		.uleb128 0x1
 2801 02d2 13       		.uleb128 0x13
 2802 02d3 00       		.byte	0
 2803 02d4 00       		.byte	0
 2804 02d5 2F       		.uleb128 0x2f
 2805 02d6 2E       		.uleb128 0x2e
 2806 02d7 01       		.byte	0x1
 2807 02d8 3F       		.uleb128 0x3f
 2808 02d9 19       		.uleb128 0x19
 2809 02da 03       		.uleb128 0x3
 2810 02db 0E       		.uleb128 0xe
 2811 02dc 3A       		.uleb128 0x3a
 2812 02dd 0B       		.uleb128 0xb
 2813 02de 3B       		.uleb128 0x3b
 2814 02df 0B       		.uleb128 0xb
 2815 02e0 39       		.uleb128 0x39
 2816 02e1 0B       		.uleb128 0xb
 2817 02e2 27       		.uleb128 0x27
 2818 02e3 19       		.uleb128 0x19
 2819 02e4 49       		.uleb128 0x49
 2820 02e5 13       		.uleb128 0x13
 2821 02e6 11       		.uleb128 0x11
 2822 02e7 01       		.uleb128 0x1
 2823 02e8 12       		.uleb128 0x12
 2824 02e9 06       		.uleb128 0x6
 2825 02ea 40       		.uleb128 0x40
 2826 02eb 18       		.uleb128 0x18
 2827 02ec 7A       		.uleb128 0x7a
 2828 02ed 19       		.uleb128 0x19
 2829 02ee 01       		.uleb128 0x1
 2830 02ef 13       		.uleb128 0x13
 2831 02f0 00       		.byte	0
 2832 02f1 00       		.byte	0
 2833 02f2 30       		.uleb128 0x30
 2834 02f3 34       		.uleb128 0x34
 2835 02f4 00       		.byte	0
 2836 02f5 31       		.uleb128 0x31
 2837 02f6 13       		.uleb128 0x13
 2838 02f7 02       		.uleb128 0x2
ARM GAS  C:\Users\DEVELO~1\AppData\Local\Temp\ccKDbdyo.s 			page 51


 2839 02f8 17       		.uleb128 0x17
 2840 02f9 B742     		.uleb128 0x2137
 2841 02fb 17       		.uleb128 0x17
 2842 02fc 00       		.byte	0
 2843 02fd 00       		.byte	0
 2844 02fe 31       		.uleb128 0x31
 2845 02ff 48       		.uleb128 0x48
 2846 0300 01       		.byte	0x1
 2847 0301 7D       		.uleb128 0x7d
 2848 0302 01       		.uleb128 0x1
 2849 0303 7F       		.uleb128 0x7f
 2850 0304 13       		.uleb128 0x13
 2851 0305 00       		.byte	0
 2852 0306 00       		.byte	0
 2853 0307 32       		.uleb128 0x32
 2854 0308 49       		.uleb128 0x49
 2855 0309 00       		.byte	0
 2856 030a 02       		.uleb128 0x2
 2857 030b 18       		.uleb128 0x18
 2858 030c 7E       		.uleb128 0x7e
 2859 030d 18       		.uleb128 0x18
 2860 030e 00       		.byte	0
 2861 030f 00       		.byte	0
 2862 0310 33       		.uleb128 0x33
 2863 0311 2E       		.uleb128 0x2e
 2864 0312 01       		.byte	0x1
 2865 0313 03       		.uleb128 0x3
 2866 0314 0E       		.uleb128 0xe
 2867 0315 3A       		.uleb128 0x3a
 2868 0316 0B       		.uleb128 0xb
 2869 0317 3B       		.uleb128 0x3b
 2870 0318 0B       		.uleb128 0xb
 2871 0319 39       		.uleb128 0x39
 2872 031a 0B       		.uleb128 0xb
 2873 031b 27       		.uleb128 0x27
 2874 031c 19       		.uleb128 0x19
 2875 031d 49       		.uleb128 0x49
 2876 031e 13       		.uleb128 0x13
 2877 031f 20       		.uleb128 0x20
 2878 0320 0B       		.uleb128 0xb
 2879 0321 01       		.uleb128 0x1
 2880 0322 13       		.uleb128 0x13
 2881 0323 00       		.byte	0
 2882 0324 00       		.byte	0
 2883 0325 34       		.uleb128 0x34
 2884 0326 34       		.uleb128 0x34
 2885 0327 00       		.byte	0
 2886 0328 03       		.uleb128 0x3
 2887 0329 0E       		.uleb128 0xe
 2888 032a 3A       		.uleb128 0x3a
 2889 032b 0B       		.uleb128 0xb
 2890 032c 3B       		.uleb128 0x3b
 2891 032d 0B       		.uleb128 0xb
 2892 032e 39       		.uleb128 0x39
 2893 032f 0B       		.uleb128 0xb
 2894 0330 49       		.uleb128 0x49
 2895 0331 13       		.uleb128 0x13
ARM GAS  C:\Users\DEVELO~1\AppData\Local\Temp\ccKDbdyo.s 			page 52


 2896 0332 00       		.byte	0
 2897 0333 00       		.byte	0
 2898 0334 35       		.uleb128 0x35
 2899 0335 2E       		.uleb128 0x2e
 2900 0336 01       		.byte	0x1
 2901 0337 03       		.uleb128 0x3
 2902 0338 0E       		.uleb128 0xe
 2903 0339 3A       		.uleb128 0x3a
 2904 033a 0B       		.uleb128 0xb
 2905 033b 3B       		.uleb128 0x3b
 2906 033c 05       		.uleb128 0x5
 2907 033d 39       		.uleb128 0x39
 2908 033e 0B       		.uleb128 0xb
 2909 033f 27       		.uleb128 0x27
 2910 0340 19       		.uleb128 0x19
 2911 0341 20       		.uleb128 0x20
 2912 0342 0B       		.uleb128 0xb
 2913 0343 01       		.uleb128 0x1
 2914 0344 13       		.uleb128 0x13
 2915 0345 00       		.byte	0
 2916 0346 00       		.byte	0
 2917 0347 36       		.uleb128 0x36
 2918 0348 34       		.uleb128 0x34
 2919 0349 00       		.byte	0
 2920 034a 03       		.uleb128 0x3
 2921 034b 0E       		.uleb128 0xe
 2922 034c 49       		.uleb128 0x49
 2923 034d 13       		.uleb128 0x13
 2924 034e 34       		.uleb128 0x34
 2925 034f 19       		.uleb128 0x19
 2926 0350 00       		.byte	0
 2927 0351 00       		.byte	0
 2928 0352 37       		.uleb128 0x37
 2929 0353 2E       		.uleb128 0x2e
 2930 0354 01       		.byte	0x1
 2931 0355 03       		.uleb128 0x3
 2932 0356 0E       		.uleb128 0xe
 2933 0357 3A       		.uleb128 0x3a
 2934 0358 0B       		.uleb128 0xb
 2935 0359 3B       		.uleb128 0x3b
 2936 035a 05       		.uleb128 0x5
 2937 035b 39       		.uleb128 0x39
 2938 035c 0B       		.uleb128 0xb
 2939 035d 27       		.uleb128 0x27
 2940 035e 19       		.uleb128 0x19
 2941 035f 20       		.uleb128 0x20
 2942 0360 0B       		.uleb128 0xb
 2943 0361 00       		.byte	0
 2944 0362 00       		.byte	0
 2945 0363 38       		.uleb128 0x38
 2946 0364 05       		.uleb128 0x5
 2947 0365 00       		.byte	0
 2948 0366 03       		.uleb128 0x3
 2949 0367 0E       		.uleb128 0xe
 2950 0368 3A       		.uleb128 0x3a
 2951 0369 0B       		.uleb128 0xb
 2952 036a 3B       		.uleb128 0x3b
ARM GAS  C:\Users\DEVELO~1\AppData\Local\Temp\ccKDbdyo.s 			page 53


 2953 036b 05       		.uleb128 0x5
 2954 036c 39       		.uleb128 0x39
 2955 036d 0B       		.uleb128 0xb
 2956 036e 49       		.uleb128 0x49
 2957 036f 13       		.uleb128 0x13
 2958 0370 00       		.byte	0
 2959 0371 00       		.byte	0
 2960 0372 00       		.byte	0
 2961              		.section	.debug_loclists,"",%progbits
 2962 0000 44000000 		.4byte	.Ldebug_loc3-.Ldebug_loc2
 2963              	.Ldebug_loc2:
 2964 0004 0500     		.2byte	0x5
 2965 0006 04       		.byte	0x4
 2966 0007 00       		.byte	0
 2967 0008 00000000 		.4byte	0
 2968              	.Ldebug_loc0:
 2969              	.LVUS2:
 2970 000c 00       		.uleb128 .LVU52
 2971 000d 00       		.uleb128 0
 2972              	.LLST2:
 2973 000e 08       		.byte	0x8
 2974 000f 12000000 		.4byte	.LVL8
 2975 0013 08       		.uleb128 .LFE454-.LVL8
 2976 0014 01       		.uleb128 0x1
 2977 0015 50       		.byte	0x50
 2978 0016 00       		.byte	0
 2979              	.LVUS3:
 2980 0017 08       		.uleb128 .LVU41
 2981 0018 00       		.uleb128 .LVU43
 2982              	.LLST3:
 2983 0019 08       		.byte	0x8
 2984 001a 08000000 		.4byte	.LVL6
 2985 001e 06       		.uleb128 .LVL7-.LVL6
 2986 001f 03       		.uleb128 0x3
 2987 0020 08       		.byte	0x8
 2988 0021 30       		.byte	0x30
 2989 0022 9F       		.byte	0x9f
 2990 0023 00       		.byte	0
 2991              	.LVUS4:
 2992 0024 0B       		.uleb128 .LVU63
 2993 0025 00       		.uleb128 .LVU65
 2994              	.LLST4:
 2995 0026 08       		.byte	0x8
 2996 0027 12000000 		.4byte	.LVL8
 2997 002b 06       		.uleb128 .LVL9-.LVL8
 2998 002c 02       		.uleb128 0x2
 2999 002d 30       		.byte	0x30
 3000 002e 9F       		.byte	0x9f
 3001 002f 00       		.byte	0
 3002              	.LVUS1:
 3003 0030 03       		.uleb128 .LVU16
 3004 0031 00       		.uleb128 .LVU19
 3005              	.LLST1:
 3006 0032 08       		.byte	0x8
 3007 0033 00000000 		.4byte	.LVL3
 3008 0037 0A       		.uleb128 .LVL4-.LVL3
 3009 0038 02       		.uleb128 0x2
ARM GAS  C:\Users\DEVELO~1\AppData\Local\Temp\ccKDbdyo.s 			page 54


 3010 0039 30       		.byte	0x30
 3011 003a 9F       		.byte	0x9f
 3012 003b 00       		.byte	0
 3013              	.LVUS0:
 3014 003c 03       		.uleb128 .LVU3
 3015 003d 00       		.uleb128 .LVU5
 3016              	.LLST0:
 3017 003e 08       		.byte	0x8
 3018 003f 00000000 		.4byte	.LVL0
 3019 0043 08       		.uleb128 .LVL1-.LVL0
 3020 0044 02       		.uleb128 0x2
 3021 0045 30       		.byte	0x30
 3022 0046 9F       		.byte	0x9f
 3023 0047 00       		.byte	0
 3024              	.Ldebug_loc3:
 3025              		.section	.debug_aranges,"",%progbits
 3026 0000 2C000000 		.4byte	0x2c
 3027 0004 0200     		.2byte	0x2
 3028 0006 00000000 		.4byte	.Ldebug_info0
 3029 000a 04       		.byte	0x4
 3030 000b 00       		.byte	0
 3031 000c 0000     		.2byte	0
 3032 000e 0000     		.2byte	0
 3033 0010 00000000 		.4byte	.LFB452
 3034 0014 1C000000 		.4byte	.LFE452-.LFB452
 3035 0018 00000000 		.4byte	.LFB453
 3036 001c 24000000 		.4byte	.LFE453-.LFB453
 3037 0020 00000000 		.4byte	.LFB454
 3038 0024 1A000000 		.4byte	.LFE454-.LFB454
 3039 0028 00000000 		.4byte	0
 3040 002c 00000000 		.4byte	0
 3041              		.section	.debug_rnglists,"",%progbits
 3042              	.Ldebug_ranges0:
 3043 0000 1B000000 		.4byte	.Ldebug_ranges3-.Ldebug_ranges2
 3044              	.Ldebug_ranges2:
 3045 0004 0500     		.2byte	0x5
 3046 0006 04       		.byte	0x4
 3047 0007 00       		.byte	0
 3048 0008 00000000 		.4byte	0
 3049              	.LLRL5:
 3050 000c 07       		.byte	0x7
 3051 000d 00000000 		.4byte	.LFB452
 3052 0011 1C       		.uleb128 .LFE452-.LFB452
 3053 0012 07       		.byte	0x7
 3054 0013 00000000 		.4byte	.LFB453
 3055 0017 24       		.uleb128 .LFE453-.LFB453
 3056 0018 07       		.byte	0x7
 3057 0019 00000000 		.4byte	.LFB454
 3058 001d 1A       		.uleb128 .LFE454-.LFB454
 3059 001e 00       		.byte	0
 3060              	.Ldebug_ranges3:
 3061              		.section	.debug_line,"",%progbits
 3062              	.Ldebug_line0:
 3063 0000 DB050000 		.section	.debug_str,"MS",%progbits,1
 3063      03009004 
 3063      00000201 
 3063      FB0E0D00 
ARM GAS  C:\Users\DEVELO~1\AppData\Local\Temp\ccKDbdyo.s 			page 55


 3063      01010101 
 3064              	.LASF119:
 3065 0000 72656164 		.ascii	"ready_list_t\000"
 3065      795F6C69 
 3065      73745F74 
 3065      00
 3066              	.LASF4:
 3067 000d 73697A65 		.ascii	"size_t\000"
 3067      5F7400
 3068              	.LASF108:
 3069 0014 7264796D 		.ascii	"rdymsg\000"
 3069      736700
 3070              	.LASF54:
 3071 001b 72666375 		.ascii	"rfcu\000"
 3071      00
 3072              	.LASF5:
 3073 0020 5F5F7569 		.ascii	"__uint8_t\000"
 3073      6E74385F 
 3073      7400
 3074              	.LASF88:
 3075 002a 70726576 		.ascii	"prev\000"
 3075      00
 3076              	.LASF81:
 3077 002f 706F7274 		.ascii	"port_intctx\000"
 3077      5F696E74 
 3077      63747800 
 3078              	.LASF51:
 3079 003b 76746C69 		.ascii	"vtlist\000"
 3079      737400
 3080              	.LASF73:
 3081 0042 74797065 		.ascii	"type\000"
 3081      00
 3082              	.LASF11:
 3083 0047 6C6F6E67 		.ascii	"long int\000"
 3083      20696E74 
 3083      00
 3084              	.LASF76:
 3085 0050 74726163 		.ascii	"trace_event_t\000"
 3085      655F6576 
 3085      656E745F 
 3085      7400
 3086              	.LASF71:
 3087 005e 68616C74 		.ascii	"halt\000"
 3087      00
 3088              	.LASF40:
 3089 0063 64697370 		.ascii	"dispose\000"
 3089      6F736500 
 3090              	.LASF21:
 3091 006b 706F7274 		.ascii	"port_stkline_t\000"
 3091      5F73746B 
 3091      6C696E65 
 3091      5F7400
 3092              	.LASF109:
 3093 007a 65786974 		.ascii	"exitcode\000"
 3093      636F6465 
 3093      00
 3094              	.LASF57:
ARM GAS  C:\Users\DEVELO~1\AppData\Local\Temp\ccKDbdyo.s 			page 56


 3095 0083 6D61696E 		.ascii	"mainthread\000"
 3095      74687265 
 3095      616400
 3096              	.LASF111:
 3097 008e 73656E74 		.ascii	"sentmsg\000"
 3097      6D736700 
 3098              	.LASF94:
 3099 0096 64656C74 		.ascii	"delta\000"
 3099      6100
 3100              	.LASF85:
 3101 009c 6E657874 		.ascii	"next\000"
 3101      00
 3102              	.LASF41:
 3103 00a1 6F626A65 		.ascii	"object\000"
 3103      637400
 3104              	.LASF122:
 3105 00a8 63737461 		.ascii	"cstack_end\000"
 3105      636B5F65 
 3105      6E6400
 3106              	.LASF1:
 3107 00b3 6C6F6E67 		.ascii	"long long int\000"
 3107      206C6F6E 
 3107      6720696E 
 3107      7400
 3108              	.LASF3:
 3109 00c1 7369676E 		.ascii	"signed char\000"
 3109      65642063 
 3109      68617200 
 3110              	.LASF13:
 3111 00cd 6C6F6E67 		.ascii	"long unsigned int\000"
 3111      20756E73 
 3111      69676E65 
 3111      6420696E 
 3111      7400
 3112              	.LASF93:
 3113 00df 63685F64 		.ascii	"ch_delta_list\000"
 3113      656C7461 
 3113      5F6C6973 
 3113      7400
 3114              	.LASF15:
 3115 00ed 6C6F6E67 		.ascii	"long long unsigned int\000"
 3115      206C6F6E 
 3115      6720756E 
 3115      7369676E 
 3115      65642069 
 3116              	.LASF172:
 3117 0104 62617365 		.ascii	"basePri\000"
 3117      50726900 
 3118              	.LASF22:
 3119 010c 73746B6C 		.ascii	"stkline_t\000"
 3119      696E655F 
 3119      7400
 3120              	.LASF35:
 3121 0116 73746174 		.ascii	"state\000"
 3121      6500
 3122              	.LASF133:
 3123 011c 74657374 		.ascii	"testsequence_t\000"
ARM GAS  C:\Users\DEVELO~1\AppData\Local\Temp\ccKDbdyo.s 			page 57


 3123      73657175 
 3123      656E6365 
 3123      5F7400
 3124              	.LASF24:
 3125 012b 74737461 		.ascii	"tstate_t\000"
 3125      74655F74 
 3125      00
 3126              	.LASF60:
 3127 0134 63685F72 		.ascii	"ch_rfcu\000"
 3127      66637500 
 3128              	.LASF159:
 3129 013c 706F7274 		.ascii	"port_unlock\000"
 3129      5F756E6C 
 3129      6F636B00 
 3130              	.LASF87:
 3131 0148 63685F71 		.ascii	"ch_queue\000"
 3131      75657565 
 3131      00
 3132              	.LASF17:
 3133 0151 75696E74 		.ascii	"uint16_t\000"
 3133      31365F74 
 3133      00
 3134              	.LASF80:
 3135 015a 74726163 		.ascii	"trace_buffer_t\000"
 3135      655F6275 
 3135      66666572 
 3135      5F7400
 3136              	.LASF101:
 3137 0169 63685F72 		.ascii	"ch_registry\000"
 3137      65676973 
 3137      74727900 
 3138              	.LASF153:
 3139 0175 63685468 		.ascii	"chThdTerminate\000"
 3139      64546572 
 3139      6D696E61 
 3139      746500
 3140              	.LASF148:
 3141 0184 72745F74 		.ascii	"rt_test_suite\000"
 3141      6573745F 
 3141      73756974 
 3141      6500
 3142              	.LASF163:
 3143 0192 433A5C43 		.ascii	"C:\\ChibiStudio\\chibios2111\\demos\\STM32\\RT-STM3"
 3143      68696269 
 3143      53747564 
 3143      696F5C63 
 3143      68696269 
 3144 01c0 32483734 		.ascii	"2H743ZI_REV_XY-NUCLEO144 - Copie\000"
 3144      335A495F 
 3144      5245565F 
 3144      58592D4E 
 3144      55434C45 
 3145              	.LASF162:
 3146 01e1 2E2F4368 		.ascii	"./ChibiOS/test/rt/source/test/rt_test_root.c\000"
 3146      6962694F 
 3146      532F7465 
 3146      73742F72 
ARM GAS  C:\Users\DEVELO~1\AppData\Local\Temp\ccKDbdyo.s 			page 58


 3146      742F736F 
 3147              	.LASF12:
 3148 020e 5F5F7569 		.ascii	"__uint32_t\000"
 3148      6E743332 
 3148      5F7400
 3149              	.LASF61:
 3150 0219 6D61736B 		.ascii	"mask\000"
 3150      00
 3151              	.LASF86:
 3152 021e 63685F71 		.ascii	"ch_queue_t\000"
 3152      75657565 
 3152      5F7400
 3153              	.LASF42:
 3154 0229 77616974 		.ascii	"waiting\000"
 3154      696E6700 
 3155              	.LASF123:
 3156 0231 69646C65 		.ascii	"idlestack_base\000"
 3156      73746163 
 3156      6B5F6261 
 3156      736500
 3157              	.LASF126:
 3158 0240 6D757465 		.ascii	"mutex_t\000"
 3158      785F7400 
 3159              	.LASF68:
 3160 0248 73797369 		.ascii	"sysinterval_t\000"
 3160      6E746572 
 3160      76616C5F 
 3160      7400
 3161              	.LASF29:
 3162 0256 636E745F 		.ascii	"cnt_t\000"
 3162      7400
 3163              	.LASF43:
 3164 025c 6D736771 		.ascii	"msgqueue\000"
 3164      75657565 
 3164      00
 3165              	.LASF165:
 3166 0265 63685468 		.ascii	"chThdWait\000"
 3166      64576169 
 3166      7400
 3167              	.LASF112:
 3168 026f 77747365 		.ascii	"wtsemp\000"
 3168      6D7000
 3169              	.LASF66:
 3170 0276 73797374 		.ascii	"system_debug_t\000"
 3170      656D5F64 
 3170      65627567 
 3170      5F7400
 3171              	.LASF110:
 3172 0285 77747472 		.ascii	"wttrp\000"
 3172      7000
 3173              	.LASF39:
 3174 028b 72717565 		.ascii	"rqueue\000"
 3174      756500
 3175              	.LASF129:
 3176 0292 74656172 		.ascii	"teardown\000"
 3176      646F776E 
 3176      00
ARM GAS  C:\Users\DEVELO~1\AppData\Local\Temp\ccKDbdyo.s 			page 59


 3177              	.LASF161:
 3178 029b 474E5520 		.ascii	"GNU C17 11.3.1 20220712 -mcpu=cortex-m7 -mthumb -mf"
 3178      43313720 
 3178      31312E33 
 3178      2E312032 
 3178      30323230 
 3179 02ce 6C6F6174 		.ascii	"loat-abi=soft -march=armv7e-m -ggdb -O2 -fomit-fram"
 3179      2D616269 
 3179      3D736F66 
 3179      74202D6D 
 3179      61726368 
 3180 0301 652D706F 		.ascii	"e-pointer -falign-functions=16 -ffunction-sections "
 3180      696E7465 
 3180      72202D66 
 3180      616C6967 
 3180      6E2D6675 
 3181 0334 2D666461 		.ascii	"-fdata-sections -fno-common\000"
 3181      74612D73 
 3181      65637469 
 3181      6F6E7320 
 3181      2D666E6F 
 3182              	.LASF38:
 3183 0350 6E616D65 		.ascii	"name\000"
 3183      00
 3184              	.LASF105:
 3185 0355 74687265 		.ascii	"thread_dispose_t\000"
 3185      61645F64 
 3185      6973706F 
 3185      73655F74 
 3185      00
 3186              	.LASF102:
 3187 0366 71756575 		.ascii	"queue\000"
 3187      6500
 3188              	.LASF53:
 3189 036c 636F7265 		.ascii	"core_id\000"
 3189      5F696400 
 3190              	.LASF78:
 3191 0374 73697A65 		.ascii	"size\000"
 3191      00
 3192              	.LASF9:
 3193 0379 73686F72 		.ascii	"short unsigned int\000"
 3193      7420756E 
 3193      7369676E 
 3193      65642069 
 3193      6E7400
 3194              	.LASF156:
 3195 038c 63685654 		.ascii	"chVTGetSystemTimeX\000"
 3195      47657453 
 3195      79737465 
 3195      6D54696D 
 3195      655800
 3196              	.LASF48:
 3197 039f 63685F74 		.ascii	"ch_thread\000"
 3197      68726561 
 3197      6400
 3198              	.LASF27:
 3199 03a9 6D73675F 		.ascii	"msg_t\000"
ARM GAS  C:\Users\DEVELO~1\AppData\Local\Temp\ccKDbdyo.s 			page 60


 3199      7400
 3200              	.LASF136:
 3201 03af 72745F74 		.ascii	"rt_test_sequence_001\000"
 3201      6573745F 
 3201      73657175 
 3201      656E6365 
 3201      5F303031 
 3202              	.LASF137:
 3203 03c4 72745F74 		.ascii	"rt_test_sequence_002\000"
 3203      6573745F 
 3203      73657175 
 3203      656E6365 
 3203      5F303032 
 3204              	.LASF44:
 3205 03d9 6570656E 		.ascii	"epending\000"
 3205      64696E67 
 3205      00
 3206              	.LASF139:
 3207 03e2 72745F74 		.ascii	"rt_test_sequence_004\000"
 3207      6573745F 
 3207      73657175 
 3207      656E6365 
 3207      5F303034 
 3208              	.LASF140:
 3209 03f7 72745F74 		.ascii	"rt_test_sequence_005\000"
 3209      6573745F 
 3209      73657175 
 3209      656E6365 
 3209      5F303035 
 3210              	.LASF141:
 3211 040c 72745F74 		.ascii	"rt_test_sequence_006\000"
 3211      6573745F 
 3211      73657175 
 3211      656E6365 
 3211      5F303036 
 3212              	.LASF142:
 3213 0421 72745F74 		.ascii	"rt_test_sequence_007\000"
 3213      6573745F 
 3213      73657175 
 3213      656E6365 
 3213      5F303037 
 3214              	.LASF143:
 3215 0436 72745F74 		.ascii	"rt_test_sequence_008\000"
 3215      6573745F 
 3215      73657175 
 3215      656E6365 
 3215      5F303038 
 3216              	.LASF144:
 3217 044b 72745F74 		.ascii	"rt_test_sequence_009\000"
 3217      6573745F 
 3217      73657175 
 3217      656E6365 
 3217      5F303039 
 3218              	.LASF23:
 3219 0460 746D6F64 		.ascii	"tmode_t\000"
 3219      655F7400 
 3220              	.LASF168:
ARM GAS  C:\Users\DEVELO~1\AppData\Local\Temp\ccKDbdyo.s 			page 61


 3221 0468 73797374 		.ascii	"systime\000"
 3221      696D6500 
 3222              	.LASF84:
 3223 0470 63685F6C 		.ascii	"ch_list\000"
 3223      69737400 
 3224              	.LASF117:
 3225 0478 63685F72 		.ascii	"ch_ready_list\000"
 3225      65616479 
 3225      5F6C6973 
 3225      7400
 3226              	.LASF28:
 3227 0486 6576656E 		.ascii	"eventmask_t\000"
 3227      746D6173 
 3227      6B5F7400 
 3228              	.LASF10:
 3229 0492 5F5F696E 		.ascii	"__int32_t\000"
 3229      7433325F 
 3229      7400
 3230              	.LASF100:
 3231 049c 76697274 		.ascii	"virtual_timers_list_t\000"
 3231      75616C5F 
 3231      74696D65 
 3231      72735F6C 
 3231      6973745F 
 3232              	.LASF131:
 3233 04b2 74657374 		.ascii	"testcase_t\000"
 3233      63617365 
 3233      5F7400
 3234              	.LASF74:
 3235 04bd 72747374 		.ascii	"rtstamp\000"
 3235      616D7000 
 3236              	.LASF151:
 3237 04c5 72745F74 		.ascii	"rt_test_suite_array\000"
 3237      6573745F 
 3237      73756974 
 3237      655F6172 
 3237      72617900 
 3238              	.LASF99:
 3239 04d9 6C617374 		.ascii	"laststamp\000"
 3239      7374616D 
 3239      7000
 3240              	.LASF46:
 3241 04e3 7265616C 		.ascii	"realprio\000"
 3241      7072696F 
 3241      00
 3242              	.LASF59:
 3243 04ec 72666375 		.ascii	"rfcu_mask_t\000"
 3243      5F6D6173 
 3243      6B5F7400 
 3244              	.LASF104:
 3245 04f8 74687265 		.ascii	"thread_reference_t\000"
 3245      61645F72 
 3245      65666572 
 3245      656E6365 
 3245      5F7400
 3246              	.LASF95:
 3247 050b 63685F76 		.ascii	"ch_virtual_timers_list\000"
ARM GAS  C:\Users\DEVELO~1\AppData\Local\Temp\ccKDbdyo.s 			page 62


 3247      69727475 
 3247      616C5F74 
 3247      696D6572 
 3247      735F6C69 
 3248              	.LASF171:
 3249 0522 5F5F7365 		.ascii	"__set_BASEPRI\000"
 3249      745F4241 
 3249      53455052 
 3249      4900
 3250              	.LASF83:
 3251 0530 63685F6C 		.ascii	"ch_list_t\000"
 3251      6973745F 
 3251      7400
 3252              	.LASF149:
 3253 053a 74657374 		.ascii	"test_buffer\000"
 3253      5F627566 
 3253      66657200 
 3254              	.LASF77:
 3255 0546 73757370 		.ascii	"suspended\000"
 3255      656E6465 
 3255      6400
 3256              	.LASF121:
 3257 0550 63737461 		.ascii	"cstack_base\000"
 3257      636B5F62 
 3257      61736500 
 3258              	.LASF20:
 3259 055c 75696E74 		.ascii	"uint64_t\000"
 3259      36345F74 
 3259      00
 3260              	.LASF145:
 3261 0565 72745F74 		.ascii	"rt_test_sequence_010\000"
 3261      6573745F 
 3261      73657175 
 3261      656E6365 
 3261      5F303130 
 3262              	.LASF146:
 3263 057a 72745F74 		.ascii	"rt_test_sequence_011\000"
 3263      6573745F 
 3263      73657175 
 3263      656E6365 
 3263      5F303131 
 3264              	.LASF147:
 3265 058f 72745F74 		.ascii	"rt_test_sequence_012\000"
 3265      6573745F 
 3265      73657175 
 3265      656E6365 
 3265      5F303132 
 3266              	.LASF120:
 3267 05a4 63685F6F 		.ascii	"ch_os_instance_config\000"
 3267      735F696E 
 3267      7374616E 
 3267      63655F63 
 3267      6F6E6669 
 3268              	.LASF82:
 3269 05ba 706F7274 		.ascii	"port_context\000"
 3269      5F636F6E 
 3269      74657874 
ARM GAS  C:\Users\DEVELO~1\AppData\Local\Temp\ccKDbdyo.s 			page 63


 3269      00
 3270              	.LASF135:
 3271 05c7 74657374 		.ascii	"testsuite_t\000"
 3271      73756974 
 3271      655F7400 
 3272              	.LASF128:
 3273 05d3 73657475 		.ascii	"setup\000"
 3273      7000
 3274              	.LASF167:
 3275 05d9 63685654 		.ascii	"chVTGetSystemTime\000"
 3275      47657453 
 3275      79737465 
 3275      6D54696D 
 3275      6500
 3276              	.LASF75:
 3277 05eb 74696D65 		.ascii	"time\000"
 3277      00
 3278              	.LASF91:
 3279 05f0 7072696F 		.ascii	"prio\000"
 3279      00
 3280              	.LASF124:
 3281 05f5 69646C65 		.ascii	"idlestack_end\000"
 3281      73746163 
 3281      6B5F656E 
 3281      6400
 3282              	.LASF118:
 3283 0603 63757272 		.ascii	"current\000"
 3283      656E7400 
 3284              	.LASF14:
 3285 060b 5F5F7569 		.ascii	"__uint64_t\000"
 3285      6E743634 
 3285      5F7400
 3286              	.LASF98:
 3287 0616 6C617374 		.ascii	"lastdelta\000"
 3287      64656C74 
 3287      6100
 3288              	.LASF30:
 3289 0620 636F7265 		.ascii	"core_id_t\000"
 3289      5F69645F 
 3289      7400
 3290              	.LASF25:
 3291 062a 74726566 		.ascii	"trefs_t\000"
 3291      735F7400 
 3292              	.LASF155:
 3293 0632 74657374 		.ascii	"test_terminate_threads\000"
 3293      5F746572 
 3293      6D696E61 
 3293      74655F74 
 3293      68726561 
 3294              	.LASF37:
 3295 0649 72656673 		.ascii	"refs\000"
 3295      00
 3296              	.LASF72:
 3297 064e 75736572 		.ascii	"user\000"
 3297      00
 3298              	.LASF130:
 3299 0653 65786563 		.ascii	"execute\000"
ARM GAS  C:\Users\DEVELO~1\AppData\Local\Temp\ccKDbdyo.s 			page 64


 3299      75746500 
 3300              	.LASF26:
 3301 065b 74707269 		.ascii	"tprio_t\000"
 3301      6F5F7400 
 3302              	.LASF63:
 3303 0663 63685F73 		.ascii	"ch_system_debug\000"
 3303      79737465 
 3303      6D5F6465 
 3303      62756700 
 3304              	.LASF127:
 3305 0673 5F426F6F 		.ascii	"_Bool\000"
 3305      6C00
 3306              	.LASF18:
 3307 0679 696E7433 		.ascii	"int32_t\000"
 3307      325F7400 
 3308              	.LASF6:
 3309 0681 756E7369 		.ascii	"unsigned char\000"
 3309      676E6564 
 3309      20636861 
 3309      7200
 3310              	.LASF0:
 3311 068f 756E7369 		.ascii	"unsigned int\000"
 3311      676E6564 
 3311      20696E74 
 3311      00
 3312              	.LASF62:
 3313 069c 72666375 		.ascii	"rfcu_t\000"
 3313      5F7400
 3314              	.LASF7:
 3315 06a3 73686F72 		.ascii	"short int\000"
 3315      7420696E 
 3315      7400
 3316              	.LASF97:
 3317 06ad 6C617374 		.ascii	"lasttime\000"
 3317      74696D65 
 3317      00
 3318              	.LASF150:
 3319 06b6 74687265 		.ascii	"threads\000"
 3319      61647300 
 3320              	.LASF114:
 3321 06be 65776D61 		.ascii	"ewmask\000"
 3321      736B00
 3322              	.LASF164:
 3323 06c5 73744765 		.ascii	"stGetCounter\000"
 3323      74436F75 
 3323      6E746572 
 3323      00
 3324              	.LASF170:
 3325 06d2 5F5F6675 		.ascii	"__func__\000"
 3325      6E635F5F 
 3325      00
 3326              	.LASF158:
 3327 06db 63685379 		.ascii	"chSysLock\000"
 3327      734C6F63 
 3327      6B00
 3328              	.LASF70:
 3329 06e5 72656173 		.ascii	"reason\000"
ARM GAS  C:\Users\DEVELO~1\AppData\Local\Temp\ccKDbdyo.s 			page 65


 3329      6F6E00
 3330              	.LASF115:
 3331 06ec 63685F73 		.ascii	"ch_semaphore\000"
 3331      656D6170 
 3331      686F7265 
 3331      00
 3332              	.LASF132:
 3333 06f9 63617365 		.ascii	"cases\000"
 3333      7300
 3334              	.LASF103:
 3335 06ff 72656769 		.ascii	"registry_t\000"
 3335      73747279 
 3335      5F7400
 3336              	.LASF19:
 3337 070a 75696E74 		.ascii	"uint32_t\000"
 3337      33325F74 
 3337      00
 3338              	.LASF113:
 3339 0713 77746D74 		.ascii	"wtmtxp\000"
 3339      787000
 3340              	.LASF32:
 3341 071a 6F776E65 		.ascii	"owner\000"
 3341      7200
 3342              	.LASF2:
 3343 0720 6C6F6E67 		.ascii	"long double\000"
 3343      20646F75 
 3343      626C6500 
 3344              	.LASF33:
 3345 072c 77616261 		.ascii	"wabase\000"
 3345      736500
 3346              	.LASF65:
 3347 0733 63686172 		.ascii	"char\000"
 3347      00
 3348              	.LASF55:
 3349 0738 636F6E66 		.ascii	"config\000"
 3349      696700
 3350              	.LASF8:
 3351 073f 5F5F7569 		.ascii	"__uint16_t\000"
 3351      6E743136 
 3351      5F7400
 3352              	.LASF31:
 3353 074a 74687265 		.ascii	"thread_t\000"
 3353      61645F74 
 3353      00
 3354              	.LASF154:
 3355 0753 74657374 		.ascii	"test_wait_threads\000"
 3355      5F776169 
 3355      745F7468 
 3355      72656164 
 3355      7300
 3356              	.LASF96:
 3357 0765 646C6973 		.ascii	"dlist\000"
 3357      7400
 3358              	.LASF67:
 3359 076b 73797374 		.ascii	"systime_t\000"
 3359      696D655F 
 3359      7400
ARM GAS  C:\Users\DEVELO~1\AppData\Local\Temp\ccKDbdyo.s 			page 66


 3360              	.LASF79:
 3361 0775 62756666 		.ascii	"buffer\000"
 3361      657200
 3362              	.LASF89:
 3363 077c 63685F70 		.ascii	"ch_priority_queue_t\000"
 3363      72696F72 
 3363      6974795F 
 3363      71756575 
 3363      655F7400 
 3364              	.LASF64:
 3365 0790 70616E69 		.ascii	"panic_msg\000"
 3365      635F6D73 
 3365      6700
 3366              	.LASF107:
 3367 079a 70717565 		.ascii	"pqueue\000"
 3367      756500
 3368              	.LASF49:
 3369 07a1 63685F6F 		.ascii	"ch_os_instance\000"
 3369      735F696E 
 3369      7374616E 
 3369      636500
 3370              	.LASF47:
 3371 07b0 6F735F69 		.ascii	"os_instance_t\000"
 3371      6E737461 
 3371      6E63655F 
 3371      7400
 3372              	.LASF52:
 3373 07be 7265676C 		.ascii	"reglist\000"
 3373      69737400 
 3374              	.LASF90:
 3375 07c6 63685F70 		.ascii	"ch_priority_queue\000"
 3375      72696F72 
 3375      6974795F 
 3375      71756575 
 3375      6500
 3376              	.LASF157:
 3377 07d8 706F7274 		.ascii	"port_timer_get_time\000"
 3377      5F74696D 
 3377      65725F67 
 3377      65745F74 
 3377      696D6500 
 3378              	.LASF92:
 3379 07ec 63685F64 		.ascii	"ch_delta_list_t\000"
 3379      656C7461 
 3379      5F6C6973 
 3379      745F7400 
 3380              	.LASF134:
 3381 07fc 73657175 		.ascii	"sequences\000"
 3381      656E6365 
 3381      7300
 3382              	.LASF138:
 3383 0806 72745F74 		.ascii	"rt_test_sequence_003\000"
 3383      6573745F 
 3383      73657175 
 3383      656E6365 
 3383      5F303033 
 3384              	.LASF125:
ARM GAS  C:\Users\DEVELO~1\AppData\Local\Temp\ccKDbdyo.s 			page 67


 3385 081b 6F735F69 		.ascii	"os_instance_config_t\000"
 3385      6E737461 
 3385      6E63655F 
 3385      636F6E66 
 3385      69675F74 
 3386              	.LASF152:
 3387 0830 63685468 		.ascii	"chThdSleep\000"
 3387      64536C65 
 3387      657000
 3388              	.LASF34:
 3389 083b 7761656E 		.ascii	"waend\000"
 3389      6400
 3390              	.LASF50:
 3391 0841 726C6973 		.ascii	"rlist\000"
 3391      7400
 3392              	.LASF16:
 3393 0847 75696E74 		.ascii	"uint8_t\000"
 3393      385F7400 
 3394              	.LASF36:
 3395 084f 666C6167 		.ascii	"flags\000"
 3395      7300
 3396              	.LASF116:
 3397 0855 63685F6D 		.ascii	"ch_mutex\000"
 3397      75746578 
 3397      00
 3398              	.LASF69:
 3399 085e 77746F62 		.ascii	"wtobjp\000"
 3399      6A7000
 3400              	.LASF58:
 3401 0865 74726163 		.ascii	"trace_buffer\000"
 3401      655F6275 
 3401      66666572 
 3401      00
 3402              	.LASF169:
 3403 0872 63685379 		.ascii	"chSysUnlock\000"
 3403      73556E6C 
 3403      6F636B00 
 3404              	.LASF106:
 3405 087e 6C697374 		.ascii	"list\000"
 3405      00
 3406              	.LASF160:
 3407 0883 706F7274 		.ascii	"port_lock\000"
 3407      5F6C6F63 
 3407      6B00
 3408              	.LASF45:
 3409 088d 6D74786C 		.ascii	"mtxlist\000"
 3409      69737400 
 3410              	.LASF166:
 3411 0895 74657374 		.ascii	"test_wait_tick\000"
 3411      5F776169 
 3411      745F7469 
 3411      636B00
 3412              	.LASF56:
 3413 08a4 69646C65 		.ascii	"idlethread\000"
 3413      74687265 
 3413      616400
 3414              		.ident	"GCC: (Arm GNU Toolchain 11.3.Rel1) 11.3.1 20220712"
ARM GAS  C:\Users\DEVELO~1\AppData\Local\Temp\ccKDbdyo.s 			page 68


ARM GAS  C:\Users\DEVELO~1\AppData\Local\Temp\ccKDbdyo.s 			page 69


DEFINED SYMBOLS
                            *ABS*:00000000 rt_test_root.c
C:\Users\DEVELO~1\AppData\Local\Temp\ccKDbdyo.s:18     .text.test_terminate_threads:00000000 $t
C:\Users\DEVELO~1\AppData\Local\Temp\ccKDbdyo.s:25     .text.test_terminate_threads:00000000 test_terminate_threads
C:\Users\DEVELO~1\AppData\Local\Temp\ccKDbdyo.s:66     .text.test_terminate_threads:00000018 $d
C:\Users\DEVELO~1\AppData\Local\Temp\ccKDbdyo.s:71     .text.test_wait_threads:00000000 $t
C:\Users\DEVELO~1\AppData\Local\Temp\ccKDbdyo.s:78     .text.test_wait_threads:00000000 test_wait_threads
C:\Users\DEVELO~1\AppData\Local\Temp\ccKDbdyo.s:123    .text.test_wait_threads:00000020 $d
C:\Users\DEVELO~1\AppData\Local\Temp\ccKDbdyo.s:128    .text.test_wait_tick:00000000 $t
C:\Users\DEVELO~1\AppData\Local\Temp\ccKDbdyo.s:135    .text.test_wait_tick:00000000 test_wait_tick
C:\Users\DEVELO~1\AppData\Local\Temp\ccKDbdyo.s:301    .rodata.wa:00000000 wa
C:\Users\DEVELO~1\AppData\Local\Temp\ccKDbdyo.s:270    .bss.threads:00000000 threads
C:\Users\DEVELO~1\AppData\Local\Temp\ccKDbdyo.s:263    .bss.test_buffer:00000000 test_buffer
C:\Users\DEVELO~1\AppData\Local\Temp\ccKDbdyo.s:276    .rodata.rt_test_suite:00000000 rt_test_suite
C:\Users\DEVELO~1\AppData\Local\Temp\ccKDbdyo.s:255    .rodata.str1.4:00000000 $d
C:\Users\DEVELO~1\AppData\Local\Temp\ccKDbdyo.s:283    .rodata.rt_test_suite_array:00000000 rt_test_suite_array
C:\Users\DEVELO~1\AppData\Local\Temp\ccKDbdyo.s:260    .bss.test_buffer:00000000 $d
C:\Users\DEVELO~1\AppData\Local\Temp\ccKDbdyo.s:266    .bss.threads:00000000 $d
C:\Users\DEVELO~1\AppData\Local\Temp\ccKDbdyo.s:273    .rodata.rt_test_suite:00000000 $d
C:\Users\DEVELO~1\AppData\Local\Temp\ccKDbdyo.s:280    .rodata.rt_test_suite_array:00000000 $d
C:\Users\DEVELO~1\AppData\Local\Temp\ccKDbdyo.s:298    .rodata.wa:00000000 $d

UNDEFINED SYMBOLS
chThdTerminate
chThdWait
chThdSleep
stGetCounter
rt_test_sequence_001
rt_test_sequence_002
rt_test_sequence_003
rt_test_sequence_004
rt_test_sequence_005
rt_test_sequence_006
rt_test_sequence_007
rt_test_sequence_008
rt_test_sequence_009
rt_test_sequence_010
rt_test_sequence_011
rt_test_sequence_012
