ARM GAS  C:\Users\DEVELO~1\AppData\Local\Temp\ccinw50r.s 			page 1


   1              		.cpu cortex-m7
   2              		.arch armv7e-m
   3              		.fpu softvfp
   4              		.eabi_attribute 20, 1
   5              		.eabi_attribute 21, 1
   6              		.eabi_attribute 23, 3
   7              		.eabi_attribute 24, 1
   8              		.eabi_attribute 25, 1
   9              		.eabi_attribute 26, 1
  10              		.eabi_attribute 30, 2
  11              		.eabi_attribute 34, 1
  12              		.eabi_attribute 18, 4
  13              		.file	"rt_test_sequence_001.c"
  14              		.text
  15              	.Ltext0:
  16              		.cfi_sections	.debug_frame
  17              		.section	.rodata.rt_test_001_003_execute.str1.4,"aMS",%progbits,1
  18              		.align	2
  19              	.LC0:
  20 0000 2D2D2D20 		.ascii	"--- CH_CFG_ST_RESOLUTION:               \000"
  20      43485F43 
  20      46475F53 
  20      545F5245 
  20      534F4C55 
  21 0029 000000   		.align	2
  22              	.LC1:
  23 002c 257300   		.ascii	"%s\000"
  24 002f 00       		.align	2
  25              	.LC2:
  26 0030 257500   		.ascii	"%u\000"
  27 0033 00       		.align	2
  28              	.LC3:
  29 0034 00       		.ascii	"\000"
  30 0035 000000   		.align	2
  31              	.LC4:
  32 0038 25730D0A 		.ascii	"%s\015\012\000"
  32      00
  33 003d 000000   		.align	2
  34              	.LC5:
  35 0040 2D2D2D20 		.ascii	"--- CH_CFG_ST_FREQUENCY:                \000"
  35      43485F43 
  35      46475F53 
  35      545F4652 
  35      45515545 
  36 0069 000000   		.align	2
  37              	.LC6:
  38 006c 2D2D2D20 		.ascii	"--- CH_CFG_INTERVALS_SIZE:              \000"
  38      43485F43 
  38      46475F49 
  38      4E544552 
  38      56414C53 
  39 0095 000000   		.align	2
  40              	.LC7:
  41 0098 2D2D2D20 		.ascii	"--- CH_CFG_TIME_TYPES_SIZE:             \000"
  41      43485F43 
  41      46475F54 
  41      494D455F 
ARM GAS  C:\Users\DEVELO~1\AppData\Local\Temp\ccinw50r.s 			page 2


  41      54595045 
  42 00c1 000000   		.align	2
  43              	.LC8:
  44 00c4 2D2D2D20 		.ascii	"--- CH_CFG_ST_TIMEDELTA:                \000"
  44      43485F43 
  44      46475F53 
  44      545F5449 
  44      4D454445 
  45 00ed 000000   		.align	2
  46              	.LC9:
  47 00f0 2D2D2D20 		.ascii	"--- CH_CFG_TIME_QUANTUM:                \000"
  47      43485F43 
  47      46475F54 
  47      494D455F 
  47      5155414E 
  48 0119 000000   		.align	2
  49              	.LC10:
  50 011c 2D2D2D20 		.ascii	"--- CH_CFG_MEMCORE_SIZE:                \000"
  50      43485F43 
  50      46475F4D 
  50      454D434F 
  50      52455F53 
  51 0145 000000   		.align	2
  52              	.LC11:
  53 0148 2D2D2D20 		.ascii	"--- CH_CFG_NO_IDLE_THREAD:              \000"
  53      43485F43 
  53      46475F4E 
  53      4F5F4944 
  53      4C455F54 
  54 0171 000000   		.align	2
  55              	.LC12:
  56 0174 2D2D2D20 		.ascii	"--- CH_CFG_OPTIMIZE_SPEED:              \000"
  56      43485F43 
  56      46475F4F 
  56      5054494D 
  56      495A455F 
  57 019d 000000   		.align	2
  58              	.LC13:
  59 01a0 2D2D2D20 		.ascii	"--- CH_CFG_USE_TM:                      \000"
  59      43485F43 
  59      46475F55 
  59      53455F54 
  59      4D3A2020 
  60 01c9 000000   		.align	2
  61              	.LC14:
  62 01cc 2D2D2D20 		.ascii	"--- CH_CFG_USE_REGISTRY:                \000"
  62      43485F43 
  62      46475F55 
  62      53455F52 
  62      45474953 
  63 01f5 000000   		.align	2
  64              	.LC15:
  65 01f8 2D2D2D20 		.ascii	"--- CH_CFG_USE_WAITEXIT:                \000"
  65      43485F43 
  65      46475F55 
  65      53455F57 
  65      41495445 
ARM GAS  C:\Users\DEVELO~1\AppData\Local\Temp\ccinw50r.s 			page 3


  66 0221 000000   		.align	2
  67              	.LC16:
  68 0224 2D2D2D20 		.ascii	"--- CH_CFG_USE_SEMAPHORES:              \000"
  68      43485F43 
  68      46475F55 
  68      53455F53 
  68      454D4150 
  69 024d 000000   		.align	2
  70              	.LC17:
  71 0250 2D2D2D20 		.ascii	"--- CH_CFG_USE_SEMAPHORES_PRIORITY:     \000"
  71      43485F43 
  71      46475F55 
  71      53455F53 
  71      454D4150 
  72 0279 000000   		.align	2
  73              	.LC18:
  74 027c 2D2D2D20 		.ascii	"--- CH_CFG_USE_MUTEXES:                 \000"
  74      43485F43 
  74      46475F55 
  74      53455F4D 
  74      55544558 
  75 02a5 000000   		.align	2
  76              	.LC19:
  77 02a8 2D2D2D20 		.ascii	"--- CH_CFG_USE_MUTEXES_RECURSIVE:       \000"
  77      43485F43 
  77      46475F55 
  77      53455F4D 
  77      55544558 
  78 02d1 000000   		.align	2
  79              	.LC20:
  80 02d4 2D2D2D20 		.ascii	"--- CH_CFG_USE_CONDVARS:                \000"
  80      43485F43 
  80      46475F55 
  80      53455F43 
  80      4F4E4456 
  81 02fd 000000   		.align	2
  82              	.LC21:
  83 0300 2D2D2D20 		.ascii	"--- CH_CFG_USE_CONDVARS_TIMEOUT:        \000"
  83      43485F43 
  83      46475F55 
  83      53455F43 
  83      4F4E4456 
  84 0329 000000   		.align	2
  85              	.LC22:
  86 032c 2D2D2D20 		.ascii	"--- CH_CFG_USE_EVENTS:                  \000"
  86      43485F43 
  86      46475F55 
  86      53455F45 
  86      56454E54 
  87 0355 000000   		.align	2
  88              	.LC23:
  89 0358 2D2D2D20 		.ascii	"--- CH_CFG_USE_EVENTS_TIMEOUT:          \000"
  89      43485F43 
  89      46475F55 
  89      53455F45 
  89      56454E54 
  90 0381 000000   		.align	2
ARM GAS  C:\Users\DEVELO~1\AppData\Local\Temp\ccinw50r.s 			page 4


  91              	.LC24:
  92 0384 2D2D2D20 		.ascii	"--- CH_CFG_USE_MESSAGES:                \000"
  92      43485F43 
  92      46475F55 
  92      53455F4D 
  92      45535341 
  93 03ad 000000   		.align	2
  94              	.LC25:
  95 03b0 2D2D2D20 		.ascii	"--- CH_CFG_USE_MESSAGES_PRIORITY:       \000"
  95      43485F43 
  95      46475F55 
  95      53455F4D 
  95      45535341 
  96 03d9 000000   		.align	2
  97              	.LC26:
  98 03dc 2D2D2D20 		.ascii	"--- CH_CFG_USE_DYNAMIC:                 \000"
  98      43485F43 
  98      46475F55 
  98      53455F44 
  98      594E414D 
  99 0405 000000   		.align	2
 100              	.LC27:
 101 0408 2D2D2D20 		.ascii	"--- CH_DBG_STATISTICS:                  \000"
 101      43485F44 
 101      42475F53 
 101      54415449 
 101      53544943 
 102 0431 000000   		.align	2
 103              	.LC28:
 104 0434 2D2D2D20 		.ascii	"--- CH_DBG_SYSTEM_STATE_CHECK:          \000"
 104      43485F44 
 104      42475F53 
 104      59535445 
 104      4D5F5354 
 105 045d 000000   		.align	2
 106              	.LC29:
 107 0460 2D2D2D20 		.ascii	"--- CH_DBG_ENABLE_CHECKS:               \000"
 107      43485F44 
 107      42475F45 
 107      4E41424C 
 107      455F4348 
 108 0489 000000   		.align	2
 109              	.LC30:
 110 048c 2D2D2D20 		.ascii	"--- CH_DBG_ENABLE_ASSERTS:              \000"
 110      43485F44 
 110      42475F45 
 110      4E41424C 
 110      455F4153 
 111 04b5 000000   		.align	2
 112              	.LC31:
 113 04b8 2D2D2D20 		.ascii	"--- CH_DBG_TRACE_MASK:                  \000"
 113      43485F44 
 113      42475F54 
 113      52414345 
 113      5F4D4153 
 114 04e1 000000   		.align	2
 115              	.LC32:
ARM GAS  C:\Users\DEVELO~1\AppData\Local\Temp\ccinw50r.s 			page 5


 116 04e4 2D2D2D20 		.ascii	"--- CH_DBG_TRACE_BUFFER_SIZE:           \000"
 116      43485F44 
 116      42475F54 
 116      52414345 
 116      5F425546 
 117 050d 000000   		.align	2
 118              	.LC33:
 119 0510 2D2D2D20 		.ascii	"--- CH_DBG_ENABLE_STACK_CHECK:          \000"
 119      43485F44 
 119      42475F45 
 119      4E41424C 
 119      455F5354 
 120 0539 000000   		.align	2
 121              	.LC34:
 122 053c 2D2D2D20 		.ascii	"--- CH_DBG_FILL_THREADS:                \000"
 122      43485F44 
 122      42475F46 
 122      494C4C5F 
 122      54485245 
 123 0565 000000   		.align	2
 124              	.LC35:
 125 0568 2D2D2D20 		.ascii	"--- CH_DBG_THREADS_PROFILING:           \000"
 125      43485F44 
 125      42475F54 
 125      48524541 
 125      44535F50 
 126              		.section	.text.rt_test_001_003_execute,"ax",%progbits
 127              		.align	1
 128              		.p2align 4,,15
 129              		.syntax unified
 130              		.thumb
 131              		.thumb_func
 132              		.type	rt_test_001_003_execute, %function
 133              	rt_test_001_003_execute:
 134              	.LFB454:
 135              		.file 1 "./ChibiOS/test/rt/source/test/rt_test_sequence_001.c"
 136              		.loc 1 160 43 view -0
 137              		.cfi_startproc
 138              		@ args = 0, pretend = 0, frame = 0
 139              		@ frame_needed = 0, uses_anonymous_args = 0
 140              		.loc 1 163 3 view .LVU1
 141              		.loc 1 160 43 is_stmt 0 view .LVU2
 142 0000 2DE9F041 		push	{r4, r5, r6, r7, r8, lr}
 143              		.cfi_def_cfa_offset 24
 144              		.cfi_offset 4, -24
 145              		.cfi_offset 5, -20
 146              		.cfi_offset 6, -16
 147              		.cfi_offset 7, -12
 148              		.cfi_offset 8, -8
 149              		.cfi_offset 14, -4
 150              	.LBB258:
 151              	.LBB259:
 152              		.file 2 "./ChibiOS/os/test/include/ch_test.h"
 153              		.loc 2 371 3 view .LVU3
 154 0004 C54F     		ldr	r7, .L4
 155              	.LBE259:
 156              	.LBE258:
ARM GAS  C:\Users\DEVELO~1\AppData\Local\Temp\ccinw50r.s 			page 6


 157              		.loc 1 163 3 view .LVU4
 158 0006 4FF00108 		mov	r8, #1
 159 000a C54B     		ldr	r3, .L4+4
 160              	.LBB263:
 161              	.LBB264:
 162              		.loc 2 359 3 view .LVU5
 163 000c C54E     		ldr	r6, .L4+8
 164              	.LBE264:
 165              	.LBE263:
 166              	.LBB266:
 167              	.LBB260:
 168              		.loc 2 371 3 view .LVU6
 169 000e 3846     		mov	r0, r7
 170              	.LBE260:
 171              	.LBE266:
 172              	.LBB267:
 173              	.LBB268:
 174              		.loc 2 383 3 view .LVU7
 175 0010 C54D     		ldr	r5, .L4+12
 176 0012 C64C     		ldr	r4, .L4+16
 177              	.LBE268:
 178              	.LBE267:
 179              	.LBB270:
 180              	.LBB261:
 181              		.loc 2 371 3 view .LVU8
 182 0014 C649     		ldr	r1, .L4+20
 183              	.LBE261:
 184              	.LBE270:
 185              		.loc 1 163 3 view .LVU9
 186 0016 C3F80080 		str	r8, [r3]
 187              		.loc 1 165 5 is_stmt 1 view .LVU10
 188              	.LVL0:
 189              	.LBB271:
 190              	.LBI258:
 191              		.loc 2 369 20 view .LVU11
 192              	.LBB262:
 193              		.loc 2 371 3 view .LVU12
 194 001a FFF7FEFF 		bl	test_printf
 195              	.LVL1:
 196              		.loc 2 371 3 is_stmt 0 view .LVU13
 197              	.LBE262:
 198              	.LBE271:
 199              		.loc 1 166 5 is_stmt 1 view .LVU14
 200              	.LBB272:
 201              	.LBI263:
 202              		.loc 2 357 20 view .LVU15
 203              	.LBB265:
 204              		.loc 2 359 3 view .LVU16
 205 001e 2021     		movs	r1, #32
 206 0020 3046     		mov	r0, r6
 207 0022 FFF7FEFF 		bl	test_printf
 208              	.LVL2:
 209              		.loc 2 359 3 is_stmt 0 view .LVU17
 210              	.LBE265:
 211              	.LBE272:
 212              		.loc 1 167 5 is_stmt 1 view .LVU18
 213              	.LBB273:
ARM GAS  C:\Users\DEVELO~1\AppData\Local\Temp\ccinw50r.s 			page 7


 214              	.LBI267:
 215              		.loc 2 381 20 view .LVU19
 216              	.LBB269:
 217              		.loc 2 383 3 view .LVU20
 218 0026 2946     		mov	r1, r5
 219 0028 2046     		mov	r0, r4
 220 002a FFF7FEFF 		bl	test_printf
 221              	.LVL3:
 222              		.loc 2 383 3 is_stmt 0 view .LVU21
 223              	.LBE269:
 224              	.LBE273:
 225              		.loc 1 168 5 is_stmt 1 view .LVU22
 226              	.LBB274:
 227              	.LBI274:
 228              		.loc 2 369 20 view .LVU23
 229              	.LBB275:
 230              		.loc 2 371 3 view .LVU24
 231 002e C149     		ldr	r1, .L4+24
 232 0030 3846     		mov	r0, r7
 233 0032 FFF7FEFF 		bl	test_printf
 234              	.LVL4:
 235              		.loc 2 371 3 is_stmt 0 view .LVU25
 236              	.LBE275:
 237              	.LBE274:
 238              		.loc 1 169 5 is_stmt 1 view .LVU26
 239              	.LBB276:
 240              	.LBI276:
 241              		.loc 2 357 20 view .LVU27
 242              	.LBB277:
 243              		.loc 2 359 3 view .LVU28
 244 0036 42F21071 		movw	r1, #10000
 245 003a 3046     		mov	r0, r6
 246 003c FFF7FEFF 		bl	test_printf
 247              	.LVL5:
 248              		.loc 2 359 3 is_stmt 0 view .LVU29
 249              	.LBE277:
 250              	.LBE276:
 251              		.loc 1 170 5 is_stmt 1 view .LVU30
 252              	.LBB278:
 253              	.LBI278:
 254              		.loc 2 381 20 view .LVU31
 255              	.LBB279:
 256              		.loc 2 383 3 view .LVU32
 257 0040 2946     		mov	r1, r5
 258 0042 2046     		mov	r0, r4
 259 0044 FFF7FEFF 		bl	test_printf
 260              	.LVL6:
 261              		.loc 2 383 3 is_stmt 0 view .LVU33
 262              	.LBE279:
 263              	.LBE278:
 264              		.loc 1 171 5 is_stmt 1 view .LVU34
 265              	.LBB280:
 266              	.LBI280:
 267              		.loc 2 369 20 view .LVU35
 268              	.LBB281:
 269              		.loc 2 371 3 view .LVU36
 270 0048 BB49     		ldr	r1, .L4+28
ARM GAS  C:\Users\DEVELO~1\AppData\Local\Temp\ccinw50r.s 			page 8


 271 004a 3846     		mov	r0, r7
 272 004c FFF7FEFF 		bl	test_printf
 273              	.LVL7:
 274              		.loc 2 371 3 is_stmt 0 view .LVU37
 275              	.LBE281:
 276              	.LBE280:
 277              		.loc 1 172 5 is_stmt 1 view .LVU38
 278              	.LBB282:
 279              	.LBI282:
 280              		.loc 2 357 20 view .LVU39
 281              	.LBB283:
 282              		.loc 2 359 3 view .LVU40
 283 0050 2021     		movs	r1, #32
 284 0052 3046     		mov	r0, r6
 285 0054 FFF7FEFF 		bl	test_printf
 286              	.LVL8:
 287              		.loc 2 359 3 is_stmt 0 view .LVU41
 288              	.LBE283:
 289              	.LBE282:
 290              		.loc 1 173 5 is_stmt 1 view .LVU42
 291              	.LBB284:
 292              	.LBI284:
 293              		.loc 2 381 20 view .LVU43
 294              	.LBB285:
 295              		.loc 2 383 3 view .LVU44
 296 0058 2946     		mov	r1, r5
 297 005a 2046     		mov	r0, r4
 298 005c FFF7FEFF 		bl	test_printf
 299              	.LVL9:
 300              		.loc 2 383 3 is_stmt 0 view .LVU45
 301              	.LBE285:
 302              	.LBE284:
 303              		.loc 1 174 5 is_stmt 1 view .LVU46
 304              	.LBB286:
 305              	.LBI286:
 306              		.loc 2 369 20 view .LVU47
 307              	.LBB287:
 308              		.loc 2 371 3 view .LVU48
 309 0060 B649     		ldr	r1, .L4+32
 310 0062 3846     		mov	r0, r7
 311 0064 FFF7FEFF 		bl	test_printf
 312              	.LVL10:
 313              		.loc 2 371 3 is_stmt 0 view .LVU49
 314              	.LBE287:
 315              	.LBE286:
 316              		.loc 1 175 5 is_stmt 1 view .LVU50
 317              	.LBB288:
 318              	.LBI288:
 319              		.loc 2 357 20 view .LVU51
 320              	.LBB289:
 321              		.loc 2 359 3 view .LVU52
 322 0068 2021     		movs	r1, #32
 323 006a 3046     		mov	r0, r6
 324 006c FFF7FEFF 		bl	test_printf
 325              	.LVL11:
 326              		.loc 2 359 3 is_stmt 0 view .LVU53
 327              	.LBE289:
ARM GAS  C:\Users\DEVELO~1\AppData\Local\Temp\ccinw50r.s 			page 9


 328              	.LBE288:
 329              		.loc 1 176 5 is_stmt 1 view .LVU54
 330              	.LBB290:
 331              	.LBI290:
 332              		.loc 2 381 20 view .LVU55
 333              	.LBB291:
 334              		.loc 2 383 3 view .LVU56
 335 0070 2946     		mov	r1, r5
 336 0072 2046     		mov	r0, r4
 337 0074 FFF7FEFF 		bl	test_printf
 338              	.LVL12:
 339              		.loc 2 383 3 is_stmt 0 view .LVU57
 340              	.LBE291:
 341              	.LBE290:
 342              		.loc 1 177 5 is_stmt 1 view .LVU58
 343              	.LBB292:
 344              	.LBI292:
 345              		.loc 2 369 20 view .LVU59
 346              	.LBB293:
 347              		.loc 2 371 3 view .LVU60
 348 0078 B149     		ldr	r1, .L4+36
 349 007a 3846     		mov	r0, r7
 350 007c FFF7FEFF 		bl	test_printf
 351              	.LVL13:
 352              		.loc 2 371 3 is_stmt 0 view .LVU61
 353              	.LBE293:
 354              	.LBE292:
 355              		.loc 1 178 5 is_stmt 1 view .LVU62
 356              	.LBB294:
 357              	.LBI294:
 358              		.loc 2 357 20 view .LVU63
 359              	.LBB295:
 360              		.loc 2 359 3 view .LVU64
 361 0080 0221     		movs	r1, #2
 362 0082 3046     		mov	r0, r6
 363 0084 FFF7FEFF 		bl	test_printf
 364              	.LVL14:
 365              		.loc 2 359 3 is_stmt 0 view .LVU65
 366              	.LBE295:
 367              	.LBE294:
 368              		.loc 1 179 5 is_stmt 1 view .LVU66
 369              	.LBB296:
 370              	.LBI296:
 371              		.loc 2 381 20 view .LVU67
 372              	.LBB297:
 373              		.loc 2 383 3 view .LVU68
 374 0088 2946     		mov	r1, r5
 375 008a 2046     		mov	r0, r4
 376 008c FFF7FEFF 		bl	test_printf
 377              	.LVL15:
 378              		.loc 2 383 3 is_stmt 0 view .LVU69
 379              	.LBE297:
 380              	.LBE296:
 381              		.loc 1 180 5 is_stmt 1 view .LVU70
 382              	.LBB298:
 383              	.LBI298:
 384              		.loc 2 369 20 view .LVU71
ARM GAS  C:\Users\DEVELO~1\AppData\Local\Temp\ccinw50r.s 			page 10


 385              	.LBB299:
 386              		.loc 2 371 3 view .LVU72
 387 0090 AC49     		ldr	r1, .L4+40
 388 0092 3846     		mov	r0, r7
 389 0094 FFF7FEFF 		bl	test_printf
 390              	.LVL16:
 391              		.loc 2 371 3 is_stmt 0 view .LVU73
 392              	.LBE299:
 393              	.LBE298:
 394              		.loc 1 181 5 is_stmt 1 view .LVU74
 395              	.LBB300:
 396              	.LBI300:
 397              		.loc 2 357 20 view .LVU75
 398              	.LBB301:
 399              		.loc 2 359 3 view .LVU76
 400 0098 0021     		movs	r1, #0
 401 009a 3046     		mov	r0, r6
 402 009c FFF7FEFF 		bl	test_printf
 403              	.LVL17:
 404              		.loc 2 359 3 is_stmt 0 view .LVU77
 405              	.LBE301:
 406              	.LBE300:
 407              		.loc 1 182 5 is_stmt 1 view .LVU78
 408              	.LBB302:
 409              	.LBI302:
 410              		.loc 2 381 20 view .LVU79
 411              	.LBB303:
 412              		.loc 2 383 3 view .LVU80
 413 00a0 2946     		mov	r1, r5
 414 00a2 2046     		mov	r0, r4
 415 00a4 FFF7FEFF 		bl	test_printf
 416              	.LVL18:
 417              		.loc 2 383 3 is_stmt 0 view .LVU81
 418              	.LBE303:
 419              	.LBE302:
 420              		.loc 1 183 5 is_stmt 1 view .LVU82
 421              	.LBB304:
 422              	.LBI304:
 423              		.loc 2 369 20 view .LVU83
 424              	.LBB305:
 425              		.loc 2 371 3 view .LVU84
 426 00a8 A749     		ldr	r1, .L4+44
 427 00aa 3846     		mov	r0, r7
 428 00ac FFF7FEFF 		bl	test_printf
 429              	.LVL19:
 430              		.loc 2 371 3 is_stmt 0 view .LVU85
 431              	.LBE305:
 432              	.LBE304:
 433              		.loc 1 184 5 is_stmt 1 view .LVU86
 434              	.LBB306:
 435              	.LBI306:
 436              		.loc 2 357 20 view .LVU87
 437              	.LBB307:
 438              		.loc 2 359 3 view .LVU88
 439 00b0 0021     		movs	r1, #0
 440 00b2 3046     		mov	r0, r6
 441 00b4 FFF7FEFF 		bl	test_printf
ARM GAS  C:\Users\DEVELO~1\AppData\Local\Temp\ccinw50r.s 			page 11


 442              	.LVL20:
 443              		.loc 2 359 3 is_stmt 0 view .LVU89
 444              	.LBE307:
 445              	.LBE306:
 446              		.loc 1 185 5 is_stmt 1 view .LVU90
 447              	.LBB308:
 448              	.LBI308:
 449              		.loc 2 381 20 view .LVU91
 450              	.LBB309:
 451              		.loc 2 383 3 view .LVU92
 452 00b8 2946     		mov	r1, r5
 453 00ba 2046     		mov	r0, r4
 454 00bc FFF7FEFF 		bl	test_printf
 455              	.LVL21:
 456              		.loc 2 383 3 is_stmt 0 view .LVU93
 457              	.LBE309:
 458              	.LBE308:
 459              		.loc 1 186 5 is_stmt 1 view .LVU94
 460              	.LBB310:
 461              	.LBI310:
 462              		.loc 2 369 20 view .LVU95
 463              	.LBB311:
 464              		.loc 2 371 3 view .LVU96
 465 00c0 A249     		ldr	r1, .L4+48
 466 00c2 3846     		mov	r0, r7
 467 00c4 FFF7FEFF 		bl	test_printf
 468              	.LVL22:
 469              		.loc 2 371 3 is_stmt 0 view .LVU97
 470              	.LBE311:
 471              	.LBE310:
 472              		.loc 1 187 5 is_stmt 1 view .LVU98
 473              	.LBB312:
 474              	.LBI312:
 475              		.loc 2 357 20 view .LVU99
 476              	.LBB313:
 477              		.loc 2 359 3 view .LVU100
 478 00c8 0021     		movs	r1, #0
 479 00ca 3046     		mov	r0, r6
 480 00cc FFF7FEFF 		bl	test_printf
 481              	.LVL23:
 482              		.loc 2 359 3 is_stmt 0 view .LVU101
 483              	.LBE313:
 484              	.LBE312:
 485              		.loc 1 188 5 is_stmt 1 view .LVU102
 486              	.LBB314:
 487              	.LBI314:
 488              		.loc 2 381 20 view .LVU103
 489              	.LBB315:
 490              		.loc 2 383 3 view .LVU104
 491 00d0 2946     		mov	r1, r5
 492 00d2 2046     		mov	r0, r4
 493 00d4 FFF7FEFF 		bl	test_printf
 494              	.LVL24:
 495              		.loc 2 383 3 is_stmt 0 view .LVU105
 496              	.LBE315:
 497              	.LBE314:
 498              		.loc 1 189 5 is_stmt 1 view .LVU106
ARM GAS  C:\Users\DEVELO~1\AppData\Local\Temp\ccinw50r.s 			page 12


 499              	.LBB316:
 500              	.LBI316:
 501              		.loc 2 369 20 view .LVU107
 502              	.LBB317:
 503              		.loc 2 371 3 view .LVU108
 504 00d8 9D49     		ldr	r1, .L4+52
 505 00da 3846     		mov	r0, r7
 506 00dc FFF7FEFF 		bl	test_printf
 507              	.LVL25:
 508              		.loc 2 371 3 is_stmt 0 view .LVU109
 509              	.LBE317:
 510              	.LBE316:
 511              		.loc 1 190 5 is_stmt 1 view .LVU110
 512              	.LBB318:
 513              	.LBI318:
 514              		.loc 2 357 20 view .LVU111
 515              	.LBB319:
 516              		.loc 2 359 3 view .LVU112
 517 00e0 4146     		mov	r1, r8
 518 00e2 3046     		mov	r0, r6
 519 00e4 FFF7FEFF 		bl	test_printf
 520              	.LVL26:
 521              		.loc 2 359 3 is_stmt 0 view .LVU113
 522              	.LBE319:
 523              	.LBE318:
 524              		.loc 1 191 5 is_stmt 1 view .LVU114
 525              	.LBB320:
 526              	.LBI320:
 527              		.loc 2 381 20 view .LVU115
 528              	.LBB321:
 529              		.loc 2 383 3 view .LVU116
 530 00e8 2946     		mov	r1, r5
 531 00ea 2046     		mov	r0, r4
 532 00ec FFF7FEFF 		bl	test_printf
 533              	.LVL27:
 534              		.loc 2 383 3 is_stmt 0 view .LVU117
 535              	.LBE321:
 536              	.LBE320:
 537              		.loc 1 192 5 is_stmt 1 view .LVU118
 538              	.LBB322:
 539              	.LBI322:
 540              		.loc 2 369 20 view .LVU119
 541              	.LBB323:
 542              		.loc 2 371 3 view .LVU120
 543 00f0 9849     		ldr	r1, .L4+56
 544 00f2 3846     		mov	r0, r7
 545 00f4 FFF7FEFF 		bl	test_printf
 546              	.LVL28:
 547              		.loc 2 371 3 is_stmt 0 view .LVU121
 548              	.LBE323:
 549              	.LBE322:
 550              		.loc 1 193 5 is_stmt 1 view .LVU122
 551              	.LBB324:
 552              	.LBI324:
 553              		.loc 2 357 20 view .LVU123
 554              	.LBB325:
 555              		.loc 2 359 3 view .LVU124
ARM GAS  C:\Users\DEVELO~1\AppData\Local\Temp\ccinw50r.s 			page 13


 556 00f8 4146     		mov	r1, r8
 557 00fa 3046     		mov	r0, r6
 558 00fc FFF7FEFF 		bl	test_printf
 559              	.LVL29:
 560              		.loc 2 359 3 is_stmt 0 view .LVU125
 561              	.LBE325:
 562              	.LBE324:
 563              		.loc 1 194 5 is_stmt 1 view .LVU126
 564              	.LBB326:
 565              	.LBI326:
 566              		.loc 2 381 20 view .LVU127
 567              	.LBB327:
 568              		.loc 2 383 3 view .LVU128
 569 0100 2946     		mov	r1, r5
 570 0102 2046     		mov	r0, r4
 571 0104 FFF7FEFF 		bl	test_printf
 572              	.LVL30:
 573              		.loc 2 383 3 is_stmt 0 view .LVU129
 574              	.LBE327:
 575              	.LBE326:
 576              		.loc 1 195 5 is_stmt 1 view .LVU130
 577              	.LBB328:
 578              	.LBI328:
 579              		.loc 2 369 20 view .LVU131
 580              	.LBB329:
 581              		.loc 2 371 3 view .LVU132
 582 0108 9349     		ldr	r1, .L4+60
 583 010a 3846     		mov	r0, r7
 584 010c FFF7FEFF 		bl	test_printf
 585              	.LVL31:
 586              		.loc 2 371 3 is_stmt 0 view .LVU133
 587              	.LBE329:
 588              	.LBE328:
 589              		.loc 1 196 5 is_stmt 1 view .LVU134
 590              	.LBB330:
 591              	.LBI330:
 592              		.loc 2 357 20 view .LVU135
 593              	.LBB331:
 594              		.loc 2 359 3 view .LVU136
 595 0110 4146     		mov	r1, r8
 596 0112 3046     		mov	r0, r6
 597 0114 FFF7FEFF 		bl	test_printf
 598              	.LVL32:
 599              		.loc 2 359 3 is_stmt 0 view .LVU137
 600              	.LBE331:
 601              	.LBE330:
 602              		.loc 1 197 5 is_stmt 1 view .LVU138
 603              	.LBB332:
 604              	.LBI332:
 605              		.loc 2 381 20 view .LVU139
 606              	.LBB333:
 607              		.loc 2 383 3 view .LVU140
 608 0118 2946     		mov	r1, r5
 609 011a 2046     		mov	r0, r4
 610 011c FFF7FEFF 		bl	test_printf
 611              	.LVL33:
 612              		.loc 2 383 3 is_stmt 0 view .LVU141
ARM GAS  C:\Users\DEVELO~1\AppData\Local\Temp\ccinw50r.s 			page 14


 613              	.LBE333:
 614              	.LBE332:
 615              		.loc 1 198 5 is_stmt 1 view .LVU142
 616              	.LBB334:
 617              	.LBI334:
 618              		.loc 2 369 20 view .LVU143
 619              	.LBB335:
 620              		.loc 2 371 3 view .LVU144
 621 0120 8E49     		ldr	r1, .L4+64
 622 0122 3846     		mov	r0, r7
 623 0124 FFF7FEFF 		bl	test_printf
 624              	.LVL34:
 625              		.loc 2 371 3 is_stmt 0 view .LVU145
 626              	.LBE335:
 627              	.LBE334:
 628              		.loc 1 199 5 is_stmt 1 view .LVU146
 629              	.LBB336:
 630              	.LBI336:
 631              		.loc 2 357 20 view .LVU147
 632              	.LBB337:
 633              		.loc 2 359 3 view .LVU148
 634 0128 4146     		mov	r1, r8
 635 012a 3046     		mov	r0, r6
 636 012c FFF7FEFF 		bl	test_printf
 637              	.LVL35:
 638              		.loc 2 359 3 is_stmt 0 view .LVU149
 639              	.LBE337:
 640              	.LBE336:
 641              		.loc 1 200 5 is_stmt 1 view .LVU150
 642              	.LBB338:
 643              	.LBI338:
 644              		.loc 2 381 20 view .LVU151
 645              	.LBB339:
 646              		.loc 2 383 3 view .LVU152
 647 0130 2946     		mov	r1, r5
 648 0132 2046     		mov	r0, r4
 649 0134 FFF7FEFF 		bl	test_printf
 650              	.LVL36:
 651              		.loc 2 383 3 is_stmt 0 view .LVU153
 652              	.LBE339:
 653              	.LBE338:
 654              		.loc 1 201 5 is_stmt 1 view .LVU154
 655              	.LBB340:
 656              	.LBI340:
 657              		.loc 2 369 20 view .LVU155
 658              	.LBB341:
 659              		.loc 2 371 3 view .LVU156
 660 0138 8949     		ldr	r1, .L4+68
 661 013a 3846     		mov	r0, r7
 662 013c FFF7FEFF 		bl	test_printf
 663              	.LVL37:
 664              		.loc 2 371 3 is_stmt 0 view .LVU157
 665              	.LBE341:
 666              	.LBE340:
 667              		.loc 1 202 5 is_stmt 1 view .LVU158
 668              	.LBB342:
 669              	.LBI342:
ARM GAS  C:\Users\DEVELO~1\AppData\Local\Temp\ccinw50r.s 			page 15


 670              		.loc 2 357 20 view .LVU159
 671              	.LBB343:
 672              		.loc 2 359 3 view .LVU160
 673 0140 4146     		mov	r1, r8
 674 0142 3046     		mov	r0, r6
 675 0144 FFF7FEFF 		bl	test_printf
 676              	.LVL38:
 677              		.loc 2 359 3 is_stmt 0 view .LVU161
 678              	.LBE343:
 679              	.LBE342:
 680              		.loc 1 203 5 is_stmt 1 view .LVU162
 681              	.LBB344:
 682              	.LBI344:
 683              		.loc 2 381 20 view .LVU163
 684              	.LBB345:
 685              		.loc 2 383 3 view .LVU164
 686 0148 2946     		mov	r1, r5
 687 014a 2046     		mov	r0, r4
 688 014c FFF7FEFF 		bl	test_printf
 689              	.LVL39:
 690              		.loc 2 383 3 is_stmt 0 view .LVU165
 691              	.LBE345:
 692              	.LBE344:
 693              		.loc 1 204 5 is_stmt 1 view .LVU166
 694              	.LBB346:
 695              	.LBI346:
 696              		.loc 2 369 20 view .LVU167
 697              	.LBB347:
 698              		.loc 2 371 3 view .LVU168
 699 0150 8449     		ldr	r1, .L4+72
 700 0152 3846     		mov	r0, r7
 701 0154 FFF7FEFF 		bl	test_printf
 702              	.LVL40:
 703              		.loc 2 371 3 is_stmt 0 view .LVU169
 704              	.LBE347:
 705              	.LBE346:
 706              		.loc 1 205 5 is_stmt 1 view .LVU170
 707              	.LBB348:
 708              	.LBI348:
 709              		.loc 2 357 20 view .LVU171
 710              	.LBB349:
 711              		.loc 2 359 3 view .LVU172
 712 0158 0021     		movs	r1, #0
 713 015a 3046     		mov	r0, r6
 714 015c FFF7FEFF 		bl	test_printf
 715              	.LVL41:
 716              		.loc 2 359 3 is_stmt 0 view .LVU173
 717              	.LBE349:
 718              	.LBE348:
 719              		.loc 1 206 5 is_stmt 1 view .LVU174
 720              	.LBB350:
 721              	.LBI350:
 722              		.loc 2 381 20 view .LVU175
 723              	.LBB351:
 724              		.loc 2 383 3 view .LVU176
 725 0160 2946     		mov	r1, r5
 726 0162 2046     		mov	r0, r4
ARM GAS  C:\Users\DEVELO~1\AppData\Local\Temp\ccinw50r.s 			page 16


 727 0164 FFF7FEFF 		bl	test_printf
 728              	.LVL42:
 729              		.loc 2 383 3 is_stmt 0 view .LVU177
 730              	.LBE351:
 731              	.LBE350:
 732              		.loc 1 207 5 is_stmt 1 view .LVU178
 733              	.LBB352:
 734              	.LBI352:
 735              		.loc 2 369 20 view .LVU179
 736              	.LBB353:
 737              		.loc 2 371 3 view .LVU180
 738 0168 7F49     		ldr	r1, .L4+76
 739 016a 3846     		mov	r0, r7
 740 016c FFF7FEFF 		bl	test_printf
 741              	.LVL43:
 742              		.loc 2 371 3 is_stmt 0 view .LVU181
 743              	.LBE353:
 744              	.LBE352:
 745              		.loc 1 208 5 is_stmt 1 view .LVU182
 746              	.LBB354:
 747              	.LBI354:
 748              		.loc 2 357 20 view .LVU183
 749              	.LBB355:
 750              		.loc 2 359 3 view .LVU184
 751 0170 4146     		mov	r1, r8
 752 0172 3046     		mov	r0, r6
 753 0174 FFF7FEFF 		bl	test_printf
 754              	.LVL44:
 755              		.loc 2 359 3 is_stmt 0 view .LVU185
 756              	.LBE355:
 757              	.LBE354:
 758              		.loc 1 209 5 is_stmt 1 view .LVU186
 759              	.LBB356:
 760              	.LBI356:
 761              		.loc 2 381 20 view .LVU187
 762              	.LBB357:
 763              		.loc 2 383 3 view .LVU188
 764 0178 2946     		mov	r1, r5
 765 017a 2046     		mov	r0, r4
 766 017c FFF7FEFF 		bl	test_printf
 767              	.LVL45:
 768              		.loc 2 383 3 is_stmt 0 view .LVU189
 769              	.LBE357:
 770              	.LBE356:
 771              		.loc 1 210 5 is_stmt 1 view .LVU190
 772              	.LBB358:
 773              	.LBI358:
 774              		.loc 2 369 20 view .LVU191
 775              	.LBB359:
 776              		.loc 2 371 3 view .LVU192
 777 0180 7A49     		ldr	r1, .L4+80
 778 0182 3846     		mov	r0, r7
 779 0184 FFF7FEFF 		bl	test_printf
 780              	.LVL46:
 781              		.loc 2 371 3 is_stmt 0 view .LVU193
 782              	.LBE359:
 783              	.LBE358:
ARM GAS  C:\Users\DEVELO~1\AppData\Local\Temp\ccinw50r.s 			page 17


 784              		.loc 1 211 5 is_stmt 1 view .LVU194
 785              	.LBB360:
 786              	.LBI360:
 787              		.loc 2 357 20 view .LVU195
 788              	.LBB361:
 789              		.loc 2 359 3 view .LVU196
 790 0188 0021     		movs	r1, #0
 791 018a 3046     		mov	r0, r6
 792 018c FFF7FEFF 		bl	test_printf
 793              	.LVL47:
 794              		.loc 2 359 3 is_stmt 0 view .LVU197
 795              	.LBE361:
 796              	.LBE360:
 797              		.loc 1 212 5 is_stmt 1 view .LVU198
 798              	.LBB362:
 799              	.LBI362:
 800              		.loc 2 381 20 view .LVU199
 801              	.LBB363:
 802              		.loc 2 383 3 view .LVU200
 803 0190 2946     		mov	r1, r5
 804 0192 2046     		mov	r0, r4
 805 0194 FFF7FEFF 		bl	test_printf
 806              	.LVL48:
 807              		.loc 2 383 3 is_stmt 0 view .LVU201
 808              	.LBE363:
 809              	.LBE362:
 810              		.loc 1 213 5 is_stmt 1 view .LVU202
 811              	.LBB364:
 812              	.LBI364:
 813              		.loc 2 369 20 view .LVU203
 814              	.LBB365:
 815              		.loc 2 371 3 view .LVU204
 816 0198 7549     		ldr	r1, .L4+84
 817 019a 3846     		mov	r0, r7
 818 019c FFF7FEFF 		bl	test_printf
 819              	.LVL49:
 820              		.loc 2 371 3 is_stmt 0 view .LVU205
 821              	.LBE365:
 822              	.LBE364:
 823              		.loc 1 214 5 is_stmt 1 view .LVU206
 824              	.LBB366:
 825              	.LBI366:
 826              		.loc 2 357 20 view .LVU207
 827              	.LBB367:
 828              		.loc 2 359 3 view .LVU208
 829 01a0 4146     		mov	r1, r8
 830 01a2 3046     		mov	r0, r6
 831 01a4 FFF7FEFF 		bl	test_printf
 832              	.LVL50:
 833              		.loc 2 359 3 is_stmt 0 view .LVU209
 834              	.LBE367:
 835              	.LBE366:
 836              		.loc 1 215 5 is_stmt 1 view .LVU210
 837              	.LBB368:
 838              	.LBI368:
 839              		.loc 2 381 20 view .LVU211
 840              	.LBB369:
ARM GAS  C:\Users\DEVELO~1\AppData\Local\Temp\ccinw50r.s 			page 18


 841              		.loc 2 383 3 view .LVU212
 842 01a8 2946     		mov	r1, r5
 843 01aa 2046     		mov	r0, r4
 844 01ac FFF7FEFF 		bl	test_printf
 845              	.LVL51:
 846              		.loc 2 383 3 is_stmt 0 view .LVU213
 847              	.LBE369:
 848              	.LBE368:
 849              		.loc 1 216 5 is_stmt 1 view .LVU214
 850              	.LBB370:
 851              	.LBI370:
 852              		.loc 2 369 20 view .LVU215
 853              	.LBB371:
 854              		.loc 2 371 3 view .LVU216
 855 01b0 7049     		ldr	r1, .L4+88
 856 01b2 3846     		mov	r0, r7
 857 01b4 FFF7FEFF 		bl	test_printf
 858              	.LVL52:
 859              		.loc 2 371 3 is_stmt 0 view .LVU217
 860              	.LBE371:
 861              	.LBE370:
 862              		.loc 1 217 5 is_stmt 1 view .LVU218
 863              	.LBB372:
 864              	.LBI372:
 865              		.loc 2 357 20 view .LVU219
 866              	.LBB373:
 867              		.loc 2 359 3 view .LVU220
 868 01b8 4146     		mov	r1, r8
 869 01ba 3046     		mov	r0, r6
 870 01bc FFF7FEFF 		bl	test_printf
 871              	.LVL53:
 872              		.loc 2 359 3 is_stmt 0 view .LVU221
 873              	.LBE373:
 874              	.LBE372:
 875              		.loc 1 218 5 is_stmt 1 view .LVU222
 876              	.LBB374:
 877              	.LBI374:
 878              		.loc 2 381 20 view .LVU223
 879              	.LBB375:
 880              		.loc 2 383 3 view .LVU224
 881 01c0 2946     		mov	r1, r5
 882 01c2 2046     		mov	r0, r4
 883 01c4 FFF7FEFF 		bl	test_printf
 884              	.LVL54:
 885              		.loc 2 383 3 is_stmt 0 view .LVU225
 886              	.LBE375:
 887              	.LBE374:
 888              		.loc 1 219 5 is_stmt 1 view .LVU226
 889              	.LBB376:
 890              	.LBI376:
 891              		.loc 2 369 20 view .LVU227
 892              	.LBB377:
 893              		.loc 2 371 3 view .LVU228
 894 01c8 6B49     		ldr	r1, .L4+92
 895 01ca 3846     		mov	r0, r7
 896 01cc FFF7FEFF 		bl	test_printf
 897              	.LVL55:
ARM GAS  C:\Users\DEVELO~1\AppData\Local\Temp\ccinw50r.s 			page 19


 898              		.loc 2 371 3 is_stmt 0 view .LVU229
 899              	.LBE377:
 900              	.LBE376:
 901              		.loc 1 220 5 is_stmt 1 view .LVU230
 902              	.LBB378:
 903              	.LBI378:
 904              		.loc 2 357 20 view .LVU231
 905              	.LBB379:
 906              		.loc 2 359 3 view .LVU232
 907 01d0 4146     		mov	r1, r8
 908 01d2 3046     		mov	r0, r6
 909 01d4 FFF7FEFF 		bl	test_printf
 910              	.LVL56:
 911              		.loc 2 359 3 is_stmt 0 view .LVU233
 912              	.LBE379:
 913              	.LBE378:
 914              		.loc 1 221 5 is_stmt 1 view .LVU234
 915              	.LBB380:
 916              	.LBI380:
 917              		.loc 2 381 20 view .LVU235
 918              	.LBB381:
 919              		.loc 2 383 3 view .LVU236
 920 01d8 2946     		mov	r1, r5
 921 01da 2046     		mov	r0, r4
 922 01dc FFF7FEFF 		bl	test_printf
 923              	.LVL57:
 924              		.loc 2 383 3 is_stmt 0 view .LVU237
 925              	.LBE381:
 926              	.LBE380:
 927              		.loc 1 222 5 is_stmt 1 view .LVU238
 928              	.LBB382:
 929              	.LBI382:
 930              		.loc 2 369 20 view .LVU239
 931              	.LBB383:
 932              		.loc 2 371 3 view .LVU240
 933 01e0 6649     		ldr	r1, .L4+96
 934 01e2 3846     		mov	r0, r7
 935 01e4 FFF7FEFF 		bl	test_printf
 936              	.LVL58:
 937              		.loc 2 371 3 is_stmt 0 view .LVU241
 938              	.LBE383:
 939              	.LBE382:
 940              		.loc 1 223 5 is_stmt 1 view .LVU242
 941              	.LBB384:
 942              	.LBI384:
 943              		.loc 2 357 20 view .LVU243
 944              	.LBB385:
 945              		.loc 2 359 3 view .LVU244
 946 01e8 4146     		mov	r1, r8
 947 01ea 3046     		mov	r0, r6
 948 01ec FFF7FEFF 		bl	test_printf
 949              	.LVL59:
 950              		.loc 2 359 3 is_stmt 0 view .LVU245
 951              	.LBE385:
 952              	.LBE384:
 953              		.loc 1 224 5 is_stmt 1 view .LVU246
 954              	.LBB386:
ARM GAS  C:\Users\DEVELO~1\AppData\Local\Temp\ccinw50r.s 			page 20


 955              	.LBI386:
 956              		.loc 2 381 20 view .LVU247
 957              	.LBB387:
 958              		.loc 2 383 3 view .LVU248
 959 01f0 2946     		mov	r1, r5
 960 01f2 2046     		mov	r0, r4
 961 01f4 FFF7FEFF 		bl	test_printf
 962              	.LVL60:
 963              		.loc 2 383 3 is_stmt 0 view .LVU249
 964              	.LBE387:
 965              	.LBE386:
 966              		.loc 1 225 5 is_stmt 1 view .LVU250
 967              	.LBB388:
 968              	.LBI388:
 969              		.loc 2 369 20 view .LVU251
 970              	.LBB389:
 971              		.loc 2 371 3 view .LVU252
 972 01f8 6149     		ldr	r1, .L4+100
 973 01fa 3846     		mov	r0, r7
 974 01fc FFF7FEFF 		bl	test_printf
 975              	.LVL61:
 976              		.loc 2 371 3 is_stmt 0 view .LVU253
 977              	.LBE389:
 978              	.LBE388:
 979              		.loc 1 226 5 is_stmt 1 view .LVU254
 980              	.LBB390:
 981              	.LBI390:
 982              		.loc 2 357 20 view .LVU255
 983              	.LBB391:
 984              		.loc 2 359 3 view .LVU256
 985 0200 4146     		mov	r1, r8
 986 0202 3046     		mov	r0, r6
 987 0204 FFF7FEFF 		bl	test_printf
 988              	.LVL62:
 989              		.loc 2 359 3 is_stmt 0 view .LVU257
 990              	.LBE391:
 991              	.LBE390:
 992              		.loc 1 227 5 is_stmt 1 view .LVU258
 993              	.LBB392:
 994              	.LBI392:
 995              		.loc 2 381 20 view .LVU259
 996              	.LBB393:
 997              		.loc 2 383 3 view .LVU260
 998 0208 2946     		mov	r1, r5
 999 020a 2046     		mov	r0, r4
 1000 020c FFF7FEFF 		bl	test_printf
 1001              	.LVL63:
 1002              		.loc 2 383 3 is_stmt 0 view .LVU261
 1003              	.LBE393:
 1004              	.LBE392:
 1005              		.loc 1 228 5 is_stmt 1 view .LVU262
 1006              	.LBB394:
 1007              	.LBI394:
 1008              		.loc 2 369 20 view .LVU263
 1009              	.LBB395:
 1010              		.loc 2 371 3 view .LVU264
 1011 0210 5C49     		ldr	r1, .L4+104
ARM GAS  C:\Users\DEVELO~1\AppData\Local\Temp\ccinw50r.s 			page 21


 1012 0212 3846     		mov	r0, r7
 1013 0214 FFF7FEFF 		bl	test_printf
 1014              	.LVL64:
 1015              		.loc 2 371 3 is_stmt 0 view .LVU265
 1016              	.LBE395:
 1017              	.LBE394:
 1018              		.loc 1 229 5 is_stmt 1 view .LVU266
 1019              	.LBB396:
 1020              	.LBI396:
 1021              		.loc 2 357 20 view .LVU267
 1022              	.LBB397:
 1023              		.loc 2 359 3 view .LVU268
 1024 0218 0021     		movs	r1, #0
 1025 021a 3046     		mov	r0, r6
 1026 021c FFF7FEFF 		bl	test_printf
 1027              	.LVL65:
 1028              		.loc 2 359 3 is_stmt 0 view .LVU269
 1029              	.LBE397:
 1030              	.LBE396:
 1031              		.loc 1 230 5 is_stmt 1 view .LVU270
 1032              	.LBB398:
 1033              	.LBI398:
 1034              		.loc 2 381 20 view .LVU271
 1035              	.LBB399:
 1036              		.loc 2 383 3 view .LVU272
 1037 0220 2946     		mov	r1, r5
 1038 0222 2046     		mov	r0, r4
 1039 0224 FFF7FEFF 		bl	test_printf
 1040              	.LVL66:
 1041              		.loc 2 383 3 is_stmt 0 view .LVU273
 1042              	.LBE399:
 1043              	.LBE398:
 1044              		.loc 1 231 5 is_stmt 1 view .LVU274
 1045              	.LBB400:
 1046              	.LBI400:
 1047              		.loc 2 369 20 view .LVU275
 1048              	.LBB401:
 1049              		.loc 2 371 3 view .LVU276
 1050 0228 5749     		ldr	r1, .L4+108
 1051 022a 3846     		mov	r0, r7
 1052 022c FFF7FEFF 		bl	test_printf
 1053              	.LVL67:
 1054              		.loc 2 371 3 is_stmt 0 view .LVU277
 1055              	.LBE401:
 1056              	.LBE400:
 1057              		.loc 1 232 5 is_stmt 1 view .LVU278
 1058              	.LBB402:
 1059              	.LBI402:
 1060              		.loc 2 357 20 view .LVU279
 1061              	.LBB403:
 1062              		.loc 2 359 3 view .LVU280
 1063 0230 4146     		mov	r1, r8
 1064 0232 3046     		mov	r0, r6
 1065 0234 FFF7FEFF 		bl	test_printf
 1066              	.LVL68:
 1067              		.loc 2 359 3 is_stmt 0 view .LVU281
 1068              	.LBE403:
ARM GAS  C:\Users\DEVELO~1\AppData\Local\Temp\ccinw50r.s 			page 22


 1069              	.LBE402:
 1070              		.loc 1 233 5 is_stmt 1 view .LVU282
 1071              	.LBB404:
 1072              	.LBI404:
 1073              		.loc 2 381 20 view .LVU283
 1074              	.LBB405:
 1075              		.loc 2 383 3 view .LVU284
 1076 0238 2946     		mov	r1, r5
 1077 023a 2046     		mov	r0, r4
 1078 023c FFF7FEFF 		bl	test_printf
 1079              	.LVL69:
 1080              		.loc 2 383 3 is_stmt 0 view .LVU285
 1081              	.LBE405:
 1082              	.LBE404:
 1083              		.loc 1 234 5 is_stmt 1 view .LVU286
 1084              	.LBB406:
 1085              	.LBI406:
 1086              		.loc 2 369 20 view .LVU287
 1087              	.LBB407:
 1088              		.loc 2 371 3 view .LVU288
 1089 0240 5249     		ldr	r1, .L4+112
 1090 0242 3846     		mov	r0, r7
 1091 0244 FFF7FEFF 		bl	test_printf
 1092              	.LVL70:
 1093              		.loc 2 371 3 is_stmt 0 view .LVU289
 1094              	.LBE407:
 1095              	.LBE406:
 1096              		.loc 1 235 5 is_stmt 1 view .LVU290
 1097              	.LBB408:
 1098              	.LBI408:
 1099              		.loc 2 357 20 view .LVU291
 1100              	.LBB409:
 1101              		.loc 2 359 3 view .LVU292
 1102 0248 0021     		movs	r1, #0
 1103 024a 3046     		mov	r0, r6
 1104 024c FFF7FEFF 		bl	test_printf
 1105              	.LVL71:
 1106              		.loc 2 359 3 is_stmt 0 view .LVU293
 1107              	.LBE409:
 1108              	.LBE408:
 1109              		.loc 1 236 5 is_stmt 1 view .LVU294
 1110              	.LBB410:
 1111              	.LBI410:
 1112              		.loc 2 381 20 view .LVU295
 1113              	.LBB411:
 1114              		.loc 2 383 3 view .LVU296
 1115 0250 2946     		mov	r1, r5
 1116 0252 2046     		mov	r0, r4
 1117 0254 FFF7FEFF 		bl	test_printf
 1118              	.LVL72:
 1119              		.loc 2 383 3 is_stmt 0 view .LVU297
 1120              	.LBE411:
 1121              	.LBE410:
 1122              		.loc 1 237 5 is_stmt 1 view .LVU298
 1123              	.LBB412:
 1124              	.LBI412:
 1125              		.loc 2 369 20 view .LVU299
ARM GAS  C:\Users\DEVELO~1\AppData\Local\Temp\ccinw50r.s 			page 23


 1126              	.LBB413:
 1127              		.loc 2 371 3 view .LVU300
 1128 0258 4D49     		ldr	r1, .L4+116
 1129 025a 3846     		mov	r0, r7
 1130 025c FFF7FEFF 		bl	test_printf
 1131              	.LVL73:
 1132              		.loc 2 371 3 is_stmt 0 view .LVU301
 1133              	.LBE413:
 1134              	.LBE412:
 1135              		.loc 1 238 5 is_stmt 1 view .LVU302
 1136              	.LBB414:
 1137              	.LBI414:
 1138              		.loc 2 357 20 view .LVU303
 1139              	.LBB415:
 1140              		.loc 2 359 3 view .LVU304
 1141 0260 0021     		movs	r1, #0
 1142 0262 3046     		mov	r0, r6
 1143 0264 FFF7FEFF 		bl	test_printf
 1144              	.LVL74:
 1145              		.loc 2 359 3 is_stmt 0 view .LVU305
 1146              	.LBE415:
 1147              	.LBE414:
 1148              		.loc 1 239 5 is_stmt 1 view .LVU306
 1149              	.LBB416:
 1150              	.LBI416:
 1151              		.loc 2 381 20 view .LVU307
 1152              	.LBB417:
 1153              		.loc 2 383 3 view .LVU308
 1154 0268 2946     		mov	r1, r5
 1155 026a 2046     		mov	r0, r4
 1156 026c FFF7FEFF 		bl	test_printf
 1157              	.LVL75:
 1158              		.loc 2 383 3 is_stmt 0 view .LVU309
 1159              	.LBE417:
 1160              	.LBE416:
 1161              		.loc 1 240 5 is_stmt 1 view .LVU310
 1162              	.LBB418:
 1163              	.LBI418:
 1164              		.loc 2 369 20 view .LVU311
 1165              	.LBB419:
 1166              		.loc 2 371 3 view .LVU312
 1167 0270 4849     		ldr	r1, .L4+120
 1168 0272 3846     		mov	r0, r7
 1169 0274 FFF7FEFF 		bl	test_printf
 1170              	.LVL76:
 1171              		.loc 2 371 3 is_stmt 0 view .LVU313
 1172              	.LBE419:
 1173              	.LBE418:
 1174              		.loc 1 241 5 is_stmt 1 view .LVU314
 1175              	.LBB420:
 1176              	.LBI420:
 1177              		.loc 2 357 20 view .LVU315
 1178              	.LBB421:
 1179              		.loc 2 359 3 view .LVU316
 1180 0278 0021     		movs	r1, #0
 1181 027a 3046     		mov	r0, r6
 1182 027c FFF7FEFF 		bl	test_printf
ARM GAS  C:\Users\DEVELO~1\AppData\Local\Temp\ccinw50r.s 			page 24


 1183              	.LVL77:
 1184              		.loc 2 359 3 is_stmt 0 view .LVU317
 1185              	.LBE421:
 1186              	.LBE420:
 1187              		.loc 1 242 5 is_stmt 1 view .LVU318
 1188              	.LBB422:
 1189              	.LBI422:
 1190              		.loc 2 381 20 view .LVU319
 1191              	.LBB423:
 1192              		.loc 2 383 3 view .LVU320
 1193 0280 2946     		mov	r1, r5
 1194 0282 2046     		mov	r0, r4
 1195 0284 FFF7FEFF 		bl	test_printf
 1196              	.LVL78:
 1197              		.loc 2 383 3 is_stmt 0 view .LVU321
 1198              	.LBE423:
 1199              	.LBE422:
 1200              		.loc 1 243 5 is_stmt 1 view .LVU322
 1201              	.LBB424:
 1202              	.LBI424:
 1203              		.loc 2 369 20 view .LVU323
 1204              	.LBB425:
 1205              		.loc 2 371 3 view .LVU324
 1206 0288 4349     		ldr	r1, .L4+124
 1207 028a 3846     		mov	r0, r7
 1208 028c FFF7FEFF 		bl	test_printf
 1209              	.LVL79:
 1210              		.loc 2 371 3 is_stmt 0 view .LVU325
 1211              	.LBE425:
 1212              	.LBE424:
 1213              		.loc 1 244 5 is_stmt 1 view .LVU326
 1214              	.LBB426:
 1215              	.LBI426:
 1216              		.loc 2 357 20 view .LVU327
 1217              	.LBB427:
 1218              		.loc 2 359 3 view .LVU328
 1219 0290 0021     		movs	r1, #0
 1220 0292 3046     		mov	r0, r6
 1221 0294 FFF7FEFF 		bl	test_printf
 1222              	.LVL80:
 1223              		.loc 2 359 3 is_stmt 0 view .LVU329
 1224              	.LBE427:
 1225              	.LBE426:
 1226              		.loc 1 245 5 is_stmt 1 view .LVU330
 1227              	.LBB428:
 1228              	.LBI428:
 1229              		.loc 2 381 20 view .LVU331
 1230              	.LBB429:
 1231              		.loc 2 383 3 view .LVU332
 1232 0298 2946     		mov	r1, r5
 1233 029a 2046     		mov	r0, r4
 1234 029c FFF7FEFF 		bl	test_printf
 1235              	.LVL81:
 1236              		.loc 2 383 3 is_stmt 0 view .LVU333
 1237              	.LBE429:
 1238              	.LBE428:
 1239              		.loc 1 246 5 is_stmt 1 view .LVU334
ARM GAS  C:\Users\DEVELO~1\AppData\Local\Temp\ccinw50r.s 			page 25


 1240              	.LBB430:
 1241              	.LBI430:
 1242              		.loc 2 369 20 view .LVU335
 1243              	.LBB431:
 1244              		.loc 2 371 3 view .LVU336
 1245 02a0 3E49     		ldr	r1, .L4+128
 1246 02a2 3846     		mov	r0, r7
 1247 02a4 FFF7FEFF 		bl	test_printf
 1248              	.LVL82:
 1249              		.loc 2 371 3 is_stmt 0 view .LVU337
 1250              	.LBE431:
 1251              	.LBE430:
 1252              		.loc 1 247 5 is_stmt 1 view .LVU338
 1253              	.LBB432:
 1254              	.LBI432:
 1255              		.loc 2 357 20 view .LVU339
 1256              	.LBB433:
 1257              		.loc 2 359 3 view .LVU340
 1258 02a8 0021     		movs	r1, #0
 1259 02aa 3046     		mov	r0, r6
 1260 02ac FFF7FEFF 		bl	test_printf
 1261              	.LVL83:
 1262              		.loc 2 359 3 is_stmt 0 view .LVU341
 1263              	.LBE433:
 1264              	.LBE432:
 1265              		.loc 1 248 5 is_stmt 1 view .LVU342
 1266              	.LBB434:
 1267              	.LBI434:
 1268              		.loc 2 381 20 view .LVU343
 1269              	.LBB435:
 1270              		.loc 2 383 3 view .LVU344
 1271 02b0 2946     		mov	r1, r5
 1272 02b2 2046     		mov	r0, r4
 1273 02b4 FFF7FEFF 		bl	test_printf
 1274              	.LVL84:
 1275              		.loc 2 383 3 is_stmt 0 view .LVU345
 1276              	.LBE435:
 1277              	.LBE434:
 1278              		.loc 1 249 5 is_stmt 1 view .LVU346
 1279              	.LBB436:
 1280              	.LBI436:
 1281              		.loc 2 369 20 view .LVU347
 1282              	.LBB437:
 1283              		.loc 2 371 3 view .LVU348
 1284 02b8 3949     		ldr	r1, .L4+132
 1285 02ba 3846     		mov	r0, r7
 1286 02bc FFF7FEFF 		bl	test_printf
 1287              	.LVL85:
 1288              		.loc 2 371 3 is_stmt 0 view .LVU349
 1289              	.LBE437:
 1290              	.LBE436:
 1291              		.loc 1 250 5 is_stmt 1 view .LVU350
 1292              	.LBB438:
 1293              	.LBI438:
 1294              		.loc 2 357 20 view .LVU351
 1295              	.LBB439:
 1296              		.loc 2 359 3 view .LVU352
ARM GAS  C:\Users\DEVELO~1\AppData\Local\Temp\ccinw50r.s 			page 26


 1297 02c0 8021     		movs	r1, #128
 1298 02c2 3046     		mov	r0, r6
 1299 02c4 FFF7FEFF 		bl	test_printf
 1300              	.LVL86:
 1301              		.loc 2 359 3 is_stmt 0 view .LVU353
 1302              	.LBE439:
 1303              	.LBE438:
 1304              		.loc 1 251 5 is_stmt 1 view .LVU354
 1305              	.LBB440:
 1306              	.LBI440:
 1307              		.loc 2 381 20 view .LVU355
 1308              	.LBB441:
 1309              		.loc 2 383 3 view .LVU356
 1310 02c8 2946     		mov	r1, r5
 1311 02ca 2046     		mov	r0, r4
 1312 02cc FFF7FEFF 		bl	test_printf
 1313              	.LVL87:
 1314              		.loc 2 383 3 is_stmt 0 view .LVU357
 1315              	.LBE441:
 1316              	.LBE440:
 1317              		.loc 1 252 5 is_stmt 1 view .LVU358
 1318              	.LBB442:
 1319              	.LBI442:
 1320              		.loc 2 369 20 view .LVU359
 1321              	.LBB443:
 1322              		.loc 2 371 3 view .LVU360
 1323 02d0 3449     		ldr	r1, .L4+136
 1324 02d2 3846     		mov	r0, r7
 1325 02d4 FFF7FEFF 		bl	test_printf
 1326              	.LVL88:
 1327              		.loc 2 371 3 is_stmt 0 view .LVU361
 1328              	.LBE443:
 1329              	.LBE442:
 1330              		.loc 1 253 5 is_stmt 1 view .LVU362
 1331              	.LBB444:
 1332              	.LBI444:
 1333              		.loc 2 357 20 view .LVU363
 1334              	.LBB445:
 1335              		.loc 2 359 3 view .LVU364
 1336 02d8 0021     		movs	r1, #0
 1337 02da 3046     		mov	r0, r6
 1338 02dc FFF7FEFF 		bl	test_printf
 1339              	.LVL89:
 1340              		.loc 2 359 3 is_stmt 0 view .LVU365
 1341              	.LBE445:
 1342              	.LBE444:
 1343              		.loc 1 254 5 is_stmt 1 view .LVU366
 1344              	.LBB446:
 1345              	.LBI446:
 1346              		.loc 2 381 20 view .LVU367
 1347              	.LBB447:
 1348              		.loc 2 383 3 view .LVU368
 1349 02e0 2946     		mov	r1, r5
 1350 02e2 2046     		mov	r0, r4
 1351 02e4 FFF7FEFF 		bl	test_printf
 1352              	.LVL90:
 1353              		.loc 2 383 3 is_stmt 0 view .LVU369
ARM GAS  C:\Users\DEVELO~1\AppData\Local\Temp\ccinw50r.s 			page 27


 1354              	.LBE447:
 1355              	.LBE446:
 1356              		.loc 1 255 5 is_stmt 1 view .LVU370
 1357              	.LBB448:
 1358              	.LBI448:
 1359              		.loc 2 369 20 view .LVU371
 1360              	.LBB449:
 1361              		.loc 2 371 3 view .LVU372
 1362 02e8 2F49     		ldr	r1, .L4+140
 1363 02ea 3846     		mov	r0, r7
 1364 02ec FFF7FEFF 		bl	test_printf
 1365              	.LVL91:
 1366              		.loc 2 371 3 is_stmt 0 view .LVU373
 1367              	.LBE449:
 1368              	.LBE448:
 1369              		.loc 1 256 5 is_stmt 1 view .LVU374
 1370              	.LBB450:
 1371              	.LBI450:
 1372              		.loc 2 357 20 view .LVU375
 1373              	.LBB451:
 1374              		.loc 2 359 3 view .LVU376
 1375 02f0 0021     		movs	r1, #0
 1376 02f2 3046     		mov	r0, r6
 1377 02f4 FFF7FEFF 		bl	test_printf
 1378              	.LVL92:
 1379              		.loc 2 359 3 is_stmt 0 view .LVU377
 1380              	.LBE451:
 1381              	.LBE450:
 1382              		.loc 1 257 5 is_stmt 1 view .LVU378
 1383              	.LBB452:
 1384              	.LBI452:
 1385              		.loc 2 381 20 view .LVU379
 1386              	.LBB453:
 1387              		.loc 2 383 3 view .LVU380
 1388 02f8 2946     		mov	r1, r5
 1389 02fa 2046     		mov	r0, r4
 1390 02fc FFF7FEFF 		bl	test_printf
 1391              	.LVL93:
 1392              		.loc 2 383 3 is_stmt 0 view .LVU381
 1393              	.LBE453:
 1394              	.LBE452:
 1395              		.loc 1 258 5 is_stmt 1 view .LVU382
 1396              	.LBB454:
 1397              	.LBI454:
 1398              		.loc 2 369 20 view .LVU383
 1399              	.LBB455:
 1400              		.loc 2 371 3 view .LVU384
 1401 0300 2A49     		ldr	r1, .L4+144
 1402 0302 3846     		mov	r0, r7
 1403 0304 FFF7FEFF 		bl	test_printf
 1404              	.LVL94:
 1405              		.loc 2 371 3 is_stmt 0 view .LVU385
 1406              	.LBE455:
 1407              	.LBE454:
 1408              		.loc 1 259 5 is_stmt 1 view .LVU386
 1409              	.LBB456:
 1410              	.LBI456:
ARM GAS  C:\Users\DEVELO~1\AppData\Local\Temp\ccinw50r.s 			page 28


 1411              		.loc 2 357 20 view .LVU387
 1412              	.LBB457:
 1413              		.loc 2 359 3 view .LVU388
 1414 0308 0021     		movs	r1, #0
 1415 030a 3046     		mov	r0, r6
 1416 030c FFF7FEFF 		bl	test_printf
 1417              	.LVL95:
 1418              		.loc 2 359 3 is_stmt 0 view .LVU389
 1419              	.LBE457:
 1420              	.LBE456:
 1421              		.loc 1 260 5 is_stmt 1 view .LVU390
 1422              	.LBB458:
 1423              	.LBI458:
 1424              		.loc 2 381 20 view .LVU391
 1425              	.LBB459:
 1426              		.loc 2 383 3 view .LVU392
 1427 0310 2946     		mov	r1, r5
 1428 0312 2046     		mov	r0, r4
 1429              	.LBE459:
 1430              	.LBE458:
 1431              		.loc 1 263 1 is_stmt 0 view .LVU393
 1432 0314 BDE8F041 		pop	{r4, r5, r6, r7, r8, lr}
 1433              		.cfi_restore 14
 1434              		.cfi_restore 8
 1435              		.cfi_restore 7
 1436              		.cfi_restore 6
 1437              		.cfi_restore 5
 1438              		.cfi_restore 4
 1439              		.cfi_def_cfa_offset 0
 1440              	.LBB461:
 1441              	.LBB460:
 1442              		.loc 2 383 3 view .LVU394
 1443 0318 FFF7FEBF 		b	test_printf
 1444              	.LVL96:
 1445              	.L5:
 1446              		.align	2
 1447              	.L4:
 1448 031c 2C000000 		.word	.LC1
 1449 0320 00000000 		.word	chtest
 1450 0324 30000000 		.word	.LC2
 1451 0328 34000000 		.word	.LC3
 1452 032c 38000000 		.word	.LC4
 1453 0330 00000000 		.word	.LC0
 1454 0334 40000000 		.word	.LC5
 1455 0338 6C000000 		.word	.LC6
 1456 033c 98000000 		.word	.LC7
 1457 0340 C4000000 		.word	.LC8
 1458 0344 F0000000 		.word	.LC9
 1459 0348 1C010000 		.word	.LC10
 1460 034c 48010000 		.word	.LC11
 1461 0350 74010000 		.word	.LC12
 1462 0354 A0010000 		.word	.LC13
 1463 0358 CC010000 		.word	.LC14
 1464 035c F8010000 		.word	.LC15
 1465 0360 24020000 		.word	.LC16
 1466 0364 50020000 		.word	.LC17
 1467 0368 7C020000 		.word	.LC18
ARM GAS  C:\Users\DEVELO~1\AppData\Local\Temp\ccinw50r.s 			page 29


 1468 036c A8020000 		.word	.LC19
 1469 0370 D4020000 		.word	.LC20
 1470 0374 00030000 		.word	.LC21
 1471 0378 2C030000 		.word	.LC22
 1472 037c 58030000 		.word	.LC23
 1473 0380 84030000 		.word	.LC24
 1474 0384 B0030000 		.word	.LC25
 1475 0388 DC030000 		.word	.LC26
 1476 038c 08040000 		.word	.LC27
 1477 0390 34040000 		.word	.LC28
 1478 0394 60040000 		.word	.LC29
 1479 0398 8C040000 		.word	.LC30
 1480 039c B8040000 		.word	.LC31
 1481 03a0 E4040000 		.word	.LC32
 1482 03a4 10050000 		.word	.LC33
 1483 03a8 3C050000 		.word	.LC34
 1484 03ac 68050000 		.word	.LC35
 1485              	.LBE460:
 1486              	.LBE461:
 1487              		.cfi_endproc
 1488              	.LFE454:
 1489              		.size	rt_test_001_003_execute, .-rt_test_001_003_execute
 1490              		.section	.rodata.rt_test_001_002_execute.str1.4,"aMS",%progbits,1
 1491              		.align	2
 1492              	.LC36:
 1493 0000 2D2D2D20 		.ascii	"--- Product:                            ChibiOS/RT\000"
 1493      50726F64 
 1493      7563743A 
 1493      20202020 
 1493      20202020 
 1494 0033 00       		.align	2
 1495              	.LC37:
 1496 0034 2D2D2D20 		.ascii	"--- Stable Flag:                        \000"
 1496      53746162 
 1496      6C652046 
 1496      6C61673A 
 1496      20202020 
 1497 005d 000000   		.align	2
 1498              	.LC38:
 1499 0060 2D2D2D20 		.ascii	"--- Version String:                     \000"
 1499      56657273 
 1499      696F6E20 
 1499      53747269 
 1499      6E673A20 
 1500 0089 000000   		.align	2
 1501              	.LC39:
 1502 008c 382E302E 		.ascii	"8.0.0\000"
 1502      3000
 1503 0092 0000     		.align	2
 1504              	.LC40:
 1505 0094 2D2D2D20 		.ascii	"--- Major Number:                       \000"
 1505      4D616A6F 
 1505      72204E75 
 1505      6D626572 
 1505      3A202020 
 1506 00bd 000000   		.align	2
 1507              	.LC41:
ARM GAS  C:\Users\DEVELO~1\AppData\Local\Temp\ccinw50r.s 			page 30


 1508 00c0 2D2D2D20 		.ascii	"--- Minor Number:                       \000"
 1508      4D696E6F 
 1508      72204E75 
 1508      6D626572 
 1508      3A202020 
 1509 00e9 000000   		.align	2
 1510              	.LC42:
 1511 00ec 2D2D2D20 		.ascii	"--- Patch Number:                       \000"
 1511      50617463 
 1511      68204E75 
 1511      6D626572 
 1511      3A202020 
 1512              		.section	.text.rt_test_001_002_execute,"ax",%progbits
 1513              		.align	1
 1514              		.p2align 4,,15
 1515              		.syntax unified
 1516              		.thumb
 1517              		.thumb_func
 1518              		.type	rt_test_001_002_execute, %function
 1519              	rt_test_001_002_execute:
 1520              	.LFB453:
 1521              		.loc 1 118 43 is_stmt 1 view -0
 1522              		.cfi_startproc
 1523              		@ args = 0, pretend = 0, frame = 0
 1524              		@ frame_needed = 0, uses_anonymous_args = 0
 1525              		.loc 1 121 3 view .LVU396
 1526              		.loc 1 118 43 is_stmt 0 view .LVU397
 1527 0000 F8B5     		push	{r3, r4, r5, r6, r7, lr}
 1528              		.cfi_def_cfa_offset 24
 1529              		.cfi_offset 3, -24
 1530              		.cfi_offset 4, -20
 1531              		.cfi_offset 5, -16
 1532              		.cfi_offset 6, -12
 1533              		.cfi_offset 7, -8
 1534              		.cfi_offset 14, -4
 1535              	.LBB462:
 1536              	.LBB463:
 1537              		.loc 2 383 3 view .LVU398
 1538 0002 224C     		ldr	r4, .L8
 1539              	.LBE463:
 1540              	.LBE462:
 1541              		.loc 1 121 3 view .LVU399
 1542 0004 0122     		movs	r2, #1
 1543 0006 224B     		ldr	r3, .L8+4
 1544              	.LBB467:
 1545              	.LBB468:
 1546              		.loc 2 371 3 view .LVU400
 1547 0008 224D     		ldr	r5, .L8+8
 1548              	.LBE468:
 1549              	.LBE467:
 1550              	.LBB471:
 1551              	.LBB464:
 1552              		.loc 2 383 3 view .LVU401
 1553 000a 2046     		mov	r0, r4
 1554              	.LBE464:
 1555              	.LBE471:
 1556              	.LBB472:
ARM GAS  C:\Users\DEVELO~1\AppData\Local\Temp\ccinw50r.s 			page 31


 1557              	.LBB473:
 1558              		.loc 2 359 3 view .LVU402
 1559 000c 224F     		ldr	r7, .L8+12
 1560              	.LBE473:
 1561              	.LBE472:
 1562              	.LBB475:
 1563              	.LBB465:
 1564              		.loc 2 383 3 view .LVU403
 1565 000e 2349     		ldr	r1, .L8+16
 1566              	.LBE465:
 1567              	.LBE475:
 1568              		.loc 1 121 3 view .LVU404
 1569 0010 1A60     		str	r2, [r3]
 1570              		.loc 1 123 5 is_stmt 1 view .LVU405
 1571              	.LVL97:
 1572              	.LBB476:
 1573              	.LBI462:
 1574              		.loc 2 381 20 view .LVU406
 1575              	.LBB466:
 1576              		.loc 2 383 3 view .LVU407
 1577 0012 FFF7FEFF 		bl	test_printf
 1578              	.LVL98:
 1579              		.loc 2 383 3 is_stmt 0 view .LVU408
 1580              	.LBE466:
 1581              	.LBE476:
 1582              		.loc 1 124 5 is_stmt 1 view .LVU409
 1583              	.LBB477:
 1584              	.LBI467:
 1585              		.loc 2 369 20 view .LVU410
 1586              	.LBB469:
 1587              		.loc 2 371 3 view .LVU411
 1588              	.LBE469:
 1589              	.LBE477:
 1590              	.LBB478:
 1591              	.LBB479:
 1592              		.loc 2 383 3 is_stmt 0 view .LVU412
 1593 0016 224E     		ldr	r6, .L8+20
 1594              	.LBE479:
 1595              	.LBE478:
 1596              	.LBB481:
 1597              	.LBB470:
 1598              		.loc 2 371 3 view .LVU413
 1599 0018 2846     		mov	r0, r5
 1600 001a 2249     		ldr	r1, .L8+24
 1601 001c FFF7FEFF 		bl	test_printf
 1602              	.LVL99:
 1603              		.loc 2 371 3 view .LVU414
 1604              	.LBE470:
 1605              	.LBE481:
 1606              		.loc 1 125 5 is_stmt 1 view .LVU415
 1607              	.LBB482:
 1608              	.LBI472:
 1609              		.loc 2 357 20 view .LVU416
 1610              	.LBB474:
 1611              		.loc 2 359 3 view .LVU417
 1612 0020 0021     		movs	r1, #0
 1613 0022 3846     		mov	r0, r7
ARM GAS  C:\Users\DEVELO~1\AppData\Local\Temp\ccinw50r.s 			page 32


 1614 0024 FFF7FEFF 		bl	test_printf
 1615              	.LVL100:
 1616              		.loc 2 359 3 is_stmt 0 view .LVU418
 1617              	.LBE474:
 1618              	.LBE482:
 1619              		.loc 1 126 5 is_stmt 1 view .LVU419
 1620              	.LBB483:
 1621              	.LBI478:
 1622              		.loc 2 381 20 view .LVU420
 1623              	.LBB480:
 1624              		.loc 2 383 3 view .LVU421
 1625 0028 3146     		mov	r1, r6
 1626 002a 2046     		mov	r0, r4
 1627 002c FFF7FEFF 		bl	test_printf
 1628              	.LVL101:
 1629              		.loc 2 383 3 is_stmt 0 view .LVU422
 1630              	.LBE480:
 1631              	.LBE483:
 1632              		.loc 1 127 5 is_stmt 1 view .LVU423
 1633              	.LBB484:
 1634              	.LBI484:
 1635              		.loc 2 369 20 view .LVU424
 1636              	.LBB485:
 1637              		.loc 2 371 3 view .LVU425
 1638 0030 1D49     		ldr	r1, .L8+28
 1639 0032 2846     		mov	r0, r5
 1640 0034 FFF7FEFF 		bl	test_printf
 1641              	.LVL102:
 1642              		.loc 2 371 3 is_stmt 0 view .LVU426
 1643              	.LBE485:
 1644              	.LBE484:
 1645              		.loc 1 128 5 is_stmt 1 view .LVU427
 1646              	.LBB486:
 1647              	.LBI486:
 1648              		.loc 2 381 20 view .LVU428
 1649              	.LBB487:
 1650              		.loc 2 383 3 view .LVU429
 1651 0038 1C49     		ldr	r1, .L8+32
 1652 003a 2046     		mov	r0, r4
 1653 003c FFF7FEFF 		bl	test_printf
 1654              	.LVL103:
 1655              		.loc 2 383 3 is_stmt 0 view .LVU430
 1656              	.LBE487:
 1657              	.LBE486:
 1658              		.loc 1 129 5 is_stmt 1 view .LVU431
 1659              	.LBB488:
 1660              	.LBI488:
 1661              		.loc 2 369 20 view .LVU432
 1662              	.LBB489:
 1663              		.loc 2 371 3 view .LVU433
 1664 0040 1B49     		ldr	r1, .L8+36
 1665 0042 2846     		mov	r0, r5
 1666 0044 FFF7FEFF 		bl	test_printf
 1667              	.LVL104:
 1668              		.loc 2 371 3 is_stmt 0 view .LVU434
 1669              	.LBE489:
 1670              	.LBE488:
ARM GAS  C:\Users\DEVELO~1\AppData\Local\Temp\ccinw50r.s 			page 33


 1671              		.loc 1 130 5 is_stmt 1 view .LVU435
 1672              	.LBB490:
 1673              	.LBI490:
 1674              		.loc 2 357 20 view .LVU436
 1675              	.LBB491:
 1676              		.loc 2 359 3 view .LVU437
 1677 0048 0821     		movs	r1, #8
 1678 004a 3846     		mov	r0, r7
 1679 004c FFF7FEFF 		bl	test_printf
 1680              	.LVL105:
 1681              		.loc 2 359 3 is_stmt 0 view .LVU438
 1682              	.LBE491:
 1683              	.LBE490:
 1684              		.loc 1 131 5 is_stmt 1 view .LVU439
 1685              	.LBB492:
 1686              	.LBI492:
 1687              		.loc 2 381 20 view .LVU440
 1688              	.LBB493:
 1689              		.loc 2 383 3 view .LVU441
 1690 0050 3146     		mov	r1, r6
 1691 0052 2046     		mov	r0, r4
 1692 0054 FFF7FEFF 		bl	test_printf
 1693              	.LVL106:
 1694              		.loc 2 383 3 is_stmt 0 view .LVU442
 1695              	.LBE493:
 1696              	.LBE492:
 1697              		.loc 1 132 5 is_stmt 1 view .LVU443
 1698              	.LBB494:
 1699              	.LBI494:
 1700              		.loc 2 369 20 view .LVU444
 1701              	.LBB495:
 1702              		.loc 2 371 3 view .LVU445
 1703 0058 1649     		ldr	r1, .L8+40
 1704 005a 2846     		mov	r0, r5
 1705 005c FFF7FEFF 		bl	test_printf
 1706              	.LVL107:
 1707              		.loc 2 371 3 is_stmt 0 view .LVU446
 1708              	.LBE495:
 1709              	.LBE494:
 1710              		.loc 1 133 5 is_stmt 1 view .LVU447
 1711              	.LBB496:
 1712              	.LBI496:
 1713              		.loc 2 357 20 view .LVU448
 1714              	.LBB497:
 1715              		.loc 2 359 3 view .LVU449
 1716 0060 0021     		movs	r1, #0
 1717 0062 3846     		mov	r0, r7
 1718 0064 FFF7FEFF 		bl	test_printf
 1719              	.LVL108:
 1720              		.loc 2 359 3 is_stmt 0 view .LVU450
 1721              	.LBE497:
 1722              	.LBE496:
 1723              		.loc 1 134 5 is_stmt 1 view .LVU451
 1724              	.LBB498:
 1725              	.LBI498:
 1726              		.loc 2 381 20 view .LVU452
 1727              	.LBB499:
ARM GAS  C:\Users\DEVELO~1\AppData\Local\Temp\ccinw50r.s 			page 34


 1728              		.loc 2 383 3 view .LVU453
 1729 0068 3146     		mov	r1, r6
 1730 006a 2046     		mov	r0, r4
 1731 006c FFF7FEFF 		bl	test_printf
 1732              	.LVL109:
 1733              		.loc 2 383 3 is_stmt 0 view .LVU454
 1734              	.LBE499:
 1735              	.LBE498:
 1736              		.loc 1 135 5 is_stmt 1 view .LVU455
 1737              	.LBB500:
 1738              	.LBI500:
 1739              		.loc 2 369 20 view .LVU456
 1740              	.LBB501:
 1741              		.loc 2 371 3 view .LVU457
 1742 0070 1149     		ldr	r1, .L8+44
 1743 0072 2846     		mov	r0, r5
 1744 0074 FFF7FEFF 		bl	test_printf
 1745              	.LVL110:
 1746              		.loc 2 371 3 is_stmt 0 view .LVU458
 1747              	.LBE501:
 1748              	.LBE500:
 1749              		.loc 1 136 5 is_stmt 1 view .LVU459
 1750              	.LBB502:
 1751              	.LBI502:
 1752              		.loc 2 357 20 view .LVU460
 1753              	.LBB503:
 1754              		.loc 2 359 3 view .LVU461
 1755 0078 0021     		movs	r1, #0
 1756 007a 3846     		mov	r0, r7
 1757 007c FFF7FEFF 		bl	test_printf
 1758              	.LVL111:
 1759              		.loc 2 359 3 is_stmt 0 view .LVU462
 1760              	.LBE503:
 1761              	.LBE502:
 1762              		.loc 1 137 5 is_stmt 1 view .LVU463
 1763              	.LBB504:
 1764              	.LBI504:
 1765              		.loc 2 381 20 view .LVU464
 1766              	.LBB505:
 1767              		.loc 2 383 3 view .LVU465
 1768 0080 3146     		mov	r1, r6
 1769 0082 2046     		mov	r0, r4
 1770              	.LBE505:
 1771              	.LBE504:
 1772              		.loc 1 140 1 is_stmt 0 view .LVU466
 1773 0084 BDE8F840 		pop	{r3, r4, r5, r6, r7, lr}
 1774              		.cfi_restore 14
 1775              		.cfi_restore 7
 1776              		.cfi_restore 6
 1777              		.cfi_restore 5
 1778              		.cfi_restore 4
 1779              		.cfi_restore 3
 1780              		.cfi_def_cfa_offset 0
 1781              	.LBB507:
 1782              	.LBB506:
 1783              		.loc 2 383 3 view .LVU467
 1784 0088 FFF7FEBF 		b	test_printf
ARM GAS  C:\Users\DEVELO~1\AppData\Local\Temp\ccinw50r.s 			page 35


 1785              	.LVL112:
 1786              	.L9:
 1787              		.align	2
 1788              	.L8:
 1789 008c 38000000 		.word	.LC4
 1790 0090 00000000 		.word	chtest
 1791 0094 2C000000 		.word	.LC1
 1792 0098 30000000 		.word	.LC2
 1793 009c 00000000 		.word	.LC36
 1794 00a0 34000000 		.word	.LC3
 1795 00a4 34000000 		.word	.LC37
 1796 00a8 60000000 		.word	.LC38
 1797 00ac 8C000000 		.word	.LC39
 1798 00b0 94000000 		.word	.LC40
 1799 00b4 C0000000 		.word	.LC41
 1800 00b8 EC000000 		.word	.LC42
 1801              	.LBE506:
 1802              	.LBE507:
 1803              		.cfi_endproc
 1804              	.LFE453:
 1805              		.size	rt_test_001_002_execute, .-rt_test_001_002_execute
 1806              		.section	.rodata.rt_test_001_001_execute.str1.4,"aMS",%progbits,1
 1807              		.align	2
 1808              	.LC43:
 1809 0000 2D2D2D20 		.ascii	"--- Architecture:                       \000"
 1809      41726368 
 1809      69746563 
 1809      74757265 
 1809      3A202020 
 1810 0029 000000   		.align	2
 1811              	.LC44:
 1812 002c 41524D76 		.ascii	"ARMv7E-M\000"
 1812      37452D4D 
 1812      00
 1813 0035 000000   		.align	2
 1814              	.LC45:
 1815 0038 2D2D2D20 		.ascii	"--- Core Variant:                       \000"
 1815      436F7265 
 1815      20566172 
 1815      69616E74 
 1815      3A202020 
 1816 0061 000000   		.align	2
 1817              	.LC46:
 1818 0064 436F7274 		.ascii	"Cortex-M7\000"
 1818      65782D4D 
 1818      3700
 1819 006e 0000     		.align	2
 1820              	.LC47:
 1821 0070 2D2D2D20 		.ascii	"--- Compiler:                           \000"
 1821      436F6D70 
 1821      696C6572 
 1821      3A202020 
 1821      20202020 
 1822 0099 000000   		.align	2
 1823              	.LC48:
 1824 009c 47434320 		.ascii	"GCC 11.3.1 20220712\000"
 1824      31312E33 
ARM GAS  C:\Users\DEVELO~1\AppData\Local\Temp\ccinw50r.s 			page 36


 1824      2E312032 
 1824      30323230 
 1824      37313200 
 1825              		.align	2
 1826              	.LC49:
 1827 00b0 2D2D2D20 		.ascii	"--- Port Info:                          \000"
 1827      506F7274 
 1827      20496E66 
 1827      6F3A2020 
 1827      20202020 
 1828 00d9 000000   		.align	2
 1829              	.LC50:
 1830 00dc 41647661 		.ascii	"Advanced kernel mode\000"
 1830      6E636564 
 1830      206B6572 
 1830      6E656C20 
 1830      6D6F6465 
 1831 00f1 000000   		.align	2
 1832              	.LC51:
 1833 00f4 2D2D2D20 		.ascii	"--- Natural alignment:                  \000"
 1833      4E617475 
 1833      72616C20 
 1833      616C6967 
 1833      6E6D656E 
 1834 011d 000000   		.align	2
 1835              	.LC52:
 1836 0120 2D2D2D20 		.ascii	"--- Stack alignment:                    \000"
 1836      53746163 
 1836      6B20616C 
 1836      69676E6D 
 1836      656E743A 
 1837 0149 000000   		.align	2
 1838              	.LC53:
 1839 014c 2D2D2D20 		.ascii	"--- Working area alignment:             \000"
 1839      576F726B 
 1839      696E6720 
 1839      61726561 
 1839      20616C69 
 1840              		.section	.text.rt_test_001_001_execute,"ax",%progbits
 1841              		.align	1
 1842              		.p2align 4,,15
 1843              		.syntax unified
 1844              		.thumb
 1845              		.thumb_func
 1846              		.type	rt_test_001_001_execute, %function
 1847              	rt_test_001_001_execute:
 1848              	.LFB452:
 1849              		.loc 1 60 43 is_stmt 1 view -0
 1850              		.cfi_startproc
 1851              		@ args = 0, pretend = 0, frame = 0
 1852              		@ frame_needed = 0, uses_anonymous_args = 0
 1853              		.loc 1 63 3 view .LVU469
 1854              		.loc 1 60 43 is_stmt 0 view .LVU470
 1855 0000 F8B5     		push	{r3, r4, r5, r6, r7, lr}
 1856              		.cfi_def_cfa_offset 24
 1857              		.cfi_offset 3, -24
 1858              		.cfi_offset 4, -20
ARM GAS  C:\Users\DEVELO~1\AppData\Local\Temp\ccinw50r.s 			page 37


 1859              		.cfi_offset 5, -16
 1860              		.cfi_offset 6, -12
 1861              		.cfi_offset 7, -8
 1862              		.cfi_offset 14, -4
 1863              	.LBB508:
 1864              	.LBB509:
 1865              		.loc 2 371 3 view .LVU471
 1866 0002 264D     		ldr	r5, .L12
 1867              	.LBE509:
 1868              	.LBE508:
 1869              		.loc 1 63 3 view .LVU472
 1870 0004 0122     		movs	r2, #1
 1871 0006 264B     		ldr	r3, .L12+4
 1872              	.LBB512:
 1873              	.LBB513:
 1874              		.loc 2 383 3 view .LVU473
 1875 0008 264C     		ldr	r4, .L12+8
 1876              	.LBE513:
 1877              	.LBE512:
 1878              	.LBB515:
 1879              	.LBB510:
 1880              		.loc 2 371 3 view .LVU474
 1881 000a 2846     		mov	r0, r5
 1882 000c 2649     		ldr	r1, .L12+12
 1883              	.LBE510:
 1884              	.LBE515:
 1885              		.loc 1 63 3 view .LVU475
 1886 000e 1A60     		str	r2, [r3]
 1887              		.loc 1 66 5 is_stmt 1 view .LVU476
 1888              	.LVL113:
 1889              	.LBB516:
 1890              	.LBI508:
 1891              		.loc 2 369 20 view .LVU477
 1892              	.LBB511:
 1893              		.loc 2 371 3 view .LVU478
 1894 0010 FFF7FEFF 		bl	test_printf
 1895              	.LVL114:
 1896              		.loc 2 371 3 is_stmt 0 view .LVU479
 1897              	.LBE511:
 1898              	.LBE516:
 1899              		.loc 1 67 5 is_stmt 1 view .LVU480
 1900              	.LBB517:
 1901              	.LBI512:
 1902              		.loc 2 381 20 view .LVU481
 1903              	.LBB514:
 1904              		.loc 2 383 3 view .LVU482
 1905 0014 2549     		ldr	r1, .L12+16
 1906 0016 2046     		mov	r0, r4
 1907 0018 FFF7FEFF 		bl	test_printf
 1908              	.LVL115:
 1909              		.loc 2 383 3 is_stmt 0 view .LVU483
 1910              	.LBE514:
 1911              	.LBE517:
 1912              		.loc 1 70 5 is_stmt 1 view .LVU484
 1913              	.LBB518:
 1914              	.LBI518:
 1915              		.loc 2 369 20 view .LVU485
ARM GAS  C:\Users\DEVELO~1\AppData\Local\Temp\ccinw50r.s 			page 38


 1916              	.LBB519:
 1917              		.loc 2 371 3 view .LVU486
 1918 001c 2449     		ldr	r1, .L12+20
 1919 001e 2846     		mov	r0, r5
 1920              	.LBE519:
 1921              	.LBE518:
 1922              	.LBB521:
 1923              	.LBB522:
 1924              		.loc 2 359 3 is_stmt 0 view .LVU487
 1925 0020 244F     		ldr	r7, .L12+24
 1926              	.LBE522:
 1927              	.LBE521:
 1928              	.LBB524:
 1929              	.LBB520:
 1930              		.loc 2 371 3 view .LVU488
 1931 0022 FFF7FEFF 		bl	test_printf
 1932              	.LVL116:
 1933              		.loc 2 371 3 view .LVU489
 1934              	.LBE520:
 1935              	.LBE524:
 1936              		.loc 1 71 5 is_stmt 1 view .LVU490
 1937              	.LBB525:
 1938              	.LBI525:
 1939              		.loc 2 381 20 view .LVU491
 1940              	.LBB526:
 1941              		.loc 2 383 3 view .LVU492
 1942 0026 2449     		ldr	r1, .L12+28
 1943 0028 2046     		mov	r0, r4
 1944              	.LBE526:
 1945              	.LBE525:
 1946              	.LBB528:
 1947              	.LBB529:
 1948 002a 244E     		ldr	r6, .L12+32
 1949              	.LBE529:
 1950              	.LBE528:
 1951              	.LBB531:
 1952              	.LBB527:
 1953 002c FFF7FEFF 		bl	test_printf
 1954              	.LVL117:
 1955              		.loc 2 383 3 is_stmt 0 view .LVU493
 1956              	.LBE527:
 1957              	.LBE531:
 1958              		.loc 1 74 5 is_stmt 1 view .LVU494
 1959              	.LBB532:
 1960              	.LBI532:
 1961              		.loc 2 369 20 view .LVU495
 1962              	.LBB533:
 1963              		.loc 2 371 3 view .LVU496
 1964 0030 2349     		ldr	r1, .L12+36
 1965 0032 2846     		mov	r0, r5
 1966 0034 FFF7FEFF 		bl	test_printf
 1967              	.LVL118:
 1968              		.loc 2 371 3 is_stmt 0 view .LVU497
 1969              	.LBE533:
 1970              	.LBE532:
 1971              		.loc 1 75 5 is_stmt 1 view .LVU498
 1972              	.LBB534:
ARM GAS  C:\Users\DEVELO~1\AppData\Local\Temp\ccinw50r.s 			page 39


 1973              	.LBI534:
 1974              		.loc 2 381 20 view .LVU499
 1975              	.LBB535:
 1976              		.loc 2 383 3 view .LVU500
 1977 0038 2249     		ldr	r1, .L12+40
 1978 003a 2046     		mov	r0, r4
 1979 003c FFF7FEFF 		bl	test_printf
 1980              	.LVL119:
 1981              		.loc 2 383 3 is_stmt 0 view .LVU501
 1982              	.LBE535:
 1983              	.LBE534:
 1984              		.loc 1 78 5 is_stmt 1 view .LVU502
 1985              	.LBB536:
 1986              	.LBI536:
 1987              		.loc 2 369 20 view .LVU503
 1988              	.LBB537:
 1989              		.loc 2 371 3 view .LVU504
 1990 0040 2149     		ldr	r1, .L12+44
 1991 0042 2846     		mov	r0, r5
 1992 0044 FFF7FEFF 		bl	test_printf
 1993              	.LVL120:
 1994              		.loc 2 371 3 is_stmt 0 view .LVU505
 1995              	.LBE537:
 1996              	.LBE536:
 1997              		.loc 1 79 5 is_stmt 1 view .LVU506
 1998              	.LBB538:
 1999              	.LBI538:
 2000              		.loc 2 381 20 view .LVU507
 2001              	.LBB539:
 2002              		.loc 2 383 3 view .LVU508
 2003 0048 2049     		ldr	r1, .L12+48
 2004 004a 2046     		mov	r0, r4
 2005 004c FFF7FEFF 		bl	test_printf
 2006              	.LVL121:
 2007              		.loc 2 383 3 is_stmt 0 view .LVU509
 2008              	.LBE539:
 2009              	.LBE538:
 2010              		.loc 1 82 5 is_stmt 1 view .LVU510
 2011              	.LBB540:
 2012              	.LBI540:
 2013              		.loc 2 369 20 view .LVU511
 2014              	.LBB541:
 2015              		.loc 2 371 3 view .LVU512
 2016 0050 1F49     		ldr	r1, .L12+52
 2017 0052 2846     		mov	r0, r5
 2018 0054 FFF7FEFF 		bl	test_printf
 2019              	.LVL122:
 2020              		.loc 2 371 3 is_stmt 0 view .LVU513
 2021              	.LBE541:
 2022              	.LBE540:
 2023              		.loc 1 83 5 is_stmt 1 view .LVU514
 2024              	.LBB542:
 2025              	.LBI521:
 2026              		.loc 2 357 20 view .LVU515
 2027              	.LBB523:
 2028              		.loc 2 359 3 view .LVU516
 2029 0058 0421     		movs	r1, #4
ARM GAS  C:\Users\DEVELO~1\AppData\Local\Temp\ccinw50r.s 			page 40


 2030 005a 3846     		mov	r0, r7
 2031 005c FFF7FEFF 		bl	test_printf
 2032              	.LVL123:
 2033              		.loc 2 359 3 is_stmt 0 view .LVU517
 2034              	.LBE523:
 2035              	.LBE542:
 2036              		.loc 1 84 5 is_stmt 1 view .LVU518
 2037              	.LBB543:
 2038              	.LBI528:
 2039              		.loc 2 381 20 view .LVU519
 2040              	.LBB530:
 2041              		.loc 2 383 3 view .LVU520
 2042 0060 3146     		mov	r1, r6
 2043 0062 2046     		mov	r0, r4
 2044 0064 FFF7FEFF 		bl	test_printf
 2045              	.LVL124:
 2046              		.loc 2 383 3 is_stmt 0 view .LVU521
 2047              	.LBE530:
 2048              	.LBE543:
 2049              		.loc 1 87 5 is_stmt 1 view .LVU522
 2050              	.LBB544:
 2051              	.LBI544:
 2052              		.loc 2 369 20 view .LVU523
 2053              	.LBB545:
 2054              		.loc 2 371 3 view .LVU524
 2055 0068 1A49     		ldr	r1, .L12+56
 2056 006a 2846     		mov	r0, r5
 2057 006c FFF7FEFF 		bl	test_printf
 2058              	.LVL125:
 2059              		.loc 2 371 3 is_stmt 0 view .LVU525
 2060              	.LBE545:
 2061              	.LBE544:
 2062              		.loc 1 88 5 is_stmt 1 view .LVU526
 2063              	.LBB546:
 2064              	.LBI546:
 2065              		.loc 2 357 20 view .LVU527
 2066              	.LBB547:
 2067              		.loc 2 359 3 view .LVU528
 2068 0070 2021     		movs	r1, #32
 2069 0072 3846     		mov	r0, r7
 2070 0074 FFF7FEFF 		bl	test_printf
 2071              	.LVL126:
 2072              		.loc 2 359 3 is_stmt 0 view .LVU529
 2073              	.LBE547:
 2074              	.LBE546:
 2075              		.loc 1 89 5 is_stmt 1 view .LVU530
 2076              	.LBB548:
 2077              	.LBI548:
 2078              		.loc 2 381 20 view .LVU531
 2079              	.LBB549:
 2080              		.loc 2 383 3 view .LVU532
 2081 0078 3146     		mov	r1, r6
 2082 007a 2046     		mov	r0, r4
 2083 007c FFF7FEFF 		bl	test_printf
 2084              	.LVL127:
 2085              		.loc 2 383 3 is_stmt 0 view .LVU533
 2086              	.LBE549:
ARM GAS  C:\Users\DEVELO~1\AppData\Local\Temp\ccinw50r.s 			page 41


 2087              	.LBE548:
 2088              		.loc 1 92 5 is_stmt 1 view .LVU534
 2089              	.LBB550:
 2090              	.LBI550:
 2091              		.loc 2 369 20 view .LVU535
 2092              	.LBB551:
 2093              		.loc 2 371 3 view .LVU536
 2094 0080 1549     		ldr	r1, .L12+60
 2095 0082 2846     		mov	r0, r5
 2096 0084 FFF7FEFF 		bl	test_printf
 2097              	.LVL128:
 2098              		.loc 2 371 3 is_stmt 0 view .LVU537
 2099              	.LBE551:
 2100              	.LBE550:
 2101              		.loc 1 93 5 is_stmt 1 view .LVU538
 2102              	.LBB552:
 2103              	.LBI552:
 2104              		.loc 2 357 20 view .LVU539
 2105              	.LBB553:
 2106              		.loc 2 359 3 view .LVU540
 2107 0088 2021     		movs	r1, #32
 2108 008a 3846     		mov	r0, r7
 2109 008c FFF7FEFF 		bl	test_printf
 2110              	.LVL129:
 2111              		.loc 2 359 3 is_stmt 0 view .LVU541
 2112              	.LBE553:
 2113              	.LBE552:
 2114              		.loc 1 94 5 is_stmt 1 view .LVU542
 2115              	.LBB554:
 2116              	.LBI554:
 2117              		.loc 2 381 20 view .LVU543
 2118              	.LBB555:
 2119              		.loc 2 383 3 view .LVU544
 2120 0090 3146     		mov	r1, r6
 2121 0092 2046     		mov	r0, r4
 2122              	.LBE555:
 2123              	.LBE554:
 2124              		.loc 1 98 1 is_stmt 0 view .LVU545
 2125 0094 BDE8F840 		pop	{r3, r4, r5, r6, r7, lr}
 2126              		.cfi_restore 14
 2127              		.cfi_restore 7
 2128              		.cfi_restore 6
 2129              		.cfi_restore 5
 2130              		.cfi_restore 4
 2131              		.cfi_restore 3
 2132              		.cfi_def_cfa_offset 0
 2133              	.LBB557:
 2134              	.LBB556:
 2135              		.loc 2 383 3 view .LVU546
 2136 0098 FFF7FEBF 		b	test_printf
 2137              	.LVL130:
 2138              	.L13:
 2139              		.align	2
 2140              	.L12:
 2141 009c 2C000000 		.word	.LC1
 2142 00a0 00000000 		.word	chtest
 2143 00a4 38000000 		.word	.LC4
ARM GAS  C:\Users\DEVELO~1\AppData\Local\Temp\ccinw50r.s 			page 42


 2144 00a8 00000000 		.word	.LC43
 2145 00ac 2C000000 		.word	.LC44
 2146 00b0 38000000 		.word	.LC45
 2147 00b4 30000000 		.word	.LC2
 2148 00b8 64000000 		.word	.LC46
 2149 00bc 34000000 		.word	.LC3
 2150 00c0 70000000 		.word	.LC47
 2151 00c4 9C000000 		.word	.LC48
 2152 00c8 B0000000 		.word	.LC49
 2153 00cc DC000000 		.word	.LC50
 2154 00d0 F4000000 		.word	.LC51
 2155 00d4 20010000 		.word	.LC52
 2156 00d8 4C010000 		.word	.LC53
 2157              	.LBE556:
 2158              	.LBE557:
 2159              		.cfi_endproc
 2160              	.LFE452:
 2161              		.size	rt_test_001_001_execute, .-rt_test_001_001_execute
 2162              		.global	rt_test_sequence_001
 2163              		.section	.rodata.str1.4,"aMS",%progbits,1
 2164              		.align	2
 2165              	.LC54:
 2166 0000 496E666F 		.ascii	"Information\000"
 2166      726D6174 
 2166      696F6E00 
 2167              		.global	rt_test_sequence_001_array
 2168              		.align	2
 2169              	.LC55:
 2170 000c 4B65726E 		.ascii	"Kernel Settings\000"
 2170      656C2053 
 2170      65747469 
 2170      6E677300 
 2171              		.align	2
 2172              	.LC56:
 2173 001c 4B65726E 		.ascii	"Kernel Info\000"
 2173      656C2049 
 2173      6E666F00 
 2174              		.align	2
 2175              	.LC57:
 2176 0028 506F7274 		.ascii	"Port Info\000"
 2176      20496E66 
 2176      6F00
 2177              		.section	.rodata.rt_test_001_001,"a"
 2178              		.align	2
 2179              		.type	rt_test_001_001, %object
 2180              		.size	rt_test_001_001, 16
 2181              	rt_test_001_001:
 2182 0000 28000000 		.word	.LC57
 2183 0004 00000000 		.word	0
 2184 0008 00000000 		.word	0
 2185 000c 00000000 		.word	rt_test_001_001_execute
 2186              		.section	.rodata.rt_test_001_002,"a"
 2187              		.align	2
 2188              		.type	rt_test_001_002, %object
 2189              		.size	rt_test_001_002, 16
 2190              	rt_test_001_002:
 2191 0000 1C000000 		.word	.LC56
ARM GAS  C:\Users\DEVELO~1\AppData\Local\Temp\ccinw50r.s 			page 43


 2192 0004 00000000 		.word	0
 2193 0008 00000000 		.word	0
 2194 000c 00000000 		.word	rt_test_001_002_execute
 2195              		.section	.rodata.rt_test_001_003,"a"
 2196              		.align	2
 2197              		.type	rt_test_001_003, %object
 2198              		.size	rt_test_001_003, 16
 2199              	rt_test_001_003:
 2200 0000 0C000000 		.word	.LC55
 2201 0004 00000000 		.word	0
 2202 0008 00000000 		.word	0
 2203 000c 00000000 		.word	rt_test_001_003_execute
 2204              		.section	.rodata.rt_test_sequence_001,"a"
 2205              		.align	2
 2206              		.type	rt_test_sequence_001, %object
 2207              		.size	rt_test_sequence_001, 8
 2208              	rt_test_sequence_001:
 2209 0000 00000000 		.word	.LC54
 2210 0004 00000000 		.word	rt_test_sequence_001_array
 2211              		.section	.rodata.rt_test_sequence_001_array,"a"
 2212              		.align	2
 2213              		.type	rt_test_sequence_001_array, %object
 2214              		.size	rt_test_sequence_001_array, 16
 2215              	rt_test_sequence_001_array:
 2216 0000 00000000 		.word	rt_test_001_001
 2217 0004 00000000 		.word	rt_test_001_002
 2218 0008 00000000 		.word	rt_test_001_003
 2219 000c 00000000 		.word	0
 2220              		.text
 2221              	.Letext0:
 2222              		.file 3 "c:\\chibistudio\\tools\\gnu tools arm embedded\\11.3 2022.08\\lib\\gcc\\arm-none-eabi\\11
 2223              		.file 4 "c:\\chibistudio\\tools\\gnu tools arm embedded\\11.3 2022.08\\arm-none-eabi\\include\\mac
 2224              		.file 5 "c:\\chibistudio\\tools\\gnu tools arm embedded\\11.3 2022.08\\arm-none-eabi\\include\\sys
 2225              		.file 6 "./ChibiOS/os/rt/include/chearly.h"
 2226              		.file 7 "./ChibiOS/os/hal/include/hal_streams.h"
 2227              		.file 8 "./ChibiOS/test/rt/source/test/rt_test_sequence_001.h"