ARM GAS  C:\Users\DEVELO~1\AppData\Local\Temp\ccqNMLdz.s 			page 1


   1              		.cpu cortex-m7
   2              		.arch armv7e-m
   3              		.fpu softvfp
   4              		.eabi_attribute 20, 1
   5              		.eabi_attribute 21, 1
   6              		.eabi_attribute 23, 3
   7              		.eabi_attribute 24, 1
   8              		.eabi_attribute 25, 1
   9              		.eabi_attribute 26, 1
  10              		.eabi_attribute 30, 2
  11              		.eabi_attribute 34, 1
  12              		.eabi_attribute 18, 4
  13              		.file	"rt_test_sequence_003.c"
  14              		.text
  15              	.Ltext0:
  16              		.cfi_sections	.debug_frame
  17              		.section	.text.rt_test_003_001_execute,"ax",%progbits
  18              		.align	1
  19              		.p2align 4,,15
  20              		.syntax unified
  21              		.thumb
  22              		.thumb_func
  23              		.type	rt_test_003_001_execute, %function
  24              	rt_test_003_001_execute:
  25              	.LFB452:
  26              		.file 1 "./ChibiOS/test/rt/source/test/rt_test_sequence_003.c"
  27              		.loc 1 60 43 view -0
  28              		.cfi_startproc
  29              		@ args = 0, pretend = 0, frame = 0
  30              		@ frame_needed = 0, uses_anonymous_args = 0
  31              		.loc 1 64 3 view .LVU1
  32 0000 054B     		ldr	r3, .L6
  33 0002 0122     		movs	r2, #1
  34              		.loc 1 60 43 is_stmt 0 view .LVU2
  35 0004 10B5     		push	{r4, lr}
  36              		.cfi_def_cfa_offset 8
  37              		.cfi_offset 4, -8
  38              		.cfi_offset 14, -4
  39              		.loc 1 64 3 view .LVU3
  40 0006 1A60     		str	r2, [r3]
  41              	.LBB67:
  42              		.loc 1 66 5 is_stmt 1 view .LVU4
  43              	.LBB68:
  44              	.LBI68:
  45              		.file 2 "./ChibiOS/os/rt/include/chvt.h"
  46              		.loc 2 135 25 view .LVU5
  47              		.loc 2 140 3 view .LVU6
  48              	.LBB69:
  49              	.LBI69:
  50              		.file 3 "./ChibiOS/os/hal/osal/rt-nil/chcore_timer.h"
  51              		.loc 3 111 25 view .LVU7
  52              	.LBB70:
  53              		.loc 3 113 3 view .LVU8
  54              		.loc 3 113 10 is_stmt 0 view .LVU9
  55 0008 FFF7FEFF 		bl	stGetCounter
  56              	.LVL0:
  57 000c 0446     		mov	r4, r0
ARM GAS  C:\Users\DEVELO~1\AppData\Local\Temp\ccqNMLdz.s 			page 2


  58              	.LVL1:
  59              		.loc 3 113 10 view .LVU10
  60              	.LBE70:
  61              	.LBE69:
  62              	.LBE68:
  63              		.loc 1 67 5 is_stmt 1 view .LVU11
  64              	.L2:
  65              		.loc 1 71 5 discriminator 1 view .LVU12
  66              		.loc 1 67 17 discriminator 1 view .LVU13
  67              	.LBB71:
  68              	.LBI71:
  69              		.loc 2 135 25 discriminator 1 view .LVU14
  70              		.loc 2 140 3 discriminator 1 view .LVU15
  71              	.LBB72:
  72              	.LBI72:
  73              		.loc 3 111 25 discriminator 1 view .LVU16
  74              	.LBB73:
  75              		.loc 3 113 3 discriminator 1 view .LVU17
  76              		.loc 3 113 10 is_stmt 0 discriminator 1 view .LVU18
  77 000e FFF7FEFF 		bl	stGetCounter
  78              	.LVL2:
  79              	.LBE73:
  80              	.LBE72:
  81              	.LBE71:
  82              		.loc 1 67 17 discriminator 1 view .LVU19
  83 0012 8442     		cmp	r4, r0
  84 0014 FBD0     		beq	.L2
  85              	.LBE67:
  86              		.loc 1 74 1 view .LVU20
  87 0016 10BD     		pop	{r4, pc}
  88              	.LVL3:
  89              	.L7:
  90              		.loc 1 74 1 view .LVU21
  91              		.align	2
  92              	.L6:
  93 0018 00000000 		.word	chtest
  94              		.cfi_endproc
  95              	.LFE452:
  96              		.size	rt_test_003_001_execute, .-rt_test_003_001_execute
  97              		.section	.rodata.rt_test_003_002_execute.str1.4,"aMS",%progbits,1
  98              		.align	2
  99              	.LC0:
 100 0000 696E2072 		.ascii	"in range\000"
 100      616E6765 
 100      00
 101 0009 000000   		.align	2
 102              	.LC1:
 103 000c 6E6F7420 		.ascii	"not in range\000"
 103      696E2072 
 103      616E6765 
 103      00
 104              		.section	.text.rt_test_003_002_execute,"ax",%progbits
 105              		.align	1
 106              		.p2align 4,,15
 107              		.syntax unified
 108              		.thumb
 109              		.thumb_func
ARM GAS  C:\Users\DEVELO~1\AppData\Local\Temp\ccqNMLdz.s 			page 3


 110              		.type	rt_test_003_002_execute, %function
 111              	rt_test_003_002_execute:
 112              	.LFB453:
 113              		.loc 1 97 43 is_stmt 1 view -0
 114              		.cfi_startproc
 115              		@ args = 0, pretend = 0, frame = 0
 116              		@ frame_needed = 0, uses_anonymous_args = 0
 117              		.loc 1 101 3 view .LVU23
 118              		.loc 1 97 43 is_stmt 0 view .LVU24
 119 0000 38B5     		push	{r3, r4, r5, lr}
 120              		.cfi_def_cfa_offset 16
 121              		.cfi_offset 3, -16
 122              		.cfi_offset 4, -12
 123              		.cfi_offset 5, -8
 124              		.cfi_offset 14, -4
 125              		.loc 1 101 3 view .LVU25
 126 0002 0124     		movs	r4, #1
 127 0004 264D     		ldr	r5, .L14
 128              	.LBB104:
 129              		.loc 1 106 5 view .LVU26
 130 0006 2749     		ldr	r1, .L14+4
 131 0008 2046     		mov	r0, r4
 132              	.LBE104:
 133              		.loc 1 101 3 view .LVU27
 134 000a 2C60     		str	r4, [r5]
 135              	.LBB105:
 136              		.loc 1 103 5 is_stmt 1 view .LVU28
 137              		.loc 1 105 5 view .LVU29
 138              	.LVL4:
 139              		.loc 1 106 5 view .LVU30
 140 000c FFF7FEFF 		bl	__test_assert
 141              	.LVL5:
 142 0010 00B1     		cbz	r0, .L13
 143              	.L8:
 144              	.LBE105:
 145              		.loc 1 147 1 is_stmt 0 view .LVU31
 146 0012 38BD     		pop	{r3, r4, r5, pc}
 147              	.L13:
 148              	.LBB106:
 149              		.loc 1 106 40 is_stmt 1 view .LVU32
 150              		.loc 1 107 5 view .LVU33
 151              		.loc 1 108 5 view .LVU34
 152 0014 2349     		ldr	r1, .L14+4
 153 0016 2046     		mov	r0, r4
 154 0018 FFF7FEFF 		bl	__test_assert
 155              	.LVL6:
 156 001c 0028     		cmp	r0, #0
 157 001e F8D1     		bne	.L8
 158              		.loc 1 108 40 view .LVU35
 159              		.loc 1 109 5 view .LVU36
 160              		.loc 1 110 5 view .LVU37
 161 0020 2049     		ldr	r1, .L14+4
 162 0022 2046     		mov	r0, r4
 163 0024 FFF7FEFF 		bl	__test_assert
 164              	.LVL7:
 165 0028 0028     		cmp	r0, #0
 166 002a F2D1     		bne	.L8
ARM GAS  C:\Users\DEVELO~1\AppData\Local\Temp\ccqNMLdz.s 			page 4


 167              	.LBE106:
 168              	.LBB107:
 169              	.LBI107:
 170              		.loc 1 97 13 view .LVU38
 171              	.LBB108:
 172              	.LBB109:
 173              		.loc 1 110 40 view .LVU39
 174              		.loc 1 111 5 view .LVU40
 175              	.LVL8:
 176              		.loc 1 112 5 view .LVU41
 177 002c 1D49     		ldr	r1, .L14+4
 178 002e 2046     		mov	r0, r4
 179 0030 FFF7FEFF 		bl	__test_assert
 180              	.LVL9:
 181 0034 0028     		cmp	r0, #0
 182 0036 ECD1     		bne	.L8
 183              		.loc 1 112 40 view .LVU42
 184              	.LBE109:
 185              		.loc 1 114 3 view .LVU43
 186              		.loc 1 114 19 view .LVU44
 187              		.loc 1 117 3 view .LVU45
 188 0038 0223     		movs	r3, #2
 189              	.LBB110:
 190              		.loc 1 122 5 is_stmt 0 view .LVU46
 191 003a 1B49     		ldr	r1, .L14+8
 192 003c 2046     		mov	r0, r4
 193              	.LBE110:
 194              		.loc 1 117 3 view .LVU47
 195 003e 2B60     		str	r3, [r5]
 196              	.LBB111:
 197              		.loc 1 119 5 is_stmt 1 view .LVU48
 198              		.loc 1 121 5 view .LVU49
 199              	.LVL10:
 200              		.loc 1 122 5 view .LVU50
 201 0040 FFF7FEFF 		bl	__test_assert
 202              	.LVL11:
 203 0044 0028     		cmp	r0, #0
 204 0046 E4D1     		bne	.L8
 205              		.loc 1 122 43 view .LVU51
 206              		.loc 1 123 5 view .LVU52
 207              	.LVL12:
 208              		.loc 1 124 5 view .LVU53
 209 0048 1649     		ldr	r1, .L14+4
 210 004a 2046     		mov	r0, r4
 211 004c FFF7FEFF 		bl	__test_assert
 212              	.LVL13:
 213 0050 0028     		cmp	r0, #0
 214 0052 DED1     		bne	.L8
 215              		.loc 1 124 40 view .LVU54
 216              		.loc 1 125 5 view .LVU55
 217              	.LVL14:
 218              		.loc 1 126 5 view .LVU56
 219 0054 1449     		ldr	r1, .L14+8
 220 0056 2046     		mov	r0, r4
 221 0058 FFF7FEFF 		bl	__test_assert
 222              	.LVL15:
 223 005c 0028     		cmp	r0, #0
ARM GAS  C:\Users\DEVELO~1\AppData\Local\Temp\ccqNMLdz.s 			page 5


 224 005e D8D1     		bne	.L8
 225              		.loc 1 126 43 view .LVU57
 226              		.loc 1 127 5 view .LVU58
 227              	.LVL16:
 228              		.loc 1 128 5 view .LVU59
 229 0060 1049     		ldr	r1, .L14+4
 230 0062 2046     		mov	r0, r4
 231 0064 FFF7FEFF 		bl	__test_assert
 232              	.LVL17:
 233 0068 0028     		cmp	r0, #0
 234 006a D2D1     		bne	.L8
 235              		.loc 1 128 40 view .LVU60
 236              	.LBE111:
 237              		.loc 1 130 3 view .LVU61
 238              		.loc 1 130 19 view .LVU62
 239              		.loc 1 133 3 view .LVU63
 240 006c 0323     		movs	r3, #3
 241              	.LBB112:
 242              		.loc 1 138 5 is_stmt 0 view .LVU64
 243 006e 0E49     		ldr	r1, .L14+8
 244 0070 2046     		mov	r0, r4
 245              	.LBE112:
 246              		.loc 1 133 3 view .LVU65
 247 0072 2B60     		str	r3, [r5]
 248              	.LBB113:
 249              		.loc 1 135 5 is_stmt 1 view .LVU66
 250              		.loc 1 137 5 view .LVU67
 251              	.LVL18:
 252              		.loc 1 138 5 view .LVU68
 253 0074 FFF7FEFF 		bl	__test_assert
 254              	.LVL19:
 255 0078 0028     		cmp	r0, #0
 256 007a CAD1     		bne	.L8
 257              		.loc 1 138 43 view .LVU69
 258              		.loc 1 139 5 view .LVU70
 259              	.LVL20:
 260              		.loc 1 140 5 view .LVU71
 261 007c 0949     		ldr	r1, .L14+4
 262 007e 2046     		mov	r0, r4
 263 0080 FFF7FEFF 		bl	__test_assert
 264              	.LVL21:
 265 0084 0028     		cmp	r0, #0
 266 0086 C4D1     		bne	.L8
 267              		.loc 1 140 40 view .LVU72
 268              		.loc 1 141 5 view .LVU73
 269              	.LVL22:
 270              		.loc 1 142 5 view .LVU74
 271 0088 0749     		ldr	r1, .L14+8
 272 008a 2046     		mov	r0, r4
 273 008c FFF7FEFF 		bl	__test_assert
 274              	.LVL23:
 275 0090 0028     		cmp	r0, #0
 276 0092 BED1     		bne	.L8
 277              		.loc 1 142 43 view .LVU75
 278              		.loc 1 143 5 view .LVU76
 279              	.LVL24:
 280              		.loc 1 144 5 view .LVU77
ARM GAS  C:\Users\DEVELO~1\AppData\Local\Temp\ccqNMLdz.s 			page 6


 281 0094 2046     		mov	r0, r4
 282 0096 0349     		ldr	r1, .L14+4
 283              	.LBE113:
 284              	.LBE108:
 285              	.LBE107:
 286              		.loc 1 147 1 is_stmt 0 view .LVU78
 287 0098 BDE83840 		pop	{r3, r4, r5, lr}
 288              		.cfi_restore 14
 289              		.cfi_restore 5
 290              		.cfi_restore 4
 291              		.cfi_restore 3
 292              		.cfi_def_cfa_offset 0
 293              	.LBB116:
 294              	.LBB115:
 295              	.LBB114:
 296              		.loc 1 144 5 view .LVU79
 297 009c FFF7FEBF 		b	__test_assert
 298              	.LVL25:
 299              	.L15:
 300              		.align	2
 301              	.L14:
 302 00a0 00000000 		.word	chtest
 303 00a4 00000000 		.word	.LC0
 304 00a8 0C000000 		.word	.LC1
 305              	.LBE114:
 306              	.LBE115:
 307              	.LBE116:
 308              		.cfi_endproc
 309              	.LFE453:
 310              		.size	rt_test_003_002_execute, .-rt_test_003_002_execute
 311              		.global	rt_test_sequence_003
 312              		.section	.rodata.str1.4,"aMS",%progbits,1
 313              		.align	2
 314              	.LC2:
 315 0000 54696D65 		.ascii	"Time and Intervals Functionality\000"
 315      20616E64 
 315      20496E74 
 315      65727661 
 315      6C732046 
 316              		.global	rt_test_sequence_003_array
 317 0021 000000   		.align	2
 318              	.LC3:
 319 0024 54696D65 		.ascii	"Time ranges functionality\000"
 319      2072616E 
 319      67657320 
 319      66756E63 
 319      74696F6E 
 320 003e 0000     		.align	2
 321              	.LC4:
 322 0040 53797374 		.ascii	"System Tick Counter functionality\000"
 322      656D2054 
 322      69636B20 
 322      436F756E 
 322      74657220 
 323              		.section	.rodata.rt_test_003_001,"a"
 324              		.align	2
 325              		.type	rt_test_003_001, %object
ARM GAS  C:\Users\DEVELO~1\AppData\Local\Temp\ccqNMLdz.s 			page 7


 326              		.size	rt_test_003_001, 16
 327              	rt_test_003_001:
 328 0000 40000000 		.word	.LC4
 329 0004 00000000 		.word	0
 330 0008 00000000 		.word	0
 331 000c 00000000 		.word	rt_test_003_001_execute
 332              		.section	.rodata.rt_test_003_002,"a"
 333              		.align	2
 334              		.type	rt_test_003_002, %object
 335              		.size	rt_test_003_002, 16
 336              	rt_test_003_002:
 337 0000 24000000 		.word	.LC3
 338 0004 00000000 		.word	0
 339 0008 00000000 		.word	0
 340 000c 00000000 		.word	rt_test_003_002_execute
 341              		.section	.rodata.rt_test_sequence_003,"a"
 342              		.align	2
 343              		.type	rt_test_sequence_003, %object
 344              		.size	rt_test_sequence_003, 8
 345              	rt_test_sequence_003:
 346 0000 00000000 		.word	.LC2
 347 0004 00000000 		.word	rt_test_sequence_003_array
 348              		.section	.rodata.rt_test_sequence_003_array,"a"
 349              		.align	2
 350              		.type	rt_test_sequence_003_array, %object
 351              		.size	rt_test_sequence_003_array, 12
 352              	rt_test_sequence_003_array:
 353 0000 00000000 		.word	rt_test_003_001
 354 0004 00000000 		.word	rt_test_003_002
 355 0008 00000000 		.word	0
 356              		.text
 357              	.Letext0:
 358              		.file 4 "c:\\chibistudio\\tools\\gnu tools arm embedded\\11.3 2022.08\\lib\\gcc\\arm-none-eabi\\11
 359              		.file 5 "c:\\chibistudio\\tools\\gnu tools arm embedded\\11.3 2022.08\\arm-none-eabi\\include\\mac
 360              		.file 6 "c:\\chibistudio\\tools\\gnu tools arm embedded\\11.3 2022.08\\arm-none-eabi\\include\\sys
 361              		.file 7 "./ChibiOS/os/rt/include/chearly.h"
 362              		.file 8 "./ChibiOS/os/rt/include/chtime.h"
 363              		.file 9 "./ChibiOS/os/hal/include/hal_streams.h"
 364              		.file 10 "./ChibiOS/os/test/include/ch_test.h"
 365              		.file 11 "./ChibiOS/test/rt/source/test/rt_test_sequence_003.h"
 366              		.file 12 "./ChibiOS/os/hal/include/hal_st.h"
 367              		.section	.debug_info,"",%progbits
 368              	.Ldebug_info0:
 369 0000 B6060000 		.4byte	0x6b6
 370 0004 0500     		.2byte	0x5
 371 0006 01       		.byte	0x1
 372 0007 04       		.byte	0x4
 373 0008 00000000 		.4byte	.Ldebug_abbrev0
 374 000c 19       		.uleb128 0x19
 375 000d 1E030000 		.4byte	.LASF51
 376 0011 1D       		.byte	0x1d
 377 0012 D2000000 		.4byte	.LASF52
 378 0016 A7010000 		.4byte	.LASF53
 379 001a 43000000 		.4byte	.LLRL7
 380 001e 00000000 		.4byte	0
 381 0022 00000000 		.4byte	.Ldebug_line0
 382 0026 1A       		.uleb128 0x1a
ARM GAS  C:\Users\DEVELO~1\AppData\Local\Temp\ccqNMLdz.s 			page 8


 383 0027 04       		.byte	0x4
 384 0028 05       		.byte	0x5
 385 0029 696E7400 		.ascii	"int\000"
 386 002d 03       		.uleb128 0x3
 387 002e 36000000 		.4byte	.LASF4
 388 0032 04       		.byte	0x4
 389 0033 D1       		.byte	0xd1
 390 0034 17       		.byte	0x17
 391 0035 39000000 		.4byte	0x39
 392 0039 05       		.uleb128 0x5
 393 003a 04       		.byte	0x4
 394 003b 07       		.byte	0x7
 395 003c 77020000 		.4byte	.LASF0
 396 0040 05       		.uleb128 0x5
 397 0041 08       		.byte	0x8
 398 0042 05       		.byte	0x5
 399 0043 44010000 		.4byte	.LASF1
 400 0047 05       		.uleb128 0x5
 401 0048 08       		.byte	0x8
 402 0049 04       		.byte	0x4
 403 004a 26020000 		.4byte	.LASF2
 404 004e 05       		.uleb128 0x5
 405 004f 01       		.byte	0x1
 406 0050 06       		.byte	0x6
 407 0051 4B020000 		.4byte	.LASF3
 408 0055 03       		.uleb128 0x3
 409 0056 F6010000 		.4byte	.LASF5
 410 005a 05       		.byte	0x5
 411 005b 2B       		.byte	0x2b
 412 005c 18       		.byte	0x18
 413 005d 61000000 		.4byte	0x61
 414 0061 05       		.uleb128 0x5
 415 0062 01       		.byte	0x1
 416 0063 08       		.byte	0x8
 417 0064 32020000 		.4byte	.LASF6
 418 0068 05       		.uleb128 0x5
 419 0069 02       		.byte	0x2
 420 006a 05       		.byte	0x5
 421 006b 2C000000 		.4byte	.LASF7
 422 006f 05       		.uleb128 0x5
 423 0070 02       		.byte	0x2
 424 0071 07       		.byte	0x7
 425 0072 8F020000 		.4byte	.LASF8
 426 0076 03       		.uleb128 0x3
 427 0077 D3030000 		.4byte	.LASF9
 428 007b 05       		.byte	0x5
 429 007c 4D       		.byte	0x4d
 430 007d 18       		.byte	0x18
 431 007e 82000000 		.4byte	0x82
 432 0082 05       		.uleb128 0x5
 433 0083 04       		.byte	0x4
 434 0084 05       		.byte	0x5
 435 0085 B1020000 		.4byte	.LASF10
 436 0089 03       		.uleb128 0x3
 437 008a 8D000000 		.4byte	.LASF11
 438 008e 05       		.byte	0x5
 439 008f 4F       		.byte	0x4f
ARM GAS  C:\Users\DEVELO~1\AppData\Local\Temp\ccqNMLdz.s 			page 9


 440 0090 19       		.byte	0x19
 441 0091 95000000 		.4byte	0x95
 442 0095 05       		.uleb128 0x5
 443 0096 04       		.byte	0x4
 444 0097 07       		.byte	0x7
 445 0098 0C030000 		.4byte	.LASF12
 446 009c 05       		.uleb128 0x5
 447 009d 08       		.byte	0x8
 448 009e 07       		.byte	0x7
 449 009f 57020000 		.4byte	.LASF13
 450 00a3 03       		.uleb128 0x3
 451 00a4 07010000 		.4byte	.LASF14
 452 00a8 06       		.byte	0x6
 453 00a9 18       		.byte	0x18
 454 00aa 13       		.byte	0x13
 455 00ab 55000000 		.4byte	0x55
 456 00af 08       		.uleb128 0x8
 457 00b0 A3000000 		.4byte	0xa3
 458 00b4 03       		.uleb128 0x3
 459 00b5 BA020000 		.4byte	.LASF15
 460 00b9 06       		.byte	0x6
 461 00ba 2C       		.byte	0x2c
 462 00bb 13       		.byte	0x13
 463 00bc 76000000 		.4byte	0x76
 464 00c0 03       		.uleb128 0x3
 465 00c1 6E020000 		.4byte	.LASF16
 466 00c5 06       		.byte	0x6
 467 00c6 30       		.byte	0x30
 468 00c7 14       		.byte	0x14
 469 00c8 89000000 		.4byte	0x89
 470 00cc 03       		.uleb128 0x3
 471 00cd E5030000 		.4byte	.LASF17
 472 00d1 07       		.byte	0x7
 473 00d2 58       		.byte	0x58
 474 00d3 19       		.byte	0x19
 475 00d4 B4000000 		.4byte	0xb4
 476 00d8 04       		.uleb128 0x4
 477 00d9 E4000000 		.4byte	0xe4
 478 00dd 05       		.uleb128 0x5
 479 00de 01       		.byte	0x1
 480 00df 08       		.byte	0x8
 481 00e0 AC020000 		.4byte	.LASF18
 482 00e4 08       		.uleb128 0x8
 483 00e5 DD000000 		.4byte	0xdd
 484 00e9 03       		.uleb128 0x3
 485 00ea A2020000 		.4byte	.LASF19
 486 00ee 08       		.byte	0x8
 487 00ef 6D       		.byte	0x6d
 488 00f0 12       		.byte	0x12
 489 00f1 C0000000 		.4byte	0xc0
 490 00f5 04       		.uleb128 0x4
 491 00f6 A3000000 		.4byte	0xa3
 492 00fa 1B       		.uleb128 0x1b
 493 00fb 04       		.byte	0x4
 494 00fc 05       		.uleb128 0x5
 495 00fd 01       		.byte	0x1
 496 00fe 02       		.byte	0x2
ARM GAS  C:\Users\DEVELO~1\AppData\Local\Temp\ccqNMLdz.s 			page 10


 497 00ff C2020000 		.4byte	.LASF20
 498 0103 1C       		.uleb128 0x1c
 499 0104 EB030000 		.4byte	.LASF54
 500 0108 14       		.byte	0x14
 501 0109 09       		.byte	0x9
 502 010a 4F       		.byte	0x4f
 503 010b 08       		.byte	0x8
 504 010c 50010000 		.4byte	0x150
 505 0110 02       		.uleb128 0x2
 506 0111 63010000 		.4byte	.LASF21
 507 0115 09       		.byte	0x9
 508 0116 50       		.byte	0x50
 509 0117 03       		.byte	0x3
 510 0118 2D000000 		.4byte	0x2d
 511 011c 00       		.byte	0
 512 011d 02       		.uleb128 0x2
 513 011e 26000000 		.4byte	.LASF22
 514 0122 09       		.byte	0x9
 515 0123 50       		.byte	0x50
 516 0124 03       		.byte	0x3
 517 0125 73010000 		.4byte	0x173
 518 0129 04       		.byte	0x4
 519 012a 02       		.uleb128 0x2
 520 012b 3F010000 		.4byte	.LASF23
 521 012f 09       		.byte	0x9
 522 0130 50       		.byte	0x50
 523 0131 03       		.byte	0x3
 524 0132 91010000 		.4byte	0x191
 525 0136 08       		.byte	0x8
 526 0137 0B       		.uleb128 0xb
 527 0138 70757400 		.ascii	"put\000"
 528 013c 50       		.byte	0x50
 529 013d 03       		.byte	0x3
 530 013e AA010000 		.4byte	0x1aa
 531 0142 0C       		.byte	0xc
 532 0143 0B       		.uleb128 0xb
 533 0144 67657400 		.ascii	"get\000"
 534 0148 50       		.byte	0x50
 535 0149 03       		.byte	0x3
 536 014a BE010000 		.4byte	0x1be
 537 014e 10       		.byte	0x10
 538 014f 00       		.byte	0
 539 0150 08       		.uleb128 0x8
 540 0151 03010000 		.4byte	0x103
 541 0155 09       		.uleb128 0x9
 542 0156 2D000000 		.4byte	0x2d
 543 015a 6E010000 		.4byte	0x16e
 544 015e 06       		.uleb128 0x6
 545 015f FA000000 		.4byte	0xfa
 546 0163 06       		.uleb128 0x6
 547 0164 6E010000 		.4byte	0x16e
 548 0168 06       		.uleb128 0x6
 549 0169 2D000000 		.4byte	0x2d
 550 016d 00       		.byte	0
 551 016e 04       		.uleb128 0x4
 552 016f AF000000 		.4byte	0xaf
 553 0173 04       		.uleb128 0x4
ARM GAS  C:\Users\DEVELO~1\AppData\Local\Temp\ccqNMLdz.s 			page 11


 554 0174 55010000 		.4byte	0x155
 555 0178 09       		.uleb128 0x9
 556 0179 2D000000 		.4byte	0x2d
 557 017d 91010000 		.4byte	0x191
 558 0181 06       		.uleb128 0x6
 559 0182 FA000000 		.4byte	0xfa
 560 0186 06       		.uleb128 0x6
 561 0187 F5000000 		.4byte	0xf5
 562 018b 06       		.uleb128 0x6
 563 018c 2D000000 		.4byte	0x2d
 564 0190 00       		.byte	0
 565 0191 04       		.uleb128 0x4
 566 0192 78010000 		.4byte	0x178
 567 0196 09       		.uleb128 0x9
 568 0197 CC000000 		.4byte	0xcc
 569 019b AA010000 		.4byte	0x1aa
 570 019f 06       		.uleb128 0x6
 571 01a0 FA000000 		.4byte	0xfa
 572 01a4 06       		.uleb128 0x6
 573 01a5 A3000000 		.4byte	0xa3
 574 01a9 00       		.byte	0
 575 01aa 04       		.uleb128 0x4
 576 01ab 96010000 		.4byte	0x196
 577 01af 09       		.uleb128 0x9
 578 01b0 CC000000 		.4byte	0xcc
 579 01b4 BE010000 		.4byte	0x1be
 580 01b8 06       		.uleb128 0x6
 581 01b9 FA000000 		.4byte	0xfa
 582 01bd 00       		.byte	0
 583 01be 04       		.uleb128 0x4
 584 01bf AF010000 		.4byte	0x1af
 585 01c3 0A       		.uleb128 0xa
 586 01c4 04       		.byte	0x4
 587 01c5 09       		.byte	0x9
 588 01c6 5A       		.byte	0x5a
 589 01c7 D8010000 		.4byte	0x1d8
 590 01cb 0B       		.uleb128 0xb
 591 01cc 766D7400 		.ascii	"vmt\000"
 592 01d0 5C       		.byte	0x5c
 593 01d1 29       		.byte	0x29
 594 01d2 D8010000 		.4byte	0x1d8
 595 01d6 00       		.byte	0
 596 01d7 00       		.byte	0
 597 01d8 04       		.uleb128 0x4
 598 01d9 50010000 		.4byte	0x150
 599 01dd 03       		.uleb128 0x3
 600 01de 64000000 		.4byte	.LASF24
 601 01e2 09       		.byte	0x9
 602 01e3 5E       		.byte	0x5e
 603 01e4 03       		.byte	0x3
 604 01e5 C3010000 		.4byte	0x1c3
 605 01e9 03       		.uleb128 0x3
 606 01ea 0F010000 		.4byte	.LASF25
 607 01ee 0A       		.byte	0xa
 608 01ef 7D       		.byte	0x7d
 609 01f0 0F       		.byte	0xf
 610 01f1 F5010000 		.4byte	0x1f5
ARM GAS  C:\Users\DEVELO~1\AppData\Local\Temp\ccqNMLdz.s 			page 12


 611 01f5 04       		.uleb128 0x4
 612 01f6 FA010000 		.4byte	0x1fa
 613 01fa 09       		.uleb128 0x9
 614 01fb 26000000 		.4byte	0x26
 615 01ff 09020000 		.4byte	0x209
 616 0203 06       		.uleb128 0x6
 617 0204 26000000 		.4byte	0x26
 618 0208 00       		.byte	0
 619 0209 0A       		.uleb128 0xa
 620 020a 28       		.byte	0x28
 621 020b 0A       		.byte	0xa
 622 020c 82       		.byte	0x82
 623 020d 7A020000 		.4byte	0x27a
 624 0211 02       		.uleb128 0x2
 625 0212 1E010000 		.4byte	.LASF26
 626 0216 0A       		.byte	0xa
 627 0217 86       		.byte	0x86
 628 0218 15       		.byte	0x15
 629 0219 39000000 		.4byte	0x39
 630 021d 00       		.byte	0
 631 021e 02       		.uleb128 0x2
 632 021f 3D000000 		.4byte	.LASF27
 633 0223 0A       		.byte	0xa
 634 0224 8A       		.byte	0x8a
 635 0225 15       		.byte	0x15
 636 0226 FC000000 		.4byte	0xfc
 637 022a 04       		.byte	0x4
 638 022b 02       		.uleb128 0x2
 639 022c 40020000 		.4byte	.LASF28
 640 0230 0A       		.byte	0xa
 641 0231 8E       		.byte	0x8e
 642 0232 15       		.byte	0x15
 643 0233 FC000000 		.4byte	0xfc
 644 0237 05       		.byte	0x5
 645 0238 02       		.uleb128 0x2
 646 0239 73010000 		.4byte	.LASF29
 647 023d 0A       		.byte	0xa
 648 023e 92       		.byte	0x92
 649 023f 16       		.byte	0x16
 650 0240 D8000000 		.4byte	0xd8
 651 0244 08       		.byte	0x8
 652 0245 02       		.uleb128 0x2
 653 0246 83010000 		.4byte	.LASF30
 654 024a 0A       		.byte	0xa
 655 024b 96       		.byte	0x96
 656 024c 16       		.byte	0x16
 657 024d 7A020000 		.4byte	0x27a
 658 0251 0C       		.byte	0xc
 659 0252 02       		.uleb128 0x2
 660 0253 18000000 		.4byte	.LASF31
 661 0257 0A       		.byte	0xa
 662 0258 9A       		.byte	0x9a
 663 0259 15       		.byte	0x15
 664 025a 7F020000 		.4byte	0x27f
 665 025e 10       		.byte	0x10
 666 025f 02       		.uleb128 0x2
 667 0260 49000000 		.4byte	.LASF32
ARM GAS  C:\Users\DEVELO~1\AppData\Local\Temp\ccqNMLdz.s 			page 13


 668 0264 0A       		.byte	0xa
 669 0265 9E       		.byte	0x9e
 670 0266 15       		.byte	0x15
 671 0267 E9010000 		.4byte	0x1e9
 672 026b 20       		.byte	0x20
 673 026c 02       		.uleb128 0x2
 674 026d A0010000 		.4byte	.LASF33
 675 0271 0A       		.byte	0xa
 676 0272 A3       		.byte	0xa3
 677 0273 19       		.byte	0x19
 678 0274 8F020000 		.4byte	0x28f
 679 0278 24       		.byte	0x24
 680 0279 00       		.byte	0
 681 027a 04       		.uleb128 0x4
 682 027b DD000000 		.4byte	0xdd
 683 027f 0F       		.uleb128 0xf
 684 0280 DD000000 		.4byte	0xdd
 685 0284 8F020000 		.4byte	0x28f
 686 0288 10       		.uleb128 0x10
 687 0289 39000000 		.4byte	0x39
 688 028d 0F       		.byte	0xf
 689 028e 00       		.byte	0
 690 028f 04       		.uleb128 0x4
 691 0290 DD010000 		.4byte	0x1dd
 692 0294 03       		.uleb128 0x3
 693 0295 06000000 		.4byte	.LASF34
 694 0299 0A       		.byte	0xa
 695 029a A5       		.byte	0xa5
 696 029b 03       		.byte	0x3
 697 029c 09020000 		.4byte	0x209
 698 02a0 0A       		.uleb128 0xa
 699 02a1 10       		.byte	0x10
 700 02a2 0A       		.byte	0xa
 701 02a3 AA       		.byte	0xaa
 702 02a4 DD020000 		.4byte	0x2dd
 703 02a8 02       		.uleb128 0x2
 704 02a9 21020000 		.4byte	.LASF35
 705 02ad 0A       		.byte	0xa
 706 02ae AB       		.byte	0xab
 707 02af 0F       		.byte	0xf
 708 02b0 D8000000 		.4byte	0xd8
 709 02b4 00       		.byte	0
 710 02b5 02       		.uleb128 0x2
 711 02b6 2B010000 		.4byte	.LASF36
 712 02ba 0A       		.byte	0xa
 713 02bb AC       		.byte	0xac
 714 02bc 0A       		.byte	0xa
 715 02bd DE020000 		.4byte	0x2de
 716 02c1 04       		.byte	0x4
 717 02c2 02       		.uleb128 0x2
 718 02c3 18020000 		.4byte	.LASF37
 719 02c7 0A       		.byte	0xa
 720 02c8 AD       		.byte	0xad
 721 02c9 0A       		.byte	0xa
 722 02ca DE020000 		.4byte	0x2de
 723 02ce 08       		.byte	0x8
 724 02cf 02       		.uleb128 0x2
ARM GAS  C:\Users\DEVELO~1\AppData\Local\Temp\ccqNMLdz.s 			page 14


 725 02d0 DD030000 		.4byte	.LASF38
 726 02d4 0A       		.byte	0xa
 727 02d5 AE       		.byte	0xae
 728 02d6 0A       		.byte	0xa
 729 02d7 DE020000 		.4byte	0x2de
 730 02db 0C       		.byte	0xc
 731 02dc 00       		.byte	0
 732 02dd 1D       		.uleb128 0x1d
 733 02de 04       		.uleb128 0x4
 734 02df DD020000 		.4byte	0x2dd
 735 02e3 03       		.uleb128 0x3
 736 02e4 A7000000 		.4byte	.LASF39
 737 02e8 0A       		.byte	0xa
 738 02e9 AF       		.byte	0xaf
 739 02ea 03       		.byte	0x3
 740 02eb A0020000 		.4byte	0x2a0
 741 02ef 08       		.uleb128 0x8
 742 02f0 E3020000 		.4byte	0x2e3
 743 02f4 0A       		.uleb128 0xa
 744 02f5 08       		.byte	0x8
 745 02f6 0A       		.byte	0xa
 746 02f7 B4       		.byte	0xb4
 747 02f8 17030000 		.4byte	0x317
 748 02fc 02       		.uleb128 0x2
 749 02fd 21020000 		.4byte	.LASF35
 750 0301 0A       		.byte	0xa
 751 0302 B5       		.byte	0xb5
 752 0303 16       		.byte	0x16
 753 0304 D8000000 		.4byte	0xd8
 754 0308 00       		.byte	0
 755 0309 02       		.uleb128 0x2
 756 030a 00000000 		.4byte	.LASF40
 757 030e 0A       		.byte	0xa
 758 030f B6       		.byte	0xb6
 759 0310 1E       		.byte	0x1e
 760 0311 17030000 		.4byte	0x317
 761 0315 04       		.byte	0x4
 762 0316 00       		.byte	0
 763 0317 04       		.uleb128 0x4
 764 0318 21030000 		.4byte	0x321
 765 031c 04       		.uleb128 0x4
 766 031d EF020000 		.4byte	0x2ef
 767 0321 08       		.uleb128 0x8
 768 0322 1C030000 		.4byte	0x31c
 769 0326 03       		.uleb128 0x3
 770 0327 98000000 		.4byte	.LASF41
 771 032b 0A       		.byte	0xa
 772 032c B7       		.byte	0xb7
 773 032d 03       		.byte	0x3
 774 032e F4020000 		.4byte	0x2f4
 775 0332 08       		.uleb128 0x8
 776 0333 26030000 		.4byte	0x326
 777 0337 1E       		.uleb128 0x1e
 778 0338 79000000 		.4byte	.LASF42
 779 033c 0A       		.byte	0xa
 780 033d 2901     		.2byte	0x129
 781 033f 1A       		.byte	0x1a
ARM GAS  C:\Users\DEVELO~1\AppData\Local\Temp\ccqNMLdz.s 			page 15


 782 0340 94020000 		.4byte	0x294
 783 0344 1F       		.uleb128 0x1f
 784 0345 F7020000 		.4byte	.LASF43
 785 0349 0B       		.byte	0xb
 786 034a 19       		.byte	0x19
 787 034b 1D       		.byte	0x1d
 788 034c 32030000 		.4byte	0x332
 789 0350 11       		.uleb128 0x11
 790 0351 B2000000 		.4byte	.LASF44
 791 0355 4C       		.byte	0x4c
 792 0356 EF020000 		.4byte	0x2ef
 793 035a 05       		.uleb128 0x5
 794 035b 03       		.byte	0x3
 795 035c 00000000 		.4byte	rt_test_003_001
 796 0360 11       		.uleb128 0x11
 797 0361 C2000000 		.4byte	.LASF45
 798 0365 95       		.byte	0x95
 799 0366 EF020000 		.4byte	0x2ef
 800 036a 05       		.uleb128 0x5
 801 036b 03       		.byte	0x3
 802 036c 00000000 		.4byte	rt_test_003_002
 803 0370 0F       		.uleb128 0xf
 804 0371 21030000 		.4byte	0x321
 805 0375 80030000 		.4byte	0x380
 806 0379 10       		.uleb128 0x10
 807 037a 39000000 		.4byte	0x39
 808 037e 02       		.byte	0x2
 809 037f 00       		.byte	0
 810 0380 08       		.uleb128 0x8
 811 0381 70030000 		.4byte	0x370
 812 0385 20       		.uleb128 0x20
 813 0386 C8020000 		.4byte	.LASF46
 814 038a 01       		.byte	0x1
 815 038b A3       		.byte	0xa3
 816 038c 1A       		.byte	0x1a
 817 038d 80030000 		.4byte	0x380
 818 0391 05       		.uleb128 0x5
 819 0392 03       		.byte	0x3
 820 0393 00000000 		.4byte	rt_test_sequence_003_array
 821 0397 21       		.uleb128 0x21
 822 0398 44030000 		.4byte	0x344
 823 039c 01       		.byte	0x1
 824 039d AC       		.byte	0xac
 825 039e 16       		.byte	0x16
 826 039f 05       		.uleb128 0x5
 827 03a0 03       		.byte	0x3
 828 03a1 00000000 		.4byte	rt_test_sequence_003
 829 03a5 22       		.uleb128 0x22
 830 03a6 80000000 		.4byte	.LASF55
 831 03aa 0C       		.byte	0xc
 832 03ab 4B       		.byte	0x4b
 833 03ac 0D       		.byte	0xd
 834 03ad E9000000 		.4byte	0xe9
 835 03b1 23       		.uleb128 0x23
 836 03b2 31010000 		.4byte	.LASF56
 837 03b6 0A       		.byte	0xa
 838 03b7 3001     		.2byte	0x130
ARM GAS  C:\Users\DEVELO~1\AppData\Local\Temp\ccqNMLdz.s 			page 16


 839 03b9 08       		.byte	0x8
 840 03ba FC000000 		.4byte	0xfc
 841 03be CD030000 		.4byte	0x3cd
 842 03c2 06       		.uleb128 0x6
 843 03c3 FC000000 		.4byte	0xfc
 844 03c7 06       		.uleb128 0x6
 845 03c8 D8000000 		.4byte	0xd8
 846 03cc 00       		.byte	0
 847 03cd 24       		.uleb128 0x24
 848 03ce 00020000 		.4byte	.LASF57
 849 03d2 01       		.byte	0x1
 850 03d3 61       		.byte	0x61
 851 03d4 0D       		.byte	0xd
 852 03d5 01       		.byte	0x1
 853 03d6 54040000 		.4byte	0x454
 854 03da 12       		.uleb128 0x12
 855 03db 3B040000 		.4byte	0x43b
 856 03df 0C       		.uleb128 0xc
 857 03e0 6200     		.ascii	"b\000"
 858 03e2 67       		.byte	0x67
 859 03e3 FC000000 		.4byte	0xfc
 860 03e7 07       		.uleb128 0x7
 861 03e8 10000000 		.4byte	.LVL5
 862 03ec B1030000 		.4byte	0x3b1
 863 03f0 04040000 		.4byte	0x404
 864 03f4 01       		.uleb128 0x1
 865 03f5 01       		.uleb128 0x1
 866 03f6 50       		.byte	0x50
 867 03f7 02       		.uleb128 0x2
 868 03f8 74       		.byte	0x74
 869 03f9 00       		.sleb128 0
 870 03fa 01       		.uleb128 0x1
 871 03fb 01       		.uleb128 0x1
 872 03fc 51       		.byte	0x51
 873 03fd 05       		.uleb128 0x5
 874 03fe 03       		.byte	0x3
 875 03ff 00000000 		.4byte	.LC0
 876 0403 00       		.byte	0
 877 0404 07       		.uleb128 0x7
 878 0405 1C000000 		.4byte	.LVL6
 879 0409 B1030000 		.4byte	0x3b1
 880 040d 21040000 		.4byte	0x421
 881 0411 01       		.uleb128 0x1
 882 0412 01       		.uleb128 0x1
 883 0413 50       		.byte	0x50
 884 0414 02       		.uleb128 0x2
 885 0415 74       		.byte	0x74
 886 0416 00       		.sleb128 0
 887 0417 01       		.uleb128 0x1
 888 0418 01       		.uleb128 0x1
 889 0419 51       		.byte	0x51
 890 041a 05       		.uleb128 0x5
 891 041b 03       		.byte	0x3
 892 041c 00000000 		.4byte	.LC0
 893 0420 00       		.byte	0
 894 0421 0D       		.uleb128 0xd
 895 0422 28000000 		.4byte	.LVL7
ARM GAS  C:\Users\DEVELO~1\AppData\Local\Temp\ccqNMLdz.s 			page 17


 896 0426 B1030000 		.4byte	0x3b1
 897 042a 01       		.uleb128 0x1
 898 042b 01       		.uleb128 0x1
 899 042c 50       		.byte	0x50
 900 042d 02       		.uleb128 0x2
 901 042e 74       		.byte	0x74
 902 042f 00       		.sleb128 0
 903 0430 01       		.uleb128 0x1
 904 0431 01       		.uleb128 0x1
 905 0432 51       		.byte	0x51
 906 0433 05       		.uleb128 0x5
 907 0434 03       		.byte	0x3
 908 0435 00000000 		.4byte	.LC0
 909 0439 00       		.byte	0
 910 043a 00       		.byte	0
 911 043b 12       		.uleb128 0x12
 912 043c 49040000 		.4byte	0x449
 913 0440 0C       		.uleb128 0xc
 914 0441 6200     		.ascii	"b\000"
 915 0443 77       		.byte	0x77
 916 0444 FC000000 		.4byte	0xfc
 917 0448 00       		.byte	0
 918 0449 25       		.uleb128 0x25
 919 044a 0C       		.uleb128 0xc
 920 044b 6200     		.ascii	"b\000"
 921 044d 87       		.byte	0x87
 922 044e FC000000 		.4byte	0xfc
 923 0452 00       		.byte	0
 924 0453 00       		.byte	0
 925 0454 26       		.uleb128 0x26
 926 0455 88010000 		.4byte	.LASF58
 927 0459 01       		.byte	0x1
 928 045a 3C       		.byte	0x3c
 929 045b 0D       		.byte	0xd
 930 045c 00000000 		.4byte	.LFB452
 931 0460 1C000000 		.4byte	.LFE452-.LFB452
 932 0464 01       		.uleb128 0x1
 933 0465 9C       		.byte	0x9c
 934 0466 F7040000 		.4byte	0x4f7
 935 046a 27       		.uleb128 0x27
 936 046b 08000000 		.4byte	.LBB67
 937 046f 0E000000 		.4byte	.LBE67-.LBB67
 938 0473 28       		.uleb128 0x28
 939 0474 84020000 		.4byte	.LASF47
 940 0478 01       		.byte	0x1
 941 0479 42       		.byte	0x42
 942 047a 0F       		.byte	0xf
 943 047b E9000000 		.4byte	0xe9
 944 047f 10000000 		.4byte	.LLST0
 945 0483 0C000000 		.4byte	.LVUS0
 946 0487 29       		.uleb128 0x29
 947 0488 F7040000 		.4byte	0x4f7
 948 048c 08000000 		.4byte	.LBI68
 949 0490 01       		.byte	.LVU5
 950 0491 08000000 		.4byte	.LBB68
 951 0495 06000000 		.4byte	.LBE68-.LBB68
 952 0499 01       		.byte	0x1
ARM GAS  C:\Users\DEVELO~1\AppData\Local\Temp\ccqNMLdz.s 			page 18


 953 049a 42       		.byte	0x42
 954 049b 16       		.byte	0x16
 955 049c C0040000 		.4byte	0x4c0
 956 04a0 0E       		.uleb128 0xe
 957 04a1 02050000 		.4byte	0x502
 958 04a5 08000000 		.4byte	.LBI69
 959 04a9 03       		.byte	.LVU7
 960 04aa 08000000 		.4byte	.LBB69
 961 04ae 06000000 		.4byte	.LBE69-.LBB69
 962 04b2 02       		.byte	0x2
 963 04b3 8C       		.byte	0x8c
 964 04b4 0A       		.byte	0xa
 965 04b5 13       		.uleb128 0x13
 966 04b6 0C000000 		.4byte	.LVL0
 967 04ba A5030000 		.4byte	0x3a5
 968 04be 00       		.byte	0
 969 04bf 00       		.byte	0
 970 04c0 0E       		.uleb128 0xe
 971 04c1 F7040000 		.4byte	0x4f7
 972 04c5 0E000000 		.4byte	.LBI71
 973 04c9 04       		.byte	.LVU14
 974 04ca 0E000000 		.4byte	.LBB71
 975 04ce 04000000 		.4byte	.LBE71-.LBB71
 976 04d2 01       		.byte	0x1
 977 04d3 43       		.byte	0x43
 978 04d4 14       		.byte	0x14
 979 04d5 0E       		.uleb128 0xe
 980 04d6 02050000 		.4byte	0x502
 981 04da 0E000000 		.4byte	.LBI72
 982 04de 06       		.byte	.LVU16
 983 04df 0E000000 		.4byte	.LBB72
 984 04e3 04000000 		.4byte	.LBE72-.LBB72
 985 04e7 02       		.byte	0x2
 986 04e8 8C       		.byte	0x8c
 987 04e9 0A       		.byte	0xa
 988 04ea 13       		.uleb128 0x13
 989 04eb 12000000 		.4byte	.LVL2
 990 04ef A5030000 		.4byte	0x3a5
 991 04f3 00       		.byte	0
 992 04f4 00       		.byte	0
 993 04f5 00       		.byte	0
 994 04f6 00       		.byte	0
 995 04f7 14       		.uleb128 0x14
 996 04f8 51000000 		.4byte	.LASF48
 997 04fc 02       		.byte	0x2
 998 04fd 87       		.byte	0x87
 999 04fe E9000000 		.4byte	0xe9
 1000 0502 14       		.uleb128 0x14
 1001 0503 E3020000 		.4byte	.LASF49
 1002 0507 03       		.byte	0x3
 1003 0508 6F       		.byte	0x6f
 1004 0509 E9000000 		.4byte	0xe9
 1005 050d 2A       		.uleb128 0x2a
 1006 050e 52010000 		.4byte	.LASF59
 1007 0512 08       		.byte	0x8
 1008 0513 E401     		.2byte	0x1e4
 1009 0515 14       		.byte	0x14
ARM GAS  C:\Users\DEVELO~1\AppData\Local\Temp\ccqNMLdz.s 			page 19


 1010 0516 FC000000 		.4byte	0xfc
 1011 051a 03       		.byte	0x3
 1012 051b 43050000 		.4byte	0x543
 1013 051f 15       		.uleb128 0x15
 1014 0520 84020000 		.4byte	.LASF47
 1015 0524 E401     		.2byte	0x1e4
 1016 0526 E9000000 		.4byte	0xe9
 1017 052a 15       		.uleb128 0x15
 1018 052b 89020000 		.4byte	.LASF50
 1019 052f E501     		.2byte	0x1e5
 1020 0531 E9000000 		.4byte	0xe9
 1021 0535 2B       		.uleb128 0x2b
 1022 0536 656E6400 		.ascii	"end\000"
 1023 053a 08       		.byte	0x8
 1024 053b E601     		.2byte	0x1e6
 1025 053d 2F       		.byte	0x2f
 1026 053e E9000000 		.4byte	0xe9
 1027 0542 00       		.byte	0
 1028 0543 2C       		.uleb128 0x2c
 1029 0544 CD030000 		.4byte	0x3cd
 1030 0548 00000000 		.4byte	.LFB453
 1031 054c AC000000 		.4byte	.LFE453-.LFB453
 1032 0550 01       		.uleb128 0x1
 1033 0551 9C       		.byte	0x9c
 1034 0552 16       		.uleb128 0x16
 1035 0553 DA030000 		.4byte	0x3da
 1036 0557 0C000000 		.4byte	.LLRL1
 1037 055b 65050000 		.4byte	0x565
 1038 055f 17       		.uleb128 0x17
 1039 0560 DF030000 		.4byte	0x3df
 1040 0564 00       		.byte	0
 1041 0565 2D       		.uleb128 0x2d
 1042 0566 CD030000 		.4byte	0x3cd
 1043 056a 2C000000 		.4byte	.LBI107
 1044 056e 00       		.byte	.LVU38
 1045 056f 1B000000 		.4byte	.LLRL2
 1046 0573 01       		.byte	0x1
 1047 0574 61       		.byte	0x61
 1048 0575 0D       		.byte	0xd
 1049 0576 2E       		.uleb128 0x2e
 1050 0577 DA030000 		.4byte	0x3da
 1051 057b 2C000000 		.4byte	.LBB109
 1052 057f 0C000000 		.4byte	.LBE109-.LBB109
 1053 0583 A6050000 		.4byte	0x5a6
 1054 0587 17       		.uleb128 0x17
 1055 0588 DF030000 		.4byte	0x3df
 1056 058c 0D       		.uleb128 0xd
 1057 058d 34000000 		.4byte	.LVL9
 1058 0591 B1030000 		.4byte	0x3b1
 1059 0595 01       		.uleb128 0x1
 1060 0596 01       		.uleb128 0x1
 1061 0597 50       		.byte	0x50
 1062 0598 02       		.uleb128 0x2
 1063 0599 74       		.byte	0x74
 1064 059a 00       		.sleb128 0
 1065 059b 01       		.uleb128 0x1
 1066 059c 01       		.uleb128 0x1
ARM GAS  C:\Users\DEVELO~1\AppData\Local\Temp\ccqNMLdz.s 			page 20


 1067 059d 51       		.byte	0x51
 1068 059e 05       		.uleb128 0x5
 1069 059f 03       		.byte	0x3
 1070 05a0 00000000 		.4byte	.LC0
 1071 05a4 00       		.byte	0
 1072 05a5 00       		.byte	0
 1073 05a6 16       		.uleb128 0x16
 1074 05a7 3B040000 		.4byte	0x43b
 1075 05ab 28000000 		.4byte	.LLRL3
 1076 05af 31060000 		.4byte	0x631
 1077 05b3 18       		.uleb128 0x18
 1078 05b4 40040000 		.4byte	0x440
 1079 05b8 28000000 		.4byte	.LLST4
 1080 05bc 20000000 		.4byte	.LVUS4
 1081 05c0 07       		.uleb128 0x7
 1082 05c1 44000000 		.4byte	.LVL11
 1083 05c5 B1030000 		.4byte	0x3b1
 1084 05c9 DD050000 		.4byte	0x5dd
 1085 05cd 01       		.uleb128 0x1
 1086 05ce 01       		.uleb128 0x1
 1087 05cf 50       		.byte	0x50
 1088 05d0 02       		.uleb128 0x2
 1089 05d1 74       		.byte	0x74
 1090 05d2 00       		.sleb128 0
 1091 05d3 01       		.uleb128 0x1
 1092 05d4 01       		.uleb128 0x1
 1093 05d5 51       		.byte	0x51
 1094 05d6 05       		.uleb128 0x5
 1095 05d7 03       		.byte	0x3
 1096 05d8 0C000000 		.4byte	.LC1
 1097 05dc 00       		.byte	0
 1098 05dd 07       		.uleb128 0x7
 1099 05de 50000000 		.4byte	.LVL13
 1100 05e2 B1030000 		.4byte	0x3b1
 1101 05e6 FA050000 		.4byte	0x5fa
 1102 05ea 01       		.uleb128 0x1
 1103 05eb 01       		.uleb128 0x1
 1104 05ec 50       		.byte	0x50
 1105 05ed 02       		.uleb128 0x2
 1106 05ee 74       		.byte	0x74
 1107 05ef 00       		.sleb128 0
 1108 05f0 01       		.uleb128 0x1
 1109 05f1 01       		.uleb128 0x1
 1110 05f2 51       		.byte	0x51
 1111 05f3 05       		.uleb128 0x5
 1112 05f4 03       		.byte	0x3
 1113 05f5 00000000 		.4byte	.LC0
 1114 05f9 00       		.byte	0
 1115 05fa 07       		.uleb128 0x7
 1116 05fb 5C000000 		.4byte	.LVL15
 1117 05ff B1030000 		.4byte	0x3b1
 1118 0603 17060000 		.4byte	0x617
 1119 0607 01       		.uleb128 0x1
 1120 0608 01       		.uleb128 0x1
 1121 0609 50       		.byte	0x50
 1122 060a 02       		.uleb128 0x2
 1123 060b 74       		.byte	0x74
ARM GAS  C:\Users\DEVELO~1\AppData\Local\Temp\ccqNMLdz.s 			page 21


 1124 060c 00       		.sleb128 0
 1125 060d 01       		.uleb128 0x1
 1126 060e 01       		.uleb128 0x1
 1127 060f 51       		.byte	0x51
 1128 0610 05       		.uleb128 0x5
 1129 0611 03       		.byte	0x3
 1130 0612 0C000000 		.4byte	.LC1
 1131 0616 00       		.byte	0
 1132 0617 0D       		.uleb128 0xd
 1133 0618 68000000 		.4byte	.LVL17
 1134 061c B1030000 		.4byte	0x3b1
 1135 0620 01       		.uleb128 0x1
 1136 0621 01       		.uleb128 0x1
 1137 0622 50       		.byte	0x50
 1138 0623 02       		.uleb128 0x2
 1139 0624 74       		.byte	0x74
 1140 0625 00       		.sleb128 0
 1141 0626 01       		.uleb128 0x1
 1142 0627 01       		.uleb128 0x1
 1143 0628 51       		.byte	0x51
 1144 0629 05       		.uleb128 0x5
 1145 062a 03       		.byte	0x3
 1146 062b 00000000 		.4byte	.LC0
 1147 062f 00       		.byte	0
 1148 0630 00       		.byte	0
 1149 0631 2F       		.uleb128 0x2f
 1150 0632 49040000 		.4byte	0x449
 1151 0636 34000000 		.4byte	.LLRL5
 1152 063a 18       		.uleb128 0x18
 1153 063b 4A040000 		.4byte	0x44a
 1154 063f 4E000000 		.4byte	.LLST6
 1155 0643 46000000 		.4byte	.LVUS6
 1156 0647 07       		.uleb128 0x7
 1157 0648 78000000 		.4byte	.LVL19
 1158 064c B1030000 		.4byte	0x3b1
 1159 0650 64060000 		.4byte	0x664
 1160 0654 01       		.uleb128 0x1
 1161 0655 01       		.uleb128 0x1
 1162 0656 50       		.byte	0x50
 1163 0657 02       		.uleb128 0x2
 1164 0658 74       		.byte	0x74
 1165 0659 00       		.sleb128 0
 1166 065a 01       		.uleb128 0x1
 1167 065b 01       		.uleb128 0x1
 1168 065c 51       		.byte	0x51
 1169 065d 05       		.uleb128 0x5
 1170 065e 03       		.byte	0x3
 1171 065f 0C000000 		.4byte	.LC1
 1172 0663 00       		.byte	0
 1173 0664 07       		.uleb128 0x7
 1174 0665 84000000 		.4byte	.LVL21
 1175 0669 B1030000 		.4byte	0x3b1
 1176 066d 81060000 		.4byte	0x681
 1177 0671 01       		.uleb128 0x1
 1178 0672 01       		.uleb128 0x1
 1179 0673 50       		.byte	0x50
 1180 0674 02       		.uleb128 0x2
ARM GAS  C:\Users\DEVELO~1\AppData\Local\Temp\ccqNMLdz.s 			page 22


 1181 0675 74       		.byte	0x74
 1182 0676 00       		.sleb128 0
 1183 0677 01       		.uleb128 0x1
 1184 0678 01       		.uleb128 0x1
 1185 0679 51       		.byte	0x51
 1186 067a 05       		.uleb128 0x5
 1187 067b 03       		.byte	0x3
 1188 067c 00000000 		.4byte	.LC0
 1189 0680 00       		.byte	0
 1190 0681 07       		.uleb128 0x7
 1191 0682 90000000 		.4byte	.LVL23
 1192 0686 B1030000 		.4byte	0x3b1
 1193 068a 9E060000 		.4byte	0x69e
 1194 068e 01       		.uleb128 0x1
 1195 068f 01       		.uleb128 0x1
 1196 0690 50       		.byte	0x50
 1197 0691 02       		.uleb128 0x2
 1198 0692 74       		.byte	0x74
 1199 0693 00       		.sleb128 0
 1200 0694 01       		.uleb128 0x1
 1201 0695 01       		.uleb128 0x1
 1202 0696 51       		.byte	0x51
 1203 0697 05       		.uleb128 0x5
 1204 0698 03       		.byte	0x3
 1205 0699 0C000000 		.4byte	.LC1
 1206 069d 00       		.byte	0
 1207 069e 30       		.uleb128 0x30
 1208 069f A0000000 		.4byte	.LVL25
 1209 06a3 B1030000 		.4byte	0x3b1
 1210 06a7 01       		.uleb128 0x1
 1211 06a8 01       		.uleb128 0x1
 1212 06a9 50       		.byte	0x50
 1213 06aa 01       		.uleb128 0x1
 1214 06ab 31       		.byte	0x31
 1215 06ac 01       		.uleb128 0x1
 1216 06ad 01       		.uleb128 0x1
 1217 06ae 51       		.byte	0x51
 1218 06af 05       		.uleb128 0x5
 1219 06b0 03       		.byte	0x3
 1220 06b1 00000000 		.4byte	.LC0
 1221 06b5 00       		.byte	0
 1222 06b6 00       		.byte	0
 1223 06b7 00       		.byte	0
 1224 06b8 00       		.byte	0
 1225 06b9 00       		.byte	0
 1226              		.section	.debug_abbrev,"",%progbits
 1227              	.Ldebug_abbrev0:
 1228 0000 01       		.uleb128 0x1
 1229 0001 49       		.uleb128 0x49
 1230 0002 00       		.byte	0
 1231 0003 02       		.uleb128 0x2
 1232 0004 18       		.uleb128 0x18
 1233 0005 7E       		.uleb128 0x7e
 1234 0006 18       		.uleb128 0x18
 1235 0007 00       		.byte	0
 1236 0008 00       		.byte	0
 1237 0009 02       		.uleb128 0x2
ARM GAS  C:\Users\DEVELO~1\AppData\Local\Temp\ccqNMLdz.s 			page 23


 1238 000a 0D       		.uleb128 0xd
 1239 000b 00       		.byte	0
 1240 000c 03       		.uleb128 0x3
 1241 000d 0E       		.uleb128 0xe
 1242 000e 3A       		.uleb128 0x3a
 1243 000f 0B       		.uleb128 0xb
 1244 0010 3B       		.uleb128 0x3b
 1245 0011 0B       		.uleb128 0xb
 1246 0012 39       		.uleb128 0x39
 1247 0013 0B       		.uleb128 0xb
 1248 0014 49       		.uleb128 0x49
 1249 0015 13       		.uleb128 0x13
 1250 0016 38       		.uleb128 0x38
 1251 0017 0B       		.uleb128 0xb
 1252 0018 00       		.byte	0
 1253 0019 00       		.byte	0
 1254 001a 03       		.uleb128 0x3
 1255 001b 16       		.uleb128 0x16
 1256 001c 00       		.byte	0
 1257 001d 03       		.uleb128 0x3
 1258 001e 0E       		.uleb128 0xe
 1259 001f 3A       		.uleb128 0x3a
 1260 0020 0B       		.uleb128 0xb
 1261 0021 3B       		.uleb128 0x3b
 1262 0022 0B       		.uleb128 0xb
 1263 0023 39       		.uleb128 0x39
 1264 0024 0B       		.uleb128 0xb
 1265 0025 49       		.uleb128 0x49
 1266 0026 13       		.uleb128 0x13
 1267 0027 00       		.byte	0
 1268 0028 00       		.byte	0
 1269 0029 04       		.uleb128 0x4
 1270 002a 0F       		.uleb128 0xf
 1271 002b 00       		.byte	0
 1272 002c 0B       		.uleb128 0xb
 1273 002d 21       		.uleb128 0x21
 1274 002e 04       		.sleb128 4
 1275 002f 49       		.uleb128 0x49
 1276 0030 13       		.uleb128 0x13
 1277 0031 00       		.byte	0
 1278 0032 00       		.byte	0
 1279 0033 05       		.uleb128 0x5
 1280 0034 24       		.uleb128 0x24
 1281 0035 00       		.byte	0
 1282 0036 0B       		.uleb128 0xb
 1283 0037 0B       		.uleb128 0xb
 1284 0038 3E       		.uleb128 0x3e
 1285 0039 0B       		.uleb128 0xb
 1286 003a 03       		.uleb128 0x3
 1287 003b 0E       		.uleb128 0xe
 1288 003c 00       		.byte	0
 1289 003d 00       		.byte	0
 1290 003e 06       		.uleb128 0x6
 1291 003f 05       		.uleb128 0x5
 1292 0040 00       		.byte	0
 1293 0041 49       		.uleb128 0x49
 1294 0042 13       		.uleb128 0x13
ARM GAS  C:\Users\DEVELO~1\AppData\Local\Temp\ccqNMLdz.s 			page 24


 1295 0043 00       		.byte	0
 1296 0044 00       		.byte	0
 1297 0045 07       		.uleb128 0x7
 1298 0046 48       		.uleb128 0x48
 1299 0047 01       		.byte	0x1
 1300 0048 7D       		.uleb128 0x7d
 1301 0049 01       		.uleb128 0x1
 1302 004a 7F       		.uleb128 0x7f
 1303 004b 13       		.uleb128 0x13
 1304 004c 01       		.uleb128 0x1
 1305 004d 13       		.uleb128 0x13
 1306 004e 00       		.byte	0
 1307 004f 00       		.byte	0
 1308 0050 08       		.uleb128 0x8
 1309 0051 26       		.uleb128 0x26
 1310 0052 00       		.byte	0
 1311 0053 49       		.uleb128 0x49
 1312 0054 13       		.uleb128 0x13
 1313 0055 00       		.byte	0
 1314 0056 00       		.byte	0
 1315 0057 09       		.uleb128 0x9
 1316 0058 15       		.uleb128 0x15
 1317 0059 01       		.byte	0x1
 1318 005a 27       		.uleb128 0x27
 1319 005b 19       		.uleb128 0x19
 1320 005c 49       		.uleb128 0x49
 1321 005d 13       		.uleb128 0x13
 1322 005e 01       		.uleb128 0x1
 1323 005f 13       		.uleb128 0x13
 1324 0060 00       		.byte	0
 1325 0061 00       		.byte	0
 1326 0062 0A       		.uleb128 0xa
 1327 0063 13       		.uleb128 0x13
 1328 0064 01       		.byte	0x1
 1329 0065 0B       		.uleb128 0xb
 1330 0066 0B       		.uleb128 0xb
 1331 0067 3A       		.uleb128 0x3a
 1332 0068 0B       		.uleb128 0xb
 1333 0069 3B       		.uleb128 0x3b
 1334 006a 0B       		.uleb128 0xb
 1335 006b 39       		.uleb128 0x39
 1336 006c 21       		.uleb128 0x21
 1337 006d 09       		.sleb128 9
 1338 006e 01       		.uleb128 0x1
 1339 006f 13       		.uleb128 0x13
 1340 0070 00       		.byte	0
 1341 0071 00       		.byte	0
 1342 0072 0B       		.uleb128 0xb
 1343 0073 0D       		.uleb128 0xd
 1344 0074 00       		.byte	0
 1345 0075 03       		.uleb128 0x3
 1346 0076 08       		.uleb128 0x8
 1347 0077 3A       		.uleb128 0x3a
 1348 0078 21       		.uleb128 0x21
 1349 0079 09       		.sleb128 9
 1350 007a 3B       		.uleb128 0x3b
 1351 007b 0B       		.uleb128 0xb
ARM GAS  C:\Users\DEVELO~1\AppData\Local\Temp\ccqNMLdz.s 			page 25


 1352 007c 39       		.uleb128 0x39
 1353 007d 0B       		.uleb128 0xb
 1354 007e 49       		.uleb128 0x49
 1355 007f 13       		.uleb128 0x13
 1356 0080 38       		.uleb128 0x38
 1357 0081 0B       		.uleb128 0xb
 1358 0082 00       		.byte	0
 1359 0083 00       		.byte	0
 1360 0084 0C       		.uleb128 0xc
 1361 0085 34       		.uleb128 0x34
 1362 0086 00       		.byte	0
 1363 0087 03       		.uleb128 0x3
 1364 0088 08       		.uleb128 0x8
 1365 0089 3A       		.uleb128 0x3a
 1366 008a 21       		.uleb128 0x21
 1367 008b 01       		.sleb128 1
 1368 008c 3B       		.uleb128 0x3b
 1369 008d 0B       		.uleb128 0xb
 1370 008e 39       		.uleb128 0x39
 1371 008f 21       		.uleb128 0x21
 1372 0090 0A       		.sleb128 10
 1373 0091 49       		.uleb128 0x49
 1374 0092 13       		.uleb128 0x13
 1375 0093 00       		.byte	0
 1376 0094 00       		.byte	0
 1377 0095 0D       		.uleb128 0xd
 1378 0096 48       		.uleb128 0x48
 1379 0097 01       		.byte	0x1
 1380 0098 7D       		.uleb128 0x7d
 1381 0099 01       		.uleb128 0x1
 1382 009a 7F       		.uleb128 0x7f
 1383 009b 13       		.uleb128 0x13
 1384 009c 00       		.byte	0
 1385 009d 00       		.byte	0
 1386 009e 0E       		.uleb128 0xe
 1387 009f 1D       		.uleb128 0x1d
 1388 00a0 01       		.byte	0x1
 1389 00a1 31       		.uleb128 0x31
 1390 00a2 13       		.uleb128 0x13
 1391 00a3 52       		.uleb128 0x52
 1392 00a4 01       		.uleb128 0x1
 1393 00a5 B842     		.uleb128 0x2138
 1394 00a7 0B       		.uleb128 0xb
 1395 00a8 11       		.uleb128 0x11
 1396 00a9 01       		.uleb128 0x1
 1397 00aa 12       		.uleb128 0x12
 1398 00ab 06       		.uleb128 0x6
 1399 00ac 58       		.uleb128 0x58
 1400 00ad 0B       		.uleb128 0xb
 1401 00ae 59       		.uleb128 0x59
 1402 00af 0B       		.uleb128 0xb
 1403 00b0 57       		.uleb128 0x57
 1404 00b1 0B       		.uleb128 0xb
 1405 00b2 00       		.byte	0
 1406 00b3 00       		.byte	0
 1407 00b4 0F       		.uleb128 0xf
 1408 00b5 01       		.uleb128 0x1
ARM GAS  C:\Users\DEVELO~1\AppData\Local\Temp\ccqNMLdz.s 			page 26


 1409 00b6 01       		.byte	0x1
 1410 00b7 49       		.uleb128 0x49
 1411 00b8 13       		.uleb128 0x13
 1412 00b9 01       		.uleb128 0x1
 1413 00ba 13       		.uleb128 0x13
 1414 00bb 00       		.byte	0
 1415 00bc 00       		.byte	0
 1416 00bd 10       		.uleb128 0x10
 1417 00be 21       		.uleb128 0x21
 1418 00bf 00       		.byte	0
 1419 00c0 49       		.uleb128 0x49
 1420 00c1 13       		.uleb128 0x13
 1421 00c2 2F       		.uleb128 0x2f
 1422 00c3 0B       		.uleb128 0xb
 1423 00c4 00       		.byte	0
 1424 00c5 00       		.byte	0
 1425 00c6 11       		.uleb128 0x11
 1426 00c7 34       		.uleb128 0x34
 1427 00c8 00       		.byte	0
 1428 00c9 03       		.uleb128 0x3
 1429 00ca 0E       		.uleb128 0xe
 1430 00cb 3A       		.uleb128 0x3a
 1431 00cc 21       		.uleb128 0x21
 1432 00cd 01       		.sleb128 1
 1433 00ce 3B       		.uleb128 0x3b
 1434 00cf 0B       		.uleb128 0xb
 1435 00d0 39       		.uleb128 0x39
 1436 00d1 21       		.uleb128 0x21
 1437 00d2 19       		.sleb128 25
 1438 00d3 49       		.uleb128 0x49
 1439 00d4 13       		.uleb128 0x13
 1440 00d5 02       		.uleb128 0x2
 1441 00d6 18       		.uleb128 0x18
 1442 00d7 00       		.byte	0
 1443 00d8 00       		.byte	0
 1444 00d9 12       		.uleb128 0x12
 1445 00da 0B       		.uleb128 0xb
 1446 00db 01       		.byte	0x1
 1447 00dc 01       		.uleb128 0x1
 1448 00dd 13       		.uleb128 0x13
 1449 00de 00       		.byte	0
 1450 00df 00       		.byte	0
 1451 00e0 13       		.uleb128 0x13
 1452 00e1 48       		.uleb128 0x48
 1453 00e2 00       		.byte	0
 1454 00e3 7D       		.uleb128 0x7d
 1455 00e4 01       		.uleb128 0x1
 1456 00e5 7F       		.uleb128 0x7f
 1457 00e6 13       		.uleb128 0x13
 1458 00e7 00       		.byte	0
 1459 00e8 00       		.byte	0
 1460 00e9 14       		.uleb128 0x14
 1461 00ea 2E       		.uleb128 0x2e
 1462 00eb 00       		.byte	0
 1463 00ec 03       		.uleb128 0x3
 1464 00ed 0E       		.uleb128 0xe
 1465 00ee 3A       		.uleb128 0x3a
ARM GAS  C:\Users\DEVELO~1\AppData\Local\Temp\ccqNMLdz.s 			page 27


 1466 00ef 0B       		.uleb128 0xb
 1467 00f0 3B       		.uleb128 0x3b
 1468 00f1 0B       		.uleb128 0xb
 1469 00f2 39       		.uleb128 0x39
 1470 00f3 21       		.uleb128 0x21
 1471 00f4 19       		.sleb128 25
 1472 00f5 27       		.uleb128 0x27
 1473 00f6 19       		.uleb128 0x19
 1474 00f7 49       		.uleb128 0x49
 1475 00f8 13       		.uleb128 0x13
 1476 00f9 20       		.uleb128 0x20
 1477 00fa 21       		.uleb128 0x21
 1478 00fb 03       		.sleb128 3
 1479 00fc 00       		.byte	0
 1480 00fd 00       		.byte	0
 1481 00fe 15       		.uleb128 0x15
 1482 00ff 05       		.uleb128 0x5
 1483 0100 00       		.byte	0
 1484 0101 03       		.uleb128 0x3
 1485 0102 0E       		.uleb128 0xe
 1486 0103 3A       		.uleb128 0x3a
 1487 0104 21       		.uleb128 0x21
 1488 0105 08       		.sleb128 8
 1489 0106 3B       		.uleb128 0x3b
 1490 0107 05       		.uleb128 0x5
 1491 0108 39       		.uleb128 0x39
 1492 0109 21       		.uleb128 0x21
 1493 010a 2F       		.sleb128 47
 1494 010b 49       		.uleb128 0x49
 1495 010c 13       		.uleb128 0x13
 1496 010d 00       		.byte	0
 1497 010e 00       		.byte	0
 1498 010f 16       		.uleb128 0x16
 1499 0110 0B       		.uleb128 0xb
 1500 0111 01       		.byte	0x1
 1501 0112 31       		.uleb128 0x31
 1502 0113 13       		.uleb128 0x13
 1503 0114 55       		.uleb128 0x55
 1504 0115 17       		.uleb128 0x17
 1505 0116 01       		.uleb128 0x1
 1506 0117 13       		.uleb128 0x13
 1507 0118 00       		.byte	0
 1508 0119 00       		.byte	0
 1509 011a 17       		.uleb128 0x17
 1510 011b 34       		.uleb128 0x34
 1511 011c 00       		.byte	0
 1512 011d 31       		.uleb128 0x31
 1513 011e 13       		.uleb128 0x13
 1514 011f 1C       		.uleb128 0x1c
 1515 0120 21       		.uleb128 0x21
 1516 0121 00       		.sleb128 0
 1517 0122 00       		.byte	0
 1518 0123 00       		.byte	0
 1519 0124 18       		.uleb128 0x18
 1520 0125 34       		.uleb128 0x34
 1521 0126 00       		.byte	0
 1522 0127 31       		.uleb128 0x31
ARM GAS  C:\Users\DEVELO~1\AppData\Local\Temp\ccqNMLdz.s 			page 28


 1523 0128 13       		.uleb128 0x13
 1524 0129 02       		.uleb128 0x2
 1525 012a 17       		.uleb128 0x17
 1526 012b B742     		.uleb128 0x2137
 1527 012d 17       		.uleb128 0x17
 1528 012e 00       		.byte	0
 1529 012f 00       		.byte	0
 1530 0130 19       		.uleb128 0x19
 1531 0131 11       		.uleb128 0x11
 1532 0132 01       		.byte	0x1
 1533 0133 25       		.uleb128 0x25
 1534 0134 0E       		.uleb128 0xe
 1535 0135 13       		.uleb128 0x13
 1536 0136 0B       		.uleb128 0xb
 1537 0137 03       		.uleb128 0x3
 1538 0138 0E       		.uleb128 0xe
 1539 0139 1B       		.uleb128 0x1b
 1540 013a 0E       		.uleb128 0xe
 1541 013b 55       		.uleb128 0x55
 1542 013c 17       		.uleb128 0x17
 1543 013d 11       		.uleb128 0x11
 1544 013e 01       		.uleb128 0x1
 1545 013f 10       		.uleb128 0x10
 1546 0140 17       		.uleb128 0x17
 1547 0141 00       		.byte	0
 1548 0142 00       		.byte	0
 1549 0143 1A       		.uleb128 0x1a
 1550 0144 24       		.uleb128 0x24
 1551 0145 00       		.byte	0
 1552 0146 0B       		.uleb128 0xb
 1553 0147 0B       		.uleb128 0xb
 1554 0148 3E       		.uleb128 0x3e
 1555 0149 0B       		.uleb128 0xb
 1556 014a 03       		.uleb128 0x3
 1557 014b 08       		.uleb128 0x8
 1558 014c 00       		.byte	0
 1559 014d 00       		.byte	0
 1560 014e 1B       		.uleb128 0x1b
 1561 014f 0F       		.uleb128 0xf
 1562 0150 00       		.byte	0
 1563 0151 0B       		.uleb128 0xb
 1564 0152 0B       		.uleb128 0xb
 1565 0153 00       		.byte	0
 1566 0154 00       		.byte	0
 1567 0155 1C       		.uleb128 0x1c
 1568 0156 13       		.uleb128 0x13
 1569 0157 01       		.byte	0x1
 1570 0158 03       		.uleb128 0x3
 1571 0159 0E       		.uleb128 0xe
 1572 015a 0B       		.uleb128 0xb
 1573 015b 0B       		.uleb128 0xb
 1574 015c 3A       		.uleb128 0x3a
 1575 015d 0B       		.uleb128 0xb
 1576 015e 3B       		.uleb128 0x3b
 1577 015f 0B       		.uleb128 0xb
 1578 0160 39       		.uleb128 0x39
 1579 0161 0B       		.uleb128 0xb
ARM GAS  C:\Users\DEVELO~1\AppData\Local\Temp\ccqNMLdz.s 			page 29


 1580 0162 01       		.uleb128 0x1
 1581 0163 13       		.uleb128 0x13
 1582 0164 00       		.byte	0
 1583 0165 00       		.byte	0
 1584 0166 1D       		.uleb128 0x1d
 1585 0167 15       		.uleb128 0x15
 1586 0168 00       		.byte	0
 1587 0169 27       		.uleb128 0x27
 1588 016a 19       		.uleb128 0x19
 1589 016b 00       		.byte	0
 1590 016c 00       		.byte	0
 1591 016d 1E       		.uleb128 0x1e
 1592 016e 34       		.uleb128 0x34
 1593 016f 00       		.byte	0
 1594 0170 03       		.uleb128 0x3
 1595 0171 0E       		.uleb128 0xe
 1596 0172 3A       		.uleb128 0x3a
 1597 0173 0B       		.uleb128 0xb
 1598 0174 3B       		.uleb128 0x3b
 1599 0175 05       		.uleb128 0x5
 1600 0176 39       		.uleb128 0x39
 1601 0177 0B       		.uleb128 0xb
 1602 0178 49       		.uleb128 0x49
 1603 0179 13       		.uleb128 0x13
 1604 017a 3F       		.uleb128 0x3f
 1605 017b 19       		.uleb128 0x19
 1606 017c 3C       		.uleb128 0x3c
 1607 017d 19       		.uleb128 0x19
 1608 017e 00       		.byte	0
 1609 017f 00       		.byte	0
 1610 0180 1F       		.uleb128 0x1f
 1611 0181 34       		.uleb128 0x34
 1612 0182 00       		.byte	0
 1613 0183 03       		.uleb128 0x3
 1614 0184 0E       		.uleb128 0xe
 1615 0185 3A       		.uleb128 0x3a
 1616 0186 0B       		.uleb128 0xb
 1617 0187 3B       		.uleb128 0x3b
 1618 0188 0B       		.uleb128 0xb
 1619 0189 39       		.uleb128 0x39
 1620 018a 0B       		.uleb128 0xb
 1621 018b 49       		.uleb128 0x49
 1622 018c 13       		.uleb128 0x13
 1623 018d 3F       		.uleb128 0x3f
 1624 018e 19       		.uleb128 0x19
 1625 018f 3C       		.uleb128 0x3c
 1626 0190 19       		.uleb128 0x19
 1627 0191 00       		.byte	0
 1628 0192 00       		.byte	0
 1629 0193 20       		.uleb128 0x20
 1630 0194 34       		.uleb128 0x34
 1631 0195 00       		.byte	0
 1632 0196 03       		.uleb128 0x3
 1633 0197 0E       		.uleb128 0xe
 1634 0198 3A       		.uleb128 0x3a
 1635 0199 0B       		.uleb128 0xb
 1636 019a 3B       		.uleb128 0x3b
ARM GAS  C:\Users\DEVELO~1\AppData\Local\Temp\ccqNMLdz.s 			page 30


 1637 019b 0B       		.uleb128 0xb
 1638 019c 39       		.uleb128 0x39
 1639 019d 0B       		.uleb128 0xb
 1640 019e 49       		.uleb128 0x49
 1641 019f 13       		.uleb128 0x13
 1642 01a0 3F       		.uleb128 0x3f
 1643 01a1 19       		.uleb128 0x19
 1644 01a2 02       		.uleb128 0x2
 1645 01a3 18       		.uleb128 0x18
 1646 01a4 00       		.byte	0
 1647 01a5 00       		.byte	0
 1648 01a6 21       		.uleb128 0x21
 1649 01a7 34       		.uleb128 0x34
 1650 01a8 00       		.byte	0
 1651 01a9 47       		.uleb128 0x47
 1652 01aa 13       		.uleb128 0x13
 1653 01ab 3A       		.uleb128 0x3a
 1654 01ac 0B       		.uleb128 0xb
 1655 01ad 3B       		.uleb128 0x3b
 1656 01ae 0B       		.uleb128 0xb
 1657 01af 39       		.uleb128 0x39
 1658 01b0 0B       		.uleb128 0xb
 1659 01b1 02       		.uleb128 0x2
 1660 01b2 18       		.uleb128 0x18
 1661 01b3 00       		.byte	0
 1662 01b4 00       		.byte	0
 1663 01b5 22       		.uleb128 0x22
 1664 01b6 2E       		.uleb128 0x2e
 1665 01b7 00       		.byte	0
 1666 01b8 3F       		.uleb128 0x3f
 1667 01b9 19       		.uleb128 0x19
 1668 01ba 03       		.uleb128 0x3
 1669 01bb 0E       		.uleb128 0xe
 1670 01bc 3A       		.uleb128 0x3a
 1671 01bd 0B       		.uleb128 0xb
 1672 01be 3B       		.uleb128 0x3b
 1673 01bf 0B       		.uleb128 0xb
 1674 01c0 39       		.uleb128 0x39
 1675 01c1 0B       		.uleb128 0xb
 1676 01c2 27       		.uleb128 0x27
 1677 01c3 19       		.uleb128 0x19
 1678 01c4 49       		.uleb128 0x49
 1679 01c5 13       		.uleb128 0x13
 1680 01c6 3C       		.uleb128 0x3c
 1681 01c7 19       		.uleb128 0x19
 1682 01c8 00       		.byte	0
 1683 01c9 00       		.byte	0
 1684 01ca 23       		.uleb128 0x23
 1685 01cb 2E       		.uleb128 0x2e
 1686 01cc 01       		.byte	0x1
 1687 01cd 3F       		.uleb128 0x3f
 1688 01ce 19       		.uleb128 0x19
 1689 01cf 03       		.uleb128 0x3
 1690 01d0 0E       		.uleb128 0xe
 1691 01d1 3A       		.uleb128 0x3a
 1692 01d2 0B       		.uleb128 0xb
 1693 01d3 3B       		.uleb128 0x3b
ARM GAS  C:\Users\DEVELO~1\AppData\Local\Temp\ccqNMLdz.s 			page 31


 1694 01d4 05       		.uleb128 0x5
 1695 01d5 39       		.uleb128 0x39
 1696 01d6 0B       		.uleb128 0xb
 1697 01d7 27       		.uleb128 0x27
 1698 01d8 19       		.uleb128 0x19
 1699 01d9 49       		.uleb128 0x49
 1700 01da 13       		.uleb128 0x13
 1701 01db 3C       		.uleb128 0x3c
 1702 01dc 19       		.uleb128 0x19
 1703 01dd 01       		.uleb128 0x1
 1704 01de 13       		.uleb128 0x13
 1705 01df 00       		.byte	0
 1706 01e0 00       		.byte	0
 1707 01e1 24       		.uleb128 0x24
 1708 01e2 2E       		.uleb128 0x2e
 1709 01e3 01       		.byte	0x1
 1710 01e4 03       		.uleb128 0x3
 1711 01e5 0E       		.uleb128 0xe
 1712 01e6 3A       		.uleb128 0x3a
 1713 01e7 0B       		.uleb128 0xb
 1714 01e8 3B       		.uleb128 0x3b
 1715 01e9 0B       		.uleb128 0xb
 1716 01ea 39       		.uleb128 0x39
 1717 01eb 0B       		.uleb128 0xb
 1718 01ec 27       		.uleb128 0x27
 1719 01ed 19       		.uleb128 0x19
 1720 01ee 20       		.uleb128 0x20
 1721 01ef 0B       		.uleb128 0xb
 1722 01f0 01       		.uleb128 0x1
 1723 01f1 13       		.uleb128 0x13
 1724 01f2 00       		.byte	0
 1725 01f3 00       		.byte	0
 1726 01f4 25       		.uleb128 0x25
 1727 01f5 0B       		.uleb128 0xb
 1728 01f6 01       		.byte	0x1
 1729 01f7 00       		.byte	0
 1730 01f8 00       		.byte	0
 1731 01f9 26       		.uleb128 0x26
 1732 01fa 2E       		.uleb128 0x2e
 1733 01fb 01       		.byte	0x1
 1734 01fc 03       		.uleb128 0x3
 1735 01fd 0E       		.uleb128 0xe
 1736 01fe 3A       		.uleb128 0x3a
 1737 01ff 0B       		.uleb128 0xb
 1738 0200 3B       		.uleb128 0x3b
 1739 0201 0B       		.uleb128 0xb
 1740 0202 39       		.uleb128 0x39
 1741 0203 0B       		.uleb128 0xb
 1742 0204 27       		.uleb128 0x27
 1743 0205 19       		.uleb128 0x19
 1744 0206 11       		.uleb128 0x11
 1745 0207 01       		.uleb128 0x1
 1746 0208 12       		.uleb128 0x12
 1747 0209 06       		.uleb128 0x6
 1748 020a 40       		.uleb128 0x40
 1749 020b 18       		.uleb128 0x18
 1750 020c 7A       		.uleb128 0x7a
ARM GAS  C:\Users\DEVELO~1\AppData\Local\Temp\ccqNMLdz.s 			page 32


 1751 020d 19       		.uleb128 0x19
 1752 020e 01       		.uleb128 0x1
 1753 020f 13       		.uleb128 0x13
 1754 0210 00       		.byte	0
 1755 0211 00       		.byte	0
 1756 0212 27       		.uleb128 0x27
 1757 0213 0B       		.uleb128 0xb
 1758 0214 01       		.byte	0x1
 1759 0215 11       		.uleb128 0x11
 1760 0216 01       		.uleb128 0x1
 1761 0217 12       		.uleb128 0x12
 1762 0218 06       		.uleb128 0x6
 1763 0219 00       		.byte	0
 1764 021a 00       		.byte	0
 1765 021b 28       		.uleb128 0x28
 1766 021c 34       		.uleb128 0x34
 1767 021d 00       		.byte	0
 1768 021e 03       		.uleb128 0x3
 1769 021f 0E       		.uleb128 0xe
 1770 0220 3A       		.uleb128 0x3a
 1771 0221 0B       		.uleb128 0xb
 1772 0222 3B       		.uleb128 0x3b
 1773 0223 0B       		.uleb128 0xb
 1774 0224 39       		.uleb128 0x39
 1775 0225 0B       		.uleb128 0xb
 1776 0226 49       		.uleb128 0x49
 1777 0227 13       		.uleb128 0x13
 1778 0228 02       		.uleb128 0x2
 1779 0229 17       		.uleb128 0x17
 1780 022a B742     		.uleb128 0x2137
 1781 022c 17       		.uleb128 0x17
 1782 022d 00       		.byte	0
 1783 022e 00       		.byte	0
 1784 022f 29       		.uleb128 0x29
 1785 0230 1D       		.uleb128 0x1d
 1786 0231 01       		.byte	0x1
 1787 0232 31       		.uleb128 0x31
 1788 0233 13       		.uleb128 0x13
 1789 0234 52       		.uleb128 0x52
 1790 0235 01       		.uleb128 0x1
 1791 0236 B842     		.uleb128 0x2138
 1792 0238 0B       		.uleb128 0xb
 1793 0239 11       		.uleb128 0x11
 1794 023a 01       		.uleb128 0x1
 1795 023b 12       		.uleb128 0x12
 1796 023c 06       		.uleb128 0x6
 1797 023d 58       		.uleb128 0x58
 1798 023e 0B       		.uleb128 0xb
 1799 023f 59       		.uleb128 0x59
 1800 0240 0B       		.uleb128 0xb
 1801 0241 57       		.uleb128 0x57
 1802 0242 0B       		.uleb128 0xb
 1803 0243 01       		.uleb128 0x1
 1804 0244 13       		.uleb128 0x13
 1805 0245 00       		.byte	0
 1806 0246 00       		.byte	0
 1807 0247 2A       		.uleb128 0x2a
ARM GAS  C:\Users\DEVELO~1\AppData\Local\Temp\ccqNMLdz.s 			page 33


 1808 0248 2E       		.uleb128 0x2e
 1809 0249 01       		.byte	0x1
 1810 024a 03       		.uleb128 0x3
 1811 024b 0E       		.uleb128 0xe
 1812 024c 3A       		.uleb128 0x3a
 1813 024d 0B       		.uleb128 0xb
 1814 024e 3B       		.uleb128 0x3b
 1815 024f 05       		.uleb128 0x5
 1816 0250 39       		.uleb128 0x39
 1817 0251 0B       		.uleb128 0xb
 1818 0252 27       		.uleb128 0x27
 1819 0253 19       		.uleb128 0x19
 1820 0254 49       		.uleb128 0x49
 1821 0255 13       		.uleb128 0x13
 1822 0256 20       		.uleb128 0x20
 1823 0257 0B       		.uleb128 0xb
 1824 0258 01       		.uleb128 0x1
 1825 0259 13       		.uleb128 0x13
 1826 025a 00       		.byte	0
 1827 025b 00       		.byte	0
 1828 025c 2B       		.uleb128 0x2b
 1829 025d 05       		.uleb128 0x5
 1830 025e 00       		.byte	0
 1831 025f 03       		.uleb128 0x3
 1832 0260 08       		.uleb128 0x8
 1833 0261 3A       		.uleb128 0x3a
 1834 0262 0B       		.uleb128 0xb
 1835 0263 3B       		.uleb128 0x3b
 1836 0264 05       		.uleb128 0x5
 1837 0265 39       		.uleb128 0x39
 1838 0266 0B       		.uleb128 0xb
 1839 0267 49       		.uleb128 0x49
 1840 0268 13       		.uleb128 0x13
 1841 0269 00       		.byte	0
 1842 026a 00       		.byte	0
 1843 026b 2C       		.uleb128 0x2c
 1844 026c 2E       		.uleb128 0x2e
 1845 026d 01       		.byte	0x1
 1846 026e 31       		.uleb128 0x31
 1847 026f 13       		.uleb128 0x13
 1848 0270 11       		.uleb128 0x11
 1849 0271 01       		.uleb128 0x1
 1850 0272 12       		.uleb128 0x12
 1851 0273 06       		.uleb128 0x6
 1852 0274 40       		.uleb128 0x40
 1853 0275 18       		.uleb128 0x18
 1854 0276 7A       		.uleb128 0x7a
 1855 0277 19       		.uleb128 0x19
 1856 0278 00       		.byte	0
 1857 0279 00       		.byte	0
 1858 027a 2D       		.uleb128 0x2d
 1859 027b 1D       		.uleb128 0x1d
 1860 027c 01       		.byte	0x1
 1861 027d 31       		.uleb128 0x31
 1862 027e 13       		.uleb128 0x13
 1863 027f 52       		.uleb128 0x52
 1864 0280 01       		.uleb128 0x1
ARM GAS  C:\Users\DEVELO~1\AppData\Local\Temp\ccqNMLdz.s 			page 34


 1865 0281 B842     		.uleb128 0x2138
 1866 0283 0B       		.uleb128 0xb
 1867 0284 55       		.uleb128 0x55
 1868 0285 17       		.uleb128 0x17
 1869 0286 58       		.uleb128 0x58
 1870 0287 0B       		.uleb128 0xb
 1871 0288 59       		.uleb128 0x59
 1872 0289 0B       		.uleb128 0xb
 1873 028a 57       		.uleb128 0x57
 1874 028b 0B       		.uleb128 0xb
 1875 028c 00       		.byte	0
 1876 028d 00       		.byte	0
 1877 028e 2E       		.uleb128 0x2e
 1878 028f 0B       		.uleb128 0xb
 1879 0290 01       		.byte	0x1
 1880 0291 31       		.uleb128 0x31
 1881 0292 13       		.uleb128 0x13
 1882 0293 11       		.uleb128 0x11
 1883 0294 01       		.uleb128 0x1
 1884 0295 12       		.uleb128 0x12
 1885 0296 06       		.uleb128 0x6
 1886 0297 01       		.uleb128 0x1
 1887 0298 13       		.uleb128 0x13
 1888 0299 00       		.byte	0
 1889 029a 00       		.byte	0
 1890 029b 2F       		.uleb128 0x2f
 1891 029c 0B       		.uleb128 0xb
 1892 029d 01       		.byte	0x1
 1893 029e 31       		.uleb128 0x31
 1894 029f 13       		.uleb128 0x13
 1895 02a0 55       		.uleb128 0x55
 1896 02a1 17       		.uleb128 0x17
 1897 02a2 00       		.byte	0
 1898 02a3 00       		.byte	0
 1899 02a4 30       		.uleb128 0x30
 1900 02a5 48       		.uleb128 0x48
 1901 02a6 01       		.byte	0x1
 1902 02a7 7D       		.uleb128 0x7d
 1903 02a8 01       		.uleb128 0x1
 1904 02a9 8201     		.uleb128 0x82
 1905 02ab 19       		.uleb128 0x19
 1906 02ac 7F       		.uleb128 0x7f
 1907 02ad 13       		.uleb128 0x13
 1908 02ae 00       		.byte	0
 1909 02af 00       		.byte	0
 1910 02b0 00       		.byte	0
 1911              		.section	.debug_loclists,"",%progbits
 1912 0000 68000000 		.4byte	.Ldebug_loc3-.Ldebug_loc2
 1913              	.Ldebug_loc2:
 1914 0004 0500     		.2byte	0x5
 1915 0006 04       		.byte	0x4
 1916 0007 00       		.byte	0
 1917 0008 00000000 		.4byte	0
 1918              	.Ldebug_loc0:
 1919              	.LVUS0:
 1920 000c 00       		.uleb128 .LVU10
 1921 000d 02       		.uleb128 .LVU12
ARM GAS  C:\Users\DEVELO~1\AppData\Local\Temp\ccqNMLdz.s 			page 35


 1922 000e 02       		.uleb128 .LVU12
 1923 000f 00       		.uleb128 .LVU21
 1924              	.LLST0:
 1925 0010 06       		.byte	0x6
 1926 0011 0E000000 		.4byte	.LVL1
 1927 0015 04       		.byte	0x4
 1928 0016 00       		.uleb128 .LVL1-.LVL1
 1929 0017 00       		.uleb128 .LVL1-.LVL1
 1930 0018 01       		.uleb128 0x1
 1931 0019 50       		.byte	0x50
 1932 001a 04       		.byte	0x4
 1933 001b 00       		.uleb128 .LVL1-.LVL1
 1934 001c 0A       		.uleb128 .LVL3-.LVL1
 1935 001d 01       		.uleb128 0x1
 1936 001e 54       		.byte	0x54
 1937 001f 00       		.byte	0
 1938              	.LVUS4:
 1939 0020 02       		.uleb128 .LVU50
 1940 0021 02       		.uleb128 .LVU53
 1941 0022 02       		.uleb128 .LVU53
 1942 0023 02       		.uleb128 .LVU56
 1943 0024 02       		.uleb128 .LVU56
 1944 0025 02       		.uleb128 .LVU59
 1945 0026 02       		.uleb128 .LVU59
 1946 0027 00       		.uleb128 0
 1947              	.LLST4:
 1948 0028 06       		.byte	0x6
 1949 0029 40000000 		.4byte	.LVL10
 1950 002d 04       		.byte	0x4
 1951 002e 00       		.uleb128 .LVL10-.LVL10
 1952 002f 08       		.uleb128 .LVL12-.LVL10
 1953 0030 02       		.uleb128 0x2
 1954 0031 31       		.byte	0x31
 1955 0032 9F       		.byte	0x9f
 1956 0033 04       		.byte	0x4
 1957 0034 08       		.uleb128 .LVL12-.LVL10
 1958 0035 14       		.uleb128 .LVL14-.LVL10
 1959 0036 02       		.uleb128 0x2
 1960 0037 30       		.byte	0x30
 1961 0038 9F       		.byte	0x9f
 1962 0039 04       		.byte	0x4
 1963 003a 14       		.uleb128 .LVL14-.LVL10
 1964 003b 20       		.uleb128 .LVL16-.LVL10
 1965 003c 02       		.uleb128 0x2
 1966 003d 31       		.byte	0x31
 1967 003e 9F       		.byte	0x9f
 1968 003f 04       		.byte	0x4
 1969 0040 20       		.uleb128 .LVL16-.LVL10
 1970 0041 6C       		.uleb128 .LFE453-.LVL10
 1971 0042 02       		.uleb128 0x2
 1972 0043 30       		.byte	0x30
 1973 0044 9F       		.byte	0x9f
 1974 0045 00       		.byte	0
 1975              	.LVUS6:
 1976 0046 02       		.uleb128 .LVU68
 1977 0047 02       		.uleb128 .LVU71
 1978 0048 02       		.uleb128 .LVU71
ARM GAS  C:\Users\DEVELO~1\AppData\Local\Temp\ccqNMLdz.s 			page 36


 1979 0049 02       		.uleb128 .LVU74
 1980 004a 02       		.uleb128 .LVU74
 1981 004b 02       		.uleb128 .LVU77
 1982 004c 02       		.uleb128 .LVU77
 1983 004d 00       		.uleb128 0
 1984              	.LLST6:
 1985 004e 06       		.byte	0x6
 1986 004f 74000000 		.4byte	.LVL18
 1987 0053 04       		.byte	0x4
 1988 0054 00       		.uleb128 .LVL18-.LVL18
 1989 0055 08       		.uleb128 .LVL20-.LVL18
 1990 0056 02       		.uleb128 0x2
 1991 0057 31       		.byte	0x31
 1992 0058 9F       		.byte	0x9f
 1993 0059 04       		.byte	0x4
 1994 005a 08       		.uleb128 .LVL20-.LVL18
 1995 005b 14       		.uleb128 .LVL22-.LVL18
 1996 005c 02       		.uleb128 0x2
 1997 005d 30       		.byte	0x30
 1998 005e 9F       		.byte	0x9f
 1999 005f 04       		.byte	0x4
 2000 0060 14       		.uleb128 .LVL22-.LVL18
 2001 0061 20       		.uleb128 .LVL24-.LVL18
 2002 0062 02       		.uleb128 0x2
 2003 0063 31       		.byte	0x31
 2004 0064 9F       		.byte	0x9f
 2005 0065 04       		.byte	0x4
 2006 0066 20       		.uleb128 .LVL24-.LVL18
 2007 0067 38       		.uleb128 .LFE453-.LVL18
 2008 0068 02       		.uleb128 0x2
 2009 0069 30       		.byte	0x30
 2010 006a 9F       		.byte	0x9f
 2011 006b 00       		.byte	0
 2012              	.Ldebug_loc3:
 2013              		.section	.debug_aranges,"",%progbits
 2014 0000 24000000 		.4byte	0x24
 2015 0004 0200     		.2byte	0x2
 2016 0006 00000000 		.4byte	.Ldebug_info0
 2017 000a 04       		.byte	0x4
 2018 000b 00       		.byte	0
 2019 000c 0000     		.2byte	0
 2020 000e 0000     		.2byte	0
 2021 0010 00000000 		.4byte	.LFB452
 2022 0014 1C000000 		.4byte	.LFE452-.LFB452
 2023 0018 00000000 		.4byte	.LFB453
 2024 001c AC000000 		.4byte	.LFE453-.LFB453
 2025 0020 00000000 		.4byte	0
 2026 0024 00000000 		.4byte	0
 2027              		.section	.debug_rnglists,"",%progbits
 2028              	.Ldebug_ranges0:
 2029 0000 4D000000 		.4byte	.Ldebug_ranges3-.Ldebug_ranges2
 2030              	.Ldebug_ranges2:
 2031 0004 0500     		.2byte	0x5
 2032 0006 04       		.byte	0x4
 2033 0007 00       		.byte	0
 2034 0008 00000000 		.4byte	0
 2035              	.LLRL1:
ARM GAS  C:\Users\DEVELO~1\AppData\Local\Temp\ccqNMLdz.s 			page 37


 2036 000c 05       		.byte	0x5
 2037 000d 06000000 		.4byte	.LBB104
 2038 0011 04       		.byte	0x4
 2039 0012 00       		.uleb128 .LBB104-.LBB104
 2040 0013 04       		.uleb128 .LBE104-.LBB104
 2041 0014 04       		.byte	0x4
 2042 0015 06       		.uleb128 .LBB105-.LBB104
 2043 0016 0C       		.uleb128 .LBE105-.LBB104
 2044 0017 04       		.byte	0x4
 2045 0018 0E       		.uleb128 .LBB106-.LBB104
 2046 0019 26       		.uleb128 .LBE106-.LBB104
 2047 001a 00       		.byte	0
 2048              	.LLRL2:
 2049 001b 05       		.byte	0x5
 2050 001c 2C000000 		.4byte	.LBB107
 2051 0020 04       		.byte	0x4
 2052 0021 00       		.uleb128 .LBB107-.LBB107
 2053 0022 6C       		.uleb128 .LBE107-.LBB107
 2054 0023 04       		.byte	0x4
 2055 0024 70       		.uleb128 .LBB116-.LBB107
 2056 0025 8001     		.uleb128 .LBE116-.LBB107
 2057 0027 00       		.byte	0
 2058              	.LLRL3:
 2059 0028 05       		.byte	0x5
 2060 0029 3A000000 		.4byte	.LBB110
 2061 002d 04       		.byte	0x4
 2062 002e 00       		.uleb128 .LBB110-.LBB110
 2063 002f 04       		.uleb128 .LBE110-.LBB110
 2064 0030 04       		.byte	0x4
 2065 0031 06       		.uleb128 .LBB111-.LBB110
 2066 0032 32       		.uleb128 .LBE111-.LBB110
 2067 0033 00       		.byte	0
 2068              	.LLRL5:
 2069 0034 05       		.byte	0x5
 2070 0035 6E000000 		.4byte	.LBB112
 2071 0039 04       		.byte	0x4
 2072 003a 00       		.uleb128 .LBB112-.LBB112
 2073 003b 04       		.uleb128 .LBE112-.LBB112
 2074 003c 04       		.byte	0x4
 2075 003d 06       		.uleb128 .LBB113-.LBB112
 2076 003e 2A       		.uleb128 .LBE113-.LBB112
 2077 003f 04       		.byte	0x4
 2078 0040 2E       		.uleb128 .LBB114-.LBB112
 2079 0041 3E       		.uleb128 .LBE114-.LBB112
 2080 0042 00       		.byte	0
 2081              	.LLRL7:
 2082 0043 07       		.byte	0x7
 2083 0044 00000000 		.4byte	.LFB452
 2084 0048 1C       		.uleb128 .LFE452-.LFB452
 2085 0049 07       		.byte	0x7
 2086 004a 00000000 		.4byte	.LFB453
 2087 004e AC01     		.uleb128 .LFE453-.LFB453
 2088 0050 00       		.byte	0
 2089              	.Ldebug_ranges3:
 2090              		.section	.debug_line,"",%progbits
 2091              	.Ldebug_line0:
 2092 0000 A0030000 		.section	.debug_str,"MS",%progbits,1
ARM GAS  C:\Users\DEVELO~1\AppData\Local\Temp\ccqNMLdz.s 			page 38


 2092      03006102 
 2092      00000201 
 2092      FB0E0D00 
 2092      01010101 
 2093              	.LASF40:
 2094 0000 63617365 		.ascii	"cases\000"
 2094      7300
 2095              	.LASF34:
 2096 0006 63685F74 		.ascii	"ch_test_context_t\000"
 2096      6573745F 
 2096      636F6E74 
 2096      6578745F 
 2096      7400
 2097              	.LASF31:
 2098 0018 746F6B65 		.ascii	"tokens_buffer\000"
 2098      6E735F62 
 2098      75666665 
 2098      7200
 2099              	.LASF22:
 2100 0026 77726974 		.ascii	"write\000"
 2100      6500
 2101              	.LASF7:
 2102 002c 73686F72 		.ascii	"short int\000"
 2102      7420696E 
 2102      7400
 2103              	.LASF4:
 2104 0036 73697A65 		.ascii	"size_t\000"
 2104      5F7400
 2105              	.LASF27:
 2106 003d 676C6F62 		.ascii	"global_fail\000"
 2106      616C5F66 
 2106      61696C00 
 2107              	.LASF32:
 2108 0049 70757463 		.ascii	"putchar\000"
 2108      68617200 
 2109              	.LASF48:
 2110 0051 63685654 		.ascii	"chVTGetSystemTimeX\000"
 2110      47657453 
 2110      79737465 
 2110      6D54696D 
 2110      655800
 2111              	.LASF24:
 2112 0064 42617365 		.ascii	"BaseSequentialStream\000"
 2112      53657175 
 2112      656E7469 
 2112      616C5374 
 2112      7265616D 
 2113              	.LASF42:
 2114 0079 63687465 		.ascii	"chtest\000"
 2114      737400
 2115              	.LASF55:
 2116 0080 73744765 		.ascii	"stGetCounter\000"
 2116      74436F75 
 2116      6E746572 
 2116      00
 2117              	.LASF11:
 2118 008d 5F5F7569 		.ascii	"__uint32_t\000"
ARM GAS  C:\Users\DEVELO~1\AppData\Local\Temp\ccqNMLdz.s 			page 39


 2118      6E743332 
 2118      5F7400
 2119              	.LASF41:
 2120 0098 74657374 		.ascii	"testsequence_t\000"
 2120      73657175 
 2120      656E6365 
 2120      5F7400
 2121              	.LASF39:
 2122 00a7 74657374 		.ascii	"testcase_t\000"
 2122      63617365 
 2122      5F7400
 2123              	.LASF44:
 2124 00b2 72745F74 		.ascii	"rt_test_003_001\000"
 2124      6573745F 
 2124      3030335F 
 2124      30303100 
 2125              	.LASF45:
 2126 00c2 72745F74 		.ascii	"rt_test_003_002\000"
 2126      6573745F 
 2126      3030335F 
 2126      30303200 
 2127              	.LASF52:
 2128 00d2 2E2F4368 		.ascii	"./ChibiOS/test/rt/source/test/rt_test_sequence_003."
 2128      6962694F 
 2128      532F7465 
 2128      73742F72 
 2128      742F736F 
 2129 0105 6300     		.ascii	"c\000"
 2130              	.LASF14:
 2131 0107 75696E74 		.ascii	"uint8_t\000"
 2131      385F7400 
 2132              	.LASF25:
 2133 010f 74657374 		.ascii	"test_putchar_t\000"
 2133      5F707574 
 2133      63686172 
 2133      5F7400
 2134              	.LASF26:
 2135 011e 63757272 		.ascii	"current_step\000"
 2135      656E745F 
 2135      73746570 
 2135      00
 2136              	.LASF36:
 2137 012b 73657475 		.ascii	"setup\000"
 2137      7000
 2138              	.LASF56:
 2139 0131 5F5F7465 		.ascii	"__test_assert\000"
 2139      73745F61 
 2139      73736572 
 2139      7400
 2140              	.LASF23:
 2141 013f 72656164 		.ascii	"read\000"
 2141      00
 2142              	.LASF1:
 2143 0144 6C6F6E67 		.ascii	"long long int\000"
 2143      206C6F6E 
 2143      6720696E 
 2143      7400
ARM GAS  C:\Users\DEVELO~1\AppData\Local\Temp\ccqNMLdz.s 			page 40


 2144              	.LASF59:
 2145 0152 63685469 		.ascii	"chTimeIsInRangeX\000"
 2145      6D654973 
 2145      496E5261 
 2145      6E676558 
 2145      00
 2146              	.LASF21:
 2147 0163 696E7374 		.ascii	"instance_offset\000"
 2147      616E6365 
 2147      5F6F6666 
 2147      73657400 
 2148              	.LASF29:
 2149 0173 6661696C 		.ascii	"failure_message\000"
 2149      7572655F 
 2149      6D657373 
 2149      61676500 
 2150              	.LASF30:
 2151 0183 746F6B70 		.ascii	"tokp\000"
 2151      00
 2152              	.LASF58:
 2153 0188 72745F74 		.ascii	"rt_test_003_001_execute\000"
 2153      6573745F 
 2153      3030335F 
 2153      3030315F 
 2153      65786563 
 2154              	.LASF33:
 2155 01a0 73747265 		.ascii	"stream\000"
 2155      616D00
 2156              	.LASF53:
 2157 01a7 433A5C43 		.ascii	"C:\\ChibiStudio\\chibios2111\\demos\\STM32\\RT-STM3"
 2157      68696269 
 2157      53747564 
 2157      696F5C63 
 2157      68696269 
 2158 01d5 32483734 		.ascii	"2H743ZI_REV_XY-NUCLEO144 - Copie\000"
 2158      335A495F 
 2158      5245565F 
 2158      58592D4E 
 2158      55434C45 
 2159              	.LASF5:
 2160 01f6 5F5F7569 		.ascii	"__uint8_t\000"
 2160      6E74385F 
 2160      7400
 2161              	.LASF57:
 2162 0200 72745F74 		.ascii	"rt_test_003_002_execute\000"
 2162      6573745F 
 2162      3030335F 
 2162      3030325F 
 2162      65786563 
 2163              	.LASF37:
 2164 0218 74656172 		.ascii	"teardown\000"
 2164      646F776E 
 2164      00
 2165              	.LASF35:
 2166 0221 6E616D65 		.ascii	"name\000"
 2166      00
 2167              	.LASF2:
ARM GAS  C:\Users\DEVELO~1\AppData\Local\Temp\ccqNMLdz.s 			page 41


 2168 0226 6C6F6E67 		.ascii	"long double\000"
 2168      20646F75 
 2168      626C6500 
 2169              	.LASF6:
 2170 0232 756E7369 		.ascii	"unsigned char\000"
 2170      676E6564 
 2170      20636861 
 2170      7200
 2171              	.LASF28:
 2172 0240 6C6F6361 		.ascii	"local_fail\000"
 2172      6C5F6661 
 2172      696C00
 2173              	.LASF3:
 2174 024b 7369676E 		.ascii	"signed char\000"
 2174      65642063 
 2174      68617200 
 2175              	.LASF13:
 2176 0257 6C6F6E67 		.ascii	"long long unsigned int\000"
 2176      206C6F6E 
 2176      6720756E 
 2176      7369676E 
 2176      65642069 
 2177              	.LASF16:
 2178 026e 75696E74 		.ascii	"uint32_t\000"
 2178      33325F74 
 2178      00
 2179              	.LASF0:
 2180 0277 756E7369 		.ascii	"unsigned int\000"
 2180      676E6564 
 2180      20696E74 
 2180      00
 2181              	.LASF47:
 2182 0284 74696D65 		.ascii	"time\000"
 2182      00
 2183              	.LASF50:
 2184 0289 73746172 		.ascii	"start\000"
 2184      7400
 2185              	.LASF8:
 2186 028f 73686F72 		.ascii	"short unsigned int\000"
 2186      7420756E 
 2186      7369676E 
 2186      65642069 
 2186      6E7400
 2187              	.LASF19:
 2188 02a2 73797374 		.ascii	"systime_t\000"
 2188      696D655F 
 2188      7400
 2189              	.LASF18:
 2190 02ac 63686172 		.ascii	"char\000"
 2190      00
 2191              	.LASF10:
 2192 02b1 6C6F6E67 		.ascii	"long int\000"
 2192      20696E74 
 2192      00
 2193              	.LASF15:
 2194 02ba 696E7433 		.ascii	"int32_t\000"
 2194      325F7400 
ARM GAS  C:\Users\DEVELO~1\AppData\Local\Temp\ccqNMLdz.s 			page 42


 2195              	.LASF20:
 2196 02c2 5F426F6F 		.ascii	"_Bool\000"
 2196      6C00
 2197              	.LASF46:
 2198 02c8 72745F74 		.ascii	"rt_test_sequence_003_array\000"
 2198      6573745F 
 2198      73657175 
 2198      656E6365 
 2198      5F303033 
 2199              	.LASF49:
 2200 02e3 706F7274 		.ascii	"port_timer_get_time\000"
 2200      5F74696D 
 2200      65725F67 
 2200      65745F74 
 2200      696D6500 
 2201              	.LASF43:
 2202 02f7 72745F74 		.ascii	"rt_test_sequence_003\000"
 2202      6573745F 
 2202      73657175 
 2202      656E6365 
 2202      5F303033 
 2203              	.LASF12:
 2204 030c 6C6F6E67 		.ascii	"long unsigned int\000"
 2204      20756E73 
 2204      69676E65 
 2204      6420696E 
 2204      7400
 2205              	.LASF51:
 2206 031e 474E5520 		.ascii	"GNU C17 11.3.1 20220712 -mcpu=cortex-m7 -mthumb -mf"
 2206      43313720 
 2206      31312E33 
 2206      2E312032 
 2206      30323230 
 2207 0351 6C6F6174 		.ascii	"loat-abi=soft -march=armv7e-m -ggdb -O2 -fomit-fram"
 2207      2D616269 
 2207      3D736F66 
 2207      74202D6D 
 2207      61726368 
 2208 0384 652D706F 		.ascii	"e-pointer -falign-functions=16 -ffunction-sections "
 2208      696E7465 
 2208      72202D66 
 2208      616C6967 
 2208      6E2D6675 
 2209 03b7 2D666461 		.ascii	"-fdata-sections -fno-common\000"
 2209      74612D73 
 2209      65637469 
 2209      6F6E7320 
 2209      2D666E6F 
 2210              	.LASF9:
 2211 03d3 5F5F696E 		.ascii	"__int32_t\000"
 2211      7433325F 
 2211      7400
 2212              	.LASF38:
 2213 03dd 65786563 		.ascii	"execute\000"
 2213      75746500 
 2214              	.LASF17:
 2215 03e5 6D73675F 		.ascii	"msg_t\000"
ARM GAS  C:\Users\DEVELO~1\AppData\Local\Temp\ccqNMLdz.s 			page 43


 2215      7400
 2216              	.LASF54:
 2217 03eb 42617365 		.ascii	"BaseSequentialStreamVMT\000"
 2217      53657175 
 2217      656E7469 
 2217      616C5374 
 2217      7265616D 
 2218              		.ident	"GCC: (Arm GNU Toolchain 11.3.Rel1) 11.3.1 20220712"
ARM GAS  C:\Users\DEVELO~1\AppData\Local\Temp\ccqNMLdz.s 			page 44


DEFINED SYMBOLS
                            *ABS*:00000000 rt_test_sequence_003.c
C:\Users\DEVELO~1\AppData\Local\Temp\ccqNMLdz.s:18     .text.rt_test_003_001_execute:00000000 $t
C:\Users\DEVELO~1\AppData\Local\Temp\ccqNMLdz.s:24     .text.rt_test_003_001_execute:00000000 rt_test_003_001_execute
C:\Users\DEVELO~1\AppData\Local\Temp\ccqNMLdz.s:93     .text.rt_test_003_001_execute:00000018 $d
C:\Users\DEVELO~1\AppData\Local\Temp\ccqNMLdz.s:98     .rodata.rt_test_003_002_execute.str1.4:00000000 $d
C:\Users\DEVELO~1\AppData\Local\Temp\ccqNMLdz.s:105    .text.rt_test_003_002_execute:00000000 $t
C:\Users\DEVELO~1\AppData\Local\Temp\ccqNMLdz.s:111    .text.rt_test_003_002_execute:00000000 rt_test_003_002_execute
C:\Users\DEVELO~1\AppData\Local\Temp\ccqNMLdz.s:302    .text.rt_test_003_002_execute:000000a0 $d
C:\Users\DEVELO~1\AppData\Local\Temp\ccqNMLdz.s:345    .rodata.rt_test_sequence_003:00000000 rt_test_sequence_003
C:\Users\DEVELO~1\AppData\Local\Temp\ccqNMLdz.s:313    .rodata.str1.4:00000000 $d
C:\Users\DEVELO~1\AppData\Local\Temp\ccqNMLdz.s:352    .rodata.rt_test_sequence_003_array:00000000 rt_test_sequence_003_array
C:\Users\DEVELO~1\AppData\Local\Temp\ccqNMLdz.s:324    .rodata.rt_test_003_001:00000000 $d
C:\Users\DEVELO~1\AppData\Local\Temp\ccqNMLdz.s:327    .rodata.rt_test_003_001:00000000 rt_test_003_001
C:\Users\DEVELO~1\AppData\Local\Temp\ccqNMLdz.s:333    .rodata.rt_test_003_002:00000000 $d
C:\Users\DEVELO~1\AppData\Local\Temp\ccqNMLdz.s:336    .rodata.rt_test_003_002:00000000 rt_test_003_002
C:\Users\DEVELO~1\AppData\Local\Temp\ccqNMLdz.s:342    .rodata.rt_test_sequence_003:00000000 $d
C:\Users\DEVELO~1\AppData\Local\Temp\ccqNMLdz.s:349    .rodata.rt_test_sequence_003_array:00000000 $d

UNDEFINED SYMBOLS
stGetCounter
chtest
__test_assert
