ARM GAS  C:\Users\DEVELO~1\AppData\Local\Temp\ccWhNiyT.s 			page 1


   1              		.cpu cortex-m7
   2              		.arch armv7e-m
   3              		.fpu softvfp
   4              		.eabi_attribute 20, 1
   5              		.eabi_attribute 21, 1
   6              		.eabi_attribute 23, 3
   7              		.eabi_attribute 24, 1
   8              		.eabi_attribute 25, 1
   9              		.eabi_attribute 26, 1
  10              		.eabi_attribute 30, 2
  11              		.eabi_attribute 34, 1
  12              		.eabi_attribute 18, 4
  13              		.file	"rt_test_sequence_004.c"
  14              		.text
  15              	.Ltext0:
  16              		.cfi_sections	.debug_frame
  17              		.section	.rodata.rt_test_004_001_execute.str1.4,"aMS",%progbits,1
  18              		.align	2
  19              	.LC0:
  20 0000 6E6F7420 		.ascii	"not monotonic\000"
  20      6D6F6E6F 
  20      746F6E69 
  20      6300
  21              		.section	.text.rt_test_004_001_execute,"ax",%progbits
  22              		.align	1
  23              		.p2align 4,,15
  24              		.syntax unified
  25              		.thumb
  26              		.thumb_func
  27              		.type	rt_test_004_001_execute, %function
  28              	rt_test_004_001_execute:
  29              	.LFB452:
  30              		.file 1 "./ChibiOS/test/rt/source/test/rt_test_sequence_004.c"
  31              		.loc 1 66 43 view -0
  32              		.cfi_startproc
  33              		@ args = 0, pretend = 0, frame = 0
  34              		@ frame_needed = 0, uses_anonymous_args = 0
  35              		.loc 1 69 3 view .LVU1
  36              		.loc 1 66 43 is_stmt 0 view .LVU2
  37 0000 2DE9F843 		push	{r3, r4, r5, r6, r7, r8, r9, lr}
  38              		.cfi_def_cfa_offset 32
  39              		.cfi_offset 3, -32
  40              		.cfi_offset 4, -28
  41              		.cfi_offset 5, -24
  42              		.cfi_offset 6, -20
  43              		.cfi_offset 7, -16
  44              		.cfi_offset 8, -12
  45              		.cfi_offset 9, -8
  46              		.cfi_offset 14, -4
  47              		.loc 1 69 3 view .LVU3
  48 0004 0122     		movs	r2, #1
  49 0006 184B     		ldr	r3, .L8
  50              	.LBB64:
  51              	.LBB65:
  52              	.LBB66:
  53              	.LBB67:
  54              	.LBB68:
ARM GAS  C:\Users\DEVELO~1\AppData\Local\Temp\ccWhNiyT.s 			page 2


  55              	.LBB69:
  56              	.LBB70:
  57              		.file 2 "./ChibiOS/os/common/ext/ARM/CMSIS/Core/Include/cmsis_gcc.h"
  58              		.loc 2 493 3 view .LVU4
  59 0008 3027     		movs	r7, #48
  60              	.LBE70:
  61              	.LBE69:
  62              	.LBE68:
  63              	.LBE67:
  64              	.LBE66:
  65              	.LBE65:
  66              	.LBE64:
  67              		.loc 1 69 3 view .LVU5
  68 000a 1A60     		str	r2, [r3]
  69              	.LBB111:
  70              		.loc 1 71 5 is_stmt 1 view .LVU6
  71              		.loc 1 72 5 view .LVU7
  72              		.loc 1 73 5 view .LVU8
  73              		.loc 1 75 5 view .LVU9
  74              	.LBB86:
  75              	.LBI65:
  76              		.file 3 "./ChibiOS/os/rt/include/chvt.h"
  77              		.loc 3 483 30 view .LVU10
  78              	.LBB85:
  79              		.loc 3 484 3 view .LVU11
  80              		.loc 3 486 3 view .LVU12
  81              	.LBB74:
  82              	.LBI67:
  83              		.file 4 "./ChibiOS/os/rt/include/chsys.h"
  84              		.loc 4 372 20 view .LVU13
  85              		.loc 4 374 3 view .LVU14
  86              	.LBB73:
  87              	.LBI68:
  88              		.file 5 "./ChibiOS/os/common/ports/ARMv7-M/chcore.h"
  89              		.loc 5 840 27 view .LVU15
  90              		.loc 5 848 3 view .LVU16
  91              	.LVL0:
  92              	.LBB72:
  93              	.LBI69:
  94              		.loc 2 491 27 view .LVU17
  95              	.LBB71:
  96              		.loc 2 493 3 view .LVU18
  97              		.syntax unified
  98              	@ 493 "./ChibiOS/os/common/ext/ARM/CMSIS/Core/Include/cmsis_gcc.h" 1
  99 000c 87F31188 		MSR basepri, r7
 100              	@ 0 "" 2
 101              	.LVL1:
 102              		.loc 2 493 3 is_stmt 0 view .LVU19
 103              		.thumb
 104              		.syntax unified
 105              	.LBE71:
 106              	.LBE72:
 107              	.LBE73:
 108              		.loc 4 375 35 is_stmt 1 view .LVU20
 109              		.loc 4 376 21 view .LVU21
 110              	.LBE74:
 111              		.loc 3 488 3 view .LVU22
ARM GAS  C:\Users\DEVELO~1\AppData\Local\Temp\ccWhNiyT.s 			page 3


 112              		.loc 3 488 11 is_stmt 0 view .LVU23
 113 0010 FFF7FEFF 		bl	chVTGetTimeStampI
 114              	.LVL2:
 115              	.LBB75:
 116              	.LBB76:
 117              	.LBB77:
 118              	.LBB78:
 119              	.LBB79:
 120              		.loc 2 493 3 view .LVU24
 121 0014 0026     		movs	r6, #0
 122              	.LBE79:
 123              	.LBE78:
 124              	.LBE77:
 125              	.LBE76:
 126              	.LBE75:
 127              		.loc 3 488 11 view .LVU25
 128 0016 0546     		mov	r5, r0
 129 0018 0C46     		mov	r4, r1
 130              	.LVL3:
 131              		.loc 3 490 3 is_stmt 1 view .LVU26
 132              	.LBB84:
 133              	.LBI75:
 134              		.loc 4 386 20 view .LVU27
 135              	.LBB83:
 136              		.loc 4 388 23 view .LVU28
 137              		.loc 4 389 34 view .LVU29
 138              		.loc 4 395 3 view .LVU30
 139              		.loc 4 395 3 view .LVU31
 140              		.loc 4 395 3 view .LVU32
 141              		.loc 4 399 3 view .LVU33
 142              	.LBB82:
 143              	.LBI77:
 144              		.loc 5 864 27 view .LVU34
 145              		.loc 5 867 3 view .LVU35
 146              	.LBB81:
 147              	.LBI78:
 148              		.loc 2 491 27 view .LVU36
 149              	.LBB80:
 150              		.loc 2 493 3 view .LVU37
 151              		.syntax unified
 152              	@ 493 "./ChibiOS/os/common/ext/ARM/CMSIS/Core/Include/cmsis_gcc.h" 1
 153 001a 86F31188 		MSR basepri, r6
 154              	@ 0 "" 2
 155              	.LVL4:
 156              		.loc 2 493 3 is_stmt 0 view .LVU38
 157              		.thumb
 158              		.syntax unified
 159              	.LBE80:
 160              	.LBE81:
 161              	.LBE82:
 162              	.LBE83:
 163              	.LBE84:
 164              		.loc 3 492 3 is_stmt 1 view .LVU39
 165              		.loc 3 492 3 is_stmt 0 view .LVU40
 166              	.LBE85:
 167              	.LBE86:
 168              		.loc 1 76 5 is_stmt 1 view .LVU41
ARM GAS  C:\Users\DEVELO~1\AppData\Local\Temp\ccWhNiyT.s 			page 4


 169              		.loc 1 76 13 is_stmt 0 view .LVU42
 170 001e FFF7FEFF 		bl	test_wait_tick
 171              	.LVL5:
 172              		.loc 1 84 7 view .LVU43
 173 0022 DFF84890 		ldr	r9, .L8+4
 174              		.loc 1 76 13 view .LVU44
 175 0026 8046     		mov	r8, r0
 176              	.LVL6:
 177              		.loc 1 77 5 is_stmt 1 view .LVU45
 178              		.loc 1 78 5 view .LVU46
 179              		.loc 1 79 7 view .LVU47
 180              		.loc 1 81 5 view .LVU48
 181              		.loc 1 81 5 is_stmt 0 view .LVU49
 182 0028 07E0     		b	.L3
 183              	.LVL7:
 184              	.L7:
 185              	.LBB87:
 186              	.LBB88:
 187              	.LBB89:
 188              	.LBB90:
 189              		.file 6 "./ChibiOS/os/hal/osal/rt-nil/chcore_timer.h"
 190              		.loc 6 113 10 discriminator 2 view .LVU50
 191 002a FFF7FEFF 		bl	stGetCounter
 192              	.LVL8:
 193              		.loc 6 113 10 discriminator 2 view .LVU51
 194              	.LBE90:
 195              	.LBE89:
 196              	.LBE88:
 197              	.LBB93:
 198              	.LBI93:
 199              		.file 7 "./ChibiOS/os/rt/include/chtime.h"
 200              		.loc 7 484 20 is_stmt 1 discriminator 2 view .LVU52
 201              	.LBB94:
 202              		.loc 7 488 3 discriminator 2 view .LVU53
 203              		.loc 7 488 3 is_stmt 0 discriminator 2 view .LVU54
 204              	.LBE94:
 205              	.LBE93:
 206              	.LBE87:
 207              		.loc 1 89 14 discriminator 2 view .LVU55
 208 002e 42F20F73 		movw	r3, #9999
 209              	.LBB98:
 210              	.LBB96:
 211              	.LBB95:
 212              		.loc 7 488 17 discriminator 2 view .LVU56
 213 0032 A0EB0800 		sub	r0, r0, r8
 214              	.LBE95:
 215              	.LBE96:
 216              	.LBE98:
 217              		.loc 1 89 14 discriminator 2 view .LVU57
 218 0036 9842     		cmp	r0, r3
 219 0038 14D8     		bhi	.L1
 220              	.LVL9:
 221              	.L3:
 222              		.loc 1 82 5 is_stmt 1 view .LVU58
 223              		.loc 1 83 7 view .LVU59
 224              	.LBB99:
 225              	.LBI99:
ARM GAS  C:\Users\DEVELO~1\AppData\Local\Temp\ccWhNiyT.s 			page 5


 226              		.loc 3 483 30 view .LVU60
 227              	.LBB100:
 228              		.loc 3 484 3 view .LVU61
 229              		.loc 3 486 3 view .LVU62
 230              	.LBB101:
 231              	.LBI101:
 232              		.loc 4 372 20 view .LVU63
 233              		.loc 4 374 3 view .LVU64
 234              	.LBB102:
 235              	.LBI102:
 236              		.loc 5 840 27 view .LVU65
 237              		.loc 5 848 3 view .LVU66
 238              	.LBB103:
 239              	.LBI103:
 240              		.loc 2 491 27 view .LVU67
 241              	.LBB104:
 242              		.loc 2 493 3 view .LVU68
 243              		.syntax unified
 244              	@ 493 "./ChibiOS/os/common/ext/ARM/CMSIS/Core/Include/cmsis_gcc.h" 1
 245 003a 87F31188 		MSR basepri, r7
 246              	@ 0 "" 2
 247              	.LVL10:
 248              		.loc 2 493 3 is_stmt 0 view .LVU69
 249              		.thumb
 250              		.syntax unified
 251              	.LBE104:
 252              	.LBE103:
 253              	.LBE102:
 254              		.loc 4 375 35 is_stmt 1 view .LVU70
 255              		.loc 4 376 21 view .LVU71
 256              	.LBE101:
 257              		.loc 3 488 3 view .LVU72
 258              		.loc 3 488 11 is_stmt 0 view .LVU73
 259 003e FFF7FEFF 		bl	chVTGetTimeStampI
 260              	.LVL11:
 261 0042 2A46     		mov	r2, r5
 262 0044 2346     		mov	r3, r4
 263 0046 0546     		mov	r5, r0
 264              	.LVL12:
 265              		.loc 3 488 11 view .LVU74
 266 0048 0C46     		mov	r4, r1
 267              	.LVL13:
 268              		.loc 3 490 3 is_stmt 1 view .LVU75
 269              	.LBB105:
 270              	.LBI105:
 271              		.loc 4 386 20 view .LVU76
 272              	.LBB106:
 273              		.loc 4 388 23 view .LVU77
 274              		.loc 4 389 34 view .LVU78
 275              		.loc 4 395 3 view .LVU79
 276              		.loc 4 395 3 view .LVU80
 277              		.loc 4 395 3 view .LVU81
 278              		.loc 4 399 3 view .LVU82
 279              	.LBB107:
 280              	.LBI107:
 281              		.loc 5 864 27 view .LVU83
 282              		.loc 5 867 3 view .LVU84
ARM GAS  C:\Users\DEVELO~1\AppData\Local\Temp\ccWhNiyT.s 			page 6


 283              	.LBB108:
 284              	.LBI108:
 285              		.loc 2 491 27 view .LVU85
 286              	.LBB109:
 287              		.loc 2 493 3 view .LVU86
 288              		.syntax unified
 289              	@ 493 "./ChibiOS/os/common/ext/ARM/CMSIS/Core/Include/cmsis_gcc.h" 1
 290 004a 86F31188 		MSR basepri, r6
 291              	@ 0 "" 2
 292              	.LVL14:
 293              		.loc 2 493 3 is_stmt 0 view .LVU87
 294              		.thumb
 295              		.syntax unified
 296              	.LBE109:
 297              	.LBE108:
 298              	.LBE107:
 299              	.LBE106:
 300              	.LBE105:
 301              		.loc 3 492 3 is_stmt 1 view .LVU88
 302              		.loc 3 492 3 is_stmt 0 view .LVU89
 303              	.LBE100:
 304              	.LBE99:
 305              		.loc 1 84 7 is_stmt 1 view .LVU90
 306 004e 9042     		cmp	r0, r2
 307 0050 4946     		mov	r1, r9
 308              	.LVL15:
 309              		.loc 1 84 7 is_stmt 0 view .LVU91
 310 0052 74EB0303 		sbcs	r3, r4, r3
 311              	.LVL16:
 312              		.loc 1 84 7 view .LVU92
 313 0056 2CBF     		ite	cs
 314 0058 0120     		movcs	r0, #1
 315              	.LVL17:
 316              		.loc 1 84 7 view .LVU93
 317 005a 0020     		movcc	r0, #0
 318 005c FFF7FEFF 		bl	__test_assert
 319              	.LVL18:
 320              		.loc 1 84 48 is_stmt 1 view .LVU94
 321              		.loc 1 85 7 view .LVU95
 322              		.loc 1 89 14 view .LVU96
 323              	.LBB110:
 324              	.LBI87:
 325              		.loc 3 190 20 view .LVU97
 326              		.loc 3 192 3 view .LVU98
 327              	.LBB97:
 328              	.LBI88:
 329              		.loc 3 135 25 view .LVU99
 330              		.loc 3 140 3 view .LVU100
 331              	.LBB92:
 332              	.LBI89:
 333              		.loc 6 111 25 view .LVU101
 334              	.LBB91:
 335              		.loc 6 113 3 view .LVU102
 336              	.LBE91:
 337              	.LBE92:
 338              	.LBE97:
 339              	.LBE110:
ARM GAS  C:\Users\DEVELO~1\AppData\Local\Temp\ccWhNiyT.s 			page 7


 340              		.loc 1 84 7 is_stmt 0 view .LVU103
 341 0060 0028     		cmp	r0, #0
 342 0062 E2D0     		beq	.L7
 343              	.LVL19:
 344              	.L1:
 345              		.loc 1 84 7 view .LVU104
 346              	.LBE111:
 347              		.loc 1 92 1 view .LVU105
 348 0064 BDE8F883 		pop	{r3, r4, r5, r6, r7, r8, r9, pc}
 349              	.LVL20:
 350              	.L9:
 351              		.loc 1 92 1 view .LVU106
 352              		.align	2
 353              	.L8:
 354 0068 00000000 		.word	chtest
 355 006c 00000000 		.word	.LC0
 356              		.cfi_endproc
 357              	.LFE452:
 358              		.size	rt_test_004_001_execute, .-rt_test_004_001_execute
 359              		.global	rt_test_sequence_004
 360              		.section	.rodata.str1.4,"aMS",%progbits,1
 361              		.align	2
 362              	.LC1:
 363 0000 54696D65 		.ascii	"Time Stamps Functionality\000"
 363      20537461 
 363      6D707320 
 363      46756E63 
 363      74696F6E 
 364              		.global	rt_test_sequence_004_array
 365 001a 0000     		.align	2
 366              	.LC2:
 367 001c 54696D65 		.ascii	"Time Stamps functionality\000"
 367      20537461 
 367      6D707320 
 367      66756E63 
 367      74696F6E 
 368              		.section	.rodata.rt_test_004_001,"a"
 369              		.align	2
 370              		.type	rt_test_004_001, %object
 371              		.size	rt_test_004_001, 16
 372              	rt_test_004_001:
 373 0000 1C000000 		.word	.LC2
 374 0004 00000000 		.word	0
 375 0008 00000000 		.word	0
 376 000c 00000000 		.word	rt_test_004_001_execute
 377              		.section	.rodata.rt_test_sequence_004,"a"
 378              		.align	2
 379              		.type	rt_test_sequence_004, %object
 380              		.size	rt_test_sequence_004, 8
 381              	rt_test_sequence_004:
 382 0000 00000000 		.word	.LC1
 383 0004 00000000 		.word	rt_test_sequence_004_array
 384              		.section	.rodata.rt_test_sequence_004_array,"a"
 385              		.align	2
 386              		.type	rt_test_sequence_004_array, %object
 387              		.size	rt_test_sequence_004_array, 8
 388              	rt_test_sequence_004_array:
ARM GAS  C:\Users\DEVELO~1\AppData\Local\Temp\ccWhNiyT.s 			page 8


 389 0000 00000000 		.word	rt_test_004_001
 390 0004 00000000 		.word	0
 391              		.text
 392              	.Letext0:
 393              		.file 8 "c:\\chibistudio\\tools\\gnu tools arm embedded\\11.3 2022.08\\lib\\gcc\\arm-none-eabi\\11
 394              		.file 9 "c:\\chibistudio\\tools\\gnu tools arm embedded\\11.3 2022.08\\arm-none-eabi\\include\\mac
 395              		.file 10 "c:\\chibistudio\\tools\\gnu tools arm embedded\\11.3 2022.08\\arm-none-eabi\\include\\sy
 396              		.file 11 "./ChibiOS/os/rt/include/chearly.h"
 397              		.file 12 "./ChibiOS/os/hal/include/hal_streams.h"
 398              		.file 13 "./ChibiOS/os/test/include/ch_test.h"
 399              		.file 14 "./ChibiOS/test/rt/source/test/rt_test_sequence_004.h"
 400              		.file 15 "./ChibiOS/os/hal/include/hal_st.h"
 401              		.file 16 "./ChibiOS/test/rt/source/test/rt_test_root.h"
 402              		.section	.debug_info,"",%progbits
 403              	.Ldebug_info0:
 404 0000 F6070000 		.4byte	0x7f6
 405 0004 0500     		.2byte	0x5
 406 0006 01       		.byte	0x1
 407 0007 04       		.byte	0x4
 408 0008 00000000 		.4byte	.Ldebug_abbrev0
 409 000c 1E       		.uleb128 0x1e
 410 000d 5A030000 		.4byte	.LASF71
 411 0011 1D       		.byte	0x1d
 412 0012 70000000 		.4byte	.LASF72
 413 0016 98010000 		.4byte	.LASF73
 414 001a 63000000 		.4byte	.LLRL23
 415 001e 00000000 		.4byte	0
 416 0022 00000000 		.4byte	.Ldebug_line0
 417 0026 1F       		.uleb128 0x1f
 418 0027 04       		.byte	0x4
 419 0028 05       		.byte	0x5
 420 0029 696E7400 		.ascii	"int\000"
 421 002d 01       		.uleb128 0x1
 422 002e 5D000000 		.4byte	.LASF4
 423 0032 08       		.byte	0x8
 424 0033 D1       		.byte	0xd1
 425 0034 17       		.byte	0x17
 426 0035 39000000 		.4byte	0x39
 427 0039 04       		.uleb128 0x4
 428 003a 04       		.byte	0x4
 429 003b 07       		.byte	0x7
 430 003c 9D040000 		.4byte	.LASF0
 431 0040 04       		.uleb128 0x4
 432 0041 08       		.byte	0x8
 433 0042 05       		.byte	0x5
 434 0043 4D010000 		.4byte	.LASF1
 435 0047 04       		.uleb128 0x4
 436 0048 08       		.byte	0x8
 437 0049 04       		.byte	0x4
 438 004a 00000000 		.4byte	.LASF2
 439 004e 04       		.uleb128 0x4
 440 004f 01       		.byte	0x1
 441 0050 06       		.byte	0x6
 442 0051 21020000 		.4byte	.LASF3
 443 0055 01       		.uleb128 0x1
 444 0056 E7010000 		.4byte	.LASF5
 445 005a 09       		.byte	0x9
ARM GAS  C:\Users\DEVELO~1\AppData\Local\Temp\ccWhNiyT.s 			page 9


 446 005b 2B       		.byte	0x2b
 447 005c 18       		.byte	0x18
 448 005d 61000000 		.4byte	0x61
 449 0061 04       		.uleb128 0x4
 450 0062 01       		.byte	0x1
 451 0063 08       		.byte	0x8
 452 0064 FF010000 		.4byte	.LASF6
 453 0068 04       		.uleb128 0x4
 454 0069 02       		.byte	0x2
 455 006a 05       		.byte	0x5
 456 006b 53000000 		.4byte	.LASF7
 457 006f 04       		.uleb128 0x4
 458 0070 02       		.byte	0x2
 459 0071 07       		.byte	0x7
 460 0072 90020000 		.4byte	.LASF8
 461 0076 01       		.uleb128 0x1
 462 0077 4A040000 		.4byte	.LASF9
 463 007b 09       		.byte	0x9
 464 007c 4D       		.byte	0x4d
 465 007d 18       		.byte	0x18
 466 007e 82000000 		.4byte	0x82
 467 0082 04       		.uleb128 0x4
 468 0083 04       		.byte	0x4
 469 0084 05       		.byte	0x5
 470 0085 94040000 		.4byte	.LASF10
 471 0089 01       		.uleb128 0x1
 472 008a 18040000 		.4byte	.LASF11
 473 008e 09       		.byte	0x9
 474 008f 4F       		.byte	0x4f
 475 0090 19       		.byte	0x19
 476 0091 95000000 		.4byte	0x95
 477 0095 04       		.uleb128 0x4
 478 0096 04       		.byte	0x4
 479 0097 07       		.byte	0x7
 480 0098 48030000 		.4byte	.LASF12
 481 009c 01       		.uleb128 0x1
 482 009d 0E030000 		.4byte	.LASF13
 483 00a1 09       		.byte	0x9
 484 00a2 69       		.byte	0x69
 485 00a3 19       		.byte	0x19
 486 00a4 A8000000 		.4byte	0xa8
 487 00a8 04       		.uleb128 0x4
 488 00a9 08       		.byte	0x8
 489 00aa 07       		.byte	0x7
 490 00ab 2D020000 		.4byte	.LASF14
 491 00af 01       		.uleb128 0x1
 492 00b0 0A010000 		.4byte	.LASF15
 493 00b4 0A       		.byte	0xa
 494 00b5 18       		.byte	0x18
 495 00b6 13       		.byte	0x13
 496 00b7 55000000 		.4byte	0x55
 497 00bb 07       		.uleb128 0x7
 498 00bc AF000000 		.4byte	0xaf
 499 00c0 01       		.uleb128 0x1
 500 00c1 D2020000 		.4byte	.LASF16
 501 00c5 0A       		.byte	0xa
 502 00c6 2C       		.byte	0x2c
ARM GAS  C:\Users\DEVELO~1\AppData\Local\Temp\ccWhNiyT.s 			page 10


 503 00c7 13       		.byte	0x13
 504 00c8 76000000 		.4byte	0x76
 505 00cc 01       		.uleb128 0x1
 506 00cd 44020000 		.4byte	.LASF17
 507 00d1 0A       		.byte	0xa
 508 00d2 30       		.byte	0x30
 509 00d3 14       		.byte	0x14
 510 00d4 89000000 		.4byte	0x89
 511 00d8 01       		.uleb128 0x1
 512 00d9 4A000000 		.4byte	.LASF18
 513 00dd 0A       		.byte	0xa
 514 00de 3C       		.byte	0x3c
 515 00df 14       		.byte	0x14
 516 00e0 9C000000 		.4byte	0x9c
 517 00e4 01       		.uleb128 0x1
 518 00e5 B2040000 		.4byte	.LASF19
 519 00e9 0B       		.byte	0xb
 520 00ea 58       		.byte	0x58
 521 00eb 19       		.byte	0x19
 522 00ec C0000000 		.4byte	0xc0
 523 00f0 03       		.uleb128 0x3
 524 00f1 FC000000 		.4byte	0xfc
 525 00f5 04       		.uleb128 0x4
 526 00f6 01       		.byte	0x1
 527 00f7 08       		.byte	0x8
 528 00f8 B5020000 		.4byte	.LASF20
 529 00fc 07       		.uleb128 0x7
 530 00fd F5000000 		.4byte	0xf5
 531 0101 01       		.uleb128 0x1
 532 0102 AB020000 		.4byte	.LASF21
 533 0106 07       		.byte	0x7
 534 0107 6D       		.byte	0x6d
 535 0108 12       		.byte	0x12
 536 0109 CC000000 		.4byte	0xcc
 537 010d 01       		.uleb128 0x1
 538 010e 00030000 		.4byte	.LASF22
 539 0112 07       		.byte	0x7
 540 0113 79       		.byte	0x79
 541 0114 12       		.byte	0x12
 542 0115 CC000000 		.4byte	0xcc
 543 0119 01       		.uleb128 0x1
 544 011a 60040000 		.4byte	.LASF23
 545 011e 07       		.byte	0x7
 546 011f 81       		.byte	0x81
 547 0120 12       		.byte	0x12
 548 0121 D8000000 		.4byte	0xd8
 549 0125 01       		.uleb128 0x1
 550 0126 54040000 		.4byte	.LASF24
 551 012a 07       		.byte	0x7
 552 012b 9B       		.byte	0x9b
 553 012c 12       		.byte	0x12
 554 012d D8000000 		.4byte	0xd8
 555 0131 03       		.uleb128 0x3
 556 0132 AF000000 		.4byte	0xaf
 557 0136 20       		.uleb128 0x20
 558 0137 04       		.byte	0x4
 559 0138 04       		.uleb128 0x4
ARM GAS  C:\Users\DEVELO~1\AppData\Local\Temp\ccWhNiyT.s 			page 11


 560 0139 01       		.byte	0x1
 561 013a 02       		.byte	0x2
 562 013b EE020000 		.4byte	.LASF25
 563 013f 21       		.uleb128 0x21
 564 0140 B8040000 		.4byte	.LASF74
 565 0144 14       		.byte	0x14
 566 0145 0C       		.byte	0xc
 567 0146 4F       		.byte	0x4f
 568 0147 08       		.byte	0x8
 569 0148 8C010000 		.4byte	0x18c
 570 014c 02       		.uleb128 0x2
 571 014d 6C010000 		.4byte	.LASF26
 572 0151 0C       		.byte	0xc
 573 0152 50       		.byte	0x50
 574 0153 03       		.byte	0x3
 575 0154 2D000000 		.4byte	0x2d
 576 0158 00       		.byte	0
 577 0159 02       		.uleb128 0x2
 578 015a 44000000 		.4byte	.LASF27
 579 015e 0C       		.byte	0xc
 580 015f 50       		.byte	0x50
 581 0160 03       		.byte	0x3
 582 0161 AF010000 		.4byte	0x1af
 583 0165 04       		.byte	0x4
 584 0166 02       		.uleb128 0x2
 585 0167 48010000 		.4byte	.LASF28
 586 016b 0C       		.byte	0xc
 587 016c 50       		.byte	0x50
 588 016d 03       		.byte	0x3
 589 016e CD010000 		.4byte	0x1cd
 590 0172 08       		.byte	0x8
 591 0173 0E       		.uleb128 0xe
 592 0174 70757400 		.ascii	"put\000"
 593 0178 50       		.byte	0x50
 594 0179 03       		.byte	0x3
 595 017a E6010000 		.4byte	0x1e6
 596 017e 0C       		.byte	0xc
 597 017f 0E       		.uleb128 0xe
 598 0180 67657400 		.ascii	"get\000"
 599 0184 50       		.byte	0x50
 600 0185 03       		.byte	0x3
 601 0186 FA010000 		.4byte	0x1fa
 602 018a 10       		.byte	0x10
 603 018b 00       		.byte	0
 604 018c 07       		.uleb128 0x7
 605 018d 3F010000 		.4byte	0x13f
 606 0191 08       		.uleb128 0x8
 607 0192 2D000000 		.4byte	0x2d
 608 0196 AA010000 		.4byte	0x1aa
 609 019a 05       		.uleb128 0x5
 610 019b 36010000 		.4byte	0x136
 611 019f 05       		.uleb128 0x5
 612 01a0 AA010000 		.4byte	0x1aa
 613 01a4 05       		.uleb128 0x5
 614 01a5 2D000000 		.4byte	0x2d
 615 01a9 00       		.byte	0
 616 01aa 03       		.uleb128 0x3
ARM GAS  C:\Users\DEVELO~1\AppData\Local\Temp\ccWhNiyT.s 			page 12


 617 01ab BB000000 		.4byte	0xbb
 618 01af 03       		.uleb128 0x3
 619 01b0 91010000 		.4byte	0x191
 620 01b4 08       		.uleb128 0x8
 621 01b5 2D000000 		.4byte	0x2d
 622 01b9 CD010000 		.4byte	0x1cd
 623 01bd 05       		.uleb128 0x5
 624 01be 36010000 		.4byte	0x136
 625 01c2 05       		.uleb128 0x5
 626 01c3 31010000 		.4byte	0x131
 627 01c7 05       		.uleb128 0x5
 628 01c8 2D000000 		.4byte	0x2d
 629 01cc 00       		.byte	0
 630 01cd 03       		.uleb128 0x3
 631 01ce B4010000 		.4byte	0x1b4
 632 01d2 08       		.uleb128 0x8
 633 01d3 E4000000 		.4byte	0xe4
 634 01d7 E6010000 		.4byte	0x1e6
 635 01db 05       		.uleb128 0x5
 636 01dc 36010000 		.4byte	0x136
 637 01e0 05       		.uleb128 0x5
 638 01e1 AF000000 		.4byte	0xaf
 639 01e5 00       		.byte	0
 640 01e6 03       		.uleb128 0x3
 641 01e7 D2010000 		.4byte	0x1d2
 642 01eb 08       		.uleb128 0x8
 643 01ec E4000000 		.4byte	0xe4
 644 01f0 FA010000 		.4byte	0x1fa
 645 01f4 05       		.uleb128 0x5
 646 01f5 36010000 		.4byte	0x136
 647 01f9 00       		.byte	0
 648 01fa 03       		.uleb128 0x3
 649 01fb EB010000 		.4byte	0x1eb
 650 01ff 0A       		.uleb128 0xa
 651 0200 04       		.byte	0x4
 652 0201 0C       		.byte	0xc
 653 0202 5A       		.byte	0x5a
 654 0203 14020000 		.4byte	0x214
 655 0207 0E       		.uleb128 0xe
 656 0208 766D7400 		.ascii	"vmt\000"
 657 020c 5C       		.byte	0x5c
 658 020d 29       		.byte	0x29
 659 020e 14020000 		.4byte	0x214
 660 0212 00       		.byte	0
 661 0213 00       		.byte	0
 662 0214 03       		.uleb128 0x3
 663 0215 8C010000 		.4byte	0x18c
 664 0219 01       		.uleb128 0x1
 665 021a C0000000 		.4byte	.LASF29
 666 021e 0C       		.byte	0xc
 667 021f 5E       		.byte	0x5e
 668 0220 03       		.byte	0x3
 669 0221 FF010000 		.4byte	0x1ff
 670 0225 01       		.uleb128 0x1
 671 0226 18010000 		.4byte	.LASF30
 672 022a 0D       		.byte	0xd
 673 022b 7D       		.byte	0x7d
ARM GAS  C:\Users\DEVELO~1\AppData\Local\Temp\ccWhNiyT.s 			page 13


 674 022c 0F       		.byte	0xf
 675 022d 31020000 		.4byte	0x231
 676 0231 03       		.uleb128 0x3
 677 0232 36020000 		.4byte	0x236
 678 0236 08       		.uleb128 0x8
 679 0237 26000000 		.4byte	0x26
 680 023b 45020000 		.4byte	0x245
 681 023f 05       		.uleb128 0x5
 682 0240 26000000 		.4byte	0x26
 683 0244 00       		.byte	0
 684 0245 0A       		.uleb128 0xa
 685 0246 28       		.byte	0x28
 686 0247 0D       		.byte	0xd
 687 0248 82       		.byte	0x82
 688 0249 B6020000 		.4byte	0x2b6
 689 024d 02       		.uleb128 0x2
 690 024e 27010000 		.4byte	.LASF31
 691 0252 0D       		.byte	0xd
 692 0253 86       		.byte	0x86
 693 0254 15       		.byte	0x15
 694 0255 39000000 		.4byte	0x39
 695 0259 00       		.byte	0
 696 025a 02       		.uleb128 0x2
 697 025b 64000000 		.4byte	.LASF32
 698 025f 0D       		.byte	0xd
 699 0260 8A       		.byte	0x8a
 700 0261 15       		.byte	0x15
 701 0262 38010000 		.4byte	0x138
 702 0266 04       		.byte	0x4
 703 0267 02       		.uleb128 0x2
 704 0268 16020000 		.4byte	.LASF33
 705 026c 0D       		.byte	0xd
 706 026d 8E       		.byte	0x8e
 707 026e 15       		.byte	0x15
 708 026f 38010000 		.4byte	0x138
 709 0273 05       		.byte	0x5
 710 0274 02       		.uleb128 0x2
 711 0275 7C010000 		.4byte	.LASF34
 712 0279 0D       		.byte	0xd
 713 027a 92       		.byte	0x92
 714 027b 16       		.byte	0x16
 715 027c F0000000 		.4byte	0xf0
 716 0280 08       		.byte	0x8
 717 0281 02       		.uleb128 0x2
 718 0282 8C010000 		.4byte	.LASF35
 719 0286 0D       		.byte	0xd
 720 0287 96       		.byte	0x96
 721 0288 16       		.byte	0x16
 722 0289 B6020000 		.4byte	0x2b6
 723 028d 0C       		.byte	0xc
 724 028e 02       		.uleb128 0x2
 725 028f 36000000 		.4byte	.LASF36
 726 0293 0D       		.byte	0xd
 727 0294 9A       		.byte	0x9a
 728 0295 15       		.byte	0x15
 729 0296 BB020000 		.4byte	0x2bb
 730 029a 10       		.byte	0x10
ARM GAS  C:\Users\DEVELO~1\AppData\Local\Temp\ccWhNiyT.s 			page 14


 731 029b 02       		.uleb128 0x2
 732 029c A5000000 		.4byte	.LASF37
 733 02a0 0D       		.byte	0xd
 734 02a1 9E       		.byte	0x9e
 735 02a2 15       		.byte	0x15
 736 02a3 25020000 		.4byte	0x225
 737 02a7 20       		.byte	0x20
 738 02a8 02       		.uleb128 0x2
 739 02a9 91010000 		.4byte	.LASF38
 740 02ad 0D       		.byte	0xd
 741 02ae A3       		.byte	0xa3
 742 02af 19       		.byte	0x19
 743 02b0 CB020000 		.4byte	0x2cb
 744 02b4 24       		.byte	0x24
 745 02b5 00       		.byte	0
 746 02b6 03       		.uleb128 0x3
 747 02b7 F5000000 		.4byte	0xf5
 748 02bb 0F       		.uleb128 0xf
 749 02bc F5000000 		.4byte	0xf5
 750 02c0 CB020000 		.4byte	0x2cb
 751 02c4 10       		.uleb128 0x10
 752 02c5 39000000 		.4byte	0x39
 753 02c9 0F       		.byte	0xf
 754 02ca 00       		.byte	0
 755 02cb 03       		.uleb128 0x3
 756 02cc 19020000 		.4byte	0x219
 757 02d0 01       		.uleb128 0x1
 758 02d1 24000000 		.4byte	.LASF39
 759 02d5 0D       		.byte	0xd
 760 02d6 A5       		.byte	0xa5
 761 02d7 03       		.byte	0x3
 762 02d8 45020000 		.4byte	0x245
 763 02dc 0A       		.uleb128 0xa
 764 02dd 10       		.byte	0x10
 765 02de 0D       		.byte	0xd
 766 02df AA       		.byte	0xaa
 767 02e0 19030000 		.4byte	0x319
 768 02e4 02       		.uleb128 0x2
 769 02e5 FA010000 		.4byte	.LASF40
 770 02e9 0D       		.byte	0xd
 771 02ea AB       		.byte	0xab
 772 02eb 0F       		.byte	0xf
 773 02ec F0000000 		.4byte	0xf0
 774 02f0 00       		.byte	0
 775 02f1 02       		.uleb128 0x2
 776 02f2 34010000 		.4byte	.LASF41
 777 02f6 0D       		.byte	0xd
 778 02f7 AC       		.byte	0xac
 779 02f8 0A       		.byte	0xa
 780 02f9 1A030000 		.4byte	0x31a
 781 02fd 04       		.byte	0x4
 782 02fe 02       		.uleb128 0x2
 783 02ff F1010000 		.4byte	.LASF42
 784 0303 0D       		.byte	0xd
 785 0304 AD       		.byte	0xad
 786 0305 0A       		.byte	0xa
 787 0306 1A030000 		.4byte	0x31a
ARM GAS  C:\Users\DEVELO~1\AppData\Local\Temp\ccWhNiyT.s 			page 15


 788 030a 08       		.byte	0x8
 789 030b 02       		.uleb128 0x2
 790 030c 7E040000 		.4byte	.LASF43
 791 0310 0D       		.byte	0xd
 792 0311 AE       		.byte	0xae
 793 0312 0A       		.byte	0xa
 794 0313 1A030000 		.4byte	0x31a
 795 0317 0C       		.byte	0xc
 796 0318 00       		.byte	0
 797 0319 22       		.uleb128 0x22
 798 031a 03       		.uleb128 0x3
 799 031b 19030000 		.4byte	0x319
 800 031f 01       		.uleb128 0x1
 801 0320 FF000000 		.4byte	.LASF44
 802 0324 0D       		.byte	0xd
 803 0325 AF       		.byte	0xaf
 804 0326 03       		.byte	0x3
 805 0327 DC020000 		.4byte	0x2dc
 806 032b 07       		.uleb128 0x7
 807 032c 1F030000 		.4byte	0x31f
 808 0330 0A       		.uleb128 0xa
 809 0331 08       		.byte	0x8
 810 0332 0D       		.byte	0xd
 811 0333 B4       		.byte	0xb4
 812 0334 53030000 		.4byte	0x353
 813 0338 02       		.uleb128 0x2
 814 0339 FA010000 		.4byte	.LASF40
 815 033d 0D       		.byte	0xd
 816 033e B5       		.byte	0xb5
 817 033f 16       		.byte	0x16
 818 0340 F0000000 		.4byte	0xf0
 819 0344 00       		.byte	0
 820 0345 02       		.uleb128 0x2
 821 0346 84020000 		.4byte	.LASF45
 822 034a 0D       		.byte	0xd
 823 034b B6       		.byte	0xb6
 824 034c 1E       		.byte	0x1e
 825 034d 53030000 		.4byte	0x353
 826 0351 04       		.byte	0x4
 827 0352 00       		.byte	0
 828 0353 03       		.uleb128 0x3
 829 0354 5D030000 		.4byte	0x35d
 830 0358 03       		.uleb128 0x3
 831 0359 2B030000 		.4byte	0x32b
 832 035d 07       		.uleb128 0x7
 833 035e 58030000 		.4byte	0x358
 834 0362 01       		.uleb128 0x1
 835 0363 F0000000 		.4byte	.LASF46
 836 0367 0D       		.byte	0xd
 837 0368 B7       		.byte	0xb7
 838 0369 03       		.byte	0x3
 839 036a 30030000 		.4byte	0x330
 840 036e 07       		.uleb128 0x7
 841 036f 62030000 		.4byte	0x362
 842 0373 23       		.uleb128 0x23
 843 0374 D5000000 		.4byte	.LASF47
 844 0378 0D       		.byte	0xd
ARM GAS  C:\Users\DEVELO~1\AppData\Local\Temp\ccWhNiyT.s 			page 16


 845 0379 2901     		.2byte	0x129
 846 037b 1A       		.byte	0x1a
 847 037c D0020000 		.4byte	0x2d0
 848 0380 24       		.uleb128 0x24
 849 0381 33030000 		.4byte	.LASF48
 850 0385 0E       		.byte	0xe
 851 0386 19       		.byte	0x19
 852 0387 1D       		.byte	0x1d
 853 0388 6E030000 		.4byte	0x36e
 854 038c 25       		.uleb128 0x25
 855 038d 4D020000 		.4byte	.LASF75
 856 0391 01       		.byte	0x1
 857 0392 5E       		.byte	0x5e
 858 0393 19       		.byte	0x19
 859 0394 2B030000 		.4byte	0x32b
 860 0398 05       		.uleb128 0x5
 861 0399 03       		.byte	0x3
 862 039a 00000000 		.4byte	rt_test_004_001
 863 039e 0F       		.uleb128 0xf
 864 039f 5D030000 		.4byte	0x35d
 865 03a3 AE030000 		.4byte	0x3ae
 866 03a7 10       		.uleb128 0x10
 867 03a8 39000000 		.4byte	0x39
 868 03ac 01       		.byte	0x1
 869 03ad 00       		.byte	0
 870 03ae 07       		.uleb128 0x7
 871 03af 9E030000 		.4byte	0x39e
 872 03b3 26       		.uleb128 0x26
 873 03b4 2F040000 		.4byte	.LASF49
 874 03b8 01       		.byte	0x1
 875 03b9 6C       		.byte	0x6c
 876 03ba 1A       		.byte	0x1a
 877 03bb AE030000 		.4byte	0x3ae
 878 03bf 05       		.uleb128 0x5
 879 03c0 03       		.byte	0x3
 880 03c1 00000000 		.4byte	rt_test_sequence_004_array
 881 03c5 27       		.uleb128 0x27
 882 03c6 80030000 		.4byte	0x380
 883 03ca 01       		.byte	0x1
 884 03cb 74       		.byte	0x74
 885 03cc 16       		.byte	0x16
 886 03cd 05       		.uleb128 0x5
 887 03ce 03       		.byte	0x3
 888 03cf 00000000 		.4byte	rt_test_sequence_004
 889 03d3 11       		.uleb128 0x11
 890 03d4 D0040000 		.4byte	.LASF50
 891 03d8 0F       		.byte	0xf
 892 03d9 4B       		.byte	0x4b
 893 03da 0D       		.byte	0xd
 894 03db 01010000 		.4byte	0x101
 895 03df 11       		.uleb128 0x11
 896 03e0 5D020000 		.4byte	.LASF51
 897 03e4 03       		.byte	0x3
 898 03e5 6F       		.byte	0x6f
 899 03e6 12       		.byte	0x12
 900 03e7 19010000 		.4byte	0x119
 901 03eb 28       		.uleb128 0x28
ARM GAS  C:\Users\DEVELO~1\AppData\Local\Temp\ccWhNiyT.s 			page 17


 902 03ec 3A010000 		.4byte	.LASF76
 903 03f0 0D       		.byte	0xd
 904 03f1 3001     		.2byte	0x130
 905 03f3 08       		.byte	0x8
 906 03f4 38010000 		.4byte	0x138
 907 03f8 07040000 		.4byte	0x407
 908 03fc 05       		.uleb128 0x5
 909 03fd 38010000 		.4byte	0x138
 910 0401 05       		.uleb128 0x5
 911 0402 F0000000 		.4byte	0xf0
 912 0406 00       		.byte	0
 913 0407 11       		.uleb128 0x11
 914 0408 6F040000 		.4byte	.LASF52
 915 040c 10       		.byte	0x10
 916 040d 65       		.byte	0x65
 917 040e 0B       		.byte	0xb
 918 040f 01010000 		.4byte	0x101
 919 0413 29       		.uleb128 0x29
 920 0414 BA020000 		.4byte	.LASF77
 921 0418 01       		.byte	0x1
 922 0419 42       		.byte	0x42
 923 041a 0D       		.byte	0xd
 924 041b 00000000 		.4byte	.LFB452
 925 041f 70000000 		.4byte	.LFE452-.LFB452
 926 0423 01       		.uleb128 0x1
 927 0424 9C       		.byte	0x9c
 928 0425 D6060000 		.4byte	0x6d6
 929 0429 12       		.uleb128 0x12
 930 042a 0C000000 		.4byte	.LLRL0
 931 042e 13       		.uleb128 0x13
 932 042f 8A020000 		.4byte	.LASF53
 933 0433 47       		.byte	0x47
 934 0434 0F       		.byte	0xf
 935 0435 01010000 		.4byte	0x101
 936 0439 10000000 		.4byte	.LLST1
 937 043d 0C000000 		.4byte	.LVUS1
 938 0441 16       		.uleb128 0x16
 939 0442 656E6400 		.ascii	"end\000"
 940 0446 47       		.byte	0x47
 941 0447 16       		.byte	0x16
 942 0448 01010000 		.4byte	0x101
 943 044c 24000000 		.4byte	.LLST2
 944 0450 20000000 		.4byte	.LVUS2
 945 0454 13       		.uleb128 0x13
 946 0455 7F020000 		.4byte	.LASF54
 947 0459 48       		.byte	0x48
 948 045a 14       		.byte	0x14
 949 045b 19010000 		.4byte	0x119
 950 045f 46000000 		.4byte	.LLST3
 951 0463 3C000000 		.4byte	.LVUS3
 952 0467 16       		.uleb128 0x16
 953 0468 6E6F7700 		.ascii	"now\000"
 954 046c 48       		.byte	0x48
 955 046d 1A       		.byte	0x1a
 956 046e 19010000 		.4byte	0x119
 957 0472 86000000 		.4byte	.LLST4
 958 0476 7E000000 		.4byte	.LVUS4
ARM GAS  C:\Users\DEVELO~1\AppData\Local\Temp\ccWhNiyT.s 			page 18


 959 047a 13       		.uleb128 0x13
 960 047b 19030000 		.4byte	.LASF55
 961 047f 49       		.byte	0x49
 962 0480 13       		.byte	0x13
 963 0481 0D010000 		.4byte	0x10d
 964 0485 B8000000 		.4byte	.LLST5
 965 0489 B4000000 		.4byte	.LVUS5
 966 048d 14       		.uleb128 0x14
 967 048e D6060000 		.4byte	0x6d6
 968 0492 0C000000 		.4byte	.LBI65
 969 0496 04       		.byte	.LVU10
 970 0497 18000000 		.4byte	.LLRL6
 971 049b 01       		.byte	0x1
 972 049c 4B       		.byte	0x4b
 973 049d 0C       		.byte	0xc
 974 049e 51050000 		.4byte	0x551
 975 04a2 12       		.uleb128 0x12
 976 04a3 18000000 		.4byte	.LLRL6
 977 04a7 17       		.uleb128 0x17
 978 04a8 E7060000 		.4byte	0x6e7
 979 04ac D2000000 		.4byte	.LLST7
 980 04b0 D0000000 		.4byte	.LVUS7
 981 04b4 18       		.uleb128 0x18
 982 04b5 56070000 		.4byte	0x756
 983 04b9 0C000000 		.4byte	.LBI67
 984 04bd 07       		.byte	.LVU13
 985 04be 24000000 		.4byte	.LLRL8
 986 04c2 E601     		.2byte	0x1e6
 987 04c4 FA040000 		.4byte	0x4fa
 988 04c8 0B       		.uleb128 0xb
 989 04c9 73070000 		.4byte	0x773
 990 04cd 0C000000 		.4byte	.LBI68
 991 04d1 09       		.byte	.LVU15
 992 04d2 24000000 		.4byte	.LLRL8
 993 04d6 04       		.byte	0x4
 994 04d7 7601     		.2byte	0x176
 995 04d9 0B       		.uleb128 0xb
 996 04da 7C070000 		.4byte	0x77c
 997 04de 0C000000 		.4byte	.LBI69
 998 04e2 0B       		.byte	.LVU17
 999 04e3 24000000 		.4byte	.LLRL8
 1000 04e7 05       		.byte	0x5
 1001 04e8 5003     		.2byte	0x350
 1002 04ea 06       		.uleb128 0x6
 1003 04eb 89070000 		.4byte	0x789
 1004 04ef E2000000 		.4byte	.LLST9
 1005 04f3 E0000000 		.4byte	.LVUS9
 1006 04f7 00       		.byte	0
 1007 04f8 00       		.byte	0
 1008 04f9 00       		.byte	0
 1009 04fa 18       		.uleb128 0x18
 1010 04fb 2A070000 		.4byte	0x72a
 1011 04ff 1A000000 		.4byte	.LBI75
 1012 0503 01       		.byte	.LVU27
 1013 0504 30000000 		.4byte	.LLRL10
 1014 0508 EA01     		.2byte	0x1ea
 1015 050a 46050000 		.4byte	0x546
ARM GAS  C:\Users\DEVELO~1\AppData\Local\Temp\ccWhNiyT.s 			page 19


 1016 050e 12       		.uleb128 0x12
 1017 050f 30000000 		.4byte	.LLRL10
 1018 0513 0B       		.uleb128 0xb
 1019 0514 6A070000 		.4byte	0x76a
 1020 0518 1A000000 		.4byte	.LBI77
 1021 051c 08       		.byte	.LVU34
 1022 051d 30000000 		.4byte	.LLRL10
 1023 0521 04       		.byte	0x4
 1024 0522 8F01     		.2byte	0x18f
 1025 0524 0B       		.uleb128 0xb
 1026 0525 7C070000 		.4byte	0x77c
 1027 0529 1A000000 		.4byte	.LBI78
 1028 052d 0A       		.byte	.LVU36
 1029 052e 30000000 		.4byte	.LLRL10
 1030 0532 05       		.byte	0x5
 1031 0533 6303     		.2byte	0x363
 1032 0535 06       		.uleb128 0x6
 1033 0536 89070000 		.4byte	0x789
 1034 053a EF000000 		.4byte	.LLST11
 1035 053e ED000000 		.4byte	.LVUS11
 1036 0542 00       		.byte	0
 1037 0543 00       		.byte	0
 1038 0544 00       		.byte	0
 1039 0545 00       		.byte	0
 1040 0546 0C       		.uleb128 0xc
 1041 0547 14000000 		.4byte	.LVL2
 1042 054b DF030000 		.4byte	0x3df
 1043 054f 00       		.byte	0
 1044 0550 00       		.byte	0
 1045 0551 14       		.uleb128 0x14
 1046 0552 F5060000 		.4byte	0x6f5
 1047 0556 60000000 		.4byte	.LBI87
 1048 055a 03       		.byte	.LVU97
 1049 055b 3C000000 		.4byte	.LLRL12
 1050 055f 01       		.byte	0x1
 1051 0560 59       		.byte	0x59
 1052 0561 0E       		.byte	0xe
 1053 0562 E7050000 		.4byte	0x5e7
 1054 0566 06       		.uleb128 0x6
 1055 0567 12070000 		.4byte	0x712
 1056 056b FD000000 		.4byte	.LLST13
 1057 056f F9000000 		.4byte	.LVUS13
 1058 0573 06       		.uleb128 0x6
 1059 0574 06070000 		.4byte	0x706
 1060 0578 19010000 		.4byte	.LLST14
 1061 057c 15010000 		.4byte	.LVUS14
 1062 0580 14       		.uleb128 0x14
 1063 0581 1F070000 		.4byte	0x71f
 1064 0585 60000000 		.4byte	.LBI88
 1065 0589 05       		.byte	.LVU99
 1066 058a 4B000000 		.4byte	.LLRL15
 1067 058e 03       		.byte	0x3
 1068 058f C0       		.byte	0xc0
 1069 0590 0A       		.byte	0xa
 1070 0591 AF050000 		.4byte	0x5af
 1071 0595 19       		.uleb128 0x19
 1072 0596 5F070000 		.4byte	0x75f
ARM GAS  C:\Users\DEVELO~1\AppData\Local\Temp\ccWhNiyT.s 			page 20


 1073 059a 60000000 		.4byte	.LBI89
 1074 059e 07       		.byte	.LVU101
 1075 059f 4B000000 		.4byte	.LLRL15
 1076 05a3 8C       		.byte	0x8c
 1077 05a4 0C       		.uleb128 0xc
 1078 05a5 2E000000 		.4byte	.LVL8
 1079 05a9 D3030000 		.4byte	0x3d3
 1080 05ad 00       		.byte	0
 1081 05ae 00       		.byte	0
 1082 05af 19       		.uleb128 0x19
 1083 05b0 97070000 		.4byte	0x797
 1084 05b4 2E000000 		.4byte	.LBI93
 1085 05b8 01       		.byte	.LVU52
 1086 05b9 57000000 		.4byte	.LLRL16
 1087 05bd C0       		.byte	0xc0
 1088 05be 06       		.uleb128 0x6
 1089 05bf C2070000 		.4byte	0x7c2
 1090 05c3 2B010000 		.4byte	.LLST17
 1091 05c7 29010000 		.4byte	.LVUS17
 1092 05cb 06       		.uleb128 0x6
 1093 05cc B5070000 		.4byte	0x7b5
 1094 05d0 3A010000 		.4byte	.LLST18
 1095 05d4 38010000 		.4byte	.LVUS18
 1096 05d8 06       		.uleb128 0x6
 1097 05d9 A8070000 		.4byte	0x7a8
 1098 05dd 45010000 		.4byte	.LLST19
 1099 05e1 43010000 		.4byte	.LVUS19
 1100 05e5 00       		.byte	0
 1101 05e6 00       		.byte	0
 1102 05e7 2A       		.uleb128 0x2a
 1103 05e8 D6060000 		.4byte	0x6d6
 1104 05ec 3A000000 		.4byte	.LBI99
 1105 05f0 02       		.byte	.LVU60
 1106 05f1 3A000000 		.4byte	.LBB99
 1107 05f5 14000000 		.4byte	.LBE99-.LBB99
 1108 05f9 01       		.byte	0x1
 1109 05fa 53       		.byte	0x53
 1110 05fb 0D       		.byte	0xd
 1111 05fc BB060000 		.4byte	0x6bb
 1112 0600 17       		.uleb128 0x17
 1113 0601 E7060000 		.4byte	0x6e7
 1114 0605 50010000 		.4byte	.LLST20
 1115 0609 4E010000 		.4byte	.LVUS20
 1116 060d 1A       		.uleb128 0x1a
 1117 060e 56070000 		.4byte	0x756
 1118 0612 3A000000 		.4byte	.LBI101
 1119 0616 05       		.byte	.LVU63
 1120 0617 3A000000 		.4byte	.LBB101
 1121 061b 04000000 		.4byte	.LBE101-.LBB101
 1122 061f E601     		.2byte	0x1e6
 1123 0621 5F060000 		.4byte	0x65f
 1124 0625 0D       		.uleb128 0xd
 1125 0626 73070000 		.4byte	0x773
 1126 062a 3A000000 		.4byte	.LBI102
 1127 062e 07       		.byte	.LVU65
 1128 062f 3A000000 		.4byte	.LBB102
 1129 0633 04000000 		.4byte	.LBE102-.LBB102
ARM GAS  C:\Users\DEVELO~1\AppData\Local\Temp\ccWhNiyT.s 			page 21


 1130 0637 04       		.byte	0x4
 1131 0638 7601     		.2byte	0x176
 1132 063a 0D       		.uleb128 0xd
 1133 063b 7C070000 		.4byte	0x77c
 1134 063f 3A000000 		.4byte	.LBI103
 1135 0643 09       		.byte	.LVU67
 1136 0644 3A000000 		.4byte	.LBB103
 1137 0648 04000000 		.4byte	.LBE103-.LBB103
 1138 064c 05       		.byte	0x5
 1139 064d 5003     		.2byte	0x350
 1140 064f 06       		.uleb128 0x6
 1141 0650 89070000 		.4byte	0x789
 1142 0654 60010000 		.4byte	.LLST21
 1143 0658 5E010000 		.4byte	.LVUS21
 1144 065c 00       		.byte	0
 1145 065d 00       		.byte	0
 1146 065e 00       		.byte	0
 1147 065f 1A       		.uleb128 0x1a
 1148 0660 2A070000 		.4byte	0x72a
 1149 0664 4A000000 		.4byte	.LBI105
 1150 0668 01       		.byte	.LVU76
 1151 0669 4A000000 		.4byte	.LBB105
 1152 066d 04000000 		.4byte	.LBE105-.LBB105
 1153 0671 EA01     		.2byte	0x1ea
 1154 0673 B1060000 		.4byte	0x6b1
 1155 0677 0D       		.uleb128 0xd
 1156 0678 6A070000 		.4byte	0x76a
 1157 067c 4A000000 		.4byte	.LBI107
 1158 0680 08       		.byte	.LVU83
 1159 0681 4A000000 		.4byte	.LBB107
 1160 0685 04000000 		.4byte	.LBE107-.LBB107
 1161 0689 04       		.byte	0x4
 1162 068a 8F01     		.2byte	0x18f
 1163 068c 0D       		.uleb128 0xd
 1164 068d 7C070000 		.4byte	0x77c
 1165 0691 4A000000 		.4byte	.LBI108
 1166 0695 0A       		.byte	.LVU85
 1167 0696 4A000000 		.4byte	.LBB108
 1168 069a 04000000 		.4byte	.LBE108-.LBB108
 1169 069e 05       		.byte	0x5
 1170 069f 6303     		.2byte	0x363
 1171 06a1 06       		.uleb128 0x6
 1172 06a2 89070000 		.4byte	0x789
 1173 06a6 6D010000 		.4byte	.LLST22
 1174 06aa 6B010000 		.4byte	.LVUS22
 1175 06ae 00       		.byte	0
 1176 06af 00       		.byte	0
 1177 06b0 00       		.byte	0
 1178 06b1 0C       		.uleb128 0xc
 1179 06b2 42000000 		.4byte	.LVL11
 1180 06b6 DF030000 		.4byte	0x3df
 1181 06ba 00       		.byte	0
 1182 06bb 0C       		.uleb128 0xc
 1183 06bc 22000000 		.4byte	.LVL5
 1184 06c0 07040000 		.4byte	0x407
 1185 06c4 2B       		.uleb128 0x2b
 1186 06c5 60000000 		.4byte	.LVL18
ARM GAS  C:\Users\DEVELO~1\AppData\Local\Temp\ccWhNiyT.s 			page 22


 1187 06c9 EB030000 		.4byte	0x3eb
 1188 06cd 2C       		.uleb128 0x2c
 1189 06ce 01       		.uleb128 0x1
 1190 06cf 51       		.byte	0x51
 1191 06d0 02       		.uleb128 0x2
 1192 06d1 79       		.byte	0x79
 1193 06d2 00       		.sleb128 0
 1194 06d3 00       		.byte	0
 1195 06d4 00       		.byte	0
 1196 06d5 00       		.byte	0
 1197 06d6 1B       		.uleb128 0x1b
 1198 06d7 22030000 		.4byte	.LASF56
 1199 06db 03       		.byte	0x3
 1200 06dc E301     		.2byte	0x1e3
 1201 06de 1E       		.byte	0x1e
 1202 06df 19010000 		.4byte	0x119
 1203 06e3 F5060000 		.4byte	0x6f5
 1204 06e7 2D       		.uleb128 0x2d
 1205 06e8 12010000 		.4byte	.LASF78
 1206 06ec 03       		.byte	0x3
 1207 06ed E401     		.2byte	0x1e4
 1208 06ef 12       		.byte	0x12
 1209 06f0 19010000 		.4byte	0x119
 1210 06f4 00       		.byte	0
 1211 06f5 2E       		.uleb128 0x2e
 1212 06f6 0C000000 		.4byte	.LASF57
 1213 06fa 03       		.byte	0x3
 1214 06fb BE       		.byte	0xbe
 1215 06fc 14       		.byte	0x14
 1216 06fd 38010000 		.4byte	0x138
 1217 0701 03       		.byte	0x3
 1218 0702 1F070000 		.4byte	0x71f
 1219 0706 2F       		.uleb128 0x2f
 1220 0707 8A020000 		.4byte	.LASF53
 1221 070b 03       		.byte	0x3
 1222 070c BE       		.byte	0xbe
 1223 070d 36       		.byte	0x36
 1224 070e 01010000 		.4byte	0x101
 1225 0712 30       		.uleb128 0x30
 1226 0713 656E6400 		.ascii	"end\000"
 1227 0717 03       		.byte	0x3
 1228 0718 BE       		.byte	0xbe
 1229 0719 47       		.byte	0x47
 1230 071a 01010000 		.4byte	0x101
 1231 071e 00       		.byte	0
 1232 071f 1C       		.uleb128 0x1c
 1233 0720 AD000000 		.4byte	.LASF58
 1234 0724 03       		.byte	0x3
 1235 0725 87       		.byte	0x87
 1236 0726 01010000 		.4byte	0x101
 1237 072a 1D       		.uleb128 0x1d
 1238 072b 23040000 		.4byte	.LASF63
 1239 072f 04       		.byte	0x4
 1240 0730 8201     		.2byte	0x182
 1241 0732 14       		.byte	0x14
 1242 0733 41070000 		.4byte	0x741
 1243 0737 31       		.uleb128 0x31
ARM GAS  C:\Users\DEVELO~1\AppData\Local\Temp\ccWhNiyT.s 			page 23


 1244 0738 0D020000 		.4byte	.LASF79
 1245 073c 51070000 		.4byte	0x751
 1246 0740 00       		.byte	0
 1247 0741 0F       		.uleb128 0xf
 1248 0742 FC000000 		.4byte	0xfc
 1249 0746 51070000 		.4byte	0x751
 1250 074a 10       		.uleb128 0x10
 1251 074b 39000000 		.4byte	0x39
 1252 074f 0B       		.byte	0xb
 1253 0750 00       		.byte	0
 1254 0751 07       		.uleb128 0x7
 1255 0752 41070000 		.4byte	0x741
 1256 0756 15       		.uleb128 0x15
 1257 0757 E6000000 		.4byte	.LASF60
 1258 075b 04       		.byte	0x4
 1259 075c 7401     		.2byte	0x174
 1260 075e 14       		.byte	0x14
 1261 075f 1C       		.uleb128 0x1c
 1262 0760 DA020000 		.4byte	.LASF59
 1263 0764 06       		.byte	0x6
 1264 0765 6F       		.byte	0x6f
 1265 0766 01010000 		.4byte	0x101
 1266 076a 15       		.uleb128 0x15
 1267 076b F4020000 		.4byte	.LASF61
 1268 076f 05       		.byte	0x5
 1269 0770 6003     		.2byte	0x360
 1270 0772 1B       		.byte	0x1b
 1271 0773 15       		.uleb128 0x15
 1272 0774 DC000000 		.4byte	.LASF62
 1273 0778 05       		.byte	0x5
 1274 0779 4803     		.2byte	0x348
 1275 077b 1B       		.byte	0x1b
 1276 077c 1D       		.uleb128 0x1d
 1277 077d 86040000 		.4byte	.LASF64
 1278 0781 02       		.byte	0x2
 1279 0782 EB01     		.2byte	0x1eb
 1280 0784 1B       		.byte	0x1b
 1281 0785 97070000 		.4byte	0x797
 1282 0789 09       		.uleb128 0x9
 1283 078a A3020000 		.4byte	.LASF65
 1284 078e 02       		.byte	0x2
 1285 078f EB01     		.2byte	0x1eb
 1286 0791 32       		.byte	0x32
 1287 0792 CC000000 		.4byte	0xcc
 1288 0796 00       		.byte	0
 1289 0797 1B       		.uleb128 0x1b
 1290 0798 5B010000 		.4byte	.LASF66
 1291 079c 07       		.byte	0x7
 1292 079d E401     		.2byte	0x1e4
 1293 079f 14       		.byte	0x14
 1294 07a0 38010000 		.4byte	0x138
 1295 07a4 D0070000 		.4byte	0x7d0
 1296 07a8 09       		.uleb128 0x9
 1297 07a9 7A020000 		.4byte	.LASF67
 1298 07ad 07       		.byte	0x7
 1299 07ae E401     		.2byte	0x1e4
 1300 07b0 2F       		.byte	0x2f
ARM GAS  C:\Users\DEVELO~1\AppData\Local\Temp\ccWhNiyT.s 			page 24


 1301 07b1 01010000 		.4byte	0x101
 1302 07b5 09       		.uleb128 0x9
 1303 07b6 8A020000 		.4byte	.LASF53
 1304 07ba 07       		.byte	0x7
 1305 07bb E501     		.2byte	0x1e5
 1306 07bd 2F       		.byte	0x2f
 1307 07be 01010000 		.4byte	0x101
 1308 07c2 32       		.uleb128 0x32
 1309 07c3 656E6400 		.ascii	"end\000"
 1310 07c7 07       		.byte	0x7
 1311 07c8 E601     		.2byte	0x1e6
 1312 07ca 2F       		.byte	0x2f
 1313 07cb 01010000 		.4byte	0x101
 1314 07cf 00       		.byte	0
 1315 07d0 33       		.uleb128 0x33
 1316 07d1 6F020000 		.4byte	.LASF68
 1317 07d5 07       		.byte	0x7
 1318 07d6 BA01     		.2byte	0x1ba
 1319 07d8 19       		.byte	0x19
 1320 07d9 01010000 		.4byte	0x101
 1321 07dd 03       		.byte	0x3
 1322 07de 09       		.uleb128 0x9
 1323 07df AA040000 		.4byte	.LASF69
 1324 07e3 07       		.byte	0x7
 1325 07e4 BA01     		.2byte	0x1ba
 1326 07e6 2E       		.byte	0x2e
 1327 07e7 01010000 		.4byte	0x101
 1328 07eb 09       		.uleb128 0x9
 1329 07ec 0F040000 		.4byte	.LASF70
 1330 07f0 07       		.byte	0x7
 1331 07f1 BB01     		.2byte	0x1bb
 1332 07f3 32       		.byte	0x32
 1333 07f4 0D010000 		.4byte	0x10d
 1334 07f8 00       		.byte	0
 1335 07f9 00       		.byte	0
 1336              		.section	.debug_abbrev,"",%progbits
 1337              	.Ldebug_abbrev0:
 1338 0000 01       		.uleb128 0x1
 1339 0001 16       		.uleb128 0x16
 1340 0002 00       		.byte	0
 1341 0003 03       		.uleb128 0x3
 1342 0004 0E       		.uleb128 0xe
 1343 0005 3A       		.uleb128 0x3a
 1344 0006 0B       		.uleb128 0xb
 1345 0007 3B       		.uleb128 0x3b
 1346 0008 0B       		.uleb128 0xb
 1347 0009 39       		.uleb128 0x39
 1348 000a 0B       		.uleb128 0xb
 1349 000b 49       		.uleb128 0x49
 1350 000c 13       		.uleb128 0x13
 1351 000d 00       		.byte	0
 1352 000e 00       		.byte	0
 1353 000f 02       		.uleb128 0x2
 1354 0010 0D       		.uleb128 0xd
 1355 0011 00       		.byte	0
 1356 0012 03       		.uleb128 0x3
 1357 0013 0E       		.uleb128 0xe
ARM GAS  C:\Users\DEVELO~1\AppData\Local\Temp\ccWhNiyT.s 			page 25


 1358 0014 3A       		.uleb128 0x3a
 1359 0015 0B       		.uleb128 0xb
 1360 0016 3B       		.uleb128 0x3b
 1361 0017 0B       		.uleb128 0xb
 1362 0018 39       		.uleb128 0x39
 1363 0019 0B       		.uleb128 0xb
 1364 001a 49       		.uleb128 0x49
 1365 001b 13       		.uleb128 0x13
 1366 001c 38       		.uleb128 0x38
 1367 001d 0B       		.uleb128 0xb
 1368 001e 00       		.byte	0
 1369 001f 00       		.byte	0
 1370 0020 03       		.uleb128 0x3
 1371 0021 0F       		.uleb128 0xf
 1372 0022 00       		.byte	0
 1373 0023 0B       		.uleb128 0xb
 1374 0024 21       		.uleb128 0x21
 1375 0025 04       		.sleb128 4
 1376 0026 49       		.uleb128 0x49
 1377 0027 13       		.uleb128 0x13
 1378 0028 00       		.byte	0
 1379 0029 00       		.byte	0
 1380 002a 04       		.uleb128 0x4
 1381 002b 24       		.uleb128 0x24
 1382 002c 00       		.byte	0
 1383 002d 0B       		.uleb128 0xb
 1384 002e 0B       		.uleb128 0xb
 1385 002f 3E       		.uleb128 0x3e
 1386 0030 0B       		.uleb128 0xb
 1387 0031 03       		.uleb128 0x3
 1388 0032 0E       		.uleb128 0xe
 1389 0033 00       		.byte	0
 1390 0034 00       		.byte	0
 1391 0035 05       		.uleb128 0x5
 1392 0036 05       		.uleb128 0x5
 1393 0037 00       		.byte	0
 1394 0038 49       		.uleb128 0x49
 1395 0039 13       		.uleb128 0x13
 1396 003a 00       		.byte	0
 1397 003b 00       		.byte	0
 1398 003c 06       		.uleb128 0x6
 1399 003d 05       		.uleb128 0x5
 1400 003e 00       		.byte	0
 1401 003f 31       		.uleb128 0x31
 1402 0040 13       		.uleb128 0x13
 1403 0041 02       		.uleb128 0x2
 1404 0042 17       		.uleb128 0x17
 1405 0043 B742     		.uleb128 0x2137
 1406 0045 17       		.uleb128 0x17
 1407 0046 00       		.byte	0
 1408 0047 00       		.byte	0
 1409 0048 07       		.uleb128 0x7
 1410 0049 26       		.uleb128 0x26
 1411 004a 00       		.byte	0
 1412 004b 49       		.uleb128 0x49
 1413 004c 13       		.uleb128 0x13
 1414 004d 00       		.byte	0
ARM GAS  C:\Users\DEVELO~1\AppData\Local\Temp\ccWhNiyT.s 			page 26


 1415 004e 00       		.byte	0
 1416 004f 08       		.uleb128 0x8
 1417 0050 15       		.uleb128 0x15
 1418 0051 01       		.byte	0x1
 1419 0052 27       		.uleb128 0x27
 1420 0053 19       		.uleb128 0x19
 1421 0054 49       		.uleb128 0x49
 1422 0055 13       		.uleb128 0x13
 1423 0056 01       		.uleb128 0x1
 1424 0057 13       		.uleb128 0x13
 1425 0058 00       		.byte	0
 1426 0059 00       		.byte	0
 1427 005a 09       		.uleb128 0x9
 1428 005b 05       		.uleb128 0x5
 1429 005c 00       		.byte	0
 1430 005d 03       		.uleb128 0x3
 1431 005e 0E       		.uleb128 0xe
 1432 005f 3A       		.uleb128 0x3a
 1433 0060 0B       		.uleb128 0xb
 1434 0061 3B       		.uleb128 0x3b
 1435 0062 05       		.uleb128 0x5
 1436 0063 39       		.uleb128 0x39
 1437 0064 0B       		.uleb128 0xb
 1438 0065 49       		.uleb128 0x49
 1439 0066 13       		.uleb128 0x13
 1440 0067 00       		.byte	0
 1441 0068 00       		.byte	0
 1442 0069 0A       		.uleb128 0xa
 1443 006a 13       		.uleb128 0x13
 1444 006b 01       		.byte	0x1
 1445 006c 0B       		.uleb128 0xb
 1446 006d 0B       		.uleb128 0xb
 1447 006e 3A       		.uleb128 0x3a
 1448 006f 0B       		.uleb128 0xb
 1449 0070 3B       		.uleb128 0x3b
 1450 0071 0B       		.uleb128 0xb
 1451 0072 39       		.uleb128 0x39
 1452 0073 21       		.uleb128 0x21
 1453 0074 09       		.sleb128 9
 1454 0075 01       		.uleb128 0x1
 1455 0076 13       		.uleb128 0x13
 1456 0077 00       		.byte	0
 1457 0078 00       		.byte	0
 1458 0079 0B       		.uleb128 0xb
 1459 007a 1D       		.uleb128 0x1d
 1460 007b 01       		.byte	0x1
 1461 007c 31       		.uleb128 0x31
 1462 007d 13       		.uleb128 0x13
 1463 007e 52       		.uleb128 0x52
 1464 007f 01       		.uleb128 0x1
 1465 0080 B842     		.uleb128 0x2138
 1466 0082 0B       		.uleb128 0xb
 1467 0083 55       		.uleb128 0x55
 1468 0084 17       		.uleb128 0x17
 1469 0085 58       		.uleb128 0x58
 1470 0086 0B       		.uleb128 0xb
 1471 0087 59       		.uleb128 0x59
ARM GAS  C:\Users\DEVELO~1\AppData\Local\Temp\ccWhNiyT.s 			page 27


 1472 0088 05       		.uleb128 0x5
 1473 0089 57       		.uleb128 0x57
 1474 008a 21       		.uleb128 0x21
 1475 008b 03       		.sleb128 3
 1476 008c 00       		.byte	0
 1477 008d 00       		.byte	0
 1478 008e 0C       		.uleb128 0xc
 1479 008f 48       		.uleb128 0x48
 1480 0090 00       		.byte	0
 1481 0091 7D       		.uleb128 0x7d
 1482 0092 01       		.uleb128 0x1
 1483 0093 7F       		.uleb128 0x7f
 1484 0094 13       		.uleb128 0x13
 1485 0095 00       		.byte	0
 1486 0096 00       		.byte	0
 1487 0097 0D       		.uleb128 0xd
 1488 0098 1D       		.uleb128 0x1d
 1489 0099 01       		.byte	0x1
 1490 009a 31       		.uleb128 0x31
 1491 009b 13       		.uleb128 0x13
 1492 009c 52       		.uleb128 0x52
 1493 009d 01       		.uleb128 0x1
 1494 009e B842     		.uleb128 0x2138
 1495 00a0 0B       		.uleb128 0xb
 1496 00a1 11       		.uleb128 0x11
 1497 00a2 01       		.uleb128 0x1
 1498 00a3 12       		.uleb128 0x12
 1499 00a4 06       		.uleb128 0x6
 1500 00a5 58       		.uleb128 0x58
 1501 00a6 0B       		.uleb128 0xb
 1502 00a7 59       		.uleb128 0x59
 1503 00a8 05       		.uleb128 0x5
 1504 00a9 57       		.uleb128 0x57
 1505 00aa 21       		.uleb128 0x21
 1506 00ab 03       		.sleb128 3
 1507 00ac 00       		.byte	0
 1508 00ad 00       		.byte	0
 1509 00ae 0E       		.uleb128 0xe
 1510 00af 0D       		.uleb128 0xd
 1511 00b0 00       		.byte	0
 1512 00b1 03       		.uleb128 0x3
 1513 00b2 08       		.uleb128 0x8
 1514 00b3 3A       		.uleb128 0x3a
 1515 00b4 21       		.uleb128 0x21
 1516 00b5 0C       		.sleb128 12
 1517 00b6 3B       		.uleb128 0x3b
 1518 00b7 0B       		.uleb128 0xb
 1519 00b8 39       		.uleb128 0x39
 1520 00b9 0B       		.uleb128 0xb
 1521 00ba 49       		.uleb128 0x49
 1522 00bb 13       		.uleb128 0x13
 1523 00bc 38       		.uleb128 0x38
 1524 00bd 0B       		.uleb128 0xb
 1525 00be 00       		.byte	0
 1526 00bf 00       		.byte	0
 1527 00c0 0F       		.uleb128 0xf
 1528 00c1 01       		.uleb128 0x1
ARM GAS  C:\Users\DEVELO~1\AppData\Local\Temp\ccWhNiyT.s 			page 28


 1529 00c2 01       		.byte	0x1
 1530 00c3 49       		.uleb128 0x49
 1531 00c4 13       		.uleb128 0x13
 1532 00c5 01       		.uleb128 0x1
 1533 00c6 13       		.uleb128 0x13
 1534 00c7 00       		.byte	0
 1535 00c8 00       		.byte	0
 1536 00c9 10       		.uleb128 0x10
 1537 00ca 21       		.uleb128 0x21
 1538 00cb 00       		.byte	0
 1539 00cc 49       		.uleb128 0x49
 1540 00cd 13       		.uleb128 0x13
 1541 00ce 2F       		.uleb128 0x2f
 1542 00cf 0B       		.uleb128 0xb
 1543 00d0 00       		.byte	0
 1544 00d1 00       		.byte	0
 1545 00d2 11       		.uleb128 0x11
 1546 00d3 2E       		.uleb128 0x2e
 1547 00d4 00       		.byte	0
 1548 00d5 3F       		.uleb128 0x3f
 1549 00d6 19       		.uleb128 0x19
 1550 00d7 03       		.uleb128 0x3
 1551 00d8 0E       		.uleb128 0xe
 1552 00d9 3A       		.uleb128 0x3a
 1553 00da 0B       		.uleb128 0xb
 1554 00db 3B       		.uleb128 0x3b
 1555 00dc 0B       		.uleb128 0xb
 1556 00dd 39       		.uleb128 0x39
 1557 00de 0B       		.uleb128 0xb
 1558 00df 27       		.uleb128 0x27
 1559 00e0 19       		.uleb128 0x19
 1560 00e1 49       		.uleb128 0x49
 1561 00e2 13       		.uleb128 0x13
 1562 00e3 3C       		.uleb128 0x3c
 1563 00e4 19       		.uleb128 0x19
 1564 00e5 00       		.byte	0
 1565 00e6 00       		.byte	0
 1566 00e7 12       		.uleb128 0x12
 1567 00e8 0B       		.uleb128 0xb
 1568 00e9 01       		.byte	0x1
 1569 00ea 55       		.uleb128 0x55
 1570 00eb 17       		.uleb128 0x17
 1571 00ec 00       		.byte	0
 1572 00ed 00       		.byte	0
 1573 00ee 13       		.uleb128 0x13
 1574 00ef 34       		.uleb128 0x34
 1575 00f0 00       		.byte	0
 1576 00f1 03       		.uleb128 0x3
 1577 00f2 0E       		.uleb128 0xe
 1578 00f3 3A       		.uleb128 0x3a
 1579 00f4 21       		.uleb128 0x21
 1580 00f5 01       		.sleb128 1
 1581 00f6 3B       		.uleb128 0x3b
 1582 00f7 0B       		.uleb128 0xb
 1583 00f8 39       		.uleb128 0x39
 1584 00f9 0B       		.uleb128 0xb
 1585 00fa 49       		.uleb128 0x49
ARM GAS  C:\Users\DEVELO~1\AppData\Local\Temp\ccWhNiyT.s 			page 29


 1586 00fb 13       		.uleb128 0x13
 1587 00fc 02       		.uleb128 0x2
 1588 00fd 17       		.uleb128 0x17
 1589 00fe B742     		.uleb128 0x2137
 1590 0100 17       		.uleb128 0x17
 1591 0101 00       		.byte	0
 1592 0102 00       		.byte	0
 1593 0103 14       		.uleb128 0x14
 1594 0104 1D       		.uleb128 0x1d
 1595 0105 01       		.byte	0x1
 1596 0106 31       		.uleb128 0x31
 1597 0107 13       		.uleb128 0x13
 1598 0108 52       		.uleb128 0x52
 1599 0109 01       		.uleb128 0x1
 1600 010a B842     		.uleb128 0x2138
 1601 010c 0B       		.uleb128 0xb
 1602 010d 55       		.uleb128 0x55
 1603 010e 17       		.uleb128 0x17
 1604 010f 58       		.uleb128 0x58
 1605 0110 0B       		.uleb128 0xb
 1606 0111 59       		.uleb128 0x59
 1607 0112 0B       		.uleb128 0xb
 1608 0113 57       		.uleb128 0x57
 1609 0114 0B       		.uleb128 0xb
 1610 0115 01       		.uleb128 0x1
 1611 0116 13       		.uleb128 0x13
 1612 0117 00       		.byte	0
 1613 0118 00       		.byte	0
 1614 0119 15       		.uleb128 0x15
 1615 011a 2E       		.uleb128 0x2e
 1616 011b 00       		.byte	0
 1617 011c 03       		.uleb128 0x3
 1618 011d 0E       		.uleb128 0xe
 1619 011e 3A       		.uleb128 0x3a
 1620 011f 0B       		.uleb128 0xb
 1621 0120 3B       		.uleb128 0x3b
 1622 0121 05       		.uleb128 0x5
 1623 0122 39       		.uleb128 0x39
 1624 0123 0B       		.uleb128 0xb
 1625 0124 27       		.uleb128 0x27
 1626 0125 19       		.uleb128 0x19
 1627 0126 20       		.uleb128 0x20
 1628 0127 21       		.uleb128 0x21
 1629 0128 03       		.sleb128 3
 1630 0129 00       		.byte	0
 1631 012a 00       		.byte	0
 1632 012b 16       		.uleb128 0x16
 1633 012c 34       		.uleb128 0x34
 1634 012d 00       		.byte	0
 1635 012e 03       		.uleb128 0x3
 1636 012f 08       		.uleb128 0x8
 1637 0130 3A       		.uleb128 0x3a
 1638 0131 21       		.uleb128 0x21
 1639 0132 01       		.sleb128 1
 1640 0133 3B       		.uleb128 0x3b
 1641 0134 0B       		.uleb128 0xb
 1642 0135 39       		.uleb128 0x39
ARM GAS  C:\Users\DEVELO~1\AppData\Local\Temp\ccWhNiyT.s 			page 30


 1643 0136 0B       		.uleb128 0xb
 1644 0137 49       		.uleb128 0x49
 1645 0138 13       		.uleb128 0x13
 1646 0139 02       		.uleb128 0x2
 1647 013a 17       		.uleb128 0x17
 1648 013b B742     		.uleb128 0x2137
 1649 013d 17       		.uleb128 0x17
 1650 013e 00       		.byte	0
 1651 013f 00       		.byte	0
 1652 0140 17       		.uleb128 0x17
 1653 0141 34       		.uleb128 0x34
 1654 0142 00       		.byte	0
 1655 0143 31       		.uleb128 0x31
 1656 0144 13       		.uleb128 0x13
 1657 0145 02       		.uleb128 0x2
 1658 0146 17       		.uleb128 0x17
 1659 0147 B742     		.uleb128 0x2137
 1660 0149 17       		.uleb128 0x17
 1661 014a 00       		.byte	0
 1662 014b 00       		.byte	0
 1663 014c 18       		.uleb128 0x18
 1664 014d 1D       		.uleb128 0x1d
 1665 014e 01       		.byte	0x1
 1666 014f 31       		.uleb128 0x31
 1667 0150 13       		.uleb128 0x13
 1668 0151 52       		.uleb128 0x52
 1669 0152 01       		.uleb128 0x1
 1670 0153 B842     		.uleb128 0x2138
 1671 0155 0B       		.uleb128 0xb
 1672 0156 55       		.uleb128 0x55
 1673 0157 17       		.uleb128 0x17
 1674 0158 58       		.uleb128 0x58
 1675 0159 21       		.uleb128 0x21
 1676 015a 03       		.sleb128 3
 1677 015b 59       		.uleb128 0x59
 1678 015c 05       		.uleb128 0x5
 1679 015d 57       		.uleb128 0x57
 1680 015e 21       		.uleb128 0x21
 1681 015f 03       		.sleb128 3
 1682 0160 01       		.uleb128 0x1
 1683 0161 13       		.uleb128 0x13
 1684 0162 00       		.byte	0
 1685 0163 00       		.byte	0
 1686 0164 19       		.uleb128 0x19
 1687 0165 1D       		.uleb128 0x1d
 1688 0166 01       		.byte	0x1
 1689 0167 31       		.uleb128 0x31
 1690 0168 13       		.uleb128 0x13
 1691 0169 52       		.uleb128 0x52
 1692 016a 01       		.uleb128 0x1
 1693 016b B842     		.uleb128 0x2138
 1694 016d 0B       		.uleb128 0xb
 1695 016e 55       		.uleb128 0x55
 1696 016f 17       		.uleb128 0x17
 1697 0170 58       		.uleb128 0x58
 1698 0171 21       		.uleb128 0x21
 1699 0172 03       		.sleb128 3
ARM GAS  C:\Users\DEVELO~1\AppData\Local\Temp\ccWhNiyT.s 			page 31


 1700 0173 59       		.uleb128 0x59
 1701 0174 0B       		.uleb128 0xb
 1702 0175 57       		.uleb128 0x57
 1703 0176 21       		.uleb128 0x21
 1704 0177 0A       		.sleb128 10
 1705 0178 00       		.byte	0
 1706 0179 00       		.byte	0
 1707 017a 1A       		.uleb128 0x1a
 1708 017b 1D       		.uleb128 0x1d
 1709 017c 01       		.byte	0x1
 1710 017d 31       		.uleb128 0x31
 1711 017e 13       		.uleb128 0x13
 1712 017f 52       		.uleb128 0x52
 1713 0180 01       		.uleb128 0x1
 1714 0181 B842     		.uleb128 0x2138
 1715 0183 0B       		.uleb128 0xb
 1716 0184 11       		.uleb128 0x11
 1717 0185 01       		.uleb128 0x1
 1718 0186 12       		.uleb128 0x12
 1719 0187 06       		.uleb128 0x6
 1720 0188 58       		.uleb128 0x58
 1721 0189 21       		.uleb128 0x21
 1722 018a 03       		.sleb128 3
 1723 018b 59       		.uleb128 0x59
 1724 018c 05       		.uleb128 0x5
 1725 018d 57       		.uleb128 0x57
 1726 018e 21       		.uleb128 0x21
 1727 018f 03       		.sleb128 3
 1728 0190 01       		.uleb128 0x1
 1729 0191 13       		.uleb128 0x13
 1730 0192 00       		.byte	0
 1731 0193 00       		.byte	0
 1732 0194 1B       		.uleb128 0x1b
 1733 0195 2E       		.uleb128 0x2e
 1734 0196 01       		.byte	0x1
 1735 0197 03       		.uleb128 0x3
 1736 0198 0E       		.uleb128 0xe
 1737 0199 3A       		.uleb128 0x3a
 1738 019a 0B       		.uleb128 0xb
 1739 019b 3B       		.uleb128 0x3b
 1740 019c 05       		.uleb128 0x5
 1741 019d 39       		.uleb128 0x39
 1742 019e 0B       		.uleb128 0xb
 1743 019f 27       		.uleb128 0x27
 1744 01a0 19       		.uleb128 0x19
 1745 01a1 49       		.uleb128 0x49
 1746 01a2 13       		.uleb128 0x13
 1747 01a3 20       		.uleb128 0x20
 1748 01a4 21       		.uleb128 0x21
 1749 01a5 03       		.sleb128 3
 1750 01a6 01       		.uleb128 0x1
 1751 01a7 13       		.uleb128 0x13
 1752 01a8 00       		.byte	0
 1753 01a9 00       		.byte	0
 1754 01aa 1C       		.uleb128 0x1c
 1755 01ab 2E       		.uleb128 0x2e
 1756 01ac 00       		.byte	0
ARM GAS  C:\Users\DEVELO~1\AppData\Local\Temp\ccWhNiyT.s 			page 32


 1757 01ad 03       		.uleb128 0x3
 1758 01ae 0E       		.uleb128 0xe
 1759 01af 3A       		.uleb128 0x3a
 1760 01b0 0B       		.uleb128 0xb
 1761 01b1 3B       		.uleb128 0x3b
 1762 01b2 0B       		.uleb128 0xb
 1763 01b3 39       		.uleb128 0x39
 1764 01b4 21       		.uleb128 0x21
 1765 01b5 19       		.sleb128 25
 1766 01b6 27       		.uleb128 0x27
 1767 01b7 19       		.uleb128 0x19
 1768 01b8 49       		.uleb128 0x49
 1769 01b9 13       		.uleb128 0x13
 1770 01ba 20       		.uleb128 0x20
 1771 01bb 21       		.uleb128 0x21
 1772 01bc 03       		.sleb128 3
 1773 01bd 00       		.byte	0
 1774 01be 00       		.byte	0
 1775 01bf 1D       		.uleb128 0x1d
 1776 01c0 2E       		.uleb128 0x2e
 1777 01c1 01       		.byte	0x1
 1778 01c2 03       		.uleb128 0x3
 1779 01c3 0E       		.uleb128 0xe
 1780 01c4 3A       		.uleb128 0x3a
 1781 01c5 0B       		.uleb128 0xb
 1782 01c6 3B       		.uleb128 0x3b
 1783 01c7 05       		.uleb128 0x5
 1784 01c8 39       		.uleb128 0x39
 1785 01c9 0B       		.uleb128 0xb
 1786 01ca 27       		.uleb128 0x27
 1787 01cb 19       		.uleb128 0x19
 1788 01cc 20       		.uleb128 0x20
 1789 01cd 21       		.uleb128 0x21
 1790 01ce 03       		.sleb128 3
 1791 01cf 01       		.uleb128 0x1
 1792 01d0 13       		.uleb128 0x13
 1793 01d1 00       		.byte	0
 1794 01d2 00       		.byte	0
 1795 01d3 1E       		.uleb128 0x1e
 1796 01d4 11       		.uleb128 0x11
 1797 01d5 01       		.byte	0x1
 1798 01d6 25       		.uleb128 0x25
 1799 01d7 0E       		.uleb128 0xe
 1800 01d8 13       		.uleb128 0x13
 1801 01d9 0B       		.uleb128 0xb
 1802 01da 03       		.uleb128 0x3
 1803 01db 0E       		.uleb128 0xe
 1804 01dc 1B       		.uleb128 0x1b
 1805 01dd 0E       		.uleb128 0xe
 1806 01de 55       		.uleb128 0x55
 1807 01df 17       		.uleb128 0x17
 1808 01e0 11       		.uleb128 0x11
 1809 01e1 01       		.uleb128 0x1
 1810 01e2 10       		.uleb128 0x10
 1811 01e3 17       		.uleb128 0x17
 1812 01e4 00       		.byte	0
 1813 01e5 00       		.byte	0
ARM GAS  C:\Users\DEVELO~1\AppData\Local\Temp\ccWhNiyT.s 			page 33


 1814 01e6 1F       		.uleb128 0x1f
 1815 01e7 24       		.uleb128 0x24
 1816 01e8 00       		.byte	0
 1817 01e9 0B       		.uleb128 0xb
 1818 01ea 0B       		.uleb128 0xb
 1819 01eb 3E       		.uleb128 0x3e
 1820 01ec 0B       		.uleb128 0xb
 1821 01ed 03       		.uleb128 0x3
 1822 01ee 08       		.uleb128 0x8
 1823 01ef 00       		.byte	0
 1824 01f0 00       		.byte	0
 1825 01f1 20       		.uleb128 0x20
 1826 01f2 0F       		.uleb128 0xf
 1827 01f3 00       		.byte	0
 1828 01f4 0B       		.uleb128 0xb
 1829 01f5 0B       		.uleb128 0xb
 1830 01f6 00       		.byte	0
 1831 01f7 00       		.byte	0
 1832 01f8 21       		.uleb128 0x21
 1833 01f9 13       		.uleb128 0x13
 1834 01fa 01       		.byte	0x1
 1835 01fb 03       		.uleb128 0x3
 1836 01fc 0E       		.uleb128 0xe
 1837 01fd 0B       		.uleb128 0xb
 1838 01fe 0B       		.uleb128 0xb
 1839 01ff 3A       		.uleb128 0x3a
 1840 0200 0B       		.uleb128 0xb
 1841 0201 3B       		.uleb128 0x3b
 1842 0202 0B       		.uleb128 0xb
 1843 0203 39       		.uleb128 0x39
 1844 0204 0B       		.uleb128 0xb
 1845 0205 01       		.uleb128 0x1
 1846 0206 13       		.uleb128 0x13
 1847 0207 00       		.byte	0
 1848 0208 00       		.byte	0
 1849 0209 22       		.uleb128 0x22
 1850 020a 15       		.uleb128 0x15
 1851 020b 00       		.byte	0
 1852 020c 27       		.uleb128 0x27
 1853 020d 19       		.uleb128 0x19
 1854 020e 00       		.byte	0
 1855 020f 00       		.byte	0
 1856 0210 23       		.uleb128 0x23
 1857 0211 34       		.uleb128 0x34
 1858 0212 00       		.byte	0
 1859 0213 03       		.uleb128 0x3
 1860 0214 0E       		.uleb128 0xe
 1861 0215 3A       		.uleb128 0x3a
 1862 0216 0B       		.uleb128 0xb
 1863 0217 3B       		.uleb128 0x3b
 1864 0218 05       		.uleb128 0x5
 1865 0219 39       		.uleb128 0x39
 1866 021a 0B       		.uleb128 0xb
 1867 021b 49       		.uleb128 0x49
 1868 021c 13       		.uleb128 0x13
 1869 021d 3F       		.uleb128 0x3f
 1870 021e 19       		.uleb128 0x19
ARM GAS  C:\Users\DEVELO~1\AppData\Local\Temp\ccWhNiyT.s 			page 34


 1871 021f 3C       		.uleb128 0x3c
 1872 0220 19       		.uleb128 0x19
 1873 0221 00       		.byte	0
 1874 0222 00       		.byte	0
 1875 0223 24       		.uleb128 0x24
 1876 0224 34       		.uleb128 0x34
 1877 0225 00       		.byte	0
 1878 0226 03       		.uleb128 0x3
 1879 0227 0E       		.uleb128 0xe
 1880 0228 3A       		.uleb128 0x3a
 1881 0229 0B       		.uleb128 0xb
 1882 022a 3B       		.uleb128 0x3b
 1883 022b 0B       		.uleb128 0xb
 1884 022c 39       		.uleb128 0x39
 1885 022d 0B       		.uleb128 0xb
 1886 022e 49       		.uleb128 0x49
 1887 022f 13       		.uleb128 0x13
 1888 0230 3F       		.uleb128 0x3f
 1889 0231 19       		.uleb128 0x19
 1890 0232 3C       		.uleb128 0x3c
 1891 0233 19       		.uleb128 0x19
 1892 0234 00       		.byte	0
 1893 0235 00       		.byte	0
 1894 0236 25       		.uleb128 0x25
 1895 0237 34       		.uleb128 0x34
 1896 0238 00       		.byte	0
 1897 0239 03       		.uleb128 0x3
 1898 023a 0E       		.uleb128 0xe
 1899 023b 3A       		.uleb128 0x3a
 1900 023c 0B       		.uleb128 0xb
 1901 023d 3B       		.uleb128 0x3b
 1902 023e 0B       		.uleb128 0xb
 1903 023f 39       		.uleb128 0x39
 1904 0240 0B       		.uleb128 0xb
 1905 0241 49       		.uleb128 0x49
 1906 0242 13       		.uleb128 0x13
 1907 0243 02       		.uleb128 0x2
 1908 0244 18       		.uleb128 0x18
 1909 0245 00       		.byte	0
 1910 0246 00       		.byte	0
 1911 0247 26       		.uleb128 0x26
 1912 0248 34       		.uleb128 0x34
 1913 0249 00       		.byte	0
 1914 024a 03       		.uleb128 0x3
 1915 024b 0E       		.uleb128 0xe
 1916 024c 3A       		.uleb128 0x3a
 1917 024d 0B       		.uleb128 0xb
 1918 024e 3B       		.uleb128 0x3b
 1919 024f 0B       		.uleb128 0xb
 1920 0250 39       		.uleb128 0x39
 1921 0251 0B       		.uleb128 0xb
 1922 0252 49       		.uleb128 0x49
 1923 0253 13       		.uleb128 0x13
 1924 0254 3F       		.uleb128 0x3f
 1925 0255 19       		.uleb128 0x19
 1926 0256 02       		.uleb128 0x2
 1927 0257 18       		.uleb128 0x18
ARM GAS  C:\Users\DEVELO~1\AppData\Local\Temp\ccWhNiyT.s 			page 35


 1928 0258 00       		.byte	0
 1929 0259 00       		.byte	0
 1930 025a 27       		.uleb128 0x27
 1931 025b 34       		.uleb128 0x34
 1932 025c 00       		.byte	0
 1933 025d 47       		.uleb128 0x47
 1934 025e 13       		.uleb128 0x13
 1935 025f 3A       		.uleb128 0x3a
 1936 0260 0B       		.uleb128 0xb
 1937 0261 3B       		.uleb128 0x3b
 1938 0262 0B       		.uleb128 0xb
 1939 0263 39       		.uleb128 0x39
 1940 0264 0B       		.uleb128 0xb
 1941 0265 02       		.uleb128 0x2
 1942 0266 18       		.uleb128 0x18
 1943 0267 00       		.byte	0
 1944 0268 00       		.byte	0
 1945 0269 28       		.uleb128 0x28
 1946 026a 2E       		.uleb128 0x2e
 1947 026b 01       		.byte	0x1
 1948 026c 3F       		.uleb128 0x3f
 1949 026d 19       		.uleb128 0x19
 1950 026e 03       		.uleb128 0x3
 1951 026f 0E       		.uleb128 0xe
 1952 0270 3A       		.uleb128 0x3a
 1953 0271 0B       		.uleb128 0xb
 1954 0272 3B       		.uleb128 0x3b
 1955 0273 05       		.uleb128 0x5
 1956 0274 39       		.uleb128 0x39
 1957 0275 0B       		.uleb128 0xb
 1958 0276 27       		.uleb128 0x27
 1959 0277 19       		.uleb128 0x19
 1960 0278 49       		.uleb128 0x49
 1961 0279 13       		.uleb128 0x13
 1962 027a 3C       		.uleb128 0x3c
 1963 027b 19       		.uleb128 0x19
 1964 027c 01       		.uleb128 0x1
 1965 027d 13       		.uleb128 0x13
 1966 027e 00       		.byte	0
 1967 027f 00       		.byte	0
 1968 0280 29       		.uleb128 0x29
 1969 0281 2E       		.uleb128 0x2e
 1970 0282 01       		.byte	0x1
 1971 0283 03       		.uleb128 0x3
 1972 0284 0E       		.uleb128 0xe
 1973 0285 3A       		.uleb128 0x3a
 1974 0286 0B       		.uleb128 0xb
 1975 0287 3B       		.uleb128 0x3b
 1976 0288 0B       		.uleb128 0xb
 1977 0289 39       		.uleb128 0x39
 1978 028a 0B       		.uleb128 0xb
 1979 028b 27       		.uleb128 0x27
 1980 028c 19       		.uleb128 0x19
 1981 028d 11       		.uleb128 0x11
 1982 028e 01       		.uleb128 0x1
 1983 028f 12       		.uleb128 0x12
 1984 0290 06       		.uleb128 0x6
ARM GAS  C:\Users\DEVELO~1\AppData\Local\Temp\ccWhNiyT.s 			page 36


 1985 0291 40       		.uleb128 0x40
 1986 0292 18       		.uleb128 0x18
 1987 0293 7A       		.uleb128 0x7a
 1988 0294 19       		.uleb128 0x19
 1989 0295 01       		.uleb128 0x1
 1990 0296 13       		.uleb128 0x13
 1991 0297 00       		.byte	0
 1992 0298 00       		.byte	0
 1993 0299 2A       		.uleb128 0x2a
 1994 029a 1D       		.uleb128 0x1d
 1995 029b 01       		.byte	0x1
 1996 029c 31       		.uleb128 0x31
 1997 029d 13       		.uleb128 0x13
 1998 029e 52       		.uleb128 0x52
 1999 029f 01       		.uleb128 0x1
 2000 02a0 B842     		.uleb128 0x2138
 2001 02a2 0B       		.uleb128 0xb
 2002 02a3 11       		.uleb128 0x11
 2003 02a4 01       		.uleb128 0x1
 2004 02a5 12       		.uleb128 0x12
 2005 02a6 06       		.uleb128 0x6
 2006 02a7 58       		.uleb128 0x58
 2007 02a8 0B       		.uleb128 0xb
 2008 02a9 59       		.uleb128 0x59
 2009 02aa 0B       		.uleb128 0xb
 2010 02ab 57       		.uleb128 0x57
 2011 02ac 0B       		.uleb128 0xb
 2012 02ad 01       		.uleb128 0x1
 2013 02ae 13       		.uleb128 0x13
 2014 02af 00       		.byte	0
 2015 02b0 00       		.byte	0
 2016 02b1 2B       		.uleb128 0x2b
 2017 02b2 48       		.uleb128 0x48
 2018 02b3 01       		.byte	0x1
 2019 02b4 7D       		.uleb128 0x7d
 2020 02b5 01       		.uleb128 0x1
 2021 02b6 7F       		.uleb128 0x7f
 2022 02b7 13       		.uleb128 0x13
 2023 02b8 00       		.byte	0
 2024 02b9 00       		.byte	0
 2025 02ba 2C       		.uleb128 0x2c
 2026 02bb 49       		.uleb128 0x49
 2027 02bc 00       		.byte	0
 2028 02bd 02       		.uleb128 0x2
 2029 02be 18       		.uleb128 0x18
 2030 02bf 7E       		.uleb128 0x7e
 2031 02c0 18       		.uleb128 0x18
 2032 02c1 00       		.byte	0
 2033 02c2 00       		.byte	0
 2034 02c3 2D       		.uleb128 0x2d
 2035 02c4 34       		.uleb128 0x34
 2036 02c5 00       		.byte	0
 2037 02c6 03       		.uleb128 0x3
 2038 02c7 0E       		.uleb128 0xe
 2039 02c8 3A       		.uleb128 0x3a
 2040 02c9 0B       		.uleb128 0xb
 2041 02ca 3B       		.uleb128 0x3b
ARM GAS  C:\Users\DEVELO~1\AppData\Local\Temp\ccWhNiyT.s 			page 37


 2042 02cb 05       		.uleb128 0x5
 2043 02cc 39       		.uleb128 0x39
 2044 02cd 0B       		.uleb128 0xb
 2045 02ce 49       		.uleb128 0x49
 2046 02cf 13       		.uleb128 0x13
 2047 02d0 00       		.byte	0
 2048 02d1 00       		.byte	0
 2049 02d2 2E       		.uleb128 0x2e
 2050 02d3 2E       		.uleb128 0x2e
 2051 02d4 01       		.byte	0x1
 2052 02d5 03       		.uleb128 0x3
 2053 02d6 0E       		.uleb128 0xe
 2054 02d7 3A       		.uleb128 0x3a
 2055 02d8 0B       		.uleb128 0xb
 2056 02d9 3B       		.uleb128 0x3b
 2057 02da 0B       		.uleb128 0xb
 2058 02db 39       		.uleb128 0x39
 2059 02dc 0B       		.uleb128 0xb
 2060 02dd 27       		.uleb128 0x27
 2061 02de 19       		.uleb128 0x19
 2062 02df 49       		.uleb128 0x49
 2063 02e0 13       		.uleb128 0x13
 2064 02e1 20       		.uleb128 0x20
 2065 02e2 0B       		.uleb128 0xb
 2066 02e3 01       		.uleb128 0x1
 2067 02e4 13       		.uleb128 0x13
 2068 02e5 00       		.byte	0
 2069 02e6 00       		.byte	0
 2070 02e7 2F       		.uleb128 0x2f
 2071 02e8 05       		.uleb128 0x5
 2072 02e9 00       		.byte	0
 2073 02ea 03       		.uleb128 0x3
 2074 02eb 0E       		.uleb128 0xe
 2075 02ec 3A       		.uleb128 0x3a
 2076 02ed 0B       		.uleb128 0xb
 2077 02ee 3B       		.uleb128 0x3b
 2078 02ef 0B       		.uleb128 0xb
 2079 02f0 39       		.uleb128 0x39
 2080 02f1 0B       		.uleb128 0xb
 2081 02f2 49       		.uleb128 0x49
 2082 02f3 13       		.uleb128 0x13
 2083 02f4 00       		.byte	0
 2084 02f5 00       		.byte	0
 2085 02f6 30       		.uleb128 0x30
 2086 02f7 05       		.uleb128 0x5
 2087 02f8 00       		.byte	0
 2088 02f9 03       		.uleb128 0x3
 2089 02fa 08       		.uleb128 0x8
 2090 02fb 3A       		.uleb128 0x3a
 2091 02fc 0B       		.uleb128 0xb
 2092 02fd 3B       		.uleb128 0x3b
 2093 02fe 0B       		.uleb128 0xb
 2094 02ff 39       		.uleb128 0x39
 2095 0300 0B       		.uleb128 0xb
 2096 0301 49       		.uleb128 0x49
 2097 0302 13       		.uleb128 0x13
 2098 0303 00       		.byte	0
ARM GAS  C:\Users\DEVELO~1\AppData\Local\Temp\ccWhNiyT.s 			page 38


 2099 0304 00       		.byte	0
 2100 0305 31       		.uleb128 0x31
 2101 0306 34       		.uleb128 0x34
 2102 0307 00       		.byte	0
 2103 0308 03       		.uleb128 0x3
 2104 0309 0E       		.uleb128 0xe
 2105 030a 49       		.uleb128 0x49
 2106 030b 13       		.uleb128 0x13
 2107 030c 34       		.uleb128 0x34
 2108 030d 19       		.uleb128 0x19
 2109 030e 00       		.byte	0
 2110 030f 00       		.byte	0
 2111 0310 32       		.uleb128 0x32
 2112 0311 05       		.uleb128 0x5
 2113 0312 00       		.byte	0
 2114 0313 03       		.uleb128 0x3
 2115 0314 08       		.uleb128 0x8
 2116 0315 3A       		.uleb128 0x3a
 2117 0316 0B       		.uleb128 0xb
 2118 0317 3B       		.uleb128 0x3b
 2119 0318 05       		.uleb128 0x5
 2120 0319 39       		.uleb128 0x39
 2121 031a 0B       		.uleb128 0xb
 2122 031b 49       		.uleb128 0x49
 2123 031c 13       		.uleb128 0x13
 2124 031d 00       		.byte	0
 2125 031e 00       		.byte	0
 2126 031f 33       		.uleb128 0x33
 2127 0320 2E       		.uleb128 0x2e
 2128 0321 01       		.byte	0x1
 2129 0322 03       		.uleb128 0x3
 2130 0323 0E       		.uleb128 0xe
 2131 0324 3A       		.uleb128 0x3a
 2132 0325 0B       		.uleb128 0xb
 2133 0326 3B       		.uleb128 0x3b
 2134 0327 05       		.uleb128 0x5
 2135 0328 39       		.uleb128 0x39
 2136 0329 0B       		.uleb128 0xb
 2137 032a 27       		.uleb128 0x27
 2138 032b 19       		.uleb128 0x19
 2139 032c 49       		.uleb128 0x49
 2140 032d 13       		.uleb128 0x13
 2141 032e 20       		.uleb128 0x20
 2142 032f 0B       		.uleb128 0xb
 2143 0330 00       		.byte	0
 2144 0331 00       		.byte	0
 2145 0332 00       		.byte	0
 2146              		.section	.debug_loclists,"",%progbits
 2147 0000 73010000 		.4byte	.Ldebug_loc3-.Ldebug_loc2
 2148              	.Ldebug_loc2:
 2149 0004 0500     		.2byte	0x5
 2150 0006 04       		.byte	0x4
 2151 0007 00       		.byte	0
 2152 0008 00000000 		.4byte	0
 2153              	.Ldebug_loc0:
 2154              	.LVUS1:
 2155 000c 00       		.uleb128 .LVU45
ARM GAS  C:\Users\DEVELO~1\AppData\Local\Temp\ccWhNiyT.s 			page 39


 2156 000d 00       		.uleb128 .LVU50
 2157 000e 00       		.uleb128 .LVU50
 2158 000f 00       		.uleb128 .LVU106
 2159              	.LLST1:
 2160 0010 06       		.byte	0x6
 2161 0011 28000000 		.4byte	.LVL6
 2162 0015 04       		.byte	0x4
 2163 0016 00       		.uleb128 .LVL6-.LVL6
 2164 0017 02       		.uleb128 .LVL7-.LVL6
 2165 0018 01       		.uleb128 0x1
 2166 0019 50       		.byte	0x50
 2167 001a 04       		.byte	0x4
 2168 001b 02       		.uleb128 .LVL7-.LVL6
 2169 001c 40       		.uleb128 .LVL20-.LVL6
 2170 001d 01       		.uleb128 0x1
 2171 001e 58       		.byte	0x58
 2172 001f 00       		.byte	0
 2173              	.LVUS2:
 2174 0020 04       		.uleb128 .LVU49
 2175 0021 00       		.uleb128 .LVU50
 2176 0022 00       		.uleb128 .LVU50
 2177 0023 00       		.uleb128 .LVU106
 2178              	.LLST2:
 2179 0024 06       		.byte	0x6
 2180 0025 28000000 		.4byte	.LVL6
 2181 0029 04       		.byte	0x4
 2182 002a 00       		.uleb128 .LVL6-.LVL6
 2183 002b 02       		.uleb128 .LVL7-.LVL6
 2184 002c 05       		.uleb128 0x5
 2185 002d 70       		.byte	0x70
 2186 002e 90CE00   		.sleb128 10000
 2187 0031 9F       		.byte	0x9f
 2188 0032 04       		.byte	0x4
 2189 0033 02       		.uleb128 .LVL7-.LVL6
 2190 0034 40       		.uleb128 .LVL20-.LVL6
 2191 0035 05       		.uleb128 0x5
 2192 0036 78       		.byte	0x78
 2193 0037 90CE00   		.sleb128 10000
 2194 003a 9F       		.byte	0x9f
 2195 003b 00       		.byte	0
 2196              	.LVUS3:
 2197 003c 02       		.uleb128 .LVU40
 2198 003d 00       		.uleb128 .LVU43
 2199 003e 00       		.uleb128 .LVU43
 2200 003f 00       		.uleb128 .LVU74
 2201 0040 00       		.uleb128 .LVU74
 2202 0041 00       		.uleb128 .LVU75
 2203 0042 00       		.uleb128 .LVU75
 2204 0043 00       		.uleb128 .LVU92
 2205 0044 02       		.uleb128 .LVU96
 2206 0045 00       		.uleb128 .LVU106
 2207              	.LLST3:
 2208 0046 06       		.byte	0x6
 2209 0047 1E000000 		.4byte	.LVL4
 2210 004b 04       		.byte	0x4
 2211 004c 00       		.uleb128 .LVL4-.LVL4
 2212 004d 03       		.uleb128 .LVL5-1-.LVL4
ARM GAS  C:\Users\DEVELO~1\AppData\Local\Temp\ccWhNiyT.s 			page 40


 2213 004e 06       		.uleb128 0x6
 2214 004f 50       		.byte	0x50
 2215 0050 93       		.byte	0x93
 2216 0051 04       		.uleb128 0x4
 2217 0052 51       		.byte	0x51
 2218 0053 93       		.byte	0x93
 2219 0054 04       		.uleb128 0x4
 2220 0055 04       		.byte	0x4
 2221 0056 03       		.uleb128 .LVL5-1-.LVL4
 2222 0057 2A       		.uleb128 .LVL12-.LVL4
 2223 0058 06       		.uleb128 0x6
 2224 0059 55       		.byte	0x55
 2225 005a 93       		.byte	0x93
 2226 005b 04       		.uleb128 0x4
 2227 005c 54       		.byte	0x54
 2228 005d 93       		.byte	0x93
 2229 005e 04       		.uleb128 0x4
 2230 005f 04       		.byte	0x4
 2231 0060 2A       		.uleb128 .LVL12-.LVL4
 2232 0061 2C       		.uleb128 .LVL13-.LVL4
 2233 0062 06       		.uleb128 0x6
 2234 0063 52       		.byte	0x52
 2235 0064 93       		.byte	0x93
 2236 0065 04       		.uleb128 0x4
 2237 0066 54       		.byte	0x54
 2238 0067 93       		.byte	0x93
 2239 0068 04       		.uleb128 0x4
 2240 0069 04       		.byte	0x4
 2241 006a 2C       		.uleb128 .LVL13-.LVL4
 2242 006b 38       		.uleb128 .LVL16-.LVL4
 2243 006c 06       		.uleb128 0x6
 2244 006d 52       		.byte	0x52
 2245 006e 93       		.byte	0x93
 2246 006f 04       		.uleb128 0x4
 2247 0070 53       		.byte	0x53
 2248 0071 93       		.byte	0x93
 2249 0072 04       		.uleb128 0x4
 2250 0073 04       		.byte	0x4
 2251 0074 42       		.uleb128 .LVL18-.LVL4
 2252 0075 4A       		.uleb128 .LVL20-.LVL4
 2253 0076 06       		.uleb128 0x6
 2254 0077 55       		.byte	0x55
 2255 0078 93       		.byte	0x93
 2256 0079 04       		.uleb128 0x4
 2257 007a 54       		.byte	0x54
 2258 007b 93       		.byte	0x93
 2259 007c 04       		.uleb128 0x4
 2260 007d 00       		.byte	0
 2261              	.LVUS4:
 2262 007e 00       		.uleb128 .LVU50
 2263 007f 00       		.uleb128 .LVU58
 2264 0080 02       		.uleb128 .LVU89
 2265 0081 00       		.uleb128 .LVU91
 2266 0082 00       		.uleb128 .LVU91
 2267 0083 00       		.uleb128 .LVU93
 2268 0084 00       		.uleb128 .LVU93
 2269 0085 00       		.uleb128 .LVU106
ARM GAS  C:\Users\DEVELO~1\AppData\Local\Temp\ccWhNiyT.s 			page 41


 2270              	.LLST4:
 2271 0086 06       		.byte	0x6
 2272 0087 2A000000 		.4byte	.LVL7
 2273 008b 04       		.byte	0x4
 2274 008c 00       		.uleb128 .LVL7-.LVL7
 2275 008d 10       		.uleb128 .LVL9-.LVL7
 2276 008e 06       		.uleb128 0x6
 2277 008f 55       		.byte	0x55
 2278 0090 93       		.byte	0x93
 2279 0091 04       		.uleb128 0x4
 2280 0092 54       		.byte	0x54
 2281 0093 93       		.byte	0x93
 2282 0094 04       		.uleb128 0x4
 2283 0095 04       		.byte	0x4
 2284 0096 24       		.uleb128 .LVL14-.LVL7
 2285 0097 28       		.uleb128 .LVL15-.LVL7
 2286 0098 06       		.uleb128 0x6
 2287 0099 50       		.byte	0x50
 2288 009a 93       		.byte	0x93
 2289 009b 04       		.uleb128 0x4
 2290 009c 51       		.byte	0x51
 2291 009d 93       		.byte	0x93
 2292 009e 04       		.uleb128 0x4
 2293 009f 04       		.byte	0x4
 2294 00a0 28       		.uleb128 .LVL15-.LVL7
 2295 00a1 30       		.uleb128 .LVL17-.LVL7
 2296 00a2 06       		.uleb128 0x6
 2297 00a3 50       		.byte	0x50
 2298 00a4 93       		.byte	0x93
 2299 00a5 04       		.uleb128 0x4
 2300 00a6 54       		.byte	0x54
 2301 00a7 93       		.byte	0x93
 2302 00a8 04       		.uleb128 0x4
 2303 00a9 04       		.byte	0x4
 2304 00aa 30       		.uleb128 .LVL17-.LVL7
 2305 00ab 3E       		.uleb128 .LVL20-.LVL7
 2306 00ac 06       		.uleb128 0x6
 2307 00ad 55       		.byte	0x55
 2308 00ae 93       		.byte	0x93
 2309 00af 04       		.uleb128 0x4
 2310 00b0 54       		.byte	0x54
 2311 00b1 93       		.byte	0x93
 2312 00b2 04       		.uleb128 0x4
 2313 00b3 00       		.byte	0
 2314              	.LVUS5:
 2315 00b4 01       		.uleb128 .LVU46
 2316 00b5 03       		.uleb128 .LVU48
 2317 00b6 03       		.uleb128 .LVU48
 2318 00b7 00       		.uleb128 0
 2319              	.LLST5:
 2320 00b8 06       		.byte	0x6
 2321 00b9 28000000 		.4byte	.LVL6
 2322 00bd 04       		.byte	0x4
 2323 00be 00       		.uleb128 .LVL6-.LVL6
 2324 00bf 00       		.uleb128 .LVL6-.LVL6
 2325 00c0 06       		.uleb128 0x6
 2326 00c1 0C       		.byte	0xc
ARM GAS  C:\Users\DEVELO~1\AppData\Local\Temp\ccWhNiyT.s 			page 42


 2327 00c2 FFFFFF7F 		.4byte	0x7fffffff
 2328 00c6 9F       		.byte	0x9f
 2329 00c7 04       		.byte	0x4
 2330 00c8 00       		.uleb128 .LVL6-.LVL6
 2331 00c9 48       		.uleb128 .LFE452-.LVL6
 2332 00ca 04       		.uleb128 0x4
 2333 00cb 0A       		.byte	0xa
 2334 00cc 1027     		.2byte	0x2710
 2335 00ce 9F       		.byte	0x9f
 2336 00cf 00       		.byte	0
 2337              	.LVUS7:
 2338 00d0 00       		.uleb128 .LVU26
 2339 00d1 02       		.uleb128 .LVU40
 2340              	.LLST7:
 2341 00d2 08       		.byte	0x8
 2342 00d3 1A000000 		.4byte	.LVL3
 2343 00d7 04       		.uleb128 .LVL4-.LVL3
 2344 00d8 06       		.uleb128 0x6
 2345 00d9 50       		.byte	0x50
 2346 00da 93       		.byte	0x93
 2347 00db 04       		.uleb128 0x4
 2348 00dc 51       		.byte	0x51
 2349 00dd 93       		.byte	0x93
 2350 00de 04       		.uleb128 0x4
 2351 00df 00       		.byte	0
 2352              	.LVUS9:
 2353 00e0 0B       		.uleb128 .LVU17
 2354 00e1 00       		.uleb128 .LVU19
 2355              	.LLST9:
 2356 00e2 08       		.byte	0x8
 2357 00e3 0C000000 		.4byte	.LVL0
 2358 00e7 04       		.uleb128 .LVL1-.LVL0
 2359 00e8 03       		.uleb128 0x3
 2360 00e9 08       		.byte	0x8
 2361 00ea 30       		.byte	0x30
 2362 00eb 9F       		.byte	0x9f
 2363 00ec 00       		.byte	0
 2364              	.LVUS11:
 2365 00ed 0A       		.uleb128 .LVU36
 2366 00ee 00       		.uleb128 .LVU38
 2367              	.LLST11:
 2368 00ef 08       		.byte	0x8
 2369 00f0 1A000000 		.4byte	.LVL3
 2370 00f4 04       		.uleb128 .LVL4-.LVL3
 2371 00f5 02       		.uleb128 0x2
 2372 00f6 30       		.byte	0x30
 2373 00f7 9F       		.byte	0x9f
 2374 00f8 00       		.byte	0
 2375              	.LVUS13:
 2376 00f9 00       		.uleb128 .LVU50
 2377 00fa 03       		.uleb128 .LVU54
 2378 00fb 03       		.uleb128 .LVU97
 2379 00fc 00       		.uleb128 .LVU104
 2380              	.LLST13:
 2381 00fd 06       		.byte	0x6
 2382 00fe 2A000000 		.4byte	.LVL7
 2383 0102 04       		.byte	0x4
ARM GAS  C:\Users\DEVELO~1\AppData\Local\Temp\ccWhNiyT.s 			page 43


 2384 0103 00       		.uleb128 .LVL7-.LVL7
 2385 0104 04       		.uleb128 .LVL8-.LVL7
 2386 0105 05       		.uleb128 0x5
 2387 0106 78       		.byte	0x78
 2388 0107 90CE00   		.sleb128 10000
 2389 010a 9F       		.byte	0x9f
 2390 010b 04       		.byte	0x4
 2391 010c 36       		.uleb128 .LVL18-.LVL7
 2392 010d 3A       		.uleb128 .LVL19-.LVL7
 2393 010e 05       		.uleb128 0x5
 2394 010f 78       		.byte	0x78
 2395 0110 90CE00   		.sleb128 10000
 2396 0113 9F       		.byte	0x9f
 2397 0114 00       		.byte	0
 2398              	.LVUS14:
 2399 0115 00       		.uleb128 .LVU50
 2400 0116 03       		.uleb128 .LVU54
 2401 0117 03       		.uleb128 .LVU97
 2402 0118 00       		.uleb128 .LVU104
 2403              	.LLST14:
 2404 0119 06       		.byte	0x6
 2405 011a 2A000000 		.4byte	.LVL7
 2406 011e 04       		.byte	0x4
 2407 011f 00       		.uleb128 .LVL7-.LVL7
 2408 0120 04       		.uleb128 .LVL8-.LVL7
 2409 0121 01       		.uleb128 0x1
 2410 0122 58       		.byte	0x58
 2411 0123 04       		.byte	0x4
 2412 0124 36       		.uleb128 .LVL18-.LVL7
 2413 0125 3A       		.uleb128 .LVL19-.LVL7
 2414 0126 01       		.uleb128 0x1
 2415 0127 58       		.byte	0x58
 2416 0128 00       		.byte	0
 2417              	.LVUS17:
 2418 0129 00       		.uleb128 .LVU51
 2419 012a 03       		.uleb128 .LVU54
 2420              	.LLST17:
 2421 012b 08       		.byte	0x8
 2422 012c 2E000000 		.4byte	.LVL8
 2423 0130 00       		.uleb128 .LVL8-.LVL8
 2424 0131 05       		.uleb128 0x5
 2425 0132 78       		.byte	0x78
 2426 0133 90CE00   		.sleb128 10000
 2427 0136 9F       		.byte	0x9f
 2428 0137 00       		.byte	0
 2429              	.LVUS18:
 2430 0138 00       		.uleb128 .LVU51
 2431 0139 03       		.uleb128 .LVU54
 2432              	.LLST18:
 2433 013a 08       		.byte	0x8
 2434 013b 2E000000 		.4byte	.LVL8
 2435 013f 00       		.uleb128 .LVL8-.LVL8
 2436 0140 01       		.uleb128 0x1
 2437 0141 58       		.byte	0x58
 2438 0142 00       		.byte	0
 2439              	.LVUS19:
 2440 0143 00       		.uleb128 .LVU51
ARM GAS  C:\Users\DEVELO~1\AppData\Local\Temp\ccWhNiyT.s 			page 44


 2441 0144 03       		.uleb128 .LVU54
 2442              	.LLST19:
 2443 0145 08       		.byte	0x8
 2444 0146 2E000000 		.4byte	.LVL8
 2445 014a 00       		.uleb128 .LVL8-.LVL8
 2446 014b 01       		.uleb128 0x1
 2447 014c 50       		.byte	0x50
 2448 014d 00       		.byte	0
 2449              	.LVUS20:
 2450 014e 00       		.uleb128 .LVU75
 2451 014f 02       		.uleb128 .LVU89
 2452              	.LLST20:
 2453 0150 08       		.byte	0x8
 2454 0151 4A000000 		.4byte	.LVL13
 2455 0155 04       		.uleb128 .LVL14-.LVL13
 2456 0156 06       		.uleb128 0x6
 2457 0157 50       		.byte	0x50
 2458 0158 93       		.byte	0x93
 2459 0159 04       		.uleb128 0x4
 2460 015a 51       		.byte	0x51
 2461 015b 93       		.byte	0x93
 2462 015c 04       		.uleb128 0x4
 2463 015d 00       		.byte	0
 2464              	.LVUS21:
 2465 015e 09       		.uleb128 .LVU67
 2466 015f 00       		.uleb128 .LVU69
 2467              	.LLST21:
 2468 0160 08       		.byte	0x8
 2469 0161 3A000000 		.4byte	.LVL9
 2470 0165 04       		.uleb128 .LVL10-.LVL9
 2471 0166 03       		.uleb128 0x3
 2472 0167 08       		.byte	0x8
 2473 0168 30       		.byte	0x30
 2474 0169 9F       		.byte	0x9f
 2475 016a 00       		.byte	0
 2476              	.LVUS22:
 2477 016b 0A       		.uleb128 .LVU85
 2478 016c 00       		.uleb128 .LVU87
 2479              	.LLST22:
 2480 016d 08       		.byte	0x8
 2481 016e 4A000000 		.4byte	.LVL13
 2482 0172 04       		.uleb128 .LVL14-.LVL13
 2483 0173 02       		.uleb128 0x2
 2484 0174 30       		.byte	0x30
 2485 0175 9F       		.byte	0x9f
 2486 0176 00       		.byte	0
 2487              	.Ldebug_loc3:
 2488              		.section	.debug_aranges,"",%progbits
 2489 0000 1C000000 		.4byte	0x1c
 2490 0004 0200     		.2byte	0x2
 2491 0006 00000000 		.4byte	.Ldebug_info0
 2492 000a 04       		.byte	0x4
 2493 000b 00       		.byte	0
 2494 000c 0000     		.2byte	0
 2495 000e 0000     		.2byte	0
 2496 0010 00000000 		.4byte	.LFB452
 2497 0014 70000000 		.4byte	.LFE452-.LFB452
ARM GAS  C:\Users\DEVELO~1\AppData\Local\Temp\ccWhNiyT.s 			page 45


 2498 0018 00000000 		.4byte	0
 2499 001c 00000000 		.4byte	0
 2500              		.section	.debug_rnglists,"",%progbits
 2501              	.Ldebug_ranges0:
 2502 0000 66000000 		.4byte	.Ldebug_ranges3-.Ldebug_ranges2
 2503              	.Ldebug_ranges2:
 2504 0004 0500     		.2byte	0x5
 2505 0006 04       		.byte	0x4
 2506 0007 00       		.byte	0
 2507 0008 00000000 		.4byte	0
 2508              	.LLRL0:
 2509 000c 05       		.byte	0x5
 2510 000d 08000000 		.4byte	.LBB64
 2511 0011 04       		.byte	0x4
 2512 0012 00       		.uleb128 .LBB64-.LBB64
 2513 0013 02       		.uleb128 .LBE64-.LBB64
 2514 0014 04       		.byte	0x4
 2515 0015 04       		.uleb128 .LBB111-.LBB64
 2516 0016 5C       		.uleb128 .LBE111-.LBB64
 2517 0017 00       		.byte	0
 2518              	.LLRL6:
 2519 0018 05       		.byte	0x5
 2520 0019 08000000 		.4byte	.LBB65
 2521 001d 04       		.byte	0x4
 2522 001e 00       		.uleb128 .LBB65-.LBB65
 2523 001f 02       		.uleb128 .LBE65-.LBB65
 2524 0020 04       		.byte	0x4
 2525 0021 04       		.uleb128 .LBB86-.LBB65
 2526 0022 16       		.uleb128 .LBE86-.LBB65
 2527 0023 00       		.byte	0
 2528              	.LLRL8:
 2529 0024 05       		.byte	0x5
 2530 0025 08000000 		.4byte	.LBB67
 2531 0029 04       		.byte	0x4
 2532 002a 00       		.uleb128 .LBB67-.LBB67
 2533 002b 02       		.uleb128 .LBE67-.LBB67
 2534 002c 04       		.byte	0x4
 2535 002d 04       		.uleb128 .LBB74-.LBB67
 2536 002e 08       		.uleb128 .LBE74-.LBB67
 2537 002f 00       		.byte	0
 2538              	.LLRL10:
 2539 0030 05       		.byte	0x5
 2540 0031 14000000 		.4byte	.LBB75
 2541 0035 04       		.byte	0x4
 2542 0036 00       		.uleb128 .LBB75-.LBB75
 2543 0037 02       		.uleb128 .LBE75-.LBB75
 2544 0038 04       		.byte	0x4
 2545 0039 06       		.uleb128 .LBB84-.LBB75
 2546 003a 0A       		.uleb128 .LBE84-.LBB75
 2547 003b 00       		.byte	0
 2548              	.LLRL12:
 2549 003c 05       		.byte	0x5
 2550 003d 2A000000 		.4byte	.LBB87
 2551 0041 04       		.byte	0x4
 2552 0042 00       		.uleb128 .LBB87-.LBB87
 2553 0043 04       		.uleb128 .LBE87-.LBB87
 2554 0044 04       		.byte	0x4
ARM GAS  C:\Users\DEVELO~1\AppData\Local\Temp\ccWhNiyT.s 			page 46


 2555 0045 08       		.uleb128 .LBB98-.LBB87
 2556 0046 0C       		.uleb128 .LBE98-.LBB87
 2557 0047 04       		.byte	0x4
 2558 0048 36       		.uleb128 .LBB110-.LBB87
 2559 0049 36       		.uleb128 .LBE110-.LBB87
 2560 004a 00       		.byte	0
 2561              	.LLRL15:
 2562 004b 05       		.byte	0x5
 2563 004c 2A000000 		.4byte	.LBB88
 2564 0050 04       		.byte	0x4
 2565 0051 00       		.uleb128 .LBB88-.LBB88
 2566 0052 04       		.uleb128 .LBE88-.LBB88
 2567 0053 04       		.byte	0x4
 2568 0054 36       		.uleb128 .LBB97-.LBB88
 2569 0055 36       		.uleb128 .LBE97-.LBB88
 2570 0056 00       		.byte	0
 2571              	.LLRL16:
 2572 0057 05       		.byte	0x5
 2573 0058 2E000000 		.4byte	.LBB93
 2574 005c 04       		.byte	0x4
 2575 005d 00       		.uleb128 .LBB93-.LBB93
 2576 005e 00       		.uleb128 .LBE93-.LBB93
 2577 005f 04       		.byte	0x4
 2578 0060 04       		.uleb128 .LBB96-.LBB93
 2579 0061 08       		.uleb128 .LBE96-.LBB93
 2580 0062 00       		.byte	0
 2581              	.LLRL23:
 2582 0063 07       		.byte	0x7
 2583 0064 00000000 		.4byte	.LFB452
 2584 0068 70       		.uleb128 .LFE452-.LFB452
 2585 0069 00       		.byte	0
 2586              	.Ldebug_ranges3:
 2587              		.section	.debug_line,"",%progbits
 2588              	.Ldebug_line0:
 2589 0000 DE040000 		.section	.debug_str,"MS",%progbits,1
 2589      0300EA02 
 2589      00000201 
 2589      FB0E0D00 
 2589      01010101 
 2590              	.LASF2:
 2591 0000 6C6F6E67 		.ascii	"long double\000"
 2591      20646F75 
 2591      626C6500 
 2592              	.LASF57:
 2593 000c 63685654 		.ascii	"chVTIsSystemTimeWithinX\000"
 2593      49735379 
 2593      7374656D 
 2593      54696D65 
 2593      57697468 
 2594              	.LASF39:
 2595 0024 63685F74 		.ascii	"ch_test_context_t\000"
 2595      6573745F 
 2595      636F6E74 
 2595      6578745F 
 2595      7400
 2596              	.LASF36:
 2597 0036 746F6B65 		.ascii	"tokens_buffer\000"
ARM GAS  C:\Users\DEVELO~1\AppData\Local\Temp\ccWhNiyT.s 			page 47


 2597      6E735F62 
 2597      75666665 
 2597      7200
 2598              	.LASF27:
 2599 0044 77726974 		.ascii	"write\000"
 2599      6500
 2600              	.LASF18:
 2601 004a 75696E74 		.ascii	"uint64_t\000"
 2601      36345F74 
 2601      00
 2602              	.LASF7:
 2603 0053 73686F72 		.ascii	"short int\000"
 2603      7420696E 
 2603      7400
 2604              	.LASF4:
 2605 005d 73697A65 		.ascii	"size_t\000"
 2605      5F7400
 2606              	.LASF32:
 2607 0064 676C6F62 		.ascii	"global_fail\000"
 2607      616C5F66 
 2607      61696C00 
 2608              	.LASF72:
 2609 0070 2E2F4368 		.ascii	"./ChibiOS/test/rt/source/test/rt_test_sequence_004."
 2609      6962694F 
 2609      532F7465 
 2609      73742F72 
 2609      742F736F 
 2610 00a3 6300     		.ascii	"c\000"
 2611              	.LASF37:
 2612 00a5 70757463 		.ascii	"putchar\000"
 2612      68617200 
 2613              	.LASF58:
 2614 00ad 63685654 		.ascii	"chVTGetSystemTimeX\000"
 2614      47657453 
 2614      79737465 
 2614      6D54696D 
 2614      655800
 2615              	.LASF29:
 2616 00c0 42617365 		.ascii	"BaseSequentialStream\000"
 2616      53657175 
 2616      656E7469 
 2616      616C5374 
 2616      7265616D 
 2617              	.LASF47:
 2618 00d5 63687465 		.ascii	"chtest\000"
 2618      737400
 2619              	.LASF62:
 2620 00dc 706F7274 		.ascii	"port_lock\000"
 2620      5F6C6F63 
 2620      6B00
 2621              	.LASF60:
 2622 00e6 63685379 		.ascii	"chSysLock\000"
 2622      734C6F63 
 2622      6B00
 2623              	.LASF46:
 2624 00f0 74657374 		.ascii	"testsequence_t\000"
 2624      73657175 
ARM GAS  C:\Users\DEVELO~1\AppData\Local\Temp\ccWhNiyT.s 			page 48


 2624      656E6365 
 2624      5F7400
 2625              	.LASF44:
 2626 00ff 74657374 		.ascii	"testcase_t\000"
 2626      63617365 
 2626      5F7400
 2627              	.LASF15:
 2628 010a 75696E74 		.ascii	"uint8_t\000"
 2628      385F7400 
 2629              	.LASF78:
 2630 0112 7374616D 		.ascii	"stamp\000"
 2630      7000
 2631              	.LASF30:
 2632 0118 74657374 		.ascii	"test_putchar_t\000"
 2632      5F707574 
 2632      63686172 
 2632      5F7400
 2633              	.LASF31:
 2634 0127 63757272 		.ascii	"current_step\000"
 2634      656E745F 
 2634      73746570 
 2634      00
 2635              	.LASF41:
 2636 0134 73657475 		.ascii	"setup\000"
 2636      7000
 2637              	.LASF76:
 2638 013a 5F5F7465 		.ascii	"__test_assert\000"
 2638      73745F61 
 2638      73736572 
 2638      7400
 2639              	.LASF28:
 2640 0148 72656164 		.ascii	"read\000"
 2640      00
 2641              	.LASF1:
 2642 014d 6C6F6E67 		.ascii	"long long int\000"
 2642      206C6F6E 
 2642      6720696E 
 2642      7400
 2643              	.LASF66:
 2644 015b 63685469 		.ascii	"chTimeIsInRangeX\000"
 2644      6D654973 
 2644      496E5261 
 2644      6E676558 
 2644      00
 2645              	.LASF26:
 2646 016c 696E7374 		.ascii	"instance_offset\000"
 2646      616E6365 
 2646      5F6F6666 
 2646      73657400 
 2647              	.LASF34:
 2648 017c 6661696C 		.ascii	"failure_message\000"
 2648      7572655F 
 2648      6D657373 
 2648      61676500 
 2649              	.LASF35:
 2650 018c 746F6B70 		.ascii	"tokp\000"
 2650      00
ARM GAS  C:\Users\DEVELO~1\AppData\Local\Temp\ccWhNiyT.s 			page 49


 2651              	.LASF38:
 2652 0191 73747265 		.ascii	"stream\000"
 2652      616D00
 2653              	.LASF73:
 2654 0198 433A5C43 		.ascii	"C:\\ChibiStudio\\chibios2111\\demos\\STM32\\RT-STM3"
 2654      68696269 
 2654      53747564 
 2654      696F5C63 
 2654      68696269 
 2655 01c6 32483734 		.ascii	"2H743ZI_REV_XY-NUCLEO144 - Copie\000"
 2655      335A495F 
 2655      5245565F 
 2655      58592D4E 
 2655      55434C45 
 2656              	.LASF5:
 2657 01e7 5F5F7569 		.ascii	"__uint8_t\000"
 2657      6E74385F 
 2657      7400
 2658              	.LASF42:
 2659 01f1 74656172 		.ascii	"teardown\000"
 2659      646F776E 
 2659      00
 2660              	.LASF40:
 2661 01fa 6E616D65 		.ascii	"name\000"
 2661      00
 2662              	.LASF6:
 2663 01ff 756E7369 		.ascii	"unsigned char\000"
 2663      676E6564 
 2663      20636861 
 2663      7200
 2664              	.LASF79:
 2665 020d 5F5F6675 		.ascii	"__func__\000"
 2665      6E635F5F 
 2665      00
 2666              	.LASF33:
 2667 0216 6C6F6361 		.ascii	"local_fail\000"
 2667      6C5F6661 
 2667      696C00
 2668              	.LASF3:
 2669 0221 7369676E 		.ascii	"signed char\000"
 2669      65642063 
 2669      68617200 
 2670              	.LASF14:
 2671 022d 6C6F6E67 		.ascii	"long long unsigned int\000"
 2671      206C6F6E 
 2671      6720756E 
 2671      7369676E 
 2671      65642069 
 2672              	.LASF17:
 2673 0244 75696E74 		.ascii	"uint32_t\000"
 2673      33325F74 
 2673      00
 2674              	.LASF75:
 2675 024d 72745F74 		.ascii	"rt_test_004_001\000"
 2675      6573745F 
 2675      3030345F 
 2675      30303100 
ARM GAS  C:\Users\DEVELO~1\AppData\Local\Temp\ccWhNiyT.s 			page 50


 2676              	.LASF51:
 2677 025d 63685654 		.ascii	"chVTGetTimeStampI\000"
 2677      47657454 
 2677      696D6553 
 2677      74616D70 
 2677      4900
 2678              	.LASF68:
 2679 026f 63685469 		.ascii	"chTimeAddX\000"
 2679      6D654164 
 2679      645800
 2680              	.LASF67:
 2681 027a 74696D65 		.ascii	"time\000"
 2681      00
 2682              	.LASF54:
 2683 027f 6C617374 		.ascii	"last\000"
 2683      00
 2684              	.LASF45:
 2685 0284 63617365 		.ascii	"cases\000"
 2685      7300
 2686              	.LASF53:
 2687 028a 73746172 		.ascii	"start\000"
 2687      7400
 2688              	.LASF8:
 2689 0290 73686F72 		.ascii	"short unsigned int\000"
 2689      7420756E 
 2689      7369676E 
 2689      65642069 
 2689      6E7400
 2690              	.LASF65:
 2691 02a3 62617365 		.ascii	"basePri\000"
 2691      50726900 
 2692              	.LASF21:
 2693 02ab 73797374 		.ascii	"systime_t\000"
 2693      696D655F 
 2693      7400
 2694              	.LASF20:
 2695 02b5 63686172 		.ascii	"char\000"
 2695      00
 2696              	.LASF77:
 2697 02ba 72745F74 		.ascii	"rt_test_004_001_execute\000"
 2697      6573745F 
 2697      3030345F 
 2697      3030315F 
 2697      65786563 
 2698              	.LASF16:
 2699 02d2 696E7433 		.ascii	"int32_t\000"
 2699      325F7400 
 2700              	.LASF59:
 2701 02da 706F7274 		.ascii	"port_timer_get_time\000"
 2701      5F74696D 
 2701      65725F67 
 2701      65745F74 
 2701      696D6500 
 2702              	.LASF25:
 2703 02ee 5F426F6F 		.ascii	"_Bool\000"
 2703      6C00
 2704              	.LASF61:
ARM GAS  C:\Users\DEVELO~1\AppData\Local\Temp\ccWhNiyT.s 			page 51


 2705 02f4 706F7274 		.ascii	"port_unlock\000"
 2705      5F756E6C 
 2705      6F636B00 
 2706              	.LASF22:
 2707 0300 73797369 		.ascii	"sysinterval_t\000"
 2707      6E746572 
 2707      76616C5F 
 2707      7400
 2708              	.LASF13:
 2709 030e 5F5F7569 		.ascii	"__uint64_t\000"
 2709      6E743634 
 2709      5F7400
 2710              	.LASF55:
 2711 0319 64757261 		.ascii	"duration\000"
 2711      74696F6E 
 2711      00
 2712              	.LASF56:
 2713 0322 63685654 		.ascii	"chVTGetTimeStamp\000"
 2713      47657454 
 2713      696D6553 
 2713      74616D70 
 2713      00
 2714              	.LASF48:
 2715 0333 72745F74 		.ascii	"rt_test_sequence_004\000"
 2715      6573745F 
 2715      73657175 
 2715      656E6365 
 2715      5F303034 
 2716              	.LASF12:
 2717 0348 6C6F6E67 		.ascii	"long unsigned int\000"
 2717      20756E73 
 2717      69676E65 
 2717      6420696E 
 2717      7400
 2718              	.LASF71:
 2719 035a 474E5520 		.ascii	"GNU C17 11.3.1 20220712 -mcpu=cortex-m7 -mthumb -mf"
 2719      43313720 
 2719      31312E33 
 2719      2E312032 
 2719      30323230 
 2720 038d 6C6F6174 		.ascii	"loat-abi=soft -march=armv7e-m -ggdb -O2 -fomit-fram"
 2720      2D616269 
 2720      3D736F66 
 2720      74202D6D 
 2720      61726368 
 2721 03c0 652D706F 		.ascii	"e-pointer -falign-functions=16 -ffunction-sections "
 2721      696E7465 
 2721      72202D66 
 2721      616C6967 
 2721      6E2D6675 
 2722 03f3 2D666461 		.ascii	"-fdata-sections -fno-common\000"
 2722      74612D73 
 2722      65637469 
 2722      6F6E7320 
 2722      2D666E6F 
 2723              	.LASF70:
 2724 040f 696E7465 		.ascii	"interval\000"
ARM GAS  C:\Users\DEVELO~1\AppData\Local\Temp\ccWhNiyT.s 			page 52


 2724      7276616C 
 2724      00
 2725              	.LASF11:
 2726 0418 5F5F7569 		.ascii	"__uint32_t\000"
 2726      6E743332 
 2726      5F7400
 2727              	.LASF63:
 2728 0423 63685379 		.ascii	"chSysUnlock\000"
 2728      73556E6C 
 2728      6F636B00 
 2729              	.LASF49:
 2730 042f 72745F74 		.ascii	"rt_test_sequence_004_array\000"
 2730      6573745F 
 2730      73657175 
 2730      656E6365 
 2730      5F303034 
 2731              	.LASF9:
 2732 044a 5F5F696E 		.ascii	"__int32_t\000"
 2732      7433325F 
 2732      7400
 2733              	.LASF24:
 2734 0454 74696D65 		.ascii	"time_conv_t\000"
 2734      5F636F6E 
 2734      765F7400 
 2735              	.LASF23:
 2736 0460 73797374 		.ascii	"systimestamp_t\000"
 2736      696D6573 
 2736      74616D70 
 2736      5F7400
 2737              	.LASF52:
 2738 046f 74657374 		.ascii	"test_wait_tick\000"
 2738      5F776169 
 2738      745F7469 
 2738      636B00
 2739              	.LASF43:
 2740 047e 65786563 		.ascii	"execute\000"
 2740      75746500 
 2741              	.LASF64:
 2742 0486 5F5F7365 		.ascii	"__set_BASEPRI\000"
 2742      745F4241 
 2742      53455052 
 2742      4900
 2743              	.LASF10:
 2744 0494 6C6F6E67 		.ascii	"long int\000"
 2744      20696E74 
 2744      00
 2745              	.LASF0:
 2746 049d 756E7369 		.ascii	"unsigned int\000"
 2746      676E6564 
 2746      20696E74 
 2746      00
 2747              	.LASF69:
 2748 04aa 73797374 		.ascii	"systime\000"
 2748      696D6500 
 2749              	.LASF19:
 2750 04b2 6D73675F 		.ascii	"msg_t\000"
 2750      7400
ARM GAS  C:\Users\DEVELO~1\AppData\Local\Temp\ccWhNiyT.s 			page 53


 2751              	.LASF74:
 2752 04b8 42617365 		.ascii	"BaseSequentialStreamVMT\000"
 2752      53657175 
 2752      656E7469 
 2752      616C5374 
 2752      7265616D 
 2753              	.LASF50:
 2754 04d0 73744765 		.ascii	"stGetCounter\000"
 2754      74436F75 
 2754      6E746572 
 2754      00
 2755              		.ident	"GCC: (Arm GNU Toolchain 11.3.Rel1) 11.3.1 20220712"
ARM GAS  C:\Users\DEVELO~1\AppData\Local\Temp\ccWhNiyT.s 			page 54


DEFINED SYMBOLS
                            *ABS*:00000000 rt_test_sequence_004.c
C:\Users\DEVELO~1\AppData\Local\Temp\ccWhNiyT.s:18     .rodata.rt_test_004_001_execute.str1.4:00000000 $d
C:\Users\DEVELO~1\AppData\Local\Temp\ccWhNiyT.s:22     .text.rt_test_004_001_execute:00000000 $t
C:\Users\DEVELO~1\AppData\Local\Temp\ccWhNiyT.s:28     .text.rt_test_004_001_execute:00000000 rt_test_004_001_execute
C:\Users\DEVELO~1\AppData\Local\Temp\ccWhNiyT.s:354    .text.rt_test_004_001_execute:00000068 $d
C:\Users\DEVELO~1\AppData\Local\Temp\ccWhNiyT.s:381    .rodata.rt_test_sequence_004:00000000 rt_test_sequence_004
C:\Users\DEVELO~1\AppData\Local\Temp\ccWhNiyT.s:361    .rodata.str1.4:00000000 $d
C:\Users\DEVELO~1\AppData\Local\Temp\ccWhNiyT.s:388    .rodata.rt_test_sequence_004_array:00000000 rt_test_sequence_004_array
C:\Users\DEVELO~1\AppData\Local\Temp\ccWhNiyT.s:369    .rodata.rt_test_004_001:00000000 $d
C:\Users\DEVELO~1\AppData\Local\Temp\ccWhNiyT.s:372    .rodata.rt_test_004_001:00000000 rt_test_004_001
C:\Users\DEVELO~1\AppData\Local\Temp\ccWhNiyT.s:378    .rodata.rt_test_sequence_004:00000000 $d
C:\Users\DEVELO~1\AppData\Local\Temp\ccWhNiyT.s:385    .rodata.rt_test_sequence_004_array:00000000 $d

UNDEFINED SYMBOLS
chVTGetTimeStampI
test_wait_tick
stGetCounter
__test_assert
chtest
