ARM GAS  C:\Users\DEVELO~1\AppData\Local\Temp\ccfPgKlK.s 			page 1


   1              		.cpu cortex-m7
   2              		.arch armv7e-m
   3              		.fpu softvfp
   4              		.eabi_attribute 20, 1
   5              		.eabi_attribute 21, 1
   6              		.eabi_attribute 23, 3
   7              		.eabi_attribute 24, 1
   8              		.eabi_attribute 25, 1
   9              		.eabi_attribute 26, 1
  10              		.eabi_attribute 30, 2
  11              		.eabi_attribute 34, 1
  12              		.eabi_attribute 18, 4
  13              		.file	"stm32h7xx_hal_pwr.c"
  14              		.text
  15              	.Ltext0:
  16              		.cfi_sections	.debug_frame
  17              		.section	.text.HAL_PWR_DeInit,"ax",%progbits
  18              		.align	1
  19              		.p2align 4,,15
  20              		.global	HAL_PWR_DeInit
  21              		.syntax unified
  22              		.thumb
  23              		.thumb_func
  24              		.type	HAL_PWR_DeInit, %function
  25              	HAL_PWR_DeInit:
  26              	.LFB141:
  27              		.file 1 "./drivers/stm32h7xx-hal-driver/Src/stm32h7xx_hal_pwr.c"
  28              		.loc 1 226 1 view -0
  29              		.cfi_startproc
  30              		@ args = 0, pretend = 0, frame = 0
  31              		@ frame_needed = 0, uses_anonymous_args = 0
  32              		@ link register save eliminated.
  33              		.loc 1 227 1 view .LVU1
  34 0000 7047     		bx	lr
  35              		.cfi_endproc
  36              	.LFE141:
  37              		.size	HAL_PWR_DeInit, .-HAL_PWR_DeInit
  38 0002 00BF     		.section	.text.HAL_PWR_EnableBkUpAccess,"ax",%progbits
  39              		.align	1
  40              		.p2align 4,,15
  41              		.global	HAL_PWR_EnableBkUpAccess
  42              		.syntax unified
  43              		.thumb
  44              		.thumb_func
  45              		.type	HAL_PWR_EnableBkUpAccess, %function
  46              	HAL_PWR_EnableBkUpAccess:
  47              	.LFB142:
  48              		.loc 1 237 1 view -0
  49              		.cfi_startproc
  50              		@ args = 0, pretend = 0, frame = 0
  51              		@ frame_needed = 0, uses_anonymous_args = 0
  52              		@ link register save eliminated.
  53              		.loc 1 239 3 view .LVU3
  54 0000 024A     		ldr	r2, .L4
  55 0002 1368     		ldr	r3, [r2]
  56 0004 43F48073 		orr	r3, r3, #256
  57 0008 1360     		str	r3, [r2]
ARM GAS  C:\Users\DEVELO~1\AppData\Local\Temp\ccfPgKlK.s 			page 2


  58              		.loc 1 240 1 is_stmt 0 view .LVU4
  59 000a 7047     		bx	lr
  60              	.L5:
  61              		.align	2
  62              	.L4:
  63 000c 00480258 		.word	1476544512
  64              		.cfi_endproc
  65              	.LFE142:
  66              		.size	HAL_PWR_EnableBkUpAccess, .-HAL_PWR_EnableBkUpAccess
  67              		.section	.text.HAL_PWR_DisableBkUpAccess,"ax",%progbits
  68              		.align	1
  69              		.p2align 4,,15
  70              		.global	HAL_PWR_DisableBkUpAccess
  71              		.syntax unified
  72              		.thumb
  73              		.thumb_func
  74              		.type	HAL_PWR_DisableBkUpAccess, %function
  75              	HAL_PWR_DisableBkUpAccess:
  76              	.LFB143:
  77              		.loc 1 250 1 is_stmt 1 view -0
  78              		.cfi_startproc
  79              		@ args = 0, pretend = 0, frame = 0
  80              		@ frame_needed = 0, uses_anonymous_args = 0
  81              		@ link register save eliminated.
  82              		.loc 1 252 3 view .LVU6
  83 0000 024A     		ldr	r2, .L7
  84 0002 1368     		ldr	r3, [r2]
  85 0004 23F48073 		bic	r3, r3, #256
  86 0008 1360     		str	r3, [r2]
  87              		.loc 1 253 1 is_stmt 0 view .LVU7
  88 000a 7047     		bx	lr
  89              	.L8:
  90              		.align	2
  91              	.L7:
  92 000c 00480258 		.word	1476544512
  93              		.cfi_endproc
  94              	.LFE143:
  95              		.size	HAL_PWR_DisableBkUpAccess, .-HAL_PWR_DisableBkUpAccess
  96              		.section	.text.HAL_PWR_ConfigPVD,"ax",%progbits
  97              		.align	1
  98              		.p2align 4,,15
  99              		.global	HAL_PWR_ConfigPVD
 100              		.syntax unified
 101              		.thumb
 102              		.thumb_func
 103              		.type	HAL_PWR_ConfigPVD, %function
 104              	HAL_PWR_ConfigPVD:
 105              	.LVL0:
 106              	.LFB144:
 107              		.loc 1 416 1 is_stmt 1 view -0
 108              		.cfi_startproc
 109              		@ args = 0, pretend = 0, frame = 0
 110              		@ frame_needed = 0, uses_anonymous_args = 0
 111              		@ link register save eliminated.
 112              		.loc 1 418 3 view .LVU9
 113              		.loc 1 418 6 is_stmt 0 view .LVU10
 114 0000 0028     		cmp	r0, #0
ARM GAS  C:\Users\DEVELO~1\AppData\Local\Temp\ccfPgKlK.s 			page 3


 115 0002 42D0     		beq	.L29
 116              		.loc 1 424 3 is_stmt 1 view .LVU11
 117              		.loc 1 425 3 view .LVU12
 118              		.loc 1 428 3 view .LVU13
 119 0004 2149     		ldr	r1, .L32
 120              		.loc 1 432 3 is_stmt 0 view .LVU14
 121 0006 4FF0B043 		mov	r3, #1476395008
 122              		.loc 1 428 3 view .LVU15
 123 000a 0A68     		ldr	r2, [r1]
 124              		.loc 1 416 1 view .LVU16
 125 000c 10B4     		push	{r4}
 126              		.cfi_def_cfa_offset 4
 127              		.cfi_offset 4, -4
 128              		.loc 1 428 3 view .LVU17
 129 000e 22F0E002 		bic	r2, r2, #224
 130 0012 0468     		ldr	r4, [r0]
 131 0014 2243     		orrs	r2, r2, r4
 132 0016 0A60     		str	r2, [r1]
 133              		.loc 1 432 3 is_stmt 1 view .LVU18
 134 0018 D3F88420 		ldr	r2, [r3, #132]
 135 001c 22F48032 		bic	r2, r2, #65536
 136 0020 C3F88420 		str	r2, [r3, #132]
 137              		.loc 1 433 3 view .LVU19
 138 0024 D3F88020 		ldr	r2, [r3, #128]
 139 0028 22F48032 		bic	r2, r2, #65536
 140 002c C3F88020 		str	r2, [r3, #128]
 141              		.loc 1 436 3 view .LVU20
 142 0030 1A68     		ldr	r2, [r3]
 143 0032 22F48032 		bic	r2, r2, #65536
 144 0036 1A60     		str	r2, [r3]
 145              		.loc 1 437 3 view .LVU21
 146 0038 5A68     		ldr	r2, [r3, #4]
 147 003a 22F48032 		bic	r2, r2, #65536
 148 003e 5A60     		str	r2, [r3, #4]
 149              		.loc 1 441 3 view .LVU22
 150              		.loc 1 441 18 is_stmt 0 view .LVU23
 151 0040 4268     		ldr	r2, [r0, #4]
 152              		.loc 1 441 6 view .LVU24
 153 0042 D403     		lsls	r4, r2, #15
 154 0044 05D5     		bpl	.L12
 155              		.loc 1 443 5 is_stmt 1 view .LVU25
 156 0046 D3F88010 		ldr	r1, [r3, #128]
 157 004a 41F48031 		orr	r1, r1, #65536
 158 004e C3F88010 		str	r1, [r3, #128]
 159              	.L12:
 160              		.loc 1 447 3 view .LVU26
 161              		.loc 1 447 6 is_stmt 0 view .LVU27
 162 0052 9003     		lsls	r0, r2, #14
 163              	.LVL1:
 164              		.loc 1 447 6 view .LVU28
 165 0054 07D5     		bpl	.L13
 166              		.loc 1 449 5 is_stmt 1 view .LVU29
 167 0056 4FF0B041 		mov	r1, #1476395008
 168 005a D1F88430 		ldr	r3, [r1, #132]
 169 005e 43F48033 		orr	r3, r3, #65536
 170 0062 C1F88430 		str	r3, [r1, #132]
 171              	.L13:
ARM GAS  C:\Users\DEVELO~1\AppData\Local\Temp\ccfPgKlK.s 			page 4


 172              		.loc 1 454 3 view .LVU30
 173              		.loc 1 454 6 is_stmt 0 view .LVU31
 174 0066 D107     		lsls	r1, r2, #31
 175 0068 05D5     		bpl	.L14
 176              		.loc 1 456 5 is_stmt 1 view .LVU32
 177 006a 4FF0B041 		mov	r1, #1476395008
 178 006e 0B68     		ldr	r3, [r1]
 179 0070 43F48033 		orr	r3, r3, #65536
 180 0074 0B60     		str	r3, [r1]
 181              	.L14:
 182              		.loc 1 460 3 view .LVU33
 183              		.loc 1 460 6 is_stmt 0 view .LVU34
 184 0076 9307     		lsls	r3, r2, #30
 185 0078 05D5     		bpl	.L9
 186              		.loc 1 462 5 is_stmt 1 view .LVU35
 187 007a 4FF0B042 		mov	r2, #1476395008
 188 007e 5368     		ldr	r3, [r2, #4]
 189 0080 43F48033 		orr	r3, r3, #65536
 190 0084 5360     		str	r3, [r2, #4]
 191              	.L9:
 192              		.loc 1 464 1 is_stmt 0 view .LVU36
 193 0086 10BC     		pop	{r4}
 194              		.cfi_restore 4
 195              		.cfi_def_cfa_offset 0
 196 0088 7047     		bx	lr
 197              	.LVL2:
 198              	.L29:
 199              		.loc 1 464 1 view .LVU37
 200 008a 7047     		bx	lr
 201              	.L33:
 202              		.align	2
 203              	.L32:
 204 008c 00480258 		.word	1476544512
 205              		.cfi_endproc
 206              	.LFE144:
 207              		.size	HAL_PWR_ConfigPVD, .-HAL_PWR_ConfigPVD
 208              		.section	.text.HAL_PWR_EnablePVD,"ax",%progbits
 209              		.align	1
 210              		.p2align 4,,15
 211              		.global	HAL_PWR_EnablePVD
 212              		.syntax unified
 213              		.thumb
 214              		.thumb_func
 215              		.type	HAL_PWR_EnablePVD, %function
 216              	HAL_PWR_EnablePVD:
 217              	.LFB145:
 218              		.loc 1 471 1 is_stmt 1 view -0
 219              		.cfi_startproc
 220              		@ args = 0, pretend = 0, frame = 0
 221              		@ frame_needed = 0, uses_anonymous_args = 0
 222              		@ link register save eliminated.
 223              		.loc 1 473 3 view .LVU39
 224 0000 024A     		ldr	r2, .L35
 225 0002 1368     		ldr	r3, [r2]
 226 0004 43F01003 		orr	r3, r3, #16
 227 0008 1360     		str	r3, [r2]
 228              		.loc 1 474 1 is_stmt 0 view .LVU40
ARM GAS  C:\Users\DEVELO~1\AppData\Local\Temp\ccfPgKlK.s 			page 5


 229 000a 7047     		bx	lr
 230              	.L36:
 231              		.align	2
 232              	.L35:
 233 000c 00480258 		.word	1476544512
 234              		.cfi_endproc
 235              	.LFE145:
 236              		.size	HAL_PWR_EnablePVD, .-HAL_PWR_EnablePVD
 237              		.section	.text.HAL_PWR_DisablePVD,"ax",%progbits
 238              		.align	1
 239              		.p2align 4,,15
 240              		.global	HAL_PWR_DisablePVD
 241              		.syntax unified
 242              		.thumb
 243              		.thumb_func
 244              		.type	HAL_PWR_DisablePVD, %function
 245              	HAL_PWR_DisablePVD:
 246              	.LFB146:
 247              		.loc 1 481 1 is_stmt 1 view -0
 248              		.cfi_startproc
 249              		@ args = 0, pretend = 0, frame = 0
 250              		@ frame_needed = 0, uses_anonymous_args = 0
 251              		@ link register save eliminated.
 252              		.loc 1 483 3 view .LVU42
 253 0000 024A     		ldr	r2, .L38
 254 0002 1368     		ldr	r3, [r2]
 255 0004 23F01003 		bic	r3, r3, #16
 256 0008 1360     		str	r3, [r2]
 257              		.loc 1 484 1 is_stmt 0 view .LVU43
 258 000a 7047     		bx	lr
 259              	.L39:
 260              		.align	2
 261              	.L38:
 262 000c 00480258 		.word	1476544512
 263              		.cfi_endproc
 264              	.LFE146:
 265              		.size	HAL_PWR_DisablePVD, .-HAL_PWR_DisablePVD
 266              		.section	.text.HAL_PWR_EnableWakeUpPin,"ax",%progbits
 267              		.align	1
 268              		.p2align 4,,15
 269              		.global	HAL_PWR_EnableWakeUpPin
 270              		.syntax unified
 271              		.thumb
 272              		.thumb_func
 273              		.type	HAL_PWR_EnableWakeUpPin, %function
 274              	HAL_PWR_EnableWakeUpPin:
 275              	.LVL3:
 276              	.LFB147:
 277              		.loc 1 508 1 is_stmt 1 view -0
 278              		.cfi_startproc
 279              		@ args = 0, pretend = 0, frame = 0
 280              		@ frame_needed = 0, uses_anonymous_args = 0
 281              		@ link register save eliminated.
 282              		.loc 1 510 3 view .LVU45
 283              		.loc 1 516 3 view .LVU46
 284 0000 034A     		ldr	r2, .L41
 285 0002 044B     		ldr	r3, .L41+4
ARM GAS  C:\Users\DEVELO~1\AppData\Local\Temp\ccfPgKlK.s 			page 6


 286 0004 916A     		ldr	r1, [r2, #40]
 287 0006 0B40     		ands	r3, r3, r1
 288 0008 0343     		orrs	r3, r3, r0
 289 000a 9362     		str	r3, [r2, #40]
 290              		.loc 1 517 1 is_stmt 0 view .LVU47
 291 000c 7047     		bx	lr
 292              	.L42:
 293 000e 00BF     		.align	2
 294              	.L41:
 295 0010 00480258 		.word	1476544512
 296 0014 C0C000F0 		.word	-268386112
 297              		.cfi_endproc
 298              	.LFE147:
 299              		.size	HAL_PWR_EnableWakeUpPin, .-HAL_PWR_EnableWakeUpPin
 300              		.section	.text.HAL_PWR_DisableWakeUpPin,"ax",%progbits
 301              		.align	1
 302              		.p2align 4,,15
 303              		.global	HAL_PWR_DisableWakeUpPin
 304              		.syntax unified
 305              		.thumb
 306              		.thumb_func
 307              		.type	HAL_PWR_DisableWakeUpPin, %function
 308              	HAL_PWR_DisableWakeUpPin:
 309              	.LVL4:
 310              	.LFB148:
 311              		.loc 1 537 1 is_stmt 1 view -0
 312              		.cfi_startproc
 313              		@ args = 0, pretend = 0, frame = 0
 314              		@ frame_needed = 0, uses_anonymous_args = 0
 315              		@ link register save eliminated.
 316              		.loc 1 539 3 view .LVU49
 317              		.loc 1 542 3 view .LVU50
 318 0000 034A     		ldr	r2, .L44
 319 0002 00F03F00 		and	r0, r0, #63
 320              	.LVL5:
 321              		.loc 1 542 3 is_stmt 0 view .LVU51
 322 0006 936A     		ldr	r3, [r2, #40]
 323 0008 23EA0003 		bic	r3, r3, r0
 324 000c 9362     		str	r3, [r2, #40]
 325              		.loc 1 543 1 view .LVU52
 326 000e 7047     		bx	lr
 327              	.L45:
 328              		.align	2
 329              	.L44:
 330 0010 00480258 		.word	1476544512
 331              		.cfi_endproc
 332              	.LFE148:
 333              		.size	HAL_PWR_DisableWakeUpPin, .-HAL_PWR_DisableWakeUpPin
 334              		.section	.text.HAL_PWR_EnterSLEEPMode,"ax",%progbits
 335              		.align	1
 336              		.p2align 4,,15
 337              		.global	HAL_PWR_EnterSLEEPMode
 338              		.syntax unified
 339              		.thumb
 340              		.thumb_func
 341              		.type	HAL_PWR_EnterSLEEPMode, %function
 342              	HAL_PWR_EnterSLEEPMode:
ARM GAS  C:\Users\DEVELO~1\AppData\Local\Temp\ccfPgKlK.s 			page 7


 343              	.LVL6:
 344              	.LFB149:
 345              		.loc 1 565 1 is_stmt 1 view -0
 346              		.cfi_startproc
 347              		@ args = 0, pretend = 0, frame = 0
 348              		@ frame_needed = 0, uses_anonymous_args = 0
 349              		@ link register save eliminated.
 350              		.loc 1 567 3 view .LVU54
 351              		.loc 1 568 3 view .LVU55
 352              		.loc 1 571 3 view .LVU56
 353              		.loc 1 574 3 view .LVU57
 354 0000 054A     		ldr	r2, .L50
 355              		.loc 1 577 6 is_stmt 0 view .LVU58
 356 0002 0129     		cmp	r1, #1
 357              		.loc 1 574 3 view .LVU59
 358 0004 1369     		ldr	r3, [r2, #16]
 359 0006 23F00403 		bic	r3, r3, #4
 360 000a 1361     		str	r3, [r2, #16]
 361              		.loc 1 577 3 is_stmt 1 view .LVU60
 362              		.loc 1 577 6 is_stmt 0 view .LVU61
 363 000c 01D0     		beq	.L49
 364              		.loc 1 585 5 is_stmt 1 view .LVU62
 365              		.syntax unified
 366              	@ 585 "./drivers/stm32h7xx-hal-driver/Src/stm32h7xx_hal_pwr.c" 1
 367 000e 20BF     		wfe
 368              	@ 0 "" 2
 369              		.loc 1 587 1 is_stmt 0 view .LVU63
 370              		.thumb
 371              		.syntax unified
 372 0010 7047     		bx	lr
 373              	.L49:
 374              		.loc 1 580 5 is_stmt 1 view .LVU64
 375              		.syntax unified
 376              	@ 580 "./drivers/stm32h7xx-hal-driver/Src/stm32h7xx_hal_pwr.c" 1
 377 0012 30BF     		wfi
 378              	@ 0 "" 2
 379              		.thumb
 380              		.syntax unified
 381 0014 7047     		bx	lr
 382              	.L51:
 383 0016 00BF     		.align	2
 384              	.L50:
 385 0018 00ED00E0 		.word	-536810240
 386              		.cfi_endproc
 387              	.LFE149:
 388              		.size	HAL_PWR_EnterSLEEPMode, .-HAL_PWR_EnterSLEEPMode
 389              		.section	.text.HAL_PWR_EnterSTOPMode,"ax",%progbits
 390              		.align	1
 391              		.p2align 4,,15
 392              		.global	HAL_PWR_EnterSTOPMode
 393              		.syntax unified
 394              		.thumb
 395              		.thumb_func
 396              		.type	HAL_PWR_EnterSTOPMode, %function
 397              	HAL_PWR_EnterSTOPMode:
 398              	.LVL7:
 399              	.LFB150:
ARM GAS  C:\Users\DEVELO~1\AppData\Local\Temp\ccfPgKlK.s 			page 8


 400              		.loc 1 619 1 view -0
 401              		.cfi_startproc
 402              		@ args = 0, pretend = 0, frame = 0
 403              		@ frame_needed = 0, uses_anonymous_args = 0
 404              		@ link register save eliminated.
 405              		.loc 1 621 3 view .LVU66
 406              		.loc 1 622 3 view .LVU67
 407              		.loc 1 625 3 view .LVU68
 408 0000 114B     		ldr	r3, .L57
 409 0002 1A68     		ldr	r2, [r3]
 410 0004 22F00102 		bic	r2, r2, #1
 411 0008 0243     		orrs	r2, r2, r0
 412              		.loc 1 619 1 is_stmt 0 view .LVU69
 413 000a 10B4     		push	{r4}
 414              		.cfi_def_cfa_offset 4
 415              		.cfi_offset 4, -4
 416              		.loc 1 625 3 view .LVU70
 417 000c 1A60     		str	r2, [r3]
 418              		.loc 1 642 3 is_stmt 1 view .LVU71
 419 000e 1A69     		ldr	r2, [r3, #16]
 420              		.loc 1 651 3 is_stmt 0 view .LVU72
 421 0010 0E4C     		ldr	r4, .L57+4
 422              		.loc 1 642 3 view .LVU73
 423 0012 22F00502 		bic	r2, r2, #5
 424 0016 1A61     		str	r2, [r3, #16]
 425              		.loc 1 646 3 is_stmt 1 view .LVU74
 426 0018 1A69     		ldr	r2, [r3, #16]
 427 001a 22F00202 		bic	r2, r2, #2
 428 001e 1A61     		str	r2, [r3, #16]
 429              		.loc 1 651 3 view .LVU75
 430 0020 2369     		ldr	r3, [r4, #16]
 431 0022 43F00403 		orr	r3, r3, #4
 432 0026 2361     		str	r3, [r4, #16]
 433              		.loc 1 654 3 view .LVU76
 434              	.LBB10:
 435              	.LBI10:
 436              		.file 2 "../../../os/common/ext/ARM/CMSIS/Core/Include/cmsis_gcc.h"
 437              		.loc 2 877 27 view .LVU77
 438              	.LBB11:
 439              		.loc 2 879 3 view .LVU78
 440              		.syntax unified
 441              	@ 879 "../../../os/common/ext/ARM/CMSIS/Core/Include/cmsis_gcc.h" 1
 442 0028 BFF34F8F 		dsb 0xF
 443              	@ 0 "" 2
 444              		.thumb
 445              		.syntax unified
 446              	.LBE11:
 447              	.LBE10:
 448              		.loc 1 655 3 view .LVU79
 449              	.LBB12:
 450              	.LBI12:
 451              		.loc 2 866 27 view .LVU80
 452              	.LBB13:
 453              		.loc 2 868 3 view .LVU81
 454              		.syntax unified
 455              	@ 868 "../../../os/common/ext/ARM/CMSIS/Core/Include/cmsis_gcc.h" 1
 456 002c BFF36F8F 		isb 0xF
ARM GAS  C:\Users\DEVELO~1\AppData\Local\Temp\ccfPgKlK.s 			page 9


 457              	@ 0 "" 2
 458              		.thumb
 459              		.syntax unified
 460              	.LBE13:
 461              	.LBE12:
 462              		.loc 1 658 3 view .LVU82
 463              		.loc 1 658 6 is_stmt 0 view .LVU83
 464 0030 0129     		cmp	r1, #1
 465 0032 07D0     		beq	.L56
 466              		.loc 1 666 5 is_stmt 1 view .LVU84
 467              		.syntax unified
 468              	@ 666 "./drivers/stm32h7xx-hal-driver/Src/stm32h7xx_hal_pwr.c" 1
 469 0034 20BF     		wfe
 470              	@ 0 "" 2
 471              		.thumb
 472              		.syntax unified
 473              	.L54:
 474              		.loc 1 670 3 view .LVU85
 475 0036 054A     		ldr	r2, .L57+4
 476              		.loc 1 671 1 is_stmt 0 view .LVU86
 477 0038 10BC     		pop	{r4}
 478              		.cfi_remember_state
 479              		.cfi_restore 4
 480              		.cfi_def_cfa_offset 0
 481              		.loc 1 670 3 view .LVU87
 482 003a 1369     		ldr	r3, [r2, #16]
 483 003c 23F00403 		bic	r3, r3, #4
 484 0040 1361     		str	r3, [r2, #16]
 485              		.loc 1 671 1 view .LVU88
 486 0042 7047     		bx	lr
 487              	.L56:
 488              		.cfi_restore_state
 489              		.loc 1 661 5 is_stmt 1 view .LVU89
 490              		.syntax unified
 491              	@ 661 "./drivers/stm32h7xx-hal-driver/Src/stm32h7xx_hal_pwr.c" 1
 492 0044 30BF     		wfi
 493              	@ 0 "" 2
 494              		.thumb
 495              		.syntax unified
 496 0046 F6E7     		b	.L54
 497              	.L58:
 498              		.align	2
 499              	.L57:
 500 0048 00480258 		.word	1476544512
 501 004c 00ED00E0 		.word	-536810240
 502              		.cfi_endproc
 503              	.LFE150:
 504              		.size	HAL_PWR_EnterSTOPMode, .-HAL_PWR_EnterSTOPMode
 505              		.section	.text.HAL_PWR_EnterSTANDBYMode,"ax",%progbits
 506              		.align	1
 507              		.p2align 4,,15
 508              		.global	HAL_PWR_EnterSTANDBYMode
 509              		.syntax unified
 510              		.thumb
 511              		.thumb_func
 512              		.type	HAL_PWR_EnterSTANDBYMode, %function
 513              	HAL_PWR_EnterSTANDBYMode:
ARM GAS  C:\Users\DEVELO~1\AppData\Local\Temp\ccfPgKlK.s 			page 10


 514              	.LFB151:
 515              		.loc 1 690 1 view -0
 516              		.cfi_startproc
 517              		@ args = 0, pretend = 0, frame = 0
 518              		@ frame_needed = 0, uses_anonymous_args = 0
 519              		@ link register save eliminated.
 520              		.loc 1 708 3 view .LVU91
 521 0000 094B     		ldr	r3, .L60
 522              		.loc 1 717 3 is_stmt 0 view .LVU92
 523 0002 0A49     		ldr	r1, .L60+4
 524              		.loc 1 708 3 view .LVU93
 525 0004 1A69     		ldr	r2, [r3, #16]
 526 0006 42F00502 		orr	r2, r2, #5
 527 000a 1A61     		str	r2, [r3, #16]
 528              		.loc 1 712 3 is_stmt 1 view .LVU94
 529 000c 1A69     		ldr	r2, [r3, #16]
 530 000e 42F00202 		orr	r2, r2, #2
 531 0012 1A61     		str	r2, [r3, #16]
 532              		.loc 1 717 3 view .LVU95
 533 0014 0B69     		ldr	r3, [r1, #16]
 534 0016 43F00403 		orr	r3, r3, #4
 535 001a 0B61     		str	r3, [r1, #16]
 536              		.loc 1 720 3 view .LVU96
 537              	.LBB14:
 538              	.LBI14:
 539              		.loc 2 877 27 view .LVU97
 540              	.LBB15:
 541              		.loc 2 879 3 view .LVU98
 542              		.syntax unified
 543              	@ 879 "../../../os/common/ext/ARM/CMSIS/Core/Include/cmsis_gcc.h" 1
 544 001c BFF34F8F 		dsb 0xF
 545              	@ 0 "" 2
 546              		.thumb
 547              		.syntax unified
 548              	.LBE15:
 549              	.LBE14:
 550              		.loc 1 721 3 view .LVU99
 551              	.LBB16:
 552              	.LBI16:
 553              		.loc 2 866 27 view .LVU100
 554              	.LBB17:
 555              		.loc 2 868 3 view .LVU101
 556              		.syntax unified
 557              	@ 868 "../../../os/common/ext/ARM/CMSIS/Core/Include/cmsis_gcc.h" 1
 558 0020 BFF36F8F 		isb 0xF
 559              	@ 0 "" 2
 560              		.thumb
 561              		.syntax unified
 562              	.LBE17:
 563              	.LBE16:
 564              		.loc 1 729 3 view .LVU102
 565              		.syntax unified
 566              	@ 729 "./drivers/stm32h7xx-hal-driver/Src/stm32h7xx_hal_pwr.c" 1
 567 0024 30BF     		wfi
 568              	@ 0 "" 2
 569              		.loc 1 730 1 is_stmt 0 view .LVU103
 570              		.thumb
ARM GAS  C:\Users\DEVELO~1\AppData\Local\Temp\ccfPgKlK.s 			page 11


 571              		.syntax unified
 572 0026 7047     		bx	lr
 573              	.L61:
 574              		.align	2
 575              	.L60:
 576 0028 00480258 		.word	1476544512
 577 002c 00ED00E0 		.word	-536810240
 578              		.cfi_endproc
 579              	.LFE151:
 580              		.size	HAL_PWR_EnterSTANDBYMode, .-HAL_PWR_EnterSTANDBYMode
 581              		.section	.text.HAL_PWR_EnableSleepOnExit,"ax",%progbits
 582              		.align	1
 583              		.p2align 4,,15
 584              		.global	HAL_PWR_EnableSleepOnExit
 585              		.syntax unified
 586              		.thumb
 587              		.thumb_func
 588              		.type	HAL_PWR_EnableSleepOnExit, %function
 589              	HAL_PWR_EnableSleepOnExit:
 590              	.LFB152:
 591              		.loc 1 742 1 is_stmt 1 view -0
 592              		.cfi_startproc
 593              		@ args = 0, pretend = 0, frame = 0
 594              		@ frame_needed = 0, uses_anonymous_args = 0
 595              		@ link register save eliminated.
 596              		.loc 1 744 3 view .LVU105
 597 0000 024A     		ldr	r2, .L63
 598 0002 1369     		ldr	r3, [r2, #16]
 599 0004 43F00203 		orr	r3, r3, #2
 600 0008 1361     		str	r3, [r2, #16]
 601              		.loc 1 745 1 is_stmt 0 view .LVU106
 602 000a 7047     		bx	lr
 603              	.L64:
 604              		.align	2
 605              	.L63:
 606 000c 00ED00E0 		.word	-536810240
 607              		.cfi_endproc
 608              	.LFE152:
 609              		.size	HAL_PWR_EnableSleepOnExit, .-HAL_PWR_EnableSleepOnExit
 610              		.section	.text.HAL_PWR_DisableSleepOnExit,"ax",%progbits
 611              		.align	1
 612              		.p2align 4,,15
 613              		.global	HAL_PWR_DisableSleepOnExit
 614              		.syntax unified
 615              		.thumb
 616              		.thumb_func
 617              		.type	HAL_PWR_DisableSleepOnExit, %function
 618              	HAL_PWR_DisableSleepOnExit:
 619              	.LFB153:
 620              		.loc 1 755 1 is_stmt 1 view -0
 621              		.cfi_startproc
 622              		@ args = 0, pretend = 0, frame = 0
 623              		@ frame_needed = 0, uses_anonymous_args = 0
 624              		@ link register save eliminated.
 625              		.loc 1 757 3 view .LVU108
 626 0000 024A     		ldr	r2, .L66
 627 0002 1369     		ldr	r3, [r2, #16]
ARM GAS  C:\Users\DEVELO~1\AppData\Local\Temp\ccfPgKlK.s 			page 12


 628 0004 23F00203 		bic	r3, r3, #2
 629 0008 1361     		str	r3, [r2, #16]
 630              		.loc 1 758 1 is_stmt 0 view .LVU109
 631 000a 7047     		bx	lr
 632              	.L67:
 633              		.align	2
 634              	.L66:
 635 000c 00ED00E0 		.word	-536810240
 636              		.cfi_endproc
 637              	.LFE153:
 638              		.size	HAL_PWR_DisableSleepOnExit, .-HAL_PWR_DisableSleepOnExit
 639              		.section	.text.HAL_PWR_EnableSEVOnPend,"ax",%progbits
 640              		.align	1
 641              		.p2align 4,,15
 642              		.global	HAL_PWR_EnableSEVOnPend
 643              		.syntax unified
 644              		.thumb
 645              		.thumb_func
 646              		.type	HAL_PWR_EnableSEVOnPend, %function
 647              	HAL_PWR_EnableSEVOnPend:
 648              	.LFB154:
 649              		.loc 1 768 1 is_stmt 1 view -0
 650              		.cfi_startproc
 651              		@ args = 0, pretend = 0, frame = 0
 652              		@ frame_needed = 0, uses_anonymous_args = 0
 653              		@ link register save eliminated.
 654              		.loc 1 770 3 view .LVU111
 655 0000 024A     		ldr	r2, .L69
 656 0002 1369     		ldr	r3, [r2, #16]
 657 0004 43F01003 		orr	r3, r3, #16
 658 0008 1361     		str	r3, [r2, #16]
 659              		.loc 1 771 1 is_stmt 0 view .LVU112
 660 000a 7047     		bx	lr
 661              	.L70:
 662              		.align	2
 663              	.L69:
 664 000c 00ED00E0 		.word	-536810240
 665              		.cfi_endproc
 666              	.LFE154:
 667              		.size	HAL_PWR_EnableSEVOnPend, .-HAL_PWR_EnableSEVOnPend
 668              		.section	.text.HAL_PWR_DisableSEVOnPend,"ax",%progbits
 669              		.align	1
 670              		.p2align 4,,15
 671              		.global	HAL_PWR_DisableSEVOnPend
 672              		.syntax unified
 673              		.thumb
 674              		.thumb_func
 675              		.type	HAL_PWR_DisableSEVOnPend, %function
 676              	HAL_PWR_DisableSEVOnPend:
 677              	.LFB155:
 678              		.loc 1 780 1 is_stmt 1 view -0
 679              		.cfi_startproc
 680              		@ args = 0, pretend = 0, frame = 0
 681              		@ frame_needed = 0, uses_anonymous_args = 0
 682              		@ link register save eliminated.
 683              		.loc 1 782 3 view .LVU114
 684 0000 024A     		ldr	r2, .L72
ARM GAS  C:\Users\DEVELO~1\AppData\Local\Temp\ccfPgKlK.s 			page 13


 685 0002 1369     		ldr	r3, [r2, #16]
 686 0004 23F01003 		bic	r3, r3, #16
 687 0008 1361     		str	r3, [r2, #16]
 688              		.loc 1 783 1 is_stmt 0 view .LVU115
 689 000a 7047     		bx	lr
 690              	.L73:
 691              		.align	2
 692              	.L72:
 693 000c 00ED00E0 		.word	-536810240
 694              		.cfi_endproc
 695              	.LFE155:
 696              		.size	HAL_PWR_DisableSEVOnPend, .-HAL_PWR_DisableSEVOnPend
 697              		.section	.text.HAL_PWR_PVDCallback,"ax",%progbits
 698              		.align	1
 699              		.p2align 4,,15
 700              		.weak	HAL_PWR_PVDCallback
 701              		.syntax unified
 702              		.thumb
 703              		.thumb_func
 704              		.type	HAL_PWR_PVDCallback, %function
 705              	HAL_PWR_PVDCallback:
 706              	.LFB157:
 707              		.loc 1 854 1 is_stmt 1 view -0
 708              		.cfi_startproc
 709              		@ args = 0, pretend = 0, frame = 0
 710              		@ frame_needed = 0, uses_anonymous_args = 0
 711              		@ link register save eliminated.
 712              		.loc 1 858 1 view .LVU117
 713 0000 7047     		bx	lr
 714              		.cfi_endproc
 715              	.LFE157:
 716              		.size	HAL_PWR_PVDCallback, .-HAL_PWR_PVDCallback
 717 0002 00BF     		.section	.text.HAL_PWR_PVD_IRQHandler,"ax",%progbits
 718              		.align	1
 719              		.p2align 4,,15
 720              		.global	HAL_PWR_PVD_IRQHandler
 721              		.syntax unified
 722              		.thumb
 723              		.thumb_func
 724              		.type	HAL_PWR_PVD_IRQHandler, %function
 725              	HAL_PWR_PVD_IRQHandler:
 726              	.LFB156:
 727              		.loc 1 809 1 view -0
 728              		.cfi_startproc
 729              		@ args = 0, pretend = 0, frame = 0
 730              		@ frame_needed = 0, uses_anonymous_args = 0
 731              		.loc 1 838 3 view .LVU119
 732              		.loc 1 809 1 is_stmt 0 view .LVU120
 733 0000 08B5     		push	{r3, lr}
 734              		.cfi_def_cfa_offset 8
 735              		.cfi_offset 3, -8
 736              		.cfi_offset 14, -4
 737              		.loc 1 838 7 view .LVU121
 738 0002 4FF0B043 		mov	r3, #1476395008
 739 0006 D3F88820 		ldr	r2, [r3, #136]
 740              		.loc 1 838 6 view .LVU122
 741 000a D203     		lsls	r2, r2, #15
ARM GAS  C:\Users\DEVELO~1\AppData\Local\Temp\ccfPgKlK.s 			page 14


 742 000c 00D4     		bmi	.L81
 743              		.loc 1 847 1 view .LVU123
 744 000e 08BD     		pop	{r3, pc}
 745              	.L81:
 746              		.loc 1 841 5 is_stmt 1 view .LVU124
 747 0010 D3F88820 		ldr	r2, [r3, #136]
 748 0014 42F48032 		orr	r2, r2, #65536
 749 0018 C3F88820 		str	r2, [r3, #136]
 750              		.loc 1 844 5 view .LVU125
 751 001c FFF7FEFF 		bl	HAL_PWR_PVDCallback
 752              	.LVL8:
 753              		.loc 1 847 1 is_stmt 0 view .LVU126
 754 0020 08BD     		pop	{r3, pc}
 755              		.cfi_endproc
 756              	.LFE156:
 757              		.size	HAL_PWR_PVD_IRQHandler, .-HAL_PWR_PVD_IRQHandler
 758 0022 00BF     		.text
 759              	.Letext0:
 760              		.file 3 "c:\\chibistudio\\tools\\gnu tools arm embedded\\11.3 2022.08\\arm-none-eabi\\include\\mac
 761              		.file 4 "c:\\chibistudio\\tools\\gnu tools arm embedded\\11.3 2022.08\\arm-none-eabi\\include\\sys
 762              		.file 5 "../../../os/common/ext/ARM/CMSIS/Core/Include/core_cm7.h"
 763              		.file 6 "../../../os/common/ext/ST/STM32H7xx/stm32h743xx.h"
 764              		.file 7 "./drivers/stm32h7xx-hal-driver/Inc/stm32h7xx_hal_pwr.h"
 765              		.section	.debug_info,"",%progbits
 766              	.Ldebug_info0:
 767 0000 1E090000 		.4byte	0x91e
 768 0004 0500     		.2byte	0x5
 769 0006 01       		.byte	0x1
 770 0007 04       		.byte	0x4
 771 0008 00000000 		.4byte	.Ldebug_abbrev0
 772 000c 14       		.uleb128 0x14
 773 000d 82040000 		.4byte	.LASF127
 774 0011 1D       		.byte	0x1d
 775 0012 2F020000 		.4byte	.LASF128
 776 0016 1E010000 		.4byte	.LASF129
 777 001a 0C000000 		.4byte	.LLRL2
 778 001e 00000000 		.4byte	0
 779 0022 00000000 		.4byte	.Ldebug_line0
 780 0026 03       		.uleb128 0x3
 781 0027 02       		.byte	0x2
 782 0028 05       		.byte	0x5
 783 0029 BD030000 		.4byte	.LASF0
 784 002d 03       		.uleb128 0x3
 785 002e 01       		.byte	0x1
 786 002f 06       		.byte	0x6
 787 0030 95000000 		.4byte	.LASF1
 788 0034 0A       		.uleb128 0xa
 789 0035 1C000000 		.4byte	.LASF5
 790 0039 03       		.byte	0x3
 791 003a 2B       		.byte	0x2b
 792 003b 18       		.byte	0x18
 793 003c 40000000 		.4byte	0x40
 794 0040 03       		.uleb128 0x3
 795 0041 01       		.byte	0x1
 796 0042 08       		.byte	0x8
 797 0043 89030000 		.4byte	.LASF2
 798 0047 03       		.uleb128 0x3
ARM GAS  C:\Users\DEVELO~1\AppData\Local\Temp\ccfPgKlK.s 			page 15


 799 0048 02       		.byte	0x2
 800 0049 07       		.byte	0x7
 801 004a 0D020000 		.4byte	.LASF3
 802 004e 03       		.uleb128 0x3
 803 004f 04       		.byte	0x4
 804 0050 05       		.byte	0x5
 805 0051 C6000000 		.4byte	.LASF4
 806 0055 0A       		.uleb128 0xa
 807 0056 7F010000 		.4byte	.LASF6
 808 005a 03       		.byte	0x3
 809 005b 4F       		.byte	0x4f
 810 005c 19       		.byte	0x19
 811 005d 61000000 		.4byte	0x61
 812 0061 03       		.uleb128 0x3
 813 0062 04       		.byte	0x4
 814 0063 07       		.byte	0x7
 815 0064 A8000000 		.4byte	.LASF7
 816 0068 03       		.uleb128 0x3
 817 0069 08       		.byte	0x8
 818 006a 05       		.byte	0x5
 819 006b EF000000 		.4byte	.LASF8
 820 006f 03       		.uleb128 0x3
 821 0070 08       		.byte	0x8
 822 0071 07       		.byte	0x7
 823 0072 48000000 		.4byte	.LASF9
 824 0076 15       		.uleb128 0x15
 825 0077 04       		.byte	0x4
 826 0078 05       		.byte	0x5
 827 0079 696E7400 		.ascii	"int\000"
 828 007d 03       		.uleb128 0x3
 829 007e 04       		.byte	0x4
 830 007f 07       		.byte	0x7
 831 0080 CC010000 		.4byte	.LASF10
 832 0084 0A       		.uleb128 0xa
 833 0085 C6050000 		.4byte	.LASF11
 834 0089 04       		.byte	0x4
 835 008a 18       		.byte	0x18
 836 008b 13       		.byte	0x13
 837 008c 34000000 		.4byte	0x34
 838 0090 09       		.uleb128 0x9
 839 0091 84000000 		.4byte	0x84
 840 0095 0A       		.uleb128 0xa
 841 0096 0A040000 		.4byte	.LASF12
 842 009a 04       		.byte	0x4
 843 009b 30       		.byte	0x30
 844 009c 14       		.byte	0x14
 845 009d 55000000 		.4byte	0x55
 846 00a1 09       		.uleb128 0x9
 847 00a2 95000000 		.4byte	0x95
 848 00a6 0B       		.uleb128 0xb
 849 00a7 A1000000 		.4byte	0xa1
 850 00ab 16       		.uleb128 0x16
 851 00ac AC02     		.2byte	0x2ac
 852 00ae 05       		.byte	0x5
 853 00af C701     		.2byte	0x1c7
 854 00b1 09       		.byte	0x9
 855 00b2 5B030000 		.4byte	0x35b
ARM GAS  C:\Users\DEVELO~1\AppData\Local\Temp\ccfPgKlK.s 			page 16


 856 00b6 01       		.uleb128 0x1
 857 00b7 65000000 		.4byte	.LASF13
 858 00bb 05       		.byte	0x5
 859 00bc C901     		.2byte	0x1c9
 860 00be 12       		.byte	0x12
 861 00bf A6000000 		.4byte	0xa6
 862 00c3 00       		.byte	0
 863 00c4 01       		.uleb128 0x1
 864 00c5 90000000 		.4byte	.LASF14
 865 00c9 05       		.byte	0x5
 866 00ca CA01     		.2byte	0x1ca
 867 00cc 12       		.byte	0x12
 868 00cd A1000000 		.4byte	0xa1
 869 00d1 04       		.byte	0x4
 870 00d2 01       		.uleb128 0x1
 871 00d3 08020000 		.4byte	.LASF15
 872 00d7 05       		.byte	0x5
 873 00d8 CB01     		.2byte	0x1cb
 874 00da 12       		.byte	0x12
 875 00db A1000000 		.4byte	0xa1
 876 00df 08       		.byte	0x8
 877 00e0 01       		.uleb128 0x1
 878 00e1 66020000 		.4byte	.LASF16
 879 00e5 05       		.byte	0x5
 880 00e6 CC01     		.2byte	0x1cc
 881 00e8 12       		.byte	0x12
 882 00e9 A1000000 		.4byte	0xa1
 883 00ed 0C       		.byte	0xc
 884 00ee 06       		.uleb128 0x6
 885 00ef 53435200 		.ascii	"SCR\000"
 886 00f3 05       		.byte	0x5
 887 00f4 CD01     		.2byte	0x1cd
 888 00f6 12       		.byte	0x12
 889 00f7 A1000000 		.4byte	0xa1
 890 00fb 10       		.byte	0x10
 891 00fc 06       		.uleb128 0x6
 892 00fd 43435200 		.ascii	"CCR\000"
 893 0101 05       		.byte	0x5
 894 0102 CE01     		.2byte	0x1ce
 895 0104 12       		.byte	0x12
 896 0105 A1000000 		.4byte	0xa1
 897 0109 14       		.byte	0x14
 898 010a 01       		.uleb128 0x1
 899 010b 08000000 		.4byte	.LASF17
 900 010f 05       		.byte	0x5
 901 0110 CF01     		.2byte	0x1cf
 902 0112 12       		.byte	0x12
 903 0113 6B030000 		.4byte	0x36b
 904 0117 18       		.byte	0x18
 905 0118 01       		.uleb128 0x1
 906 0119 97030000 		.4byte	.LASF18
 907 011d 05       		.byte	0x5
 908 011e D001     		.2byte	0x1d0
 909 0120 12       		.byte	0x12
 910 0121 A1000000 		.4byte	0xa1
 911 0125 24       		.byte	0x24
 912 0126 01       		.uleb128 0x1
ARM GAS  C:\Users\DEVELO~1\AppData\Local\Temp\ccfPgKlK.s 			page 17


 913 0127 D8020000 		.4byte	.LASF19
 914 012b 05       		.byte	0x5
 915 012c D101     		.2byte	0x1d1
 916 012e 12       		.byte	0x12
 917 012f A1000000 		.4byte	0xa1
 918 0133 28       		.byte	0x28
 919 0134 01       		.uleb128 0x1
 920 0135 20060000 		.4byte	.LASF20
 921 0139 05       		.byte	0x5
 922 013a D201     		.2byte	0x1d2
 923 013c 12       		.byte	0x12
 924 013d A1000000 		.4byte	0xa1
 925 0141 2C       		.byte	0x2c
 926 0142 01       		.uleb128 0x1
 927 0143 6C020000 		.4byte	.LASF21
 928 0147 05       		.byte	0x5
 929 0148 D301     		.2byte	0x1d3
 930 014a 12       		.byte	0x12
 931 014b A1000000 		.4byte	0xa1
 932 014f 30       		.byte	0x30
 933 0150 01       		.uleb128 0x1
 934 0151 78020000 		.4byte	.LASF22
 935 0155 05       		.byte	0x5
 936 0156 D401     		.2byte	0x1d4
 937 0158 12       		.byte	0x12
 938 0159 A1000000 		.4byte	0xa1
 939 015d 34       		.byte	0x34
 940 015e 01       		.uleb128 0x1
 941 015f 75010000 		.4byte	.LASF23
 942 0163 05       		.byte	0x5
 943 0164 D501     		.2byte	0x1d5
 944 0166 12       		.byte	0x12
 945 0167 A1000000 		.4byte	0xa1
 946 016b 38       		.byte	0x38
 947 016c 01       		.uleb128 0x1
 948 016d 7A010000 		.4byte	.LASF24
 949 0171 05       		.byte	0x5
 950 0172 D601     		.2byte	0x1d6
 951 0174 12       		.byte	0x12
 952 0175 A1000000 		.4byte	0xa1
 953 0179 3C       		.byte	0x3c
 954 017a 01       		.uleb128 0x1
 955 017b 89000000 		.4byte	.LASF25
 956 017f 05       		.byte	0x5
 957 0180 D701     		.2byte	0x1d7
 958 0182 12       		.byte	0x12
 959 0183 85030000 		.4byte	0x385
 960 0187 40       		.byte	0x40
 961 0188 01       		.uleb128 0x1
 962 0189 B1010000 		.4byte	.LASF26
 963 018d 05       		.byte	0x5
 964 018e D801     		.2byte	0x1d8
 965 0190 12       		.byte	0x12
 966 0191 A6000000 		.4byte	0xa6
 967 0195 48       		.byte	0x48
 968 0196 01       		.uleb128 0x1
 969 0197 DD020000 		.4byte	.LASF27
ARM GAS  C:\Users\DEVELO~1\AppData\Local\Temp\ccfPgKlK.s 			page 18


 970 019b 05       		.byte	0x5
 971 019c D901     		.2byte	0x1d9
 972 019e 12       		.byte	0x12
 973 019f A6000000 		.4byte	0xa6
 974 01a3 4C       		.byte	0x4c
 975 01a4 01       		.uleb128 0x1
 976 01a5 C7030000 		.4byte	.LASF28
 977 01a9 05       		.byte	0x5
 978 01aa DA01     		.2byte	0x1da
 979 01ac 12       		.byte	0x12
 980 01ad 9F030000 		.4byte	0x39f
 981 01b1 50       		.byte	0x50
 982 01b2 01       		.uleb128 0x1
 983 01b3 D8050000 		.4byte	.LASF29
 984 01b7 05       		.byte	0x5
 985 01b8 DB01     		.2byte	0x1db
 986 01ba 12       		.byte	0x12
 987 01bb B9030000 		.4byte	0x3b9
 988 01bf 60       		.byte	0x60
 989 01c0 01       		.uleb128 0x1
 990 01c1 22030000 		.4byte	.LASF30
 991 01c5 05       		.byte	0x5
 992 01c6 DC01     		.2byte	0x1dc
 993 01c8 12       		.byte	0x12
 994 01c9 BE030000 		.4byte	0x3be
 995 01cd 74       		.byte	0x74
 996 01ce 01       		.uleb128 0x1
 997 01cf 5F000000 		.4byte	.LASF31
 998 01d3 05       		.byte	0x5
 999 01d4 DD01     		.2byte	0x1dd
 1000 01d6 12       		.byte	0x12
 1001 01d7 A6000000 		.4byte	0xa6
 1002 01db 78       		.byte	0x78
 1003 01dc 06       		.uleb128 0x6
 1004 01dd 43545200 		.ascii	"CTR\000"
 1005 01e1 05       		.byte	0x5
 1006 01e2 DE01     		.2byte	0x1de
 1007 01e4 12       		.byte	0x12
 1008 01e5 A6000000 		.4byte	0xa6
 1009 01e9 7C       		.byte	0x7c
 1010 01ea 01       		.uleb128 0x1
 1011 01eb BF020000 		.4byte	.LASF32
 1012 01ef 05       		.byte	0x5
 1013 01f0 DF01     		.2byte	0x1df
 1014 01f2 12       		.byte	0x12
 1015 01f3 A6000000 		.4byte	0xa6
 1016 01f7 80       		.byte	0x80
 1017 01f8 01       		.uleb128 0x1
 1018 01f9 C5010000 		.4byte	.LASF33
 1019 01fd 05       		.byte	0x5
 1020 01fe E001     		.2byte	0x1e0
 1021 0200 12       		.byte	0x12
 1022 0201 A1000000 		.4byte	0xa1
 1023 0205 84       		.byte	0x84
 1024 0206 01       		.uleb128 0x1
 1025 0207 1A060000 		.4byte	.LASF34
 1026 020b 05       		.byte	0x5
ARM GAS  C:\Users\DEVELO~1\AppData\Local\Temp\ccfPgKlK.s 			page 19


 1027 020c E101     		.2byte	0x1e1
 1028 020e 12       		.byte	0x12
 1029 020f A1000000 		.4byte	0xa1
 1030 0213 88       		.byte	0x88
 1031 0214 01       		.uleb128 0x1
 1032 0215 DC030000 		.4byte	.LASF35
 1033 0219 05       		.byte	0x5
 1034 021a E201     		.2byte	0x1e2
 1035 021c 12       		.byte	0x12
 1036 021d CE030000 		.4byte	0x3ce
 1037 0221 8C       		.byte	0x8c
 1038 0222 02       		.uleb128 0x2
 1039 0223 26000000 		.4byte	.LASF36
 1040 0227 E301     		.2byte	0x1e3
 1041 0229 A1000000 		.4byte	0xa1
 1042 022d 0002     		.2byte	0x200
 1043 022f 02       		.uleb128 0x2
 1044 0230 78050000 		.4byte	.LASF37
 1045 0234 E401     		.2byte	0x1e4
 1046 0236 DE030000 		.4byte	0x3de
 1047 023a 0402     		.2byte	0x204
 1048 023c 02       		.uleb128 0x2
 1049 023d 10030000 		.4byte	.LASF38
 1050 0241 E501     		.2byte	0x1e5
 1051 0243 A6000000 		.4byte	0xa6
 1052 0247 4002     		.2byte	0x240
 1053 0249 02       		.uleb128 0x2
 1054 024a 16030000 		.4byte	.LASF39
 1055 024e E601     		.2byte	0x1e6
 1056 0250 A6000000 		.4byte	0xa6
 1057 0254 4402     		.2byte	0x244
 1058 0256 02       		.uleb128 0x2
 1059 0257 1C030000 		.4byte	.LASF40
 1060 025b E701     		.2byte	0x1e7
 1061 025d A6000000 		.4byte	0xa6
 1062 0261 4802     		.2byte	0x248
 1063 0263 02       		.uleb128 0x2
 1064 0264 00040000 		.4byte	.LASF41
 1065 0268 E801     		.2byte	0x1e8
 1066 026a BE030000 		.4byte	0x3be
 1067 026e 4C02     		.2byte	0x24c
 1068 0270 02       		.uleb128 0x2
 1069 0271 6D010000 		.4byte	.LASF42
 1070 0275 E901     		.2byte	0x1e9
 1071 0277 A1000000 		.4byte	0xa1
 1072 027b 5002     		.2byte	0x250
 1073 027d 02       		.uleb128 0x2
 1074 027e 52030000 		.4byte	.LASF43
 1075 0282 EA01     		.2byte	0x1ea
 1076 0284 BE030000 		.4byte	0x3be
 1077 0288 5402     		.2byte	0x254
 1078 028a 02       		.uleb128 0x2
 1079 028b CE030000 		.4byte	.LASF44
 1080 028f EB01     		.2byte	0x1eb
 1081 0291 A1000000 		.4byte	0xa1
 1082 0295 5802     		.2byte	0x258
 1083 0297 02       		.uleb128 0x2
ARM GAS  C:\Users\DEVELO~1\AppData\Local\Temp\ccfPgKlK.s 			page 20


 1084 0298 4A050000 		.4byte	.LASF45
 1085 029c EC01     		.2byte	0x1ec
 1086 029e A1000000 		.4byte	0xa1
 1087 02a2 5C02     		.2byte	0x25c
 1088 02a4 02       		.uleb128 0x2
 1089 02a5 D6030000 		.4byte	.LASF46
 1090 02a9 ED01     		.2byte	0x1ed
 1091 02ab A1000000 		.4byte	0xa1
 1092 02af 6002     		.2byte	0x260
 1093 02b1 02       		.uleb128 0x2
 1094 02b2 E1010000 		.4byte	.LASF47
 1095 02b6 EE01     		.2byte	0x1ee
 1096 02b8 A1000000 		.4byte	0xa1
 1097 02bc 6402     		.2byte	0x264
 1098 02be 02       		.uleb128 0x2
 1099 02bf B8010000 		.4byte	.LASF48
 1100 02c3 EF01     		.2byte	0x1ef
 1101 02c5 A1000000 		.4byte	0xa1
 1102 02c9 6802     		.2byte	0x268
 1103 02cb 02       		.uleb128 0x2
 1104 02cc 7C040000 		.4byte	.LASF49
 1105 02d0 F001     		.2byte	0x1f0
 1106 02d2 A1000000 		.4byte	0xa1
 1107 02d6 6C02     		.2byte	0x26c
 1108 02d8 02       		.uleb128 0x2
 1109 02d9 9D030000 		.4byte	.LASF50
 1110 02dd F101     		.2byte	0x1f1
 1111 02df A1000000 		.4byte	0xa1
 1112 02e3 7002     		.2byte	0x270
 1113 02e5 02       		.uleb128 0x2
 1114 02e6 E9010000 		.4byte	.LASF51
 1115 02ea F201     		.2byte	0x1f2
 1116 02ec A1000000 		.4byte	0xa1
 1117 02f0 7402     		.2byte	0x274
 1118 02f2 02       		.uleb128 0x2
 1119 02f3 5C030000 		.4byte	.LASF52
 1120 02f7 F301     		.2byte	0x1f3
 1121 02f9 EE030000 		.4byte	0x3ee
 1122 02fd 7802     		.2byte	0x278
 1123 02ff 02       		.uleb128 0x2
 1124 0300 71020000 		.4byte	.LASF53
 1125 0304 F401     		.2byte	0x1f4
 1126 0306 A1000000 		.4byte	0xa1
 1127 030a 9002     		.2byte	0x290
 1128 030c 02       		.uleb128 0x2
 1129 030d CF000000 		.4byte	.LASF54
 1130 0311 F501     		.2byte	0x1f5
 1131 0313 A1000000 		.4byte	0xa1
 1132 0317 9402     		.2byte	0x294
 1133 0319 02       		.uleb128 0x2
 1134 031a F1020000 		.4byte	.LASF55
 1135 031e F601     		.2byte	0x1f6
 1136 0320 A1000000 		.4byte	0xa1
 1137 0324 9802     		.2byte	0x298
 1138 0326 02       		.uleb128 0x2
 1139 0327 C0010000 		.4byte	.LASF56
 1140 032b F701     		.2byte	0x1f7
ARM GAS  C:\Users\DEVELO~1\AppData\Local\Temp\ccfPgKlK.s 			page 21


 1141 032d A1000000 		.4byte	0xa1
 1142 0331 9C02     		.2byte	0x29c
 1143 0333 02       		.uleb128 0x2
 1144 0334 15000000 		.4byte	.LASF57
 1145 0338 F801     		.2byte	0x1f8
 1146 033a A1000000 		.4byte	0xa1
 1147 033e A002     		.2byte	0x2a0
 1148 0340 02       		.uleb128 0x2
 1149 0341 66030000 		.4byte	.LASF58
 1150 0345 F901     		.2byte	0x1f9
 1151 0347 BE030000 		.4byte	0x3be
 1152 034b A402     		.2byte	0x2a4
 1153 034d 02       		.uleb128 0x2
 1154 034e 89020000 		.4byte	.LASF59
 1155 0352 FA01     		.2byte	0x1fa
 1156 0354 A1000000 		.4byte	0xa1
 1157 0358 A802     		.2byte	0x2a8
 1158 035a 00       		.byte	0
 1159 035b 04       		.uleb128 0x4
 1160 035c 90000000 		.4byte	0x90
 1161 0360 6B030000 		.4byte	0x36b
 1162 0364 05       		.uleb128 0x5
 1163 0365 7D000000 		.4byte	0x7d
 1164 0369 0B       		.byte	0xb
 1165 036a 00       		.byte	0
 1166 036b 09       		.uleb128 0x9
 1167 036c 5B030000 		.4byte	0x35b
 1168 0370 04       		.uleb128 0x4
 1169 0371 A6000000 		.4byte	0xa6
 1170 0375 80030000 		.4byte	0x380
 1171 0379 05       		.uleb128 0x5
 1172 037a 7D000000 		.4byte	0x7d
 1173 037e 01       		.byte	0x1
 1174 037f 00       		.byte	0
 1175 0380 0B       		.uleb128 0xb
 1176 0381 70030000 		.4byte	0x370
 1177 0385 09       		.uleb128 0x9
 1178 0386 80030000 		.4byte	0x380
 1179 038a 04       		.uleb128 0x4
 1180 038b A6000000 		.4byte	0xa6
 1181 038f 9A030000 		.4byte	0x39a
 1182 0393 05       		.uleb128 0x5
 1183 0394 7D000000 		.4byte	0x7d
 1184 0398 03       		.byte	0x3
 1185 0399 00       		.byte	0
 1186 039a 0B       		.uleb128 0xb
 1187 039b 8A030000 		.4byte	0x38a
 1188 039f 09       		.uleb128 0x9
 1189 03a0 9A030000 		.4byte	0x39a
 1190 03a4 04       		.uleb128 0x4
 1191 03a5 A6000000 		.4byte	0xa6
 1192 03a9 B4030000 		.4byte	0x3b4
 1193 03ad 05       		.uleb128 0x5
 1194 03ae 7D000000 		.4byte	0x7d
 1195 03b2 04       		.byte	0x4
 1196 03b3 00       		.byte	0
 1197 03b4 0B       		.uleb128 0xb
ARM GAS  C:\Users\DEVELO~1\AppData\Local\Temp\ccfPgKlK.s 			page 22


 1198 03b5 A4030000 		.4byte	0x3a4
 1199 03b9 09       		.uleb128 0x9
 1200 03ba B4030000 		.4byte	0x3b4
 1201 03be 04       		.uleb128 0x4
 1202 03bf 95000000 		.4byte	0x95
 1203 03c3 CE030000 		.4byte	0x3ce
 1204 03c7 05       		.uleb128 0x5
 1205 03c8 7D000000 		.4byte	0x7d
 1206 03cc 00       		.byte	0
 1207 03cd 00       		.byte	0
 1208 03ce 04       		.uleb128 0x4
 1209 03cf 95000000 		.4byte	0x95
 1210 03d3 DE030000 		.4byte	0x3de
 1211 03d7 05       		.uleb128 0x5
 1212 03d8 7D000000 		.4byte	0x7d
 1213 03dc 5C       		.byte	0x5c
 1214 03dd 00       		.byte	0
 1215 03de 04       		.uleb128 0x4
 1216 03df 95000000 		.4byte	0x95
 1217 03e3 EE030000 		.4byte	0x3ee
 1218 03e7 05       		.uleb128 0x5
 1219 03e8 7D000000 		.4byte	0x7d
 1220 03ec 0E       		.byte	0xe
 1221 03ed 00       		.byte	0
 1222 03ee 04       		.uleb128 0x4
 1223 03ef 95000000 		.4byte	0x95
 1224 03f3 FE030000 		.4byte	0x3fe
 1225 03f7 05       		.uleb128 0x5
 1226 03f8 7D000000 		.4byte	0x7d
 1227 03fc 05       		.byte	0x5
 1228 03fd 00       		.byte	0
 1229 03fe 0E       		.uleb128 0xe
 1230 03ff A8010000 		.4byte	.LASF60
 1231 0403 05       		.byte	0x5
 1232 0404 FB01     		.2byte	0x1fb
 1233 0406 03       		.byte	0x3
 1234 0407 AB000000 		.4byte	0xab
 1235 040b 04       		.uleb128 0x4
 1236 040c 95000000 		.4byte	0x95
 1237 0410 1B040000 		.4byte	0x41b
 1238 0414 05       		.uleb128 0x5
 1239 0415 7D000000 		.4byte	0x7d
 1240 0419 01       		.byte	0x1
 1241 041a 00       		.byte	0
 1242 041b 04       		.uleb128 0x4
 1243 041c 95000000 		.4byte	0x95
 1244 0420 2B040000 		.4byte	0x42b
 1245 0424 05       		.uleb128 0x5
 1246 0425 7D000000 		.4byte	0x7d
 1247 0429 09       		.byte	0x9
 1248 042a 00       		.byte	0
 1249 042b 10       		.uleb128 0x10
 1250 042c AC       		.byte	0xac
 1251 042d 5203     		.2byte	0x352
 1252 042f F4050000 		.4byte	0x5f4
 1253 0433 01       		.uleb128 0x1
 1254 0434 40030000 		.4byte	.LASF61
ARM GAS  C:\Users\DEVELO~1\AppData\Local\Temp\ccfPgKlK.s 			page 23


 1255 0438 06       		.byte	0x6
 1256 0439 5403     		.2byte	0x354
 1257 043b 0F       		.byte	0xf
 1258 043c A1000000 		.4byte	0xa1
 1259 0440 00       		.byte	0
 1260 0441 01       		.uleb128 0x1
 1261 0442 2B000000 		.4byte	.LASF62
 1262 0446 06       		.byte	0x6
 1263 0447 5503     		.2byte	0x355
 1264 0449 0F       		.byte	0xf
 1265 044a A1000000 		.4byte	0xa1
 1266 044e 04       		.byte	0x4
 1267 044f 01       		.uleb128 0x1
 1268 0450 74000000 		.4byte	.LASF63
 1269 0454 06       		.byte	0x6
 1270 0455 5603     		.2byte	0x356
 1271 0457 0F       		.byte	0xf
 1272 0458 A1000000 		.4byte	0xa1
 1273 045c 08       		.byte	0x8
 1274 045d 01       		.uleb128 0x1
 1275 045e F8050000 		.4byte	.LASF64
 1276 0462 06       		.byte	0x6
 1277 0463 5703     		.2byte	0x357
 1278 0465 0F       		.byte	0xf
 1279 0466 A1000000 		.4byte	0xa1
 1280 046a 0C       		.byte	0xc
 1281 046b 01       		.uleb128 0x1
 1282 046c 32040000 		.4byte	.LASF65
 1283 0470 06       		.byte	0x6
 1284 0471 5803     		.2byte	0x358
 1285 0473 0F       		.byte	0xf
 1286 0474 A1000000 		.4byte	0xa1
 1287 0478 10       		.byte	0x10
 1288 0479 01       		.uleb128 0x1
 1289 047a 2A060000 		.4byte	.LASF66
 1290 047e 06       		.byte	0x6
 1291 047f 5903     		.2byte	0x359
 1292 0481 0F       		.byte	0xf
 1293 0482 A1000000 		.4byte	0xa1
 1294 0486 14       		.byte	0x14
 1295 0487 01       		.uleb128 0x1
 1296 0488 2C030000 		.4byte	.LASF67
 1297 048c 06       		.byte	0x6
 1298 048d 5A03     		.2byte	0x35a
 1299 048f 0F       		.byte	0xf
 1300 0490 0B040000 		.4byte	0x40b
 1301 0494 18       		.byte	0x18
 1302 0495 01       		.uleb128 0x1
 1303 0496 46030000 		.4byte	.LASF68
 1304 049a 06       		.byte	0x6
 1305 049b 5B03     		.2byte	0x35b
 1306 049d 0F       		.byte	0xf
 1307 049e A1000000 		.4byte	0xa1
 1308 04a2 20       		.byte	0x20
 1309 04a3 01       		.uleb128 0x1
 1310 04a4 31000000 		.4byte	.LASF69
 1311 04a8 06       		.byte	0x6
ARM GAS  C:\Users\DEVELO~1\AppData\Local\Temp\ccfPgKlK.s 			page 24


 1312 04a9 5C03     		.2byte	0x35c
 1313 04ab 0F       		.byte	0xf
 1314 04ac A1000000 		.4byte	0xa1
 1315 04b0 24       		.byte	0x24
 1316 04b1 01       		.uleb128 0x1
 1317 04b2 7B000000 		.4byte	.LASF70
 1318 04b6 06       		.byte	0x6
 1319 04b7 5D03     		.2byte	0x35d
 1320 04b9 0F       		.byte	0xf
 1321 04ba A1000000 		.4byte	0xa1
 1322 04be 28       		.byte	0x28
 1323 04bf 01       		.uleb128 0x1
 1324 04c0 FF050000 		.4byte	.LASF71
 1325 04c4 06       		.byte	0x6
 1326 04c5 5E03     		.2byte	0x35e
 1327 04c7 0F       		.byte	0xf
 1328 04c8 A1000000 		.4byte	0xa1
 1329 04cc 2C       		.byte	0x2c
 1330 04cd 01       		.uleb128 0x1
 1331 04ce BE050000 		.4byte	.LASF72
 1332 04d2 06       		.byte	0x6
 1333 04d3 5F03     		.2byte	0x35f
 1334 04d5 0F       		.byte	0xf
 1335 04d6 A1000000 		.4byte	0xa1
 1336 04da 30       		.byte	0x30
 1337 04db 01       		.uleb128 0x1
 1338 04dc B6050000 		.4byte	.LASF73
 1339 04e0 06       		.byte	0x6
 1340 04e1 6003     		.2byte	0x360
 1341 04e3 0F       		.byte	0xf
 1342 04e4 A1000000 		.4byte	0xa1
 1343 04e8 34       		.byte	0x34
 1344 04e9 01       		.uleb128 0x1
 1345 04ea 36030000 		.4byte	.LASF74
 1346 04ee 06       		.byte	0x6
 1347 04ef 6103     		.2byte	0x361
 1348 04f1 0F       		.byte	0xf
 1349 04f2 0B040000 		.4byte	0x40b
 1350 04f6 38       		.byte	0x38
 1351 04f7 01       		.uleb128 0x1
 1352 04f8 4C030000 		.4byte	.LASF75
 1353 04fc 06       		.byte	0x6
 1354 04fd 6203     		.2byte	0x362
 1355 04ff 0F       		.byte	0xf
 1356 0500 A1000000 		.4byte	0xa1
 1357 0504 40       		.byte	0x40
 1358 0505 01       		.uleb128 0x1
 1359 0506 37000000 		.4byte	.LASF76
 1360 050a 06       		.byte	0x6
 1361 050b 6303     		.2byte	0x363
 1362 050d 0F       		.byte	0xf
 1363 050e A1000000 		.4byte	0xa1
 1364 0512 44       		.byte	0x44
 1365 0513 01       		.uleb128 0x1
 1366 0514 82000000 		.4byte	.LASF77
 1367 0518 06       		.byte	0x6
 1368 0519 6403     		.2byte	0x364
ARM GAS  C:\Users\DEVELO~1\AppData\Local\Temp\ccfPgKlK.s 			page 25


 1369 051b 0F       		.byte	0xf
 1370 051c A1000000 		.4byte	0xa1
 1371 0520 48       		.byte	0x48
 1372 0521 01       		.uleb128 0x1
 1373 0522 06060000 		.4byte	.LASF78
 1374 0526 06       		.byte	0x6
 1375 0527 6503     		.2byte	0x365
 1376 0529 0F       		.byte	0xf
 1377 052a A1000000 		.4byte	0xa1
 1378 052e 4C       		.byte	0x4c
 1379 052f 01       		.uleb128 0x1
 1380 0530 0D000000 		.4byte	.LASF79
 1381 0534 06       		.byte	0x6
 1382 0535 6603     		.2byte	0x366
 1383 0537 0F       		.byte	0xf
 1384 0538 A1000000 		.4byte	0xa1
 1385 053c 50       		.byte	0x50
 1386 053d 01       		.uleb128 0x1
 1387 053e 00000000 		.4byte	.LASF80
 1388 0542 06       		.byte	0x6
 1389 0543 6703     		.2byte	0x367
 1390 0545 0F       		.byte	0xf
 1391 0546 A1000000 		.4byte	0xa1
 1392 054a 54       		.byte	0x54
 1393 054b 01       		.uleb128 0x1
 1394 054c DC030000 		.4byte	.LASF35
 1395 0550 06       		.byte	0x6
 1396 0551 6803     		.2byte	0x368
 1397 0553 0F       		.byte	0xf
 1398 0554 1B040000 		.4byte	0x41b
 1399 0558 58       		.byte	0x58
 1400 0559 01       		.uleb128 0x1
 1401 055a 20020000 		.4byte	.LASF81
 1402 055e 06       		.byte	0x6
 1403 055f 6903     		.2byte	0x369
 1404 0561 0F       		.byte	0xf
 1405 0562 A1000000 		.4byte	0xa1
 1406 0566 80       		.byte	0x80
 1407 0567 01       		.uleb128 0x1
 1408 0568 82050000 		.4byte	.LASF82
 1409 056c 06       		.byte	0x6
 1410 056d 6A03     		.2byte	0x36a
 1411 056f 0F       		.byte	0xf
 1412 0570 A1000000 		.4byte	0xa1
 1413 0574 84       		.byte	0x84
 1414 0575 06       		.uleb128 0x6
 1415 0576 50523100 		.ascii	"PR1\000"
 1416 057a 06       		.byte	0x6
 1417 057b 6B03     		.2byte	0x36b
 1418 057d 0F       		.byte	0xf
 1419 057e A1000000 		.4byte	0xa1
 1420 0582 88       		.byte	0x88
 1421 0583 01       		.uleb128 0x1
 1422 0584 78050000 		.4byte	.LASF37
 1423 0588 06       		.byte	0x6
 1424 0589 6C03     		.2byte	0x36c
 1425 058b 0F       		.byte	0xf
ARM GAS  C:\Users\DEVELO~1\AppData\Local\Temp\ccfPgKlK.s 			page 26


 1426 058c 95000000 		.4byte	0x95
 1427 0590 8C       		.byte	0x8c
 1428 0591 01       		.uleb128 0x1
 1429 0592 25020000 		.4byte	.LASF83
 1430 0596 06       		.byte	0x6
 1431 0597 6D03     		.2byte	0x36d
 1432 0599 0F       		.byte	0xf
 1433 059a A1000000 		.4byte	0xa1
 1434 059e 90       		.byte	0x90
 1435 059f 01       		.uleb128 0x1
 1436 05a0 87050000 		.4byte	.LASF84
 1437 05a4 06       		.byte	0x6
 1438 05a5 6E03     		.2byte	0x36e
 1439 05a7 0F       		.byte	0xf
 1440 05a8 A1000000 		.4byte	0xa1
 1441 05ac 94       		.byte	0x94
 1442 05ad 06       		.uleb128 0x6
 1443 05ae 50523200 		.ascii	"PR2\000"
 1444 05b2 06       		.byte	0x6
 1445 05b3 6F03     		.2byte	0x36f
 1446 05b5 0F       		.byte	0xf
 1447 05b6 A1000000 		.4byte	0xa1
 1448 05ba 98       		.byte	0x98
 1449 05bb 01       		.uleb128 0x1
 1450 05bc 00040000 		.4byte	.LASF41
 1451 05c0 06       		.byte	0x6
 1452 05c1 7003     		.2byte	0x370
 1453 05c3 0F       		.byte	0xf
 1454 05c4 95000000 		.4byte	0x95
 1455 05c8 9C       		.byte	0x9c
 1456 05c9 01       		.uleb128 0x1
 1457 05ca 2A020000 		.4byte	.LASF85
 1458 05ce 06       		.byte	0x6
 1459 05cf 7103     		.2byte	0x371
 1460 05d1 0F       		.byte	0xf
 1461 05d2 A1000000 		.4byte	0xa1
 1462 05d6 A0       		.byte	0xa0
 1463 05d7 01       		.uleb128 0x1
 1464 05d8 8C050000 		.4byte	.LASF86
 1465 05dc 06       		.byte	0x6
 1466 05dd 7203     		.2byte	0x372
 1467 05df 0F       		.byte	0xf
 1468 05e0 A1000000 		.4byte	0xa1
 1469 05e4 A4       		.byte	0xa4
 1470 05e5 06       		.uleb128 0x6
 1471 05e6 50523300 		.ascii	"PR3\000"
 1472 05ea 06       		.byte	0x6
 1473 05eb 7303     		.2byte	0x373
 1474 05ed 0F       		.byte	0xf
 1475 05ee A1000000 		.4byte	0xa1
 1476 05f2 A8       		.byte	0xa8
 1477 05f3 00       		.byte	0
 1478 05f4 0E       		.uleb128 0xe
 1479 05f5 0D060000 		.4byte	.LASF87
 1480 05f9 06       		.byte	0x6
 1481 05fa 7403     		.2byte	0x374
 1482 05fc 02       		.byte	0x2
ARM GAS  C:\Users\DEVELO~1\AppData\Local\Temp\ccfPgKlK.s 			page 27


 1483 05fd 2B040000 		.4byte	0x42b
 1484 0601 10       		.uleb128 0x10
 1485 0602 2C       		.byte	0x2c
 1486 0603 BB04     		.2byte	0x4bb
 1487 0605 A4060000 		.4byte	0x6a4
 1488 0609 06       		.uleb128 0x6
 1489 060a 43523100 		.ascii	"CR1\000"
 1490 060e 06       		.byte	0x6
 1491 060f BD04     		.2byte	0x4bd
 1492 0611 11       		.byte	0x11
 1493 0612 A1000000 		.4byte	0xa1
 1494 0616 00       		.byte	0
 1495 0617 01       		.uleb128 0x1
 1496 0618 25060000 		.4byte	.LASF88
 1497 061c 06       		.byte	0x6
 1498 061d BE04     		.2byte	0x4be
 1499 061f 11       		.byte	0x11
 1500 0620 A1000000 		.4byte	0xa1
 1501 0624 04       		.byte	0x4
 1502 0625 06       		.uleb128 0x6
 1503 0626 43523200 		.ascii	"CR2\000"
 1504 062a 06       		.byte	0x6
 1505 062b BF04     		.2byte	0x4bf
 1506 062d 11       		.byte	0x11
 1507 062e A1000000 		.4byte	0xa1
 1508 0632 08       		.byte	0x8
 1509 0633 06       		.uleb128 0x6
 1510 0634 43523300 		.ascii	"CR3\000"
 1511 0638 06       		.byte	0x6
 1512 0639 C004     		.2byte	0x4c0
 1513 063b 11       		.byte	0x11
 1514 063c A1000000 		.4byte	0xa1
 1515 0640 0C       		.byte	0xc
 1516 0641 01       		.uleb128 0x1
 1517 0642 F0010000 		.4byte	.LASF89
 1518 0646 06       		.byte	0x6
 1519 0647 C104     		.2byte	0x4c1
 1520 0649 11       		.byte	0x11
 1521 064a A1000000 		.4byte	0xa1
 1522 064e 10       		.byte	0x10
 1523 064f 01       		.uleb128 0x1
 1524 0650 22030000 		.4byte	.LASF30
 1525 0654 06       		.byte	0x6
 1526 0655 C204     		.2byte	0x4c2
 1527 0657 11       		.byte	0x11
 1528 0658 95000000 		.4byte	0x95
 1529 065c 14       		.byte	0x14
 1530 065d 01       		.uleb128 0x1
 1531 065e 13040000 		.4byte	.LASF90
 1532 0662 06       		.byte	0x6
 1533 0663 C304     		.2byte	0x4c3
 1534 0665 11       		.byte	0x11
 1535 0666 A1000000 		.4byte	0xa1
 1536 066a 18       		.byte	0x18
 1537 066b 01       		.uleb128 0x1
 1538 066c 2C030000 		.4byte	.LASF67
 1539 0670 06       		.byte	0x6
ARM GAS  C:\Users\DEVELO~1\AppData\Local\Temp\ccfPgKlK.s 			page 28


 1540 0671 C404     		.2byte	0x4c4
 1541 0673 11       		.byte	0x11
 1542 0674 95000000 		.4byte	0x95
 1543 0678 1C       		.byte	0x1c
 1544 0679 01       		.uleb128 0x1
 1545 067a A1000000 		.4byte	.LASF91
 1546 067e 06       		.byte	0x6
 1547 067f C504     		.2byte	0x4c5
 1548 0681 11       		.byte	0x11
 1549 0682 A1000000 		.4byte	0xa1
 1550 0686 20       		.byte	0x20
 1551 0687 01       		.uleb128 0x1
 1552 0688 E4020000 		.4byte	.LASF92
 1553 068c 06       		.byte	0x6
 1554 068d C604     		.2byte	0x4c6
 1555 068f 11       		.byte	0x11
 1556 0690 A1000000 		.4byte	0xa1
 1557 0694 24       		.byte	0x24
 1558 0695 01       		.uleb128 0x1
 1559 0696 D9010000 		.4byte	.LASF93
 1560 069a 06       		.byte	0x6
 1561 069b C704     		.2byte	0x4c7
 1562 069d 11       		.byte	0x11
 1563 069e A1000000 		.4byte	0xa1
 1564 06a2 28       		.byte	0x28
 1565 06a3 00       		.byte	0
 1566 06a4 0E       		.uleb128 0xe
 1567 06a5 BA000000 		.4byte	.LASF94
 1568 06a9 06       		.byte	0x6
 1569 06aa C804     		.2byte	0x4c8
 1570 06ac 03       		.byte	0x3
 1571 06ad 01060000 		.4byte	0x601
 1572 06b1 03       		.uleb128 0x3
 1573 06b2 08       		.byte	0x8
 1574 06b3 04       		.byte	0x4
 1575 06b4 3A040000 		.4byte	.LASF95
 1576 06b8 03       		.uleb128 0x3
 1577 06b9 01       		.byte	0x1
 1578 06ba 08       		.byte	0x8
 1579 06bb 46040000 		.4byte	.LASF96
 1580 06bf 03       		.uleb128 0x3
 1581 06c0 04       		.byte	0x4
 1582 06c1 04       		.byte	0x4
 1583 06c2 F8020000 		.4byte	.LASF97
 1584 06c6 03       		.uleb128 0x3
 1585 06c7 08       		.byte	0x8
 1586 06c8 04       		.byte	0x4
 1587 06c9 FD000000 		.4byte	.LASF98
 1588 06cd 17       		.uleb128 0x17
 1589 06ce 08       		.byte	0x8
 1590 06cf 07       		.byte	0x7
 1591 06d0 2F       		.byte	0x2f
 1592 06d1 09       		.byte	0x9
 1593 06d2 ED060000 		.4byte	0x6ed
 1594 06d6 11       		.uleb128 0x11
 1595 06d7 6B000000 		.4byte	.LASF99
 1596 06db 31       		.byte	0x31
ARM GAS  C:\Users\DEVELO~1\AppData\Local\Temp\ccfPgKlK.s 			page 29


 1597 06dc 95000000 		.4byte	0x95
 1598 06e0 00       		.byte	0
 1599 06e1 11       		.uleb128 0x11
 1600 06e2 8A010000 		.4byte	.LASF100
 1601 06e6 36       		.byte	0x36
 1602 06e7 95000000 		.4byte	0x95
 1603 06eb 04       		.byte	0x4
 1604 06ec 00       		.byte	0
 1605 06ed 0A       		.uleb128 0xa
 1606 06ee 23040000 		.4byte	.LASF101
 1607 06f2 07       		.byte	0x7
 1608 06f3 3A       		.byte	0x3a
 1609 06f4 02       		.byte	0x2
 1610 06f5 CD060000 		.4byte	0x6cd
 1611 06f9 0B       		.uleb128 0xb
 1612 06fa ED060000 		.4byte	0x6ed
 1613 06fe 07       		.uleb128 0x7
 1614 06ff 95020000 		.4byte	.LASF102
 1615 0703 5503     		.2byte	0x355
 1616 0705 0D       		.byte	0xd
 1617 0706 00000000 		.4byte	.LFB157
 1618 070a 02000000 		.4byte	.LFE157-.LFB157
 1619 070e 01       		.uleb128 0x1
 1620 070f 9C       		.byte	0x9c
 1621 0710 08       		.uleb128 0x8
 1622 0711 52050000 		.4byte	.LASF107
 1623 0715 2803     		.2byte	0x328
 1624 0717 00000000 		.4byte	.LFB156
 1625 071b 22000000 		.4byte	.LFE156-.LFB156
 1626 071f 01       		.uleb128 0x1
 1627 0720 9C       		.byte	0x9c
 1628 0721 2F070000 		.4byte	0x72f
 1629 0725 18       		.uleb128 0x18
 1630 0726 20000000 		.4byte	.LVL8
 1631 072a FE060000 		.4byte	0x6fe
 1632 072e 00       		.byte	0
 1633 072f 07       		.uleb128 0x7
 1634 0730 70030000 		.4byte	.LASF103
 1635 0734 0B03     		.2byte	0x30b
 1636 0736 06       		.byte	0x6
 1637 0737 00000000 		.4byte	.LFB155
 1638 073b 10000000 		.4byte	.LFE155-.LFB155
 1639 073f 01       		.uleb128 0x1
 1640 0740 9C       		.byte	0x9c
 1641 0741 07       		.uleb128 0x7
 1642 0742 4B040000 		.4byte	.LASF104
 1643 0746 FF02     		.2byte	0x2ff
 1644 0748 06       		.byte	0x6
 1645 0749 00000000 		.4byte	.LFB154
 1646 074d 10000000 		.4byte	.LFE154-.LFB154
 1647 0751 01       		.uleb128 0x1
 1648 0752 9C       		.byte	0x9c
 1649 0753 07       		.uleb128 0x7
 1650 0754 91050000 		.4byte	.LASF105
 1651 0758 F202     		.2byte	0x2f2
 1652 075a 06       		.byte	0x6
 1653 075b 00000000 		.4byte	.LFB153
ARM GAS  C:\Users\DEVELO~1\AppData\Local\Temp\ccfPgKlK.s 			page 30


 1654 075f 10000000 		.4byte	.LFE153-.LFB153
 1655 0763 01       		.uleb128 0x1
 1656 0764 9C       		.byte	0x9c
 1657 0765 07       		.uleb128 0x7
 1658 0766 E6030000 		.4byte	.LASF106
 1659 076a E502     		.2byte	0x2e5
 1660 076c 06       		.byte	0x6
 1661 076d 00000000 		.4byte	.LFB152
 1662 0771 10000000 		.4byte	.LFE152-.LFB152
 1663 0775 01       		.uleb128 0x1
 1664 0776 9C       		.byte	0x9c
 1665 0777 08       		.uleb128 0x8
 1666 0778 D6000000 		.4byte	.LASF108
 1667 077c B102     		.2byte	0x2b1
 1668 077e 00000000 		.4byte	.LFB151
 1669 0782 30000000 		.4byte	.LFE151-.LFB151
 1670 0786 01       		.uleb128 0x1
 1671 0787 9C       		.byte	0x9c
 1672 0788 B5070000 		.4byte	0x7b5
 1673 078c 0D       		.uleb128 0xd
 1674 078d 13090000 		.4byte	0x913
 1675 0791 1C000000 		.4byte	.LBI14
 1676 0795 01       		.byte	.LVU97
 1677 0796 1C000000 		.4byte	.LBB14
 1678 079a 04000000 		.4byte	.LBE14-.LBB14
 1679 079e D002     		.2byte	0x2d0
 1680 07a0 0D       		.uleb128 0xd
 1681 07a1 1A090000 		.4byte	0x91a
 1682 07a5 20000000 		.4byte	.LBI16
 1683 07a9 01       		.byte	.LVU100
 1684 07aa 20000000 		.4byte	.LBB16
 1685 07ae 04000000 		.4byte	.LBE16-.LBB16
 1686 07b2 D102     		.2byte	0x2d1
 1687 07b4 00       		.byte	0
 1688 07b5 08       		.uleb128 0x8
 1689 07b6 A9020000 		.4byte	.LASF109
 1690 07ba 6A02     		.2byte	0x26a
 1691 07bc 00000000 		.4byte	.LFB150
 1692 07c0 50000000 		.4byte	.LFE150-.LFB150
 1693 07c4 01       		.uleb128 0x1
 1694 07c5 9C       		.byte	0x9c
 1695 07c6 0F080000 		.4byte	0x80f
 1696 07ca 0C       		.uleb128 0xc
 1697 07cb AC050000 		.4byte	.LASF110
 1698 07cf 6A02     		.2byte	0x26a
 1699 07d1 26       		.byte	0x26
 1700 07d2 95000000 		.4byte	0x95
 1701 07d6 01       		.uleb128 0x1
 1702 07d7 50       		.byte	0x50
 1703 07d8 0C       		.uleb128 0xc
 1704 07d9 CE050000 		.4byte	.LASF111
 1705 07dd 6A02     		.2byte	0x26a
 1706 07df 39       		.byte	0x39
 1707 07e0 84000000 		.4byte	0x84
 1708 07e4 01       		.uleb128 0x1
 1709 07e5 51       		.byte	0x51
 1710 07e6 0D       		.uleb128 0xd
ARM GAS  C:\Users\DEVELO~1\AppData\Local\Temp\ccfPgKlK.s 			page 31


 1711 07e7 13090000 		.4byte	0x913
 1712 07eb 28000000 		.4byte	.LBI10
 1713 07ef 01       		.byte	.LVU77
 1714 07f0 28000000 		.4byte	.LBB10
 1715 07f4 04000000 		.4byte	.LBE10-.LBB10
 1716 07f8 8E02     		.2byte	0x28e
 1717 07fa 0D       		.uleb128 0xd
 1718 07fb 1A090000 		.4byte	0x91a
 1719 07ff 2C000000 		.4byte	.LBI12
 1720 0803 01       		.byte	.LVU80
 1721 0804 2C000000 		.4byte	.LBB12
 1722 0808 04000000 		.4byte	.LBE12-.LBB12
 1723 080c 8F02     		.2byte	0x28f
 1724 080e 00       		.byte	0
 1725 080f 08       		.uleb128 0x8
 1726 0810 A6030000 		.4byte	.LASF112
 1727 0814 3402     		.2byte	0x234
 1728 0816 00000000 		.4byte	.LFB149
 1729 081a 1C000000 		.4byte	.LFE149-.LFB149
 1730 081e 01       		.uleb128 0x1
 1731 081f 9C       		.byte	0x9c
 1732 0820 41080000 		.4byte	0x841
 1733 0824 0C       		.uleb128 0xc
 1734 0825 AC050000 		.4byte	.LASF110
 1735 0829 3402     		.2byte	0x234
 1736 082b 27       		.byte	0x27
 1737 082c 95000000 		.4byte	0x95
 1738 0830 01       		.uleb128 0x1
 1739 0831 50       		.byte	0x50
 1740 0832 0C       		.uleb128 0xc
 1741 0833 7E020000 		.4byte	.LASF113
 1742 0837 3402     		.2byte	0x234
 1743 0839 3A       		.byte	0x3a
 1744 083a 84000000 		.4byte	0x84
 1745 083e 01       		.uleb128 0x1
 1746 083f 51       		.byte	0x51
 1747 0840 00       		.byte	0
 1748 0841 08       		.uleb128 0x8
 1749 0842 8F010000 		.4byte	.LASF114
 1750 0846 1802     		.2byte	0x218
 1751 0848 00000000 		.4byte	.LFB148
 1752 084c 14000000 		.4byte	.LFE148-.LFB148
 1753 0850 01       		.uleb128 0x1
 1754 0851 9C       		.byte	0x9c
 1755 0852 6B080000 		.4byte	0x86b
 1756 0856 12       		.uleb128 0x12
 1757 0857 3D000000 		.4byte	.LASF120
 1758 085b 1802     		.2byte	0x218
 1759 085d 29       		.byte	0x29
 1760 085e 95000000 		.4byte	0x95
 1761 0862 10000000 		.4byte	.LLST1
 1762 0866 0C000000 		.4byte	.LVUS1
 1763 086a 00       		.byte	0
 1764 086b 08       		.uleb128 0x8
 1765 086c E0050000 		.4byte	.LASF115
 1766 0870 FB01     		.2byte	0x1fb
 1767 0872 00000000 		.4byte	.LFB147
ARM GAS  C:\Users\DEVELO~1\AppData\Local\Temp\ccfPgKlK.s 			page 32


 1768 0876 18000000 		.4byte	.LFE147-.LFB147
 1769 087a 01       		.uleb128 0x1
 1770 087b 9C       		.byte	0x9c
 1771 087c 8F080000 		.4byte	0x88f
 1772 0880 0C       		.uleb128 0xc
 1773 0881 FE020000 		.4byte	.LASF116
 1774 0885 FB01     		.2byte	0x1fb
 1775 0887 28       		.byte	0x28
 1776 0888 95000000 		.4byte	0x95
 1777 088c 01       		.uleb128 0x1
 1778 088d 50       		.byte	0x50
 1779 088e 00       		.byte	0
 1780 088f 07       		.uleb128 0x7
 1781 0890 37050000 		.4byte	.LASF117
 1782 0894 E001     		.2byte	0x1e0
 1783 0896 06       		.byte	0x6
 1784 0897 00000000 		.4byte	.LFB146
 1785 089b 10000000 		.4byte	.LFE146-.LFB146
 1786 089f 01       		.uleb128 0x1
 1787 08a0 9C       		.byte	0x9c
 1788 08a1 07       		.uleb128 0x7
 1789 08a2 C6020000 		.4byte	.LASF118
 1790 08a6 D601     		.2byte	0x1d6
 1791 08a8 06       		.byte	0x6
 1792 08a9 00000000 		.4byte	.LFB145
 1793 08ad 10000000 		.4byte	.LFE145-.LFB145
 1794 08b1 01       		.uleb128 0x1
 1795 08b2 9C       		.byte	0x9c
 1796 08b3 08       		.uleb128 0x8
 1797 08b4 F6010000 		.4byte	.LASF119
 1798 08b8 9F01     		.2byte	0x19f
 1799 08ba 00000000 		.4byte	.LFB144
 1800 08be 90000000 		.4byte	.LFE144-.LFB144
 1801 08c2 01       		.uleb128 0x1
 1802 08c3 9C       		.byte	0x9c
 1803 08c4 DD080000 		.4byte	0x8dd
 1804 08c8 12       		.uleb128 0x12
 1805 08c9 18040000 		.4byte	.LASF121
 1806 08cd 9F01     		.2byte	0x19f
 1807 08cf 2F       		.byte	0x2f
 1808 08d0 DD080000 		.4byte	0x8dd
 1809 08d4 29000000 		.4byte	.LLST0
 1810 08d8 23000000 		.4byte	.LVUS0
 1811 08dc 00       		.byte	0
 1812 08dd 19       		.uleb128 0x19
 1813 08de 04       		.byte	0x4
 1814 08df F9060000 		.4byte	0x6f9
 1815 08e3 0F       		.uleb128 0xf
 1816 08e4 04010000 		.4byte	.LASF122
 1817 08e8 F9       		.byte	0xf9
 1818 08e9 00000000 		.4byte	.LFB143
 1819 08ed 10000000 		.4byte	.LFE143-.LFB143
 1820 08f1 01       		.uleb128 0x1
 1821 08f2 9C       		.byte	0x9c
 1822 08f3 0F       		.uleb128 0xf
 1823 08f4 63040000 		.4byte	.LASF123
 1824 08f8 EC       		.byte	0xec
ARM GAS  C:\Users\DEVELO~1\AppData\Local\Temp\ccfPgKlK.s 			page 33


 1825 08f9 00000000 		.4byte	.LFB142
 1826 08fd 10000000 		.4byte	.LFE142-.LFB142
 1827 0901 01       		.uleb128 0x1
 1828 0902 9C       		.byte	0x9c
 1829 0903 0F       		.uleb128 0xf
 1830 0904 69050000 		.4byte	.LASF124
 1831 0908 E1       		.byte	0xe1
 1832 0909 00000000 		.4byte	.LFB141
 1833 090d 02000000 		.4byte	.LFE141-.LFB141
 1834 0911 01       		.uleb128 0x1
 1835 0912 9C       		.byte	0x9c
 1836 0913 13       		.uleb128 0x13
 1837 0914 8F020000 		.4byte	.LASF125
 1838 0918 6D03     		.2byte	0x36d
 1839 091a 13       		.uleb128 0x13
 1840 091b EB020000 		.4byte	.LASF126
 1841 091f 6203     		.2byte	0x362
 1842 0921 00       		.byte	0
 1843              		.section	.debug_abbrev,"",%progbits
 1844              	.Ldebug_abbrev0:
 1845 0000 01       		.uleb128 0x1
 1846 0001 0D       		.uleb128 0xd
 1847 0002 00       		.byte	0
 1848 0003 03       		.uleb128 0x3
 1849 0004 0E       		.uleb128 0xe
 1850 0005 3A       		.uleb128 0x3a
 1851 0006 0B       		.uleb128 0xb
 1852 0007 3B       		.uleb128 0x3b
 1853 0008 05       		.uleb128 0x5
 1854 0009 39       		.uleb128 0x39
 1855 000a 0B       		.uleb128 0xb
 1856 000b 49       		.uleb128 0x49
 1857 000c 13       		.uleb128 0x13
 1858 000d 38       		.uleb128 0x38
 1859 000e 0B       		.uleb128 0xb
 1860 000f 00       		.byte	0
 1861 0010 00       		.byte	0
 1862 0011 02       		.uleb128 0x2
 1863 0012 0D       		.uleb128 0xd
 1864 0013 00       		.byte	0
 1865 0014 03       		.uleb128 0x3
 1866 0015 0E       		.uleb128 0xe
 1867 0016 3A       		.uleb128 0x3a
 1868 0017 21       		.uleb128 0x21
 1869 0018 05       		.sleb128 5
 1870 0019 3B       		.uleb128 0x3b
 1871 001a 05       		.uleb128 0x5
 1872 001b 39       		.uleb128 0x39
 1873 001c 21       		.uleb128 0x21
 1874 001d 12       		.sleb128 18
 1875 001e 49       		.uleb128 0x49
 1876 001f 13       		.uleb128 0x13
 1877 0020 38       		.uleb128 0x38
 1878 0021 05       		.uleb128 0x5
 1879 0022 00       		.byte	0
 1880 0023 00       		.byte	0
 1881 0024 03       		.uleb128 0x3
ARM GAS  C:\Users\DEVELO~1\AppData\Local\Temp\ccfPgKlK.s 			page 34


 1882 0025 24       		.uleb128 0x24
 1883 0026 00       		.byte	0
 1884 0027 0B       		.uleb128 0xb
 1885 0028 0B       		.uleb128 0xb
 1886 0029 3E       		.uleb128 0x3e
 1887 002a 0B       		.uleb128 0xb
 1888 002b 03       		.uleb128 0x3
 1889 002c 0E       		.uleb128 0xe
 1890 002d 00       		.byte	0
 1891 002e 00       		.byte	0
 1892 002f 04       		.uleb128 0x4
 1893 0030 01       		.uleb128 0x1
 1894 0031 01       		.byte	0x1
 1895 0032 49       		.uleb128 0x49
 1896 0033 13       		.uleb128 0x13
 1897 0034 01       		.uleb128 0x1
 1898 0035 13       		.uleb128 0x13
 1899 0036 00       		.byte	0
 1900 0037 00       		.byte	0
 1901 0038 05       		.uleb128 0x5
 1902 0039 21       		.uleb128 0x21
 1903 003a 00       		.byte	0
 1904 003b 49       		.uleb128 0x49
 1905 003c 13       		.uleb128 0x13
 1906 003d 2F       		.uleb128 0x2f
 1907 003e 0B       		.uleb128 0xb
 1908 003f 00       		.byte	0
 1909 0040 00       		.byte	0
 1910 0041 06       		.uleb128 0x6
 1911 0042 0D       		.uleb128 0xd
 1912 0043 00       		.byte	0
 1913 0044 03       		.uleb128 0x3
 1914 0045 08       		.uleb128 0x8
 1915 0046 3A       		.uleb128 0x3a
 1916 0047 0B       		.uleb128 0xb
 1917 0048 3B       		.uleb128 0x3b
 1918 0049 05       		.uleb128 0x5
 1919 004a 39       		.uleb128 0x39
 1920 004b 0B       		.uleb128 0xb
 1921 004c 49       		.uleb128 0x49
 1922 004d 13       		.uleb128 0x13
 1923 004e 38       		.uleb128 0x38
 1924 004f 0B       		.uleb128 0xb
 1925 0050 00       		.byte	0
 1926 0051 00       		.byte	0
 1927 0052 07       		.uleb128 0x7
 1928 0053 2E       		.uleb128 0x2e
 1929 0054 00       		.byte	0
 1930 0055 3F       		.uleb128 0x3f
 1931 0056 19       		.uleb128 0x19
 1932 0057 03       		.uleb128 0x3
 1933 0058 0E       		.uleb128 0xe
 1934 0059 3A       		.uleb128 0x3a
 1935 005a 21       		.uleb128 0x21
 1936 005b 01       		.sleb128 1
 1937 005c 3B       		.uleb128 0x3b
 1938 005d 05       		.uleb128 0x5
ARM GAS  C:\Users\DEVELO~1\AppData\Local\Temp\ccfPgKlK.s 			page 35


 1939 005e 39       		.uleb128 0x39
 1940 005f 0B       		.uleb128 0xb
 1941 0060 27       		.uleb128 0x27
 1942 0061 19       		.uleb128 0x19
 1943 0062 11       		.uleb128 0x11
 1944 0063 01       		.uleb128 0x1
 1945 0064 12       		.uleb128 0x12
 1946 0065 06       		.uleb128 0x6
 1947 0066 40       		.uleb128 0x40
 1948 0067 18       		.uleb128 0x18
 1949 0068 7A       		.uleb128 0x7a
 1950 0069 19       		.uleb128 0x19
 1951 006a 00       		.byte	0
 1952 006b 00       		.byte	0
 1953 006c 08       		.uleb128 0x8
 1954 006d 2E       		.uleb128 0x2e
 1955 006e 01       		.byte	0x1
 1956 006f 3F       		.uleb128 0x3f
 1957 0070 19       		.uleb128 0x19
 1958 0071 03       		.uleb128 0x3
 1959 0072 0E       		.uleb128 0xe
 1960 0073 3A       		.uleb128 0x3a
 1961 0074 21       		.uleb128 0x21
 1962 0075 01       		.sleb128 1
 1963 0076 3B       		.uleb128 0x3b
 1964 0077 05       		.uleb128 0x5
 1965 0078 39       		.uleb128 0x39
 1966 0079 21       		.uleb128 0x21
 1967 007a 06       		.sleb128 6
 1968 007b 27       		.uleb128 0x27
 1969 007c 19       		.uleb128 0x19
 1970 007d 11       		.uleb128 0x11
 1971 007e 01       		.uleb128 0x1
 1972 007f 12       		.uleb128 0x12
 1973 0080 06       		.uleb128 0x6
 1974 0081 40       		.uleb128 0x40
 1975 0082 18       		.uleb128 0x18
 1976 0083 7A       		.uleb128 0x7a
 1977 0084 19       		.uleb128 0x19
 1978 0085 01       		.uleb128 0x1
 1979 0086 13       		.uleb128 0x13
 1980 0087 00       		.byte	0
 1981 0088 00       		.byte	0
 1982 0089 09       		.uleb128 0x9
 1983 008a 35       		.uleb128 0x35
 1984 008b 00       		.byte	0
 1985 008c 49       		.uleb128 0x49
 1986 008d 13       		.uleb128 0x13
 1987 008e 00       		.byte	0
 1988 008f 00       		.byte	0
 1989 0090 0A       		.uleb128 0xa
 1990 0091 16       		.uleb128 0x16
 1991 0092 00       		.byte	0
 1992 0093 03       		.uleb128 0x3
 1993 0094 0E       		.uleb128 0xe
 1994 0095 3A       		.uleb128 0x3a
 1995 0096 0B       		.uleb128 0xb
ARM GAS  C:\Users\DEVELO~1\AppData\Local\Temp\ccfPgKlK.s 			page 36


 1996 0097 3B       		.uleb128 0x3b
 1997 0098 0B       		.uleb128 0xb
 1998 0099 39       		.uleb128 0x39
 1999 009a 0B       		.uleb128 0xb
 2000 009b 49       		.uleb128 0x49
 2001 009c 13       		.uleb128 0x13
 2002 009d 00       		.byte	0
 2003 009e 00       		.byte	0
 2004 009f 0B       		.uleb128 0xb
 2005 00a0 26       		.uleb128 0x26
 2006 00a1 00       		.byte	0
 2007 00a2 49       		.uleb128 0x49
 2008 00a3 13       		.uleb128 0x13
 2009 00a4 00       		.byte	0
 2010 00a5 00       		.byte	0
 2011 00a6 0C       		.uleb128 0xc
 2012 00a7 05       		.uleb128 0x5
 2013 00a8 00       		.byte	0
 2014 00a9 03       		.uleb128 0x3
 2015 00aa 0E       		.uleb128 0xe
 2016 00ab 3A       		.uleb128 0x3a
 2017 00ac 21       		.uleb128 0x21
 2018 00ad 01       		.sleb128 1
 2019 00ae 3B       		.uleb128 0x3b
 2020 00af 05       		.uleb128 0x5
 2021 00b0 39       		.uleb128 0x39
 2022 00b1 0B       		.uleb128 0xb
 2023 00b2 49       		.uleb128 0x49
 2024 00b3 13       		.uleb128 0x13
 2025 00b4 02       		.uleb128 0x2
 2026 00b5 18       		.uleb128 0x18
 2027 00b6 00       		.byte	0
 2028 00b7 00       		.byte	0
 2029 00b8 0D       		.uleb128 0xd
 2030 00b9 1D       		.uleb128 0x1d
 2031 00ba 00       		.byte	0
 2032 00bb 31       		.uleb128 0x31
 2033 00bc 13       		.uleb128 0x13
 2034 00bd 52       		.uleb128 0x52
 2035 00be 01       		.uleb128 0x1
 2036 00bf B842     		.uleb128 0x2138
 2037 00c1 0B       		.uleb128 0xb
 2038 00c2 11       		.uleb128 0x11
 2039 00c3 01       		.uleb128 0x1
 2040 00c4 12       		.uleb128 0x12
 2041 00c5 06       		.uleb128 0x6
 2042 00c6 58       		.uleb128 0x58
 2043 00c7 21       		.uleb128 0x21
 2044 00c8 01       		.sleb128 1
 2045 00c9 59       		.uleb128 0x59
 2046 00ca 05       		.uleb128 0x5
 2047 00cb 57       		.uleb128 0x57
 2048 00cc 21       		.uleb128 0x21
 2049 00cd 03       		.sleb128 3
 2050 00ce 00       		.byte	0
 2051 00cf 00       		.byte	0
 2052 00d0 0E       		.uleb128 0xe
ARM GAS  C:\Users\DEVELO~1\AppData\Local\Temp\ccfPgKlK.s 			page 37


 2053 00d1 16       		.uleb128 0x16
 2054 00d2 00       		.byte	0
 2055 00d3 03       		.uleb128 0x3
 2056 00d4 0E       		.uleb128 0xe
 2057 00d5 3A       		.uleb128 0x3a
 2058 00d6 0B       		.uleb128 0xb
 2059 00d7 3B       		.uleb128 0x3b
 2060 00d8 05       		.uleb128 0x5
 2061 00d9 39       		.uleb128 0x39
 2062 00da 0B       		.uleb128 0xb
 2063 00db 49       		.uleb128 0x49
 2064 00dc 13       		.uleb128 0x13
 2065 00dd 00       		.byte	0
 2066 00de 00       		.byte	0
 2067 00df 0F       		.uleb128 0xf
 2068 00e0 2E       		.uleb128 0x2e
 2069 00e1 00       		.byte	0
 2070 00e2 3F       		.uleb128 0x3f
 2071 00e3 19       		.uleb128 0x19
 2072 00e4 03       		.uleb128 0x3
 2073 00e5 0E       		.uleb128 0xe
 2074 00e6 3A       		.uleb128 0x3a
 2075 00e7 21       		.uleb128 0x21
 2076 00e8 01       		.sleb128 1
 2077 00e9 3B       		.uleb128 0x3b
 2078 00ea 0B       		.uleb128 0xb
 2079 00eb 39       		.uleb128 0x39
 2080 00ec 21       		.uleb128 0x21
 2081 00ed 06       		.sleb128 6
 2082 00ee 27       		.uleb128 0x27
 2083 00ef 19       		.uleb128 0x19
 2084 00f0 11       		.uleb128 0x11
 2085 00f1 01       		.uleb128 0x1
 2086 00f2 12       		.uleb128 0x12
 2087 00f3 06       		.uleb128 0x6
 2088 00f4 40       		.uleb128 0x40
 2089 00f5 18       		.uleb128 0x18
 2090 00f6 7A       		.uleb128 0x7a
 2091 00f7 19       		.uleb128 0x19
 2092 00f8 00       		.byte	0
 2093 00f9 00       		.byte	0
 2094 00fa 10       		.uleb128 0x10
 2095 00fb 13       		.uleb128 0x13
 2096 00fc 01       		.byte	0x1
 2097 00fd 0B       		.uleb128 0xb
 2098 00fe 0B       		.uleb128 0xb
 2099 00ff 3A       		.uleb128 0x3a
 2100 0100 21       		.uleb128 0x21
 2101 0101 06       		.sleb128 6
 2102 0102 3B       		.uleb128 0x3b
 2103 0103 05       		.uleb128 0x5
 2104 0104 39       		.uleb128 0x39
 2105 0105 21       		.uleb128 0x21
 2106 0106 09       		.sleb128 9
 2107 0107 01       		.uleb128 0x1
 2108 0108 13       		.uleb128 0x13
 2109 0109 00       		.byte	0
ARM GAS  C:\Users\DEVELO~1\AppData\Local\Temp\ccfPgKlK.s 			page 38


 2110 010a 00       		.byte	0
 2111 010b 11       		.uleb128 0x11
 2112 010c 0D       		.uleb128 0xd
 2113 010d 00       		.byte	0
 2114 010e 03       		.uleb128 0x3
 2115 010f 0E       		.uleb128 0xe
 2116 0110 3A       		.uleb128 0x3a
 2117 0111 21       		.uleb128 0x21
 2118 0112 07       		.sleb128 7
 2119 0113 3B       		.uleb128 0x3b
 2120 0114 0B       		.uleb128 0xb
 2121 0115 39       		.uleb128 0x39
 2122 0116 21       		.uleb128 0x21
 2123 0117 0C       		.sleb128 12
 2124 0118 49       		.uleb128 0x49
 2125 0119 13       		.uleb128 0x13
 2126 011a 38       		.uleb128 0x38
 2127 011b 0B       		.uleb128 0xb
 2128 011c 00       		.byte	0
 2129 011d 00       		.byte	0
 2130 011e 12       		.uleb128 0x12
 2131 011f 05       		.uleb128 0x5
 2132 0120 00       		.byte	0
 2133 0121 03       		.uleb128 0x3
 2134 0122 0E       		.uleb128 0xe
 2135 0123 3A       		.uleb128 0x3a
 2136 0124 21       		.uleb128 0x21
 2137 0125 01       		.sleb128 1
 2138 0126 3B       		.uleb128 0x3b
 2139 0127 05       		.uleb128 0x5
 2140 0128 39       		.uleb128 0x39
 2141 0129 0B       		.uleb128 0xb
 2142 012a 49       		.uleb128 0x49
 2143 012b 13       		.uleb128 0x13
 2144 012c 02       		.uleb128 0x2
 2145 012d 17       		.uleb128 0x17
 2146 012e B742     		.uleb128 0x2137
 2147 0130 17       		.uleb128 0x17
 2148 0131 00       		.byte	0
 2149 0132 00       		.byte	0
 2150 0133 13       		.uleb128 0x13
 2151 0134 2E       		.uleb128 0x2e
 2152 0135 00       		.byte	0
 2153 0136 03       		.uleb128 0x3
 2154 0137 0E       		.uleb128 0xe
 2155 0138 3A       		.uleb128 0x3a
 2156 0139 21       		.uleb128 0x21
 2157 013a 02       		.sleb128 2
 2158 013b 3B       		.uleb128 0x3b
 2159 013c 05       		.uleb128 0x5
 2160 013d 39       		.uleb128 0x39
 2161 013e 21       		.uleb128 0x21
 2162 013f 1B       		.sleb128 27
 2163 0140 27       		.uleb128 0x27
 2164 0141 19       		.uleb128 0x19
 2165 0142 20       		.uleb128 0x20
 2166 0143 21       		.uleb128 0x21
ARM GAS  C:\Users\DEVELO~1\AppData\Local\Temp\ccfPgKlK.s 			page 39


 2167 0144 03       		.sleb128 3
 2168 0145 00       		.byte	0
 2169 0146 00       		.byte	0
 2170 0147 14       		.uleb128 0x14
 2171 0148 11       		.uleb128 0x11
 2172 0149 01       		.byte	0x1
 2173 014a 25       		.uleb128 0x25
 2174 014b 0E       		.uleb128 0xe
 2175 014c 13       		.uleb128 0x13
 2176 014d 0B       		.uleb128 0xb
 2177 014e 03       		.uleb128 0x3
 2178 014f 0E       		.uleb128 0xe
 2179 0150 1B       		.uleb128 0x1b
 2180 0151 0E       		.uleb128 0xe
 2181 0152 55       		.uleb128 0x55
 2182 0153 17       		.uleb128 0x17
 2183 0154 11       		.uleb128 0x11
 2184 0155 01       		.uleb128 0x1
 2185 0156 10       		.uleb128 0x10
 2186 0157 17       		.uleb128 0x17
 2187 0158 00       		.byte	0
 2188 0159 00       		.byte	0
 2189 015a 15       		.uleb128 0x15
 2190 015b 24       		.uleb128 0x24
 2191 015c 00       		.byte	0
 2192 015d 0B       		.uleb128 0xb
 2193 015e 0B       		.uleb128 0xb
 2194 015f 3E       		.uleb128 0x3e
 2195 0160 0B       		.uleb128 0xb
 2196 0161 03       		.uleb128 0x3
 2197 0162 08       		.uleb128 0x8
 2198 0163 00       		.byte	0
 2199 0164 00       		.byte	0
 2200 0165 16       		.uleb128 0x16
 2201 0166 13       		.uleb128 0x13
 2202 0167 01       		.byte	0x1
 2203 0168 0B       		.uleb128 0xb
 2204 0169 05       		.uleb128 0x5
 2205 016a 3A       		.uleb128 0x3a
 2206 016b 0B       		.uleb128 0xb
 2207 016c 3B       		.uleb128 0x3b
 2208 016d 05       		.uleb128 0x5
 2209 016e 39       		.uleb128 0x39
 2210 016f 0B       		.uleb128 0xb
 2211 0170 01       		.uleb128 0x1
 2212 0171 13       		.uleb128 0x13
 2213 0172 00       		.byte	0
 2214 0173 00       		.byte	0
 2215 0174 17       		.uleb128 0x17
 2216 0175 13       		.uleb128 0x13
 2217 0176 01       		.byte	0x1
 2218 0177 0B       		.uleb128 0xb
 2219 0178 0B       		.uleb128 0xb
 2220 0179 3A       		.uleb128 0x3a
 2221 017a 0B       		.uleb128 0xb
 2222 017b 3B       		.uleb128 0x3b
 2223 017c 0B       		.uleb128 0xb
ARM GAS  C:\Users\DEVELO~1\AppData\Local\Temp\ccfPgKlK.s 			page 40


 2224 017d 39       		.uleb128 0x39
 2225 017e 0B       		.uleb128 0xb
 2226 017f 01       		.uleb128 0x1
 2227 0180 13       		.uleb128 0x13
 2228 0181 00       		.byte	0
 2229 0182 00       		.byte	0
 2230 0183 18       		.uleb128 0x18
 2231 0184 48       		.uleb128 0x48
 2232 0185 00       		.byte	0
 2233 0186 7D       		.uleb128 0x7d
 2234 0187 01       		.uleb128 0x1
 2235 0188 7F       		.uleb128 0x7f
 2236 0189 13       		.uleb128 0x13
 2237 018a 00       		.byte	0
 2238 018b 00       		.byte	0
 2239 018c 19       		.uleb128 0x19
 2240 018d 0F       		.uleb128 0xf
 2241 018e 00       		.byte	0
 2242 018f 0B       		.uleb128 0xb
 2243 0190 0B       		.uleb128 0xb
 2244 0191 49       		.uleb128 0x49
 2245 0192 13       		.uleb128 0x13
 2246 0193 00       		.byte	0
 2247 0194 00       		.byte	0
 2248 0195 00       		.byte	0
 2249              		.section	.debug_loclists,"",%progbits
 2250 0000 40000000 		.4byte	.Ldebug_loc3-.Ldebug_loc2
 2251              	.Ldebug_loc2:
 2252 0004 0500     		.2byte	0x5
 2253 0006 04       		.byte	0x4
 2254 0007 00       		.byte	0
 2255 0008 00000000 		.4byte	0
 2256              	.Ldebug_loc0:
 2257              	.LVUS1:
 2258 000c 00       		.uleb128 0
 2259 000d 00       		.uleb128 .LVU51
 2260 000e 00       		.uleb128 .LVU51
 2261 000f 00       		.uleb128 0
 2262              	.LLST1:
 2263 0010 06       		.byte	0x6
 2264 0011 00000000 		.4byte	.LVL4
 2265 0015 04       		.byte	0x4
 2266 0016 00       		.uleb128 .LVL4-.LVL4
 2267 0017 06       		.uleb128 .LVL5-.LVL4
 2268 0018 01       		.uleb128 0x1
 2269 0019 50       		.byte	0x50
 2270 001a 04       		.byte	0x4
 2271 001b 06       		.uleb128 .LVL5-.LVL4
 2272 001c 14       		.uleb128 .LFE148-.LVL4
 2273 001d 04       		.uleb128 0x4
 2274 001e A3       		.byte	0xa3
 2275 001f 01       		.uleb128 0x1
 2276 0020 50       		.byte	0x50
 2277 0021 9F       		.byte	0x9f
 2278 0022 00       		.byte	0
 2279              	.LVUS0:
 2280 0023 00       		.uleb128 0
ARM GAS  C:\Users\DEVELO~1\AppData\Local\Temp\ccfPgKlK.s 			page 41


 2281 0024 00       		.uleb128 .LVU28
 2282 0025 00       		.uleb128 .LVU28
 2283 0026 00       		.uleb128 .LVU37
 2284 0027 00       		.uleb128 .LVU37
 2285 0028 00       		.uleb128 0
 2286              	.LLST0:
 2287 0029 06       		.byte	0x6
 2288 002a 00000000 		.4byte	.LVL0
 2289 002e 04       		.byte	0x4
 2290 002f 00       		.uleb128 .LVL0-.LVL0
 2291 0030 54       		.uleb128 .LVL1-.LVL0
 2292 0031 01       		.uleb128 0x1
 2293 0032 50       		.byte	0x50
 2294 0033 04       		.byte	0x4
 2295 0034 54       		.uleb128 .LVL1-.LVL0
 2296 0035 8A01     		.uleb128 .LVL2-.LVL0
 2297 0037 04       		.uleb128 0x4
 2298 0038 A3       		.byte	0xa3
 2299 0039 01       		.uleb128 0x1
 2300 003a 50       		.byte	0x50
 2301 003b 9F       		.byte	0x9f
 2302 003c 04       		.byte	0x4
 2303 003d 8A01     		.uleb128 .LVL2-.LVL0
 2304 003f 9001     		.uleb128 .LFE144-.LVL0
 2305 0041 01       		.uleb128 0x1
 2306 0042 50       		.byte	0x50
 2307 0043 00       		.byte	0
 2308              	.Ldebug_loc3:
 2309              		.section	.debug_aranges,"",%progbits
 2310 0000 9C000000 		.4byte	0x9c
 2311 0004 0200     		.2byte	0x2
 2312 0006 00000000 		.4byte	.Ldebug_info0
 2313 000a 04       		.byte	0x4
 2314 000b 00       		.byte	0
 2315 000c 0000     		.2byte	0
 2316 000e 0000     		.2byte	0
 2317 0010 00000000 		.4byte	.LFB141
 2318 0014 02000000 		.4byte	.LFE141-.LFB141
 2319 0018 00000000 		.4byte	.LFB142
 2320 001c 10000000 		.4byte	.LFE142-.LFB142
 2321 0020 00000000 		.4byte	.LFB143
 2322 0024 10000000 		.4byte	.LFE143-.LFB143
 2323 0028 00000000 		.4byte	.LFB144
 2324 002c 90000000 		.4byte	.LFE144-.LFB144
 2325 0030 00000000 		.4byte	.LFB145
 2326 0034 10000000 		.4byte	.LFE145-.LFB145
 2327 0038 00000000 		.4byte	.LFB146
 2328 003c 10000000 		.4byte	.LFE146-.LFB146
 2329 0040 00000000 		.4byte	.LFB147
 2330 0044 18000000 		.4byte	.LFE147-.LFB147
 2331 0048 00000000 		.4byte	.LFB148
 2332 004c 14000000 		.4byte	.LFE148-.LFB148
 2333 0050 00000000 		.4byte	.LFB149
 2334 0054 1C000000 		.4byte	.LFE149-.LFB149
 2335 0058 00000000 		.4byte	.LFB150
 2336 005c 50000000 		.4byte	.LFE150-.LFB150
 2337 0060 00000000 		.4byte	.LFB151
ARM GAS  C:\Users\DEVELO~1\AppData\Local\Temp\ccfPgKlK.s 			page 42


 2338 0064 30000000 		.4byte	.LFE151-.LFB151
 2339 0068 00000000 		.4byte	.LFB152
 2340 006c 10000000 		.4byte	.LFE152-.LFB152
 2341 0070 00000000 		.4byte	.LFB153
 2342 0074 10000000 		.4byte	.LFE153-.LFB153
 2343 0078 00000000 		.4byte	.LFB154
 2344 007c 10000000 		.4byte	.LFE154-.LFB154
 2345 0080 00000000 		.4byte	.LFB155
 2346 0084 10000000 		.4byte	.LFE155-.LFB155
 2347 0088 00000000 		.4byte	.LFB157
 2348 008c 02000000 		.4byte	.LFE157-.LFB157
 2349 0090 00000000 		.4byte	.LFB156
 2350 0094 22000000 		.4byte	.LFE156-.LFB156
 2351 0098 00000000 		.4byte	0
 2352 009c 00000000 		.4byte	0
 2353              		.section	.debug_rnglists,"",%progbits
 2354              	.Ldebug_ranges0:
 2355 0000 70000000 		.4byte	.Ldebug_ranges3-.Ldebug_ranges2
 2356              	.Ldebug_ranges2:
 2357 0004 0500     		.2byte	0x5
 2358 0006 04       		.byte	0x4
 2359 0007 00       		.byte	0
 2360 0008 00000000 		.4byte	0
 2361              	.LLRL2:
 2362 000c 07       		.byte	0x7
 2363 000d 00000000 		.4byte	.LFB141
 2364 0011 02       		.uleb128 .LFE141-.LFB141
 2365 0012 07       		.byte	0x7
 2366 0013 00000000 		.4byte	.LFB142
 2367 0017 10       		.uleb128 .LFE142-.LFB142
 2368 0018 07       		.byte	0x7
 2369 0019 00000000 		.4byte	.LFB143
 2370 001d 10       		.uleb128 .LFE143-.LFB143
 2371 001e 07       		.byte	0x7
 2372 001f 00000000 		.4byte	.LFB144
 2373 0023 9001     		.uleb128 .LFE144-.LFB144
 2374 0025 07       		.byte	0x7
 2375 0026 00000000 		.4byte	.LFB145
 2376 002a 10       		.uleb128 .LFE145-.LFB145
 2377 002b 07       		.byte	0x7
 2378 002c 00000000 		.4byte	.LFB146
 2379 0030 10       		.uleb128 .LFE146-.LFB146
 2380 0031 07       		.byte	0x7
 2381 0032 00000000 		.4byte	.LFB147
 2382 0036 18       		.uleb128 .LFE147-.LFB147
 2383 0037 07       		.byte	0x7
 2384 0038 00000000 		.4byte	.LFB148
 2385 003c 14       		.uleb128 .LFE148-.LFB148
 2386 003d 07       		.byte	0x7
 2387 003e 00000000 		.4byte	.LFB149
 2388 0042 1C       		.uleb128 .LFE149-.LFB149
 2389 0043 07       		.byte	0x7
 2390 0044 00000000 		.4byte	.LFB150
 2391 0048 50       		.uleb128 .LFE150-.LFB150
 2392 0049 07       		.byte	0x7
 2393 004a 00000000 		.4byte	.LFB151
 2394 004e 30       		.uleb128 .LFE151-.LFB151
ARM GAS  C:\Users\DEVELO~1\AppData\Local\Temp\ccfPgKlK.s 			page 43


 2395 004f 07       		.byte	0x7
 2396 0050 00000000 		.4byte	.LFB152
 2397 0054 10       		.uleb128 .LFE152-.LFB152
 2398 0055 07       		.byte	0x7
 2399 0056 00000000 		.4byte	.LFB153
 2400 005a 10       		.uleb128 .LFE153-.LFB153
 2401 005b 07       		.byte	0x7
 2402 005c 00000000 		.4byte	.LFB154
 2403 0060 10       		.uleb128 .LFE154-.LFB154
 2404 0061 07       		.byte	0x7
 2405 0062 00000000 		.4byte	.LFB155
 2406 0066 10       		.uleb128 .LFE155-.LFB155
 2407 0067 07       		.byte	0x7
 2408 0068 00000000 		.4byte	.LFB157
 2409 006c 02       		.uleb128 .LFE157-.LFB157
 2410 006d 07       		.byte	0x7
 2411 006e 00000000 		.4byte	.LFB156
 2412 0072 22       		.uleb128 .LFE156-.LFB156
 2413 0073 00       		.byte	0
 2414              	.Ldebug_ranges3:
 2415              		.section	.debug_line,"",%progbits
 2416              	.Ldebug_line0:
 2417 0000 7B040000 		.section	.debug_str,"MS",%progbits,1
 2417      0300D201 
 2417      00000201 
 2417      FB0E0D00 
 2417      01010101 
 2418              	.LASF80:
 2419 0000 44335043 		.ascii	"D3PCR3H\000"
 2419      52334800 
 2420              	.LASF17:
 2421 0008 53485052 		.ascii	"SHPR\000"
 2421      00
 2422              	.LASF79:
 2423 000d 44335043 		.ascii	"D3PCR3L\000"
 2423      52334C00 
 2424              	.LASF57:
 2425 0015 41484253 		.ascii	"AHBSCR\000"
 2425      435200
 2426              	.LASF5:
 2427 001c 5F5F7569 		.ascii	"__uint8_t\000"
 2427      6E74385F 
 2427      7400
 2428              	.LASF36:
 2429 0026 53544952 		.ascii	"STIR\000"
 2429      00
 2430              	.LASF62:
 2431 002b 46545352 		.ascii	"FTSR1\000"
 2431      3100
 2432              	.LASF69:
 2433 0031 46545352 		.ascii	"FTSR2\000"
 2433      3200
 2434              	.LASF76:
 2435 0037 46545352 		.ascii	"FTSR3\000"
 2435      3300
 2436              	.LASF120:
 2437 003d 57616B65 		.ascii	"WakeUpPinx\000"
ARM GAS  C:\Users\DEVELO~1\AppData\Local\Temp\ccfPgKlK.s 			page 44


 2437      55705069 
 2437      6E7800
 2438              	.LASF9:
 2439 0048 6C6F6E67 		.ascii	"long long unsigned int\000"
 2439      206C6F6E 
 2439      6720756E 
 2439      7369676E 
 2439      65642069 
 2440              	.LASF31:
 2441 005f 434C4944 		.ascii	"CLIDR\000"
 2441      5200
 2442              	.LASF13:
 2443 0065 43505549 		.ascii	"CPUID\000"
 2443      4400
 2444              	.LASF99:
 2445 006b 5056444C 		.ascii	"PVDLevel\000"
 2445      6576656C 
 2445      00
 2446              	.LASF63:
 2447 0074 53574945 		.ascii	"SWIER1\000"
 2447      523100
 2448              	.LASF70:
 2449 007b 53574945 		.ascii	"SWIER2\000"
 2449      523200
 2450              	.LASF77:
 2451 0082 53574945 		.ascii	"SWIER3\000"
 2451      523300
 2452              	.LASF25:
 2453 0089 49445F50 		.ascii	"ID_PFR\000"
 2453      465200
 2454              	.LASF14:
 2455 0090 49435352 		.ascii	"ICSR\000"
 2455      00
 2456              	.LASF1:
 2457 0095 7369676E 		.ascii	"signed char\000"
 2457      65642063 
 2457      68617200 
 2458              	.LASF91:
 2459 00a1 574B5550 		.ascii	"WKUPCR\000"
 2459      435200
 2460              	.LASF7:
 2461 00a8 6C6F6E67 		.ascii	"long unsigned int\000"
 2461      20756E73 
 2461      69676E65 
 2461      6420696E 
 2461      7400
 2462              	.LASF94:
 2463 00ba 5057525F 		.ascii	"PWR_TypeDef\000"
 2463      54797065 
 2463      44656600 
 2464              	.LASF4:
 2465 00c6 6C6F6E67 		.ascii	"long int\000"
 2465      20696E74 
 2465      00
 2466              	.LASF54:
 2467 00cf 4454434D 		.ascii	"DTCMCR\000"
 2467      435200
ARM GAS  C:\Users\DEVELO~1\AppData\Local\Temp\ccfPgKlK.s 			page 45


 2468              	.LASF108:
 2469 00d6 48414C5F 		.ascii	"HAL_PWR_EnterSTANDBYMode\000"
 2469      5057525F 
 2469      456E7465 
 2469      72535441 
 2469      4E444259 
 2470              	.LASF8:
 2471 00ef 6C6F6E67 		.ascii	"long long int\000"
 2471      206C6F6E 
 2471      6720696E 
 2471      7400
 2472              	.LASF98:
 2473 00fd 646F7562 		.ascii	"double\000"
 2473      6C6500
 2474              	.LASF122:
 2475 0104 48414C5F 		.ascii	"HAL_PWR_DisableBkUpAccess\000"
 2475      5057525F 
 2475      44697361 
 2475      626C6542 
 2475      6B557041 
 2476              	.LASF129:
 2477 011e 433A5C43 		.ascii	"C:\\ChibiStudio\\chibios2111\\demos\\STM32\\RT-STM3"
 2477      68696269 
 2477      53747564 
 2477      696F5C63 
 2477      68696269 
 2478 014c 32483734 		.ascii	"2H743ZI_REV_XY-NUCLEO144 - Copie\000"
 2478      335A495F 
 2478      5245565F 
 2478      58592D4E 
 2478      55434C45 
 2479              	.LASF42:
 2480 016d 49434941 		.ascii	"ICIALLU\000"
 2480      4C4C5500 
 2481              	.LASF23:
 2482 0175 42464152 		.ascii	"BFAR\000"
 2482      00
 2483              	.LASF24:
 2484 017a 41465352 		.ascii	"AFSR\000"
 2484      00
 2485              	.LASF6:
 2486 017f 5F5F7569 		.ascii	"__uint32_t\000"
 2486      6E743332 
 2486      5F7400
 2487              	.LASF100:
 2488 018a 4D6F6465 		.ascii	"Mode\000"
 2488      00
 2489              	.LASF114:
 2490 018f 48414C5F 		.ascii	"HAL_PWR_DisableWakeUpPin\000"
 2490      5057525F 
 2490      44697361 
 2490      626C6557 
 2490      616B6555 
 2491              	.LASF60:
 2492 01a8 5343425F 		.ascii	"SCB_Type\000"
 2492      54797065 
 2492      00
ARM GAS  C:\Users\DEVELO~1\AppData\Local\Temp\ccfPgKlK.s 			page 46


 2493              	.LASF26:
 2494 01b1 49445F44 		.ascii	"ID_DFR\000"
 2494      465200
 2495              	.LASF48:
 2496 01b8 4443434D 		.ascii	"DCCMVAC\000"
 2496      56414300 
 2497              	.LASF56:
 2498 01c0 43414352 		.ascii	"CACR\000"
 2498      00
 2499              	.LASF33:
 2500 01c5 43535345 		.ascii	"CSSELR\000"
 2500      4C5200
 2501              	.LASF10:
 2502 01cc 756E7369 		.ascii	"unsigned int\000"
 2502      676E6564 
 2502      20696E74 
 2502      00
 2503              	.LASF93:
 2504 01d9 574B5550 		.ascii	"WKUPEPR\000"
 2504      45505200 
 2505              	.LASF47:
 2506 01e1 4443434D 		.ascii	"DCCMVAU\000"
 2506      56415500 
 2507              	.LASF51:
 2508 01e9 44434349 		.ascii	"DCCISW\000"
 2508      535700
 2509              	.LASF89:
 2510 01f0 43505543 		.ascii	"CPUCR\000"
 2510      5200
 2511              	.LASF119:
 2512 01f6 48414C5F 		.ascii	"HAL_PWR_ConfigPVD\000"
 2512      5057525F 
 2512      436F6E66 
 2512      69675056 
 2512      4400
 2513              	.LASF15:
 2514 0208 56544F52 		.ascii	"VTOR\000"
 2514      00
 2515              	.LASF3:
 2516 020d 73686F72 		.ascii	"short unsigned int\000"
 2516      7420756E 
 2516      7369676E 
 2516      65642069 
 2516      6E7400
 2517              	.LASF81:
 2518 0220 494D5231 		.ascii	"IMR1\000"
 2518      00
 2519              	.LASF83:
 2520 0225 494D5232 		.ascii	"IMR2\000"
 2520      00
 2521              	.LASF85:
 2522 022a 494D5233 		.ascii	"IMR3\000"
 2522      00
 2523              	.LASF128:
 2524 022f 2E2F6472 		.ascii	"./drivers/stm32h7xx-hal-driver/Src/stm32h7xx_hal_pw"
 2524      69766572 
 2524      732F7374 
ARM GAS  C:\Users\DEVELO~1\AppData\Local\Temp\ccfPgKlK.s 			page 47


 2524      6D333268 
 2524      3778782D 
 2525 0262 722E6300 		.ascii	"r.c\000"
 2526              	.LASF16:
 2527 0266 41495243 		.ascii	"AIRCR\000"
 2527      5200
 2528              	.LASF21:
 2529 026c 44465352 		.ascii	"DFSR\000"
 2529      00
 2530              	.LASF53:
 2531 0271 4954434D 		.ascii	"ITCMCR\000"
 2531      435200
 2532              	.LASF22:
 2533 0278 4D4D4641 		.ascii	"MMFAR\000"
 2533      5200
 2534              	.LASF113:
 2535 027e 534C4545 		.ascii	"SLEEPEntry\000"
 2535      50456E74 
 2535      727900
 2536              	.LASF59:
 2537 0289 41424653 		.ascii	"ABFSR\000"
 2537      5200
 2538              	.LASF125:
 2539 028f 5F5F4453 		.ascii	"__DSB\000"
 2539      4200
 2540              	.LASF102:
 2541 0295 48414C5F 		.ascii	"HAL_PWR_PVDCallback\000"
 2541      5057525F 
 2541      50564443 
 2541      616C6C62 
 2541      61636B00 
 2542              	.LASF109:
 2543 02a9 48414C5F 		.ascii	"HAL_PWR_EnterSTOPMode\000"
 2543      5057525F 
 2543      456E7465 
 2543      7253544F 
 2543      504D6F64 
 2544              	.LASF32:
 2545 02bf 43435349 		.ascii	"CCSIDR\000"
 2545      445200
 2546              	.LASF118:
 2547 02c6 48414C5F 		.ascii	"HAL_PWR_EnablePVD\000"
 2547      5057525F 
 2547      456E6162 
 2547      6C655056 
 2547      4400
 2548              	.LASF19:
 2549 02d8 43465352 		.ascii	"CFSR\000"
 2549      00
 2550              	.LASF27:
 2551 02dd 49445F41 		.ascii	"ID_AFR\000"
 2551      465200
 2552              	.LASF92:
 2553 02e4 574B5550 		.ascii	"WKUPFR\000"
 2553      465200
 2554              	.LASF126:
 2555 02eb 5F5F4953 		.ascii	"__ISB\000"
ARM GAS  C:\Users\DEVELO~1\AppData\Local\Temp\ccfPgKlK.s 			page 48


 2555      4200
 2556              	.LASF55:
 2557 02f1 41484250 		.ascii	"AHBPCR\000"
 2557      435200
 2558              	.LASF97:
 2559 02f8 666C6F61 		.ascii	"float\000"
 2559      7400
 2560              	.LASF116:
 2561 02fe 57616B65 		.ascii	"WakeUpPinPolarity\000"
 2561      55705069 
 2561      6E506F6C 
 2561      61726974 
 2561      7900
 2562              	.LASF38:
 2563 0310 4D564652 		.ascii	"MVFR0\000"
 2563      3000
 2564              	.LASF39:
 2565 0316 4D564652 		.ascii	"MVFR1\000"
 2565      3100
 2566              	.LASF40:
 2567 031c 4D564652 		.ascii	"MVFR2\000"
 2567      3200
 2568              	.LASF30:
 2569 0322 52455345 		.ascii	"RESERVED0\000"
 2569      52564544 
 2569      3000
 2570              	.LASF67:
 2571 032c 52455345 		.ascii	"RESERVED1\000"
 2571      52564544 
 2571      3100
 2572              	.LASF74:
 2573 0336 52455345 		.ascii	"RESERVED2\000"
 2573      52564544 
 2573      3200
 2574              	.LASF61:
 2575 0340 52545352 		.ascii	"RTSR1\000"
 2575      3100
 2576              	.LASF68:
 2577 0346 52545352 		.ascii	"RTSR2\000"
 2577      3200
 2578              	.LASF75:
 2579 034c 52545352 		.ascii	"RTSR3\000"
 2579      3300
 2580              	.LASF43:
 2581 0352 52455345 		.ascii	"RESERVED6\000"
 2581      52564544 
 2581      3600
 2582              	.LASF52:
 2583 035c 52455345 		.ascii	"RESERVED7\000"
 2583      52564544 
 2583      3700
 2584              	.LASF58:
 2585 0366 52455345 		.ascii	"RESERVED8\000"
 2585      52564544 
 2585      3800
 2586              	.LASF103:
 2587 0370 48414C5F 		.ascii	"HAL_PWR_DisableSEVOnPend\000"
ARM GAS  C:\Users\DEVELO~1\AppData\Local\Temp\ccfPgKlK.s 			page 49


 2587      5057525F 
 2587      44697361 
 2587      626C6553 
 2587      45564F6E 
 2588              	.LASF2:
 2589 0389 756E7369 		.ascii	"unsigned char\000"
 2589      676E6564 
 2589      20636861 
 2589      7200
 2590              	.LASF18:
 2591 0397 53484353 		.ascii	"SHCSR\000"
 2591      5200
 2592              	.LASF50:
 2593 039d 44434349 		.ascii	"DCCIMVAC\000"
 2593      4D564143 
 2593      00
 2594              	.LASF112:
 2595 03a6 48414C5F 		.ascii	"HAL_PWR_EnterSLEEPMode\000"
 2595      5057525F 
 2595      456E7465 
 2595      72534C45 
 2595      45504D6F 
 2596              	.LASF0:
 2597 03bd 73686F72 		.ascii	"short int\000"
 2597      7420696E 
 2597      7400
 2598              	.LASF28:
 2599 03c7 49445F4D 		.ascii	"ID_MFR\000"
 2599      465200
 2600              	.LASF44:
 2601 03ce 4943494D 		.ascii	"ICIMVAU\000"
 2601      56415500 
 2602              	.LASF46:
 2603 03d6 44434953 		.ascii	"DCISW\000"
 2603      5700
 2604              	.LASF35:
 2605 03dc 52455345 		.ascii	"RESERVED3\000"
 2605      52564544 
 2605      3300
 2606              	.LASF106:
 2607 03e6 48414C5F 		.ascii	"HAL_PWR_EnableSleepOnExit\000"
 2607      5057525F 
 2607      456E6162 
 2607      6C65536C 
 2607      6565704F 
 2608              	.LASF41:
 2609 0400 52455345 		.ascii	"RESERVED5\000"
 2609      52564544 
 2609      3500
 2610              	.LASF12:
 2611 040a 75696E74 		.ascii	"uint32_t\000"
 2611      33325F74 
 2611      00
 2612              	.LASF90:
 2613 0413 44334352 		.ascii	"D3CR\000"
 2613      00
 2614              	.LASF121:
ARM GAS  C:\Users\DEVELO~1\AppData\Local\Temp\ccfPgKlK.s 			page 50


 2615 0418 73436F6E 		.ascii	"sConfigPVD\000"
 2615      66696750 
 2615      564400
 2616              	.LASF101:
 2617 0423 5057525F 		.ascii	"PWR_PVDTypeDef\000"
 2617      50564454 
 2617      79706544 
 2617      656600
 2618              	.LASF65:
 2619 0432 44335043 		.ascii	"D3PCR1L\000"
 2619      52314C00 
 2620              	.LASF95:
 2621 043a 6C6F6E67 		.ascii	"long double\000"
 2621      20646F75 
 2621      626C6500 
 2622              	.LASF96:
 2623 0446 63686172 		.ascii	"char\000"
 2623      00
 2624              	.LASF104:
 2625 044b 48414C5F 		.ascii	"HAL_PWR_EnableSEVOnPend\000"
 2625      5057525F 
 2625      456E6162 
 2625      6C655345 
 2625      564F6E50 
 2626              	.LASF123:
 2627 0463 48414C5F 		.ascii	"HAL_PWR_EnableBkUpAccess\000"
 2627      5057525F 
 2627      456E6162 
 2627      6C65426B 
 2627      55704163 
 2628              	.LASF49:
 2629 047c 44434353 		.ascii	"DCCSW\000"
 2629      5700
 2630              	.LASF127:
 2631 0482 474E5520 		.ascii	"GNU C17 11.3.1 20220712 -mcpu=cortex-m7 -mthumb -mf"
 2631      43313720 
 2631      31312E33 
 2631      2E312032 
 2631      30323230 
 2632 04b5 6C6F6174 		.ascii	"loat-abi=soft -march=armv7e-m -ggdb -O2 -fomit-fram"
 2632      2D616269 
 2632      3D736F66 
 2632      74202D6D 
 2632      61726368 
 2633 04e8 652D706F 		.ascii	"e-pointer -falign-functions=16 -ffunction-sections "
 2633      696E7465 
 2633      72202D66 
 2633      616C6967 
 2633      6E2D6675 
 2634 051b 2D666461 		.ascii	"-fdata-sections -fno-common\000"
 2634      74612D73 
 2634      65637469 
 2634      6F6E7320 
 2634      2D666E6F 
 2635              	.LASF117:
 2636 0537 48414C5F 		.ascii	"HAL_PWR_DisablePVD\000"
 2636      5057525F 
ARM GAS  C:\Users\DEVELO~1\AppData\Local\Temp\ccfPgKlK.s 			page 51


 2636      44697361 
 2636      626C6550 
 2636      564400
 2637              	.LASF45:
 2638 054a 4443494D 		.ascii	"DCIMVAC\000"
 2638      56414300 
 2639              	.LASF107:
 2640 0552 48414C5F 		.ascii	"HAL_PWR_PVD_IRQHandler\000"
 2640      5057525F 
 2640      5056445F 
 2640      49525148 
 2640      616E646C 
 2641              	.LASF124:
 2642 0569 48414C5F 		.ascii	"HAL_PWR_DeInit\000"
 2642      5057525F 
 2642      4465496E 
 2642      697400
 2643              	.LASF37:
 2644 0578 52455345 		.ascii	"RESERVED4\000"
 2644      52564544 
 2644      3400
 2645              	.LASF82:
 2646 0582 454D5231 		.ascii	"EMR1\000"
 2646      00
 2647              	.LASF84:
 2648 0587 454D5232 		.ascii	"EMR2\000"
 2648      00
 2649              	.LASF86:
 2650 058c 454D5233 		.ascii	"EMR3\000"
 2650      00
 2651              	.LASF105:
 2652 0591 48414C5F 		.ascii	"HAL_PWR_DisableSleepOnExit\000"
 2652      5057525F 
 2652      44697361 
 2652      626C6553 
 2652      6C656570 
 2653              	.LASF110:
 2654 05ac 52656775 		.ascii	"Regulator\000"
 2654      6C61746F 
 2654      7200
 2655              	.LASF73:
 2656 05b6 44335043 		.ascii	"D3PCR2H\000"
 2656      52324800 
 2657              	.LASF72:
 2658 05be 44335043 		.ascii	"D3PCR2L\000"
 2658      52324C00 
 2659              	.LASF11:
 2660 05c6 75696E74 		.ascii	"uint8_t\000"
 2660      385F7400 
 2661              	.LASF111:
 2662 05ce 53544F50 		.ascii	"STOPEntry\000"
 2662      456E7472 
 2662      7900
 2663              	.LASF29:
 2664 05d8 49445F49 		.ascii	"ID_ISAR\000"
 2664      53415200 
 2665              	.LASF115:
ARM GAS  C:\Users\DEVELO~1\AppData\Local\Temp\ccfPgKlK.s 			page 52


 2666 05e0 48414C5F 		.ascii	"HAL_PWR_EnableWakeUpPin\000"
 2666      5057525F 
 2666      456E6162 
 2666      6C655761 
 2666      6B655570 
 2667              	.LASF64:
 2668 05f8 4433504D 		.ascii	"D3PMR1\000"
 2668      523100
 2669              	.LASF71:
 2670 05ff 4433504D 		.ascii	"D3PMR2\000"
 2670      523200
 2671              	.LASF78:
 2672 0606 4433504D 		.ascii	"D3PMR3\000"
 2672      523300
 2673              	.LASF87:
 2674 060d 45585449 		.ascii	"EXTI_TypeDef\000"
 2674      5F547970 
 2674      65446566 
 2674      00
 2675              	.LASF34:
 2676 061a 43504143 		.ascii	"CPACR\000"
 2676      5200
 2677              	.LASF20:
 2678 0620 48465352 		.ascii	"HFSR\000"
 2678      00
 2679              	.LASF88:
 2680 0625 43535231 		.ascii	"CSR1\000"
 2680      00
 2681              	.LASF66:
 2682 062a 44335043 		.ascii	"D3PCR1H\000"
 2682      52314800 
 2683              		.ident	"GCC: (Arm GNU Toolchain 11.3.Rel1) 11.3.1 20220712"
ARM GAS  C:\Users\DEVELO~1\AppData\Local\Temp\ccfPgKlK.s 			page 53


DEFINED SYMBOLS
                            *ABS*:00000000 stm32h7xx_hal_pwr.c
C:\Users\DEVELO~1\AppData\Local\Temp\ccfPgKlK.s:18     .text.HAL_PWR_DeInit:00000000 $t
C:\Users\DEVELO~1\AppData\Local\Temp\ccfPgKlK.s:25     .text.HAL_PWR_DeInit:00000000 HAL_PWR_DeInit
C:\Users\DEVELO~1\AppData\Local\Temp\ccfPgKlK.s:39     .text.HAL_PWR_EnableBkUpAccess:00000000 $t
C:\Users\DEVELO~1\AppData\Local\Temp\ccfPgKlK.s:46     .text.HAL_PWR_EnableBkUpAccess:00000000 HAL_PWR_EnableBkUpAccess
C:\Users\DEVELO~1\AppData\Local\Temp\ccfPgKlK.s:63     .text.HAL_PWR_EnableBkUpAccess:0000000c $d
C:\Users\DEVELO~1\AppData\Local\Temp\ccfPgKlK.s:68     .text.HAL_PWR_DisableBkUpAccess:00000000 $t
C:\Users\DEVELO~1\AppData\Local\Temp\ccfPgKlK.s:75     .text.HAL_PWR_DisableBkUpAccess:00000000 HAL_PWR_DisableBkUpAccess
C:\Users\DEVELO~1\AppData\Local\Temp\ccfPgKlK.s:92     .text.HAL_PWR_DisableBkUpAccess:0000000c $d
C:\Users\DEVELO~1\AppData\Local\Temp\ccfPgKlK.s:97     .text.HAL_PWR_ConfigPVD:00000000 $t
C:\Users\DEVELO~1\AppData\Local\Temp\ccfPgKlK.s:104    .text.HAL_PWR_ConfigPVD:00000000 HAL_PWR_ConfigPVD
C:\Users\DEVELO~1\AppData\Local\Temp\ccfPgKlK.s:204    .text.HAL_PWR_ConfigPVD:0000008c $d
C:\Users\DEVELO~1\AppData\Local\Temp\ccfPgKlK.s:209    .text.HAL_PWR_EnablePVD:00000000 $t
C:\Users\DEVELO~1\AppData\Local\Temp\ccfPgKlK.s:216    .text.HAL_PWR_EnablePVD:00000000 HAL_PWR_EnablePVD
C:\Users\DEVELO~1\AppData\Local\Temp\ccfPgKlK.s:233    .text.HAL_PWR_EnablePVD:0000000c $d
C:\Users\DEVELO~1\AppData\Local\Temp\ccfPgKlK.s:238    .text.HAL_PWR_DisablePVD:00000000 $t
C:\Users\DEVELO~1\AppData\Local\Temp\ccfPgKlK.s:245    .text.HAL_PWR_DisablePVD:00000000 HAL_PWR_DisablePVD
C:\Users\DEVELO~1\AppData\Local\Temp\ccfPgKlK.s:262    .text.HAL_PWR_DisablePVD:0000000c $d
C:\Users\DEVELO~1\AppData\Local\Temp\ccfPgKlK.s:267    .text.HAL_PWR_EnableWakeUpPin:00000000 $t
C:\Users\DEVELO~1\AppData\Local\Temp\ccfPgKlK.s:274    .text.HAL_PWR_EnableWakeUpPin:00000000 HAL_PWR_EnableWakeUpPin
C:\Users\DEVELO~1\AppData\Local\Temp\ccfPgKlK.s:295    .text.HAL_PWR_EnableWakeUpPin:00000010 $d
C:\Users\DEVELO~1\AppData\Local\Temp\ccfPgKlK.s:301    .text.HAL_PWR_DisableWakeUpPin:00000000 $t
C:\Users\DEVELO~1\AppData\Local\Temp\ccfPgKlK.s:308    .text.HAL_PWR_DisableWakeUpPin:00000000 HAL_PWR_DisableWakeUpPin
C:\Users\DEVELO~1\AppData\Local\Temp\ccfPgKlK.s:330    .text.HAL_PWR_DisableWakeUpPin:00000010 $d
C:\Users\DEVELO~1\AppData\Local\Temp\ccfPgKlK.s:335    .text.HAL_PWR_EnterSLEEPMode:00000000 $t
C:\Users\DEVELO~1\AppData\Local\Temp\ccfPgKlK.s:342    .text.HAL_PWR_EnterSLEEPMode:00000000 HAL_PWR_EnterSLEEPMode
C:\Users\DEVELO~1\AppData\Local\Temp\ccfPgKlK.s:385    .text.HAL_PWR_EnterSLEEPMode:00000018 $d
C:\Users\DEVELO~1\AppData\Local\Temp\ccfPgKlK.s:390    .text.HAL_PWR_EnterSTOPMode:00000000 $t
C:\Users\DEVELO~1\AppData\Local\Temp\ccfPgKlK.s:397    .text.HAL_PWR_EnterSTOPMode:00000000 HAL_PWR_EnterSTOPMode
C:\Users\DEVELO~1\AppData\Local\Temp\ccfPgKlK.s:500    .text.HAL_PWR_EnterSTOPMode:00000048 $d
C:\Users\DEVELO~1\AppData\Local\Temp\ccfPgKlK.s:506    .text.HAL_PWR_EnterSTANDBYMode:00000000 $t
C:\Users\DEVELO~1\AppData\Local\Temp\ccfPgKlK.s:513    .text.HAL_PWR_EnterSTANDBYMode:00000000 HAL_PWR_EnterSTANDBYMode
C:\Users\DEVELO~1\AppData\Local\Temp\ccfPgKlK.s:576    .text.HAL_PWR_EnterSTANDBYMode:00000028 $d
C:\Users\DEVELO~1\AppData\Local\Temp\ccfPgKlK.s:582    .text.HAL_PWR_EnableSleepOnExit:00000000 $t
C:\Users\DEVELO~1\AppData\Local\Temp\ccfPgKlK.s:589    .text.HAL_PWR_EnableSleepOnExit:00000000 HAL_PWR_EnableSleepOnExit
C:\Users\DEVELO~1\AppData\Local\Temp\ccfPgKlK.s:606    .text.HAL_PWR_EnableSleepOnExit:0000000c $d
C:\Users\DEVELO~1\AppData\Local\Temp\ccfPgKlK.s:611    .text.HAL_PWR_DisableSleepOnExit:00000000 $t
C:\Users\DEVELO~1\AppData\Local\Temp\ccfPgKlK.s:618    .text.HAL_PWR_DisableSleepOnExit:00000000 HAL_PWR_DisableSleepOnExit
C:\Users\DEVELO~1\AppData\Local\Temp\ccfPgKlK.s:635    .text.HAL_PWR_DisableSleepOnExit:0000000c $d
C:\Users\DEVELO~1\AppData\Local\Temp\ccfPgKlK.s:640    .text.HAL_PWR_EnableSEVOnPend:00000000 $t
C:\Users\DEVELO~1\AppData\Local\Temp\ccfPgKlK.s:647    .text.HAL_PWR_EnableSEVOnPend:00000000 HAL_PWR_EnableSEVOnPend
C:\Users\DEVELO~1\AppData\Local\Temp\ccfPgKlK.s:664    .text.HAL_PWR_EnableSEVOnPend:0000000c $d
C:\Users\DEVELO~1\AppData\Local\Temp\ccfPgKlK.s:669    .text.HAL_PWR_DisableSEVOnPend:00000000 $t
C:\Users\DEVELO~1\AppData\Local\Temp\ccfPgKlK.s:676    .text.HAL_PWR_DisableSEVOnPend:00000000 HAL_PWR_DisableSEVOnPend
C:\Users\DEVELO~1\AppData\Local\Temp\ccfPgKlK.s:693    .text.HAL_PWR_DisableSEVOnPend:0000000c $d
C:\Users\DEVELO~1\AppData\Local\Temp\ccfPgKlK.s:698    .text.HAL_PWR_PVDCallback:00000000 $t
C:\Users\DEVELO~1\AppData\Local\Temp\ccfPgKlK.s:705    .text.HAL_PWR_PVDCallback:00000000 HAL_PWR_PVDCallback
C:\Users\DEVELO~1\AppData\Local\Temp\ccfPgKlK.s:718    .text.HAL_PWR_PVD_IRQHandler:00000000 $t
C:\Users\DEVELO~1\AppData\Local\Temp\ccfPgKlK.s:725    .text.HAL_PWR_PVD_IRQHandler:00000000 HAL_PWR_PVD_IRQHandler

NO UNDEFINED SYMBOLS
