ARM GAS  C:\Users\DEVELO~1\AppData\Local\Temp\ccDVlrZl.s 			page 1


   1              		.cpu cortex-m7
   2              		.arch armv7e-m
   3              		.fpu softvfp
   4              		.eabi_attribute 20, 1
   5              		.eabi_attribute 21, 1
   6              		.eabi_attribute 23, 3
   7              		.eabi_attribute 24, 1
   8              		.eabi_attribute 25, 1
   9              		.eabi_attribute 26, 1
  10              		.eabi_attribute 30, 2
  11              		.eabi_attribute 34, 1
  12              		.eabi_attribute 18, 4
  13              		.file	"stm32h7xx_hal.c"
  14              		.text
  15              	.Ltext0:
  16              		.cfi_sections	.debug_frame
  17              		.section	.text.HAL_MspInit,"ax",%progbits
  18              		.align	1
  19              		.p2align 4,,15
  20              		.weak	HAL_MspInit
  21              		.syntax unified
  22              		.thumb
  23              		.thumb_func
  24              		.type	HAL_MspInit, %function
  25              	HAL_MspInit:
  26              	.LFB143:
  27              		.file 1 "./drivers/stm32h7xx-hal-driver/Src/stm32h7xx_hal.c"
  28              		.loc 1 229 1 view -0
  29              		.cfi_startproc
  30              		@ args = 0, pretend = 0, frame = 0
  31              		@ frame_needed = 0, uses_anonymous_args = 0
  32              		@ link register save eliminated.
  33              		.loc 1 233 1 view .LVU1
  34 0000 7047     		bx	lr
  35              		.cfi_endproc
  36              	.LFE143:
  37              		.size	HAL_MspInit, .-HAL_MspInit
  38 0002 00BF     		.section	.text.HAL_MspDeInit,"ax",%progbits
  39              		.align	1
  40              		.p2align 4,,15
  41              		.weak	HAL_MspDeInit
  42              		.syntax unified
  43              		.thumb
  44              		.thumb_func
  45              		.type	HAL_MspDeInit, %function
  46              	HAL_MspDeInit:
  47              	.LFB191:
  48              		.cfi_startproc
  49              		@ args = 0, pretend = 0, frame = 0
  50              		@ frame_needed = 0, uses_anonymous_args = 0
  51              		@ link register save eliminated.
  52 0000 7047     		bx	lr
  53              		.cfi_endproc
  54              	.LFE191:
  55              		.size	HAL_MspDeInit, .-HAL_MspDeInit
  56 0002 00BF     		.section	.text.HAL_DeInit,"ax",%progbits
  57              		.align	1
ARM GAS  C:\Users\DEVELO~1\AppData\Local\Temp\ccDVlrZl.s 			page 2


  58              		.p2align 4,,15
  59              		.global	HAL_DeInit
  60              		.syntax unified
  61              		.thumb
  62              		.thumb_func
  63              		.type	HAL_DeInit, %function
  64              	HAL_DeInit:
  65              	.LFB142:
  66              		.loc 1 188 1 view -0
  67              		.cfi_startproc
  68              		@ args = 0, pretend = 0, frame = 0
  69              		@ frame_needed = 0, uses_anonymous_args = 0
  70              		.loc 1 190 3 view .LVU3
  71              		.loc 1 188 1 is_stmt 0 view .LVU4
  72 0000 10B5     		push	{r4, lr}
  73              		.cfi_def_cfa_offset 8
  74              		.cfi_offset 4, -8
  75              		.cfi_offset 14, -4
  76              		.loc 1 190 3 view .LVU5
  77 0002 194B     		ldr	r3, .L6
  78              		.loc 1 191 3 view .LVU6
  79 0004 0024     		movs	r4, #0
  80              		.loc 1 190 3 view .LVU7
  81 0006 1949     		ldr	r1, .L6+4
  82              		.loc 1 196 3 view .LVU8
  83 0008 40F27120 		movw	r0, #625
  84              		.loc 1 193 3 view .LVU9
  85 000c 184A     		ldr	r2, .L6+8
  86              		.loc 1 190 3 view .LVU10
  87 000e D967     		str	r1, [r3, #124]
  88              		.loc 1 191 3 is_stmt 1 view .LVU11
  89              		.loc 1 202 3 is_stmt 0 view .LVU12
  90 0010 1821     		movs	r1, #24
  91              		.loc 1 191 3 view .LVU13
  92 0012 DC67     		str	r4, [r3, #124]
  93              		.loc 1 193 3 is_stmt 1 view .LVU14
  94 0014 C3F88020 		str	r2, [r3, #128]
  95              		.loc 1 194 3 view .LVU15
  96              		.loc 1 199 3 is_stmt 0 view .LVU16
  97 0018 164A     		ldr	r2, .L6+12
  98              		.loc 1 194 3 view .LVU17
  99 001a C3F88040 		str	r4, [r3, #128]
 100              		.loc 1 196 3 is_stmt 1 view .LVU18
 101 001e C3F88400 		str	r0, [r3, #132]
 102              		.loc 1 197 3 view .LVU19
 103              		.loc 1 208 3 is_stmt 0 view .LVU20
 104 0022 4FF49B70 		mov	r0, #310
 105              		.loc 1 197 3 view .LVU21
 106 0026 C3F88440 		str	r4, [r3, #132]
 107              		.loc 1 199 3 is_stmt 1 view .LVU22
 108 002a C3F88820 		str	r2, [r3, #136]
 109              		.loc 1 200 2 view .LVU23
 110              		.loc 1 205 3 is_stmt 0 view .LVU24
 111 002e 124A     		ldr	r2, .L6+16
 112              		.loc 1 200 2 view .LVU25
 113 0030 C3F88840 		str	r4, [r3, #136]
 114              		.loc 1 202 3 is_stmt 1 view .LVU26
ARM GAS  C:\Users\DEVELO~1\AppData\Local\Temp\ccDVlrZl.s 			page 3


 115 0034 C3F88C10 		str	r1, [r3, #140]
 116              		.loc 1 203 3 view .LVU27
 117 0038 C3F88C40 		str	r4, [r3, #140]
 118              		.loc 1 205 3 view .LVU28
 119              		.loc 1 211 4 is_stmt 0 view .LVU29
 120 003c 0F49     		ldr	r1, .L6+20
 121              		.loc 1 205 3 view .LVU30
 122 003e C3F89020 		str	r2, [r3, #144]
 123              		.loc 1 206 3 is_stmt 1 view .LVU31
 124              		.loc 1 214 3 is_stmt 0 view .LVU32
 125 0042 0F4A     		ldr	r2, .L6+24
 126              		.loc 1 206 3 view .LVU33
 127 0044 C3F89040 		str	r4, [r3, #144]
 128              		.loc 1 208 3 is_stmt 1 view .LVU34
 129 0048 C3F89400 		str	r0, [r3, #148]
 130              		.loc 1 209 3 view .LVU35
 131 004c C3F89440 		str	r4, [r3, #148]
 132              		.loc 1 211 4 view .LVU36
 133 0050 C3F89810 		str	r1, [r3, #152]
 134              		.loc 1 212 4 view .LVU37
 135 0054 C3F89840 		str	r4, [r3, #152]
 136              		.loc 1 214 3 view .LVU38
 137 0058 C3F89C20 		str	r2, [r3, #156]
 138              		.loc 1 215 3 view .LVU39
 139 005c C3F89C40 		str	r4, [r3, #156]
 140              		.loc 1 218 3 view .LVU40
 141 0060 FFF7FEFF 		bl	HAL_MspDeInit
 142              	.LVL0:
 143              		.loc 1 221 3 view .LVU41
 144              		.loc 1 222 1 is_stmt 0 view .LVU42
 145 0064 2046     		mov	r0, r4
 146 0066 10BD     		pop	{r4, pc}
 147              	.L7:
 148              		.align	2
 149              	.L6:
 150 0068 00440258 		.word	1476543488
 151 006c 31500100 		.word	86065
 152 0070 23C0000A 		.word	167821347
 153 0074 FF072803 		.word	52955135
 154 0078 FFC3FFE8 		.word	-385891329
 155 007c 3330D731 		.word	836186163
 156 0080 AADE2000 		.word	2154154
 157              		.cfi_endproc
 158              	.LFE142:
 159              		.size	HAL_DeInit, .-HAL_DeInit
 160              		.section	.text.HAL_InitTick,"ax",%progbits
 161              		.align	1
 162              		.p2align 4,,15
 163              		.weak	HAL_InitTick
 164              		.syntax unified
 165              		.thumb
 166              		.thumb_func
 167              		.type	HAL_InitTick, %function
 168              	HAL_InitTick:
 169              	.LVL1:
 170              	.LFB145:
 171              		.loc 1 263 1 is_stmt 1 view -0
ARM GAS  C:\Users\DEVELO~1\AppData\Local\Temp\ccDVlrZl.s 			page 4


 172              		.cfi_startproc
 173              		@ args = 0, pretend = 0, frame = 0
 174              		@ frame_needed = 0, uses_anonymous_args = 0
 175              		.loc 1 265 3 view .LVU44
 176              		.loc 1 265 27 is_stmt 0 view .LVU45
 177 0000 0F4B     		ldr	r3, .L22
 178 0002 1B78     		ldrb	r3, [r3]	@ zero_extendqisi2
 179              		.loc 1 265 5 view .LVU46
 180 0004 0BB9     		cbnz	r3, .L9
 181              		.loc 1 267 12 view .LVU47
 182 0006 0120     		movs	r0, #1
 183              	.LVL2:
 184              		.loc 1 289 1 view .LVU48
 185 0008 7047     		bx	lr
 186              	.LVL3:
 187              	.L9:
 188              		.loc 1 271 5 is_stmt 1 view .LVU49
 189              		.loc 1 263 1 is_stmt 0 view .LVU50
 190 000a 10B5     		push	{r4, lr}
 191              		.cfi_def_cfa_offset 8
 192              		.cfi_offset 4, -8
 193              		.cfi_offset 14, -4
 194 000c 0446     		mov	r4, r0
 195              		.loc 1 271 54 view .LVU51
 196 000e 4FF47A70 		mov	r0, #1000
 197              	.LVL4:
 198              		.loc 1 271 9 view .LVU52
 199 0012 0C4A     		ldr	r2, .L22+4
 200              		.loc 1 271 54 view .LVU53
 201 0014 B0FBF3F3 		udiv	r3, r0, r3
 202              		.loc 1 271 9 view .LVU54
 203 0018 1068     		ldr	r0, [r2]
 204 001a B0FBF3F0 		udiv	r0, r0, r3
 205 001e FFF7FEFF 		bl	HAL_SYSTICK_Config
 206              	.LVL5:
 207              		.loc 1 277 3 is_stmt 1 view .LVU55
 208              		.loc 1 277 6 is_stmt 0 view .LVU56
 209 0022 0F2C     		cmp	r4, #15
 210 0024 00D8     		bhi	.L11
 211              		.loc 1 277 6 view .LVU57
 212 0026 08B1     		cbz	r0, .L21
 213              	.L11:
 214              		.loc 1 267 12 view .LVU58
 215 0028 0120     		movs	r0, #1
 216              		.loc 1 289 1 view .LVU59
 217 002a 10BD     		pop	{r4, pc}
 218              	.LVL6:
 219              	.L21:
 220              	.LBB4:
 221              	.LBI4:
 222              		.loc 1 262 26 is_stmt 1 view .LVU60
 223              	.LBB5:
 224              		.loc 1 279 5 view .LVU61
 225 002c 0022     		movs	r2, #0
 226 002e 2146     		mov	r1, r4
 227 0030 4FF0FF30 		mov	r0, #-1
 228 0034 FFF7FEFF 		bl	HAL_NVIC_SetPriority
ARM GAS  C:\Users\DEVELO~1\AppData\Local\Temp\ccDVlrZl.s 			page 5


 229              	.LVL7:
 230              		.loc 1 280 5 view .LVU62
 231              		.loc 1 280 16 is_stmt 0 view .LVU63
 232 0038 034B     		ldr	r3, .L22+8
 233 003a 0020     		movs	r0, #0
 234 003c 1C60     		str	r4, [r3]
 235              		.loc 1 288 3 is_stmt 1 view .LVU64
 236              	.LVL8:
 237              		.loc 1 288 3 is_stmt 0 view .LVU65
 238              	.LBE5:
 239              	.LBE4:
 240              		.loc 1 289 1 view .LVU66
 241 003e 10BD     		pop	{r4, pc}
 242              	.LVL9:
 243              	.L23:
 244              		.loc 1 289 1 view .LVU67
 245              		.align	2
 246              	.L22:
 247 0040 00000000 		.word	.LANCHOR0
 248 0044 00000000 		.word	SystemCoreClock
 249 0048 00000000 		.word	.LANCHOR1
 250              		.cfi_endproc
 251              	.LFE145:
 252              		.size	HAL_InitTick, .-HAL_InitTick
 253              		.section	.text.HAL_Init,"ax",%progbits
 254              		.align	1
 255              		.p2align 4,,15
 256              		.global	HAL_Init
 257              		.syntax unified
 258              		.thumb
 259              		.thumb_func
 260              		.type	HAL_Init, %function
 261              	HAL_Init:
 262              	.LFB141:
 263              		.loc 1 135 1 is_stmt 1 view -0
 264              		.cfi_startproc
 265              		@ args = 0, pretend = 0, frame = 0
 266              		@ frame_needed = 0, uses_anonymous_args = 0
 267              		.loc 1 137 1 view .LVU69
 268              		.loc 1 147 3 view .LVU70
 269              		.loc 1 135 1 is_stmt 0 view .LVU71
 270 0000 10B5     		push	{r4, lr}
 271              		.cfi_def_cfa_offset 8
 272              		.cfi_offset 4, -8
 273              		.cfi_offset 14, -4
 274              		.loc 1 147 3 view .LVU72
 275 0002 0320     		movs	r0, #3
 276              		.loc 1 158 17 view .LVU73
 277 0004 124C     		ldr	r4, .L29
 278              		.loc 1 147 3 view .LVU74
 279 0006 FFF7FEFF 		bl	HAL_NVIC_SetPriorityGrouping
 280              	.LVL10:
 281              		.loc 1 151 3 is_stmt 1 view .LVU75
 282              		.loc 1 151 25 is_stmt 0 view .LVU76
 283 000a FFF7FEFF 		bl	HAL_RCC_GetSysClockFreq
 284              	.LVL11:
 285              		.loc 1 151 77 view .LVU77
ARM GAS  C:\Users\DEVELO~1\AppData\Local\Temp\ccDVlrZl.s 			page 6


 286 000e 114B     		ldr	r3, .L29+4
 287              		.loc 1 151 72 view .LVU78
 288 0010 1149     		ldr	r1, .L29+8
 289              		.loc 1 151 77 view .LVU79
 290 0012 9A69     		ldr	r2, [r3, #24]
 291              		.loc 1 158 66 view .LVU80
 292 0014 9B69     		ldr	r3, [r3, #24]
 293              		.loc 1 151 106 view .LVU81
 294 0016 C2F30322 		ubfx	r2, r2, #8, #4
 295              		.loc 1 158 93 view .LVU82
 296 001a 03F00F03 		and	r3, r3, #15
 297              		.loc 1 151 133 view .LVU83
 298 001e 8A5C     		ldrb	r2, [r1, r2]	@ zero_extendqisi2
 299              		.loc 1 158 118 view .LVU84
 300 0020 CB5C     		ldrb	r3, [r1, r3]	@ zero_extendqisi2
 301              		.loc 1 151 133 view .LVU85
 302 0022 02F01F02 		and	r2, r2, #31
 303              		.loc 1 166 19 view .LVU86
 304 0026 0D49     		ldr	r1, .L29+12
 305              		.loc 1 158 118 view .LVU87
 306 0028 03F01F03 		and	r3, r3, #31
 307              		.loc 1 151 23 view .LVU88
 308 002c D040     		lsrs	r0, r0, r2
 309              	.LVL12:
 310              		.loc 1 158 3 is_stmt 1 view .LVU89
 311              		.loc 1 158 40 is_stmt 0 view .LVU90
 312 002e 20FA03F3 		lsr	r3, r0, r3
 313              		.loc 1 166 19 view .LVU91
 314 0032 0860     		str	r0, [r1]
 315              		.loc 1 170 6 view .LVU92
 316 0034 0F20     		movs	r0, #15
 317              	.LVL13:
 318              		.loc 1 158 17 view .LVU93
 319 0036 2360     		str	r3, [r4]
 320              		.loc 1 166 3 is_stmt 1 view .LVU94
 321              		.loc 1 170 3 view .LVU95
 322              		.loc 1 170 6 is_stmt 0 view .LVU96
 323 0038 FFF7FEFF 		bl	HAL_InitTick
 324              	.LVL14:
 325              		.loc 1 170 5 view .LVU97
 326 003c 10B1     		cbz	r0, .L28
 327              		.loc 1 172 12 view .LVU98
 328 003e 0124     		movs	r4, #1
 329              		.loc 1 180 1 view .LVU99
 330 0040 2046     		mov	r0, r4
 331 0042 10BD     		pop	{r4, pc}
 332              	.L28:
 333 0044 0446     		mov	r4, r0
 334              		.loc 1 176 3 is_stmt 1 view .LVU100
 335 0046 FFF7FEFF 		bl	HAL_MspInit
 336              	.LVL15:
 337              		.loc 1 179 3 view .LVU101
 338              		.loc 1 180 1 is_stmt 0 view .LVU102
 339 004a 2046     		mov	r0, r4
 340 004c 10BD     		pop	{r4, pc}
 341              	.L30:
 342 004e 00BF     		.align	2
ARM GAS  C:\Users\DEVELO~1\AppData\Local\Temp\ccDVlrZl.s 			page 7


 343              	.L29:
 344 0050 00000000 		.word	SystemD2Clock
 345 0054 00440258 		.word	1476543488
 346 0058 00000000 		.word	D1CorePrescTable
 347 005c 00000000 		.word	SystemCoreClock
 348              		.cfi_endproc
 349              	.LFE141:
 350              		.size	HAL_Init, .-HAL_Init
 351              		.section	.text.HAL_IncTick,"ax",%progbits
 352              		.align	1
 353              		.p2align 4,,15
 354              		.weak	HAL_IncTick
 355              		.syntax unified
 356              		.thumb
 357              		.thumb_func
 358              		.type	HAL_IncTick, %function
 359              	HAL_IncTick:
 360              	.LFB146:
 361              		.loc 1 328 1 is_stmt 1 view -0
 362              		.cfi_startproc
 363              		@ args = 0, pretend = 0, frame = 0
 364              		@ frame_needed = 0, uses_anonymous_args = 0
 365              		@ link register save eliminated.
 366              		.loc 1 329 3 view .LVU104
 367              		.loc 1 329 10 is_stmt 0 view .LVU105
 368 0000 034A     		ldr	r2, .L32
 369              		.loc 1 329 13 view .LVU106
 370 0002 044B     		ldr	r3, .L32+4
 371              		.loc 1 329 10 view .LVU107
 372 0004 1168     		ldr	r1, [r2]
 373              		.loc 1 329 13 view .LVU108
 374 0006 1B78     		ldrb	r3, [r3]	@ zero_extendqisi2
 375              		.loc 1 329 10 view .LVU109
 376 0008 0B44     		add	r3, r3, r1
 377 000a 1360     		str	r3, [r2]
 378              		.loc 1 330 1 view .LVU110
 379 000c 7047     		bx	lr
 380              	.L33:
 381 000e 00BF     		.align	2
 382              	.L32:
 383 0010 00000000 		.word	.LANCHOR2
 384 0014 00000000 		.word	.LANCHOR0
 385              		.cfi_endproc
 386              	.LFE146:
 387              		.size	HAL_IncTick, .-HAL_IncTick
 388              		.section	.text.HAL_GetTick,"ax",%progbits
 389              		.align	1
 390              		.p2align 4,,15
 391              		.weak	HAL_GetTick
 392              		.syntax unified
 393              		.thumb
 394              		.thumb_func
 395              		.type	HAL_GetTick, %function
 396              	HAL_GetTick:
 397              	.LFB147:
 398              		.loc 1 339 1 is_stmt 1 view -0
 399              		.cfi_startproc
ARM GAS  C:\Users\DEVELO~1\AppData\Local\Temp\ccDVlrZl.s 			page 8


 400              		@ args = 0, pretend = 0, frame = 0
 401              		@ frame_needed = 0, uses_anonymous_args = 0
 402              		@ link register save eliminated.
 403              		.loc 1 340 3 view .LVU112
 404              		.loc 1 340 10 is_stmt 0 view .LVU113
 405 0000 014B     		ldr	r3, .L35
 406 0002 1868     		ldr	r0, [r3]
 407              		.loc 1 341 1 view .LVU114
 408 0004 7047     		bx	lr
 409              	.L36:
 410 0006 00BF     		.align	2
 411              	.L35:
 412 0008 00000000 		.word	.LANCHOR2
 413              		.cfi_endproc
 414              	.LFE147:
 415              		.size	HAL_GetTick, .-HAL_GetTick
 416              		.section	.text.HAL_GetTickPrio,"ax",%progbits
 417              		.align	1
 418              		.p2align 4,,15
 419              		.global	HAL_GetTickPrio
 420              		.syntax unified
 421              		.thumb
 422              		.thumb_func
 423              		.type	HAL_GetTickPrio, %function
 424              	HAL_GetTickPrio:
 425              	.LFB148:
 426              		.loc 1 348 1 is_stmt 1 view -0
 427              		.cfi_startproc
 428              		@ args = 0, pretend = 0, frame = 0
 429              		@ frame_needed = 0, uses_anonymous_args = 0
 430              		@ link register save eliminated.
 431              		.loc 1 349 3 view .LVU116
 432              		.loc 1 349 10 is_stmt 0 view .LVU117
 433 0000 014B     		ldr	r3, .L38
 434              		.loc 1 350 1 view .LVU118
 435 0002 1868     		ldr	r0, [r3]
 436 0004 7047     		bx	lr
 437              	.L39:
 438 0006 00BF     		.align	2
 439              	.L38:
 440 0008 00000000 		.word	.LANCHOR1
 441              		.cfi_endproc
 442              	.LFE148:
 443              		.size	HAL_GetTickPrio, .-HAL_GetTickPrio
 444              		.section	.text.HAL_SetTickFreq,"ax",%progbits
 445              		.align	1
 446              		.p2align 4,,15
 447              		.global	HAL_SetTickFreq
 448              		.syntax unified
 449              		.thumb
 450              		.thumb_func
 451              		.type	HAL_SetTickFreq, %function
 452              	HAL_SetTickFreq:
 453              	.LVL16:
 454              	.LFB149:
 455              		.loc 1 357 1 is_stmt 1 view -0
 456              		.cfi_startproc
ARM GAS  C:\Users\DEVELO~1\AppData\Local\Temp\ccDVlrZl.s 			page 9


 457              		@ args = 0, pretend = 0, frame = 0
 458              		@ frame_needed = 0, uses_anonymous_args = 0
 459              		.loc 1 358 3 view .LVU120
 460              		.loc 1 359 3 view .LVU121
 461              		.loc 1 361 3 view .LVU122
 462              		.loc 1 363 3 view .LVU123
 463              		.loc 1 357 1 is_stmt 0 view .LVU124
 464 0000 38B5     		push	{r3, r4, r5, lr}
 465              		.cfi_def_cfa_offset 16
 466              		.cfi_offset 3, -16
 467              		.cfi_offset 4, -12
 468              		.cfi_offset 5, -8
 469              		.cfi_offset 14, -4
 470              		.loc 1 363 18 view .LVU125
 471 0002 074C     		ldr	r4, .L48
 472 0004 2578     		ldrb	r5, [r4]	@ zero_extendqisi2
 473              		.loc 1 363 6 view .LVU126
 474 0006 8542     		cmp	r5, r0
 475 0008 01D1     		bne	.L47
 476              		.loc 1 358 21 view .LVU127
 477 000a 0020     		movs	r0, #0
 478              	.LVL17:
 479              	.L41:
 480              		.loc 1 381 3 is_stmt 1 view .LVU128
 481              		.loc 1 382 1 is_stmt 0 view .LVU129
 482 000c 38BD     		pop	{r3, r4, r5, pc}
 483              	.LVL18:
 484              	.L47:
 485              		.loc 1 367 5 is_stmt 1 view .LVU130
 486              		.loc 1 370 5 view .LVU131
 487              		.loc 1 373 14 is_stmt 0 view .LVU132
 488 000e 054B     		ldr	r3, .L48+4
 489              		.loc 1 370 16 view .LVU133
 490 0010 2070     		strb	r0, [r4]
 491              		.loc 1 373 5 is_stmt 1 view .LVU134
 492              		.loc 1 373 14 is_stmt 0 view .LVU135
 493 0012 1868     		ldr	r0, [r3]
 494              	.LVL19:
 495              		.loc 1 373 14 view .LVU136
 496 0014 FFF7FEFF 		bl	HAL_InitTick
 497              	.LVL20:
 498              		.loc 1 374 5 is_stmt 1 view .LVU137
 499              		.loc 1 374 8 is_stmt 0 view .LVU138
 500 0018 0028     		cmp	r0, #0
 501 001a F7D0     		beq	.L41
 502              		.loc 1 377 7 is_stmt 1 view .LVU139
 503              		.loc 1 377 18 is_stmt 0 view .LVU140
 504 001c 2570     		strb	r5, [r4]
 505              		.loc 1 381 3 is_stmt 1 view .LVU141
 506              		.loc 1 382 1 is_stmt 0 view .LVU142
 507 001e 38BD     		pop	{r3, r4, r5, pc}
 508              	.LVL21:
 509              	.L49:
 510              		.loc 1 382 1 view .LVU143
 511              		.align	2
 512              	.L48:
 513 0020 00000000 		.word	.LANCHOR0
ARM GAS  C:\Users\DEVELO~1\AppData\Local\Temp\ccDVlrZl.s 			page 10


 514 0024 00000000 		.word	.LANCHOR1
 515              		.cfi_endproc
 516              	.LFE149:
 517              		.size	HAL_SetTickFreq, .-HAL_SetTickFreq
 518              		.section	.text.HAL_GetTickFreq,"ax",%progbits
 519              		.align	1
 520              		.p2align 4,,15
 521              		.global	HAL_GetTickFreq
 522              		.syntax unified
 523              		.thumb
 524              		.thumb_func
 525              		.type	HAL_GetTickFreq, %function
 526              	HAL_GetTickFreq:
 527              	.LFB150:
 528              		.loc 1 390 1 is_stmt 1 view -0
 529              		.cfi_startproc
 530              		@ args = 0, pretend = 0, frame = 0
 531              		@ frame_needed = 0, uses_anonymous_args = 0
 532              		@ link register save eliminated.
 533              		.loc 1 391 3 view .LVU145
 534              		.loc 1 391 10 is_stmt 0 view .LVU146
 535 0000 014B     		ldr	r3, .L51
 536              		.loc 1 392 1 view .LVU147
 537 0002 1878     		ldrb	r0, [r3]	@ zero_extendqisi2
 538 0004 7047     		bx	lr
 539              	.L52:
 540 0006 00BF     		.align	2
 541              	.L51:
 542 0008 00000000 		.word	.LANCHOR0
 543              		.cfi_endproc
 544              	.LFE150:
 545              		.size	HAL_GetTickFreq, .-HAL_GetTickFreq
 546              		.section	.text.HAL_Delay,"ax",%progbits
 547              		.align	1
 548              		.p2align 4,,15
 549              		.weak	HAL_Delay
 550              		.syntax unified
 551              		.thumb
 552              		.thumb_func
 553              		.type	HAL_Delay, %function
 554              	HAL_Delay:
 555              	.LVL22:
 556              	.LFB151:
 557              		.loc 1 406 1 is_stmt 1 view -0
 558              		.cfi_startproc
 559              		@ args = 0, pretend = 0, frame = 0
 560              		@ frame_needed = 0, uses_anonymous_args = 0
 561              		.loc 1 407 3 view .LVU149
 562              		.loc 1 406 1 is_stmt 0 view .LVU150
 563 0000 38B5     		push	{r3, r4, r5, lr}
 564              		.cfi_def_cfa_offset 16
 565              		.cfi_offset 3, -16
 566              		.cfi_offset 4, -12
 567              		.cfi_offset 5, -8
 568              		.cfi_offset 14, -4
 569              		.loc 1 406 1 view .LVU151
 570 0002 0446     		mov	r4, r0
ARM GAS  C:\Users\DEVELO~1\AppData\Local\Temp\ccDVlrZl.s 			page 11


 571              		.loc 1 407 24 view .LVU152
 572 0004 FFF7FEFF 		bl	HAL_GetTick
 573              	.LVL23:
 574              		.loc 1 407 24 view .LVU153
 575 0008 0546     		mov	r5, r0
 576              	.LVL24:
 577              		.loc 1 408 3 is_stmt 1 view .LVU154
 578              		.loc 1 411 3 view .LVU155
 579              		.loc 1 411 6 is_stmt 0 view .LVU156
 580 000a 631C     		adds	r3, r4, #1
 581 000c 02D0     		beq	.L55
 582              		.loc 1 413 5 is_stmt 1 view .LVU157
 583              		.loc 1 413 13 is_stmt 0 view .LVU158
 584 000e 044B     		ldr	r3, .L61
 585 0010 1B78     		ldrb	r3, [r3]	@ zero_extendqisi2
 586              		.loc 1 413 10 view .LVU159
 587 0012 1C44     		add	r4, r4, r3
 588              	.LVL25:
 589              	.L55:
 590              		.loc 1 418 3 is_stmt 1 discriminator 1 view .LVU160
 591              		.loc 1 416 38 discriminator 1 view .LVU161
 592              		.loc 1 416 11 is_stmt 0 discriminator 1 view .LVU162
 593 0014 FFF7FEFF 		bl	HAL_GetTick
 594              	.LVL26:
 595              		.loc 1 416 25 discriminator 1 view .LVU163
 596 0018 401B     		subs	r0, r0, r5
 597              		.loc 1 416 38 discriminator 1 view .LVU164
 598 001a A042     		cmp	r0, r4
 599 001c FAD3     		bcc	.L55
 600              		.loc 1 419 1 view .LVU165
 601 001e 38BD     		pop	{r3, r4, r5, pc}
 602              	.LVL27:
 603              	.L62:
 604              		.loc 1 419 1 view .LVU166
 605              		.align	2
 606              	.L61:
 607 0020 00000000 		.word	.LANCHOR0
 608              		.cfi_endproc
 609              	.LFE151:
 610              		.size	HAL_Delay, .-HAL_Delay
 611              		.section	.text.HAL_SuspendTick,"ax",%progbits
 612              		.align	1
 613              		.p2align 4,,15
 614              		.weak	HAL_SuspendTick
 615              		.syntax unified
 616              		.thumb
 617              		.thumb_func
 618              		.type	HAL_SuspendTick, %function
 619              	HAL_SuspendTick:
 620              	.LFB152:
 621              		.loc 1 432 1 is_stmt 1 view -0
 622              		.cfi_startproc
 623              		@ args = 0, pretend = 0, frame = 0
 624              		@ frame_needed = 0, uses_anonymous_args = 0
 625              		@ link register save eliminated.
 626              		.loc 1 434 3 view .LVU168
 627              		.loc 1 434 17 is_stmt 0 view .LVU169
ARM GAS  C:\Users\DEVELO~1\AppData\Local\Temp\ccDVlrZl.s 			page 12


 628 0000 4FF0E022 		mov	r2, #-536813568
 629 0004 1369     		ldr	r3, [r2, #16]
 630 0006 23F00203 		bic	r3, r3, #2
 631 000a 1361     		str	r3, [r2, #16]
 632              		.loc 1 435 1 view .LVU170
 633 000c 7047     		bx	lr
 634              		.cfi_endproc
 635              	.LFE152:
 636              		.size	HAL_SuspendTick, .-HAL_SuspendTick
 637 000e 00BF     		.section	.text.HAL_ResumeTick,"ax",%progbits
 638              		.align	1
 639              		.p2align 4,,15
 640              		.weak	HAL_ResumeTick
 641              		.syntax unified
 642              		.thumb
 643              		.thumb_func
 644              		.type	HAL_ResumeTick, %function
 645              	HAL_ResumeTick:
 646              	.LFB153:
 647              		.loc 1 448 1 is_stmt 1 view -0
 648              		.cfi_startproc
 649              		@ args = 0, pretend = 0, frame = 0
 650              		@ frame_needed = 0, uses_anonymous_args = 0
 651              		@ link register save eliminated.
 652              		.loc 1 450 3 view .LVU172
 653              		.loc 1 450 18 is_stmt 0 view .LVU173
 654 0000 4FF0E022 		mov	r2, #-536813568
 655 0004 1369     		ldr	r3, [r2, #16]
 656 0006 43F00203 		orr	r3, r3, #2
 657 000a 1361     		str	r3, [r2, #16]
 658              		.loc 1 451 1 view .LVU174
 659 000c 7047     		bx	lr
 660              		.cfi_endproc
 661              	.LFE153:
 662              		.size	HAL_ResumeTick, .-HAL_ResumeTick
 663 000e 00BF     		.section	.text.HAL_GetHalVersion,"ax",%progbits
 664              		.align	1
 665              		.p2align 4,,15
 666              		.global	HAL_GetHalVersion
 667              		.syntax unified
 668              		.thumb
 669              		.thumb_func
 670              		.type	HAL_GetHalVersion, %function
 671              	HAL_GetHalVersion:
 672              	.LFB154:
 673              		.loc 1 458 1 is_stmt 1 view -0
 674              		.cfi_startproc
 675              		@ args = 0, pretend = 0, frame = 0
 676              		@ frame_needed = 0, uses_anonymous_args = 0
 677              		@ link register save eliminated.
 678              		.loc 1 459 2 view .LVU176
 679              		.loc 1 460 1 is_stmt 0 view .LVU177
 680 0000 0048     		ldr	r0, .L66
 681 0002 7047     		bx	lr
 682              	.L67:
 683              		.align	2
 684              	.L66:
ARM GAS  C:\Users\DEVELO~1\AppData\Local\Temp\ccDVlrZl.s 			page 13


 685 0004 00050B01 		.word	17499392
 686              		.cfi_endproc
 687              	.LFE154:
 688              		.size	HAL_GetHalVersion, .-HAL_GetHalVersion
 689              		.section	.text.HAL_GetREVID,"ax",%progbits
 690              		.align	1
 691              		.p2align 4,,15
 692              		.global	HAL_GetREVID
 693              		.syntax unified
 694              		.thumb
 695              		.thumb_func
 696              		.type	HAL_GetREVID, %function
 697              	HAL_GetREVID:
 698              	.LFB155:
 699              		.loc 1 467 1 is_stmt 1 view -0
 700              		.cfi_startproc
 701              		@ args = 0, pretend = 0, frame = 0
 702              		@ frame_needed = 0, uses_anonymous_args = 0
 703              		@ link register save eliminated.
 704              		.loc 1 468 4 view .LVU179
 705              		.loc 1 468 18 is_stmt 0 view .LVU180
 706 0000 014B     		ldr	r3, .L69
 707 0002 1868     		ldr	r0, [r3]
 708              		.loc 1 469 1 view .LVU181
 709 0004 000C     		lsrs	r0, r0, #16
 710 0006 7047     		bx	lr
 711              	.L70:
 712              		.align	2
 713              	.L69:
 714 0008 0010005C 		.word	1543507968
 715              		.cfi_endproc
 716              	.LFE155:
 717              		.size	HAL_GetREVID, .-HAL_GetREVID
 718              		.section	.text.HAL_GetDEVID,"ax",%progbits
 719              		.align	1
 720              		.p2align 4,,15
 721              		.global	HAL_GetDEVID
 722              		.syntax unified
 723              		.thumb
 724              		.thumb_func
 725              		.type	HAL_GetDEVID, %function
 726              	HAL_GetDEVID:
 727              	.LFB156:
 728              		.loc 1 476 1 is_stmt 1 view -0
 729              		.cfi_startproc
 730              		@ args = 0, pretend = 0, frame = 0
 731              		@ frame_needed = 0, uses_anonymous_args = 0
 732              		@ link register save eliminated.
 733              		.loc 1 477 4 view .LVU183
 734              		.loc 1 477 18 is_stmt 0 view .LVU184
 735 0000 024B     		ldr	r3, .L72
 736 0002 1868     		ldr	r0, [r3]
 737              		.loc 1 478 1 view .LVU185
 738 0004 C0F30B00 		ubfx	r0, r0, #0, #12
 739 0008 7047     		bx	lr
 740              	.L73:
 741 000a 00BF     		.align	2
ARM GAS  C:\Users\DEVELO~1\AppData\Local\Temp\ccDVlrZl.s 			page 14


 742              	.L72:
 743 000c 0010005C 		.word	1543507968
 744              		.cfi_endproc
 745              	.LFE156:
 746              		.size	HAL_GetDEVID, .-HAL_GetDEVID
 747              		.section	.text.HAL_GetUIDw0,"ax",%progbits
 748              		.align	1
 749              		.p2align 4,,15
 750              		.global	HAL_GetUIDw0
 751              		.syntax unified
 752              		.thumb
 753              		.thumb_func
 754              		.type	HAL_GetUIDw0, %function
 755              	HAL_GetUIDw0:
 756              	.LFB157:
 757              		.loc 1 485 1 is_stmt 1 view -0
 758              		.cfi_startproc
 759              		@ args = 0, pretend = 0, frame = 0
 760              		@ frame_needed = 0, uses_anonymous_args = 0
 761              		@ link register save eliminated.
 762              		.loc 1 486 3 view .LVU187
 763              		.loc 1 486 10 is_stmt 0 view .LVU188
 764 0000 014B     		ldr	r3, .L75
 765              		.loc 1 487 1 view .LVU189
 766 0002 D3F80008 		ldr	r0, [r3, #2048]
 767 0006 7047     		bx	lr
 768              	.L76:
 769              		.align	2
 770              	.L75:
 771 0008 00E0F11F 		.word	535945216
 772              		.cfi_endproc
 773              	.LFE157:
 774              		.size	HAL_GetUIDw0, .-HAL_GetUIDw0
 775              		.section	.text.HAL_GetUIDw1,"ax",%progbits
 776              		.align	1
 777              		.p2align 4,,15
 778              		.global	HAL_GetUIDw1
 779              		.syntax unified
 780              		.thumb
 781              		.thumb_func
 782              		.type	HAL_GetUIDw1, %function
 783              	HAL_GetUIDw1:
 784              	.LFB158:
 785              		.loc 1 494 1 is_stmt 1 view -0
 786              		.cfi_startproc
 787              		@ args = 0, pretend = 0, frame = 0
 788              		@ frame_needed = 0, uses_anonymous_args = 0
 789              		@ link register save eliminated.
 790              		.loc 1 495 3 view .LVU191
 791              		.loc 1 495 10 is_stmt 0 view .LVU192
 792 0000 014B     		ldr	r3, .L78
 793              		.loc 1 496 1 view .LVU193
 794 0002 D3F80408 		ldr	r0, [r3, #2052]
 795 0006 7047     		bx	lr
 796              	.L79:
 797              		.align	2
 798              	.L78:
ARM GAS  C:\Users\DEVELO~1\AppData\Local\Temp\ccDVlrZl.s 			page 15


 799 0008 00E0F11F 		.word	535945216
 800              		.cfi_endproc
 801              	.LFE158:
 802              		.size	HAL_GetUIDw1, .-HAL_GetUIDw1
 803              		.section	.text.HAL_GetUIDw2,"ax",%progbits
 804              		.align	1
 805              		.p2align 4,,15
 806              		.global	HAL_GetUIDw2
 807              		.syntax unified
 808              		.thumb
 809              		.thumb_func
 810              		.type	HAL_GetUIDw2, %function
 811              	HAL_GetUIDw2:
 812              	.LFB159:
 813              		.loc 1 503 1 is_stmt 1 view -0
 814              		.cfi_startproc
 815              		@ args = 0, pretend = 0, frame = 0
 816              		@ frame_needed = 0, uses_anonymous_args = 0
 817              		@ link register save eliminated.
 818              		.loc 1 504 3 view .LVU195
 819              		.loc 1 504 10 is_stmt 0 view .LVU196
 820 0000 014B     		ldr	r3, .L81
 821              		.loc 1 505 1 view .LVU197
 822 0002 D3F80808 		ldr	r0, [r3, #2056]
 823 0006 7047     		bx	lr
 824              	.L82:
 825              		.align	2
 826              	.L81:
 827 0008 00E0F11F 		.word	535945216
 828              		.cfi_endproc
 829              	.LFE159:
 830              		.size	HAL_GetUIDw2, .-HAL_GetUIDw2
 831              		.section	.text.HAL_SYSCFG_VREFBUF_VoltageScalingConfig,"ax",%progbits
 832              		.align	1
 833              		.p2align 4,,15
 834              		.global	HAL_SYSCFG_VREFBUF_VoltageScalingConfig
 835              		.syntax unified
 836              		.thumb
 837              		.thumb_func
 838              		.type	HAL_SYSCFG_VREFBUF_VoltageScalingConfig, %function
 839              	HAL_SYSCFG_VREFBUF_VoltageScalingConfig:
 840              	.LVL28:
 841              	.LFB160:
 842              		.loc 1 522 1 is_stmt 1 view -0
 843              		.cfi_startproc
 844              		@ args = 0, pretend = 0, frame = 0
 845              		@ frame_needed = 0, uses_anonymous_args = 0
 846              		@ link register save eliminated.
 847              		.loc 1 524 3 view .LVU199
 848              		.loc 1 526 3 view .LVU200
 849 0000 034A     		ldr	r2, .L84
 850 0002 1368     		ldr	r3, [r2]
 851 0004 23F07003 		bic	r3, r3, #112
 852 0008 0343     		orrs	r3, r3, r0
 853 000a 1360     		str	r3, [r2]
 854              		.loc 1 527 1 is_stmt 0 view .LVU201
 855 000c 7047     		bx	lr
ARM GAS  C:\Users\DEVELO~1\AppData\Local\Temp\ccDVlrZl.s 			page 16


 856              	.L85:
 857 000e 00BF     		.align	2
 858              	.L84:
 859 0010 003C0058 		.word	1476410368
 860              		.cfi_endproc
 861              	.LFE160:
 862              		.size	HAL_SYSCFG_VREFBUF_VoltageScalingConfig, .-HAL_SYSCFG_VREFBUF_VoltageScalingConfig
 863              		.section	.text.HAL_SYSCFG_VREFBUF_HighImpedanceConfig,"ax",%progbits
 864              		.align	1
 865              		.p2align 4,,15
 866              		.global	HAL_SYSCFG_VREFBUF_HighImpedanceConfig
 867              		.syntax unified
 868              		.thumb
 869              		.thumb_func
 870              		.type	HAL_SYSCFG_VREFBUF_HighImpedanceConfig, %function
 871              	HAL_SYSCFG_VREFBUF_HighImpedanceConfig:
 872              	.LVL29:
 873              	.LFB161:
 874              		.loc 1 538 1 is_stmt 1 view -0
 875              		.cfi_startproc
 876              		@ args = 0, pretend = 0, frame = 0
 877              		@ frame_needed = 0, uses_anonymous_args = 0
 878              		@ link register save eliminated.
 879              		.loc 1 540 3 view .LVU203
 880              		.loc 1 542 3 view .LVU204
 881 0000 034A     		ldr	r2, .L87
 882 0002 1368     		ldr	r3, [r2]
 883 0004 23F00203 		bic	r3, r3, #2
 884 0008 0343     		orrs	r3, r3, r0
 885 000a 1360     		str	r3, [r2]
 886              		.loc 1 543 1 is_stmt 0 view .LVU205
 887 000c 7047     		bx	lr
 888              	.L88:
 889 000e 00BF     		.align	2
 890              	.L87:
 891 0010 003C0058 		.word	1476410368
 892              		.cfi_endproc
 893              	.LFE161:
 894              		.size	HAL_SYSCFG_VREFBUF_HighImpedanceConfig, .-HAL_SYSCFG_VREFBUF_HighImpedanceConfig
 895              		.section	.text.HAL_SYSCFG_VREFBUF_TrimmingConfig,"ax",%progbits
 896              		.align	1
 897              		.p2align 4,,15
 898              		.global	HAL_SYSCFG_VREFBUF_TrimmingConfig
 899              		.syntax unified
 900              		.thumb
 901              		.thumb_func
 902              		.type	HAL_SYSCFG_VREFBUF_TrimmingConfig, %function
 903              	HAL_SYSCFG_VREFBUF_TrimmingConfig:
 904              	.LVL30:
 905              	.LFB162:
 906              		.loc 1 550 1 is_stmt 1 view -0
 907              		.cfi_startproc
 908              		@ args = 0, pretend = 0, frame = 0
 909              		@ frame_needed = 0, uses_anonymous_args = 0
 910              		@ link register save eliminated.
 911              		.loc 1 552 3 view .LVU207
 912              		.loc 1 554 3 view .LVU208
ARM GAS  C:\Users\DEVELO~1\AppData\Local\Temp\ccDVlrZl.s 			page 17


 913 0000 034A     		ldr	r2, .L90
 914 0002 5368     		ldr	r3, [r2, #4]
 915 0004 23F03F03 		bic	r3, r3, #63
 916 0008 0343     		orrs	r3, r3, r0
 917 000a 5360     		str	r3, [r2, #4]
 918              		.loc 1 555 1 is_stmt 0 view .LVU209
 919 000c 7047     		bx	lr
 920              	.L91:
 921 000e 00BF     		.align	2
 922              	.L90:
 923 0010 003C0058 		.word	1476410368
 924              		.cfi_endproc
 925              	.LFE162:
 926              		.size	HAL_SYSCFG_VREFBUF_TrimmingConfig, .-HAL_SYSCFG_VREFBUF_TrimmingConfig
 927              		.section	.text.HAL_SYSCFG_EnableVREFBUF,"ax",%progbits
 928              		.align	1
 929              		.p2align 4,,15
 930              		.global	HAL_SYSCFG_EnableVREFBUF
 931              		.syntax unified
 932              		.thumb
 933              		.thumb_func
 934              		.type	HAL_SYSCFG_EnableVREFBUF, %function
 935              	HAL_SYSCFG_EnableVREFBUF:
 936              	.LFB163:
 937              		.loc 1 562 1 is_stmt 1 view -0
 938              		.cfi_startproc
 939              		@ args = 0, pretend = 0, frame = 0
 940              		@ frame_needed = 0, uses_anonymous_args = 0
 941              		.loc 1 563 3 view .LVU211
 942              		.loc 1 565 3 view .LVU212
 943              		.loc 1 562 1 is_stmt 0 view .LVU213
 944 0000 38B5     		push	{r3, r4, r5, lr}
 945              		.cfi_def_cfa_offset 16
 946              		.cfi_offset 3, -16
 947              		.cfi_offset 4, -12
 948              		.cfi_offset 5, -8
 949              		.cfi_offset 14, -4
 950              		.loc 1 565 3 view .LVU214
 951 0002 0A4C     		ldr	r4, .L98
 952 0004 2368     		ldr	r3, [r4]
 953 0006 43F00103 		orr	r3, r3, #1
 954 000a 2360     		str	r3, [r4]
 955              		.loc 1 568 3 is_stmt 1 view .LVU215
 956              		.loc 1 568 15 is_stmt 0 view .LVU216
 957 000c FFF7FEFF 		bl	HAL_GetTick
 958              	.LVL31:
 959 0010 0546     		mov	r5, r0
 960              	.LVL32:
 961              		.loc 1 571 3 is_stmt 1 view .LVU217
 962              		.loc 1 571 8 is_stmt 0 view .LVU218
 963 0012 04E0     		b	.L93
 964              	.LVL33:
 965              	.L95:
 966              		.loc 1 573 9 view .LVU219
 967 0014 FFF7FEFF 		bl	HAL_GetTick
 968              	.LVL34:
 969              		.loc 1 573 23 view .LVU220
ARM GAS  C:\Users\DEVELO~1\AppData\Local\Temp\ccDVlrZl.s 			page 18


 970 0018 401B     		subs	r0, r0, r5
 971              		.loc 1 573 7 view .LVU221
 972 001a 0A28     		cmp	r0, #10
 973 001c 04D8     		bhi	.L96
 974              	.L93:
 975              		.loc 1 573 5 is_stmt 1 view .LVU222
 976              		.loc 1 571 49 view .LVU223
 977              		.loc 1 571 9 is_stmt 0 view .LVU224
 978 001e 2368     		ldr	r3, [r4]
 979              		.loc 1 571 49 view .LVU225
 980 0020 1B07     		lsls	r3, r3, #28
 981 0022 F7D5     		bpl	.L95
 982              		.loc 1 579 10 view .LVU226
 983 0024 0020     		movs	r0, #0
 984              		.loc 1 580 1 view .LVU227
 985 0026 38BD     		pop	{r3, r4, r5, pc}
 986              	.LVL35:
 987              	.L96:
 988              		.loc 1 575 14 view .LVU228
 989 0028 0320     		movs	r0, #3
 990              		.loc 1 580 1 view .LVU229
 991 002a 38BD     		pop	{r3, r4, r5, pc}
 992              	.LVL36:
 993              	.L99:
 994              		.loc 1 580 1 view .LVU230
 995              		.align	2
 996              	.L98:
 997 002c 003C0058 		.word	1476410368
 998              		.cfi_endproc
 999              	.LFE163:
 1000              		.size	HAL_SYSCFG_EnableVREFBUF, .-HAL_SYSCFG_EnableVREFBUF
 1001              		.section	.text.HAL_SYSCFG_DisableVREFBUF,"ax",%progbits
 1002              		.align	1
 1003              		.p2align 4,,15
 1004              		.global	HAL_SYSCFG_DisableVREFBUF
 1005              		.syntax unified
 1006              		.thumb
 1007              		.thumb_func
 1008              		.type	HAL_SYSCFG_DisableVREFBUF, %function
 1009              	HAL_SYSCFG_DisableVREFBUF:
 1010              	.LFB164:
 1011              		.loc 1 588 1 is_stmt 1 view -0
 1012              		.cfi_startproc
 1013              		@ args = 0, pretend = 0, frame = 0
 1014              		@ frame_needed = 0, uses_anonymous_args = 0
 1015              		@ link register save eliminated.
 1016              		.loc 1 589 3 view .LVU232
 1017 0000 024A     		ldr	r2, .L101
 1018 0002 1368     		ldr	r3, [r2]
 1019 0004 23F00103 		bic	r3, r3, #1
 1020 0008 1360     		str	r3, [r2]
 1021              		.loc 1 590 1 is_stmt 0 view .LVU233
 1022 000a 7047     		bx	lr
 1023              	.L102:
 1024              		.align	2
 1025              	.L101:
 1026 000c 003C0058 		.word	1476410368
ARM GAS  C:\Users\DEVELO~1\AppData\Local\Temp\ccDVlrZl.s 			page 19


 1027              		.cfi_endproc
 1028              	.LFE164:
 1029              		.size	HAL_SYSCFG_DisableVREFBUF, .-HAL_SYSCFG_DisableVREFBUF
 1030              		.section	.text.HAL_SYSCFG_ETHInterfaceSelect,"ax",%progbits
 1031              		.align	1
 1032              		.p2align 4,,15
 1033              		.global	HAL_SYSCFG_ETHInterfaceSelect
 1034              		.syntax unified
 1035              		.thumb
 1036              		.thumb_func
 1037              		.type	HAL_SYSCFG_ETHInterfaceSelect, %function
 1038              	HAL_SYSCFG_ETHInterfaceSelect:
 1039              	.LVL37:
 1040              	.LFB165:
 1041              		.loc 1 602 1 is_stmt 1 view -0
 1042              		.cfi_startproc
 1043              		@ args = 0, pretend = 0, frame = 0
 1044              		@ frame_needed = 0, uses_anonymous_args = 0
 1045              		@ link register save eliminated.
 1046              		.loc 1 604 3 view .LVU235
 1047              		.loc 1 606 3 view .LVU236
 1048 0000 034A     		ldr	r2, .L104
 1049 0002 5368     		ldr	r3, [r2, #4]
 1050 0004 23F46003 		bic	r3, r3, #14680064
 1051 0008 0343     		orrs	r3, r3, r0
 1052 000a 5360     		str	r3, [r2, #4]
 1053              		.loc 1 607 1 is_stmt 0 view .LVU237
 1054 000c 7047     		bx	lr
 1055              	.L105:
 1056 000e 00BF     		.align	2
 1057              	.L104:
 1058 0010 00040058 		.word	1476396032
 1059              		.cfi_endproc
 1060              	.LFE165:
 1061              		.size	HAL_SYSCFG_ETHInterfaceSelect, .-HAL_SYSCFG_ETHInterfaceSelect
 1062              		.section	.text.HAL_SYSCFG_AnalogSwitchConfig,"ax",%progbits
 1063              		.align	1
 1064              		.p2align 4,,15
 1065              		.global	HAL_SYSCFG_AnalogSwitchConfig
 1066              		.syntax unified
 1067              		.thumb
 1068              		.thumb_func
 1069              		.type	HAL_SYSCFG_AnalogSwitchConfig, %function
 1070              	HAL_SYSCFG_AnalogSwitchConfig:
 1071              	.LVL38:
 1072              	.LFB166:
 1073              		.loc 1 632 1 is_stmt 1 view -0
 1074              		.cfi_startproc
 1075              		@ args = 0, pretend = 0, frame = 0
 1076              		@ frame_needed = 0, uses_anonymous_args = 0
 1077              		@ link register save eliminated.
 1078              		.loc 1 634 3 view .LVU239
 1079              		.loc 1 635 3 view .LVU240
 1080              		.loc 1 637 3 view .LVU241
 1081 0000 034A     		ldr	r2, .L107
 1082 0002 5368     		ldr	r3, [r2, #4]
 1083 0004 23EA0003 		bic	r3, r3, r0
ARM GAS  C:\Users\DEVELO~1\AppData\Local\Temp\ccDVlrZl.s 			page 20


 1084 0008 0B43     		orrs	r3, r3, r1
 1085 000a 5360     		str	r3, [r2, #4]
 1086              		.loc 1 638 1 is_stmt 0 view .LVU242
 1087 000c 7047     		bx	lr
 1088              	.L108:
 1089 000e 00BF     		.align	2
 1090              	.L107:
 1091 0010 00040058 		.word	1476396032
 1092              		.cfi_endproc
 1093              	.LFE166:
 1094              		.size	HAL_SYSCFG_AnalogSwitchConfig, .-HAL_SYSCFG_AnalogSwitchConfig
 1095              		.section	.text.HAL_SYSCFG_EnableBOOST,"ax",%progbits
 1096              		.align	1
 1097              		.p2align 4,,15
 1098              		.global	HAL_SYSCFG_EnableBOOST
 1099              		.syntax unified
 1100              		.thumb
 1101              		.thumb_func
 1102              		.type	HAL_SYSCFG_EnableBOOST, %function
 1103              	HAL_SYSCFG_EnableBOOST:
 1104              	.LFB167:
 1105              		.loc 1 650 1 is_stmt 1 view -0
 1106              		.cfi_startproc
 1107              		@ args = 0, pretend = 0, frame = 0
 1108              		@ frame_needed = 0, uses_anonymous_args = 0
 1109              		@ link register save eliminated.
 1110              		.loc 1 651 2 view .LVU244
 1111 0000 024A     		ldr	r2, .L110
 1112 0002 5368     		ldr	r3, [r2, #4]
 1113 0004 43F48073 		orr	r3, r3, #256
 1114 0008 5360     		str	r3, [r2, #4]
 1115              		.loc 1 652 1 is_stmt 0 view .LVU245
 1116 000a 7047     		bx	lr
 1117              	.L111:
 1118              		.align	2
 1119              	.L110:
 1120 000c 00040058 		.word	1476396032
 1121              		.cfi_endproc
 1122              	.LFE167:
 1123              		.size	HAL_SYSCFG_EnableBOOST, .-HAL_SYSCFG_EnableBOOST
 1124              		.section	.text.HAL_SYSCFG_DisableBOOST,"ax",%progbits
 1125              		.align	1
 1126              		.p2align 4,,15
 1127              		.global	HAL_SYSCFG_DisableBOOST
 1128              		.syntax unified
 1129              		.thumb
 1130              		.thumb_func
 1131              		.type	HAL_SYSCFG_DisableBOOST, %function
 1132              	HAL_SYSCFG_DisableBOOST:
 1133              	.LFB168:
 1134              		.loc 1 662 1 is_stmt 1 view -0
 1135              		.cfi_startproc
 1136              		@ args = 0, pretend = 0, frame = 0
 1137              		@ frame_needed = 0, uses_anonymous_args = 0
 1138              		@ link register save eliminated.
 1139              		.loc 1 663 2 view .LVU247
 1140 0000 024A     		ldr	r2, .L113
ARM GAS  C:\Users\DEVELO~1\AppData\Local\Temp\ccDVlrZl.s 			page 21


 1141 0002 5368     		ldr	r3, [r2, #4]
 1142 0004 23F48073 		bic	r3, r3, #256
 1143 0008 5360     		str	r3, [r2, #4]
 1144              		.loc 1 664 1 is_stmt 0 view .LVU248
 1145 000a 7047     		bx	lr
 1146              	.L114:
 1147              		.align	2
 1148              	.L113:
 1149 000c 00040058 		.word	1476396032
 1150              		.cfi_endproc
 1151              	.LFE168:
 1152              		.size	HAL_SYSCFG_DisableBOOST, .-HAL_SYSCFG_DisableBOOST
 1153              		.section	.text.HAL_SYSCFG_CM7BootAddConfig,"ax",%progbits
 1154              		.align	1
 1155              		.p2align 4,,15
 1156              		.global	HAL_SYSCFG_CM7BootAddConfig
 1157              		.syntax unified
 1158              		.thumb
 1159              		.thumb_func
 1160              		.type	HAL_SYSCFG_CM7BootAddConfig, %function
 1161              	HAL_SYSCFG_CM7BootAddConfig:
 1162              	.LVL39:
 1163              	.LFB169:
 1164              		.loc 1 678 1 is_stmt 1 view -0
 1165              		.cfi_startproc
 1166              		@ args = 0, pretend = 0, frame = 0
 1167              		@ frame_needed = 0, uses_anonymous_args = 0
 1168              		@ link register save eliminated.
 1169              		.loc 1 680 3 view .LVU250
 1170              		.loc 1 681 3 view .LVU251
 1171              		.loc 1 682 3 view .LVU252
 1172              		.loc 1 682 6 is_stmt 0 view .LVU253
 1173 0000 48B9     		cbnz	r0, .L116
 1174              		.loc 1 688 5 is_stmt 1 view .LVU254
 1175 0002 0A48     		ldr	r0, .L118
 1176              	.LVL40:
 1177              		.loc 1 688 5 is_stmt 0 view .LVU255
 1178 0004 0A4B     		ldr	r3, .L118+4
 1179 0006 D0F80823 		ldr	r2, [r0, #776]
 1180 000a 0B40     		ands	r3, r3, r1
 1181 000c 92B2     		uxth	r2, r2
 1182 000e 1343     		orrs	r3, r3, r2
 1183 0010 C0F80833 		str	r3, [r0, #776]
 1184 0014 7047     		bx	lr
 1185              	.LVL41:
 1186              	.L116:
 1187              		.loc 1 697 5 is_stmt 1 view .LVU256
 1188 0016 054A     		ldr	r2, .L118
 1189 0018 054B     		ldr	r3, .L118+4
 1190 001a D2F80C03 		ldr	r0, [r2, #780]
 1191              	.LVL42:
 1192              		.loc 1 697 5 is_stmt 0 view .LVU257
 1193 001e 0340     		ands	r3, r3, r0
 1194 0020 43EA1143 		orr	r3, r3, r1, lsr #16
 1195 0024 C2F80C33 		str	r3, [r2, #780]
 1196              		.loc 1 700 1 view .LVU258
 1197 0028 7047     		bx	lr
ARM GAS  C:\Users\DEVELO~1\AppData\Local\Temp\ccDVlrZl.s 			page 22


 1198              	.L119:
 1199 002a 00BF     		.align	2
 1200              	.L118:
 1201 002c 00040058 		.word	1476396032
 1202 0030 0000FFFF 		.word	-65536
 1203              		.cfi_endproc
 1204              	.LFE169:
 1205              		.size	HAL_SYSCFG_CM7BootAddConfig, .-HAL_SYSCFG_CM7BootAddConfig
 1206              		.section	.text.HAL_EnableCompensationCell,"ax",%progbits
 1207              		.align	1
 1208              		.p2align 4,,15
 1209              		.global	HAL_EnableCompensationCell
 1210              		.syntax unified
 1211              		.thumb
 1212              		.thumb_func
 1213              		.type	HAL_EnableCompensationCell, %function
 1214              	HAL_EnableCompensationCell:
 1215              	.LFB170:
 1216              		.loc 1 777 1 is_stmt 1 view -0
 1217              		.cfi_startproc
 1218              		@ args = 0, pretend = 0, frame = 0
 1219              		@ frame_needed = 0, uses_anonymous_args = 0
 1220              		@ link register save eliminated.
 1221              		.loc 1 778 3 view .LVU260
 1222 0000 024A     		ldr	r2, .L121
 1223 0002 136A     		ldr	r3, [r2, #32]
 1224 0004 43F00103 		orr	r3, r3, #1
 1225 0008 1362     		str	r3, [r2, #32]
 1226              		.loc 1 779 1 is_stmt 0 view .LVU261
 1227 000a 7047     		bx	lr
 1228              	.L122:
 1229              		.align	2
 1230              	.L121:
 1231 000c 00040058 		.word	1476396032
 1232              		.cfi_endproc
 1233              	.LFE170:
 1234              		.size	HAL_EnableCompensationCell, .-HAL_EnableCompensationCell
 1235              		.section	.text.HAL_DisableCompensationCell,"ax",%progbits
 1236              		.align	1
 1237              		.p2align 4,,15
 1238              		.global	HAL_DisableCompensationCell
 1239              		.syntax unified
 1240              		.thumb
 1241              		.thumb_func
 1242              		.type	HAL_DisableCompensationCell, %function
 1243              	HAL_DisableCompensationCell:
 1244              	.LFB171:
 1245              		.loc 1 788 1 is_stmt 1 view -0
 1246              		.cfi_startproc
 1247              		@ args = 0, pretend = 0, frame = 0
 1248              		@ frame_needed = 0, uses_anonymous_args = 0
 1249              		@ link register save eliminated.
 1250              		.loc 1 789 3 view .LVU263
 1251 0000 024A     		ldr	r2, .L124
 1252 0002 136A     		ldr	r3, [r2, #32]
 1253 0004 23F00103 		bic	r3, r3, #1
 1254 0008 1362     		str	r3, [r2, #32]
ARM GAS  C:\Users\DEVELO~1\AppData\Local\Temp\ccDVlrZl.s 			page 23


 1255              		.loc 1 790 1 is_stmt 0 view .LVU264
 1256 000a 7047     		bx	lr
 1257              	.L125:
 1258              		.align	2
 1259              	.L124:
 1260 000c 00040058 		.word	1476396032
 1261              		.cfi_endproc
 1262              	.LFE171:
 1263              		.size	HAL_DisableCompensationCell, .-HAL_DisableCompensationCell
 1264              		.section	.text.HAL_SYSCFG_EnableIOSpeedOptimize,"ax",%progbits
 1265              		.align	1
 1266              		.p2align 4,,15
 1267              		.global	HAL_SYSCFG_EnableIOSpeedOptimize
 1268              		.syntax unified
 1269              		.thumb
 1270              		.thumb_func
 1271              		.type	HAL_SYSCFG_EnableIOSpeedOptimize, %function
 1272              	HAL_SYSCFG_EnableIOSpeedOptimize:
 1273              	.LFB172:
 1274              		.loc 1 801 1 is_stmt 1 view -0
 1275              		.cfi_startproc
 1276              		@ args = 0, pretend = 0, frame = 0
 1277              		@ frame_needed = 0, uses_anonymous_args = 0
 1278              		@ link register save eliminated.
 1279              		.loc 1 803 3 view .LVU266
 1280 0000 024A     		ldr	r2, .L127
 1281 0002 136A     		ldr	r3, [r2, #32]
 1282 0004 43F48033 		orr	r3, r3, #65536
 1283 0008 1362     		str	r3, [r2, #32]
 1284              		.loc 1 807 1 is_stmt 0 view .LVU267
 1285 000a 7047     		bx	lr
 1286              	.L128:
 1287              		.align	2
 1288              	.L127:
 1289 000c 00040058 		.word	1476396032
 1290              		.cfi_endproc
 1291              	.LFE172:
 1292              		.size	HAL_SYSCFG_EnableIOSpeedOptimize, .-HAL_SYSCFG_EnableIOSpeedOptimize
 1293              		.section	.text.HAL_SYSCFG_DisableIOSpeedOptimize,"ax",%progbits
 1294              		.align	1
 1295              		.p2align 4,,15
 1296              		.global	HAL_SYSCFG_DisableIOSpeedOptimize
 1297              		.syntax unified
 1298              		.thumb
 1299              		.thumb_func
 1300              		.type	HAL_SYSCFG_DisableIOSpeedOptimize, %function
 1301              	HAL_SYSCFG_DisableIOSpeedOptimize:
 1302              	.LFB173:
 1303              		.loc 1 817 1 is_stmt 1 view -0
 1304              		.cfi_startproc
 1305              		@ args = 0, pretend = 0, frame = 0
 1306              		@ frame_needed = 0, uses_anonymous_args = 0
 1307              		@ link register save eliminated.
 1308              		.loc 1 819 3 view .LVU269
 1309 0000 024A     		ldr	r2, .L130
 1310 0002 136A     		ldr	r3, [r2, #32]
 1311 0004 23F48033 		bic	r3, r3, #65536
ARM GAS  C:\Users\DEVELO~1\AppData\Local\Temp\ccDVlrZl.s 			page 24


 1312 0008 1362     		str	r3, [r2, #32]
 1313              		.loc 1 823 1 is_stmt 0 view .LVU270
 1314 000a 7047     		bx	lr
 1315              	.L131:
 1316              		.align	2
 1317              	.L130:
 1318 000c 00040058 		.word	1476396032
 1319              		.cfi_endproc
 1320              	.LFE173:
 1321              		.size	HAL_SYSCFG_DisableIOSpeedOptimize, .-HAL_SYSCFG_DisableIOSpeedOptimize
 1322              		.section	.text.HAL_SYSCFG_CompensationCodeSelect,"ax",%progbits
 1323              		.align	1
 1324              		.p2align 4,,15
 1325              		.global	HAL_SYSCFG_CompensationCodeSelect
 1326              		.syntax unified
 1327              		.thumb
 1328              		.thumb_func
 1329              		.type	HAL_SYSCFG_CompensationCodeSelect, %function
 1330              	HAL_SYSCFG_CompensationCodeSelect:
 1331              	.LVL43:
 1332              	.LFB174:
 1333              		.loc 1 834 1 is_stmt 1 view -0
 1334              		.cfi_startproc
 1335              		@ args = 0, pretend = 0, frame = 0
 1336              		@ frame_needed = 0, uses_anonymous_args = 0
 1337              		@ link register save eliminated.
 1338              		.loc 1 836 3 view .LVU272
 1339              		.loc 1 837 3 view .LVU273
 1340 0000 034A     		ldr	r2, .L133
 1341 0002 136A     		ldr	r3, [r2, #32]
 1342 0004 23F00203 		bic	r3, r3, #2
 1343 0008 0343     		orrs	r3, r3, r0
 1344 000a 1362     		str	r3, [r2, #32]
 1345              		.loc 1 838 1 is_stmt 0 view .LVU274
 1346 000c 7047     		bx	lr
 1347              	.L134:
 1348 000e 00BF     		.align	2
 1349              	.L133:
 1350 0010 00040058 		.word	1476396032
 1351              		.cfi_endproc
 1352              	.LFE174:
 1353              		.size	HAL_SYSCFG_CompensationCodeSelect, .-HAL_SYSCFG_CompensationCodeSelect
 1354              		.section	.text.HAL_SYSCFG_CompensationCodeConfig,"ax",%progbits
 1355              		.align	1
 1356              		.p2align 4,,15
 1357              		.global	HAL_SYSCFG_CompensationCodeConfig
 1358              		.syntax unified
 1359              		.thumb
 1360              		.thumb_func
 1361              		.type	HAL_SYSCFG_CompensationCodeConfig, %function
 1362              	HAL_SYSCFG_CompensationCodeConfig:
 1363              	.LVL44:
 1364              	.LFB175:
 1365              		.loc 1 851 1 is_stmt 1 view -0
 1366              		.cfi_startproc
 1367              		@ args = 0, pretend = 0, frame = 0
 1368              		@ frame_needed = 0, uses_anonymous_args = 0
ARM GAS  C:\Users\DEVELO~1\AppData\Local\Temp\ccDVlrZl.s 			page 25


 1369              		@ link register save eliminated.
 1370              		.loc 1 853 3 view .LVU276
 1371              		.loc 1 854 3 view .LVU277
 1372              		.loc 1 855 3 view .LVU278
 1373 0000 044A     		ldr	r2, .L136
 1374 0002 936A     		ldr	r3, [r2, #40]
 1375 0004 23F0FF03 		bic	r3, r3, #255
 1376 0008 0B43     		orrs	r3, r3, r1
 1377 000a 43EA0013 		orr	r3, r3, r0, lsl #4
 1378 000e 9362     		str	r3, [r2, #40]
 1379              		.loc 1 856 1 is_stmt 0 view .LVU279
 1380 0010 7047     		bx	lr
 1381              	.L137:
 1382 0012 00BF     		.align	2
 1383              	.L136:
 1384 0014 00040058 		.word	1476396032
 1385              		.cfi_endproc
 1386              	.LFE175:
 1387              		.size	HAL_SYSCFG_CompensationCodeConfig, .-HAL_SYSCFG_CompensationCodeConfig
 1388              		.section	.text.HAL_DBGMCU_EnableDBGSleepMode,"ax",%progbits
 1389              		.align	1
 1390              		.p2align 4,,15
 1391              		.global	HAL_DBGMCU_EnableDBGSleepMode
 1392              		.syntax unified
 1393              		.thumb
 1394              		.thumb_func
 1395              		.type	HAL_DBGMCU_EnableDBGSleepMode, %function
 1396              	HAL_DBGMCU_EnableDBGSleepMode:
 1397              	.LFB176:
 1398              		.loc 1 913 1 is_stmt 1 view -0
 1399              		.cfi_startproc
 1400              		@ args = 0, pretend = 0, frame = 0
 1401              		@ frame_needed = 0, uses_anonymous_args = 0
 1402              		@ link register save eliminated.
 1403              		.loc 1 914 3 view .LVU281
 1404 0000 024A     		ldr	r2, .L139
 1405 0002 5368     		ldr	r3, [r2, #4]
 1406 0004 43F00103 		orr	r3, r3, #1
 1407 0008 5360     		str	r3, [r2, #4]
 1408              		.loc 1 915 1 is_stmt 0 view .LVU282
 1409 000a 7047     		bx	lr
 1410              	.L140:
 1411              		.align	2
 1412              	.L139:
 1413 000c 0010005C 		.word	1543507968
 1414              		.cfi_endproc
 1415              	.LFE176:
 1416              		.size	HAL_DBGMCU_EnableDBGSleepMode, .-HAL_DBGMCU_EnableDBGSleepMode
 1417              		.section	.text.HAL_DBGMCU_DisableDBGSleepMode,"ax",%progbits
 1418              		.align	1
 1419              		.p2align 4,,15
 1420              		.global	HAL_DBGMCU_DisableDBGSleepMode
 1421              		.syntax unified
 1422              		.thumb
 1423              		.thumb_func
 1424              		.type	HAL_DBGMCU_DisableDBGSleepMode, %function
 1425              	HAL_DBGMCU_DisableDBGSleepMode:
ARM GAS  C:\Users\DEVELO~1\AppData\Local\Temp\ccDVlrZl.s 			page 26


 1426              	.LFB177:
 1427              		.loc 1 922 1 is_stmt 1 view -0
 1428              		.cfi_startproc
 1429              		@ args = 0, pretend = 0, frame = 0
 1430              		@ frame_needed = 0, uses_anonymous_args = 0
 1431              		@ link register save eliminated.
 1432              		.loc 1 923 3 view .LVU284
 1433 0000 024A     		ldr	r2, .L142
 1434 0002 5368     		ldr	r3, [r2, #4]
 1435 0004 23F00103 		bic	r3, r3, #1
 1436 0008 5360     		str	r3, [r2, #4]
 1437              		.loc 1 924 1 is_stmt 0 view .LVU285
 1438 000a 7047     		bx	lr
 1439              	.L143:
 1440              		.align	2
 1441              	.L142:
 1442 000c 0010005C 		.word	1543507968
 1443              		.cfi_endproc
 1444              	.LFE177:
 1445              		.size	HAL_DBGMCU_DisableDBGSleepMode, .-HAL_DBGMCU_DisableDBGSleepMode
 1446              		.section	.text.HAL_DBGMCU_EnableDBGStopMode,"ax",%progbits
 1447              		.align	1
 1448              		.p2align 4,,15
 1449              		.global	HAL_DBGMCU_EnableDBGStopMode
 1450              		.syntax unified
 1451              		.thumb
 1452              		.thumb_func
 1453              		.type	HAL_DBGMCU_EnableDBGStopMode, %function
 1454              	HAL_DBGMCU_EnableDBGStopMode:
 1455              	.LFB178:
 1456              		.loc 1 932 1 is_stmt 1 view -0
 1457              		.cfi_startproc
 1458              		@ args = 0, pretend = 0, frame = 0
 1459              		@ frame_needed = 0, uses_anonymous_args = 0
 1460              		@ link register save eliminated.
 1461              		.loc 1 933 3 view .LVU287
 1462 0000 024A     		ldr	r2, .L145
 1463 0002 5368     		ldr	r3, [r2, #4]
 1464 0004 43F00203 		orr	r3, r3, #2
 1465 0008 5360     		str	r3, [r2, #4]
 1466              		.loc 1 934 1 is_stmt 0 view .LVU288
 1467 000a 7047     		bx	lr
 1468              	.L146:
 1469              		.align	2
 1470              	.L145:
 1471 000c 0010005C 		.word	1543507968
 1472              		.cfi_endproc
 1473              	.LFE178:
 1474              		.size	HAL_DBGMCU_EnableDBGStopMode, .-HAL_DBGMCU_EnableDBGStopMode
 1475              		.section	.text.HAL_DBGMCU_DisableDBGStopMode,"ax",%progbits
 1476              		.align	1
 1477              		.p2align 4,,15
 1478              		.global	HAL_DBGMCU_DisableDBGStopMode
 1479              		.syntax unified
 1480              		.thumb
 1481              		.thumb_func
 1482              		.type	HAL_DBGMCU_DisableDBGStopMode, %function
ARM GAS  C:\Users\DEVELO~1\AppData\Local\Temp\ccDVlrZl.s 			page 27


 1483              	HAL_DBGMCU_DisableDBGStopMode:
 1484              	.LFB179:
 1485              		.loc 1 941 1 is_stmt 1 view -0
 1486              		.cfi_startproc
 1487              		@ args = 0, pretend = 0, frame = 0
 1488              		@ frame_needed = 0, uses_anonymous_args = 0
 1489              		@ link register save eliminated.
 1490              		.loc 1 942 3 view .LVU290
 1491 0000 024A     		ldr	r2, .L148
 1492 0002 5368     		ldr	r3, [r2, #4]
 1493 0004 23F00203 		bic	r3, r3, #2
 1494 0008 5360     		str	r3, [r2, #4]
 1495              		.loc 1 943 1 is_stmt 0 view .LVU291
 1496 000a 7047     		bx	lr
 1497              	.L149:
 1498              		.align	2
 1499              	.L148:
 1500 000c 0010005C 		.word	1543507968
 1501              		.cfi_endproc
 1502              	.LFE179:
 1503              		.size	HAL_DBGMCU_DisableDBGStopMode, .-HAL_DBGMCU_DisableDBGStopMode
 1504              		.section	.text.HAL_DBGMCU_EnableDBGStandbyMode,"ax",%progbits
 1505              		.align	1
 1506              		.p2align 4,,15
 1507              		.global	HAL_DBGMCU_EnableDBGStandbyMode
 1508              		.syntax unified
 1509              		.thumb
 1510              		.thumb_func
 1511              		.type	HAL_DBGMCU_EnableDBGStandbyMode, %function
 1512              	HAL_DBGMCU_EnableDBGStandbyMode:
 1513              	.LFB180:
 1514              		.loc 1 950 1 is_stmt 1 view -0
 1515              		.cfi_startproc
 1516              		@ args = 0, pretend = 0, frame = 0
 1517              		@ frame_needed = 0, uses_anonymous_args = 0
 1518              		@ link register save eliminated.
 1519              		.loc 1 951 3 view .LVU293
 1520 0000 024A     		ldr	r2, .L151
 1521 0002 5368     		ldr	r3, [r2, #4]
 1522 0004 43F00403 		orr	r3, r3, #4
 1523 0008 5360     		str	r3, [r2, #4]
 1524              		.loc 1 952 1 is_stmt 0 view .LVU294
 1525 000a 7047     		bx	lr
 1526              	.L152:
 1527              		.align	2
 1528              	.L151:
 1529 000c 0010005C 		.word	1543507968
 1530              		.cfi_endproc
 1531              	.LFE180:
 1532              		.size	HAL_DBGMCU_EnableDBGStandbyMode, .-HAL_DBGMCU_EnableDBGStandbyMode
 1533              		.section	.text.HAL_DBGMCU_DisableDBGStandbyMode,"ax",%progbits
 1534              		.align	1
 1535              		.p2align 4,,15
 1536              		.global	HAL_DBGMCU_DisableDBGStandbyMode
 1537              		.syntax unified
 1538              		.thumb
 1539              		.thumb_func
ARM GAS  C:\Users\DEVELO~1\AppData\Local\Temp\ccDVlrZl.s 			page 28


 1540              		.type	HAL_DBGMCU_DisableDBGStandbyMode, %function
 1541              	HAL_DBGMCU_DisableDBGStandbyMode:
 1542              	.LFB181:
 1543              		.loc 1 959 1 is_stmt 1 view -0
 1544              		.cfi_startproc
 1545              		@ args = 0, pretend = 0, frame = 0
 1546              		@ frame_needed = 0, uses_anonymous_args = 0
 1547              		@ link register save eliminated.
 1548              		.loc 1 960 3 view .LVU296
 1549 0000 024A     		ldr	r2, .L154
 1550 0002 5368     		ldr	r3, [r2, #4]
 1551 0004 23F00403 		bic	r3, r3, #4
 1552 0008 5360     		str	r3, [r2, #4]
 1553              		.loc 1 961 1 is_stmt 0 view .LVU297
 1554 000a 7047     		bx	lr
 1555              	.L155:
 1556              		.align	2
 1557              	.L154:
 1558 000c 0010005C 		.word	1543507968
 1559              		.cfi_endproc
 1560              	.LFE181:
 1561              		.size	HAL_DBGMCU_DisableDBGStandbyMode, .-HAL_DBGMCU_DisableDBGStandbyMode
 1562              		.section	.text.HAL_SetFMCMemorySwappingConfig,"ax",%progbits
 1563              		.align	1
 1564              		.p2align 4,,15
 1565              		.global	HAL_SetFMCMemorySwappingConfig
 1566              		.syntax unified
 1567              		.thumb
 1568              		.thumb_func
 1569              		.type	HAL_SetFMCMemorySwappingConfig, %function
 1570              	HAL_SetFMCMemorySwappingConfig:
 1571              	.LVL45:
 1572              	.LFB182:
 1573              		.loc 1 1066 1 is_stmt 1 view -0
 1574              		.cfi_startproc
 1575              		@ args = 0, pretend = 0, frame = 0
 1576              		@ frame_needed = 0, uses_anonymous_args = 0
 1577              		@ link register save eliminated.
 1578              		.loc 1 1068 3 view .LVU299
 1579              		.loc 1 1069 3 view .LVU300
 1580 0000 034A     		ldr	r2, .L157
 1581 0002 1368     		ldr	r3, [r2]
 1582 0004 23F04073 		bic	r3, r3, #50331648
 1583 0008 0343     		orrs	r3, r3, r0
 1584 000a 1360     		str	r3, [r2]
 1585              		.loc 1 1070 1 is_stmt 0 view .LVU301
 1586 000c 7047     		bx	lr
 1587              	.L158:
 1588 000e 00BF     		.align	2
 1589              	.L157:
 1590 0010 00400052 		.word	1375748096
 1591              		.cfi_endproc
 1592              	.LFE182:
 1593              		.size	HAL_SetFMCMemorySwappingConfig, .-HAL_SetFMCMemorySwappingConfig
 1594              		.section	.text.HAL_GetFMCMemorySwappingConfig,"ax",%progbits
 1595              		.align	1
 1596              		.p2align 4,,15
ARM GAS  C:\Users\DEVELO~1\AppData\Local\Temp\ccDVlrZl.s 			page 29


 1597              		.global	HAL_GetFMCMemorySwappingConfig
 1598              		.syntax unified
 1599              		.thumb
 1600              		.thumb_func
 1601              		.type	HAL_GetFMCMemorySwappingConfig, %function
 1602              	HAL_GetFMCMemorySwappingConfig:
 1603              	.LFB183:
 1604              		.loc 1 1078 1 is_stmt 1 view -0
 1605              		.cfi_startproc
 1606              		@ args = 0, pretend = 0, frame = 0
 1607              		@ frame_needed = 0, uses_anonymous_args = 0
 1608              		@ link register save eliminated.
 1609              		.loc 1 1079 3 view .LVU303
 1610              		.loc 1 1079 10 is_stmt 0 view .LVU304
 1611 0000 024B     		ldr	r3, .L160
 1612 0002 1868     		ldr	r0, [r3]
 1613              		.loc 1 1080 1 view .LVU305
 1614 0004 00F04070 		and	r0, r0, #50331648
 1615 0008 7047     		bx	lr
 1616              	.L161:
 1617 000a 00BF     		.align	2
 1618              	.L160:
 1619 000c 00400052 		.word	1375748096
 1620              		.cfi_endproc
 1621              	.LFE183:
 1622              		.size	HAL_GetFMCMemorySwappingConfig, .-HAL_GetFMCMemorySwappingConfig
 1623              		.section	.text.HAL_EXTI_EdgeConfig,"ax",%progbits
 1624              		.align	1
 1625              		.p2align 4,,15
 1626              		.global	HAL_EXTI_EdgeConfig
 1627              		.syntax unified
 1628              		.thumb
 1629              		.thumb_func
 1630              		.type	HAL_EXTI_EdgeConfig, %function
 1631              	HAL_EXTI_EdgeConfig:
 1632              	.LVL46:
 1633              	.LFB184:
 1634              		.loc 1 1095 1 is_stmt 1 view -0
 1635              		.cfi_startproc
 1636              		@ args = 0, pretend = 0, frame = 0
 1637              		@ frame_needed = 0, uses_anonymous_args = 0
 1638              		@ link register save eliminated.
 1639              		.loc 1 1097 3 view .LVU307
 1640              		.loc 1 1098 3 view .LVU308
 1641              		.loc 1 1101 3 view .LVU309
 1642 0000 20F01F02 		bic	r2, r0, #31
 1643 0004 0123     		movs	r3, #1
 1644 0006 00F01F00 		and	r0, r0, #31
 1645              	.LVL47:
 1646              		.loc 1 1095 1 is_stmt 0 view .LVU310
 1647 000a 30B4     		push	{r4, r5}
 1648              		.cfi_def_cfa_offset 8
 1649              		.cfi_offset 4, -8
 1650              		.cfi_offset 5, -4
 1651              		.loc 1 1101 3 view .LVU311
 1652 000c 0B4C     		ldr	r4, .L172
 1653 000e 8340     		lsls	r3, r3, r0
ARM GAS  C:\Users\DEVELO~1\AppData\Local\Temp\ccDVlrZl.s 			page 30


 1654              		.loc 1 1102 3 view .LVU312
 1655 0010 02F1B040 		add	r0, r2, #1476395008
 1656              		.loc 1 1101 3 view .LVU313
 1657 0014 1559     		ldr	r5, [r2, r4]
 1658 0016 25EA0305 		bic	r5, r5, r3
 1659 001a 1551     		str	r5, [r2, r4]
 1660              		.loc 1 1102 3 is_stmt 1 view .LVU314
 1661 001c 0568     		ldr	r5, [r0]
 1662 001e 25EA0305 		bic	r5, r5, r3
 1663 0022 0560     		str	r5, [r0]
 1664              		.loc 1 1104 3 view .LVU315
 1665              		.loc 1 1104 5 is_stmt 0 view .LVU316
 1666 0024 CD02     		lsls	r5, r1, #11
 1667 0026 02D5     		bpl	.L163
 1668              		.loc 1 1106 4 is_stmt 1 view .LVU317
 1669 0028 0568     		ldr	r5, [r0]
 1670 002a 1D43     		orrs	r5, r5, r3
 1671 002c 0560     		str	r5, [r0]
 1672              	.L163:
 1673              		.loc 1 1108 3 view .LVU318
 1674              		.loc 1 1108 5 is_stmt 0 view .LVU319
 1675 002e 8902     		lsls	r1, r1, #10
 1676              	.LVL48:
 1677              		.loc 1 1108 5 view .LVU320
 1678 0030 02D5     		bpl	.L162
 1679              		.loc 1 1110 4 is_stmt 1 view .LVU321
 1680 0032 1159     		ldr	r1, [r2, r4]
 1681 0034 0B43     		orrs	r3, r3, r1
 1682 0036 1351     		str	r3, [r2, r4]
 1683              	.L162:
 1684              		.loc 1 1112 1 is_stmt 0 view .LVU322
 1685 0038 30BC     		pop	{r4, r5}
 1686              		.cfi_restore 5
 1687              		.cfi_restore 4
 1688              		.cfi_def_cfa_offset 0
 1689 003a 7047     		bx	lr
 1690              	.L173:
 1691              		.align	2
 1692              	.L172:
 1693 003c 04000058 		.word	1476395012
 1694              		.cfi_endproc
 1695              	.LFE184:
 1696              		.size	HAL_EXTI_EdgeConfig, .-HAL_EXTI_EdgeConfig
 1697              		.section	.text.HAL_EXTI_GenerateSWInterrupt,"ax",%progbits
 1698              		.align	1
 1699              		.p2align 4,,15
 1700              		.global	HAL_EXTI_GenerateSWInterrupt
 1701              		.syntax unified
 1702              		.thumb
 1703              		.thumb_func
 1704              		.type	HAL_EXTI_GenerateSWInterrupt, %function
 1705              	HAL_EXTI_GenerateSWInterrupt:
 1706              	.LVL49:
 1707              	.LFB185:
 1708              		.loc 1 1121 1 is_stmt 1 view -0
 1709              		.cfi_startproc
 1710              		@ args = 0, pretend = 0, frame = 0
ARM GAS  C:\Users\DEVELO~1\AppData\Local\Temp\ccDVlrZl.s 			page 31


 1711              		@ frame_needed = 0, uses_anonymous_args = 0
 1712              		@ link register save eliminated.
 1713              		.loc 1 1123 3 view .LVU324
 1714              		.loc 1 1125 3 view .LVU325
 1715 0000 20F01F01 		bic	r1, r0, #31
 1716 0004 044A     		ldr	r2, .L175
 1717 0006 00F01F00 		and	r0, r0, #31
 1718              	.LVL50:
 1719              		.loc 1 1125 3 is_stmt 0 view .LVU326
 1720 000a 0123     		movs	r3, #1
 1721 000c 8340     		lsls	r3, r3, r0
 1722 000e 8858     		ldr	r0, [r1, r2]
 1723 0010 0343     		orrs	r3, r3, r0
 1724 0012 8B50     		str	r3, [r1, r2]
 1725              		.loc 1 1126 1 view .LVU327
 1726 0014 7047     		bx	lr
 1727              	.L176:
 1728 0016 00BF     		.align	2
 1729              	.L175:
 1730 0018 08000058 		.word	1476395016
 1731              		.cfi_endproc
 1732              	.LFE185:
 1733              		.size	HAL_EXTI_GenerateSWInterrupt, .-HAL_EXTI_GenerateSWInterrupt
 1734              		.section	.text.HAL_EXTI_D1_ClearFlag,"ax",%progbits
 1735              		.align	1
 1736              		.p2align 4,,15
 1737              		.global	HAL_EXTI_D1_ClearFlag
 1738              		.syntax unified
 1739              		.thumb
 1740              		.thumb_func
 1741              		.type	HAL_EXTI_D1_ClearFlag, %function
 1742              	HAL_EXTI_D1_ClearFlag:
 1743              	.LVL51:
 1744              	.LFB186:
 1745              		.loc 1 1136 1 is_stmt 1 view -0
 1746              		.cfi_startproc
 1747              		@ args = 0, pretend = 0, frame = 0
 1748              		@ frame_needed = 0, uses_anonymous_args = 0
 1749              		@ link register save eliminated.
 1750              		.loc 1 1138 2 view .LVU329
 1751              		.loc 1 1139 2 view .LVU330
 1752 0000 4309     		lsrs	r3, r0, #5
 1753 0002 0122     		movs	r2, #1
 1754 0004 00F01F00 		and	r0, r0, #31
 1755              	.LVL52:
 1756              		.loc 1 1139 2 is_stmt 0 view .LVU331
 1757 0008 0249     		ldr	r1, .L178
 1758 000a 1B01     		lsls	r3, r3, #4
 1759 000c 8240     		lsls	r2, r2, r0
 1760 000e 5A50     		str	r2, [r3, r1]
 1761              		.loc 1 1141 1 view .LVU332
 1762 0010 7047     		bx	lr
 1763              	.L179:
 1764 0012 00BF     		.align	2
 1765              	.L178:
 1766 0014 88000058 		.word	1476395144
 1767              		.cfi_endproc
ARM GAS  C:\Users\DEVELO~1\AppData\Local\Temp\ccDVlrZl.s 			page 32


 1768              	.LFE186:
 1769              		.size	HAL_EXTI_D1_ClearFlag, .-HAL_EXTI_D1_ClearFlag
 1770              		.section	.text.HAL_EXTI_D1_EventInputConfig,"ax",%progbits
 1771              		.align	1
 1772              		.p2align 4,,15
 1773              		.global	HAL_EXTI_D1_EventInputConfig
 1774              		.syntax unified
 1775              		.thumb
 1776              		.thumb_func
 1777              		.type	HAL_EXTI_D1_EventInputConfig, %function
 1778              	HAL_EXTI_D1_EventInputConfig:
 1779              	.LVL53:
 1780              	.LFB187:
 1781              		.loc 1 1171 1 is_stmt 1 view -0
 1782              		.cfi_startproc
 1783              		@ args = 0, pretend = 0, frame = 0
 1784              		@ frame_needed = 0, uses_anonymous_args = 0
 1785              		@ link register save eliminated.
 1786              		.loc 1 1173 3 view .LVU334
 1787              		.loc 1 1174 3 view .LVU335
 1788              		.loc 1 1176 3 view .LVU336
 1789              		.loc 1 1171 1 is_stmt 0 view .LVU337
 1790 0000 10B4     		push	{r4}
 1791              		.cfi_def_cfa_offset 4
 1792              		.cfi_offset 4, -4
 1793              		.loc 1 1176 5 view .LVU338
 1794 0002 CC03     		lsls	r4, r1, #15
 1795 0004 1BD5     		bpl	.L181
 1796              		.loc 1 1178 6 is_stmt 1 view .LVU339
 1797              		.loc 1 1181 9 is_stmt 0 view .LVU340
 1798 0006 224B     		ldr	r3, .L193
 1799 0008 00F01F04 		and	r4, r0, #31
 1800              		.loc 1 1178 8 view .LVU341
 1801 000c 22BB     		cbnz	r2, .L182
 1802              		.loc 1 1181 9 is_stmt 1 view .LVU342
 1803 000e 03EB5013 		add	r3, r3, r0, lsr #5
 1804 0012 4FF0010C 		mov	ip, #1
 1805 0016 4209     		lsrs	r2, r0, #5
 1806              	.LVL54:
 1807              		.loc 1 1181 9 is_stmt 0 view .LVU343
 1808 0018 1B01     		lsls	r3, r3, #4
 1809 001a 0CFA04F0 		lsl	r0, ip, r4
 1810              	.LVL55:
 1811              		.loc 1 1181 9 view .LVU344
 1812 001e 1C68     		ldr	r4, [r3]
 1813 0020 6FEA000C 		mvn	ip, r0
 1814 0024 24EA0000 		bic	r0, r4, r0
 1815 0028 1860     		str	r0, [r3]
 1816              		.loc 1 1189 3 is_stmt 1 view .LVU345
 1817              		.loc 1 1189 5 is_stmt 0 view .LVU346
 1818 002a 8803     		lsls	r0, r1, #14
 1819 002c 05D5     		bpl	.L180
 1820              	.L183:
 1821              		.loc 1 1194 7 is_stmt 1 view .LVU347
 1822 002e 1301     		lsls	r3, r2, #4
 1823 0030 1849     		ldr	r1, .L193+4
 1824              	.LVL56:
ARM GAS  C:\Users\DEVELO~1\AppData\Local\Temp\ccDVlrZl.s 			page 33


 1825              		.loc 1 1194 7 is_stmt 0 view .LVU348
 1826 0032 5A58     		ldr	r2, [r3, r1]
 1827 0034 02EA0C02 		and	r2, r2, ip
 1828 0038 5A50     		str	r2, [r3, r1]
 1829              	.L180:
 1830              		.loc 1 1201 1 view .LVU349
 1831 003a 10BC     		pop	{r4}
 1832              		.cfi_remember_state
 1833              		.cfi_restore 4
 1834              		.cfi_def_cfa_offset 0
 1835 003c 7047     		bx	lr
 1836              	.LVL57:
 1837              	.L181:
 1838              		.cfi_restore_state
 1839              		.loc 1 1189 3 is_stmt 1 view .LVU350
 1840              		.loc 1 1189 5 is_stmt 0 view .LVU351
 1841 003e 8B03     		lsls	r3, r1, #14
 1842 0040 FBD5     		bpl	.L180
 1843              		.loc 1 1191 5 is_stmt 1 view .LVU352
 1844              		.loc 1 1181 9 is_stmt 0 view .LVU353
 1845 0042 00F01F03 		and	r3, r0, #31
 1846              		.loc 1 1191 7 view .LVU354
 1847 0046 F2B9     		cbnz	r2, .L192
 1848              		.loc 1 1181 9 view .LVU355
 1849 0048 4FF0010C 		mov	ip, #1
 1850 004c 4209     		lsrs	r2, r0, #5
 1851              	.LVL58:
 1852              		.loc 1 1181 9 view .LVU356
 1853 004e 0CFA03FC 		lsl	ip, ip, r3
 1854 0052 6FEA0C0C 		mvn	ip, ip
 1855 0056 EAE7     		b	.L183
 1856              	.LVL59:
 1857              	.L182:
 1858              		.loc 1 1185 9 is_stmt 1 view .LVU357
 1859 0058 03EB5013 		add	r3, r3, r0, lsr #5
 1860 005c 0122     		movs	r2, #1
 1861              	.LVL60:
 1862              		.loc 1 1185 9 is_stmt 0 view .LVU358
 1863 005e 4FEA501C 		lsr	ip, r0, #5
 1864              		.loc 1 1189 5 view .LVU359
 1865 0062 8903     		lsls	r1, r1, #14
 1866              	.LVL61:
 1867              		.loc 1 1185 9 view .LVU360
 1868 0064 4FEA0313 		lsl	r3, r3, #4
 1869 0068 02FA04F2 		lsl	r2, r2, r4
 1870 006c 1868     		ldr	r0, [r3]
 1871              	.LVL62:
 1872              		.loc 1 1185 9 view .LVU361
 1873 006e 40EA0200 		orr	r0, r0, r2
 1874 0072 1860     		str	r0, [r3]
 1875              		.loc 1 1189 3 is_stmt 1 view .LVU362
 1876              		.loc 1 1189 5 is_stmt 0 view .LVU363
 1877 0074 E1D5     		bpl	.L180
 1878              	.L185:
 1879              		.loc 1 1198 7 is_stmt 1 view .LVU364
 1880 0076 4FEA0C13 		lsl	r3, ip, #4
 1881 007a 0648     		ldr	r0, .L193+4
ARM GAS  C:\Users\DEVELO~1\AppData\Local\Temp\ccDVlrZl.s 			page 34


 1882              		.loc 1 1201 1 is_stmt 0 view .LVU365
 1883 007c 10BC     		pop	{r4}
 1884              		.cfi_remember_state
 1885              		.cfi_restore 4
 1886              		.cfi_def_cfa_offset 0
 1887              		.loc 1 1198 7 view .LVU366
 1888 007e 1958     		ldr	r1, [r3, r0]
 1889 0080 0A43     		orrs	r2, r2, r1
 1890 0082 1A50     		str	r2, [r3, r0]
 1891              		.loc 1 1201 1 view .LVU367
 1892 0084 7047     		bx	lr
 1893              	.LVL63:
 1894              	.L192:
 1895              		.cfi_restore_state
 1896              		.loc 1 1181 9 view .LVU368
 1897 0086 0122     		movs	r2, #1
 1898              	.LVL64:
 1899              		.loc 1 1181 9 view .LVU369
 1900 0088 4FEA501C 		lsr	ip, r0, #5
 1901 008c 9A40     		lsls	r2, r2, r3
 1902 008e F2E7     		b	.L185
 1903              	.L194:
 1904              		.align	2
 1905              	.L193:
 1906 0090 08008005 		.word	92274696
 1907 0094 84000058 		.word	1476395140
 1908              		.cfi_endproc
 1909              	.LFE187:
 1910              		.size	HAL_EXTI_D1_EventInputConfig, .-HAL_EXTI_D1_EventInputConfig
 1911              		.section	.text.HAL_EXTI_D3_EventInputConfig,"ax",%progbits
 1912              		.align	1
 1913              		.p2align 4,,15
 1914              		.global	HAL_EXTI_D3_EventInputConfig
 1915              		.syntax unified
 1916              		.thumb
 1917              		.thumb_func
 1918              		.type	HAL_EXTI_D3_EventInputConfig, %function
 1919              	HAL_EXTI_D3_EventInputConfig:
 1920              	.LVL65:
 1921              	.LFB188:
 1922              		.loc 1 1265 1 is_stmt 1 view -0
 1923              		.cfi_startproc
 1924              		@ args = 0, pretend = 0, frame = 0
 1925              		@ frame_needed = 0, uses_anonymous_args = 0
 1926              		.loc 1 1266 3 view .LVU371
 1927              		.loc 1 1269 3 view .LVU372
 1928              		.loc 1 1270 3 view .LVU373
 1929              		.loc 1 1272 3 view .LVU374
 1930              		.loc 1 1265 1 is_stmt 0 view .LVU375
 1931 0000 9446     		mov	ip, r2
 1932              		.loc 1 1275 5 view .LVU376
 1933 0002 20F01F02 		bic	r2, r0, #31
 1934              	.LVL66:
 1935              		.loc 1 1265 1 view .LVU377
 1936 0006 10B5     		push	{r4, lr}
 1937              		.cfi_def_cfa_offset 8
 1938              		.cfi_offset 4, -8
ARM GAS  C:\Users\DEVELO~1\AppData\Local\Temp\ccDVlrZl.s 			page 35


 1939              		.cfi_offset 14, -4
 1940              		.loc 1 1272 5 view .LVU378
 1941 0008 F9B9     		cbnz	r1, .L196
 1942              		.loc 1 1275 5 is_stmt 1 view .LVU379
 1943 000a 154C     		ldr	r4, .L201
 1944 000c 00F01F0E 		and	lr, r0, #31
 1945 0010 0121     		movs	r1, #1
 1946              	.LVL67:
 1947              		.loc 1 1275 5 is_stmt 0 view .LVU380
 1948 0012 1359     		ldr	r3, [r2, r4]
 1949 0014 01FA0EF1 		lsl	r1, r1, lr
 1950 0018 23EA0103 		bic	r3, r3, r1
 1951 001c 1351     		str	r3, [r2, r4]
 1952              	.L197:
 1953              		.loc 1 1282 3 is_stmt 1 view .LVU381
 1954              		.loc 1 1284 5 view .LVU382
 1955              		.loc 1 1288 5 view .LVU383
 1956              		.loc 1 1282 5 is_stmt 0 view .LVU384
 1957 001e C306     		lsls	r3, r0, #27
 1958              		.loc 1 1290 3 view .LVU385
 1959 0020 4FEA4000 		lsl	r0, r0, #1
 1960              	.LVL68:
 1961              		.loc 1 1290 3 view .LVU386
 1962 0024 4FF0030E 		mov	lr, #3
 1963              		.loc 1 1284 62 view .LVU387
 1964 0028 58BF     		it	pl
 1965 002a 0E4B     		ldrpl	r3, .L201+4
 1966              		.loc 1 1290 3 view .LVU388
 1967 002c 00F01E00 		and	r0, r0, #30
 1968              		.loc 1 1288 62 view .LVU389
 1969 0030 48BF     		it	mi
 1970 0032 0D4B     		ldrmi	r3, .L201+8
 1971              		.loc 1 1290 3 view .LVU390
 1972 0034 0EFA00FE 		lsl	lr, lr, r0
 1973 0038 0CFA00F1 		lsl	r1, ip, r0
 1974              		.loc 1 1288 62 view .LVU391
 1975 003c 1344     		add	r3, r3, r2
 1976              	.LVL69:
 1977              		.loc 1 1290 3 is_stmt 1 view .LVU392
 1978 003e 1A68     		ldr	r2, [r3]
 1979 0040 22EA0E02 		bic	r2, r2, lr
 1980 0044 0A43     		orrs	r2, r2, r1
 1981 0046 1A60     		str	r2, [r3]
 1982              		.loc 1 1292 1 is_stmt 0 view .LVU393
 1983 0048 10BD     		pop	{r4, pc}
 1984              	.LVL70:
 1985              	.L196:
 1986              		.loc 1 1279 5 is_stmt 1 view .LVU394
 1987 004a 0549     		ldr	r1, .L201
 1988              	.LVL71:
 1989              		.loc 1 1279 5 is_stmt 0 view .LVU395
 1990 004c 00F01F0E 		and	lr, r0, #31
 1991 0050 0123     		movs	r3, #1
 1992 0052 5458     		ldr	r4, [r2, r1]
 1993 0054 03FA0EF3 		lsl	r3, r3, lr
 1994 0058 2343     		orrs	r3, r3, r4
 1995 005a 5350     		str	r3, [r2, r1]
ARM GAS  C:\Users\DEVELO~1\AppData\Local\Temp\ccDVlrZl.s 			page 36


 1996 005c DFE7     		b	.L197
 1997              	.L202:
 1998 005e 00BF     		.align	2
 1999              	.L201:
 2000 0060 0C000058 		.word	1476395020
 2001 0064 10000058 		.word	1476395024
 2002 0068 14000058 		.word	1476395028
 2003              		.cfi_endproc
 2004              	.LFE188:
 2005              		.size	HAL_EXTI_D3_EventInputConfig, .-HAL_EXTI_D3_EventInputConfig
 2006              		.global	uwTickFreq
 2007              		.global	uwTickPrio
 2008              		.global	uwTick
 2009              		.section	.bss.uwTick,"aw",%nobits
 2010              		.align	2
 2011              		.set	.LANCHOR2,. + 0
 2012              		.type	uwTick, %object
 2013              		.size	uwTick, 4
 2014              	uwTick:
 2015 0000 00000000 		.space	4
 2016              		.section	.data.uwTickFreq,"aw"
 2017              		.set	.LANCHOR0,. + 0
 2018              		.type	uwTickFreq, %object
 2019              		.size	uwTickFreq, 1
 2020              	uwTickFreq:
 2021 0000 01       		.byte	1
 2022              		.section	.data.uwTickPrio,"aw"
 2023              		.align	2
 2024              		.set	.LANCHOR1,. + 0
 2025              		.type	uwTickPrio, %object
 2026              		.size	uwTickPrio, 4
 2027              	uwTickPrio:
 2028 0000 10000000 		.word	16
 2029              		.text
 2030              	.Letext0:
 2031              		.file 2 "../../../os/common/ext/ST/STM32H7xx/stm32h743xx.h"
 2032              		.file 3 "c:\\chibistudio\\tools\\gnu tools arm embedded\\11.3 2022.08\\arm-none-eabi\\include\\mac
 2033              		.file 4 "c:\\chibistudio\\tools\\gnu tools arm embedded\\11.3 2022.08\\arm-none-eabi\\include\\sys
 2034              		.file 5 "../../../os/common/ext/ARM/CMSIS/Core/Include/core_cm7.h"
 2035              		.file 6 "../../../os/common/ext/ST/STM32H7xx/system_stm32h7xx.h"
 2036              		.file 7 "./drivers/stm32h7xx-hal-driver/Inc/stm32h7xx_hal_def.h"
 2037              		.file 8 "./drivers/stm32h7xx-hal-driver/Inc/stm32h7xx_hal.h"
 2038              		.file 9 "./drivers/stm32h7xx-hal-driver/Inc/stm32h7xx_hal_cortex.h"
 2039              		.file 10 "./drivers/stm32h7xx-hal-driver/Inc/stm32h7xx_hal_rcc.h"