ARM GAS  C:\Users\DEVELO~1\AppData\Local\Temp\cc15HDCU.s 			page 1


   1              		.cpu cortex-m7
   2              		.arch armv7e-m
   3              		.fpu softvfp
   4              		.eabi_attribute 20, 1
   5              		.eabi_attribute 21, 1
   6              		.eabi_attribute 23, 3
   7              		.eabi_attribute 24, 1
   8              		.eabi_attribute 25, 1
   9              		.eabi_attribute 26, 1
  10              		.eabi_attribute 30, 2
  11              		.eabi_attribute 34, 1
  12              		.eabi_attribute 18, 4
  13              		.file	"stm32h7xx_ll_usb.c"
  14              		.text
  15              	.Ltext0:
  16              		.cfi_sections	.debug_frame
  17              		.section	.text.USB_CoreReset,"ax",%progbits
  18              		.align	1
  19              		.p2align 4,,15
  20              		.syntax unified
  21              		.thumb
  22              		.thumb_func
  23              		.type	USB_CoreReset, %function
  24              	USB_CoreReset:
  25              	.LVL0:
  26              	.LFB175:
  27              		.file 1 "./drivers/stm32h7xx-hal-driver/Src/stm32h7xx_ll_usb.c"
  28              		.loc 1 1386 1 view -0
  29              		.cfi_startproc
  30              		@ args = 0, pretend = 0, frame = 8
  31              		@ frame_needed = 0, uses_anonymous_args = 0
  32              		@ link register save eliminated.
  33              		.loc 1 1387 3 view .LVU1
  34              		.loc 1 1386 1 is_stmt 0 view .LVU2
  35 0000 82B0     		sub	sp, sp, #8
  36              		.cfi_def_cfa_offset 8
  37              		.loc 1 1387 17 view .LVU3
  38 0002 0023     		movs	r3, #0
  39 0004 0193     		str	r3, [sp, #4]
  40 0006 02E0     		b	.L3
  41              	.L11:
  42              		.loc 1 1398 17 view .LVU4
  43 0008 0369     		ldr	r3, [r0, #16]
  44              		.loc 1 1398 53 view .LVU5
  45 000a 002B     		cmp	r3, #0
  46 000c 09DB     		blt	.L10
  47              	.L3:
  48              		.loc 1 1390 3 is_stmt 1 view .LVU6
  49              		.loc 1 1392 5 view .LVU7
  50              		.loc 1 1398 53 view .LVU8
  51              		.loc 1 1392 10 is_stmt 0 view .LVU9
  52 000e 019B     		ldr	r3, [sp, #4]
  53 0010 0133     		adds	r3, r3, #1
  54 0012 0193     		str	r3, [sp, #4]
  55              		.loc 1 1394 5 is_stmt 1 view .LVU10
  56              		.loc 1 1394 15 is_stmt 0 view .LVU11
  57 0014 019B     		ldr	r3, [sp, #4]
ARM GAS  C:\Users\DEVELO~1\AppData\Local\Temp\cc15HDCU.s 			page 2


  58              		.loc 1 1394 8 view .LVU12
  59 0016 B3F1706F 		cmp	r3, #251658240
  60 001a F5D9     		bls	.L11
  61              	.L2:
  62              		.loc 1 1396 14 view .LVU13
  63 001c 0320     		movs	r0, #3
  64              	.LVL1:
  65              		.loc 1 1415 1 view .LVU14
  66 001e 02B0     		add	sp, sp, #8
  67              		.cfi_remember_state
  68              		.cfi_def_cfa_offset 0
  69              		@ sp needed
  70 0020 7047     		bx	lr
  71              	.LVL2:
  72              	.L10:
  73              		.cfi_restore_state
  74              		.loc 1 1401 3 is_stmt 1 view .LVU15
  75              		.loc 1 1401 9 is_stmt 0 view .LVU16
  76 0022 0023     		movs	r3, #0
  77 0024 0193     		str	r3, [sp, #4]
  78              		.loc 1 1402 3 is_stmt 1 view .LVU17
  79              		.loc 1 1402 17 is_stmt 0 view .LVU18
  80 0026 0369     		ldr	r3, [r0, #16]
  81 0028 43F00103 		orr	r3, r3, #1
  82 002c 0361     		str	r3, [r0, #16]
  83 002e 03E0     		b	.L4
  84              	.L13:
  85              		.loc 1 1412 17 view .LVU19
  86 0030 0369     		ldr	r3, [r0, #16]
  87              		.loc 1 1412 52 view .LVU20
  88 0032 13F00103 		ands	r3, r3, #1
  89 0036 07D0     		beq	.L12
  90              	.L4:
  91              		.loc 1 1404 3 is_stmt 1 view .LVU21
  92              		.loc 1 1406 5 view .LVU22
  93              		.loc 1 1412 52 view .LVU23
  94              		.loc 1 1406 10 is_stmt 0 view .LVU24
  95 0038 019B     		ldr	r3, [sp, #4]
  96 003a 0133     		adds	r3, r3, #1
  97 003c 0193     		str	r3, [sp, #4]
  98              		.loc 1 1408 5 is_stmt 1 view .LVU25
  99              		.loc 1 1408 15 is_stmt 0 view .LVU26
 100 003e 019B     		ldr	r3, [sp, #4]
 101              		.loc 1 1408 8 view .LVU27
 102 0040 B3F1706F 		cmp	r3, #251658240
 103 0044 F4D9     		bls	.L13
 104 0046 E9E7     		b	.L2
 105              	.L12:
 106              		.loc 1 1414 10 view .LVU28
 107 0048 1846     		mov	r0, r3
 108              	.LVL3:
 109              		.loc 1 1415 1 view .LVU29
 110 004a 02B0     		add	sp, sp, #8
 111              		.cfi_def_cfa_offset 0
 112              		@ sp needed
 113 004c 7047     		bx	lr
 114              		.cfi_endproc
ARM GAS  C:\Users\DEVELO~1\AppData\Local\Temp\cc15HDCU.s 			page 3


 115              	.LFE175:
 116              		.size	USB_CoreReset, .-USB_CoreReset
 117              		.section	.text.USB_CoreInit,"ax",%progbits
 118              		.align	1
 119              		.p2align 4,,15
 120              		.global	USB_CoreInit
 121              		.syntax unified
 122              		.thumb
 123              		.thumb_func
 124              		.type	USB_CoreInit, %function
 125              	USB_CoreInit:
 126              	.LVL4:
 127              	.LFB141:
 128              		.loc 1 84 1 is_stmt 1 view -0
 129              		.cfi_startproc
 130              		@ args = 20, pretend = 16, frame = 0
 131              		@ frame_needed = 0, uses_anonymous_args = 0
 132              		.loc 1 85 3 view .LVU31
 133              		.loc 1 86 3 view .LVU32
 134              		.loc 1 84 1 is_stmt 0 view .LVU33
 135 0000 84B0     		sub	sp, sp, #16
 136              		.cfi_def_cfa_offset 16
 137 0002 10B5     		push	{r4, lr}
 138              		.cfi_def_cfa_offset 24
 139              		.cfi_offset 4, -24
 140              		.cfi_offset 14, -20
 141              		.loc 1 84 1 view .LVU34
 142 0004 0DF10C0C 		add	ip, sp, #12
 143 0008 0446     		mov	r4, r0
 144 000a 8CE80E00 		stm	ip, {r1, r2, r3}
 145              		.loc 1 86 6 view .LVU35
 146 000e 9DF81130 		ldrb	r3, [sp, #17]	@ zero_extendqisi2
 147 0012 012B     		cmp	r3, #1
 148 0014 2BD1     		bne	.L15
 149              		.loc 1 88 5 is_stmt 1 view .LVU36
 150              		.loc 1 88 17 is_stmt 0 view .LVU37
 151 0016 826B     		ldr	r2, [r0, #56]
 152              		.loc 1 91 19 view .LVU38
 153 0018 A3F14213 		sub	r3, r3, #4325442
 154              		.loc 1 95 8 view .LVU39
 155 001c 9DF81810 		ldrb	r1, [sp, #24]	@ zero_extendqisi2
 156              		.loc 1 88 17 view .LVU40
 157 0020 22F48032 		bic	r2, r2, #65536
 158              		.loc 1 95 8 view .LVU41
 159 0024 0129     		cmp	r1, #1
 160              		.loc 1 88 17 view .LVU42
 161 0026 8263     		str	r2, [r0, #56]
 162              		.loc 1 91 5 is_stmt 1 view .LVU43
 163              		.loc 1 91 19 is_stmt 0 view .LVU44
 164 0028 C268     		ldr	r2, [r0, #12]
 165 002a 03EA0203 		and	r3, r3, r2
 166 002e C360     		str	r3, [r0, #12]
 167              		.loc 1 94 5 is_stmt 1 view .LVU45
 168              		.loc 1 94 19 is_stmt 0 view .LVU46
 169 0030 C368     		ldr	r3, [r0, #12]
 170 0032 23F44013 		bic	r3, r3, #3145728
 171 0036 C360     		str	r3, [r0, #12]
ARM GAS  C:\Users\DEVELO~1\AppData\Local\Temp\cc15HDCU.s 			page 4


 172              		.loc 1 95 5 is_stmt 1 view .LVU47
 173              		.loc 1 95 8 is_stmt 0 view .LVU48
 174 0038 2CD0     		beq	.L21
 175              	.L16:
 176              		.loc 1 101 5 is_stmt 1 view .LVU49
 177              		.loc 1 101 11 is_stmt 0 view .LVU50
 178 003a 2046     		mov	r0, r4
 179              	.LVL5:
 180              		.loc 1 101 11 view .LVU51
 181 003c FFF7FEFF 		bl	USB_CoreReset
 182              	.LVL6:
 183              	.L17:
 184              		.loc 1 123 3 is_stmt 1 view .LVU52
 185              		.loc 1 123 6 is_stmt 0 view .LVU53
 186 0040 9DF80E30 		ldrb	r3, [sp, #14]	@ zero_extendqisi2
 187 0044 012B     		cmp	r3, #1
 188 0046 0ED1     		bne	.L19
 189              		.loc 1 126 5 is_stmt 1 view .LVU54
 190              		.loc 1 126 21 is_stmt 0 view .LVU55
 191 0048 E26D     		ldr	r2, [r4, #92]
 192              		.loc 1 127 21 view .LVU56
 193 004a 154B     		ldr	r3, .L22
 194              		.loc 1 126 21 view .LVU57
 195 004c 92B2     		uxth	r2, r2
 196 004e E265     		str	r2, [r4, #92]
 197              		.loc 1 127 5 is_stmt 1 view .LVU58
 198              		.loc 1 127 21 is_stmt 0 view .LVU59
 199 0050 E26D     		ldr	r2, [r4, #92]
 200 0052 1343     		orrs	r3, r3, r2
 201 0054 E365     		str	r3, [r4, #92]
 202              		.loc 1 129 5 is_stmt 1 view .LVU60
 203              		.loc 1 129 19 is_stmt 0 view .LVU61
 204 0056 A368     		ldr	r3, [r4, #8]
 205 0058 43F00603 		orr	r3, r3, #6
 206 005c A360     		str	r3, [r4, #8]
 207              		.loc 1 130 5 is_stmt 1 view .LVU62
 208              		.loc 1 130 19 is_stmt 0 view .LVU63
 209 005e A368     		ldr	r3, [r4, #8]
 210 0060 43F02003 		orr	r3, r3, #32
 211 0064 A360     		str	r3, [r4, #8]
 212              	.L19:
 213              		.loc 1 133 3 is_stmt 1 view .LVU64
 214              		.loc 1 134 1 is_stmt 0 view .LVU65
 215 0066 BDE81040 		pop	{r4, lr}
 216              		.cfi_remember_state
 217              		.cfi_restore 14
 218              		.cfi_restore 4
 219              		.cfi_def_cfa_offset 16
 220              	.LVL7:
 221              		.loc 1 134 1 view .LVU66
 222 006a 04B0     		add	sp, sp, #16
 223              		.cfi_def_cfa_offset 0
 224 006c 7047     		bx	lr
 225              	.LVL8:
 226              	.L15:
 227              		.cfi_restore_state
 228              		.loc 1 106 5 is_stmt 1 view .LVU67
ARM GAS  C:\Users\DEVELO~1\AppData\Local\Temp\cc15HDCU.s 			page 5


 229              		.loc 1 106 19 is_stmt 0 view .LVU68
 230 006e C368     		ldr	r3, [r0, #12]
 231 0070 43F04003 		orr	r3, r3, #64
 232 0074 C360     		str	r3, [r0, #12]
 233              		.loc 1 109 5 is_stmt 1 view .LVU69
 234              		.loc 1 109 11 is_stmt 0 view .LVU70
 235 0076 FFF7FEFF 		bl	USB_CoreReset
 236              	.LVL9:
 237              		.loc 1 111 8 view .LVU71
 238 007a 9DF81530 		ldrb	r3, [sp, #21]	@ zero_extendqisi2
 239              	.LVL10:
 240              		.loc 1 111 5 is_stmt 1 view .LVU72
 241              		.loc 1 111 8 is_stmt 0 view .LVU73
 242 007e 23B9     		cbnz	r3, .L18
 243              		.loc 1 114 7 is_stmt 1 view .LVU74
 244              		.loc 1 114 19 is_stmt 0 view .LVU75
 245 0080 A36B     		ldr	r3, [r4, #56]
 246 0082 43F48033 		orr	r3, r3, #65536
 247 0086 A363     		str	r3, [r4, #56]
 248 0088 DAE7     		b	.L17
 249              	.L18:
 250              		.loc 1 119 7 is_stmt 1 view .LVU76
 251              		.loc 1 119 19 is_stmt 0 view .LVU77
 252 008a A36B     		ldr	r3, [r4, #56]
 253 008c 23F48033 		bic	r3, r3, #65536
 254 0090 A363     		str	r3, [r4, #56]
 255 0092 D5E7     		b	.L17
 256              	.LVL11:
 257              	.L21:
 258              		.loc 1 97 7 is_stmt 1 view .LVU78
 259              		.loc 1 97 21 is_stmt 0 view .LVU79
 260 0094 C368     		ldr	r3, [r0, #12]
 261 0096 43F48013 		orr	r3, r3, #1048576
 262 009a C360     		str	r3, [r0, #12]
 263 009c CDE7     		b	.L16
 264              	.L23:
 265 009e 00BF     		.align	2
 266              	.L22:
 267 00a0 0000EE03 		.word	65929216
 268              		.cfi_endproc
 269              	.LFE141:
 270              		.size	USB_CoreInit, .-USB_CoreInit
 271              		.section	.text.USB_SetTurnaroundTime,"ax",%progbits
 272              		.align	1
 273              		.p2align 4,,15
 274              		.global	USB_SetTurnaroundTime
 275              		.syntax unified
 276              		.thumb
 277              		.thumb_func
 278              		.type	USB_SetTurnaroundTime, %function
 279              	USB_SetTurnaroundTime:
 280              	.LVL12:
 281              	.LFB142:
 282              		.loc 1 145 1 is_stmt 1 view -0
 283              		.cfi_startproc
 284              		@ args = 0, pretend = 0, frame = 0
 285              		@ frame_needed = 0, uses_anonymous_args = 0
ARM GAS  C:\Users\DEVELO~1\AppData\Local\Temp\cc15HDCU.s 			page 6


 286              		@ link register save eliminated.
 287              		.loc 1 146 3 view .LVU81
 288              		.loc 1 152 3 view .LVU82
 289              		.loc 1 152 6 is_stmt 0 view .LVU83
 290 0000 022A     		cmp	r2, #2
 291              		.loc 1 145 1 view .LVU84
 292 0002 0346     		mov	r3, r0
 293              		.loc 1 152 6 view .LVU85
 294 0004 0AD0     		beq	.L36
 295              	.LVL13:
 296              	.L33:
 297              		.loc 1 152 6 view .LVU86
 298 0006 4FF41051 		mov	r1, #9216
 299              	.LVL14:
 300              	.L25:
 301              		.loc 1 214 3 is_stmt 1 view .LVU87
 302              		.loc 1 214 17 is_stmt 0 view .LVU88
 303 000a DA68     		ldr	r2, [r3, #12]
 304              		.loc 1 218 1 view .LVU89
 305 000c 0020     		movs	r0, #0
 306              		.loc 1 214 17 view .LVU90
 307 000e 22F47052 		bic	r2, r2, #15360
 308 0012 DA60     		str	r2, [r3, #12]
 309              		.loc 1 215 3 is_stmt 1 view .LVU91
 310              		.loc 1 215 17 is_stmt 0 view .LVU92
 311 0014 DA68     		ldr	r2, [r3, #12]
 312 0016 0A43     		orrs	r2, r2, r1
 313 0018 DA60     		str	r2, [r3, #12]
 314              		.loc 1 217 3 is_stmt 1 view .LVU93
 315              		.loc 1 218 1 is_stmt 0 view .LVU94
 316 001a 7047     		bx	lr
 317              	.LVL15:
 318              	.L36:
 319              		.loc 1 154 5 is_stmt 1 view .LVU95
 320              		.loc 1 154 29 is_stmt 0 view .LVU96
 321 001c 234A     		ldr	r2, .L37
 322              	.LVL16:
 323              		.loc 1 154 8 view .LVU97
 324 001e 2448     		ldr	r0, .L37+4
 325              	.LVL17:
 326              		.loc 1 154 29 view .LVU98
 327 0020 0A44     		add	r2, r2, r1
 328              		.loc 1 154 8 view .LVU99
 329 0022 8242     		cmp	r2, r0
 330 0024 2CD9     		bls	.L27
 331              		.loc 1 159 10 is_stmt 1 view .LVU100
 332              		.loc 1 159 34 is_stmt 0 view .LVU101
 333 0026 234A     		ldr	r2, .L37+8
 334              		.loc 1 159 13 view .LVU102
 335 0028 2348     		ldr	r0, .L37+12
 336              		.loc 1 159 34 view .LVU103
 337 002a 0A44     		add	r2, r2, r1
 338              		.loc 1 159 13 view .LVU104
 339 002c 8242     		cmp	r2, r0
 340 002e 2AD9     		bls	.L28
 341              		.loc 1 164 10 is_stmt 1 view .LVU105
 342              		.loc 1 164 34 is_stmt 0 view .LVU106
ARM GAS  C:\Users\DEVELO~1\AppData\Local\Temp\cc15HDCU.s 			page 7


 343 0030 224A     		ldr	r2, .L37+16
 344              		.loc 1 164 13 view .LVU107
 345 0032 2348     		ldr	r0, .L37+20
 346              		.loc 1 164 34 view .LVU108
 347 0034 0A44     		add	r2, r2, r1
 348              		.loc 1 164 13 view .LVU109
 349 0036 8242     		cmp	r2, r0
 350 0038 28D9     		bls	.L29
 351              		.loc 1 169 10 is_stmt 1 view .LVU110
 352              		.loc 1 169 34 is_stmt 0 view .LVU111
 353 003a 224A     		ldr	r2, .L37+24
 354              		.loc 1 169 13 view .LVU112
 355 003c 2248     		ldr	r0, .L37+28
 356              		.loc 1 169 34 view .LVU113
 357 003e 0A44     		add	r2, r2, r1
 358              		.loc 1 169 13 view .LVU114
 359 0040 8242     		cmp	r2, r0
 360 0042 26D3     		bcc	.L30
 361              		.loc 1 174 10 is_stmt 1 view .LVU115
 362              		.loc 1 174 34 is_stmt 0 view .LVU116
 363 0044 214A     		ldr	r2, .L37+32
 364              		.loc 1 174 13 view .LVU117
 365 0046 2248     		ldr	r0, .L37+36
 366              		.loc 1 174 34 view .LVU118
 367 0048 0A44     		add	r2, r2, r1
 368              		.loc 1 174 13 view .LVU119
 369 004a 8242     		cmp	r2, r0
 370 004c 24D9     		bls	.L31
 371              		.loc 1 179 10 is_stmt 1 view .LVU120
 372              		.loc 1 179 34 is_stmt 0 view .LVU121
 373 004e 214A     		ldr	r2, .L37+40
 374              		.loc 1 179 13 view .LVU122
 375 0050 2148     		ldr	r0, .L37+44
 376              		.loc 1 179 34 view .LVU123
 377 0052 0A44     		add	r2, r2, r1
 378              		.loc 1 179 13 view .LVU124
 379 0054 8242     		cmp	r2, r0
 380 0056 22D3     		bcc	.L32
 381              		.loc 1 184 10 is_stmt 1 view .LVU125
 382              		.loc 1 184 34 is_stmt 0 view .LVU126
 383 0058 204A     		ldr	r2, .L37+48
 384              		.loc 1 184 13 view .LVU127
 385 005a 2148     		ldr	r0, .L37+52
 386              		.loc 1 184 34 view .LVU128
 387 005c 0A44     		add	r2, r2, r1
 388              		.loc 1 184 13 view .LVU129
 389 005e 8242     		cmp	r2, r0
 390 0060 D1D3     		bcc	.L33
 391              		.loc 1 189 10 is_stmt 1 view .LVU130
 392              		.loc 1 189 34 is_stmt 0 view .LVU131
 393 0062 204A     		ldr	r2, .L37+56
 394              		.loc 1 189 13 view .LVU132
 395 0064 2048     		ldr	r0, .L37+60
 396              		.loc 1 189 34 view .LVU133
 397 0066 0A44     		add	r2, r2, r1
 398              		.loc 1 189 13 view .LVU134
 399 0068 8242     		cmp	r2, r0
ARM GAS  C:\Users\DEVELO~1\AppData\Local\Temp\cc15HDCU.s 			page 8


 400 006a 1BD3     		bcc	.L34
 401              		.loc 1 194 10 is_stmt 1 view .LVU135
 402              		.loc 1 194 34 is_stmt 0 view .LVU136
 403 006c 1F4A     		ldr	r2, .L37+64
 404              		.loc 1 194 13 view .LVU137
 405 006e 2048     		ldr	r0, .L37+68
 406              		.loc 1 194 34 view .LVU138
 407 0070 0A44     		add	r2, r2, r1
 408              		.loc 1 194 13 view .LVU139
 409 0072 8242     		cmp	r2, r0
 410 0074 34BF     		ite	cc
 411 0076 4FF4E051 		movcc	r1, #7168
 412 007a 4FF4C051 		movcs	r1, #6144
 413              	.LVL18:
 414              		.loc 1 194 13 view .LVU140
 415 007e C4E7     		b	.L25
 416              	.LVL19:
 417              	.L27:
 418              		.loc 1 194 13 view .LVU141
 419 0080 4FF47051 		mov	r1, #15360
 420              	.LVL20:
 421              		.loc 1 194 13 view .LVU142
 422 0084 C1E7     		b	.L25
 423              	.LVL21:
 424              	.L28:
 425              		.loc 1 194 13 view .LVU143
 426 0086 4FF46051 		mov	r1, #14336
 427              	.LVL22:
 428              		.loc 1 194 13 view .LVU144
 429 008a BEE7     		b	.L25
 430              	.LVL23:
 431              	.L29:
 432              		.loc 1 194 13 view .LVU145
 433 008c 4FF45051 		mov	r1, #13312
 434              	.LVL24:
 435              		.loc 1 194 13 view .LVU146
 436 0090 BBE7     		b	.L25
 437              	.LVL25:
 438              	.L30:
 439              		.loc 1 194 13 view .LVU147
 440 0092 4FF44051 		mov	r1, #12288
 441              	.LVL26:
 442              		.loc 1 194 13 view .LVU148
 443 0096 B8E7     		b	.L25
 444              	.LVL27:
 445              	.L31:
 446              		.loc 1 194 13 view .LVU149
 447 0098 4FF43051 		mov	r1, #11264
 448              	.LVL28:
 449              		.loc 1 194 13 view .LVU150
 450 009c B5E7     		b	.L25
 451              	.LVL29:
 452              	.L32:
 453              		.loc 1 194 13 view .LVU151
 454 009e 4FF42051 		mov	r1, #10240
 455              	.LVL30:
 456              		.loc 1 194 13 view .LVU152
ARM GAS  C:\Users\DEVELO~1\AppData\Local\Temp\cc15HDCU.s 			page 9


 457 00a2 B2E7     		b	.L25
 458              	.LVL31:
 459              	.L34:
 460              		.loc 1 194 13 view .LVU153
 461 00a4 4FF40051 		mov	r1, #8192
 462              	.LVL32:
 463              		.loc 1 194 13 view .LVU154
 464 00a8 AFE7     		b	.L25
 465              	.L38:
 466 00aa 00BF     		.align	2
 467              	.L37:
 468 00ac 405327FF 		.word	-14200000
 469 00b0 FF340C00 		.word	799999
 470 00b4 401E1BFF 		.word	-15000000
 471 00b8 3F420F00 		.word	999999
 472 00bc 00DC0BFF 		.word	-16000000
 473 00c0 7F4F1200 		.word	1199999
 474 00c4 808CF9FE 		.word	-17200000
 475 00c8 20D61300 		.word	1300000
 476 00cc 60B6E5FE 		.word	-18500000
 477 00d0 5FE31600 		.word	1499999
 478 00d4 00D3CEFE 		.word	-20000000
 479 00d8 40771B00 		.word	1800000
 480 00dc C05BB3FE 		.word	-21800000
 481 00e0 C0912100 		.word	2200000
 482 00e4 00CA91FE 		.word	-24000000
 483 00e8 20753800 		.word	3700000
 484 00ec E05459FE 		.word	-27700000
 485 00f0 E09C4100 		.word	4300000
 486              		.cfi_endproc
 487              	.LFE142:
 488              		.size	USB_SetTurnaroundTime, .-USB_SetTurnaroundTime
 489              		.section	.text.USB_EnableGlobalInt,"ax",%progbits
 490              		.align	1
 491              		.p2align 4,,15
 492              		.global	USB_EnableGlobalInt
 493              		.syntax unified
 494              		.thumb
 495              		.thumb_func
 496              		.type	USB_EnableGlobalInt, %function
 497              	USB_EnableGlobalInt:
 498              	.LVL33:
 499              	.LFB143:
 500              		.loc 1 227 1 is_stmt 1 view -0
 501              		.cfi_startproc
 502              		@ args = 0, pretend = 0, frame = 0
 503              		@ frame_needed = 0, uses_anonymous_args = 0
 504              		@ link register save eliminated.
 505              		.loc 1 228 3 view .LVU156
 506              		.loc 1 227 1 is_stmt 0 view .LVU157
 507 0000 0346     		mov	r3, r0
 508              		.loc 1 230 1 view .LVU158
 509 0002 0020     		movs	r0, #0
 510              	.LVL34:
 511              		.loc 1 228 17 view .LVU159
 512 0004 9A68     		ldr	r2, [r3, #8]
 513 0006 42F00102 		orr	r2, r2, #1
ARM GAS  C:\Users\DEVELO~1\AppData\Local\Temp\cc15HDCU.s 			page 10


 514 000a 9A60     		str	r2, [r3, #8]
 515              		.loc 1 229 3 is_stmt 1 view .LVU160
 516              		.loc 1 230 1 is_stmt 0 view .LVU161
 517 000c 7047     		bx	lr
 518              		.cfi_endproc
 519              	.LFE143:
 520              		.size	USB_EnableGlobalInt, .-USB_EnableGlobalInt
 521 000e 00BF     		.section	.text.USB_DisableGlobalInt,"ax",%progbits
 522              		.align	1
 523              		.p2align 4,,15
 524              		.global	USB_DisableGlobalInt
 525              		.syntax unified
 526              		.thumb
 527              		.thumb_func
 528              		.type	USB_DisableGlobalInt, %function
 529              	USB_DisableGlobalInt:
 530              	.LVL35:
 531              	.LFB144:
 532              		.loc 1 239 1 is_stmt 1 view -0
 533              		.cfi_startproc
 534              		@ args = 0, pretend = 0, frame = 0
 535              		@ frame_needed = 0, uses_anonymous_args = 0
 536              		@ link register save eliminated.
 537              		.loc 1 240 3 view .LVU163
 538              		.loc 1 239 1 is_stmt 0 view .LVU164
 539 0000 0346     		mov	r3, r0
 540              		.loc 1 242 1 view .LVU165
 541 0002 0020     		movs	r0, #0
 542              	.LVL36:
 543              		.loc 1 240 17 view .LVU166
 544 0004 9A68     		ldr	r2, [r3, #8]
 545 0006 22F00102 		bic	r2, r2, #1
 546 000a 9A60     		str	r2, [r3, #8]
 547              		.loc 1 241 3 is_stmt 1 view .LVU167
 548              		.loc 1 242 1 is_stmt 0 view .LVU168
 549 000c 7047     		bx	lr
 550              		.cfi_endproc
 551              	.LFE144:
 552              		.size	USB_DisableGlobalInt, .-USB_DisableGlobalInt
 553 000e 00BF     		.section	.text.USB_SetCurrentMode,"ax",%progbits
 554              		.align	1
 555              		.p2align 4,,15
 556              		.global	USB_SetCurrentMode
 557              		.syntax unified
 558              		.thumb
 559              		.thumb_func
 560              		.type	USB_SetCurrentMode, %function
 561              	USB_SetCurrentMode:
 562              	.LVL37:
 563              	.LFB145:
 564              		.loc 1 254 1 is_stmt 1 view -0
 565              		.cfi_startproc
 566              		@ args = 0, pretend = 0, frame = 0
 567              		@ frame_needed = 0, uses_anonymous_args = 0
 568              		.loc 1 255 3 view .LVU170
 569              		.loc 1 257 3 view .LVU171
 570              		.loc 1 254 1 is_stmt 0 view .LVU172
ARM GAS  C:\Users\DEVELO~1\AppData\Local\Temp\cc15HDCU.s 			page 11


 571 0000 38B5     		push	{r3, r4, r5, lr}
 572              		.cfi_def_cfa_offset 16
 573              		.cfi_offset 3, -16
 574              		.cfi_offset 4, -12
 575              		.cfi_offset 5, -8
 576              		.cfi_offset 14, -4
 577              		.loc 1 257 17 view .LVU173
 578 0002 C368     		ldr	r3, [r0, #12]
 579              		.loc 1 259 6 view .LVU174
 580 0004 0129     		cmp	r1, #1
 581              		.loc 1 254 1 view .LVU175
 582 0006 0546     		mov	r5, r0
 583              		.loc 1 257 17 view .LVU176
 584 0008 23F0C043 		bic	r3, r3, #1610612736
 585 000c C360     		str	r3, [r0, #12]
 586              		.loc 1 259 3 is_stmt 1 view .LVU177
 587              		.loc 1 259 6 is_stmt 0 view .LVU178
 588 000e 17D0     		beq	.L55
 589              		.loc 1 269 8 is_stmt 1 view .LVU179
 590              		.loc 1 269 11 is_stmt 0 view .LVU180
 591 0010 A1B9     		cbnz	r1, .L46
 592              		.loc 1 271 5 is_stmt 1 view .LVU181
 593              		.loc 1 271 19 is_stmt 0 view .LVU182
 594 0012 C368     		ldr	r3, [r0, #12]
 595              		.loc 1 255 12 view .LVU183
 596 0014 0C46     		mov	r4, r1
 597              		.loc 1 271 19 view .LVU184
 598 0016 43F08043 		orr	r3, r3, #1073741824
 599 001a C360     		str	r3, [r0, #12]
 600 001c 01E0     		b	.L47
 601              	.LVL38:
 602              	.L56:
 603              		.loc 1 277 63 discriminator 1 view .LVU185
 604 001e C82C     		cmp	r4, #200
 605 0020 0CD0     		beq	.L46
 606              	.LVL39:
 607              	.L47:
 608              		.loc 1 273 5 is_stmt 1 discriminator 2 view .LVU186
 609              		.loc 1 275 7 discriminator 2 view .LVU187
 610 0022 0A20     		movs	r0, #10
 611              		.loc 1 276 10 is_stmt 0 discriminator 2 view .LVU188
 612 0024 0444     		add	r4, r4, r0
 613              	.LVL40:
 614              		.loc 1 275 7 discriminator 2 view .LVU189
 615 0026 FFF7FEFF 		bl	HAL_Delay
 616              	.LVL41:
 617              		.loc 1 276 7 is_stmt 1 discriminator 2 view .LVU190
 618              		.loc 1 277 63 discriminator 2 view .LVU191
 619              	.LBB24:
 620              	.LBI24:
 621              		.loc 1 1320 10 discriminator 2 view .LVU192
 622              	.LBB25:
 623              		.loc 1 1322 3 discriminator 2 view .LVU193
 624              		.loc 1 1322 16 is_stmt 0 discriminator 2 view .LVU194
 625 002a 6B69     		ldr	r3, [r5, #20]
 626              	.LVL42:
 627              		.loc 1 1322 16 discriminator 2 view .LVU195
ARM GAS  C:\Users\DEVELO~1\AppData\Local\Temp\cc15HDCU.s 			page 12


 628              	.LBE25:
 629              	.LBE24:
 630              		.loc 1 277 63 discriminator 2 view .LVU196
 631 002c DB07     		lsls	r3, r3, #31
 632 002e F6D4     		bmi	.L56
 633              		.loc 1 284 3 is_stmt 1 view .LVU197
 634              		.loc 1 281 12 is_stmt 0 view .LVU198
 635 0030 A4F1C800 		sub	r0, r4, #200
 636 0034 B0FA80F0 		clz	r0, r0
 637 0038 4009     		lsrs	r0, r0, #5
 638              	.L45:
 639              	.LVL43:
 640              		.loc 1 290 1 view .LVU199
 641 003a 38BD     		pop	{r3, r4, r5, pc}
 642              	.LVL44:
 643              	.L46:
 644              		.loc 1 286 12 view .LVU200
 645 003c 0120     		movs	r0, #1
 646              		.loc 1 290 1 view .LVU201
 647 003e 38BD     		pop	{r3, r4, r5, pc}
 648              	.LVL45:
 649              	.L55:
 650              		.loc 1 261 5 is_stmt 1 view .LVU202
 651              		.loc 1 261 19 is_stmt 0 view .LVU203
 652 0040 C368     		ldr	r3, [r0, #12]
 653              		.loc 1 255 12 view .LVU204
 654 0042 0024     		movs	r4, #0
 655              		.loc 1 261 19 view .LVU205
 656 0044 43F00053 		orr	r3, r3, #536870912
 657 0048 C360     		str	r3, [r0, #12]
 658 004a 01E0     		b	.L44
 659              	.LVL46:
 660              	.L57:
 661              		.loc 1 267 61 discriminator 1 view .LVU206
 662 004c C82C     		cmp	r4, #200
 663 004e F5D0     		beq	.L46
 664              	.LVL47:
 665              	.L44:
 666              		.loc 1 263 5 is_stmt 1 discriminator 2 view .LVU207
 667              		.loc 1 265 7 discriminator 2 view .LVU208
 668 0050 0A20     		movs	r0, #10
 669              		.loc 1 266 10 is_stmt 0 discriminator 2 view .LVU209
 670 0052 0444     		add	r4, r4, r0
 671              	.LVL48:
 672              		.loc 1 265 7 discriminator 2 view .LVU210
 673 0054 FFF7FEFF 		bl	HAL_Delay
 674              	.LVL49:
 675              		.loc 1 266 7 is_stmt 1 discriminator 2 view .LVU211
 676              		.loc 1 267 61 discriminator 2 view .LVU212
 677              	.LBB26:
 678              	.LBI26:
 679              		.loc 1 1320 10 discriminator 2 view .LVU213
 680              	.LBB27:
 681              		.loc 1 1322 3 discriminator 2 view .LVU214
 682              		.loc 1 1322 16 is_stmt 0 discriminator 2 view .LVU215
 683 0058 6B69     		ldr	r3, [r5, #20]
 684              	.LVL50:
ARM GAS  C:\Users\DEVELO~1\AppData\Local\Temp\cc15HDCU.s 			page 13


 685              		.loc 1 1322 16 discriminator 2 view .LVU216
 686              	.LBE27:
 687              	.LBE26:
 688              		.loc 1 267 61 discriminator 2 view .LVU217
 689 005a DA07     		lsls	r2, r3, #31
 690 005c F6D5     		bpl	.L57
 691              		.loc 1 284 3 is_stmt 1 view .LVU218
 692              		.loc 1 281 12 is_stmt 0 view .LVU219
 693 005e A4F1C800 		sub	r0, r4, #200
 694 0062 B0FA80F0 		clz	r0, r0
 695 0066 4009     		lsrs	r0, r0, #5
 696 0068 E7E7     		b	.L45
 697              		.cfi_endproc
 698              	.LFE145:
 699              		.size	USB_SetCurrentMode, .-USB_SetCurrentMode
 700 006a 00BF     		.section	.text.USB_FlushTxFifo,"ax",%progbits
 701              		.align	1
 702              		.p2align 4,,15
 703              		.global	USB_FlushTxFifo
 704              		.syntax unified
 705              		.thumb
 706              		.thumb_func
 707              		.type	USB_FlushTxFifo, %function
 708              	USB_FlushTxFifo:
 709              	.LVL51:
 710              	.LFB147:
 711              		.loc 1 453 1 is_stmt 1 view -0
 712              		.cfi_startproc
 713              		@ args = 0, pretend = 0, frame = 8
 714              		@ frame_needed = 0, uses_anonymous_args = 0
 715              		@ link register save eliminated.
 716              		.loc 1 454 3 view .LVU221
 717              		.loc 1 453 1 is_stmt 0 view .LVU222
 718 0000 82B0     		sub	sp, sp, #8
 719              		.cfi_def_cfa_offset 8
 720              		.loc 1 454 17 view .LVU223
 721 0002 0023     		movs	r3, #0
 722 0004 0193     		str	r3, [sp, #4]
 723 0006 02E0     		b	.L60
 724              	.L67:
 725              		.loc 1 465 17 view .LVU224
 726 0008 0369     		ldr	r3, [r0, #16]
 727              		.loc 1 465 53 view .LVU225
 728 000a 002B     		cmp	r3, #0
 729 000c 09DB     		blt	.L66
 730              	.L60:
 731              		.loc 1 457 3 is_stmt 1 view .LVU226
 732              		.loc 1 459 5 view .LVU227
 733              		.loc 1 465 53 view .LVU228
 734              		.loc 1 459 10 is_stmt 0 view .LVU229
 735 000e 019B     		ldr	r3, [sp, #4]
 736 0010 0133     		adds	r3, r3, #1
 737 0012 0193     		str	r3, [sp, #4]
 738              		.loc 1 461 5 is_stmt 1 view .LVU230
 739              		.loc 1 461 15 is_stmt 0 view .LVU231
 740 0014 019B     		ldr	r3, [sp, #4]
 741              		.loc 1 461 8 view .LVU232
ARM GAS  C:\Users\DEVELO~1\AppData\Local\Temp\cc15HDCU.s 			page 14


 742 0016 B3F1706F 		cmp	r3, #251658240
 743 001a F5D9     		bls	.L67
 744              	.LVL52:
 745              	.L59:
 746              		.loc 1 463 14 view .LVU233
 747 001c 0320     		movs	r0, #3
 748              	.LVL53:
 749              		.loc 1 482 1 view .LVU234
 750 001e 02B0     		add	sp, sp, #8
 751              		.cfi_remember_state
 752              		.cfi_def_cfa_offset 0
 753              		@ sp needed
 754 0020 7047     		bx	lr
 755              	.LVL54:
 756              	.L66:
 757              		.cfi_restore_state
 758              		.loc 1 468 3 is_stmt 1 view .LVU235
 759              		.loc 1 469 51 is_stmt 0 view .LVU236
 760 0022 8901     		lsls	r1, r1, #6
 761              	.LVL55:
 762              		.loc 1 468 9 view .LVU237
 763 0024 0023     		movs	r3, #0
 764              		.loc 1 469 44 view .LVU238
 765 0026 41F02001 		orr	r1, r1, #32
 766              		.loc 1 468 9 view .LVU239
 767 002a 0193     		str	r3, [sp, #4]
 768              		.loc 1 469 3 is_stmt 1 view .LVU240
 769              		.loc 1 469 17 is_stmt 0 view .LVU241
 770 002c 0161     		str	r1, [r0, #16]
 771 002e 03E0     		b	.L61
 772              	.L69:
 773              		.loc 1 479 17 view .LVU242
 774 0030 0369     		ldr	r3, [r0, #16]
 775              		.loc 1 479 54 view .LVU243
 776 0032 13F02003 		ands	r3, r3, #32
 777 0036 07D0     		beq	.L68
 778              	.L61:
 779              		.loc 1 471 3 is_stmt 1 view .LVU244
 780              		.loc 1 473 5 view .LVU245
 781              		.loc 1 479 54 view .LVU246
 782              		.loc 1 473 10 is_stmt 0 view .LVU247
 783 0038 019B     		ldr	r3, [sp, #4]
 784 003a 0133     		adds	r3, r3, #1
 785 003c 0193     		str	r3, [sp, #4]
 786              		.loc 1 475 5 is_stmt 1 view .LVU248
 787              		.loc 1 475 15 is_stmt 0 view .LVU249
 788 003e 019B     		ldr	r3, [sp, #4]
 789              		.loc 1 475 8 view .LVU250
 790 0040 B3F1706F 		cmp	r3, #251658240
 791 0044 F4D9     		bls	.L69
 792 0046 E9E7     		b	.L59
 793              	.L68:
 794              		.loc 1 481 10 view .LVU251
 795 0048 1846     		mov	r0, r3
 796              	.LVL56:
 797              		.loc 1 482 1 view .LVU252
 798 004a 02B0     		add	sp, sp, #8
ARM GAS  C:\Users\DEVELO~1\AppData\Local\Temp\cc15HDCU.s 			page 15


 799              		.cfi_def_cfa_offset 0
 800              		@ sp needed
 801 004c 7047     		bx	lr
 802              		.cfi_endproc
 803              	.LFE147:
 804              		.size	USB_FlushTxFifo, .-USB_FlushTxFifo
 805 004e 00BF     		.section	.text.USB_FlushRxFifo,"ax",%progbits
 806              		.align	1
 807              		.p2align 4,,15
 808              		.global	USB_FlushRxFifo
 809              		.syntax unified
 810              		.thumb
 811              		.thumb_func
 812              		.type	USB_FlushRxFifo, %function
 813              	USB_FlushRxFifo:
 814              	.LVL57:
 815              	.LFB148:
 816              		.loc 1 490 1 is_stmt 1 view -0
 817              		.cfi_startproc
 818              		@ args = 0, pretend = 0, frame = 8
 819              		@ frame_needed = 0, uses_anonymous_args = 0
 820              		@ link register save eliminated.
 821              		.loc 1 491 3 view .LVU254
 822              		.loc 1 490 1 is_stmt 0 view .LVU255
 823 0000 82B0     		sub	sp, sp, #8
 824              		.cfi_def_cfa_offset 8
 825              		.loc 1 491 17 view .LVU256
 826 0002 0023     		movs	r3, #0
 827 0004 0193     		str	r3, [sp, #4]
 828 0006 02E0     		b	.L72
 829              	.L79:
 830              		.loc 1 502 17 view .LVU257
 831 0008 0369     		ldr	r3, [r0, #16]
 832              		.loc 1 502 53 view .LVU258
 833 000a 002B     		cmp	r3, #0
 834 000c 09DB     		blt	.L78
 835              	.L72:
 836              		.loc 1 494 3 is_stmt 1 view .LVU259
 837              		.loc 1 496 5 view .LVU260
 838              		.loc 1 502 53 view .LVU261
 839              		.loc 1 496 10 is_stmt 0 view .LVU262
 840 000e 019B     		ldr	r3, [sp, #4]
 841 0010 0133     		adds	r3, r3, #1
 842 0012 0193     		str	r3, [sp, #4]
 843              		.loc 1 498 5 is_stmt 1 view .LVU263
 844              		.loc 1 498 15 is_stmt 0 view .LVU264
 845 0014 019B     		ldr	r3, [sp, #4]
 846              		.loc 1 498 8 view .LVU265
 847 0016 B3F1706F 		cmp	r3, #251658240
 848 001a F5D9     		bls	.L79
 849              	.L71:
 850              		.loc 1 500 14 view .LVU266
 851 001c 0320     		movs	r0, #3
 852              	.LVL58:
 853              		.loc 1 519 1 view .LVU267
 854 001e 02B0     		add	sp, sp, #8
 855              		.cfi_remember_state
ARM GAS  C:\Users\DEVELO~1\AppData\Local\Temp\cc15HDCU.s 			page 16


 856              		.cfi_def_cfa_offset 0
 857              		@ sp needed
 858 0020 7047     		bx	lr
 859              	.LVL59:
 860              	.L78:
 861              		.cfi_restore_state
 862              		.loc 1 505 3 is_stmt 1 view .LVU268
 863              		.loc 1 505 9 is_stmt 0 view .LVU269
 864 0022 0022     		movs	r2, #0
 865              		.loc 1 506 17 view .LVU270
 866 0024 1023     		movs	r3, #16
 867              		.loc 1 505 9 view .LVU271
 868 0026 0192     		str	r2, [sp, #4]
 869              		.loc 1 506 3 is_stmt 1 view .LVU272
 870              		.loc 1 506 17 is_stmt 0 view .LVU273
 871 0028 0361     		str	r3, [r0, #16]
 872 002a 03E0     		b	.L73
 873              	.L81:
 874              		.loc 1 516 17 view .LVU274
 875 002c 0369     		ldr	r3, [r0, #16]
 876              		.loc 1 516 54 view .LVU275
 877 002e 13F01003 		ands	r3, r3, #16
 878 0032 07D0     		beq	.L80
 879              	.L73:
 880              		.loc 1 508 3 is_stmt 1 view .LVU276
 881              		.loc 1 510 5 view .LVU277
 882              		.loc 1 516 54 view .LVU278
 883              		.loc 1 510 10 is_stmt 0 view .LVU279
 884 0034 019B     		ldr	r3, [sp, #4]
 885 0036 0133     		adds	r3, r3, #1
 886 0038 0193     		str	r3, [sp, #4]
 887              		.loc 1 512 5 is_stmt 1 view .LVU280
 888              		.loc 1 512 15 is_stmt 0 view .LVU281
 889 003a 019B     		ldr	r3, [sp, #4]
 890              		.loc 1 512 8 view .LVU282
 891 003c B3F1706F 		cmp	r3, #251658240
 892 0040 F4D9     		bls	.L81
 893 0042 EBE7     		b	.L71
 894              	.L80:
 895              		.loc 1 518 10 view .LVU283
 896 0044 1846     		mov	r0, r3
 897              	.LVL60:
 898              		.loc 1 519 1 view .LVU284
 899 0046 02B0     		add	sp, sp, #8
 900              		.cfi_def_cfa_offset 0
 901              		@ sp needed
 902 0048 7047     		bx	lr
 903              		.cfi_endproc
 904              	.LFE148:
 905              		.size	USB_FlushRxFifo, .-USB_FlushRxFifo
 906 004a 00BF     		.section	.text.USB_DevInit,"ax",%progbits
 907              		.align	1
 908              		.p2align 4,,15
 909              		.global	USB_DevInit
 910              		.syntax unified
 911              		.thumb
 912              		.thumb_func
ARM GAS  C:\Users\DEVELO~1\AppData\Local\Temp\cc15HDCU.s 			page 17


 913              		.type	USB_DevInit, %function
 914              	USB_DevInit:
 915              	.LVL61:
 916              	.LFB146:
 917              		.loc 1 301 1 is_stmt 1 view -0
 918              		.cfi_startproc
 919              		@ args = 20, pretend = 16, frame = 0
 920              		@ frame_needed = 0, uses_anonymous_args = 0
 921              		.loc 1 301 1 is_stmt 0 view .LVU286
 922 0000 84B0     		sub	sp, sp, #16
 923              		.cfi_def_cfa_offset 16
 924 0002 2DE9F843 		push	{r3, r4, r5, r6, r7, r8, r9, lr}
 925              		.cfi_def_cfa_offset 48
 926              		.cfi_offset 3, -48
 927              		.cfi_offset 4, -44
 928              		.cfi_offset 5, -40
 929              		.cfi_offset 6, -36
 930              		.cfi_offset 7, -32
 931              		.cfi_offset 8, -28
 932              		.cfi_offset 9, -24
 933              		.cfi_offset 14, -20
 934              		.loc 1 301 1 view .LVU287
 935 0006 09AD     		add	r5, sp, #36
 936 0008 0446     		mov	r4, r0
 937 000a 85E80E00 		stm	r5, {r1, r2, r3}
 938              		.loc 1 306 10 view .LVU288
 939 000e 0023     		movs	r3, #0
 940 0010 9DF82450 		ldrb	r5, [sp, #36]	@ zero_extendqisi2
 941              	.LVL62:
 942              		.loc 1 306 10 view .LVU289
 943 0014 9DF82E60 		ldrb	r6, [sp, #46]	@ zero_extendqisi2
 944              	.LVL63:
 945              		.loc 1 302 3 is_stmt 1 view .LVU290
 946              		.loc 1 303 3 view .LVU291
 947              		.loc 1 304 3 view .LVU292
 948              		.loc 1 306 3 view .LVU293
 949              		.loc 1 306 18 view .LVU294
 950              		.loc 1 308 22 is_stmt 0 view .LVU295
 951 0018 1946     		mov	r1, r3
 952              	.LVL64:
 953              	.L83:
 954              		.loc 1 308 5 is_stmt 1 discriminator 3 view .LVU296
 955              		.loc 1 308 22 is_stmt 0 discriminator 3 view .LVU297
 956 001a 03F14002 		add	r2, r3, #64
 957              		.loc 1 306 26 discriminator 3 view .LVU298
 958 001e 0133     		adds	r3, r3, #1
 959              	.LVL65:
 960              		.loc 1 308 22 discriminator 3 view .LVU299
 961 0020 04EB8202 		add	r2, r4, r2, lsl #2
 962              		.loc 1 306 18 discriminator 3 view .LVU300
 963 0024 0F2B     		cmp	r3, #15
 964              		.loc 1 308 22 discriminator 3 view .LVU301
 965 0026 5160     		str	r1, [r2, #4]
 966              		.loc 1 306 26 is_stmt 1 discriminator 3 view .LVU302
 967              	.LVL66:
 968              		.loc 1 306 18 discriminator 3 view .LVU303
 969 0028 F7D1     		bne	.L83
ARM GAS  C:\Users\DEVELO~1\AppData\Local\Temp\cc15HDCU.s 			page 18


 970              		.loc 1 312 3 view .LVU304
 971              		.loc 1 312 6 is_stmt 0 view .LVU305
 972 002a 002E     		cmp	r6, #0
 973 002c 40F09480 		bne	.L84
 974              		.loc 1 314 5 is_stmt 1 view .LVU306
 975              		.loc 1 314 23 is_stmt 0 view .LVU307
 976 0030 D4F80438 		ldr	r3, [r4, #2052]
 977              	.LVL67:
 978              		.loc 1 314 23 view .LVU308
 979 0034 04F50067 		add	r7, r4, #2048
 980 0038 43F00203 		orr	r3, r3, #2
 981 003c 7B60     		str	r3, [r7, #4]
 982              		.loc 1 317 5 is_stmt 1 view .LVU309
 983              		.loc 1 317 17 is_stmt 0 view .LVU310
 984 003e A36B     		ldr	r3, [r4, #56]
 985 0040 23F40013 		bic	r3, r3, #2097152
 986 0044 A363     		str	r3, [r4, #56]
 987              		.loc 1 320 5 is_stmt 1 view .LVU311
 988              		.loc 1 320 19 is_stmt 0 view .LVU312
 989 0046 2368     		ldr	r3, [r4]
 990 0048 43F04003 		orr	r3, r3, #64
 991 004c 2360     		str	r3, [r4]
 992              		.loc 1 321 5 is_stmt 1 view .LVU313
 993              		.loc 1 321 19 is_stmt 0 view .LVU314
 994 004e 2368     		ldr	r3, [r4]
 995 0050 43F08003 		orr	r3, r3, #128
 996 0054 2360     		str	r3, [r4]
 997              		.loc 1 330 3 is_stmt 1 view .LVU315
 998              		.loc 1 330 16 is_stmt 0 view .LVU316
 999 0056 0023     		movs	r3, #0
 1000 0058 C4F8003E 		str	r3, [r4, #3584]
 1001              		.loc 1 332 3 is_stmt 1 view .LVU317
 1002              		.loc 1 332 6 is_stmt 0 view .LVU318
 1003 005c 9DF82930 		ldrb	r3, [sp, #41]	@ zero_extendqisi2
 1004 0060 012B     		cmp	r3, #1
 1005 0062 00F08780 		beq	.L110
 1006              	.L86:
 1007              		.loc 1 348 5 is_stmt 1 view .LVU319
 1008              	.LVL68:
 1009              	.LBB28:
 1010              	.LBI28:
 1011              		.loc 1 532 19 view .LVU320
 1012              	.LBB29:
 1013              		.loc 1 534 3 view .LVU321
 1014              		.loc 1 536 3 view .LVU322
 1015              		.loc 1 536 21 is_stmt 0 view .LVU323
 1016 0066 3B68     		ldr	r3, [r7]
 1017 0068 43F00303 		orr	r3, r3, #3
 1018 006c 3B60     		str	r3, [r7]
 1019              		.loc 1 537 3 is_stmt 1 view .LVU324
 1020              	.LVL69:
 1021              	.L88:
 1022              		.loc 1 537 3 is_stmt 0 view .LVU325
 1023              	.LBE29:
 1024              	.LBE28:
 1025              		.loc 1 352 3 is_stmt 1 view .LVU326
 1026              		.loc 1 352 7 is_stmt 0 view .LVU327
ARM GAS  C:\Users\DEVELO~1\AppData\Local\Temp\cc15HDCU.s 			page 19


 1027 006e 1021     		movs	r1, #16
 1028 0070 2046     		mov	r0, r4
 1029              	.LVL70:
 1030              		.loc 1 352 7 view .LVU328
 1031 0072 FFF7FEFF 		bl	USB_FlushTxFifo
 1032              	.LVL71:
 1033 0076 0146     		mov	r1, r0
 1034              	.LVL72:
 1035              		.loc 1 357 3 is_stmt 1 view .LVU329
 1036              		.loc 1 357 7 is_stmt 0 view .LVU330
 1037 0078 2046     		mov	r0, r4
 1038 007a FFF7FEFF 		bl	USB_FlushRxFifo
 1039              	.LVL73:
 1040              		.loc 1 357 6 view .LVU331
 1041 007e 41EA000C 		orr	ip, r1, r0
 1042              		.loc 1 363 24 view .LVU332
 1043 0082 0022     		movs	r2, #0
 1044              		.loc 1 357 6 view .LVU333
 1045 0084 5FFA8CFC 		uxtb	ip, ip
 1046              		.loc 1 363 24 view .LVU334
 1047 0088 3A61     		str	r2, [r7, #16]
 1048              		.loc 1 359 9 view .LVU335
 1049 008a BCF1000C 		subs	ip, ip, #0
 1050              		.loc 1 364 24 view .LVU336
 1051 008e 7A61     		str	r2, [r7, #20]
 1052              		.loc 1 365 25 view .LVU337
 1053 0090 FA61     		str	r2, [r7, #28]
 1054              		.loc 1 359 9 view .LVU338
 1055 0092 18BF     		it	ne
 1056 0094 4FF0010C 		movne	ip, #1
 1057              	.LVL74:
 1058              		.loc 1 363 3 is_stmt 1 view .LVU339
 1059              		.loc 1 364 3 view .LVU340
 1060              		.loc 1 365 3 view .LVU341
 1061              		.loc 1 367 3 view .LVU342
 1062              		.loc 1 367 18 view .LVU343
 1063 0098 DDB1     		cbz	r5, .L100
 1064 009a 04F51063 		add	r3, r4, #2304
 1065              		.loc 1 377 31 is_stmt 0 view .LVU344
 1066 009e 4FF09049 		mov	r9, #1207959552
 1067              		.loc 1 373 31 view .LVU345
 1068 00a2 4FF00068 		mov	r8, #134217728
 1069              		.loc 1 382 29 view .LVU346
 1070 00a6 1046     		mov	r0, r2
 1071              		.loc 1 386 28 view .LVU347
 1072 00a8 4FF67F3E 		movw	lr, #64383
 1073 00ac 07E0     		b	.L95
 1074              	.LVL75:
 1075              	.L92:
 1076              		.loc 1 382 29 view .LVU348
 1077 00ae 1860     		str	r0, [r3]
 1078              	.L94:
 1079              		.loc 1 385 5 is_stmt 1 discriminator 2 view .LVU349
 1080              		.loc 1 367 40 is_stmt 0 discriminator 2 view .LVU350
 1081 00b0 0132     		adds	r2, r2, #1
 1082              	.LVL76:
 1083              		.loc 1 385 28 discriminator 2 view .LVU351
ARM GAS  C:\Users\DEVELO~1\AppData\Local\Temp\cc15HDCU.s 			page 20


 1084 00b2 1861     		str	r0, [r3, #16]
 1085              		.loc 1 386 5 is_stmt 1 discriminator 2 view .LVU352
 1086              		.loc 1 386 28 is_stmt 0 discriminator 2 view .LVU353
 1087 00b4 C3F808E0 		str	lr, [r3, #8]
 1088              		.loc 1 367 40 is_stmt 1 discriminator 2 view .LVU354
 1089              	.LVL77:
 1090              		.loc 1 367 18 discriminator 2 view .LVU355
 1091 00b8 2033     		adds	r3, r3, #32
 1092 00ba AA42     		cmp	r2, r5
 1093 00bc 2FD0     		beq	.L111
 1094              	.LVL78:
 1095              	.L95:
 1096              		.loc 1 369 5 view .LVU356
 1097              		.loc 1 371 7 view .LVU357
 1098              		.loc 1 382 7 view .LVU358
 1099              		.loc 1 369 22 is_stmt 0 view .LVU359
 1100 00be 1968     		ldr	r1, [r3]
 1101              		.loc 1 369 8 view .LVU360
 1102 00c0 0029     		cmp	r1, #0
 1103 00c2 F4DA     		bge	.L92
 1104              		.loc 1 373 9 is_stmt 1 view .LVU361
 1105              		.loc 1 377 9 view .LVU362
 1106              		.loc 1 371 10 is_stmt 0 view .LVU363
 1107 00c4 12B9     		cbnz	r2, .L93
 1108              		.loc 1 373 31 view .LVU364
 1109 00c6 C3F80080 		str	r8, [r3]
 1110 00ca F1E7     		b	.L94
 1111              	.L93:
 1112              		.loc 1 377 31 view .LVU365
 1113 00cc C3F80090 		str	r9, [r3]
 1114 00d0 EEE7     		b	.L94
 1115              	.LVL79:
 1116              	.L100:
 1117              		.loc 1 411 3 is_stmt 1 view .LVU366
 1118              		.loc 1 411 24 is_stmt 0 view .LVU367
 1119 00d2 3B69     		ldr	r3, [r7, #16]
 1120              		.loc 1 414 17 view .LVU368
 1121 00d4 0022     		movs	r2, #0
 1122              		.loc 1 411 24 view .LVU369
 1123 00d6 23F48073 		bic	r3, r3, #256
 1124 00da 3B61     		str	r3, [r7, #16]
 1125              		.loc 1 414 3 is_stmt 1 view .LVU370
 1126              		.loc 1 417 17 is_stmt 0 view .LVU371
 1127 00dc 6FF08043 		mvn	r3, #1073741824
 1128              		.loc 1 414 17 view .LVU372
 1129 00e0 A261     		str	r2, [r4, #24]
 1130              		.loc 1 417 3 is_stmt 1 view .LVU373
 1131              		.loc 1 417 17 is_stmt 0 view .LVU374
 1132 00e2 6361     		str	r3, [r4, #20]
 1133              		.loc 1 420 3 is_stmt 1 view .LVU375
 1134              		.loc 1 420 6 is_stmt 0 view .LVU376
 1135 00e4 9DF82630 		ldrb	r3, [sp, #38]	@ zero_extendqisi2
 1136 00e8 1BB9     		cbnz	r3, .L91
 1137              		.loc 1 422 5 is_stmt 1 view .LVU377
 1138              		.loc 1 422 19 is_stmt 0 view .LVU378
 1139 00ea A369     		ldr	r3, [r4, #24]
 1140 00ec 43F01003 		orr	r3, r3, #16
ARM GAS  C:\Users\DEVELO~1\AppData\Local\Temp\cc15HDCU.s 			page 21


 1141 00f0 A361     		str	r3, [r4, #24]
 1142              	.L91:
 1143              		.loc 1 426 3 is_stmt 1 view .LVU379
 1144              		.loc 1 426 17 is_stmt 0 view .LVU380
 1145 00f2 A269     		ldr	r2, [r4, #24]
 1146 00f4 254B     		ldr	r3, .L113
 1147 00f6 1343     		orrs	r3, r3, r2
 1148              		.loc 1 431 6 view .LVU381
 1149 00f8 9DF82A20 		ldrb	r2, [sp, #42]	@ zero_extendqisi2
 1150              		.loc 1 426 17 view .LVU382
 1151 00fc A361     		str	r3, [r4, #24]
 1152              		.loc 1 431 3 is_stmt 1 view .LVU383
 1153              		.loc 1 431 6 is_stmt 0 view .LVU384
 1154 00fe 1AB1     		cbz	r2, .L101
 1155              		.loc 1 433 5 is_stmt 1 view .LVU385
 1156              		.loc 1 433 19 is_stmt 0 view .LVU386
 1157 0100 A369     		ldr	r3, [r4, #24]
 1158 0102 43F00803 		orr	r3, r3, #8
 1159 0106 A361     		str	r3, [r4, #24]
 1160              	.L101:
 1161              		.loc 1 436 3 is_stmt 1 view .LVU387
 1162              		.loc 1 436 6 is_stmt 0 view .LVU388
 1163 0108 012E     		cmp	r6, #1
 1164 010a 03D1     		bne	.L102
 1165              		.loc 1 438 5 is_stmt 1 view .LVU389
 1166              		.loc 1 438 19 is_stmt 0 view .LVU390
 1167 010c A269     		ldr	r2, [r4, #24]
 1168 010e 204B     		ldr	r3, .L113+4
 1169 0110 1343     		orrs	r3, r3, r2
 1170 0112 A361     		str	r3, [r4, #24]
 1171              	.L102:
 1172              		.loc 1 441 3 is_stmt 1 view .LVU391
 1173              		.loc 1 442 1 is_stmt 0 view .LVU392
 1174 0114 6046     		mov	r0, ip
 1175 0116 BDE8F843 		pop	{r3, r4, r5, r6, r7, r8, r9, lr}
 1176              		.cfi_remember_state
 1177              		.cfi_restore 14
 1178              		.cfi_restore 9
 1179              		.cfi_restore 8
 1180              		.cfi_restore 7
 1181              		.cfi_restore 6
 1182              		.cfi_restore 5
 1183              		.cfi_restore 4
 1184              		.cfi_restore 3
 1185              		.cfi_def_cfa_offset 16
 1186              	.LVL80:
 1187              		.loc 1 442 1 view .LVU393
 1188 011a 04B0     		add	sp, sp, #16
 1189              		.cfi_def_cfa_offset 0
 1190 011c 7047     		bx	lr
 1191              	.LVL81:
 1192              	.L111:
 1193              		.cfi_restore_state
 1194              		.loc 1 367 18 view .LVU394
 1195 011e 0022     		movs	r2, #0
 1196              	.LVL82:
 1197              		.loc 1 367 18 view .LVU395
ARM GAS  C:\Users\DEVELO~1\AppData\Local\Temp\cc15HDCU.s 			page 22


 1198 0120 04F53063 		add	r3, r4, #2816
 1199              		.loc 1 399 32 view .LVU396
 1200 0124 4FF09048 		mov	r8, #1207959552
 1201              		.loc 1 395 32 view .LVU397
 1202 0128 4FF00069 		mov	r9, #134217728
 1203              		.loc 1 404 30 view .LVU398
 1204 012c 1046     		mov	r0, r2
 1205              		.loc 1 408 29 view .LVU399
 1206 012e 4FF67F3E 		movw	lr, #64383
 1207 0132 07E0     		b	.L99
 1208              	.LVL83:
 1209              	.L96:
 1210              		.loc 1 404 30 view .LVU400
 1211 0134 1860     		str	r0, [r3]
 1212              	.L98:
 1213              		.loc 1 407 5 is_stmt 1 discriminator 2 view .LVU401
 1214              		.loc 1 389 40 is_stmt 0 discriminator 2 view .LVU402
 1215 0136 0132     		adds	r2, r2, #1
 1216              	.LVL84:
 1217              		.loc 1 407 29 discriminator 2 view .LVU403
 1218 0138 1861     		str	r0, [r3, #16]
 1219              		.loc 1 408 5 is_stmt 1 discriminator 2 view .LVU404
 1220              		.loc 1 408 29 is_stmt 0 discriminator 2 view .LVU405
 1221 013a C3F808E0 		str	lr, [r3, #8]
 1222              		.loc 1 389 40 is_stmt 1 discriminator 2 view .LVU406
 1223              	.LVL85:
 1224              		.loc 1 389 18 discriminator 2 view .LVU407
 1225 013e 2033     		adds	r3, r3, #32
 1226 0140 AA42     		cmp	r2, r5
 1227 0142 C6D0     		beq	.L100
 1228              	.LVL86:
 1229              	.L99:
 1230              		.loc 1 391 5 view .LVU408
 1231              		.loc 1 393 7 view .LVU409
 1232              		.loc 1 404 7 view .LVU410
 1233              		.loc 1 391 23 is_stmt 0 view .LVU411
 1234 0144 1968     		ldr	r1, [r3]
 1235              		.loc 1 391 8 view .LVU412
 1236 0146 0029     		cmp	r1, #0
 1237 0148 F4DA     		bge	.L96
 1238              		.loc 1 399 9 is_stmt 1 view .LVU413
 1239              		.loc 1 393 10 is_stmt 0 view .LVU414
 1240 014a 12B1     		cbz	r2, .L112
 1241              		.loc 1 399 32 view .LVU415
 1242 014c C3F80080 		str	r8, [r3]
 1243 0150 F1E7     		b	.L98
 1244              	.L112:
 1245              		.loc 1 395 9 is_stmt 1 view .LVU416
 1246              		.loc 1 395 32 is_stmt 0 view .LVU417
 1247 0152 C3F80090 		str	r9, [r3]
 1248 0156 EEE7     		b	.L98
 1249              	.LVL87:
 1250              	.L84:
 1251              		.loc 1 326 5 is_stmt 1 view .LVU418
 1252              		.loc 1 326 17 is_stmt 0 view .LVU419
 1253 0158 A36B     		ldr	r3, [r4, #56]
 1254              	.LVL88:
ARM GAS  C:\Users\DEVELO~1\AppData\Local\Temp\cc15HDCU.s 			page 23


 1255              		.loc 1 314 23 view .LVU420
 1256 015a 04F50067 		add	r7, r4, #2048
 1257              		.loc 1 326 17 view .LVU421
 1258 015e 43F40013 		orr	r3, r3, #2097152
 1259 0162 A363     		str	r3, [r4, #56]
 1260              		.loc 1 330 3 is_stmt 1 view .LVU422
 1261              		.loc 1 330 16 is_stmt 0 view .LVU423
 1262 0164 0023     		movs	r3, #0
 1263 0166 C4F8003E 		str	r3, [r4, #3584]
 1264              		.loc 1 332 3 is_stmt 1 view .LVU424
 1265              		.loc 1 332 6 is_stmt 0 view .LVU425
 1266 016a 9DF82930 		ldrb	r3, [sp, #41]	@ zero_extendqisi2
 1267 016e 012B     		cmp	r3, #1
 1268 0170 7FF479AF 		bne	.L86
 1269              	.L110:
 1270              		.loc 1 334 5 is_stmt 1 view .LVU426
 1271              		.loc 1 334 8 is_stmt 0 view .LVU427
 1272 0174 9DF82730 		ldrb	r3, [sp, #39]	@ zero_extendqisi2
 1273 0178 13B9     		cbnz	r3, .L87
 1274              		.loc 1 337 7 is_stmt 1 view .LVU428
 1275              	.LVL89:
 1276              	.LBB30:
 1277              	.LBI30:
 1278              		.loc 1 532 19 view .LVU429
 1279              	.LBB31:
 1280              		.loc 1 534 3 view .LVU430
 1281              		.loc 1 536 3 view .LVU431
 1282              		.loc 1 536 21 is_stmt 0 view .LVU432
 1283 017a 3B68     		ldr	r3, [r7]
 1284 017c 3B60     		str	r3, [r7]
 1285              		.loc 1 537 3 is_stmt 1 view .LVU433
 1286              		.loc 1 537 10 is_stmt 0 view .LVU434
 1287 017e 76E7     		b	.L88
 1288              	.LVL90:
 1289              	.L87:
 1290              		.loc 1 537 10 view .LVU435
 1291              	.LBE31:
 1292              	.LBE30:
 1293              		.loc 1 342 7 is_stmt 1 view .LVU436
 1294              	.LBB32:
 1295              	.LBI32:
 1296              		.loc 1 532 19 view .LVU437
 1297              	.LBB33:
 1298              		.loc 1 534 3 view .LVU438
 1299              		.loc 1 536 3 view .LVU439
 1300              		.loc 1 536 21 is_stmt 0 view .LVU440
 1301 0180 3B68     		ldr	r3, [r7]
 1302 0182 43F00103 		orr	r3, r3, #1
 1303 0186 3B60     		str	r3, [r7]
 1304              		.loc 1 537 3 is_stmt 1 view .LVU441
 1305              		.loc 1 537 10 is_stmt 0 view .LVU442
 1306 0188 71E7     		b	.L88
 1307              	.L114:
 1308 018a 00BF     		.align	2
 1309              	.L113:
 1310 018c 00383C80 		.word	-2143537152
 1311 0190 04000040 		.word	1073741828
ARM GAS  C:\Users\DEVELO~1\AppData\Local\Temp\cc15HDCU.s 			page 24


 1312              	.LBE33:
 1313              	.LBE32:
 1314              		.cfi_endproc
 1315              	.LFE146:
 1316              		.size	USB_DevInit, .-USB_DevInit
 1317              		.section	.text.USB_SetDevSpeed,"ax",%progbits
 1318              		.align	1
 1319              		.p2align 4,,15
 1320              		.global	USB_SetDevSpeed
 1321              		.syntax unified
 1322              		.thumb
 1323              		.thumb_func
 1324              		.type	USB_SetDevSpeed, %function
 1325              	USB_SetDevSpeed:
 1326              	.LVL91:
 1327              	.LFB149:
 1328              		.loc 1 533 1 is_stmt 1 view -0
 1329              		.cfi_startproc
 1330              		@ args = 0, pretend = 0, frame = 0
 1331              		@ frame_needed = 0, uses_anonymous_args = 0
 1332              		@ link register save eliminated.
 1333              		.loc 1 534 3 view .LVU444
 1334              		.loc 1 533 1 is_stmt 0 view .LVU445
 1335 0000 0346     		mov	r3, r0
 1336              		.loc 1 538 1 view .LVU446
 1337 0002 0020     		movs	r0, #0
 1338              	.LVL92:
 1339              		.loc 1 536 3 is_stmt 1 view .LVU447
 1340              		.loc 1 536 21 is_stmt 0 view .LVU448
 1341 0004 D3F80028 		ldr	r2, [r3, #2048]
 1342 0008 1143     		orrs	r1, r1, r2
 1343              	.LVL93:
 1344              		.loc 1 536 21 view .LVU449
 1345 000a C3F80018 		str	r1, [r3, #2048]
 1346              		.loc 1 537 3 is_stmt 1 view .LVU450
 1347              		.loc 1 538 1 is_stmt 0 view .LVU451
 1348 000e 7047     		bx	lr
 1349              		.cfi_endproc
 1350              	.LFE149:
 1351              		.size	USB_SetDevSpeed, .-USB_SetDevSpeed
 1352              		.section	.text.USB_GetDevSpeed,"ax",%progbits
 1353              		.align	1
 1354              		.p2align 4,,15
 1355              		.global	USB_GetDevSpeed
 1356              		.syntax unified
 1357              		.thumb
 1358              		.thumb_func
 1359              		.type	USB_GetDevSpeed, %function
 1360              	USB_GetDevSpeed:
 1361              	.LVL94:
 1362              	.LFB150:
 1363              		.loc 1 549 1 is_stmt 1 view -0
 1364              		.cfi_startproc
 1365              		@ args = 0, pretend = 0, frame = 0
 1366              		@ frame_needed = 0, uses_anonymous_args = 0
 1367              		@ link register save eliminated.
 1368              		.loc 1 550 3 view .LVU453
ARM GAS  C:\Users\DEVELO~1\AppData\Local\Temp\cc15HDCU.s 			page 25


 1369              		.loc 1 551 3 view .LVU454
 1370              		.loc 1 552 3 view .LVU455
 1371              		.loc 1 552 38 is_stmt 0 view .LVU456
 1372 0000 D0F80838 		ldr	r3, [r0, #2056]
 1373              	.LVL95:
 1374              		.loc 1 554 3 is_stmt 1 view .LVU457
 1375              		.loc 1 554 6 is_stmt 0 view .LVU458
 1376 0004 13F00600 		ands	r0, r3, #6
 1377              	.LVL96:
 1378              		.loc 1 554 6 view .LVU459
 1379 0008 04D0     		beq	.L117
 1380              		.loc 1 558 8 is_stmt 1 view .LVU460
 1381              		.loc 1 565 11 is_stmt 0 view .LVU461
 1382 000a 13F0020F 		tst	r3, #2
 1383 000e 14BF     		ite	ne
 1384 0010 0220     		movne	r0, #2
 1385              	.LVL97:
 1386              		.loc 1 565 11 view .LVU462
 1387 0012 0F20     		moveq	r0, #15
 1388              	.L117:
 1389              	.LVL98:
 1390              		.loc 1 568 3 is_stmt 1 view .LVU463
 1391              		.loc 1 569 1 is_stmt 0 view .LVU464
 1392 0014 7047     		bx	lr
 1393              		.cfi_endproc
 1394              	.LFE150:
 1395              		.size	USB_GetDevSpeed, .-USB_GetDevSpeed
 1396 0016 00BF     		.section	.text.USB_ActivateEndpoint,"ax",%progbits
 1397              		.align	1
 1398              		.p2align 4,,15
 1399              		.global	USB_ActivateEndpoint
 1400              		.syntax unified
 1401              		.thumb
 1402              		.thumb_func
 1403              		.type	USB_ActivateEndpoint, %function
 1404              	USB_ActivateEndpoint:
 1405              	.LVL99:
 1406              	.LFB151:
 1407              		.loc 1 578 1 is_stmt 1 view -0
 1408              		.cfi_startproc
 1409              		@ args = 0, pretend = 0, frame = 0
 1410              		@ frame_needed = 0, uses_anonymous_args = 0
 1411              		@ link register save eliminated.
 1412              		.loc 1 579 3 view .LVU466
 1413              		.loc 1 580 3 view .LVU467
 1414              		.loc 1 578 1 is_stmt 0 view .LVU468
 1415 0000 30B4     		push	{r4, r5}
 1416              		.cfi_def_cfa_offset 8
 1417              		.cfi_offset 4, -8
 1418              		.cfi_offset 5, -4
 1419              		.loc 1 582 6 view .LVU469
 1420 0002 4B78     		ldrb	r3, [r1, #1]	@ zero_extendqisi2
 1421              		.loc 1 580 32 view .LVU470
 1422 0004 0A78     		ldrb	r2, [r1]	@ zero_extendqisi2
 1423              	.LVL100:
 1424              		.loc 1 582 3 is_stmt 1 view .LVU471
 1425              		.loc 1 582 6 is_stmt 0 view .LVU472
ARM GAS  C:\Users\DEVELO~1\AppData\Local\Temp\cc15HDCU.s 			page 26


 1426 0006 012B     		cmp	r3, #1
 1427 0008 20D0     		beq	.L126
 1428              		.loc 1 596 5 is_stmt 1 view .LVU473
 1429              		.loc 1 596 82 is_stmt 0 view .LVU474
 1430 000a 02F00F0C 		and	ip, r2, #15
 1431              		.loc 1 596 55 view .LVU475
 1432 000e 4FF48033 		mov	r3, #65536
 1433              		.loc 1 596 27 view .LVU476
 1434 0012 D0F81C48 		ldr	r4, [r0, #2076]
 1435              		.loc 1 598 11 view .LVU477
 1436 0016 00EB4212 		add	r2, r0, r2, lsl #5
 1437              	.LVL101:
 1438              		.loc 1 596 52 view .LVU478
 1439 001a 03FA0CF3 		lsl	r3, r3, ip
 1440              		.loc 1 596 27 view .LVU479
 1441 001e 2343     		orrs	r3, r3, r4
 1442 0020 C0F81C38 		str	r3, [r0, #2076]
 1443              	.LVL102:
 1444              		.loc 1 598 5 is_stmt 1 view .LVU480
 1445              		.loc 1 598 28 is_stmt 0 view .LVU481
 1446 0024 D2F8003B 		ldr	r3, [r2, #2816]
 1447              		.loc 1 598 8 view .LVU482
 1448 0028 1B04     		lsls	r3, r3, #16
 1449 002a 0CD4     		bmi	.L123
 1450              		.loc 1 600 7 is_stmt 1 view .LVU483
 1451              		.loc 1 600 52 is_stmt 0 view .LVU484
 1452 002c 8B68     		ldr	r3, [r1, #8]
 1453              		.loc 1 600 34 view .LVU485
 1454 002e D2F8004B 		ldr	r4, [r2, #2816]
 1455              		.loc 1 600 52 view .LVU486
 1456 0032 C3F30A03 		ubfx	r3, r3, #0, #11
 1457              		.loc 1 601 38 view .LVU487
 1458 0036 0879     		ldrb	r0, [r1, #4]	@ zero_extendqisi2
 1459              	.LVL103:
 1460              		.loc 1 600 34 view .LVU488
 1461 0038 1449     		ldr	r1, .L127
 1462              	.LVL104:
 1463              		.loc 1 600 34 view .LVU489
 1464 003a 2343     		orrs	r3, r3, r4
 1465 003c 43EA8043 		orr	r3, r3, r0, lsl #18
 1466 0040 1943     		orrs	r1, r1, r3
 1467 0042 C2F8001B 		str	r1, [r2, #2816]
 1468              	.L123:
 1469              		.loc 1 606 3 is_stmt 1 view .LVU490
 1470              		.loc 1 607 1 is_stmt 0 view .LVU491
 1471 0046 0020     		movs	r0, #0
 1472 0048 30BC     		pop	{r4, r5}
 1473              		.cfi_remember_state
 1474              		.cfi_restore 5
 1475              		.cfi_restore 4
 1476              		.cfi_def_cfa_offset 0
 1477 004a 7047     		bx	lr
 1478              	.LVL105:
 1479              	.L126:
 1480              		.cfi_restore_state
 1481              		.loc 1 584 5 is_stmt 1 view .LVU492
 1482              		.loc 1 584 27 is_stmt 0 view .LVU493
ARM GAS  C:\Users\DEVELO~1\AppData\Local\Temp\cc15HDCU.s 			page 27


 1483 004c 00F50064 		add	r4, r0, #2048
 1484              		.loc 1 584 81 view .LVU494
 1485 0050 02F00F05 		and	r5, r2, #15
 1486              		.loc 1 586 10 view .LVU495
 1487 0054 00EB4210 		add	r0, r0, r2, lsl #5
 1488              	.LVL106:
 1489              		.loc 1 584 54 view .LVU496
 1490 0058 AB40     		lsls	r3, r3, r5
 1491              		.loc 1 584 27 view .LVU497
 1492 005a E569     		ldr	r5, [r4, #28]
 1493 005c 2B43     		orrs	r3, r3, r5
 1494 005e E361     		str	r3, [r4, #28]
 1495              		.loc 1 586 5 is_stmt 1 view .LVU498
 1496              		.loc 1 586 26 is_stmt 0 view .LVU499
 1497 0060 D0F80039 		ldr	r3, [r0, #2304]
 1498              		.loc 1 586 8 view .LVU500
 1499 0064 1C04     		lsls	r4, r3, #16
 1500              	.LVL107:
 1501              		.loc 1 586 8 view .LVU501
 1502 0066 EED4     		bmi	.L123
 1503              		.loc 1 588 7 is_stmt 1 view .LVU502
 1504              		.loc 1 588 51 is_stmt 0 view .LVU503
 1505 0068 8B68     		ldr	r3, [r1, #8]
 1506              		.loc 1 588 33 view .LVU504
 1507 006a D0F80059 		ldr	r5, [r0, #2304]
 1508              		.loc 1 588 51 view .LVU505
 1509 006e C3F30A03 		ubfx	r3, r3, #0, #11
 1510              		.loc 1 589 37 view .LVU506
 1511 0072 0C79     		ldrb	r4, [r1, #4]	@ zero_extendqisi2
 1512              		.loc 1 588 33 view .LVU507
 1513 0074 0549     		ldr	r1, .L127
 1514              	.LVL108:
 1515              		.loc 1 588 33 view .LVU508
 1516 0076 2B43     		orrs	r3, r3, r5
 1517 0078 43EA8443 		orr	r3, r3, r4, lsl #18
 1518 007c 43EA8253 		orr	r3, r3, r2, lsl #22
 1519 0080 1943     		orrs	r1, r1, r3
 1520              		.loc 1 607 1 view .LVU509
 1521 0082 30BC     		pop	{r4, r5}
 1522              		.cfi_restore 5
 1523              		.cfi_restore 4
 1524              		.cfi_def_cfa_offset 0
 1525              		.loc 1 588 33 view .LVU510
 1526 0084 C0F80019 		str	r1, [r0, #2304]
 1527              		.loc 1 606 3 is_stmt 1 view .LVU511
 1528              		.loc 1 607 1 is_stmt 0 view .LVU512
 1529 0088 0020     		movs	r0, #0
 1530 008a 7047     		bx	lr
 1531              	.L128:
 1532              		.align	2
 1533              	.L127:
 1534 008c 00800010 		.word	268468224
 1535              		.cfi_endproc
 1536              	.LFE151:
 1537              		.size	USB_ActivateEndpoint, .-USB_ActivateEndpoint
 1538              		.section	.text.USB_ActivateDedicatedEndpoint,"ax",%progbits
 1539              		.align	1
ARM GAS  C:\Users\DEVELO~1\AppData\Local\Temp\cc15HDCU.s 			page 28


 1540              		.p2align 4,,15
 1541              		.global	USB_ActivateDedicatedEndpoint
 1542              		.syntax unified
 1543              		.thumb
 1544              		.thumb_func
 1545              		.type	USB_ActivateDedicatedEndpoint, %function
 1546              	USB_ActivateDedicatedEndpoint:
 1547              	.LVL109:
 1548              	.LFB152:
 1549              		.loc 1 616 1 is_stmt 1 view -0
 1550              		.cfi_startproc
 1551              		@ args = 0, pretend = 0, frame = 0
 1552              		@ frame_needed = 0, uses_anonymous_args = 0
 1553              		@ link register save eliminated.
 1554              		.loc 1 617 3 view .LVU514
 1555              		.loc 1 618 3 view .LVU515
 1556              		.loc 1 616 1 is_stmt 0 view .LVU516
 1557 0000 10B4     		push	{r4}
 1558              		.cfi_def_cfa_offset 4
 1559              		.cfi_offset 4, -4
 1560              		.loc 1 621 6 view .LVU517
 1561 0002 4A78     		ldrb	r2, [r1, #1]	@ zero_extendqisi2
 1562              		.loc 1 618 32 view .LVU518
 1563 0004 0B78     		ldrb	r3, [r1]	@ zero_extendqisi2
 1564              	.LVL110:
 1565              		.loc 1 621 3 is_stmt 1 view .LVU519
 1566              		.loc 1 621 6 is_stmt 0 view .LVU520
 1567 0006 012A     		cmp	r2, #1
 1568              		.loc 1 623 11 view .LVU521
 1569 0008 00EB431C 		add	ip, r0, r3, lsl #5
 1570              		.loc 1 621 6 view .LVU522
 1571 000c 21D0     		beq	.L135
 1572              		.loc 1 635 5 is_stmt 1 view .LVU523
 1573              		.loc 1 635 28 is_stmt 0 view .LVU524
 1574 000e DCF8002B 		ldr	r2, [ip, #2816]
 1575              		.loc 1 635 8 view .LVU525
 1576 0012 1204     		lsls	r2, r2, #16
 1577 0014 0DD5     		bpl	.L136
 1578              	.LVL111:
 1579              	.L133:
 1580              		.loc 1 642 5 is_stmt 1 view .LVU526
 1581              		.loc 1 642 82 is_stmt 0 view .LVU527
 1582 0016 03F00F03 		and	r3, r3, #15
 1583              	.LVL112:
 1584              		.loc 1 642 55 view .LVU528
 1585 001a 4FF48032 		mov	r2, #65536
 1586              		.loc 1 642 27 view .LVU529
 1587 001e D0F83C18 		ldr	r1, [r0, #2108]
 1588              		.loc 1 642 52 view .LVU530
 1589 0022 02FA03F3 		lsl	r3, r2, r3
 1590              		.loc 1 646 1 view .LVU531
 1591 0026 10BC     		pop	{r4}
 1592              		.cfi_remember_state
 1593              		.cfi_restore 4
 1594              		.cfi_def_cfa_offset 0
 1595              		.loc 1 642 27 view .LVU532
 1596 0028 0B43     		orrs	r3, r3, r1
ARM GAS  C:\Users\DEVELO~1\AppData\Local\Temp\cc15HDCU.s 			page 29


 1597 002a C0F83C38 		str	r3, [r0, #2108]
 1598              		.loc 1 645 3 is_stmt 1 view .LVU533
 1599              		.loc 1 646 1 is_stmt 0 view .LVU534
 1600 002e 0020     		movs	r0, #0
 1601              	.LVL113:
 1602              		.loc 1 646 1 view .LVU535
 1603 0030 7047     		bx	lr
 1604              	.LVL114:
 1605              	.L136:
 1606              		.cfi_restore_state
 1607              		.loc 1 637 7 is_stmt 1 view .LVU536
 1608              		.loc 1 637 52 is_stmt 0 view .LVU537
 1609 0032 8A68     		ldr	r2, [r1, #8]
 1610              		.loc 1 637 34 view .LVU538
 1611 0034 DCF8004B 		ldr	r4, [ip, #2816]
 1612              		.loc 1 637 52 view .LVU539
 1613 0038 C2F30A02 		ubfx	r2, r2, #0, #11
 1614              		.loc 1 638 38 view .LVU540
 1615 003c 0979     		ldrb	r1, [r1, #4]	@ zero_extendqisi2
 1616              	.LVL115:
 1617              		.loc 1 637 34 view .LVU541
 1618 003e 2243     		orrs	r2, r2, r4
 1619 0040 42EA8142 		orr	r2, r2, r1, lsl #18
 1620 0044 42EA8352 		orr	r2, r2, r3, lsl #22
 1621 0048 42F40042 		orr	r2, r2, #32768
 1622 004c CCF8002B 		str	r2, [ip, #2816]
 1623 0050 E1E7     		b	.L133
 1624              	.LVL116:
 1625              	.L135:
 1626              		.loc 1 623 5 is_stmt 1 view .LVU542
 1627              		.loc 1 623 27 is_stmt 0 view .LVU543
 1628 0052 DCF80029 		ldr	r2, [ip, #2304]
 1629              		.loc 1 623 8 view .LVU544
 1630 0056 1404     		lsls	r4, r2, #16
 1631 0058 0ED4     		bmi	.L131
 1632              		.loc 1 625 7 is_stmt 1 view .LVU545
 1633              		.loc 1 625 51 is_stmt 0 view .LVU546
 1634 005a 8A68     		ldr	r2, [r1, #8]
 1635              		.loc 1 625 33 view .LVU547
 1636 005c DCF80049 		ldr	r4, [ip, #2304]
 1637              		.loc 1 625 51 view .LVU548
 1638 0060 C2F30A02 		ubfx	r2, r2, #0, #11
 1639              		.loc 1 626 37 view .LVU549
 1640 0064 0979     		ldrb	r1, [r1, #4]	@ zero_extendqisi2
 1641              	.LVL117:
 1642              		.loc 1 625 33 view .LVU550
 1643 0066 2243     		orrs	r2, r2, r4
 1644 0068 42EA8142 		orr	r2, r2, r1, lsl #18
 1645 006c 0849     		ldr	r1, .L137
 1646 006e 42EA8352 		orr	r2, r2, r3, lsl #22
 1647 0072 1143     		orrs	r1, r1, r2
 1648 0074 CCF80019 		str	r1, [ip, #2304]
 1649              	.L131:
 1650              		.loc 1 631 5 is_stmt 1 view .LVU551
 1651              		.loc 1 631 81 is_stmt 0 view .LVU552
 1652 0078 03F00F01 		and	r1, r3, #15
 1653              		.loc 1 631 54 view .LVU553
ARM GAS  C:\Users\DEVELO~1\AppData\Local\Temp\cc15HDCU.s 			page 30


 1654 007c 0123     		movs	r3, #1
 1655              	.LVL118:
 1656              		.loc 1 631 27 view .LVU554
 1657 007e D0F83C28 		ldr	r2, [r0, #2108]
 1658              		.loc 1 631 54 view .LVU555
 1659 0082 8B40     		lsls	r3, r3, r1
 1660              		.loc 1 646 1 view .LVU556
 1661 0084 10BC     		pop	{r4}
 1662              		.cfi_restore 4
 1663              		.cfi_def_cfa_offset 0
 1664              		.loc 1 631 27 view .LVU557
 1665 0086 1343     		orrs	r3, r3, r2
 1666 0088 C0F83C38 		str	r3, [r0, #2108]
 1667              		.loc 1 645 3 is_stmt 1 view .LVU558
 1668              		.loc 1 646 1 is_stmt 0 view .LVU559
 1669 008c 0020     		movs	r0, #0
 1670              	.LVL119:
 1671              		.loc 1 646 1 view .LVU560
 1672 008e 7047     		bx	lr
 1673              	.L138:
 1674              		.align	2
 1675              	.L137:
 1676 0090 00800010 		.word	268468224
 1677              		.cfi_endproc
 1678              	.LFE152:
 1679              		.size	USB_ActivateDedicatedEndpoint, .-USB_ActivateDedicatedEndpoint
 1680              		.section	.text.USB_DeactivateEndpoint,"ax",%progbits
 1681              		.align	1
 1682              		.p2align 4,,15
 1683              		.global	USB_DeactivateEndpoint
 1684              		.syntax unified
 1685              		.thumb
 1686              		.thumb_func
 1687              		.type	USB_DeactivateEndpoint, %function
 1688              	USB_DeactivateEndpoint:
 1689              	.LVL120:
 1690              	.LFB153:
 1691              		.loc 1 655 1 is_stmt 1 view -0
 1692              		.cfi_startproc
 1693              		@ args = 0, pretend = 0, frame = 0
 1694              		@ frame_needed = 0, uses_anonymous_args = 0
 1695              		@ link register save eliminated.
 1696              		.loc 1 656 3 view .LVU562
 1697              		.loc 1 657 3 view .LVU563
 1698              		.loc 1 660 6 is_stmt 0 view .LVU564
 1699 0000 4A78     		ldrb	r2, [r1, #1]	@ zero_extendqisi2
 1700              		.loc 1 657 32 view .LVU565
 1701 0002 0B78     		ldrb	r3, [r1]	@ zero_extendqisi2
 1702              	.LVL121:
 1703              		.loc 1 660 3 is_stmt 1 view .LVU566
 1704              		.loc 1 660 6 is_stmt 0 view .LVU567
 1705 0004 012A     		cmp	r2, #1
 1706              		.loc 1 662 10 view .LVU568
 1707 0006 00EB431C 		add	ip, r0, r3, lsl #5
 1708              		.loc 1 660 6 view .LVU569
 1709 000a 2AD0     		beq	.L144
 1710              		.loc 1 678 5 is_stmt 1 view .LVU570
ARM GAS  C:\Users\DEVELO~1\AppData\Local\Temp\cc15HDCU.s 			page 31


 1711              		.loc 1 678 27 is_stmt 0 view .LVU571
 1712 000c DCF8002B 		ldr	r2, [ip, #2816]
 1713              		.loc 1 678 8 view .LVU572
 1714 0010 002A     		cmp	r2, #0
 1715 0012 19DB     		blt	.L145
 1716              	.L143:
 1717              		.loc 1 684 5 is_stmt 1 view .LVU573
 1718              		.loc 1 684 57 is_stmt 0 view .LVU574
 1719 0014 4FF48032 		mov	r2, #65536
 1720              		.loc 1 684 84 view .LVU575
 1721 0018 03F00F03 		and	r3, r3, #15
 1722              	.LVL122:
 1723              		.loc 1 684 27 view .LVU576
 1724 001c D0F83C18 		ldr	r1, [r0, #2108]
 1725              	.LVL123:
 1726              		.loc 1 684 54 view .LVU577
 1727 0020 02FA03F3 		lsl	r3, r2, r3
 1728              		.loc 1 686 32 view .LVU578
 1729 0024 234A     		ldr	r2, .L146
 1730              		.loc 1 684 27 view .LVU579
 1731 0026 21EA0301 		bic	r1, r1, r3
 1732 002a C0F83C18 		str	r1, [r0, #2108]
 1733              		.loc 1 685 5 is_stmt 1 view .LVU580
 1734              		.loc 1 685 27 is_stmt 0 view .LVU581
 1735 002e D0F81C18 		ldr	r1, [r0, #2076]
 1736 0032 21EA0303 		bic	r3, r1, r3
 1737 0036 C0F81C38 		str	r3, [r0, #2076]
 1738              		.loc 1 686 5 is_stmt 1 view .LVU582
 1739              		.loc 1 693 1 is_stmt 0 view .LVU583
 1740 003a 0020     		movs	r0, #0
 1741              	.LVL124:
 1742              		.loc 1 686 32 view .LVU584
 1743 003c DCF8003B 		ldr	r3, [ip, #2816]
 1744 0040 1A40     		ands	r2, r2, r3
 1745 0042 CCF8002B 		str	r2, [ip, #2816]
 1746              		.loc 1 692 3 is_stmt 1 view .LVU585
 1747              		.loc 1 693 1 is_stmt 0 view .LVU586
 1748 0046 7047     		bx	lr
 1749              	.LVL125:
 1750              	.L145:
 1751              		.loc 1 680 7 is_stmt 1 view .LVU587
 1752              		.loc 1 680 34 is_stmt 0 view .LVU588
 1753 0048 DCF8002B 		ldr	r2, [ip, #2816]
 1754 004c 42F00062 		orr	r2, r2, #134217728
 1755 0050 CCF8002B 		str	r2, [ip, #2816]
 1756              		.loc 1 681 7 is_stmt 1 view .LVU589
 1757              		.loc 1 681 34 is_stmt 0 view .LVU590
 1758 0054 DCF8002B 		ldr	r2, [ip, #2816]
 1759 0058 42F08042 		orr	r2, r2, #1073741824
 1760 005c CCF8002B 		str	r2, [ip, #2816]
 1761 0060 D8E7     		b	.L143
 1762              	.L144:
 1763              		.loc 1 662 5 is_stmt 1 view .LVU591
 1764              		.loc 1 662 26 is_stmt 0 view .LVU592
 1765 0062 DCF80029 		ldr	r2, [ip, #2304]
 1766              		.loc 1 662 8 view .LVU593
 1767 0066 002A     		cmp	r2, #0
ARM GAS  C:\Users\DEVELO~1\AppData\Local\Temp\cc15HDCU.s 			page 32


 1768 0068 0BDA     		bge	.L141
 1769              		.loc 1 664 7 is_stmt 1 view .LVU594
 1770              		.loc 1 664 33 is_stmt 0 view .LVU595
 1771 006a DCF80029 		ldr	r2, [ip, #2304]
 1772 006e 42F00062 		orr	r2, r2, #134217728
 1773 0072 CCF80029 		str	r2, [ip, #2304]
 1774              		.loc 1 665 7 is_stmt 1 view .LVU596
 1775              		.loc 1 665 33 is_stmt 0 view .LVU597
 1776 0076 DCF80029 		ldr	r2, [ip, #2304]
 1777 007a 42F08042 		orr	r2, r2, #1073741824
 1778 007e CCF80029 		str	r2, [ip, #2304]
 1779              	.L141:
 1780              		.loc 1 668 5 is_stmt 1 view .LVU598
 1781              		.loc 1 668 83 is_stmt 0 view .LVU599
 1782 0082 03F00F02 		and	r2, r3, #15
 1783              		.loc 1 668 56 view .LVU600
 1784 0086 0123     		movs	r3, #1
 1785              	.LVL126:
 1786              		.loc 1 668 27 view .LVU601
 1787 0088 D0F83C18 		ldr	r1, [r0, #2108]
 1788              	.LVL127:
 1789              		.loc 1 668 56 view .LVU602
 1790 008c 9340     		lsls	r3, r3, r2
 1791              		.loc 1 670 31 view .LVU603
 1792 008e 0A4A     		ldr	r2, .L146+4
 1793              		.loc 1 668 27 view .LVU604
 1794 0090 21EA0301 		bic	r1, r1, r3
 1795 0094 C0F83C18 		str	r1, [r0, #2108]
 1796              		.loc 1 669 5 is_stmt 1 view .LVU605
 1797              		.loc 1 669 27 is_stmt 0 view .LVU606
 1798 0098 D0F81C18 		ldr	r1, [r0, #2076]
 1799 009c 21EA0303 		bic	r3, r1, r3
 1800 00a0 C0F81C38 		str	r3, [r0, #2076]
 1801              		.loc 1 670 5 is_stmt 1 view .LVU607
 1802              		.loc 1 693 1 is_stmt 0 view .LVU608
 1803 00a4 0020     		movs	r0, #0
 1804              	.LVL128:
 1805              		.loc 1 670 31 view .LVU609
 1806 00a6 DCF80039 		ldr	r3, [ip, #2304]
 1807 00aa 1A40     		ands	r2, r2, r3
 1808 00ac CCF80029 		str	r2, [ip, #2304]
 1809              		.loc 1 692 3 is_stmt 1 view .LVU610
 1810              		.loc 1 693 1 is_stmt 0 view .LVU611
 1811 00b0 7047     		bx	lr
 1812              	.L147:
 1813 00b2 00BF     		.align	2
 1814              	.L146:
 1815 00b4 0078F3EF 		.word	-269256704
 1816 00b8 007833EC 		.word	-332171264
 1817              		.cfi_endproc
 1818              	.LFE153:
 1819              		.size	USB_DeactivateEndpoint, .-USB_DeactivateEndpoint
 1820              		.section	.text.USB_DeactivateDedicatedEndpoint,"ax",%progbits
 1821              		.align	1
 1822              		.p2align 4,,15
 1823              		.global	USB_DeactivateDedicatedEndpoint
 1824              		.syntax unified
ARM GAS  C:\Users\DEVELO~1\AppData\Local\Temp\cc15HDCU.s 			page 33


 1825              		.thumb
 1826              		.thumb_func
 1827              		.type	USB_DeactivateDedicatedEndpoint, %function
 1828              	USB_DeactivateDedicatedEndpoint:
 1829              	.LVL129:
 1830              	.LFB154:
 1831              		.loc 1 702 1 is_stmt 1 view -0
 1832              		.cfi_startproc
 1833              		@ args = 0, pretend = 0, frame = 0
 1834              		@ frame_needed = 0, uses_anonymous_args = 0
 1835              		@ link register save eliminated.
 1836              		.loc 1 703 3 view .LVU613
 1837              		.loc 1 704 3 view .LVU614
 1838              		.loc 1 702 1 is_stmt 0 view .LVU615
 1839 0000 10B4     		push	{r4}
 1840              		.cfi_def_cfa_offset 4
 1841              		.cfi_offset 4, -4
 1842              		.loc 1 707 6 view .LVU616
 1843 0002 4A78     		ldrb	r2, [r1, #1]	@ zero_extendqisi2
 1844              		.loc 1 704 32 view .LVU617
 1845 0004 0B78     		ldrb	r3, [r1]	@ zero_extendqisi2
 1846              	.LVL130:
 1847              		.loc 1 707 3 is_stmt 1 view .LVU618
 1848              		.loc 1 707 6 is_stmt 0 view .LVU619
 1849 0006 012A     		cmp	r2, #1
 1850              		.loc 1 709 10 view .LVU620
 1851 0008 00EB4312 		add	r2, r0, r3, lsl #5
 1852              		.loc 1 707 6 view .LVU621
 1853 000c 24D0     		beq	.L154
 1854              		.loc 1 720 5 is_stmt 1 view .LVU622
 1855              		.loc 1 720 27 is_stmt 0 view .LVU623
 1856 000e D2F8001B 		ldr	r1, [r2, #2816]
 1857              	.LVL131:
 1858              		.loc 1 720 8 view .LVU624
 1859 0012 0029     		cmp	r1, #0
 1860 0014 13DB     		blt	.L155
 1861              	.L152:
 1862              		.loc 1 726 5 is_stmt 1 view .LVU625
 1863              		.loc 1 726 32 is_stmt 0 view .LVU626
 1864 0016 D2F8004B 		ldr	r4, [r2, #2816]
 1865              		.loc 1 727 84 view .LVU627
 1866 001a 03F00F03 		and	r3, r3, #15
 1867              	.LVL132:
 1868              		.loc 1 727 57 view .LVU628
 1869 001e 4FF48031 		mov	r1, #65536
 1870              		.loc 1 726 32 view .LVU629
 1871 0022 24F40044 		bic	r4, r4, #32768
 1872              		.loc 1 727 54 view .LVU630
 1873 0026 9940     		lsls	r1, r1, r3
 1874              		.loc 1 726 32 view .LVU631
 1875 0028 C2F8004B 		str	r4, [r2, #2816]
 1876              		.loc 1 727 5 is_stmt 1 view .LVU632
 1877              		.loc 1 727 27 is_stmt 0 view .LVU633
 1878 002c D0F81C38 		ldr	r3, [r0, #2076]
 1879              		.loc 1 731 1 view .LVU634
 1880 0030 10BC     		pop	{r4}
 1881              		.cfi_remember_state
ARM GAS  C:\Users\DEVELO~1\AppData\Local\Temp\cc15HDCU.s 			page 34


 1882              		.cfi_restore 4
 1883              		.cfi_def_cfa_offset 0
 1884              		.loc 1 727 27 view .LVU635
 1885 0032 23EA0103 		bic	r3, r3, r1
 1886 0036 C0F81C38 		str	r3, [r0, #2076]
 1887              		.loc 1 730 3 is_stmt 1 view .LVU636
 1888              		.loc 1 731 1 is_stmt 0 view .LVU637
 1889 003a 0020     		movs	r0, #0
 1890              	.LVL133:
 1891              		.loc 1 731 1 view .LVU638
 1892 003c 7047     		bx	lr
 1893              	.LVL134:
 1894              	.L155:
 1895              		.cfi_restore_state
 1896              		.loc 1 722 7 is_stmt 1 view .LVU639
 1897              		.loc 1 722 35 is_stmt 0 view .LVU640
 1898 003e D2F8001B 		ldr	r1, [r2, #2816]
 1899 0042 41F00061 		orr	r1, r1, #134217728
 1900 0046 C2F8001B 		str	r1, [r2, #2816]
 1901              		.loc 1 723 7 is_stmt 1 view .LVU641
 1902              		.loc 1 723 35 is_stmt 0 view .LVU642
 1903 004a D2F8001B 		ldr	r1, [r2, #2816]
 1904 004e 41F08041 		orr	r1, r1, #1073741824
 1905 0052 C2F8001B 		str	r1, [r2, #2816]
 1906 0056 DEE7     		b	.L152
 1907              	.LVL135:
 1908              	.L154:
 1909              		.loc 1 709 5 is_stmt 1 view .LVU643
 1910              		.loc 1 709 26 is_stmt 0 view .LVU644
 1911 0058 D2F80019 		ldr	r1, [r2, #2304]
 1912              	.LVL136:
 1913              		.loc 1 709 8 view .LVU645
 1914 005c 0029     		cmp	r1, #0
 1915 005e 0BDA     		bge	.L150
 1916              		.loc 1 711 7 is_stmt 1 view .LVU646
 1917              		.loc 1 711 34 is_stmt 0 view .LVU647
 1918 0060 D2F80019 		ldr	r1, [r2, #2304]
 1919 0064 41F00061 		orr	r1, r1, #134217728
 1920 0068 C2F80019 		str	r1, [r2, #2304]
 1921              		.loc 1 712 7 is_stmt 1 view .LVU648
 1922              		.loc 1 712 34 is_stmt 0 view .LVU649
 1923 006c D2F80019 		ldr	r1, [r2, #2304]
 1924 0070 41F08041 		orr	r1, r1, #1073741824
 1925 0074 C2F80019 		str	r1, [r2, #2304]
 1926              	.L150:
 1927              		.loc 1 715 5 is_stmt 1 view .LVU650
 1928              		.loc 1 715 31 is_stmt 0 view .LVU651
 1929 0078 D2F80049 		ldr	r4, [r2, #2304]
 1930              		.loc 1 716 83 view .LVU652
 1931 007c 03F00F03 		and	r3, r3, #15
 1932              	.LVL137:
 1933              		.loc 1 716 56 view .LVU653
 1934 0080 0121     		movs	r1, #1
 1935              		.loc 1 715 31 view .LVU654
 1936 0082 24F40044 		bic	r4, r4, #32768
 1937              		.loc 1 716 56 view .LVU655
 1938 0086 9940     		lsls	r1, r1, r3
ARM GAS  C:\Users\DEVELO~1\AppData\Local\Temp\cc15HDCU.s 			page 35


 1939              		.loc 1 715 31 view .LVU656
 1940 0088 C2F80049 		str	r4, [r2, #2304]
 1941              		.loc 1 716 5 is_stmt 1 view .LVU657
 1942              		.loc 1 716 27 is_stmt 0 view .LVU658
 1943 008c D0F81C38 		ldr	r3, [r0, #2076]
 1944              		.loc 1 731 1 view .LVU659
 1945 0090 10BC     		pop	{r4}
 1946              		.cfi_restore 4
 1947              		.cfi_def_cfa_offset 0
 1948              		.loc 1 716 27 view .LVU660
 1949 0092 23EA0103 		bic	r3, r3, r1
 1950 0096 C0F81C38 		str	r3, [r0, #2076]
 1951              		.loc 1 730 3 is_stmt 1 view .LVU661
 1952              		.loc 1 731 1 is_stmt 0 view .LVU662
 1953 009a 0020     		movs	r0, #0
 1954              	.LVL138:
 1955              		.loc 1 731 1 view .LVU663
 1956 009c 7047     		bx	lr
 1957              		.cfi_endproc
 1958              	.LFE154:
 1959              		.size	USB_DeactivateDedicatedEndpoint, .-USB_DeactivateDedicatedEndpoint
 1960 009e 00BF     		.section	.text.USB_EPStartXfer,"ax",%progbits
 1961              		.align	1
 1962              		.p2align 4,,15
 1963              		.global	USB_EPStartXfer
 1964              		.syntax unified
 1965              		.thumb
 1966              		.thumb_func
 1967              		.type	USB_EPStartXfer, %function
 1968              	USB_EPStartXfer:
 1969              	.LVL139:
 1970              	.LFB155:
 1971              		.loc 1 744 1 is_stmt 1 view -0
 1972              		.cfi_startproc
 1973              		@ args = 0, pretend = 0, frame = 0
 1974              		@ frame_needed = 0, uses_anonymous_args = 0
 1975              		.loc 1 745 3 view .LVU665
 1976              		.loc 1 746 3 view .LVU666
 1977              		.loc 1 744 1 is_stmt 0 view .LVU667
 1978 0000 F0B5     		push	{r4, r5, r6, r7, lr}
 1979              		.cfi_def_cfa_offset 20
 1980              		.cfi_offset 4, -20
 1981              		.cfi_offset 5, -16
 1982              		.cfi_offset 6, -12
 1983              		.cfi_offset 7, -8
 1984              		.cfi_offset 14, -4
 1985              		.loc 1 750 6 view .LVU668
 1986 0002 4B78     		ldrb	r3, [r1, #1]	@ zero_extendqisi2
 1987              		.loc 1 746 32 view .LVU669
 1988 0004 0C78     		ldrb	r4, [r1]	@ zero_extendqisi2
 1989              	.LVL140:
 1990              		.loc 1 747 3 is_stmt 1 view .LVU670
 1991              		.loc 1 750 3 view .LVU671
 1992              		.loc 1 750 6 is_stmt 0 view .LVU672
 1993 0006 012B     		cmp	r3, #1
 1994 0008 44D0     		beq	.L194
 1995              		.loc 1 849 5 is_stmt 1 view .LVU673
ARM GAS  C:\Users\DEVELO~1\AppData\Local\Temp\cc15HDCU.s 			page 36


 1996              		.loc 1 849 33 is_stmt 0 view .LVU674
 1997 000a 00EB4413 		add	r3, r0, r4, lsl #5
 1998 000e 864E     		ldr	r6, .L198
 1999              		.loc 1 850 33 view .LVU675
 2000 0010 864D     		ldr	r5, .L198+4
 2001              		.loc 1 849 33 view .LVU676
 2002 0012 D3F8107B 		ldr	r7, [r3, #2832]
 2003 0016 03F5306C 		add	ip, r3, #2816
 2004 001a 3E40     		ands	r6, r6, r7
 2005 001c C3F8106B 		str	r6, [r3, #2832]
 2006              		.loc 1 850 5 is_stmt 1 view .LVU677
 2007              		.loc 1 850 33 is_stmt 0 view .LVU678
 2008 0020 D3F8106B 		ldr	r6, [r3, #2832]
 2009 0024 3540     		ands	r5, r5, r6
 2010 0026 C3F8105B 		str	r5, [r3, #2832]
 2011              		.loc 1 852 5 is_stmt 1 view .LVU679
 2012              		.loc 1 852 8 is_stmt 0 view .LVU680
 2013 002a 74BB     		cbnz	r4, .L174
 2014              		.loc 1 854 7 is_stmt 1 view .LVU681
 2015              		.loc 1 854 10 is_stmt 0 view .LVU682
 2016 002c 0C69     		ldr	r4, [r1, #16]
 2017              	.LVL141:
 2018              		.loc 1 854 10 view .LVU683
 2019 002e 002C     		cmp	r4, #0
 2020 0030 40F08C80 		bne	.L175
 2021              		.loc 1 771 30 view .LVU684
 2022 0034 8C68     		ldr	r4, [r1, #8]
 2023              	.L176:
 2024              		.loc 1 860 7 is_stmt 1 view .LVU685
 2025              		.loc 1 860 21 is_stmt 0 view .LVU686
 2026 0036 0C62     		str	r4, [r1, #32]
 2027              		.loc 1 862 7 is_stmt 1 view .LVU687
 2028              	.L193:
 2029              		.loc 1 869 37 is_stmt 0 view .LVU688
 2030 0038 DCF81050 		ldr	r5, [ip, #16]
 2031              		.loc 1 869 65 view .LVU689
 2032 003c C4F31204 		ubfx	r4, r4, #0, #19
 2033              		.loc 1 882 8 view .LVU690
 2034 0040 012A     		cmp	r2, #1
 2035              		.loc 1 869 37 view .LVU691
 2036 0042 44EA0504 		orr	r4, r4, r5
 2037 0046 CCF81040 		str	r4, [ip, #16]
 2038              		.loc 1 870 9 is_stmt 1 view .LVU692
 2039              		.loc 1 870 37 is_stmt 0 view .LVU693
 2040 004a DCF81040 		ldr	r4, [ip, #16]
 2041 004e 44F40024 		orr	r4, r4, #524288
 2042 0052 CCF81040 		str	r4, [ip, #16]
 2043              		.loc 1 882 5 is_stmt 1 view .LVU694
 2044              		.loc 1 882 8 is_stmt 0 view .LVU695
 2045 0056 00F09A80 		beq	.L195
 2046              	.LVL142:
 2047              	.L179:
 2048              		.loc 1 890 5 is_stmt 1 view .LVU696
 2049              		.loc 1 890 8 is_stmt 0 view .LVU697
 2050 005a 0A79     		ldrb	r2, [r1, #4]	@ zero_extendqisi2
 2051 005c 012A     		cmp	r2, #1
 2052 005e 0CD1     		bne	.L180
ARM GAS  C:\Users\DEVELO~1\AppData\Local\Temp\cc15HDCU.s 			page 37


 2053              		.loc 1 892 7 is_stmt 1 view .LVU698
 2054              		.loc 1 892 23 is_stmt 0 view .LVU699
 2055 0060 D0F80828 		ldr	r2, [r0, #2056]
 2056              		.loc 1 892 10 view .LVU700
 2057 0064 12F4807F 		tst	r2, #256
 2058              		.loc 1 894 36 view .LVU701
 2059 0068 D3F8002B 		ldr	r2, [r3, #2816]
 2060              		.loc 1 894 9 is_stmt 1 view .LVU702
 2061              		.loc 1 894 36 is_stmt 0 view .LVU703
 2062 006c 0CBF     		ite	eq
 2063 006e 42F00052 		orreq	r2, r2, #536870912
 2064              		.loc 1 898 9 is_stmt 1 view .LVU704
 2065              		.loc 1 898 36 is_stmt 0 view .LVU705
 2066 0072 42F08052 		orrne	r2, r2, #268435456
 2067 0076 C3F8002B 		str	r2, [r3, #2816]
 2068              	.L180:
 2069              		.loc 1 902 5 is_stmt 1 view .LVU706
 2070              		.loc 1 902 32 is_stmt 0 view .LVU707
 2071 007a D3F8002B 		ldr	r2, [r3, #2816]
 2072              		.loc 1 906 1 view .LVU708
 2073 007e 0020     		movs	r0, #0
 2074              	.LVL143:
 2075              		.loc 1 902 32 view .LVU709
 2076 0080 42F00442 		orr	r2, r2, #-2080374784
 2077 0084 C3F8002B 		str	r2, [r3, #2816]
 2078              		.loc 1 905 3 is_stmt 1 view .LVU710
 2079              		.loc 1 906 1 is_stmt 0 view .LVU711
 2080 0088 F0BD     		pop	{r4, r5, r6, r7, pc}
 2081              	.LVL144:
 2082              	.L174:
 2083              		.loc 1 867 7 is_stmt 1 view .LVU712
 2084              		.loc 1 867 13 is_stmt 0 view .LVU713
 2085 008a 0C69     		ldr	r4, [r1, #16]
 2086              	.LVL145:
 2087              		.loc 1 867 10 view .LVU714
 2088 008c 002C     		cmp	r4, #0
 2089 008e 60D1     		bne	.L178
 2090              		.loc 1 869 9 is_stmt 1 view .LVU715
 2091              		.loc 1 869 65 is_stmt 0 view .LVU716
 2092 0090 8C68     		ldr	r4, [r1, #8]
 2093 0092 D1E7     		b	.L193
 2094              	.LVL146:
 2095              	.L194:
 2096              		.loc 1 753 5 is_stmt 1 view .LVU717
 2097              		.loc 1 755 34 is_stmt 0 view .LVU718
 2098 0094 00EB4413 		add	r3, r0, r4, lsl #5
 2099              		.loc 1 753 11 view .LVU719
 2100 0098 0D69     		ldr	r5, [r1, #16]
 2101              		.loc 1 755 34 view .LVU720
 2102 009a 03F51063 		add	r3, r3, #2304
 2103              		.loc 1 753 8 view .LVU721
 2104 009e 25BB     		cbnz	r5, .L158
 2105              		.loc 1 755 7 is_stmt 1 view .LVU722
 2106              		.loc 1 755 34 is_stmt 0 view .LVU723
 2107 00a0 1E69     		ldr	r6, [r3, #16]
 2108              		.loc 1 793 8 view .LVU724
 2109 00a2 012A     		cmp	r2, #1
ARM GAS  C:\Users\DEVELO~1\AppData\Local\Temp\cc15HDCU.s 			page 38


 2110              		.loc 1 755 34 view .LVU725
 2111 00a4 614D     		ldr	r5, .L198+4
 2112 00a6 05EA0605 		and	r5, r5, r6
 2113 00aa 1D61     		str	r5, [r3, #16]
 2114              		.loc 1 756 7 is_stmt 1 view .LVU726
 2115              		.loc 1 756 34 is_stmt 0 view .LVU727
 2116 00ac 1D69     		ldr	r5, [r3, #16]
 2117 00ae 45F40025 		orr	r5, r5, #524288
 2118 00b2 1D61     		str	r5, [r3, #16]
 2119              		.loc 1 757 7 is_stmt 1 view .LVU728
 2120              		.loc 1 757 34 is_stmt 0 view .LVU729
 2121 00b4 5C4D     		ldr	r5, .L198
 2122 00b6 1E69     		ldr	r6, [r3, #16]
 2123 00b8 05EA0605 		and	r5, r5, r6
 2124 00bc 1D61     		str	r5, [r3, #16]
 2125              		.loc 1 783 15 view .LVU730
 2126 00be 0F79     		ldrb	r7, [r1, #4]	@ zero_extendqisi2
 2127              		.loc 1 793 5 is_stmt 1 view .LVU731
 2128              		.loc 1 793 8 is_stmt 0 view .LVU732
 2129 00c0 2ED0     		beq	.L196
 2130              	.L163:
 2131              		.loc 1 818 7 is_stmt 1 view .LVU733
 2132              		.loc 1 818 33 is_stmt 0 view .LVU734
 2133 00c2 1D68     		ldr	r5, [r3]
 2134              		.loc 1 820 10 view .LVU735
 2135 00c4 012F     		cmp	r7, #1
 2136              		.loc 1 818 33 view .LVU736
 2137 00c6 45F00445 		orr	r5, r5, #-2080374784
 2138 00ca 1D60     		str	r5, [r3]
 2139              		.loc 1 820 7 is_stmt 1 view .LVU737
 2140              		.loc 1 820 10 is_stmt 0 view .LVU738
 2141 00cc 00F08880 		beq	.L168
 2142              		.loc 1 823 9 is_stmt 1 view .LVU739
 2143              		.loc 1 823 12 is_stmt 0 view .LVU740
 2144 00d0 0B69     		ldr	r3, [r1, #16]
 2145 00d2 43B1     		cbz	r3, .L167
 2146              		.loc 1 825 11 is_stmt 1 view .LVU741
 2147              		.loc 1 825 54 is_stmt 0 view .LVU742
 2148 00d4 04F00F04 		and	r4, r4, #15
 2149              	.LVL147:
 2150              		.loc 1 825 42 view .LVU743
 2151 00d8 0123     		movs	r3, #1
 2152              		.loc 1 825 35 view .LVU744
 2153 00da D0F83428 		ldr	r2, [r0, #2100]
 2154              	.LVL148:
 2155              		.loc 1 825 42 view .LVU745
 2156 00de A340     		lsls	r3, r3, r4
 2157              		.loc 1 825 35 view .LVU746
 2158 00e0 1343     		orrs	r3, r3, r2
 2159 00e2 C0F83438 		str	r3, [r0, #2100]
 2160              	.LVL149:
 2161              	.L167:
 2162              		.loc 1 905 3 is_stmt 1 view .LVU747
 2163              		.loc 1 906 1 is_stmt 0 view .LVU748
 2164 00e6 0020     		movs	r0, #0
 2165              	.LVL150:
 2166              		.loc 1 906 1 view .LVU749
ARM GAS  C:\Users\DEVELO~1\AppData\Local\Temp\cc15HDCU.s 			page 39


 2167 00e8 F0BD     		pop	{r4, r5, r6, r7, pc}
 2168              	.LVL151:
 2169              	.L158:
 2170              		.loc 1 766 7 is_stmt 1 view .LVU750
 2171              		.loc 1 766 34 is_stmt 0 view .LVU751
 2172 00ea 1F69     		ldr	r7, [r3, #16]
 2173 00ec 4E4E     		ldr	r6, .L198
 2174 00ee 3E40     		ands	r6, r6, r7
 2175 00f0 1E61     		str	r6, [r3, #16]
 2176              		.loc 1 767 7 is_stmt 1 view .LVU752
 2177              		.loc 1 767 34 is_stmt 0 view .LVU753
 2178 00f2 4E4E     		ldr	r6, .L198+4
 2179 00f4 1F69     		ldr	r7, [r3, #16]
 2180 00f6 3E40     		ands	r6, r6, r7
 2181 00f8 1E61     		str	r6, [r3, #16]
 2182              		.loc 1 769 7 is_stmt 1 view .LVU754
 2183              		.loc 1 769 10 is_stmt 0 view .LVU755
 2184 00fa 002C     		cmp	r4, #0
 2185 00fc 4ED1     		bne	.L160
 2186              		.loc 1 771 9 is_stmt 1 view .LVU756
 2187              		.loc 1 771 30 is_stmt 0 view .LVU757
 2188 00fe 8E68     		ldr	r6, [r1, #8]
 2189              		.loc 1 771 12 view .LVU758
 2190 0100 B542     		cmp	r5, r6
 2191 0102 00F28D80 		bhi	.L197
 2192              	.L161:
 2193              		.loc 1 776 9 is_stmt 1 view .LVU759
 2194              		.loc 1 776 36 is_stmt 0 view .LVU760
 2195 0106 1E69     		ldr	r6, [r3, #16]
 2196 0108 46F40026 		orr	r6, r6, #524288
 2197 010c 1E61     		str	r6, [r3, #16]
 2198              		.loc 1 783 15 view .LVU761
 2199 010e 0F79     		ldrb	r7, [r1, #4]	@ zero_extendqisi2
 2200              	.L162:
 2201              		.loc 1 790 7 is_stmt 1 view .LVU762
 2202              		.loc 1 790 34 is_stmt 0 view .LVU763
 2203 0110 1E69     		ldr	r6, [r3, #16]
 2204              		.loc 1 790 62 view .LVU764
 2205 0112 C5F31205 		ubfx	r5, r5, #0, #19
 2206              		.loc 1 793 8 view .LVU765
 2207 0116 012A     		cmp	r2, #1
 2208              		.loc 1 790 34 view .LVU766
 2209 0118 45EA0605 		orr	r5, r5, r6
 2210 011c 1D61     		str	r5, [r3, #16]
 2211              		.loc 1 793 5 is_stmt 1 view .LVU767
 2212              		.loc 1 793 8 is_stmt 0 view .LVU768
 2213 011e D0D1     		bne	.L163
 2214              	.L196:
 2215              		.loc 1 795 7 is_stmt 1 view .LVU769
 2216              		.loc 1 795 23 is_stmt 0 view .LVU770
 2217 0120 CA69     		ldr	r2, [r1, #28]
 2218              	.LVL152:
 2219              		.loc 1 795 10 view .LVU771
 2220 0122 02B1     		cbz	r2, .L164
 2221              		.loc 1 797 9 is_stmt 1 view .LVU772
 2222              		.loc 1 797 35 is_stmt 0 view .LVU773
 2223 0124 5A61     		str	r2, [r3, #20]
ARM GAS  C:\Users\DEVELO~1\AppData\Local\Temp\cc15HDCU.s 			page 40


 2224              	.L164:
 2225              		.loc 1 800 7 is_stmt 1 view .LVU774
 2226              		.loc 1 800 10 is_stmt 0 view .LVU775
 2227 0126 012F     		cmp	r7, #1
 2228 0128 0AD1     		bne	.L165
 2229              		.loc 1 802 9 is_stmt 1 view .LVU776
 2230              		.loc 1 802 25 is_stmt 0 view .LVU777
 2231 012a D0F80828 		ldr	r2, [r0, #2056]
 2232              		.loc 1 802 12 view .LVU778
 2233 012e 12F4807F 		tst	r2, #256
 2234              		.loc 1 804 37 view .LVU779
 2235 0132 1A68     		ldr	r2, [r3]
 2236              		.loc 1 804 11 is_stmt 1 view .LVU780
 2237              		.loc 1 804 37 is_stmt 0 view .LVU781
 2238 0134 0CBF     		ite	eq
 2239 0136 42F00052 		orreq	r2, r2, #536870912
 2240              		.loc 1 808 11 is_stmt 1 view .LVU782
 2241              		.loc 1 808 37 is_stmt 0 view .LVU783
 2242 013a 42F08052 		orrne	r2, r2, #268435456
 2243 013e 1A60     		str	r2, [r3]
 2244              	.L165:
 2245              		.loc 1 813 7 is_stmt 1 view .LVU784
 2246              		.loc 1 813 33 is_stmt 0 view .LVU785
 2247 0140 1A68     		ldr	r2, [r3]
 2248              		.loc 1 906 1 view .LVU786
 2249 0142 0020     		movs	r0, #0
 2250              	.LVL153:
 2251              		.loc 1 813 33 view .LVU787
 2252 0144 42F00442 		orr	r2, r2, #-2080374784
 2253 0148 1A60     		str	r2, [r3]
 2254              		.loc 1 905 3 is_stmt 1 view .LVU788
 2255              		.loc 1 906 1 is_stmt 0 view .LVU789
 2256 014a F0BD     		pop	{r4, r5, r6, r7, pc}
 2257              	.LVL154:
 2258              	.L175:
 2259              		.loc 1 856 9 is_stmt 1 view .LVU790
 2260              		.loc 1 856 26 is_stmt 0 view .LVU791
 2261 014c 8C68     		ldr	r4, [r1, #8]
 2262              		.loc 1 856 22 view .LVU792
 2263 014e 0C61     		str	r4, [r1, #16]
 2264 0150 71E7     		b	.L176
 2265              	.L178:
 2266              		.loc 1 874 9 is_stmt 1 view .LVU793
 2267              		.loc 1 874 47 is_stmt 0 view .LVU794
 2268 0152 8D68     		ldr	r5, [r1, #8]
 2269              	.LVL155:
 2270              		.loc 1 875 9 is_stmt 1 view .LVU795
 2271              		.loc 1 882 8 is_stmt 0 view .LVU796
 2272 0154 012A     		cmp	r2, #1
 2273              		.loc 1 877 64 view .LVU797
 2274 0156 364E     		ldr	r6, .L198+8
 2275              		.loc 1 874 43 view .LVU798
 2276 0158 2C44     		add	r4, r4, r5
 2277              	.LVL156:
 2278              		.loc 1 874 59 view .LVU799
 2279 015a 04F1FF34 		add	r4, r4, #-1
 2280              		.loc 1 874 65 view .LVU800
ARM GAS  C:\Users\DEVELO~1\AppData\Local\Temp\cc15HDCU.s 			page 41


 2281 015e B4FBF5F4 		udiv	r4, r4, r5
 2282 0162 A4B2     		uxth	r4, r4
 2283              		.loc 1 875 39 view .LVU801
 2284 0164 04FB05F5 		mul	r5, r4, r5
 2285              	.LVL157:
 2286              		.loc 1 877 64 view .LVU802
 2287 0168 06EAC444 		and	r4, r6, r4, lsl #19
 2288              		.loc 1 877 37 view .LVU803
 2289 016c DCF81060 		ldr	r6, [ip, #16]
 2290              		.loc 1 875 23 view .LVU804
 2291 0170 0D62     		str	r5, [r1, #32]
 2292              		.loc 1 877 9 is_stmt 1 view .LVU805
 2293              		.loc 1 878 64 is_stmt 0 view .LVU806
 2294 0172 C5F31205 		ubfx	r5, r5, #0, #19
 2295              		.loc 1 877 37 view .LVU807
 2296 0176 44EA0604 		orr	r4, r4, r6
 2297 017a CCF81040 		str	r4, [ip, #16]
 2298              		.loc 1 878 9 is_stmt 1 view .LVU808
 2299              		.loc 1 878 37 is_stmt 0 view .LVU809
 2300 017e DCF81040 		ldr	r4, [ip, #16]
 2301 0182 45EA0405 		orr	r5, r5, r4
 2302 0186 CCF81050 		str	r5, [ip, #16]
 2303              		.loc 1 882 5 is_stmt 1 view .LVU810
 2304              		.loc 1 882 8 is_stmt 0 view .LVU811
 2305 018a 7FF466AF 		bne	.L179
 2306              	.LVL158:
 2307              	.L195:
 2308              		.loc 1 884 7 is_stmt 1 view .LVU812
 2309              		.loc 1 884 23 is_stmt 0 view .LVU813
 2310 018e CA68     		ldr	r2, [r1, #12]
 2311              	.LVL159:
 2312              		.loc 1 884 10 view .LVU814
 2313 0190 002A     		cmp	r2, #0
 2314 0192 3FF462AF 		beq	.L179
 2315              		.loc 1 886 9 is_stmt 1 view .LVU815
 2316              		.loc 1 886 36 is_stmt 0 view .LVU816
 2317 0196 CCF81420 		str	r2, [ip, #20]
 2318 019a 5EE7     		b	.L179
 2319              	.LVL160:
 2320              	.L160:
 2321              		.loc 1 780 9 is_stmt 1 view .LVU817
 2322              		.loc 1 780 47 is_stmt 0 view .LVU818
 2323 019c D1F808C0 		ldr	ip, [r1, #8]
 2324              	.LVL161:
 2325              		.loc 1 781 9 is_stmt 1 view .LVU819
 2326              		.loc 1 781 64 is_stmt 0 view .LVU820
 2327 01a0 234F     		ldr	r7, .L198+8
 2328              		.loc 1 780 43 view .LVU821
 2329 01a2 05EB0C06 		add	r6, r5, ip
 2330              		.loc 1 781 36 view .LVU822
 2331 01a6 D3F810E0 		ldr	lr, [r3, #16]
 2332              		.loc 1 780 59 view .LVU823
 2333 01aa 013E     		subs	r6, r6, #1
 2334              		.loc 1 780 65 view .LVU824
 2335 01ac B6FBFCF6 		udiv	r6, r6, ip
 2336              		.loc 1 781 64 view .LVU825
 2337 01b0 07EAC647 		and	r7, r7, r6, lsl #19
ARM GAS  C:\Users\DEVELO~1\AppData\Local\Temp\cc15HDCU.s 			page 42


 2338 01b4 B6B2     		uxth	r6, r6
 2339              		.loc 1 781 36 view .LVU826
 2340 01b6 47EA0E07 		orr	r7, r7, lr
 2341 01ba 1F61     		str	r7, [r3, #16]
 2342              		.loc 1 783 9 is_stmt 1 view .LVU827
 2343              		.loc 1 783 15 is_stmt 0 view .LVU828
 2344 01bc 0F79     		ldrb	r7, [r1, #4]	@ zero_extendqisi2
 2345              		.loc 1 783 12 view .LVU829
 2346 01be 012F     		cmp	r7, #1
 2347 01c0 A6D1     		bne	.L162
 2348              		.loc 1 785 11 is_stmt 1 view .LVU830
 2349              		.loc 1 785 38 is_stmt 0 view .LVU831
 2350 01c2 D3F810C0 		ldr	ip, [r3, #16]
 2351              	.LVL162:
 2352              		.loc 1 786 86 view .LVU832
 2353 01c6 7607     		lsls	r6, r6, #29
 2354              		.loc 1 785 38 view .LVU833
 2355 01c8 2CF0C04C 		bic	ip, ip, #1610612736
 2356              		.loc 1 786 66 view .LVU834
 2357 01cc 06F0C046 		and	r6, r6, #1610612736
 2358              		.loc 1 785 38 view .LVU835
 2359 01d0 C3F810C0 		str	ip, [r3, #16]
 2360              		.loc 1 786 11 is_stmt 1 view .LVU836
 2361              		.loc 1 786 38 is_stmt 0 view .LVU837
 2362 01d4 D3F810C0 		ldr	ip, [r3, #16]
 2363 01d8 46EA0C06 		orr	r6, r6, ip
 2364 01dc 1E61     		str	r6, [r3, #16]
 2365 01de 97E7     		b	.L162
 2366              	.LVL163:
 2367              	.L168:
 2368              		.loc 1 830 9 is_stmt 1 view .LVU838
 2369              		.loc 1 830 25 is_stmt 0 view .LVU839
 2370 01e0 D0F80858 		ldr	r5, [r0, #2056]
 2371              		.loc 1 830 12 view .LVU840
 2372 01e4 15F4807F 		tst	r5, #256
 2373              		.loc 1 832 37 view .LVU841
 2374 01e8 1D68     		ldr	r5, [r3]
 2375              		.loc 1 832 11 is_stmt 1 view .LVU842
 2376              		.loc 1 832 37 is_stmt 0 view .LVU843
 2377 01ea 0CBF     		ite	eq
 2378 01ec 45F00055 		orreq	r5, r5, #536870912
 2379              		.loc 1 836 11 is_stmt 1 view .LVU844
 2380              		.loc 1 839 9 view .LVU845
 2381              	.LVL164:
 2382              	.LBB34:
 2383              	.LBI34:
 2384              		.loc 1 979 19 view .LVU846
 2385              	.LBB35:
 2386              		.loc 1 982 3 view .LVU847
 2387              		.loc 1 983 3 view .LVU848
 2388              		.loc 1 984 3 view .LVU849
 2389              		.loc 1 985 3 view .LVU850
 2390              		.loc 1 987 3 view .LVU851
 2391              	.LBE35:
 2392              	.LBE34:
 2393              		.loc 1 836 37 is_stmt 0 view .LVU852
 2394 01f0 45F08055 		orrne	r5, r5, #268435456
ARM GAS  C:\Users\DEVELO~1\AppData\Local\Temp\cc15HDCU.s 			page 43


 2395 01f4 1D60     		str	r5, [r3]
 2396              	.LVL165:
 2397              	.LBB38:
 2398              	.LBB36:
 2399              		.loc 1 987 6 view .LVU853
 2400 01f6 002A     		cmp	r2, #0
 2401 01f8 7FF475AF 		bne	.L167
 2402              		.loc 1 989 5 is_stmt 1 view .LVU854
 2403              		.loc 1 989 31 is_stmt 0 view .LVU855
 2404 01fc 0B8A     		ldrh	r3, [r1, #16]
 2405 01fe 0333     		adds	r3, r3, #3
 2406              	.LVL166:
 2407              		.loc 1 990 5 is_stmt 1 view .LVU856
 2408              		.loc 1 990 20 view .LVU857
 2409 0200 9A08     		lsrs	r2, r3, #2
 2410              	.LVL167:
 2411              		.loc 1 990 20 is_stmt 0 view .LVU858
 2412 0202 3FF470AF 		beq	.L167
 2413              	.LBE36:
 2414              	.LBE38:
 2415              		.loc 1 839 15 view .LVU859
 2416 0206 CB68     		ldr	r3, [r1, #12]
 2417              	.LBB39:
 2418              	.LBB37:
 2419              		.loc 1 992 7 view .LVU860
 2420 0208 00EB0434 		add	r4, r0, r4, lsl #12
 2421              	.LVL168:
 2422              		.loc 1 992 7 view .LVU861
 2423 020c 03EB8201 		add	r1, r3, r2, lsl #2
 2424              	.LVL169:
 2425              		.loc 1 992 7 view .LVU862
 2426 0210 04F58054 		add	r4, r4, #4096
 2427              	.LVL170:
 2428              	.L173:
 2429              		.loc 1 992 7 is_stmt 1 view .LVU863
 2430              		.loc 1 992 41 is_stmt 0 view .LVU864
 2431 0214 53F8042B 		ldr	r2, [r3], #4	@ unaligned
 2432              	.LVL171:
 2433              		.loc 1 990 20 view .LVU865
 2434 0218 8B42     		cmp	r3, r1
 2435              		.loc 1 992 39 view .LVU866
 2436 021a 2260     		str	r2, [r4]
 2437              		.loc 1 993 7 is_stmt 1 view .LVU867
 2438              	.LVL172:
 2439              		.loc 1 994 7 view .LVU868
 2440              		.loc 1 995 7 view .LVU869
 2441              		.loc 1 996 7 view .LVU870
 2442              		.loc 1 990 33 view .LVU871
 2443              		.loc 1 990 20 view .LVU872
 2444 021c FAD1     		bne	.L173
 2445 021e 62E7     		b	.L167
 2446              	.LVL173:
 2447              	.L197:
 2448              		.loc 1 990 20 is_stmt 0 view .LVU873
 2449              	.LBE37:
 2450              	.LBE39:
 2451              		.loc 1 773 11 is_stmt 1 view .LVU874
ARM GAS  C:\Users\DEVELO~1\AppData\Local\Temp\cc15HDCU.s 			page 44


 2452              		.loc 1 773 24 is_stmt 0 view .LVU875
 2453 0220 3546     		mov	r5, r6
 2454 0222 0E61     		str	r6, [r1, #16]
 2455 0224 6FE7     		b	.L161
 2456              	.L199:
 2457 0226 00BF     		.align	2
 2458              	.L198:
 2459 0228 0000F8FF 		.word	-524288
 2460 022c FFFF07E0 		.word	-536346625
 2461 0230 0000F81F 		.word	536346624
 2462              		.cfi_endproc
 2463              	.LFE155:
 2464              		.size	USB_EPStartXfer, .-USB_EPStartXfer
 2465              		.section	.text.USB_EPStopXfer,"ax",%progbits
 2466              		.align	1
 2467              		.p2align 4,,15
 2468              		.global	USB_EPStopXfer
 2469              		.syntax unified
 2470              		.thumb
 2471              		.thumb_func
 2472              		.type	USB_EPStopXfer, %function
 2473              	USB_EPStopXfer:
 2474              	.LVL174:
 2475              	.LFB156:
 2476              		.loc 1 916 1 is_stmt 1 view -0
 2477              		.cfi_startproc
 2478              		@ args = 0, pretend = 0, frame = 8
 2479              		@ frame_needed = 0, uses_anonymous_args = 0
 2480              		@ link register save eliminated.
 2481              		.loc 1 917 3 view .LVU877
 2482              		.loc 1 917 17 is_stmt 0 view .LVU878
 2483 0000 0023     		movs	r3, #0
 2484              		.loc 1 916 1 view .LVU879
 2485 0002 82B0     		sub	sp, sp, #8
 2486              		.cfi_def_cfa_offset 8
 2487              		.loc 1 917 17 view .LVU880
 2488 0004 0193     		str	r3, [sp, #4]
 2489              		.loc 1 918 3 is_stmt 1 view .LVU881
 2490              	.LVL175:
 2491              		.loc 1 919 3 view .LVU882
 2492              		.loc 1 922 3 view .LVU883
 2493              		.loc 1 922 6 is_stmt 0 view .LVU884
 2494 0006 4B78     		ldrb	r3, [r1, #1]	@ zero_extendqisi2
 2495 0008 012B     		cmp	r3, #1
 2496              		.loc 1 925 11 view .LVU885
 2497 000a 0B78     		ldrb	r3, [r1]	@ zero_extendqisi2
 2498              		.loc 1 922 6 view .LVU886
 2499 000c 20D0     		beq	.L211
 2500              		.loc 1 944 5 is_stmt 1 view .LVU887
 2501              		.loc 1 944 11 is_stmt 0 view .LVU888
 2502 000e 00F53060 		add	r0, r0, #2816
 2503              	.LVL176:
 2504              		.loc 1 944 11 view .LVU889
 2505 0012 00EB4310 		add	r0, r0, r3, lsl #5
 2506              	.LVL177:
 2507              		.loc 1 944 30 view .LVU890
 2508 0016 0368     		ldr	r3, [r0]
ARM GAS  C:\Users\DEVELO~1\AppData\Local\Temp\cc15HDCU.s 			page 45


 2509              		.loc 1 944 8 view .LVU891
 2510 0018 002B     		cmp	r3, #0
 2511 001a 02DB     		blt	.L212
 2512              	.LVL178:
 2513              	.L202:
 2514              		.loc 1 918 21 view .LVU892
 2515 001c 0020     		movs	r0, #0
 2516              	.LVL179:
 2517              		.loc 1 962 3 is_stmt 1 view .LVU893
 2518              		.loc 1 963 1 is_stmt 0 view .LVU894
 2519 001e 02B0     		add	sp, sp, #8
 2520              		.cfi_remember_state
 2521              		.cfi_def_cfa_offset 0
 2522              		@ sp needed
 2523 0020 7047     		bx	lr
 2524              	.LVL180:
 2525              	.L212:
 2526              		.cfi_restore_state
 2527              		.loc 1 946 7 is_stmt 1 view .LVU895
 2528              		.loc 1 946 36 is_stmt 0 view .LVU896
 2529 0022 0368     		ldr	r3, [r0]
 2530              		.loc 1 953 12 view .LVU897
 2531 0024 42F21072 		movw	r2, #10000
 2532              		.loc 1 946 36 view .LVU898
 2533 0028 43F00063 		orr	r3, r3, #134217728
 2534 002c 0360     		str	r3, [r0]
 2535              		.loc 1 947 7 is_stmt 1 view .LVU899
 2536              		.loc 1 947 36 is_stmt 0 view .LVU900
 2537 002e 0368     		ldr	r3, [r0]
 2538 0030 43F08043 		orr	r3, r3, #1073741824
 2539 0034 0360     		str	r3, [r0]
 2540 0036 02E0     		b	.L207
 2541              	.L213:
 2542              		.loc 1 958 37 view .LVU901
 2543 0038 0368     		ldr	r3, [r0]
 2544              		.loc 1 958 73 view .LVU902
 2545 003a 002B     		cmp	r3, #0
 2546 003c EEDA     		bge	.L202
 2547              	.L207:
 2548              		.loc 1 949 7 is_stmt 1 view .LVU903
 2549              		.loc 1 951 9 view .LVU904
 2550              		.loc 1 958 73 view .LVU905
 2551              		.loc 1 951 14 is_stmt 0 view .LVU906
 2552 003e 019B     		ldr	r3, [sp, #4]
 2553 0040 0133     		adds	r3, r3, #1
 2554 0042 0193     		str	r3, [sp, #4]
 2555              		.loc 1 953 9 is_stmt 1 view .LVU907
 2556              		.loc 1 953 19 is_stmt 0 view .LVU908
 2557 0044 019B     		ldr	r3, [sp, #4]
 2558              		.loc 1 953 12 view .LVU909
 2559 0046 9342     		cmp	r3, r2
 2560 0048 F6D9     		bls	.L213
 2561              	.LVL181:
 2562              	.L206:
 2563              		.loc 1 936 15 view .LVU910
 2564 004a 0120     		movs	r0, #1
 2565              	.LVL182:
ARM GAS  C:\Users\DEVELO~1\AppData\Local\Temp\cc15HDCU.s 			page 46


 2566              		.loc 1 962 3 is_stmt 1 view .LVU911
 2567              		.loc 1 963 1 is_stmt 0 view .LVU912
 2568 004c 02B0     		add	sp, sp, #8
 2569              		.cfi_remember_state
 2570              		.cfi_def_cfa_offset 0
 2571              		@ sp needed
 2572 004e 7047     		bx	lr
 2573              	.LVL183:
 2574              	.L211:
 2575              		.cfi_restore_state
 2576              		.loc 1 925 5 is_stmt 1 view .LVU913
 2577              		.loc 1 925 11 is_stmt 0 view .LVU914
 2578 0050 00F51060 		add	r0, r0, #2304
 2579              	.LVL184:
 2580              		.loc 1 925 11 view .LVU915
 2581 0054 00EB4313 		add	r3, r0, r3, lsl #5
 2582              		.loc 1 925 29 view .LVU916
 2583 0058 1A68     		ldr	r2, [r3]
 2584              		.loc 1 925 8 view .LVU917
 2585 005a 002A     		cmp	r2, #0
 2586 005c DEDA     		bge	.L202
 2587              		.loc 1 927 7 is_stmt 1 view .LVU918
 2588              		.loc 1 927 35 is_stmt 0 view .LVU919
 2589 005e 1A68     		ldr	r2, [r3]
 2590              		.loc 1 934 12 view .LVU920
 2591 0060 42F21071 		movw	r1, #10000
 2592              	.LVL185:
 2593              		.loc 1 927 35 view .LVU921
 2594 0064 42F00062 		orr	r2, r2, #134217728
 2595 0068 1A60     		str	r2, [r3]
 2596              		.loc 1 928 7 is_stmt 1 view .LVU922
 2597              		.loc 1 928 35 is_stmt 0 view .LVU923
 2598 006a 1A68     		ldr	r2, [r3]
 2599 006c 42F08042 		orr	r2, r2, #1073741824
 2600 0070 1A60     		str	r2, [r3]
 2601 0072 02E0     		b	.L205
 2602              	.L203:
 2603              		.loc 1 939 36 view .LVU924
 2604 0074 1A68     		ldr	r2, [r3]
 2605              		.loc 1 939 72 view .LVU925
 2606 0076 002A     		cmp	r2, #0
 2607 0078 D0DA     		bge	.L202
 2608              	.L205:
 2609              		.loc 1 930 7 is_stmt 1 view .LVU926
 2610              		.loc 1 932 9 view .LVU927
 2611              		.loc 1 939 72 view .LVU928
 2612              		.loc 1 932 14 is_stmt 0 view .LVU929
 2613 007a 019A     		ldr	r2, [sp, #4]
 2614 007c 0132     		adds	r2, r2, #1
 2615 007e 0192     		str	r2, [sp, #4]
 2616              		.loc 1 934 9 is_stmt 1 view .LVU930
 2617              		.loc 1 934 19 is_stmt 0 view .LVU931
 2618 0080 019A     		ldr	r2, [sp, #4]
 2619              		.loc 1 934 12 view .LVU932
 2620 0082 8A42     		cmp	r2, r1
 2621 0084 F6D9     		bls	.L203
 2622 0086 E0E7     		b	.L206
ARM GAS  C:\Users\DEVELO~1\AppData\Local\Temp\cc15HDCU.s 			page 47


 2623              		.cfi_endproc
 2624              	.LFE156:
 2625              		.size	USB_EPStopXfer, .-USB_EPStopXfer
 2626              		.section	.text.USB_WritePacket,"ax",%progbits
 2627              		.align	1
 2628              		.p2align 4,,15
 2629              		.global	USB_WritePacket
 2630              		.syntax unified
 2631              		.thumb
 2632              		.thumb_func
 2633              		.type	USB_WritePacket, %function
 2634              	USB_WritePacket:
 2635              	.LVL186:
 2636              	.LFB157:
 2637              		.loc 1 981 1 is_stmt 1 view -0
 2638              		.cfi_startproc
 2639              		@ args = 4, pretend = 0, frame = 0
 2640              		@ frame_needed = 0, uses_anonymous_args = 0
 2641              		@ link register save eliminated.
 2642              		.loc 1 982 3 view .LVU934
 2643              		.loc 1 981 1 is_stmt 0 view .LVU935
 2644 0000 10B4     		push	{r4}
 2645              		.cfi_def_cfa_offset 4
 2646              		.cfi_offset 4, -4
 2647              		.loc 1 981 1 view .LVU936
 2648 0002 9DF80440 		ldrb	r4, [sp, #4]	@ zero_extendqisi2
 2649              	.LVL187:
 2650              		.loc 1 983 3 is_stmt 1 view .LVU937
 2651              		.loc 1 984 3 view .LVU938
 2652              		.loc 1 985 3 view .LVU939
 2653              		.loc 1 987 3 view .LVU940
 2654              		.loc 1 987 6 is_stmt 0 view .LVU941
 2655 0006 64B9     		cbnz	r4, .L215
 2656              		.loc 1 989 5 is_stmt 1 view .LVU942
 2657              		.loc 1 989 31 is_stmt 0 view .LVU943
 2658 0008 0333     		adds	r3, r3, #3
 2659              	.LVL188:
 2660              		.loc 1 990 5 is_stmt 1 view .LVU944
 2661              		.loc 1 990 20 view .LVU945
 2662 000a 9B08     		lsrs	r3, r3, #2
 2663              	.LVL189:
 2664              		.loc 1 990 20 is_stmt 0 view .LVU946
 2665 000c 09D0     		beq	.L215
 2666              		.loc 1 992 7 view .LVU947
 2667 000e 0132     		adds	r2, r2, #1
 2668              	.LVL190:
 2669              		.loc 1 992 7 view .LVU948
 2670 0010 01EB8303 		add	r3, r1, r3, lsl #2
 2671              	.LVL191:
 2672              		.loc 1 992 7 view .LVU949
 2673 0014 00EB0230 		add	r0, r0, r2, lsl #12
 2674              	.LVL192:
 2675              	.L216:
 2676              		.loc 1 992 7 is_stmt 1 discriminator 3 view .LVU950
 2677              		.loc 1 992 41 is_stmt 0 discriminator 3 view .LVU951
 2678 0018 51F8042B 		ldr	r2, [r1], #4	@ unaligned
 2679              	.LVL193:
ARM GAS  C:\Users\DEVELO~1\AppData\Local\Temp\cc15HDCU.s 			page 48


 2680              		.loc 1 990 20 discriminator 3 view .LVU952
 2681 001c 8B42     		cmp	r3, r1
 2682              		.loc 1 992 39 discriminator 3 view .LVU953
 2683 001e 0260     		str	r2, [r0]
 2684              		.loc 1 993 7 is_stmt 1 discriminator 3 view .LVU954
 2685              	.LVL194:
 2686              		.loc 1 994 7 discriminator 3 view .LVU955
 2687              		.loc 1 995 7 discriminator 3 view .LVU956
 2688              		.loc 1 996 7 discriminator 3 view .LVU957
 2689              		.loc 1 990 33 discriminator 3 view .LVU958
 2690              		.loc 1 990 20 discriminator 3 view .LVU959
 2691 0020 FAD1     		bne	.L216
 2692              	.L215:
 2693              		.loc 1 1000 3 view .LVU960
 2694              		.loc 1 1001 1 is_stmt 0 view .LVU961
 2695 0022 0020     		movs	r0, #0
 2696 0024 10BC     		pop	{r4}
 2697              		.cfi_restore 4
 2698              		.cfi_def_cfa_offset 0
 2699              	.LVL195:
 2700              		.loc 1 1001 1 view .LVU962
 2701 0026 7047     		bx	lr
 2702              		.cfi_endproc
 2703              	.LFE157:
 2704              		.size	USB_WritePacket, .-USB_WritePacket
 2705              		.section	.text.USB_ReadPacket,"ax",%progbits
 2706              		.align	1
 2707              		.p2align 4,,15
 2708              		.global	USB_ReadPacket
 2709              		.syntax unified
 2710              		.thumb
 2711              		.thumb_func
 2712              		.type	USB_ReadPacket, %function
 2713              	USB_ReadPacket:
 2714              	.LVL196:
 2715              	.LFB158:
 2716              		.loc 1 1011 1 is_stmt 1 view -0
 2717              		.cfi_startproc
 2718              		@ args = 0, pretend = 0, frame = 0
 2719              		@ frame_needed = 0, uses_anonymous_args = 0
 2720              		.loc 1 1012 3 view .LVU964
 2721              		.loc 1 1011 1 is_stmt 0 view .LVU965
 2722 0000 70B5     		push	{r4, r5, r6, lr}
 2723              		.cfi_def_cfa_offset 16
 2724              		.cfi_offset 4, -16
 2725              		.cfi_offset 5, -12
 2726              		.cfi_offset 6, -8
 2727              		.cfi_offset 14, -4
 2728              		.loc 1 1019 18 view .LVU966
 2729 0002 5FEA920E 		lsrs	lr, r2, #2
 2730              		.loc 1 1011 1 view .LVU967
 2731 0006 0546     		mov	r5, r0
 2732              	.LVL197:
 2733              		.loc 1 1013 3 is_stmt 1 view .LVU968
 2734              		.loc 1 1014 3 view .LVU969
 2735              		.loc 1 1015 3 view .LVU970
 2736              		.loc 1 1016 3 view .LVU971
ARM GAS  C:\Users\DEVELO~1\AppData\Local\Temp\cc15HDCU.s 			page 49


 2737              		.loc 1 1017 3 view .LVU972
 2738              		.loc 1 1017 12 is_stmt 0 view .LVU973
 2739 0008 02F00306 		and	r6, r2, #3
 2740              	.LVL198:
 2741              		.loc 1 1019 3 is_stmt 1 view .LVU974
 2742              		.loc 1 1019 18 view .LVU975
 2743 000c 19D0     		beq	.L227
 2744              		.loc 1 1032 5 is_stmt 0 view .LVU976
 2745 000e 00F58054 		add	r4, r0, #4096
 2746              		.loc 1 1013 12 view .LVU977
 2747 0012 8C46     		mov	ip, r1
 2748              		.loc 1 1019 10 view .LVU978
 2749 0014 0023     		movs	r3, #0
 2750              	.LVL199:
 2751              	.L224:
 2752              		.loc 1 1021 5 is_stmt 1 discriminator 3 view .LVU979
 2753              		.loc 1 1019 31 is_stmt 0 discriminator 3 view .LVU980
 2754 0016 0133     		adds	r3, r3, #1
 2755              	.LVL200:
 2756              		.loc 1 1021 5 discriminator 3 view .LVU981
 2757 0018 2268     		ldr	r2, [r4]
 2758              		.loc 1 1019 18 discriminator 3 view .LVU982
 2759 001a 9E45     		cmp	lr, r3
 2760              		.loc 1 1021 5 discriminator 3 view .LVU983
 2761 001c 4CF8042B 		str	r2, [ip], #4	@ unaligned
 2762              	.LVL201:
 2763              		.loc 1 1022 5 is_stmt 1 discriminator 3 view .LVU984
 2764              		.loc 1 1023 5 discriminator 3 view .LVU985
 2765              		.loc 1 1024 5 discriminator 3 view .LVU986
 2766              		.loc 1 1025 5 discriminator 3 view .LVU987
 2767              		.loc 1 1019 31 discriminator 3 view .LVU988
 2768              		.loc 1 1019 18 discriminator 3 view .LVU989
 2769 0020 F9D1     		bne	.L224
 2770              		.loc 1 1025 10 is_stmt 0 view .LVU990
 2771 0022 01EB8E00 		add	r0, r1, lr, lsl #2
 2772              	.LVL202:
 2773              	.L223:
 2774              		.loc 1 1029 3 is_stmt 1 view .LVU991
 2775              		.loc 1 1029 6 is_stmt 0 view .LVU992
 2776 0026 5EB1     		cbz	r6, .L222
 2777              		.loc 1 1031 5 is_stmt 1 view .LVU993
 2778              	.LVL203:
 2779              		.loc 1 1032 5 view .LVU994
 2780 0028 05F58055 		add	r5, r5, #4096
 2781              	.LVL204:
 2782              		.loc 1 1032 5 is_stmt 0 view .LVU995
 2783 002c 0644     		add	r6, r6, r0
 2784              	.LVL205:
 2785              		.loc 1 1032 5 view .LVU996
 2786 002e 0022     		movs	r2, #0
 2787 0030 2968     		ldr	r1, [r5]
 2788              	.LVL206:
 2789              	.L226:
 2790              		.loc 1 1034 5 is_stmt 1 discriminator 1 view .LVU997
 2791              		.loc 1 1036 7 discriminator 1 view .LVU998
 2792              		.loc 1 1036 43 is_stmt 0 discriminator 1 view .LVU999
 2793 0032 21FA02F3 		lsr	r3, r1, r2
ARM GAS  C:\Users\DEVELO~1\AppData\Local\Temp\cc15HDCU.s 			page 50


 2794              		.loc 1 1036 27 discriminator 1 view .LVU1000
 2795 0036 0832     		adds	r2, r2, #8
 2796              		.loc 1 1037 7 is_stmt 1 discriminator 1 view .LVU1001
 2797              	.LVL207:
 2798              		.loc 1 1038 7 discriminator 1 view .LVU1002
 2799              		.loc 1 1036 27 is_stmt 0 discriminator 1 view .LVU1003
 2800 0038 00F8013B 		strb	r3, [r0], #1
 2801              	.LVL208:
 2802              		.loc 1 1039 7 is_stmt 1 discriminator 1 view .LVU1004
 2803              		.loc 1 1040 30 discriminator 1 view .LVU1005
 2804 003c B042     		cmp	r0, r6
 2805 003e F8D1     		bne	.L226
 2806              	.LVL209:
 2807              	.L222:
 2808              		.loc 1 1044 1 is_stmt 0 view .LVU1006
 2809 0040 70BD     		pop	{r4, r5, r6, pc}
 2810              	.LVL210:
 2811              	.L227:
 2812              		.loc 1 1013 12 view .LVU1007
 2813 0042 0846     		mov	r0, r1
 2814              	.LVL211:
 2815              		.loc 1 1013 12 view .LVU1008
 2816 0044 EFE7     		b	.L223
 2817              		.cfi_endproc
 2818              	.LFE158:
 2819              		.size	USB_ReadPacket, .-USB_ReadPacket
 2820 0046 00BF     		.section	.text.USB_EPSetStall,"ax",%progbits
 2821              		.align	1
 2822              		.p2align 4,,15
 2823              		.global	USB_EPSetStall
 2824              		.syntax unified
 2825              		.thumb
 2826              		.thumb_func
 2827              		.type	USB_EPSetStall, %function
 2828              	USB_EPSetStall:
 2829              	.LVL212:
 2830              	.LFB159:
 2831              		.loc 1 1053 1 is_stmt 1 view -0
 2832              		.cfi_startproc
 2833              		@ args = 0, pretend = 0, frame = 0
 2834              		@ frame_needed = 0, uses_anonymous_args = 0
 2835              		@ link register save eliminated.
 2836              		.loc 1 1054 3 view .LVU1010
 2837              		.loc 1 1055 3 view .LVU1011
 2838              		.loc 1 1057 6 is_stmt 0 view .LVU1012
 2839 0000 4A78     		ldrb	r2, [r1, #1]	@ zero_extendqisi2
 2840              		.loc 1 1055 32 view .LVU1013
 2841 0002 0B78     		ldrb	r3, [r1]	@ zero_extendqisi2
 2842              	.LVL213:
 2843              		.loc 1 1057 3 is_stmt 1 view .LVU1014
 2844              		.loc 1 1057 6 is_stmt 0 view .LVU1015
 2845 0004 012A     		cmp	r2, #1
 2846              		.loc 1 1059 11 view .LVU1016
 2847 0006 00EB4310 		add	r0, r0, r3, lsl #5
 2848              	.LVL214:
 2849              		.loc 1 1057 6 view .LVU1017
 2850 000a 0CD0     		beq	.L251
ARM GAS  C:\Users\DEVELO~1\AppData\Local\Temp\cc15HDCU.s 			page 51


 2851              		.loc 1 1067 5 is_stmt 1 view .LVU1018
 2852              		.loc 1 1067 28 is_stmt 0 view .LVU1019
 2853 000c D0F8002B 		ldr	r2, [r0, #2816]
 2854              		.loc 1 1067 70 view .LVU1020
 2855 0010 0BB1     		cbz	r3, .L238
 2856 0012 002A     		cmp	r2, #0
 2857 0014 14DA     		bge	.L252
 2858              	.LVL215:
 2859              	.L238:
 2860              		.loc 1 1071 5 is_stmt 1 view .LVU1021
 2861              		.loc 1 1071 32 is_stmt 0 view .LVU1022
 2862 0016 D0F8003B 		ldr	r3, [r0, #2816]
 2863 001a 43F40013 		orr	r3, r3, #2097152
 2864 001e C0F8003B 		str	r3, [r0, #2816]
 2865              		.loc 1 1074 3 is_stmt 1 view .LVU1023
 2866              		.loc 1 1075 1 is_stmt 0 view .LVU1024
 2867 0022 0020     		movs	r0, #0
 2868 0024 7047     		bx	lr
 2869              	.LVL216:
 2870              	.L251:
 2871              		.loc 1 1059 5 is_stmt 1 view .LVU1025
 2872              		.loc 1 1059 27 is_stmt 0 view .LVU1026
 2873 0026 D0F80029 		ldr	r2, [r0, #2304]
 2874              		.loc 1 1059 69 view .LVU1027
 2875 002a 002A     		cmp	r2, #0
 2876 002c 00DB     		blt	.L236
 2877 002e 73B9     		cbnz	r3, .L253
 2878              	.L236:
 2879              		.loc 1 1063 5 is_stmt 1 view .LVU1028
 2880              		.loc 1 1063 31 is_stmt 0 view .LVU1029
 2881 0030 D0F80039 		ldr	r3, [r0, #2304]
 2882              	.LVL217:
 2883              		.loc 1 1063 31 view .LVU1030
 2884 0034 43F40013 		orr	r3, r3, #2097152
 2885 0038 C0F80039 		str	r3, [r0, #2304]
 2886              	.LVL218:
 2887              	.L254:
 2888              		.loc 1 1074 3 is_stmt 1 view .LVU1031
 2889              		.loc 1 1075 1 is_stmt 0 view .LVU1032
 2890 003c 0020     		movs	r0, #0
 2891 003e 7047     		bx	lr
 2892              	.LVL219:
 2893              	.L252:
 2894              		.loc 1 1069 7 is_stmt 1 view .LVU1033
 2895              		.loc 1 1069 34 is_stmt 0 view .LVU1034
 2896 0040 D0F8003B 		ldr	r3, [r0, #2816]
 2897              	.LVL220:
 2898              		.loc 1 1069 34 view .LVU1035
 2899 0044 23F08043 		bic	r3, r3, #1073741824
 2900 0048 C0F8003B 		str	r3, [r0, #2816]
 2901              	.LVL221:
 2902              		.loc 1 1069 34 view .LVU1036
 2903 004c E3E7     		b	.L238
 2904              	.LVL222:
 2905              	.L253:
 2906              		.loc 1 1061 7 is_stmt 1 view .LVU1037
 2907              		.loc 1 1061 33 is_stmt 0 view .LVU1038
ARM GAS  C:\Users\DEVELO~1\AppData\Local\Temp\cc15HDCU.s 			page 52


 2908 004e D0F80039 		ldr	r3, [r0, #2304]
 2909              	.LVL223:
 2910              		.loc 1 1061 33 view .LVU1039
 2911 0052 23F08043 		bic	r3, r3, #1073741824
 2912 0056 C0F80039 		str	r3, [r0, #2304]
 2913              	.LVL224:
 2914              		.loc 1 1063 5 is_stmt 1 view .LVU1040
 2915              		.loc 1 1063 31 is_stmt 0 view .LVU1041
 2916 005a D0F80039 		ldr	r3, [r0, #2304]
 2917 005e 43F40013 		orr	r3, r3, #2097152
 2918 0062 C0F80039 		str	r3, [r0, #2304]
 2919 0066 E9E7     		b	.L254
 2920              		.cfi_endproc
 2921              	.LFE159:
 2922              		.size	USB_EPSetStall, .-USB_EPSetStall
 2923              		.section	.text.USB_EPClearStall,"ax",%progbits
 2924              		.align	1
 2925              		.p2align 4,,15
 2926              		.global	USB_EPClearStall
 2927              		.syntax unified
 2928              		.thumb
 2929              		.thumb_func
 2930              		.type	USB_EPClearStall, %function
 2931              	USB_EPClearStall:
 2932              	.LVL225:
 2933              	.LFB160:
 2934              		.loc 1 1084 1 is_stmt 1 view -0
 2935              		.cfi_startproc
 2936              		@ args = 0, pretend = 0, frame = 0
 2937              		@ frame_needed = 0, uses_anonymous_args = 0
 2938              		@ link register save eliminated.
 2939              		.loc 1 1085 3 view .LVU1043
 2940              		.loc 1 1086 3 view .LVU1044
 2941              		.loc 1 1088 6 is_stmt 0 view .LVU1045
 2942 0000 4A78     		ldrb	r2, [r1, #1]	@ zero_extendqisi2
 2943              		.loc 1 1086 32 view .LVU1046
 2944 0002 0B78     		ldrb	r3, [r1]	@ zero_extendqisi2
 2945              	.LVL226:
 2946              		.loc 1 1088 3 is_stmt 1 view .LVU1047
 2947              		.loc 1 1088 6 is_stmt 0 view .LVU1048
 2948 0004 012A     		cmp	r2, #1
 2949              		.loc 1 1090 31 view .LVU1049
 2950 0006 00EB4310 		add	r0, r0, r3, lsl #5
 2951              	.LVL227:
 2952              		.loc 1 1088 6 view .LVU1050
 2953 000a 13D0     		beq	.L260
 2954              		.loc 1 1098 5 is_stmt 1 view .LVU1051
 2955              		.loc 1 1098 32 is_stmt 0 view .LVU1052
 2956 000c D0F8003B 		ldr	r3, [r0, #2816]
 2957              	.LVL228:
 2958              		.loc 1 1098 32 view .LVU1053
 2959 0010 23F40013 		bic	r3, r3, #2097152
 2960 0014 C0F8003B 		str	r3, [r0, #2816]
 2961              	.LVL229:
 2962              		.loc 1 1099 5 is_stmt 1 view .LVU1054
 2963              		.loc 1 1099 36 is_stmt 0 view .LVU1055
 2964 0018 0B79     		ldrb	r3, [r1, #4]	@ zero_extendqisi2
ARM GAS  C:\Users\DEVELO~1\AppData\Local\Temp\cc15HDCU.s 			page 53


 2965              		.loc 1 1099 8 view .LVU1056
 2966 001a 023B     		subs	r3, r3, #2
 2967 001c 012B     		cmp	r3, #1
 2968 001e 01D9     		bls	.L261
 2969              	.L258:
 2970              		.loc 1 1104 3 is_stmt 1 view .LVU1057
 2971              		.loc 1 1105 1 is_stmt 0 view .LVU1058
 2972 0020 0020     		movs	r0, #0
 2973 0022 7047     		bx	lr
 2974              	.L261:
 2975              		.loc 1 1101 7 is_stmt 1 view .LVU1059
 2976              		.loc 1 1101 34 is_stmt 0 view .LVU1060
 2977 0024 D0F8003B 		ldr	r3, [r0, #2816]
 2978 0028 43F08053 		orr	r3, r3, #268435456
 2979 002c C0F8003B 		str	r3, [r0, #2816]
 2980              		.loc 1 1104 3 is_stmt 1 view .LVU1061
 2981              		.loc 1 1105 1 is_stmt 0 view .LVU1062
 2982 0030 0020     		movs	r0, #0
 2983 0032 7047     		bx	lr
 2984              	.LVL230:
 2985              	.L260:
 2986              		.loc 1 1090 5 is_stmt 1 view .LVU1063
 2987              		.loc 1 1090 31 is_stmt 0 view .LVU1064
 2988 0034 D0F80039 		ldr	r3, [r0, #2304]
 2989              	.LVL231:
 2990              		.loc 1 1090 31 view .LVU1065
 2991 0038 23F40013 		bic	r3, r3, #2097152
 2992 003c C0F80039 		str	r3, [r0, #2304]
 2993              	.LVL232:
 2994              		.loc 1 1091 5 is_stmt 1 view .LVU1066
 2995              		.loc 1 1091 36 is_stmt 0 view .LVU1067
 2996 0040 0B79     		ldrb	r3, [r1, #4]	@ zero_extendqisi2
 2997              		.loc 1 1091 8 view .LVU1068
 2998 0042 023B     		subs	r3, r3, #2
 2999 0044 012B     		cmp	r3, #1
 3000 0046 EBD8     		bhi	.L258
 3001              		.loc 1 1093 7 is_stmt 1 view .LVU1069
 3002              		.loc 1 1093 33 is_stmt 0 view .LVU1070
 3003 0048 D0F80039 		ldr	r3, [r0, #2304]
 3004 004c 43F08053 		orr	r3, r3, #268435456
 3005 0050 C0F80039 		str	r3, [r0, #2304]
 3006              		.loc 1 1104 3 is_stmt 1 view .LVU1071
 3007              		.loc 1 1105 1 is_stmt 0 view .LVU1072
 3008 0054 0020     		movs	r0, #0
 3009 0056 7047     		bx	lr
 3010              		.cfi_endproc
 3011              	.LFE160:
 3012              		.size	USB_EPClearStall, .-USB_EPClearStall
 3013              		.section	.text.USB_StopDevice,"ax",%progbits
 3014              		.align	1
 3015              		.p2align 4,,15
 3016              		.global	USB_StopDevice
 3017              		.syntax unified
 3018              		.thumb
 3019              		.thumb_func
 3020              		.type	USB_StopDevice, %function
 3021              	USB_StopDevice:
ARM GAS  C:\Users\DEVELO~1\AppData\Local\Temp\cc15HDCU.s 			page 54


 3022              	.LVL233:
 3023              	.LFB161:
 3024              		.loc 1 1113 1 is_stmt 1 view -0
 3025              		.cfi_startproc
 3026              		@ args = 0, pretend = 0, frame = 0
 3027              		@ frame_needed = 0, uses_anonymous_args = 0
 3028              		.loc 1 1114 3 view .LVU1074
 3029              		.loc 1 1115 3 view .LVU1075
 3030              		.loc 1 1113 1 is_stmt 0 view .LVU1076
 3031 0000 10B5     		push	{r4, lr}
 3032              		.cfi_def_cfa_offset 8
 3033              		.cfi_offset 4, -8
 3034              		.cfi_offset 14, -4
 3035              		.loc 1 1121 27 view .LVU1077
 3036 0002 4FF67F32 		movw	r2, #64383
 3037              		.loc 1 1113 1 view .LVU1078
 3038 0006 0446     		mov	r4, r0
 3039              	.LVL234:
 3040              		.loc 1 1116 3 is_stmt 1 view .LVU1079
 3041              		.loc 1 1119 3 view .LVU1080
 3042              		.loc 1 1119 18 view .LVU1081
 3043 0008 00F51063 		add	r3, r0, #2304
 3044 000c 00F52E6C 		add	ip, r0, #2784
 3045              	.LVL235:
 3046              	.L263:
 3047              		.loc 1 1121 5 discriminator 3 view .LVU1082
 3048              		.loc 1 1121 27 is_stmt 0 discriminator 3 view .LVU1083
 3049 0010 9A60     		str	r2, [r3, #8]
 3050              		.loc 1 1122 5 is_stmt 1 discriminator 3 view .LVU1084
 3051 0012 03F50071 		add	r1, r3, #512
 3052              		.loc 1 1119 18 is_stmt 0 discriminator 3 view .LVU1085
 3053 0016 2033     		adds	r3, r3, #32
 3054              		.loc 1 1122 28 discriminator 3 view .LVU1086
 3055 0018 8A60     		str	r2, [r1, #8]
 3056              		.loc 1 1119 26 is_stmt 1 discriminator 3 view .LVU1087
 3057              		.loc 1 1119 18 discriminator 3 view .LVU1088
 3058 001a 6345     		cmp	r3, ip
 3059 001c F8D1     		bne	.L263
 3060              		.loc 1 1126 3 view .LVU1089
 3061              		.loc 1 1126 25 is_stmt 0 view .LVU1090
 3062 001e 0022     		movs	r2, #0
 3063              		.loc 1 1131 9 view .LVU1091
 3064 0020 2046     		mov	r0, r4
 3065              	.LVL236:
 3066              		.loc 1 1126 25 view .LVU1092
 3067 0022 C4F81028 		str	r2, [r4, #2064]
 3068              		.loc 1 1127 3 is_stmt 1 view .LVU1093
 3069              		.loc 1 1127 25 is_stmt 0 view .LVU1094
 3070 0026 C4F81428 		str	r2, [r4, #2068]
 3071              		.loc 1 1128 3 is_stmt 1 view .LVU1095
 3072              		.loc 1 1128 25 is_stmt 0 view .LVU1096
 3073 002a C4F81C28 		str	r2, [r4, #2076]
 3074              		.loc 1 1131 3 is_stmt 1 view .LVU1097
 3075              		.loc 1 1131 9 is_stmt 0 view .LVU1098
 3076 002e FFF7FEFF 		bl	USB_FlushRxFifo
 3077              	.LVL237:
 3078              		.loc 1 1132 3 is_stmt 1 view .LVU1099
ARM GAS  C:\Users\DEVELO~1\AppData\Local\Temp\cc15HDCU.s 			page 55


 3079              		.loc 1 1132 6 is_stmt 0 view .LVU1100
 3080 0032 00B1     		cbz	r0, .L267
 3081              		.loc 1 1144 1 view .LVU1101
 3082 0034 10BD     		pop	{r4, pc}
 3083              	.LVL238:
 3084              	.L267:
 3085              		.loc 1 1137 3 is_stmt 1 view .LVU1102
 3086              		.loc 1 1137 9 is_stmt 0 view .LVU1103
 3087 0036 2046     		mov	r0, r4
 3088              	.LVL239:
 3089              		.loc 1 1137 9 view .LVU1104
 3090 0038 1021     		movs	r1, #16
 3091              		.loc 1 1144 1 view .LVU1105
 3092 003a BDE81040 		pop	{r4, lr}
 3093              		.cfi_restore 14
 3094              		.cfi_restore 4
 3095              		.cfi_def_cfa_offset 0
 3096              	.LVL240:
 3097              		.loc 1 1137 9 view .LVU1106
 3098 003e FFF7FEBF 		b	USB_FlushTxFifo
 3099              	.LVL241:
 3100              		.loc 1 1137 9 view .LVU1107
 3101              		.cfi_endproc
 3102              	.LFE161:
 3103              		.size	USB_StopDevice, .-USB_StopDevice
 3104 0042 00BF     		.section	.text.USB_SetDevAddress,"ax",%progbits
 3105              		.align	1
 3106              		.p2align 4,,15
 3107              		.global	USB_SetDevAddress
 3108              		.syntax unified
 3109              		.thumb
 3110              		.thumb_func
 3111              		.type	USB_SetDevAddress, %function
 3112              	USB_SetDevAddress:
 3113              	.LVL242:
 3114              	.LFB162:
 3115              		.loc 1 1154 1 is_stmt 1 view -0
 3116              		.cfi_startproc
 3117              		@ args = 0, pretend = 0, frame = 0
 3118              		@ frame_needed = 0, uses_anonymous_args = 0
 3119              		@ link register save eliminated.
 3120              		.loc 1 1155 3 view .LVU1109
 3121              		.loc 1 1154 1 is_stmt 0 view .LVU1110
 3122 0000 0346     		mov	r3, r0
 3123              		.loc 1 1158 43 view .LVU1111
 3124 0002 0901     		lsls	r1, r1, #4
 3125              	.LVL243:
 3126              		.loc 1 1161 1 view .LVU1112
 3127 0004 0020     		movs	r0, #0
 3128              	.LVL244:
 3129              		.loc 1 1157 3 is_stmt 1 view .LVU1113
 3130              		.loc 1 1157 21 is_stmt 0 view .LVU1114
 3131 0006 D3F80028 		ldr	r2, [r3, #2048]
 3132              		.loc 1 1158 49 view .LVU1115
 3133 000a 01F4FE61 		and	r1, r1, #2032
 3134              		.loc 1 1157 21 view .LVU1116
 3135 000e 22F4FE62 		bic	r2, r2, #2032
ARM GAS  C:\Users\DEVELO~1\AppData\Local\Temp\cc15HDCU.s 			page 56


 3136 0012 C3F80028 		str	r2, [r3, #2048]
 3137              		.loc 1 1158 3 is_stmt 1 view .LVU1117
 3138              		.loc 1 1158 21 is_stmt 0 view .LVU1118
 3139 0016 D3F80028 		ldr	r2, [r3, #2048]
 3140 001a 1143     		orrs	r1, r1, r2
 3141 001c C3F80018 		str	r1, [r3, #2048]
 3142              		.loc 1 1160 3 is_stmt 1 view .LVU1119
 3143              		.loc 1 1161 1 is_stmt 0 view .LVU1120
 3144 0020 7047     		bx	lr
 3145              		.cfi_endproc
 3146              	.LFE162:
 3147              		.size	USB_SetDevAddress, .-USB_SetDevAddress
 3148 0022 00BF     		.section	.text.USB_DevConnect,"ax",%progbits
 3149              		.align	1
 3150              		.p2align 4,,15
 3151              		.global	USB_DevConnect
 3152              		.syntax unified
 3153              		.thumb
 3154              		.thumb_func
 3155              		.type	USB_DevConnect, %function
 3156              	USB_DevConnect:
 3157              	.LVL245:
 3158              	.LFB163:
 3159              		.loc 1 1169 1 is_stmt 1 view -0
 3160              		.cfi_startproc
 3161              		@ args = 0, pretend = 0, frame = 0
 3162              		@ frame_needed = 0, uses_anonymous_args = 0
 3163              		@ link register save eliminated.
 3164              		.loc 1 1170 3 view .LVU1122
 3165              		.loc 1 1169 1 is_stmt 0 view .LVU1123
 3166 0000 0346     		mov	r3, r0
 3167              		.loc 1 1178 1 view .LVU1124
 3168 0002 0020     		movs	r0, #0
 3169              	.LVL246:
 3170              		.loc 1 1173 3 is_stmt 1 view .LVU1125
 3171              		.loc 1 1173 16 is_stmt 0 view .LVU1126
 3172 0004 D3F8002E 		ldr	r2, [r3, #3584]
 3173              		.loc 1 1175 21 view .LVU1127
 3174 0008 03F50061 		add	r1, r3, #2048
 3175              		.loc 1 1173 16 view .LVU1128
 3176 000c 22F00302 		bic	r2, r2, #3
 3177 0010 C3F8002E 		str	r2, [r3, #3584]
 3178              		.loc 1 1175 3 is_stmt 1 view .LVU1129
 3179              		.loc 1 1175 21 is_stmt 0 view .LVU1130
 3180 0014 D3F80438 		ldr	r3, [r3, #2052]
 3181              	.LVL247:
 3182              		.loc 1 1175 21 view .LVU1131
 3183 0018 23F00203 		bic	r3, r3, #2
 3184 001c 4B60     		str	r3, [r1, #4]
 3185              		.loc 1 1177 3 is_stmt 1 view .LVU1132
 3186              		.loc 1 1178 1 is_stmt 0 view .LVU1133
 3187 001e 7047     		bx	lr
 3188              		.cfi_endproc
 3189              	.LFE163:
 3190              		.size	USB_DevConnect, .-USB_DevConnect
 3191              		.section	.text.USB_DevDisconnect,"ax",%progbits
 3192              		.align	1
ARM GAS  C:\Users\DEVELO~1\AppData\Local\Temp\cc15HDCU.s 			page 57


 3193              		.p2align 4,,15
 3194              		.global	USB_DevDisconnect
 3195              		.syntax unified
 3196              		.thumb
 3197              		.thumb_func
 3198              		.type	USB_DevDisconnect, %function
 3199              	USB_DevDisconnect:
 3200              	.LVL248:
 3201              	.LFB164:
 3202              		.loc 1 1186 1 is_stmt 1 view -0
 3203              		.cfi_startproc
 3204              		@ args = 0, pretend = 0, frame = 0
 3205              		@ frame_needed = 0, uses_anonymous_args = 0
 3206              		@ link register save eliminated.
 3207              		.loc 1 1187 3 view .LVU1135
 3208              		.loc 1 1186 1 is_stmt 0 view .LVU1136
 3209 0000 0346     		mov	r3, r0
 3210              		.loc 1 1195 1 view .LVU1137
 3211 0002 0020     		movs	r0, #0
 3212              	.LVL249:
 3213              		.loc 1 1190 3 is_stmt 1 view .LVU1138
 3214              		.loc 1 1190 16 is_stmt 0 view .LVU1139
 3215 0004 D3F8002E 		ldr	r2, [r3, #3584]
 3216              		.loc 1 1192 21 view .LVU1140
 3217 0008 03F50061 		add	r1, r3, #2048
 3218              		.loc 1 1190 16 view .LVU1141
 3219 000c 22F00302 		bic	r2, r2, #3
 3220 0010 C3F8002E 		str	r2, [r3, #3584]
 3221              		.loc 1 1192 3 is_stmt 1 view .LVU1142
 3222              		.loc 1 1192 21 is_stmt 0 view .LVU1143
 3223 0014 D3F80438 		ldr	r3, [r3, #2052]
 3224              	.LVL250:
 3225              		.loc 1 1192 21 view .LVU1144
 3226 0018 43F00203 		orr	r3, r3, #2
 3227 001c 4B60     		str	r3, [r1, #4]
 3228              		.loc 1 1194 3 is_stmt 1 view .LVU1145
 3229              		.loc 1 1195 1 is_stmt 0 view .LVU1146
 3230 001e 7047     		bx	lr
 3231              		.cfi_endproc
 3232              	.LFE164:
 3233              		.size	USB_DevDisconnect, .-USB_DevDisconnect
 3234              		.section	.text.USB_ReadInterrupts,"ax",%progbits
 3235              		.align	1
 3236              		.p2align 4,,15
 3237              		.global	USB_ReadInterrupts
 3238              		.syntax unified
 3239              		.thumb
 3240              		.thumb_func
 3241              		.type	USB_ReadInterrupts, %function
 3242              	USB_ReadInterrupts:
 3243              	.LVL251:
 3244              	.LFB165:
 3245              		.loc 1 1203 1 is_stmt 1 view -0
 3246              		.cfi_startproc
 3247              		@ args = 0, pretend = 0, frame = 0
 3248              		@ frame_needed = 0, uses_anonymous_args = 0
 3249              		@ link register save eliminated.
ARM GAS  C:\Users\DEVELO~1\AppData\Local\Temp\cc15HDCU.s 			page 58


 3250              		.loc 1 1204 3 view .LVU1148
 3251              		.loc 1 1206 3 view .LVU1149
 3252              		.loc 1 1206 10 is_stmt 0 view .LVU1150
 3253 0000 4269     		ldr	r2, [r0, #20]
 3254              	.LVL252:
 3255              		.loc 1 1207 3 is_stmt 1 view .LVU1151
 3256              		.loc 1 1207 17 is_stmt 0 view .LVU1152
 3257 0002 8069     		ldr	r0, [r0, #24]
 3258              	.LVL253:
 3259              		.loc 1 1209 3 is_stmt 1 view .LVU1153
 3260              		.loc 1 1210 1 is_stmt 0 view .LVU1154
 3261 0004 1040     		ands	r0, r0, r2
 3262              	.LVL254:
 3263              		.loc 1 1210 1 view .LVU1155
 3264 0006 7047     		bx	lr
 3265              		.cfi_endproc
 3266              	.LFE165:
 3267              		.size	USB_ReadInterrupts, .-USB_ReadInterrupts
 3268              		.section	.text.USB_ReadChInterrupts,"ax",%progbits
 3269              		.align	1
 3270              		.p2align 4,,15
 3271              		.global	USB_ReadChInterrupts
 3272              		.syntax unified
 3273              		.thumb
 3274              		.thumb_func
 3275              		.type	USB_ReadChInterrupts, %function
 3276              	USB_ReadChInterrupts:
 3277              	.LVL255:
 3278              	.LFB166:
 3279              		.loc 1 1219 1 is_stmt 1 view -0
 3280              		.cfi_startproc
 3281              		@ args = 0, pretend = 0, frame = 0
 3282              		@ frame_needed = 0, uses_anonymous_args = 0
 3283              		@ link register save eliminated.
 3284              		.loc 1 1220 3 view .LVU1157
 3285              		.loc 1 1221 3 view .LVU1158
 3286              		.loc 1 1223 3 view .LVU1159
 3287              		.loc 1 1223 12 is_stmt 0 view .LVU1160
 3288 0000 00EB4111 		add	r1, r0, r1, lsl #5
 3289              	.LVL256:
 3290              		.loc 1 1223 10 view .LVU1161
 3291 0004 D1F80805 		ldr	r0, [r1, #1288]
 3292              	.LVL257:
 3293              		.loc 1 1224 3 is_stmt 1 view .LVU1162
 3294              		.loc 1 1224 27 is_stmt 0 view .LVU1163
 3295 0008 D1F80C35 		ldr	r3, [r1, #1292]
 3296              	.LVL258:
 3297              		.loc 1 1226 3 is_stmt 1 view .LVU1164
 3298              		.loc 1 1227 1 is_stmt 0 view .LVU1165
 3299 000c 1840     		ands	r0, r0, r3
 3300              	.LVL259:
 3301              		.loc 1 1227 1 view .LVU1166
 3302 000e 7047     		bx	lr
 3303              		.cfi_endproc
 3304              	.LFE166:
 3305              		.size	USB_ReadChInterrupts, .-USB_ReadChInterrupts
 3306              		.section	.text.USB_ReadDevAllOutEpInterrupt,"ax",%progbits
ARM GAS  C:\Users\DEVELO~1\AppData\Local\Temp\cc15HDCU.s 			page 59


 3307              		.align	1
 3308              		.p2align 4,,15
 3309              		.global	USB_ReadDevAllOutEpInterrupt
 3310              		.syntax unified
 3311              		.thumb
 3312              		.thumb_func
 3313              		.type	USB_ReadDevAllOutEpInterrupt, %function
 3314              	USB_ReadDevAllOutEpInterrupt:
 3315              	.LVL260:
 3316              	.LFB167:
 3317              		.loc 1 1235 1 is_stmt 1 view -0
 3318              		.cfi_startproc
 3319              		@ args = 0, pretend = 0, frame = 0
 3320              		@ frame_needed = 0, uses_anonymous_args = 0
 3321              		@ link register save eliminated.
 3322              		.loc 1 1236 3 view .LVU1168
 3323              		.loc 1 1237 3 view .LVU1169
 3324              		.loc 1 1239 3 view .LVU1170
 3325              		.loc 1 1239 11 is_stmt 0 view .LVU1171
 3326 0000 D0F81838 		ldr	r3, [r0, #2072]
 3327              	.LVL261:
 3328              		.loc 1 1240 3 is_stmt 1 view .LVU1172
 3329              		.loc 1 1240 24 is_stmt 0 view .LVU1173
 3330 0004 D0F81C08 		ldr	r0, [r0, #2076]
 3331              	.LVL262:
 3332              		.loc 1 1242 3 is_stmt 1 view .LVU1174
 3333              		.loc 1 1240 10 is_stmt 0 view .LVU1175
 3334 0008 1840     		ands	r0, r0, r3
 3335              	.LVL263:
 3336              		.loc 1 1243 1 view .LVU1176
 3337 000a 000C     		lsrs	r0, r0, #16
 3338              	.LVL264:
 3339              		.loc 1 1243 1 view .LVU1177
 3340 000c 7047     		bx	lr
 3341              		.cfi_endproc
 3342              	.LFE167:
 3343              		.size	USB_ReadDevAllOutEpInterrupt, .-USB_ReadDevAllOutEpInterrupt
 3344 000e 00BF     		.section	.text.USB_ReadDevAllInEpInterrupt,"ax",%progbits
 3345              		.align	1
 3346              		.p2align 4,,15
 3347              		.global	USB_ReadDevAllInEpInterrupt
 3348              		.syntax unified
 3349              		.thumb
 3350              		.thumb_func
 3351              		.type	USB_ReadDevAllInEpInterrupt, %function
 3352              	USB_ReadDevAllInEpInterrupt:
 3353              	.LVL265:
 3354              	.LFB168:
 3355              		.loc 1 1251 1 is_stmt 1 view -0
 3356              		.cfi_startproc
 3357              		@ args = 0, pretend = 0, frame = 0
 3358              		@ frame_needed = 0, uses_anonymous_args = 0
 3359              		@ link register save eliminated.
 3360              		.loc 1 1252 3 view .LVU1179
 3361              		.loc 1 1253 3 view .LVU1180
 3362              		.loc 1 1255 3 view .LVU1181
 3363              		.loc 1 1255 11 is_stmt 0 view .LVU1182
ARM GAS  C:\Users\DEVELO~1\AppData\Local\Temp\cc15HDCU.s 			page 60


 3364 0000 D0F81838 		ldr	r3, [r0, #2072]
 3365              	.LVL266:
 3366              		.loc 1 1256 3 is_stmt 1 view .LVU1183
 3367              		.loc 1 1256 24 is_stmt 0 view .LVU1184
 3368 0004 D0F81C08 		ldr	r0, [r0, #2076]
 3369              	.LVL267:
 3370              		.loc 1 1258 3 is_stmt 1 view .LVU1185
 3371              		.loc 1 1256 10 is_stmt 0 view .LVU1186
 3372 0008 1840     		ands	r0, r0, r3
 3373              	.LVL268:
 3374              		.loc 1 1259 1 view .LVU1187
 3375 000a 80B2     		uxth	r0, r0
 3376              	.LVL269:
 3377              		.loc 1 1259 1 view .LVU1188
 3378 000c 7047     		bx	lr
 3379              		.cfi_endproc
 3380              	.LFE168:
 3381              		.size	USB_ReadDevAllInEpInterrupt, .-USB_ReadDevAllInEpInterrupt
 3382 000e 00BF     		.section	.text.USB_ReadDevOutEPInterrupt,"ax",%progbits
 3383              		.align	1
 3384              		.p2align 4,,15
 3385              		.global	USB_ReadDevOutEPInterrupt
 3386              		.syntax unified
 3387              		.thumb
 3388              		.thumb_func
 3389              		.type	USB_ReadDevOutEPInterrupt, %function
 3390              	USB_ReadDevOutEPInterrupt:
 3391              	.LVL270:
 3392              	.LFB169:
 3393              		.loc 1 1269 1 is_stmt 1 view -0
 3394              		.cfi_startproc
 3395              		@ args = 0, pretend = 0, frame = 0
 3396              		@ frame_needed = 0, uses_anonymous_args = 0
 3397              		@ link register save eliminated.
 3398              		.loc 1 1270 3 view .LVU1190
 3399              		.loc 1 1271 3 view .LVU1191
 3400              		.loc 1 1273 3 view .LVU1192
 3401              		.loc 1 1273 13 is_stmt 0 view .LVU1193
 3402 0000 00EB4111 		add	r1, r0, r1, lsl #5
 3403              	.LVL271:
 3404              		.loc 1 1274 13 view .LVU1194
 3405 0004 00F50060 		add	r0, r0, #2048
 3406              	.LVL272:
 3407              		.loc 1 1273 11 view .LVU1195
 3408 0008 D1F8082B 		ldr	r2, [r1, #2824]
 3409              	.LVL273:
 3410              		.loc 1 1274 3 is_stmt 1 view .LVU1196
 3411              		.loc 1 1274 24 is_stmt 0 view .LVU1197
 3412 000c 4069     		ldr	r0, [r0, #20]
 3413              	.LVL274:
 3414              		.loc 1 1276 3 is_stmt 1 view .LVU1198
 3415              		.loc 1 1277 1 is_stmt 0 view .LVU1199
 3416 000e 1040     		ands	r0, r0, r2
 3417              	.LVL275:
 3418              		.loc 1 1277 1 view .LVU1200
 3419 0010 7047     		bx	lr
 3420              		.cfi_endproc
ARM GAS  C:\Users\DEVELO~1\AppData\Local\Temp\cc15HDCU.s 			page 61


 3421              	.LFE169:
 3422              		.size	USB_ReadDevOutEPInterrupt, .-USB_ReadDevOutEPInterrupt
 3423 0012 00BF     		.section	.text.USB_ReadDevInEPInterrupt,"ax",%progbits
 3424              		.align	1
 3425              		.p2align 4,,15
 3426              		.global	USB_ReadDevInEPInterrupt
 3427              		.syntax unified
 3428              		.thumb
 3429              		.thumb_func
 3430              		.type	USB_ReadDevInEPInterrupt, %function
 3431              	USB_ReadDevInEPInterrupt:
 3432              	.LVL276:
 3433              	.LFB170:
 3434              		.loc 1 1287 1 is_stmt 1 view -0
 3435              		.cfi_startproc
 3436              		@ args = 0, pretend = 0, frame = 0
 3437              		@ frame_needed = 0, uses_anonymous_args = 0
 3438              		@ link register save eliminated.
 3439              		.loc 1 1288 3 view .LVU1202
 3440              		.loc 1 1289 3 view .LVU1203
 3441              		.loc 1 1290 3 view .LVU1204
 3442              		.loc 1 1291 3 view .LVU1205
 3443              		.loc 1 1293 3 view .LVU1206
 3444              		.loc 1 1293 7 is_stmt 0 view .LVU1207
 3445 0000 D0F81028 		ldr	r2, [r0, #2064]
 3446              	.LVL277:
 3447              		.loc 1 1294 3 is_stmt 1 view .LVU1208
 3448              		.loc 1 1294 7 is_stmt 0 view .LVU1209
 3449 0004 D0F83438 		ldr	r3, [r0, #2100]
 3450              	.LVL278:
 3451              		.loc 1 1295 3 is_stmt 1 view .LVU1210
 3452              		.loc 1 1296 3 view .LVU1211
 3453              		.loc 1 1296 12 is_stmt 0 view .LVU1212
 3454 0008 00EB4110 		add	r0, r0, r1, lsl #5
 3455              	.LVL279:
 3456              		.loc 1 1295 26 view .LVU1213
 3457 000c 01F00F01 		and	r1, r1, #15
 3458              	.LVL280:
 3459              		.loc 1 1296 38 view .LVU1214
 3460 0010 D0F80809 		ldr	r0, [r0, #2312]
 3461              	.LVL281:
 3462              		.loc 1 1298 3 is_stmt 1 view .LVU1215
 3463              		.loc 1 1295 16 is_stmt 0 view .LVU1216
 3464 0014 CB40     		lsrs	r3, r3, r1
 3465              	.LVL282:
 3466              		.loc 1 1295 50 view .LVU1217
 3467 0016 DB01     		lsls	r3, r3, #7
 3468 0018 DBB2     		uxtb	r3, r3
 3469              		.loc 1 1295 7 view .LVU1218
 3470 001a 1343     		orrs	r3, r3, r2
 3471              		.loc 1 1299 1 view .LVU1219
 3472 001c 1840     		ands	r0, r0, r3
 3473 001e 7047     		bx	lr
 3474              		.cfi_endproc
 3475              	.LFE170:
 3476              		.size	USB_ReadDevInEPInterrupt, .-USB_ReadDevInEPInterrupt
 3477              		.section	.text.USB_ClearInterrupts,"ax",%progbits
ARM GAS  C:\Users\DEVELO~1\AppData\Local\Temp\cc15HDCU.s 			page 62


 3478              		.align	1
 3479              		.p2align 4,,15
 3480              		.global	USB_ClearInterrupts
 3481              		.syntax unified
 3482              		.thumb
 3483              		.thumb_func
 3484              		.type	USB_ClearInterrupts, %function
 3485              	USB_ClearInterrupts:
 3486              	.LVL283:
 3487              	.LFB171:
 3488              		.loc 1 1308 1 is_stmt 1 view -0
 3489              		.cfi_startproc
 3490              		@ args = 0, pretend = 0, frame = 0
 3491              		@ frame_needed = 0, uses_anonymous_args = 0
 3492              		@ link register save eliminated.
 3493              		.loc 1 1309 3 view .LVU1221
 3494              		.loc 1 1309 17 is_stmt 0 view .LVU1222
 3495 0000 4369     		ldr	r3, [r0, #20]
 3496 0002 0B40     		ands	r3, r3, r1
 3497 0004 4361     		str	r3, [r0, #20]
 3498              		.loc 1 1310 1 view .LVU1223
 3499 0006 7047     		bx	lr
 3500              		.cfi_endproc
 3501              	.LFE171:
 3502              		.size	USB_ClearInterrupts, .-USB_ClearInterrupts
 3503              		.section	.text.USB_GetMode,"ax",%progbits
 3504              		.align	1
 3505              		.p2align 4,,15
 3506              		.global	USB_GetMode
 3507              		.syntax unified
 3508              		.thumb
 3509              		.thumb_func
 3510              		.type	USB_GetMode, %function
 3511              	USB_GetMode:
 3512              	.LVL284:
 3513              	.LFB172:
 3514              		.loc 1 1321 1 is_stmt 1 view -0
 3515              		.cfi_startproc
 3516              		@ args = 0, pretend = 0, frame = 0
 3517              		@ frame_needed = 0, uses_anonymous_args = 0
 3518              		@ link register save eliminated.
 3519              		.loc 1 1322 3 view .LVU1225
 3520              		.loc 1 1322 16 is_stmt 0 view .LVU1226
 3521 0000 4069     		ldr	r0, [r0, #20]
 3522              	.LVL285:
 3523              		.loc 1 1323 1 view .LVU1227
 3524 0002 00F00100 		and	r0, r0, #1
 3525 0006 7047     		bx	lr
 3526              		.cfi_endproc
 3527              	.LFE172:
 3528              		.size	USB_GetMode, .-USB_GetMode
 3529              		.section	.text.USB_ActivateSetup,"ax",%progbits
 3530              		.align	1
 3531              		.p2align 4,,15
 3532              		.global	USB_ActivateSetup
 3533              		.syntax unified
 3534              		.thumb
ARM GAS  C:\Users\DEVELO~1\AppData\Local\Temp\cc15HDCU.s 			page 63


 3535              		.thumb_func
 3536              		.type	USB_ActivateSetup, %function
 3537              	USB_ActivateSetup:
 3538              	.LVL286:
 3539              	.LFB173:
 3540              		.loc 1 1331 1 is_stmt 1 view -0
 3541              		.cfi_startproc
 3542              		@ args = 0, pretend = 0, frame = 0
 3543              		@ frame_needed = 0, uses_anonymous_args = 0
 3544              		@ link register save eliminated.
 3545              		.loc 1 1332 3 view .LVU1229
 3546              		.loc 1 1331 1 is_stmt 0 view .LVU1230
 3547 0000 0346     		mov	r3, r0
 3548              		.loc 1 1335 26 view .LVU1231
 3549 0002 084A     		ldr	r2, .L281
 3550              		.loc 1 1340 1 view .LVU1232
 3551 0004 0020     		movs	r0, #0
 3552              	.LVL287:
 3553              		.loc 1 1335 3 is_stmt 1 view .LVU1233
 3554              		.loc 1 1337 21 is_stmt 0 view .LVU1234
 3555 0006 03F50061 		add	r1, r3, #2048
 3556              		.loc 1 1331 1 view .LVU1235
 3557 000a 10B4     		push	{r4}
 3558              		.cfi_def_cfa_offset 4
 3559              		.cfi_offset 4, -4
 3560              		.loc 1 1335 26 view .LVU1236
 3561 000c D3F80049 		ldr	r4, [r3, #2304]
 3562 0010 2240     		ands	r2, r2, r4
 3563              		.loc 1 1340 1 view .LVU1237
 3564 0012 10BC     		pop	{r4}
 3565              		.cfi_restore 4
 3566              		.cfi_def_cfa_offset 0
 3567              		.loc 1 1335 26 view .LVU1238
 3568 0014 C3F80029 		str	r2, [r3, #2304]
 3569              		.loc 1 1337 3 is_stmt 1 view .LVU1239
 3570              		.loc 1 1337 21 is_stmt 0 view .LVU1240
 3571 0018 D3F80438 		ldr	r3, [r3, #2052]
 3572              	.LVL288:
 3573              		.loc 1 1337 21 view .LVU1241
 3574 001c 43F48073 		orr	r3, r3, #256
 3575 0020 4B60     		str	r3, [r1, #4]
 3576              		.loc 1 1339 3 is_stmt 1 view .LVU1242
 3577              		.loc 1 1340 1 is_stmt 0 view .LVU1243
 3578 0022 7047     		bx	lr
 3579              	.L282:
 3580              		.align	2
 3581              	.L281:
 3582 0024 00F8FFFF 		.word	-2048
 3583              		.cfi_endproc
 3584              	.LFE173:
 3585              		.size	USB_ActivateSetup, .-USB_ActivateSetup
 3586              		.section	.text.USB_EP0_OutStart,"ax",%progbits
 3587              		.align	1
 3588              		.p2align 4,,15
 3589              		.global	USB_EP0_OutStart
 3590              		.syntax unified
 3591              		.thumb
ARM GAS  C:\Users\DEVELO~1\AppData\Local\Temp\cc15HDCU.s 			page 64


 3592              		.thumb_func
 3593              		.type	USB_EP0_OutStart, %function
 3594              	USB_EP0_OutStart:
 3595              	.LVL289:
 3596              	.LFB174:
 3597              		.loc 1 1353 1 is_stmt 1 view -0
 3598              		.cfi_startproc
 3599              		@ args = 0, pretend = 0, frame = 0
 3600              		@ frame_needed = 0, uses_anonymous_args = 0
 3601              		@ link register save eliminated.
 3602              		.loc 1 1354 3 view .LVU1245
 3603              		.loc 1 1357 6 is_stmt 0 view .LVU1246
 3604 0000 134B     		ldr	r3, .L290
 3605              	.LVL290:
 3606              		.loc 1 1355 3 is_stmt 1 view .LVU1247
 3607              		.loc 1 1353 1 is_stmt 0 view .LVU1248
 3608 0002 10B4     		push	{r4}
 3609              		.cfi_def_cfa_offset 4
 3610              		.cfi_offset 4, -4
 3611              		.loc 1 1355 12 view .LVU1249
 3612 0004 046C     		ldr	r4, [r0, #64]
 3613              	.LVL291:
 3614              		.loc 1 1357 3 is_stmt 1 view .LVU1250
 3615              		.loc 1 1357 6 is_stmt 0 view .LVU1251
 3616 0006 9C42     		cmp	r4, r3
 3617 0008 19D8     		bhi	.L284
 3618              		.loc 1 1359 10 view .LVU1252
 3619 000a 00F53060 		add	r0, r0, #2816
 3620              	.LVL292:
 3621              	.L285:
 3622              		.loc 1 1365 3 is_stmt 1 view .LVU1253
 3623              		.loc 1 1365 28 is_stmt 0 view .LVU1254
 3624 000e 0023     		movs	r3, #0
 3625              		.loc 1 1370 6 view .LVU1255
 3626 0010 0129     		cmp	r1, #1
 3627              		.loc 1 1365 28 view .LVU1256
 3628 0012 0361     		str	r3, [r0, #16]
 3629              		.loc 1 1366 3 is_stmt 1 view .LVU1257
 3630              		.loc 1 1366 28 is_stmt 0 view .LVU1258
 3631 0014 0369     		ldr	r3, [r0, #16]
 3632 0016 43F40023 		orr	r3, r3, #524288
 3633 001a 0361     		str	r3, [r0, #16]
 3634              		.loc 1 1367 3 is_stmt 1 view .LVU1259
 3635              		.loc 1 1367 28 is_stmt 0 view .LVU1260
 3636 001c 0369     		ldr	r3, [r0, #16]
 3637 001e 43F01803 		orr	r3, r3, #24
 3638 0022 0361     		str	r3, [r0, #16]
 3639              		.loc 1 1368 3 is_stmt 1 view .LVU1261
 3640              		.loc 1 1368 28 is_stmt 0 view .LVU1262
 3641 0024 0369     		ldr	r3, [r0, #16]
 3642 0026 43F0C043 		orr	r3, r3, #1610612736
 3643 002a 0361     		str	r3, [r0, #16]
 3644              		.loc 1 1370 3 is_stmt 1 view .LVU1263
 3645              		.loc 1 1370 6 is_stmt 0 view .LVU1264
 3646 002c 04D1     		bne	.L286
 3647              		.loc 1 1372 5 is_stmt 1 view .LVU1265
 3648              		.loc 1 1372 29 is_stmt 0 view .LVU1266
ARM GAS  C:\Users\DEVELO~1\AppData\Local\Temp\cc15HDCU.s 			page 65


 3649 002e 4261     		str	r2, [r0, #20]
 3650              		.loc 1 1374 5 is_stmt 1 view .LVU1267
 3651              		.loc 1 1374 29 is_stmt 0 view .LVU1268
 3652 0030 0368     		ldr	r3, [r0]
 3653 0032 43F08023 		orr	r3, r3, #-2147450880
 3654 0036 0360     		str	r3, [r0]
 3655              	.L286:
 3656              		.loc 1 1378 1 view .LVU1269
 3657 0038 0020     		movs	r0, #0
 3658 003a 10BC     		pop	{r4}
 3659              		.cfi_remember_state
 3660              		.cfi_restore 4
 3661              		.cfi_def_cfa_offset 0
 3662              	.LVL293:
 3663              		.loc 1 1378 1 view .LVU1270
 3664 003c 7047     		bx	lr
 3665              	.LVL294:
 3666              	.L284:
 3667              		.cfi_restore_state
 3668              		.loc 1 1359 5 is_stmt 1 view .LVU1271
 3669              		.loc 1 1359 24 is_stmt 0 view .LVU1272
 3670 003e D0F8003B 		ldr	r3, [r0, #2816]
 3671              		.loc 1 1359 10 view .LVU1273
 3672 0042 00F53060 		add	r0, r0, #2816
 3673              	.LVL295:
 3674              		.loc 1 1359 8 view .LVU1274
 3675 0046 002B     		cmp	r3, #0
 3676 0048 E1DA     		bge	.L285
 3677              		.loc 1 1378 1 view .LVU1275
 3678 004a 0020     		movs	r0, #0
 3679              	.LVL296:
 3680              		.loc 1 1378 1 view .LVU1276
 3681 004c 10BC     		pop	{r4}
 3682              		.cfi_restore 4
 3683              		.cfi_def_cfa_offset 0
 3684              	.LVL297:
 3685              		.loc 1 1378 1 view .LVU1277
 3686 004e 7047     		bx	lr
 3687              	.L291:
 3688              		.align	2
 3689              	.L290:
 3690 0050 0A30544F 		.word	1330917386
 3691              		.cfi_endproc
 3692              	.LFE174:
 3693              		.size	USB_EP0_OutStart, .-USB_EP0_OutStart
 3694              		.section	.text.USB_HostInit,"ax",%progbits
 3695              		.align	1
 3696              		.p2align 4,,15
 3697              		.global	USB_HostInit
 3698              		.syntax unified
 3699              		.thumb
 3700              		.thumb_func
 3701              		.type	USB_HostInit, %function
 3702              	USB_HostInit:
 3703              	.LVL298:
 3704              	.LFB176:
 3705              		.loc 1 1426 1 is_stmt 1 view -0
ARM GAS  C:\Users\DEVELO~1\AppData\Local\Temp\cc15HDCU.s 			page 66


 3706              		.cfi_startproc
 3707              		@ args = 20, pretend = 16, frame = 0
 3708              		@ frame_needed = 0, uses_anonymous_args = 0
 3709              		.loc 1 1426 1 is_stmt 0 view .LVU1279
 3710 0000 84B0     		sub	sp, sp, #16
 3711              		.cfi_def_cfa_offset 16
 3712 0002 70B5     		push	{r4, r5, r6, lr}
 3713              		.cfi_def_cfa_offset 32
 3714              		.cfi_offset 4, -32
 3715              		.cfi_offset 5, -28
 3716              		.cfi_offset 6, -24
 3717              		.cfi_offset 14, -20
 3718              		.loc 1 1426 1 view .LVU1280
 3719 0004 05AD     		add	r5, sp, #20
 3720 0006 0446     		mov	r4, r0
 3721 0008 85E80E00 		stm	r5, {r1, r2, r3}
 3722              		.loc 1 1432 16 view .LVU1281
 3723 000c 0023     		movs	r3, #0
 3724 000e 9DF81550 		ldrb	r5, [sp, #21]	@ zero_extendqisi2
 3725              	.LVL299:
 3726              		.loc 1 1427 3 is_stmt 1 view .LVU1282
 3727              		.loc 1 1428 3 view .LVU1283
 3728              		.loc 1 1429 3 view .LVU1284
 3729              		.loc 1 1432 3 view .LVU1285
 3730              		.loc 1 1432 16 is_stmt 0 view .LVU1286
 3731 0012 C0F8003E 		str	r3, [r0, #3584]
 3732              		.loc 1 1435 3 is_stmt 1 view .LVU1287
 3733              		.loc 1 1435 15 is_stmt 0 view .LVU1288
 3734 0016 836B     		ldr	r3, [r0, #56]
 3735 0018 23F40013 		bic	r3, r3, #2097152
 3736 001c 8363     		str	r3, [r0, #56]
 3737              		.loc 1 1438 3 is_stmt 1 view .LVU1289
 3738              		.loc 1 1438 15 is_stmt 0 view .LVU1290
 3739 001e 836B     		ldr	r3, [r0, #56]
 3740 0020 23F40033 		bic	r3, r3, #131072
 3741 0024 8363     		str	r3, [r0, #56]
 3742              		.loc 1 1441 3 is_stmt 1 view .LVU1291
 3743              		.loc 1 1441 12 is_stmt 0 view .LVU1292
 3744 0026 C368     		ldr	r3, [r0, #12]
 3745              		.loc 1 1441 6 view .LVU1293
 3746 0028 5B06     		lsls	r3, r3, #25
 3747 002a 3FD4     		bmi	.L293
 3748              		.loc 1 1443 5 is_stmt 1 view .LVU1294
 3749              		.loc 1 1443 8 is_stmt 0 view .LVU1295
 3750 002c 9DF81730 		ldrb	r3, [sp, #23]	@ zero_extendqisi2
 3751 0030 012B     		cmp	r3, #1
 3752              		.loc 1 1446 23 view .LVU1296
 3753 0032 D0F80034 		ldr	r3, [r0, #1024]
 3754              		.loc 1 1443 8 view .LVU1297
 3755 0036 3CD0     		beq	.L304
 3756              	.L303:
 3757              		.loc 1 1457 21 view .LVU1298
 3758 0038 23F00403 		bic	r3, r3, #4
 3759 003c C4F80034 		str	r3, [r4, #1024]
 3760              	.L295:
 3761              		.loc 1 1461 3 is_stmt 1 view .LVU1299
 3762              		.loc 1 1461 7 is_stmt 0 view .LVU1300
ARM GAS  C:\Users\DEVELO~1\AppData\Local\Temp\cc15HDCU.s 			page 67


 3763 0040 1021     		movs	r1, #16
 3764 0042 2046     		mov	r0, r4
 3765              	.LVL300:
 3766              		.loc 1 1461 7 view .LVU1301
 3767 0044 FFF7FEFF 		bl	USB_FlushTxFifo
 3768              	.LVL301:
 3769 0048 0146     		mov	r1, r0
 3770              		.loc 1 1466 7 view .LVU1302
 3771 004a 2046     		mov	r0, r4
 3772              	.LVL302:
 3773              		.loc 1 1466 3 is_stmt 1 view .LVU1303
 3774              		.loc 1 1466 7 is_stmt 0 view .LVU1304
 3775 004c FFF7FEFF 		bl	USB_FlushRxFifo
 3776              	.LVL303:
 3777              		.loc 1 1466 6 view .LVU1305
 3778 0050 0843     		orrs	r0, r0, r1
 3779 0052 C0B2     		uxtb	r0, r0
 3780              		.loc 1 1468 9 view .LVU1306
 3781 0054 0038     		subs	r0, r0, #0
 3782 0056 18BF     		it	ne
 3783 0058 0120     		movne	r0, #1
 3784              	.LVL304:
 3785              		.loc 1 1472 3 is_stmt 1 view .LVU1307
 3786              		.loc 1 1472 18 view .LVU1308
 3787 005a 5DB1     		cbz	r5, .L300
 3788              		.loc 1 1472 10 is_stmt 0 view .LVU1309
 3789 005c 0022     		movs	r2, #0
 3790 005e 04F5A063 		add	r3, r4, #1280
 3791              		.loc 1 1474 23 view .LVU1310
 3792 0062 4FF0FF36 		mov	r6, #-1
 3793              		.loc 1 1475 26 view .LVU1311
 3794 0066 1146     		mov	r1, r2
 3795              	.LVL305:
 3796              	.L299:
 3797              		.loc 1 1474 5 is_stmt 1 discriminator 3 view .LVU1312
 3798              		.loc 1 1472 40 is_stmt 0 discriminator 3 view .LVU1313
 3799 0068 0132     		adds	r2, r2, #1
 3800              	.LVL306:
 3801              		.loc 1 1474 23 discriminator 3 view .LVU1314
 3802 006a 9E60     		str	r6, [r3, #8]
 3803              		.loc 1 1475 5 is_stmt 1 discriminator 3 view .LVU1315
 3804              		.loc 1 1475 26 is_stmt 0 discriminator 3 view .LVU1316
 3805 006c D960     		str	r1, [r3, #12]
 3806              		.loc 1 1472 40 is_stmt 1 discriminator 3 view .LVU1317
 3807              	.LVL307:
 3808              		.loc 1 1472 18 discriminator 3 view .LVU1318
 3809 006e 2033     		adds	r3, r3, #32
 3810 0070 AA42     		cmp	r2, r5
 3811 0072 F9D1     		bne	.L299
 3812              	.LVL308:
 3813              	.L300:
 3814              		.loc 1 1479 3 view .LVU1319
 3815              		.loc 1 1479 17 is_stmt 0 view .LVU1320
 3816 0074 0022     		movs	r2, #0
 3817              		.loc 1 1482 17 view .LVU1321
 3818 0076 4FF0FF33 		mov	r3, #-1
 3819              		.loc 1 1484 18 view .LVU1322
ARM GAS  C:\Users\DEVELO~1\AppData\Local\Temp\cc15HDCU.s 			page 68


 3820 007a 4FF40071 		mov	r1, #512
 3821              		.loc 1 1479 17 view .LVU1323
 3822 007e A261     		str	r2, [r4, #24]
 3823              		.loc 1 1482 3 is_stmt 1 view .LVU1324
 3824              		.loc 1 1482 17 is_stmt 0 view .LVU1325
 3825 0080 6361     		str	r3, [r4, #20]
 3826              		.loc 1 1484 3 is_stmt 1 view .LVU1326
 3827              		.loc 1 1485 28 is_stmt 0 view .LVU1327
 3828 0082 0E4B     		ldr	r3, .L305
 3829              		.loc 1 1484 18 view .LVU1328
 3830 0084 6162     		str	r1, [r4, #36]
 3831              		.loc 1 1485 3 is_stmt 1 view .LVU1329
 3832              		.loc 1 1486 18 is_stmt 0 view .LVU1330
 3833 0086 0E4A     		ldr	r2, .L305+4
 3834              		.loc 1 1485 28 view .LVU1331
 3835 0088 A362     		str	r3, [r4, #40]
 3836              		.loc 1 1486 3 is_stmt 1 view .LVU1332
 3837              		.loc 1 1489 6 is_stmt 0 view .LVU1333
 3838 008a 9DF81630 		ldrb	r3, [sp, #22]	@ zero_extendqisi2
 3839              		.loc 1 1486 18 view .LVU1334
 3840 008e C4F80021 		str	r2, [r4, #256]
 3841              		.loc 1 1489 3 is_stmt 1 view .LVU1335
 3842              		.loc 1 1489 6 is_stmt 0 view .LVU1336
 3843 0092 1BB9     		cbnz	r3, .L298
 3844              		.loc 1 1491 5 is_stmt 1 view .LVU1337
 3845              		.loc 1 1491 19 is_stmt 0 view .LVU1338
 3846 0094 A369     		ldr	r3, [r4, #24]
 3847 0096 43F01003 		orr	r3, r3, #16
 3848 009a A361     		str	r3, [r4, #24]
 3849              	.L298:
 3850              		.loc 1 1495 3 is_stmt 1 view .LVU1339
 3851              		.loc 1 1495 17 is_stmt 0 view .LVU1340
 3852 009c A269     		ldr	r2, [r4, #24]
 3853 009e 094B     		ldr	r3, .L305+8
 3854 00a0 1343     		orrs	r3, r3, r2
 3855 00a2 A361     		str	r3, [r4, #24]
 3856              		.loc 1 1499 3 is_stmt 1 view .LVU1341
 3857              		.loc 1 1500 1 is_stmt 0 view .LVU1342
 3858 00a4 BDE87040 		pop	{r4, r5, r6, lr}
 3859              		.cfi_remember_state
 3860              		.cfi_restore 14
 3861              		.cfi_restore 6
 3862              		.cfi_restore 5
 3863              		.cfi_restore 4
 3864              		.cfi_def_cfa_offset 16
 3865              	.LVL309:
 3866              		.loc 1 1500 1 view .LVU1343
 3867 00a8 04B0     		add	sp, sp, #16
 3868              		.cfi_def_cfa_offset 0
 3869 00aa 7047     		bx	lr
 3870              	.LVL310:
 3871              	.L293:
 3872              		.cfi_restore_state
 3873              		.loc 1 1457 5 is_stmt 1 view .LVU1344
 3874              		.loc 1 1457 21 is_stmt 0 view .LVU1345
 3875 00ac D0F80034 		ldr	r3, [r0, #1024]
 3876 00b0 C2E7     		b	.L303
ARM GAS  C:\Users\DEVELO~1\AppData\Local\Temp\cc15HDCU.s 			page 69


 3877              	.L304:
 3878              		.loc 1 1446 7 is_stmt 1 view .LVU1346
 3879              		.loc 1 1446 23 is_stmt 0 view .LVU1347
 3880 00b2 43F00403 		orr	r3, r3, #4
 3881 00b6 C0F80034 		str	r3, [r0, #1024]
 3882 00ba C1E7     		b	.L295
 3883              	.L306:
 3884              		.align	2
 3885              	.L305:
 3886 00bc 00020001 		.word	16777728
 3887 00c0 0003E000 		.word	14680832
 3888 00c4 080020A3 		.word	-1558183928
 3889              		.cfi_endproc
 3890              	.LFE176:
 3891              		.size	USB_HostInit, .-USB_HostInit
 3892              		.section	.text.USB_InitFSLSPClkSel,"ax",%progbits
 3893              		.align	1
 3894              		.p2align 4,,15
 3895              		.global	USB_InitFSLSPClkSel
 3896              		.syntax unified
 3897              		.thumb
 3898              		.thumb_func
 3899              		.type	USB_InitFSLSPClkSel, %function
 3900              	USB_InitFSLSPClkSel:
 3901              	.LVL311:
 3902              	.LFB177:
 3903              		.loc 1 1513 1 is_stmt 1 view -0
 3904              		.cfi_startproc
 3905              		@ args = 0, pretend = 0, frame = 0
 3906              		@ frame_needed = 0, uses_anonymous_args = 0
 3907              		@ link register save eliminated.
 3908              		.loc 1 1514 3 view .LVU1349
 3909              		.loc 1 1516 3 view .LVU1350
 3910              		.loc 1 1516 19 is_stmt 0 view .LVU1351
 3911 0000 D0F80024 		ldr	r2, [r0, #1024]
 3912              		.loc 1 1517 37 view .LVU1352
 3913 0004 01F00303 		and	r3, r1, #3
 3914              		.loc 1 1519 6 view .LVU1353
 3915 0008 0129     		cmp	r1, #1
 3916              		.loc 1 1516 19 view .LVU1354
 3917 000a 00F5806C 		add	ip, r0, #1024
 3918 000e 22F00302 		bic	r2, r2, #3
 3919 0012 C0F80024 		str	r2, [r0, #1024]
 3920              		.loc 1 1517 3 is_stmt 1 view .LVU1355
 3921              		.loc 1 1517 19 is_stmt 0 view .LVU1356
 3922 0016 D0F80024 		ldr	r2, [r0, #1024]
 3923 001a 43EA0203 		orr	r3, r3, r2
 3924 001e C0F80034 		str	r3, [r0, #1024]
 3925              		.loc 1 1519 3 is_stmt 1 view .LVU1357
 3926              		.loc 1 1519 6 is_stmt 0 view .LVU1358
 3927 0022 09D0     		beq	.L311
 3928              		.loc 1 1523 8 is_stmt 1 view .LVU1359
 3929              		.loc 1 1523 11 is_stmt 0 view .LVU1360
 3930 0024 0229     		cmp	r1, #2
 3931 0026 05D1     		bne	.L310
 3932              		.loc 1 1525 5 is_stmt 1 view .LVU1361
 3933              		.loc 1 1525 21 is_stmt 0 view .LVU1362
ARM GAS  C:\Users\DEVELO~1\AppData\Local\Temp\cc15HDCU.s 			page 70


 3934 0028 41F27073 		movw	r3, #6000
 3935              		.loc 1 1532 10 view .LVU1363
 3936 002c 0020     		movs	r0, #0
 3937              	.LVL312:
 3938              		.loc 1 1525 21 view .LVU1364
 3939 002e CCF80430 		str	r3, [ip, #4]
 3940 0032 7047     		bx	lr
 3941              	.LVL313:
 3942              	.L310:
 3943              		.loc 1 1529 12 view .LVU1365
 3944 0034 0120     		movs	r0, #1
 3945              	.LVL314:
 3946              		.loc 1 1533 1 view .LVU1366
 3947 0036 7047     		bx	lr
 3948              	.LVL315:
 3949              	.L311:
 3950              		.loc 1 1521 5 is_stmt 1 view .LVU1367
 3951              		.loc 1 1521 21 is_stmt 0 view .LVU1368
 3952 0038 4BF68033 		movw	r3, #48000
 3953              		.loc 1 1532 10 view .LVU1369
 3954 003c 0020     		movs	r0, #0
 3955              	.LVL316:
 3956              		.loc 1 1521 21 view .LVU1370
 3957 003e CCF80430 		str	r3, [ip, #4]
 3958 0042 7047     		bx	lr
 3959              		.cfi_endproc
 3960              	.LFE177:
 3961              		.size	USB_InitFSLSPClkSel, .-USB_InitFSLSPClkSel
 3962              		.section	.text.USB_ResetPort,"ax",%progbits
 3963              		.align	1
 3964              		.p2align 4,,15
 3965              		.global	USB_ResetPort
 3966              		.syntax unified
 3967              		.thumb
 3968              		.thumb_func
 3969              		.type	USB_ResetPort, %function
 3970              	USB_ResetPort:
 3971              	.LVL317:
 3972              	.LFB178:
 3973              		.loc 1 1543 1 is_stmt 1 view -0
 3974              		.cfi_startproc
 3975              		@ args = 0, pretend = 0, frame = 8
 3976              		@ frame_needed = 0, uses_anonymous_args = 0
 3977              		.loc 1 1544 3 view .LVU1372
 3978              		.loc 1 1543 1 is_stmt 0 view .LVU1373
 3979 0000 30B5     		push	{r4, r5, lr}
 3980              		.cfi_def_cfa_offset 12
 3981              		.cfi_offset 4, -12
 3982              		.cfi_offset 5, -8
 3983              		.cfi_offset 14, -4
 3984 0002 0446     		mov	r4, r0
 3985 0004 83B0     		sub	sp, sp, #12
 3986              		.cfi_def_cfa_offset 24
 3987              		.loc 1 1546 17 view .LVU1374
 3988 0006 0025     		movs	r5, #0
 3989              		.loc 1 1554 3 view .LVU1375
 3990 0008 6420     		movs	r0, #100
ARM GAS  C:\Users\DEVELO~1\AppData\Local\Temp\cc15HDCU.s 			page 71


 3991              	.LVL318:
 3992              		.loc 1 1546 3 is_stmt 1 view .LVU1376
 3993              		.loc 1 1546 17 is_stmt 0 view .LVU1377
 3994 000a 0195     		str	r5, [sp, #4]
 3995              		.loc 1 1548 3 is_stmt 1 view .LVU1378
 3996              		.loc 1 1548 11 is_stmt 0 view .LVU1379
 3997 000c D4F84034 		ldr	r3, [r4, #1088]
 3998              		.loc 1 1548 9 view .LVU1380
 3999 0010 0193     		str	r3, [sp, #4]
 4000              		.loc 1 1550 3 is_stmt 1 view .LVU1381
 4001              		.loc 1 1550 9 is_stmt 0 view .LVU1382
 4002 0012 019B     		ldr	r3, [sp, #4]
 4003 0014 23F02E03 		bic	r3, r3, #46
 4004 0018 0193     		str	r3, [sp, #4]
 4005              		.loc 1 1553 3 is_stmt 1 view .LVU1383
 4006              		.loc 1 1553 35 is_stmt 0 view .LVU1384
 4007 001a 019B     		ldr	r3, [sp, #4]
 4008 001c 43F48073 		orr	r3, r3, #256
 4009              		.loc 1 1553 14 view .LVU1385
 4010 0020 C4F84034 		str	r3, [r4, #1088]
 4011              		.loc 1 1554 3 is_stmt 1 view .LVU1386
 4012 0024 FFF7FEFF 		bl	HAL_Delay
 4013              	.LVL319:
 4014              		.loc 1 1555 3 view .LVU1387
 4015              		.loc 1 1555 38 is_stmt 0 view .LVU1388
 4016 0028 019B     		ldr	r3, [sp, #4]
 4017              		.loc 1 1556 3 view .LVU1389
 4018 002a 0A20     		movs	r0, #10
 4019              		.loc 1 1555 38 view .LVU1390
 4020 002c 23F48073 		bic	r3, r3, #256
 4021              		.loc 1 1555 14 view .LVU1391
 4022 0030 C4F84034 		str	r3, [r4, #1088]
 4023              		.loc 1 1556 3 is_stmt 1 view .LVU1392
 4024 0034 FFF7FEFF 		bl	HAL_Delay
 4025              	.LVL320:
 4026              		.loc 1 1558 3 view .LVU1393
 4027              		.loc 1 1559 1 is_stmt 0 view .LVU1394
 4028 0038 2846     		mov	r0, r5
 4029 003a 03B0     		add	sp, sp, #12
 4030              		.cfi_def_cfa_offset 12
 4031              		@ sp needed
 4032 003c 30BD     		pop	{r4, r5, pc}
 4033              		.loc 1 1559 1 view .LVU1395
 4034              		.cfi_endproc
 4035              	.LFE178:
 4036              		.size	USB_ResetPort, .-USB_ResetPort
 4037 003e 00BF     		.section	.text.USB_DriveVbus,"ax",%progbits
 4038              		.align	1
 4039              		.p2align 4,,15
 4040              		.global	USB_DriveVbus
 4041              		.syntax unified
 4042              		.thumb
 4043              		.thumb_func
 4044              		.type	USB_DriveVbus, %function
 4045              	USB_DriveVbus:
 4046              	.LVL321:
 4047              	.LFB179:
ARM GAS  C:\Users\DEVELO~1\AppData\Local\Temp\cc15HDCU.s 			page 72


 4048              		.loc 1 1570 1 is_stmt 1 view -0
 4049              		.cfi_startproc
 4050              		@ args = 0, pretend = 0, frame = 8
 4051              		@ frame_needed = 0, uses_anonymous_args = 0
 4052              		@ link register save eliminated.
 4053              		.loc 1 1571 3 view .LVU1397
 4054              		.loc 1 1570 1 is_stmt 0 view .LVU1398
 4055 0000 82B0     		sub	sp, sp, #8
 4056              		.cfi_def_cfa_offset 8
 4057              		.loc 1 1572 17 view .LVU1399
 4058 0002 0023     		movs	r3, #0
 4059              	.LVL322:
 4060              		.loc 1 1572 3 is_stmt 1 view .LVU1400
 4061              		.loc 1 1572 17 is_stmt 0 view .LVU1401
 4062 0004 0193     		str	r3, [sp, #4]
 4063              		.loc 1 1574 3 is_stmt 1 view .LVU1402
 4064              		.loc 1 1574 11 is_stmt 0 view .LVU1403
 4065 0006 D0F84034 		ldr	r3, [r0, #1088]
 4066              		.loc 1 1574 9 view .LVU1404
 4067 000a 0193     		str	r3, [sp, #4]
 4068              		.loc 1 1576 3 is_stmt 1 view .LVU1405
 4069              		.loc 1 1576 9 is_stmt 0 view .LVU1406
 4070 000c 019B     		ldr	r3, [sp, #4]
 4071 000e 23F02E03 		bic	r3, r3, #46
 4072 0012 0193     		str	r3, [sp, #4]
 4073              		.loc 1 1579 3 is_stmt 1 view .LVU1407
 4074              		.loc 1 1579 15 is_stmt 0 view .LVU1408
 4075 0014 019B     		ldr	r3, [sp, #4]
 4076              		.loc 1 1579 43 view .LVU1409
 4077 0016 13F4805F 		tst	r3, #4096
 4078              		.loc 1 1581 37 view .LVU1410
 4079 001a 019B     		ldr	r3, [sp, #4]
 4080              		.loc 1 1579 43 view .LVU1411
 4081 001c 01D1     		bne	.L315
 4082 001e 0129     		cmp	r1, #1
 4083 0020 0DD0     		beq	.L330
 4084              	.L315:
 4085              		.loc 1 1583 3 is_stmt 1 view .LVU1412
 4086              		.loc 1 1583 58 is_stmt 0 view .LVU1413
 4087 0022 DB04     		lsls	r3, r3, #19
 4088 0024 00D5     		bpl	.L316
 4089 0026 11B1     		cbz	r1, .L331
 4090              	.L316:
 4091              		.loc 1 1587 3 is_stmt 1 view .LVU1414
 4092              		.loc 1 1588 1 is_stmt 0 view .LVU1415
 4093 0028 0020     		movs	r0, #0
 4094              	.LVL323:
 4095              		.loc 1 1588 1 view .LVU1416
 4096 002a 02B0     		add	sp, sp, #8
 4097              		.cfi_remember_state
 4098              		.cfi_def_cfa_offset 0
 4099              		@ sp needed
 4100 002c 7047     		bx	lr
 4101              	.LVL324:
 4102              	.L331:
 4103              		.cfi_restore_state
 4104              		.loc 1 1585 5 is_stmt 1 view .LVU1417
ARM GAS  C:\Users\DEVELO~1\AppData\Local\Temp\cc15HDCU.s 			page 73


 4105              		.loc 1 1585 40 is_stmt 0 view .LVU1418
 4106 002e 019B     		ldr	r3, [sp, #4]
 4107 0030 23F48053 		bic	r3, r3, #4096
 4108              		.loc 1 1585 16 view .LVU1419
 4109 0034 C0F84034 		str	r3, [r0, #1088]
 4110              		.loc 1 1587 3 is_stmt 1 view .LVU1420
 4111              		.loc 1 1588 1 is_stmt 0 view .LVU1421
 4112 0038 0020     		movs	r0, #0
 4113              	.LVL325:
 4114              		.loc 1 1588 1 view .LVU1422
 4115 003a 02B0     		add	sp, sp, #8
 4116              		.cfi_remember_state
 4117              		.cfi_def_cfa_offset 0
 4118              		@ sp needed
 4119 003c 7047     		bx	lr
 4120              	.LVL326:
 4121              	.L330:
 4122              		.cfi_restore_state
 4123              		.loc 1 1581 5 is_stmt 1 view .LVU1423
 4124              		.loc 1 1581 37 is_stmt 0 view .LVU1424
 4125 003e 43F48053 		orr	r3, r3, #4096
 4126              		.loc 1 1581 16 view .LVU1425
 4127 0042 C0F84034 		str	r3, [r0, #1088]
 4128              		.loc 1 1583 3 is_stmt 1 view .LVU1426
 4129              		.loc 1 1588 1 is_stmt 0 view .LVU1427
 4130 0046 0020     		movs	r0, #0
 4131              	.LVL327:
 4132              		.loc 1 1583 15 view .LVU1428
 4133 0048 019B     		ldr	r3, [sp, #4]
 4134              		.loc 1 1587 3 is_stmt 1 view .LVU1429
 4135              		.loc 1 1588 1 is_stmt 0 view .LVU1430
 4136 004a 02B0     		add	sp, sp, #8
 4137              		.cfi_def_cfa_offset 0
 4138              		@ sp needed
 4139 004c 7047     		bx	lr
 4140              		.cfi_endproc
 4141              	.LFE179:
 4142              		.size	USB_DriveVbus, .-USB_DriveVbus
 4143 004e 00BF     		.section	.text.USB_GetHostSpeed,"ax",%progbits
 4144              		.align	1
 4145              		.p2align 4,,15
 4146              		.global	USB_GetHostSpeed
 4147              		.syntax unified
 4148              		.thumb
 4149              		.thumb_func
 4150              		.type	USB_GetHostSpeed, %function
 4151              	USB_GetHostSpeed:
 4152              	.LVL328:
 4153              	.LFB180:
 4154              		.loc 1 1600 1 is_stmt 1 view -0
 4155              		.cfi_startproc
 4156              		@ args = 0, pretend = 0, frame = 8
 4157              		@ frame_needed = 0, uses_anonymous_args = 0
 4158              		@ link register save eliminated.
 4159              		.loc 1 1601 3 view .LVU1432
 4160              		.loc 1 1600 1 is_stmt 0 view .LVU1433
 4161 0000 82B0     		sub	sp, sp, #8
ARM GAS  C:\Users\DEVELO~1\AppData\Local\Temp\cc15HDCU.s 			page 74


 4162              		.cfi_def_cfa_offset 8
 4163              		.loc 1 1602 17 view .LVU1434
 4164 0002 0023     		movs	r3, #0
 4165              	.LVL329:
 4166              		.loc 1 1602 3 is_stmt 1 view .LVU1435
 4167              		.loc 1 1602 17 is_stmt 0 view .LVU1436
 4168 0004 0193     		str	r3, [sp, #4]
 4169              		.loc 1 1604 3 is_stmt 1 view .LVU1437
 4170              		.loc 1 1604 11 is_stmt 0 view .LVU1438
 4171 0006 D0F84034 		ldr	r3, [r0, #1088]
 4172              		.loc 1 1604 9 view .LVU1439
 4173 000a 0193     		str	r3, [sp, #4]
 4174              		.loc 1 1605 3 is_stmt 1 view .LVU1440
 4175              		.loc 1 1605 39 is_stmt 0 view .LVU1441
 4176 000c 0198     		ldr	r0, [sp, #4]
 4177              	.LVL330:
 4178              		.loc 1 1606 1 view .LVU1442
 4179 000e C0F34140 		ubfx	r0, r0, #17, #2
 4180 0012 02B0     		add	sp, sp, #8
 4181              		.cfi_def_cfa_offset 0
 4182              		@ sp needed
 4183 0014 7047     		bx	lr
 4184              		.cfi_endproc
 4185              	.LFE180:
 4186              		.size	USB_GetHostSpeed, .-USB_GetHostSpeed
 4187 0016 00BF     		.section	.text.USB_GetCurrentFrame,"ax",%progbits
 4188              		.align	1
 4189              		.p2align 4,,15
 4190              		.global	USB_GetCurrentFrame
 4191              		.syntax unified
 4192              		.thumb
 4193              		.thumb_func
 4194              		.type	USB_GetCurrentFrame, %function
 4195              	USB_GetCurrentFrame:
 4196              	.LVL331:
 4197              	.LFB181:
 4198              		.loc 1 1614 1 is_stmt 1 view -0
 4199              		.cfi_startproc
 4200              		@ args = 0, pretend = 0, frame = 0
 4201              		@ frame_needed = 0, uses_anonymous_args = 0
 4202              		@ link register save eliminated.
 4203              		.loc 1 1615 3 view .LVU1444
 4204              		.loc 1 1617 3 view .LVU1445
 4205              		.loc 1 1617 20 is_stmt 0 view .LVU1446
 4206 0000 D0F80804 		ldr	r0, [r0, #1032]
 4207              	.LVL332:
 4208              		.loc 1 1618 1 view .LVU1447
 4209 0004 80B2     		uxth	r0, r0
 4210 0006 7047     		bx	lr
 4211              		.cfi_endproc
 4212              	.LFE181:
 4213              		.size	USB_GetCurrentFrame, .-USB_GetCurrentFrame
 4214              		.section	.text.USB_HC_Init,"ax",%progbits
 4215              		.align	1
 4216              		.p2align 4,,15
 4217              		.global	USB_HC_Init
 4218              		.syntax unified
ARM GAS  C:\Users\DEVELO~1\AppData\Local\Temp\cc15HDCU.s 			page 75


 4219              		.thumb
 4220              		.thumb_func
 4221              		.type	USB_HC_Init, %function
 4222              	USB_HC_Init:
 4223              	.LVL333:
 4224              	.LFB182:
 4225              		.loc 1 1647 1 is_stmt 1 view -0
 4226              		.cfi_startproc
 4227              		@ args = 12, pretend = 0, frame = 8
 4228              		@ frame_needed = 0, uses_anonymous_args = 0
 4229              		.loc 1 1648 3 view .LVU1449
 4230              		.loc 1 1649 3 view .LVU1450
 4231              		.loc 1 1647 1 is_stmt 0 view .LVU1451
 4232 0000 2DE9F043 		push	{r4, r5, r6, r7, r8, r9, lr}
 4233              		.cfi_def_cfa_offset 28
 4234              		.cfi_offset 4, -28
 4235              		.cfi_offset 5, -24
 4236              		.cfi_offset 6, -20
 4237              		.cfi_offset 7, -16
 4238              		.cfi_offset 8, -12
 4239              		.cfi_offset 9, -8
 4240              		.cfi_offset 14, -4
 4241 0004 83B0     		sub	sp, sp, #12
 4242              		.cfi_def_cfa_offset 40
 4243              		.loc 1 1655 3 view .LVU1452
 4244 0006 00EB411C 		add	ip, r0, r1, lsl #5
 4245              		.loc 1 1647 1 view .LVU1453
 4246 000a 9E46     		mov	lr, r3
 4247              		.loc 1 1655 36 view .LVU1454
 4248 000c 4FF0FF33 		mov	r3, #-1
 4249              	.LVL334:
 4250              		.loc 1 1647 1 view .LVU1455
 4251 0010 9DF82C40 		ldrb	r4, [sp, #44]	@ zero_extendqisi2
 4252 0014 0646     		mov	r6, r0
 4253              	.LVL335:
 4254              		.loc 1 1650 3 is_stmt 1 view .LVU1456
 4255              		.loc 1 1651 3 view .LVU1457
 4256              		.loc 1 1652 3 view .LVU1458
 4257              		.loc 1 1655 3 view .LVU1459
 4258              		.loc 1 1655 36 is_stmt 0 view .LVU1460
 4259 0016 CCF80835 		str	r3, [ip, #1288]
 4260              		.loc 1 1658 3 is_stmt 1 view .LVU1461
 4261              		.loc 1 1655 3 is_stmt 0 view .LVU1462
 4262 001a 0CF5A068 		add	r8, ip, #1280
 4263              		.loc 1 1647 1 view .LVU1463
 4264 001e 9DF82850 		ldrb	r5, [sp, #40]	@ zero_extendqisi2
 4265 0022 BDF83030 		ldrh	r3, [sp, #48]
 4266              		.loc 1 1658 3 view .LVU1464
 4267 0026 032C     		cmp	r4, #3
 4268 0028 00F28580 		bhi	.L336
 4269 002c DFE804F0 		tbb	[pc, r4]
 4270              	.LVL336:
 4271              	.L338:
 4272 0030 02       		.byte	(.L339-.L338)/2
 4273 0031 6A       		.byte	(.L340-.L338)/2
 4274 0032 02       		.byte	(.L339-.L338)/2
 4275 0033 13       		.byte	(.L337-.L338)/2
ARM GAS  C:\Users\DEVELO~1\AppData\Local\Temp\cc15HDCU.s 			page 76


 4276              		.p2align 1
 4277              	.L339:
 4278              		.loc 1 1662 7 is_stmt 1 view .LVU1465
 4279              		.loc 1 1669 27 is_stmt 0 view .LVU1466
 4280 0034 4FFA82F9 		sxtb	r9, r2
 4281              		.loc 1 1662 43 view .LVU1467
 4282 0038 40F29D40 		movw	r0, #1181
 4283              		.loc 1 1669 10 view .LVU1468
 4284 003c B9F1000F 		cmp	r9, #0
 4285              		.loc 1 1662 43 view .LVU1469
 4286 0040 C8F80C00 		str	r0, [r8, #12]
 4287              		.loc 1 1669 7 is_stmt 1 view .LVU1470
 4288              		.loc 1 1671 45 is_stmt 0 view .LVU1471
 4289 0044 D8F80C00 		ldr	r0, [r8, #12]
 4290              		.loc 1 1669 10 view .LVU1472
 4291 0048 6FDB     		blt	.L347
 4292              		.loc 1 1675 9 is_stmt 1 view .LVU1473
 4293              		.loc 1 1675 45 is_stmt 0 view .LVU1474
 4294 004a 40F06000 		orr	r0, r0, #96
 4295 004e C8F80C00 		str	r0, [r8, #12]
 4296              	.LVL337:
 4297              		.loc 1 1648 21 view .LVU1475
 4298 0052 0020     		movs	r0, #0
 4299 0054 09E0     		b	.L341
 4300              	.LVL338:
 4301              	.L337:
 4302              		.loc 1 1681 7 is_stmt 1 view .LVU1476
 4303              		.loc 1 1689 27 is_stmt 0 view .LVU1477
 4304 0056 4FFA82F9 		sxtb	r9, r2
 4305              		.loc 1 1681 43 view .LVU1478
 4306 005a 40F29D60 		movw	r0, #1693
 4307              		.loc 1 1689 10 view .LVU1479
 4308 005e B9F1000F 		cmp	r9, #0
 4309              		.loc 1 1681 43 view .LVU1480
 4310 0062 C8F80C00 		str	r0, [r8, #12]
 4311              		.loc 1 1689 7 is_stmt 1 view .LVU1481
 4312              		.loc 1 1689 10 is_stmt 0 view .LVU1482
 4313 0066 5EDB     		blt	.L348
 4314              	.L345:
 4315              		.loc 1 1648 21 view .LVU1483
 4316 0068 0020     		movs	r0, #0
 4317              	.LVL339:
 4318              	.L341:
 4319              		.loc 1 1714 3 is_stmt 1 view .LVU1484
 4320              		.loc 1 1726 6 is_stmt 0 view .LVU1485
 4321 006a 4FEAD979 		lsr	r9, r9, #31
 4322              		.loc 1 1750 54 view .LVU1486
 4323 006e C3F30A03 		ubfx	r3, r3, #0, #11
 4324              		.loc 1 1747 63 view .LVU1487
 4325 0072 4FEA8E5E 		lsl	lr, lr, #22
 4326              		.loc 1 1720 41 view .LVU1488
 4327 0076 01F00F07 		and	r7, r1, #15
 4328              		.loc 1 1751 73 view .LVU1489
 4329 007a 43EAC933 		orr	r3, r3, r9, lsl #15
 4330              		.loc 1 1747 70 view .LVU1490
 4331 007e 0EF0FE5E 		and	lr, lr, #532676608
 4332              		.loc 1 1748 67 view .LVU1491
ARM GAS  C:\Users\DEVELO~1\AppData\Local\Temp\cc15HDCU.s 			page 77


 4333 0082 D202     		lsls	r2, r2, #11
 4334              	.LVL340:
 4335              		.loc 1 1751 73 view .LVU1492
 4336 0084 43EA0E03 		orr	r3, r3, lr
 4337              		.loc 1 1714 37 view .LVU1493
 4338 0088 4FF0000E 		mov	lr, #0
 4339              		.loc 1 1748 74 view .LVU1494
 4340 008c 02F4F042 		and	r2, r2, #30720
 4341              		.loc 1 1714 37 view .LVU1495
 4342 0090 C8F804E0 		str	lr, [r8, #4]
 4343              		.loc 1 1717 3 is_stmt 1 view .LVU1496
 4344              		.loc 1 1717 39 is_stmt 0 view .LVU1497
 4345 0094 D8F80C10 		ldr	r1, [r8, #12]
 4346              	.LVL341:
 4347              		.loc 1 1717 39 view .LVU1498
 4348 0098 41F00201 		orr	r1, r1, #2
 4349 009c C8F80C10 		str	r1, [r8, #12]
 4350              		.loc 1 1720 3 is_stmt 1 view .LVU1499
 4351              		.loc 1 1720 30 is_stmt 0 view .LVU1500
 4352 00a0 0121     		movs	r1, #1
 4353 00a2 B940     		lsls	r1, r1, r7
 4354              		.loc 1 1720 23 view .LVU1501
 4355 00a4 D6F81874 		ldr	r7, [r6, #1048]
 4356 00a8 3943     		orrs	r1, r1, r7
 4357 00aa C6F81814 		str	r1, [r6, #1048]
 4358              		.loc 1 1723 3 is_stmt 1 view .LVU1502
 4359              		.loc 1 1723 17 is_stmt 0 view .LVU1503
 4360 00ae B169     		ldr	r1, [r6, #24]
 4361 00b0 41F00071 		orr	r1, r1, #33554432
 4362 00b4 B161     		str	r1, [r6, #24]
 4363              		.loc 1 1726 3 is_stmt 1 view .LVU1504
 4364              	.LVL342:
 4365              		.loc 1 1735 3 view .LVU1505
 4366              	.LBB40:
 4367              	.LBI40:
 4368              		.loc 1 1599 10 view .LVU1506
 4369              	.LBB41:
 4370              		.loc 1 1601 3 view .LVU1507
 4371              		.loc 1 1602 3 view .LVU1508
 4372              		.loc 1 1602 17 is_stmt 0 view .LVU1509
 4373 00b6 CDF804E0 		str	lr, [sp, #4]
 4374              		.loc 1 1604 3 is_stmt 1 view .LVU1510
 4375              		.loc 1 1604 11 is_stmt 0 view .LVU1511
 4376 00ba D6F84014 		ldr	r1, [r6, #1088]
 4377              		.loc 1 1604 9 view .LVU1512
 4378 00be 0191     		str	r1, [sp, #4]
 4379              		.loc 1 1605 3 is_stmt 1 view .LVU1513
 4380              		.loc 1 1605 39 is_stmt 0 view .LVU1514
 4381 00c0 0199     		ldr	r1, [sp, #4]
 4382              	.LVL343:
 4383              		.loc 1 1605 39 view .LVU1515
 4384              	.LBE41:
 4385              	.LBE40:
 4386              		.loc 1 1738 3 is_stmt 1 view .LVU1516
 4387              		.loc 1 1747 3 view .LVU1517
 4388              	.LBB43:
 4389              	.LBB42:
ARM GAS  C:\Users\DEVELO~1\AppData\Local\Temp\cc15HDCU.s 			page 78


 4390              		.loc 1 1605 39 is_stmt 0 view .LVU1518
 4391 00c2 C1F34141 		ubfx	r1, r1, #17, #2
 4392              	.LVL344:
 4393              		.loc 1 1605 39 view .LVU1519
 4394              	.LBE42:
 4395              	.LBE43:
 4396              		.loc 1 1738 6 view .LVU1520
 4397 00c6 0239     		subs	r1, r1, #2
 4398 00c8 18BF     		it	ne
 4399 00ca 0121     		movne	r1, #1
 4400 00cc 022D     		cmp	r5, #2
 4401 00ce 18BF     		it	ne
 4402 00d0 0021     		movne	r1, #0
 4403              		.loc 1 1751 73 view .LVU1521
 4404 00d2 43EA4143 		orr	r3, r3, r1, lsl #17
 4405              		.loc 1 1749 59 view .LVU1522
 4406 00d6 A104     		lsls	r1, r4, #18
 4407              		.loc 1 1751 73 view .LVU1523
 4408 00d8 1343     		orrs	r3, r3, r2
 4409              		.loc 1 1753 6 view .LVU1524
 4410 00da 04F0FD02 		and	r2, r4, #253
 4411              		.loc 1 1749 66 view .LVU1525
 4412 00de 01F44021 		and	r1, r1, #786432
 4413              		.loc 1 1753 6 view .LVU1526
 4414 00e2 012A     		cmp	r2, #1
 4415              		.loc 1 1751 73 view .LVU1527
 4416 00e4 43EA0103 		orr	r3, r3, r1
 4417 00e8 43F48013 		orr	r3, r3, #1048576
 4418              		.loc 1 1747 37 view .LVU1528
 4419 00ec CCF80035 		str	r3, [ip, #1280]
 4420              		.loc 1 1753 3 is_stmt 1 view .LVU1529
 4421              		.loc 1 1753 6 is_stmt 0 view .LVU1530
 4422 00f0 05D1     		bne	.L343
 4423              		.loc 1 1755 5 is_stmt 1 view .LVU1531
 4424              		.loc 1 1755 39 is_stmt 0 view .LVU1532
 4425 00f2 DCF80035 		ldr	r3, [ip, #1280]
 4426 00f6 43F00053 		orr	r3, r3, #536870912
 4427 00fa CCF80035 		str	r3, [ip, #1280]
 4428              	.L343:
 4429              		.loc 1 1758 3 is_stmt 1 view .LVU1533
 4430              		.loc 1 1759 1 is_stmt 0 view .LVU1534
 4431 00fe 03B0     		add	sp, sp, #12
 4432              		.cfi_remember_state
 4433              		.cfi_def_cfa_offset 28
 4434              		@ sp needed
 4435 0100 BDE8F083 		pop	{r4, r5, r6, r7, r8, r9, pc}
 4436              	.LVL345:
 4437              	.L340:
 4438              		.cfi_restore_state
 4439              		.loc 1 1697 7 is_stmt 1 view .LVU1535
 4440              		.loc 1 1702 27 is_stmt 0 view .LVU1536
 4441 0104 4FFA82F9 		sxtb	r9, r2
 4442              		.loc 1 1697 43 view .LVU1537
 4443 0108 40F22520 		movw	r0, #549
 4444              		.loc 1 1702 10 view .LVU1538
 4445 010c B9F1000F 		cmp	r9, #0
 4446              		.loc 1 1697 43 view .LVU1539
ARM GAS  C:\Users\DEVELO~1\AppData\Local\Temp\cc15HDCU.s 			page 79


 4447 0110 C8F80C00 		str	r0, [r8, #12]
 4448              		.loc 1 1702 7 is_stmt 1 view .LVU1540
 4449              		.loc 1 1702 10 is_stmt 0 view .LVU1541
 4450 0114 A8DA     		bge	.L345
 4451              		.loc 1 1704 9 is_stmt 1 view .LVU1542
 4452              		.loc 1 1704 45 is_stmt 0 view .LVU1543
 4453 0116 D8F80C00 		ldr	r0, [r8, #12]
 4454 011a 40F4C070 		orr	r0, r0, #384
 4455 011e C8F80C00 		str	r0, [r8, #12]
 4456              	.LVL346:
 4457              		.loc 1 1648 21 view .LVU1544
 4458 0122 0020     		movs	r0, #0
 4459 0124 A1E7     		b	.L341
 4460              	.LVL347:
 4461              	.L348:
 4462              		.loc 1 1691 9 is_stmt 1 view .LVU1545
 4463              		.loc 1 1691 45 is_stmt 0 view .LVU1546
 4464 0126 D8F80C00 		ldr	r0, [r8, #12]
 4465              	.L347:
 4466              		.loc 1 1691 45 view .LVU1547
 4467 012a 40F48070 		orr	r0, r0, #256
 4468 012e C8F80C00 		str	r0, [r8, #12]
 4469              	.LVL348:
 4470              		.loc 1 1648 21 view .LVU1548
 4471 0132 0020     		movs	r0, #0
 4472 0134 99E7     		b	.L341
 4473              	.LVL349:
 4474              	.L336:
 4475              		.loc 1 1669 27 view .LVU1549
 4476 0136 4FFA82F9 		sxtb	r9, r2
 4477              		.loc 1 1709 11 view .LVU1550
 4478 013a 0120     		movs	r0, #1
 4479 013c 95E7     		b	.L341
 4480              		.cfi_endproc
 4481              	.LFE182:
 4482              		.size	USB_HC_Init, .-USB_HC_Init
 4483 013e 00BF     		.section	.text.USB_HC_StartXfer,"ax",%progbits
 4484              		.align	1
 4485              		.p2align 4,,15
 4486              		.global	USB_HC_StartXfer
 4487              		.syntax unified
 4488              		.thumb
 4489              		.thumb_func
 4490              		.type	USB_HC_StartXfer, %function
 4491              	USB_HC_StartXfer:
 4492              	.LVL350:
 4493              	.LFB183:
 4494              		.loc 1 1772 1 is_stmt 1 view -0
 4495              		.cfi_startproc
 4496              		@ args = 0, pretend = 0, frame = 8
 4497              		@ frame_needed = 0, uses_anonymous_args = 0
 4498              		.loc 1 1773 3 view .LVU1552
 4499              		.loc 1 1774 3 view .LVU1553
 4500              		.loc 1 1782 6 is_stmt 0 view .LVU1554
 4501 0000 012A     		cmp	r2, #1
 4502              		.loc 1 1772 1 view .LVU1555
 4503 0002 F0B5     		push	{r4, r5, r6, r7, lr}
ARM GAS  C:\Users\DEVELO~1\AppData\Local\Temp\cc15HDCU.s 			page 80


 4504              		.cfi_def_cfa_offset 20
 4505              		.cfi_offset 4, -20
 4506              		.cfi_offset 5, -16
 4507              		.cfi_offset 6, -12
 4508              		.cfi_offset 7, -8
 4509              		.cfi_offset 14, -4
 4510 0004 83B0     		sub	sp, sp, #12
 4511              		.cfi_def_cfa_offset 32
 4512              		.loc 1 1774 33 view .LVU1556
 4513 0006 91F801C0 		ldrb	ip, [r1, #1]	@ zero_extendqisi2
 4514              	.LVL351:
 4515              		.loc 1 1775 3 is_stmt 1 view .LVU1557
 4516              		.loc 1 1776 3 view .LVU1558
 4517              		.loc 1 1777 3 view .LVU1559
 4518              		.loc 1 1778 3 view .LVU1560
 4519              		.loc 1 1779 3 view .LVU1561
 4520              		.loc 1 1782 3 view .LVU1562
 4521              		.loc 1 1782 6 is_stmt 0 view .LVU1563
 4522 000a 00F0A580 		beq	.L424
 4523              		.loc 1 1794 5 is_stmt 1 view .LVU1564
 4524              		.loc 1 1794 8 is_stmt 0 view .LVU1565
 4525 000e 8B88     		ldrh	r3, [r1, #4]
 4526 0010 B3F5807F 		cmp	r3, #256
 4527 0014 00F0E680 		beq	.L353
 4528              		.loc 1 1787 43 view .LVU1566
 4529 0018 00EB4C13 		add	r3, r0, ip, lsl #5
 4530 001c 03F5A063 		add	r3, r3, #1280
 4531              	.L352:
 4532              		.loc 1 1801 3 is_stmt 1 view .LVU1567
 4533              		.loc 1 1801 9 is_stmt 0 view .LVU1568
 4534 0020 8E79     		ldrb	r6, [r1, #6]	@ zero_extendqisi2
 4535              		.loc 1 1801 6 view .LVU1569
 4536 0022 012E     		cmp	r6, #1
 4537 0024 00F0A980 		beq	.L425
 4538              	.L355:
 4539              		.loc 1 1859 5 is_stmt 1 view .LVU1570
 4540              		.loc 1 1859 11 is_stmt 0 view .LVU1571
 4541 0028 0C6A     		ldr	r4, [r1, #32]
 4542              		.loc 1 1859 8 view .LVU1572
 4543 002a 002C     		cmp	r4, #0
 4544 002c 42D1     		bne	.L426
 4545              		.loc 1 1878 5 is_stmt 1 view .LVU1573
 4546              		.loc 1 1878 11 is_stmt 0 view .LVU1574
 4547 002e CD78     		ldrb	r5, [r1, #3]	@ zero_extendqisi2
 4548 0030 4FF4002E 		mov	lr, #524288
 4549 0034 0127     		movs	r7, #1
 4550              		.loc 1 1878 8 view .LVU1575
 4551 0036 002D     		cmp	r5, #0
 4552 0038 4CD0     		beq	.L366
 4553              	.L428:
 4554              		.loc 1 1880 7 is_stmt 1 view .LVU1576
 4555              		.loc 1 1880 48 is_stmt 0 view .LVU1577
 4556 003a 8C8A     		ldrh	r4, [r1, #20]
 4557              		.loc 1 1880 44 view .LVU1578
 4558 003c 07FB04F4 		mul	r4, r7, r4
 4559              		.loc 1 1880 20 view .LVU1579
 4560 0040 CC61     		str	r4, [r1, #28]
ARM GAS  C:\Users\DEVELO~1\AppData\Local\Temp\cc15HDCU.s 			page 81


 4561              		.loc 1 1889 43 view .LVU1580
 4562 0042 C4F31204 		ubfx	r4, r4, #0, #19
 4563              	.L357:
 4564              		.loc 1 1889 3 is_stmt 1 view .LVU1581
 4565              		.loc 1 1890 85 is_stmt 0 view .LVU1582
 4566 0046 44EA0E0E 		orr	lr, r4, lr
 4567              		.loc 1 1891 31 view .LVU1583
 4568 004a 8C7D     		ldrb	r4, [r1, #22]	@ zero_extendqisi2
 4569              		.loc 1 1891 54 view .LVU1584
 4570 004c 6407     		lsls	r4, r4, #29
 4571              		.loc 1 1891 61 view .LVU1585
 4572 004e 04F0C044 		and	r4, r4, #1610612736
 4573              		.loc 1 1890 85 view .LVU1586
 4574 0052 44EA0E04 		orr	r4, r4, lr
 4575              		.loc 1 1889 27 view .LVU1587
 4576 0056 1C61     		str	r4, [r3, #16]
 4577              		.loc 1 1893 3 is_stmt 1 view .LVU1588
 4578              		.loc 1 1893 6 is_stmt 0 view .LVU1589
 4579 0058 0AB1     		cbz	r2, .L367
 4580              	.L364:
 4581              		.loc 1 1896 5 is_stmt 1 view .LVU1590
 4582              		.loc 1 1896 30 is_stmt 0 view .LVU1591
 4583 005a 8C69     		ldr	r4, [r1, #24]
 4584              		.loc 1 1896 28 view .LVU1592
 4585 005c 5C61     		str	r4, [r3, #20]
 4586              	.L367:
 4587              		.loc 1 1899 3 is_stmt 1 view .LVU1593
 4588              		.loc 1 1899 38 is_stmt 0 view .LVU1594
 4589 005e D0F80844 		ldr	r4, [r0, #1032]
 4590              	.LVL352:
 4591              		.loc 1 1900 3 is_stmt 1 view .LVU1595
 4592              		.loc 1 1903 6 is_stmt 0 view .LVU1596
 4593 0062 012E     		cmp	r6, #1
 4594              		.loc 1 1900 27 view .LVU1597
 4595 0064 1F68     		ldr	r7, [r3]
 4596              		.loc 1 1901 52 view .LVU1598
 4597 0066 6FEA0404 		mvn	r4, r4
 4598              	.LVL353:
 4599              		.loc 1 1900 27 view .LVU1599
 4600 006a 27F00057 		bic	r7, r7, #536870912
 4601              		.loc 1 1901 52 view .LVU1600
 4602 006e 4FEA4474 		lsl	r4, r4, #29
 4603              	.LVL354:
 4604              		.loc 1 1900 27 view .LVU1601
 4605 0072 1F60     		str	r7, [r3]
 4606              		.loc 1 1901 3 is_stmt 1 view .LVU1602
 4607              		.loc 1 1901 52 is_stmt 0 view .LVU1603
 4608 0074 04F00054 		and	r4, r4, #536870912
 4609              		.loc 1 1901 27 view .LVU1604
 4610 0078 1F68     		ldr	r7, [r3]
 4611 007a 44EA0704 		orr	r4, r4, r7
 4612              		.loc 1 1899 29 view .LVU1605
 4613 007e 00F58067 		add	r7, r0, #1024
 4614              		.loc 1 1901 27 view .LVU1606
 4615 0082 1C60     		str	r4, [r3]
 4616              		.loc 1 1903 3 is_stmt 1 view .LVU1607
 4617              		.loc 1 1903 6 is_stmt 0 view .LVU1608
ARM GAS  C:\Users\DEVELO~1\AppData\Local\Temp\cc15HDCU.s 			page 82


 4618 0084 2AD0     		beq	.L427
 4619              		.loc 1 1959 5 is_stmt 1 view .LVU1609
 4620              		.loc 1 1959 39 is_stmt 0 view .LVU1610
 4621 0086 0024     		movs	r4, #0
 4622 0088 5C60     		str	r4, [r3, #4]
 4623              	.L393:
 4624              		.loc 1 1963 3 is_stmt 1 view .LVU1611
 4625              		.loc 1 1963 27 is_stmt 0 view .LVU1612
 4626 008a 1C68     		ldr	r4, [r3]
 4627              		.loc 1 1963 10 view .LVU1613
 4628 008c 0194     		str	r4, [sp, #4]
 4629              		.loc 1 1964 3 is_stmt 1 view .LVU1614
 4630              		.loc 1 1964 10 is_stmt 0 view .LVU1615
 4631 008e 019C     		ldr	r4, [sp, #4]
 4632 0090 24F08044 		bic	r4, r4, #1073741824
 4633 0094 0194     		str	r4, [sp, #4]
 4634              		.loc 1 1967 3 is_stmt 1 view .LVU1616
 4635              		.loc 1 1967 6 is_stmt 0 view .LVU1617
 4636 0096 002D     		cmp	r5, #0
 4637 0098 45D0     		beq	.L382
 4638              	.LVL355:
 4639              	.L374:
 4640              		.loc 1 1969 5 is_stmt 1 view .LVU1618
 4641              		.loc 1 1969 12 is_stmt 0 view .LVU1619
 4642 009a 019A     		ldr	r2, [sp, #4]
 4643 009c 42F40042 		orr	r2, r2, #32768
 4644 00a0 0192     		str	r2, [sp, #4]
 4645              		.loc 1 1975 3 is_stmt 1 view .LVU1620
 4646              		.loc 1 1975 10 is_stmt 0 view .LVU1621
 4647 00a2 019A     		ldr	r2, [sp, #4]
 4648 00a4 42F00042 		orr	r2, r2, #-2147483648
 4649 00a8 0192     		str	r2, [sp, #4]
 4650              		.loc 1 1976 3 is_stmt 1 view .LVU1622
 4651              		.loc 1 1976 27 is_stmt 0 view .LVU1623
 4652 00aa 019A     		ldr	r2, [sp, #4]
 4653 00ac 1A60     		str	r2, [r3]
 4654              		.loc 1 1978 3 is_stmt 1 view .LVU1624
 4655              		.loc 1 1983 3 view .LVU1625
 4656              	.LVL356:
 4657              	.L412:
 4658              		.loc 1 2022 1 is_stmt 0 view .LVU1626
 4659 00ae 0020     		movs	r0, #0
 4660              	.LVL357:
 4661              		.loc 1 2022 1 view .LVU1627
 4662 00b0 03B0     		add	sp, sp, #12
 4663              		.cfi_remember_state
 4664              		.cfi_def_cfa_offset 20
 4665              		@ sp needed
 4666 00b2 F0BD     		pop	{r4, r5, r6, r7, pc}
 4667              	.LVL358:
 4668              	.L426:
 4669              		.cfi_restore_state
 4670              		.loc 1 1861 7 is_stmt 1 view .LVU1628
 4671              		.loc 1 1861 50 is_stmt 0 view .LVU1629
 4672 00b4 8D8A     		ldrh	r5, [r1, #20]
 4673              	.LVL359:
 4674              		.loc 1 1863 7 is_stmt 1 view .LVU1630
ARM GAS  C:\Users\DEVELO~1\AppData\Local\Temp\cc15HDCU.s 			page 83


 4675              		.loc 1 1861 63 is_stmt 0 view .LVU1631
 4676 00b6 671E     		subs	r7, r4, #1
 4677 00b8 2F44     		add	r7, r7, r5
 4678              		.loc 1 1861 69 view .LVU1632
 4679 00ba B7FBF5F7 		udiv	r7, r7, r5
 4680              		.loc 1 1880 22 view .LVU1633
 4681 00be BFB2     		uxth	r7, r7
 4682              		.loc 1 1878 11 view .LVU1634
 4683 00c0 CD78     		ldrb	r5, [r1, #3]	@ zero_extendqisi2
 4684              	.LVL360:
 4685              		.loc 1 1880 22 view .LVU1635
 4686 00c2 B7F5807F 		cmp	r7, #256
 4687 00c6 28BF     		it	cs
 4688 00c8 4FF48077 		movcs	r7, #256
 4689              		.loc 1 1890 53 view .LVU1636
 4690 00cc 4FEAC74E 		lsl	lr, r7, #19
 4691              	.LVL361:
 4692              		.loc 1 1878 5 is_stmt 1 view .LVU1637
 4693              		.loc 1 1878 8 is_stmt 0 view .LVU1638
 4694 00d0 002D     		cmp	r5, #0
 4695 00d2 B2D1     		bne	.L428
 4696              	.L366:
 4697              		.loc 1 1884 7 is_stmt 1 view .LVU1639
 4698              		.loc 1 1884 20 is_stmt 0 view .LVU1640
 4699 00d4 CC61     		str	r4, [r1, #28]
 4700              		.loc 1 1889 43 view .LVU1641
 4701 00d6 C4F31204 		ubfx	r4, r4, #0, #19
 4702 00da B4E7     		b	.L357
 4703              	.L427:
 4704              		.loc 1 1906 5 is_stmt 1 view .LVU1642
 4705              		.loc 1 1906 42 is_stmt 0 view .LVU1643
 4706 00dc 4E7C     		ldrb	r6, [r1, #17]	@ zero_extendqisi2
 4707              		.loc 1 1907 41 view .LVU1644
 4708 00de 0C7C     		ldrb	r4, [r1, #16]	@ zero_extendqisi2
 4709              		.loc 1 1906 96 view .LVU1645
 4710 00e0 44EAC614 		orr	r4, r4, r6, lsl #7
 4711              		.loc 1 1907 68 view .LVU1646
 4712 00e4 44F00044 		orr	r4, r4, #-2147483648
 4713              		.loc 1 1906 39 view .LVU1647
 4714 00e8 5C60     		str	r4, [r3, #4]
 4715              		.loc 1 1910 5 is_stmt 1 view .LVU1648
 4716              		.loc 1 1910 41 is_stmt 0 view .LVU1649
 4717 00ea DC68     		ldr	r4, [r3, #12]
 4718 00ec 44F06004 		orr	r4, r4, #96
 4719 00f0 DC60     		str	r4, [r3, #12]
 4720              		.loc 1 1913 5 is_stmt 1 view .LVU1650
 4721              		.loc 1 1913 8 is_stmt 0 view .LVU1651
 4722 00f2 CC79     		ldrb	r4, [r1, #7]	@ zero_extendqisi2
 4723 00f4 012C     		cmp	r4, #1
 4724 00f6 4FD1     		bne	.L369
 4725              		.loc 1 1913 31 discriminator 1 view .LVU1652
 4726 00f8 002D     		cmp	r5, #0
 4727 00fa 5FD1     		bne	.L370
 4728              		.loc 1 1915 7 is_stmt 1 view .LVU1653
 4729              		.loc 1 1915 41 is_stmt 0 view .LVU1654
 4730 00fc 5C68     		ldr	r4, [r3, #4]
 4731 00fe 44F48034 		orr	r4, r4, #65536
ARM GAS  C:\Users\DEVELO~1\AppData\Local\Temp\cc15HDCU.s 			page 84


 4732 0102 5C60     		str	r4, [r3, #4]
 4733              		.loc 1 1916 7 is_stmt 1 view .LVU1655
 4734              		.loc 1 1916 43 is_stmt 0 view .LVU1656
 4735 0104 DC68     		ldr	r4, [r3, #12]
 4736 0106 44F04004 		orr	r4, r4, #64
 4737 010a DC60     		str	r4, [r3, #12]
 4738              		.loc 1 1919 5 is_stmt 1 view .LVU1657
 4739              		.loc 1 1919 13 is_stmt 0 view .LVU1658
 4740 010c 8C7C     		ldrb	r4, [r1, #18]	@ zero_extendqisi2
 4741              		.loc 1 1919 8 view .LVU1659
 4742 010e 04F0FD06 		and	r6, r4, #253
 4743 0112 012E     		cmp	r6, #1
 4744 0114 B9D1     		bne	.L393
 4745              		.loc 1 1926 5 is_stmt 1 view .LVU1660
 4746              		.loc 1 1926 8 is_stmt 0 view .LVU1661
 4747 0116 012C     		cmp	r4, #1
 4748 0118 43D0     		beq	.L375
 4749              	.L421:
 4750              		.loc 1 1926 5 is_stmt 1 view .LVU1662
 4751              		.loc 1 1963 3 view .LVU1663
 4752              		.loc 1 1963 27 is_stmt 0 view .LVU1664
 4753 011a 1C68     		ldr	r4, [r3]
 4754              		.loc 1 1963 10 view .LVU1665
 4755 011c 0194     		str	r4, [sp, #4]
 4756              		.loc 1 1964 3 is_stmt 1 view .LVU1666
 4757              		.loc 1 1964 10 is_stmt 0 view .LVU1667
 4758 011e 019C     		ldr	r4, [sp, #4]
 4759 0120 24F08044 		bic	r4, r4, #1073741824
 4760 0124 0194     		str	r4, [sp, #4]
 4761              		.loc 1 1967 3 is_stmt 1 view .LVU1668
 4762              	.L382:
 4763              		.loc 1 1973 5 view .LVU1669
 4764              		.loc 1 1973 12 is_stmt 0 view .LVU1670
 4765 0126 019C     		ldr	r4, [sp, #4]
 4766 0128 24F40044 		bic	r4, r4, #32768
 4767 012c 0194     		str	r4, [sp, #4]
 4768              		.loc 1 1975 3 is_stmt 1 view .LVU1671
 4769              		.loc 1 1975 10 is_stmt 0 view .LVU1672
 4770 012e 019C     		ldr	r4, [sp, #4]
 4771 0130 44F00044 		orr	r4, r4, #-2147483648
 4772 0134 0194     		str	r4, [sp, #4]
 4773              		.loc 1 1976 3 is_stmt 1 view .LVU1673
 4774              		.loc 1 1976 27 is_stmt 0 view .LVU1674
 4775 0136 019C     		ldr	r4, [sp, #4]
 4776 0138 1C60     		str	r4, [r3]
 4777              		.loc 1 1978 3 is_stmt 1 view .LVU1675
 4778              		.loc 1 1978 6 is_stmt 0 view .LVU1676
 4779 013a 002A     		cmp	r2, #0
 4780 013c B7D1     		bne	.L412
 4781              		.loc 1 1983 34 discriminator 1 view .LVU1677
 4782 013e 0A6A     		ldr	r2, [r1, #32]
 4783              	.LVL362:
 4784              		.loc 1 1983 28 discriminator 1 view .LVU1678
 4785 0140 002A     		cmp	r2, #0
 4786 0142 B4D0     		beq	.L412
 4787              		.loc 1 1983 51 discriminator 2 view .LVU1679
 4788 0144 CB79     		ldrb	r3, [r1, #7]	@ zero_extendqisi2
ARM GAS  C:\Users\DEVELO~1\AppData\Local\Temp\cc15HDCU.s 			page 85


 4789 0146 002B     		cmp	r3, #0
 4790 0148 B1D1     		bne	.L412
 4791              		.loc 1 1985 5 is_stmt 1 view .LVU1680
 4792 014a 8B7C     		ldrb	r3, [r1, #18]	@ zero_extendqisi2
 4793 014c 032B     		cmp	r3, #3
 4794 014e 64D8     		bhi	.L385
 4795 0150 DFE803F0 		tbb	[pc, r3]
 4796              	.L387:
 4797 0154 58       		.byte	(.L388-.L387)/2
 4798 0155 76       		.byte	(.L386-.L387)/2
 4799 0156 58       		.byte	(.L388-.L387)/2
 4800 0157 76       		.byte	(.L386-.L387)/2
 4801              	.LVL363:
 4802              		.p2align 1
 4803              	.L424:
 4804              		.loc 1 1784 5 view .LVU1681
 4805              		.loc 1 1784 39 is_stmt 0 view .LVU1682
 4806 0158 8B7C     		ldrb	r3, [r1, #18]	@ zero_extendqisi2
 4807              		.loc 1 1784 8 view .LVU1683
 4808 015a 13F0FD0F 		tst	r3, #253
 4809              		.loc 1 1787 43 view .LVU1684
 4810 015e 00EB4C13 		add	r3, r0, ip, lsl #5
 4811 0162 03F5A063 		add	r3, r3, #1280
 4812              		.loc 1 1784 8 view .LVU1685
 4813 0166 7FF45BAF 		bne	.L352
 4814              		.loc 1 1787 7 is_stmt 1 view .LVU1686
 4815              		.loc 1 1787 43 is_stmt 0 view .LVU1687
 4816 016a DC68     		ldr	r4, [r3, #12]
 4817 016c 24F07004 		bic	r4, r4, #112
 4818 0170 DC60     		str	r4, [r3, #12]
 4819              		.loc 1 1801 3 is_stmt 1 view .LVU1688
 4820              		.loc 1 1801 9 is_stmt 0 view .LVU1689
 4821 0172 8E79     		ldrb	r6, [r1, #6]	@ zero_extendqisi2
 4822              		.loc 1 1801 6 view .LVU1690
 4823 0174 012E     		cmp	r6, #1
 4824 0176 7FF457AF 		bne	.L355
 4825              	.L425:
 4826              		.loc 1 1804 5 is_stmt 1 view .LVU1691
 4827              	.LVL364:
 4828              		.loc 1 1806 5 view .LVU1692
 4829              		.loc 1 1806 11 is_stmt 0 view .LVU1693
 4830 017a CD78     		ldrb	r5, [r1, #3]	@ zero_extendqisi2
 4831              		.loc 1 1806 8 view .LVU1694
 4832 017c CDB9     		cbnz	r5, .L429
 4833              		.loc 1 1812 7 is_stmt 1 view .LVU1695
 4834              		.loc 1 1812 10 is_stmt 0 view .LVU1696
 4835 017e 8C7C     		ldrb	r4, [r1, #18]	@ zero_extendqisi2
 4836 0180 012C     		cmp	r4, #1
 4837              		.loc 1 1814 15 view .LVU1697
 4838 0182 0C6A     		ldr	r4, [r1, #32]
 4839              		.loc 1 1812 10 view .LVU1698
 4840 0184 7CD0     		beq	.L430
 4841              		.loc 1 1845 9 is_stmt 1 view .LVU1699
 4842              		.loc 1 1845 12 is_stmt 0 view .LVU1700
 4843 0186 012A     		cmp	r2, #1
 4844 0188 00F08780 		beq	.L431
 4845              	.L363:
ARM GAS  C:\Users\DEVELO~1\AppData\Local\Temp\cc15HDCU.s 			page 86


 4846              		.loc 1 1851 11 is_stmt 1 view .LVU1701
 4847              		.loc 1 1851 24 is_stmt 0 view .LVU1702
 4848 018c CC61     		str	r4, [r1, #28]
 4849              		.loc 1 1889 43 view .LVU1703
 4850 018e 4FF4002E 		mov	lr, #524288
 4851 0192 C4F31204 		ubfx	r4, r4, #0, #19
 4852 0196 56E7     		b	.L357
 4853              	.LVL365:
 4854              	.L369:
 4855              		.loc 1 1919 5 is_stmt 1 view .LVU1704
 4856              		.loc 1 1926 5 view .LVU1705
 4857              		.loc 1 1926 8 is_stmt 0 view .LVU1706
 4858 0198 8C7C     		ldrb	r4, [r1, #18]	@ zero_extendqisi2
 4859 019a 012C     		cmp	r4, #1
 4860 019c 7FF475AF 		bne	.L393
 4861              		.loc 1 1926 39 discriminator 1 view .LVU1707
 4862 01a0 CDB9     		cbnz	r5, .L376
 4863              	.L375:
 4864              		.loc 1 1929 7 is_stmt 1 view .LVU1708
 4865 01a2 CC68     		ldr	r4, [r1, #12]
 4866 01a4 013C     		subs	r4, r4, #1
 4867 01a6 032C     		cmp	r4, #3
 4868 01a8 B7D8     		bhi	.L421
 4869 01aa DFE804F0 		tbb	[pc, r4]
 4870              	.L396:
 4871 01ae 64       		.byte	(.L377-.L396)/2
 4872 01af 5F       		.byte	(.L379-.L396)/2
 4873 01b0 5A       		.byte	(.L380-.L396)/2
 4874 01b1 55       		.byte	(.L381-.L396)/2
 4875              	.LVL366:
 4876              		.p2align 1
 4877              	.L429:
 4878              		.loc 1 1808 7 view .LVU1709
 4879              		.loc 1 1808 48 is_stmt 0 view .LVU1710
 4880 01b2 8C8A     		ldrh	r4, [r1, #20]
 4881 01b4 4FF4002E 		mov	lr, #524288
 4882              		.loc 1 1808 20 view .LVU1711
 4883 01b8 CC61     		str	r4, [r1, #28]
 4884 01ba 44E7     		b	.L357
 4885              	.LVL367:
 4886              	.L370:
 4887              		.loc 1 1919 5 is_stmt 1 view .LVU1712
 4888              		.loc 1 1919 13 is_stmt 0 view .LVU1713
 4889 01bc 8C7C     		ldrb	r4, [r1, #18]	@ zero_extendqisi2
 4890              		.loc 1 1919 8 view .LVU1714
 4891 01be 04F0FD06 		and	r6, r4, #253
 4892 01c2 012E     		cmp	r6, #1
 4893 01c4 7FF461AF 		bne	.L393
 4894              		.loc 1 1920 31 view .LVU1715
 4895 01c8 012D     		cmp	r5, #1
 4896 01ca 40F08480 		bne	.L373
 4897              		.loc 1 1922 7 is_stmt 1 view .LVU1716
 4898              		.loc 1 1922 41 is_stmt 0 view .LVU1717
 4899 01ce 5A68     		ldr	r2, [r3, #4]
 4900              	.LVL368:
 4901              		.loc 1 1922 41 view .LVU1718
 4902 01d0 42F48032 		orr	r2, r2, #65536
ARM GAS  C:\Users\DEVELO~1\AppData\Local\Temp\cc15HDCU.s 			page 87


 4903 01d4 5A60     		str	r2, [r3, #4]
 4904              		.loc 1 1926 5 is_stmt 1 view .LVU1719
 4905              		.loc 1 1963 3 view .LVU1720
 4906              	.L376:
 4907              		.loc 1 1926 5 view .LVU1721
 4908              		.loc 1 1963 3 view .LVU1722
 4909              		.loc 1 1963 27 is_stmt 0 view .LVU1723
 4910 01d6 1A68     		ldr	r2, [r3]
 4911              		.loc 1 1963 10 view .LVU1724
 4912 01d8 0192     		str	r2, [sp, #4]
 4913              		.loc 1 1964 3 is_stmt 1 view .LVU1725
 4914              		.loc 1 1964 10 is_stmt 0 view .LVU1726
 4915 01da 019A     		ldr	r2, [sp, #4]
 4916 01dc 22F08042 		bic	r2, r2, #1073741824
 4917 01e0 0192     		str	r2, [sp, #4]
 4918              		.loc 1 1967 3 is_stmt 1 view .LVU1727
 4919 01e2 5AE7     		b	.L374
 4920              	.LVL369:
 4921              	.L353:
 4922              		.loc 1 1796 7 view .LVU1728
 4923              	.LBB44:
 4924              	.LBI44:
 4925              		.loc 1 2127 19 view .LVU1729
 4926              	.LBB45:
 4927              		.loc 1 2129 3 view .LVU1730
 4928              		.loc 1 2130 3 view .LVU1731
 4929              		.loc 1 2131 3 view .LVU1732
 4930              		.loc 1 2132 3 view .LVU1733
 4931              		.loc 1 2134 3 view .LVU1734
 4932 01e4 00EB4C1C 		add	ip, r0, ip, lsl #5
 4933              	.LVL370:
 4934              		.loc 1 2134 26 is_stmt 0 view .LVU1735
 4935 01e8 3D4B     		ldr	r3, .L433
 4936              	.LBE45:
 4937              	.LBE44:
 4938              		.loc 1 2022 1 view .LVU1736
 4939 01ea 0020     		movs	r0, #0
 4940              	.LVL371:
 4941              	.LBB47:
 4942              	.LBB46:
 4943              		.loc 1 2134 26 view .LVU1737
 4944 01ec CCF81035 		str	r3, [ip, #1296]
 4945              	.LVL372:
 4946              		.loc 1 2138 3 is_stmt 1 view .LVU1738
 4947              		.loc 1 2138 10 is_stmt 0 view .LVU1739
 4948 01f0 DCF80035 		ldr	r3, [ip, #1280]
 4949              	.LVL373:
 4950              		.loc 1 2139 3 is_stmt 1 view .LVU1740
 4951              		.loc 1 2139 10 is_stmt 0 view .LVU1741
 4952 01f4 23F08043 		bic	r3, r3, #1073741824
 4953              	.LVL374:
 4954              		.loc 1 2140 3 is_stmt 1 view .LVU1742
 4955              		.loc 1 2140 10 is_stmt 0 view .LVU1743
 4956 01f8 43F00043 		orr	r3, r3, #-2147483648
 4957              	.LVL375:
 4958              		.loc 1 2141 3 is_stmt 1 view .LVU1744
 4959              		.loc 1 2141 26 is_stmt 0 view .LVU1745
ARM GAS  C:\Users\DEVELO~1\AppData\Local\Temp\cc15HDCU.s 			page 88


 4960 01fc CCF80035 		str	r3, [ip, #1280]
 4961              		.loc 1 2143 3 is_stmt 1 view .LVU1746
 4962              	.LVL376:
 4963              		.loc 1 2143 3 is_stmt 0 view .LVU1747
 4964              	.LBE46:
 4965              	.LBE47:
 4966              		.loc 1 1797 7 is_stmt 1 view .LVU1748
 4967              		.loc 1 2022 1 is_stmt 0 view .LVU1749
 4968 0200 03B0     		add	sp, sp, #12
 4969              		.cfi_remember_state
 4970              		.cfi_def_cfa_offset 20
 4971              		@ sp needed
 4972 0202 F0BD     		pop	{r4, r5, r6, r7, pc}
 4973              	.LVL377:
 4974              	.L388:
 4975              		.cfi_restore_state
 4976              		.loc 1 1991 9 is_stmt 1 view .LVU1750
 4977              		.loc 1 1994 9 view .LVU1751
 4978              		.loc 1 1994 30 is_stmt 0 view .LVU1752
 4979 0204 C36A     		ldr	r3, [r0, #44]
 4980              		.loc 1 1991 46 view .LVU1753
 4981 0206 D41C     		adds	r4, r2, #3
 4982              		.loc 1 1994 41 view .LVU1754
 4983 0208 9BB2     		uxth	r3, r3
 4984              		.loc 1 1994 12 view .LVU1755
 4985 020a C4F38F04 		ubfx	r4, r4, #2, #16
 4986 020e 9C42     		cmp	r4, r3
 4987 0210 03D9     		bls	.L385
 4988              		.loc 1 1997 11 is_stmt 1 view .LVU1756
 4989              		.loc 1 1997 25 is_stmt 0 view .LVU1757
 4990 0212 8369     		ldr	r3, [r0, #24]
 4991 0214 43F02003 		orr	r3, r3, #32
 4992 0218 8361     		str	r3, [r0, #24]
 4993              	.LVL378:
 4994              	.L385:
 4995              		.loc 1 2018 5 is_stmt 1 view .LVU1758
 4996              	.LBB48:
 4997              	.LBB49:
 4998              		.loc 1 989 31 is_stmt 0 view .LVU1759
 4999 021a 92B2     		uxth	r2, r2
 5000              	.LBE49:
 5001              	.LBE48:
 5002              		.loc 1 2018 11 view .LVU1760
 5003 021c 8B69     		ldr	r3, [r1, #24]
 5004              	.LVL379:
 5005              	.LBB51:
 5006              	.LBI48:
 5007              		.loc 1 979 19 is_stmt 1 view .LVU1761
 5008              	.LBB50:
 5009              		.loc 1 982 3 view .LVU1762
 5010              		.loc 1 983 3 view .LVU1763
 5011              		.loc 1 984 3 view .LVU1764
 5012              		.loc 1 985 3 view .LVU1765
 5013              		.loc 1 987 3 view .LVU1766
 5014              		.loc 1 989 5 view .LVU1767
 5015              		.loc 1 989 31 is_stmt 0 view .LVU1768
 5016 021e 0332     		adds	r2, r2, #3
ARM GAS  C:\Users\DEVELO~1\AppData\Local\Temp\cc15HDCU.s 			page 89


 5017              	.LVL380:
 5018              		.loc 1 990 5 is_stmt 1 view .LVU1769
 5019              		.loc 1 990 20 view .LVU1770
 5020 0220 9208     		lsrs	r2, r2, #2
 5021              	.LVL381:
 5022              		.loc 1 990 20 is_stmt 0 view .LVU1771
 5023 0222 3FF444AF 		beq	.L412
 5024              		.loc 1 992 7 view .LVU1772
 5025 0226 00EB0C3C 		add	ip, r0, ip, lsl #12
 5026              	.LVL382:
 5027              		.loc 1 992 7 view .LVU1773
 5028 022a 03EB8202 		add	r2, r3, r2, lsl #2
 5029              	.LVL383:
 5030              		.loc 1 992 7 view .LVU1774
 5031 022e 0CF5805C 		add	ip, ip, #4096
 5032              	.LVL384:
 5033              	.L389:
 5034              		.loc 1 992 7 is_stmt 1 view .LVU1775
 5035              		.loc 1 992 41 is_stmt 0 view .LVU1776
 5036 0232 53F8041B 		ldr	r1, [r3], #4	@ unaligned
 5037              	.LVL385:
 5038              		.loc 1 990 20 view .LVU1777
 5039 0236 9A42     		cmp	r2, r3
 5040              		.loc 1 992 39 view .LVU1778
 5041 0238 CCF80010 		str	r1, [ip]
 5042              		.loc 1 993 7 is_stmt 1 view .LVU1779
 5043              	.LVL386:
 5044              		.loc 1 994 7 view .LVU1780
 5045              		.loc 1 995 7 view .LVU1781
 5046              		.loc 1 996 7 view .LVU1782
 5047              		.loc 1 990 33 view .LVU1783
 5048              		.loc 1 990 20 view .LVU1784
 5049 023c F9D1     		bne	.L389
 5050 023e 36E7     		b	.L412
 5051              	.LVL387:
 5052              	.L386:
 5053              		.loc 1 990 20 is_stmt 0 view .LVU1785
 5054              	.LBE50:
 5055              	.LBE51:
 5056              		.loc 1 2004 9 is_stmt 1 view .LVU1786
 5057              		.loc 1 2006 9 view .LVU1787
 5058              		.loc 1 2006 35 is_stmt 0 view .LVU1788
 5059 0240 3C69     		ldr	r4, [r7, #16]
 5060              		.loc 1 2004 46 view .LVU1789
 5061 0242 D31C     		adds	r3, r2, #3
 5062              		.loc 1 2006 45 view .LVU1790
 5063 0244 A4B2     		uxth	r4, r4
 5064              		.loc 1 2006 12 view .LVU1791
 5065 0246 C3F38F03 		ubfx	r3, r3, #2, #16
 5066 024a 9C42     		cmp	r4, r3
 5067 024c E5D2     		bcs	.L385
 5068              		.loc 1 2009 11 is_stmt 1 view .LVU1792
 5069              		.loc 1 2009 25 is_stmt 0 view .LVU1793
 5070 024e 8369     		ldr	r3, [r0, #24]
 5071 0250 43F08063 		orr	r3, r3, #67108864
 5072 0254 8361     		str	r3, [r0, #24]
 5073 0256 E0E7     		b	.L385
ARM GAS  C:\Users\DEVELO~1\AppData\Local\Temp\cc15HDCU.s 			page 90


 5074              	.LVL388:
 5075              	.L381:
 5076              		.loc 1 1948 11 is_stmt 1 view .LVU1794
 5077              		.loc 1 1948 45 is_stmt 0 view .LVU1795
 5078 0258 5C68     		ldr	r4, [r3, #4]
 5079 025a 44F44044 		orr	r4, r4, #49152
 5080 025e 5C60     		str	r4, [r3, #4]
 5081              		.loc 1 1949 11 is_stmt 1 view .LVU1796
 5082 0260 5BE7     		b	.L421
 5083              	.L380:
 5084              		.loc 1 1943 11 view .LVU1797
 5085              		.loc 1 1943 45 is_stmt 0 view .LVU1798
 5086 0262 5C68     		ldr	r4, [r3, #4]
 5087 0264 44F48044 		orr	r4, r4, #16384
 5088 0268 5C60     		str	r4, [r3, #4]
 5089              		.loc 1 1944 11 is_stmt 1 view .LVU1799
 5090 026a 56E7     		b	.L421
 5091              	.L379:
 5092              		.loc 1 1938 11 view .LVU1800
 5093              		.loc 1 1938 45 is_stmt 0 view .LVU1801
 5094 026c 5C68     		ldr	r4, [r3, #4]
 5095 026e 44F00E04 		orr	r4, r4, #14
 5096 0272 5C60     		str	r4, [r3, #4]
 5097              		.loc 1 1939 11 is_stmt 1 view .LVU1802
 5098 0274 51E7     		b	.L421
 5099              	.L377:
 5100              		.loc 1 1933 11 view .LVU1803
 5101              		.loc 1 1933 45 is_stmt 0 view .LVU1804
 5102 0276 5C68     		ldr	r4, [r3, #4]
 5103 0278 44F40044 		orr	r4, r4, #32768
 5104 027c 5C60     		str	r4, [r3, #4]
 5105              		.loc 1 1934 11 is_stmt 1 view .LVU1805
 5106 027e 4CE7     		b	.L421
 5107              	.LVL389:
 5108              	.L430:
 5109              		.loc 1 1814 9 view .LVU1806
 5110              		.loc 1 1814 12 is_stmt 0 view .LVU1807
 5111 0280 BC2C     		cmp	r4, #188
 5112 0282 18D9     		bls	.L359
 5113              		.loc 1 1817 11 is_stmt 1 view .LVU1808
 5114              		.loc 1 1820 54 is_stmt 0 view .LVU1809
 5115 0284 CC68     		ldr	r4, [r1, #12]
 5116 0286 671E     		subs	r7, r4, #1
 5117              		.loc 1 1817 28 view .LVU1810
 5118 0288 8C8A     		ldrh	r4, [r1, #20]
 5119              		.loc 1 1820 14 view .LVU1811
 5120 028a 012F     		cmp	r7, #1
 5121              		.loc 1 1818 24 view .LVU1812
 5122 028c C1E90744 		strd	r4, r4, [r1, #28]
 5123              		.loc 1 1820 11 is_stmt 1 view .LVU1813
 5124              		.loc 1 1820 14 is_stmt 0 view .LVU1814
 5125 0290 1CD9     		bls	.L432
 5126              		.loc 1 1826 13 is_stmt 1 view .LVU1815
 5127              		.loc 1 1826 34 is_stmt 0 view .LVU1816
 5128 0292 4FF4002E 		mov	lr, #524288
 5129 0296 CE60     		str	r6, [r1, #12]
 5130 0298 D5E6     		b	.L357
ARM GAS  C:\Users\DEVELO~1\AppData\Local\Temp\cc15HDCU.s 			page 91


 5131              	.L431:
 5132              		.loc 1 1845 42 discriminator 1 view .LVU1817
 5133 029a 8F8A     		ldrh	r7, [r1, #20]
 5134              		.loc 1 1845 25 discriminator 1 view .LVU1818
 5135 029c BC42     		cmp	r4, r7
 5136 029e 7FF675AF 		bls	.L363
 5137              		.loc 1 1847 11 is_stmt 1 view .LVU1819
 5138              		.loc 1 1891 31 is_stmt 0 view .LVU1820
 5139 02a2 8C7D     		ldrb	r4, [r1, #22]	@ zero_extendqisi2
 5140              		.loc 1 1847 24 view .LVU1821
 5141 02a4 CF61     		str	r7, [r1, #28]
 5142              	.LVL390:
 5143              		.loc 1 1889 3 is_stmt 1 view .LVU1822
 5144              		.loc 1 1890 85 is_stmt 0 view .LVU1823
 5145 02a6 47F40027 		orr	r7, r7, #524288
 5146              		.loc 1 1891 54 view .LVU1824
 5147 02aa 6407     		lsls	r4, r4, #29
 5148              		.loc 1 1891 61 view .LVU1825
 5149 02ac 04F0C044 		and	r4, r4, #1610612736
 5150              		.loc 1 1890 85 view .LVU1826
 5151 02b0 3C43     		orrs	r4, r4, r7
 5152              		.loc 1 1889 27 view .LVU1827
 5153 02b2 1C61     		str	r4, [r3, #16]
 5154              		.loc 1 1893 3 is_stmt 1 view .LVU1828
 5155 02b4 D1E6     		b	.L364
 5156              	.LVL391:
 5157              	.L359:
 5158              		.loc 1 1831 11 view .LVU1829
 5159              		.loc 1 1833 54 is_stmt 0 view .LVU1830
 5160 02b6 CF68     		ldr	r7, [r1, #12]
 5161              		.loc 1 1839 34 view .LVU1831
 5162 02b8 4FF4002E 		mov	lr, #524288
 5163              		.loc 1 1831 24 view .LVU1832
 5164 02bc CC61     		str	r4, [r1, #28]
 5165              		.loc 1 1833 11 is_stmt 1 view .LVU1833
 5166              		.loc 1 1833 54 is_stmt 0 view .LVU1834
 5167 02be 013F     		subs	r7, r7, #1
 5168              		.loc 1 1833 14 view .LVU1835
 5169 02c0 012F     		cmp	r7, #1
 5170              		.loc 1 1835 13 is_stmt 1 view .LVU1836
 5171              		.loc 1 1835 34 is_stmt 0 view .LVU1837
 5172 02c2 8CBF     		ite	hi
 5173 02c4 0427     		movhi	r7, #4
 5174              		.loc 1 1839 13 is_stmt 1 view .LVU1838
 5175              		.loc 1 1839 34 is_stmt 0 view .LVU1839
 5176 02c6 0327     		movls	r7, #3
 5177 02c8 CF60     		str	r7, [r1, #12]
 5178 02ca BCE6     		b	.L357
 5179              	.L432:
 5180              		.loc 1 1822 13 is_stmt 1 view .LVU1840
 5181              		.loc 1 1822 34 is_stmt 0 view .LVU1841
 5182 02cc 0227     		movs	r7, #2
 5183 02ce 4FF4002E 		mov	lr, #524288
 5184 02d2 CF60     		str	r7, [r1, #12]
 5185 02d4 B7E6     		b	.L357
 5186              	.LVL392:
 5187              	.L373:
ARM GAS  C:\Users\DEVELO~1\AppData\Local\Temp\cc15HDCU.s 			page 92


 5188              		.loc 1 1926 5 is_stmt 1 view .LVU1842
 5189              		.loc 1 1926 8 is_stmt 0 view .LVU1843
 5190 02d6 012C     		cmp	r4, #1
 5191 02d8 7FF4D7AE 		bne	.L393
 5192 02dc 7BE7     		b	.L376
 5193              	.L434:
 5194 02de 00BF     		.align	2
 5195              	.L433:
 5196 02e0 00000880 		.word	-2146959360
 5197              		.cfi_endproc
 5198              	.LFE183:
 5199              		.size	USB_HC_StartXfer, .-USB_HC_StartXfer
 5200              		.section	.text.USB_HC_ReadInterrupt,"ax",%progbits
 5201              		.align	1
 5202              		.p2align 4,,15
 5203              		.global	USB_HC_ReadInterrupt
 5204              		.syntax unified
 5205              		.thumb
 5206              		.thumb_func
 5207              		.type	USB_HC_ReadInterrupt, %function
 5208              	USB_HC_ReadInterrupt:
 5209              	.LVL393:
 5210              	.LFB184:
 5211              		.loc 1 2030 1 is_stmt 1 view -0
 5212              		.cfi_startproc
 5213              		@ args = 0, pretend = 0, frame = 0
 5214              		@ frame_needed = 0, uses_anonymous_args = 0
 5215              		@ link register save eliminated.
 5216              		.loc 1 2031 3 view .LVU1845
 5217              		.loc 1 2033 3 view .LVU1846
 5218              		.loc 1 2033 21 is_stmt 0 view .LVU1847
 5219 0000 D0F81404 		ldr	r0, [r0, #1044]
 5220              	.LVL394:
 5221              		.loc 1 2034 1 view .LVU1848
 5222 0004 80B2     		uxth	r0, r0
 5223 0006 7047     		bx	lr
 5224              		.cfi_endproc
 5225              	.LFE184:
 5226              		.size	USB_HC_ReadInterrupt, .-USB_HC_ReadInterrupt
 5227              		.section	.text.USB_HC_Halt,"ax",%progbits
 5228              		.align	1
 5229              		.p2align 4,,15
 5230              		.global	USB_HC_Halt
 5231              		.syntax unified
 5232              		.thumb
 5233              		.thumb_func
 5234              		.type	USB_HC_Halt, %function
 5235              	USB_HC_Halt:
 5236              	.LVL395:
 5237              	.LFB185:
 5238              		.loc 1 2044 1 is_stmt 1 view -0
 5239              		.cfi_startproc
 5240              		@ args = 0, pretend = 0, frame = 8
 5241              		@ frame_needed = 0, uses_anonymous_args = 0
 5242              		@ link register save eliminated.
 5243              		.loc 1 2045 3 view .LVU1850
 5244              		.loc 1 2048 24 is_stmt 0 view .LVU1851
ARM GAS  C:\Users\DEVELO~1\AppData\Local\Temp\cc15HDCU.s 			page 93


 5245 0000 00EB4111 		add	r1, r0, r1, lsl #5
 5246              	.LVL396:
 5247              		.loc 1 2047 17 view .LVU1852
 5248 0004 0023     		movs	r3, #0
 5249              	.LVL397:
 5250              		.loc 1 2046 3 is_stmt 1 view .LVU1853
 5251              		.loc 1 2047 3 view .LVU1854
 5252              		.loc 1 2044 1 is_stmt 0 view .LVU1855
 5253 0006 30B4     		push	{r4, r5}
 5254              		.cfi_def_cfa_offset 8
 5255              		.cfi_offset 4, -8
 5256              		.cfi_offset 5, -4
 5257              		.loc 1 2048 24 view .LVU1856
 5258 0008 01F5A06C 		add	ip, r1, #1280
 5259              		.loc 1 2044 1 view .LVU1857
 5260 000c 82B0     		sub	sp, sp, #8
 5261              		.cfi_def_cfa_offset 16
 5262              		.loc 1 2047 17 view .LVU1858
 5263 000e 0193     		str	r3, [sp, #4]
 5264              		.loc 1 2048 3 is_stmt 1 view .LVU1859
 5265              		.loc 1 2048 38 is_stmt 0 view .LVU1860
 5266 0010 D1F80035 		ldr	r3, [r1, #1280]
 5267              		.loc 1 2049 40 view .LVU1861
 5268 0014 D1F80055 		ldr	r5, [r1, #1280]
 5269              		.loc 1 2050 38 view .LVU1862
 5270 0018 DCF80440 		ldr	r4, [ip, #4]
 5271              		.loc 1 2048 71 view .LVU1863
 5272 001c 9B0C     		lsrs	r3, r3, #18
 5273              	.LVL398:
 5274              		.loc 1 2049 3 is_stmt 1 view .LVU1864
 5275              		.loc 1 2050 3 view .LVU1865
 5276              		.loc 1 2056 3 view .LVU1866
 5277              		.loc 1 2056 14 is_stmt 0 view .LVU1867
 5278 001e 8268     		ldr	r2, [r0, #8]
 5279              		.loc 1 2056 75 view .LVU1868
 5280 0020 9206     		lsls	r2, r2, #26
 5281 0022 01D5     		bpl	.L449
 5282 0024 002C     		cmp	r4, #0
 5283 0026 28DA     		bge	.L437
 5284              	.L449:
 5285              		.loc 1 2063 3 is_stmt 1 view .LVU1869
 5286              		.loc 1 2063 6 is_stmt 0 view .LVU1870
 5287 0028 DC07     		lsls	r4, r3, #31
 5288              	.LVL399:
 5289              		.loc 1 2063 6 view .LVU1871
 5290 002a 2AD5     		bpl	.L439
 5291              		.loc 1 2095 5 is_stmt 1 view .LVU1872
 5292              		.loc 1 2095 28 is_stmt 0 view .LVU1873
 5293 002c D1F80035 		ldr	r3, [r1, #1280]
 5294              	.LVL400:
 5295              		.loc 1 2095 28 view .LVU1874
 5296 0030 43F08043 		orr	r3, r3, #1073741824
 5297 0034 C1F80035 		str	r3, [r1, #1280]
 5298              		.loc 1 2097 5 is_stmt 1 view .LVU1875
 5299              		.loc 1 2097 19 is_stmt 0 view .LVU1876
 5300 0038 D0F81034 		ldr	r3, [r0, #1040]
 5301              		.loc 1 2097 8 view .LVU1877
ARM GAS  C:\Users\DEVELO~1\AppData\Local\Temp\cc15HDCU.s 			page 94


 5302 003c 13F47F0F 		tst	r3, #16711680
 5303              		.loc 1 2099 30 view .LVU1878
 5304 0040 D1F80035 		ldr	r3, [r1, #1280]
 5305              		.loc 1 2097 8 view .LVU1879
 5306 0044 43D1     		bne	.L447
 5307              		.loc 1 2099 7 is_stmt 1 view .LVU1880
 5308              		.loc 1 2099 30 is_stmt 0 view .LVU1881
 5309 0046 23F00043 		bic	r3, r3, #-2147483648
 5310 004a C1F80035 		str	r3, [r1, #1280]
 5311              		.loc 1 2100 7 is_stmt 1 view .LVU1882
 5312              		.loc 1 2100 30 is_stmt 0 view .LVU1883
 5313 004e D1F80035 		ldr	r3, [r1, #1280]
 5314 0052 43F00043 		orr	r3, r3, #-2147483648
 5315 0056 C1F80035 		str	r3, [r1, #1280]
 5316 005a 03E0     		b	.L448
 5317              	.L460:
 5318              		.loc 1 2109 31 view .LVU1884
 5319 005c DCF80030 		ldr	r3, [ip]
 5320              		.loc 1 2109 64 view .LVU1885
 5321 0060 002B     		cmp	r3, #0
 5322 0062 06DA     		bge	.L442
 5323              	.L448:
 5324              		.loc 1 2101 7 is_stmt 1 view .LVU1886
 5325              		.loc 1 2103 9 view .LVU1887
 5326              		.loc 1 2109 64 view .LVU1888
 5327              		.loc 1 2103 14 is_stmt 0 view .LVU1889
 5328 0064 019B     		ldr	r3, [sp, #4]
 5329 0066 0133     		adds	r3, r3, #1
 5330 0068 0193     		str	r3, [sp, #4]
 5331              		.loc 1 2105 9 is_stmt 1 view .LVU1890
 5332              		.loc 1 2105 19 is_stmt 0 view .LVU1891
 5333 006a 019B     		ldr	r3, [sp, #4]
 5334              		.loc 1 2105 12 view .LVU1892
 5335 006c B3F57A7F 		cmp	r3, #1000
 5336 0070 F4D9     		bls	.L460
 5337              	.L442:
 5338              		.loc 1 2118 1 view .LVU1893
 5339 0072 0020     		movs	r0, #0
 5340              	.LVL401:
 5341              		.loc 1 2118 1 view .LVU1894
 5342 0074 02B0     		add	sp, sp, #8
 5343              		.cfi_remember_state
 5344              		.cfi_def_cfa_offset 8
 5345              		@ sp needed
 5346 0076 30BC     		pop	{r4, r5}
 5347              		.cfi_restore 5
 5348              		.cfi_restore 4
 5349              		.cfi_def_cfa_offset 0
 5350              	.LVL402:
 5351              		.loc 1 2118 1 view .LVU1895
 5352 0078 7047     		bx	lr
 5353              	.LVL403:
 5354              	.L437:
 5355              		.cfi_restore_state
 5356              		.loc 1 2056 96 discriminator 2 view .LVU1896
 5357 007a 002D     		cmp	r5, #0
 5358 007c F9DA     		bge	.L442
ARM GAS  C:\Users\DEVELO~1\AppData\Local\Temp\cc15HDCU.s 			page 95


 5359              		.loc 1 2057 27 view .LVU1897
 5360 007e DA07     		lsls	r2, r3, #31
 5361 0080 F7D4     		bmi	.L442
 5362              	.LVL404:
 5363              	.L439:
 5364              		.loc 1 2065 5 is_stmt 1 view .LVU1898
 5365              		.loc 1 2065 28 is_stmt 0 view .LVU1899
 5366 0082 D1F80035 		ldr	r3, [r1, #1280]
 5367              	.LVL405:
 5368              		.loc 1 2065 28 view .LVU1900
 5369 0086 43F08043 		orr	r3, r3, #1073741824
 5370 008a C1F80035 		str	r3, [r1, #1280]
 5371              		.loc 1 2067 5 is_stmt 1 view .LVU1901
 5372              		.loc 1 2067 14 is_stmt 0 view .LVU1902
 5373 008e 8368     		ldr	r3, [r0, #8]
 5374              		.loc 1 2067 8 view .LVU1903
 5375 0090 9B06     		lsls	r3, r3, #26
 5376 0092 24D4     		bmi	.L444
 5377              		.loc 1 2069 7 is_stmt 1 view .LVU1904
 5378              		.loc 1 2069 16 is_stmt 0 view .LVU1905
 5379 0094 C36A     		ldr	r3, [r0, #44]
 5380              		.loc 1 2069 10 view .LVU1906
 5381 0096 13F47F0F 		tst	r3, #16711680
 5382              		.loc 1 2071 32 view .LVU1907
 5383 009a D1F80035 		ldr	r3, [r1, #1280]
 5384              		.loc 1 2069 10 view .LVU1908
 5385 009e 16D1     		bne	.L447
 5386              		.loc 1 2071 9 is_stmt 1 view .LVU1909
 5387              		.loc 1 2071 32 is_stmt 0 view .LVU1910
 5388 00a0 23F00043 		bic	r3, r3, #-2147483648
 5389 00a4 C1F80035 		str	r3, [r1, #1280]
 5390              		.loc 1 2072 9 is_stmt 1 view .LVU1911
 5391              		.loc 1 2072 32 is_stmt 0 view .LVU1912
 5392 00a8 D1F80035 		ldr	r3, [r1, #1280]
 5393 00ac 43F00043 		orr	r3, r3, #-2147483648
 5394 00b0 C1F80035 		str	r3, [r1, #1280]
 5395 00b4 03E0     		b	.L446
 5396              	.L461:
 5397              		.loc 1 2081 33 view .LVU1913
 5398 00b6 DCF80030 		ldr	r3, [ip]
 5399              		.loc 1 2081 66 view .LVU1914
 5400 00ba 002B     		cmp	r3, #0
 5401 00bc D9DA     		bge	.L442
 5402              	.L446:
 5403              		.loc 1 2073 9 is_stmt 1 view .LVU1915
 5404              		.loc 1 2075 11 view .LVU1916
 5405              		.loc 1 2081 66 view .LVU1917
 5406              		.loc 1 2075 16 is_stmt 0 view .LVU1918
 5407 00be 019B     		ldr	r3, [sp, #4]
 5408 00c0 0133     		adds	r3, r3, #1
 5409 00c2 0193     		str	r3, [sp, #4]
 5410              		.loc 1 2077 11 is_stmt 1 view .LVU1919
 5411              		.loc 1 2077 21 is_stmt 0 view .LVU1920
 5412 00c4 019B     		ldr	r3, [sp, #4]
 5413              		.loc 1 2077 14 view .LVU1921
 5414 00c6 B3F57A7F 		cmp	r3, #1000
 5415 00ca F4D9     		bls	.L461
ARM GAS  C:\Users\DEVELO~1\AppData\Local\Temp\cc15HDCU.s 			page 96


 5416 00cc D1E7     		b	.L442
 5417              	.L447:
 5418              		.loc 1 2113 7 is_stmt 1 view .LVU1922
 5419              		.loc 1 2113 30 is_stmt 0 view .LVU1923
 5420 00ce 43F00043 		orr	r3, r3, #-2147483648
 5421              		.loc 1 2118 1 view .LVU1924
 5422 00d2 0020     		movs	r0, #0
 5423              	.LVL406:
 5424              		.loc 1 2113 30 view .LVU1925
 5425 00d4 C1F80035 		str	r3, [r1, #1280]
 5426              		.loc 1 2118 1 view .LVU1926
 5427 00d8 02B0     		add	sp, sp, #8
 5428              		.cfi_remember_state
 5429              		.cfi_def_cfa_offset 8
 5430              		@ sp needed
 5431 00da 30BC     		pop	{r4, r5}
 5432              		.cfi_restore 5
 5433              		.cfi_restore 4
 5434              		.cfi_def_cfa_offset 0
 5435              	.LVL407:
 5436              		.loc 1 2118 1 view .LVU1927
 5437 00dc 7047     		bx	lr
 5438              	.LVL408:
 5439              	.L444:
 5440              		.cfi_restore_state
 5441              		.loc 1 2090 7 is_stmt 1 view .LVU1928
 5442              		.loc 1 2090 30 is_stmt 0 view .LVU1929
 5443 00de D1F80035 		ldr	r3, [r1, #1280]
 5444              		.loc 1 2118 1 view .LVU1930
 5445 00e2 0020     		movs	r0, #0
 5446              	.LVL409:
 5447              		.loc 1 2090 30 view .LVU1931
 5448 00e4 43F00043 		orr	r3, r3, #-2147483648
 5449 00e8 C1F80035 		str	r3, [r1, #1280]
 5450              		.loc 1 2118 1 view .LVU1932
 5451 00ec 02B0     		add	sp, sp, #8
 5452              		.cfi_def_cfa_offset 8
 5453              		@ sp needed
 5454 00ee 30BC     		pop	{r4, r5}
 5455              		.cfi_restore 5
 5456              		.cfi_restore 4
 5457              		.cfi_def_cfa_offset 0
 5458              	.LVL410:
 5459              		.loc 1 2118 1 view .LVU1933
 5460 00f0 7047     		bx	lr
 5461              		.cfi_endproc
 5462              	.LFE185:
 5463              		.size	USB_HC_Halt, .-USB_HC_Halt
 5464              		.section	.text.USB_DoPing,"ax",%progbits
 5465              		.align	1
 5466              		.p2align 4,,15
 5467              		.global	USB_DoPing
 5468              		.syntax unified
 5469              		.thumb
 5470              		.thumb_func
 5471              		.type	USB_DoPing, %function
 5472              	USB_DoPing:
ARM GAS  C:\Users\DEVELO~1\AppData\Local\Temp\cc15HDCU.s 			page 97


 5473              	.LVL411:
 5474              	.LFB186:
 5475              		.loc 1 2128 1 is_stmt 1 view -0
 5476              		.cfi_startproc
 5477              		@ args = 0, pretend = 0, frame = 0
 5478              		@ frame_needed = 0, uses_anonymous_args = 0
 5479              		@ link register save eliminated.
 5480              		.loc 1 2129 3 view .LVU1935
 5481              		.loc 1 2128 1 is_stmt 0 view .LVU1936
 5482 0000 0346     		mov	r3, r0
 5483              	.LVL412:
 5484              		.loc 1 2130 3 is_stmt 1 view .LVU1937
 5485              		.loc 1 2131 3 view .LVU1938
 5486              		.loc 1 2132 3 view .LVU1939
 5487              		.loc 1 2134 3 view .LVU1940
 5488              		.loc 1 2134 26 is_stmt 0 view .LVU1941
 5489 0002 074A     		ldr	r2, .L463
 5490              		.loc 1 2144 1 view .LVU1942
 5491 0004 0020     		movs	r0, #0
 5492              	.LVL413:
 5493              		.loc 1 2134 3 view .LVU1943
 5494 0006 03EB4111 		add	r1, r3, r1, lsl #5
 5495              	.LVL414:
 5496              		.loc 1 2134 26 view .LVU1944
 5497 000a C1F81025 		str	r2, [r1, #1296]
 5498              		.loc 1 2138 3 is_stmt 1 view .LVU1945
 5499              		.loc 1 2138 10 is_stmt 0 view .LVU1946
 5500 000e D1F80035 		ldr	r3, [r1, #1280]
 5501              	.LVL415:
 5502              		.loc 1 2139 3 is_stmt 1 view .LVU1947
 5503              		.loc 1 2139 10 is_stmt 0 view .LVU1948
 5504 0012 23F08043 		bic	r3, r3, #1073741824
 5505              	.LVL416:
 5506              		.loc 1 2140 3 is_stmt 1 view .LVU1949
 5507              		.loc 1 2140 10 is_stmt 0 view .LVU1950
 5508 0016 43F00043 		orr	r3, r3, #-2147483648
 5509              	.LVL417:
 5510              		.loc 1 2141 3 is_stmt 1 view .LVU1951
 5511              		.loc 1 2141 26 is_stmt 0 view .LVU1952
 5512 001a C1F80035 		str	r3, [r1, #1280]
 5513              		.loc 1 2143 3 is_stmt 1 view .LVU1953
 5514              		.loc 1 2144 1 is_stmt 0 view .LVU1954
 5515 001e 7047     		bx	lr
 5516              	.L464:
 5517              		.align	2
 5518              	.L463:
 5519 0020 00000880 		.word	-2146959360
 5520              		.cfi_endproc
 5521              	.LFE186:
 5522              		.size	USB_DoPing, .-USB_DoPing
 5523              		.section	.text.USB_StopHost,"ax",%progbits
 5524              		.align	1
 5525              		.p2align 4,,15
 5526              		.global	USB_StopHost
 5527              		.syntax unified
 5528              		.thumb
 5529              		.thumb_func
ARM GAS  C:\Users\DEVELO~1\AppData\Local\Temp\cc15HDCU.s 			page 98


 5530              		.type	USB_StopHost, %function
 5531              	USB_StopHost:
 5532              	.LVL418:
 5533              	.LFB187:
 5534              		.loc 1 2152 1 is_stmt 1 view -0
 5535              		.cfi_startproc
 5536              		@ args = 0, pretend = 0, frame = 8
 5537              		@ frame_needed = 0, uses_anonymous_args = 0
 5538              		.loc 1 2153 3 view .LVU1956
 5539              		.loc 1 2154 3 view .LVU1957
 5540              		.loc 1 2152 1 is_stmt 0 view .LVU1958
 5541 0000 30B5     		push	{r4, r5, lr}
 5542              		.cfi_def_cfa_offset 12
 5543              		.cfi_offset 4, -12
 5544              		.cfi_offset 5, -8
 5545              		.cfi_offset 14, -4
 5546              		.loc 1 2155 17 view .LVU1959
 5547 0002 0023     		movs	r3, #0
 5548              		.loc 1 2152 1 view .LVU1960
 5549 0004 83B0     		sub	sp, sp, #12
 5550              		.cfi_def_cfa_offset 24
 5551              		.loc 1 2152 1 view .LVU1961
 5552 0006 0446     		mov	r4, r0
 5553              	.LVL419:
 5554              		.loc 1 2155 3 is_stmt 1 view .LVU1962
 5555              		.loc 1 2162 7 is_stmt 0 view .LVU1963
 5556 0008 1021     		movs	r1, #16
 5557              		.loc 1 2155 17 view .LVU1964
 5558 000a 0193     		str	r3, [sp, #4]
 5559              		.loc 1 2156 3 is_stmt 1 view .LVU1965
 5560              		.loc 1 2157 3 view .LVU1966
 5561              		.loc 1 2159 3 view .LVU1967
 5562              	.LVL420:
 5563              	.LBB52:
 5564              	.LBI52:
 5565              		.loc 1 238 19 view .LVU1968
 5566              	.LBB53:
 5567              		.loc 1 240 3 view .LVU1969
 5568              		.loc 1 240 17 is_stmt 0 view .LVU1970
 5569 000c 8368     		ldr	r3, [r0, #8]
 5570 000e 23F00103 		bic	r3, r3, #1
 5571 0012 8360     		str	r3, [r0, #8]
 5572              		.loc 1 241 3 is_stmt 1 view .LVU1971
 5573              	.LVL421:
 5574              		.loc 1 241 3 is_stmt 0 view .LVU1972
 5575              	.LBE53:
 5576              	.LBE52:
 5577              		.loc 1 2162 3 is_stmt 1 view .LVU1973
 5578              		.loc 1 2162 7 is_stmt 0 view .LVU1974
 5579 0014 FFF7FEFF 		bl	USB_FlushTxFifo
 5580              	.LVL422:
 5581              		.loc 1 2162 7 view .LVU1975
 5582 0018 0546     		mov	r5, r0
 5583              		.loc 1 2167 7 view .LVU1976
 5584 001a 2046     		mov	r0, r4
 5585              	.LVL423:
 5586              		.loc 1 2167 3 is_stmt 1 view .LVU1977
ARM GAS  C:\Users\DEVELO~1\AppData\Local\Temp\cc15HDCU.s 			page 99


 5587 001c 04F5E061 		add	r1, r4, #1792
 5588              		.loc 1 2167 7 is_stmt 0 view .LVU1978
 5589 0020 FFF7FEFF 		bl	USB_FlushRxFifo
 5590              	.LVL424:
 5591              		.loc 1 2167 6 view .LVU1979
 5592 0024 2843     		orrs	r0, r0, r5
 5593 0026 04F5A062 		add	r2, r4, #1280
 5594 002a C0B2     		uxtb	r0, r0
 5595              		.loc 1 2169 9 view .LVU1980
 5596 002c 9446     		mov	ip, r2
 5597 002e 0038     		subs	r0, r0, #0
 5598 0030 18BF     		it	ne
 5599 0032 0120     		movne	r0, #1
 5600              	.LVL425:
 5601              		.loc 1 2173 3 is_stmt 1 view .LVU1981
 5602              		.loc 1 2173 18 view .LVU1982
 5603              	.L466:
 5604              		.loc 1 2175 5 discriminator 3 view .LVU1983
 5605              		.loc 1 2175 11 is_stmt 0 discriminator 3 view .LVU1984
 5606 0034 DCF80030 		ldr	r3, [ip]
 5607              	.LVL426:
 5608              		.loc 1 2176 5 is_stmt 1 discriminator 3 view .LVU1985
 5609              		.loc 1 2177 5 discriminator 3 view .LVU1986
 5610              		.loc 1 2178 5 discriminator 3 view .LVU1987
 5611 0038 23F08023 		bic	r3, r3, #-2147450880
 5612              	.LVL427:
 5613              		.loc 1 2178 11 is_stmt 0 discriminator 3 view .LVU1988
 5614 003c 43F08043 		orr	r3, r3, #1073741824
 5615              	.LVL428:
 5616              		.loc 1 2179 5 is_stmt 1 discriminator 3 view .LVU1989
 5617              		.loc 1 2179 24 is_stmt 0 discriminator 3 view .LVU1990
 5618 0040 4CF8203B 		str	r3, [ip], #32
 5619              		.loc 1 2173 27 is_stmt 1 discriminator 3 view .LVU1991
 5620              		.loc 1 2173 18 discriminator 3 view .LVU1992
 5621 0044 8C45     		cmp	ip, r1
 5622 0046 F5D1     		bne	.L466
 5623              	.LVL429:
 5624              	.L469:
 5625              		.loc 1 2185 5 view .LVU1993
 5626              		.loc 1 2185 11 is_stmt 0 view .LVU1994
 5627 0048 1368     		ldr	r3, [r2]
 5628              	.LVL430:
 5629              		.loc 1 2186 5 is_stmt 1 view .LVU1995
 5630              		.loc 1 2187 5 view .LVU1996
 5631              		.loc 1 2188 5 view .LVU1997
 5632 004a 23F40043 		bic	r3, r3, #32768
 5633              	.LVL431:
 5634              		.loc 1 2188 11 is_stmt 0 view .LVU1998
 5635 004e 43F04043 		orr	r3, r3, #-1073741824
 5636              	.LVL432:
 5637              		.loc 1 2189 5 is_stmt 1 view .LVU1999
 5638              		.loc 1 2189 24 is_stmt 0 view .LVU2000
 5639 0052 1360     		str	r3, [r2]
 5640 0054 02E0     		b	.L468
 5641              	.LVL433:
 5642              	.L474:
 5643              		.loc 1 2199 25 view .LVU2001
ARM GAS  C:\Users\DEVELO~1\AppData\Local\Temp\cc15HDCU.s 			page 100


 5644 0056 1368     		ldr	r3, [r2]
 5645              		.loc 1 2199 58 view .LVU2002
 5646 0058 002B     		cmp	r3, #0
 5647 005a 06DA     		bge	.L467
 5648              	.L468:
 5649              		.loc 1 2191 5 is_stmt 1 view .LVU2003
 5650              		.loc 1 2193 7 view .LVU2004
 5651              		.loc 1 2199 58 view .LVU2005
 5652              		.loc 1 2193 12 is_stmt 0 view .LVU2006
 5653 005c 019B     		ldr	r3, [sp, #4]
 5654 005e 0133     		adds	r3, r3, #1
 5655 0060 0193     		str	r3, [sp, #4]
 5656              		.loc 1 2195 7 is_stmt 1 view .LVU2007
 5657              		.loc 1 2195 17 is_stmt 0 view .LVU2008
 5658 0062 019B     		ldr	r3, [sp, #4]
 5659              		.loc 1 2195 10 view .LVU2009
 5660 0064 B3F57A7F 		cmp	r3, #1000
 5661 0068 F5D9     		bls	.L474
 5662              	.L467:
 5663              		.loc 1 2183 27 is_stmt 1 discriminator 2 view .LVU2010
 5664              		.loc 1 2183 18 discriminator 2 view .LVU2011
 5665 006a 2032     		adds	r2, r2, #32
 5666 006c 8A42     		cmp	r2, r1
 5667 006e EBD1     		bne	.L469
 5668              		.loc 1 2203 3 view .LVU2012
 5669              		.loc 1 2203 20 is_stmt 0 view .LVU2013
 5670 0070 4FF0FF33 		mov	r3, #-1
 5671 0074 C4F81434 		str	r3, [r4, #1044]
 5672              		.loc 1 2204 3 is_stmt 1 view .LVU2014
 5673              		.loc 1 2204 17 is_stmt 0 view .LVU2015
 5674 0078 6361     		str	r3, [r4, #20]
 5675              		.loc 1 2206 3 is_stmt 1 view .LVU2016
 5676              	.LVL434:
 5677              	.LBB54:
 5678              	.LBI54:
 5679              		.loc 1 226 19 view .LVU2017
 5680              	.LBB55:
 5681              		.loc 1 228 3 view .LVU2018
 5682              		.loc 1 228 17 is_stmt 0 view .LVU2019
 5683 007a A368     		ldr	r3, [r4, #8]
 5684 007c 43F00103 		orr	r3, r3, #1
 5685 0080 A360     		str	r3, [r4, #8]
 5686              		.loc 1 229 3 is_stmt 1 view .LVU2020
 5687              	.LVL435:
 5688              		.loc 1 229 3 is_stmt 0 view .LVU2021
 5689              	.LBE55:
 5690              	.LBE54:
 5691              		.loc 1 2208 3 is_stmt 1 view .LVU2022
 5692              		.loc 1 2209 1 is_stmt 0 view .LVU2023
 5693 0082 03B0     		add	sp, sp, #12
 5694              		.cfi_def_cfa_offset 12
 5695              		@ sp needed
 5696 0084 30BD     		pop	{r4, r5, pc}
 5697              		.loc 1 2209 1 view .LVU2024
 5698              		.cfi_endproc
 5699              	.LFE187:
 5700              		.size	USB_StopHost, .-USB_StopHost
ARM GAS  C:\Users\DEVELO~1\AppData\Local\Temp\cc15HDCU.s 			page 101


 5701 0086 00BF     		.section	.text.USB_ActivateRemoteWakeup,"ax",%progbits
 5702              		.align	1
 5703              		.p2align 4,,15
 5704              		.global	USB_ActivateRemoteWakeup
 5705              		.syntax unified
 5706              		.thumb
 5707              		.thumb_func
 5708              		.type	USB_ActivateRemoteWakeup, %function
 5709              	USB_ActivateRemoteWakeup:
 5710              	.LVL436:
 5711              	.LFB188:
 5712              		.loc 1 2217 1 is_stmt 1 view -0
 5713              		.cfi_startproc
 5714              		@ args = 0, pretend = 0, frame = 0
 5715              		@ frame_needed = 0, uses_anonymous_args = 0
 5716              		@ link register save eliminated.
 5717              		.loc 1 2218 3 view .LVU2026
 5718              		.loc 1 2220 3 view .LVU2027
 5719              		.loc 1 2220 19 is_stmt 0 view .LVU2028
 5720 0000 D0F80838 		ldr	r3, [r0, #2056]
 5721              		.loc 1 2220 8 view .LVU2029
 5722 0004 00F50060 		add	r0, r0, #2048
 5723              	.LVL437:
 5724              		.loc 1 2220 6 view .LVU2030
 5725 0008 DB07     		lsls	r3, r3, #31
 5726 000a 03D5     		bpl	.L476
 5727              		.loc 1 2223 5 is_stmt 1 view .LVU2031
 5728              		.loc 1 2223 23 is_stmt 0 view .LVU2032
 5729 000c 4368     		ldr	r3, [r0, #4]
 5730 000e 43F00103 		orr	r3, r3, #1
 5731 0012 4360     		str	r3, [r0, #4]
 5732              	.L476:
 5733              		.loc 1 2226 3 is_stmt 1 view .LVU2033
 5734              		.loc 1 2227 1 is_stmt 0 view .LVU2034
 5735 0014 0020     		movs	r0, #0
 5736              	.LVL438:
 5737              		.loc 1 2227 1 view .LVU2035
 5738 0016 7047     		bx	lr
 5739              		.cfi_endproc
 5740              	.LFE188:
 5741              		.size	USB_ActivateRemoteWakeup, .-USB_ActivateRemoteWakeup
 5742              		.section	.text.USB_DeActivateRemoteWakeup,"ax",%progbits
 5743              		.align	1
 5744              		.p2align 4,,15
 5745              		.global	USB_DeActivateRemoteWakeup
 5746              		.syntax unified
 5747              		.thumb
 5748              		.thumb_func
 5749              		.type	USB_DeActivateRemoteWakeup, %function
 5750              	USB_DeActivateRemoteWakeup:
 5751              	.LVL439:
 5752              	.LFB189:
 5753              		.loc 1 2235 1 is_stmt 1 view -0
 5754              		.cfi_startproc
 5755              		@ args = 0, pretend = 0, frame = 0
 5756              		@ frame_needed = 0, uses_anonymous_args = 0
 5757              		@ link register save eliminated.
ARM GAS  C:\Users\DEVELO~1\AppData\Local\Temp\cc15HDCU.s 			page 102


 5758              		.loc 1 2236 3 view .LVU2037
 5759              		.loc 1 2235 1 is_stmt 0 view .LVU2038
 5760 0000 0346     		mov	r3, r0
 5761              	.LVL440:
 5762              		.loc 1 2239 3 is_stmt 1 view .LVU2039
 5763              		.loc 1 2242 1 is_stmt 0 view .LVU2040
 5764 0002 0020     		movs	r0, #0
 5765              	.LVL441:
 5766              		.loc 1 2239 21 view .LVU2041
 5767 0004 D3F80428 		ldr	r2, [r3, #2052]
 5768 0008 22F00102 		bic	r2, r2, #1
 5769 000c C3F80428 		str	r2, [r3, #2052]
 5770              		.loc 1 2241 3 is_stmt 1 view .LVU2042
 5771              		.loc 1 2242 1 is_stmt 0 view .LVU2043
 5772 0010 7047     		bx	lr
 5773              		.cfi_endproc
 5774              	.LFE189:
 5775              		.size	USB_DeActivateRemoteWakeup, .-USB_DeActivateRemoteWakeup
 5776 0012 00BF     		.text
 5777              	.Letext0:
 5778              		.file 2 "c:\\chibistudio\\tools\\gnu tools arm embedded\\11.3 2022.08\\arm-none-eabi\\include\\mac
 5779              		.file 3 "c:\\chibistudio\\tools\\gnu tools arm embedded\\11.3 2022.08\\arm-none-eabi\\include\\sys
 5780              		.file 4 "../../../os/common/ext/ARM/CMSIS/Core/Include/cmsis_gcc.h"
 5781              		.file 5 "../../../os/common/ext/ST/STM32H7xx/stm32h743xx.h"
 5782              		.file 6 "./drivers/stm32h7xx-hal-driver/Inc/stm32h7xx_hal_def.h"
 5783              		.file 7 "./drivers/stm32h7xx-hal-driver/Inc/stm32h7xx_ll_usb.h"
 5784              		.file 8 "./drivers/stm32h7xx-hal-driver/Inc/stm32h7xx_hal.h"
 5785              		.section	.debug_info,"",%progbits
 5786              	.Ldebug_info0:
 5787 0000 1C220000 		.4byte	0x221c
 5788 0004 0500     		.2byte	0x5
 5789 0006 01       		.byte	0x1
 5790 0007 04       		.byte	0x4
 5791 0008 00000000 		.4byte	.Ldebug_abbrev0
 5792 000c 2E       		.uleb128 0x2e
 5793 000d D6080000 		.4byte	.LASF264
 5794 0011 1D       		.byte	0x1d
 5795 0012 1B020000 		.4byte	.LASF265
 5796 0016 18050000 		.4byte	.LASF266
 5797 001a 3F000000 		.4byte	.LLRL208
 5798 001e 00000000 		.4byte	0
 5799 0022 00000000 		.4byte	.Ldebug_line0
 5800 0026 0D       		.uleb128 0xd
 5801 0027 04       		.byte	0x4
 5802 0028 07       		.byte	0x7
 5803 0029 BE0A0000 		.4byte	.LASF0
 5804 002d 0D       		.uleb128 0xd
 5805 002e 02       		.byte	0x2
 5806 002f 05       		.byte	0x5
 5807 0030 8C070000 		.4byte	.LASF1
 5808 0034 0D       		.uleb128 0xd
 5809 0035 01       		.byte	0x1
 5810 0036 06       		.byte	0x6
 5811 0037 BF0C0000 		.4byte	.LASF2
 5812 003b 0A       		.uleb128 0xa
 5813 003c 6B0A0000 		.4byte	.LASF4
 5814 0040 02       		.byte	0x2
ARM GAS  C:\Users\DEVELO~1\AppData\Local\Temp\cc15HDCU.s 			page 103


 5815 0041 2B       		.byte	0x2b
 5816 0042 18       		.byte	0x18
 5817 0043 47000000 		.4byte	0x47
 5818 0047 0D       		.uleb128 0xd
 5819 0048 01       		.byte	0x1
 5820 0049 08       		.byte	0x8
 5821 004a BB0B0000 		.4byte	.LASF3
 5822 004e 0A       		.uleb128 0xa
 5823 004f A4030000 		.4byte	.LASF5
 5824 0053 02       		.byte	0x2
 5825 0054 39       		.byte	0x39
 5826 0055 19       		.byte	0x19
 5827 0056 5A000000 		.4byte	0x5a
 5828 005a 0D       		.uleb128 0xd
 5829 005b 02       		.byte	0x2
 5830 005c 07       		.byte	0x7
 5831 005d E40C0000 		.4byte	.LASF6
 5832 0061 0D       		.uleb128 0xd
 5833 0062 04       		.byte	0x4
 5834 0063 05       		.byte	0x5
 5835 0064 DA090000 		.4byte	.LASF7
 5836 0068 0A       		.uleb128 0xa
 5837 0069 C90B0000 		.4byte	.LASF8
 5838 006d 02       		.byte	0x2
 5839 006e 4F       		.byte	0x4f
 5840 006f 19       		.byte	0x19
 5841 0070 74000000 		.4byte	0x74
 5842 0074 0D       		.uleb128 0xd
 5843 0075 04       		.byte	0x4
 5844 0076 07       		.byte	0x7
 5845 0077 3A0B0000 		.4byte	.LASF9
 5846 007b 0D       		.uleb128 0xd
 5847 007c 08       		.byte	0x8
 5848 007d 05       		.byte	0x5
 5849 007e AC060000 		.4byte	.LASF10
 5850 0082 0D       		.uleb128 0xd
 5851 0083 08       		.byte	0x8
 5852 0084 07       		.byte	0x7
 5853 0085 41030000 		.4byte	.LASF11
 5854 0089 2F       		.uleb128 0x2f
 5855 008a 04       		.byte	0x4
 5856 008b 05       		.byte	0x5
 5857 008c 696E7400 		.ascii	"int\000"
 5858 0090 0A       		.uleb128 0xa
 5859 0091 23060000 		.4byte	.LASF12
 5860 0095 03       		.byte	0x3
 5861 0096 18       		.byte	0x18
 5862 0097 13       		.byte	0x13
 5863 0098 3B000000 		.4byte	0x3b
 5864 009c 1F       		.uleb128 0x1f
 5865 009d 90000000 		.4byte	0x90
 5866 00a1 0A       		.uleb128 0xa
 5867 00a2 59080000 		.4byte	.LASF13
 5868 00a6 03       		.byte	0x3
 5869 00a7 24       		.byte	0x24
 5870 00a8 14       		.byte	0x14
 5871 00a9 4E000000 		.4byte	0x4e
ARM GAS  C:\Users\DEVELO~1\AppData\Local\Temp\cc15HDCU.s 			page 104


 5872 00ad 0A       		.uleb128 0xa
 5873 00ae C9020000 		.4byte	.LASF14
 5874 00b2 03       		.byte	0x3
 5875 00b3 30       		.byte	0x30
 5876 00b4 14       		.byte	0x14
 5877 00b5 68000000 		.4byte	0x68
 5878 00b9 27       		.uleb128 0x27
 5879 00ba AD000000 		.4byte	0xad
 5880 00be 28       		.uleb128 0x28
 5881 00bf 750A0000 		.4byte	.LASF15
 5882 00c3 62       		.byte	0x62
 5883 00c4 D3000000 		.4byte	0xd3
 5884 00c8 20       		.uleb128 0x20
 5885 00c9 7600     		.ascii	"v\000"
 5886 00cb 04       		.byte	0x4
 5887 00cc 62       		.byte	0x62
 5888 00cd 2D       		.byte	0x2d
 5889 00ce AD000000 		.4byte	0xad
 5890 00d2 00       		.byte	0
 5891 00d3 28       		.uleb128 0x28
 5892 00d4 B1050000 		.4byte	.LASF16
 5893 00d8 6A       		.byte	0x6a
 5894 00d9 E8000000 		.4byte	0xe8
 5895 00dd 20       		.uleb128 0x20
 5896 00de 7600     		.ascii	"v\000"
 5897 00e0 04       		.byte	0x4
 5898 00e1 6A       		.byte	0x6a
 5899 00e2 2C       		.byte	0x2c
 5900 00e3 AD000000 		.4byte	0xad
 5901 00e7 00       		.byte	0
 5902 00e8 1B       		.uleb128 0x1b
 5903 00e9 AD000000 		.4byte	0xad
 5904 00ed F8000000 		.4byte	0xf8
 5905 00f1 1C       		.uleb128 0x1c
 5906 00f2 26000000 		.4byte	0x26
 5907 00f6 0E       		.byte	0xe
 5908 00f7 00       		.byte	0
 5909 00f8 1B       		.uleb128 0x1b
 5910 00f9 AD000000 		.4byte	0xad
 5911 00fd 08010000 		.4byte	0x108
 5912 0101 1C       		.uleb128 0x1c
 5913 0102 26000000 		.4byte	0x26
 5914 0106 01       		.byte	0x1
 5915 0107 00       		.byte	0
 5916 0108 1B       		.uleb128 0x1b
 5917 0109 AD000000 		.4byte	0xad
 5918 010d 18010000 		.4byte	0x118
 5919 0111 1C       		.uleb128 0x1c
 5920 0112 26000000 		.4byte	0x26
 5921 0116 26       		.byte	0x26
 5922 0117 00       		.byte	0
 5923 0118 30       		.uleb128 0x30
 5924 0119 4001     		.2byte	0x140
 5925 011b 05       		.byte	0x5
 5926 011c 3B07     		.2byte	0x73b
 5927 011e 09       		.byte	0x9
 5928 011f 84020000 		.4byte	0x284
ARM GAS  C:\Users\DEVELO~1\AppData\Local\Temp\cc15HDCU.s 			page 105


 5929 0123 01       		.uleb128 0x1
 5930 0124 D50A0000 		.4byte	.LASF17
 5931 0128 3D07     		.2byte	0x73d
 5932 012a 10       		.byte	0x10
 5933 012b B9000000 		.4byte	0xb9
 5934 012f 00       		.byte	0
 5935 0130 01       		.uleb128 0x1
 5936 0131 400C0000 		.4byte	.LASF18
 5937 0135 3E07     		.2byte	0x73e
 5938 0137 11       		.byte	0x11
 5939 0138 B9000000 		.4byte	0xb9
 5940 013c 04       		.byte	0x4
 5941 013d 01       		.uleb128 0x1
 5942 013e 62080000 		.4byte	.LASF19
 5943 0142 3F07     		.2byte	0x73f
 5944 0144 11       		.byte	0x11
 5945 0145 B9000000 		.4byte	0xb9
 5946 0149 08       		.byte	0x8
 5947 014a 01       		.uleb128 0x1
 5948 014b 1D0D0000 		.4byte	.LASF20
 5949 014f 4007     		.2byte	0x740
 5950 0151 11       		.byte	0x11
 5951 0152 B9000000 		.4byte	0xb9
 5952 0156 0C       		.byte	0xc
 5953 0157 01       		.uleb128 0x1
 5954 0158 09060000 		.4byte	.LASF21
 5955 015c 4107     		.2byte	0x741
 5956 015e 11       		.byte	0x11
 5957 015f B9000000 		.4byte	0xb9
 5958 0163 10       		.byte	0x10
 5959 0164 01       		.uleb128 0x1
 5960 0165 68010000 		.4byte	.LASF22
 5961 0169 4207     		.2byte	0x742
 5962 016b 11       		.byte	0x11
 5963 016c B9000000 		.4byte	0xb9
 5964 0170 14       		.byte	0x14
 5965 0171 01       		.uleb128 0x1
 5966 0172 6A080000 		.4byte	.LASF23
 5967 0176 4307     		.2byte	0x743
 5968 0178 11       		.byte	0x11
 5969 0179 B9000000 		.4byte	0xb9
 5970 017d 18       		.byte	0x18
 5971 017e 01       		.uleb128 0x1
 5972 017f 5C0B0000 		.4byte	.LASF24
 5973 0183 4407     		.2byte	0x744
 5974 0185 11       		.byte	0x11
 5975 0186 B9000000 		.4byte	0xb9
 5976 018a 1C       		.byte	0x1c
 5977 018b 01       		.uleb128 0x1
 5978 018c 540B0000 		.4byte	.LASF25
 5979 0190 4507     		.2byte	0x745
 5980 0192 11       		.byte	0x11
 5981 0193 B9000000 		.4byte	0xb9
 5982 0197 20       		.byte	0x20
 5983 0198 01       		.uleb128 0x1
 5984 0199 61030000 		.4byte	.LASF26
 5985 019d 4607     		.2byte	0x746
ARM GAS  C:\Users\DEVELO~1\AppData\Local\Temp\cc15HDCU.s 			page 106


 5986 019f 11       		.byte	0x11
 5987 01a0 B9000000 		.4byte	0xb9
 5988 01a4 24       		.byte	0x24
 5989 01a5 01       		.uleb128 0x1
 5990 01a6 FF010000 		.4byte	.LASF27
 5991 01aa 4707     		.2byte	0x747
 5992 01ac 11       		.byte	0x11
 5993 01ad B9000000 		.4byte	0xb9
 5994 01b1 28       		.byte	0x28
 5995 01b2 01       		.uleb128 0x1
 5996 01b3 B20B0000 		.4byte	.LASF28
 5997 01b7 4807     		.2byte	0x748
 5998 01b9 11       		.byte	0x11
 5999 01ba B9000000 		.4byte	0xb9
 6000 01be 2C       		.byte	0x2c
 6001 01bf 01       		.uleb128 0x1
 6002 01c0 5E0D0000 		.4byte	.LASF29
 6003 01c4 4907     		.2byte	0x749
 6004 01c6 0C       		.byte	0xc
 6005 01c7 F8000000 		.4byte	0xf8
 6006 01cb 30       		.byte	0x30
 6007 01cc 01       		.uleb128 0x1
 6008 01cd 99010000 		.4byte	.LASF30
 6009 01d1 4A07     		.2byte	0x74a
 6010 01d3 11       		.byte	0x11
 6011 01d4 B9000000 		.4byte	0xb9
 6012 01d8 38       		.byte	0x38
 6013 01d9 31       		.uleb128 0x31
 6014 01da 43494400 		.ascii	"CID\000"
 6015 01de 05       		.byte	0x5
 6016 01df 4B07     		.2byte	0x74b
 6017 01e1 11       		.byte	0x11
 6018 01e2 B9000000 		.4byte	0xb9
 6019 01e6 3C       		.byte	0x3c
 6020 01e7 01       		.uleb128 0x1
 6021 01e8 B3010000 		.4byte	.LASF31
 6022 01ec 4C07     		.2byte	0x74c
 6023 01ee 11       		.byte	0x11
 6024 01ef B9000000 		.4byte	0xb9
 6025 01f3 40       		.byte	0x40
 6026 01f4 01       		.uleb128 0x1
 6027 01f5 5C060000 		.4byte	.LASF32
 6028 01f9 4D07     		.2byte	0x74d
 6029 01fb 11       		.byte	0x11
 6030 01fc B9000000 		.4byte	0xb9
 6031 0200 44       		.byte	0x44
 6032 0201 01       		.uleb128 0x1
 6033 0202 64060000 		.4byte	.LASF33
 6034 0206 4E07     		.2byte	0x74e
 6035 0208 11       		.byte	0x11
 6036 0209 B9000000 		.4byte	0xb9
 6037 020d 48       		.byte	0x48
 6038 020e 01       		.uleb128 0x1
 6039 020f 6C060000 		.4byte	.LASF34
 6040 0213 4F07     		.2byte	0x74f
 6041 0215 11       		.byte	0x11
 6042 0216 B9000000 		.4byte	0xb9
ARM GAS  C:\Users\DEVELO~1\AppData\Local\Temp\cc15HDCU.s 			page 107


 6043 021a 4C       		.byte	0x4c
 6044 021b 01       		.uleb128 0x1
 6045 021c 6A070000 		.4byte	.LASF35
 6046 0220 5007     		.2byte	0x750
 6047 0222 0D       		.byte	0xd
 6048 0223 AD000000 		.4byte	0xad
 6049 0227 50       		.byte	0x50
 6050 0228 01       		.uleb128 0x1
 6051 0229 4F0C0000 		.4byte	.LASF36
 6052 022d 5107     		.2byte	0x751
 6053 022f 11       		.byte	0x11
 6054 0230 B9000000 		.4byte	0xb9
 6055 0234 54       		.byte	0x54
 6056 0235 01       		.uleb128 0x1
 6057 0236 21070000 		.4byte	.LASF37
 6058 023a 5207     		.2byte	0x752
 6059 023c 11       		.byte	0x11
 6060 023d B9000000 		.4byte	0xb9
 6061 0241 58       		.byte	0x58
 6062 0242 01       		.uleb128 0x1
 6063 0243 960A0000 		.4byte	.LASF38
 6064 0247 5307     		.2byte	0x753
 6065 0249 11       		.byte	0x11
 6066 024a B9000000 		.4byte	0xb9
 6067 024e 5C       		.byte	0x5c
 6068 024f 01       		.uleb128 0x1
 6069 0250 2E000000 		.4byte	.LASF39
 6070 0254 5407     		.2byte	0x754
 6071 0256 12       		.byte	0x12
 6072 0257 B9000000 		.4byte	0xb9
 6073 025b 60       		.byte	0x60
 6074 025c 01       		.uleb128 0x1
 6075 025d 46000000 		.4byte	.LASF40
 6076 0261 5507     		.2byte	0x755
 6077 0263 0F       		.byte	0xf
 6078 0264 08010000 		.4byte	0x108
 6079 0268 64       		.byte	0x64
 6080 0269 29       		.uleb128 0x29
 6081 026a 72080000 		.4byte	.LASF41
 6082 026e 5607     		.2byte	0x756
 6083 0270 B9000000 		.4byte	0xb9
 6084 0274 0001     		.2byte	0x100
 6085 0276 29       		.uleb128 0x29
 6086 0277 2F0C0000 		.4byte	.LASF42
 6087 027b 5707     		.2byte	0x757
 6088 027d 94020000 		.4byte	0x294
 6089 0281 0401     		.2byte	0x104
 6090 0283 00       		.byte	0
 6091 0284 1B       		.uleb128 0x1b
 6092 0285 B9000000 		.4byte	0xb9
 6093 0289 94020000 		.4byte	0x294
 6094 028d 1C       		.uleb128 0x1c
 6095 028e 26000000 		.4byte	0x26
 6096 0292 0E       		.byte	0xe
 6097 0293 00       		.byte	0
 6098 0294 27       		.uleb128 0x27
 6099 0295 84020000 		.4byte	0x284
ARM GAS  C:\Users\DEVELO~1\AppData\Local\Temp\cc15HDCU.s 			page 108


 6100 0299 14       		.uleb128 0x14
 6101 029a 77010000 		.4byte	.LASF43
 6102 029e 5807     		.2byte	0x758
 6103 02a0 18010000 		.4byte	0x118
 6104 02a4 1F       		.uleb128 0x1f
 6105 02a5 99020000 		.4byte	0x299
 6106 02a9 18       		.uleb128 0x18
 6107 02aa 88       		.byte	0x88
 6108 02ab 5E07     		.2byte	0x75e
 6109 02ad B6030000 		.4byte	0x3b6
 6110 02b1 01       		.uleb128 0x1
 6111 02b2 6C000000 		.4byte	.LASF44
 6112 02b6 6007     		.2byte	0x760
 6113 02b8 11       		.byte	0x11
 6114 02b9 B9000000 		.4byte	0xb9
 6115 02bd 00       		.byte	0
 6116 02be 01       		.uleb128 0x1
 6117 02bf 590D0000 		.4byte	.LASF45
 6118 02c3 6107     		.2byte	0x761
 6119 02c5 11       		.byte	0x11
 6120 02c6 B9000000 		.4byte	0xb9
 6121 02ca 04       		.byte	0x4
 6122 02cb 01       		.uleb128 0x1
 6123 02cc 48040000 		.4byte	.LASF46
 6124 02d0 6207     		.2byte	0x762
 6125 02d2 11       		.byte	0x11
 6126 02d3 B9000000 		.4byte	0xb9
 6127 02d7 08       		.byte	0x8
 6128 02d8 01       		.uleb128 0x1
 6129 02d9 2F0B0000 		.4byte	.LASF47
 6130 02dd 6307     		.2byte	0x763
 6131 02df 0C       		.byte	0xc
 6132 02e0 AD000000 		.4byte	0xad
 6133 02e4 0C       		.byte	0xc
 6134 02e5 01       		.uleb128 0x1
 6135 02e6 040B0000 		.4byte	.LASF48
 6136 02ea 6407     		.2byte	0x764
 6137 02ec 11       		.byte	0x11
 6138 02ed B9000000 		.4byte	0xb9
 6139 02f1 10       		.byte	0x10
 6140 02f2 01       		.uleb128 0x1
 6141 02f3 70050000 		.4byte	.LASF49
 6142 02f7 6507     		.2byte	0x765
 6143 02f9 11       		.byte	0x11
 6144 02fa B9000000 		.4byte	0xb9
 6145 02fe 14       		.byte	0x14
 6146 02ff 01       		.uleb128 0x1
 6147 0300 DE0C0000 		.4byte	.LASF50
 6148 0304 6607     		.2byte	0x766
 6149 0306 11       		.byte	0x11
 6150 0307 B9000000 		.4byte	0xb9
 6151 030b 18       		.byte	0x18
 6152 030c 01       		.uleb128 0x1
 6153 030d F1060000 		.4byte	.LASF51
 6154 0311 6707     		.2byte	0x767
 6155 0313 11       		.byte	0x11
 6156 0314 B9000000 		.4byte	0xb9
ARM GAS  C:\Users\DEVELO~1\AppData\Local\Temp\cc15HDCU.s 			page 109


 6157 0318 1C       		.byte	0x1c
 6158 0319 01       		.uleb128 0x1
 6159 031a 78050000 		.4byte	.LASF52
 6160 031e 6807     		.2byte	0x768
 6161 0320 0D       		.byte	0xd
 6162 0321 AD000000 		.4byte	0xad
 6163 0325 20       		.byte	0x20
 6164 0326 01       		.uleb128 0x1
 6165 0327 74070000 		.4byte	.LASF53
 6166 032b 6907     		.2byte	0x769
 6167 032d 0C       		.byte	0xc
 6168 032e AD000000 		.4byte	0xad
 6169 0332 24       		.byte	0x24
 6170 0333 01       		.uleb128 0x1
 6171 0334 12020000 		.4byte	.LASF54
 6172 0338 6A07     		.2byte	0x76a
 6173 033a 11       		.byte	0x11
 6174 033b B9000000 		.4byte	0xb9
 6175 033f 28       		.byte	0x28
 6176 0340 01       		.uleb128 0x1
 6177 0341 BC070000 		.4byte	.LASF55
 6178 0345 6B07     		.2byte	0x76b
 6179 0347 11       		.byte	0x11
 6180 0348 B9000000 		.4byte	0xb9
 6181 034c 2C       		.byte	0x2c
 6182 034d 01       		.uleb128 0x1
 6183 034e 050A0000 		.4byte	.LASF56
 6184 0352 6C07     		.2byte	0x76c
 6185 0354 11       		.byte	0x11
 6186 0355 B9000000 		.4byte	0xb9
 6187 0359 30       		.byte	0x30
 6188 035a 01       		.uleb128 0x1
 6189 035b D8020000 		.4byte	.LASF57
 6190 035f 6D07     		.2byte	0x76d
 6191 0361 11       		.byte	0x11
 6192 0362 B9000000 		.4byte	0xb9
 6193 0366 34       		.byte	0x34
 6194 0367 01       		.uleb128 0x1
 6195 0368 FA040000 		.4byte	.LASF58
 6196 036c 6E07     		.2byte	0x76e
 6197 036e 11       		.byte	0x11
 6198 036f B9000000 		.4byte	0xb9
 6199 0373 38       		.byte	0x38
 6200 0374 01       		.uleb128 0x1
 6201 0375 F9030000 		.4byte	.LASF59
 6202 0379 6F07     		.2byte	0x76f
 6203 037b 11       		.byte	0x11
 6204 037c B9000000 		.4byte	0xb9
 6205 0380 3C       		.byte	0x3c
 6206 0381 01       		.uleb128 0x1
 6207 0382 3B000000 		.4byte	.LASF60
 6208 0386 7007     		.2byte	0x770
 6209 0388 0C       		.byte	0xc
 6210 0389 AD000000 		.4byte	0xad
 6211 038d 40       		.byte	0x40
 6212 038e 01       		.uleb128 0x1
 6213 038f B40A0000 		.4byte	.LASF61
ARM GAS  C:\Users\DEVELO~1\AppData\Local\Temp\cc15HDCU.s 			page 110


 6214 0393 7107     		.2byte	0x771
 6215 0395 11       		.byte	0x11
 6216 0396 B9000000 		.4byte	0xb9
 6217 039a 44       		.byte	0x44
 6218 039b 01       		.uleb128 0x1
 6219 039c 51000000 		.4byte	.LASF62
 6220 03a0 7207     		.2byte	0x772
 6221 03a2 0D       		.byte	0xd
 6222 03a3 E8000000 		.4byte	0xe8
 6223 03a7 48       		.byte	0x48
 6224 03a8 01       		.uleb128 0x1
 6225 03a9 89000000 		.4byte	.LASF63
 6226 03ad 7307     		.2byte	0x773
 6227 03af 11       		.byte	0x11
 6228 03b0 B9000000 		.4byte	0xb9
 6229 03b4 84       		.byte	0x84
 6230 03b5 00       		.byte	0
 6231 03b6 14       		.uleb128 0x14
 6232 03b7 98080000 		.4byte	.LASF64
 6233 03bb 7407     		.2byte	0x774
 6234 03bd A9020000 		.4byte	0x2a9
 6235 03c1 18       		.uleb128 0x18
 6236 03c2 20       		.byte	0x20
 6237 03c3 7A07     		.2byte	0x77a
 6238 03c5 32040000 		.4byte	0x432
 6239 03c9 01       		.uleb128 0x1
 6240 03ca FD090000 		.4byte	.LASF65
 6241 03ce 7C07     		.2byte	0x77c
 6242 03d0 11       		.byte	0x11
 6243 03d1 B9000000 		.4byte	0xb9
 6244 03d5 00       		.byte	0
 6245 03d6 01       		.uleb128 0x1
 6246 03d7 DD0A0000 		.4byte	.LASF66
 6247 03db 7D07     		.2byte	0x77d
 6248 03dd 0C       		.byte	0xc
 6249 03de AD000000 		.4byte	0xad
 6250 03e2 04       		.byte	0x4
 6251 03e3 01       		.uleb128 0x1
 6252 03e4 270C0000 		.4byte	.LASF67
 6253 03e8 7E07     		.2byte	0x77e
 6254 03ea 11       		.byte	0x11
 6255 03eb B9000000 		.4byte	0xb9
 6256 03ef 08       		.byte	0x8
 6257 03f0 01       		.uleb128 0x1
 6258 03f1 2F0B0000 		.4byte	.LASF47
 6259 03f5 7F07     		.2byte	0x77f
 6260 03f7 0C       		.byte	0xc
 6261 03f8 AD000000 		.4byte	0xad
 6262 03fc 0C       		.byte	0xc
 6263 03fd 01       		.uleb128 0x1
 6264 03fe 0D000000 		.4byte	.LASF68
 6265 0402 8007     		.2byte	0x780
 6266 0404 11       		.byte	0x11
 6267 0405 B9000000 		.4byte	0xb9
 6268 0409 10       		.byte	0x10
 6269 040a 01       		.uleb128 0x1
 6270 040b 800B0000 		.4byte	.LASF69
ARM GAS  C:\Users\DEVELO~1\AppData\Local\Temp\cc15HDCU.s 			page 111


 6271 040f 8107     		.2byte	0x781
 6272 0411 11       		.byte	0x11
 6273 0412 B9000000 		.4byte	0xb9
 6274 0416 14       		.byte	0x14
 6275 0417 01       		.uleb128 0x1
 6276 0418 0A070000 		.4byte	.LASF70
 6277 041c 8207     		.2byte	0x782
 6278 041e 11       		.byte	0x11
 6279 041f B9000000 		.4byte	0xb9
 6280 0423 18       		.byte	0x18
 6281 0424 01       		.uleb128 0x1
 6282 0425 DA0B0000 		.4byte	.LASF71
 6283 0429 8307     		.2byte	0x783
 6284 042b 0C       		.byte	0xc
 6285 042c AD000000 		.4byte	0xad
 6286 0430 1C       		.byte	0x1c
 6287 0431 00       		.byte	0
 6288 0432 14       		.uleb128 0x14
 6289 0433 BC080000 		.4byte	.LASF72
 6290 0437 8407     		.2byte	0x784
 6291 0439 C1030000 		.4byte	0x3c1
 6292 043d 18       		.uleb128 0x18
 6293 043e 20       		.byte	0x20
 6294 043f 8A07     		.2byte	0x78a
 6295 0441 A1040000 		.4byte	0x4a1
 6296 0445 01       		.uleb128 0x1
 6297 0446 C2060000 		.4byte	.LASF73
 6298 044a 8C07     		.2byte	0x78c
 6299 044c 11       		.byte	0x11
 6300 044d B9000000 		.4byte	0xb9
 6301 0451 00       		.byte	0
 6302 0452 01       		.uleb128 0x1
 6303 0453 DD0A0000 		.4byte	.LASF66
 6304 0457 8D07     		.2byte	0x78d
 6305 0459 0C       		.byte	0xc
 6306 045a AD000000 		.4byte	0xad
 6307 045e 04       		.byte	0x4
 6308 045f 01       		.uleb128 0x1
 6309 0460 BA060000 		.4byte	.LASF74
 6310 0464 8E07     		.2byte	0x78e
 6311 0466 11       		.byte	0x11
 6312 0467 B9000000 		.4byte	0xb9
 6313 046b 08       		.byte	0x8
 6314 046c 01       		.uleb128 0x1
 6315 046d 2F0B0000 		.4byte	.LASF47
 6316 0471 8F07     		.2byte	0x78f
 6317 0473 0C       		.byte	0xc
 6318 0474 AD000000 		.4byte	0xad
 6319 0478 0C       		.byte	0xc
 6320 0479 01       		.uleb128 0x1
 6321 047a 67050000 		.4byte	.LASF75
 6322 047e 9007     		.2byte	0x790
 6323 0480 11       		.byte	0x11
 6324 0481 B9000000 		.4byte	0xb9
 6325 0485 10       		.byte	0x10
 6326 0486 01       		.uleb128 0x1
 6327 0487 01060000 		.4byte	.LASF76
ARM GAS  C:\Users\DEVELO~1\AppData\Local\Temp\cc15HDCU.s 			page 112


 6328 048b 9107     		.2byte	0x791
 6329 048d 11       		.byte	0x11
 6330 048e B9000000 		.4byte	0xb9
 6331 0492 14       		.byte	0x14
 6332 0493 01       		.uleb128 0x1
 6333 0494 DA0B0000 		.4byte	.LASF71
 6334 0498 9207     		.2byte	0x792
 6335 049a 0C       		.byte	0xc
 6336 049b F8000000 		.4byte	0xf8
 6337 049f 18       		.byte	0x18
 6338 04a0 00       		.byte	0
 6339 04a1 14       		.uleb128 0x14
 6340 04a2 C5030000 		.4byte	.LASF77
 6341 04a6 9307     		.2byte	0x793
 6342 04a8 3D040000 		.4byte	0x43d
 6343 04ac 18       		.uleb128 0x18
 6344 04ad 1C       		.byte	0x1c
 6345 04ae 9907     		.2byte	0x799
 6346 04b0 10050000 		.4byte	0x510
 6347 04b4 01       		.uleb128 0x1
 6348 04b5 8A040000 		.4byte	.LASF78
 6349 04b9 9B07     		.2byte	0x79b
 6350 04bb 11       		.byte	0x11
 6351 04bc B9000000 		.4byte	0xb9
 6352 04c0 00       		.byte	0
 6353 04c1 01       		.uleb128 0x1
 6354 04c2 660A0000 		.4byte	.LASF79
 6355 04c6 9C07     		.2byte	0x79c
 6356 04c8 11       		.byte	0x11
 6357 04c9 B9000000 		.4byte	0xb9
 6358 04cd 04       		.byte	0x4
 6359 04ce 01       		.uleb128 0x1
 6360 04cf D40B0000 		.4byte	.LASF80
 6361 04d3 9D07     		.2byte	0x79d
 6362 04d5 11       		.byte	0x11
 6363 04d6 B9000000 		.4byte	0xb9
 6364 04da 08       		.byte	0x8
 6365 04db 01       		.uleb128 0x1
 6366 04dc 14080000 		.4byte	.LASF81
 6367 04e0 9E07     		.2byte	0x79e
 6368 04e2 0C       		.byte	0xc
 6369 04e3 AD000000 		.4byte	0xad
 6370 04e7 0C       		.byte	0xc
 6371 04e8 01       		.uleb128 0x1
 6372 04e9 D8010000 		.4byte	.LASF82
 6373 04ed 9F07     		.2byte	0x79f
 6374 04ef 11       		.byte	0x11
 6375 04f0 B9000000 		.4byte	0xb9
 6376 04f4 10       		.byte	0x10
 6377 04f5 01       		.uleb128 0x1
 6378 04f6 DE060000 		.4byte	.LASF83
 6379 04fa A007     		.2byte	0x7a0
 6380 04fc 11       		.byte	0x11
 6381 04fd B9000000 		.4byte	0xb9
 6382 0501 14       		.byte	0x14
 6383 0502 01       		.uleb128 0x1
 6384 0503 83050000 		.4byte	.LASF84
ARM GAS  C:\Users\DEVELO~1\AppData\Local\Temp\cc15HDCU.s 			page 113


 6385 0507 A107     		.2byte	0x7a1
 6386 0509 11       		.byte	0x11
 6387 050a B9000000 		.4byte	0xb9
 6388 050e 18       		.byte	0x18
 6389 050f 00       		.byte	0
 6390 0510 14       		.uleb128 0x14
 6391 0511 250D0000 		.4byte	.LASF85
 6392 0515 A207     		.2byte	0x7a2
 6393 0517 AC040000 		.4byte	0x4ac
 6394 051b 18       		.uleb128 0x18
 6395 051c 20       		.byte	0x20
 6396 051d A707     		.2byte	0x7a7
 6397 051f 7F050000 		.4byte	0x57f
 6398 0523 01       		.uleb128 0x1
 6399 0524 C0040000 		.4byte	.LASF86
 6400 0528 A907     		.2byte	0x7a9
 6401 052a 11       		.byte	0x11
 6402 052b B9000000 		.4byte	0xb9
 6403 052f 00       		.byte	0
 6404 0530 01       		.uleb128 0x1
 6405 0531 49060000 		.4byte	.LASF87
 6406 0535 AA07     		.2byte	0x7aa
 6407 0537 11       		.byte	0x11
 6408 0538 B9000000 		.4byte	0xb9
 6409 053c 04       		.byte	0x4
 6410 053d 01       		.uleb128 0x1
 6411 053e A6090000 		.4byte	.LASF88
 6412 0542 AB07     		.2byte	0x7ab
 6413 0544 11       		.byte	0x11
 6414 0545 B9000000 		.4byte	0xb9
 6415 0549 08       		.byte	0x8
 6416 054a 01       		.uleb128 0x1
 6417 054b FA060000 		.4byte	.LASF89
 6418 054f AC07     		.2byte	0x7ac
 6419 0551 11       		.byte	0x11
 6420 0552 B9000000 		.4byte	0xb9
 6421 0556 0C       		.byte	0xc
 6422 0557 01       		.uleb128 0x1
 6423 0558 D7000000 		.4byte	.LASF90
 6424 055c AD07     		.2byte	0x7ad
 6425 055e 11       		.byte	0x11
 6426 055f B9000000 		.4byte	0xb9
 6427 0563 10       		.byte	0x10
 6428 0564 01       		.uleb128 0x1
 6429 0565 20080000 		.4byte	.LASF91
 6430 0569 AE07     		.2byte	0x7ae
 6431 056b 11       		.byte	0x11
 6432 056c B9000000 		.4byte	0xb9
 6433 0570 14       		.byte	0x14
 6434 0571 01       		.uleb128 0x1
 6435 0572 58030000 		.4byte	.LASF92
 6436 0576 AF07     		.2byte	0x7af
 6437 0578 0C       		.byte	0xc
 6438 0579 F8000000 		.4byte	0xf8
 6439 057d 18       		.byte	0x18
 6440 057e 00       		.byte	0
 6441 057f 14       		.uleb128 0x14
ARM GAS  C:\Users\DEVELO~1\AppData\Local\Temp\cc15HDCU.s 			page 114


 6442 0580 A5040000 		.4byte	.LASF93
 6443 0584 B007     		.2byte	0x7b0
 6444 0586 1B050000 		.4byte	0x51b
 6445 058a 0D       		.uleb128 0xd
 6446 058b 08       		.byte	0x8
 6447 058c 04       		.byte	0x4
 6448 058d 41080000 		.4byte	.LASF94
 6449 0591 32       		.uleb128 0x32
 6450 0592 04       		.byte	0x4
 6451 0593 0D       		.uleb128 0xd
 6452 0594 01       		.byte	0x1
 6453 0595 08       		.byte	0x8
 6454 0596 8C050000 		.4byte	.LASF95
 6455 059a 0D       		.uleb128 0xd
 6456 059b 04       		.byte	0x4
 6457 059c 04       		.byte	0x4
 6458 059d EE020000 		.4byte	.LASF96
 6459 05a1 0D       		.uleb128 0xd
 6460 05a2 08       		.byte	0x8
 6461 05a3 04       		.byte	0x4
 6462 05a4 480D0000 		.4byte	.LASF97
 6463 05a8 1D       		.uleb128 0x1d
 6464 05a9 47000000 		.4byte	0x47
 6465 05ad 06       		.byte	0x6
 6466 05ae 28       		.byte	0x28
 6467 05af CC050000 		.4byte	0x5cc
 6468 05b3 08       		.uleb128 0x8
 6469 05b4 F2030000 		.4byte	.LASF98
 6470 05b8 00       		.byte	0
 6471 05b9 08       		.uleb128 0x8
 6472 05ba 37030000 		.4byte	.LASF99
 6473 05be 01       		.byte	0x1
 6474 05bf 08       		.uleb128 0x8
 6475 05c0 56010000 		.4byte	.LASF100
 6476 05c4 02       		.byte	0x2
 6477 05c5 08       		.uleb128 0x8
 6478 05c6 8F020000 		.4byte	.LASF101
 6479 05ca 03       		.byte	0x3
 6480 05cb 00       		.byte	0
 6481 05cc 0A       		.uleb128 0xa
 6482 05cd ED070000 		.4byte	.LASF102
 6483 05d1 06       		.byte	0x6
 6484 05d2 2D       		.byte	0x2d
 6485 05d3 03       		.byte	0x3
 6486 05d4 A8050000 		.4byte	0x5a8
 6487 05d8 1D       		.uleb128 0x1d
 6488 05d9 47000000 		.4byte	0x47
 6489 05dd 07       		.byte	0x7
 6490 05de 35       		.byte	0x35
 6491 05df F6050000 		.4byte	0x5f6
 6492 05e3 08       		.uleb128 0x8
 6493 05e4 26080000 		.4byte	.LASF103
 6494 05e8 00       		.byte	0
 6495 05e9 08       		.uleb128 0x8
 6496 05ea AD000000 		.4byte	.LASF104
 6497 05ee 01       		.byte	0x1
 6498 05ef 08       		.uleb128 0x8
ARM GAS  C:\Users\DEVELO~1\AppData\Local\Temp\cc15HDCU.s 			page 115


 6499 05f0 CD050000 		.4byte	.LASF105
 6500 05f4 02       		.byte	0x2
 6501 05f5 00       		.byte	0
 6502 05f6 0A       		.uleb128 0xa
 6503 05f7 FF020000 		.4byte	.LASF106
 6504 05fb 07       		.byte	0x7
 6505 05fc 39       		.byte	0x39
 6506 05fd 03       		.byte	0x3
 6507 05fe D8050000 		.4byte	0x5d8
 6508 0602 1D       		.uleb128 0x1d
 6509 0603 47000000 		.4byte	0x47
 6510 0607 07       		.byte	0x7
 6511 0608 3F       		.byte	0x3f
 6512 0609 32060000 		.4byte	0x632
 6513 060d 08       		.uleb128 0x8
 6514 060e 5F010000 		.4byte	.LASF107
 6515 0612 00       		.byte	0
 6516 0613 08       		.uleb128 0x8
 6517 0614 0D0A0000 		.4byte	.LASF108
 6518 0618 01       		.byte	0x1
 6519 0619 08       		.uleb128 0x8
 6520 061a A1070000 		.4byte	.LASF109
 6521 061e 02       		.byte	0x2
 6522 061f 08       		.uleb128 0x8
 6523 0620 000C0000 		.4byte	.LASF110
 6524 0624 03       		.byte	0x3
 6525 0625 08       		.uleb128 0x8
 6526 0626 0A080000 		.4byte	.LASF111
 6527 062a 04       		.byte	0x4
 6528 062b 08       		.uleb128 0x8
 6529 062c 130D0000 		.4byte	.LASF112
 6530 0630 05       		.byte	0x5
 6531 0631 00       		.byte	0
 6532 0632 0A       		.uleb128 0xa
 6533 0633 F70C0000 		.4byte	.LASF113
 6534 0637 07       		.byte	0x7
 6535 0638 46       		.byte	0x46
 6536 0639 03       		.byte	0x3
 6537 063a 02060000 		.4byte	0x602
 6538 063e 1D       		.uleb128 0x1d
 6539 063f 47000000 		.4byte	0x47
 6540 0643 07       		.byte	0x7
 6541 0644 4C       		.byte	0x4c
 6542 0645 86060000 		.4byte	0x686
 6543 0649 08       		.uleb128 0x8
 6544 064a E0030000 		.4byte	.LASF114
 6545 064e 00       		.byte	0
 6546 064f 08       		.uleb128 0x8
 6547 0650 AB010000 		.4byte	.LASF115
 6548 0654 01       		.byte	0x1
 6549 0655 08       		.uleb128 0x8
 6550 0656 200A0000 		.4byte	.LASF116
 6551 065a 02       		.byte	0x2
 6552 065b 08       		.uleb128 0x8
 6553 065c E50B0000 		.4byte	.LASF117
 6554 0660 03       		.byte	0x3
 6555 0661 08       		.uleb128 0x8
ARM GAS  C:\Users\DEVELO~1\AppData\Local\Temp\cc15HDCU.s 			page 116


 6556 0662 480C0000 		.4byte	.LASF118
 6557 0666 04       		.byte	0x4
 6558 0667 08       		.uleb128 0x8
 6559 0668 D0010000 		.4byte	.LASF119
 6560 066c 05       		.byte	0x5
 6561 066d 08       		.uleb128 0x8
 6562 066e 370C0000 		.4byte	.LASF120
 6563 0672 06       		.byte	0x6
 6564 0673 08       		.uleb128 0x8
 6565 0674 3E060000 		.4byte	.LASF121
 6566 0678 07       		.byte	0x7
 6567 0679 08       		.uleb128 0x8
 6568 067a 16000000 		.4byte	.LASF122
 6569 067e 08       		.byte	0x8
 6570 067f 08       		.uleb128 0x8
 6571 0680 A3050000 		.4byte	.LASF123
 6572 0684 09       		.byte	0x9
 6573 0685 00       		.byte	0
 6574 0686 0A       		.uleb128 0xa
 6575 0687 1C0B0000 		.4byte	.LASF124
 6576 068b 07       		.byte	0x7
 6577 068c 57       		.byte	0x57
 6578 068d 03       		.byte	0x3
 6579 068e 3E060000 		.4byte	0x63e
 6580 0692 21       		.uleb128 0x21
 6581 0693 0D       		.byte	0xd
 6582 0694 5D       		.byte	0x5d
 6583 0695 36070000 		.4byte	0x736
 6584 0699 03       		.uleb128 0x3
 6585 069a 20000000 		.4byte	.LASF125
 6586 069e 5F       		.byte	0x5f
 6587 069f 0B       		.byte	0xb
 6588 06a0 90000000 		.4byte	0x90
 6589 06a4 00       		.byte	0
 6590 06a5 03       		.uleb128 0x3
 6591 06a6 EC0B0000 		.4byte	.LASF126
 6592 06aa 63       		.byte	0x63
 6593 06ab 0B       		.byte	0xb
 6594 06ac 90000000 		.4byte	0x90
 6595 06b0 01       		.byte	0x1
 6596 06b1 03       		.uleb128 0x3
 6597 06b2 1B030000 		.4byte	.LASF127
 6598 06b6 67       		.byte	0x67
 6599 06b7 0B       		.byte	0xb
 6600 06b8 90000000 		.4byte	0x90
 6601 06bc 02       		.byte	0x2
 6602 06bd 03       		.uleb128 0x3
 6603 06be 89020000 		.4byte	.LASF128
 6604 06c2 6A       		.byte	0x6a
 6605 06c3 0B       		.byte	0xb
 6606 06c4 90000000 		.4byte	0x90
 6607 06c8 03       		.byte	0x3
 6608 06c9 03       		.uleb128 0x3
 6609 06ca 11060000 		.4byte	.LASF129
 6610 06ce 6E       		.byte	0x6e
 6611 06cf 0B       		.byte	0xb
 6612 06d0 90000000 		.4byte	0x90
ARM GAS  C:\Users\DEVELO~1\AppData\Local\Temp\cc15HDCU.s 			page 117


 6613 06d4 04       		.byte	0x4
 6614 06d5 03       		.uleb128 0x3
 6615 06d6 96070000 		.4byte	.LASF130
 6616 06da 70       		.byte	0x70
 6617 06db 0B       		.byte	0xb
 6618 06dc 90000000 		.4byte	0x90
 6619 06e0 05       		.byte	0x5
 6620 06e1 03       		.uleb128 0x3
 6621 06e2 36080000 		.4byte	.LASF131
 6622 06e6 73       		.byte	0x73
 6623 06e7 0B       		.byte	0xb
 6624 06e8 90000000 		.4byte	0x90
 6625 06ec 06       		.byte	0x6
 6626 06ed 03       		.uleb128 0x3
 6627 06ee 59070000 		.4byte	.LASF132
 6628 06f2 75       		.byte	0x75
 6629 06f3 0B       		.byte	0xb
 6630 06f4 90000000 		.4byte	0x90
 6631 06f8 07       		.byte	0x7
 6632 06f9 03       		.uleb128 0x3
 6633 06fa E3020000 		.4byte	.LASF133
 6634 06fe 77       		.byte	0x77
 6635 06ff 0B       		.byte	0xb
 6636 0700 90000000 		.4byte	0x90
 6637 0704 08       		.byte	0x8
 6638 0705 03       		.uleb128 0x3
 6639 0706 71000000 		.4byte	.LASF134
 6640 070a 79       		.byte	0x79
 6641 070b 0B       		.byte	0xb
 6642 070c 90000000 		.4byte	0x90
 6643 0710 09       		.byte	0x9
 6644 0711 03       		.uleb128 0x3
 6645 0712 76040000 		.4byte	.LASF135
 6646 0716 7B       		.byte	0x7b
 6647 0717 0B       		.byte	0xb
 6648 0718 90000000 		.4byte	0x90
 6649 071c 0A       		.byte	0xa
 6650 071d 03       		.uleb128 0x3
 6651 071e 0A010000 		.4byte	.LASF136
 6652 0722 7D       		.byte	0x7d
 6653 0723 0B       		.byte	0xb
 6654 0724 90000000 		.4byte	0x90
 6655 0728 0B       		.byte	0xb
 6656 0729 03       		.uleb128 0x3
 6657 072a 91050000 		.4byte	.LASF137
 6658 072e 7F       		.byte	0x7f
 6659 072f 0B       		.byte	0xb
 6660 0730 90000000 		.4byte	0x90
 6661 0734 0C       		.byte	0xc
 6662 0735 00       		.byte	0
 6663 0736 0A       		.uleb128 0xa
 6664 0737 A2020000 		.4byte	.LASF138
 6665 073b 07       		.byte	0x7
 6666 073c 81       		.byte	0x81
 6667 073d 03       		.byte	0x3
 6668 073e 92060000 		.4byte	0x692
 6669 0742 21       		.uleb128 0x21
ARM GAS  C:\Users\DEVELO~1\AppData\Local\Temp\cc15HDCU.s 			page 118


 6670 0743 24       		.byte	0x24
 6671 0744 83       		.byte	0x83
 6672 0745 F2070000 		.4byte	0x7f2
 6673 0749 20       		.uleb128 0x20
 6674 074a 6E756D00 		.ascii	"num\000"
 6675 074e 07       		.byte	0x7
 6676 074f 85       		.byte	0x85
 6677 0750 0D       		.byte	0xd
 6678 0751 90000000 		.4byte	0x90
 6679 0755 03       		.uleb128 0x3
 6680 0756 03050000 		.4byte	.LASF139
 6681 075a 88       		.byte	0x88
 6682 075b 0D       		.byte	0xd
 6683 075c 90000000 		.4byte	0x90
 6684 0760 01       		.byte	0x1
 6685 0761 03       		.uleb128 0x3
 6686 0762 4B0A0000 		.4byte	.LASF140
 6687 0766 8B       		.byte	0x8b
 6688 0767 0D       		.byte	0xd
 6689 0768 90000000 		.4byte	0x90
 6690 076c 02       		.byte	0x2
 6691 076d 03       		.uleb128 0x3
 6692 076e DB070000 		.4byte	.LASF141
 6693 0772 8E       		.byte	0x8e
 6694 0773 0D       		.byte	0xd
 6695 0774 90000000 		.4byte	0x90
 6696 0778 03       		.byte	0x3
 6697 0779 03       		.uleb128 0x3
 6698 077a AD0B0000 		.4byte	.LASF142
 6699 077e 91       		.byte	0x91
 6700 077f 0D       		.byte	0xd
 6701 0780 90000000 		.4byte	0x90
 6702 0784 04       		.byte	0x4
 6703 0785 03       		.uleb128 0x3
 6704 0786 09050000 		.4byte	.LASF143
 6705 078a 94       		.byte	0x94
 6706 078b 0D       		.byte	0xd
 6707 078c 90000000 		.4byte	0x90
 6708 0790 05       		.byte	0x5
 6709 0791 03       		.uleb128 0x3
 6710 0792 160A0000 		.4byte	.LASF144
 6711 0796 97       		.byte	0x97
 6712 0797 0D       		.byte	0xd
 6713 0798 AD000000 		.4byte	0xad
 6714 079c 08       		.byte	0x8
 6715 079d 03       		.uleb128 0x3
 6716 079e 19060000 		.4byte	.LASF145
 6717 07a2 9A       		.byte	0x9a
 6718 07a3 0E       		.byte	0xe
 6719 07a4 F2070000 		.4byte	0x7f2
 6720 07a8 0C       		.byte	0xc
 6721 07a9 03       		.uleb128 0x3
 6722 07aa AC090000 		.4byte	.LASF146
 6723 07ae 9C       		.byte	0x9c
 6724 07af 0D       		.byte	0xd
 6725 07b0 AD000000 		.4byte	0xad
 6726 07b4 10       		.byte	0x10
ARM GAS  C:\Users\DEVELO~1\AppData\Local\Temp\cc15HDCU.s 			page 119


 6727 07b5 03       		.uleb128 0x3
 6728 07b6 730D0000 		.4byte	.LASF147
 6729 07ba 9E       		.byte	0x9e
 6730 07bb 0D       		.byte	0xd
 6731 07bc AD000000 		.4byte	0xad
 6732 07c0 14       		.byte	0x14
 6733 07c1 03       		.uleb128 0x3
 6734 07c2 28070000 		.4byte	.LASF148
 6735 07c6 A0       		.byte	0xa0
 6736 07c7 0D       		.byte	0xd
 6737 07c8 90000000 		.4byte	0x90
 6738 07cc 18       		.byte	0x18
 6739 07cd 03       		.uleb128 0x3
 6740 07ce 69030000 		.4byte	.LASF149
 6741 07d2 A3       		.byte	0xa3
 6742 07d3 0D       		.byte	0xd
 6743 07d4 A1000000 		.4byte	0xa1
 6744 07d8 1A       		.byte	0x1a
 6745 07d9 03       		.uleb128 0x3
 6746 07da 80020000 		.4byte	.LASF150
 6747 07de A6       		.byte	0xa6
 6748 07df 0D       		.byte	0xd
 6749 07e0 AD000000 		.4byte	0xad
 6750 07e4 1C       		.byte	0x1c
 6751 07e5 03       		.uleb128 0x3
 6752 07e6 760B0000 		.4byte	.LASF151
 6753 07ea A8       		.byte	0xa8
 6754 07eb 0D       		.byte	0xd
 6755 07ec AD000000 		.4byte	0xad
 6756 07f0 20       		.byte	0x20
 6757 07f1 00       		.byte	0
 6758 07f2 11       		.uleb128 0x11
 6759 07f3 90000000 		.4byte	0x90
 6760 07f7 0A       		.uleb128 0xa
 6761 07f8 7E070000 		.4byte	.LASF152
 6762 07fc 07       		.byte	0x7
 6763 07fd A9       		.byte	0xa9
 6764 07fe 03       		.byte	0x3
 6765 07ff 42070000 		.4byte	0x742
 6766 0803 21       		.uleb128 0x21
 6767 0804 3C       		.byte	0x3c
 6768 0805 AB       		.byte	0xab
 6769 0806 43090000 		.4byte	0x943
 6770 080a 03       		.uleb128 0x3
 6771 080b F4090000 		.4byte	.LASF153
 6772 080f AD       		.byte	0xad
 6773 0810 0D       		.byte	0xd
 6774 0811 90000000 		.4byte	0x90
 6775 0815 00       		.byte	0
 6776 0816 03       		.uleb128 0x3
 6777 0817 70010000 		.4byte	.LASF154
 6778 081b B0       		.byte	0xb0
 6779 081c 0D       		.byte	0xd
 6780 081d 90000000 		.4byte	0x90
 6781 0821 01       		.byte	0x1
 6782 0822 03       		.uleb128 0x3
 6783 0823 640B0000 		.4byte	.LASF155
ARM GAS  C:\Users\DEVELO~1\AppData\Local\Temp\cc15HDCU.s 			page 120


 6784 0827 B3       		.byte	0xb3
 6785 0828 0D       		.byte	0xd
 6786 0829 90000000 		.4byte	0x90
 6787 082d 02       		.byte	0x2
 6788 082e 03       		.uleb128 0x3
 6789 082f 37070000 		.4byte	.LASF156
 6790 0833 B6       		.byte	0xb6
 6791 0834 0D       		.byte	0xd
 6792 0835 90000000 		.4byte	0x90
 6793 0839 03       		.byte	0x3
 6794 083a 03       		.uleb128 0x3
 6795 083b 89020000 		.4byte	.LASF128
 6796 083f B9       		.byte	0xb9
 6797 0840 0D       		.byte	0xd
 6798 0841 90000000 		.4byte	0x90
 6799 0845 04       		.byte	0x4
 6800 0846 03       		.uleb128 0x3
 6801 0847 0B0D0000 		.4byte	.LASF157
 6802 084b BD       		.byte	0xbd
 6803 084c 0D       		.byte	0xd
 6804 084d 90000000 		.4byte	0x90
 6805 0851 05       		.byte	0x5
 6806 0852 03       		.uleb128 0x3
 6807 0853 690D0000 		.4byte	.LASF158
 6808 0857 BE       		.byte	0xbe
 6809 0858 0D       		.byte	0xd
 6810 0859 90000000 		.4byte	0x90
 6811 085d 06       		.byte	0x6
 6812 085e 03       		.uleb128 0x3
 6813 085f E8030000 		.4byte	.LASF159
 6814 0863 BF       		.byte	0xbf
 6815 0864 0D       		.byte	0xd
 6816 0865 90000000 		.4byte	0x90
 6817 0869 07       		.byte	0x7
 6818 086a 03       		.uleb128 0x3
 6819 086b 9E0B0000 		.4byte	.LASF160
 6820 086f C0       		.byte	0xc0
 6821 0870 0D       		.byte	0xd
 6822 0871 90000000 		.4byte	0x90
 6823 0875 08       		.byte	0x8
 6824 0876 03       		.uleb128 0x3
 6825 0877 E80A0000 		.4byte	.LASF161
 6826 087b C1       		.byte	0xc1
 6827 087c 0D       		.byte	0xd
 6828 087d AD000000 		.4byte	0xad
 6829 0881 0C       		.byte	0xc
 6830 0882 03       		.uleb128 0x3
 6831 0883 00000000 		.4byte	.LASF162
 6832 0887 C3       		.byte	0xc3
 6833 0888 0D       		.byte	0xd
 6834 0889 90000000 		.4byte	0x90
 6835 088d 10       		.byte	0x10
 6836 088e 03       		.uleb128 0x3
 6837 088f 7E0D0000 		.4byte	.LASF163
 6838 0893 C4       		.byte	0xc4
 6839 0894 0D       		.byte	0xd
 6840 0895 90000000 		.4byte	0x90
ARM GAS  C:\Users\DEVELO~1\AppData\Local\Temp\cc15HDCU.s 			page 121


 6841 0899 11       		.byte	0x11
 6842 089a 03       		.uleb128 0x3
 6843 089b A50C0000 		.4byte	.LASF164
 6844 089f C6       		.byte	0xc6
 6845 08a0 0D       		.byte	0xd
 6846 08a1 90000000 		.4byte	0x90
 6847 08a5 12       		.byte	0x12
 6848 08a6 03       		.uleb128 0x3
 6849 08a7 F90A0000 		.4byte	.LASF165
 6850 08ab C9       		.byte	0xc9
 6851 08ac 0D       		.byte	0xd
 6852 08ad A1000000 		.4byte	0xa1
 6853 08b1 14       		.byte	0x14
 6854 08b2 03       		.uleb128 0x3
 6855 08b3 8E060000 		.4byte	.LASF166
 6856 08b7 CC       		.byte	0xcc
 6857 08b8 0D       		.byte	0xd
 6858 08b9 90000000 		.4byte	0x90
 6859 08bd 16       		.byte	0x16
 6860 08be 03       		.uleb128 0x3
 6861 08bf 19060000 		.4byte	.LASF145
 6862 08c3 CF       		.byte	0xcf
 6863 08c4 0E       		.byte	0xe
 6864 08c5 F2070000 		.4byte	0x7f2
 6865 08c9 18       		.byte	0x18
 6866 08ca 03       		.uleb128 0x3
 6867 08cb 8F040000 		.4byte	.LASF167
 6868 08cf D1       		.byte	0xd1
 6869 08d0 0D       		.byte	0xd
 6870 08d1 AD000000 		.4byte	0xad
 6871 08d5 1C       		.byte	0x1c
 6872 08d6 03       		.uleb128 0x3
 6873 08d7 AC090000 		.4byte	.LASF146
 6874 08db D3       		.byte	0xd3
 6875 08dc 0D       		.byte	0xd
 6876 08dd AD000000 		.4byte	0xad
 6877 08e1 20       		.byte	0x20
 6878 08e2 03       		.uleb128 0x3
 6879 08e3 730D0000 		.4byte	.LASF147
 6880 08e7 D5       		.byte	0xd5
 6881 08e8 0D       		.byte	0xd
 6882 08e9 AD000000 		.4byte	0xad
 6883 08ed 24       		.byte	0x24
 6884 08ee 03       		.uleb128 0x3
 6885 08ef CB0A0000 		.4byte	.LASF168
 6886 08f3 D7       		.byte	0xd7
 6887 08f4 0D       		.byte	0xd
 6888 08f5 90000000 		.4byte	0x90
 6889 08f9 28       		.byte	0x28
 6890 08fa 03       		.uleb128 0x3
 6891 08fb F4020000 		.4byte	.LASF169
 6892 08ff DA       		.byte	0xda
 6893 0900 0D       		.byte	0xd
 6894 0901 90000000 		.4byte	0x90
 6895 0905 29       		.byte	0x29
 6896 0906 03       		.uleb128 0x3
 6897 0907 80020000 		.4byte	.LASF150
ARM GAS  C:\Users\DEVELO~1\AppData\Local\Temp\cc15HDCU.s 			page 122


 6898 090b DD       		.byte	0xdd
 6899 090c 0D       		.byte	0xd
 6900 090d AD000000 		.4byte	0xad
 6901 0911 2C       		.byte	0x2c
 6902 0912 03       		.uleb128 0x3
 6903 0913 9B020000 		.4byte	.LASF170
 6904 0917 DF       		.byte	0xdf
 6905 0918 0D       		.byte	0xd
 6906 0919 AD000000 		.4byte	0xad
 6907 091d 30       		.byte	0x30
 6908 091e 03       		.uleb128 0x3
 6909 091f FF070000 		.4byte	.LASF171
 6910 0923 E0       		.byte	0xe0
 6911 0924 0D       		.byte	0xd
 6912 0925 AD000000 		.4byte	0xad
 6913 0929 34       		.byte	0x34
 6914 092a 03       		.uleb128 0x3
 6915 092b B1020000 		.4byte	.LASF172
 6916 092f E2       		.byte	0xe2
 6917 0930 17       		.byte	0x17
 6918 0931 32060000 		.4byte	0x632
 6919 0935 38       		.byte	0x38
 6920 0936 03       		.uleb128 0x3
 6921 0937 210C0000 		.4byte	.LASF173
 6922 093b E5       		.byte	0xe5
 6923 093c 16       		.byte	0x16
 6924 093d 86060000 		.4byte	0x686
 6925 0941 39       		.byte	0x39
 6926 0942 00       		.byte	0
 6927 0943 0A       		.uleb128 0xa
 6928 0944 AE080000 		.4byte	.LASF174
 6929 0948 07       		.byte	0x7
 6930 0949 E7       		.byte	0xe7
 6931 094a 03       		.byte	0x3
 6932 094b 03080000 		.4byte	0x803
 6933 094f 0A       		.uleb128 0xa
 6934 0950 0F040000 		.4byte	.LASF175
 6935 0954 07       		.byte	0x7
 6936 0955 E9       		.byte	0xe9
 6937 0956 1D       		.byte	0x1d
 6938 0957 F6050000 		.4byte	0x5f6
 6939 095b 0A       		.uleb128 0xa
 6940 095c EC010000 		.4byte	.LASF176
 6941 0960 07       		.byte	0x7
 6942 0961 EA       		.byte	0xea
 6943 0962 1D       		.byte	0x1d
 6944 0963 36070000 		.4byte	0x736
 6945 0967 0A       		.uleb128 0xa
 6946 0968 6E020000 		.4byte	.LASF177
 6947 096c 07       		.byte	0x7
 6948 096d EB       		.byte	0xeb
 6949 096e 1D       		.byte	0x1d
 6950 096f F7070000 		.4byte	0x7f7
 6951 0973 1F       		.uleb128 0x1f
 6952 0974 67090000 		.4byte	0x967
 6953 0978 0A       		.uleb128 0xa
 6954 0979 090C0000 		.4byte	.LASF178
ARM GAS  C:\Users\DEVELO~1\AppData\Local\Temp\cc15HDCU.s 			page 123


 6955 097d 07       		.byte	0x7
 6956 097e EE       		.byte	0xee
 6957 097f 1D       		.byte	0x1d
 6958 0980 43090000 		.4byte	0x943
 6959 0984 33       		.uleb128 0x33
 6960 0985 1C010000 		.4byte	.LASF267
 6961 0989 08       		.byte	0x8
 6962 098a 3804     		.2byte	0x438
 6963 098c 06       		.byte	0x6
 6964 098d 97090000 		.4byte	0x997
 6965 0991 34       		.uleb128 0x34
 6966 0992 AD000000 		.4byte	0xad
 6967 0996 00       		.byte	0
 6968 0997 05       		.uleb128 0x5
 6969 0998 2D040000 		.4byte	.LASF179
 6970 099c BA08     		.2byte	0x8ba
 6971 099e 13       		.byte	0x13
 6972 099f CC050000 		.4byte	0x5cc
 6973 09a3 00000000 		.4byte	.LFB189
 6974 09a7 12000000 		.4byte	.LFE189-.LFB189
 6975 09ab 01       		.uleb128 0x1
 6976 09ac 9C       		.byte	0x9c
 6977 09ad DA090000 		.4byte	0x9da
 6978 09b1 04       		.uleb128 0x4
 6979 09b2 870D0000 		.4byte	.LASF181
 6980 09b6 BA08     		.2byte	0x8ba
 6981 09b8 4B       		.byte	0x4b
 6982 09b9 DA090000 		.4byte	0x9da
 6983 09bd 10000000 		.4byte	.LLST206
 6984 09c1 0C000000 		.4byte	.LVUS206
 6985 09c5 02       		.uleb128 0x2
 6986 09c6 23040000 		.4byte	.LASF182
 6987 09ca BC08     		.2byte	0x8bc
 6988 09cc 0C       		.byte	0xc
 6989 09cd AD000000 		.4byte	0xad
 6990 09d1 24000000 		.4byte	.LLST207
 6991 09d5 20000000 		.4byte	.LVUS207
 6992 09d9 00       		.byte	0
 6993 09da 11       		.uleb128 0x11
 6994 09db A4020000 		.4byte	0x2a4
 6995 09df 05       		.uleb128 0x5
 6996 09e0 40070000 		.4byte	.LASF180
 6997 09e4 A808     		.2byte	0x8a8
 6998 09e6 13       		.byte	0x13
 6999 09e7 CC050000 		.4byte	0x5cc
 7000 09eb 00000000 		.4byte	.LFB188
 7001 09ef 18000000 		.4byte	.LFE188-.LFB188
 7002 09f3 01       		.uleb128 0x1
 7003 09f4 9C       		.byte	0x9c
 7004 09f5 220A0000 		.4byte	0xa22
 7005 09f9 04       		.uleb128 0x4
 7006 09fa 870D0000 		.4byte	.LASF181
 7007 09fe A808     		.2byte	0x8a8
 7008 0a00 49       		.byte	0x49
 7009 0a01 DA090000 		.4byte	0x9da
 7010 0a05 3A000000 		.4byte	.LLST204
 7011 0a09 34000000 		.4byte	.LVUS204
ARM GAS  C:\Users\DEVELO~1\AppData\Local\Temp\cc15HDCU.s 			page 124


 7012 0a0d 02       		.uleb128 0x2
 7013 0a0e 23040000 		.4byte	.LASF182
 7014 0a12 AA08     		.2byte	0x8aa
 7015 0a14 0C       		.byte	0xc
 7016 0a15 AD000000 		.4byte	0xad
 7017 0a19 5B000000 		.4byte	.LLST205
 7018 0a1d 55000000 		.4byte	.LVUS205
 7019 0a21 00       		.byte	0
 7020 0a22 05       		.uleb128 0x5
 7021 0a23 F4050000 		.4byte	.LASF183
 7022 0a27 6708     		.2byte	0x867
 7023 0a29 13       		.byte	0x13
 7024 0a2a CC050000 		.4byte	0x5cc
 7025 0a2e 00000000 		.4byte	.LFB187
 7026 0a32 86000000 		.4byte	.LFE187-.LFB187
 7027 0a36 01       		.uleb128 0x1
 7028 0a37 9C       		.byte	0x9c
 7029 0a38 260B0000 		.4byte	0xb26
 7030 0a3c 04       		.uleb128 0x4
 7031 0a3d 870D0000 		.4byte	.LASF181
 7032 0a41 6708     		.2byte	0x867
 7033 0a43 37       		.byte	0x37
 7034 0a44 260B0000 		.4byte	0xb26
 7035 0a48 7A000000 		.4byte	.LLST197
 7036 0a4c 76000000 		.4byte	.LVUS197
 7037 0a50 0E       		.uleb128 0xe
 7038 0a51 72657400 		.ascii	"ret\000"
 7039 0a55 6908     		.2byte	0x869
 7040 0a57 15       		.byte	0x15
 7041 0a58 CC050000 		.4byte	0x5cc
 7042 0a5c 91000000 		.4byte	.LLST198
 7043 0a60 8B000000 		.4byte	.LVUS198
 7044 0a64 02       		.uleb128 0x2
 7045 0a65 23040000 		.4byte	.LASF182
 7046 0a69 6A08     		.2byte	0x86a
 7047 0a6b 0C       		.byte	0xc
 7048 0a6c AD000000 		.4byte	0xad
 7049 0a70 B2000000 		.4byte	.LLST199
 7050 0a74 AE000000 		.4byte	.LVUS199
 7051 0a78 0F       		.uleb128 0xf
 7052 0a79 0F030000 		.4byte	.LASF191
 7053 0a7d 6B08     		.2byte	0x86b
 7054 0a7f B9000000 		.4byte	0xb9
 7055 0a83 02       		.uleb128 0x2
 7056 0a84 91       		.byte	0x91
 7057 0a85 6C       		.sleb128 -20
 7058 0a86 02       		.uleb128 0x2
 7059 0a87 02040000 		.4byte	.LASF184
 7060 0a8b 6C08     		.2byte	0x86c
 7061 0a8d 0C       		.byte	0xc
 7062 0a8e AD000000 		.4byte	0xad
 7063 0a92 D2000000 		.4byte	.LLST200
 7064 0a96 C2000000 		.4byte	.LVUS200
 7065 0a9a 0E       		.uleb128 0xe
 7066 0a9b 6900     		.ascii	"i\000"
 7067 0a9d 6D08     		.2byte	0x86d
 7068 0a9f 0C       		.byte	0xc
ARM GAS  C:\Users\DEVELO~1\AppData\Local\Temp\cc15HDCU.s 			page 125


 7069 0aa0 AD000000 		.4byte	0xad
 7070 0aa4 21010000 		.4byte	.LLST201
 7071 0aa8 1F010000 		.4byte	.LVUS201
 7072 0aac 12       		.uleb128 0x12
 7073 0aad 671F0000 		.4byte	0x1f67
 7074 0ab1 0C000000 		.4byte	.LBI52
 7075 0ab5 0300     		.2byte	.LVU1968
 7076 0ab7 0C000000 		.4byte	.LBB52
 7077 0abb 08000000 		.4byte	.LBE52-.LBB52
 7078 0abf 6F08     		.2byte	0x86f
 7079 0ac1 09       		.byte	0x9
 7080 0ac2 D40A0000 		.4byte	0xad4
 7081 0ac6 06       		.uleb128 0x6
 7082 0ac7 751F0000 		.4byte	0x1f75
 7083 0acb 2D010000 		.4byte	.LLST202
 7084 0acf 2B010000 		.4byte	.LVUS202
 7085 0ad3 00       		.byte	0
 7086 0ad4 12       		.uleb128 0x12
 7087 0ad5 811F0000 		.4byte	0x1f81
 7088 0ad9 7A000000 		.4byte	.LBI54
 7089 0add 0100     		.2byte	.LVU2017
 7090 0adf 7A000000 		.4byte	.LBB54
 7091 0ae3 08000000 		.4byte	.LBE54-.LBB54
 7092 0ae7 9E08     		.2byte	0x89e
 7093 0ae9 09       		.byte	0x9
 7094 0aea FC0A0000 		.4byte	0xafc
 7095 0aee 06       		.uleb128 0x6
 7096 0aef 8F1F0000 		.4byte	0x1f8f
 7097 0af3 38010000 		.4byte	.LLST203
 7098 0af7 36010000 		.4byte	.LVUS203
 7099 0afb 00       		.byte	0
 7100 0afc 13       		.uleb128 0x13
 7101 0afd 18000000 		.4byte	.LVL422
 7102 0b01 EE1C0000 		.4byte	0x1cee
 7103 0b05 150B0000 		.4byte	0xb15
 7104 0b09 09       		.uleb128 0x9
 7105 0b0a 01       		.uleb128 0x1
 7106 0b0b 50       		.byte	0x50
 7107 0b0c 02       		.uleb128 0x2
 7108 0b0d 74       		.byte	0x74
 7109 0b0e 00       		.sleb128 0
 7110 0b0f 09       		.uleb128 0x9
 7111 0b10 01       		.uleb128 0x1
 7112 0b11 51       		.byte	0x51
 7113 0b12 01       		.uleb128 0x1
 7114 0b13 40       		.byte	0x40
 7115 0b14 00       		.byte	0
 7116 0b15 15       		.uleb128 0x15
 7117 0b16 24000000 		.4byte	.LVL424
 7118 0b1a B11C0000 		.4byte	0x1cb1
 7119 0b1e 09       		.uleb128 0x9
 7120 0b1f 01       		.uleb128 0x1
 7121 0b20 50       		.byte	0x50
 7122 0b21 02       		.uleb128 0x2
 7123 0b22 74       		.byte	0x74
 7124 0b23 00       		.sleb128 0
 7125 0b24 00       		.byte	0
ARM GAS  C:\Users\DEVELO~1\AppData\Local\Temp\cc15HDCU.s 			page 126


 7126 0b25 00       		.byte	0
 7127 0b26 11       		.uleb128 0x11
 7128 0b27 99020000 		.4byte	0x299
 7129 0b2b 19       		.uleb128 0x19
 7130 0b2c 6B0B0000 		.4byte	.LASF207
 7131 0b30 4F08     		.2byte	0x84f
 7132 0b32 13       		.byte	0x13
 7133 0b33 CC050000 		.4byte	0x5cc
 7134 0b37 840B0000 		.4byte	0xb84
 7135 0b3b 10       		.uleb128 0x10
 7136 0b3c 870D0000 		.4byte	.LASF181
 7137 0b40 4F08     		.2byte	0x84f
 7138 0b42 3B       		.byte	0x3b
 7139 0b43 DA090000 		.4byte	0x9da
 7140 0b47 10       		.uleb128 0x10
 7141 0b48 70010000 		.4byte	.LASF154
 7142 0b4c 4F08     		.2byte	0x84f
 7143 0b4e 49       		.byte	0x49
 7144 0b4f 90000000 		.4byte	0x90
 7145 0b53 0B       		.uleb128 0xb
 7146 0b54 23040000 		.4byte	.LASF182
 7147 0b58 5108     		.2byte	0x851
 7148 0b5a 0C       		.byte	0xc
 7149 0b5b AD000000 		.4byte	0xad
 7150 0b5f 0B       		.uleb128 0xb
 7151 0b60 FA0B0000 		.4byte	.LASF185
 7152 0b64 5208     		.2byte	0x852
 7153 0b66 0C       		.byte	0xc
 7154 0b67 AD000000 		.4byte	0xad
 7155 0b6b 0B       		.uleb128 0xb
 7156 0b6c 50060000 		.4byte	.LASF186
 7157 0b70 5308     		.2byte	0x853
 7158 0b72 0C       		.byte	0xc
 7159 0b73 AD000000 		.4byte	0xad
 7160 0b77 0B       		.uleb128 0xb
 7161 0b78 6F040000 		.4byte	.LASF187
 7162 0b7c 5408     		.2byte	0x854
 7163 0b7e 0C       		.byte	0xc
 7164 0b7f AD000000 		.4byte	0xad
 7165 0b83 00       		.byte	0
 7166 0b84 05       		.uleb128 0x5
 7167 0b85 3D010000 		.4byte	.LASF188
 7168 0b89 FB07     		.2byte	0x7fb
 7169 0b8b 13       		.byte	0x13
 7170 0b8c CC050000 		.4byte	0x5cc
 7171 0b90 00000000 		.4byte	.LFB185
 7172 0b94 F2000000 		.4byte	.LFE185-.LFB185
 7173 0b98 01       		.uleb128 0x1
 7174 0b99 9C       		.byte	0x9c
 7175 0b9a 310C0000 		.4byte	0xc31
 7176 0b9e 04       		.uleb128 0x4
 7177 0b9f 870D0000 		.4byte	.LASF181
 7178 0ba3 FB07     		.2byte	0x7fb
 7179 0ba5 3C       		.byte	0x3c
 7180 0ba6 DA090000 		.4byte	0x9da
 7181 0baa 4D010000 		.4byte	.LLST186
 7182 0bae 41010000 		.4byte	.LVUS186
ARM GAS  C:\Users\DEVELO~1\AppData\Local\Temp\cc15HDCU.s 			page 127


 7183 0bb2 04       		.uleb128 0x4
 7184 0bb3 E0010000 		.4byte	.LASF189
 7185 0bb7 FB07     		.2byte	0x7fb
 7186 0bb9 4A       		.byte	0x4a
 7187 0bba 90000000 		.4byte	0x90
 7188 0bbe 85010000 		.4byte	.LLST187
 7189 0bc2 81010000 		.4byte	.LVUS187
 7190 0bc6 02       		.uleb128 0x2
 7191 0bc7 23040000 		.4byte	.LASF182
 7192 0bcb FD07     		.2byte	0x7fd
 7193 0bcd 0C       		.byte	0xc
 7194 0bce AD000000 		.4byte	0xad
 7195 0bd2 A5010000 		.4byte	.LLST188
 7196 0bd6 99010000 		.4byte	.LVUS188
 7197 0bda 0B       		.uleb128 0xb
 7198 0bdb 15030000 		.4byte	.LASF190
 7199 0bdf FE07     		.2byte	0x7fe
 7200 0be1 0C       		.byte	0xc
 7201 0be2 AD000000 		.4byte	0xad
 7202 0be6 0F       		.uleb128 0xf
 7203 0be7 0F030000 		.4byte	.LASF191
 7204 0beb FF07     		.2byte	0x7ff
 7205 0bed B9000000 		.4byte	0xb9
 7206 0bf1 02       		.uleb128 0x2
 7207 0bf2 91       		.byte	0x91
 7208 0bf3 74       		.sleb128 -12
 7209 0bf4 02       		.uleb128 0x2
 7210 0bf5 2B060000 		.4byte	.LASF192
 7211 0bf9 0008     		.2byte	0x800
 7212 0bfb 0C       		.byte	0xc
 7213 0bfc AD000000 		.4byte	0xad
 7214 0c00 DD010000 		.4byte	.LLST189
 7215 0c04 D9010000 		.4byte	.LVUS189
 7216 0c08 02       		.uleb128 0x2
 7217 0c09 910D0000 		.4byte	.LASF193
 7218 0c0d 0108     		.2byte	0x801
 7219 0c0f 0C       		.byte	0xc
 7220 0c10 AD000000 		.4byte	0xad
 7221 0c14 FB010000 		.4byte	.LLST190
 7222 0c18 F5010000 		.4byte	.LVUS190
 7223 0c1c 02       		.uleb128 0x2
 7224 0c1d 74060000 		.4byte	.LASF194
 7225 0c21 0208     		.2byte	0x802
 7226 0c23 0C       		.byte	0xc
 7227 0c24 AD000000 		.4byte	0xad
 7228 0c28 23020000 		.4byte	.LLST191
 7229 0c2c 1F020000 		.4byte	.LVUS191
 7230 0c30 00       		.byte	0
 7231 0c31 05       		.uleb128 0x5
 7232 0c32 900C0000 		.4byte	.LASF195
 7233 0c36 ED07     		.2byte	0x7ed
 7234 0c38 0A       		.byte	0xa
 7235 0c39 AD000000 		.4byte	0xad
 7236 0c3d 00000000 		.4byte	.LFB184
 7237 0c41 08000000 		.4byte	.LFE184-.LFB184
 7238 0c45 01       		.uleb128 0x1
 7239 0c46 9C       		.byte	0x9c
ARM GAS  C:\Users\DEVELO~1\AppData\Local\Temp\cc15HDCU.s 			page 128


 7240 0c47 740C0000 		.4byte	0xc74
 7241 0c4b 04       		.uleb128 0x4
 7242 0c4c 870D0000 		.4byte	.LASF181
 7243 0c50 ED07     		.2byte	0x7ed
 7244 0c52 3C       		.byte	0x3c
 7245 0c53 DA090000 		.4byte	0x9da
 7246 0c57 3F020000 		.4byte	.LLST184
 7247 0c5b 3B020000 		.4byte	.LVUS184
 7248 0c5f 02       		.uleb128 0x2
 7249 0c60 23040000 		.4byte	.LASF182
 7250 0c64 EF07     		.2byte	0x7ef
 7251 0c66 0C       		.byte	0xc
 7252 0c67 AD000000 		.4byte	0xad
 7253 0c6b 56020000 		.4byte	.LLST185
 7254 0c6f 52020000 		.4byte	.LVUS185
 7255 0c73 00       		.byte	0
 7256 0c74 05       		.uleb128 0x5
 7257 0c75 3A0A0000 		.4byte	.LASF196
 7258 0c79 EB06     		.2byte	0x6eb
 7259 0c7b 13       		.byte	0x13
 7260 0c7c CC050000 		.4byte	0x5cc
 7261 0c80 00000000 		.4byte	.LFB183
 7262 0c84 E4020000 		.4byte	.LFE183-.LFB183
 7263 0c88 01       		.uleb128 0x1
 7264 0c89 9C       		.byte	0x9c
 7265 0c8a 350E0000 		.4byte	0xe35
 7266 0c8e 04       		.uleb128 0x4
 7267 0c8f 870D0000 		.4byte	.LASF181
 7268 0c93 EB06     		.2byte	0x6eb
 7269 0c95 3B       		.byte	0x3b
 7270 0c96 260B0000 		.4byte	0xb26
 7271 0c9a 73020000 		.4byte	.LLST161
 7272 0c9e 69020000 		.4byte	.LVUS161
 7273 0ca2 0C       		.uleb128 0xc
 7274 0ca3 686300   		.ascii	"hc\000"
 7275 0ca6 EB06     		.2byte	0x6eb
 7276 0ca8 54       		.byte	0x54
 7277 0ca9 350E0000 		.4byte	0xe35
 7278 0cad AB020000 		.4byte	.LLST162
 7279 0cb1 A1020000 		.4byte	.LVUS162
 7280 0cb5 0C       		.uleb128 0xc
 7281 0cb6 646D6100 		.ascii	"dma\000"
 7282 0cba EB06     		.2byte	0x6eb
 7283 0cbc 60       		.byte	0x60
 7284 0cbd 90000000 		.4byte	0x90
 7285 0cc1 EB020000 		.4byte	.LLST163
 7286 0cc5 D9020000 		.4byte	.LVUS163
 7287 0cc9 02       		.uleb128 0x2
 7288 0cca 23040000 		.4byte	.LASF182
 7289 0cce ED06     		.2byte	0x6ed
 7290 0cd0 0C       		.byte	0xc
 7291 0cd1 AD000000 		.4byte	0xad
 7292 0cd5 45030000 		.4byte	.LLST164
 7293 0cd9 3B030000 		.4byte	.LVUS164
 7294 0cdd 02       		.uleb128 0x2
 7295 0cde 70010000 		.4byte	.LASF154
 7296 0ce2 EE06     		.2byte	0x6ee
ARM GAS  C:\Users\DEVELO~1\AppData\Local\Temp\cc15HDCU.s 			page 129


 7297 0ce4 0C       		.byte	0xc
 7298 0ce5 AD000000 		.4byte	0xad
 7299 0ce9 7D030000 		.4byte	.LLST165
 7300 0ced 73030000 		.4byte	.LVUS165
 7301 0cf1 0F       		.uleb128 0xf
 7302 0cf2 6F040000 		.4byte	.LASF187
 7303 0cf6 EF06     		.2byte	0x6ef
 7304 0cf8 B9000000 		.4byte	0xb9
 7305 0cfc 02       		.uleb128 0x2
 7306 0cfd 91       		.byte	0x91
 7307 0cfe 64       		.sleb128 -28
 7308 0cff 02       		.uleb128 0x2
 7309 0d00 8B090000 		.4byte	.LASF197
 7310 0d04 F006     		.2byte	0x6f0
 7311 0d06 0C       		.byte	0xc
 7312 0d07 90000000 		.4byte	0x90
 7313 0d0b B0030000 		.4byte	.LLST166
 7314 0d0f AC030000 		.4byte	.LVUS166
 7315 0d13 02       		.uleb128 0x2
 7316 0d14 4F0D0000 		.4byte	.LASF198
 7317 0d18 F106     		.2byte	0x6f1
 7318 0d1a 0C       		.byte	0xc
 7319 0d1b A1000000 		.4byte	0xa1
 7320 0d1f CD030000 		.4byte	.LLST167
 7321 0d23 C9030000 		.4byte	.LVUS167
 7322 0d27 02       		.uleb128 0x2
 7323 0d28 50060000 		.4byte	.LASF186
 7324 0d2c F206     		.2byte	0x6f2
 7325 0d2e 0C       		.byte	0xc
 7326 0d2f A1000000 		.4byte	0xa1
 7327 0d33 F1030000 		.4byte	.LLST168
 7328 0d37 E5030000 		.4byte	.LVUS168
 7329 0d3b 35       		.uleb128 0x35
 7330 0d3c 7D060000 		.4byte	.LASF199
 7331 0d40 01       		.byte	0x1
 7332 0d41 F306     		.2byte	0x6f3
 7333 0d43 0C       		.byte	0xc
 7334 0d44 A1000000 		.4byte	0xa1
 7335 0d48 0001     		.2byte	0x100
 7336 0d4a 36       		.uleb128 0x36
 7337 0d4b 2B0B0000 		.4byte	0xb2b
 7338 0d4f E4010000 		.4byte	.LBI44
 7339 0d53 0100     		.2byte	.LVU1729
 7340 0d55 27000000 		.4byte	.LLRL169
 7341 0d59 01       		.byte	0x1
 7342 0d5a 0407     		.2byte	0x704
 7343 0d5c 0D       		.byte	0xd
 7344 0d5d B60D0000 		.4byte	0xdb6
 7345 0d61 06       		.uleb128 0x6
 7346 0d62 470B0000 		.4byte	0xb47
 7347 0d66 4F040000 		.4byte	.LLST170
 7348 0d6a 4D040000 		.4byte	.LVUS170
 7349 0d6e 06       		.uleb128 0x6
 7350 0d6f 3B0B0000 		.4byte	0xb3b
 7351 0d73 5D040000 		.4byte	.LLST171
 7352 0d77 59040000 		.4byte	.LVUS171
 7353 0d7b 1E       		.uleb128 0x1e
ARM GAS  C:\Users\DEVELO~1\AppData\Local\Temp\cc15HDCU.s 			page 130


 7354 0d7c 27000000 		.4byte	.LLRL169
 7355 0d80 07       		.uleb128 0x7
 7356 0d81 530B0000 		.4byte	0xb53
 7357 0d85 74040000 		.4byte	.LLST172
 7358 0d89 70040000 		.4byte	.LVUS172
 7359 0d8d 07       		.uleb128 0x7
 7360 0d8e 5F0B0000 		.4byte	0xb5f
 7361 0d92 8B040000 		.4byte	.LLST173
 7362 0d96 87040000 		.4byte	.LVUS173
 7363 0d9a 07       		.uleb128 0x7
 7364 0d9b 6B0B0000 		.4byte	0xb6b
 7365 0d9f A4040000 		.4byte	.LLST174
 7366 0da3 A2040000 		.4byte	.LVUS174
 7367 0da7 07       		.uleb128 0x7
 7368 0da8 770B0000 		.4byte	0xb77
 7369 0dac B0040000 		.4byte	.LLST175
 7370 0db0 AE040000 		.4byte	.LVUS175
 7371 0db4 00       		.byte	0
 7372 0db5 00       		.byte	0
 7373 0db6 22       		.uleb128 0x22
 7374 0db7 58180000 		.4byte	0x1858
 7375 0dbb 1E020000 		.4byte	.LBI48
 7376 0dbf 0000     		.2byte	.LVU1761
 7377 0dc1 33000000 		.4byte	.LLRL176
 7378 0dc5 E207     		.2byte	0x7e2
 7379 0dc7 0B       		.byte	0xb
 7380 0dc8 06       		.uleb128 0x6
 7381 0dc9 98180000 		.4byte	0x1898
 7382 0dcd BB040000 		.4byte	.LLST177
 7383 0dd1 B9040000 		.4byte	.LVUS177
 7384 0dd5 23       		.uleb128 0x23
 7385 0dd6 8C180000 		.4byte	0x188c
 7386 0dda 23       		.uleb128 0x23
 7387 0ddb 80180000 		.4byte	0x1880
 7388 0ddf 06       		.uleb128 0x6
 7389 0de0 74180000 		.4byte	0x1874
 7390 0de4 C9040000 		.4byte	.LLST178
 7391 0de8 C5040000 		.4byte	.LVUS178
 7392 0dec 06       		.uleb128 0x6
 7393 0ded 68180000 		.4byte	0x1868
 7394 0df1 DF040000 		.4byte	.LLST179
 7395 0df5 DD040000 		.4byte	.LVUS179
 7396 0df9 1E       		.uleb128 0x1e
 7397 0dfa 33000000 		.4byte	.LLRL176
 7398 0dfe 07       		.uleb128 0x7
 7399 0dff A4180000 		.4byte	0x18a4
 7400 0e03 EA040000 		.4byte	.LLST180
 7401 0e07 E8040000 		.4byte	.LVUS180
 7402 0e0b 07       		.uleb128 0x7
 7403 0e0c B0180000 		.4byte	0x18b0
 7404 0e10 FF040000 		.4byte	.LLST181
 7405 0e14 F3040000 		.4byte	.LVUS181
 7406 0e18 07       		.uleb128 0x7
 7407 0e19 BC180000 		.4byte	0x18bc
 7408 0e1d 2F050000 		.4byte	.LLST182
 7409 0e21 2B050000 		.4byte	.LVUS182
 7410 0e25 07       		.uleb128 0x7
ARM GAS  C:\Users\DEVELO~1\AppData\Local\Temp\cc15HDCU.s 			page 131


 7411 0e26 C8180000 		.4byte	0x18c8
 7412 0e2a 45050000 		.4byte	.LLST183
 7413 0e2e 43050000 		.4byte	.LVUS183
 7414 0e32 00       		.byte	0
 7415 0e33 00       		.byte	0
 7416 0e34 00       		.byte	0
 7417 0e35 11       		.uleb128 0x11
 7418 0e36 78090000 		.4byte	0x978
 7419 0e3a 05       		.uleb128 0x5
 7420 0e3b 4D080000 		.4byte	.LASF200
 7421 0e3f 6C06     		.2byte	0x66c
 7422 0e41 13       		.byte	0x13
 7423 0e42 CC050000 		.4byte	0x5cc
 7424 0e46 00000000 		.4byte	.LFB182
 7425 0e4a 3E010000 		.4byte	.LFE182-.LFB182
 7426 0e4e 01       		.uleb128 0x1
 7427 0e4f 9C       		.byte	0x9c
 7428 0e50 780F0000 		.4byte	0xf78
 7429 0e54 04       		.uleb128 0x4
 7430 0e55 870D0000 		.4byte	.LASF181
 7431 0e59 6C06     		.2byte	0x66c
 7432 0e5b 36       		.byte	0x36
 7433 0e5c 260B0000 		.4byte	0xb26
 7434 0e60 53050000 		.4byte	.LLST147
 7435 0e64 4F050000 		.4byte	.LVUS147
 7436 0e68 04       		.uleb128 0x4
 7437 0e69 70010000 		.4byte	.LASF154
 7438 0e6d 6C06     		.2byte	0x66c
 7439 0e6f 44       		.byte	0x44
 7440 0e70 90000000 		.4byte	0x90
 7441 0e74 6A050000 		.4byte	.LLST148
 7442 0e78 64050000 		.4byte	.LVUS148
 7443 0e7c 04       		.uleb128 0x4
 7444 0e7d 0C0B0000 		.4byte	.LASF201
 7445 0e81 6D06     		.2byte	0x66d
 7446 0e83 27       		.byte	0x27
 7447 0e84 90000000 		.4byte	0x90
 7448 0e88 8D050000 		.4byte	.LLST149
 7449 0e8c 87050000 		.4byte	.LVUS149
 7450 0e90 04       		.uleb128 0x4
 7451 0e91 9F010000 		.4byte	.LASF202
 7452 0e95 6D06     		.2byte	0x66d
 7453 0e97 36       		.byte	0x36
 7454 0e98 90000000 		.4byte	0x90
 7455 0e9c AE050000 		.4byte	.LLST150
 7456 0ea0 AA050000 		.4byte	.LVUS150
 7457 0ea4 04       		.uleb128 0x4
 7458 0ea5 89020000 		.4byte	.LASF128
 7459 0ea9 6D06     		.2byte	0x66d
 7460 0eab 4B       		.byte	0x4b
 7461 0eac 90000000 		.4byte	0x90
 7462 0eb0 CC050000 		.4byte	.LLST151
 7463 0eb4 C2050000 		.4byte	.LVUS151
 7464 0eb8 04       		.uleb128 0x4
 7465 0eb9 A50C0000 		.4byte	.LASF164
 7466 0ebd 6E06     		.2byte	0x66e
 7467 0ebf 27       		.byte	0x27
ARM GAS  C:\Users\DEVELO~1\AppData\Local\Temp\cc15HDCU.s 			page 132


 7468 0ec0 90000000 		.4byte	0x90
 7469 0ec4 00060000 		.4byte	.LLST152
 7470 0ec8 F6050000 		.4byte	.LVUS152
 7471 0ecc 0C       		.uleb128 0xc
 7472 0ecd 6D707300 		.ascii	"mps\000"
 7473 0ed1 6E06     		.2byte	0x66e
 7474 0ed3 39       		.byte	0x39
 7475 0ed4 A1000000 		.4byte	0xa1
 7476 0ed8 2E060000 		.4byte	.LLST153
 7477 0edc 2A060000 		.4byte	.LVUS153
 7478 0ee0 0E       		.uleb128 0xe
 7479 0ee1 72657400 		.ascii	"ret\000"
 7480 0ee5 7006     		.2byte	0x670
 7481 0ee7 15       		.byte	0x15
 7482 0ee8 CC050000 		.4byte	0x5cc
 7483 0eec 49060000 		.4byte	.LLST154
 7484 0ef0 43060000 		.4byte	.LVUS154
 7485 0ef4 02       		.uleb128 0x2
 7486 0ef5 23040000 		.4byte	.LASF182
 7487 0ef9 7106     		.2byte	0x671
 7488 0efb 0C       		.byte	0xc
 7489 0efc AD000000 		.4byte	0xad
 7490 0f00 67060000 		.4byte	.LLST155
 7491 0f04 63060000 		.4byte	.LVUS155
 7492 0f08 0B       		.uleb128 0xb
 7493 0f09 8D010000 		.4byte	.LASF203
 7494 0f0d 7206     		.2byte	0x672
 7495 0f0f 0C       		.byte	0xc
 7496 0f10 AD000000 		.4byte	0xad
 7497 0f14 02       		.uleb128 0x2
 7498 0f15 97090000 		.4byte	.LASF204
 7499 0f19 7306     		.2byte	0x673
 7500 0f1b 0C       		.byte	0xc
 7501 0f1c AD000000 		.4byte	0xad
 7502 0f20 7A060000 		.4byte	.LLST156
 7503 0f24 78060000 		.4byte	.LVUS156
 7504 0f28 02       		.uleb128 0x2
 7505 0f29 BB020000 		.4byte	.LASF205
 7506 0f2d 7406     		.2byte	0x674
 7507 0f2f 0C       		.byte	0xc
 7508 0f30 AD000000 		.4byte	0xad
 7509 0f34 9A060000 		.4byte	.LLST157
 7510 0f38 98060000 		.4byte	.LVUS157
 7511 0f3c 22       		.uleb128 0x22
 7512 0f3d BB0F0000 		.4byte	0xfbb
 7513 0f41 B6000000 		.4byte	.LBI40
 7514 0f45 0200     		.2byte	.LVU1506
 7515 0f47 1B000000 		.4byte	.LLRL158
 7516 0f4b C706     		.2byte	0x6c7
 7517 0f4d 13       		.byte	0x13
 7518 0f4e 06       		.uleb128 0x6
 7519 0f4f CB0F0000 		.4byte	0xfcb
 7520 0f53 AB060000 		.4byte	.LLST159
 7521 0f57 A9060000 		.4byte	.LVUS159
 7522 0f5b 1E       		.uleb128 0x1e
 7523 0f5c 1B000000 		.4byte	.LLRL158
 7524 0f60 07       		.uleb128 0x7
ARM GAS  C:\Users\DEVELO~1\AppData\Local\Temp\cc15HDCU.s 			page 133


 7525 0f61 D70F0000 		.4byte	0xfd7
 7526 0f65 B6060000 		.4byte	.LLST160
 7527 0f69 B4060000 		.4byte	.LVUS160
 7528 0f6d 2A       		.uleb128 0x2a
 7529 0f6e E30F0000 		.4byte	0xfe3
 7530 0f72 02       		.uleb128 0x2
 7531 0f73 91       		.byte	0x91
 7532 0f74 5C       		.sleb128 -36
 7533 0f75 00       		.byte	0
 7534 0f76 00       		.byte	0
 7535 0f77 00       		.byte	0
 7536 0f78 05       		.uleb128 0x5
 7537 0f79 C7070000 		.4byte	.LASF206
 7538 0f7d 4D06     		.2byte	0x64d
 7539 0f7f 0A       		.byte	0xa
 7540 0f80 AD000000 		.4byte	0xad
 7541 0f84 00000000 		.4byte	.LFB181
 7542 0f88 08000000 		.4byte	.LFE181-.LFB181
 7543 0f8c 01       		.uleb128 0x1
 7544 0f8d 9C       		.byte	0x9c
 7545 0f8e BB0F0000 		.4byte	0xfbb
 7546 0f92 04       		.uleb128 0x4
 7547 0f93 870D0000 		.4byte	.LASF181
 7548 0f97 4D06     		.2byte	0x64d
 7549 0f99 3B       		.byte	0x3b
 7550 0f9a DA090000 		.4byte	0x9da
 7551 0f9e C3060000 		.4byte	.LLST145
 7552 0fa2 BF060000 		.4byte	.LVUS145
 7553 0fa6 02       		.uleb128 0x2
 7554 0fa7 23040000 		.4byte	.LASF182
 7555 0fab 4F06     		.2byte	0x64f
 7556 0fad 0C       		.byte	0xc
 7557 0fae AD000000 		.4byte	0xad
 7558 0fb2 DA060000 		.4byte	.LLST146
 7559 0fb6 D6060000 		.4byte	.LVUS146
 7560 0fba 00       		.byte	0
 7561 0fbb 19       		.uleb128 0x19
 7562 0fbc 87080000 		.4byte	.LASF208
 7563 0fc0 3F06     		.2byte	0x63f
 7564 0fc2 0A       		.byte	0xa
 7565 0fc3 AD000000 		.4byte	0xad
 7566 0fc7 F00F0000 		.4byte	0xff0
 7567 0fcb 10       		.uleb128 0x10
 7568 0fcc 870D0000 		.4byte	.LASF181
 7569 0fd0 3F06     		.2byte	0x63f
 7570 0fd2 38       		.byte	0x38
 7571 0fd3 DA090000 		.4byte	0x9da
 7572 0fd7 0B       		.uleb128 0xb
 7573 0fd8 23040000 		.4byte	.LASF182
 7574 0fdc 4106     		.2byte	0x641
 7575 0fde 0C       		.byte	0xc
 7576 0fdf AD000000 		.4byte	0xad
 7577 0fe3 0B       		.uleb128 0xb
 7578 0fe4 D2020000 		.4byte	.LASF209
 7579 0fe8 4206     		.2byte	0x642
 7580 0fea 11       		.byte	0x11
 7581 0feb B9000000 		.4byte	0xb9
ARM GAS  C:\Users\DEVELO~1\AppData\Local\Temp\cc15HDCU.s 			page 134


 7582 0fef 00       		.byte	0
 7583 0ff0 05       		.uleb128 0x5
 7584 0ff1 AE070000 		.4byte	.LASF210
 7585 0ff5 2106     		.2byte	0x621
 7586 0ff7 13       		.byte	0x13
 7587 0ff8 CC050000 		.4byte	0x5cc
 7588 0ffc 00000000 		.4byte	.LFB179
 7589 1000 4E000000 		.4byte	.LFE179-.LFB179
 7590 1004 01       		.uleb128 0x1
 7591 1005 9C       		.byte	0x9c
 7592 1006 4F100000 		.4byte	0x104f
 7593 100a 04       		.uleb128 0x4
 7594 100b 870D0000 		.4byte	.LASF181
 7595 100f 2106     		.2byte	0x621
 7596 1011 3E       		.byte	0x3e
 7597 1012 DA090000 		.4byte	0x9da
 7598 1016 F9060000 		.4byte	.LLST141
 7599 101a ED060000 		.4byte	.LVUS141
 7600 101e 1A       		.uleb128 0x1a
 7601 101f 210C0000 		.4byte	.LASF173
 7602 1023 2106     		.2byte	0x621
 7603 1025 4C       		.byte	0x4c
 7604 1026 90000000 		.4byte	0x90
 7605 102a 01       		.uleb128 0x1
 7606 102b 51       		.byte	0x51
 7607 102c 02       		.uleb128 0x2
 7608 102d 23040000 		.4byte	.LASF182
 7609 1031 2306     		.2byte	0x623
 7610 1033 0C       		.byte	0xc
 7611 1034 AD000000 		.4byte	0xad
 7612 1038 32070000 		.4byte	.LLST142
 7613 103c 26070000 		.4byte	.LVUS142
 7614 1040 0F       		.uleb128 0xf
 7615 1041 D2020000 		.4byte	.LASF209
 7616 1045 2406     		.2byte	0x624
 7617 1047 B9000000 		.4byte	0xb9
 7618 104b 02       		.uleb128 0x2
 7619 104c 91       		.byte	0x91
 7620 104d 7C       		.sleb128 -4
 7621 104e 00       		.byte	0
 7622 104f 05       		.uleb128 0x5
 7623 1050 BF050000 		.4byte	.LASF211
 7624 1054 0606     		.2byte	0x606
 7625 1056 13       		.byte	0x13
 7626 1057 CC050000 		.4byte	0x5cc
 7627 105b 00000000 		.4byte	.LFB178
 7628 105f 3E000000 		.4byte	.LFE178-.LFB178
 7629 1063 01       		.uleb128 0x1
 7630 1064 9C       		.byte	0x9c
 7631 1065 C3100000 		.4byte	0x10c3
 7632 1069 04       		.uleb128 0x4
 7633 106a 870D0000 		.4byte	.LASF181
 7634 106e 0606     		.2byte	0x606
 7635 1070 3E       		.byte	0x3e
 7636 1071 DA090000 		.4byte	0x9da
 7637 1075 63070000 		.4byte	.LLST139
 7638 1079 5F070000 		.4byte	.LVUS139
ARM GAS  C:\Users\DEVELO~1\AppData\Local\Temp\cc15HDCU.s 			page 135


 7639 107d 02       		.uleb128 0x2
 7640 107e 23040000 		.4byte	.LASF182
 7641 1082 0806     		.2byte	0x608
 7642 1084 0C       		.byte	0xc
 7643 1085 AD000000 		.4byte	0xad
 7644 1089 75070000 		.4byte	.LLST140
 7645 108d 73070000 		.4byte	.LVUS140
 7646 1091 0F       		.uleb128 0xf
 7647 1092 D2020000 		.4byte	.LASF209
 7648 1096 0A06     		.2byte	0x60a
 7649 1098 B9000000 		.4byte	0xb9
 7650 109c 02       		.uleb128 0x2
 7651 109d 91       		.byte	0x91
 7652 109e 6C       		.sleb128 -20
 7653 109f 13       		.uleb128 0x13
 7654 10a0 28000000 		.4byte	.LVL319
 7655 10a4 84090000 		.4byte	0x984
 7656 10a8 B3100000 		.4byte	0x10b3
 7657 10ac 09       		.uleb128 0x9
 7658 10ad 01       		.uleb128 0x1
 7659 10ae 50       		.byte	0x50
 7660 10af 02       		.uleb128 0x2
 7661 10b0 08       		.byte	0x8
 7662 10b1 64       		.byte	0x64
 7663 10b2 00       		.byte	0
 7664 10b3 15       		.uleb128 0x15
 7665 10b4 38000000 		.4byte	.LVL320
 7666 10b8 84090000 		.4byte	0x984
 7667 10bc 09       		.uleb128 0x9
 7668 10bd 01       		.uleb128 0x1
 7669 10be 50       		.byte	0x50
 7670 10bf 01       		.uleb128 0x1
 7671 10c0 3A       		.byte	0x3a
 7672 10c1 00       		.byte	0
 7673 10c2 00       		.byte	0
 7674 10c3 05       		.uleb128 0x5
 7675 10c4 CA060000 		.4byte	.LASF212
 7676 10c8 E805     		.2byte	0x5e8
 7677 10ca 13       		.byte	0x13
 7678 10cb CC050000 		.4byte	0x5cc
 7679 10cf 00000000 		.4byte	.LFB177
 7680 10d3 44000000 		.4byte	.LFE177-.LFB177
 7681 10d7 01       		.uleb128 0x1
 7682 10d8 9C       		.byte	0x9c
 7683 10d9 14110000 		.4byte	0x1114
 7684 10dd 04       		.uleb128 0x4
 7685 10de 870D0000 		.4byte	.LASF181
 7686 10e2 E805     		.2byte	0x5e8
 7687 10e4 44       		.byte	0x44
 7688 10e5 DA090000 		.4byte	0x9da
 7689 10e9 8A070000 		.4byte	.LLST137
 7690 10ed 7E070000 		.4byte	.LVUS137
 7691 10f1 1A       		.uleb128 0x1a
 7692 10f2 E5040000 		.4byte	.LASF213
 7693 10f6 E805     		.2byte	0x5e8
 7694 10f8 52       		.byte	0x52
 7695 10f9 90000000 		.4byte	0x90
ARM GAS  C:\Users\DEVELO~1\AppData\Local\Temp\cc15HDCU.s 			page 136


 7696 10fd 01       		.uleb128 0x1
 7697 10fe 51       		.byte	0x51
 7698 10ff 02       		.uleb128 0x2
 7699 1100 23040000 		.4byte	.LASF182
 7700 1104 EA05     		.2byte	0x5ea
 7701 1106 0C       		.byte	0xc
 7702 1107 AD000000 		.4byte	0xad
 7703 110b C3070000 		.4byte	.LLST138
 7704 110f B7070000 		.4byte	.LVUS138
 7705 1113 00       		.byte	0
 7706 1114 05       		.uleb128 0x5
 7707 1115 E4060000 		.4byte	.LASF214
 7708 1119 9105     		.2byte	0x591
 7709 111b 13       		.byte	0x13
 7710 111c CC050000 		.4byte	0x5cc
 7711 1120 00000000 		.4byte	.LFB176
 7712 1124 C8000000 		.4byte	.LFE176-.LFB176
 7713 1128 01       		.uleb128 0x1
 7714 1129 9C       		.byte	0x9c
 7715 112a BA110000 		.4byte	0x11ba
 7716 112e 04       		.uleb128 0x4
 7717 112f 870D0000 		.4byte	.LASF181
 7718 1133 9105     		.2byte	0x591
 7719 1135 37       		.byte	0x37
 7720 1136 260B0000 		.4byte	0xb26
 7721 113a F8070000 		.4byte	.LLST132
 7722 113e F0070000 		.4byte	.LVUS132
 7723 1142 0C       		.uleb128 0xc
 7724 1143 63666700 		.ascii	"cfg\000"
 7725 1147 9105     		.2byte	0x591
 7726 1149 50       		.byte	0x50
 7727 114a 5B090000 		.4byte	0x95b
 7728 114e 1E080000 		.4byte	.LLST133
 7729 1152 1A080000 		.4byte	.LVUS133
 7730 1156 0E       		.uleb128 0xe
 7731 1157 72657400 		.ascii	"ret\000"
 7732 115b 9305     		.2byte	0x593
 7733 115d 15       		.byte	0x15
 7734 115e CC050000 		.4byte	0x5cc
 7735 1162 45080000 		.4byte	.LLST134
 7736 1166 3D080000 		.4byte	.LVUS134
 7737 116a 02       		.uleb128 0x2
 7738 116b 23040000 		.4byte	.LASF182
 7739 116f 9405     		.2byte	0x594
 7740 1171 0C       		.byte	0xc
 7741 1172 AD000000 		.4byte	0xad
 7742 1176 72080000 		.4byte	.LLST135
 7743 117a 6A080000 		.4byte	.LVUS135
 7744 117e 0E       		.uleb128 0xe
 7745 117f 6900     		.ascii	"i\000"
 7746 1181 9505     		.2byte	0x595
 7747 1183 0C       		.byte	0xc
 7748 1184 AD000000 		.4byte	0xad
 7749 1188 9C080000 		.4byte	.LLST136
 7750 118c 94080000 		.4byte	.LVUS136
 7751 1190 13       		.uleb128 0x13
 7752 1191 48000000 		.4byte	.LVL301
ARM GAS  C:\Users\DEVELO~1\AppData\Local\Temp\cc15HDCU.s 			page 137


 7753 1195 EE1C0000 		.4byte	0x1cee
 7754 1199 A9110000 		.4byte	0x11a9
 7755 119d 09       		.uleb128 0x9
 7756 119e 01       		.uleb128 0x1
 7757 119f 50       		.byte	0x50
 7758 11a0 02       		.uleb128 0x2
 7759 11a1 74       		.byte	0x74
 7760 11a2 00       		.sleb128 0
 7761 11a3 09       		.uleb128 0x9
 7762 11a4 01       		.uleb128 0x1
 7763 11a5 51       		.byte	0x51
 7764 11a6 01       		.uleb128 0x1
 7765 11a7 40       		.byte	0x40
 7766 11a8 00       		.byte	0
 7767 11a9 15       		.uleb128 0x15
 7768 11aa 50000000 		.4byte	.LVL303
 7769 11ae B11C0000 		.4byte	0x1cb1
 7770 11b2 09       		.uleb128 0x9
 7771 11b3 01       		.uleb128 0x1
 7772 11b4 50       		.byte	0x50
 7773 11b5 02       		.uleb128 0x2
 7774 11b6 74       		.byte	0x74
 7775 11b7 00       		.sleb128 0
 7776 11b8 00       		.byte	0
 7777 11b9 00       		.byte	0
 7778 11ba 37       		.uleb128 0x37
 7779 11bb 570C0000 		.4byte	.LASF268
 7780 11bf 01       		.byte	0x1
 7781 11c0 6905     		.2byte	0x569
 7782 11c2 1A       		.byte	0x1a
 7783 11c3 CC050000 		.4byte	0x5cc
 7784 11c7 00000000 		.4byte	.LFB175
 7785 11cb 4E000000 		.4byte	.LFE175-.LFB175
 7786 11cf 01       		.uleb128 0x1
 7787 11d0 9C       		.byte	0x9c
 7788 11d1 F8110000 		.4byte	0x11f8
 7789 11d5 04       		.uleb128 0x4
 7790 11d6 870D0000 		.4byte	.LASF181
 7791 11da 6905     		.2byte	0x569
 7792 11dc 3F       		.byte	0x3f
 7793 11dd 260B0000 		.4byte	0xb26
 7794 11e1 C1080000 		.4byte	.LLST0
 7795 11e5 B9080000 		.4byte	.LVUS0
 7796 11e9 0F       		.uleb128 0xf
 7797 11ea 0F030000 		.4byte	.LASF191
 7798 11ee 6B05     		.2byte	0x56b
 7799 11f0 B9000000 		.4byte	0xb9
 7800 11f4 02       		.uleb128 0x2
 7801 11f5 91       		.byte	0x91
 7802 11f6 7C       		.sleb128 -4
 7803 11f7 00       		.byte	0
 7804 11f8 05       		.uleb128 0x5
 7805 11f9 26030000 		.4byte	.LASF215
 7806 11fd 4805     		.2byte	0x548
 7807 11ff 13       		.byte	0x13
 7808 1200 CC050000 		.4byte	0x5cc
 7809 1204 00000000 		.4byte	.LFB174
ARM GAS  C:\Users\DEVELO~1\AppData\Local\Temp\cc15HDCU.s 			page 138


 7810 1208 54000000 		.4byte	.LFE174-.LFB174
 7811 120c 01       		.uleb128 0x1
 7812 120d 9C       		.byte	0x9c
 7813 120e 6B120000 		.4byte	0x126b
 7814 1212 04       		.uleb128 0x4
 7815 1213 870D0000 		.4byte	.LASF181
 7816 1217 4805     		.2byte	0x548
 7817 1219 41       		.byte	0x41
 7818 121a DA090000 		.4byte	0x9da
 7819 121e EB080000 		.4byte	.LLST129
 7820 1222 E1080000 		.4byte	.LVUS129
 7821 1226 24       		.uleb128 0x24
 7822 1227 646D6100 		.ascii	"dma\000"
 7823 122b 4805     		.2byte	0x548
 7824 122d 4F       		.byte	0x4f
 7825 122e 90000000 		.4byte	0x90
 7826 1232 01       		.uleb128 0x1
 7827 1233 51       		.byte	0x51
 7828 1234 1A       		.uleb128 0x1a
 7829 1235 08040000 		.4byte	.LASF216
 7830 1239 4805     		.2byte	0x548
 7831 123b 63       		.byte	0x63
 7832 123c 6B120000 		.4byte	0x126b
 7833 1240 01       		.uleb128 0x1
 7834 1241 52       		.byte	0x52
 7835 1242 02       		.uleb128 0x2
 7836 1243 23040000 		.4byte	.LASF182
 7837 1247 4A05     		.2byte	0x54a
 7838 1249 0C       		.byte	0xc
 7839 124a AD000000 		.4byte	0xad
 7840 124e 1D090000 		.4byte	.LLST130
 7841 1252 13090000 		.4byte	.LVUS130
 7842 1256 02       		.uleb128 0x2
 7843 1257 DE000000 		.4byte	.LASF217
 7844 125b 4B05     		.2byte	0x54b
 7845 125d 0C       		.byte	0xc
 7846 125e AD000000 		.4byte	0xad
 7847 1262 49090000 		.4byte	.LLST131
 7848 1266 45090000 		.4byte	.LVUS131
 7849 126a 00       		.byte	0
 7850 126b 11       		.uleb128 0x11
 7851 126c 9C000000 		.4byte	0x9c
 7852 1270 05       		.uleb128 0x5
 7853 1271 540A0000 		.4byte	.LASF218
 7854 1275 3205     		.2byte	0x532
 7855 1277 13       		.byte	0x13
 7856 1278 CC050000 		.4byte	0x5cc
 7857 127c 00000000 		.4byte	.LFB173
 7858 1280 28000000 		.4byte	.LFE173-.LFB173
 7859 1284 01       		.uleb128 0x1
 7860 1285 9C       		.byte	0x9c
 7861 1286 B3120000 		.4byte	0x12b3
 7862 128a 04       		.uleb128 0x4
 7863 128b 870D0000 		.4byte	.LASF181
 7864 128f 3205     		.2byte	0x532
 7865 1291 42       		.byte	0x42
 7866 1292 DA090000 		.4byte	0x9da
ARM GAS  C:\Users\DEVELO~1\AppData\Local\Temp\cc15HDCU.s 			page 139


 7867 1296 5F090000 		.4byte	.LLST127
 7868 129a 59090000 		.4byte	.LVUS127
 7869 129e 02       		.uleb128 0x2
 7870 129f 23040000 		.4byte	.LASF182
 7871 12a3 3405     		.2byte	0x534
 7872 12a5 0C       		.byte	0xc
 7873 12a6 AD000000 		.4byte	0xad
 7874 12aa 7B090000 		.4byte	.LLST128
 7875 12ae 77090000 		.4byte	.LVUS128
 7876 12b2 00       		.byte	0
 7877 12b3 19       		.uleb128 0x19
 7878 12b4 7B080000 		.4byte	.LASF219
 7879 12b8 2805     		.2byte	0x528
 7880 12ba 0A       		.byte	0xa
 7881 12bb AD000000 		.4byte	0xad
 7882 12bf D0120000 		.4byte	0x12d0
 7883 12c3 10       		.uleb128 0x10
 7884 12c4 870D0000 		.4byte	.LASF181
 7885 12c8 2805     		.2byte	0x528
 7886 12ca 33       		.byte	0x33
 7887 12cb DA090000 		.4byte	0x9da
 7888 12cf 00       		.byte	0
 7889 12d0 38       		.uleb128 0x38
 7890 12d1 F6000000 		.4byte	.LASF269
 7891 12d5 01       		.byte	0x1
 7892 12d6 1B05     		.2byte	0x51b
 7893 12d8 07       		.byte	0x7
 7894 12d9 00000000 		.4byte	.LFB171
 7895 12dd 08000000 		.4byte	.LFE171-.LFB171
 7896 12e1 01       		.uleb128 0x1
 7897 12e2 9C       		.byte	0x9c
 7898 12e3 04130000 		.4byte	0x1304
 7899 12e7 1A       		.uleb128 0x1a
 7900 12e8 870D0000 		.4byte	.LASF181
 7901 12ec 1B05     		.2byte	0x51b
 7902 12ee 32       		.byte	0x32
 7903 12ef 260B0000 		.4byte	0xb26
 7904 12f3 01       		.uleb128 0x1
 7905 12f4 50       		.byte	0x50
 7906 12f5 1A       		.uleb128 0x1a
 7907 12f6 120B0000 		.4byte	.LASF220
 7908 12fa 1B05     		.2byte	0x51b
 7909 12fc 41       		.byte	0x41
 7910 12fd AD000000 		.4byte	0xad
 7911 1301 01       		.uleb128 0x1
 7912 1302 51       		.byte	0x51
 7913 1303 00       		.byte	0
 7914 1304 05       		.uleb128 0x5
 7915 1305 94000000 		.4byte	.LASF221
 7916 1309 0605     		.2byte	0x506
 7917 130b 0A       		.byte	0xa
 7918 130c AD000000 		.4byte	0xad
 7919 1310 00000000 		.4byte	.LFB170
 7920 1314 20000000 		.4byte	.LFE170-.LFB170
 7921 1318 01       		.uleb128 0x1
 7922 1319 9C       		.byte	0x9c
 7923 131a 8F130000 		.4byte	0x138f
ARM GAS  C:\Users\DEVELO~1\AppData\Local\Temp\cc15HDCU.s 			page 140


 7924 131e 04       		.uleb128 0x4
 7925 131f 870D0000 		.4byte	.LASF181
 7926 1323 0605     		.2byte	0x506
 7927 1325 40       		.byte	0x40
 7928 1326 DA090000 		.4byte	0x9da
 7929 132a 92090000 		.4byte	.LLST121
 7930 132e 8E090000 		.4byte	.LVUS121
 7931 1332 04       		.uleb128 0x4
 7932 1333 0C0B0000 		.4byte	.LASF201
 7933 1337 0605     		.2byte	0x506
 7934 1339 4E       		.byte	0x4e
 7935 133a 90000000 		.4byte	0x90
 7936 133e A9090000 		.4byte	.LLST122
 7937 1342 A5090000 		.4byte	.LVUS122
 7938 1346 02       		.uleb128 0x2
 7939 1347 23040000 		.4byte	.LASF182
 7940 134b 0805     		.2byte	0x508
 7941 134d 0C       		.byte	0xc
 7942 134e AD000000 		.4byte	0xad
 7943 1352 C0090000 		.4byte	.LLST123
 7944 1356 BC090000 		.4byte	.LVUS123
 7945 135a 0B       		.uleb128 0xb
 7946 135b 6F040000 		.4byte	.LASF187
 7947 135f 0905     		.2byte	0x509
 7948 1361 0C       		.byte	0xc
 7949 1362 AD000000 		.4byte	0xad
 7950 1366 0E       		.uleb128 0xe
 7951 1367 6D736B00 		.ascii	"msk\000"
 7952 136b 0A05     		.2byte	0x50a
 7953 136d 0C       		.byte	0xc
 7954 136e AD000000 		.4byte	0xad
 7955 1372 D9090000 		.4byte	.LLST124
 7956 1376 D3090000 		.4byte	.LVUS124
 7957 137a 0E       		.uleb128 0xe
 7958 137b 656D7000 		.ascii	"emp\000"
 7959 137f 0B05     		.2byte	0x50b
 7960 1381 0C       		.byte	0xc
 7961 1382 AD000000 		.4byte	0xad
 7962 1386 150A0000 		.4byte	.LLST125
 7963 138a 130A0000 		.4byte	.LVUS125
 7964 138e 00       		.byte	0
 7965 138f 05       		.uleb128 0x5
 7966 1390 DA050000 		.4byte	.LASF222
 7967 1394 F404     		.2byte	0x4f4
 7968 1396 0A       		.byte	0xa
 7969 1397 AD000000 		.4byte	0xad
 7970 139b 00000000 		.4byte	.LFB169
 7971 139f 12000000 		.4byte	.LFE169-.LFB169
 7972 13a3 01       		.uleb128 0x1
 7973 13a4 9C       		.byte	0x9c
 7974 13a5 FA130000 		.4byte	0x13fa
 7975 13a9 04       		.uleb128 0x4
 7976 13aa 870D0000 		.4byte	.LASF181
 7977 13ae F404     		.2byte	0x4f4
 7978 13b0 41       		.byte	0x41
 7979 13b1 DA090000 		.4byte	0x9da
 7980 13b5 240A0000 		.4byte	.LLST117
ARM GAS  C:\Users\DEVELO~1\AppData\Local\Temp\cc15HDCU.s 			page 141


 7981 13b9 1E0A0000 		.4byte	.LVUS117
 7982 13bd 04       		.uleb128 0x4
 7983 13be 0C0B0000 		.4byte	.LASF201
 7984 13c2 F404     		.2byte	0x4f4
 7985 13c4 4F       		.byte	0x4f
 7986 13c5 90000000 		.4byte	0x90
 7987 13c9 430A0000 		.4byte	.LLST118
 7988 13cd 3F0A0000 		.4byte	.LVUS118
 7989 13d1 02       		.uleb128 0x2
 7990 13d2 23040000 		.4byte	.LASF182
 7991 13d6 F604     		.2byte	0x4f6
 7992 13d8 0C       		.byte	0xc
 7993 13d9 AD000000 		.4byte	0xad
 7994 13dd 5C0A0000 		.4byte	.LLST119
 7995 13e1 560A0000 		.4byte	.LVUS119
 7996 13e5 02       		.uleb128 0x2
 7997 13e6 6F040000 		.4byte	.LASF187
 7998 13ea F704     		.2byte	0x4f7
 7999 13ec 0C       		.byte	0xc
 8000 13ed AD000000 		.4byte	0xad
 8001 13f1 7D0A0000 		.4byte	.LLST120
 8002 13f5 770A0000 		.4byte	.LVUS120
 8003 13f9 00       		.byte	0
 8004 13fa 05       		.uleb128 0x5
 8005 13fb BB000000 		.4byte	.LASF223
 8006 13ff E204     		.2byte	0x4e2
 8007 1401 0A       		.byte	0xa
 8008 1402 AD000000 		.4byte	0xad
 8009 1406 00000000 		.4byte	.LFB168
 8010 140a 0E000000 		.4byte	.LFE168-.LFB168
 8011 140e 01       		.uleb128 0x1
 8012 140f 9C       		.byte	0x9c
 8013 1410 51140000 		.4byte	0x1451
 8014 1414 04       		.uleb128 0x4
 8015 1415 870D0000 		.4byte	.LASF181
 8016 1419 E204     		.2byte	0x4e2
 8017 141b 43       		.byte	0x43
 8018 141c DA090000 		.4byte	0x9da
 8019 1420 9B0A0000 		.4byte	.LLST114
 8020 1424 970A0000 		.4byte	.LVUS114
 8021 1428 02       		.uleb128 0x2
 8022 1429 23040000 		.4byte	.LASF182
 8023 142d E404     		.2byte	0x4e4
 8024 142f 0C       		.byte	0xc
 8025 1430 AD000000 		.4byte	0xad
 8026 1434 B20A0000 		.4byte	.LLST115
 8027 1438 AE0A0000 		.4byte	.LVUS115
 8028 143c 02       		.uleb128 0x2
 8029 143d 6F040000 		.4byte	.LASF187
 8030 1441 E504     		.2byte	0x4e5
 8031 1443 0C       		.byte	0xc
 8032 1444 AD000000 		.4byte	0xad
 8033 1448 CB0A0000 		.4byte	.LLST116
 8034 144c C50A0000 		.4byte	.LVUS116
 8035 1450 00       		.byte	0
 8036 1451 05       		.uleb128 0x5
 8037 1452 51020000 		.4byte	.LASF224
ARM GAS  C:\Users\DEVELO~1\AppData\Local\Temp\cc15HDCU.s 			page 142


 8038 1456 D204     		.2byte	0x4d2
 8039 1458 0A       		.byte	0xa
 8040 1459 AD000000 		.4byte	0xad
 8041 145d 00000000 		.4byte	.LFB167
 8042 1461 0E000000 		.4byte	.LFE167-.LFB167
 8043 1465 01       		.uleb128 0x1
 8044 1466 9C       		.byte	0x9c
 8045 1467 A8140000 		.4byte	0x14a8
 8046 146b 04       		.uleb128 0x4
 8047 146c 870D0000 		.4byte	.LASF181
 8048 1470 D204     		.2byte	0x4d2
 8049 1472 44       		.byte	0x44
 8050 1473 DA090000 		.4byte	0x9da
 8051 1477 E90A0000 		.4byte	.LLST111
 8052 147b E50A0000 		.4byte	.LVUS111
 8053 147f 02       		.uleb128 0x2
 8054 1480 23040000 		.4byte	.LASF182
 8055 1484 D404     		.2byte	0x4d4
 8056 1486 0C       		.byte	0xc
 8057 1487 AD000000 		.4byte	0xad
 8058 148b 000B0000 		.4byte	.LLST112
 8059 148f FC0A0000 		.4byte	.LVUS112
 8060 1493 02       		.uleb128 0x2
 8061 1494 6F040000 		.4byte	.LASF187
 8062 1498 D504     		.2byte	0x4d5
 8063 149a 0C       		.byte	0xc
 8064 149b AD000000 		.4byte	0xad
 8065 149f 190B0000 		.4byte	.LLST113
 8066 14a3 130B0000 		.4byte	.LVUS113
 8067 14a7 00       		.byte	0
 8068 14a8 05       		.uleb128 0x5
 8069 14a9 BB010000 		.4byte	.LASF225
 8070 14ad C204     		.2byte	0x4c2
 8071 14af 0A       		.byte	0xa
 8072 14b0 AD000000 		.4byte	0xad
 8073 14b4 00000000 		.4byte	.LFB166
 8074 14b8 10000000 		.4byte	.LFE166-.LFB166
 8075 14bc 01       		.uleb128 0x1
 8076 14bd 9C       		.byte	0x9c
 8077 14be 13150000 		.4byte	0x1513
 8078 14c2 04       		.uleb128 0x4
 8079 14c3 870D0000 		.4byte	.LASF181
 8080 14c7 C204     		.2byte	0x4c2
 8081 14c9 3C       		.byte	0x3c
 8082 14ca DA090000 		.4byte	0x9da
 8083 14ce 370B0000 		.4byte	.LLST107
 8084 14d2 330B0000 		.4byte	.LVUS107
 8085 14d6 04       		.uleb128 0x4
 8086 14d7 FA0B0000 		.4byte	.LASF185
 8087 14db C204     		.2byte	0x4c2
 8088 14dd 4A       		.byte	0x4a
 8089 14de 90000000 		.4byte	0x90
 8090 14e2 4E0B0000 		.4byte	.LLST108
 8091 14e6 4A0B0000 		.4byte	.LVUS108
 8092 14ea 02       		.uleb128 0x2
 8093 14eb 23040000 		.4byte	.LASF182
 8094 14ef C404     		.2byte	0x4c4
ARM GAS  C:\Users\DEVELO~1\AppData\Local\Temp\cc15HDCU.s 			page 143


 8095 14f1 0C       		.byte	0xc
 8096 14f2 AD000000 		.4byte	0xad
 8097 14f6 650B0000 		.4byte	.LLST109
 8098 14fa 610B0000 		.4byte	.LVUS109
 8099 14fe 02       		.uleb128 0x2
 8100 14ff 6F040000 		.4byte	.LASF187
 8101 1503 C504     		.2byte	0x4c5
 8102 1505 0C       		.byte	0xc
 8103 1506 AD000000 		.4byte	0xad
 8104 150a 7E0B0000 		.4byte	.LLST110
 8105 150e 780B0000 		.4byte	.LVUS110
 8106 1512 00       		.byte	0
 8107 1513 05       		.uleb128 0x5
 8108 1514 56040000 		.4byte	.LASF226
 8109 1518 B204     		.2byte	0x4b2
 8110 151a 0A       		.byte	0xa
 8111 151b AD000000 		.4byte	0xad
 8112 151f 00000000 		.4byte	.LFB165
 8113 1523 08000000 		.4byte	.LFE165-.LFB165
 8114 1527 01       		.uleb128 0x1
 8115 1528 9C       		.byte	0x9c
 8116 1529 56150000 		.4byte	0x1556
 8117 152d 04       		.uleb128 0x4
 8118 152e 870D0000 		.4byte	.LASF181
 8119 1532 B204     		.2byte	0x4b2
 8120 1534 3A       		.byte	0x3a
 8121 1535 DA090000 		.4byte	0x9da
 8122 1539 9C0B0000 		.4byte	.LLST105
 8123 153d 980B0000 		.4byte	.LVUS105
 8124 1541 02       		.uleb128 0x2
 8125 1542 6F040000 		.4byte	.LASF187
 8126 1546 B404     		.2byte	0x4b4
 8127 1548 0C       		.byte	0xc
 8128 1549 AD000000 		.4byte	0xad
 8129 154d B50B0000 		.4byte	.LLST106
 8130 1551 AF0B0000 		.4byte	.LVUS106
 8131 1555 00       		.byte	0
 8132 1556 05       		.uleb128 0x5
 8133 1557 AD0C0000 		.4byte	.LASF227
 8134 155b A104     		.2byte	0x4a1
 8135 155d 13       		.byte	0x13
 8136 155e CC050000 		.4byte	0x5cc
 8137 1562 00000000 		.4byte	.LFB164
 8138 1566 20000000 		.4byte	.LFE164-.LFB164
 8139 156a 01       		.uleb128 0x1
 8140 156b 9C       		.byte	0x9c
 8141 156c 99150000 		.4byte	0x1599
 8142 1570 04       		.uleb128 0x4
 8143 1571 870D0000 		.4byte	.LASF181
 8144 1575 A104     		.2byte	0x4a1
 8145 1577 42       		.byte	0x42
 8146 1578 DA090000 		.4byte	0x9da
 8147 157c D50B0000 		.4byte	.LLST103
 8148 1580 CF0B0000 		.4byte	.LVUS103
 8149 1584 02       		.uleb128 0x2
 8150 1585 23040000 		.4byte	.LASF182
 8151 1589 A304     		.2byte	0x4a3
ARM GAS  C:\Users\DEVELO~1\AppData\Local\Temp\cc15HDCU.s 			page 144


 8152 158b 0C       		.byte	0xc
 8153 158c AD000000 		.4byte	0xad
 8154 1590 F10B0000 		.4byte	.LLST104
 8155 1594 ED0B0000 		.4byte	.LVUS104
 8156 1598 00       		.byte	0
 8157 1599 05       		.uleb128 0x5
 8158 159a 390D0000 		.4byte	.LASF228
 8159 159e 9004     		.2byte	0x490
 8160 15a0 13       		.byte	0x13
 8161 15a1 CC050000 		.4byte	0x5cc
 8162 15a5 00000000 		.4byte	.LFB163
 8163 15a9 20000000 		.4byte	.LFE163-.LFB163
 8164 15ad 01       		.uleb128 0x1
 8165 15ae 9C       		.byte	0x9c
 8166 15af DC150000 		.4byte	0x15dc
 8167 15b3 04       		.uleb128 0x4
 8168 15b4 870D0000 		.4byte	.LASF181
 8169 15b8 9004     		.2byte	0x490
 8170 15ba 3F       		.byte	0x3f
 8171 15bb DA090000 		.4byte	0x9da
 8172 15bf 0A0C0000 		.4byte	.LLST101
 8173 15c3 040C0000 		.4byte	.LVUS101
 8174 15c7 02       		.uleb128 0x2
 8175 15c8 23040000 		.4byte	.LASF182
 8176 15cc 9204     		.2byte	0x492
 8177 15ce 0C       		.byte	0xc
 8178 15cf AD000000 		.4byte	0xad
 8179 15d3 260C0000 		.4byte	.LLST102
 8180 15d7 220C0000 		.4byte	.LVUS102
 8181 15db 00       		.byte	0
 8182 15dc 05       		.uleb128 0x5
 8183 15dd 840A0000 		.4byte	.LASF229
 8184 15e1 8104     		.2byte	0x481
 8185 15e3 13       		.byte	0x13
 8186 15e4 CC050000 		.4byte	0x5cc
 8187 15e8 00000000 		.4byte	.LFB162
 8188 15ec 22000000 		.4byte	.LFE162-.LFB162
 8189 15f0 01       		.uleb128 0x1
 8190 15f1 9C       		.byte	0x9c
 8191 15f2 33160000 		.4byte	0x1633
 8192 15f6 04       		.uleb128 0x4
 8193 15f7 870D0000 		.4byte	.LASF181
 8194 15fb 8104     		.2byte	0x481
 8195 15fd 42       		.byte	0x42
 8196 15fe DA090000 		.4byte	0x9da
 8197 1602 3D0C0000 		.4byte	.LLST98
 8198 1606 390C0000 		.4byte	.LVUS98
 8199 160a 04       		.uleb128 0x4
 8200 160b 4C0B0000 		.4byte	.LASF230
 8201 160f 8104     		.2byte	0x481
 8202 1611 50       		.byte	0x50
 8203 1612 90000000 		.4byte	0x90
 8204 1616 510C0000 		.4byte	.LLST99
 8205 161a 4D0C0000 		.4byte	.LVUS99
 8206 161e 02       		.uleb128 0x2
 8207 161f 23040000 		.4byte	.LASF182
 8208 1623 8304     		.2byte	0x483
ARM GAS  C:\Users\DEVELO~1\AppData\Local\Temp\cc15HDCU.s 			page 145


 8209 1625 0C       		.byte	0xc
 8210 1626 AD000000 		.4byte	0xad
 8211 162a 660C0000 		.4byte	.LLST100
 8212 162e 640C0000 		.4byte	.LVUS100
 8213 1632 00       		.byte	0
 8214 1633 05       		.uleb128 0x5
 8215 1634 12070000 		.4byte	.LASF231
 8216 1638 5804     		.2byte	0x458
 8217 163a 13       		.byte	0x13
 8218 163b CC050000 		.4byte	0x5cc
 8219 163f 00000000 		.4byte	.LFB161
 8220 1643 42000000 		.4byte	.LFE161-.LFB161
 8221 1647 01       		.uleb128 0x1
 8222 1648 9C       		.byte	0x9c
 8223 1649 C6160000 		.4byte	0x16c6
 8224 164d 04       		.uleb128 0x4
 8225 164e 870D0000 		.4byte	.LASF181
 8226 1652 5804     		.2byte	0x458
 8227 1654 39       		.byte	0x39
 8228 1655 260B0000 		.4byte	0xb26
 8229 1659 770C0000 		.4byte	.LLST94
 8230 165d 6F0C0000 		.4byte	.LVUS94
 8231 1661 0E       		.uleb128 0xe
 8232 1662 72657400 		.ascii	"ret\000"
 8233 1666 5A04     		.2byte	0x45a
 8234 1668 15       		.byte	0x15
 8235 1669 CC050000 		.4byte	0x5cc
 8236 166d 960C0000 		.4byte	.LLST95
 8237 1671 940C0000 		.4byte	.LVUS95
 8238 1675 02       		.uleb128 0x2
 8239 1676 23040000 		.4byte	.LASF182
 8240 167a 5B04     		.2byte	0x45b
 8241 167c 0C       		.byte	0xc
 8242 167d AD000000 		.4byte	0xad
 8243 1681 A70C0000 		.4byte	.LLST96
 8244 1685 9F0C0000 		.4byte	.LVUS96
 8245 1689 0E       		.uleb128 0xe
 8246 168a 6900     		.ascii	"i\000"
 8247 168c 5C04     		.2byte	0x45c
 8248 168e 0C       		.byte	0xc
 8249 168f AD000000 		.4byte	0xad
 8250 1693 C60C0000 		.4byte	.LLST97
 8251 1697 C40C0000 		.4byte	.LVUS97
 8252 169b 13       		.uleb128 0x13
 8253 169c 32000000 		.4byte	.LVL237
 8254 16a0 B11C0000 		.4byte	0x1cb1
 8255 16a4 AF160000 		.4byte	0x16af
 8256 16a8 09       		.uleb128 0x9
 8257 16a9 01       		.uleb128 0x1
 8258 16aa 50       		.byte	0x50
 8259 16ab 02       		.uleb128 0x2
 8260 16ac 74       		.byte	0x74
 8261 16ad 00       		.sleb128 0
 8262 16ae 00       		.byte	0
 8263 16af 39       		.uleb128 0x39
 8264 16b0 42000000 		.4byte	.LVL241
 8265 16b4 EE1C0000 		.4byte	0x1cee
ARM GAS  C:\Users\DEVELO~1\AppData\Local\Temp\cc15HDCU.s 			page 146


 8266 16b8 09       		.uleb128 0x9
 8267 16b9 01       		.uleb128 0x1
 8268 16ba 50       		.byte	0x50
 8269 16bb 03       		.uleb128 0x3
 8270 16bc A3       		.byte	0xa3
 8271 16bd 01       		.uleb128 0x1
 8272 16be 50       		.byte	0x50
 8273 16bf 09       		.uleb128 0x9
 8274 16c0 01       		.uleb128 0x1
 8275 16c1 51       		.byte	0x51
 8276 16c2 01       		.uleb128 0x1
 8277 16c3 40       		.byte	0x40
 8278 16c4 00       		.byte	0
 8279 16c5 00       		.byte	0
 8280 16c6 05       		.uleb128 0x5
 8281 16c7 E3090000 		.4byte	.LASF232
 8282 16cb 3B04     		.2byte	0x43b
 8283 16cd 13       		.byte	0x13
 8284 16ce CC050000 		.4byte	0x5cc
 8285 16d2 00000000 		.4byte	.LFB160
 8286 16d6 58000000 		.4byte	.LFE160-.LFB160
 8287 16da 01       		.uleb128 0x1
 8288 16db 9C       		.byte	0x9c
 8289 16dc 2A170000 		.4byte	0x172a
 8290 16e0 04       		.uleb128 0x4
 8291 16e1 870D0000 		.4byte	.LASF181
 8292 16e5 3B04     		.2byte	0x43b
 8293 16e7 41       		.byte	0x41
 8294 16e8 DA090000 		.4byte	0x9da
 8295 16ec D40C0000 		.4byte	.LLST91
 8296 16f0 D00C0000 		.4byte	.LVUS91
 8297 16f4 24       		.uleb128 0x24
 8298 16f5 657000   		.ascii	"ep\000"
 8299 16f8 3B04     		.2byte	0x43b
 8300 16fa 60       		.byte	0x60
 8301 16fb 2A170000 		.4byte	0x172a
 8302 16ff 01       		.uleb128 0x1
 8303 1700 51       		.byte	0x51
 8304 1701 02       		.uleb128 0x2
 8305 1702 23040000 		.4byte	.LASF182
 8306 1706 3D04     		.2byte	0x43d
 8307 1708 0C       		.byte	0xc
 8308 1709 AD000000 		.4byte	0xad
 8309 170d EB0C0000 		.4byte	.LLST92
 8310 1711 E70C0000 		.4byte	.LVUS92
 8311 1715 02       		.uleb128 0x2
 8312 1716 0C0B0000 		.4byte	.LASF201
 8313 171a 3E04     		.2byte	0x43e
 8314 171c 0C       		.byte	0xc
 8315 171d AD000000 		.4byte	0xad
 8316 1721 060D0000 		.4byte	.LLST93
 8317 1725 FE0C0000 		.4byte	.LVUS93
 8318 1729 00       		.byte	0
 8319 172a 11       		.uleb128 0x11
 8320 172b 73090000 		.4byte	0x973
 8321 172f 05       		.uleb128 0x5
 8322 1730 85030000 		.4byte	.LASF233
ARM GAS  C:\Users\DEVELO~1\AppData\Local\Temp\cc15HDCU.s 			page 147


 8323 1734 1C04     		.2byte	0x41c
 8324 1736 13       		.byte	0x13
 8325 1737 CC050000 		.4byte	0x5cc
 8326 173b 00000000 		.4byte	.LFB159
 8327 173f 68000000 		.4byte	.LFE159-.LFB159
 8328 1743 01       		.uleb128 0x1
 8329 1744 9C       		.byte	0x9c
 8330 1745 93170000 		.4byte	0x1793
 8331 1749 04       		.uleb128 0x4
 8332 174a 870D0000 		.4byte	.LASF181
 8333 174e 1C04     		.2byte	0x41c
 8334 1750 3F       		.byte	0x3f
 8335 1751 DA090000 		.4byte	0x9da
 8336 1755 3C0D0000 		.4byte	.LLST88
 8337 1759 380D0000 		.4byte	.LVUS88
 8338 175d 24       		.uleb128 0x24
 8339 175e 657000   		.ascii	"ep\000"
 8340 1761 1C04     		.2byte	0x41c
 8341 1763 5E       		.byte	0x5e
 8342 1764 2A170000 		.4byte	0x172a
 8343 1768 01       		.uleb128 0x1
 8344 1769 51       		.byte	0x51
 8345 176a 02       		.uleb128 0x2
 8346 176b 23040000 		.4byte	.LASF182
 8347 176f 1E04     		.2byte	0x41e
 8348 1771 0C       		.byte	0xc
 8349 1772 AD000000 		.4byte	0xad
 8350 1776 530D0000 		.4byte	.LLST89
 8351 177a 4F0D0000 		.4byte	.LVUS89
 8352 177e 02       		.uleb128 0x2
 8353 177f 0C0B0000 		.4byte	.LASF201
 8354 1783 1F04     		.2byte	0x41f
 8355 1785 0C       		.byte	0xc
 8356 1786 AD000000 		.4byte	0xad
 8357 178a 740D0000 		.4byte	.LLST90
 8358 178e 660D0000 		.4byte	.LVUS90
 8359 1792 00       		.byte	0
 8360 1793 05       		.uleb128 0x5
 8361 1794 B6030000 		.4byte	.LASF234
 8362 1798 F203     		.2byte	0x3f2
 8363 179a 07       		.byte	0x7
 8364 179b 91050000 		.4byte	0x591
 8365 179f 00000000 		.4byte	.LFB158
 8366 17a3 46000000 		.4byte	.LFE158-.LFB158
 8367 17a7 01       		.uleb128 0x1
 8368 17a8 9C       		.byte	0x9c
 8369 17a9 58180000 		.4byte	0x1858
 8370 17ad 04       		.uleb128 0x4
 8371 17ae 870D0000 		.4byte	.LASF181
 8372 17b2 F203     		.2byte	0x3f2
 8373 17b4 33       		.byte	0x33
 8374 17b5 DA090000 		.4byte	0x9da
 8375 17b9 BE0D0000 		.4byte	.LLST80
 8376 17bd B20D0000 		.4byte	.LVUS80
 8377 17c1 04       		.uleb128 0x4
 8378 17c2 8C0D0000 		.4byte	.LASF235
 8379 17c6 F203     		.2byte	0x3f2
ARM GAS  C:\Users\DEVELO~1\AppData\Local\Temp\cc15HDCU.s 			page 148


 8380 17c8 42       		.byte	0x42
 8381 17c9 F2070000 		.4byte	0x7f2
 8382 17cd EE0D0000 		.4byte	.LLST81
 8383 17d1 E80D0000 		.4byte	.LVUS81
 8384 17d5 0C       		.uleb128 0xc
 8385 17d6 6C656E00 		.ascii	"len\000"
 8386 17da F203     		.2byte	0x3f2
 8387 17dc 51       		.byte	0x51
 8388 17dd A1000000 		.4byte	0xa1
 8389 17e1 0C0E0000 		.4byte	.LLST82
 8390 17e5 060E0000 		.4byte	.LVUS82
 8391 17e9 02       		.uleb128 0x2
 8392 17ea 23040000 		.4byte	.LASF182
 8393 17ee F403     		.2byte	0x3f4
 8394 17f0 0C       		.byte	0xc
 8395 17f1 AD000000 		.4byte	0xad
 8396 17f5 300E0000 		.4byte	.LLST83
 8397 17f9 240E0000 		.4byte	.LVUS83
 8398 17fd 02       		.uleb128 0x2
 8399 17fe 1B0C0000 		.4byte	.LASF236
 8400 1802 F503     		.2byte	0x3f5
 8401 1804 0C       		.byte	0xc
 8402 1805 F2070000 		.4byte	0x7f2
 8403 1809 6C0E0000 		.4byte	.LLST84
 8404 180d 5A0E0000 		.4byte	.LVUS84
 8405 1811 0B       		.uleb128 0xb
 8406 1812 69040000 		.4byte	.LASF237
 8407 1816 F603     		.2byte	0x3f6
 8408 1818 0C       		.byte	0xc
 8409 1819 AD000000 		.4byte	0xad
 8410 181d 0E       		.uleb128 0xe
 8411 181e 6900     		.ascii	"i\000"
 8412 1820 F703     		.2byte	0x3f7
 8413 1822 0C       		.byte	0xc
 8414 1823 AD000000 		.4byte	0xad
 8415 1827 B50E0000 		.4byte	.LLST85
 8416 182b A70E0000 		.4byte	.LVUS85
 8417 182f 02       		.uleb128 0x2
 8418 1830 4D040000 		.4byte	.LASF238
 8419 1834 F803     		.2byte	0x3f8
 8420 1836 0C       		.byte	0xc
 8421 1837 AD000000 		.4byte	0xad
 8422 183b E60E0000 		.4byte	.LLST86
 8423 183f E40E0000 		.4byte	.LVUS86
 8424 1843 02       		.uleb128 0x2
 8425 1844 2A0A0000 		.4byte	.LASF239
 8426 1848 F903     		.2byte	0x3f9
 8427 184a 0C       		.byte	0xc
 8428 184b A1000000 		.4byte	0xa1
 8429 184f F30E0000 		.4byte	.LLST87
 8430 1853 EF0E0000 		.4byte	.LVUS87
 8431 1857 00       		.byte	0
 8432 1858 19       		.uleb128 0x19
 8433 1859 75030000 		.4byte	.LASF240
 8434 185d D303     		.2byte	0x3d3
 8435 185f 13       		.byte	0x13
 8436 1860 CC050000 		.4byte	0x5cc
ARM GAS  C:\Users\DEVELO~1\AppData\Local\Temp\cc15HDCU.s 			page 149


 8437 1864 D4180000 		.4byte	0x18d4
 8438 1868 10       		.uleb128 0x10
 8439 1869 870D0000 		.4byte	.LASF181
 8440 186d D303     		.2byte	0x3d3
 8441 186f 40       		.byte	0x40
 8442 1870 DA090000 		.4byte	0x9da
 8443 1874 25       		.uleb128 0x25
 8444 1875 73726300 		.ascii	"src\000"
 8445 1879 D303     		.2byte	0x3d3
 8446 187b 4F       		.byte	0x4f
 8447 187c F2070000 		.4byte	0x7f2
 8448 1880 10       		.uleb128 0x10
 8449 1881 34060000 		.4byte	.LASF241
 8450 1885 D403     		.2byte	0x3d4
 8451 1887 2B       		.byte	0x2b
 8452 1888 90000000 		.4byte	0x90
 8453 188c 25       		.uleb128 0x25
 8454 188d 6C656E00 		.ascii	"len\000"
 8455 1891 D403     		.2byte	0x3d4
 8456 1893 3F       		.byte	0x3f
 8457 1894 A1000000 		.4byte	0xa1
 8458 1898 25       		.uleb128 0x25
 8459 1899 646D6100 		.ascii	"dma\000"
 8460 189d D403     		.2byte	0x3d4
 8461 189f 4C       		.byte	0x4c
 8462 18a0 90000000 		.4byte	0x90
 8463 18a4 0B       		.uleb128 0xb
 8464 18a5 23040000 		.4byte	.LASF182
 8465 18a9 D603     		.2byte	0x3d6
 8466 18ab 0C       		.byte	0xc
 8467 18ac AD000000 		.4byte	0xad
 8468 18b0 0B       		.uleb128 0xb
 8469 18b1 D5090000 		.4byte	.LASF242
 8470 18b5 D703     		.2byte	0x3d7
 8471 18b7 0C       		.byte	0xc
 8472 18b8 F2070000 		.4byte	0x7f2
 8473 18bc 0B       		.uleb128 0xb
 8474 18bd 4D040000 		.4byte	.LASF238
 8475 18c1 D803     		.2byte	0x3d8
 8476 18c3 0C       		.byte	0xc
 8477 18c4 AD000000 		.4byte	0xad
 8478 18c8 3A       		.uleb128 0x3a
 8479 18c9 6900     		.ascii	"i\000"
 8480 18cb 01       		.byte	0x1
 8481 18cc D903     		.2byte	0x3d9
 8482 18ce 0C       		.byte	0xc
 8483 18cf AD000000 		.4byte	0xad
 8484 18d3 00       		.byte	0
 8485 18d4 05       		.uleb128 0x5
 8486 18d5 810C0000 		.4byte	.LASF243
 8487 18d9 9303     		.2byte	0x393
 8488 18db 13       		.byte	0x13
 8489 18dc CC050000 		.4byte	0x5cc
 8490 18e0 00000000 		.4byte	.LFB156
 8491 18e4 88000000 		.4byte	.LFE156-.LFB156
 8492 18e8 01       		.uleb128 0x1
 8493 18e9 9C       		.byte	0x9c
ARM GAS  C:\Users\DEVELO~1\AppData\Local\Temp\cc15HDCU.s 			page 150


 8494 18ea 4C190000 		.4byte	0x194c
 8495 18ee 04       		.uleb128 0x4
 8496 18ef 870D0000 		.4byte	.LASF181
 8497 18f3 9303     		.2byte	0x393
 8498 18f5 3F       		.byte	0x3f
 8499 18f6 DA090000 		.4byte	0x9da
 8500 18fa 0D0F0000 		.4byte	.LLST67
 8501 18fe 030F0000 		.4byte	.LVUS67
 8502 1902 0C       		.uleb128 0xc
 8503 1903 657000   		.ascii	"ep\000"
 8504 1906 9303     		.2byte	0x393
 8505 1908 58       		.byte	0x58
 8506 1909 4C190000 		.4byte	0x194c
 8507 190d 420F0000 		.4byte	.LLST68
 8508 1911 360F0000 		.4byte	.LVUS68
 8509 1915 0F       		.uleb128 0xf
 8510 1916 0F030000 		.4byte	.LASF191
 8511 191a 9503     		.2byte	0x395
 8512 191c B9000000 		.4byte	0xb9
 8513 1920 02       		.uleb128 0x2
 8514 1921 91       		.byte	0x91
 8515 1922 7C       		.sleb128 -4
 8516 1923 0E       		.uleb128 0xe
 8517 1924 72657400 		.ascii	"ret\000"
 8518 1928 9603     		.2byte	0x396
 8519 192a 15       		.byte	0x15
 8520 192b CC050000 		.4byte	0x5cc
 8521 192f 7A0F0000 		.4byte	.LLST69
 8522 1933 700F0000 		.4byte	.LVUS69
 8523 1937 02       		.uleb128 0x2
 8524 1938 23040000 		.4byte	.LASF182
 8525 193c 9703     		.2byte	0x397
 8526 193e 0C       		.byte	0xc
 8527 193f AD000000 		.4byte	0xad
 8528 1943 A70F0000 		.4byte	.LLST70
 8529 1947 9D0F0000 		.4byte	.LVUS70
 8530 194b 00       		.byte	0
 8531 194c 11       		.uleb128 0x11
 8532 194d 67090000 		.4byte	0x967
 8533 1951 05       		.uleb128 0x5
 8534 1952 5C000000 		.4byte	.LASF244
 8535 1956 E702     		.2byte	0x2e7
 8536 1958 13       		.byte	0x13
 8537 1959 CC050000 		.4byte	0x5cc
 8538 195d 00000000 		.4byte	.LFB155
 8539 1961 34020000 		.4byte	.LFE155-.LFB155
 8540 1965 01       		.uleb128 0x1
 8541 1966 9C       		.byte	0x9c
 8542 1967 691A0000 		.4byte	0x1a69
 8543 196b 04       		.uleb128 0x4
 8544 196c 870D0000 		.4byte	.LASF181
 8545 1970 E702     		.2byte	0x2e7
 8546 1972 3A       		.byte	0x3a
 8547 1973 260B0000 		.4byte	0xb26
 8548 1977 DE0F0000 		.4byte	.LLST52
 8549 197b D00F0000 		.4byte	.LVUS52
 8550 197f 0C       		.uleb128 0xc
ARM GAS  C:\Users\DEVELO~1\AppData\Local\Temp\cc15HDCU.s 			page 151


 8551 1980 657000   		.ascii	"ep\000"
 8552 1983 E702     		.2byte	0x2e7
 8553 1985 53       		.byte	0x53
 8554 1986 4C190000 		.4byte	0x194c
 8555 198a 27100000 		.4byte	.LLST53
 8556 198e 1D100000 		.4byte	.LVUS53
 8557 1992 0C       		.uleb128 0xc
 8558 1993 646D6100 		.ascii	"dma\000"
 8559 1997 E702     		.2byte	0x2e7
 8560 1999 5F       		.byte	0x5f
 8561 199a 90000000 		.4byte	0x90
 8562 199e 6B100000 		.4byte	.LLST54
 8563 19a2 55100000 		.4byte	.LVUS54
 8564 19a6 02       		.uleb128 0x2
 8565 19a7 23040000 		.4byte	.LASF182
 8566 19ab E902     		.2byte	0x2e9
 8567 19ad 0C       		.byte	0xc
 8568 19ae AD000000 		.4byte	0xad
 8569 19b2 D8100000 		.4byte	.LLST55
 8570 19b6 CA100000 		.4byte	.LVUS55
 8571 19ba 02       		.uleb128 0x2
 8572 19bb 0C0B0000 		.4byte	.LASF201
 8573 19bf EA02     		.2byte	0x2ea
 8574 19c1 0C       		.byte	0xc
 8575 19c2 AD000000 		.4byte	0xad
 8576 19c6 23110000 		.4byte	.LLST56
 8577 19ca 17110000 		.4byte	.LVUS56
 8578 19ce 02       		.uleb128 0x2
 8579 19cf 03070000 		.4byte	.LASF245
 8580 19d3 EB02     		.2byte	0x2eb
 8581 19d5 0C       		.byte	0xc
 8582 19d6 A1000000 		.4byte	0xa1
 8583 19da 5B110000 		.4byte	.LLST57
 8584 19de 51110000 		.4byte	.LVUS57
 8585 19e2 22       		.uleb128 0x22
 8586 19e3 58180000 		.4byte	0x1858
 8587 19e7 F0010000 		.4byte	.LBI34
 8588 19eb 0200     		.2byte	.LVU846
 8589 19ed 0C000000 		.4byte	.LLRL58
 8590 19f1 4703     		.2byte	0x347
 8591 19f3 0F       		.byte	0xf
 8592 19f4 06       		.uleb128 0x6
 8593 19f5 98180000 		.4byte	0x1898
 8594 19f9 D5110000 		.4byte	.LLST59
 8595 19fd D1110000 		.4byte	.LVUS59
 8596 1a01 06       		.uleb128 0x6
 8597 1a02 8C180000 		.4byte	0x188c
 8598 1a06 EA110000 		.4byte	.LLST60
 8599 1a0a E8110000 		.4byte	.LVUS60
 8600 1a0e 23       		.uleb128 0x23
 8601 1a0f 80180000 		.4byte	0x1880
 8602 1a13 06       		.uleb128 0x6
 8603 1a14 74180000 		.4byte	0x1874
 8604 1a18 F8110000 		.4byte	.LLST61
 8605 1a1c F4110000 		.4byte	.LVUS61
 8606 1a20 06       		.uleb128 0x6
 8607 1a21 68180000 		.4byte	0x1868
ARM GAS  C:\Users\DEVELO~1\AppData\Local\Temp\cc15HDCU.s 			page 152


 8608 1a25 0F120000 		.4byte	.LLST62
 8609 1a29 0D120000 		.4byte	.LVUS62
 8610 1a2d 1E       		.uleb128 0x1e
 8611 1a2e 0C000000 		.4byte	.LLRL58
 8612 1a32 07       		.uleb128 0x7
 8613 1a33 A4180000 		.4byte	0x18a4
 8614 1a37 1A120000 		.4byte	.LLST63
 8615 1a3b 18120000 		.4byte	.LVUS63
 8616 1a3f 07       		.uleb128 0x7
 8617 1a40 B0180000 		.4byte	0x18b0
 8618 1a44 33120000 		.4byte	.LLST64
 8619 1a48 23120000 		.4byte	.LVUS64
 8620 1a4c 07       		.uleb128 0x7
 8621 1a4d BC180000 		.4byte	0x18bc
 8622 1a51 72120000 		.4byte	.LLST65
 8623 1a55 6E120000 		.4byte	.LVUS65
 8624 1a59 07       		.uleb128 0x7
 8625 1a5a C8180000 		.4byte	0x18c8
 8626 1a5e 88120000 		.4byte	.LLST66
 8627 1a62 86120000 		.4byte	.LVUS66
 8628 1a66 00       		.byte	0
 8629 1a67 00       		.byte	0
 8630 1a68 00       		.byte	0
 8631 1a69 05       		.uleb128 0x5
 8632 1a6a B5090000 		.4byte	.LASF246
 8633 1a6e BD02     		.2byte	0x2bd
 8634 1a70 13       		.byte	0x13
 8635 1a71 CC050000 		.4byte	0x5cc
 8636 1a75 00000000 		.4byte	.LFB154
 8637 1a79 9E000000 		.4byte	.LFE154-.LFB154
 8638 1a7d 01       		.uleb128 0x1
 8639 1a7e 9C       		.byte	0x9c
 8640 1a7f D31A0000 		.4byte	0x1ad3
 8641 1a83 04       		.uleb128 0x4
 8642 1a84 870D0000 		.4byte	.LASF181
 8643 1a88 BD02     		.2byte	0x2bd
 8644 1a8a 50       		.byte	0x50
 8645 1a8b DA090000 		.4byte	0x9da
 8646 1a8f 9A120000 		.4byte	.LLST48
 8647 1a93 92120000 		.4byte	.LVUS48
 8648 1a97 0C       		.uleb128 0xc
 8649 1a98 657000   		.ascii	"ep\000"
 8650 1a9b BD02     		.2byte	0x2bd
 8651 1a9d 6F       		.byte	0x6f
 8652 1a9e 2A170000 		.4byte	0x172a
 8653 1aa2 C5120000 		.4byte	.LLST49
 8654 1aa6 BD120000 		.4byte	.LVUS49
 8655 1aaa 02       		.uleb128 0x2
 8656 1aab 23040000 		.4byte	.LASF182
 8657 1aaf BF02     		.2byte	0x2bf
 8658 1ab1 0C       		.byte	0xc
 8659 1ab2 AD000000 		.4byte	0xad
 8660 1ab6 EE120000 		.4byte	.LLST50
 8661 1aba E6120000 		.4byte	.LVUS50
 8662 1abe 02       		.uleb128 0x2
 8663 1abf 0C0B0000 		.4byte	.LASF201
 8664 1ac3 C002     		.2byte	0x2c0
ARM GAS  C:\Users\DEVELO~1\AppData\Local\Temp\cc15HDCU.s 			page 153


 8665 1ac5 0C       		.byte	0xc
 8666 1ac6 AD000000 		.4byte	0xad
 8667 1aca 15130000 		.4byte	.LLST51
 8668 1ace 11130000 		.4byte	.LVUS51
 8669 1ad2 00       		.byte	0
 8670 1ad3 05       		.uleb128 0x5
 8671 1ad4 26010000 		.4byte	.LASF247
 8672 1ad8 8E02     		.2byte	0x28e
 8673 1ada 13       		.byte	0x13
 8674 1adb CC050000 		.4byte	0x5cc
 8675 1adf 00000000 		.4byte	.LFB153
 8676 1ae3 BC000000 		.4byte	.LFE153-.LFB153
 8677 1ae7 01       		.uleb128 0x1
 8678 1ae8 9C       		.byte	0x9c
 8679 1ae9 3D1B0000 		.4byte	0x1b3d
 8680 1aed 04       		.uleb128 0x4
 8681 1aee 870D0000 		.4byte	.LASF181
 8682 1af2 8E02     		.2byte	0x28e
 8683 1af4 47       		.byte	0x47
 8684 1af5 DA090000 		.4byte	0x9da
 8685 1af9 37130000 		.4byte	.LLST44
 8686 1afd 2F130000 		.4byte	.LVUS44
 8687 1b01 0C       		.uleb128 0xc
 8688 1b02 657000   		.ascii	"ep\000"
 8689 1b05 8E02     		.2byte	0x28e
 8690 1b07 66       		.byte	0x66
 8691 1b08 2A170000 		.4byte	0x172a
 8692 1b0c 62130000 		.4byte	.LLST45
 8693 1b10 5A130000 		.4byte	.LVUS45
 8694 1b14 02       		.uleb128 0x2
 8695 1b15 23040000 		.4byte	.LASF182
 8696 1b19 9002     		.2byte	0x290
 8697 1b1b 0C       		.byte	0xc
 8698 1b1c AD000000 		.4byte	0xad
 8699 1b20 8D130000 		.4byte	.LLST46
 8700 1b24 85130000 		.4byte	.LVUS46
 8701 1b28 02       		.uleb128 0x2
 8702 1b29 0C0B0000 		.4byte	.LASF201
 8703 1b2d 9102     		.2byte	0x291
 8704 1b2f 0C       		.byte	0xc
 8705 1b30 AD000000 		.4byte	0xad
 8706 1b34 B4130000 		.4byte	.LLST47
 8707 1b38 B0130000 		.4byte	.LVUS47
 8708 1b3c 00       		.byte	0
 8709 1b3d 05       		.uleb128 0x5
 8710 1b3e C7040000 		.4byte	.LASF248
 8711 1b42 6702     		.2byte	0x267
 8712 1b44 13       		.byte	0x13
 8713 1b45 CC050000 		.4byte	0x5cc
 8714 1b49 00000000 		.4byte	.LFB152
 8715 1b4d 94000000 		.4byte	.LFE152-.LFB152
 8716 1b51 01       		.uleb128 0x1
 8717 1b52 9C       		.byte	0x9c
 8718 1b53 A71B0000 		.4byte	0x1ba7
 8719 1b57 04       		.uleb128 0x4
 8720 1b58 870D0000 		.4byte	.LASF181
 8721 1b5c 6702     		.2byte	0x267
ARM GAS  C:\Users\DEVELO~1\AppData\Local\Temp\cc15HDCU.s 			page 154


 8722 1b5e 4E       		.byte	0x4e
 8723 1b5f DA090000 		.4byte	0x9da
 8724 1b63 D7130000 		.4byte	.LLST40
 8725 1b67 CF130000 		.4byte	.LVUS40
 8726 1b6b 0C       		.uleb128 0xc
 8727 1b6c 657000   		.ascii	"ep\000"
 8728 1b6f 6702     		.2byte	0x267
 8729 1b71 6D       		.byte	0x6d
 8730 1b72 2A170000 		.4byte	0x172a
 8731 1b76 06140000 		.4byte	.LLST41
 8732 1b7a FA130000 		.4byte	.LVUS41
 8733 1b7e 02       		.uleb128 0x2
 8734 1b7f 23040000 		.4byte	.LASF182
 8735 1b83 6902     		.2byte	0x269
 8736 1b85 0C       		.byte	0xc
 8737 1b86 AD000000 		.4byte	0xad
 8738 1b8a 3C140000 		.4byte	.LLST42
 8739 1b8e 34140000 		.4byte	.LVUS42
 8740 1b92 02       		.uleb128 0x2
 8741 1b93 0C0B0000 		.4byte	.LASF201
 8742 1b97 6A02     		.2byte	0x26a
 8743 1b99 0C       		.byte	0xc
 8744 1b9a AD000000 		.4byte	0xad
 8745 1b9e 63140000 		.4byte	.LLST43
 8746 1ba2 5F140000 		.4byte	.LVUS43
 8747 1ba6 00       		.byte	0
 8748 1ba7 05       		.uleb128 0x5
 8749 1ba8 97060000 		.4byte	.LASF249
 8750 1bac 4102     		.2byte	0x241
 8751 1bae 13       		.byte	0x13
 8752 1baf CC050000 		.4byte	0x5cc
 8753 1bb3 00000000 		.4byte	.LFB151
 8754 1bb7 90000000 		.4byte	.LFE151-.LFB151
 8755 1bbb 01       		.uleb128 0x1
 8756 1bbc 9C       		.byte	0x9c
 8757 1bbd 111C0000 		.4byte	0x1c11
 8758 1bc1 04       		.uleb128 0x4
 8759 1bc2 870D0000 		.4byte	.LASF181
 8760 1bc6 4102     		.2byte	0x241
 8761 1bc8 45       		.byte	0x45
 8762 1bc9 DA090000 		.4byte	0x9da
 8763 1bcd 7D140000 		.4byte	.LLST36
 8764 1bd1 73140000 		.4byte	.LVUS36
 8765 1bd5 0C       		.uleb128 0xc
 8766 1bd6 657000   		.ascii	"ep\000"
 8767 1bd9 4102     		.2byte	0x241
 8768 1bdb 64       		.byte	0x64
 8769 1bdc 2A170000 		.4byte	0x172a
 8770 1be0 AE140000 		.4byte	.LLST37
 8771 1be4 A6140000 		.4byte	.LVUS37
 8772 1be8 02       		.uleb128 0x2
 8773 1be9 23040000 		.4byte	.LASF182
 8774 1bed 4302     		.2byte	0x243
 8775 1bef 0C       		.byte	0xc
 8776 1bf0 AD000000 		.4byte	0xad
 8777 1bf4 D9140000 		.4byte	.LLST38
 8778 1bf8 CF140000 		.4byte	.LVUS38
ARM GAS  C:\Users\DEVELO~1\AppData\Local\Temp\cc15HDCU.s 			page 155


 8779 1bfc 02       		.uleb128 0x2
 8780 1bfd 0C0B0000 		.4byte	.LASF201
 8781 1c01 4402     		.2byte	0x244
 8782 1c03 0C       		.byte	0xc
 8783 1c04 AD000000 		.4byte	0xad
 8784 1c08 08150000 		.4byte	.LLST39
 8785 1c0c 02150000 		.4byte	.LVUS39
 8786 1c10 00       		.byte	0
 8787 1c11 05       		.uleb128 0x5
 8788 1c12 EA040000 		.4byte	.LASF250
 8789 1c16 2402     		.2byte	0x224
 8790 1c18 09       		.byte	0x9
 8791 1c19 90000000 		.4byte	0x90
 8792 1c1d 00000000 		.4byte	.LFB150
 8793 1c21 16000000 		.4byte	.LFE150-.LFB150
 8794 1c25 01       		.uleb128 0x1
 8795 1c26 9C       		.byte	0x9c
 8796 1c27 7C1C0000 		.4byte	0x1c7c
 8797 1c2b 04       		.uleb128 0x4
 8798 1c2c 870D0000 		.4byte	.LASF181
 8799 1c30 2402     		.2byte	0x224
 8800 1c32 36       		.byte	0x36
 8801 1c33 DA090000 		.4byte	0x9da
 8802 1c37 29150000 		.4byte	.LLST32
 8803 1c3b 25150000 		.4byte	.LVUS32
 8804 1c3f 02       		.uleb128 0x2
 8805 1c40 23040000 		.4byte	.LASF182
 8806 1c44 2602     		.2byte	0x226
 8807 1c46 0C       		.byte	0xc
 8808 1c47 AD000000 		.4byte	0xad
 8809 1c4b 40150000 		.4byte	.LLST33
 8810 1c4f 3C150000 		.4byte	.LVUS33
 8811 1c53 02       		.uleb128 0x2
 8812 1c54 89020000 		.4byte	.LASF128
 8813 1c58 2702     		.2byte	0x227
 8814 1c5a 0B       		.byte	0xb
 8815 1c5b 90000000 		.4byte	0x90
 8816 1c5f 55150000 		.4byte	.LLST34
 8817 1c63 53150000 		.4byte	.LVUS34
 8818 1c67 02       		.uleb128 0x2
 8819 1c68 49010000 		.4byte	.LASF251
 8820 1c6c 2802     		.2byte	0x228
 8821 1c6e 0C       		.byte	0xc
 8822 1c6f AD000000 		.4byte	0xad
 8823 1c73 64150000 		.4byte	.LLST35
 8824 1c77 5E150000 		.4byte	.LVUS35
 8825 1c7b 00       		.byte	0
 8826 1c7c 19       		.uleb128 0x19
 8827 1c7d 94030000 		.4byte	.LASF252
 8828 1c81 1402     		.2byte	0x214
 8829 1c83 13       		.byte	0x13
 8830 1c84 CC050000 		.4byte	0x5cc
 8831 1c88 B11C0000 		.4byte	0x1cb1
 8832 1c8c 10       		.uleb128 0x10
 8833 1c8d 870D0000 		.4byte	.LASF181
 8834 1c91 1402     		.2byte	0x214
 8835 1c93 40       		.byte	0x40
ARM GAS  C:\Users\DEVELO~1\AppData\Local\Temp\cc15HDCU.s 			page 156


 8836 1c94 DA090000 		.4byte	0x9da
 8837 1c98 10       		.uleb128 0x10
 8838 1c99 89020000 		.4byte	.LASF128
 8839 1c9d 1402     		.2byte	0x214
 8840 1c9f 4E       		.byte	0x4e
 8841 1ca0 90000000 		.4byte	0x90
 8842 1ca4 0B       		.uleb128 0xb
 8843 1ca5 23040000 		.4byte	.LASF182
 8844 1ca9 1602     		.2byte	0x216
 8845 1cab 0C       		.byte	0xc
 8846 1cac AD000000 		.4byte	0xad
 8847 1cb0 00       		.byte	0
 8848 1cb1 05       		.uleb128 0x5
 8849 1cb2 650C0000 		.4byte	.LASF253
 8850 1cb6 E901     		.2byte	0x1e9
 8851 1cb8 13       		.byte	0x13
 8852 1cb9 CC050000 		.4byte	0x5cc
 8853 1cbd 00000000 		.4byte	.LFB148
 8854 1cc1 4A000000 		.4byte	.LFE148-.LFB148
 8855 1cc5 01       		.uleb128 0x1
 8856 1cc6 9C       		.byte	0x9c
 8857 1cc7 EE1C0000 		.4byte	0x1cee
 8858 1ccb 04       		.uleb128 0x4
 8859 1ccc 870D0000 		.4byte	.LASF181
 8860 1cd0 E901     		.2byte	0x1e9
 8861 1cd2 3A       		.byte	0x3a
 8862 1cd3 260B0000 		.4byte	0xb26
 8863 1cd7 89150000 		.4byte	.LLST15
 8864 1cdb 81150000 		.4byte	.LVUS15
 8865 1cdf 0F       		.uleb128 0xf
 8866 1ce0 0F030000 		.4byte	.LASF191
 8867 1ce4 EB01     		.2byte	0x1eb
 8868 1ce6 B9000000 		.4byte	0xb9
 8869 1cea 02       		.uleb128 0x2
 8870 1ceb 91       		.byte	0x91
 8871 1cec 7C       		.sleb128 -4
 8872 1ced 00       		.byte	0
 8873 1cee 05       		.uleb128 0x5
 8874 1cef E6000000 		.4byte	.LASF254
 8875 1cf3 C401     		.2byte	0x1c4
 8876 1cf5 13       		.byte	0x13
 8877 1cf6 CC050000 		.4byte	0x5cc
 8878 1cfa 00000000 		.4byte	.LFB147
 8879 1cfe 4E000000 		.4byte	.LFE147-.LFB147
 8880 1d02 01       		.uleb128 0x1
 8881 1d03 9C       		.byte	0x9c
 8882 1d04 3F1D0000 		.4byte	0x1d3f
 8883 1d08 04       		.uleb128 0x4
 8884 1d09 870D0000 		.4byte	.LASF181
 8885 1d0d C401     		.2byte	0x1c4
 8886 1d0f 3A       		.byte	0x3a
 8887 1d10 260B0000 		.4byte	0xb26
 8888 1d14 B1150000 		.4byte	.LLST13
 8889 1d18 A9150000 		.4byte	.LVUS13
 8890 1d1c 0C       		.uleb128 0xc
 8891 1d1d 6E756D00 		.ascii	"num\000"
 8892 1d21 C401     		.2byte	0x1c4
ARM GAS  C:\Users\DEVELO~1\AppData\Local\Temp\cc15HDCU.s 			page 157


 8893 1d23 49       		.byte	0x49
 8894 1d24 AD000000 		.4byte	0xad
 8895 1d28 D9150000 		.4byte	.LLST14
 8896 1d2c D1150000 		.4byte	.LVUS14
 8897 1d30 0F       		.uleb128 0xf
 8898 1d31 0F030000 		.4byte	.LASF191
 8899 1d35 C601     		.2byte	0x1c6
 8900 1d37 B9000000 		.4byte	0xb9
 8901 1d3b 02       		.uleb128 0x2
 8902 1d3c 91       		.byte	0x91
 8903 1d3d 7C       		.sleb128 -4
 8904 1d3e 00       		.byte	0
 8905 1d3f 05       		.uleb128 0x5
 8906 1d40 750C0000 		.4byte	.LASF255
 8907 1d44 2C01     		.2byte	0x12c
 8908 1d46 13       		.byte	0x13
 8909 1d47 CC050000 		.4byte	0x5cc
 8910 1d4b 00000000 		.4byte	.LFB146
 8911 1d4f 94010000 		.4byte	.LFE146-.LFB146
 8912 1d53 01       		.uleb128 0x1
 8913 1d54 9C       		.byte	0x9c
 8914 1d55 A41E0000 		.4byte	0x1ea4
 8915 1d59 04       		.uleb128 0x4
 8916 1d5a 870D0000 		.4byte	.LASF181
 8917 1d5e 2C01     		.2byte	0x12c
 8918 1d60 36       		.byte	0x36
 8919 1d61 260B0000 		.4byte	0xb26
 8920 1d65 03160000 		.4byte	.LLST16
 8921 1d69 F9150000 		.4byte	.LVUS16
 8922 1d6d 0C       		.uleb128 0xc
 8923 1d6e 63666700 		.ascii	"cfg\000"
 8924 1d72 2C01     		.2byte	0x12c
 8925 1d74 4F       		.byte	0x4f
 8926 1d75 5B090000 		.4byte	0x95b
 8927 1d79 32160000 		.4byte	.LLST17
 8928 1d7d 2C160000 		.4byte	.LVUS17
 8929 1d81 0E       		.uleb128 0xe
 8930 1d82 72657400 		.ascii	"ret\000"
 8931 1d86 2E01     		.2byte	0x12e
 8932 1d88 15       		.byte	0x15
 8933 1d89 CC050000 		.4byte	0x5cc
 8934 1d8d 68160000 		.4byte	.LLST18
 8935 1d91 60160000 		.4byte	.LVUS18
 8936 1d95 02       		.uleb128 0x2
 8937 1d96 23040000 		.4byte	.LASF182
 8938 1d9a 2F01     		.2byte	0x12f
 8939 1d9c 0C       		.byte	0xc
 8940 1d9d AD000000 		.4byte	0xad
 8941 1da1 99160000 		.4byte	.LLST19
 8942 1da5 8F160000 		.4byte	.LVUS19
 8943 1da9 0E       		.uleb128 0xe
 8944 1daa 6900     		.ascii	"i\000"
 8945 1dac 3001     		.2byte	0x130
 8946 1dae 0C       		.byte	0xc
 8947 1daf AD000000 		.4byte	0xad
 8948 1db3 DC160000 		.4byte	.LLST20
 8949 1db7 C2160000 		.4byte	.LVUS20
ARM GAS  C:\Users\DEVELO~1\AppData\Local\Temp\cc15HDCU.s 			page 158


 8950 1dbb 12       		.uleb128 0x12
 8951 1dbc 7C1C0000 		.4byte	0x1c7c
 8952 1dc0 66000000 		.4byte	.LBI28
 8953 1dc4 0100     		.2byte	.LVU320
 8954 1dc6 66000000 		.4byte	.LBB28
 8955 1dca 08000000 		.4byte	.LBE28-.LBB28
 8956 1dce 5C01     		.2byte	0x15c
 8957 1dd0 0B       		.byte	0xb
 8958 1dd1 FD1D0000 		.4byte	0x1dfd
 8959 1dd5 06       		.uleb128 0x6
 8960 1dd6 981C0000 		.4byte	0x1c98
 8961 1dda 3F170000 		.4byte	.LLST21
 8962 1dde 3D170000 		.4byte	.LVUS21
 8963 1de2 06       		.uleb128 0x6
 8964 1de3 8C1C0000 		.4byte	0x1c8c
 8965 1de7 4B170000 		.4byte	.LLST22
 8966 1deb 49170000 		.4byte	.LVUS22
 8967 1def 07       		.uleb128 0x7
 8968 1df0 A41C0000 		.4byte	0x1ca4
 8969 1df4 56170000 		.4byte	.LLST23
 8970 1df8 54170000 		.4byte	.LVUS23
 8971 1dfc 00       		.byte	0
 8972 1dfd 12       		.uleb128 0x12
 8973 1dfe 7C1C0000 		.4byte	0x1c7c
 8974 1e02 7A010000 		.4byte	.LBI30
 8975 1e06 0100     		.2byte	.LVU429
 8976 1e08 7A010000 		.4byte	.LBB30
 8977 1e0c 06000000 		.4byte	.LBE30-.LBB30
 8978 1e10 5101     		.2byte	0x151
 8979 1e12 0D       		.byte	0xd
 8980 1e13 3F1E0000 		.4byte	0x1e3f
 8981 1e17 06       		.uleb128 0x6
 8982 1e18 981C0000 		.4byte	0x1c98
 8983 1e1c 61170000 		.4byte	.LLST24
 8984 1e20 5F170000 		.4byte	.LVUS24
 8985 1e24 06       		.uleb128 0x6
 8986 1e25 8C1C0000 		.4byte	0x1c8c
 8987 1e29 6D170000 		.4byte	.LLST25
 8988 1e2d 6B170000 		.4byte	.LVUS25
 8989 1e31 07       		.uleb128 0x7
 8990 1e32 A41C0000 		.4byte	0x1ca4
 8991 1e36 78170000 		.4byte	.LLST26
 8992 1e3a 76170000 		.4byte	.LVUS26
 8993 1e3e 00       		.byte	0
 8994 1e3f 12       		.uleb128 0x12
 8995 1e40 7C1C0000 		.4byte	0x1c7c
 8996 1e44 80010000 		.4byte	.LBI32
 8997 1e48 0200     		.2byte	.LVU437
 8998 1e4a 80010000 		.4byte	.LBB32
 8999 1e4e 14000000 		.4byte	.LBE32-.LBB32
 9000 1e52 5601     		.2byte	0x156
 9001 1e54 0D       		.byte	0xd
 9002 1e55 7A1E0000 		.4byte	0x1e7a
 9003 1e59 3B       		.uleb128 0x3b
 9004 1e5a 981C0000 		.4byte	0x1c98
 9005 1e5e 01       		.byte	0x1
 9006 1e5f 06       		.uleb128 0x6
ARM GAS  C:\Users\DEVELO~1\AppData\Local\Temp\cc15HDCU.s 			page 159


 9007 1e60 8C1C0000 		.4byte	0x1c8c
 9008 1e64 83170000 		.4byte	.LLST27
 9009 1e68 81170000 		.4byte	.LVUS27
 9010 1e6c 07       		.uleb128 0x7
 9011 1e6d A41C0000 		.4byte	0x1ca4
 9012 1e71 8E170000 		.4byte	.LLST28
 9013 1e75 8C170000 		.4byte	.LVUS28
 9014 1e79 00       		.byte	0
 9015 1e7a 13       		.uleb128 0x13
 9016 1e7b 76000000 		.4byte	.LVL71
 9017 1e7f EE1C0000 		.4byte	0x1cee
 9018 1e83 931E0000 		.4byte	0x1e93
 9019 1e87 09       		.uleb128 0x9
 9020 1e88 01       		.uleb128 0x1
 9021 1e89 50       		.byte	0x50
 9022 1e8a 02       		.uleb128 0x2
 9023 1e8b 74       		.byte	0x74
 9024 1e8c 00       		.sleb128 0
 9025 1e8d 09       		.uleb128 0x9
 9026 1e8e 01       		.uleb128 0x1
 9027 1e8f 51       		.byte	0x51
 9028 1e90 01       		.uleb128 0x1
 9029 1e91 40       		.byte	0x40
 9030 1e92 00       		.byte	0
 9031 1e93 15       		.uleb128 0x15
 9032 1e94 7E000000 		.4byte	.LVL73
 9033 1e98 B11C0000 		.4byte	0x1cb1
 9034 1e9c 09       		.uleb128 0x9
 9035 1e9d 01       		.uleb128 0x1
 9036 1e9e 50       		.byte	0x50
 9037 1e9f 02       		.uleb128 0x2
 9038 1ea0 74       		.byte	0x74
 9039 1ea1 00       		.sleb128 0
 9040 1ea2 00       		.byte	0
 9041 1ea3 00       		.byte	0
 9042 1ea4 26       		.uleb128 0x26
 9043 1ea5 CB0C0000 		.4byte	.LASF256
 9044 1ea9 FD       		.byte	0xfd
 9045 1eaa CC050000 		.4byte	0x5cc
 9046 1eae 00000000 		.4byte	.LFB145
 9047 1eb2 6A000000 		.4byte	.LFE145-.LFB145
 9048 1eb6 01       		.uleb128 0x1
 9049 1eb7 9C       		.byte	0x9c
 9050 1eb8 671F0000 		.4byte	0x1f67
 9051 1ebc 16       		.uleb128 0x16
 9052 1ebd 870D0000 		.4byte	.LASF181
 9053 1ec1 FD       		.byte	0xfd
 9054 1ec2 3D       		.byte	0x3d
 9055 1ec3 260B0000 		.4byte	0xb26
 9056 1ec7 9F170000 		.4byte	.LLST8
 9057 1ecb 97170000 		.4byte	.LVUS8
 9058 1ecf 16       		.uleb128 0x16
 9059 1ed0 E7010000 		.4byte	.LASF257
 9060 1ed4 FD       		.byte	0xfd
 9061 1ed5 57       		.byte	0x57
 9062 1ed6 4F090000 		.4byte	0x94f
 9063 1eda C1170000 		.4byte	.LLST9
ARM GAS  C:\Users\DEVELO~1\AppData\Local\Temp\cc15HDCU.s 			page 160


 9064 1ede B9170000 		.4byte	.LVUS9
 9065 1ee2 2B       		.uleb128 0x2b
 9066 1ee3 6D7300   		.ascii	"ms\000"
 9067 1ee6 FF       		.byte	0xff
 9068 1ee7 0C       		.byte	0xc
 9069 1ee8 AD000000 		.4byte	0xad
 9070 1eec F1170000 		.4byte	.LLST10
 9071 1ef0 E1170000 		.4byte	.LVUS10
 9072 1ef4 12       		.uleb128 0x12
 9073 1ef5 B3120000 		.4byte	0x12b3
 9074 1ef9 2A000000 		.4byte	.LBI24
 9075 1efd 0200     		.2byte	.LVU192
 9076 1eff 2A000000 		.4byte	.LBB24
 9077 1f03 02000000 		.4byte	.LBE24-.LBB24
 9078 1f07 1501     		.2byte	0x115
 9079 1f09 0F       		.byte	0xf
 9080 1f0a 1C1F0000 		.4byte	0x1f1c
 9081 1f0e 06       		.uleb128 0x6
 9082 1f0f C3120000 		.4byte	0x12c3
 9083 1f13 27180000 		.4byte	.LLST11
 9084 1f17 25180000 		.4byte	.LVUS11
 9085 1f1b 00       		.byte	0
 9086 1f1c 12       		.uleb128 0x12
 9087 1f1d B3120000 		.4byte	0x12b3
 9088 1f21 58000000 		.4byte	.LBI26
 9089 1f25 0200     		.2byte	.LVU213
 9090 1f27 58000000 		.4byte	.LBB26
 9091 1f2b 02000000 		.4byte	.LBE26-.LBB26
 9092 1f2f 0B01     		.2byte	0x10b
 9093 1f31 0F       		.byte	0xf
 9094 1f32 441F0000 		.4byte	0x1f44
 9095 1f36 06       		.uleb128 0x6
 9096 1f37 C3120000 		.4byte	0x12c3
 9097 1f3b 32180000 		.4byte	.LLST12
 9098 1f3f 30180000 		.4byte	.LVUS12
 9099 1f43 00       		.byte	0
 9100 1f44 13       		.uleb128 0x13
 9101 1f45 2A000000 		.4byte	.LVL41
 9102 1f49 84090000 		.4byte	0x984
 9103 1f4d 571F0000 		.4byte	0x1f57
 9104 1f51 09       		.uleb128 0x9
 9105 1f52 01       		.uleb128 0x1
 9106 1f53 50       		.byte	0x50
 9107 1f54 01       		.uleb128 0x1
 9108 1f55 3A       		.byte	0x3a
 9109 1f56 00       		.byte	0
 9110 1f57 15       		.uleb128 0x15
 9111 1f58 58000000 		.4byte	.LVL49
 9112 1f5c 84090000 		.4byte	0x984
 9113 1f60 09       		.uleb128 0x9
 9114 1f61 01       		.uleb128 0x1
 9115 1f62 50       		.byte	0x50
 9116 1f63 01       		.uleb128 0x1
 9117 1f64 3A       		.byte	0x3a
 9118 1f65 00       		.byte	0
 9119 1f66 00       		.byte	0
 9120 1f67 2C       		.uleb128 0x2c
ARM GAS  C:\Users\DEVELO~1\AppData\Local\Temp\cc15HDCU.s 			page 161


 9121 1f68 9C0D0000 		.4byte	.LASF258
 9122 1f6c EE       		.byte	0xee
 9123 1f6d CC050000 		.4byte	0x5cc
 9124 1f71 811F0000 		.4byte	0x1f81
 9125 1f75 2D       		.uleb128 0x2d
 9126 1f76 870D0000 		.4byte	.LASF181
 9127 1f7a EE       		.byte	0xee
 9128 1f7b 3F       		.byte	0x3f
 9129 1f7c 260B0000 		.4byte	0xb26
 9130 1f80 00       		.byte	0
 9131 1f81 2C       		.uleb128 0x2c
 9132 1f82 A00A0000 		.4byte	.LASF259
 9133 1f86 E2       		.byte	0xe2
 9134 1f87 CC050000 		.4byte	0x5cc
 9135 1f8b 9B1F0000 		.4byte	0x1f9b
 9136 1f8f 2D       		.uleb128 0x2d
 9137 1f90 870D0000 		.4byte	.LASF181
 9138 1f94 E2       		.byte	0xe2
 9139 1f95 3E       		.byte	0x3e
 9140 1f96 260B0000 		.4byte	0xb26
 9141 1f9a 00       		.byte	0
 9142 1f9b 26       		.uleb128 0x26
 9143 1f9c 880B0000 		.4byte	.LASF260
 9144 1fa0 8F       		.byte	0x8f
 9145 1fa1 CC050000 		.4byte	0x5cc
 9146 1fa5 00000000 		.4byte	.LFB142
 9147 1fa9 F4000000 		.4byte	.LFE142-.LFB142
 9148 1fad 01       		.uleb128 0x1
 9149 1fae 9C       		.byte	0x9c
 9150 1faf F91F0000 		.4byte	0x1ff9
 9151 1fb3 16       		.uleb128 0x16
 9152 1fb4 870D0000 		.4byte	.LASF181
 9153 1fb8 8F       		.byte	0x8f
 9154 1fb9 40       		.byte	0x40
 9155 1fba 260B0000 		.4byte	0xb26
 9156 1fbe 43180000 		.4byte	.LLST3
 9157 1fc2 3B180000 		.4byte	.LVUS3
 9158 1fc6 16       		.uleb128 0x16
 9159 1fc7 36000000 		.4byte	.LASF261
 9160 1fcb 90       		.byte	0x90
 9161 1fcc 32       		.byte	0x32
 9162 1fcd AD000000 		.4byte	0xad
 9163 1fd1 82180000 		.4byte	.LLST4
 9164 1fd5 5E180000 		.4byte	.LVUS4
 9165 1fd9 16       		.uleb128 0x16
 9166 1fda 89020000 		.4byte	.LASF128
 9167 1fde 90       		.byte	0x90
 9168 1fdf 40       		.byte	0x40
 9169 1fe0 90000000 		.4byte	0x90
 9170 1fe4 22190000 		.4byte	.LLST5
 9171 1fe8 1A190000 		.4byte	.LVUS5
 9172 1fec 3C       		.uleb128 0x3c
 9173 1fed AF030000 		.4byte	.LASF262
 9174 1ff1 01       		.byte	0x1
 9175 1ff2 92       		.byte	0x92
 9176 1ff3 0C       		.byte	0xc
 9177 1ff4 AD000000 		.4byte	0xad
ARM GAS  C:\Users\DEVELO~1\AppData\Local\Temp\cc15HDCU.s 			page 162


 9178 1ff8 00       		.byte	0
 9179 1ff9 26       		.uleb128 0x26
 9180 1ffa 98040000 		.4byte	.LASF263
 9181 1ffe 53       		.byte	0x53
 9182 1fff CC050000 		.4byte	0x5cc
 9183 2003 00000000 		.4byte	.LFB141
 9184 2007 A4000000 		.4byte	.LFE141-.LFB141
 9185 200b 01       		.uleb128 0x1
 9186 200c 9C       		.byte	0x9c
 9187 200d 6B200000 		.4byte	0x206b
 9188 2011 16       		.uleb128 0x16
 9189 2012 870D0000 		.4byte	.LASF181
 9190 2016 53       		.byte	0x53
 9191 2017 37       		.byte	0x37
 9192 2018 260B0000 		.4byte	0xb26
 9193 201c 4F190000 		.4byte	.LLST1
 9194 2020 43190000 		.4byte	.LVUS1
 9195 2024 3D       		.uleb128 0x3d
 9196 2025 63666700 		.ascii	"cfg\000"
 9197 2029 01       		.byte	0x1
 9198 202a 53       		.byte	0x53
 9199 202b 50       		.byte	0x50
 9200 202c 5B090000 		.4byte	0x95b
 9201 2030 02       		.uleb128 0x2
 9202 2031 91       		.byte	0x91
 9203 2032 74       		.sleb128 -12
 9204 2033 2B       		.uleb128 0x2b
 9205 2034 72657400 		.ascii	"ret\000"
 9206 2038 55       		.byte	0x55
 9207 2039 15       		.byte	0x15
 9208 203a CC050000 		.4byte	0x5cc
 9209 203e 7D190000 		.4byte	.LLST2
 9210 2042 79190000 		.4byte	.LVUS2
 9211 2046 13       		.uleb128 0x13
 9212 2047 40000000 		.4byte	.LVL6
 9213 204b BA110000 		.4byte	0x11ba
 9214 204f 5A200000 		.4byte	0x205a
 9215 2053 09       		.uleb128 0x9
 9216 2054 01       		.uleb128 0x1
 9217 2055 50       		.byte	0x50
 9218 2056 02       		.uleb128 0x2
 9219 2057 74       		.byte	0x74
 9220 2058 00       		.sleb128 0
 9221 2059 00       		.byte	0
 9222 205a 15       		.uleb128 0x15
 9223 205b 7A000000 		.4byte	.LVL9
 9224 205f BA110000 		.4byte	0x11ba
 9225 2063 09       		.uleb128 0x9
 9226 2064 01       		.uleb128 0x1
 9227 2065 50       		.byte	0x50
 9228 2066 02       		.uleb128 0x2
 9229 2067 74       		.byte	0x74
 9230 2068 00       		.sleb128 0
 9231 2069 00       		.byte	0
 9232 206a 00       		.byte	0
 9233 206b 17       		.uleb128 0x17
 9234 206c 811F0000 		.4byte	0x1f81
ARM GAS  C:\Users\DEVELO~1\AppData\Local\Temp\cc15HDCU.s 			page 163


 9235 2070 00000000 		.4byte	.LFB143
 9236 2074 0E000000 		.4byte	.LFE143-.LFB143
 9237 2078 01       		.uleb128 0x1
 9238 2079 9C       		.byte	0x9c
 9239 207a 8C200000 		.4byte	0x208c
 9240 207e 06       		.uleb128 0x6
 9241 207f 8F1F0000 		.4byte	0x1f8f
 9242 2083 91190000 		.4byte	.LLST6
 9243 2087 8D190000 		.4byte	.LVUS6
 9244 208b 00       		.byte	0
 9245 208c 17       		.uleb128 0x17
 9246 208d 671F0000 		.4byte	0x1f67
 9247 2091 00000000 		.4byte	.LFB144
 9248 2095 0E000000 		.4byte	.LFE144-.LFB144
 9249 2099 01       		.uleb128 0x1
 9250 209a 9C       		.byte	0x9c
 9251 209b AD200000 		.4byte	0x20ad
 9252 209f 06       		.uleb128 0x6
 9253 20a0 751F0000 		.4byte	0x1f75
 9254 20a4 A5190000 		.4byte	.LLST7
 9255 20a8 A1190000 		.4byte	.LVUS7
 9256 20ac 00       		.byte	0
 9257 20ad 17       		.uleb128 0x17
 9258 20ae 7C1C0000 		.4byte	0x1c7c
 9259 20b2 00000000 		.4byte	.LFB149
 9260 20b6 10000000 		.4byte	.LFE149-.LFB149
 9261 20ba 01       		.uleb128 0x1
 9262 20bb 9C       		.byte	0x9c
 9263 20bc E8200000 		.4byte	0x20e8
 9264 20c0 06       		.uleb128 0x6
 9265 20c1 8C1C0000 		.4byte	0x1c8c
 9266 20c5 B9190000 		.4byte	.LLST29
 9267 20c9 B5190000 		.4byte	.LVUS29
 9268 20cd 06       		.uleb128 0x6
 9269 20ce 981C0000 		.4byte	0x1c98
 9270 20d2 CD190000 		.4byte	.LLST30
 9271 20d6 C9190000 		.4byte	.LVUS30
 9272 20da 07       		.uleb128 0x7
 9273 20db A41C0000 		.4byte	0x1ca4
 9274 20df E2190000 		.4byte	.LLST31
 9275 20e3 E0190000 		.4byte	.LVUS31
 9276 20e7 00       		.byte	0
 9277 20e8 17       		.uleb128 0x17
 9278 20e9 58180000 		.4byte	0x1858
 9279 20ed 00000000 		.4byte	.LFB157
 9280 20f1 28000000 		.4byte	.LFE157-.LFB157
 9281 20f5 01       		.uleb128 0x1
 9282 20f6 9C       		.byte	0x9c
 9283 20f7 71210000 		.4byte	0x2171
 9284 20fb 06       		.uleb128 0x6
 9285 20fc 68180000 		.4byte	0x1868
 9286 2100 EF190000 		.4byte	.LLST71
 9287 2104 EB190000 		.4byte	.LVUS71
 9288 2108 06       		.uleb128 0x6
 9289 2109 74180000 		.4byte	0x1874
 9290 210d 061A0000 		.4byte	.LLST72
 9291 2111 021A0000 		.4byte	.LVUS72
ARM GAS  C:\Users\DEVELO~1\AppData\Local\Temp\cc15HDCU.s 			page 164


 9292 2115 06       		.uleb128 0x6
 9293 2116 80180000 		.4byte	0x1880
 9294 211a 1D1A0000 		.4byte	.LLST73
 9295 211e 191A0000 		.4byte	.LVUS73
 9296 2122 06       		.uleb128 0x6
 9297 2123 8C180000 		.4byte	0x188c
 9298 2127 341A0000 		.4byte	.LLST74
 9299 212b 301A0000 		.4byte	.LVUS74
 9300 212f 06       		.uleb128 0x6
 9301 2130 98180000 		.4byte	0x1898
 9302 2134 4B1A0000 		.4byte	.LLST75
 9303 2138 471A0000 		.4byte	.LVUS75
 9304 213c 07       		.uleb128 0x7
 9305 213d A4180000 		.4byte	0x18a4
 9306 2141 611A0000 		.4byte	.LLST76
 9307 2145 5D1A0000 		.4byte	.LVUS76
 9308 2149 07       		.uleb128 0x7
 9309 214a B0180000 		.4byte	0x18b0
 9310 214e 801A0000 		.4byte	.LLST77
 9311 2152 741A0000 		.4byte	.LVUS77
 9312 2156 07       		.uleb128 0x7
 9313 2157 BC180000 		.4byte	0x18bc
 9314 215b B01A0000 		.4byte	.LLST78
 9315 215f AC1A0000 		.4byte	.LVUS78
 9316 2163 07       		.uleb128 0x7
 9317 2164 C8180000 		.4byte	0x18c8
 9318 2168 C61A0000 		.4byte	.LLST79
 9319 216c C41A0000 		.4byte	.LVUS79
 9320 2170 00       		.byte	0
 9321 2171 17       		.uleb128 0x17
 9322 2172 B3120000 		.4byte	0x12b3
 9323 2176 00000000 		.4byte	.LFB172
 9324 217a 08000000 		.4byte	.LFE172-.LFB172
 9325 217e 01       		.uleb128 0x1
 9326 217f 9C       		.byte	0x9c
 9327 2180 92210000 		.4byte	0x2192
 9328 2184 06       		.uleb128 0x6
 9329 2185 C3120000 		.4byte	0x12c3
 9330 2189 D41A0000 		.4byte	.LLST126
 9331 218d D01A0000 		.4byte	.LVUS126
 9332 2191 00       		.byte	0
 9333 2192 17       		.uleb128 0x17
 9334 2193 BB0F0000 		.4byte	0xfbb
 9335 2197 00000000 		.4byte	.LFB180
 9336 219b 16000000 		.4byte	.LFE180-.LFB180
 9337 219f 01       		.uleb128 0x1
 9338 21a0 9C       		.byte	0x9c
 9339 21a1 C8210000 		.4byte	0x21c8
 9340 21a5 06       		.uleb128 0x6
 9341 21a6 CB0F0000 		.4byte	0xfcb
 9342 21aa EB1A0000 		.4byte	.LLST143
 9343 21ae E71A0000 		.4byte	.LVUS143
 9344 21b2 07       		.uleb128 0x7
 9345 21b3 D70F0000 		.4byte	0xfd7
 9346 21b7 021B0000 		.4byte	.LLST144
 9347 21bb FE1A0000 		.4byte	.LVUS144
 9348 21bf 2A       		.uleb128 0x2a
ARM GAS  C:\Users\DEVELO~1\AppData\Local\Temp\cc15HDCU.s 			page 165


 9349 21c0 E30F0000 		.4byte	0xfe3
 9350 21c4 02       		.uleb128 0x2
 9351 21c5 91       		.byte	0x91
 9352 21c6 7C       		.sleb128 -4
 9353 21c7 00       		.byte	0
 9354 21c8 3E       		.uleb128 0x3e
 9355 21c9 2B0B0000 		.4byte	0xb2b
 9356 21cd 00000000 		.4byte	.LFB186
 9357 21d1 24000000 		.4byte	.LFE186-.LFB186
 9358 21d5 01       		.uleb128 0x1
 9359 21d6 9C       		.byte	0x9c
 9360 21d7 06       		.uleb128 0x6
 9361 21d8 3B0B0000 		.4byte	0xb3b
 9362 21dc 1B1B0000 		.4byte	.LLST192
 9363 21e0 151B0000 		.4byte	.LVUS192
 9364 21e4 06       		.uleb128 0x6
 9365 21e5 470B0000 		.4byte	0xb47
 9366 21e9 371B0000 		.4byte	.LLST193
 9367 21ed 331B0000 		.4byte	.LVUS193
 9368 21f1 07       		.uleb128 0x7
 9369 21f2 530B0000 		.4byte	0xb53
 9370 21f6 501B0000 		.4byte	.LLST194
 9371 21fa 4A1B0000 		.4byte	.LVUS194
 9372 21fe 07       		.uleb128 0x7
 9373 21ff 5F0B0000 		.4byte	0xb5f
 9374 2203 6A1B0000 		.4byte	.LLST195
 9375 2207 681B0000 		.4byte	.LVUS195
 9376 220b 3F       		.uleb128 0x3f
 9377 220c 6B0B0000 		.4byte	0xb6b
 9378 2210 01       		.byte	0x1
 9379 2211 07       		.uleb128 0x7
 9380 2212 770B0000 		.4byte	0xb77
 9381 2216 751B0000 		.4byte	.LLST196
 9382 221a 731B0000 		.4byte	.LVUS196
 9383 221e 00       		.byte	0
 9384 221f 00       		.byte	0
 9385              		.section	.debug_abbrev,"",%progbits
 9386              	.Ldebug_abbrev0:
 9387 0000 01       		.uleb128 0x1
 9388 0001 0D       		.uleb128 0xd
 9389 0002 00       		.byte	0
 9390 0003 03       		.uleb128 0x3
 9391 0004 0E       		.uleb128 0xe
 9392 0005 3A       		.uleb128 0x3a
 9393 0006 21       		.uleb128 0x21
 9394 0007 05       		.sleb128 5
 9395 0008 3B       		.uleb128 0x3b
 9396 0009 05       		.uleb128 0x5
 9397 000a 39       		.uleb128 0x39
 9398 000b 0B       		.uleb128 0xb
 9399 000c 49       		.uleb128 0x49
 9400 000d 13       		.uleb128 0x13
 9401 000e 38       		.uleb128 0x38
 9402 000f 0B       		.uleb128 0xb
 9403 0010 00       		.byte	0
 9404 0011 00       		.byte	0
 9405 0012 02       		.uleb128 0x2
ARM GAS  C:\Users\DEVELO~1\AppData\Local\Temp\cc15HDCU.s 			page 166


 9406 0013 34       		.uleb128 0x34
 9407 0014 00       		.byte	0
 9408 0015 03       		.uleb128 0x3
 9409 0016 0E       		.uleb128 0xe
 9410 0017 3A       		.uleb128 0x3a
 9411 0018 21       		.uleb128 0x21
 9412 0019 01       		.sleb128 1
 9413 001a 3B       		.uleb128 0x3b
 9414 001b 05       		.uleb128 0x5
 9415 001c 39       		.uleb128 0x39
 9416 001d 0B       		.uleb128 0xb
 9417 001e 49       		.uleb128 0x49
 9418 001f 13       		.uleb128 0x13
 9419 0020 02       		.uleb128 0x2
 9420 0021 17       		.uleb128 0x17
 9421 0022 B742     		.uleb128 0x2137
 9422 0024 17       		.uleb128 0x17
 9423 0025 00       		.byte	0
 9424 0026 00       		.byte	0
 9425 0027 03       		.uleb128 0x3
 9426 0028 0D       		.uleb128 0xd
 9427 0029 00       		.byte	0
 9428 002a 03       		.uleb128 0x3
 9429 002b 0E       		.uleb128 0xe
 9430 002c 3A       		.uleb128 0x3a
 9431 002d 21       		.uleb128 0x21
 9432 002e 07       		.sleb128 7
 9433 002f 3B       		.uleb128 0x3b
 9434 0030 0B       		.uleb128 0xb
 9435 0031 39       		.uleb128 0x39
 9436 0032 0B       		.uleb128 0xb
 9437 0033 49       		.uleb128 0x49
 9438 0034 13       		.uleb128 0x13
 9439 0035 38       		.uleb128 0x38
 9440 0036 0B       		.uleb128 0xb
 9441 0037 00       		.byte	0
 9442 0038 00       		.byte	0
 9443 0039 04       		.uleb128 0x4
 9444 003a 05       		.uleb128 0x5
 9445 003b 00       		.byte	0
 9446 003c 03       		.uleb128 0x3
 9447 003d 0E       		.uleb128 0xe
 9448 003e 3A       		.uleb128 0x3a
 9449 003f 21       		.uleb128 0x21
 9450 0040 01       		.sleb128 1
 9451 0041 3B       		.uleb128 0x3b
 9452 0042 05       		.uleb128 0x5
 9453 0043 39       		.uleb128 0x39
 9454 0044 0B       		.uleb128 0xb
 9455 0045 49       		.uleb128 0x49
 9456 0046 13       		.uleb128 0x13
 9457 0047 02       		.uleb128 0x2
 9458 0048 17       		.uleb128 0x17
 9459 0049 B742     		.uleb128 0x2137
 9460 004b 17       		.uleb128 0x17
 9461 004c 00       		.byte	0
 9462 004d 00       		.byte	0
ARM GAS  C:\Users\DEVELO~1\AppData\Local\Temp\cc15HDCU.s 			page 167


 9463 004e 05       		.uleb128 0x5
 9464 004f 2E       		.uleb128 0x2e
 9465 0050 01       		.byte	0x1
 9466 0051 3F       		.uleb128 0x3f
 9467 0052 19       		.uleb128 0x19
 9468 0053 03       		.uleb128 0x3
 9469 0054 0E       		.uleb128 0xe
 9470 0055 3A       		.uleb128 0x3a
 9471 0056 21       		.uleb128 0x21
 9472 0057 01       		.sleb128 1
 9473 0058 3B       		.uleb128 0x3b
 9474 0059 05       		.uleb128 0x5
 9475 005a 39       		.uleb128 0x39
 9476 005b 0B       		.uleb128 0xb
 9477 005c 27       		.uleb128 0x27
 9478 005d 19       		.uleb128 0x19
 9479 005e 49       		.uleb128 0x49
 9480 005f 13       		.uleb128 0x13
 9481 0060 11       		.uleb128 0x11
 9482 0061 01       		.uleb128 0x1
 9483 0062 12       		.uleb128 0x12
 9484 0063 06       		.uleb128 0x6
 9485 0064 40       		.uleb128 0x40
 9486 0065 18       		.uleb128 0x18
 9487 0066 7A       		.uleb128 0x7a
 9488 0067 19       		.uleb128 0x19
 9489 0068 01       		.uleb128 0x1
 9490 0069 13       		.uleb128 0x13
 9491 006a 00       		.byte	0
 9492 006b 00       		.byte	0
 9493 006c 06       		.uleb128 0x6
 9494 006d 05       		.uleb128 0x5
 9495 006e 00       		.byte	0
 9496 006f 31       		.uleb128 0x31
 9497 0070 13       		.uleb128 0x13
 9498 0071 02       		.uleb128 0x2
 9499 0072 17       		.uleb128 0x17
 9500 0073 B742     		.uleb128 0x2137
 9501 0075 17       		.uleb128 0x17
 9502 0076 00       		.byte	0
 9503 0077 00       		.byte	0
 9504 0078 07       		.uleb128 0x7
 9505 0079 34       		.uleb128 0x34
 9506 007a 00       		.byte	0
 9507 007b 31       		.uleb128 0x31
 9508 007c 13       		.uleb128 0x13
 9509 007d 02       		.uleb128 0x2
 9510 007e 17       		.uleb128 0x17
 9511 007f B742     		.uleb128 0x2137
 9512 0081 17       		.uleb128 0x17
 9513 0082 00       		.byte	0
 9514 0083 00       		.byte	0
 9515 0084 08       		.uleb128 0x8
 9516 0085 28       		.uleb128 0x28
 9517 0086 00       		.byte	0
 9518 0087 03       		.uleb128 0x3
 9519 0088 0E       		.uleb128 0xe
ARM GAS  C:\Users\DEVELO~1\AppData\Local\Temp\cc15HDCU.s 			page 168


 9520 0089 1C       		.uleb128 0x1c
 9521 008a 0B       		.uleb128 0xb
 9522 008b 00       		.byte	0
 9523 008c 00       		.byte	0
 9524 008d 09       		.uleb128 0x9
 9525 008e 49       		.uleb128 0x49
 9526 008f 00       		.byte	0
 9527 0090 02       		.uleb128 0x2
 9528 0091 18       		.uleb128 0x18
 9529 0092 7E       		.uleb128 0x7e
 9530 0093 18       		.uleb128 0x18
 9531 0094 00       		.byte	0
 9532 0095 00       		.byte	0
 9533 0096 0A       		.uleb128 0xa
 9534 0097 16       		.uleb128 0x16
 9535 0098 00       		.byte	0
 9536 0099 03       		.uleb128 0x3
 9537 009a 0E       		.uleb128 0xe
 9538 009b 3A       		.uleb128 0x3a
 9539 009c 0B       		.uleb128 0xb
 9540 009d 3B       		.uleb128 0x3b
 9541 009e 0B       		.uleb128 0xb
 9542 009f 39       		.uleb128 0x39
 9543 00a0 0B       		.uleb128 0xb
 9544 00a1 49       		.uleb128 0x49
 9545 00a2 13       		.uleb128 0x13
 9546 00a3 00       		.byte	0
 9547 00a4 00       		.byte	0
 9548 00a5 0B       		.uleb128 0xb
 9549 00a6 34       		.uleb128 0x34
 9550 00a7 00       		.byte	0
 9551 00a8 03       		.uleb128 0x3
 9552 00a9 0E       		.uleb128 0xe
 9553 00aa 3A       		.uleb128 0x3a
 9554 00ab 21       		.uleb128 0x21
 9555 00ac 01       		.sleb128 1
 9556 00ad 3B       		.uleb128 0x3b
 9557 00ae 05       		.uleb128 0x5
 9558 00af 39       		.uleb128 0x39
 9559 00b0 0B       		.uleb128 0xb
 9560 00b1 49       		.uleb128 0x49
 9561 00b2 13       		.uleb128 0x13
 9562 00b3 00       		.byte	0
 9563 00b4 00       		.byte	0
 9564 00b5 0C       		.uleb128 0xc
 9565 00b6 05       		.uleb128 0x5
 9566 00b7 00       		.byte	0
 9567 00b8 03       		.uleb128 0x3
 9568 00b9 08       		.uleb128 0x8
 9569 00ba 3A       		.uleb128 0x3a
 9570 00bb 21       		.uleb128 0x21
 9571 00bc 01       		.sleb128 1
 9572 00bd 3B       		.uleb128 0x3b
 9573 00be 05       		.uleb128 0x5
 9574 00bf 39       		.uleb128 0x39
 9575 00c0 0B       		.uleb128 0xb
 9576 00c1 49       		.uleb128 0x49
ARM GAS  C:\Users\DEVELO~1\AppData\Local\Temp\cc15HDCU.s 			page 169


 9577 00c2 13       		.uleb128 0x13
 9578 00c3 02       		.uleb128 0x2
 9579 00c4 17       		.uleb128 0x17
 9580 00c5 B742     		.uleb128 0x2137
 9581 00c7 17       		.uleb128 0x17
 9582 00c8 00       		.byte	0
 9583 00c9 00       		.byte	0
 9584 00ca 0D       		.uleb128 0xd
 9585 00cb 24       		.uleb128 0x24
 9586 00cc 00       		.byte	0
 9587 00cd 0B       		.uleb128 0xb
 9588 00ce 0B       		.uleb128 0xb
 9589 00cf 3E       		.uleb128 0x3e
 9590 00d0 0B       		.uleb128 0xb
 9591 00d1 03       		.uleb128 0x3
 9592 00d2 0E       		.uleb128 0xe
 9593 00d3 00       		.byte	0
 9594 00d4 00       		.byte	0
 9595 00d5 0E       		.uleb128 0xe
 9596 00d6 34       		.uleb128 0x34
 9597 00d7 00       		.byte	0
 9598 00d8 03       		.uleb128 0x3
 9599 00d9 08       		.uleb128 0x8
 9600 00da 3A       		.uleb128 0x3a
 9601 00db 21       		.uleb128 0x21
 9602 00dc 01       		.sleb128 1
 9603 00dd 3B       		.uleb128 0x3b
 9604 00de 05       		.uleb128 0x5
 9605 00df 39       		.uleb128 0x39
 9606 00e0 0B       		.uleb128 0xb
 9607 00e1 49       		.uleb128 0x49
 9608 00e2 13       		.uleb128 0x13
 9609 00e3 02       		.uleb128 0x2
 9610 00e4 17       		.uleb128 0x17
 9611 00e5 B742     		.uleb128 0x2137
 9612 00e7 17       		.uleb128 0x17
 9613 00e8 00       		.byte	0
 9614 00e9 00       		.byte	0
 9615 00ea 0F       		.uleb128 0xf
 9616 00eb 34       		.uleb128 0x34
 9617 00ec 00       		.byte	0
 9618 00ed 03       		.uleb128 0x3
 9619 00ee 0E       		.uleb128 0xe
 9620 00ef 3A       		.uleb128 0x3a
 9621 00f0 21       		.uleb128 0x21
 9622 00f1 01       		.sleb128 1
 9623 00f2 3B       		.uleb128 0x3b
 9624 00f3 05       		.uleb128 0x5
 9625 00f4 39       		.uleb128 0x39
 9626 00f5 21       		.uleb128 0x21
 9627 00f6 11       		.sleb128 17
 9628 00f7 49       		.uleb128 0x49
 9629 00f8 13       		.uleb128 0x13
 9630 00f9 02       		.uleb128 0x2
 9631 00fa 18       		.uleb128 0x18
 9632 00fb 00       		.byte	0
 9633 00fc 00       		.byte	0
ARM GAS  C:\Users\DEVELO~1\AppData\Local\Temp\cc15HDCU.s 			page 170


 9634 00fd 10       		.uleb128 0x10
 9635 00fe 05       		.uleb128 0x5
 9636 00ff 00       		.byte	0
 9637 0100 03       		.uleb128 0x3
 9638 0101 0E       		.uleb128 0xe
 9639 0102 3A       		.uleb128 0x3a
 9640 0103 21       		.uleb128 0x21
 9641 0104 01       		.sleb128 1
 9642 0105 3B       		.uleb128 0x3b
 9643 0106 05       		.uleb128 0x5
 9644 0107 39       		.uleb128 0x39
 9645 0108 0B       		.uleb128 0xb
 9646 0109 49       		.uleb128 0x49
 9647 010a 13       		.uleb128 0x13
 9648 010b 00       		.byte	0
 9649 010c 00       		.byte	0
 9650 010d 11       		.uleb128 0x11
 9651 010e 0F       		.uleb128 0xf
 9652 010f 00       		.byte	0
 9653 0110 0B       		.uleb128 0xb
 9654 0111 21       		.uleb128 0x21
 9655 0112 04       		.sleb128 4
 9656 0113 49       		.uleb128 0x49
 9657 0114 13       		.uleb128 0x13
 9658 0115 00       		.byte	0
 9659 0116 00       		.byte	0
 9660 0117 12       		.uleb128 0x12
 9661 0118 1D       		.uleb128 0x1d
 9662 0119 01       		.byte	0x1
 9663 011a 31       		.uleb128 0x31
 9664 011b 13       		.uleb128 0x13
 9665 011c 52       		.uleb128 0x52
 9666 011d 01       		.uleb128 0x1
 9667 011e B842     		.uleb128 0x2138
 9668 0120 05       		.uleb128 0x5
 9669 0121 11       		.uleb128 0x11
 9670 0122 01       		.uleb128 0x1
 9671 0123 12       		.uleb128 0x12
 9672 0124 06       		.uleb128 0x6
 9673 0125 58       		.uleb128 0x58
 9674 0126 21       		.uleb128 0x21
 9675 0127 01       		.sleb128 1
 9676 0128 59       		.uleb128 0x59
 9677 0129 05       		.uleb128 0x5
 9678 012a 57       		.uleb128 0x57
 9679 012b 0B       		.uleb128 0xb
 9680 012c 01       		.uleb128 0x1
 9681 012d 13       		.uleb128 0x13
 9682 012e 00       		.byte	0
 9683 012f 00       		.byte	0
 9684 0130 13       		.uleb128 0x13
 9685 0131 48       		.uleb128 0x48
 9686 0132 01       		.byte	0x1
 9687 0133 7D       		.uleb128 0x7d
 9688 0134 01       		.uleb128 0x1
 9689 0135 7F       		.uleb128 0x7f
 9690 0136 13       		.uleb128 0x13
ARM GAS  C:\Users\DEVELO~1\AppData\Local\Temp\cc15HDCU.s 			page 171


 9691 0137 01       		.uleb128 0x1
 9692 0138 13       		.uleb128 0x13
 9693 0139 00       		.byte	0
 9694 013a 00       		.byte	0
 9695 013b 14       		.uleb128 0x14
 9696 013c 16       		.uleb128 0x16
 9697 013d 00       		.byte	0
 9698 013e 03       		.uleb128 0x3
 9699 013f 0E       		.uleb128 0xe
 9700 0140 3A       		.uleb128 0x3a
 9701 0141 21       		.uleb128 0x21
 9702 0142 05       		.sleb128 5
 9703 0143 3B       		.uleb128 0x3b
 9704 0144 05       		.uleb128 0x5
 9705 0145 39       		.uleb128 0x39
 9706 0146 21       		.uleb128 0x21
 9707 0147 03       		.sleb128 3
 9708 0148 49       		.uleb128 0x49
 9709 0149 13       		.uleb128 0x13
 9710 014a 00       		.byte	0
 9711 014b 00       		.byte	0
 9712 014c 15       		.uleb128 0x15
 9713 014d 48       		.uleb128 0x48
 9714 014e 01       		.byte	0x1
 9715 014f 7D       		.uleb128 0x7d
 9716 0150 01       		.uleb128 0x1
 9717 0151 7F       		.uleb128 0x7f
 9718 0152 13       		.uleb128 0x13
 9719 0153 00       		.byte	0
 9720 0154 00       		.byte	0
 9721 0155 16       		.uleb128 0x16
 9722 0156 05       		.uleb128 0x5
 9723 0157 00       		.byte	0
 9724 0158 03       		.uleb128 0x3
 9725 0159 0E       		.uleb128 0xe
 9726 015a 3A       		.uleb128 0x3a
 9727 015b 21       		.uleb128 0x21
 9728 015c 01       		.sleb128 1
 9729 015d 3B       		.uleb128 0x3b
 9730 015e 0B       		.uleb128 0xb
 9731 015f 39       		.uleb128 0x39
 9732 0160 0B       		.uleb128 0xb
 9733 0161 49       		.uleb128 0x49
 9734 0162 13       		.uleb128 0x13
 9735 0163 02       		.uleb128 0x2
 9736 0164 17       		.uleb128 0x17
 9737 0165 B742     		.uleb128 0x2137
 9738 0167 17       		.uleb128 0x17
 9739 0168 00       		.byte	0
 9740 0169 00       		.byte	0
 9741 016a 17       		.uleb128 0x17
 9742 016b 2E       		.uleb128 0x2e
 9743 016c 01       		.byte	0x1
 9744 016d 31       		.uleb128 0x31
 9745 016e 13       		.uleb128 0x13
 9746 016f 11       		.uleb128 0x11
 9747 0170 01       		.uleb128 0x1
ARM GAS  C:\Users\DEVELO~1\AppData\Local\Temp\cc15HDCU.s 			page 172


 9748 0171 12       		.uleb128 0x12
 9749 0172 06       		.uleb128 0x6
 9750 0173 40       		.uleb128 0x40
 9751 0174 18       		.uleb128 0x18
 9752 0175 7A       		.uleb128 0x7a
 9753 0176 19       		.uleb128 0x19
 9754 0177 01       		.uleb128 0x1
 9755 0178 13       		.uleb128 0x13
 9756 0179 00       		.byte	0
 9757 017a 00       		.byte	0
 9758 017b 18       		.uleb128 0x18
 9759 017c 13       		.uleb128 0x13
 9760 017d 01       		.byte	0x1
 9761 017e 0B       		.uleb128 0xb
 9762 017f 0B       		.uleb128 0xb
 9763 0180 3A       		.uleb128 0x3a
 9764 0181 21       		.uleb128 0x21
 9765 0182 05       		.sleb128 5
 9766 0183 3B       		.uleb128 0x3b
 9767 0184 05       		.uleb128 0x5
 9768 0185 39       		.uleb128 0x39
 9769 0186 21       		.uleb128 0x21
 9770 0187 09       		.sleb128 9
 9771 0188 01       		.uleb128 0x1
 9772 0189 13       		.uleb128 0x13
 9773 018a 00       		.byte	0
 9774 018b 00       		.byte	0
 9775 018c 19       		.uleb128 0x19
 9776 018d 2E       		.uleb128 0x2e
 9777 018e 01       		.byte	0x1
 9778 018f 3F       		.uleb128 0x3f
 9779 0190 19       		.uleb128 0x19
 9780 0191 03       		.uleb128 0x3
 9781 0192 0E       		.uleb128 0xe
 9782 0193 3A       		.uleb128 0x3a
 9783 0194 21       		.uleb128 0x21
 9784 0195 01       		.sleb128 1
 9785 0196 3B       		.uleb128 0x3b
 9786 0197 05       		.uleb128 0x5
 9787 0198 39       		.uleb128 0x39
 9788 0199 0B       		.uleb128 0xb
 9789 019a 27       		.uleb128 0x27
 9790 019b 19       		.uleb128 0x19
 9791 019c 49       		.uleb128 0x49
 9792 019d 13       		.uleb128 0x13
 9793 019e 20       		.uleb128 0x20
 9794 019f 21       		.uleb128 0x21
 9795 01a0 01       		.sleb128 1
 9796 01a1 01       		.uleb128 0x1
 9797 01a2 13       		.uleb128 0x13
 9798 01a3 00       		.byte	0
 9799 01a4 00       		.byte	0
 9800 01a5 1A       		.uleb128 0x1a
 9801 01a6 05       		.uleb128 0x5
 9802 01a7 00       		.byte	0
 9803 01a8 03       		.uleb128 0x3
 9804 01a9 0E       		.uleb128 0xe
ARM GAS  C:\Users\DEVELO~1\AppData\Local\Temp\cc15HDCU.s 			page 173


 9805 01aa 3A       		.uleb128 0x3a
 9806 01ab 21       		.uleb128 0x21
 9807 01ac 01       		.sleb128 1
 9808 01ad 3B       		.uleb128 0x3b
 9809 01ae 05       		.uleb128 0x5
 9810 01af 39       		.uleb128 0x39
 9811 01b0 0B       		.uleb128 0xb
 9812 01b1 49       		.uleb128 0x49
 9813 01b2 13       		.uleb128 0x13
 9814 01b3 02       		.uleb128 0x2
 9815 01b4 18       		.uleb128 0x18
 9816 01b5 00       		.byte	0
 9817 01b6 00       		.byte	0
 9818 01b7 1B       		.uleb128 0x1b
 9819 01b8 01       		.uleb128 0x1
 9820 01b9 01       		.byte	0x1
 9821 01ba 49       		.uleb128 0x49
 9822 01bb 13       		.uleb128 0x13
 9823 01bc 01       		.uleb128 0x1
 9824 01bd 13       		.uleb128 0x13
 9825 01be 00       		.byte	0
 9826 01bf 00       		.byte	0
 9827 01c0 1C       		.uleb128 0x1c
 9828 01c1 21       		.uleb128 0x21
 9829 01c2 00       		.byte	0
 9830 01c3 49       		.uleb128 0x49
 9831 01c4 13       		.uleb128 0x13
 9832 01c5 2F       		.uleb128 0x2f
 9833 01c6 0B       		.uleb128 0xb
 9834 01c7 00       		.byte	0
 9835 01c8 00       		.byte	0
 9836 01c9 1D       		.uleb128 0x1d
 9837 01ca 04       		.uleb128 0x4
 9838 01cb 01       		.byte	0x1
 9839 01cc 3E       		.uleb128 0x3e
 9840 01cd 21       		.uleb128 0x21
 9841 01ce 07       		.sleb128 7
 9842 01cf 0B       		.uleb128 0xb
 9843 01d0 21       		.uleb128 0x21
 9844 01d1 01       		.sleb128 1
 9845 01d2 49       		.uleb128 0x49
 9846 01d3 13       		.uleb128 0x13
 9847 01d4 3A       		.uleb128 0x3a
 9848 01d5 0B       		.uleb128 0xb
 9849 01d6 3B       		.uleb128 0x3b
 9850 01d7 0B       		.uleb128 0xb
 9851 01d8 39       		.uleb128 0x39
 9852 01d9 21       		.uleb128 0x21
 9853 01da 01       		.sleb128 1
 9854 01db 01       		.uleb128 0x1
 9855 01dc 13       		.uleb128 0x13
 9856 01dd 00       		.byte	0
 9857 01de 00       		.byte	0
 9858 01df 1E       		.uleb128 0x1e
 9859 01e0 0B       		.uleb128 0xb
 9860 01e1 01       		.byte	0x1
 9861 01e2 55       		.uleb128 0x55
ARM GAS  C:\Users\DEVELO~1\AppData\Local\Temp\cc15HDCU.s 			page 174


 9862 01e3 17       		.uleb128 0x17
 9863 01e4 00       		.byte	0
 9864 01e5 00       		.byte	0
 9865 01e6 1F       		.uleb128 0x1f
 9866 01e7 26       		.uleb128 0x26
 9867 01e8 00       		.byte	0
 9868 01e9 49       		.uleb128 0x49
 9869 01ea 13       		.uleb128 0x13
 9870 01eb 00       		.byte	0
 9871 01ec 00       		.byte	0
 9872 01ed 20       		.uleb128 0x20
 9873 01ee 0D       		.uleb128 0xd
 9874 01ef 00       		.byte	0
 9875 01f0 03       		.uleb128 0x3
 9876 01f1 08       		.uleb128 0x8
 9877 01f2 3A       		.uleb128 0x3a
 9878 01f3 0B       		.uleb128 0xb
 9879 01f4 3B       		.uleb128 0x3b
 9880 01f5 0B       		.uleb128 0xb
 9881 01f6 39       		.uleb128 0x39
 9882 01f7 0B       		.uleb128 0xb
 9883 01f8 49       		.uleb128 0x49
 9884 01f9 13       		.uleb128 0x13
 9885 01fa 38       		.uleb128 0x38
 9886 01fb 21       		.uleb128 0x21
 9887 01fc 00       		.sleb128 0
 9888 01fd 00       		.byte	0
 9889 01fe 00       		.byte	0
 9890 01ff 21       		.uleb128 0x21
 9891 0200 13       		.uleb128 0x13
 9892 0201 01       		.byte	0x1
 9893 0202 0B       		.uleb128 0xb
 9894 0203 0B       		.uleb128 0xb
 9895 0204 3A       		.uleb128 0x3a
 9896 0205 21       		.uleb128 0x21
 9897 0206 07       		.sleb128 7
 9898 0207 3B       		.uleb128 0x3b
 9899 0208 0B       		.uleb128 0xb
 9900 0209 39       		.uleb128 0x39
 9901 020a 21       		.uleb128 0x21
 9902 020b 09       		.sleb128 9
 9903 020c 01       		.uleb128 0x1
 9904 020d 13       		.uleb128 0x13
 9905 020e 00       		.byte	0
 9906 020f 00       		.byte	0
 9907 0210 22       		.uleb128 0x22
 9908 0211 1D       		.uleb128 0x1d
 9909 0212 01       		.byte	0x1
 9910 0213 31       		.uleb128 0x31
 9911 0214 13       		.uleb128 0x13
 9912 0215 52       		.uleb128 0x52
 9913 0216 01       		.uleb128 0x1
 9914 0217 B842     		.uleb128 0x2138
 9915 0219 05       		.uleb128 0x5
 9916 021a 55       		.uleb128 0x55
 9917 021b 17       		.uleb128 0x17
 9918 021c 58       		.uleb128 0x58
ARM GAS  C:\Users\DEVELO~1\AppData\Local\Temp\cc15HDCU.s 			page 175


 9919 021d 21       		.uleb128 0x21
 9920 021e 01       		.sleb128 1
 9921 021f 59       		.uleb128 0x59
 9922 0220 05       		.uleb128 0x5
 9923 0221 57       		.uleb128 0x57
 9924 0222 0B       		.uleb128 0xb
 9925 0223 00       		.byte	0
 9926 0224 00       		.byte	0
 9927 0225 23       		.uleb128 0x23
 9928 0226 05       		.uleb128 0x5
 9929 0227 00       		.byte	0
 9930 0228 31       		.uleb128 0x31
 9931 0229 13       		.uleb128 0x13
 9932 022a 00       		.byte	0
 9933 022b 00       		.byte	0
 9934 022c 24       		.uleb128 0x24
 9935 022d 05       		.uleb128 0x5
 9936 022e 00       		.byte	0
 9937 022f 03       		.uleb128 0x3
 9938 0230 08       		.uleb128 0x8
 9939 0231 3A       		.uleb128 0x3a
 9940 0232 21       		.uleb128 0x21
 9941 0233 01       		.sleb128 1
 9942 0234 3B       		.uleb128 0x3b
 9943 0235 05       		.uleb128 0x5
 9944 0236 39       		.uleb128 0x39
 9945 0237 0B       		.uleb128 0xb
 9946 0238 49       		.uleb128 0x49
 9947 0239 13       		.uleb128 0x13
 9948 023a 02       		.uleb128 0x2
 9949 023b 18       		.uleb128 0x18
 9950 023c 00       		.byte	0
 9951 023d 00       		.byte	0
 9952 023e 25       		.uleb128 0x25
 9953 023f 05       		.uleb128 0x5
 9954 0240 00       		.byte	0
 9955 0241 03       		.uleb128 0x3
 9956 0242 08       		.uleb128 0x8
 9957 0243 3A       		.uleb128 0x3a
 9958 0244 21       		.uleb128 0x21
 9959 0245 01       		.sleb128 1
 9960 0246 3B       		.uleb128 0x3b
 9961 0247 05       		.uleb128 0x5
 9962 0248 39       		.uleb128 0x39
 9963 0249 0B       		.uleb128 0xb
 9964 024a 49       		.uleb128 0x49
 9965 024b 13       		.uleb128 0x13
 9966 024c 00       		.byte	0
 9967 024d 00       		.byte	0
 9968 024e 26       		.uleb128 0x26
 9969 024f 2E       		.uleb128 0x2e
 9970 0250 01       		.byte	0x1
 9971 0251 3F       		.uleb128 0x3f
 9972 0252 19       		.uleb128 0x19
 9973 0253 03       		.uleb128 0x3
 9974 0254 0E       		.uleb128 0xe
 9975 0255 3A       		.uleb128 0x3a
ARM GAS  C:\Users\DEVELO~1\AppData\Local\Temp\cc15HDCU.s 			page 176


 9976 0256 21       		.uleb128 0x21
 9977 0257 01       		.sleb128 1
 9978 0258 3B       		.uleb128 0x3b
 9979 0259 0B       		.uleb128 0xb
 9980 025a 39       		.uleb128 0x39
 9981 025b 21       		.uleb128 0x21
 9982 025c 13       		.sleb128 19
 9983 025d 27       		.uleb128 0x27
 9984 025e 19       		.uleb128 0x19
 9985 025f 49       		.uleb128 0x49
 9986 0260 13       		.uleb128 0x13
 9987 0261 11       		.uleb128 0x11
 9988 0262 01       		.uleb128 0x1
 9989 0263 12       		.uleb128 0x12
 9990 0264 06       		.uleb128 0x6
 9991 0265 40       		.uleb128 0x40
 9992 0266 18       		.uleb128 0x18
 9993 0267 7A       		.uleb128 0x7a
 9994 0268 19       		.uleb128 0x19
 9995 0269 01       		.uleb128 0x1
 9996 026a 13       		.uleb128 0x13
 9997 026b 00       		.byte	0
 9998 026c 00       		.byte	0
 9999 026d 27       		.uleb128 0x27
 10000 026e 35       		.uleb128 0x35
 10001 026f 00       		.byte	0
 10002 0270 49       		.uleb128 0x49
 10003 0271 13       		.uleb128 0x13
 10004 0272 00       		.byte	0
 10005 0273 00       		.byte	0
 10006 0274 28       		.uleb128 0x28
 10007 0275 13       		.uleb128 0x13
 10008 0276 01       		.byte	0x1
 10009 0277 03       		.uleb128 0x3
 10010 0278 0E       		.uleb128 0xe
 10011 0279 0B       		.uleb128 0xb
 10012 027a 21       		.uleb128 0x21
 10013 027b 04       		.sleb128 4
 10014 027c 8801     		.uleb128 0x88
 10015 027e 21       		.uleb128 0x21
 10016 027f 01       		.sleb128 1
 10017 0280 3A       		.uleb128 0x3a
 10018 0281 21       		.uleb128 0x21
 10019 0282 04       		.sleb128 4
 10020 0283 3B       		.uleb128 0x3b
 10021 0284 0B       		.uleb128 0xb
 10022 0285 39       		.uleb128 0x39
 10023 0286 21       		.uleb128 0x21
 10024 0287 13       		.sleb128 19
 10025 0288 01       		.uleb128 0x1
 10026 0289 13       		.uleb128 0x13
 10027 028a 00       		.byte	0
 10028 028b 00       		.byte	0
 10029 028c 29       		.uleb128 0x29
 10030 028d 0D       		.uleb128 0xd
 10031 028e 00       		.byte	0
 10032 028f 03       		.uleb128 0x3
ARM GAS  C:\Users\DEVELO~1\AppData\Local\Temp\cc15HDCU.s 			page 177


 10033 0290 0E       		.uleb128 0xe
 10034 0291 3A       		.uleb128 0x3a
 10035 0292 21       		.uleb128 0x21
 10036 0293 05       		.sleb128 5
 10037 0294 3B       		.uleb128 0x3b
 10038 0295 05       		.uleb128 0x5
 10039 0296 39       		.uleb128 0x39
 10040 0297 21       		.uleb128 0x21
 10041 0298 11       		.sleb128 17
 10042 0299 49       		.uleb128 0x49
 10043 029a 13       		.uleb128 0x13
 10044 029b 38       		.uleb128 0x38
 10045 029c 05       		.uleb128 0x5
 10046 029d 00       		.byte	0
 10047 029e 00       		.byte	0
 10048 029f 2A       		.uleb128 0x2a
 10049 02a0 34       		.uleb128 0x34
 10050 02a1 00       		.byte	0
 10051 02a2 31       		.uleb128 0x31
 10052 02a3 13       		.uleb128 0x13
 10053 02a4 02       		.uleb128 0x2
 10054 02a5 18       		.uleb128 0x18
 10055 02a6 00       		.byte	0
 10056 02a7 00       		.byte	0
 10057 02a8 2B       		.uleb128 0x2b
 10058 02a9 34       		.uleb128 0x34
 10059 02aa 00       		.byte	0
 10060 02ab 03       		.uleb128 0x3
 10061 02ac 08       		.uleb128 0x8
 10062 02ad 3A       		.uleb128 0x3a
 10063 02ae 21       		.uleb128 0x21
 10064 02af 01       		.sleb128 1
 10065 02b0 3B       		.uleb128 0x3b
 10066 02b1 0B       		.uleb128 0xb
 10067 02b2 39       		.uleb128 0x39
 10068 02b3 0B       		.uleb128 0xb
 10069 02b4 49       		.uleb128 0x49
 10070 02b5 13       		.uleb128 0x13
 10071 02b6 02       		.uleb128 0x2
 10072 02b7 17       		.uleb128 0x17
 10073 02b8 B742     		.uleb128 0x2137
 10074 02ba 17       		.uleb128 0x17
 10075 02bb 00       		.byte	0
 10076 02bc 00       		.byte	0
 10077 02bd 2C       		.uleb128 0x2c
 10078 02be 2E       		.uleb128 0x2e
 10079 02bf 01       		.byte	0x1
 10080 02c0 3F       		.uleb128 0x3f
 10081 02c1 19       		.uleb128 0x19
 10082 02c2 03       		.uleb128 0x3
 10083 02c3 0E       		.uleb128 0xe
 10084 02c4 3A       		.uleb128 0x3a
 10085 02c5 21       		.uleb128 0x21
 10086 02c6 01       		.sleb128 1
 10087 02c7 3B       		.uleb128 0x3b
 10088 02c8 0B       		.uleb128 0xb
 10089 02c9 39       		.uleb128 0x39
ARM GAS  C:\Users\DEVELO~1\AppData\Local\Temp\cc15HDCU.s 			page 178


 10090 02ca 21       		.uleb128 0x21
 10091 02cb 13       		.sleb128 19
 10092 02cc 27       		.uleb128 0x27
 10093 02cd 19       		.uleb128 0x19
 10094 02ce 49       		.uleb128 0x49
 10095 02cf 13       		.uleb128 0x13
 10096 02d0 20       		.uleb128 0x20
 10097 02d1 21       		.uleb128 0x21
 10098 02d2 01       		.sleb128 1
 10099 02d3 01       		.uleb128 0x1
 10100 02d4 13       		.uleb128 0x13
 10101 02d5 00       		.byte	0
 10102 02d6 00       		.byte	0
 10103 02d7 2D       		.uleb128 0x2d
 10104 02d8 05       		.uleb128 0x5
 10105 02d9 00       		.byte	0
 10106 02da 03       		.uleb128 0x3
 10107 02db 0E       		.uleb128 0xe
 10108 02dc 3A       		.uleb128 0x3a
 10109 02dd 21       		.uleb128 0x21
 10110 02de 01       		.sleb128 1
 10111 02df 3B       		.uleb128 0x3b
 10112 02e0 0B       		.uleb128 0xb
 10113 02e1 39       		.uleb128 0x39
 10114 02e2 0B       		.uleb128 0xb
 10115 02e3 49       		.uleb128 0x49
 10116 02e4 13       		.uleb128 0x13
 10117 02e5 00       		.byte	0
 10118 02e6 00       		.byte	0
 10119 02e7 2E       		.uleb128 0x2e
 10120 02e8 11       		.uleb128 0x11
 10121 02e9 01       		.byte	0x1
 10122 02ea 25       		.uleb128 0x25
 10123 02eb 0E       		.uleb128 0xe
 10124 02ec 13       		.uleb128 0x13
 10125 02ed 0B       		.uleb128 0xb
 10126 02ee 03       		.uleb128 0x3
 10127 02ef 0E       		.uleb128 0xe
 10128 02f0 1B       		.uleb128 0x1b
 10129 02f1 0E       		.uleb128 0xe
 10130 02f2 55       		.uleb128 0x55
 10131 02f3 17       		.uleb128 0x17
 10132 02f4 11       		.uleb128 0x11
 10133 02f5 01       		.uleb128 0x1
 10134 02f6 10       		.uleb128 0x10
 10135 02f7 17       		.uleb128 0x17
 10136 02f8 00       		.byte	0
 10137 02f9 00       		.byte	0
 10138 02fa 2F       		.uleb128 0x2f
 10139 02fb 24       		.uleb128 0x24
 10140 02fc 00       		.byte	0
 10141 02fd 0B       		.uleb128 0xb
 10142 02fe 0B       		.uleb128 0xb
 10143 02ff 3E       		.uleb128 0x3e
 10144 0300 0B       		.uleb128 0xb
 10145 0301 03       		.uleb128 0x3
 10146 0302 08       		.uleb128 0x8
ARM GAS  C:\Users\DEVELO~1\AppData\Local\Temp\cc15HDCU.s 			page 179


 10147 0303 00       		.byte	0
 10148 0304 00       		.byte	0
 10149 0305 30       		.uleb128 0x30
 10150 0306 13       		.uleb128 0x13
 10151 0307 01       		.byte	0x1
 10152 0308 0B       		.uleb128 0xb
 10153 0309 05       		.uleb128 0x5
 10154 030a 3A       		.uleb128 0x3a
 10155 030b 0B       		.uleb128 0xb
 10156 030c 3B       		.uleb128 0x3b
 10157 030d 05       		.uleb128 0x5
 10158 030e 39       		.uleb128 0x39
 10159 030f 0B       		.uleb128 0xb
 10160 0310 01       		.uleb128 0x1
 10161 0311 13       		.uleb128 0x13
 10162 0312 00       		.byte	0
 10163 0313 00       		.byte	0
 10164 0314 31       		.uleb128 0x31
 10165 0315 0D       		.uleb128 0xd
 10166 0316 00       		.byte	0
 10167 0317 03       		.uleb128 0x3
 10168 0318 08       		.uleb128 0x8
 10169 0319 3A       		.uleb128 0x3a
 10170 031a 0B       		.uleb128 0xb
 10171 031b 3B       		.uleb128 0x3b
 10172 031c 05       		.uleb128 0x5
 10173 031d 39       		.uleb128 0x39
 10174 031e 0B       		.uleb128 0xb
 10175 031f 49       		.uleb128 0x49
 10176 0320 13       		.uleb128 0x13
 10177 0321 38       		.uleb128 0x38
 10178 0322 0B       		.uleb128 0xb
 10179 0323 00       		.byte	0
 10180 0324 00       		.byte	0
 10181 0325 32       		.uleb128 0x32
 10182 0326 0F       		.uleb128 0xf
 10183 0327 00       		.byte	0
 10184 0328 0B       		.uleb128 0xb
 10185 0329 0B       		.uleb128 0xb
 10186 032a 00       		.byte	0
 10187 032b 00       		.byte	0
 10188 032c 33       		.uleb128 0x33
 10189 032d 2E       		.uleb128 0x2e
 10190 032e 01       		.byte	0x1
 10191 032f 3F       		.uleb128 0x3f
 10192 0330 19       		.uleb128 0x19
 10193 0331 03       		.uleb128 0x3
 10194 0332 0E       		.uleb128 0xe
 10195 0333 3A       		.uleb128 0x3a
 10196 0334 0B       		.uleb128 0xb
 10197 0335 3B       		.uleb128 0x3b
 10198 0336 05       		.uleb128 0x5
 10199 0337 39       		.uleb128 0x39
 10200 0338 0B       		.uleb128 0xb
 10201 0339 27       		.uleb128 0x27
 10202 033a 19       		.uleb128 0x19
 10203 033b 3C       		.uleb128 0x3c
ARM GAS  C:\Users\DEVELO~1\AppData\Local\Temp\cc15HDCU.s 			page 180


 10204 033c 19       		.uleb128 0x19
 10205 033d 01       		.uleb128 0x1
 10206 033e 13       		.uleb128 0x13
 10207 033f 00       		.byte	0
 10208 0340 00       		.byte	0
 10209 0341 34       		.uleb128 0x34
 10210 0342 05       		.uleb128 0x5
 10211 0343 00       		.byte	0
 10212 0344 49       		.uleb128 0x49
 10213 0345 13       		.uleb128 0x13
 10214 0346 00       		.byte	0
 10215 0347 00       		.byte	0
 10216 0348 35       		.uleb128 0x35
 10217 0349 34       		.uleb128 0x34
 10218 034a 00       		.byte	0
 10219 034b 03       		.uleb128 0x3
 10220 034c 0E       		.uleb128 0xe
 10221 034d 3A       		.uleb128 0x3a
 10222 034e 0B       		.uleb128 0xb
 10223 034f 3B       		.uleb128 0x3b
 10224 0350 05       		.uleb128 0x5
 10225 0351 39       		.uleb128 0x39
 10226 0352 0B       		.uleb128 0xb
 10227 0353 49       		.uleb128 0x49
 10228 0354 13       		.uleb128 0x13
 10229 0355 1C       		.uleb128 0x1c
 10230 0356 05       		.uleb128 0x5
 10231 0357 00       		.byte	0
 10232 0358 00       		.byte	0
 10233 0359 36       		.uleb128 0x36
 10234 035a 1D       		.uleb128 0x1d
 10235 035b 01       		.byte	0x1
 10236 035c 31       		.uleb128 0x31
 10237 035d 13       		.uleb128 0x13
 10238 035e 52       		.uleb128 0x52
 10239 035f 01       		.uleb128 0x1
 10240 0360 B842     		.uleb128 0x2138
 10241 0362 05       		.uleb128 0x5
 10242 0363 55       		.uleb128 0x55
 10243 0364 17       		.uleb128 0x17
 10244 0365 58       		.uleb128 0x58
 10245 0366 0B       		.uleb128 0xb
 10246 0367 59       		.uleb128 0x59
 10247 0368 05       		.uleb128 0x5
 10248 0369 57       		.uleb128 0x57
 10249 036a 0B       		.uleb128 0xb
 10250 036b 01       		.uleb128 0x1
 10251 036c 13       		.uleb128 0x13
 10252 036d 00       		.byte	0
 10253 036e 00       		.byte	0
 10254 036f 37       		.uleb128 0x37
 10255 0370 2E       		.uleb128 0x2e
 10256 0371 01       		.byte	0x1
 10257 0372 03       		.uleb128 0x3
 10258 0373 0E       		.uleb128 0xe
 10259 0374 3A       		.uleb128 0x3a
 10260 0375 0B       		.uleb128 0xb
ARM GAS  C:\Users\DEVELO~1\AppData\Local\Temp\cc15HDCU.s 			page 181


 10261 0376 3B       		.uleb128 0x3b
 10262 0377 05       		.uleb128 0x5
 10263 0378 39       		.uleb128 0x39
 10264 0379 0B       		.uleb128 0xb
 10265 037a 27       		.uleb128 0x27
 10266 037b 19       		.uleb128 0x19
 10267 037c 49       		.uleb128 0x49
 10268 037d 13       		.uleb128 0x13
 10269 037e 11       		.uleb128 0x11
 10270 037f 01       		.uleb128 0x1
 10271 0380 12       		.uleb128 0x12
 10272 0381 06       		.uleb128 0x6
 10273 0382 40       		.uleb128 0x40
 10274 0383 18       		.uleb128 0x18
 10275 0384 7A       		.uleb128 0x7a
 10276 0385 19       		.uleb128 0x19
 10277 0386 01       		.uleb128 0x1
 10278 0387 13       		.uleb128 0x13
 10279 0388 00       		.byte	0
 10280 0389 00       		.byte	0
 10281 038a 38       		.uleb128 0x38
 10282 038b 2E       		.uleb128 0x2e
 10283 038c 01       		.byte	0x1
 10284 038d 3F       		.uleb128 0x3f
 10285 038e 19       		.uleb128 0x19
 10286 038f 03       		.uleb128 0x3
 10287 0390 0E       		.uleb128 0xe
 10288 0391 3A       		.uleb128 0x3a
 10289 0392 0B       		.uleb128 0xb
 10290 0393 3B       		.uleb128 0x3b
 10291 0394 05       		.uleb128 0x5
 10292 0395 39       		.uleb128 0x39
 10293 0396 0B       		.uleb128 0xb
 10294 0397 27       		.uleb128 0x27
 10295 0398 19       		.uleb128 0x19
 10296 0399 11       		.uleb128 0x11
 10297 039a 01       		.uleb128 0x1
 10298 039b 12       		.uleb128 0x12
 10299 039c 06       		.uleb128 0x6
 10300 039d 40       		.uleb128 0x40
 10301 039e 18       		.uleb128 0x18
 10302 039f 7A       		.uleb128 0x7a
 10303 03a0 19       		.uleb128 0x19
 10304 03a1 01       		.uleb128 0x1
 10305 03a2 13       		.uleb128 0x13
 10306 03a3 00       		.byte	0
 10307 03a4 00       		.byte	0
 10308 03a5 39       		.uleb128 0x39
 10309 03a6 48       		.uleb128 0x48
 10310 03a7 01       		.byte	0x1
 10311 03a8 7D       		.uleb128 0x7d
 10312 03a9 01       		.uleb128 0x1
 10313 03aa 8201     		.uleb128 0x82
 10314 03ac 19       		.uleb128 0x19
 10315 03ad 7F       		.uleb128 0x7f
 10316 03ae 13       		.uleb128 0x13
 10317 03af 00       		.byte	0
ARM GAS  C:\Users\DEVELO~1\AppData\Local\Temp\cc15HDCU.s 			page 182


 10318 03b0 00       		.byte	0
 10319 03b1 3A       		.uleb128 0x3a
 10320 03b2 34       		.uleb128 0x34
 10321 03b3 00       		.byte	0
 10322 03b4 03       		.uleb128 0x3
 10323 03b5 08       		.uleb128 0x8
 10324 03b6 3A       		.uleb128 0x3a
 10325 03b7 0B       		.uleb128 0xb
 10326 03b8 3B       		.uleb128 0x3b
 10327 03b9 05       		.uleb128 0x5
 10328 03ba 39       		.uleb128 0x39
 10329 03bb 0B       		.uleb128 0xb
 10330 03bc 49       		.uleb128 0x49
 10331 03bd 13       		.uleb128 0x13
 10332 03be 00       		.byte	0
 10333 03bf 00       		.byte	0
 10334 03c0 3B       		.uleb128 0x3b
 10335 03c1 05       		.uleb128 0x5
 10336 03c2 00       		.byte	0
 10337 03c3 31       		.uleb128 0x31
 10338 03c4 13       		.uleb128 0x13
 10339 03c5 1C       		.uleb128 0x1c
 10340 03c6 0B       		.uleb128 0xb
 10341 03c7 00       		.byte	0
 10342 03c8 00       		.byte	0
 10343 03c9 3C       		.uleb128 0x3c
 10344 03ca 34       		.uleb128 0x34
 10345 03cb 00       		.byte	0
 10346 03cc 03       		.uleb128 0x3
 10347 03cd 0E       		.uleb128 0xe
 10348 03ce 3A       		.uleb128 0x3a
 10349 03cf 0B       		.uleb128 0xb
 10350 03d0 3B       		.uleb128 0x3b
 10351 03d1 0B       		.uleb128 0xb
 10352 03d2 39       		.uleb128 0x39
 10353 03d3 0B       		.uleb128 0xb
 10354 03d4 49       		.uleb128 0x49
 10355 03d5 13       		.uleb128 0x13
 10356 03d6 00       		.byte	0
 10357 03d7 00       		.byte	0
 10358 03d8 3D       		.uleb128 0x3d
 10359 03d9 05       		.uleb128 0x5
 10360 03da 00       		.byte	0
 10361 03db 03       		.uleb128 0x3
 10362 03dc 08       		.uleb128 0x8
 10363 03dd 3A       		.uleb128 0x3a
 10364 03de 0B       		.uleb128 0xb
 10365 03df 3B       		.uleb128 0x3b
 10366 03e0 0B       		.uleb128 0xb
 10367 03e1 39       		.uleb128 0x39
 10368 03e2 0B       		.uleb128 0xb
 10369 03e3 49       		.uleb128 0x49
 10370 03e4 13       		.uleb128 0x13
 10371 03e5 02       		.uleb128 0x2
 10372 03e6 18       		.uleb128 0x18
 10373 03e7 00       		.byte	0
 10374 03e8 00       		.byte	0
ARM GAS  C:\Users\DEVELO~1\AppData\Local\Temp\cc15HDCU.s 			page 183


 10375 03e9 3E       		.uleb128 0x3e
 10376 03ea 2E       		.uleb128 0x2e
 10377 03eb 01       		.byte	0x1
 10378 03ec 31       		.uleb128 0x31
 10379 03ed 13       		.uleb128 0x13
 10380 03ee 11       		.uleb128 0x11
 10381 03ef 01       		.uleb128 0x1
 10382 03f0 12       		.uleb128 0x12
 10383 03f1 06       		.uleb128 0x6
 10384 03f2 40       		.uleb128 0x40
 10385 03f3 18       		.uleb128 0x18
 10386 03f4 7A       		.uleb128 0x7a
 10387 03f5 19       		.uleb128 0x19
 10388 03f6 00       		.byte	0
 10389 03f7 00       		.byte	0
 10390 03f8 3F       		.uleb128 0x3f
 10391 03f9 34       		.uleb128 0x34
 10392 03fa 00       		.byte	0
 10393 03fb 31       		.uleb128 0x31
 10394 03fc 13       		.uleb128 0x13
 10395 03fd 1C       		.uleb128 0x1c
 10396 03fe 0B       		.uleb128 0xb
 10397 03ff 00       		.byte	0
 10398 0400 00       		.byte	0
 10399 0401 00       		.byte	0
 10400              		.section	.debug_loclists,"",%progbits
 10401 0000 7A1B0000 		.4byte	.Ldebug_loc3-.Ldebug_loc2
 10402              	.Ldebug_loc2:
 10403 0004 0500     		.2byte	0x5
 10404 0006 04       		.byte	0x4
 10405 0007 00       		.byte	0
 10406 0008 00000000 		.4byte	0
 10407              	.Ldebug_loc0:
 10408              	.LVUS206:
 10409 000c 00       		.uleb128 0
 10410 000d 00       		.uleb128 .LVU2041
 10411 000e 00       		.uleb128 .LVU2041
 10412 000f 00       		.uleb128 0
 10413              	.LLST206:
 10414 0010 06       		.byte	0x6
 10415 0011 00000000 		.4byte	.LVL439
 10416 0015 04       		.byte	0x4
 10417 0016 00       		.uleb128 .LVL439-.LVL439
 10418 0017 04       		.uleb128 .LVL441-.LVL439
 10419 0018 01       		.uleb128 0x1
 10420 0019 50       		.byte	0x50
 10421 001a 04       		.byte	0x4
 10422 001b 04       		.uleb128 .LVL441-.LVL439
 10423 001c 12       		.uleb128 .LFE189-.LVL439
 10424 001d 01       		.uleb128 0x1
 10425 001e 53       		.byte	0x53
 10426 001f 00       		.byte	0
 10427              	.LVUS207:
 10428 0020 00       		.uleb128 .LVU2039
 10429 0021 00       		.uleb128 .LVU2041
 10430 0022 00       		.uleb128 .LVU2041
 10431 0023 00       		.uleb128 0
ARM GAS  C:\Users\DEVELO~1\AppData\Local\Temp\cc15HDCU.s 			page 184


 10432              	.LLST207:
 10433 0024 06       		.byte	0x6
 10434 0025 02000000 		.4byte	.LVL440
 10435 0029 04       		.byte	0x4
 10436 002a 00       		.uleb128 .LVL440-.LVL440
 10437 002b 02       		.uleb128 .LVL441-.LVL440
 10438 002c 01       		.uleb128 0x1
 10439 002d 50       		.byte	0x50
 10440 002e 04       		.byte	0x4
 10441 002f 02       		.uleb128 .LVL441-.LVL440
 10442 0030 10       		.uleb128 .LFE189-.LVL440
 10443 0031 01       		.uleb128 0x1
 10444 0032 53       		.byte	0x53
 10445 0033 00       		.byte	0
 10446              	.LVUS204:
 10447 0034 00       		.uleb128 0
 10448 0035 00       		.uleb128 .LVU2030
 10449 0036 00       		.uleb128 .LVU2030
 10450 0037 00       		.uleb128 .LVU2035
 10451 0038 00       		.uleb128 .LVU2035
 10452 0039 00       		.uleb128 0
 10453              	.LLST204:
 10454 003a 06       		.byte	0x6
 10455 003b 00000000 		.4byte	.LVL436
 10456 003f 04       		.byte	0x4
 10457 0040 00       		.uleb128 .LVL436-.LVL436
 10458 0041 08       		.uleb128 .LVL437-.LVL436
 10459 0042 01       		.uleb128 0x1
 10460 0043 50       		.byte	0x50
 10461 0044 04       		.byte	0x4
 10462 0045 08       		.uleb128 .LVL437-.LVL436
 10463 0046 16       		.uleb128 .LVL438-.LVL436
 10464 0047 04       		.uleb128 0x4
 10465 0048 70       		.byte	0x70
 10466 0049 8070     		.sleb128 -2048
 10467 004b 9F       		.byte	0x9f
 10468 004c 04       		.byte	0x4
 10469 004d 16       		.uleb128 .LVL438-.LVL436
 10470 004e 18       		.uleb128 .LFE188-.LVL436
 10471 004f 04       		.uleb128 0x4
 10472 0050 A3       		.byte	0xa3
 10473 0051 01       		.uleb128 0x1
 10474 0052 50       		.byte	0x50
 10475 0053 9F       		.byte	0x9f
 10476 0054 00       		.byte	0
 10477              	.LVUS205:
 10478 0055 02       		.uleb128 .LVU2027
 10479 0056 00       		.uleb128 .LVU2030
 10480 0057 00       		.uleb128 .LVU2030
 10481 0058 00       		.uleb128 .LVU2035
 10482 0059 00       		.uleb128 .LVU2035
 10483 005a 00       		.uleb128 0
 10484              	.LLST205:
 10485 005b 06       		.byte	0x6
 10486 005c 00000000 		.4byte	.LVL436
 10487 0060 04       		.byte	0x4
 10488 0061 00       		.uleb128 .LVL436-.LVL436
ARM GAS  C:\Users\DEVELO~1\AppData\Local\Temp\cc15HDCU.s 			page 185


 10489 0062 08       		.uleb128 .LVL437-.LVL436
 10490 0063 01       		.uleb128 0x1
 10491 0064 50       		.byte	0x50
 10492 0065 04       		.byte	0x4
 10493 0066 08       		.uleb128 .LVL437-.LVL436
 10494 0067 16       		.uleb128 .LVL438-.LVL436
 10495 0068 04       		.uleb128 0x4
 10496 0069 70       		.byte	0x70
 10497 006a 8070     		.sleb128 -2048
 10498 006c 9F       		.byte	0x9f
 10499 006d 04       		.byte	0x4
 10500 006e 16       		.uleb128 .LVL438-.LVL436
 10501 006f 18       		.uleb128 .LFE188-.LVL436
 10502 0070 04       		.uleb128 0x4
 10503 0071 A3       		.byte	0xa3
 10504 0072 01       		.uleb128 0x1
 10505 0073 50       		.byte	0x50
 10506 0074 9F       		.byte	0x9f
 10507 0075 00       		.byte	0
 10508              	.LVUS197:
 10509 0076 00       		.uleb128 0
 10510 0077 00       		.uleb128 .LVU1975
 10511 0078 00       		.uleb128 .LVU1975
 10512 0079 00       		.uleb128 0
 10513              	.LLST197:
 10514 007a 06       		.byte	0x6
 10515 007b 00000000 		.4byte	.LVL418
 10516 007f 04       		.byte	0x4
 10517 0080 00       		.uleb128 .LVL418-.LVL418
 10518 0081 17       		.uleb128 .LVL422-1-.LVL418
 10519 0082 01       		.uleb128 0x1
 10520 0083 50       		.byte	0x50
 10521 0084 04       		.byte	0x4
 10522 0085 17       		.uleb128 .LVL422-1-.LVL418
 10523 0086 8601     		.uleb128 .LFE187-.LVL418
 10524 0088 01       		.uleb128 0x1
 10525 0089 54       		.byte	0x54
 10526 008a 00       		.byte	0
 10527              	.LVUS198:
 10528 008b 02       		.uleb128 .LVU1957
 10529 008c 00       		.uleb128 .LVU1977
 10530 008d 00       		.uleb128 .LVU1977
 10531 008e 00       		.uleb128 .LVU1981
 10532 008f 00       		.uleb128 .LVU1981
 10533 0090 00       		.uleb128 0
 10534              	.LLST198:
 10535 0091 06       		.byte	0x6
 10536 0092 00000000 		.4byte	.LVL418
 10537 0096 04       		.byte	0x4
 10538 0097 00       		.uleb128 .LVL418-.LVL418
 10539 0098 1C       		.uleb128 .LVL423-.LVL418
 10540 0099 02       		.uleb128 0x2
 10541 009a 30       		.byte	0x30
 10542 009b 9F       		.byte	0x9f
 10543 009c 04       		.byte	0x4
 10544 009d 1C       		.uleb128 .LVL423-.LVL418
 10545 009e 34       		.uleb128 .LVL425-.LVL418
ARM GAS  C:\Users\DEVELO~1\AppData\Local\Temp\cc15HDCU.s 			page 186


 10546 009f 07       		.uleb128 0x7
 10547 00a0 75       		.byte	0x75
 10548 00a1 00       		.sleb128 0
 10549 00a2 48       		.byte	0x48
 10550 00a3 24       		.byte	0x24
 10551 00a4 30       		.byte	0x30
 10552 00a5 2E       		.byte	0x2e
 10553 00a6 9F       		.byte	0x9f
 10554 00a7 04       		.byte	0x4
 10555 00a8 34       		.uleb128 .LVL425-.LVL418
 10556 00a9 8601     		.uleb128 .LFE187-.LVL418
 10557 00ab 01       		.uleb128 0x1
 10558 00ac 50       		.byte	0x50
 10559 00ad 00       		.byte	0
 10560              	.LVUS199:
 10561 00ae 00       		.uleb128 .LVU1962
 10562 00af 00       		.uleb128 .LVU1975
 10563 00b0 00       		.uleb128 .LVU1975
 10564 00b1 00       		.uleb128 0
 10565              	.LLST199:
 10566 00b2 06       		.byte	0x6
 10567 00b3 08000000 		.4byte	.LVL419
 10568 00b7 04       		.byte	0x4
 10569 00b8 00       		.uleb128 .LVL419-.LVL419
 10570 00b9 0F       		.uleb128 .LVL422-1-.LVL419
 10571 00ba 01       		.uleb128 0x1
 10572 00bb 50       		.byte	0x50
 10573 00bc 04       		.byte	0x4
 10574 00bd 0F       		.uleb128 .LVL422-1-.LVL419
 10575 00be 7E       		.uleb128 .LFE187-.LVL419
 10576 00bf 01       		.uleb128 0x1
 10577 00c0 54       		.byte	0x54
 10578 00c1 00       		.byte	0
 10579              	.LVUS200:
 10580 00c2 00       		.uleb128 .LVU1985
 10581 00c3 01       		.uleb128 .LVU1986
 10582 00c4 01       		.uleb128 .LVU1986
 10583 00c5 02       		.uleb128 .LVU1987
 10584 00c6 02       		.uleb128 .LVU1987
 10585 00c7 00       		.uleb128 .LVU1988
 10586 00c8 00       		.uleb128 .LVU1989
 10587 00c9 00       		.uleb128 .LVU1993
 10588 00ca 00       		.uleb128 .LVU1995
 10589 00cb 01       		.uleb128 .LVU1996
 10590 00cc 01       		.uleb128 .LVU1996
 10591 00cd 02       		.uleb128 .LVU1997
 10592 00ce 02       		.uleb128 .LVU1997
 10593 00cf 00       		.uleb128 .LVU1998
 10594 00d0 00       		.uleb128 .LVU1999
 10595 00d1 00       		.uleb128 .LVU2001
 10596              	.LLST200:
 10597 00d2 06       		.byte	0x6
 10598 00d3 38000000 		.4byte	.LVL426
 10599 00d7 04       		.byte	0x4
 10600 00d8 00       		.uleb128 .LVL426-.LVL426
 10601 00d9 00       		.uleb128 .LVL426-.LVL426
 10602 00da 01       		.uleb128 0x1
ARM GAS  C:\Users\DEVELO~1\AppData\Local\Temp\cc15HDCU.s 			page 187


 10603 00db 53       		.byte	0x53
 10604 00dc 04       		.byte	0x4
 10605 00dd 00       		.uleb128 .LVL426-.LVL426
 10606 00de 00       		.uleb128 .LVL426-.LVL426
 10607 00df 07       		.uleb128 0x7
 10608 00e0 73       		.byte	0x73
 10609 00e1 00       		.sleb128 0
 10610 00e2 40       		.byte	0x40
 10611 00e3 4A       		.byte	0x4a
 10612 00e4 24       		.byte	0x24
 10613 00e5 21       		.byte	0x21
 10614 00e6 9F       		.byte	0x9f
 10615 00e7 04       		.byte	0x4
 10616 00e8 00       		.uleb128 .LVL426-.LVL426
 10617 00e9 04       		.uleb128 .LVL427-.LVL426
 10618 00ea 0D       		.uleb128 0xd
 10619 00eb 73       		.byte	0x73
 10620 00ec 00       		.sleb128 0
 10621 00ed 0C       		.byte	0xc
 10622 00ee FFFFFF7F 		.4byte	0x7fffffff
 10623 00f2 1A       		.byte	0x1a
 10624 00f3 40       		.byte	0x40
 10625 00f4 4A       		.byte	0x4a
 10626 00f5 24       		.byte	0x24
 10627 00f6 21       		.byte	0x21
 10628 00f7 9F       		.byte	0x9f
 10629 00f8 04       		.byte	0x4
 10630 00f9 08       		.uleb128 .LVL428-.LVL426
 10631 00fa 10       		.uleb128 .LVL429-.LVL426
 10632 00fb 01       		.uleb128 0x1
 10633 00fc 53       		.byte	0x53
 10634 00fd 04       		.byte	0x4
 10635 00fe 12       		.uleb128 .LVL430-.LVL426
 10636 00ff 12       		.uleb128 .LVL430-.LVL426
 10637 0100 01       		.uleb128 0x1
 10638 0101 53       		.byte	0x53
 10639 0102 04       		.byte	0x4
 10640 0103 12       		.uleb128 .LVL430-.LVL426
 10641 0104 12       		.uleb128 .LVL430-.LVL426
 10642 0105 07       		.uleb128 0x7
 10643 0106 73       		.byte	0x73
 10644 0107 00       		.sleb128 0
 10645 0108 40       		.byte	0x40
 10646 0109 4A       		.byte	0x4a
 10647 010a 24       		.byte	0x24
 10648 010b 21       		.byte	0x21
 10649 010c 9F       		.byte	0x9f
 10650 010d 04       		.byte	0x4
 10651 010e 12       		.uleb128 .LVL430-.LVL426
 10652 010f 16       		.uleb128 .LVL431-.LVL426
 10653 0110 08       		.uleb128 0x8
 10654 0111 73       		.byte	0x73
 10655 0112 00       		.sleb128 0
 10656 0113 40       		.byte	0x40
 10657 0114 4A       		.byte	0x4a
 10658 0115 24       		.byte	0x24
 10659 0116 1F       		.byte	0x1f
ARM GAS  C:\Users\DEVELO~1\AppData\Local\Temp\cc15HDCU.s 			page 188


 10660 0117 21       		.byte	0x21
 10661 0118 9F       		.byte	0x9f
 10662 0119 04       		.byte	0x4
 10663 011a 1A       		.uleb128 .LVL432-.LVL426
 10664 011b 1E       		.uleb128 .LVL433-.LVL426
 10665 011c 01       		.uleb128 0x1
 10666 011d 53       		.byte	0x53
 10667 011e 00       		.byte	0
 10668              	.LVUS201:
 10669 011f 01       		.uleb128 .LVU1982
 10670 0120 02       		.uleb128 .LVU1983
 10671              	.LLST201:
 10672 0121 08       		.byte	0x8
 10673 0122 34000000 		.4byte	.LVL425
 10674 0126 00       		.uleb128 .LVL425-.LVL425
 10675 0127 02       		.uleb128 0x2
 10676 0128 30       		.byte	0x30
 10677 0129 9F       		.byte	0x9f
 10678 012a 00       		.byte	0
 10679              	.LVUS202:
 10680 012b 03       		.uleb128 .LVU1968
 10681 012c 01       		.uleb128 .LVU1972
 10682              	.LLST202:
 10683 012d 08       		.byte	0x8
 10684 012e 0C000000 		.4byte	.LVL420
 10685 0132 08       		.uleb128 .LVL421-.LVL420
 10686 0133 01       		.uleb128 0x1
 10687 0134 50       		.byte	0x50
 10688 0135 00       		.byte	0
 10689              	.LVUS203:
 10690 0136 01       		.uleb128 .LVU2017
 10691 0137 01       		.uleb128 .LVU2021
 10692              	.LLST203:
 10693 0138 08       		.byte	0x8
 10694 0139 7A000000 		.4byte	.LVL434
 10695 013d 08       		.uleb128 .LVL435-.LVL434
 10696 013e 01       		.uleb128 0x1
 10697 013f 54       		.byte	0x54
 10698 0140 00       		.byte	0
 10699              	.LVUS186:
 10700 0141 00       		.uleb128 0
 10701 0142 00       		.uleb128 .LVU1894
 10702 0143 00       		.uleb128 .LVU1894
 10703 0144 00       		.uleb128 .LVU1896
 10704 0145 00       		.uleb128 .LVU1896
 10705 0146 00       		.uleb128 .LVU1925
 10706 0147 00       		.uleb128 .LVU1925
 10707 0148 00       		.uleb128 .LVU1928
 10708 0149 00       		.uleb128 .LVU1928
 10709 014a 00       		.uleb128 .LVU1931
 10710 014b 00       		.uleb128 .LVU1931
 10711 014c 00       		.uleb128 0
 10712              	.LLST186:
 10713 014d 06       		.byte	0x6
 10714 014e 00000000 		.4byte	.LVL395
 10715 0152 04       		.byte	0x4
 10716 0153 00       		.uleb128 .LVL395-.LVL395
ARM GAS  C:\Users\DEVELO~1\AppData\Local\Temp\cc15HDCU.s 			page 189


 10717 0154 74       		.uleb128 .LVL401-.LVL395
 10718 0155 01       		.uleb128 0x1
 10719 0156 50       		.byte	0x50
 10720 0157 04       		.byte	0x4
 10721 0158 74       		.uleb128 .LVL401-.LVL395
 10722 0159 7A       		.uleb128 .LVL403-.LVL395
 10723 015a 04       		.uleb128 0x4
 10724 015b A3       		.byte	0xa3
 10725 015c 01       		.uleb128 0x1
 10726 015d 50       		.byte	0x50
 10727 015e 9F       		.byte	0x9f
 10728 015f 04       		.byte	0x4
 10729 0160 7A       		.uleb128 .LVL403-.LVL395
 10730 0161 D401     		.uleb128 .LVL406-.LVL395
 10731 0163 01       		.uleb128 0x1
 10732 0164 50       		.byte	0x50
 10733 0165 04       		.byte	0x4
 10734 0166 D401     		.uleb128 .LVL406-.LVL395
 10735 0168 DE01     		.uleb128 .LVL408-.LVL395
 10736 016a 04       		.uleb128 0x4
 10737 016b A3       		.byte	0xa3
 10738 016c 01       		.uleb128 0x1
 10739 016d 50       		.byte	0x50
 10740 016e 9F       		.byte	0x9f
 10741 016f 04       		.byte	0x4
 10742 0170 DE01     		.uleb128 .LVL408-.LVL395
 10743 0172 E401     		.uleb128 .LVL409-.LVL395
 10744 0174 01       		.uleb128 0x1
 10745 0175 50       		.byte	0x50
 10746 0176 04       		.byte	0x4
 10747 0177 E401     		.uleb128 .LVL409-.LVL395
 10748 0179 F201     		.uleb128 .LFE185-.LVL395
 10749 017b 04       		.uleb128 0x4
 10750 017c A3       		.byte	0xa3
 10751 017d 01       		.uleb128 0x1
 10752 017e 50       		.byte	0x50
 10753 017f 9F       		.byte	0x9f
 10754 0180 00       		.byte	0
 10755              	.LVUS187:
 10756 0181 00       		.uleb128 0
 10757 0182 00       		.uleb128 .LVU1852
 10758 0183 00       		.uleb128 .LVU1852
 10759 0184 00       		.uleb128 0
 10760              	.LLST187:
 10761 0185 06       		.byte	0x6
 10762 0186 00000000 		.4byte	.LVL395
 10763 018a 04       		.byte	0x4
 10764 018b 00       		.uleb128 .LVL395-.LVL395
 10765 018c 04       		.uleb128 .LVL396-.LVL395
 10766 018d 01       		.uleb128 0x1
 10767 018e 51       		.byte	0x51
 10768 018f 04       		.byte	0x4
 10769 0190 04       		.uleb128 .LVL396-.LVL395
 10770 0191 F201     		.uleb128 .LFE185-.LVL395
 10771 0193 04       		.uleb128 0x4
 10772 0194 A3       		.byte	0xa3
 10773 0195 01       		.uleb128 0x1
ARM GAS  C:\Users\DEVELO~1\AppData\Local\Temp\cc15HDCU.s 			page 190


 10774 0196 51       		.byte	0x51
 10775 0197 9F       		.byte	0x9f
 10776 0198 00       		.byte	0
 10777              	.LVUS188:
 10778 0199 00       		.uleb128 .LVU1853
 10779 019a 00       		.uleb128 .LVU1894
 10780 019b 00       		.uleb128 .LVU1894
 10781 019c 00       		.uleb128 .LVU1896
 10782 019d 00       		.uleb128 .LVU1896
 10783 019e 00       		.uleb128 .LVU1925
 10784 019f 00       		.uleb128 .LVU1925
 10785 01a0 00       		.uleb128 .LVU1928
 10786 01a1 00       		.uleb128 .LVU1928
 10787 01a2 00       		.uleb128 .LVU1931
 10788 01a3 00       		.uleb128 .LVU1931
 10789 01a4 00       		.uleb128 0
 10790              	.LLST188:
 10791 01a5 06       		.byte	0x6
 10792 01a6 06000000 		.4byte	.LVL397
 10793 01aa 04       		.byte	0x4
 10794 01ab 00       		.uleb128 .LVL397-.LVL397
 10795 01ac 6E       		.uleb128 .LVL401-.LVL397
 10796 01ad 01       		.uleb128 0x1
 10797 01ae 50       		.byte	0x50
 10798 01af 04       		.byte	0x4
 10799 01b0 6E       		.uleb128 .LVL401-.LVL397
 10800 01b1 74       		.uleb128 .LVL403-.LVL397
 10801 01b2 04       		.uleb128 0x4
 10802 01b3 A3       		.byte	0xa3
 10803 01b4 01       		.uleb128 0x1
 10804 01b5 50       		.byte	0x50
 10805 01b6 9F       		.byte	0x9f
 10806 01b7 04       		.byte	0x4
 10807 01b8 74       		.uleb128 .LVL403-.LVL397
 10808 01b9 CE01     		.uleb128 .LVL406-.LVL397
 10809 01bb 01       		.uleb128 0x1
 10810 01bc 50       		.byte	0x50
 10811 01bd 04       		.byte	0x4
 10812 01be CE01     		.uleb128 .LVL406-.LVL397
 10813 01c0 D801     		.uleb128 .LVL408-.LVL397
 10814 01c2 04       		.uleb128 0x4
 10815 01c3 A3       		.byte	0xa3
 10816 01c4 01       		.uleb128 0x1
 10817 01c5 50       		.byte	0x50
 10818 01c6 9F       		.byte	0x9f
 10819 01c7 04       		.byte	0x4
 10820 01c8 D801     		.uleb128 .LVL408-.LVL397
 10821 01ca DE01     		.uleb128 .LVL409-.LVL397
 10822 01cc 01       		.uleb128 0x1
 10823 01cd 50       		.byte	0x50
 10824 01ce 04       		.byte	0x4
 10825 01cf DE01     		.uleb128 .LVL409-.LVL397
 10826 01d1 EC01     		.uleb128 .LFE185-.LVL397
 10827 01d3 04       		.uleb128 0x4
 10828 01d4 A3       		.byte	0xa3
 10829 01d5 01       		.uleb128 0x1
 10830 01d6 50       		.byte	0x50
ARM GAS  C:\Users\DEVELO~1\AppData\Local\Temp\cc15HDCU.s 			page 191


 10831 01d7 9F       		.byte	0x9f
 10832 01d8 00       		.byte	0
 10833              	.LVUS189:
 10834 01d9 00       		.uleb128 .LVU1864
 10835 01da 00       		.uleb128 .LVU1874
 10836 01db 00       		.uleb128 .LVU1896
 10837 01dc 00       		.uleb128 .LVU1900
 10838              	.LLST189:
 10839 01dd 06       		.byte	0x6
 10840 01de 1E000000 		.4byte	.LVL398
 10841 01e2 04       		.byte	0x4
 10842 01e3 00       		.uleb128 .LVL398-.LVL398
 10843 01e4 12       		.uleb128 .LVL400-.LVL398
 10844 01e5 05       		.uleb128 0x5
 10845 01e6 73       		.byte	0x73
 10846 01e7 00       		.sleb128 0
 10847 01e8 33       		.byte	0x33
 10848 01e9 1A       		.byte	0x1a
 10849 01ea 9F       		.byte	0x9f
 10850 01eb 04       		.byte	0x4
 10851 01ec 5C       		.uleb128 .LVL403-.LVL398
 10852 01ed 68       		.uleb128 .LVL405-.LVL398
 10853 01ee 05       		.uleb128 0x5
 10854 01ef 73       		.byte	0x73
 10855 01f0 00       		.sleb128 0
 10856 01f1 33       		.byte	0x33
 10857 01f2 1A       		.byte	0x1a
 10858 01f3 9F       		.byte	0x9f
 10859 01f4 00       		.byte	0
 10860              	.LVUS190:
 10861 01f5 01       		.uleb128 .LVU1865
 10862 01f6 00       		.uleb128 .LVU1895
 10863 01f7 00       		.uleb128 .LVU1896
 10864 01f8 00       		.uleb128 .LVU1927
 10865 01f9 00       		.uleb128 .LVU1928
 10866 01fa 00       		.uleb128 .LVU1933
 10867              	.LLST190:
 10868 01fb 06       		.byte	0x6
 10869 01fc 1E000000 		.4byte	.LVL398
 10870 0200 04       		.byte	0x4
 10871 0201 00       		.uleb128 .LVL398-.LVL398
 10872 0202 5A       		.uleb128 .LVL402-.LVL398
 10873 0203 05       		.uleb128 0x5
 10874 0204 75       		.byte	0x75
 10875 0205 00       		.sleb128 0
 10876 0206 4F       		.byte	0x4f
 10877 0207 25       		.byte	0x25
 10878 0208 9F       		.byte	0x9f
 10879 0209 04       		.byte	0x4
 10880 020a 5C       		.uleb128 .LVL403-.LVL398
 10881 020b BE01     		.uleb128 .LVL407-.LVL398
 10882 020d 05       		.uleb128 0x5
 10883 020e 75       		.byte	0x75
 10884 020f 00       		.sleb128 0
 10885 0210 4F       		.byte	0x4f
 10886 0211 25       		.byte	0x25
 10887 0212 9F       		.byte	0x9f
ARM GAS  C:\Users\DEVELO~1\AppData\Local\Temp\cc15HDCU.s 			page 192


 10888 0213 04       		.byte	0x4
 10889 0214 C001     		.uleb128 .LVL408-.LVL398
 10890 0216 D201     		.uleb128 .LVL410-.LVL398
 10891 0218 05       		.uleb128 0x5
 10892 0219 75       		.byte	0x75
 10893 021a 00       		.sleb128 0
 10894 021b 4F       		.byte	0x4f
 10895 021c 25       		.byte	0x25
 10896 021d 9F       		.byte	0x9f
 10897 021e 00       		.byte	0
 10898              	.LVUS191:
 10899 021f 02       		.uleb128 .LVU1866
 10900 0220 00       		.uleb128 .LVU1871
 10901 0221 00       		.uleb128 .LVU1896
 10902 0222 00       		.uleb128 .LVU1898
 10903              	.LLST191:
 10904 0223 06       		.byte	0x6
 10905 0224 1E000000 		.4byte	.LVL398
 10906 0228 04       		.byte	0x4
 10907 0229 00       		.uleb128 .LVL398-.LVL398
 10908 022a 0C       		.uleb128 .LVL399-.LVL398
 10909 022b 05       		.uleb128 0x5
 10910 022c 74       		.byte	0x74
 10911 022d 00       		.sleb128 0
 10912 022e 4F       		.byte	0x4f
 10913 022f 25       		.byte	0x25
 10914 0230 9F       		.byte	0x9f
 10915 0231 04       		.byte	0x4
 10916 0232 5C       		.uleb128 .LVL403-.LVL398
 10917 0233 64       		.uleb128 .LVL404-.LVL398
 10918 0234 05       		.uleb128 0x5
 10919 0235 74       		.byte	0x74
 10920 0236 00       		.sleb128 0
 10921 0237 4F       		.byte	0x4f
 10922 0238 25       		.byte	0x25
 10923 0239 9F       		.byte	0x9f
 10924 023a 00       		.byte	0
 10925              	.LVUS184:
 10926 023b 00       		.uleb128 0
 10927 023c 00       		.uleb128 .LVU1848
 10928 023d 00       		.uleb128 .LVU1848
 10929 023e 00       		.uleb128 0
 10930              	.LLST184:
 10931 023f 06       		.byte	0x6
 10932 0240 00000000 		.4byte	.LVL393
 10933 0244 04       		.byte	0x4
 10934 0245 00       		.uleb128 .LVL393-.LVL393
 10935 0246 04       		.uleb128 .LVL394-.LVL393
 10936 0247 01       		.uleb128 0x1
 10937 0248 50       		.byte	0x50
 10938 0249 04       		.byte	0x4
 10939 024a 04       		.uleb128 .LVL394-.LVL393
 10940 024b 08       		.uleb128 .LFE184-.LVL393
 10941 024c 04       		.uleb128 0x4
 10942 024d A3       		.byte	0xa3
 10943 024e 01       		.uleb128 0x1
 10944 024f 50       		.byte	0x50
ARM GAS  C:\Users\DEVELO~1\AppData\Local\Temp\cc15HDCU.s 			page 193


 10945 0250 9F       		.byte	0x9f
 10946 0251 00       		.byte	0
 10947              	.LVUS185:
 10948 0252 02       		.uleb128 .LVU1846
 10949 0253 00       		.uleb128 .LVU1848
 10950 0254 00       		.uleb128 .LVU1848
 10951 0255 00       		.uleb128 0
 10952              	.LLST185:
 10953 0256 06       		.byte	0x6
 10954 0257 00000000 		.4byte	.LVL393
 10955 025b 04       		.byte	0x4
 10956 025c 00       		.uleb128 .LVL393-.LVL393
 10957 025d 04       		.uleb128 .LVL394-.LVL393
 10958 025e 01       		.uleb128 0x1
 10959 025f 50       		.byte	0x50
 10960 0260 04       		.byte	0x4
 10961 0261 04       		.uleb128 .LVL394-.LVL393
 10962 0262 08       		.uleb128 .LFE184-.LVL393
 10963 0263 04       		.uleb128 0x4
 10964 0264 A3       		.byte	0xa3
 10965 0265 01       		.uleb128 0x1
 10966 0266 50       		.byte	0x50
 10967 0267 9F       		.byte	0x9f
 10968 0268 00       		.byte	0
 10969              	.LVUS161:
 10970 0269 00       		.uleb128 0
 10971 026a 00       		.uleb128 .LVU1627
 10972 026b 00       		.uleb128 .LVU1627
 10973 026c 00       		.uleb128 .LVU1628
 10974 026d 00       		.uleb128 .LVU1628
 10975 026e 00       		.uleb128 .LVU1737
 10976 026f 00       		.uleb128 .LVU1737
 10977 0270 00       		.uleb128 .LVU1750
 10978 0271 00       		.uleb128 .LVU1750
 10979 0272 00       		.uleb128 0
 10980              	.LLST161:
 10981 0273 06       		.byte	0x6
 10982 0274 00000000 		.4byte	.LVL350
 10983 0278 04       		.byte	0x4
 10984 0279 00       		.uleb128 .LVL350-.LVL350
 10985 027a B001     		.uleb128 .LVL357-.LVL350
 10986 027c 01       		.uleb128 0x1
 10987 027d 50       		.byte	0x50
 10988 027e 04       		.byte	0x4
 10989 027f B001     		.uleb128 .LVL357-.LVL350
 10990 0281 B401     		.uleb128 .LVL358-.LVL350
 10991 0283 04       		.uleb128 0x4
 10992 0284 77       		.byte	0x77
 10993 0285 8078     		.sleb128 -1024
 10994 0287 9F       		.byte	0x9f
 10995 0288 04       		.byte	0x4
 10996 0289 B401     		.uleb128 .LVL358-.LVL350
 10997 028b EC03     		.uleb128 .LVL371-.LVL350
 10998 028d 01       		.uleb128 0x1
 10999 028e 50       		.byte	0x50
 11000 028f 04       		.byte	0x4
 11001 0290 EC03     		.uleb128 .LVL371-.LVL350
ARM GAS  C:\Users\DEVELO~1\AppData\Local\Temp\cc15HDCU.s 			page 194


 11002 0292 8404     		.uleb128 .LVL377-.LVL350
 11003 0294 04       		.uleb128 0x4
 11004 0295 A3       		.byte	0xa3
 11005 0296 01       		.uleb128 0x1
 11006 0297 50       		.byte	0x50
 11007 0298 9F       		.byte	0x9f
 11008 0299 04       		.byte	0x4
 11009 029a 8404     		.uleb128 .LVL377-.LVL350
 11010 029c E405     		.uleb128 .LFE183-.LVL350
 11011 029e 01       		.uleb128 0x1
 11012 029f 50       		.byte	0x50
 11013 02a0 00       		.byte	0
 11014              	.LVUS162:
 11015 02a1 00       		.uleb128 0
 11016 02a2 02       		.uleb128 .LVU1626
 11017 02a3 02       		.uleb128 .LVU1626
 11018 02a4 00       		.uleb128 .LVU1628
 11019 02a5 00       		.uleb128 .LVU1628
 11020 02a6 00       		.uleb128 .LVU1775
 11021 02a7 00       		.uleb128 .LVU1775
 11022 02a8 00       		.uleb128 .LVU1785
 11023 02a9 00       		.uleb128 .LVU1785
 11024 02aa 00       		.uleb128 0
 11025              	.LLST162:
 11026 02ab 06       		.byte	0x6
 11027 02ac 00000000 		.4byte	.LVL350
 11028 02b0 04       		.byte	0x4
 11029 02b1 00       		.uleb128 .LVL350-.LVL350
 11030 02b2 AE01     		.uleb128 .LVL356-.LVL350
 11031 02b4 01       		.uleb128 0x1
 11032 02b5 51       		.byte	0x51
 11033 02b6 04       		.byte	0x4
 11034 02b7 AE01     		.uleb128 .LVL356-.LVL350
 11035 02b9 B401     		.uleb128 .LVL358-.LVL350
 11036 02bb 04       		.uleb128 0x4
 11037 02bc A3       		.byte	0xa3
 11038 02bd 01       		.uleb128 0x1
 11039 02be 51       		.byte	0x51
 11040 02bf 9F       		.byte	0x9f
 11041 02c0 04       		.byte	0x4
 11042 02c1 B401     		.uleb128 .LVL358-.LVL350
 11043 02c3 B204     		.uleb128 .LVL384-.LVL350
 11044 02c5 01       		.uleb128 0x1
 11045 02c6 51       		.byte	0x51
 11046 02c7 04       		.byte	0x4
 11047 02c8 B204     		.uleb128 .LVL384-.LVL350
 11048 02ca C004     		.uleb128 .LVL387-.LVL350
 11049 02cc 04       		.uleb128 0x4
 11050 02cd A3       		.byte	0xa3
 11051 02ce 01       		.uleb128 0x1
 11052 02cf 51       		.byte	0x51
 11053 02d0 9F       		.byte	0x9f
 11054 02d1 04       		.byte	0x4
 11055 02d2 C004     		.uleb128 .LVL387-.LVL350
 11056 02d4 E405     		.uleb128 .LFE183-.LVL350
 11057 02d6 01       		.uleb128 0x1
 11058 02d7 51       		.byte	0x51
ARM GAS  C:\Users\DEVELO~1\AppData\Local\Temp\cc15HDCU.s 			page 195


 11059 02d8 00       		.byte	0
 11060              	.LVUS163:
 11061 02d9 00       		.uleb128 0
 11062 02da 00       		.uleb128 .LVU1618
 11063 02db 00       		.uleb128 .LVU1618
 11064 02dc 00       		.uleb128 .LVU1628
 11065 02dd 00       		.uleb128 .LVU1628
 11066 02de 00       		.uleb128 .LVU1678
 11067 02df 00       		.uleb128 .LVU1678
 11068 02e0 00       		.uleb128 .LVU1681
 11069 02e1 00       		.uleb128 .LVU1681
 11070 02e2 00       		.uleb128 .LVU1718
 11071 02e3 00       		.uleb128 .LVU1718
 11072 02e4 00       		.uleb128 .LVU1728
 11073 02e5 00       		.uleb128 .LVU1728
 11074 02e6 00       		.uleb128 .LVU1750
 11075 02e7 00       		.uleb128 .LVU1750
 11076 02e8 00       		.uleb128 .LVU1794
 11077 02e9 00       		.uleb128 .LVU1794
 11078 02ea 00       		.uleb128 0
 11079              	.LLST163:
 11080 02eb 06       		.byte	0x6
 11081 02ec 00000000 		.4byte	.LVL350
 11082 02f0 04       		.byte	0x4
 11083 02f1 00       		.uleb128 .LVL350-.LVL350
 11084 02f2 9A01     		.uleb128 .LVL355-.LVL350
 11085 02f4 01       		.uleb128 0x1
 11086 02f5 52       		.byte	0x52
 11087 02f6 04       		.byte	0x4
 11088 02f7 9A01     		.uleb128 .LVL355-.LVL350
 11089 02f9 B401     		.uleb128 .LVL358-.LVL350
 11090 02fb 04       		.uleb128 0x4
 11091 02fc A3       		.byte	0xa3
 11092 02fd 01       		.uleb128 0x1
 11093 02fe 52       		.byte	0x52
 11094 02ff 9F       		.byte	0x9f
 11095 0300 04       		.byte	0x4
 11096 0301 B401     		.uleb128 .LVL358-.LVL350
 11097 0303 C002     		.uleb128 .LVL362-.LVL350
 11098 0305 01       		.uleb128 0x1
 11099 0306 52       		.byte	0x52
 11100 0307 04       		.byte	0x4
 11101 0308 C002     		.uleb128 .LVL362-.LVL350
 11102 030a D802     		.uleb128 .LVL363-.LVL350
 11103 030c 04       		.uleb128 0x4
 11104 030d A3       		.byte	0xa3
 11105 030e 01       		.uleb128 0x1
 11106 030f 52       		.byte	0x52
 11107 0310 9F       		.byte	0x9f
 11108 0311 04       		.byte	0x4
 11109 0312 D802     		.uleb128 .LVL363-.LVL350
 11110 0314 D003     		.uleb128 .LVL368-.LVL350
 11111 0316 01       		.uleb128 0x1
 11112 0317 52       		.byte	0x52
 11113 0318 04       		.byte	0x4
 11114 0319 D003     		.uleb128 .LVL368-.LVL350
 11115 031b E403     		.uleb128 .LVL369-.LVL350
ARM GAS  C:\Users\DEVELO~1\AppData\Local\Temp\cc15HDCU.s 			page 196


 11116 031d 04       		.uleb128 0x4
 11117 031e A3       		.byte	0xa3
 11118 031f 01       		.uleb128 0x1
 11119 0320 52       		.byte	0x52
 11120 0321 9F       		.byte	0x9f
 11121 0322 04       		.byte	0x4
 11122 0323 E403     		.uleb128 .LVL369-.LVL350
 11123 0325 8404     		.uleb128 .LVL377-.LVL350
 11124 0327 01       		.uleb128 0x1
 11125 0328 52       		.byte	0x52
 11126 0329 04       		.byte	0x4
 11127 032a 8404     		.uleb128 .LVL377-.LVL350
 11128 032c D804     		.uleb128 .LVL388-.LVL350
 11129 032e 04       		.uleb128 0x4
 11130 032f A3       		.byte	0xa3
 11131 0330 01       		.uleb128 0x1
 11132 0331 52       		.byte	0x52
 11133 0332 9F       		.byte	0x9f
 11134 0333 04       		.byte	0x4
 11135 0334 D804     		.uleb128 .LVL388-.LVL350
 11136 0336 E405     		.uleb128 .LFE183-.LVL350
 11137 0338 01       		.uleb128 0x1
 11138 0339 52       		.byte	0x52
 11139 033a 00       		.byte	0
 11140              	.LVUS164:
 11141 033b 02       		.uleb128 .LVU1553
 11142 033c 00       		.uleb128 .LVU1627
 11143 033d 00       		.uleb128 .LVU1627
 11144 033e 00       		.uleb128 .LVU1628
 11145 033f 00       		.uleb128 .LVU1628
 11146 0340 00       		.uleb128 .LVU1737
 11147 0341 00       		.uleb128 .LVU1737
 11148 0342 00       		.uleb128 .LVU1750
 11149 0343 00       		.uleb128 .LVU1750
 11150 0344 00       		.uleb128 0
 11151              	.LLST164:
 11152 0345 06       		.byte	0x6
 11153 0346 00000000 		.4byte	.LVL350
 11154 034a 04       		.byte	0x4
 11155 034b 00       		.uleb128 .LVL350-.LVL350
 11156 034c B001     		.uleb128 .LVL357-.LVL350
 11157 034e 01       		.uleb128 0x1
 11158 034f 50       		.byte	0x50
 11159 0350 04       		.byte	0x4
 11160 0351 B001     		.uleb128 .LVL357-.LVL350
 11161 0353 B401     		.uleb128 .LVL358-.LVL350
 11162 0355 04       		.uleb128 0x4
 11163 0356 77       		.byte	0x77
 11164 0357 8078     		.sleb128 -1024
 11165 0359 9F       		.byte	0x9f
 11166 035a 04       		.byte	0x4
 11167 035b B401     		.uleb128 .LVL358-.LVL350
 11168 035d EC03     		.uleb128 .LVL371-.LVL350
 11169 035f 01       		.uleb128 0x1
 11170 0360 50       		.byte	0x50
 11171 0361 04       		.byte	0x4
 11172 0362 EC03     		.uleb128 .LVL371-.LVL350
ARM GAS  C:\Users\DEVELO~1\AppData\Local\Temp\cc15HDCU.s 			page 197


 11173 0364 8404     		.uleb128 .LVL377-.LVL350
 11174 0366 04       		.uleb128 0x4
 11175 0367 A3       		.byte	0xa3
 11176 0368 01       		.uleb128 0x1
 11177 0369 50       		.byte	0x50
 11178 036a 9F       		.byte	0x9f
 11179 036b 04       		.byte	0x4
 11180 036c 8404     		.uleb128 .LVL377-.LVL350
 11181 036e E405     		.uleb128 .LFE183-.LVL350
 11182 0370 01       		.uleb128 0x1
 11183 0371 50       		.byte	0x50
 11184 0372 00       		.byte	0
 11185              	.LVUS165:
 11186 0373 00       		.uleb128 .LVU1557
 11187 0374 02       		.uleb128 .LVU1626
 11188 0375 00       		.uleb128 .LVU1628
 11189 0376 00       		.uleb128 .LVU1735
 11190 0377 00       		.uleb128 .LVU1735
 11191 0378 00       		.uleb128 .LVU1738
 11192 0379 00       		.uleb128 .LVU1750
 11193 037a 00       		.uleb128 .LVU1773
 11194 037b 00       		.uleb128 .LVU1785
 11195 037c 00       		.uleb128 0
 11196              	.LLST165:
 11197 037d 06       		.byte	0x6
 11198 037e 0A000000 		.4byte	.LVL351
 11199 0382 04       		.byte	0x4
 11200 0383 00       		.uleb128 .LVL351-.LVL351
 11201 0384 A401     		.uleb128 .LVL356-.LVL351
 11202 0386 01       		.uleb128 0x1
 11203 0387 5C       		.byte	0x5c
 11204 0388 04       		.byte	0x4
 11205 0389 AA01     		.uleb128 .LVL358-.LVL351
 11206 038b DE03     		.uleb128 .LVL370-.LVL351
 11207 038d 01       		.uleb128 0x1
 11208 038e 5C       		.byte	0x5c
 11209 038f 04       		.byte	0x4
 11210 0390 DE03     		.uleb128 .LVL370-.LVL351
 11211 0392 E603     		.uleb128 .LVL372-.LVL351
 11212 0394 08       		.uleb128 0x8
 11213 0395 71       		.byte	0x71
 11214 0396 01       		.sleb128 1
 11215 0397 94       		.byte	0x94
 11216 0398 01       		.byte	0x1
 11217 0399 08       		.byte	0x8
 11218 039a FF       		.byte	0xff
 11219 039b 1A       		.byte	0x1a
 11220 039c 9F       		.byte	0x9f
 11221 039d 04       		.byte	0x4
 11222 039e FA03     		.uleb128 .LVL377-.LVL351
 11223 03a0 A004     		.uleb128 .LVL382-.LVL351
 11224 03a2 01       		.uleb128 0x1
 11225 03a3 5C       		.byte	0x5c
 11226 03a4 04       		.byte	0x4
 11227 03a5 B604     		.uleb128 .LVL387-.LVL351
 11228 03a7 DA05     		.uleb128 .LFE183-.LVL351
 11229 03a9 01       		.uleb128 0x1
ARM GAS  C:\Users\DEVELO~1\AppData\Local\Temp\cc15HDCU.s 			page 198


 11230 03aa 5C       		.byte	0x5c
 11231 03ab 00       		.byte	0
 11232              	.LVUS166:
 11233 03ac 00       		.uleb128 .LVU1595
 11234 03ad 00       		.uleb128 .LVU1599
 11235 03ae 00       		.uleb128 .LVU1599
 11236 03af 00       		.uleb128 .LVU1601
 11237              	.LLST166:
 11238 03b0 06       		.byte	0x6
 11239 03b1 62000000 		.4byte	.LVL352
 11240 03b5 04       		.byte	0x4
 11241 03b6 00       		.uleb128 .LVL352-.LVL352
 11242 03b7 08       		.uleb128 .LVL353-.LVL352
 11243 03b8 06       		.uleb128 0x6
 11244 03b9 74       		.byte	0x74
 11245 03ba 00       		.sleb128 0
 11246 03bb 20       		.byte	0x20
 11247 03bc 31       		.byte	0x31
 11248 03bd 1A       		.byte	0x1a
 11249 03be 9F       		.byte	0x9f
 11250 03bf 04       		.byte	0x4
 11251 03c0 08       		.uleb128 .LVL353-.LVL352
 11252 03c1 10       		.uleb128 .LVL354-.LVL352
 11253 03c2 05       		.uleb128 0x5
 11254 03c3 74       		.byte	0x74
 11255 03c4 00       		.sleb128 0
 11256 03c5 31       		.byte	0x31
 11257 03c6 1A       		.byte	0x1a
 11258 03c7 9F       		.byte	0x9f
 11259 03c8 00       		.byte	0
 11260              	.LVUS167:
 11261 03c9 01       		.uleb128 .LVU1751
 11262 03ca 00       		.uleb128 .LVU1758
 11263 03cb 02       		.uleb128 .LVU1787
 11264 03cc 00       		.uleb128 .LVU1794
 11265              	.LLST167:
 11266 03cd 06       		.byte	0x6
 11267 03ce 04020000 		.4byte	.LVL377
 11268 03d2 04       		.byte	0x4
 11269 03d3 00       		.uleb128 .LVL377-.LVL377
 11270 03d4 16       		.uleb128 .LVL378-.LVL377
 11271 03d5 05       		.uleb128 0x5
 11272 03d6 72       		.byte	0x72
 11273 03d7 03       		.sleb128 3
 11274 03d8 32       		.byte	0x32
 11275 03d9 25       		.byte	0x25
 11276 03da 9F       		.byte	0x9f
 11277 03db 04       		.byte	0x4
 11278 03dc 3C       		.uleb128 .LVL387-.LVL377
 11279 03dd 54       		.uleb128 .LVL388-.LVL377
 11280 03de 05       		.uleb128 0x5
 11281 03df 72       		.byte	0x72
 11282 03e0 03       		.sleb128 3
 11283 03e1 32       		.byte	0x32
 11284 03e2 25       		.byte	0x25
 11285 03e3 9F       		.byte	0x9f
 11286 03e4 00       		.byte	0
ARM GAS  C:\Users\DEVELO~1\AppData\Local\Temp\cc15HDCU.s 			page 199


 11287              	.LVUS168:
 11288 03e5 00       		.uleb128 .LVU1630
 11289 03e6 00       		.uleb128 .LVU1635
 11290 03e7 00       		.uleb128 .LVU1635
 11291 03e8 00       		.uleb128 .LVU1637
 11292 03e9 01       		.uleb128 .LVU1692
 11293 03ea 00       		.uleb128 .LVU1704
 11294 03eb 00       		.uleb128 .LVU1709
 11295 03ec 00       		.uleb128 .LVU1712
 11296 03ed 00       		.uleb128 .LVU1806
 11297 03ee 00       		.uleb128 .LVU1822
 11298 03ef 00       		.uleb128 .LVU1829
 11299 03f0 00       		.uleb128 .LVU1842
 11300              	.LLST168:
 11301 03f1 06       		.byte	0x6
 11302 03f2 B6000000 		.4byte	.LVL359
 11303 03f6 04       		.byte	0x4
 11304 03f7 00       		.uleb128 .LVL359-.LVL359
 11305 03f8 0C       		.uleb128 .LVL360-.LVL359
 11306 03f9 11       		.uleb128 0x11
 11307 03fa 74       		.byte	0x74
 11308 03fb 00       		.sleb128 0
 11309 03fc 75       		.byte	0x75
 11310 03fd 00       		.sleb128 0
 11311 03fe 22       		.byte	0x22
 11312 03ff 31       		.byte	0x31
 11313 0400 1C       		.byte	0x1c
 11314 0401 A8       		.byte	0xa8
 11315 0402 26       		.uleb128 0x26
 11316 0403 75       		.byte	0x75
 11317 0404 00       		.sleb128 0
 11318 0405 A8       		.byte	0xa8
 11319 0406 26       		.uleb128 0x26
 11320 0407 1B       		.byte	0x1b
 11321 0408 A8       		.byte	0xa8
 11322 0409 00       		.uleb128 0
 11323 040a 9F       		.byte	0x9f
 11324 040b 04       		.byte	0x4
 11325 040c 0C       		.uleb128 .LVL360-.LVL359
 11326 040d 1A       		.uleb128 .LVL361-.LVL359
 11327 040e 1D       		.uleb128 0x1d
 11328 040f 71       		.byte	0x71
 11329 0410 14       		.sleb128 20
 11330 0411 94       		.byte	0x94
 11331 0412 02       		.byte	0x2
 11332 0413 0A       		.byte	0xa
 11333 0414 FFFF     		.2byte	0xffff
 11334 0416 1A       		.byte	0x1a
 11335 0417 74       		.byte	0x74
 11336 0418 00       		.sleb128 0
 11337 0419 22       		.byte	0x22
 11338 041a 31       		.byte	0x31
 11339 041b 1C       		.byte	0x1c
 11340 041c A8       		.byte	0xa8
 11341 041d 26       		.uleb128 0x26
 11342 041e 71       		.byte	0x71
 11343 041f 14       		.sleb128 20
ARM GAS  C:\Users\DEVELO~1\AppData\Local\Temp\cc15HDCU.s 			page 200


 11344 0420 94       		.byte	0x94
 11345 0421 02       		.byte	0x2
 11346 0422 0A       		.byte	0xa
 11347 0423 FFFF     		.2byte	0xffff
 11348 0425 1A       		.byte	0x1a
 11349 0426 A8       		.byte	0xa8
 11350 0427 26       		.uleb128 0x26
 11351 0428 1B       		.byte	0x1b
 11352 0429 A8       		.byte	0xa8
 11353 042a 00       		.uleb128 0
 11354 042b 9F       		.byte	0x9f
 11355 042c 04       		.byte	0x4
 11356 042d C401     		.uleb128 .LVL364-.LVL359
 11357 042f E201     		.uleb128 .LVL365-.LVL359
 11358 0431 02       		.uleb128 0x2
 11359 0432 31       		.byte	0x31
 11360 0433 9F       		.byte	0x9f
 11361 0434 04       		.byte	0x4
 11362 0435 FC01     		.uleb128 .LVL366-.LVL359
 11363 0437 8602     		.uleb128 .LVL367-.LVL359
 11364 0439 02       		.uleb128 0x2
 11365 043a 31       		.byte	0x31
 11366 043b 9F       		.byte	0x9f
 11367 043c 04       		.byte	0x4
 11368 043d CA03     		.uleb128 .LVL389-.LVL359
 11369 043f F003     		.uleb128 .LVL390-.LVL359
 11370 0441 02       		.uleb128 0x2
 11371 0442 31       		.byte	0x31
 11372 0443 9F       		.byte	0x9f
 11373 0444 04       		.byte	0x4
 11374 0445 8004     		.uleb128 .LVL391-.LVL359
 11375 0447 A004     		.uleb128 .LVL392-.LVL359
 11376 0449 02       		.uleb128 0x2
 11377 044a 31       		.byte	0x31
 11378 044b 9F       		.byte	0x9f
 11379 044c 00       		.byte	0
 11380              	.LVUS170:
 11381 044d 01       		.uleb128 .LVU1729
 11382 044e 00       		.uleb128 .LVU1738
 11383              	.LLST170:
 11384 044f 08       		.byte	0x8
 11385 0450 E4010000 		.4byte	.LVL369
 11386 0454 0C       		.uleb128 .LVL372-.LVL369
 11387 0455 02       		.uleb128 0x2
 11388 0456 71       		.byte	0x71
 11389 0457 01       		.sleb128 1
 11390 0458 00       		.byte	0
 11391              	.LVUS171:
 11392 0459 01       		.uleb128 .LVU1729
 11393 045a 00       		.uleb128 .LVU1737
 11394 045b 00       		.uleb128 .LVU1737
 11395 045c 01       		.uleb128 .LVU1747
 11396              	.LLST171:
 11397 045d 06       		.byte	0x6
 11398 045e E4010000 		.4byte	.LVL369
 11399 0462 04       		.byte	0x4
 11400 0463 00       		.uleb128 .LVL369-.LVL369
ARM GAS  C:\Users\DEVELO~1\AppData\Local\Temp\cc15HDCU.s 			page 201


 11401 0464 08       		.uleb128 .LVL371-.LVL369
 11402 0465 01       		.uleb128 0x1
 11403 0466 50       		.byte	0x50
 11404 0467 04       		.byte	0x4
 11405 0468 08       		.uleb128 .LVL371-.LVL369
 11406 0469 1C       		.uleb128 .LVL376-.LVL369
 11407 046a 04       		.uleb128 0x4
 11408 046b A3       		.byte	0xa3
 11409 046c 01       		.uleb128 0x1
 11410 046d 50       		.byte	0x50
 11411 046e 9F       		.byte	0x9f
 11412 046f 00       		.byte	0
 11413              	.LVUS172:
 11414 0470 03       		.uleb128 .LVU1731
 11415 0471 00       		.uleb128 .LVU1737
 11416 0472 00       		.uleb128 .LVU1737
 11417 0473 01       		.uleb128 .LVU1747
 11418              	.LLST172:
 11419 0474 06       		.byte	0x6
 11420 0475 E4010000 		.4byte	.LVL369
 11421 0479 04       		.byte	0x4
 11422 047a 00       		.uleb128 .LVL369-.LVL369
 11423 047b 08       		.uleb128 .LVL371-.LVL369
 11424 047c 01       		.uleb128 0x1
 11425 047d 50       		.byte	0x50
 11426 047e 04       		.byte	0x4
 11427 047f 08       		.uleb128 .LVL371-.LVL369
 11428 0480 1C       		.uleb128 .LVL376-.LVL369
 11429 0481 04       		.uleb128 0x4
 11430 0482 A3       		.byte	0xa3
 11431 0483 01       		.uleb128 0x1
 11432 0484 50       		.byte	0x50
 11433 0485 9F       		.byte	0x9f
 11434 0486 00       		.byte	0
 11435              	.LVUS173:
 11436 0487 04       		.uleb128 .LVU1732
 11437 0488 00       		.uleb128 .LVU1735
 11438 0489 00       		.uleb128 .LVU1735
 11439 048a 00       		.uleb128 .LVU1738
 11440              	.LLST173:
 11441 048b 06       		.byte	0x6
 11442 048c E4010000 		.4byte	.LVL369
 11443 0490 04       		.byte	0x4
 11444 0491 00       		.uleb128 .LVL369-.LVL369
 11445 0492 04       		.uleb128 .LVL370-.LVL369
 11446 0493 01       		.uleb128 0x1
 11447 0494 5C       		.byte	0x5c
 11448 0495 04       		.byte	0x4
 11449 0496 04       		.uleb128 .LVL370-.LVL369
 11450 0497 0C       		.uleb128 .LVL372-.LVL369
 11451 0498 08       		.uleb128 0x8
 11452 0499 71       		.byte	0x71
 11453 049a 01       		.sleb128 1
 11454 049b 94       		.byte	0x94
 11455 049c 01       		.byte	0x1
 11456 049d 08       		.byte	0x8
 11457 049e FF       		.byte	0xff
ARM GAS  C:\Users\DEVELO~1\AppData\Local\Temp\cc15HDCU.s 			page 202


 11458 049f 1A       		.byte	0x1a
 11459 04a0 9F       		.byte	0x9f
 11460 04a1 00       		.byte	0
 11461              	.LVUS174:
 11462 04a2 05       		.uleb128 .LVU1733
 11463 04a3 00       		.uleb128 .LVU1750
 11464              	.LLST174:
 11465 04a4 08       		.byte	0x8
 11466 04a5 E4010000 		.4byte	.LVL369
 11467 04a9 20       		.uleb128 .LVL377-.LVL369
 11468 04aa 02       		.uleb128 0x2
 11469 04ab 31       		.byte	0x31
 11470 04ac 9F       		.byte	0x9f
 11471 04ad 00       		.byte	0
 11472              	.LVUS175:
 11473 04ae 00       		.uleb128 .LVU1740
 11474 04af 01       		.uleb128 .LVU1747
 11475              	.LLST175:
 11476 04b0 08       		.byte	0x8
 11477 04b1 F4010000 		.4byte	.LVL373
 11478 04b5 0C       		.uleb128 .LVL376-.LVL373
 11479 04b6 01       		.uleb128 0x1
 11480 04b7 53       		.byte	0x53
 11481 04b8 00       		.byte	0
 11482              	.LVUS177:
 11483 04b9 00       		.uleb128 .LVU1761
 11484 04ba 00       		.uleb128 .LVU1785
 11485              	.LLST177:
 11486 04bb 08       		.byte	0x8
 11487 04bc 1E020000 		.4byte	.LVL379
 11488 04c0 22       		.uleb128 .LVL387-.LVL379
 11489 04c1 02       		.uleb128 0x2
 11490 04c2 30       		.byte	0x30
 11491 04c3 9F       		.byte	0x9f
 11492 04c4 00       		.byte	0
 11493              	.LVUS178:
 11494 04c5 00       		.uleb128 .LVU1761
 11495 04c6 00       		.uleb128 .LVU1775
 11496 04c7 00       		.uleb128 .LVU1775
 11497 04c8 00       		.uleb128 .LVU1785
 11498              	.LLST178:
 11499 04c9 06       		.byte	0x6
 11500 04ca 1E020000 		.4byte	.LVL379
 11501 04ce 04       		.byte	0x4
 11502 04cf 00       		.uleb128 .LVL379-.LVL379
 11503 04d0 14       		.uleb128 .LVL384-.LVL379
 11504 04d1 01       		.uleb128 0x1
 11505 04d2 53       		.byte	0x53
 11506 04d3 04       		.byte	0x4
 11507 04d4 14       		.uleb128 .LVL384-.LVL379
 11508 04d5 22       		.uleb128 .LVL387-.LVL379
 11509 04d6 05       		.uleb128 0x5
 11510 04d7 A3       		.byte	0xa3
 11511 04d8 01       		.uleb128 0x1
 11512 04d9 51       		.byte	0x51
 11513 04da 23       		.byte	0x23
 11514 04db 18       		.uleb128 0x18
ARM GAS  C:\Users\DEVELO~1\AppData\Local\Temp\cc15HDCU.s 			page 203


 11515 04dc 00       		.byte	0
 11516              	.LVUS179:
 11517 04dd 00       		.uleb128 .LVU1761
 11518 04de 00       		.uleb128 .LVU1785
 11519              	.LLST179:
 11520 04df 08       		.byte	0x8
 11521 04e0 1E020000 		.4byte	.LVL379
 11522 04e4 22       		.uleb128 .LVL387-.LVL379
 11523 04e5 01       		.uleb128 0x1
 11524 04e6 50       		.byte	0x50
 11525 04e7 00       		.byte	0
 11526              	.LVUS180:
 11527 04e8 02       		.uleb128 .LVU1763
 11528 04e9 00       		.uleb128 .LVU1785
 11529              	.LLST180:
 11530 04ea 08       		.byte	0x8
 11531 04eb 1E020000 		.4byte	.LVL379
 11532 04ef 22       		.uleb128 .LVL387-.LVL379
 11533 04f0 01       		.uleb128 0x1
 11534 04f1 50       		.byte	0x50
 11535 04f2 00       		.byte	0
 11536              	.LVUS181:
 11537 04f3 03       		.uleb128 .LVU1764
 11538 04f4 00       		.uleb128 .LVU1777
 11539 04f5 00       		.uleb128 .LVU1777
 11540 04f6 01       		.uleb128 .LVU1780
 11541 04f7 01       		.uleb128 .LVU1780
 11542 04f8 02       		.uleb128 .LVU1781
 11543 04f9 02       		.uleb128 .LVU1781
 11544 04fa 03       		.uleb128 .LVU1782
 11545 04fb 03       		.uleb128 .LVU1782
 11546 04fc 04       		.uleb128 .LVU1783
 11547 04fd 04       		.uleb128 .LVU1783
 11548 04fe 00       		.uleb128 .LVU1785
 11549              	.LLST181:
 11550 04ff 06       		.byte	0x6
 11551 0500 1E020000 		.4byte	.LVL379
 11552 0504 04       		.byte	0x4
 11553 0505 00       		.uleb128 .LVL379-.LVL379
 11554 0506 18       		.uleb128 .LVL385-.LVL379
 11555 0507 01       		.uleb128 0x1
 11556 0508 53       		.byte	0x53
 11557 0509 04       		.byte	0x4
 11558 050a 18       		.uleb128 .LVL385-.LVL379
 11559 050b 1E       		.uleb128 .LVL386-.LVL379
 11560 050c 03       		.uleb128 0x3
 11561 050d 73       		.byte	0x73
 11562 050e 7C       		.sleb128 -4
 11563 050f 9F       		.byte	0x9f
 11564 0510 04       		.byte	0x4
 11565 0511 1E       		.uleb128 .LVL386-.LVL379
 11566 0512 1E       		.uleb128 .LVL386-.LVL379
 11567 0513 03       		.uleb128 0x3
 11568 0514 73       		.byte	0x73
 11569 0515 7D       		.sleb128 -3
 11570 0516 9F       		.byte	0x9f
 11571 0517 04       		.byte	0x4
ARM GAS  C:\Users\DEVELO~1\AppData\Local\Temp\cc15HDCU.s 			page 204


 11572 0518 1E       		.uleb128 .LVL386-.LVL379
 11573 0519 1E       		.uleb128 .LVL386-.LVL379
 11574 051a 03       		.uleb128 0x3
 11575 051b 73       		.byte	0x73
 11576 051c 7E       		.sleb128 -2
 11577 051d 9F       		.byte	0x9f
 11578 051e 04       		.byte	0x4
 11579 051f 1E       		.uleb128 .LVL386-.LVL379
 11580 0520 1E       		.uleb128 .LVL386-.LVL379
 11581 0521 03       		.uleb128 0x3
 11582 0522 73       		.byte	0x73
 11583 0523 7F       		.sleb128 -1
 11584 0524 9F       		.byte	0x9f
 11585 0525 04       		.byte	0x4
 11586 0526 1E       		.uleb128 .LVL386-.LVL379
 11587 0527 22       		.uleb128 .LVL387-.LVL379
 11588 0528 01       		.uleb128 0x1
 11589 0529 53       		.byte	0x53
 11590 052a 00       		.byte	0
 11591              	.LVUS182:
 11592 052b 00       		.uleb128 .LVU1769
 11593 052c 00       		.uleb128 .LVU1771
 11594 052d 00       		.uleb128 .LVU1771
 11595 052e 00       		.uleb128 .LVU1774
 11596              	.LLST182:
 11597 052f 06       		.byte	0x6
 11598 0530 20020000 		.4byte	.LVL380
 11599 0534 04       		.byte	0x4
 11600 0535 00       		.uleb128 .LVL380-.LVL380
 11601 0536 02       		.uleb128 .LVL381-.LVL380
 11602 0537 05       		.uleb128 0x5
 11603 0538 72       		.byte	0x72
 11604 0539 00       		.sleb128 0
 11605 053a 32       		.byte	0x32
 11606 053b 25       		.byte	0x25
 11607 053c 9F       		.byte	0x9f
 11608 053d 04       		.byte	0x4
 11609 053e 02       		.uleb128 .LVL381-.LVL380
 11610 053f 0E       		.uleb128 .LVL383-.LVL380
 11611 0540 01       		.uleb128 0x1
 11612 0541 52       		.byte	0x52
 11613 0542 00       		.byte	0
 11614              	.LVUS183:
 11615 0543 01       		.uleb128 .LVU1770
 11616 0544 00       		.uleb128 .LVU1775
 11617              	.LLST183:
 11618 0545 08       		.byte	0x8
 11619 0546 20020000 		.4byte	.LVL380
 11620 054a 12       		.uleb128 .LVL384-.LVL380
 11621 054b 02       		.uleb128 0x2
 11622 054c 30       		.byte	0x30
 11623 054d 9F       		.byte	0x9f
 11624 054e 00       		.byte	0
 11625              	.LVUS147:
 11626 054f 00       		.uleb128 0
 11627 0550 00       		.uleb128 .LVU1465
 11628 0551 00       		.uleb128 .LVU1465
ARM GAS  C:\Users\DEVELO~1\AppData\Local\Temp\cc15HDCU.s 			page 205


 11629 0552 00       		.uleb128 0
 11630              	.LLST147:
 11631 0553 06       		.byte	0x6
 11632 0554 00000000 		.4byte	.LVL333
 11633 0558 04       		.byte	0x4
 11634 0559 00       		.uleb128 .LVL333-.LVL333
 11635 055a 30       		.uleb128 .LVL336-.LVL333
 11636 055b 01       		.uleb128 0x1
 11637 055c 50       		.byte	0x50
 11638 055d 04       		.byte	0x4
 11639 055e 30       		.uleb128 .LVL336-.LVL333
 11640 055f BE02     		.uleb128 .LFE182-.LVL333
 11641 0561 01       		.uleb128 0x1
 11642 0562 56       		.byte	0x56
 11643 0563 00       		.byte	0
 11644              	.LVUS148:
 11645 0564 00       		.uleb128 0
 11646 0565 00       		.uleb128 .LVU1498
 11647 0566 00       		.uleb128 .LVU1498
 11648 0567 00       		.uleb128 .LVU1535
 11649 0568 00       		.uleb128 .LVU1535
 11650 0569 00       		.uleb128 0
 11651              	.LLST148:
 11652 056a 06       		.byte	0x6
 11653 056b 00000000 		.4byte	.LVL333
 11654 056f 04       		.byte	0x4
 11655 0570 00       		.uleb128 .LVL333-.LVL333
 11656 0571 9801     		.uleb128 .LVL341-.LVL333
 11657 0573 01       		.uleb128 0x1
 11658 0574 51       		.byte	0x51
 11659 0575 04       		.byte	0x4
 11660 0576 9801     		.uleb128 .LVL341-.LVL333
 11661 0578 8402     		.uleb128 .LVL345-.LVL333
 11662 057a 04       		.uleb128 0x4
 11663 057b A3       		.byte	0xa3
 11664 057c 01       		.uleb128 0x1
 11665 057d 51       		.byte	0x51
 11666 057e 9F       		.byte	0x9f
 11667 057f 04       		.byte	0x4
 11668 0580 8402     		.uleb128 .LVL345-.LVL333
 11669 0582 BE02     		.uleb128 .LFE182-.LVL333
 11670 0584 01       		.uleb128 0x1
 11671 0585 51       		.byte	0x51
 11672 0586 00       		.byte	0
 11673              	.LVUS149:
 11674 0587 00       		.uleb128 0
 11675 0588 00       		.uleb128 .LVU1492
 11676 0589 00       		.uleb128 .LVU1492
 11677 058a 00       		.uleb128 .LVU1535
 11678 058b 00       		.uleb128 .LVU1535
 11679 058c 00       		.uleb128 0
 11680              	.LLST149:
 11681 058d 06       		.byte	0x6
 11682 058e 00000000 		.4byte	.LVL333
 11683 0592 04       		.byte	0x4
 11684 0593 00       		.uleb128 .LVL333-.LVL333
 11685 0594 8401     		.uleb128 .LVL340-.LVL333
ARM GAS  C:\Users\DEVELO~1\AppData\Local\Temp\cc15HDCU.s 			page 206


 11686 0596 01       		.uleb128 0x1
 11687 0597 52       		.byte	0x52
 11688 0598 04       		.byte	0x4
 11689 0599 8401     		.uleb128 .LVL340-.LVL333
 11690 059b 8402     		.uleb128 .LVL345-.LVL333
 11691 059d 04       		.uleb128 0x4
 11692 059e A3       		.byte	0xa3
 11693 059f 01       		.uleb128 0x1
 11694 05a0 52       		.byte	0x52
 11695 05a1 9F       		.byte	0x9f
 11696 05a2 04       		.byte	0x4
 11697 05a3 8402     		.uleb128 .LVL345-.LVL333
 11698 05a5 BE02     		.uleb128 .LFE182-.LVL333
 11699 05a7 01       		.uleb128 0x1
 11700 05a8 52       		.byte	0x52
 11701 05a9 00       		.byte	0
 11702              	.LVUS150:
 11703 05aa 00       		.uleb128 0
 11704 05ab 00       		.uleb128 .LVU1455
 11705 05ac 00       		.uleb128 .LVU1455
 11706 05ad 00       		.uleb128 0
 11707              	.LLST150:
 11708 05ae 06       		.byte	0x6
 11709 05af 00000000 		.4byte	.LVL333
 11710 05b3 04       		.byte	0x4
 11711 05b4 00       		.uleb128 .LVL333-.LVL333
 11712 05b5 10       		.uleb128 .LVL334-.LVL333
 11713 05b6 01       		.uleb128 0x1
 11714 05b7 53       		.byte	0x53
 11715 05b8 04       		.byte	0x4
 11716 05b9 10       		.uleb128 .LVL334-.LVL333
 11717 05ba BE02     		.uleb128 .LFE182-.LVL333
 11718 05bc 04       		.uleb128 0x4
 11719 05bd A3       		.byte	0xa3
 11720 05be 01       		.uleb128 0x1
 11721 05bf 53       		.byte	0x53
 11722 05c0 9F       		.byte	0x9f
 11723 05c1 00       		.byte	0
 11724              	.LVUS151:
 11725 05c2 00       		.uleb128 0
 11726 05c3 00       		.uleb128 .LVU1475
 11727 05c4 00       		.uleb128 .LVU1476
 11728 05c5 00       		.uleb128 .LVU1484
 11729 05c6 00       		.uleb128 .LVU1535
 11730 05c7 00       		.uleb128 .LVU1544
 11731 05c8 00       		.uleb128 .LVU1545
 11732 05c9 00       		.uleb128 .LVU1548
 11733 05ca 00       		.uleb128 .LVU1549
 11734 05cb 00       		.uleb128 0
 11735              	.LLST151:
 11736 05cc 06       		.byte	0x6
 11737 05cd 00000000 		.4byte	.LVL333
 11738 05d1 04       		.byte	0x4
 11739 05d2 00       		.uleb128 .LVL333-.LVL333
 11740 05d3 52       		.uleb128 .LVL337-.LVL333
 11741 05d4 02       		.uleb128 0x2
 11742 05d5 91       		.byte	0x91
ARM GAS  C:\Users\DEVELO~1\AppData\Local\Temp\cc15HDCU.s 			page 207


 11743 05d6 00       		.sleb128 0
 11744 05d7 04       		.byte	0x4
 11745 05d8 56       		.uleb128 .LVL338-.LVL333
 11746 05d9 6A       		.uleb128 .LVL339-.LVL333
 11747 05da 02       		.uleb128 0x2
 11748 05db 91       		.byte	0x91
 11749 05dc 00       		.sleb128 0
 11750 05dd 04       		.byte	0x4
 11751 05de 8402     		.uleb128 .LVL345-.LVL333
 11752 05e0 A202     		.uleb128 .LVL346-.LVL333
 11753 05e2 02       		.uleb128 0x2
 11754 05e3 91       		.byte	0x91
 11755 05e4 00       		.sleb128 0
 11756 05e5 04       		.byte	0x4
 11757 05e6 A602     		.uleb128 .LVL347-.LVL333
 11758 05e8 B202     		.uleb128 .LVL348-.LVL333
 11759 05ea 02       		.uleb128 0x2
 11760 05eb 91       		.byte	0x91
 11761 05ec 00       		.sleb128 0
 11762 05ed 04       		.byte	0x4
 11763 05ee B602     		.uleb128 .LVL349-.LVL333
 11764 05f0 BE02     		.uleb128 .LFE182-.LVL333
 11765 05f2 02       		.uleb128 0x2
 11766 05f3 91       		.byte	0x91
 11767 05f4 00       		.sleb128 0
 11768 05f5 00       		.byte	0
 11769              	.LVUS152:
 11770 05f6 00       		.uleb128 0
 11771 05f7 00       		.uleb128 .LVU1475
 11772 05f8 00       		.uleb128 .LVU1476
 11773 05f9 00       		.uleb128 .LVU1484
 11774 05fa 00       		.uleb128 .LVU1535
 11775 05fb 00       		.uleb128 .LVU1544
 11776 05fc 00       		.uleb128 .LVU1545
 11777 05fd 00       		.uleb128 .LVU1548
 11778 05fe 00       		.uleb128 .LVU1549
 11779 05ff 00       		.uleb128 0
 11780              	.LLST152:
 11781 0600 06       		.byte	0x6
 11782 0601 00000000 		.4byte	.LVL333
 11783 0605 04       		.byte	0x4
 11784 0606 00       		.uleb128 .LVL333-.LVL333
 11785 0607 52       		.uleb128 .LVL337-.LVL333
 11786 0608 02       		.uleb128 0x2
 11787 0609 91       		.byte	0x91
 11788 060a 04       		.sleb128 4
 11789 060b 04       		.byte	0x4
 11790 060c 56       		.uleb128 .LVL338-.LVL333
 11791 060d 6A       		.uleb128 .LVL339-.LVL333
 11792 060e 02       		.uleb128 0x2
 11793 060f 91       		.byte	0x91
 11794 0610 04       		.sleb128 4
 11795 0611 04       		.byte	0x4
 11796 0612 8402     		.uleb128 .LVL345-.LVL333
 11797 0614 A202     		.uleb128 .LVL346-.LVL333
 11798 0616 02       		.uleb128 0x2
 11799 0617 91       		.byte	0x91
ARM GAS  C:\Users\DEVELO~1\AppData\Local\Temp\cc15HDCU.s 			page 208


 11800 0618 04       		.sleb128 4
 11801 0619 04       		.byte	0x4
 11802 061a A602     		.uleb128 .LVL347-.LVL333
 11803 061c B202     		.uleb128 .LVL348-.LVL333
 11804 061e 02       		.uleb128 0x2
 11805 061f 91       		.byte	0x91
 11806 0620 04       		.sleb128 4
 11807 0621 04       		.byte	0x4
 11808 0622 B602     		.uleb128 .LVL349-.LVL333
 11809 0624 BE02     		.uleb128 .LFE182-.LVL333
 11810 0626 02       		.uleb128 0x2
 11811 0627 91       		.byte	0x91
 11812 0628 04       		.sleb128 4
 11813 0629 00       		.byte	0
 11814              	.LVUS153:
 11815 062a 00       		.uleb128 0
 11816 062b 00       		.uleb128 .LVU1535
 11817 062c 00       		.uleb128 .LVU1535
 11818 062d 00       		.uleb128 0
 11819              	.LLST153:
 11820 062e 06       		.byte	0x6
 11821 062f 00000000 		.4byte	.LVL333
 11822 0633 04       		.byte	0x4
 11823 0634 00       		.uleb128 .LVL333-.LVL333
 11824 0635 8402     		.uleb128 .LVL345-.LVL333
 11825 0637 02       		.uleb128 0x2
 11826 0638 91       		.byte	0x91
 11827 0639 08       		.sleb128 8
 11828 063a 04       		.byte	0x4
 11829 063b 8402     		.uleb128 .LVL345-.LVL333
 11830 063d BE02     		.uleb128 .LFE182-.LVL333
 11831 063f 02       		.uleb128 0x2
 11832 0640 91       		.byte	0x91
 11833 0641 08       		.sleb128 8
 11834 0642 00       		.byte	0
 11835              	.LVUS154:
 11836 0643 02       		.uleb128 .LVU1450
 11837 0644 00       		.uleb128 .LVU1484
 11838 0645 00       		.uleb128 .LVU1484
 11839 0646 00       		.uleb128 .LVU1535
 11840 0647 00       		.uleb128 .LVU1535
 11841 0648 00       		.uleb128 0
 11842              	.LLST154:
 11843 0649 06       		.byte	0x6
 11844 064a 00000000 		.4byte	.LVL333
 11845 064e 04       		.byte	0x4
 11846 064f 00       		.uleb128 .LVL333-.LVL333
 11847 0650 6A       		.uleb128 .LVL339-.LVL333
 11848 0651 02       		.uleb128 0x2
 11849 0652 30       		.byte	0x30
 11850 0653 9F       		.byte	0x9f
 11851 0654 04       		.byte	0x4
 11852 0655 6A       		.uleb128 .LVL339-.LVL333
 11853 0656 8402     		.uleb128 .LVL345-.LVL333
 11854 0658 01       		.uleb128 0x1
 11855 0659 50       		.byte	0x50
 11856 065a 04       		.byte	0x4
ARM GAS  C:\Users\DEVELO~1\AppData\Local\Temp\cc15HDCU.s 			page 209


 11857 065b 8402     		.uleb128 .LVL345-.LVL333
 11858 065d BE02     		.uleb128 .LFE182-.LVL333
 11859 065f 02       		.uleb128 0x2
 11860 0660 30       		.byte	0x30
 11861 0661 9F       		.byte	0x9f
 11862 0662 00       		.byte	0
 11863              	.LVUS155:
 11864 0663 00       		.uleb128 .LVU1456
 11865 0664 00       		.uleb128 .LVU1465
 11866 0665 00       		.uleb128 .LVU1465
 11867 0666 00       		.uleb128 0
 11868              	.LLST155:
 11869 0667 06       		.byte	0x6
 11870 0668 16000000 		.4byte	.LVL335
 11871 066c 04       		.byte	0x4
 11872 066d 00       		.uleb128 .LVL335-.LVL335
 11873 066e 1A       		.uleb128 .LVL336-.LVL335
 11874 066f 01       		.uleb128 0x1
 11875 0670 50       		.byte	0x50
 11876 0671 04       		.byte	0x4
 11877 0672 1A       		.uleb128 .LVL336-.LVL335
 11878 0673 A802     		.uleb128 .LFE182-.LVL335
 11879 0675 01       		.uleb128 0x1
 11880 0676 56       		.byte	0x56
 11881 0677 00       		.byte	0
 11882              	.LVUS156:
 11883 0678 02       		.uleb128 .LVU1517
 11884 0679 00       		.uleb128 .LVU1519
 11885              	.LLST156:
 11886 067a 08       		.byte	0x8
 11887 067b C2000000 		.4byte	.LVL343
 11888 067f 04       		.uleb128 .LVL344-.LVL343
 11889 0680 16       		.uleb128 0x16
 11890 0681 71       		.byte	0x71
 11891 0682 00       		.sleb128 0
 11892 0683 41       		.byte	0x41
 11893 0684 25       		.byte	0x25
 11894 0685 33       		.byte	0x33
 11895 0686 1A       		.byte	0x1a
 11896 0687 32       		.byte	0x32
 11897 0688 2E       		.byte	0x2e
 11898 0689 75       		.byte	0x75
 11899 068a 00       		.sleb128 0
 11900 068b 08       		.byte	0x8
 11901 068c FF       		.byte	0xff
 11902 068d 1A       		.byte	0x1a
 11903 068e 32       		.byte	0x32
 11904 068f 29       		.byte	0x29
 11905 0690 1A       		.byte	0x1a
 11906 0691 08       		.byte	0x8
 11907 0692 FF       		.byte	0xff
 11908 0693 1A       		.byte	0x1a
 11909 0694 41       		.byte	0x41
 11910 0695 24       		.byte	0x24
 11911 0696 9F       		.byte	0x9f
 11912 0697 00       		.byte	0
 11913              	.LVUS157:
ARM GAS  C:\Users\DEVELO~1\AppData\Local\Temp\cc15HDCU.s 			page 210


 11914 0698 00       		.uleb128 .LVU1515
 11915 0699 00       		.uleb128 .LVU1519
 11916              	.LLST157:
 11917 069a 08       		.byte	0x8
 11918 069b C2000000 		.4byte	.LVL343
 11919 069f 04       		.uleb128 .LVL344-.LVL343
 11920 06a0 07       		.uleb128 0x7
 11921 06a1 71       		.byte	0x71
 11922 06a2 00       		.sleb128 0
 11923 06a3 41       		.byte	0x41
 11924 06a4 25       		.byte	0x25
 11925 06a5 33       		.byte	0x33
 11926 06a6 1A       		.byte	0x1a
 11927 06a7 9F       		.byte	0x9f
 11928 06a8 00       		.byte	0
 11929              	.LVUS159:
 11930 06a9 02       		.uleb128 .LVU1506
 11931 06aa 00       		.uleb128 .LVU1515
 11932              	.LLST159:
 11933 06ab 08       		.byte	0x8
 11934 06ac B6000000 		.4byte	.LVL342
 11935 06b0 0C       		.uleb128 .LVL343-.LVL342
 11936 06b1 01       		.uleb128 0x1
 11937 06b2 56       		.byte	0x56
 11938 06b3 00       		.byte	0
 11939              	.LVUS160:
 11940 06b4 04       		.uleb128 .LVU1508
 11941 06b5 00       		.uleb128 .LVU1515
 11942              	.LLST160:
 11943 06b6 08       		.byte	0x8
 11944 06b7 B6000000 		.4byte	.LVL342
 11945 06bb 0C       		.uleb128 .LVL343-.LVL342
 11946 06bc 01       		.uleb128 0x1
 11947 06bd 56       		.byte	0x56
 11948 06be 00       		.byte	0
 11949              	.LVUS145:
 11950 06bf 00       		.uleb128 0
 11951 06c0 00       		.uleb128 .LVU1447
 11952 06c1 00       		.uleb128 .LVU1447
 11953 06c2 00       		.uleb128 0
 11954              	.LLST145:
 11955 06c3 06       		.byte	0x6
 11956 06c4 00000000 		.4byte	.LVL331
 11957 06c8 04       		.byte	0x4
 11958 06c9 00       		.uleb128 .LVL331-.LVL331
 11959 06ca 04       		.uleb128 .LVL332-.LVL331
 11960 06cb 01       		.uleb128 0x1
 11961 06cc 50       		.byte	0x50
 11962 06cd 04       		.byte	0x4
 11963 06ce 04       		.uleb128 .LVL332-.LVL331
 11964 06cf 08       		.uleb128 .LFE181-.LVL331
 11965 06d0 04       		.uleb128 0x4
 11966 06d1 A3       		.byte	0xa3
 11967 06d2 01       		.uleb128 0x1
 11968 06d3 50       		.byte	0x50
 11969 06d4 9F       		.byte	0x9f
 11970 06d5 00       		.byte	0
ARM GAS  C:\Users\DEVELO~1\AppData\Local\Temp\cc15HDCU.s 			page 211


 11971              	.LVUS146:
 11972 06d6 02       		.uleb128 .LVU1445
 11973 06d7 00       		.uleb128 .LVU1447
 11974 06d8 00       		.uleb128 .LVU1447
 11975 06d9 00       		.uleb128 0
 11976              	.LLST146:
 11977 06da 06       		.byte	0x6
 11978 06db 00000000 		.4byte	.LVL331
 11979 06df 04       		.byte	0x4
 11980 06e0 00       		.uleb128 .LVL331-.LVL331
 11981 06e1 04       		.uleb128 .LVL332-.LVL331
 11982 06e2 01       		.uleb128 0x1
 11983 06e3 50       		.byte	0x50
 11984 06e4 04       		.byte	0x4
 11985 06e5 04       		.uleb128 .LVL332-.LVL331
 11986 06e6 08       		.uleb128 .LFE181-.LVL331
 11987 06e7 04       		.uleb128 0x4
 11988 06e8 A3       		.byte	0xa3
 11989 06e9 01       		.uleb128 0x1
 11990 06ea 50       		.byte	0x50
 11991 06eb 9F       		.byte	0x9f
 11992 06ec 00       		.byte	0
 11993              	.LVUS141:
 11994 06ed 00       		.uleb128 0
 11995 06ee 00       		.uleb128 .LVU1416
 11996 06ef 00       		.uleb128 .LVU1416
 11997 06f0 00       		.uleb128 .LVU1417
 11998 06f1 00       		.uleb128 .LVU1417
 11999 06f2 00       		.uleb128 .LVU1422
 12000 06f3 00       		.uleb128 .LVU1422
 12001 06f4 00       		.uleb128 .LVU1423
 12002 06f5 00       		.uleb128 .LVU1423
 12003 06f6 00       		.uleb128 .LVU1428
 12004 06f7 00       		.uleb128 .LVU1428
 12005 06f8 00       		.uleb128 0
 12006              	.LLST141:
 12007 06f9 06       		.byte	0x6
 12008 06fa 00000000 		.4byte	.LVL321
 12009 06fe 04       		.byte	0x4
 12010 06ff 00       		.uleb128 .LVL321-.LVL321
 12011 0700 2A       		.uleb128 .LVL323-.LVL321
 12012 0701 01       		.uleb128 0x1
 12013 0702 50       		.byte	0x50
 12014 0703 04       		.byte	0x4
 12015 0704 2A       		.uleb128 .LVL323-.LVL321
 12016 0705 2E       		.uleb128 .LVL324-.LVL321
 12017 0706 04       		.uleb128 0x4
 12018 0707 A3       		.byte	0xa3
 12019 0708 01       		.uleb128 0x1
 12020 0709 50       		.byte	0x50
 12021 070a 9F       		.byte	0x9f
 12022 070b 04       		.byte	0x4
 12023 070c 2E       		.uleb128 .LVL324-.LVL321
 12024 070d 3A       		.uleb128 .LVL325-.LVL321
 12025 070e 01       		.uleb128 0x1
 12026 070f 50       		.byte	0x50
 12027 0710 04       		.byte	0x4
ARM GAS  C:\Users\DEVELO~1\AppData\Local\Temp\cc15HDCU.s 			page 212


 12028 0711 3A       		.uleb128 .LVL325-.LVL321
 12029 0712 3E       		.uleb128 .LVL326-.LVL321
 12030 0713 04       		.uleb128 0x4
 12031 0714 A3       		.byte	0xa3
 12032 0715 01       		.uleb128 0x1
 12033 0716 50       		.byte	0x50
 12034 0717 9F       		.byte	0x9f
 12035 0718 04       		.byte	0x4
 12036 0719 3E       		.uleb128 .LVL326-.LVL321
 12037 071a 48       		.uleb128 .LVL327-.LVL321
 12038 071b 01       		.uleb128 0x1
 12039 071c 50       		.byte	0x50
 12040 071d 04       		.byte	0x4
 12041 071e 48       		.uleb128 .LVL327-.LVL321
 12042 071f 4E       		.uleb128 .LFE179-.LVL321
 12043 0720 04       		.uleb128 0x4
 12044 0721 A3       		.byte	0xa3
 12045 0722 01       		.uleb128 0x1
 12046 0723 50       		.byte	0x50
 12047 0724 9F       		.byte	0x9f
 12048 0725 00       		.byte	0
 12049              	.LVUS142:
 12050 0726 00       		.uleb128 .LVU1400
 12051 0727 00       		.uleb128 .LVU1416
 12052 0728 00       		.uleb128 .LVU1416
 12053 0729 00       		.uleb128 .LVU1417
 12054 072a 00       		.uleb128 .LVU1417
 12055 072b 00       		.uleb128 .LVU1422
 12056 072c 00       		.uleb128 .LVU1422
 12057 072d 00       		.uleb128 .LVU1423
 12058 072e 00       		.uleb128 .LVU1423
 12059 072f 00       		.uleb128 .LVU1428
 12060 0730 00       		.uleb128 .LVU1428
 12061 0731 00       		.uleb128 0
 12062              	.LLST142:
 12063 0732 06       		.byte	0x6
 12064 0733 04000000 		.4byte	.LVL322
 12065 0737 04       		.byte	0x4
 12066 0738 00       		.uleb128 .LVL322-.LVL322
 12067 0739 26       		.uleb128 .LVL323-.LVL322
 12068 073a 01       		.uleb128 0x1
 12069 073b 50       		.byte	0x50
 12070 073c 04       		.byte	0x4
 12071 073d 26       		.uleb128 .LVL323-.LVL322
 12072 073e 2A       		.uleb128 .LVL324-.LVL322
 12073 073f 04       		.uleb128 0x4
 12074 0740 A3       		.byte	0xa3
 12075 0741 01       		.uleb128 0x1
 12076 0742 50       		.byte	0x50
 12077 0743 9F       		.byte	0x9f
 12078 0744 04       		.byte	0x4
 12079 0745 2A       		.uleb128 .LVL324-.LVL322
 12080 0746 36       		.uleb128 .LVL325-.LVL322
 12081 0747 01       		.uleb128 0x1
 12082 0748 50       		.byte	0x50
 12083 0749 04       		.byte	0x4
 12084 074a 36       		.uleb128 .LVL325-.LVL322
ARM GAS  C:\Users\DEVELO~1\AppData\Local\Temp\cc15HDCU.s 			page 213


 12085 074b 3A       		.uleb128 .LVL326-.LVL322
 12086 074c 04       		.uleb128 0x4
 12087 074d A3       		.byte	0xa3
 12088 074e 01       		.uleb128 0x1
 12089 074f 50       		.byte	0x50
 12090 0750 9F       		.byte	0x9f
 12091 0751 04       		.byte	0x4
 12092 0752 3A       		.uleb128 .LVL326-.LVL322
 12093 0753 44       		.uleb128 .LVL327-.LVL322
 12094 0754 01       		.uleb128 0x1
 12095 0755 50       		.byte	0x50
 12096 0756 04       		.byte	0x4
 12097 0757 44       		.uleb128 .LVL327-.LVL322
 12098 0758 4A       		.uleb128 .LFE179-.LVL322
 12099 0759 04       		.uleb128 0x4
 12100 075a A3       		.byte	0xa3
 12101 075b 01       		.uleb128 0x1
 12102 075c 50       		.byte	0x50
 12103 075d 9F       		.byte	0x9f
 12104 075e 00       		.byte	0
 12105              	.LVUS139:
 12106 075f 00       		.uleb128 0
 12107 0760 00       		.uleb128 .LVU1376
 12108 0761 00       		.uleb128 .LVU1376
 12109 0762 00       		.uleb128 0
 12110              	.LLST139:
 12111 0763 06       		.byte	0x6
 12112 0764 00000000 		.4byte	.LVL317
 12113 0768 04       		.byte	0x4
 12114 0769 00       		.uleb128 .LVL317-.LVL317
 12115 076a 0A       		.uleb128 .LVL318-.LVL317
 12116 076b 01       		.uleb128 0x1
 12117 076c 50       		.byte	0x50
 12118 076d 04       		.byte	0x4
 12119 076e 0A       		.uleb128 .LVL318-.LVL317
 12120 076f 3E       		.uleb128 .LFE178-.LVL317
 12121 0770 01       		.uleb128 0x1
 12122 0771 54       		.byte	0x54
 12123 0772 00       		.byte	0
 12124              	.LVUS140:
 12125 0773 00       		.uleb128 .LVU1376
 12126 0774 00       		.uleb128 0
 12127              	.LLST140:
 12128 0775 08       		.byte	0x8
 12129 0776 0A000000 		.4byte	.LVL318
 12130 077a 34       		.uleb128 .LFE178-.LVL318
 12131 077b 01       		.uleb128 0x1
 12132 077c 54       		.byte	0x54
 12133 077d 00       		.byte	0
 12134              	.LVUS137:
 12135 077e 00       		.uleb128 0
 12136 077f 00       		.uleb128 .LVU1364
 12137 0780 00       		.uleb128 .LVU1364
 12138 0781 00       		.uleb128 .LVU1365
 12139 0782 00       		.uleb128 .LVU1365
 12140 0783 00       		.uleb128 .LVU1366
 12141 0784 00       		.uleb128 .LVU1366
ARM GAS  C:\Users\DEVELO~1\AppData\Local\Temp\cc15HDCU.s 			page 214


 12142 0785 00       		.uleb128 .LVU1367
 12143 0786 00       		.uleb128 .LVU1367
 12144 0787 00       		.uleb128 .LVU1370
 12145 0788 00       		.uleb128 .LVU1370
 12146 0789 00       		.uleb128 0
 12147              	.LLST137:
 12148 078a 06       		.byte	0x6
 12149 078b 00000000 		.4byte	.LVL311
 12150 078f 04       		.byte	0x4
 12151 0790 00       		.uleb128 .LVL311-.LVL311
 12152 0791 2E       		.uleb128 .LVL312-.LVL311
 12153 0792 01       		.uleb128 0x1
 12154 0793 50       		.byte	0x50
 12155 0794 04       		.byte	0x4
 12156 0795 2E       		.uleb128 .LVL312-.LVL311
 12157 0796 34       		.uleb128 .LVL313-.LVL311
 12158 0797 04       		.uleb128 0x4
 12159 0798 7C       		.byte	0x7c
 12160 0799 8078     		.sleb128 -1024
 12161 079b 9F       		.byte	0x9f
 12162 079c 04       		.byte	0x4
 12163 079d 34       		.uleb128 .LVL313-.LVL311
 12164 079e 36       		.uleb128 .LVL314-.LVL311
 12165 079f 01       		.uleb128 0x1
 12166 07a0 50       		.byte	0x50
 12167 07a1 04       		.byte	0x4
 12168 07a2 36       		.uleb128 .LVL314-.LVL311
 12169 07a3 38       		.uleb128 .LVL315-.LVL311
 12170 07a4 04       		.uleb128 0x4
 12171 07a5 7C       		.byte	0x7c
 12172 07a6 8078     		.sleb128 -1024
 12173 07a8 9F       		.byte	0x9f
 12174 07a9 04       		.byte	0x4
 12175 07aa 38       		.uleb128 .LVL315-.LVL311
 12176 07ab 3E       		.uleb128 .LVL316-.LVL311
 12177 07ac 01       		.uleb128 0x1
 12178 07ad 50       		.byte	0x50
 12179 07ae 04       		.byte	0x4
 12180 07af 3E       		.uleb128 .LVL316-.LVL311
 12181 07b0 44       		.uleb128 .LFE177-.LVL311
 12182 07b1 04       		.uleb128 0x4
 12183 07b2 7C       		.byte	0x7c
 12184 07b3 8078     		.sleb128 -1024
 12185 07b5 9F       		.byte	0x9f
 12186 07b6 00       		.byte	0
 12187              	.LVUS138:
 12188 07b7 02       		.uleb128 .LVU1350
 12189 07b8 00       		.uleb128 .LVU1364
 12190 07b9 00       		.uleb128 .LVU1364
 12191 07ba 00       		.uleb128 .LVU1365
 12192 07bb 00       		.uleb128 .LVU1365
 12193 07bc 00       		.uleb128 .LVU1366
 12194 07bd 00       		.uleb128 .LVU1366
 12195 07be 00       		.uleb128 .LVU1367
 12196 07bf 00       		.uleb128 .LVU1367
 12197 07c0 00       		.uleb128 .LVU1370
 12198 07c1 00       		.uleb128 .LVU1370
ARM GAS  C:\Users\DEVELO~1\AppData\Local\Temp\cc15HDCU.s 			page 215


 12199 07c2 00       		.uleb128 0
 12200              	.LLST138:
 12201 07c3 06       		.byte	0x6
 12202 07c4 00000000 		.4byte	.LVL311
 12203 07c8 04       		.byte	0x4
 12204 07c9 00       		.uleb128 .LVL311-.LVL311
 12205 07ca 2E       		.uleb128 .LVL312-.LVL311
 12206 07cb 01       		.uleb128 0x1
 12207 07cc 50       		.byte	0x50
 12208 07cd 04       		.byte	0x4
 12209 07ce 2E       		.uleb128 .LVL312-.LVL311
 12210 07cf 34       		.uleb128 .LVL313-.LVL311
 12211 07d0 04       		.uleb128 0x4
 12212 07d1 7C       		.byte	0x7c
 12213 07d2 8078     		.sleb128 -1024
 12214 07d4 9F       		.byte	0x9f
 12215 07d5 04       		.byte	0x4
 12216 07d6 34       		.uleb128 .LVL313-.LVL311
 12217 07d7 36       		.uleb128 .LVL314-.LVL311
 12218 07d8 01       		.uleb128 0x1
 12219 07d9 50       		.byte	0x50
 12220 07da 04       		.byte	0x4
 12221 07db 36       		.uleb128 .LVL314-.LVL311
 12222 07dc 38       		.uleb128 .LVL315-.LVL311
 12223 07dd 04       		.uleb128 0x4
 12224 07de 7C       		.byte	0x7c
 12225 07df 8078     		.sleb128 -1024
 12226 07e1 9F       		.byte	0x9f
 12227 07e2 04       		.byte	0x4
 12228 07e3 38       		.uleb128 .LVL315-.LVL311
 12229 07e4 3E       		.uleb128 .LVL316-.LVL311
 12230 07e5 01       		.uleb128 0x1
 12231 07e6 50       		.byte	0x50
 12232 07e7 04       		.byte	0x4
 12233 07e8 3E       		.uleb128 .LVL316-.LVL311
 12234 07e9 44       		.uleb128 .LFE177-.LVL311
 12235 07ea 04       		.uleb128 0x4
 12236 07eb 7C       		.byte	0x7c
 12237 07ec 8078     		.sleb128 -1024
 12238 07ee 9F       		.byte	0x9f
 12239 07ef 00       		.byte	0
 12240              	.LVUS132:
 12241 07f0 00       		.uleb128 0
 12242 07f1 00       		.uleb128 .LVU1301
 12243 07f2 00       		.uleb128 .LVU1301
 12244 07f3 00       		.uleb128 .LVU1343
 12245 07f4 00       		.uleb128 .LVU1343
 12246 07f5 00       		.uleb128 .LVU1344
 12247 07f6 00       		.uleb128 .LVU1344
 12248 07f7 00       		.uleb128 0
 12249              	.LLST132:
 12250 07f8 06       		.byte	0x6
 12251 07f9 00000000 		.4byte	.LVL298
 12252 07fd 04       		.byte	0x4
 12253 07fe 00       		.uleb128 .LVL298-.LVL298
 12254 07ff 44       		.uleb128 .LVL300-.LVL298
 12255 0800 01       		.uleb128 0x1
ARM GAS  C:\Users\DEVELO~1\AppData\Local\Temp\cc15HDCU.s 			page 216


 12256 0801 50       		.byte	0x50
 12257 0802 04       		.byte	0x4
 12258 0803 44       		.uleb128 .LVL300-.LVL298
 12259 0804 A801     		.uleb128 .LVL309-.LVL298
 12260 0806 01       		.uleb128 0x1
 12261 0807 54       		.byte	0x54
 12262 0808 04       		.byte	0x4
 12263 0809 A801     		.uleb128 .LVL309-.LVL298
 12264 080b AC01     		.uleb128 .LVL310-.LVL298
 12265 080d 04       		.uleb128 0x4
 12266 080e A3       		.byte	0xa3
 12267 080f 01       		.uleb128 0x1
 12268 0810 50       		.byte	0x50
 12269 0811 9F       		.byte	0x9f
 12270 0812 04       		.byte	0x4
 12271 0813 AC01     		.uleb128 .LVL310-.LVL298
 12272 0815 C801     		.uleb128 .LFE176-.LVL298
 12273 0817 01       		.uleb128 0x1
 12274 0818 50       		.byte	0x50
 12275 0819 00       		.byte	0
 12276              	.LVUS133:
 12277 081a 00       		.uleb128 .LVU1282
 12278 081b 00       		.uleb128 .LVU1343
 12279 081c 00       		.uleb128 .LVU1344
 12280 081d 00       		.uleb128 0
 12281              	.LLST133:
 12282 081e 06       		.byte	0x6
 12283 081f 12000000 		.4byte	.LVL299
 12284 0823 04       		.byte	0x4
 12285 0824 00       		.uleb128 .LVL299-.LVL299
 12286 0825 9601     		.uleb128 .LVL309-.LVL299
 12287 0827 07       		.uleb128 0x7
 12288 0828 93       		.byte	0x93
 12289 0829 01       		.uleb128 0x1
 12290 082a 55       		.byte	0x55
 12291 082b 93       		.byte	0x93
 12292 082c 01       		.uleb128 0x1
 12293 082d 93       		.byte	0x93
 12294 082e 0B       		.uleb128 0xb
 12295 082f 04       		.byte	0x4
 12296 0830 9A01     		.uleb128 .LVL310-.LVL299
 12297 0832 B601     		.uleb128 .LFE176-.LVL299
 12298 0834 07       		.uleb128 0x7
 12299 0835 93       		.byte	0x93
 12300 0836 01       		.uleb128 0x1
 12301 0837 55       		.byte	0x55
 12302 0838 93       		.byte	0x93
 12303 0839 01       		.uleb128 0x1
 12304 083a 93       		.byte	0x93
 12305 083b 0B       		.uleb128 0xb
 12306 083c 00       		.byte	0
 12307              	.LVUS134:
 12308 083d 01       		.uleb128 .LVU1283
 12309 083e 00       		.uleb128 .LVU1303
 12310 083f 00       		.uleb128 .LVU1303
 12311 0840 00       		.uleb128 .LVU1307
 12312 0841 00       		.uleb128 .LVU1307
ARM GAS  C:\Users\DEVELO~1\AppData\Local\Temp\cc15HDCU.s 			page 217


 12313 0842 00       		.uleb128 .LVU1344
 12314 0843 00       		.uleb128 .LVU1344
 12315 0844 00       		.uleb128 0
 12316              	.LLST134:
 12317 0845 06       		.byte	0x6
 12318 0846 12000000 		.4byte	.LVL299
 12319 084a 04       		.byte	0x4
 12320 084b 00       		.uleb128 .LVL299-.LVL299
 12321 084c 3A       		.uleb128 .LVL302-.LVL299
 12322 084d 02       		.uleb128 0x2
 12323 084e 30       		.byte	0x30
 12324 084f 9F       		.byte	0x9f
 12325 0850 04       		.byte	0x4
 12326 0851 3A       		.uleb128 .LVL302-.LVL299
 12327 0852 48       		.uleb128 .LVL304-.LVL299
 12328 0853 07       		.uleb128 0x7
 12329 0854 71       		.byte	0x71
 12330 0855 00       		.sleb128 0
 12331 0856 48       		.byte	0x48
 12332 0857 24       		.byte	0x24
 12333 0858 30       		.byte	0x30
 12334 0859 2E       		.byte	0x2e
 12335 085a 9F       		.byte	0x9f
 12336 085b 04       		.byte	0x4
 12337 085c 48       		.uleb128 .LVL304-.LVL299
 12338 085d 9A01     		.uleb128 .LVL310-.LVL299
 12339 085f 01       		.uleb128 0x1
 12340 0860 50       		.byte	0x50
 12341 0861 04       		.byte	0x4
 12342 0862 9A01     		.uleb128 .LVL310-.LVL299
 12343 0864 B601     		.uleb128 .LFE176-.LVL299
 12344 0866 02       		.uleb128 0x2
 12345 0867 30       		.byte	0x30
 12346 0868 9F       		.byte	0x9f
 12347 0869 00       		.byte	0
 12348              	.LVUS135:
 12349 086a 02       		.uleb128 .LVU1284
 12350 086b 00       		.uleb128 .LVU1301
 12351 086c 00       		.uleb128 .LVU1301
 12352 086d 00       		.uleb128 .LVU1343
 12353 086e 00       		.uleb128 .LVU1343
 12354 086f 00       		.uleb128 .LVU1344
 12355 0870 00       		.uleb128 .LVU1344
 12356 0871 00       		.uleb128 0
 12357              	.LLST135:
 12358 0872 06       		.byte	0x6
 12359 0873 12000000 		.4byte	.LVL299
 12360 0877 04       		.byte	0x4
 12361 0878 00       		.uleb128 .LVL299-.LVL299
 12362 0879 32       		.uleb128 .LVL300-.LVL299
 12363 087a 01       		.uleb128 0x1
 12364 087b 50       		.byte	0x50
 12365 087c 04       		.byte	0x4
 12366 087d 32       		.uleb128 .LVL300-.LVL299
 12367 087e 9601     		.uleb128 .LVL309-.LVL299
 12368 0880 01       		.uleb128 0x1
 12369 0881 54       		.byte	0x54
ARM GAS  C:\Users\DEVELO~1\AppData\Local\Temp\cc15HDCU.s 			page 218


 12370 0882 04       		.byte	0x4
 12371 0883 9601     		.uleb128 .LVL309-.LVL299
 12372 0885 9A01     		.uleb128 .LVL310-.LVL299
 12373 0887 04       		.uleb128 0x4
 12374 0888 A3       		.byte	0xa3
 12375 0889 01       		.uleb128 0x1
 12376 088a 50       		.byte	0x50
 12377 088b 9F       		.byte	0x9f
 12378 088c 04       		.byte	0x4
 12379 088d 9A01     		.uleb128 .LVL310-.LVL299
 12380 088f B601     		.uleb128 .LFE176-.LVL299
 12381 0891 01       		.uleb128 0x1
 12382 0892 50       		.byte	0x50
 12383 0893 00       		.byte	0
 12384              	.LVUS136:
 12385 0894 01       		.uleb128 .LVU1308
 12386 0895 00       		.uleb128 .LVU1312
 12387 0896 00       		.uleb128 .LVU1312
 12388 0897 00       		.uleb128 .LVU1314
 12389 0898 00       		.uleb128 .LVU1314
 12390 0899 01       		.uleb128 .LVU1318
 12391 089a 01       		.uleb128 .LVU1318
 12392 089b 00       		.uleb128 .LVU1319
 12393              	.LLST136:
 12394 089c 06       		.byte	0x6
 12395 089d 5A000000 		.4byte	.LVL304
 12396 08a1 04       		.byte	0x4
 12397 08a2 00       		.uleb128 .LVL304-.LVL304
 12398 08a3 0E       		.uleb128 .LVL305-.LVL304
 12399 08a4 02       		.uleb128 0x2
 12400 08a5 30       		.byte	0x30
 12401 08a6 9F       		.byte	0x9f
 12402 08a7 04       		.byte	0x4
 12403 08a8 0E       		.uleb128 .LVL305-.LVL304
 12404 08a9 10       		.uleb128 .LVL306-.LVL304
 12405 08aa 01       		.uleb128 0x1
 12406 08ab 52       		.byte	0x52
 12407 08ac 04       		.byte	0x4
 12408 08ad 10       		.uleb128 .LVL306-.LVL304
 12409 08ae 14       		.uleb128 .LVL307-.LVL304
 12410 08af 03       		.uleb128 0x3
 12411 08b0 72       		.byte	0x72
 12412 08b1 7F       		.sleb128 -1
 12413 08b2 9F       		.byte	0x9f
 12414 08b3 04       		.byte	0x4
 12415 08b4 14       		.uleb128 .LVL307-.LVL304
 12416 08b5 1A       		.uleb128 .LVL308-.LVL304
 12417 08b6 01       		.uleb128 0x1
 12418 08b7 52       		.byte	0x52
 12419 08b8 00       		.byte	0
 12420              	.LVUS0:
 12421 08b9 00       		.uleb128 0
 12422 08ba 00       		.uleb128 .LVU14
 12423 08bb 00       		.uleb128 .LVU14
 12424 08bc 00       		.uleb128 .LVU15
 12425 08bd 00       		.uleb128 .LVU15
 12426 08be 00       		.uleb128 .LVU29
ARM GAS  C:\Users\DEVELO~1\AppData\Local\Temp\cc15HDCU.s 			page 219


 12427 08bf 00       		.uleb128 .LVU29
 12428 08c0 00       		.uleb128 0
 12429              	.LLST0:
 12430 08c1 06       		.byte	0x6
 12431 08c2 00000000 		.4byte	.LVL0
 12432 08c6 04       		.byte	0x4
 12433 08c7 00       		.uleb128 .LVL0-.LVL0
 12434 08c8 1E       		.uleb128 .LVL1-.LVL0
 12435 08c9 01       		.uleb128 0x1
 12436 08ca 50       		.byte	0x50
 12437 08cb 04       		.byte	0x4
 12438 08cc 1E       		.uleb128 .LVL1-.LVL0
 12439 08cd 22       		.uleb128 .LVL2-.LVL0
 12440 08ce 04       		.uleb128 0x4
 12441 08cf A3       		.byte	0xa3
 12442 08d0 01       		.uleb128 0x1
 12443 08d1 50       		.byte	0x50
 12444 08d2 9F       		.byte	0x9f
 12445 08d3 04       		.byte	0x4
 12446 08d4 22       		.uleb128 .LVL2-.LVL0
 12447 08d5 4A       		.uleb128 .LVL3-.LVL0
 12448 08d6 01       		.uleb128 0x1
 12449 08d7 50       		.byte	0x50
 12450 08d8 04       		.byte	0x4
 12451 08d9 4A       		.uleb128 .LVL3-.LVL0
 12452 08da 4E       		.uleb128 .LFE175-.LVL0
 12453 08db 04       		.uleb128 0x4
 12454 08dc A3       		.byte	0xa3
 12455 08dd 01       		.uleb128 0x1
 12456 08de 50       		.byte	0x50
 12457 08df 9F       		.byte	0x9f
 12458 08e0 00       		.byte	0
 12459              	.LVUS129:
 12460 08e1 00       		.uleb128 0
 12461 08e2 00       		.uleb128 .LVU1253
 12462 08e3 00       		.uleb128 .LVU1253
 12463 08e4 00       		.uleb128 .LVU1271
 12464 08e5 00       		.uleb128 .LVU1271
 12465 08e6 00       		.uleb128 .LVU1274
 12466 08e7 00       		.uleb128 .LVU1274
 12467 08e8 00       		.uleb128 .LVU1276
 12468 08e9 00       		.uleb128 .LVU1276
 12469 08ea 00       		.uleb128 0
 12470              	.LLST129:
 12471 08eb 06       		.byte	0x6
 12472 08ec 00000000 		.4byte	.LVL289
 12473 08f0 04       		.byte	0x4
 12474 08f1 00       		.uleb128 .LVL289-.LVL289
 12475 08f2 0E       		.uleb128 .LVL292-.LVL289
 12476 08f3 01       		.uleb128 0x1
 12477 08f4 50       		.byte	0x50
 12478 08f5 04       		.byte	0x4
 12479 08f6 0E       		.uleb128 .LVL292-.LVL289
 12480 08f7 3E       		.uleb128 .LVL294-.LVL289
 12481 08f8 04       		.uleb128 0x4
 12482 08f9 A3       		.byte	0xa3
 12483 08fa 01       		.uleb128 0x1
ARM GAS  C:\Users\DEVELO~1\AppData\Local\Temp\cc15HDCU.s 			page 220


 12484 08fb 50       		.byte	0x50
 12485 08fc 9F       		.byte	0x9f
 12486 08fd 04       		.byte	0x4
 12487 08fe 3E       		.uleb128 .LVL294-.LVL289
 12488 08ff 46       		.uleb128 .LVL295-.LVL289
 12489 0900 01       		.uleb128 0x1
 12490 0901 50       		.byte	0x50
 12491 0902 04       		.byte	0x4
 12492 0903 46       		.uleb128 .LVL295-.LVL289
 12493 0904 4C       		.uleb128 .LVL296-.LVL289
 12494 0905 04       		.uleb128 0x4
 12495 0906 70       		.byte	0x70
 12496 0907 806A     		.sleb128 -2816
 12497 0909 9F       		.byte	0x9f
 12498 090a 04       		.byte	0x4
 12499 090b 4C       		.uleb128 .LVL296-.LVL289
 12500 090c 54       		.uleb128 .LFE174-.LVL289
 12501 090d 04       		.uleb128 0x4
 12502 090e A3       		.byte	0xa3
 12503 090f 01       		.uleb128 0x1
 12504 0910 50       		.byte	0x50
 12505 0911 9F       		.byte	0x9f
 12506 0912 00       		.byte	0
 12507              	.LVUS130:
 12508 0913 00       		.uleb128 .LVU1247
 12509 0914 00       		.uleb128 .LVU1253
 12510 0915 00       		.uleb128 .LVU1253
 12511 0916 00       		.uleb128 .LVU1271
 12512 0917 00       		.uleb128 .LVU1271
 12513 0918 00       		.uleb128 .LVU1274
 12514 0919 00       		.uleb128 .LVU1274
 12515 091a 00       		.uleb128 .LVU1276
 12516 091b 00       		.uleb128 .LVU1276
 12517 091c 00       		.uleb128 0
 12518              	.LLST130:
 12519 091d 06       		.byte	0x6
 12520 091e 02000000 		.4byte	.LVL290
 12521 0922 04       		.byte	0x4
 12522 0923 00       		.uleb128 .LVL290-.LVL290
 12523 0924 0C       		.uleb128 .LVL292-.LVL290
 12524 0925 01       		.uleb128 0x1
 12525 0926 50       		.byte	0x50
 12526 0927 04       		.byte	0x4
 12527 0928 0C       		.uleb128 .LVL292-.LVL290
 12528 0929 3C       		.uleb128 .LVL294-.LVL290
 12529 092a 04       		.uleb128 0x4
 12530 092b A3       		.byte	0xa3
 12531 092c 01       		.uleb128 0x1
 12532 092d 50       		.byte	0x50
 12533 092e 9F       		.byte	0x9f
 12534 092f 04       		.byte	0x4
 12535 0930 3C       		.uleb128 .LVL294-.LVL290
 12536 0931 44       		.uleb128 .LVL295-.LVL290
 12537 0932 01       		.uleb128 0x1
 12538 0933 50       		.byte	0x50
 12539 0934 04       		.byte	0x4
 12540 0935 44       		.uleb128 .LVL295-.LVL290
ARM GAS  C:\Users\DEVELO~1\AppData\Local\Temp\cc15HDCU.s 			page 221


 12541 0936 4A       		.uleb128 .LVL296-.LVL290
 12542 0937 04       		.uleb128 0x4
 12543 0938 70       		.byte	0x70
 12544 0939 806A     		.sleb128 -2816
 12545 093b 9F       		.byte	0x9f
 12546 093c 04       		.byte	0x4
 12547 093d 4A       		.uleb128 .LVL296-.LVL290
 12548 093e 52       		.uleb128 .LFE174-.LVL290
 12549 093f 04       		.uleb128 0x4
 12550 0940 A3       		.byte	0xa3
 12551 0941 01       		.uleb128 0x1
 12552 0942 50       		.byte	0x50
 12553 0943 9F       		.byte	0x9f
 12554 0944 00       		.byte	0
 12555              	.LVUS131:
 12556 0945 00       		.uleb128 .LVU1250
 12557 0946 00       		.uleb128 .LVU1270
 12558 0947 00       		.uleb128 .LVU1271
 12559 0948 00       		.uleb128 .LVU1277
 12560              	.LLST131:
 12561 0949 06       		.byte	0x6
 12562 094a 06000000 		.4byte	.LVL291
 12563 094e 04       		.byte	0x4
 12564 094f 00       		.uleb128 .LVL291-.LVL291
 12565 0950 36       		.uleb128 .LVL293-.LVL291
 12566 0951 01       		.uleb128 0x1
 12567 0952 54       		.byte	0x54
 12568 0953 04       		.byte	0x4
 12569 0954 38       		.uleb128 .LVL294-.LVL291
 12570 0955 48       		.uleb128 .LVL297-.LVL291
 12571 0956 01       		.uleb128 0x1
 12572 0957 54       		.byte	0x54
 12573 0958 00       		.byte	0
 12574              	.LVUS127:
 12575 0959 00       		.uleb128 0
 12576 095a 00       		.uleb128 .LVU1233
 12577 095b 00       		.uleb128 .LVU1233
 12578 095c 00       		.uleb128 .LVU1241
 12579 095d 00       		.uleb128 .LVU1241
 12580 095e 00       		.uleb128 0
 12581              	.LLST127:
 12582 095f 06       		.byte	0x6
 12583 0960 00000000 		.4byte	.LVL286
 12584 0964 04       		.byte	0x4
 12585 0965 00       		.uleb128 .LVL286-.LVL286
 12586 0966 06       		.uleb128 .LVL287-.LVL286
 12587 0967 01       		.uleb128 0x1
 12588 0968 50       		.byte	0x50
 12589 0969 04       		.byte	0x4
 12590 096a 06       		.uleb128 .LVL287-.LVL286
 12591 096b 1C       		.uleb128 .LVL288-.LVL286
 12592 096c 01       		.uleb128 0x1
 12593 096d 53       		.byte	0x53
 12594 096e 04       		.byte	0x4
 12595 096f 1C       		.uleb128 .LVL288-.LVL286
 12596 0970 28       		.uleb128 .LFE173-.LVL286
 12597 0971 04       		.uleb128 0x4
ARM GAS  C:\Users\DEVELO~1\AppData\Local\Temp\cc15HDCU.s 			page 222


 12598 0972 71       		.byte	0x71
 12599 0973 8070     		.sleb128 -2048
 12600 0975 9F       		.byte	0x9f
 12601 0976 00       		.byte	0
 12602              	.LVUS128:
 12603 0977 00       		.uleb128 .LVU1233
 12604 0978 00       		.uleb128 .LVU1241
 12605 0979 00       		.uleb128 .LVU1241
 12606 097a 00       		.uleb128 0
 12607              	.LLST128:
 12608 097b 06       		.byte	0x6
 12609 097c 06000000 		.4byte	.LVL287
 12610 0980 04       		.byte	0x4
 12611 0981 00       		.uleb128 .LVL287-.LVL287
 12612 0982 16       		.uleb128 .LVL288-.LVL287
 12613 0983 01       		.uleb128 0x1
 12614 0984 53       		.byte	0x53
 12615 0985 04       		.byte	0x4
 12616 0986 16       		.uleb128 .LVL288-.LVL287
 12617 0987 22       		.uleb128 .LFE173-.LVL287
 12618 0988 04       		.uleb128 0x4
 12619 0989 71       		.byte	0x71
 12620 098a 8070     		.sleb128 -2048
 12621 098c 9F       		.byte	0x9f
 12622 098d 00       		.byte	0
 12623              	.LVUS121:
 12624 098e 00       		.uleb128 0
 12625 098f 00       		.uleb128 .LVU1213
 12626 0990 00       		.uleb128 .LVU1213
 12627 0991 00       		.uleb128 0
 12628              	.LLST121:
 12629 0992 06       		.byte	0x6
 12630 0993 00000000 		.4byte	.LVL276
 12631 0997 04       		.byte	0x4
 12632 0998 00       		.uleb128 .LVL276-.LVL276
 12633 0999 0C       		.uleb128 .LVL279-.LVL276
 12634 099a 01       		.uleb128 0x1
 12635 099b 50       		.byte	0x50
 12636 099c 04       		.byte	0x4
 12637 099d 0C       		.uleb128 .LVL279-.LVL276
 12638 099e 20       		.uleb128 .LFE170-.LVL276
 12639 099f 04       		.uleb128 0x4
 12640 09a0 A3       		.byte	0xa3
 12641 09a1 01       		.uleb128 0x1
 12642 09a2 50       		.byte	0x50
 12643 09a3 9F       		.byte	0x9f
 12644 09a4 00       		.byte	0
 12645              	.LVUS122:
 12646 09a5 00       		.uleb128 0
 12647 09a6 00       		.uleb128 .LVU1214
 12648 09a7 00       		.uleb128 .LVU1214
 12649 09a8 00       		.uleb128 0
 12650              	.LLST122:
 12651 09a9 06       		.byte	0x6
 12652 09aa 00000000 		.4byte	.LVL276
 12653 09ae 04       		.byte	0x4
 12654 09af 00       		.uleb128 .LVL276-.LVL276
ARM GAS  C:\Users\DEVELO~1\AppData\Local\Temp\cc15HDCU.s 			page 223


 12655 09b0 10       		.uleb128 .LVL280-.LVL276
 12656 09b1 01       		.uleb128 0x1
 12657 09b2 51       		.byte	0x51
 12658 09b3 04       		.byte	0x4
 12659 09b4 10       		.uleb128 .LVL280-.LVL276
 12660 09b5 20       		.uleb128 .LFE170-.LVL276
 12661 09b6 04       		.uleb128 0x4
 12662 09b7 A3       		.byte	0xa3
 12663 09b8 01       		.uleb128 0x1
 12664 09b9 51       		.byte	0x51
 12665 09ba 9F       		.byte	0x9f
 12666 09bb 00       		.byte	0
 12667              	.LVUS123:
 12668 09bc 02       		.uleb128 .LVU1203
 12669 09bd 00       		.uleb128 .LVU1213
 12670 09be 00       		.uleb128 .LVU1213
 12671 09bf 00       		.uleb128 0
 12672              	.LLST123:
 12673 09c0 06       		.byte	0x6
 12674 09c1 00000000 		.4byte	.LVL276
 12675 09c5 04       		.byte	0x4
 12676 09c6 00       		.uleb128 .LVL276-.LVL276
 12677 09c7 0C       		.uleb128 .LVL279-.LVL276
 12678 09c8 01       		.uleb128 0x1
 12679 09c9 50       		.byte	0x50
 12680 09ca 04       		.byte	0x4
 12681 09cb 0C       		.uleb128 .LVL279-.LVL276
 12682 09cc 20       		.uleb128 .LFE170-.LVL276
 12683 09cd 04       		.uleb128 0x4
 12684 09ce A3       		.byte	0xa3
 12685 09cf 01       		.uleb128 0x1
 12686 09d0 50       		.byte	0x50
 12687 09d1 9F       		.byte	0x9f
 12688 09d2 00       		.byte	0
 12689              	.LVUS124:
 12690 09d3 00       		.uleb128 .LVU1208
 12691 09d4 01       		.uleb128 .LVU1211
 12692 09d5 01       		.uleb128 .LVU1211
 12693 09d6 00       		.uleb128 .LVU1214
 12694 09d7 00       		.uleb128 .LVU1214
 12695 09d8 00       		.uleb128 .LVU1217
 12696              	.LLST124:
 12697 09d9 06       		.byte	0x6
 12698 09da 04000000 		.4byte	.LVL277
 12699 09de 04       		.byte	0x4
 12700 09df 00       		.uleb128 .LVL277-.LVL277
 12701 09e0 04       		.uleb128 .LVL278-.LVL277
 12702 09e1 01       		.uleb128 0x1
 12703 09e2 52       		.byte	0x52
 12704 09e3 04       		.byte	0x4
 12705 09e4 04       		.uleb128 .LVL278-.LVL277
 12706 09e5 0C       		.uleb128 .LVL280-.LVL277
 12707 09e6 13       		.uleb128 0x13
 12708 09e7 73       		.byte	0x73
 12709 09e8 00       		.sleb128 0
 12710 09e9 71       		.byte	0x71
 12711 09ea 00       		.sleb128 0
ARM GAS  C:\Users\DEVELO~1\AppData\Local\Temp\cc15HDCU.s 			page 224


 12712 09eb 3F       		.byte	0x3f
 12713 09ec 1A       		.byte	0x1a
 12714 09ed 08       		.byte	0x8
 12715 09ee FF       		.byte	0xff
 12716 09ef 1A       		.byte	0x1a
 12717 09f0 25       		.byte	0x25
 12718 09f1 37       		.byte	0x37
 12719 09f2 24       		.byte	0x24
 12720 09f3 08       		.byte	0x8
 12721 09f4 FF       		.byte	0xff
 12722 09f5 1A       		.byte	0x1a
 12723 09f6 72       		.byte	0x72
 12724 09f7 00       		.sleb128 0
 12725 09f8 21       		.byte	0x21
 12726 09f9 9F       		.byte	0x9f
 12727 09fa 04       		.byte	0x4
 12728 09fb 0C       		.uleb128 .LVL280-.LVL277
 12729 09fc 12       		.uleb128 .LVL282-.LVL277
 12730 09fd 14       		.uleb128 0x14
 12731 09fe 73       		.byte	0x73
 12732 09ff 00       		.sleb128 0
 12733 0a00 A3       		.byte	0xa3
 12734 0a01 01       		.uleb128 0x1
 12735 0a02 51       		.byte	0x51
 12736 0a03 3F       		.byte	0x3f
 12737 0a04 1A       		.byte	0x1a
 12738 0a05 08       		.byte	0x8
 12739 0a06 FF       		.byte	0xff
 12740 0a07 1A       		.byte	0x1a
 12741 0a08 25       		.byte	0x25
 12742 0a09 37       		.byte	0x37
 12743 0a0a 24       		.byte	0x24
 12744 0a0b 08       		.byte	0x8
 12745 0a0c FF       		.byte	0xff
 12746 0a0d 1A       		.byte	0x1a
 12747 0a0e 72       		.byte	0x72
 12748 0a0f 00       		.sleb128 0
 12749 0a10 21       		.byte	0x21
 12750 0a11 9F       		.byte	0x9f
 12751 0a12 00       		.byte	0
 12752              	.LVUS125:
 12753 0a13 00       		.uleb128 .LVU1210
 12754 0a14 00       		.uleb128 .LVU1217
 12755              	.LLST125:
 12756 0a15 08       		.byte	0x8
 12757 0a16 08000000 		.4byte	.LVL278
 12758 0a1a 0E       		.uleb128 .LVL282-.LVL278
 12759 0a1b 01       		.uleb128 0x1
 12760 0a1c 53       		.byte	0x53
 12761 0a1d 00       		.byte	0
 12762              	.LVUS117:
 12763 0a1e 00       		.uleb128 0
 12764 0a1f 00       		.uleb128 .LVU1195
 12765 0a20 00       		.uleb128 .LVU1195
 12766 0a21 00       		.uleb128 .LVU1198
 12767 0a22 00       		.uleb128 .LVU1198
 12768 0a23 00       		.uleb128 0
ARM GAS  C:\Users\DEVELO~1\AppData\Local\Temp\cc15HDCU.s 			page 225


 12769              	.LLST117:
 12770 0a24 06       		.byte	0x6
 12771 0a25 00000000 		.4byte	.LVL270
 12772 0a29 04       		.byte	0x4
 12773 0a2a 00       		.uleb128 .LVL270-.LVL270
 12774 0a2b 08       		.uleb128 .LVL272-.LVL270
 12775 0a2c 01       		.uleb128 0x1
 12776 0a2d 50       		.byte	0x50
 12777 0a2e 04       		.byte	0x4
 12778 0a2f 08       		.uleb128 .LVL272-.LVL270
 12779 0a30 0E       		.uleb128 .LVL274-.LVL270
 12780 0a31 04       		.uleb128 0x4
 12781 0a32 70       		.byte	0x70
 12782 0a33 8070     		.sleb128 -2048
 12783 0a35 9F       		.byte	0x9f
 12784 0a36 04       		.byte	0x4
 12785 0a37 0E       		.uleb128 .LVL274-.LVL270
 12786 0a38 12       		.uleb128 .LFE169-.LVL270
 12787 0a39 04       		.uleb128 0x4
 12788 0a3a A3       		.byte	0xa3
 12789 0a3b 01       		.uleb128 0x1
 12790 0a3c 50       		.byte	0x50
 12791 0a3d 9F       		.byte	0x9f
 12792 0a3e 00       		.byte	0
 12793              	.LVUS118:
 12794 0a3f 00       		.uleb128 0
 12795 0a40 00       		.uleb128 .LVU1194
 12796 0a41 00       		.uleb128 .LVU1194
 12797 0a42 00       		.uleb128 0
 12798              	.LLST118:
 12799 0a43 06       		.byte	0x6
 12800 0a44 00000000 		.4byte	.LVL270
 12801 0a48 04       		.byte	0x4
 12802 0a49 00       		.uleb128 .LVL270-.LVL270
 12803 0a4a 04       		.uleb128 .LVL271-.LVL270
 12804 0a4b 01       		.uleb128 0x1
 12805 0a4c 51       		.byte	0x51
 12806 0a4d 04       		.byte	0x4
 12807 0a4e 04       		.uleb128 .LVL271-.LVL270
 12808 0a4f 12       		.uleb128 .LFE169-.LVL270
 12809 0a50 04       		.uleb128 0x4
 12810 0a51 A3       		.byte	0xa3
 12811 0a52 01       		.uleb128 0x1
 12812 0a53 51       		.byte	0x51
 12813 0a54 9F       		.byte	0x9f
 12814 0a55 00       		.byte	0
 12815              	.LVUS119:
 12816 0a56 02       		.uleb128 .LVU1191
 12817 0a57 00       		.uleb128 .LVU1195
 12818 0a58 00       		.uleb128 .LVU1195
 12819 0a59 00       		.uleb128 .LVU1198
 12820 0a5a 00       		.uleb128 .LVU1198
 12821 0a5b 00       		.uleb128 0
 12822              	.LLST119:
 12823 0a5c 06       		.byte	0x6
 12824 0a5d 00000000 		.4byte	.LVL270
 12825 0a61 04       		.byte	0x4
ARM GAS  C:\Users\DEVELO~1\AppData\Local\Temp\cc15HDCU.s 			page 226


 12826 0a62 00       		.uleb128 .LVL270-.LVL270
 12827 0a63 08       		.uleb128 .LVL272-.LVL270
 12828 0a64 01       		.uleb128 0x1
 12829 0a65 50       		.byte	0x50
 12830 0a66 04       		.byte	0x4
 12831 0a67 08       		.uleb128 .LVL272-.LVL270
 12832 0a68 0E       		.uleb128 .LVL274-.LVL270
 12833 0a69 04       		.uleb128 0x4
 12834 0a6a 70       		.byte	0x70
 12835 0a6b 8070     		.sleb128 -2048
 12836 0a6d 9F       		.byte	0x9f
 12837 0a6e 04       		.byte	0x4
 12838 0a6f 0E       		.uleb128 .LVL274-.LVL270
 12839 0a70 12       		.uleb128 .LFE169-.LVL270
 12840 0a71 04       		.uleb128 0x4
 12841 0a72 A3       		.byte	0xa3
 12842 0a73 01       		.uleb128 0x1
 12843 0a74 50       		.byte	0x50
 12844 0a75 9F       		.byte	0x9f
 12845 0a76 00       		.byte	0
 12846              	.LVUS120:
 12847 0a77 00       		.uleb128 .LVU1196
 12848 0a78 00       		.uleb128 .LVU1198
 12849 0a79 00       		.uleb128 .LVU1198
 12850 0a7a 00       		.uleb128 .LVU1200
 12851 0a7b 00       		.uleb128 .LVU1200
 12852 0a7c 00       		.uleb128 0
 12853              	.LLST120:
 12854 0a7d 06       		.byte	0x6
 12855 0a7e 0C000000 		.4byte	.LVL273
 12856 0a82 04       		.byte	0x4
 12857 0a83 00       		.uleb128 .LVL273-.LVL273
 12858 0a84 02       		.uleb128 .LVL274-.LVL273
 12859 0a85 01       		.uleb128 0x1
 12860 0a86 52       		.byte	0x52
 12861 0a87 04       		.byte	0x4
 12862 0a88 02       		.uleb128 .LVL274-.LVL273
 12863 0a89 04       		.uleb128 .LVL275-.LVL273
 12864 0a8a 06       		.uleb128 0x6
 12865 0a8b 72       		.byte	0x72
 12866 0a8c 00       		.sleb128 0
 12867 0a8d 70       		.byte	0x70
 12868 0a8e 00       		.sleb128 0
 12869 0a8f 1A       		.byte	0x1a
 12870 0a90 9F       		.byte	0x9f
 12871 0a91 04       		.byte	0x4
 12872 0a92 04       		.uleb128 .LVL275-.LVL273
 12873 0a93 06       		.uleb128 .LFE169-.LVL273
 12874 0a94 01       		.uleb128 0x1
 12875 0a95 50       		.byte	0x50
 12876 0a96 00       		.byte	0
 12877              	.LVUS114:
 12878 0a97 00       		.uleb128 0
 12879 0a98 00       		.uleb128 .LVU1185
 12880 0a99 00       		.uleb128 .LVU1185
 12881 0a9a 00       		.uleb128 0
 12882              	.LLST114:
ARM GAS  C:\Users\DEVELO~1\AppData\Local\Temp\cc15HDCU.s 			page 227


 12883 0a9b 06       		.byte	0x6
 12884 0a9c 00000000 		.4byte	.LVL265
 12885 0aa0 04       		.byte	0x4
 12886 0aa1 00       		.uleb128 .LVL265-.LVL265
 12887 0aa2 08       		.uleb128 .LVL267-.LVL265
 12888 0aa3 01       		.uleb128 0x1
 12889 0aa4 50       		.byte	0x50
 12890 0aa5 04       		.byte	0x4
 12891 0aa6 08       		.uleb128 .LVL267-.LVL265
 12892 0aa7 0E       		.uleb128 .LFE168-.LVL265
 12893 0aa8 04       		.uleb128 0x4
 12894 0aa9 A3       		.byte	0xa3
 12895 0aaa 01       		.uleb128 0x1
 12896 0aab 50       		.byte	0x50
 12897 0aac 9F       		.byte	0x9f
 12898 0aad 00       		.byte	0
 12899              	.LVUS115:
 12900 0aae 02       		.uleb128 .LVU1180
 12901 0aaf 00       		.uleb128 .LVU1185
 12902 0ab0 00       		.uleb128 .LVU1185
 12903 0ab1 00       		.uleb128 0
 12904              	.LLST115:
 12905 0ab2 06       		.byte	0x6
 12906 0ab3 00000000 		.4byte	.LVL265
 12907 0ab7 04       		.byte	0x4
 12908 0ab8 00       		.uleb128 .LVL265-.LVL265
 12909 0ab9 08       		.uleb128 .LVL267-.LVL265
 12910 0aba 01       		.uleb128 0x1
 12911 0abb 50       		.byte	0x50
 12912 0abc 04       		.byte	0x4
 12913 0abd 08       		.uleb128 .LVL267-.LVL265
 12914 0abe 0E       		.uleb128 .LFE168-.LVL265
 12915 0abf 04       		.uleb128 0x4
 12916 0ac0 A3       		.byte	0xa3
 12917 0ac1 01       		.uleb128 0x1
 12918 0ac2 50       		.byte	0x50
 12919 0ac3 9F       		.byte	0x9f
 12920 0ac4 00       		.byte	0
 12921              	.LVUS116:
 12922 0ac5 00       		.uleb128 .LVU1183
 12923 0ac6 00       		.uleb128 .LVU1185
 12924 0ac7 00       		.uleb128 .LVU1185
 12925 0ac8 00       		.uleb128 .LVU1187
 12926 0ac9 00       		.uleb128 .LVU1187
 12927 0aca 00       		.uleb128 .LVU1188
 12928              	.LLST116:
 12929 0acb 06       		.byte	0x6
 12930 0acc 04000000 		.4byte	.LVL266
 12931 0ad0 04       		.byte	0x4
 12932 0ad1 00       		.uleb128 .LVL266-.LVL266
 12933 0ad2 04       		.uleb128 .LVL267-.LVL266
 12934 0ad3 01       		.uleb128 0x1
 12935 0ad4 53       		.byte	0x53
 12936 0ad5 04       		.byte	0x4
 12937 0ad6 04       		.uleb128 .LVL267-.LVL266
 12938 0ad7 06       		.uleb128 .LVL268-.LVL266
 12939 0ad8 06       		.uleb128 0x6
ARM GAS  C:\Users\DEVELO~1\AppData\Local\Temp\cc15HDCU.s 			page 228


 12940 0ad9 73       		.byte	0x73
 12941 0ada 00       		.sleb128 0
 12942 0adb 70       		.byte	0x70
 12943 0adc 00       		.sleb128 0
 12944 0add 1A       		.byte	0x1a
 12945 0ade 9F       		.byte	0x9f
 12946 0adf 04       		.byte	0x4
 12947 0ae0 06       		.uleb128 .LVL268-.LVL266
 12948 0ae1 08       		.uleb128 .LVL269-.LVL266
 12949 0ae2 01       		.uleb128 0x1
 12950 0ae3 50       		.byte	0x50
 12951 0ae4 00       		.byte	0
 12952              	.LVUS111:
 12953 0ae5 00       		.uleb128 0
 12954 0ae6 00       		.uleb128 .LVU1174
 12955 0ae7 00       		.uleb128 .LVU1174
 12956 0ae8 00       		.uleb128 0
 12957              	.LLST111:
 12958 0ae9 06       		.byte	0x6
 12959 0aea 00000000 		.4byte	.LVL260
 12960 0aee 04       		.byte	0x4
 12961 0aef 00       		.uleb128 .LVL260-.LVL260
 12962 0af0 08       		.uleb128 .LVL262-.LVL260
 12963 0af1 01       		.uleb128 0x1
 12964 0af2 50       		.byte	0x50
 12965 0af3 04       		.byte	0x4
 12966 0af4 08       		.uleb128 .LVL262-.LVL260
 12967 0af5 0E       		.uleb128 .LFE167-.LVL260
 12968 0af6 04       		.uleb128 0x4
 12969 0af7 A3       		.byte	0xa3
 12970 0af8 01       		.uleb128 0x1
 12971 0af9 50       		.byte	0x50
 12972 0afa 9F       		.byte	0x9f
 12973 0afb 00       		.byte	0
 12974              	.LVUS112:
 12975 0afc 02       		.uleb128 .LVU1169
 12976 0afd 00       		.uleb128 .LVU1174
 12977 0afe 00       		.uleb128 .LVU1174
 12978 0aff 00       		.uleb128 0
 12979              	.LLST112:
 12980 0b00 06       		.byte	0x6
 12981 0b01 00000000 		.4byte	.LVL260
 12982 0b05 04       		.byte	0x4
 12983 0b06 00       		.uleb128 .LVL260-.LVL260
 12984 0b07 08       		.uleb128 .LVL262-.LVL260
 12985 0b08 01       		.uleb128 0x1
 12986 0b09 50       		.byte	0x50
 12987 0b0a 04       		.byte	0x4
 12988 0b0b 08       		.uleb128 .LVL262-.LVL260
 12989 0b0c 0E       		.uleb128 .LFE167-.LVL260
 12990 0b0d 04       		.uleb128 0x4
 12991 0b0e A3       		.byte	0xa3
 12992 0b0f 01       		.uleb128 0x1
 12993 0b10 50       		.byte	0x50
 12994 0b11 9F       		.byte	0x9f
 12995 0b12 00       		.byte	0
 12996              	.LVUS113:
ARM GAS  C:\Users\DEVELO~1\AppData\Local\Temp\cc15HDCU.s 			page 229


 12997 0b13 00       		.uleb128 .LVU1172
 12998 0b14 00       		.uleb128 .LVU1174
 12999 0b15 00       		.uleb128 .LVU1174
 13000 0b16 00       		.uleb128 .LVU1176
 13001 0b17 00       		.uleb128 .LVU1176
 13002 0b18 00       		.uleb128 .LVU1177
 13003              	.LLST113:
 13004 0b19 06       		.byte	0x6
 13005 0b1a 04000000 		.4byte	.LVL261
 13006 0b1e 04       		.byte	0x4
 13007 0b1f 00       		.uleb128 .LVL261-.LVL261
 13008 0b20 04       		.uleb128 .LVL262-.LVL261
 13009 0b21 01       		.uleb128 0x1
 13010 0b22 53       		.byte	0x53
 13011 0b23 04       		.byte	0x4
 13012 0b24 04       		.uleb128 .LVL262-.LVL261
 13013 0b25 06       		.uleb128 .LVL263-.LVL261
 13014 0b26 06       		.uleb128 0x6
 13015 0b27 73       		.byte	0x73
 13016 0b28 00       		.sleb128 0
 13017 0b29 70       		.byte	0x70
 13018 0b2a 00       		.sleb128 0
 13019 0b2b 1A       		.byte	0x1a
 13020 0b2c 9F       		.byte	0x9f
 13021 0b2d 04       		.byte	0x4
 13022 0b2e 06       		.uleb128 .LVL263-.LVL261
 13023 0b2f 08       		.uleb128 .LVL264-.LVL261
 13024 0b30 01       		.uleb128 0x1
 13025 0b31 50       		.byte	0x50
 13026 0b32 00       		.byte	0
 13027              	.LVUS107:
 13028 0b33 00       		.uleb128 0
 13029 0b34 00       		.uleb128 .LVU1162
 13030 0b35 00       		.uleb128 .LVU1162
 13031 0b36 00       		.uleb128 0
 13032              	.LLST107:
 13033 0b37 06       		.byte	0x6
 13034 0b38 00000000 		.4byte	.LVL255
 13035 0b3c 04       		.byte	0x4
 13036 0b3d 00       		.uleb128 .LVL255-.LVL255
 13037 0b3e 08       		.uleb128 .LVL257-.LVL255
 13038 0b3f 01       		.uleb128 0x1
 13039 0b40 50       		.byte	0x50
 13040 0b41 04       		.byte	0x4
 13041 0b42 08       		.uleb128 .LVL257-.LVL255
 13042 0b43 10       		.uleb128 .LFE166-.LVL255
 13043 0b44 04       		.uleb128 0x4
 13044 0b45 A3       		.byte	0xa3
 13045 0b46 01       		.uleb128 0x1
 13046 0b47 50       		.byte	0x50
 13047 0b48 9F       		.byte	0x9f
 13048 0b49 00       		.byte	0
 13049              	.LVUS108:
 13050 0b4a 00       		.uleb128 0
 13051 0b4b 00       		.uleb128 .LVU1161
 13052 0b4c 00       		.uleb128 .LVU1161
 13053 0b4d 00       		.uleb128 0
ARM GAS  C:\Users\DEVELO~1\AppData\Local\Temp\cc15HDCU.s 			page 230


 13054              	.LLST108:
 13055 0b4e 06       		.byte	0x6
 13056 0b4f 00000000 		.4byte	.LVL255
 13057 0b53 04       		.byte	0x4
 13058 0b54 00       		.uleb128 .LVL255-.LVL255
 13059 0b55 04       		.uleb128 .LVL256-.LVL255
 13060 0b56 01       		.uleb128 0x1
 13061 0b57 51       		.byte	0x51
 13062 0b58 04       		.byte	0x4
 13063 0b59 04       		.uleb128 .LVL256-.LVL255
 13064 0b5a 10       		.uleb128 .LFE166-.LVL255
 13065 0b5b 04       		.uleb128 0x4
 13066 0b5c A3       		.byte	0xa3
 13067 0b5d 01       		.uleb128 0x1
 13068 0b5e 51       		.byte	0x51
 13069 0b5f 9F       		.byte	0x9f
 13070 0b60 00       		.byte	0
 13071              	.LVUS109:
 13072 0b61 02       		.uleb128 .LVU1158
 13073 0b62 00       		.uleb128 .LVU1162
 13074 0b63 00       		.uleb128 .LVU1162
 13075 0b64 00       		.uleb128 0
 13076              	.LLST109:
 13077 0b65 06       		.byte	0x6
 13078 0b66 00000000 		.4byte	.LVL255
 13079 0b6a 04       		.byte	0x4
 13080 0b6b 00       		.uleb128 .LVL255-.LVL255
 13081 0b6c 08       		.uleb128 .LVL257-.LVL255
 13082 0b6d 01       		.uleb128 0x1
 13083 0b6e 50       		.byte	0x50
 13084 0b6f 04       		.byte	0x4
 13085 0b70 08       		.uleb128 .LVL257-.LVL255
 13086 0b71 10       		.uleb128 .LFE166-.LVL255
 13087 0b72 04       		.uleb128 0x4
 13088 0b73 A3       		.byte	0xa3
 13089 0b74 01       		.uleb128 0x1
 13090 0b75 50       		.byte	0x50
 13091 0b76 9F       		.byte	0x9f
 13092 0b77 00       		.byte	0
 13093              	.LVUS110:
 13094 0b78 00       		.uleb128 .LVU1162
 13095 0b79 00       		.uleb128 .LVU1164
 13096 0b7a 00       		.uleb128 .LVU1164
 13097 0b7b 00       		.uleb128 .LVU1166
 13098 0b7c 00       		.uleb128 .LVU1166
 13099 0b7d 00       		.uleb128 0
 13100              	.LLST110:
 13101 0b7e 06       		.byte	0x6
 13102 0b7f 08000000 		.4byte	.LVL257
 13103 0b83 04       		.byte	0x4
 13104 0b84 00       		.uleb128 .LVL257-.LVL257
 13105 0b85 04       		.uleb128 .LVL258-.LVL257
 13106 0b86 01       		.uleb128 0x1
 13107 0b87 50       		.byte	0x50
 13108 0b88 04       		.byte	0x4
 13109 0b89 04       		.uleb128 .LVL258-.LVL257
 13110 0b8a 06       		.uleb128 .LVL259-.LVL257
ARM GAS  C:\Users\DEVELO~1\AppData\Local\Temp\cc15HDCU.s 			page 231


 13111 0b8b 06       		.uleb128 0x6
 13112 0b8c 70       		.byte	0x70
 13113 0b8d 00       		.sleb128 0
 13114 0b8e 73       		.byte	0x73
 13115 0b8f 00       		.sleb128 0
 13116 0b90 1A       		.byte	0x1a
 13117 0b91 9F       		.byte	0x9f
 13118 0b92 04       		.byte	0x4
 13119 0b93 06       		.uleb128 .LVL259-.LVL257
 13120 0b94 08       		.uleb128 .LFE166-.LVL257
 13121 0b95 01       		.uleb128 0x1
 13122 0b96 50       		.byte	0x50
 13123 0b97 00       		.byte	0
 13124              	.LVUS105:
 13125 0b98 00       		.uleb128 0
 13126 0b99 00       		.uleb128 .LVU1153
 13127 0b9a 00       		.uleb128 .LVU1153
 13128 0b9b 00       		.uleb128 0
 13129              	.LLST105:
 13130 0b9c 06       		.byte	0x6
 13131 0b9d 00000000 		.4byte	.LVL251
 13132 0ba1 04       		.byte	0x4
 13133 0ba2 00       		.uleb128 .LVL251-.LVL251
 13134 0ba3 04       		.uleb128 .LVL253-.LVL251
 13135 0ba4 01       		.uleb128 0x1
 13136 0ba5 50       		.byte	0x50
 13137 0ba6 04       		.byte	0x4
 13138 0ba7 04       		.uleb128 .LVL253-.LVL251
 13139 0ba8 08       		.uleb128 .LFE165-.LVL251
 13140 0ba9 04       		.uleb128 0x4
 13141 0baa A3       		.byte	0xa3
 13142 0bab 01       		.uleb128 0x1
 13143 0bac 50       		.byte	0x50
 13144 0bad 9F       		.byte	0x9f
 13145 0bae 00       		.byte	0
 13146              	.LVUS106:
 13147 0baf 00       		.uleb128 .LVU1151
 13148 0bb0 00       		.uleb128 .LVU1153
 13149 0bb1 00       		.uleb128 .LVU1153
 13150 0bb2 00       		.uleb128 .LVU1155
 13151 0bb3 00       		.uleb128 .LVU1155
 13152 0bb4 00       		.uleb128 0
 13153              	.LLST106:
 13154 0bb5 06       		.byte	0x6
 13155 0bb6 02000000 		.4byte	.LVL252
 13156 0bba 04       		.byte	0x4
 13157 0bbb 00       		.uleb128 .LVL252-.LVL252
 13158 0bbc 02       		.uleb128 .LVL253-.LVL252
 13159 0bbd 01       		.uleb128 0x1
 13160 0bbe 52       		.byte	0x52
 13161 0bbf 04       		.byte	0x4
 13162 0bc0 02       		.uleb128 .LVL253-.LVL252
 13163 0bc1 04       		.uleb128 .LVL254-.LVL252
 13164 0bc2 06       		.uleb128 0x6
 13165 0bc3 72       		.byte	0x72
 13166 0bc4 00       		.sleb128 0
 13167 0bc5 70       		.byte	0x70
ARM GAS  C:\Users\DEVELO~1\AppData\Local\Temp\cc15HDCU.s 			page 232


 13168 0bc6 00       		.sleb128 0
 13169 0bc7 1A       		.byte	0x1a
 13170 0bc8 9F       		.byte	0x9f
 13171 0bc9 04       		.byte	0x4
 13172 0bca 04       		.uleb128 .LVL254-.LVL252
 13173 0bcb 06       		.uleb128 .LFE165-.LVL252
 13174 0bcc 01       		.uleb128 0x1
 13175 0bcd 50       		.byte	0x50
 13176 0bce 00       		.byte	0
 13177              	.LVUS103:
 13178 0bcf 00       		.uleb128 0
 13179 0bd0 00       		.uleb128 .LVU1138
 13180 0bd1 00       		.uleb128 .LVU1138
 13181 0bd2 00       		.uleb128 .LVU1144
 13182 0bd3 00       		.uleb128 .LVU1144
 13183 0bd4 00       		.uleb128 0
 13184              	.LLST103:
 13185 0bd5 06       		.byte	0x6
 13186 0bd6 00000000 		.4byte	.LVL248
 13187 0bda 04       		.byte	0x4
 13188 0bdb 00       		.uleb128 .LVL248-.LVL248
 13189 0bdc 04       		.uleb128 .LVL249-.LVL248
 13190 0bdd 01       		.uleb128 0x1
 13191 0bde 50       		.byte	0x50
 13192 0bdf 04       		.byte	0x4
 13193 0be0 04       		.uleb128 .LVL249-.LVL248
 13194 0be1 18       		.uleb128 .LVL250-.LVL248
 13195 0be2 01       		.uleb128 0x1
 13196 0be3 53       		.byte	0x53
 13197 0be4 04       		.byte	0x4
 13198 0be5 18       		.uleb128 .LVL250-.LVL248
 13199 0be6 20       		.uleb128 .LFE164-.LVL248
 13200 0be7 04       		.uleb128 0x4
 13201 0be8 71       		.byte	0x71
 13202 0be9 8070     		.sleb128 -2048
 13203 0beb 9F       		.byte	0x9f
 13204 0bec 00       		.byte	0
 13205              	.LVUS104:
 13206 0bed 00       		.uleb128 .LVU1138
 13207 0bee 00       		.uleb128 .LVU1144
 13208 0bef 00       		.uleb128 .LVU1144
 13209 0bf0 00       		.uleb128 0
 13210              	.LLST104:
 13211 0bf1 06       		.byte	0x6
 13212 0bf2 04000000 		.4byte	.LVL249
 13213 0bf6 04       		.byte	0x4
 13214 0bf7 00       		.uleb128 .LVL249-.LVL249
 13215 0bf8 14       		.uleb128 .LVL250-.LVL249
 13216 0bf9 01       		.uleb128 0x1
 13217 0bfa 53       		.byte	0x53
 13218 0bfb 04       		.byte	0x4
 13219 0bfc 14       		.uleb128 .LVL250-.LVL249
 13220 0bfd 1C       		.uleb128 .LFE164-.LVL249
 13221 0bfe 04       		.uleb128 0x4
 13222 0bff 71       		.byte	0x71
 13223 0c00 8070     		.sleb128 -2048
 13224 0c02 9F       		.byte	0x9f
ARM GAS  C:\Users\DEVELO~1\AppData\Local\Temp\cc15HDCU.s 			page 233


 13225 0c03 00       		.byte	0
 13226              	.LVUS101:
 13227 0c04 00       		.uleb128 0
 13228 0c05 00       		.uleb128 .LVU1125
 13229 0c06 00       		.uleb128 .LVU1125
 13230 0c07 00       		.uleb128 .LVU1131
 13231 0c08 00       		.uleb128 .LVU1131
 13232 0c09 00       		.uleb128 0
 13233              	.LLST101:
 13234 0c0a 06       		.byte	0x6
 13235 0c0b 00000000 		.4byte	.LVL245
 13236 0c0f 04       		.byte	0x4
 13237 0c10 00       		.uleb128 .LVL245-.LVL245
 13238 0c11 04       		.uleb128 .LVL246-.LVL245
 13239 0c12 01       		.uleb128 0x1
 13240 0c13 50       		.byte	0x50
 13241 0c14 04       		.byte	0x4
 13242 0c15 04       		.uleb128 .LVL246-.LVL245
 13243 0c16 18       		.uleb128 .LVL247-.LVL245
 13244 0c17 01       		.uleb128 0x1
 13245 0c18 53       		.byte	0x53
 13246 0c19 04       		.byte	0x4
 13247 0c1a 18       		.uleb128 .LVL247-.LVL245
 13248 0c1b 20       		.uleb128 .LFE163-.LVL245
 13249 0c1c 04       		.uleb128 0x4
 13250 0c1d 71       		.byte	0x71
 13251 0c1e 8070     		.sleb128 -2048
 13252 0c20 9F       		.byte	0x9f
 13253 0c21 00       		.byte	0
 13254              	.LVUS102:
 13255 0c22 00       		.uleb128 .LVU1125
 13256 0c23 00       		.uleb128 .LVU1131
 13257 0c24 00       		.uleb128 .LVU1131
 13258 0c25 00       		.uleb128 0
 13259              	.LLST102:
 13260 0c26 06       		.byte	0x6
 13261 0c27 04000000 		.4byte	.LVL246
 13262 0c2b 04       		.byte	0x4
 13263 0c2c 00       		.uleb128 .LVL246-.LVL246
 13264 0c2d 14       		.uleb128 .LVL247-.LVL246
 13265 0c2e 01       		.uleb128 0x1
 13266 0c2f 53       		.byte	0x53
 13267 0c30 04       		.byte	0x4
 13268 0c31 14       		.uleb128 .LVL247-.LVL246
 13269 0c32 1C       		.uleb128 .LFE163-.LVL246
 13270 0c33 04       		.uleb128 0x4
 13271 0c34 71       		.byte	0x71
 13272 0c35 8070     		.sleb128 -2048
 13273 0c37 9F       		.byte	0x9f
 13274 0c38 00       		.byte	0
 13275              	.LVUS98:
 13276 0c39 00       		.uleb128 0
 13277 0c3a 00       		.uleb128 .LVU1113
 13278 0c3b 00       		.uleb128 .LVU1113
 13279 0c3c 00       		.uleb128 0
 13280              	.LLST98:
 13281 0c3d 06       		.byte	0x6
ARM GAS  C:\Users\DEVELO~1\AppData\Local\Temp\cc15HDCU.s 			page 234


 13282 0c3e 00000000 		.4byte	.LVL242
 13283 0c42 04       		.byte	0x4
 13284 0c43 00       		.uleb128 .LVL242-.LVL242
 13285 0c44 06       		.uleb128 .LVL244-.LVL242
 13286 0c45 01       		.uleb128 0x1
 13287 0c46 50       		.byte	0x50
 13288 0c47 04       		.byte	0x4
 13289 0c48 06       		.uleb128 .LVL244-.LVL242
 13290 0c49 22       		.uleb128 .LFE162-.LVL242
 13291 0c4a 01       		.uleb128 0x1
 13292 0c4b 53       		.byte	0x53
 13293 0c4c 00       		.byte	0
 13294              	.LVUS99:
 13295 0c4d 00       		.uleb128 0
 13296 0c4e 00       		.uleb128 .LVU1112
 13297 0c4f 00       		.uleb128 .LVU1112
 13298 0c50 00       		.uleb128 0
 13299              	.LLST99:
 13300 0c51 06       		.byte	0x6
 13301 0c52 00000000 		.4byte	.LVL242
 13302 0c56 04       		.byte	0x4
 13303 0c57 00       		.uleb128 .LVL242-.LVL242
 13304 0c58 04       		.uleb128 .LVL243-.LVL242
 13305 0c59 01       		.uleb128 0x1
 13306 0c5a 51       		.byte	0x51
 13307 0c5b 04       		.byte	0x4
 13308 0c5c 04       		.uleb128 .LVL243-.LVL242
 13309 0c5d 22       		.uleb128 .LFE162-.LVL242
 13310 0c5e 04       		.uleb128 0x4
 13311 0c5f A3       		.byte	0xa3
 13312 0c60 01       		.uleb128 0x1
 13313 0c61 51       		.byte	0x51
 13314 0c62 9F       		.byte	0x9f
 13315 0c63 00       		.byte	0
 13316              	.LVUS100:
 13317 0c64 00       		.uleb128 .LVU1113
 13318 0c65 00       		.uleb128 0
 13319              	.LLST100:
 13320 0c66 08       		.byte	0x8
 13321 0c67 06000000 		.4byte	.LVL244
 13322 0c6b 1C       		.uleb128 .LFE162-.LVL244
 13323 0c6c 01       		.uleb128 0x1
 13324 0c6d 53       		.byte	0x53
 13325 0c6e 00       		.byte	0
 13326              	.LVUS94:
 13327 0c6f 00       		.uleb128 0
 13328 0c70 00       		.uleb128 .LVU1092
 13329 0c71 00       		.uleb128 .LVU1092
 13330 0c72 00       		.uleb128 .LVU1106
 13331 0c73 00       		.uleb128 .LVU1106
 13332 0c74 00       		.uleb128 .LVU1107
 13333 0c75 00       		.uleb128 .LVU1107
 13334 0c76 00       		.uleb128 0
 13335              	.LLST94:
 13336 0c77 06       		.byte	0x6
 13337 0c78 00000000 		.4byte	.LVL233
 13338 0c7c 04       		.byte	0x4
ARM GAS  C:\Users\DEVELO~1\AppData\Local\Temp\cc15HDCU.s 			page 235


 13339 0c7d 00       		.uleb128 .LVL233-.LVL233
 13340 0c7e 22       		.uleb128 .LVL236-.LVL233
 13341 0c7f 01       		.uleb128 0x1
 13342 0c80 50       		.byte	0x50
 13343 0c81 04       		.byte	0x4
 13344 0c82 22       		.uleb128 .LVL236-.LVL233
 13345 0c83 3E       		.uleb128 .LVL240-.LVL233
 13346 0c84 01       		.uleb128 0x1
 13347 0c85 54       		.byte	0x54
 13348 0c86 04       		.byte	0x4
 13349 0c87 3E       		.uleb128 .LVL240-.LVL233
 13350 0c88 41       		.uleb128 .LVL241-1-.LVL233
 13351 0c89 01       		.uleb128 0x1
 13352 0c8a 50       		.byte	0x50
 13353 0c8b 04       		.byte	0x4
 13354 0c8c 41       		.uleb128 .LVL241-1-.LVL233
 13355 0c8d 42       		.uleb128 .LFE161-.LVL233
 13356 0c8e 04       		.uleb128 0x4
 13357 0c8f A3       		.byte	0xa3
 13358 0c90 01       		.uleb128 0x1
 13359 0c91 50       		.byte	0x50
 13360 0c92 9F       		.byte	0x9f
 13361 0c93 00       		.byte	0
 13362              	.LVUS95:
 13363 0c94 00       		.uleb128 .LVU1099
 13364 0c95 00       		.uleb128 .LVU1104
 13365              	.LLST95:
 13366 0c96 08       		.byte	0x8
 13367 0c97 32000000 		.4byte	.LVL237
 13368 0c9b 06       		.uleb128 .LVL239-.LVL237
 13369 0c9c 01       		.uleb128 0x1
 13370 0c9d 50       		.byte	0x50
 13371 0c9e 00       		.byte	0
 13372              	.LVUS96:
 13373 0c9f 00       		.uleb128 .LVU1079
 13374 0ca0 00       		.uleb128 .LVU1092
 13375 0ca1 00       		.uleb128 .LVU1092
 13376 0ca2 00       		.uleb128 .LVU1106
 13377 0ca3 00       		.uleb128 .LVU1106
 13378 0ca4 00       		.uleb128 .LVU1107
 13379 0ca5 00       		.uleb128 .LVU1107
 13380 0ca6 00       		.uleb128 0
 13381              	.LLST96:
 13382 0ca7 06       		.byte	0x6
 13383 0ca8 08000000 		.4byte	.LVL234
 13384 0cac 04       		.byte	0x4
 13385 0cad 00       		.uleb128 .LVL234-.LVL234
 13386 0cae 1A       		.uleb128 .LVL236-.LVL234
 13387 0caf 01       		.uleb128 0x1
 13388 0cb0 50       		.byte	0x50
 13389 0cb1 04       		.byte	0x4
 13390 0cb2 1A       		.uleb128 .LVL236-.LVL234
 13391 0cb3 36       		.uleb128 .LVL240-.LVL234
 13392 0cb4 01       		.uleb128 0x1
 13393 0cb5 54       		.byte	0x54
 13394 0cb6 04       		.byte	0x4
 13395 0cb7 36       		.uleb128 .LVL240-.LVL234
ARM GAS  C:\Users\DEVELO~1\AppData\Local\Temp\cc15HDCU.s 			page 236


 13396 0cb8 39       		.uleb128 .LVL241-1-.LVL234
 13397 0cb9 01       		.uleb128 0x1
 13398 0cba 50       		.byte	0x50
 13399 0cbb 04       		.byte	0x4
 13400 0cbc 39       		.uleb128 .LVL241-1-.LVL234
 13401 0cbd 3A       		.uleb128 .LFE161-.LVL234
 13402 0cbe 04       		.uleb128 0x4
 13403 0cbf A3       		.byte	0xa3
 13404 0cc0 01       		.uleb128 0x1
 13405 0cc1 50       		.byte	0x50
 13406 0cc2 9F       		.byte	0x9f
 13407 0cc3 00       		.byte	0
 13408              	.LVUS97:
 13409 0cc4 02       		.uleb128 .LVU1081
 13410 0cc5 00       		.uleb128 .LVU1082
 13411              	.LLST97:
 13412 0cc6 08       		.byte	0x8
 13413 0cc7 08000000 		.4byte	.LVL234
 13414 0ccb 08       		.uleb128 .LVL235-.LVL234
 13415 0ccc 02       		.uleb128 0x2
 13416 0ccd 30       		.byte	0x30
 13417 0cce 9F       		.byte	0x9f
 13418 0ccf 00       		.byte	0
 13419              	.LVUS91:
 13420 0cd0 00       		.uleb128 0
 13421 0cd1 00       		.uleb128 .LVU1050
 13422 0cd2 00       		.uleb128 .LVU1050
 13423 0cd3 00       		.uleb128 0
 13424              	.LLST91:
 13425 0cd4 06       		.byte	0x6
 13426 0cd5 00000000 		.4byte	.LVL225
 13427 0cd9 04       		.byte	0x4
 13428 0cda 00       		.uleb128 .LVL225-.LVL225
 13429 0cdb 0A       		.uleb128 .LVL227-.LVL225
 13430 0cdc 01       		.uleb128 0x1
 13431 0cdd 50       		.byte	0x50
 13432 0cde 04       		.byte	0x4
 13433 0cdf 0A       		.uleb128 .LVL227-.LVL225
 13434 0ce0 58       		.uleb128 .LFE160-.LVL225
 13435 0ce1 04       		.uleb128 0x4
 13436 0ce2 A3       		.byte	0xa3
 13437 0ce3 01       		.uleb128 0x1
 13438 0ce4 50       		.byte	0x50
 13439 0ce5 9F       		.byte	0x9f
 13440 0ce6 00       		.byte	0
 13441              	.LVUS92:
 13442 0ce7 02       		.uleb128 .LVU1044
 13443 0ce8 00       		.uleb128 .LVU1050
 13444 0ce9 00       		.uleb128 .LVU1050
 13445 0cea 00       		.uleb128 0
 13446              	.LLST92:
 13447 0ceb 06       		.byte	0x6
 13448 0cec 00000000 		.4byte	.LVL225
 13449 0cf0 04       		.byte	0x4
 13450 0cf1 00       		.uleb128 .LVL225-.LVL225
 13451 0cf2 0A       		.uleb128 .LVL227-.LVL225
 13452 0cf3 01       		.uleb128 0x1
ARM GAS  C:\Users\DEVELO~1\AppData\Local\Temp\cc15HDCU.s 			page 237


 13453 0cf4 50       		.byte	0x50
 13454 0cf5 04       		.byte	0x4
 13455 0cf6 0A       		.uleb128 .LVL227-.LVL225
 13456 0cf7 58       		.uleb128 .LFE160-.LVL225
 13457 0cf8 04       		.uleb128 0x4
 13458 0cf9 A3       		.byte	0xa3
 13459 0cfa 01       		.uleb128 0x1
 13460 0cfb 50       		.byte	0x50
 13461 0cfc 9F       		.byte	0x9f
 13462 0cfd 00       		.byte	0
 13463              	.LVUS93:
 13464 0cfe 00       		.uleb128 .LVU1047
 13465 0cff 00       		.uleb128 .LVU1053
 13466 0d00 00       		.uleb128 .LVU1053
 13467 0d01 00       		.uleb128 .LVU1054
 13468 0d02 00       		.uleb128 .LVU1063
 13469 0d03 00       		.uleb128 .LVU1065
 13470 0d04 00       		.uleb128 .LVU1065
 13471 0d05 00       		.uleb128 .LVU1066
 13472              	.LLST93:
 13473 0d06 06       		.byte	0x6
 13474 0d07 04000000 		.4byte	.LVL226
 13475 0d0b 04       		.byte	0x4
 13476 0d0c 00       		.uleb128 .LVL226-.LVL226
 13477 0d0d 0C       		.uleb128 .LVL228-.LVL226
 13478 0d0e 06       		.uleb128 0x6
 13479 0d0f 73       		.byte	0x73
 13480 0d10 00       		.sleb128 0
 13481 0d11 08       		.byte	0x8
 13482 0d12 FF       		.byte	0xff
 13483 0d13 1A       		.byte	0x1a
 13484 0d14 9F       		.byte	0x9f
 13485 0d15 04       		.byte	0x4
 13486 0d16 0C       		.uleb128 .LVL228-.LVL226
 13487 0d17 14       		.uleb128 .LVL229-.LVL226
 13488 0d18 08       		.uleb128 0x8
 13489 0d19 71       		.byte	0x71
 13490 0d1a 00       		.sleb128 0
 13491 0d1b 94       		.byte	0x94
 13492 0d1c 01       		.byte	0x1
 13493 0d1d 08       		.byte	0x8
 13494 0d1e FF       		.byte	0xff
 13495 0d1f 1A       		.byte	0x1a
 13496 0d20 9F       		.byte	0x9f
 13497 0d21 04       		.byte	0x4
 13498 0d22 30       		.uleb128 .LVL230-.LVL226
 13499 0d23 34       		.uleb128 .LVL231-.LVL226
 13500 0d24 06       		.uleb128 0x6
 13501 0d25 73       		.byte	0x73
 13502 0d26 00       		.sleb128 0
 13503 0d27 08       		.byte	0x8
 13504 0d28 FF       		.byte	0xff
 13505 0d29 1A       		.byte	0x1a
 13506 0d2a 9F       		.byte	0x9f
 13507 0d2b 04       		.byte	0x4
 13508 0d2c 34       		.uleb128 .LVL231-.LVL226
 13509 0d2d 3C       		.uleb128 .LVL232-.LVL226
ARM GAS  C:\Users\DEVELO~1\AppData\Local\Temp\cc15HDCU.s 			page 238


 13510 0d2e 08       		.uleb128 0x8
 13511 0d2f 71       		.byte	0x71
 13512 0d30 00       		.sleb128 0
 13513 0d31 94       		.byte	0x94
 13514 0d32 01       		.byte	0x1
 13515 0d33 08       		.byte	0x8
 13516 0d34 FF       		.byte	0xff
 13517 0d35 1A       		.byte	0x1a
 13518 0d36 9F       		.byte	0x9f
 13519 0d37 00       		.byte	0
 13520              	.LVUS88:
 13521 0d38 00       		.uleb128 0
 13522 0d39 00       		.uleb128 .LVU1017
 13523 0d3a 00       		.uleb128 .LVU1017
 13524 0d3b 00       		.uleb128 0
 13525              	.LLST88:
 13526 0d3c 06       		.byte	0x6
 13527 0d3d 00000000 		.4byte	.LVL212
 13528 0d41 04       		.byte	0x4
 13529 0d42 00       		.uleb128 .LVL212-.LVL212
 13530 0d43 0A       		.uleb128 .LVL214-.LVL212
 13531 0d44 01       		.uleb128 0x1
 13532 0d45 50       		.byte	0x50
 13533 0d46 04       		.byte	0x4
 13534 0d47 0A       		.uleb128 .LVL214-.LVL212
 13535 0d48 68       		.uleb128 .LFE159-.LVL212
 13536 0d49 04       		.uleb128 0x4
 13537 0d4a A3       		.byte	0xa3
 13538 0d4b 01       		.uleb128 0x1
 13539 0d4c 50       		.byte	0x50
 13540 0d4d 9F       		.byte	0x9f
 13541 0d4e 00       		.byte	0
 13542              	.LVUS89:
 13543 0d4f 02       		.uleb128 .LVU1011
 13544 0d50 00       		.uleb128 .LVU1017
 13545 0d51 00       		.uleb128 .LVU1017
 13546 0d52 00       		.uleb128 0
 13547              	.LLST89:
 13548 0d53 06       		.byte	0x6
 13549 0d54 00000000 		.4byte	.LVL212
 13550 0d58 04       		.byte	0x4
 13551 0d59 00       		.uleb128 .LVL212-.LVL212
 13552 0d5a 0A       		.uleb128 .LVL214-.LVL212
 13553 0d5b 01       		.uleb128 0x1
 13554 0d5c 50       		.byte	0x50
 13555 0d5d 04       		.byte	0x4
 13556 0d5e 0A       		.uleb128 .LVL214-.LVL212
 13557 0d5f 68       		.uleb128 .LFE159-.LVL212
 13558 0d60 04       		.uleb128 0x4
 13559 0d61 A3       		.byte	0xa3
 13560 0d62 01       		.uleb128 0x1
 13561 0d63 50       		.byte	0x50
 13562 0d64 9F       		.byte	0x9f
 13563 0d65 00       		.byte	0
 13564              	.LVUS90:
 13565 0d66 00       		.uleb128 .LVU1014
 13566 0d67 00       		.uleb128 .LVU1021
ARM GAS  C:\Users\DEVELO~1\AppData\Local\Temp\cc15HDCU.s 			page 239


 13567 0d68 00       		.uleb128 .LVU1025
 13568 0d69 00       		.uleb128 .LVU1030
 13569 0d6a 00       		.uleb128 .LVU1030
 13570 0d6b 00       		.uleb128 .LVU1031
 13571 0d6c 00       		.uleb128 .LVU1033
 13572 0d6d 00       		.uleb128 .LVU1035
 13573 0d6e 00       		.uleb128 .LVU1035
 13574 0d6f 00       		.uleb128 .LVU1036
 13575 0d70 00       		.uleb128 .LVU1037
 13576 0d71 00       		.uleb128 .LVU1039
 13577 0d72 00       		.uleb128 .LVU1039
 13578 0d73 00       		.uleb128 .LVU1040
 13579              	.LLST90:
 13580 0d74 06       		.byte	0x6
 13581 0d75 04000000 		.4byte	.LVL213
 13582 0d79 04       		.byte	0x4
 13583 0d7a 00       		.uleb128 .LVL213-.LVL213
 13584 0d7b 12       		.uleb128 .LVL215-.LVL213
 13585 0d7c 01       		.uleb128 0x1
 13586 0d7d 53       		.byte	0x53
 13587 0d7e 04       		.byte	0x4
 13588 0d7f 22       		.uleb128 .LVL216-.LVL213
 13589 0d80 30       		.uleb128 .LVL217-.LVL213
 13590 0d81 01       		.uleb128 0x1
 13591 0d82 53       		.byte	0x53
 13592 0d83 04       		.byte	0x4
 13593 0d84 30       		.uleb128 .LVL217-.LVL213
 13594 0d85 38       		.uleb128 .LVL218-.LVL213
 13595 0d86 08       		.uleb128 0x8
 13596 0d87 71       		.byte	0x71
 13597 0d88 00       		.sleb128 0
 13598 0d89 94       		.byte	0x94
 13599 0d8a 01       		.byte	0x1
 13600 0d8b 08       		.byte	0x8
 13601 0d8c FF       		.byte	0xff
 13602 0d8d 1A       		.byte	0x1a
 13603 0d8e 9F       		.byte	0x9f
 13604 0d8f 04       		.byte	0x4
 13605 0d90 3C       		.uleb128 .LVL219-.LVL213
 13606 0d91 40       		.uleb128 .LVL220-.LVL213
 13607 0d92 01       		.uleb128 0x1
 13608 0d93 53       		.byte	0x53
 13609 0d94 04       		.byte	0x4
 13610 0d95 40       		.uleb128 .LVL220-.LVL213
 13611 0d96 48       		.uleb128 .LVL221-.LVL213
 13612 0d97 08       		.uleb128 0x8
 13613 0d98 71       		.byte	0x71
 13614 0d99 00       		.sleb128 0
 13615 0d9a 94       		.byte	0x94
 13616 0d9b 01       		.byte	0x1
 13617 0d9c 08       		.byte	0x8
 13618 0d9d FF       		.byte	0xff
 13619 0d9e 1A       		.byte	0x1a
 13620 0d9f 9F       		.byte	0x9f
 13621 0da0 04       		.byte	0x4
 13622 0da1 4A       		.uleb128 .LVL222-.LVL213
 13623 0da2 4E       		.uleb128 .LVL223-.LVL213
ARM GAS  C:\Users\DEVELO~1\AppData\Local\Temp\cc15HDCU.s 			page 240


 13624 0da3 01       		.uleb128 0x1
 13625 0da4 53       		.byte	0x53
 13626 0da5 04       		.byte	0x4
 13627 0da6 4E       		.uleb128 .LVL223-.LVL213
 13628 0da7 56       		.uleb128 .LVL224-.LVL213
 13629 0da8 08       		.uleb128 0x8
 13630 0da9 71       		.byte	0x71
 13631 0daa 00       		.sleb128 0
 13632 0dab 94       		.byte	0x94
 13633 0dac 01       		.byte	0x1
 13634 0dad 08       		.byte	0x8
 13635 0dae FF       		.byte	0xff
 13636 0daf 1A       		.byte	0x1a
 13637 0db0 9F       		.byte	0x9f
 13638 0db1 00       		.byte	0
 13639              	.LVUS80:
 13640 0db2 00       		.uleb128 0
 13641 0db3 00       		.uleb128 .LVU991
 13642 0db4 00       		.uleb128 .LVU991
 13643 0db5 00       		.uleb128 .LVU995
 13644 0db6 00       		.uleb128 .LVU995
 13645 0db7 00       		.uleb128 .LVU1006
 13646 0db8 00       		.uleb128 .LVU1006
 13647 0db9 00       		.uleb128 .LVU1007
 13648 0dba 00       		.uleb128 .LVU1007
 13649 0dbb 00       		.uleb128 .LVU1008
 13650 0dbc 00       		.uleb128 .LVU1008
 13651 0dbd 00       		.uleb128 0
 13652              	.LLST80:
 13653 0dbe 06       		.byte	0x6
 13654 0dbf 00000000 		.4byte	.LVL196
 13655 0dc3 04       		.byte	0x4
 13656 0dc4 00       		.uleb128 .LVL196-.LVL196
 13657 0dc5 26       		.uleb128 .LVL202-.LVL196
 13658 0dc6 01       		.uleb128 0x1
 13659 0dc7 50       		.byte	0x50
 13660 0dc8 04       		.byte	0x4
 13661 0dc9 26       		.uleb128 .LVL202-.LVL196
 13662 0dca 2C       		.uleb128 .LVL204-.LVL196
 13663 0dcb 01       		.uleb128 0x1
 13664 0dcc 55       		.byte	0x55
 13665 0dcd 04       		.byte	0x4
 13666 0dce 2C       		.uleb128 .LVL204-.LVL196
 13667 0dcf 40       		.uleb128 .LVL209-.LVL196
 13668 0dd0 04       		.uleb128 0x4
 13669 0dd1 75       		.byte	0x75
 13670 0dd2 8060     		.sleb128 -4096
 13671 0dd4 9F       		.byte	0x9f
 13672 0dd5 04       		.byte	0x4
 13673 0dd6 40       		.uleb128 .LVL209-.LVL196
 13674 0dd7 42       		.uleb128 .LVL210-.LVL196
 13675 0dd8 04       		.uleb128 0x4
 13676 0dd9 A3       		.byte	0xa3
 13677 0dda 01       		.uleb128 0x1
 13678 0ddb 50       		.byte	0x50
 13679 0ddc 9F       		.byte	0x9f
 13680 0ddd 04       		.byte	0x4
ARM GAS  C:\Users\DEVELO~1\AppData\Local\Temp\cc15HDCU.s 			page 241


 13681 0dde 42       		.uleb128 .LVL210-.LVL196
 13682 0ddf 44       		.uleb128 .LVL211-.LVL196
 13683 0de0 01       		.uleb128 0x1
 13684 0de1 50       		.byte	0x50
 13685 0de2 04       		.byte	0x4
 13686 0de3 44       		.uleb128 .LVL211-.LVL196
 13687 0de4 46       		.uleb128 .LFE158-.LVL196
 13688 0de5 01       		.uleb128 0x1
 13689 0de6 55       		.byte	0x55
 13690 0de7 00       		.byte	0
 13691              	.LVUS81:
 13692 0de8 00       		.uleb128 0
 13693 0de9 00       		.uleb128 .LVU997
 13694 0dea 00       		.uleb128 .LVU997
 13695 0deb 00       		.uleb128 .LVU1007
 13696 0dec 00       		.uleb128 .LVU1007
 13697 0ded 00       		.uleb128 0
 13698              	.LLST81:
 13699 0dee 06       		.byte	0x6
 13700 0def 00000000 		.4byte	.LVL196
 13701 0df3 04       		.byte	0x4
 13702 0df4 00       		.uleb128 .LVL196-.LVL196
 13703 0df5 32       		.uleb128 .LVL206-.LVL196
 13704 0df6 01       		.uleb128 0x1
 13705 0df7 51       		.byte	0x51
 13706 0df8 04       		.byte	0x4
 13707 0df9 32       		.uleb128 .LVL206-.LVL196
 13708 0dfa 42       		.uleb128 .LVL210-.LVL196
 13709 0dfb 04       		.uleb128 0x4
 13710 0dfc A3       		.byte	0xa3
 13711 0dfd 01       		.uleb128 0x1
 13712 0dfe 51       		.byte	0x51
 13713 0dff 9F       		.byte	0x9f
 13714 0e00 04       		.byte	0x4
 13715 0e01 42       		.uleb128 .LVL210-.LVL196
 13716 0e02 46       		.uleb128 .LFE158-.LVL196
 13717 0e03 01       		.uleb128 0x1
 13718 0e04 51       		.byte	0x51
 13719 0e05 00       		.byte	0
 13720              	.LVUS82:
 13721 0e06 00       		.uleb128 0
 13722 0e07 00       		.uleb128 .LVU979
 13723 0e08 00       		.uleb128 .LVU979
 13724 0e09 00       		.uleb128 .LVU1007
 13725 0e0a 00       		.uleb128 .LVU1007
 13726 0e0b 00       		.uleb128 0
 13727              	.LLST82:
 13728 0e0c 06       		.byte	0x6
 13729 0e0d 00000000 		.4byte	.LVL196
 13730 0e11 04       		.byte	0x4
 13731 0e12 00       		.uleb128 .LVL196-.LVL196
 13732 0e13 16       		.uleb128 .LVL199-.LVL196
 13733 0e14 01       		.uleb128 0x1
 13734 0e15 52       		.byte	0x52
 13735 0e16 04       		.byte	0x4
 13736 0e17 16       		.uleb128 .LVL199-.LVL196
 13737 0e18 42       		.uleb128 .LVL210-.LVL196
ARM GAS  C:\Users\DEVELO~1\AppData\Local\Temp\cc15HDCU.s 			page 242


 13738 0e19 04       		.uleb128 0x4
 13739 0e1a A3       		.byte	0xa3
 13740 0e1b 01       		.uleb128 0x1
 13741 0e1c 52       		.byte	0x52
 13742 0e1d 9F       		.byte	0x9f
 13743 0e1e 04       		.byte	0x4
 13744 0e1f 42       		.uleb128 .LVL210-.LVL196
 13745 0e20 46       		.uleb128 .LFE158-.LVL196
 13746 0e21 01       		.uleb128 0x1
 13747 0e22 52       		.byte	0x52
 13748 0e23 00       		.byte	0
 13749              	.LVUS83:
 13750 0e24 00       		.uleb128 .LVU968
 13751 0e25 00       		.uleb128 .LVU991
 13752 0e26 00       		.uleb128 .LVU991
 13753 0e27 00       		.uleb128 .LVU995
 13754 0e28 00       		.uleb128 .LVU995
 13755 0e29 00       		.uleb128 .LVU1006
 13756 0e2a 00       		.uleb128 .LVU1006
 13757 0e2b 00       		.uleb128 .LVU1007
 13758 0e2c 00       		.uleb128 .LVU1007
 13759 0e2d 00       		.uleb128 .LVU1008
 13760 0e2e 00       		.uleb128 .LVU1008
 13761 0e2f 00       		.uleb128 0
 13762              	.LLST83:
 13763 0e30 06       		.byte	0x6
 13764 0e31 08000000 		.4byte	.LVL197
 13765 0e35 04       		.byte	0x4
 13766 0e36 00       		.uleb128 .LVL197-.LVL197
 13767 0e37 1E       		.uleb128 .LVL202-.LVL197
 13768 0e38 01       		.uleb128 0x1
 13769 0e39 50       		.byte	0x50
 13770 0e3a 04       		.byte	0x4
 13771 0e3b 1E       		.uleb128 .LVL202-.LVL197
 13772 0e3c 24       		.uleb128 .LVL204-.LVL197
 13773 0e3d 01       		.uleb128 0x1
 13774 0e3e 55       		.byte	0x55
 13775 0e3f 04       		.byte	0x4
 13776 0e40 24       		.uleb128 .LVL204-.LVL197
 13777 0e41 38       		.uleb128 .LVL209-.LVL197
 13778 0e42 04       		.uleb128 0x4
 13779 0e43 75       		.byte	0x75
 13780 0e44 8060     		.sleb128 -4096
 13781 0e46 9F       		.byte	0x9f
 13782 0e47 04       		.byte	0x4
 13783 0e48 38       		.uleb128 .LVL209-.LVL197
 13784 0e49 3A       		.uleb128 .LVL210-.LVL197
 13785 0e4a 04       		.uleb128 0x4
 13786 0e4b A3       		.byte	0xa3
 13787 0e4c 01       		.uleb128 0x1
 13788 0e4d 50       		.byte	0x50
 13789 0e4e 9F       		.byte	0x9f
 13790 0e4f 04       		.byte	0x4
 13791 0e50 3A       		.uleb128 .LVL210-.LVL197
 13792 0e51 3C       		.uleb128 .LVL211-.LVL197
 13793 0e52 01       		.uleb128 0x1
 13794 0e53 50       		.byte	0x50
ARM GAS  C:\Users\DEVELO~1\AppData\Local\Temp\cc15HDCU.s 			page 243


 13795 0e54 04       		.byte	0x4
 13796 0e55 3C       		.uleb128 .LVL211-.LVL197
 13797 0e56 3E       		.uleb128 .LFE158-.LVL197
 13798 0e57 01       		.uleb128 0x1
 13799 0e58 55       		.byte	0x55
 13800 0e59 00       		.byte	0
 13801              	.LVUS84:
 13802 0e5a 01       		.uleb128 .LVU969
 13803 0e5b 00       		.uleb128 .LVU979
 13804 0e5c 00       		.uleb128 .LVU979
 13805 0e5d 00       		.uleb128 .LVU984
 13806 0e5e 00       		.uleb128 .LVU984
 13807 0e5f 01       		.uleb128 .LVU985
 13808 0e60 01       		.uleb128 .LVU985
 13809 0e61 02       		.uleb128 .LVU986
 13810 0e62 02       		.uleb128 .LVU986
 13811 0e63 03       		.uleb128 .LVU987
 13812 0e64 03       		.uleb128 .LVU987
 13813 0e65 04       		.uleb128 .LVU988
 13814 0e66 04       		.uleb128 .LVU988
 13815 0e67 00       		.uleb128 .LVU991
 13816 0e68 00       		.uleb128 .LVU997
 13817 0e69 00       		.uleb128 .LVU1006
 13818 0e6a 00       		.uleb128 .LVU1007
 13819 0e6b 00       		.uleb128 0
 13820              	.LLST84:
 13821 0e6c 06       		.byte	0x6
 13822 0e6d 08000000 		.4byte	.LVL197
 13823 0e71 04       		.byte	0x4
 13824 0e72 00       		.uleb128 .LVL197-.LVL197
 13825 0e73 0E       		.uleb128 .LVL199-.LVL197
 13826 0e74 01       		.uleb128 0x1
 13827 0e75 51       		.byte	0x51
 13828 0e76 04       		.byte	0x4
 13829 0e77 0E       		.uleb128 .LVL199-.LVL197
 13830 0e78 18       		.uleb128 .LVL201-.LVL197
 13831 0e79 01       		.uleb128 0x1
 13832 0e7a 5C       		.byte	0x5c
 13833 0e7b 04       		.byte	0x4
 13834 0e7c 18       		.uleb128 .LVL201-.LVL197
 13835 0e7d 18       		.uleb128 .LVL201-.LVL197
 13836 0e7e 03       		.uleb128 0x3
 13837 0e7f 7C       		.byte	0x7c
 13838 0e80 7C       		.sleb128 -4
 13839 0e81 9F       		.byte	0x9f
 13840 0e82 04       		.byte	0x4
 13841 0e83 18       		.uleb128 .LVL201-.LVL197
 13842 0e84 18       		.uleb128 .LVL201-.LVL197
 13843 0e85 03       		.uleb128 0x3
 13844 0e86 7C       		.byte	0x7c
 13845 0e87 7D       		.sleb128 -3
 13846 0e88 9F       		.byte	0x9f
 13847 0e89 04       		.byte	0x4
 13848 0e8a 18       		.uleb128 .LVL201-.LVL197
 13849 0e8b 18       		.uleb128 .LVL201-.LVL197
 13850 0e8c 03       		.uleb128 0x3
 13851 0e8d 7C       		.byte	0x7c
ARM GAS  C:\Users\DEVELO~1\AppData\Local\Temp\cc15HDCU.s 			page 244


 13852 0e8e 7E       		.sleb128 -2
 13853 0e8f 9F       		.byte	0x9f
 13854 0e90 04       		.byte	0x4
 13855 0e91 18       		.uleb128 .LVL201-.LVL197
 13856 0e92 18       		.uleb128 .LVL201-.LVL197
 13857 0e93 03       		.uleb128 0x3
 13858 0e94 7C       		.byte	0x7c
 13859 0e95 7F       		.sleb128 -1
 13860 0e96 9F       		.byte	0x9f
 13861 0e97 04       		.byte	0x4
 13862 0e98 18       		.uleb128 .LVL201-.LVL197
 13863 0e99 1E       		.uleb128 .LVL202-.LVL197
 13864 0e9a 01       		.uleb128 0x1
 13865 0e9b 5C       		.byte	0x5c
 13866 0e9c 04       		.byte	0x4
 13867 0e9d 2A       		.uleb128 .LVL206-.LVL197
 13868 0e9e 38       		.uleb128 .LVL209-.LVL197
 13869 0e9f 01       		.uleb128 0x1
 13870 0ea0 50       		.byte	0x50
 13871 0ea1 04       		.byte	0x4
 13872 0ea2 3A       		.uleb128 .LVL210-.LVL197
 13873 0ea3 3E       		.uleb128 .LFE158-.LVL197
 13874 0ea4 01       		.uleb128 0x1
 13875 0ea5 51       		.byte	0x51
 13876 0ea6 00       		.byte	0
 13877              	.LVUS85:
 13878 0ea7 01       		.uleb128 .LVU975
 13879 0ea8 00       		.uleb128 .LVU979
 13880 0ea9 00       		.uleb128 .LVU979
 13881 0eaa 00       		.uleb128 .LVU981
 13882 0eab 00       		.uleb128 .LVU981
 13883 0eac 05       		.uleb128 .LVU989
 13884 0ead 05       		.uleb128 .LVU989
 13885 0eae 00       		.uleb128 .LVU991
 13886 0eaf 01       		.uleb128 .LVU994
 13887 0eb0 01       		.uleb128 .LVU1002
 13888 0eb1 01       		.uleb128 .LVU1002
 13889 0eb2 00       		.uleb128 .LVU1006
 13890 0eb3 00       		.uleb128 .LVU1007
 13891 0eb4 00       		.uleb128 0
 13892              	.LLST85:
 13893 0eb5 06       		.byte	0x6
 13894 0eb6 0C000000 		.4byte	.LVL198
 13895 0eba 04       		.byte	0x4
 13896 0ebb 00       		.uleb128 .LVL198-.LVL198
 13897 0ebc 0A       		.uleb128 .LVL199-.LVL198
 13898 0ebd 02       		.uleb128 0x2
 13899 0ebe 30       		.byte	0x30
 13900 0ebf 9F       		.byte	0x9f
 13901 0ec0 04       		.byte	0x4
 13902 0ec1 0A       		.uleb128 .LVL199-.LVL198
 13903 0ec2 0C       		.uleb128 .LVL200-.LVL198
 13904 0ec3 01       		.uleb128 0x1
 13905 0ec4 53       		.byte	0x53
 13906 0ec5 04       		.byte	0x4
 13907 0ec6 0C       		.uleb128 .LVL200-.LVL198
 13908 0ec7 14       		.uleb128 .LVL201-.LVL198
ARM GAS  C:\Users\DEVELO~1\AppData\Local\Temp\cc15HDCU.s 			page 245


 13909 0ec8 03       		.uleb128 0x3
 13910 0ec9 73       		.byte	0x73
 13911 0eca 7F       		.sleb128 -1
 13912 0ecb 9F       		.byte	0x9f
 13913 0ecc 04       		.byte	0x4
 13914 0ecd 14       		.uleb128 .LVL201-.LVL198
 13915 0ece 1A       		.uleb128 .LVL202-.LVL198
 13916 0ecf 01       		.uleb128 0x1
 13917 0ed0 53       		.byte	0x53
 13918 0ed1 04       		.byte	0x4
 13919 0ed2 1C       		.uleb128 .LVL203-.LVL198
 13920 0ed3 2C       		.uleb128 .LVL207-.LVL198
 13921 0ed4 02       		.uleb128 0x2
 13922 0ed5 30       		.byte	0x30
 13923 0ed6 9F       		.byte	0x9f
 13924 0ed7 04       		.byte	0x4
 13925 0ed8 2C       		.uleb128 .LVL207-.LVL198
 13926 0ed9 34       		.uleb128 .LVL209-.LVL198
 13927 0eda 02       		.uleb128 0x2
 13928 0edb 31       		.byte	0x31
 13929 0edc 9F       		.byte	0x9f
 13930 0edd 04       		.byte	0x4
 13931 0ede 36       		.uleb128 .LVL210-.LVL198
 13932 0edf 3A       		.uleb128 .LFE158-.LVL198
 13933 0ee0 02       		.uleb128 0x2
 13934 0ee1 30       		.byte	0x30
 13935 0ee2 9F       		.byte	0x9f
 13936 0ee3 00       		.byte	0
 13937              	.LVUS86:
 13938 0ee4 04       		.uleb128 .LVU972
 13939 0ee5 00       		.uleb128 0
 13940              	.LLST86:
 13941 0ee6 08       		.byte	0x8
 13942 0ee7 08000000 		.4byte	.LVL197
 13943 0eeb 3E       		.uleb128 .LFE158-.LVL197
 13944 0eec 01       		.uleb128 0x1
 13945 0eed 5E       		.byte	0x5e
 13946 0eee 00       		.byte	0
 13947              	.LVUS87:
 13948 0eef 00       		.uleb128 .LVU974
 13949 0ef0 00       		.uleb128 .LVU996
 13950 0ef1 00       		.uleb128 .LVU1007
 13951 0ef2 00       		.uleb128 0
 13952              	.LLST87:
 13953 0ef3 06       		.byte	0x6
 13954 0ef4 0C000000 		.4byte	.LVL198
 13955 0ef8 04       		.byte	0x4
 13956 0ef9 00       		.uleb128 .LVL198-.LVL198
 13957 0efa 22       		.uleb128 .LVL205-.LVL198
 13958 0efb 01       		.uleb128 0x1
 13959 0efc 56       		.byte	0x56
 13960 0efd 04       		.byte	0x4
 13961 0efe 36       		.uleb128 .LVL210-.LVL198
 13962 0eff 3A       		.uleb128 .LFE158-.LVL198
 13963 0f00 01       		.uleb128 0x1
 13964 0f01 56       		.byte	0x56
 13965 0f02 00       		.byte	0
ARM GAS  C:\Users\DEVELO~1\AppData\Local\Temp\cc15HDCU.s 			page 246


 13966              	.LVUS67:
 13967 0f03 00       		.uleb128 0
 13968 0f04 00       		.uleb128 .LVU889
 13969 0f05 00       		.uleb128 .LVU889
 13970 0f06 00       		.uleb128 .LVU890
 13971 0f07 00       		.uleb128 .LVU890
 13972 0f08 00       		.uleb128 .LVU913
 13973 0f09 00       		.uleb128 .LVU913
 13974 0f0a 00       		.uleb128 .LVU915
 13975 0f0b 00       		.uleb128 .LVU915
 13976 0f0c 00       		.uleb128 0
 13977              	.LLST67:
 13978 0f0d 06       		.byte	0x6
 13979 0f0e 00000000 		.4byte	.LVL174
 13980 0f12 04       		.byte	0x4
 13981 0f13 00       		.uleb128 .LVL174-.LVL174
 13982 0f14 12       		.uleb128 .LVL176-.LVL174
 13983 0f15 01       		.uleb128 0x1
 13984 0f16 50       		.byte	0x50
 13985 0f17 04       		.byte	0x4
 13986 0f18 12       		.uleb128 .LVL176-.LVL174
 13987 0f19 16       		.uleb128 .LVL177-.LVL174
 13988 0f1a 04       		.uleb128 0x4
 13989 0f1b 70       		.byte	0x70
 13990 0f1c 806A     		.sleb128 -2816
 13991 0f1e 9F       		.byte	0x9f
 13992 0f1f 04       		.byte	0x4
 13993 0f20 16       		.uleb128 .LVL177-.LVL174
 13994 0f21 50       		.uleb128 .LVL183-.LVL174
 13995 0f22 04       		.uleb128 0x4
 13996 0f23 A3       		.byte	0xa3
 13997 0f24 01       		.uleb128 0x1
 13998 0f25 50       		.byte	0x50
 13999 0f26 9F       		.byte	0x9f
 14000 0f27 04       		.byte	0x4
 14001 0f28 50       		.uleb128 .LVL183-.LVL174
 14002 0f29 54       		.uleb128 .LVL184-.LVL174
 14003 0f2a 01       		.uleb128 0x1
 14004 0f2b 50       		.byte	0x50
 14005 0f2c 04       		.byte	0x4
 14006 0f2d 54       		.uleb128 .LVL184-.LVL174
 14007 0f2e 8801     		.uleb128 .LFE156-.LVL174
 14008 0f30 04       		.uleb128 0x4
 14009 0f31 70       		.byte	0x70
 14010 0f32 806E     		.sleb128 -2304
 14011 0f34 9F       		.byte	0x9f
 14012 0f35 00       		.byte	0
 14013              	.LVUS68:
 14014 0f36 00       		.uleb128 0
 14015 0f37 00       		.uleb128 .LVU892
 14016 0f38 00       		.uleb128 .LVU892
 14017 0f39 00       		.uleb128 .LVU895
 14018 0f3a 00       		.uleb128 .LVU895
 14019 0f3b 00       		.uleb128 .LVU910
 14020 0f3c 00       		.uleb128 .LVU910
 14021 0f3d 00       		.uleb128 .LVU913
 14022 0f3e 00       		.uleb128 .LVU913
ARM GAS  C:\Users\DEVELO~1\AppData\Local\Temp\cc15HDCU.s 			page 247


 14023 0f3f 00       		.uleb128 .LVU921
 14024 0f40 00       		.uleb128 .LVU921
 14025 0f41 00       		.uleb128 0
 14026              	.LLST68:
 14027 0f42 06       		.byte	0x6
 14028 0f43 00000000 		.4byte	.LVL174
 14029 0f47 04       		.byte	0x4
 14030 0f48 00       		.uleb128 .LVL174-.LVL174
 14031 0f49 1C       		.uleb128 .LVL178-.LVL174
 14032 0f4a 01       		.uleb128 0x1
 14033 0f4b 51       		.byte	0x51
 14034 0f4c 04       		.byte	0x4
 14035 0f4d 1C       		.uleb128 .LVL178-.LVL174
 14036 0f4e 22       		.uleb128 .LVL180-.LVL174
 14037 0f4f 04       		.uleb128 0x4
 14038 0f50 A3       		.byte	0xa3
 14039 0f51 01       		.uleb128 0x1
 14040 0f52 51       		.byte	0x51
 14041 0f53 9F       		.byte	0x9f
 14042 0f54 04       		.byte	0x4
 14043 0f55 22       		.uleb128 .LVL180-.LVL174
 14044 0f56 4A       		.uleb128 .LVL181-.LVL174
 14045 0f57 01       		.uleb128 0x1
 14046 0f58 51       		.byte	0x51
 14047 0f59 04       		.byte	0x4
 14048 0f5a 4A       		.uleb128 .LVL181-.LVL174
 14049 0f5b 50       		.uleb128 .LVL183-.LVL174
 14050 0f5c 04       		.uleb128 0x4
 14051 0f5d A3       		.byte	0xa3
 14052 0f5e 01       		.uleb128 0x1
 14053 0f5f 51       		.byte	0x51
 14054 0f60 9F       		.byte	0x9f
 14055 0f61 04       		.byte	0x4
 14056 0f62 50       		.uleb128 .LVL183-.LVL174
 14057 0f63 64       		.uleb128 .LVL185-.LVL174
 14058 0f64 01       		.uleb128 0x1
 14059 0f65 51       		.byte	0x51
 14060 0f66 04       		.byte	0x4
 14061 0f67 64       		.uleb128 .LVL185-.LVL174
 14062 0f68 8801     		.uleb128 .LFE156-.LVL174
 14063 0f6a 04       		.uleb128 0x4
 14064 0f6b A3       		.byte	0xa3
 14065 0f6c 01       		.uleb128 0x1
 14066 0f6d 51       		.byte	0x51
 14067 0f6e 9F       		.byte	0x9f
 14068 0f6f 00       		.byte	0
 14069              	.LVUS69:
 14070 0f70 01       		.uleb128 .LVU882
 14071 0f71 00       		.uleb128 .LVU893
 14072 0f72 00       		.uleb128 .LVU893
 14073 0f73 00       		.uleb128 .LVU895
 14074 0f74 00       		.uleb128 .LVU895
 14075 0f75 00       		.uleb128 .LVU911
 14076 0f76 00       		.uleb128 .LVU911
 14077 0f77 00       		.uleb128 .LVU913
 14078 0f78 00       		.uleb128 .LVU913
 14079 0f79 00       		.uleb128 0
ARM GAS  C:\Users\DEVELO~1\AppData\Local\Temp\cc15HDCU.s 			page 248


 14080              	.LLST69:
 14081 0f7a 06       		.byte	0x6
 14082 0f7b 06000000 		.4byte	.LVL175
 14083 0f7f 04       		.byte	0x4
 14084 0f80 00       		.uleb128 .LVL175-.LVL175
 14085 0f81 18       		.uleb128 .LVL179-.LVL175
 14086 0f82 02       		.uleb128 0x2
 14087 0f83 30       		.byte	0x30
 14088 0f84 9F       		.byte	0x9f
 14089 0f85 04       		.byte	0x4
 14090 0f86 18       		.uleb128 .LVL179-.LVL175
 14091 0f87 1C       		.uleb128 .LVL180-.LVL175
 14092 0f88 01       		.uleb128 0x1
 14093 0f89 50       		.byte	0x50
 14094 0f8a 04       		.byte	0x4
 14095 0f8b 1C       		.uleb128 .LVL180-.LVL175
 14096 0f8c 46       		.uleb128 .LVL182-.LVL175
 14097 0f8d 02       		.uleb128 0x2
 14098 0f8e 30       		.byte	0x30
 14099 0f8f 9F       		.byte	0x9f
 14100 0f90 04       		.byte	0x4
 14101 0f91 46       		.uleb128 .LVL182-.LVL175
 14102 0f92 4A       		.uleb128 .LVL183-.LVL175
 14103 0f93 01       		.uleb128 0x1
 14104 0f94 50       		.byte	0x50
 14105 0f95 04       		.byte	0x4
 14106 0f96 4A       		.uleb128 .LVL183-.LVL175
 14107 0f97 8201     		.uleb128 .LFE156-.LVL175
 14108 0f99 02       		.uleb128 0x2
 14109 0f9a 30       		.byte	0x30
 14110 0f9b 9F       		.byte	0x9f
 14111 0f9c 00       		.byte	0
 14112              	.LVUS70:
 14113 0f9d 02       		.uleb128 .LVU883
 14114 0f9e 00       		.uleb128 .LVU889
 14115 0f9f 00       		.uleb128 .LVU889
 14116 0fa0 00       		.uleb128 .LVU890
 14117 0fa1 00       		.uleb128 .LVU890
 14118 0fa2 00       		.uleb128 .LVU913
 14119 0fa3 00       		.uleb128 .LVU913
 14120 0fa4 00       		.uleb128 .LVU915
 14121 0fa5 00       		.uleb128 .LVU915
 14122 0fa6 00       		.uleb128 0
 14123              	.LLST70:
 14124 0fa7 06       		.byte	0x6
 14125 0fa8 06000000 		.4byte	.LVL175
 14126 0fac 04       		.byte	0x4
 14127 0fad 00       		.uleb128 .LVL175-.LVL175
 14128 0fae 0C       		.uleb128 .LVL176-.LVL175
 14129 0faf 01       		.uleb128 0x1
 14130 0fb0 50       		.byte	0x50
 14131 0fb1 04       		.byte	0x4
 14132 0fb2 0C       		.uleb128 .LVL176-.LVL175
 14133 0fb3 10       		.uleb128 .LVL177-.LVL175
 14134 0fb4 04       		.uleb128 0x4
 14135 0fb5 70       		.byte	0x70
 14136 0fb6 806A     		.sleb128 -2816
ARM GAS  C:\Users\DEVELO~1\AppData\Local\Temp\cc15HDCU.s 			page 249


 14137 0fb8 9F       		.byte	0x9f
 14138 0fb9 04       		.byte	0x4
 14139 0fba 10       		.uleb128 .LVL177-.LVL175
 14140 0fbb 4A       		.uleb128 .LVL183-.LVL175
 14141 0fbc 04       		.uleb128 0x4
 14142 0fbd A3       		.byte	0xa3
 14143 0fbe 01       		.uleb128 0x1
 14144 0fbf 50       		.byte	0x50
 14145 0fc0 9F       		.byte	0x9f
 14146 0fc1 04       		.byte	0x4
 14147 0fc2 4A       		.uleb128 .LVL183-.LVL175
 14148 0fc3 4E       		.uleb128 .LVL184-.LVL175
 14149 0fc4 01       		.uleb128 0x1
 14150 0fc5 50       		.byte	0x50
 14151 0fc6 04       		.byte	0x4
 14152 0fc7 4E       		.uleb128 .LVL184-.LVL175
 14153 0fc8 8201     		.uleb128 .LFE156-.LVL175
 14154 0fca 04       		.uleb128 0x4
 14155 0fcb 70       		.byte	0x70
 14156 0fcc 806E     		.sleb128 -2304
 14157 0fce 9F       		.byte	0x9f
 14158 0fcf 00       		.byte	0
 14159              	.LVUS52:
 14160 0fd0 00       		.uleb128 0
 14161 0fd1 00       		.uleb128 .LVU709
 14162 0fd2 00       		.uleb128 .LVU709
 14163 0fd3 00       		.uleb128 .LVU712
 14164 0fd4 00       		.uleb128 .LVU712
 14165 0fd5 00       		.uleb128 .LVU749
 14166 0fd6 00       		.uleb128 .LVU749
 14167 0fd7 00       		.uleb128 .LVU750
 14168 0fd8 00       		.uleb128 .LVU750
 14169 0fd9 00       		.uleb128 .LVU787
 14170 0fda 00       		.uleb128 .LVU787
 14171 0fdb 00       		.uleb128 .LVU790
 14172 0fdc 00       		.uleb128 .LVU790
 14173 0fdd 00       		.uleb128 0
 14174              	.LLST52:
 14175 0fde 06       		.byte	0x6
 14176 0fdf 00000000 		.4byte	.LVL139
 14177 0fe3 04       		.byte	0x4
 14178 0fe4 00       		.uleb128 .LVL139-.LVL139
 14179 0fe5 8001     		.uleb128 .LVL143-.LVL139
 14180 0fe7 01       		.uleb128 0x1
 14181 0fe8 50       		.byte	0x50
 14182 0fe9 04       		.byte	0x4
 14183 0fea 8001     		.uleb128 .LVL143-.LVL139
 14184 0fec 8A01     		.uleb128 .LVL144-.LVL139
 14185 0fee 04       		.uleb128 0x4
 14186 0fef A3       		.byte	0xa3
 14187 0ff0 01       		.uleb128 0x1
 14188 0ff1 50       		.byte	0x50
 14189 0ff2 9F       		.byte	0x9f
 14190 0ff3 04       		.byte	0x4
 14191 0ff4 8A01     		.uleb128 .LVL144-.LVL139
 14192 0ff6 E801     		.uleb128 .LVL150-.LVL139
 14193 0ff8 01       		.uleb128 0x1
ARM GAS  C:\Users\DEVELO~1\AppData\Local\Temp\cc15HDCU.s 			page 250


 14194 0ff9 50       		.byte	0x50
 14195 0ffa 04       		.byte	0x4
 14196 0ffb E801     		.uleb128 .LVL150-.LVL139
 14197 0ffd EA01     		.uleb128 .LVL151-.LVL139
 14198 0fff 04       		.uleb128 0x4
 14199 1000 A3       		.byte	0xa3
 14200 1001 01       		.uleb128 0x1
 14201 1002 50       		.byte	0x50
 14202 1003 9F       		.byte	0x9f
 14203 1004 04       		.byte	0x4
 14204 1005 EA01     		.uleb128 .LVL151-.LVL139
 14205 1007 C402     		.uleb128 .LVL153-.LVL139
 14206 1009 01       		.uleb128 0x1
 14207 100a 50       		.byte	0x50
 14208 100b 04       		.byte	0x4
 14209 100c C402     		.uleb128 .LVL153-.LVL139
 14210 100e CC02     		.uleb128 .LVL154-.LVL139
 14211 1010 04       		.uleb128 0x4
 14212 1011 A3       		.byte	0xa3
 14213 1012 01       		.uleb128 0x1
 14214 1013 50       		.byte	0x50
 14215 1014 9F       		.byte	0x9f
 14216 1015 04       		.byte	0x4
 14217 1016 CC02     		.uleb128 .LVL154-.LVL139
 14218 1018 B404     		.uleb128 .LFE155-.LVL139
 14219 101a 01       		.uleb128 0x1
 14220 101b 50       		.byte	0x50
 14221 101c 00       		.byte	0
 14222              	.LVUS53:
 14223 101d 00       		.uleb128 0
 14224 101e 00       		.uleb128 .LVU747
 14225 101f 00       		.uleb128 .LVU747
 14226 1020 00       		.uleb128 .LVU750
 14227 1021 00       		.uleb128 .LVU750
 14228 1022 00       		.uleb128 .LVU862
 14229 1023 00       		.uleb128 .LVU862
 14230 1024 00       		.uleb128 .LVU873
 14231 1025 00       		.uleb128 .LVU873
 14232 1026 00       		.uleb128 0
 14233              	.LLST53:
 14234 1027 06       		.byte	0x6
 14235 1028 00000000 		.4byte	.LVL139
 14236 102c 04       		.byte	0x4
 14237 102d 00       		.uleb128 .LVL139-.LVL139
 14238 102e E601     		.uleb128 .LVL149-.LVL139
 14239 1030 01       		.uleb128 0x1
 14240 1031 51       		.byte	0x51
 14241 1032 04       		.byte	0x4
 14242 1033 E601     		.uleb128 .LVL149-.LVL139
 14243 1035 EA01     		.uleb128 .LVL151-.LVL139
 14244 1037 04       		.uleb128 0x4
 14245 1038 A3       		.byte	0xa3
 14246 1039 01       		.uleb128 0x1
 14247 103a 51       		.byte	0x51
 14248 103b 9F       		.byte	0x9f
 14249 103c 04       		.byte	0x4
 14250 103d EA01     		.uleb128 .LVL151-.LVL139
ARM GAS  C:\Users\DEVELO~1\AppData\Local\Temp\cc15HDCU.s 			page 251


 14251 103f 9004     		.uleb128 .LVL169-.LVL139
 14252 1041 01       		.uleb128 0x1
 14253 1042 51       		.byte	0x51
 14254 1043 04       		.byte	0x4
 14255 1044 9004     		.uleb128 .LVL169-.LVL139
 14256 1046 A004     		.uleb128 .LVL173-.LVL139
 14257 1048 04       		.uleb128 0x4
 14258 1049 A3       		.byte	0xa3
 14259 104a 01       		.uleb128 0x1
 14260 104b 51       		.byte	0x51
 14261 104c 9F       		.byte	0x9f
 14262 104d 04       		.byte	0x4
 14263 104e A004     		.uleb128 .LVL173-.LVL139
 14264 1050 B404     		.uleb128 .LFE155-.LVL139
 14265 1052 01       		.uleb128 0x1
 14266 1053 51       		.byte	0x51
 14267 1054 00       		.byte	0
 14268              	.LVUS54:
 14269 1055 00       		.uleb128 0
 14270 1056 00       		.uleb128 .LVU696
 14271 1057 00       		.uleb128 .LVU696
 14272 1058 00       		.uleb128 .LVU712
 14273 1059 00       		.uleb128 .LVU712
 14274 105a 00       		.uleb128 .LVU745
 14275 105b 00       		.uleb128 .LVU745
 14276 105c 00       		.uleb128 .LVU750
 14277 105d 00       		.uleb128 .LVU750
 14278 105e 00       		.uleb128 .LVU771
 14279 105f 00       		.uleb128 .LVU771
 14280 1060 00       		.uleb128 .LVU790
 14281 1061 00       		.uleb128 .LVU790
 14282 1062 00       		.uleb128 .LVU814
 14283 1063 00       		.uleb128 .LVU814
 14284 1064 00       		.uleb128 .LVU817
 14285 1065 00       		.uleb128 .LVU817
 14286 1066 00       		.uleb128 .LVU858
 14287 1067 00       		.uleb128 .LVU858
 14288 1068 00       		.uleb128 .LVU873
 14289 1069 00       		.uleb128 .LVU873
 14290 106a 00       		.uleb128 0
 14291              	.LLST54:
 14292 106b 06       		.byte	0x6
 14293 106c 00000000 		.4byte	.LVL139
 14294 1070 04       		.byte	0x4
 14295 1071 00       		.uleb128 .LVL139-.LVL139
 14296 1072 5A       		.uleb128 .LVL142-.LVL139
 14297 1073 01       		.uleb128 0x1
 14298 1074 52       		.byte	0x52
 14299 1075 04       		.byte	0x4
 14300 1076 5A       		.uleb128 .LVL142-.LVL139
 14301 1077 8A01     		.uleb128 .LVL144-.LVL139
 14302 1079 04       		.uleb128 0x4
 14303 107a A3       		.byte	0xa3
 14304 107b 01       		.uleb128 0x1
 14305 107c 52       		.byte	0x52
 14306 107d 9F       		.byte	0x9f
 14307 107e 04       		.byte	0x4
ARM GAS  C:\Users\DEVELO~1\AppData\Local\Temp\cc15HDCU.s 			page 252


 14308 107f 8A01     		.uleb128 .LVL144-.LVL139
 14309 1081 DE01     		.uleb128 .LVL148-.LVL139
 14310 1083 01       		.uleb128 0x1
 14311 1084 52       		.byte	0x52
 14312 1085 04       		.byte	0x4
 14313 1086 DE01     		.uleb128 .LVL148-.LVL139
 14314 1088 EA01     		.uleb128 .LVL151-.LVL139
 14315 108a 04       		.uleb128 0x4
 14316 108b A3       		.byte	0xa3
 14317 108c 01       		.uleb128 0x1
 14318 108d 52       		.byte	0x52
 14319 108e 9F       		.byte	0x9f
 14320 108f 04       		.byte	0x4
 14321 1090 EA01     		.uleb128 .LVL151-.LVL139
 14322 1092 A202     		.uleb128 .LVL152-.LVL139
 14323 1094 01       		.uleb128 0x1
 14324 1095 52       		.byte	0x52
 14325 1096 04       		.byte	0x4
 14326 1097 A202     		.uleb128 .LVL152-.LVL139
 14327 1099 CC02     		.uleb128 .LVL154-.LVL139
 14328 109b 04       		.uleb128 0x4
 14329 109c A3       		.byte	0xa3
 14330 109d 01       		.uleb128 0x1
 14331 109e 52       		.byte	0x52
 14332 109f 9F       		.byte	0x9f
 14333 10a0 04       		.byte	0x4
 14334 10a1 CC02     		.uleb128 .LVL154-.LVL139
 14335 10a3 9003     		.uleb128 .LVL159-.LVL139
 14336 10a5 01       		.uleb128 0x1
 14337 10a6 52       		.byte	0x52
 14338 10a7 04       		.byte	0x4
 14339 10a8 9003     		.uleb128 .LVL159-.LVL139
 14340 10aa 9C03     		.uleb128 .LVL160-.LVL139
 14341 10ac 04       		.uleb128 0x4
 14342 10ad A3       		.byte	0xa3
 14343 10ae 01       		.uleb128 0x1
 14344 10af 52       		.byte	0x52
 14345 10b0 9F       		.byte	0x9f
 14346 10b1 04       		.byte	0x4
 14347 10b2 9C03     		.uleb128 .LVL160-.LVL139
 14348 10b4 8204     		.uleb128 .LVL167-.LVL139
 14349 10b6 01       		.uleb128 0x1
 14350 10b7 52       		.byte	0x52
 14351 10b8 04       		.byte	0x4
 14352 10b9 8204     		.uleb128 .LVL167-.LVL139
 14353 10bb A004     		.uleb128 .LVL173-.LVL139
 14354 10bd 04       		.uleb128 0x4
 14355 10be A3       		.byte	0xa3
 14356 10bf 01       		.uleb128 0x1
 14357 10c0 52       		.byte	0x52
 14358 10c1 9F       		.byte	0x9f
 14359 10c2 04       		.byte	0x4
 14360 10c3 A004     		.uleb128 .LVL173-.LVL139
 14361 10c5 B404     		.uleb128 .LFE155-.LVL139
 14362 10c7 01       		.uleb128 0x1
 14363 10c8 52       		.byte	0x52
 14364 10c9 00       		.byte	0
ARM GAS  C:\Users\DEVELO~1\AppData\Local\Temp\cc15HDCU.s 			page 253


 14365              	.LVUS55:
 14366 10ca 02       		.uleb128 .LVU666
 14367 10cb 00       		.uleb128 .LVU709
 14368 10cc 00       		.uleb128 .LVU709
 14369 10cd 00       		.uleb128 .LVU712
 14370 10ce 00       		.uleb128 .LVU712
 14371 10cf 00       		.uleb128 .LVU749
 14372 10d0 00       		.uleb128 .LVU749
 14373 10d1 00       		.uleb128 .LVU750
 14374 10d2 00       		.uleb128 .LVU750
 14375 10d3 00       		.uleb128 .LVU787
 14376 10d4 00       		.uleb128 .LVU787
 14377 10d5 00       		.uleb128 .LVU790
 14378 10d6 00       		.uleb128 .LVU790
 14379 10d7 00       		.uleb128 0
 14380              	.LLST55:
 14381 10d8 06       		.byte	0x6
 14382 10d9 00000000 		.4byte	.LVL139
 14383 10dd 04       		.byte	0x4
 14384 10de 00       		.uleb128 .LVL139-.LVL139
 14385 10df 8001     		.uleb128 .LVL143-.LVL139
 14386 10e1 01       		.uleb128 0x1
 14387 10e2 50       		.byte	0x50
 14388 10e3 04       		.byte	0x4
 14389 10e4 8001     		.uleb128 .LVL143-.LVL139
 14390 10e6 8A01     		.uleb128 .LVL144-.LVL139
 14391 10e8 04       		.uleb128 0x4
 14392 10e9 A3       		.byte	0xa3
 14393 10ea 01       		.uleb128 0x1
 14394 10eb 50       		.byte	0x50
 14395 10ec 9F       		.byte	0x9f
 14396 10ed 04       		.byte	0x4
 14397 10ee 8A01     		.uleb128 .LVL144-.LVL139
 14398 10f0 E801     		.uleb128 .LVL150-.LVL139
 14399 10f2 01       		.uleb128 0x1
 14400 10f3 50       		.byte	0x50
 14401 10f4 04       		.byte	0x4
 14402 10f5 E801     		.uleb128 .LVL150-.LVL139
 14403 10f7 EA01     		.uleb128 .LVL151-.LVL139
 14404 10f9 04       		.uleb128 0x4
 14405 10fa A3       		.byte	0xa3
 14406 10fb 01       		.uleb128 0x1
 14407 10fc 50       		.byte	0x50
 14408 10fd 9F       		.byte	0x9f
 14409 10fe 04       		.byte	0x4
 14410 10ff EA01     		.uleb128 .LVL151-.LVL139
 14411 1101 C402     		.uleb128 .LVL153-.LVL139
 14412 1103 01       		.uleb128 0x1
 14413 1104 50       		.byte	0x50
 14414 1105 04       		.byte	0x4
 14415 1106 C402     		.uleb128 .LVL153-.LVL139
 14416 1108 CC02     		.uleb128 .LVL154-.LVL139
 14417 110a 04       		.uleb128 0x4
 14418 110b A3       		.byte	0xa3
 14419 110c 01       		.uleb128 0x1
 14420 110d 50       		.byte	0x50
 14421 110e 9F       		.byte	0x9f
ARM GAS  C:\Users\DEVELO~1\AppData\Local\Temp\cc15HDCU.s 			page 254


 14422 110f 04       		.byte	0x4
 14423 1110 CC02     		.uleb128 .LVL154-.LVL139
 14424 1112 B404     		.uleb128 .LFE155-.LVL139
 14425 1114 01       		.uleb128 0x1
 14426 1115 50       		.byte	0x50
 14427 1116 00       		.byte	0
 14428              	.LVUS56:
 14429 1117 00       		.uleb128 .LVU670
 14430 1118 00       		.uleb128 .LVU683
 14431 1119 00       		.uleb128 .LVU712
 14432 111a 00       		.uleb128 .LVU714
 14433 111b 00       		.uleb128 .LVU717
 14434 111c 00       		.uleb128 .LVU743
 14435 111d 00       		.uleb128 .LVU750
 14436 111e 00       		.uleb128 .LVU790
 14437 111f 00       		.uleb128 .LVU817
 14438 1120 00       		.uleb128 .LVU861
 14439 1121 00       		.uleb128 .LVU873
 14440 1122 00       		.uleb128 0
 14441              	.LLST56:
 14442 1123 06       		.byte	0x6
 14443 1124 06000000 		.4byte	.LVL140
 14444 1128 04       		.byte	0x4
 14445 1129 00       		.uleb128 .LVL140-.LVL140
 14446 112a 28       		.uleb128 .LVL141-.LVL140
 14447 112b 01       		.uleb128 0x1
 14448 112c 54       		.byte	0x54
 14449 112d 04       		.byte	0x4
 14450 112e 8401     		.uleb128 .LVL144-.LVL140
 14451 1130 8601     		.uleb128 .LVL145-.LVL140
 14452 1132 01       		.uleb128 0x1
 14453 1133 54       		.byte	0x54
 14454 1134 04       		.byte	0x4
 14455 1135 8E01     		.uleb128 .LVL146-.LVL140
 14456 1137 D201     		.uleb128 .LVL147-.LVL140
 14457 1139 01       		.uleb128 0x1
 14458 113a 54       		.byte	0x54
 14459 113b 04       		.byte	0x4
 14460 113c E401     		.uleb128 .LVL151-.LVL140
 14461 113e C602     		.uleb128 .LVL154-.LVL140
 14462 1140 01       		.uleb128 0x1
 14463 1141 54       		.byte	0x54
 14464 1142 04       		.byte	0x4
 14465 1143 9603     		.uleb128 .LVL160-.LVL140
 14466 1145 8604     		.uleb128 .LVL168-.LVL140
 14467 1147 01       		.uleb128 0x1
 14468 1148 54       		.byte	0x54
 14469 1149 04       		.byte	0x4
 14470 114a 9A04     		.uleb128 .LVL173-.LVL140
 14471 114c AE04     		.uleb128 .LFE155-.LVL140
 14472 114e 01       		.uleb128 0x1
 14473 114f 54       		.byte	0x54
 14474 1150 00       		.byte	0
 14475              	.LVUS57:
 14476 1151 00       		.uleb128 .LVU795
 14477 1152 00       		.uleb128 .LVU799
 14478 1153 00       		.uleb128 .LVU799
ARM GAS  C:\Users\DEVELO~1\AppData\Local\Temp\cc15HDCU.s 			page 255


 14479 1154 00       		.uleb128 .LVU802
 14480 1155 00       		.uleb128 .LVU802
 14481 1156 00       		.uleb128 .LVU812
 14482 1157 00       		.uleb128 .LVU819
 14483 1158 00       		.uleb128 .LVU832
 14484 1159 00       		.uleb128 .LVU832
 14485 115a 00       		.uleb128 .LVU838
 14486              	.LLST57:
 14487 115b 06       		.byte	0x6
 14488 115c 54010000 		.4byte	.LVL155
 14489 1160 04       		.byte	0x4
 14490 1161 00       		.uleb128 .LVL155-.LVL155
 14491 1162 06       		.uleb128 .LVL156-.LVL155
 14492 1163 11       		.uleb128 0x11
 14493 1164 74       		.byte	0x74
 14494 1165 00       		.sleb128 0
 14495 1166 75       		.byte	0x75
 14496 1167 00       		.sleb128 0
 14497 1168 22       		.byte	0x22
 14498 1169 31       		.byte	0x31
 14499 116a 1C       		.byte	0x1c
 14500 116b A8       		.byte	0xa8
 14501 116c 26       		.uleb128 0x26
 14502 116d 75       		.byte	0x75
 14503 116e 00       		.sleb128 0
 14504 116f A8       		.byte	0xa8
 14505 1170 26       		.uleb128 0x26
 14506 1171 1B       		.byte	0x1b
 14507 1172 A8       		.byte	0xa8
 14508 1173 00       		.uleb128 0
 14509 1174 9F       		.byte	0x9f
 14510 1175 04       		.byte	0x4
 14511 1176 06       		.uleb128 .LVL156-.LVL155
 14512 1177 14       		.uleb128 .LVL157-.LVL155
 14513 1178 12       		.uleb128 0x12
 14514 1179 71       		.byte	0x71
 14515 117a 10       		.sleb128 16
 14516 117b 06       		.byte	0x6
 14517 117c 75       		.byte	0x75
 14518 117d 00       		.sleb128 0
 14519 117e 22       		.byte	0x22
 14520 117f 31       		.byte	0x31
 14521 1180 1C       		.byte	0x1c
 14522 1181 A8       		.byte	0xa8
 14523 1182 26       		.uleb128 0x26
 14524 1183 75       		.byte	0x75
 14525 1184 00       		.sleb128 0
 14526 1185 A8       		.byte	0xa8
 14527 1186 26       		.uleb128 0x26
 14528 1187 1B       		.byte	0x1b
 14529 1188 A8       		.byte	0xa8
 14530 1189 00       		.uleb128 0
 14531 118a 9F       		.byte	0x9f
 14532 118b 04       		.byte	0x4
 14533 118c 14       		.uleb128 .LVL157-.LVL155
 14534 118d 3A       		.uleb128 .LVL158-.LVL155
 14535 118e 14       		.uleb128 0x14
ARM GAS  C:\Users\DEVELO~1\AppData\Local\Temp\cc15HDCU.s 			page 256


 14536 118f 71       		.byte	0x71
 14537 1190 10       		.sleb128 16
 14538 1191 06       		.byte	0x6
 14539 1192 71       		.byte	0x71
 14540 1193 08       		.sleb128 8
 14541 1194 06       		.byte	0x6
 14542 1195 22       		.byte	0x22
 14543 1196 31       		.byte	0x31
 14544 1197 1C       		.byte	0x1c
 14545 1198 A8       		.byte	0xa8
 14546 1199 26       		.uleb128 0x26
 14547 119a 71       		.byte	0x71
 14548 119b 08       		.sleb128 8
 14549 119c 06       		.byte	0x6
 14550 119d A8       		.byte	0xa8
 14551 119e 26       		.uleb128 0x26
 14552 119f 1B       		.byte	0x1b
 14553 11a0 A8       		.byte	0xa8
 14554 11a1 00       		.uleb128 0
 14555 11a2 9F       		.byte	0x9f
 14556 11a3 04       		.byte	0x4
 14557 11a4 4C       		.uleb128 .LVL161-.LVL155
 14558 11a5 72       		.uleb128 .LVL162-.LVL155
 14559 11a6 11       		.uleb128 0x11
 14560 11a7 75       		.byte	0x75
 14561 11a8 00       		.sleb128 0
 14562 11a9 7C       		.byte	0x7c
 14563 11aa 00       		.sleb128 0
 14564 11ab 22       		.byte	0x22
 14565 11ac 31       		.byte	0x31
 14566 11ad 1C       		.byte	0x1c
 14567 11ae A8       		.byte	0xa8
 14568 11af 26       		.uleb128 0x26
 14569 11b0 7C       		.byte	0x7c
 14570 11b1 00       		.sleb128 0
 14571 11b2 A8       		.byte	0xa8
 14572 11b3 26       		.uleb128 0x26
 14573 11b4 1B       		.byte	0x1b
 14574 11b5 A8       		.byte	0xa8
 14575 11b6 00       		.uleb128 0
 14576 11b7 9F       		.byte	0x9f
 14577 11b8 04       		.byte	0x4
 14578 11b9 72       		.uleb128 .LVL162-.LVL155
 14579 11ba 8C01     		.uleb128 .LVL163-.LVL155
 14580 11bc 13       		.uleb128 0x13
 14581 11bd 75       		.byte	0x75
 14582 11be 00       		.sleb128 0
 14583 11bf 71       		.byte	0x71
 14584 11c0 08       		.sleb128 8
 14585 11c1 06       		.byte	0x6
 14586 11c2 22       		.byte	0x22
 14587 11c3 31       		.byte	0x31
 14588 11c4 1C       		.byte	0x1c
 14589 11c5 A8       		.byte	0xa8
 14590 11c6 26       		.uleb128 0x26
 14591 11c7 71       		.byte	0x71
 14592 11c8 08       		.sleb128 8
ARM GAS  C:\Users\DEVELO~1\AppData\Local\Temp\cc15HDCU.s 			page 257


 14593 11c9 06       		.byte	0x6
 14594 11ca A8       		.byte	0xa8
 14595 11cb 26       		.uleb128 0x26
 14596 11cc 1B       		.byte	0x1b
 14597 11cd A8       		.byte	0xa8
 14598 11ce 00       		.uleb128 0
 14599 11cf 9F       		.byte	0x9f
 14600 11d0 00       		.byte	0
 14601              	.LVUS59:
 14602 11d1 02       		.uleb128 .LVU846
 14603 11d2 00       		.uleb128 .LVU858
 14604 11d3 00       		.uleb128 .LVU858
 14605 11d4 00       		.uleb128 .LVU873
 14606              	.LLST59:
 14607 11d5 06       		.byte	0x6
 14608 11d6 F0010000 		.4byte	.LVL164
 14609 11da 04       		.byte	0x4
 14610 11db 00       		.uleb128 .LVL164-.LVL164
 14611 11dc 12       		.uleb128 .LVL167-.LVL164
 14612 11dd 01       		.uleb128 0x1
 14613 11de 52       		.byte	0x52
 14614 11df 04       		.byte	0x4
 14615 11e0 12       		.uleb128 .LVL167-.LVL164
 14616 11e1 30       		.uleb128 .LVL173-.LVL164
 14617 11e2 04       		.uleb128 0x4
 14618 11e3 A3       		.byte	0xa3
 14619 11e4 01       		.uleb128 0x1
 14620 11e5 52       		.byte	0x52
 14621 11e6 9F       		.byte	0x9f
 14622 11e7 00       		.byte	0
 14623              	.LVUS60:
 14624 11e8 02       		.uleb128 .LVU846
 14625 11e9 00       		.uleb128 .LVU853
 14626              	.LLST60:
 14627 11ea 08       		.byte	0x8
 14628 11eb F0010000 		.4byte	.LVL164
 14629 11ef 06       		.uleb128 .LVL165-.LVL164
 14630 11f0 02       		.uleb128 0x2
 14631 11f1 71       		.byte	0x71
 14632 11f2 10       		.sleb128 16
 14633 11f3 00       		.byte	0
 14634              	.LVUS61:
 14635 11f4 02       		.uleb128 .LVU846
 14636 11f5 00       		.uleb128 .LVU862
 14637 11f6 00       		.uleb128 .LVU862
 14638 11f7 00       		.uleb128 .LVU873
 14639              	.LLST61:
 14640 11f8 06       		.byte	0x6
 14641 11f9 F0010000 		.4byte	.LVL164
 14642 11fd 04       		.byte	0x4
 14643 11fe 00       		.uleb128 .LVL164-.LVL164
 14644 11ff 20       		.uleb128 .LVL169-.LVL164
 14645 1200 02       		.uleb128 0x2
 14646 1201 71       		.byte	0x71
 14647 1202 0C       		.sleb128 12
 14648 1203 04       		.byte	0x4
 14649 1204 20       		.uleb128 .LVL169-.LVL164
ARM GAS  C:\Users\DEVELO~1\AppData\Local\Temp\cc15HDCU.s 			page 258


 14650 1205 30       		.uleb128 .LVL173-.LVL164
 14651 1206 05       		.uleb128 0x5
 14652 1207 A3       		.byte	0xa3
 14653 1208 01       		.uleb128 0x1
 14654 1209 51       		.byte	0x51
 14655 120a 23       		.byte	0x23
 14656 120b 0C       		.uleb128 0xc
 14657 120c 00       		.byte	0
 14658              	.LVUS62:
 14659 120d 02       		.uleb128 .LVU846
 14660 120e 00       		.uleb128 .LVU873
 14661              	.LLST62:
 14662 120f 08       		.byte	0x8
 14663 1210 F0010000 		.4byte	.LVL164
 14664 1214 30       		.uleb128 .LVL173-.LVL164
 14665 1215 01       		.uleb128 0x1
 14666 1216 50       		.byte	0x50
 14667 1217 00       		.byte	0
 14668              	.LVUS63:
 14669 1218 04       		.uleb128 .LVU848
 14670 1219 00       		.uleb128 .LVU873
 14671              	.LLST63:
 14672 121a 08       		.byte	0x8
 14673 121b F0010000 		.4byte	.LVL164
 14674 121f 30       		.uleb128 .LVL173-.LVL164
 14675 1220 01       		.uleb128 0x1
 14676 1221 50       		.byte	0x50
 14677 1222 00       		.byte	0
 14678              	.LVUS64:
 14679 1223 05       		.uleb128 .LVU849
 14680 1224 00       		.uleb128 .LVU862
 14681 1225 00       		.uleb128 .LVU862
 14682 1226 00       		.uleb128 .LVU863
 14683 1227 00       		.uleb128 .LVU863
 14684 1228 00       		.uleb128 .LVU865
 14685 1229 00       		.uleb128 .LVU865
 14686 122a 01       		.uleb128 .LVU868
 14687 122b 01       		.uleb128 .LVU868
 14688 122c 02       		.uleb128 .LVU869
 14689 122d 02       		.uleb128 .LVU869
 14690 122e 03       		.uleb128 .LVU870
 14691 122f 03       		.uleb128 .LVU870
 14692 1230 04       		.uleb128 .LVU871
 14693 1231 04       		.uleb128 .LVU871
 14694 1232 00       		.uleb128 .LVU873
 14695              	.LLST64:
 14696 1233 06       		.byte	0x6
 14697 1234 F0010000 		.4byte	.LVL164
 14698 1238 04       		.byte	0x4
 14699 1239 00       		.uleb128 .LVL164-.LVL164
 14700 123a 20       		.uleb128 .LVL169-.LVL164
 14701 123b 02       		.uleb128 0x2
 14702 123c 71       		.byte	0x71
 14703 123d 0C       		.sleb128 12
 14704 123e 04       		.byte	0x4
 14705 123f 20       		.uleb128 .LVL169-.LVL164
 14706 1240 24       		.uleb128 .LVL170-.LVL164
ARM GAS  C:\Users\DEVELO~1\AppData\Local\Temp\cc15HDCU.s 			page 259


 14707 1241 05       		.uleb128 0x5
 14708 1242 A3       		.byte	0xa3
 14709 1243 01       		.uleb128 0x1
 14710 1244 51       		.byte	0x51
 14711 1245 23       		.byte	0x23
 14712 1246 0C       		.uleb128 0xc
 14713 1247 04       		.byte	0x4
 14714 1248 24       		.uleb128 .LVL170-.LVL164
 14715 1249 28       		.uleb128 .LVL171-.LVL164
 14716 124a 01       		.uleb128 0x1
 14717 124b 53       		.byte	0x53
 14718 124c 04       		.byte	0x4
 14719 124d 28       		.uleb128 .LVL171-.LVL164
 14720 124e 2C       		.uleb128 .LVL172-.LVL164
 14721 124f 03       		.uleb128 0x3
 14722 1250 73       		.byte	0x73
 14723 1251 7C       		.sleb128 -4
 14724 1252 9F       		.byte	0x9f
 14725 1253 04       		.byte	0x4
 14726 1254 2C       		.uleb128 .LVL172-.LVL164
 14727 1255 2C       		.uleb128 .LVL172-.LVL164
 14728 1256 03       		.uleb128 0x3
 14729 1257 73       		.byte	0x73
 14730 1258 7D       		.sleb128 -3
 14731 1259 9F       		.byte	0x9f
 14732 125a 04       		.byte	0x4
 14733 125b 2C       		.uleb128 .LVL172-.LVL164
 14734 125c 2C       		.uleb128 .LVL172-.LVL164
 14735 125d 03       		.uleb128 0x3
 14736 125e 73       		.byte	0x73
 14737 125f 7E       		.sleb128 -2
 14738 1260 9F       		.byte	0x9f
 14739 1261 04       		.byte	0x4
 14740 1262 2C       		.uleb128 .LVL172-.LVL164
 14741 1263 2C       		.uleb128 .LVL172-.LVL164
 14742 1264 03       		.uleb128 0x3
 14743 1265 73       		.byte	0x73
 14744 1266 7F       		.sleb128 -1
 14745 1267 9F       		.byte	0x9f
 14746 1268 04       		.byte	0x4
 14747 1269 2C       		.uleb128 .LVL172-.LVL164
 14748 126a 30       		.uleb128 .LVL173-.LVL164
 14749 126b 01       		.uleb128 0x1
 14750 126c 53       		.byte	0x53
 14751 126d 00       		.byte	0
 14752              	.LVUS65:
 14753 126e 00       		.uleb128 .LVU856
 14754 126f 00       		.uleb128 .LVU858
 14755 1270 00       		.uleb128 .LVU858
 14756 1271 00       		.uleb128 .LVU863
 14757              	.LLST65:
 14758 1272 06       		.byte	0x6
 14759 1273 00020000 		.4byte	.LVL166
 14760 1277 04       		.byte	0x4
 14761 1278 00       		.uleb128 .LVL166-.LVL166
 14762 1279 02       		.uleb128 .LVL167-.LVL166
 14763 127a 05       		.uleb128 0x5
ARM GAS  C:\Users\DEVELO~1\AppData\Local\Temp\cc15HDCU.s 			page 260


 14764 127b 73       		.byte	0x73
 14765 127c 00       		.sleb128 0
 14766 127d 32       		.byte	0x32
 14767 127e 25       		.byte	0x25
 14768 127f 9F       		.byte	0x9f
 14769 1280 04       		.byte	0x4
 14770 1281 02       		.uleb128 .LVL167-.LVL166
 14771 1282 14       		.uleb128 .LVL170-.LVL166
 14772 1283 01       		.uleb128 0x1
 14773 1284 52       		.byte	0x52
 14774 1285 00       		.byte	0
 14775              	.LVUS66:
 14776 1286 01       		.uleb128 .LVU857
 14777 1287 00       		.uleb128 .LVU863
 14778              	.LLST66:
 14779 1288 08       		.byte	0x8
 14780 1289 00020000 		.4byte	.LVL166
 14781 128d 14       		.uleb128 .LVL170-.LVL166
 14782 128e 02       		.uleb128 0x2
 14783 128f 30       		.byte	0x30
 14784 1290 9F       		.byte	0x9f
 14785 1291 00       		.byte	0
 14786              	.LVUS48:
 14787 1292 00       		.uleb128 0
 14788 1293 00       		.uleb128 .LVU638
 14789 1294 00       		.uleb128 .LVU638
 14790 1295 00       		.uleb128 .LVU639
 14791 1296 00       		.uleb128 .LVU639
 14792 1297 00       		.uleb128 .LVU663
 14793 1298 00       		.uleb128 .LVU663
 14794 1299 00       		.uleb128 0
 14795              	.LLST48:
 14796 129a 06       		.byte	0x6
 14797 129b 00000000 		.4byte	.LVL129
 14798 129f 04       		.byte	0x4
 14799 12a0 00       		.uleb128 .LVL129-.LVL129
 14800 12a1 3C       		.uleb128 .LVL133-.LVL129
 14801 12a2 01       		.uleb128 0x1
 14802 12a3 50       		.byte	0x50
 14803 12a4 04       		.byte	0x4
 14804 12a5 3C       		.uleb128 .LVL133-.LVL129
 14805 12a6 3E       		.uleb128 .LVL134-.LVL129
 14806 12a7 04       		.uleb128 0x4
 14807 12a8 A3       		.byte	0xa3
 14808 12a9 01       		.uleb128 0x1
 14809 12aa 50       		.byte	0x50
 14810 12ab 9F       		.byte	0x9f
 14811 12ac 04       		.byte	0x4
 14812 12ad 3E       		.uleb128 .LVL134-.LVL129
 14813 12ae 9C01     		.uleb128 .LVL138-.LVL129
 14814 12b0 01       		.uleb128 0x1
 14815 12b1 50       		.byte	0x50
 14816 12b2 04       		.byte	0x4
 14817 12b3 9C01     		.uleb128 .LVL138-.LVL129
 14818 12b5 9E01     		.uleb128 .LFE154-.LVL129
 14819 12b7 04       		.uleb128 0x4
 14820 12b8 A3       		.byte	0xa3
ARM GAS  C:\Users\DEVELO~1\AppData\Local\Temp\cc15HDCU.s 			page 261


 14821 12b9 01       		.uleb128 0x1
 14822 12ba 50       		.byte	0x50
 14823 12bb 9F       		.byte	0x9f
 14824 12bc 00       		.byte	0
 14825              	.LVUS49:
 14826 12bd 00       		.uleb128 0
 14827 12be 00       		.uleb128 .LVU624
 14828 12bf 00       		.uleb128 .LVU624
 14829 12c0 00       		.uleb128 .LVU643
 14830 12c1 00       		.uleb128 .LVU643
 14831 12c2 00       		.uleb128 .LVU645
 14832 12c3 00       		.uleb128 .LVU645
 14833 12c4 00       		.uleb128 0
 14834              	.LLST49:
 14835 12c5 06       		.byte	0x6
 14836 12c6 00000000 		.4byte	.LVL129
 14837 12ca 04       		.byte	0x4
 14838 12cb 00       		.uleb128 .LVL129-.LVL129
 14839 12cc 12       		.uleb128 .LVL131-.LVL129
 14840 12cd 01       		.uleb128 0x1
 14841 12ce 51       		.byte	0x51
 14842 12cf 04       		.byte	0x4
 14843 12d0 12       		.uleb128 .LVL131-.LVL129
 14844 12d1 58       		.uleb128 .LVL135-.LVL129
 14845 12d2 04       		.uleb128 0x4
 14846 12d3 A3       		.byte	0xa3
 14847 12d4 01       		.uleb128 0x1
 14848 12d5 51       		.byte	0x51
 14849 12d6 9F       		.byte	0x9f
 14850 12d7 04       		.byte	0x4
 14851 12d8 58       		.uleb128 .LVL135-.LVL129
 14852 12d9 5C       		.uleb128 .LVL136-.LVL129
 14853 12da 01       		.uleb128 0x1
 14854 12db 51       		.byte	0x51
 14855 12dc 04       		.byte	0x4
 14856 12dd 5C       		.uleb128 .LVL136-.LVL129
 14857 12de 9E01     		.uleb128 .LFE154-.LVL129
 14858 12e0 04       		.uleb128 0x4
 14859 12e1 A3       		.byte	0xa3
 14860 12e2 01       		.uleb128 0x1
 14861 12e3 51       		.byte	0x51
 14862 12e4 9F       		.byte	0x9f
 14863 12e5 00       		.byte	0
 14864              	.LVUS50:
 14865 12e6 02       		.uleb128 .LVU614
 14866 12e7 00       		.uleb128 .LVU638
 14867 12e8 00       		.uleb128 .LVU638
 14868 12e9 00       		.uleb128 .LVU639
 14869 12ea 00       		.uleb128 .LVU639
 14870 12eb 00       		.uleb128 .LVU663
 14871 12ec 00       		.uleb128 .LVU663
 14872 12ed 00       		.uleb128 0
 14873              	.LLST50:
 14874 12ee 06       		.byte	0x6
 14875 12ef 00000000 		.4byte	.LVL129
 14876 12f3 04       		.byte	0x4
 14877 12f4 00       		.uleb128 .LVL129-.LVL129
ARM GAS  C:\Users\DEVELO~1\AppData\Local\Temp\cc15HDCU.s 			page 262


 14878 12f5 3C       		.uleb128 .LVL133-.LVL129
 14879 12f6 01       		.uleb128 0x1
 14880 12f7 50       		.byte	0x50
 14881 12f8 04       		.byte	0x4
 14882 12f9 3C       		.uleb128 .LVL133-.LVL129
 14883 12fa 3E       		.uleb128 .LVL134-.LVL129
 14884 12fb 04       		.uleb128 0x4
 14885 12fc A3       		.byte	0xa3
 14886 12fd 01       		.uleb128 0x1
 14887 12fe 50       		.byte	0x50
 14888 12ff 9F       		.byte	0x9f
 14889 1300 04       		.byte	0x4
 14890 1301 3E       		.uleb128 .LVL134-.LVL129
 14891 1302 9C01     		.uleb128 .LVL138-.LVL129
 14892 1304 01       		.uleb128 0x1
 14893 1305 50       		.byte	0x50
 14894 1306 04       		.byte	0x4
 14895 1307 9C01     		.uleb128 .LVL138-.LVL129
 14896 1309 9E01     		.uleb128 .LFE154-.LVL129
 14897 130b 04       		.uleb128 0x4
 14898 130c A3       		.byte	0xa3
 14899 130d 01       		.uleb128 0x1
 14900 130e 50       		.byte	0x50
 14901 130f 9F       		.byte	0x9f
 14902 1310 00       		.byte	0
 14903              	.LVUS51:
 14904 1311 00       		.uleb128 .LVU618
 14905 1312 00       		.uleb128 .LVU628
 14906 1313 00       		.uleb128 .LVU639
 14907 1314 00       		.uleb128 .LVU653
 14908              	.LLST51:
 14909 1315 06       		.byte	0x6
 14910 1316 06000000 		.4byte	.LVL130
 14911 131a 04       		.byte	0x4
 14912 131b 00       		.uleb128 .LVL130-.LVL130
 14913 131c 18       		.uleb128 .LVL132-.LVL130
 14914 131d 06       		.uleb128 0x6
 14915 131e 73       		.byte	0x73
 14916 131f 00       		.sleb128 0
 14917 1320 08       		.byte	0x8
 14918 1321 FF       		.byte	0xff
 14919 1322 1A       		.byte	0x1a
 14920 1323 9F       		.byte	0x9f
 14921 1324 04       		.byte	0x4
 14922 1325 38       		.uleb128 .LVL134-.LVL130
 14923 1326 7A       		.uleb128 .LVL137-.LVL130
 14924 1327 06       		.uleb128 0x6
 14925 1328 73       		.byte	0x73
 14926 1329 00       		.sleb128 0
 14927 132a 08       		.byte	0x8
 14928 132b FF       		.byte	0xff
 14929 132c 1A       		.byte	0x1a
 14930 132d 9F       		.byte	0x9f
 14931 132e 00       		.byte	0
 14932              	.LVUS44:
 14933 132f 00       		.uleb128 0
 14934 1330 00       		.uleb128 .LVU584
ARM GAS  C:\Users\DEVELO~1\AppData\Local\Temp\cc15HDCU.s 			page 263


 14935 1331 00       		.uleb128 .LVU584
 14936 1332 00       		.uleb128 .LVU587
 14937 1333 00       		.uleb128 .LVU587
 14938 1334 00       		.uleb128 .LVU609
 14939 1335 00       		.uleb128 .LVU609
 14940 1336 00       		.uleb128 0
 14941              	.LLST44:
 14942 1337 06       		.byte	0x6
 14943 1338 00000000 		.4byte	.LVL120
 14944 133c 04       		.byte	0x4
 14945 133d 00       		.uleb128 .LVL120-.LVL120
 14946 133e 3C       		.uleb128 .LVL124-.LVL120
 14947 133f 01       		.uleb128 0x1
 14948 1340 50       		.byte	0x50
 14949 1341 04       		.byte	0x4
 14950 1342 3C       		.uleb128 .LVL124-.LVL120
 14951 1343 48       		.uleb128 .LVL125-.LVL120
 14952 1344 04       		.uleb128 0x4
 14953 1345 A3       		.byte	0xa3
 14954 1346 01       		.uleb128 0x1
 14955 1347 50       		.byte	0x50
 14956 1348 9F       		.byte	0x9f
 14957 1349 04       		.byte	0x4
 14958 134a 48       		.uleb128 .LVL125-.LVL120
 14959 134b A601     		.uleb128 .LVL128-.LVL120
 14960 134d 01       		.uleb128 0x1
 14961 134e 50       		.byte	0x50
 14962 134f 04       		.byte	0x4
 14963 1350 A601     		.uleb128 .LVL128-.LVL120
 14964 1352 BC01     		.uleb128 .LFE153-.LVL120
 14965 1354 04       		.uleb128 0x4
 14966 1355 A3       		.byte	0xa3
 14967 1356 01       		.uleb128 0x1
 14968 1357 50       		.byte	0x50
 14969 1358 9F       		.byte	0x9f
 14970 1359 00       		.byte	0
 14971              	.LVUS45:
 14972 135a 00       		.uleb128 0
 14973 135b 00       		.uleb128 .LVU577
 14974 135c 00       		.uleb128 .LVU577
 14975 135d 00       		.uleb128 .LVU587
 14976 135e 00       		.uleb128 .LVU587
 14977 135f 00       		.uleb128 .LVU602
 14978 1360 00       		.uleb128 .LVU602
 14979 1361 00       		.uleb128 0
 14980              	.LLST45:
 14981 1362 06       		.byte	0x6
 14982 1363 00000000 		.4byte	.LVL120
 14983 1367 04       		.byte	0x4
 14984 1368 00       		.uleb128 .LVL120-.LVL120
 14985 1369 20       		.uleb128 .LVL123-.LVL120
 14986 136a 01       		.uleb128 0x1
 14987 136b 51       		.byte	0x51
 14988 136c 04       		.byte	0x4
 14989 136d 20       		.uleb128 .LVL123-.LVL120
 14990 136e 48       		.uleb128 .LVL125-.LVL120
 14991 136f 04       		.uleb128 0x4
ARM GAS  C:\Users\DEVELO~1\AppData\Local\Temp\cc15HDCU.s 			page 264


 14992 1370 A3       		.byte	0xa3
 14993 1371 01       		.uleb128 0x1
 14994 1372 51       		.byte	0x51
 14995 1373 9F       		.byte	0x9f
 14996 1374 04       		.byte	0x4
 14997 1375 48       		.uleb128 .LVL125-.LVL120
 14998 1376 8C01     		.uleb128 .LVL127-.LVL120
 14999 1378 01       		.uleb128 0x1
 15000 1379 51       		.byte	0x51
 15001 137a 04       		.byte	0x4
 15002 137b 8C01     		.uleb128 .LVL127-.LVL120
 15003 137d BC01     		.uleb128 .LFE153-.LVL120
 15004 137f 04       		.uleb128 0x4
 15005 1380 A3       		.byte	0xa3
 15006 1381 01       		.uleb128 0x1
 15007 1382 51       		.byte	0x51
 15008 1383 9F       		.byte	0x9f
 15009 1384 00       		.byte	0
 15010              	.LVUS46:
 15011 1385 02       		.uleb128 .LVU563
 15012 1386 00       		.uleb128 .LVU584
 15013 1387 00       		.uleb128 .LVU584
 15014 1388 00       		.uleb128 .LVU587
 15015 1389 00       		.uleb128 .LVU587
 15016 138a 00       		.uleb128 .LVU609
 15017 138b 00       		.uleb128 .LVU609
 15018 138c 00       		.uleb128 0
 15019              	.LLST46:
 15020 138d 06       		.byte	0x6
 15021 138e 00000000 		.4byte	.LVL120
 15022 1392 04       		.byte	0x4
 15023 1393 00       		.uleb128 .LVL120-.LVL120
 15024 1394 3C       		.uleb128 .LVL124-.LVL120
 15025 1395 01       		.uleb128 0x1
 15026 1396 50       		.byte	0x50
 15027 1397 04       		.byte	0x4
 15028 1398 3C       		.uleb128 .LVL124-.LVL120
 15029 1399 48       		.uleb128 .LVL125-.LVL120
 15030 139a 04       		.uleb128 0x4
 15031 139b A3       		.byte	0xa3
 15032 139c 01       		.uleb128 0x1
 15033 139d 50       		.byte	0x50
 15034 139e 9F       		.byte	0x9f
 15035 139f 04       		.byte	0x4
 15036 13a0 48       		.uleb128 .LVL125-.LVL120
 15037 13a1 A601     		.uleb128 .LVL128-.LVL120
 15038 13a3 01       		.uleb128 0x1
 15039 13a4 50       		.byte	0x50
 15040 13a5 04       		.byte	0x4
 15041 13a6 A601     		.uleb128 .LVL128-.LVL120
 15042 13a8 BC01     		.uleb128 .LFE153-.LVL120
 15043 13aa 04       		.uleb128 0x4
 15044 13ab A3       		.byte	0xa3
 15045 13ac 01       		.uleb128 0x1
 15046 13ad 50       		.byte	0x50
 15047 13ae 9F       		.byte	0x9f
 15048 13af 00       		.byte	0
ARM GAS  C:\Users\DEVELO~1\AppData\Local\Temp\cc15HDCU.s 			page 265


 15049              	.LVUS47:
 15050 13b0 00       		.uleb128 .LVU566
 15051 13b1 00       		.uleb128 .LVU576
 15052 13b2 00       		.uleb128 .LVU587
 15053 13b3 00       		.uleb128 .LVU601
 15054              	.LLST47:
 15055 13b4 06       		.byte	0x6
 15056 13b5 04000000 		.4byte	.LVL121
 15057 13b9 04       		.byte	0x4
 15058 13ba 00       		.uleb128 .LVL121-.LVL121
 15059 13bb 18       		.uleb128 .LVL122-.LVL121
 15060 13bc 06       		.uleb128 0x6
 15061 13bd 73       		.byte	0x73
 15062 13be 00       		.sleb128 0
 15063 13bf 08       		.byte	0x8
 15064 13c0 FF       		.byte	0xff
 15065 13c1 1A       		.byte	0x1a
 15066 13c2 9F       		.byte	0x9f
 15067 13c3 04       		.byte	0x4
 15068 13c4 44       		.uleb128 .LVL125-.LVL121
 15069 13c5 8401     		.uleb128 .LVL126-.LVL121
 15070 13c7 06       		.uleb128 0x6
 15071 13c8 73       		.byte	0x73
 15072 13c9 00       		.sleb128 0
 15073 13ca 08       		.byte	0x8
 15074 13cb FF       		.byte	0xff
 15075 13cc 1A       		.byte	0x1a
 15076 13cd 9F       		.byte	0x9f
 15077 13ce 00       		.byte	0
 15078              	.LVUS40:
 15079 13cf 00       		.uleb128 0
 15080 13d0 00       		.uleb128 .LVU535
 15081 13d1 00       		.uleb128 .LVU535
 15082 13d2 00       		.uleb128 .LVU536
 15083 13d3 00       		.uleb128 .LVU536
 15084 13d4 00       		.uleb128 .LVU560
 15085 13d5 00       		.uleb128 .LVU560
 15086 13d6 00       		.uleb128 0
 15087              	.LLST40:
 15088 13d7 06       		.byte	0x6
 15089 13d8 00000000 		.4byte	.LVL109
 15090 13dc 04       		.byte	0x4
 15091 13dd 00       		.uleb128 .LVL109-.LVL109
 15092 13de 30       		.uleb128 .LVL113-.LVL109
 15093 13df 01       		.uleb128 0x1
 15094 13e0 50       		.byte	0x50
 15095 13e1 04       		.byte	0x4
 15096 13e2 30       		.uleb128 .LVL113-.LVL109
 15097 13e3 32       		.uleb128 .LVL114-.LVL109
 15098 13e4 04       		.uleb128 0x4
 15099 13e5 A3       		.byte	0xa3
 15100 13e6 01       		.uleb128 0x1
 15101 13e7 50       		.byte	0x50
 15102 13e8 9F       		.byte	0x9f
 15103 13e9 04       		.byte	0x4
 15104 13ea 32       		.uleb128 .LVL114-.LVL109
 15105 13eb 8E01     		.uleb128 .LVL119-.LVL109
ARM GAS  C:\Users\DEVELO~1\AppData\Local\Temp\cc15HDCU.s 			page 266


 15106 13ed 01       		.uleb128 0x1
 15107 13ee 50       		.byte	0x50
 15108 13ef 04       		.byte	0x4
 15109 13f0 8E01     		.uleb128 .LVL119-.LVL109
 15110 13f2 9401     		.uleb128 .LFE152-.LVL109
 15111 13f4 04       		.uleb128 0x4
 15112 13f5 A3       		.byte	0xa3
 15113 13f6 01       		.uleb128 0x1
 15114 13f7 50       		.byte	0x50
 15115 13f8 9F       		.byte	0x9f
 15116 13f9 00       		.byte	0
 15117              	.LVUS41:
 15118 13fa 00       		.uleb128 0
 15119 13fb 00       		.uleb128 .LVU526
 15120 13fc 00       		.uleb128 .LVU526
 15121 13fd 00       		.uleb128 .LVU536
 15122 13fe 00       		.uleb128 .LVU536
 15123 13ff 00       		.uleb128 .LVU541
 15124 1400 00       		.uleb128 .LVU541
 15125 1401 00       		.uleb128 .LVU542
 15126 1402 00       		.uleb128 .LVU542
 15127 1403 00       		.uleb128 .LVU550
 15128 1404 00       		.uleb128 .LVU550
 15129 1405 00       		.uleb128 0
 15130              	.LLST41:
 15131 1406 06       		.byte	0x6
 15132 1407 00000000 		.4byte	.LVL109
 15133 140b 04       		.byte	0x4
 15134 140c 00       		.uleb128 .LVL109-.LVL109
 15135 140d 16       		.uleb128 .LVL111-.LVL109
 15136 140e 01       		.uleb128 0x1
 15137 140f 51       		.byte	0x51
 15138 1410 04       		.byte	0x4
 15139 1411 16       		.uleb128 .LVL111-.LVL109
 15140 1412 32       		.uleb128 .LVL114-.LVL109
 15141 1413 04       		.uleb128 0x4
 15142 1414 A3       		.byte	0xa3
 15143 1415 01       		.uleb128 0x1
 15144 1416 51       		.byte	0x51
 15145 1417 9F       		.byte	0x9f
 15146 1418 04       		.byte	0x4
 15147 1419 32       		.uleb128 .LVL114-.LVL109
 15148 141a 3E       		.uleb128 .LVL115-.LVL109
 15149 141b 01       		.uleb128 0x1
 15150 141c 51       		.byte	0x51
 15151 141d 04       		.byte	0x4
 15152 141e 3E       		.uleb128 .LVL115-.LVL109
 15153 141f 52       		.uleb128 .LVL116-.LVL109
 15154 1420 04       		.uleb128 0x4
 15155 1421 A3       		.byte	0xa3
 15156 1422 01       		.uleb128 0x1
 15157 1423 51       		.byte	0x51
 15158 1424 9F       		.byte	0x9f
 15159 1425 04       		.byte	0x4
 15160 1426 52       		.uleb128 .LVL116-.LVL109
 15161 1427 66       		.uleb128 .LVL117-.LVL109
 15162 1428 01       		.uleb128 0x1
ARM GAS  C:\Users\DEVELO~1\AppData\Local\Temp\cc15HDCU.s 			page 267


 15163 1429 51       		.byte	0x51
 15164 142a 04       		.byte	0x4
 15165 142b 66       		.uleb128 .LVL117-.LVL109
 15166 142c 9401     		.uleb128 .LFE152-.LVL109
 15167 142e 04       		.uleb128 0x4
 15168 142f A3       		.byte	0xa3
 15169 1430 01       		.uleb128 0x1
 15170 1431 51       		.byte	0x51
 15171 1432 9F       		.byte	0x9f
 15172 1433 00       		.byte	0
 15173              	.LVUS42:
 15174 1434 02       		.uleb128 .LVU515
 15175 1435 00       		.uleb128 .LVU535
 15176 1436 00       		.uleb128 .LVU535
 15177 1437 00       		.uleb128 .LVU536
 15178 1438 00       		.uleb128 .LVU536
 15179 1439 00       		.uleb128 .LVU560
 15180 143a 00       		.uleb128 .LVU560
 15181 143b 00       		.uleb128 0
 15182              	.LLST42:
 15183 143c 06       		.byte	0x6
 15184 143d 00000000 		.4byte	.LVL109
 15185 1441 04       		.byte	0x4
 15186 1442 00       		.uleb128 .LVL109-.LVL109
 15187 1443 30       		.uleb128 .LVL113-.LVL109
 15188 1444 01       		.uleb128 0x1
 15189 1445 50       		.byte	0x50
 15190 1446 04       		.byte	0x4
 15191 1447 30       		.uleb128 .LVL113-.LVL109
 15192 1448 32       		.uleb128 .LVL114-.LVL109
 15193 1449 04       		.uleb128 0x4
 15194 144a A3       		.byte	0xa3
 15195 144b 01       		.uleb128 0x1
 15196 144c 50       		.byte	0x50
 15197 144d 9F       		.byte	0x9f
 15198 144e 04       		.byte	0x4
 15199 144f 32       		.uleb128 .LVL114-.LVL109
 15200 1450 8E01     		.uleb128 .LVL119-.LVL109
 15201 1452 01       		.uleb128 0x1
 15202 1453 50       		.byte	0x50
 15203 1454 04       		.byte	0x4
 15204 1455 8E01     		.uleb128 .LVL119-.LVL109
 15205 1457 9401     		.uleb128 .LFE152-.LVL109
 15206 1459 04       		.uleb128 0x4
 15207 145a A3       		.byte	0xa3
 15208 145b 01       		.uleb128 0x1
 15209 145c 50       		.byte	0x50
 15210 145d 9F       		.byte	0x9f
 15211 145e 00       		.byte	0
 15212              	.LVUS43:
 15213 145f 00       		.uleb128 .LVU519
 15214 1460 00       		.uleb128 .LVU528
 15215 1461 00       		.uleb128 .LVU536
 15216 1462 00       		.uleb128 .LVU554
 15217              	.LLST43:
 15218 1463 06       		.byte	0x6
 15219 1464 06000000 		.4byte	.LVL110
ARM GAS  C:\Users\DEVELO~1\AppData\Local\Temp\cc15HDCU.s 			page 268


 15220 1468 04       		.byte	0x4
 15221 1469 00       		.uleb128 .LVL110-.LVL110
 15222 146a 14       		.uleb128 .LVL112-.LVL110
 15223 146b 01       		.uleb128 0x1
 15224 146c 53       		.byte	0x53
 15225 146d 04       		.byte	0x4
 15226 146e 2C       		.uleb128 .LVL114-.LVL110
 15227 146f 78       		.uleb128 .LVL118-.LVL110
 15228 1470 01       		.uleb128 0x1
 15229 1471 53       		.byte	0x53
 15230 1472 00       		.byte	0
 15231              	.LVUS36:
 15232 1473 00       		.uleb128 0
 15233 1474 00       		.uleb128 .LVU488
 15234 1475 00       		.uleb128 .LVU488
 15235 1476 00       		.uleb128 .LVU492
 15236 1477 00       		.uleb128 .LVU492
 15237 1478 00       		.uleb128 .LVU496
 15238 1479 00       		.uleb128 .LVU496
 15239 147a 00       		.uleb128 .LVU501
 15240 147b 00       		.uleb128 .LVU501
 15241 147c 00       		.uleb128 0
 15242              	.LLST36:
 15243 147d 06       		.byte	0x6
 15244 147e 00000000 		.4byte	.LVL99
 15245 1482 04       		.byte	0x4
 15246 1483 00       		.uleb128 .LVL99-.LVL99
 15247 1484 38       		.uleb128 .LVL103-.LVL99
 15248 1485 01       		.uleb128 0x1
 15249 1486 50       		.byte	0x50
 15250 1487 04       		.byte	0x4
 15251 1488 38       		.uleb128 .LVL103-.LVL99
 15252 1489 4C       		.uleb128 .LVL105-.LVL99
 15253 148a 04       		.uleb128 0x4
 15254 148b A3       		.byte	0xa3
 15255 148c 01       		.uleb128 0x1
 15256 148d 50       		.byte	0x50
 15257 148e 9F       		.byte	0x9f
 15258 148f 04       		.byte	0x4
 15259 1490 4C       		.uleb128 .LVL105-.LVL99
 15260 1491 58       		.uleb128 .LVL106-.LVL99
 15261 1492 01       		.uleb128 0x1
 15262 1493 50       		.byte	0x50
 15263 1494 04       		.byte	0x4
 15264 1495 58       		.uleb128 .LVL106-.LVL99
 15265 1496 66       		.uleb128 .LVL107-.LVL99
 15266 1497 04       		.uleb128 0x4
 15267 1498 74       		.byte	0x74
 15268 1499 8070     		.sleb128 -2048
 15269 149b 9F       		.byte	0x9f
 15270 149c 04       		.byte	0x4
 15271 149d 66       		.uleb128 .LVL107-.LVL99
 15272 149e 9001     		.uleb128 .LFE151-.LVL99
 15273 14a0 04       		.uleb128 0x4
 15274 14a1 A3       		.byte	0xa3
 15275 14a2 01       		.uleb128 0x1
 15276 14a3 50       		.byte	0x50
ARM GAS  C:\Users\DEVELO~1\AppData\Local\Temp\cc15HDCU.s 			page 269


 15277 14a4 9F       		.byte	0x9f
 15278 14a5 00       		.byte	0
 15279              	.LVUS37:
 15280 14a6 00       		.uleb128 0
 15281 14a7 00       		.uleb128 .LVU489
 15282 14a8 00       		.uleb128 .LVU489
 15283 14a9 00       		.uleb128 .LVU492
 15284 14aa 00       		.uleb128 .LVU492
 15285 14ab 00       		.uleb128 .LVU508
 15286 14ac 00       		.uleb128 .LVU508
 15287 14ad 00       		.uleb128 0
 15288              	.LLST37:
 15289 14ae 06       		.byte	0x6
 15290 14af 00000000 		.4byte	.LVL99
 15291 14b3 04       		.byte	0x4
 15292 14b4 00       		.uleb128 .LVL99-.LVL99
 15293 14b5 3A       		.uleb128 .LVL104-.LVL99
 15294 14b6 01       		.uleb128 0x1
 15295 14b7 51       		.byte	0x51
 15296 14b8 04       		.byte	0x4
 15297 14b9 3A       		.uleb128 .LVL104-.LVL99
 15298 14ba 4C       		.uleb128 .LVL105-.LVL99
 15299 14bb 04       		.uleb128 0x4
 15300 14bc A3       		.byte	0xa3
 15301 14bd 01       		.uleb128 0x1
 15302 14be 51       		.byte	0x51
 15303 14bf 9F       		.byte	0x9f
 15304 14c0 04       		.byte	0x4
 15305 14c1 4C       		.uleb128 .LVL105-.LVL99
 15306 14c2 76       		.uleb128 .LVL108-.LVL99
 15307 14c3 01       		.uleb128 0x1
 15308 14c4 51       		.byte	0x51
 15309 14c5 04       		.byte	0x4
 15310 14c6 76       		.uleb128 .LVL108-.LVL99
 15311 14c7 9001     		.uleb128 .LFE151-.LVL99
 15312 14c9 04       		.uleb128 0x4
 15313 14ca A3       		.byte	0xa3
 15314 14cb 01       		.uleb128 0x1
 15315 14cc 51       		.byte	0x51
 15316 14cd 9F       		.byte	0x9f
 15317 14ce 00       		.byte	0
 15318              	.LVUS38:
 15319 14cf 02       		.uleb128 .LVU467
 15320 14d0 00       		.uleb128 .LVU488
 15321 14d1 00       		.uleb128 .LVU488
 15322 14d2 00       		.uleb128 .LVU492
 15323 14d3 00       		.uleb128 .LVU492
 15324 14d4 00       		.uleb128 .LVU496
 15325 14d5 00       		.uleb128 .LVU496
 15326 14d6 00       		.uleb128 .LVU501
 15327 14d7 00       		.uleb128 .LVU501
 15328 14d8 00       		.uleb128 0
 15329              	.LLST38:
 15330 14d9 06       		.byte	0x6
 15331 14da 00000000 		.4byte	.LVL99
 15332 14de 04       		.byte	0x4
 15333 14df 00       		.uleb128 .LVL99-.LVL99
ARM GAS  C:\Users\DEVELO~1\AppData\Local\Temp\cc15HDCU.s 			page 270


 15334 14e0 38       		.uleb128 .LVL103-.LVL99
 15335 14e1 01       		.uleb128 0x1
 15336 14e2 50       		.byte	0x50
 15337 14e3 04       		.byte	0x4
 15338 14e4 38       		.uleb128 .LVL103-.LVL99
 15339 14e5 4C       		.uleb128 .LVL105-.LVL99
 15340 14e6 04       		.uleb128 0x4
 15341 14e7 A3       		.byte	0xa3
 15342 14e8 01       		.uleb128 0x1
 15343 14e9 50       		.byte	0x50
 15344 14ea 9F       		.byte	0x9f
 15345 14eb 04       		.byte	0x4
 15346 14ec 4C       		.uleb128 .LVL105-.LVL99
 15347 14ed 58       		.uleb128 .LVL106-.LVL99
 15348 14ee 01       		.uleb128 0x1
 15349 14ef 50       		.byte	0x50
 15350 14f0 04       		.byte	0x4
 15351 14f1 58       		.uleb128 .LVL106-.LVL99
 15352 14f2 66       		.uleb128 .LVL107-.LVL99
 15353 14f3 04       		.uleb128 0x4
 15354 14f4 74       		.byte	0x74
 15355 14f5 8070     		.sleb128 -2048
 15356 14f7 9F       		.byte	0x9f
 15357 14f8 04       		.byte	0x4
 15358 14f9 66       		.uleb128 .LVL107-.LVL99
 15359 14fa 9001     		.uleb128 .LFE151-.LVL99
 15360 14fc 04       		.uleb128 0x4
 15361 14fd A3       		.byte	0xa3
 15362 14fe 01       		.uleb128 0x1
 15363 14ff 50       		.byte	0x50
 15364 1500 9F       		.byte	0x9f
 15365 1501 00       		.byte	0
 15366              	.LVUS39:
 15367 1502 00       		.uleb128 .LVU471
 15368 1503 00       		.uleb128 .LVU478
 15369 1504 00       		.uleb128 .LVU478
 15370 1505 00       		.uleb128 .LVU480
 15371 1506 00       		.uleb128 .LVU492
 15372 1507 00       		.uleb128 0
 15373              	.LLST39:
 15374 1508 06       		.byte	0x6
 15375 1509 06000000 		.4byte	.LVL100
 15376 150d 04       		.byte	0x4
 15377 150e 00       		.uleb128 .LVL100-.LVL100
 15378 150f 14       		.uleb128 .LVL101-.LVL100
 15379 1510 01       		.uleb128 0x1
 15380 1511 52       		.byte	0x52
 15381 1512 04       		.byte	0x4
 15382 1513 14       		.uleb128 .LVL101-.LVL100
 15383 1514 1E       		.uleb128 .LVL102-.LVL100
 15384 1515 08       		.uleb128 0x8
 15385 1516 71       		.byte	0x71
 15386 1517 00       		.sleb128 0
 15387 1518 94       		.byte	0x94
 15388 1519 01       		.byte	0x1
 15389 151a 08       		.byte	0x8
 15390 151b FF       		.byte	0xff
ARM GAS  C:\Users\DEVELO~1\AppData\Local\Temp\cc15HDCU.s 			page 271


 15391 151c 1A       		.byte	0x1a
 15392 151d 9F       		.byte	0x9f
 15393 151e 04       		.byte	0x4
 15394 151f 46       		.uleb128 .LVL105-.LVL100
 15395 1520 8A01     		.uleb128 .LFE151-.LVL100
 15396 1522 01       		.uleb128 0x1
 15397 1523 52       		.byte	0x52
 15398 1524 00       		.byte	0
 15399              	.LVUS32:
 15400 1525 00       		.uleb128 0
 15401 1526 00       		.uleb128 .LVU459
 15402 1527 00       		.uleb128 .LVU459
 15403 1528 00       		.uleb128 0
 15404              	.LLST32:
 15405 1529 06       		.byte	0x6
 15406 152a 00000000 		.4byte	.LVL94
 15407 152e 04       		.byte	0x4
 15408 152f 00       		.uleb128 .LVL94-.LVL94
 15409 1530 08       		.uleb128 .LVL96-.LVL94
 15410 1531 01       		.uleb128 0x1
 15411 1532 50       		.byte	0x50
 15412 1533 04       		.byte	0x4
 15413 1534 08       		.uleb128 .LVL96-.LVL94
 15414 1535 16       		.uleb128 .LFE150-.LVL94
 15415 1536 04       		.uleb128 0x4
 15416 1537 A3       		.byte	0xa3
 15417 1538 01       		.uleb128 0x1
 15418 1539 50       		.byte	0x50
 15419 153a 9F       		.byte	0x9f
 15420 153b 00       		.byte	0
 15421              	.LVUS33:
 15422 153c 02       		.uleb128 .LVU454
 15423 153d 00       		.uleb128 .LVU459
 15424 153e 00       		.uleb128 .LVU459
 15425 153f 00       		.uleb128 0
 15426              	.LLST33:
 15427 1540 06       		.byte	0x6
 15428 1541 00000000 		.4byte	.LVL94
 15429 1545 04       		.byte	0x4
 15430 1546 00       		.uleb128 .LVL94-.LVL94
 15431 1547 08       		.uleb128 .LVL96-.LVL94
 15432 1548 01       		.uleb128 0x1
 15433 1549 50       		.byte	0x50
 15434 154a 04       		.byte	0x4
 15435 154b 08       		.uleb128 .LVL96-.LVL94
 15436 154c 16       		.uleb128 .LFE150-.LVL94
 15437 154d 04       		.uleb128 0x4
 15438 154e A3       		.byte	0xa3
 15439 154f 01       		.uleb128 0x1
 15440 1550 50       		.byte	0x50
 15441 1551 9F       		.byte	0x9f
 15442 1552 00       		.byte	0
 15443              	.LVUS34:
 15444 1553 00       		.uleb128 .LVU463
 15445 1554 00       		.uleb128 0
 15446              	.LLST34:
 15447 1555 08       		.byte	0x8
ARM GAS  C:\Users\DEVELO~1\AppData\Local\Temp\cc15HDCU.s 			page 272


 15448 1556 14000000 		.4byte	.LVL98
 15449 155a 02       		.uleb128 .LFE150-.LVL98
 15450 155b 01       		.uleb128 0x1
 15451 155c 50       		.byte	0x50
 15452 155d 00       		.byte	0
 15453              	.LVUS35:
 15454 155e 00       		.uleb128 .LVU457
 15455 155f 00       		.uleb128 .LVU459
 15456 1560 00       		.uleb128 .LVU459
 15457 1561 00       		.uleb128 .LVU462
 15458 1562 00       		.uleb128 .LVU462
 15459 1563 00       		.uleb128 0
 15460              	.LLST35:
 15461 1564 06       		.byte	0x6
 15462 1565 04000000 		.4byte	.LVL95
 15463 1569 04       		.byte	0x4
 15464 156a 00       		.uleb128 .LVL95-.LVL95
 15465 156b 04       		.uleb128 .LVL96-.LVL95
 15466 156c 05       		.uleb128 0x5
 15467 156d 73       		.byte	0x73
 15468 156e 00       		.sleb128 0
 15469 156f 36       		.byte	0x36
 15470 1570 1A       		.byte	0x1a
 15471 1571 9F       		.byte	0x9f
 15472 1572 04       		.byte	0x4
 15473 1573 04       		.uleb128 .LVL96-.LVL95
 15474 1574 0E       		.uleb128 .LVL97-.LVL95
 15475 1575 01       		.uleb128 0x1
 15476 1576 50       		.byte	0x50
 15477 1577 04       		.byte	0x4
 15478 1578 0E       		.uleb128 .LVL97-.LVL95
 15479 1579 12       		.uleb128 .LFE150-.LVL95
 15480 157a 05       		.uleb128 0x5
 15481 157b 73       		.byte	0x73
 15482 157c 00       		.sleb128 0
 15483 157d 36       		.byte	0x36
 15484 157e 1A       		.byte	0x1a
 15485 157f 9F       		.byte	0x9f
 15486 1580 00       		.byte	0
 15487              	.LVUS15:
 15488 1581 00       		.uleb128 0
 15489 1582 00       		.uleb128 .LVU267
 15490 1583 00       		.uleb128 .LVU267
 15491 1584 00       		.uleb128 .LVU268
 15492 1585 00       		.uleb128 .LVU268
 15493 1586 00       		.uleb128 .LVU284
 15494 1587 00       		.uleb128 .LVU284
 15495 1588 00       		.uleb128 0
 15496              	.LLST15:
 15497 1589 06       		.byte	0x6
 15498 158a 00000000 		.4byte	.LVL57
 15499 158e 04       		.byte	0x4
 15500 158f 00       		.uleb128 .LVL57-.LVL57
 15501 1590 1E       		.uleb128 .LVL58-.LVL57
 15502 1591 01       		.uleb128 0x1
 15503 1592 50       		.byte	0x50
 15504 1593 04       		.byte	0x4
ARM GAS  C:\Users\DEVELO~1\AppData\Local\Temp\cc15HDCU.s 			page 273


 15505 1594 1E       		.uleb128 .LVL58-.LVL57
 15506 1595 22       		.uleb128 .LVL59-.LVL57
 15507 1596 04       		.uleb128 0x4
 15508 1597 A3       		.byte	0xa3
 15509 1598 01       		.uleb128 0x1
 15510 1599 50       		.byte	0x50
 15511 159a 9F       		.byte	0x9f
 15512 159b 04       		.byte	0x4
 15513 159c 22       		.uleb128 .LVL59-.LVL57
 15514 159d 46       		.uleb128 .LVL60-.LVL57
 15515 159e 01       		.uleb128 0x1
 15516 159f 50       		.byte	0x50
 15517 15a0 04       		.byte	0x4
 15518 15a1 46       		.uleb128 .LVL60-.LVL57
 15519 15a2 4A       		.uleb128 .LFE148-.LVL57
 15520 15a3 04       		.uleb128 0x4
 15521 15a4 A3       		.byte	0xa3
 15522 15a5 01       		.uleb128 0x1
 15523 15a6 50       		.byte	0x50
 15524 15a7 9F       		.byte	0x9f
 15525 15a8 00       		.byte	0
 15526              	.LVUS13:
 15527 15a9 00       		.uleb128 0
 15528 15aa 00       		.uleb128 .LVU234
 15529 15ab 00       		.uleb128 .LVU234
 15530 15ac 00       		.uleb128 .LVU235
 15531 15ad 00       		.uleb128 .LVU235
 15532 15ae 00       		.uleb128 .LVU252
 15533 15af 00       		.uleb128 .LVU252
 15534 15b0 00       		.uleb128 0
 15535              	.LLST13:
 15536 15b1 06       		.byte	0x6
 15537 15b2 00000000 		.4byte	.LVL51
 15538 15b6 04       		.byte	0x4
 15539 15b7 00       		.uleb128 .LVL51-.LVL51
 15540 15b8 1E       		.uleb128 .LVL53-.LVL51
 15541 15b9 01       		.uleb128 0x1
 15542 15ba 50       		.byte	0x50
 15543 15bb 04       		.byte	0x4
 15544 15bc 1E       		.uleb128 .LVL53-.LVL51
 15545 15bd 22       		.uleb128 .LVL54-.LVL51
 15546 15be 04       		.uleb128 0x4
 15547 15bf A3       		.byte	0xa3
 15548 15c0 01       		.uleb128 0x1
 15549 15c1 50       		.byte	0x50
 15550 15c2 9F       		.byte	0x9f
 15551 15c3 04       		.byte	0x4
 15552 15c4 22       		.uleb128 .LVL54-.LVL51
 15553 15c5 4A       		.uleb128 .LVL56-.LVL51
 15554 15c6 01       		.uleb128 0x1
 15555 15c7 50       		.byte	0x50
 15556 15c8 04       		.byte	0x4
 15557 15c9 4A       		.uleb128 .LVL56-.LVL51
 15558 15ca 4E       		.uleb128 .LFE147-.LVL51
 15559 15cb 04       		.uleb128 0x4
 15560 15cc A3       		.byte	0xa3
 15561 15cd 01       		.uleb128 0x1
ARM GAS  C:\Users\DEVELO~1\AppData\Local\Temp\cc15HDCU.s 			page 274


 15562 15ce 50       		.byte	0x50
 15563 15cf 9F       		.byte	0x9f
 15564 15d0 00       		.byte	0
 15565              	.LVUS14:
 15566 15d1 00       		.uleb128 0
 15567 15d2 00       		.uleb128 .LVU233
 15568 15d3 00       		.uleb128 .LVU233
 15569 15d4 00       		.uleb128 .LVU235
 15570 15d5 00       		.uleb128 .LVU235
 15571 15d6 00       		.uleb128 .LVU237
 15572 15d7 00       		.uleb128 .LVU237
 15573 15d8 00       		.uleb128 0
 15574              	.LLST14:
 15575 15d9 06       		.byte	0x6
 15576 15da 00000000 		.4byte	.LVL51
 15577 15de 04       		.byte	0x4
 15578 15df 00       		.uleb128 .LVL51-.LVL51
 15579 15e0 1C       		.uleb128 .LVL52-.LVL51
 15580 15e1 01       		.uleb128 0x1
 15581 15e2 51       		.byte	0x51
 15582 15e3 04       		.byte	0x4
 15583 15e4 1C       		.uleb128 .LVL52-.LVL51
 15584 15e5 22       		.uleb128 .LVL54-.LVL51
 15585 15e6 04       		.uleb128 0x4
 15586 15e7 A3       		.byte	0xa3
 15587 15e8 01       		.uleb128 0x1
 15588 15e9 51       		.byte	0x51
 15589 15ea 9F       		.byte	0x9f
 15590 15eb 04       		.byte	0x4
 15591 15ec 22       		.uleb128 .LVL54-.LVL51
 15592 15ed 24       		.uleb128 .LVL55-.LVL51
 15593 15ee 01       		.uleb128 0x1
 15594 15ef 51       		.byte	0x51
 15595 15f0 04       		.byte	0x4
 15596 15f1 24       		.uleb128 .LVL55-.LVL51
 15597 15f2 4E       		.uleb128 .LFE147-.LVL51
 15598 15f3 04       		.uleb128 0x4
 15599 15f4 A3       		.byte	0xa3
 15600 15f5 01       		.uleb128 0x1
 15601 15f6 51       		.byte	0x51
 15602 15f7 9F       		.byte	0x9f
 15603 15f8 00       		.byte	0
 15604              	.LVUS16:
 15605 15f9 00       		.uleb128 0
 15606 15fa 00       		.uleb128 .LVU328
 15607 15fb 00       		.uleb128 .LVU328
 15608 15fc 00       		.uleb128 .LVU393
 15609 15fd 00       		.uleb128 .LVU393
 15610 15fe 00       		.uleb128 .LVU394
 15611 15ff 00       		.uleb128 .LVU394
 15612 1600 00       		.uleb128 .LVU418
 15613 1601 00       		.uleb128 .LVU418
 15614 1602 00       		.uleb128 0
 15615              	.LLST16:
 15616 1603 06       		.byte	0x6
 15617 1604 00000000 		.4byte	.LVL61
 15618 1608 04       		.byte	0x4
ARM GAS  C:\Users\DEVELO~1\AppData\Local\Temp\cc15HDCU.s 			page 275


 15619 1609 00       		.uleb128 .LVL61-.LVL61
 15620 160a 72       		.uleb128 .LVL70-.LVL61
 15621 160b 01       		.uleb128 0x1
 15622 160c 50       		.byte	0x50
 15623 160d 04       		.byte	0x4
 15624 160e 72       		.uleb128 .LVL70-.LVL61
 15625 160f 9A02     		.uleb128 .LVL80-.LVL61
 15626 1611 01       		.uleb128 0x1
 15627 1612 54       		.byte	0x54
 15628 1613 04       		.byte	0x4
 15629 1614 9A02     		.uleb128 .LVL80-.LVL61
 15630 1616 9E02     		.uleb128 .LVL81-.LVL61
 15631 1618 04       		.uleb128 0x4
 15632 1619 A3       		.byte	0xa3
 15633 161a 01       		.uleb128 0x1
 15634 161b 50       		.byte	0x50
 15635 161c 9F       		.byte	0x9f
 15636 161d 04       		.byte	0x4
 15637 161e 9E02     		.uleb128 .LVL81-.LVL61
 15638 1620 D802     		.uleb128 .LVL87-.LVL61
 15639 1622 01       		.uleb128 0x1
 15640 1623 54       		.byte	0x54
 15641 1624 04       		.byte	0x4
 15642 1625 D802     		.uleb128 .LVL87-.LVL61
 15643 1627 9403     		.uleb128 .LFE146-.LVL61
 15644 1629 01       		.uleb128 0x1
 15645 162a 50       		.byte	0x50
 15646 162b 00       		.byte	0
 15647              	.LVUS17:
 15648 162c 00       		.uleb128 .LVU289
 15649 162d 00       		.uleb128 .LVU290
 15650 162e 00       		.uleb128 .LVU290
 15651 162f 00       		.uleb128 .LVU393
 15652 1630 00       		.uleb128 .LVU394
 15653 1631 00       		.uleb128 0
 15654              	.LLST17:
 15655 1632 06       		.byte	0x6
 15656 1633 14000000 		.4byte	.LVL62
 15657 1637 04       		.byte	0x4
 15658 1638 00       		.uleb128 .LVL62-.LVL62
 15659 1639 04       		.uleb128 .LVL63-.LVL62
 15660 163a 05       		.uleb128 0x5
 15661 163b 55       		.byte	0x55
 15662 163c 93       		.byte	0x93
 15663 163d 01       		.uleb128 0x1
 15664 163e 93       		.byte	0x93
 15665 163f 0C       		.uleb128 0xc
 15666 1640 04       		.byte	0x4
 15667 1641 04       		.uleb128 .LVL63-.LVL62
 15668 1642 8602     		.uleb128 .LVL80-.LVL62
 15669 1644 0A       		.uleb128 0xa
 15670 1645 55       		.byte	0x55
 15671 1646 93       		.byte	0x93
 15672 1647 01       		.uleb128 0x1
 15673 1648 93       		.byte	0x93
 15674 1649 09       		.uleb128 0x9
 15675 164a 56       		.byte	0x56
ARM GAS  C:\Users\DEVELO~1\AppData\Local\Temp\cc15HDCU.s 			page 276


 15676 164b 93       		.byte	0x93
 15677 164c 01       		.uleb128 0x1
 15678 164d 93       		.byte	0x93
 15679 164e 02       		.uleb128 0x2
 15680 164f 04       		.byte	0x4
 15681 1650 8A02     		.uleb128 .LVL81-.LVL62
 15682 1652 8003     		.uleb128 .LFE146-.LVL62
 15683 1654 0A       		.uleb128 0xa
 15684 1655 55       		.byte	0x55
 15685 1656 93       		.byte	0x93
 15686 1657 01       		.uleb128 0x1
 15687 1658 93       		.byte	0x93
 15688 1659 09       		.uleb128 0x9
 15689 165a 56       		.byte	0x56
 15690 165b 93       		.byte	0x93
 15691 165c 01       		.uleb128 0x1
 15692 165d 93       		.byte	0x93
 15693 165e 02       		.uleb128 0x2
 15694 165f 00       		.byte	0
 15695              	.LVUS18:
 15696 1660 01       		.uleb128 .LVU291
 15697 1661 00       		.uleb128 .LVU329
 15698 1662 00       		.uleb128 .LVU329
 15699 1663 00       		.uleb128 .LVU339
 15700 1664 00       		.uleb128 .LVU339
 15701 1665 00       		.uleb128 .LVU418
 15702 1666 00       		.uleb128 .LVU418
 15703 1667 00       		.uleb128 0
 15704              	.LLST18:
 15705 1668 06       		.byte	0x6
 15706 1669 18000000 		.4byte	.LVL63
 15707 166d 04       		.byte	0x4
 15708 166e 00       		.uleb128 .LVL63-.LVL63
 15709 166f 60       		.uleb128 .LVL72-.LVL63
 15710 1670 02       		.uleb128 0x2
 15711 1671 30       		.byte	0x30
 15712 1672 9F       		.byte	0x9f
 15713 1673 04       		.byte	0x4
 15714 1674 60       		.uleb128 .LVL72-.LVL63
 15715 1675 8001     		.uleb128 .LVL74-.LVL63
 15716 1677 07       		.uleb128 0x7
 15717 1678 71       		.byte	0x71
 15718 1679 00       		.sleb128 0
 15719 167a 48       		.byte	0x48
 15720 167b 24       		.byte	0x24
 15721 167c 30       		.byte	0x30
 15722 167d 2E       		.byte	0x2e
 15723 167e 9F       		.byte	0x9f
 15724 167f 04       		.byte	0x4
 15725 1680 8001     		.uleb128 .LVL74-.LVL63
 15726 1682 C002     		.uleb128 .LVL87-.LVL63
 15727 1684 01       		.uleb128 0x1
 15728 1685 5C       		.byte	0x5c
 15729 1686 04       		.byte	0x4
 15730 1687 C002     		.uleb128 .LVL87-.LVL63
 15731 1689 FC02     		.uleb128 .LFE146-.LVL63
 15732 168b 02       		.uleb128 0x2
ARM GAS  C:\Users\DEVELO~1\AppData\Local\Temp\cc15HDCU.s 			page 277


 15733 168c 30       		.byte	0x30
 15734 168d 9F       		.byte	0x9f
 15735 168e 00       		.byte	0
 15736              	.LVUS19:
 15737 168f 02       		.uleb128 .LVU292
 15738 1690 00       		.uleb128 .LVU328
 15739 1691 00       		.uleb128 .LVU328
 15740 1692 00       		.uleb128 .LVU393
 15741 1693 00       		.uleb128 .LVU393
 15742 1694 00       		.uleb128 .LVU394
 15743 1695 00       		.uleb128 .LVU394
 15744 1696 00       		.uleb128 .LVU418
 15745 1697 00       		.uleb128 .LVU418
 15746 1698 00       		.uleb128 0
 15747              	.LLST19:
 15748 1699 06       		.byte	0x6
 15749 169a 18000000 		.4byte	.LVL63
 15750 169e 04       		.byte	0x4
 15751 169f 00       		.uleb128 .LVL63-.LVL63
 15752 16a0 5A       		.uleb128 .LVL70-.LVL63
 15753 16a1 01       		.uleb128 0x1
 15754 16a2 50       		.byte	0x50
 15755 16a3 04       		.byte	0x4
 15756 16a4 5A       		.uleb128 .LVL70-.LVL63
 15757 16a5 8202     		.uleb128 .LVL80-.LVL63
 15758 16a7 01       		.uleb128 0x1
 15759 16a8 54       		.byte	0x54
 15760 16a9 04       		.byte	0x4
 15761 16aa 8202     		.uleb128 .LVL80-.LVL63
 15762 16ac 8602     		.uleb128 .LVL81-.LVL63
 15763 16ae 04       		.uleb128 0x4
 15764 16af A3       		.byte	0xa3
 15765 16b0 01       		.uleb128 0x1
 15766 16b1 50       		.byte	0x50
 15767 16b2 9F       		.byte	0x9f
 15768 16b3 04       		.byte	0x4
 15769 16b4 8602     		.uleb128 .LVL81-.LVL63
 15770 16b6 C002     		.uleb128 .LVL87-.LVL63
 15771 16b8 01       		.uleb128 0x1
 15772 16b9 54       		.byte	0x54
 15773 16ba 04       		.byte	0x4
 15774 16bb C002     		.uleb128 .LVL87-.LVL63
 15775 16bd FC02     		.uleb128 .LFE146-.LVL63
 15776 16bf 01       		.uleb128 0x1
 15777 16c0 50       		.byte	0x50
 15778 16c1 00       		.byte	0
 15779              	.LVUS20:
 15780 16c2 04       		.uleb128 .LVU294
 15781 16c3 00       		.uleb128 .LVU296
 15782 16c4 00       		.uleb128 .LVU296
 15783 16c5 00       		.uleb128 .LVU299
 15784 16c6 00       		.uleb128 .LVU299
 15785 16c7 01       		.uleb128 .LVU303
 15786 16c8 01       		.uleb128 .LVU303
 15787 16c9 00       		.uleb128 .LVU308
 15788 16ca 04       		.uleb128 .LVU343
 15789 16cb 00       		.uleb128 .LVU348
ARM GAS  C:\Users\DEVELO~1\AppData\Local\Temp\cc15HDCU.s 			page 278


 15790 16cc 00       		.uleb128 .LVU348
 15791 16cd 00       		.uleb128 .LVU351
 15792 16ce 00       		.uleb128 .LVU351
 15793 16cf 01       		.uleb128 .LVU355
 15794 16d0 01       		.uleb128 .LVU355
 15795 16d1 00       		.uleb128 .LVU366
 15796 16d2 00       		.uleb128 .LVU394
 15797 16d3 00       		.uleb128 .LVU395
 15798 16d4 00       		.uleb128 .LVU400
 15799 16d5 00       		.uleb128 .LVU403
 15800 16d6 00       		.uleb128 .LVU403
 15801 16d7 01       		.uleb128 .LVU407
 15802 16d8 01       		.uleb128 .LVU407
 15803 16d9 00       		.uleb128 .LVU418
 15804 16da 00       		.uleb128 .LVU418
 15805 16db 00       		.uleb128 .LVU420
 15806              	.LLST20:
 15807 16dc 06       		.byte	0x6
 15808 16dd 18000000 		.4byte	.LVL63
 15809 16e1 04       		.byte	0x4
 15810 16e2 00       		.uleb128 .LVL63-.LVL63
 15811 16e3 02       		.uleb128 .LVL64-.LVL63
 15812 16e4 02       		.uleb128 0x2
 15813 16e5 30       		.byte	0x30
 15814 16e6 9F       		.byte	0x9f
 15815 16e7 04       		.byte	0x4
 15816 16e8 02       		.uleb128 .LVL64-.LVL63
 15817 16e9 08       		.uleb128 .LVL65-.LVL63
 15818 16ea 01       		.uleb128 0x1
 15819 16eb 53       		.byte	0x53
 15820 16ec 04       		.byte	0x4
 15821 16ed 08       		.uleb128 .LVL65-.LVL63
 15822 16ee 10       		.uleb128 .LVL66-.LVL63
 15823 16ef 03       		.uleb128 0x3
 15824 16f0 73       		.byte	0x73
 15825 16f1 7F       		.sleb128 -1
 15826 16f2 9F       		.byte	0x9f
 15827 16f3 04       		.byte	0x4
 15828 16f4 10       		.uleb128 .LVL66-.LVL63
 15829 16f5 1C       		.uleb128 .LVL67-.LVL63
 15830 16f6 01       		.uleb128 0x1
 15831 16f7 53       		.byte	0x53
 15832 16f8 04       		.byte	0x4
 15833 16f9 8001     		.uleb128 .LVL74-.LVL63
 15834 16fb 9601     		.uleb128 .LVL75-.LVL63
 15835 16fd 02       		.uleb128 0x2
 15836 16fe 30       		.byte	0x30
 15837 16ff 9F       		.byte	0x9f
 15838 1700 04       		.byte	0x4
 15839 1701 9601     		.uleb128 .LVL75-.LVL63
 15840 1703 9A01     		.uleb128 .LVL76-.LVL63
 15841 1705 01       		.uleb128 0x1
 15842 1706 52       		.byte	0x52
 15843 1707 04       		.byte	0x4
 15844 1708 9A01     		.uleb128 .LVL76-.LVL63
 15845 170a A001     		.uleb128 .LVL77-.LVL63
 15846 170c 03       		.uleb128 0x3
ARM GAS  C:\Users\DEVELO~1\AppData\Local\Temp\cc15HDCU.s 			page 279


 15847 170d 72       		.byte	0x72
 15848 170e 7F       		.sleb128 -1
 15849 170f 9F       		.byte	0x9f
 15850 1710 04       		.byte	0x4
 15851 1711 A001     		.uleb128 .LVL77-.LVL63
 15852 1713 BA01     		.uleb128 .LVL79-.LVL63
 15853 1715 01       		.uleb128 0x1
 15854 1716 52       		.byte	0x52
 15855 1717 04       		.byte	0x4
 15856 1718 8602     		.uleb128 .LVL81-.LVL63
 15857 171a 8802     		.uleb128 .LVL82-.LVL63
 15858 171c 01       		.uleb128 0x1
 15859 171d 52       		.byte	0x52
 15860 171e 04       		.byte	0x4
 15861 171f 9C02     		.uleb128 .LVL83-.LVL63
 15862 1721 A002     		.uleb128 .LVL84-.LVL63
 15863 1723 01       		.uleb128 0x1
 15864 1724 52       		.byte	0x52
 15865 1725 04       		.byte	0x4
 15866 1726 A002     		.uleb128 .LVL84-.LVL63
 15867 1728 A602     		.uleb128 .LVL85-.LVL63
 15868 172a 03       		.uleb128 0x3
 15869 172b 72       		.byte	0x72
 15870 172c 7F       		.sleb128 -1
 15871 172d 9F       		.byte	0x9f
 15872 172e 04       		.byte	0x4
 15873 172f A602     		.uleb128 .LVL85-.LVL63
 15874 1731 C002     		.uleb128 .LVL87-.LVL63
 15875 1733 01       		.uleb128 0x1
 15876 1734 52       		.byte	0x52
 15877 1735 04       		.byte	0x4
 15878 1736 C002     		.uleb128 .LVL87-.LVL63
 15879 1738 C202     		.uleb128 .LVL88-.LVL63
 15880 173a 01       		.uleb128 0x1
 15881 173b 53       		.byte	0x53
 15882 173c 00       		.byte	0
 15883              	.LVUS21:
 15884 173d 01       		.uleb128 .LVU320
 15885 173e 01       		.uleb128 .LVU325
 15886              	.LLST21:
 15887 173f 08       		.byte	0x8
 15888 1740 66000000 		.4byte	.LVL68
 15889 1744 08       		.uleb128 .LVL69-.LVL68
 15890 1745 02       		.uleb128 0x2
 15891 1746 33       		.byte	0x33
 15892 1747 9F       		.byte	0x9f
 15893 1748 00       		.byte	0
 15894              	.LVUS22:
 15895 1749 01       		.uleb128 .LVU320
 15896 174a 01       		.uleb128 .LVU325
 15897              	.LLST22:
 15898 174b 08       		.byte	0x8
 15899 174c 66000000 		.4byte	.LVL68
 15900 1750 08       		.uleb128 .LVL69-.LVL68
 15901 1751 01       		.uleb128 0x1
 15902 1752 50       		.byte	0x50
 15903 1753 00       		.byte	0
ARM GAS  C:\Users\DEVELO~1\AppData\Local\Temp\cc15HDCU.s 			page 280


 15904              	.LVUS23:
 15905 1754 03       		.uleb128 .LVU322
 15906 1755 01       		.uleb128 .LVU325
 15907              	.LLST23:
 15908 1756 08       		.byte	0x8
 15909 1757 66000000 		.4byte	.LVL68
 15910 175b 08       		.uleb128 .LVL69-.LVL68
 15911 175c 01       		.uleb128 0x1
 15912 175d 50       		.byte	0x50
 15913 175e 00       		.byte	0
 15914              	.LVUS24:
 15915 175f 01       		.uleb128 .LVU429
 15916 1760 00       		.uleb128 .LVU435
 15917              	.LLST24:
 15918 1761 08       		.byte	0x8
 15919 1762 7A010000 		.4byte	.LVL89
 15920 1766 06       		.uleb128 .LVL90-.LVL89
 15921 1767 02       		.uleb128 0x2
 15922 1768 30       		.byte	0x30
 15923 1769 9F       		.byte	0x9f
 15924 176a 00       		.byte	0
 15925              	.LVUS25:
 15926 176b 01       		.uleb128 .LVU429
 15927 176c 00       		.uleb128 .LVU435
 15928              	.LLST25:
 15929 176d 08       		.byte	0x8
 15930 176e 7A010000 		.4byte	.LVL89
 15931 1772 06       		.uleb128 .LVL90-.LVL89
 15932 1773 01       		.uleb128 0x1
 15933 1774 50       		.byte	0x50
 15934 1775 00       		.byte	0
 15935              	.LVUS26:
 15936 1776 03       		.uleb128 .LVU431
 15937 1777 00       		.uleb128 .LVU435
 15938              	.LLST26:
 15939 1778 08       		.byte	0x8
 15940 1779 7A010000 		.4byte	.LVL89
 15941 177d 06       		.uleb128 .LVL90-.LVL89
 15942 177e 01       		.uleb128 0x1
 15943 177f 50       		.byte	0x50
 15944 1780 00       		.byte	0
 15945              	.LVUS27:
 15946 1781 02       		.uleb128 .LVU437
 15947 1782 00       		.uleb128 0
 15948              	.LLST27:
 15949 1783 08       		.byte	0x8
 15950 1784 80010000 		.4byte	.LVL90
 15951 1788 14       		.uleb128 .LFE146-.LVL90
 15952 1789 01       		.uleb128 0x1
 15953 178a 50       		.byte	0x50
 15954 178b 00       		.byte	0
 15955              	.LVUS28:
 15956 178c 04       		.uleb128 .LVU439
 15957 178d 00       		.uleb128 0
 15958              	.LLST28:
 15959 178e 08       		.byte	0x8
 15960 178f 80010000 		.4byte	.LVL90
ARM GAS  C:\Users\DEVELO~1\AppData\Local\Temp\cc15HDCU.s 			page 281


 15961 1793 14       		.uleb128 .LFE146-.LVL90
 15962 1794 01       		.uleb128 0x1
 15963 1795 50       		.byte	0x50
 15964 1796 00       		.byte	0
 15965              	.LVUS8:
 15966 1797 00       		.uleb128 0
 15967 1798 00       		.uleb128 .LVU185
 15968 1799 00       		.uleb128 .LVU185
 15969 179a 00       		.uleb128 .LVU202
 15970 179b 00       		.uleb128 .LVU202
 15971 179c 00       		.uleb128 .LVU206
 15972 179d 00       		.uleb128 .LVU206
 15973 179e 00       		.uleb128 0
 15974              	.LLST8:
 15975 179f 06       		.byte	0x6
 15976 17a0 00000000 		.4byte	.LVL37
 15977 17a4 04       		.byte	0x4
 15978 17a5 00       		.uleb128 .LVL37-.LVL37
 15979 17a6 1E       		.uleb128 .LVL38-.LVL37
 15980 17a7 01       		.uleb128 0x1
 15981 17a8 50       		.byte	0x50
 15982 17a9 04       		.byte	0x4
 15983 17aa 1E       		.uleb128 .LVL38-.LVL37
 15984 17ab 40       		.uleb128 .LVL45-.LVL37
 15985 17ac 01       		.uleb128 0x1
 15986 17ad 55       		.byte	0x55
 15987 17ae 04       		.byte	0x4
 15988 17af 40       		.uleb128 .LVL45-.LVL37
 15989 17b0 4C       		.uleb128 .LVL46-.LVL37
 15990 17b1 01       		.uleb128 0x1
 15991 17b2 50       		.byte	0x50
 15992 17b3 04       		.byte	0x4
 15993 17b4 4C       		.uleb128 .LVL46-.LVL37
 15994 17b5 6A       		.uleb128 .LFE145-.LVL37
 15995 17b6 01       		.uleb128 0x1
 15996 17b7 55       		.byte	0x55
 15997 17b8 00       		.byte	0
 15998              	.LVUS9:
 15999 17b9 00       		.uleb128 0
 16000 17ba 00       		.uleb128 .LVU185
 16001 17bb 00       		.uleb128 .LVU185
 16002 17bc 00       		.uleb128 .LVU202
 16003 17bd 00       		.uleb128 .LVU202
 16004 17be 00       		.uleb128 .LVU206
 16005 17bf 00       		.uleb128 .LVU206
 16006 17c0 00       		.uleb128 0
 16007              	.LLST9:
 16008 17c1 06       		.byte	0x6
 16009 17c2 00000000 		.4byte	.LVL37
 16010 17c6 04       		.byte	0x4
 16011 17c7 00       		.uleb128 .LVL37-.LVL37
 16012 17c8 1E       		.uleb128 .LVL38-.LVL37
 16013 17c9 01       		.uleb128 0x1
 16014 17ca 51       		.byte	0x51
 16015 17cb 04       		.byte	0x4
 16016 17cc 1E       		.uleb128 .LVL38-.LVL37
 16017 17cd 40       		.uleb128 .LVL45-.LVL37
ARM GAS  C:\Users\DEVELO~1\AppData\Local\Temp\cc15HDCU.s 			page 282


 16018 17ce 04       		.uleb128 0x4
 16019 17cf A3       		.byte	0xa3
 16020 17d0 01       		.uleb128 0x1
 16021 17d1 51       		.byte	0x51
 16022 17d2 9F       		.byte	0x9f
 16023 17d3 04       		.byte	0x4
 16024 17d4 40       		.uleb128 .LVL45-.LVL37
 16025 17d5 4C       		.uleb128 .LVL46-.LVL37
 16026 17d6 01       		.uleb128 0x1
 16027 17d7 51       		.byte	0x51
 16028 17d8 04       		.byte	0x4
 16029 17d9 4C       		.uleb128 .LVL46-.LVL37
 16030 17da 6A       		.uleb128 .LFE145-.LVL37
 16031 17db 04       		.uleb128 0x4
 16032 17dc A3       		.byte	0xa3
 16033 17dd 01       		.uleb128 0x1
 16034 17de 51       		.byte	0x51
 16035 17df 9F       		.byte	0x9f
 16036 17e0 00       		.byte	0
 16037              	.LVUS10:
 16038 17e1 02       		.uleb128 .LVU171
 16039 17e2 00       		.uleb128 .LVU185
 16040 17e3 00       		.uleb128 .LVU185
 16041 17e4 00       		.uleb128 .LVU189
 16042 17e5 00       		.uleb128 .LVU189
 16043 17e6 01       		.uleb128 .LVU191
 16044 17e7 01       		.uleb128 .LVU191
 16045 17e8 00       		.uleb128 .LVU199
 16046 17e9 00       		.uleb128 .LVU202
 16047 17ea 00       		.uleb128 .LVU206
 16048 17eb 00       		.uleb128 .LVU206
 16049 17ec 00       		.uleb128 .LVU210
 16050 17ed 00       		.uleb128 .LVU210
 16051 17ee 01       		.uleb128 .LVU212
 16052 17ef 01       		.uleb128 .LVU212
 16053 17f0 00       		.uleb128 0
 16054              	.LLST10:
 16055 17f1 06       		.byte	0x6
 16056 17f2 00000000 		.4byte	.LVL37
 16057 17f6 04       		.byte	0x4
 16058 17f7 00       		.uleb128 .LVL37-.LVL37
 16059 17f8 1E       		.uleb128 .LVL38-.LVL37
 16060 17f9 02       		.uleb128 0x2
 16061 17fa 30       		.byte	0x30
 16062 17fb 9F       		.byte	0x9f
 16063 17fc 04       		.byte	0x4
 16064 17fd 1E       		.uleb128 .LVL38-.LVL37
 16065 17fe 26       		.uleb128 .LVL40-.LVL37
 16066 17ff 01       		.uleb128 0x1
 16067 1800 54       		.byte	0x54
 16068 1801 04       		.byte	0x4
 16069 1802 26       		.uleb128 .LVL40-.LVL37
 16070 1803 2A       		.uleb128 .LVL41-.LVL37
 16071 1804 03       		.uleb128 0x3
 16072 1805 74       		.byte	0x74
 16073 1806 76       		.sleb128 -10
 16074 1807 9F       		.byte	0x9f
ARM GAS  C:\Users\DEVELO~1\AppData\Local\Temp\cc15HDCU.s 			page 283


 16075 1808 04       		.byte	0x4
 16076 1809 2A       		.uleb128 .LVL41-.LVL37
 16077 180a 3A       		.uleb128 .LVL43-.LVL37
 16078 180b 01       		.uleb128 0x1
 16079 180c 54       		.byte	0x54
 16080 180d 04       		.byte	0x4
 16081 180e 40       		.uleb128 .LVL45-.LVL37
 16082 180f 4C       		.uleb128 .LVL46-.LVL37
 16083 1810 02       		.uleb128 0x2
 16084 1811 30       		.byte	0x30
 16085 1812 9F       		.byte	0x9f
 16086 1813 04       		.byte	0x4
 16087 1814 4C       		.uleb128 .LVL46-.LVL37
 16088 1815 54       		.uleb128 .LVL48-.LVL37
 16089 1816 01       		.uleb128 0x1
 16090 1817 54       		.byte	0x54
 16091 1818 04       		.byte	0x4
 16092 1819 54       		.uleb128 .LVL48-.LVL37
 16093 181a 58       		.uleb128 .LVL49-.LVL37
 16094 181b 03       		.uleb128 0x3
 16095 181c 74       		.byte	0x74
 16096 181d 76       		.sleb128 -10
 16097 181e 9F       		.byte	0x9f
 16098 181f 04       		.byte	0x4
 16099 1820 58       		.uleb128 .LVL49-.LVL37
 16100 1821 6A       		.uleb128 .LFE145-.LVL37
 16101 1822 01       		.uleb128 0x1
 16102 1823 54       		.byte	0x54
 16103 1824 00       		.byte	0
 16104              	.LVUS11:
 16105 1825 02       		.uleb128 .LVU192
 16106 1826 00       		.uleb128 .LVU195
 16107              	.LLST11:
 16108 1827 08       		.byte	0x8
 16109 1828 2A000000 		.4byte	.LVL41
 16110 182c 02       		.uleb128 .LVL42-.LVL41
 16111 182d 01       		.uleb128 0x1
 16112 182e 55       		.byte	0x55
 16113 182f 00       		.byte	0
 16114              	.LVUS12:
 16115 1830 02       		.uleb128 .LVU213
 16116 1831 00       		.uleb128 .LVU216
 16117              	.LLST12:
 16118 1832 08       		.byte	0x8
 16119 1833 58000000 		.4byte	.LVL49
 16120 1837 02       		.uleb128 .LVL50-.LVL49
 16121 1838 01       		.uleb128 0x1
 16122 1839 55       		.byte	0x55
 16123 183a 00       		.byte	0
 16124              	.LVUS3:
 16125 183b 00       		.uleb128 0
 16126 183c 00       		.uleb128 .LVU86
 16127 183d 00       		.uleb128 .LVU86
 16128 183e 00       		.uleb128 .LVU95
 16129 183f 00       		.uleb128 .LVU95
 16130 1840 00       		.uleb128 .LVU98
 16131 1841 00       		.uleb128 .LVU98
ARM GAS  C:\Users\DEVELO~1\AppData\Local\Temp\cc15HDCU.s 			page 284


 16132 1842 00       		.uleb128 0
 16133              	.LLST3:
 16134 1843 06       		.byte	0x6
 16135 1844 00000000 		.4byte	.LVL12
 16136 1848 04       		.byte	0x4
 16137 1849 00       		.uleb128 .LVL12-.LVL12
 16138 184a 06       		.uleb128 .LVL13-.LVL12
 16139 184b 01       		.uleb128 0x1
 16140 184c 50       		.byte	0x50
 16141 184d 04       		.byte	0x4
 16142 184e 06       		.uleb128 .LVL13-.LVL12
 16143 184f 1C       		.uleb128 .LVL15-.LVL12
 16144 1850 01       		.uleb128 0x1
 16145 1851 53       		.byte	0x53
 16146 1852 04       		.byte	0x4
 16147 1853 1C       		.uleb128 .LVL15-.LVL12
 16148 1854 20       		.uleb128 .LVL17-.LVL12
 16149 1855 01       		.uleb128 0x1
 16150 1856 50       		.byte	0x50
 16151 1857 04       		.byte	0x4
 16152 1858 20       		.uleb128 .LVL17-.LVL12
 16153 1859 F401     		.uleb128 .LFE142-.LVL12
 16154 185b 01       		.uleb128 0x1
 16155 185c 53       		.byte	0x53
 16156 185d 00       		.byte	0
 16157              	.LVUS4:
 16158 185e 00       		.uleb128 0
 16159 185f 00       		.uleb128 .LVU87
 16160 1860 00       		.uleb128 .LVU87
 16161 1861 00       		.uleb128 .LVU95
 16162 1862 00       		.uleb128 .LVU95
 16163 1863 00       		.uleb128 .LVU140
 16164 1864 00       		.uleb128 .LVU140
 16165 1865 00       		.uleb128 .LVU141
 16166 1866 00       		.uleb128 .LVU141
 16167 1867 00       		.uleb128 .LVU142
 16168 1868 00       		.uleb128 .LVU142
 16169 1869 00       		.uleb128 .LVU143
 16170 186a 00       		.uleb128 .LVU143
 16171 186b 00       		.uleb128 .LVU144
 16172 186c 00       		.uleb128 .LVU144
 16173 186d 00       		.uleb128 .LVU145
 16174 186e 00       		.uleb128 .LVU145
 16175 186f 00       		.uleb128 .LVU146
 16176 1870 00       		.uleb128 .LVU146
 16177 1871 00       		.uleb128 .LVU147
 16178 1872 00       		.uleb128 .LVU147
 16179 1873 00       		.uleb128 .LVU148
 16180 1874 00       		.uleb128 .LVU148
 16181 1875 00       		.uleb128 .LVU149
 16182 1876 00       		.uleb128 .LVU149
 16183 1877 00       		.uleb128 .LVU150
 16184 1878 00       		.uleb128 .LVU150
 16185 1879 00       		.uleb128 .LVU151
 16186 187a 00       		.uleb128 .LVU151
 16187 187b 00       		.uleb128 .LVU152
 16188 187c 00       		.uleb128 .LVU152
ARM GAS  C:\Users\DEVELO~1\AppData\Local\Temp\cc15HDCU.s 			page 285


 16189 187d 00       		.uleb128 .LVU153
 16190 187e 00       		.uleb128 .LVU153
 16191 187f 00       		.uleb128 .LVU154
 16192 1880 00       		.uleb128 .LVU154
 16193 1881 00       		.uleb128 0
 16194              	.LLST4:
 16195 1882 06       		.byte	0x6
 16196 1883 00000000 		.4byte	.LVL12
 16197 1887 04       		.byte	0x4
 16198 1888 00       		.uleb128 .LVL12-.LVL12
 16199 1889 0A       		.uleb128 .LVL14-.LVL12
 16200 188a 01       		.uleb128 0x1
 16201 188b 51       		.byte	0x51
 16202 188c 04       		.byte	0x4
 16203 188d 0A       		.uleb128 .LVL14-.LVL12
 16204 188e 1C       		.uleb128 .LVL15-.LVL12
 16205 188f 04       		.uleb128 0x4
 16206 1890 A3       		.byte	0xa3
 16207 1891 01       		.uleb128 0x1
 16208 1892 51       		.byte	0x51
 16209 1893 9F       		.byte	0x9f
 16210 1894 04       		.byte	0x4
 16211 1895 1C       		.uleb128 .LVL15-.LVL12
 16212 1896 7E       		.uleb128 .LVL18-.LVL12
 16213 1897 01       		.uleb128 0x1
 16214 1898 51       		.byte	0x51
 16215 1899 04       		.byte	0x4
 16216 189a 7E       		.uleb128 .LVL18-.LVL12
 16217 189b 8001     		.uleb128 .LVL19-.LVL12
 16218 189d 04       		.uleb128 0x4
 16219 189e A3       		.byte	0xa3
 16220 189f 01       		.uleb128 0x1
 16221 18a0 51       		.byte	0x51
 16222 18a1 9F       		.byte	0x9f
 16223 18a2 04       		.byte	0x4
 16224 18a3 8001     		.uleb128 .LVL19-.LVL12
 16225 18a5 8401     		.uleb128 .LVL20-.LVL12
 16226 18a7 01       		.uleb128 0x1
 16227 18a8 51       		.byte	0x51
 16228 18a9 04       		.byte	0x4
 16229 18aa 8401     		.uleb128 .LVL20-.LVL12
 16230 18ac 8601     		.uleb128 .LVL21-.LVL12
 16231 18ae 04       		.uleb128 0x4
 16232 18af A3       		.byte	0xa3
 16233 18b0 01       		.uleb128 0x1
 16234 18b1 51       		.byte	0x51
 16235 18b2 9F       		.byte	0x9f
 16236 18b3 04       		.byte	0x4
 16237 18b4 8601     		.uleb128 .LVL21-.LVL12
 16238 18b6 8A01     		.uleb128 .LVL22-.LVL12
 16239 18b8 01       		.uleb128 0x1
 16240 18b9 51       		.byte	0x51
 16241 18ba 04       		.byte	0x4
 16242 18bb 8A01     		.uleb128 .LVL22-.LVL12
 16243 18bd 8C01     		.uleb128 .LVL23-.LVL12
 16244 18bf 04       		.uleb128 0x4
 16245 18c0 A3       		.byte	0xa3
ARM GAS  C:\Users\DEVELO~1\AppData\Local\Temp\cc15HDCU.s 			page 286


 16246 18c1 01       		.uleb128 0x1
 16247 18c2 51       		.byte	0x51
 16248 18c3 9F       		.byte	0x9f
 16249 18c4 04       		.byte	0x4
 16250 18c5 8C01     		.uleb128 .LVL23-.LVL12
 16251 18c7 9001     		.uleb128 .LVL24-.LVL12
 16252 18c9 01       		.uleb128 0x1
 16253 18ca 51       		.byte	0x51
 16254 18cb 04       		.byte	0x4
 16255 18cc 9001     		.uleb128 .LVL24-.LVL12
 16256 18ce 9201     		.uleb128 .LVL25-.LVL12
 16257 18d0 04       		.uleb128 0x4
 16258 18d1 A3       		.byte	0xa3
 16259 18d2 01       		.uleb128 0x1
 16260 18d3 51       		.byte	0x51
 16261 18d4 9F       		.byte	0x9f
 16262 18d5 04       		.byte	0x4
 16263 18d6 9201     		.uleb128 .LVL25-.LVL12
 16264 18d8 9601     		.uleb128 .LVL26-.LVL12
 16265 18da 01       		.uleb128 0x1
 16266 18db 51       		.byte	0x51
 16267 18dc 04       		.byte	0x4
 16268 18dd 9601     		.uleb128 .LVL26-.LVL12
 16269 18df 9801     		.uleb128 .LVL27-.LVL12
 16270 18e1 04       		.uleb128 0x4
 16271 18e2 A3       		.byte	0xa3
 16272 18e3 01       		.uleb128 0x1
 16273 18e4 51       		.byte	0x51
 16274 18e5 9F       		.byte	0x9f
 16275 18e6 04       		.byte	0x4
 16276 18e7 9801     		.uleb128 .LVL27-.LVL12
 16277 18e9 9C01     		.uleb128 .LVL28-.LVL12
 16278 18eb 01       		.uleb128 0x1
 16279 18ec 51       		.byte	0x51
 16280 18ed 04       		.byte	0x4
 16281 18ee 9C01     		.uleb128 .LVL28-.LVL12
 16282 18f0 9E01     		.uleb128 .LVL29-.LVL12
 16283 18f2 04       		.uleb128 0x4
 16284 18f3 A3       		.byte	0xa3
 16285 18f4 01       		.uleb128 0x1
 16286 18f5 51       		.byte	0x51
 16287 18f6 9F       		.byte	0x9f
 16288 18f7 04       		.byte	0x4
 16289 18f8 9E01     		.uleb128 .LVL29-.LVL12
 16290 18fa A201     		.uleb128 .LVL30-.LVL12
 16291 18fc 01       		.uleb128 0x1
 16292 18fd 51       		.byte	0x51
 16293 18fe 04       		.byte	0x4
 16294 18ff A201     		.uleb128 .LVL30-.LVL12
 16295 1901 A401     		.uleb128 .LVL31-.LVL12
 16296 1903 04       		.uleb128 0x4
 16297 1904 A3       		.byte	0xa3
 16298 1905 01       		.uleb128 0x1
 16299 1906 51       		.byte	0x51
 16300 1907 9F       		.byte	0x9f
 16301 1908 04       		.byte	0x4
 16302 1909 A401     		.uleb128 .LVL31-.LVL12
ARM GAS  C:\Users\DEVELO~1\AppData\Local\Temp\cc15HDCU.s 			page 287


 16303 190b A801     		.uleb128 .LVL32-.LVL12
 16304 190d 01       		.uleb128 0x1
 16305 190e 51       		.byte	0x51
 16306 190f 04       		.byte	0x4
 16307 1910 A801     		.uleb128 .LVL32-.LVL12
 16308 1912 F401     		.uleb128 .LFE142-.LVL12
 16309 1914 04       		.uleb128 0x4
 16310 1915 A3       		.byte	0xa3
 16311 1916 01       		.uleb128 0x1
 16312 1917 51       		.byte	0x51
 16313 1918 9F       		.byte	0x9f
 16314 1919 00       		.byte	0
 16315              	.LVUS5:
 16316 191a 00       		.uleb128 0
 16317 191b 00       		.uleb128 .LVU86
 16318 191c 00       		.uleb128 .LVU86
 16319 191d 00       		.uleb128 .LVU95
 16320 191e 00       		.uleb128 .LVU95
 16321 191f 00       		.uleb128 .LVU97
 16322 1920 00       		.uleb128 .LVU97
 16323 1921 00       		.uleb128 0
 16324              	.LLST5:
 16325 1922 06       		.byte	0x6
 16326 1923 00000000 		.4byte	.LVL12
 16327 1927 04       		.byte	0x4
 16328 1928 00       		.uleb128 .LVL12-.LVL12
 16329 1929 06       		.uleb128 .LVL13-.LVL12
 16330 192a 01       		.uleb128 0x1
 16331 192b 52       		.byte	0x52
 16332 192c 04       		.byte	0x4
 16333 192d 06       		.uleb128 .LVL13-.LVL12
 16334 192e 1C       		.uleb128 .LVL15-.LVL12
 16335 192f 04       		.uleb128 0x4
 16336 1930 A3       		.byte	0xa3
 16337 1931 01       		.uleb128 0x1
 16338 1932 52       		.byte	0x52
 16339 1933 9F       		.byte	0x9f
 16340 1934 04       		.byte	0x4
 16341 1935 1C       		.uleb128 .LVL15-.LVL12
 16342 1936 1E       		.uleb128 .LVL16-.LVL12
 16343 1937 01       		.uleb128 0x1
 16344 1938 52       		.byte	0x52
 16345 1939 04       		.byte	0x4
 16346 193a 1E       		.uleb128 .LVL16-.LVL12
 16347 193b F401     		.uleb128 .LFE142-.LVL12
 16348 193d 04       		.uleb128 0x4
 16349 193e A3       		.byte	0xa3
 16350 193f 01       		.uleb128 0x1
 16351 1940 52       		.byte	0x52
 16352 1941 9F       		.byte	0x9f
 16353 1942 00       		.byte	0
 16354              	.LVUS1:
 16355 1943 00       		.uleb128 0
 16356 1944 00       		.uleb128 .LVU51
 16357 1945 00       		.uleb128 .LVU51
 16358 1946 00       		.uleb128 .LVU66
 16359 1947 00       		.uleb128 .LVU66
ARM GAS  C:\Users\DEVELO~1\AppData\Local\Temp\cc15HDCU.s 			page 288


 16360 1948 00       		.uleb128 .LVU67
 16361 1949 00       		.uleb128 .LVU67
 16362 194a 00       		.uleb128 .LVU71
 16363 194b 00       		.uleb128 .LVU71
 16364 194c 00       		.uleb128 .LVU78
 16365 194d 00       		.uleb128 .LVU78
 16366 194e 00       		.uleb128 0
 16367              	.LLST1:
 16368 194f 06       		.byte	0x6
 16369 1950 00000000 		.4byte	.LVL4
 16370 1954 04       		.byte	0x4
 16371 1955 00       		.uleb128 .LVL4-.LVL4
 16372 1956 3C       		.uleb128 .LVL5-.LVL4
 16373 1957 01       		.uleb128 0x1
 16374 1958 50       		.byte	0x50
 16375 1959 04       		.byte	0x4
 16376 195a 3C       		.uleb128 .LVL5-.LVL4
 16377 195b 6A       		.uleb128 .LVL7-.LVL4
 16378 195c 01       		.uleb128 0x1
 16379 195d 54       		.byte	0x54
 16380 195e 04       		.byte	0x4
 16381 195f 6A       		.uleb128 .LVL7-.LVL4
 16382 1960 6E       		.uleb128 .LVL8-.LVL4
 16383 1961 04       		.uleb128 0x4
 16384 1962 A3       		.byte	0xa3
 16385 1963 01       		.uleb128 0x1
 16386 1964 50       		.byte	0x50
 16387 1965 9F       		.byte	0x9f
 16388 1966 04       		.byte	0x4
 16389 1967 6E       		.uleb128 .LVL8-.LVL4
 16390 1968 79       		.uleb128 .LVL9-1-.LVL4
 16391 1969 01       		.uleb128 0x1
 16392 196a 50       		.byte	0x50
 16393 196b 04       		.byte	0x4
 16394 196c 79       		.uleb128 .LVL9-1-.LVL4
 16395 196d 9401     		.uleb128 .LVL11-.LVL4
 16396 196f 01       		.uleb128 0x1
 16397 1970 54       		.byte	0x54
 16398 1971 04       		.byte	0x4
 16399 1972 9401     		.uleb128 .LVL11-.LVL4
 16400 1974 A401     		.uleb128 .LFE141-.LVL4
 16401 1976 01       		.uleb128 0x1
 16402 1977 50       		.byte	0x50
 16403 1978 00       		.byte	0
 16404              	.LVUS2:
 16405 1979 00       		.uleb128 .LVU52
 16406 197a 00       		.uleb128 .LVU67
 16407 197b 00       		.uleb128 .LVU72
 16408 197c 00       		.uleb128 .LVU78
 16409              	.LLST2:
 16410 197d 06       		.byte	0x6
 16411 197e 40000000 		.4byte	.LVL6
 16412 1982 04       		.byte	0x4
 16413 1983 00       		.uleb128 .LVL6-.LVL6
 16414 1984 2E       		.uleb128 .LVL8-.LVL6
 16415 1985 01       		.uleb128 0x1
 16416 1986 50       		.byte	0x50
ARM GAS  C:\Users\DEVELO~1\AppData\Local\Temp\cc15HDCU.s 			page 289


 16417 1987 04       		.byte	0x4
 16418 1988 3E       		.uleb128 .LVL10-.LVL6
 16419 1989 54       		.uleb128 .LVL11-.LVL6
 16420 198a 01       		.uleb128 0x1
 16421 198b 50       		.byte	0x50
 16422 198c 00       		.byte	0
 16423              	.LVUS6:
 16424 198d 00       		.uleb128 0
 16425 198e 00       		.uleb128 .LVU159
 16426 198f 00       		.uleb128 .LVU159
 16427 1990 00       		.uleb128 0
 16428              	.LLST6:
 16429 1991 06       		.byte	0x6
 16430 1992 00000000 		.4byte	.LVL33
 16431 1996 04       		.byte	0x4
 16432 1997 00       		.uleb128 .LVL33-.LVL33
 16433 1998 04       		.uleb128 .LVL34-.LVL33
 16434 1999 01       		.uleb128 0x1
 16435 199a 50       		.byte	0x50
 16436 199b 04       		.byte	0x4
 16437 199c 04       		.uleb128 .LVL34-.LVL33
 16438 199d 0E       		.uleb128 .LFE143-.LVL33
 16439 199e 01       		.uleb128 0x1
 16440 199f 53       		.byte	0x53
 16441 19a0 00       		.byte	0
 16442              	.LVUS7:
 16443 19a1 00       		.uleb128 0
 16444 19a2 00       		.uleb128 .LVU166
 16445 19a3 00       		.uleb128 .LVU166
 16446 19a4 00       		.uleb128 0
 16447              	.LLST7:
 16448 19a5 06       		.byte	0x6
 16449 19a6 00000000 		.4byte	.LVL35
 16450 19aa 04       		.byte	0x4
 16451 19ab 00       		.uleb128 .LVL35-.LVL35
 16452 19ac 04       		.uleb128 .LVL36-.LVL35
 16453 19ad 01       		.uleb128 0x1
 16454 19ae 50       		.byte	0x50
 16455 19af 04       		.byte	0x4
 16456 19b0 04       		.uleb128 .LVL36-.LVL35
 16457 19b1 0E       		.uleb128 .LFE144-.LVL35
 16458 19b2 01       		.uleb128 0x1
 16459 19b3 53       		.byte	0x53
 16460 19b4 00       		.byte	0
 16461              	.LVUS29:
 16462 19b5 00       		.uleb128 0
 16463 19b6 00       		.uleb128 .LVU447
 16464 19b7 00       		.uleb128 .LVU447
 16465 19b8 00       		.uleb128 0
 16466              	.LLST29:
 16467 19b9 06       		.byte	0x6
 16468 19ba 00000000 		.4byte	.LVL91
 16469 19be 04       		.byte	0x4
 16470 19bf 00       		.uleb128 .LVL91-.LVL91
 16471 19c0 04       		.uleb128 .LVL92-.LVL91
 16472 19c1 01       		.uleb128 0x1
 16473 19c2 50       		.byte	0x50
ARM GAS  C:\Users\DEVELO~1\AppData\Local\Temp\cc15HDCU.s 			page 290


 16474 19c3 04       		.byte	0x4
 16475 19c4 04       		.uleb128 .LVL92-.LVL91
 16476 19c5 10       		.uleb128 .LFE149-.LVL91
 16477 19c6 01       		.uleb128 0x1
 16478 19c7 53       		.byte	0x53
 16479 19c8 00       		.byte	0
 16480              	.LVUS30:
 16481 19c9 00       		.uleb128 0
 16482 19ca 00       		.uleb128 .LVU449
 16483 19cb 00       		.uleb128 .LVU449
 16484 19cc 00       		.uleb128 0
 16485              	.LLST30:
 16486 19cd 06       		.byte	0x6
 16487 19ce 00000000 		.4byte	.LVL91
 16488 19d2 04       		.byte	0x4
 16489 19d3 00       		.uleb128 .LVL91-.LVL91
 16490 19d4 0A       		.uleb128 .LVL93-.LVL91
 16491 19d5 01       		.uleb128 0x1
 16492 19d6 51       		.byte	0x51
 16493 19d7 04       		.byte	0x4
 16494 19d8 0A       		.uleb128 .LVL93-.LVL91
 16495 19d9 10       		.uleb128 .LFE149-.LVL91
 16496 19da 04       		.uleb128 0x4
 16497 19db A3       		.byte	0xa3
 16498 19dc 01       		.uleb128 0x1
 16499 19dd 51       		.byte	0x51
 16500 19de 9F       		.byte	0x9f
 16501 19df 00       		.byte	0
 16502              	.LVUS31:
 16503 19e0 00       		.uleb128 .LVU447
 16504 19e1 00       		.uleb128 0
 16505              	.LLST31:
 16506 19e2 08       		.byte	0x8
 16507 19e3 04000000 		.4byte	.LVL92
 16508 19e7 0C       		.uleb128 .LFE149-.LVL92
 16509 19e8 01       		.uleb128 0x1
 16510 19e9 53       		.byte	0x53
 16511 19ea 00       		.byte	0
 16512              	.LVUS71:
 16513 19eb 00       		.uleb128 0
 16514 19ec 00       		.uleb128 .LVU950
 16515 19ed 00       		.uleb128 .LVU950
 16516 19ee 00       		.uleb128 0
 16517              	.LLST71:
 16518 19ef 06       		.byte	0x6
 16519 19f0 00000000 		.4byte	.LVL186
 16520 19f4 04       		.byte	0x4
 16521 19f5 00       		.uleb128 .LVL186-.LVL186
 16522 19f6 18       		.uleb128 .LVL192-.LVL186
 16523 19f7 01       		.uleb128 0x1
 16524 19f8 50       		.byte	0x50
 16525 19f9 04       		.byte	0x4
 16526 19fa 18       		.uleb128 .LVL192-.LVL186
 16527 19fb 28       		.uleb128 .LFE157-.LVL186
 16528 19fc 04       		.uleb128 0x4
 16529 19fd A3       		.byte	0xa3
 16530 19fe 01       		.uleb128 0x1
ARM GAS  C:\Users\DEVELO~1\AppData\Local\Temp\cc15HDCU.s 			page 291


 16531 19ff 50       		.byte	0x50
 16532 1a00 9F       		.byte	0x9f
 16533 1a01 00       		.byte	0
 16534              	.LVUS72:
 16535 1a02 00       		.uleb128 0
 16536 1a03 00       		.uleb128 .LVU950
 16537 1a04 00       		.uleb128 .LVU950
 16538 1a05 00       		.uleb128 0
 16539              	.LLST72:
 16540 1a06 06       		.byte	0x6
 16541 1a07 00000000 		.4byte	.LVL186
 16542 1a0b 04       		.byte	0x4
 16543 1a0c 00       		.uleb128 .LVL186-.LVL186
 16544 1a0d 18       		.uleb128 .LVL192-.LVL186
 16545 1a0e 01       		.uleb128 0x1
 16546 1a0f 51       		.byte	0x51
 16547 1a10 04       		.byte	0x4
 16548 1a11 18       		.uleb128 .LVL192-.LVL186
 16549 1a12 28       		.uleb128 .LFE157-.LVL186
 16550 1a13 04       		.uleb128 0x4
 16551 1a14 A3       		.byte	0xa3
 16552 1a15 01       		.uleb128 0x1
 16553 1a16 51       		.byte	0x51
 16554 1a17 9F       		.byte	0x9f
 16555 1a18 00       		.byte	0
 16556              	.LVUS73:
 16557 1a19 00       		.uleb128 0
 16558 1a1a 00       		.uleb128 .LVU948
 16559 1a1b 00       		.uleb128 .LVU948
 16560 1a1c 00       		.uleb128 0
 16561              	.LLST73:
 16562 1a1d 06       		.byte	0x6
 16563 1a1e 00000000 		.4byte	.LVL186
 16564 1a22 04       		.byte	0x4
 16565 1a23 00       		.uleb128 .LVL186-.LVL186
 16566 1a24 10       		.uleb128 .LVL190-.LVL186
 16567 1a25 01       		.uleb128 0x1
 16568 1a26 52       		.byte	0x52
 16569 1a27 04       		.byte	0x4
 16570 1a28 10       		.uleb128 .LVL190-.LVL186
 16571 1a29 28       		.uleb128 .LFE157-.LVL186
 16572 1a2a 04       		.uleb128 0x4
 16573 1a2b A3       		.byte	0xa3
 16574 1a2c 01       		.uleb128 0x1
 16575 1a2d 52       		.byte	0x52
 16576 1a2e 9F       		.byte	0x9f
 16577 1a2f 00       		.byte	0
 16578              	.LVUS74:
 16579 1a30 00       		.uleb128 0
 16580 1a31 00       		.uleb128 .LVU944
 16581 1a32 00       		.uleb128 .LVU944
 16582 1a33 00       		.uleb128 0
 16583              	.LLST74:
 16584 1a34 06       		.byte	0x6
 16585 1a35 00000000 		.4byte	.LVL186
 16586 1a39 04       		.byte	0x4
 16587 1a3a 00       		.uleb128 .LVL186-.LVL186
ARM GAS  C:\Users\DEVELO~1\AppData\Local\Temp\cc15HDCU.s 			page 292


 16588 1a3b 0A       		.uleb128 .LVL188-.LVL186
 16589 1a3c 01       		.uleb128 0x1
 16590 1a3d 53       		.byte	0x53
 16591 1a3e 04       		.byte	0x4
 16592 1a3f 0A       		.uleb128 .LVL188-.LVL186
 16593 1a40 28       		.uleb128 .LFE157-.LVL186
 16594 1a41 04       		.uleb128 0x4
 16595 1a42 A3       		.byte	0xa3
 16596 1a43 01       		.uleb128 0x1
 16597 1a44 53       		.byte	0x53
 16598 1a45 9F       		.byte	0x9f
 16599 1a46 00       		.byte	0
 16600              	.LVUS75:
 16601 1a47 00       		.uleb128 0
 16602 1a48 00       		.uleb128 .LVU962
 16603 1a49 00       		.uleb128 .LVU962
 16604 1a4a 00       		.uleb128 0
 16605              	.LLST75:
 16606 1a4b 06       		.byte	0x6
 16607 1a4c 00000000 		.4byte	.LVL186
 16608 1a50 04       		.byte	0x4
 16609 1a51 00       		.uleb128 .LVL186-.LVL186
 16610 1a52 26       		.uleb128 .LVL195-.LVL186
 16611 1a53 02       		.uleb128 0x2
 16612 1a54 91       		.byte	0x91
 16613 1a55 00       		.sleb128 0
 16614 1a56 04       		.byte	0x4
 16615 1a57 26       		.uleb128 .LVL195-.LVL186
 16616 1a58 28       		.uleb128 .LFE157-.LVL186
 16617 1a59 02       		.uleb128 0x2
 16618 1a5a 7D       		.byte	0x7d
 16619 1a5b 00       		.sleb128 0
 16620 1a5c 00       		.byte	0
 16621              	.LVUS76:
 16622 1a5d 00       		.uleb128 .LVU937
 16623 1a5e 00       		.uleb128 .LVU950
 16624 1a5f 00       		.uleb128 .LVU950
 16625 1a60 00       		.uleb128 0
 16626              	.LLST76:
 16627 1a61 06       		.byte	0x6
 16628 1a62 06000000 		.4byte	.LVL187
 16629 1a66 04       		.byte	0x4
 16630 1a67 00       		.uleb128 .LVL187-.LVL187
 16631 1a68 12       		.uleb128 .LVL192-.LVL187
 16632 1a69 01       		.uleb128 0x1
 16633 1a6a 50       		.byte	0x50
 16634 1a6b 04       		.byte	0x4
 16635 1a6c 12       		.uleb128 .LVL192-.LVL187
 16636 1a6d 22       		.uleb128 .LFE157-.LVL187
 16637 1a6e 04       		.uleb128 0x4
 16638 1a6f A3       		.byte	0xa3
 16639 1a70 01       		.uleb128 0x1
 16640 1a71 50       		.byte	0x50
 16641 1a72 9F       		.byte	0x9f
 16642 1a73 00       		.byte	0
 16643              	.LVUS77:
 16644 1a74 01       		.uleb128 .LVU938
ARM GAS  C:\Users\DEVELO~1\AppData\Local\Temp\cc15HDCU.s 			page 293


 16645 1a75 00       		.uleb128 .LVU952
 16646 1a76 00       		.uleb128 .LVU952
 16647 1a77 01       		.uleb128 .LVU955
 16648 1a78 01       		.uleb128 .LVU955
 16649 1a79 02       		.uleb128 .LVU956
 16650 1a7a 02       		.uleb128 .LVU956
 16651 1a7b 03       		.uleb128 .LVU957
 16652 1a7c 03       		.uleb128 .LVU957
 16653 1a7d 04       		.uleb128 .LVU958
 16654 1a7e 04       		.uleb128 .LVU958
 16655 1a7f 00       		.uleb128 0
 16656              	.LLST77:
 16657 1a80 06       		.byte	0x6
 16658 1a81 06000000 		.4byte	.LVL187
 16659 1a85 04       		.byte	0x4
 16660 1a86 00       		.uleb128 .LVL187-.LVL187
 16661 1a87 16       		.uleb128 .LVL193-.LVL187
 16662 1a88 01       		.uleb128 0x1
 16663 1a89 51       		.byte	0x51
 16664 1a8a 04       		.byte	0x4
 16665 1a8b 16       		.uleb128 .LVL193-.LVL187
 16666 1a8c 1A       		.uleb128 .LVL194-.LVL187
 16667 1a8d 03       		.uleb128 0x3
 16668 1a8e 71       		.byte	0x71
 16669 1a8f 7C       		.sleb128 -4
 16670 1a90 9F       		.byte	0x9f
 16671 1a91 04       		.byte	0x4
 16672 1a92 1A       		.uleb128 .LVL194-.LVL187
 16673 1a93 1A       		.uleb128 .LVL194-.LVL187
 16674 1a94 03       		.uleb128 0x3
 16675 1a95 71       		.byte	0x71
 16676 1a96 7D       		.sleb128 -3
 16677 1a97 9F       		.byte	0x9f
 16678 1a98 04       		.byte	0x4
 16679 1a99 1A       		.uleb128 .LVL194-.LVL187
 16680 1a9a 1A       		.uleb128 .LVL194-.LVL187
 16681 1a9b 03       		.uleb128 0x3
 16682 1a9c 71       		.byte	0x71
 16683 1a9d 7E       		.sleb128 -2
 16684 1a9e 9F       		.byte	0x9f
 16685 1a9f 04       		.byte	0x4
 16686 1aa0 1A       		.uleb128 .LVL194-.LVL187
 16687 1aa1 1A       		.uleb128 .LVL194-.LVL187
 16688 1aa2 03       		.uleb128 0x3
 16689 1aa3 71       		.byte	0x71
 16690 1aa4 7F       		.sleb128 -1
 16691 1aa5 9F       		.byte	0x9f
 16692 1aa6 04       		.byte	0x4
 16693 1aa7 1A       		.uleb128 .LVL194-.LVL187
 16694 1aa8 22       		.uleb128 .LFE157-.LVL187
 16695 1aa9 01       		.uleb128 0x1
 16696 1aaa 51       		.byte	0x51
 16697 1aab 00       		.byte	0
 16698              	.LVUS78:
 16699 1aac 00       		.uleb128 .LVU944
 16700 1aad 00       		.uleb128 .LVU946
 16701 1aae 00       		.uleb128 .LVU946
ARM GAS  C:\Users\DEVELO~1\AppData\Local\Temp\cc15HDCU.s 			page 294


 16702 1aaf 00       		.uleb128 .LVU949
 16703              	.LLST78:
 16704 1ab0 06       		.byte	0x6
 16705 1ab1 0A000000 		.4byte	.LVL188
 16706 1ab5 04       		.byte	0x4
 16707 1ab6 00       		.uleb128 .LVL188-.LVL188
 16708 1ab7 02       		.uleb128 .LVL189-.LVL188
 16709 1ab8 05       		.uleb128 0x5
 16710 1ab9 73       		.byte	0x73
 16711 1aba 00       		.sleb128 0
 16712 1abb 32       		.byte	0x32
 16713 1abc 25       		.byte	0x25
 16714 1abd 9F       		.byte	0x9f
 16715 1abe 04       		.byte	0x4
 16716 1abf 02       		.uleb128 .LVL189-.LVL188
 16717 1ac0 0A       		.uleb128 .LVL191-.LVL188
 16718 1ac1 01       		.uleb128 0x1
 16719 1ac2 53       		.byte	0x53
 16720 1ac3 00       		.byte	0
 16721              	.LVUS79:
 16722 1ac4 01       		.uleb128 .LVU945
 16723 1ac5 00       		.uleb128 .LVU950
 16724              	.LLST79:
 16725 1ac6 08       		.byte	0x8
 16726 1ac7 0A000000 		.4byte	.LVL188
 16727 1acb 0E       		.uleb128 .LVL192-.LVL188
 16728 1acc 02       		.uleb128 0x2
 16729 1acd 30       		.byte	0x30
 16730 1ace 9F       		.byte	0x9f
 16731 1acf 00       		.byte	0
 16732              	.LVUS126:
 16733 1ad0 00       		.uleb128 0
 16734 1ad1 00       		.uleb128 .LVU1227
 16735 1ad2 00       		.uleb128 .LVU1227
 16736 1ad3 00       		.uleb128 0
 16737              	.LLST126:
 16738 1ad4 06       		.byte	0x6
 16739 1ad5 00000000 		.4byte	.LVL284
 16740 1ad9 04       		.byte	0x4
 16741 1ada 00       		.uleb128 .LVL284-.LVL284
 16742 1adb 02       		.uleb128 .LVL285-.LVL284
 16743 1adc 01       		.uleb128 0x1
 16744 1add 50       		.byte	0x50
 16745 1ade 04       		.byte	0x4
 16746 1adf 02       		.uleb128 .LVL285-.LVL284
 16747 1ae0 08       		.uleb128 .LFE172-.LVL284
 16748 1ae1 04       		.uleb128 0x4
 16749 1ae2 A3       		.byte	0xa3
 16750 1ae3 01       		.uleb128 0x1
 16751 1ae4 50       		.byte	0x50
 16752 1ae5 9F       		.byte	0x9f
 16753 1ae6 00       		.byte	0
 16754              	.LVUS143:
 16755 1ae7 00       		.uleb128 0
 16756 1ae8 00       		.uleb128 .LVU1442
 16757 1ae9 00       		.uleb128 .LVU1442
 16758 1aea 00       		.uleb128 0
ARM GAS  C:\Users\DEVELO~1\AppData\Local\Temp\cc15HDCU.s 			page 295


 16759              	.LLST143:
 16760 1aeb 06       		.byte	0x6
 16761 1aec 00000000 		.4byte	.LVL328
 16762 1af0 04       		.byte	0x4
 16763 1af1 00       		.uleb128 .LVL328-.LVL328
 16764 1af2 0E       		.uleb128 .LVL330-.LVL328
 16765 1af3 01       		.uleb128 0x1
 16766 1af4 50       		.byte	0x50
 16767 1af5 04       		.byte	0x4
 16768 1af6 0E       		.uleb128 .LVL330-.LVL328
 16769 1af7 16       		.uleb128 .LFE180-.LVL328
 16770 1af8 04       		.uleb128 0x4
 16771 1af9 A3       		.byte	0xa3
 16772 1afa 01       		.uleb128 0x1
 16773 1afb 50       		.byte	0x50
 16774 1afc 9F       		.byte	0x9f
 16775 1afd 00       		.byte	0
 16776              	.LVUS144:
 16777 1afe 00       		.uleb128 .LVU1435
 16778 1aff 00       		.uleb128 .LVU1442
 16779 1b00 00       		.uleb128 .LVU1442
 16780 1b01 00       		.uleb128 0
 16781              	.LLST144:
 16782 1b02 06       		.byte	0x6
 16783 1b03 04000000 		.4byte	.LVL329
 16784 1b07 04       		.byte	0x4
 16785 1b08 00       		.uleb128 .LVL329-.LVL329
 16786 1b09 0A       		.uleb128 .LVL330-.LVL329
 16787 1b0a 01       		.uleb128 0x1
 16788 1b0b 50       		.byte	0x50
 16789 1b0c 04       		.byte	0x4
 16790 1b0d 0A       		.uleb128 .LVL330-.LVL329
 16791 1b0e 12       		.uleb128 .LFE180-.LVL329
 16792 1b0f 04       		.uleb128 0x4
 16793 1b10 A3       		.byte	0xa3
 16794 1b11 01       		.uleb128 0x1
 16795 1b12 50       		.byte	0x50
 16796 1b13 9F       		.byte	0x9f
 16797 1b14 00       		.byte	0
 16798              	.LVUS192:
 16799 1b15 00       		.uleb128 0
 16800 1b16 00       		.uleb128 .LVU1943
 16801 1b17 00       		.uleb128 .LVU1943
 16802 1b18 00       		.uleb128 .LVU1947
 16803 1b19 00       		.uleb128 .LVU1947
 16804 1b1a 00       		.uleb128 0
 16805              	.LLST192:
 16806 1b1b 06       		.byte	0x6
 16807 1b1c 00000000 		.4byte	.LVL411
 16808 1b20 04       		.byte	0x4
 16809 1b21 00       		.uleb128 .LVL411-.LVL411
 16810 1b22 06       		.uleb128 .LVL413-.LVL411
 16811 1b23 01       		.uleb128 0x1
 16812 1b24 50       		.byte	0x50
 16813 1b25 04       		.byte	0x4
 16814 1b26 06       		.uleb128 .LVL413-.LVL411
 16815 1b27 12       		.uleb128 .LVL415-.LVL411
ARM GAS  C:\Users\DEVELO~1\AppData\Local\Temp\cc15HDCU.s 			page 296


 16816 1b28 01       		.uleb128 0x1
 16817 1b29 53       		.byte	0x53
 16818 1b2a 04       		.byte	0x4
 16819 1b2b 12       		.uleb128 .LVL415-.LVL411
 16820 1b2c 24       		.uleb128 .LFE186-.LVL411
 16821 1b2d 04       		.uleb128 0x4
 16822 1b2e A3       		.byte	0xa3
 16823 1b2f 01       		.uleb128 0x1
 16824 1b30 50       		.byte	0x50
 16825 1b31 9F       		.byte	0x9f
 16826 1b32 00       		.byte	0
 16827              	.LVUS193:
 16828 1b33 00       		.uleb128 0
 16829 1b34 00       		.uleb128 .LVU1944
 16830 1b35 00       		.uleb128 .LVU1944
 16831 1b36 00       		.uleb128 0
 16832              	.LLST193:
 16833 1b37 06       		.byte	0x6
 16834 1b38 00000000 		.4byte	.LVL411
 16835 1b3c 04       		.byte	0x4
 16836 1b3d 00       		.uleb128 .LVL411-.LVL411
 16837 1b3e 0A       		.uleb128 .LVL414-.LVL411
 16838 1b3f 01       		.uleb128 0x1
 16839 1b40 51       		.byte	0x51
 16840 1b41 04       		.byte	0x4
 16841 1b42 0A       		.uleb128 .LVL414-.LVL411
 16842 1b43 24       		.uleb128 .LFE186-.LVL411
 16843 1b44 04       		.uleb128 0x4
 16844 1b45 A3       		.byte	0xa3
 16845 1b46 01       		.uleb128 0x1
 16846 1b47 51       		.byte	0x51
 16847 1b48 9F       		.byte	0x9f
 16848 1b49 00       		.byte	0
 16849              	.LVUS194:
 16850 1b4a 00       		.uleb128 .LVU1937
 16851 1b4b 00       		.uleb128 .LVU1943
 16852 1b4c 00       		.uleb128 .LVU1943
 16853 1b4d 00       		.uleb128 .LVU1947
 16854 1b4e 00       		.uleb128 .LVU1947
 16855 1b4f 00       		.uleb128 0
 16856              	.LLST194:
 16857 1b50 06       		.byte	0x6
 16858 1b51 02000000 		.4byte	.LVL412
 16859 1b55 04       		.byte	0x4
 16860 1b56 00       		.uleb128 .LVL412-.LVL412
 16861 1b57 04       		.uleb128 .LVL413-.LVL412
 16862 1b58 01       		.uleb128 0x1
 16863 1b59 50       		.byte	0x50
 16864 1b5a 04       		.byte	0x4
 16865 1b5b 04       		.uleb128 .LVL413-.LVL412
 16866 1b5c 10       		.uleb128 .LVL415-.LVL412
 16867 1b5d 01       		.uleb128 0x1
 16868 1b5e 53       		.byte	0x53
 16869 1b5f 04       		.byte	0x4
 16870 1b60 10       		.uleb128 .LVL415-.LVL412
 16871 1b61 22       		.uleb128 .LFE186-.LVL412
 16872 1b62 04       		.uleb128 0x4
ARM GAS  C:\Users\DEVELO~1\AppData\Local\Temp\cc15HDCU.s 			page 297


 16873 1b63 A3       		.byte	0xa3
 16874 1b64 01       		.uleb128 0x1
 16875 1b65 50       		.byte	0x50
 16876 1b66 9F       		.byte	0x9f
 16877 1b67 00       		.byte	0
 16878              	.LVUS195:
 16879 1b68 01       		.uleb128 .LVU1938
 16880 1b69 00       		.uleb128 .LVU1944
 16881              	.LLST195:
 16882 1b6a 08       		.byte	0x8
 16883 1b6b 02000000 		.4byte	.LVL412
 16884 1b6f 08       		.uleb128 .LVL414-.LVL412
 16885 1b70 01       		.uleb128 0x1
 16886 1b71 51       		.byte	0x51
 16887 1b72 00       		.byte	0
 16888              	.LVUS196:
 16889 1b73 00       		.uleb128 .LVU1947
 16890 1b74 00       		.uleb128 0
 16891              	.LLST196:
 16892 1b75 08       		.byte	0x8
 16893 1b76 12000000 		.4byte	.LVL415
 16894 1b7a 12       		.uleb128 .LFE186-.LVL415
 16895 1b7b 01       		.uleb128 0x1
 16896 1b7c 53       		.byte	0x53
 16897 1b7d 00       		.byte	0
 16898              	.Ldebug_loc3:
 16899              		.section	.debug_aranges,"",%progbits
 16900 0000 9C010000 		.4byte	0x19c
 16901 0004 0200     		.2byte	0x2
 16902 0006 00000000 		.4byte	.Ldebug_info0
 16903 000a 04       		.byte	0x4
 16904 000b 00       		.byte	0
 16905 000c 0000     		.2byte	0
 16906 000e 0000     		.2byte	0
 16907 0010 00000000 		.4byte	.LFB175
 16908 0014 4E000000 		.4byte	.LFE175-.LFB175
 16909 0018 00000000 		.4byte	.LFB141
 16910 001c A4000000 		.4byte	.LFE141-.LFB141
 16911 0020 00000000 		.4byte	.LFB142
 16912 0024 F4000000 		.4byte	.LFE142-.LFB142
 16913 0028 00000000 		.4byte	.LFB143
 16914 002c 0E000000 		.4byte	.LFE143-.LFB143
 16915 0030 00000000 		.4byte	.LFB144
 16916 0034 0E000000 		.4byte	.LFE144-.LFB144
 16917 0038 00000000 		.4byte	.LFB145
 16918 003c 6A000000 		.4byte	.LFE145-.LFB145
 16919 0040 00000000 		.4byte	.LFB147
 16920 0044 4E000000 		.4byte	.LFE147-.LFB147
 16921 0048 00000000 		.4byte	.LFB148
 16922 004c 4A000000 		.4byte	.LFE148-.LFB148
 16923 0050 00000000 		.4byte	.LFB146
 16924 0054 94010000 		.4byte	.LFE146-.LFB146
 16925 0058 00000000 		.4byte	.LFB149
 16926 005c 10000000 		.4byte	.LFE149-.LFB149
 16927 0060 00000000 		.4byte	.LFB150
 16928 0064 16000000 		.4byte	.LFE150-.LFB150
 16929 0068 00000000 		.4byte	.LFB151
ARM GAS  C:\Users\DEVELO~1\AppData\Local\Temp\cc15HDCU.s 			page 298


 16930 006c 90000000 		.4byte	.LFE151-.LFB151
 16931 0070 00000000 		.4byte	.LFB152
 16932 0074 94000000 		.4byte	.LFE152-.LFB152
 16933 0078 00000000 		.4byte	.LFB153
 16934 007c BC000000 		.4byte	.LFE153-.LFB153
 16935 0080 00000000 		.4byte	.LFB154
 16936 0084 9E000000 		.4byte	.LFE154-.LFB154
 16937 0088 00000000 		.4byte	.LFB155
 16938 008c 34020000 		.4byte	.LFE155-.LFB155
 16939 0090 00000000 		.4byte	.LFB156
 16940 0094 88000000 		.4byte	.LFE156-.LFB156
 16941 0098 00000000 		.4byte	.LFB157
 16942 009c 28000000 		.4byte	.LFE157-.LFB157
 16943 00a0 00000000 		.4byte	.LFB158
 16944 00a4 46000000 		.4byte	.LFE158-.LFB158
 16945 00a8 00000000 		.4byte	.LFB159
 16946 00ac 68000000 		.4byte	.LFE159-.LFB159
 16947 00b0 00000000 		.4byte	.LFB160
 16948 00b4 58000000 		.4byte	.LFE160-.LFB160
 16949 00b8 00000000 		.4byte	.LFB161
 16950 00bc 42000000 		.4byte	.LFE161-.LFB161
 16951 00c0 00000000 		.4byte	.LFB162
 16952 00c4 22000000 		.4byte	.LFE162-.LFB162
 16953 00c8 00000000 		.4byte	.LFB163
 16954 00cc 20000000 		.4byte	.LFE163-.LFB163
 16955 00d0 00000000 		.4byte	.LFB164
 16956 00d4 20000000 		.4byte	.LFE164-.LFB164
 16957 00d8 00000000 		.4byte	.LFB165
 16958 00dc 08000000 		.4byte	.LFE165-.LFB165
 16959 00e0 00000000 		.4byte	.LFB166
 16960 00e4 10000000 		.4byte	.LFE166-.LFB166
 16961 00e8 00000000 		.4byte	.LFB167
 16962 00ec 0E000000 		.4byte	.LFE167-.LFB167
 16963 00f0 00000000 		.4byte	.LFB168
 16964 00f4 0E000000 		.4byte	.LFE168-.LFB168
 16965 00f8 00000000 		.4byte	.LFB169
 16966 00fc 12000000 		.4byte	.LFE169-.LFB169
 16967 0100 00000000 		.4byte	.LFB170
 16968 0104 20000000 		.4byte	.LFE170-.LFB170
 16969 0108 00000000 		.4byte	.LFB171
 16970 010c 08000000 		.4byte	.LFE171-.LFB171
 16971 0110 00000000 		.4byte	.LFB172
 16972 0114 08000000 		.4byte	.LFE172-.LFB172
 16973 0118 00000000 		.4byte	.LFB173
 16974 011c 28000000 		.4byte	.LFE173-.LFB173
 16975 0120 00000000 		.4byte	.LFB174
 16976 0124 54000000 		.4byte	.LFE174-.LFB174
 16977 0128 00000000 		.4byte	.LFB176
 16978 012c C8000000 		.4byte	.LFE176-.LFB176
 16979 0130 00000000 		.4byte	.LFB177
 16980 0134 44000000 		.4byte	.LFE177-.LFB177
 16981 0138 00000000 		.4byte	.LFB178
 16982 013c 3E000000 		.4byte	.LFE178-.LFB178
 16983 0140 00000000 		.4byte	.LFB179
 16984 0144 4E000000 		.4byte	.LFE179-.LFB179
 16985 0148 00000000 		.4byte	.LFB180
 16986 014c 16000000 		.4byte	.LFE180-.LFB180
ARM GAS  C:\Users\DEVELO~1\AppData\Local\Temp\cc15HDCU.s 			page 299


 16987 0150 00000000 		.4byte	.LFB181
 16988 0154 08000000 		.4byte	.LFE181-.LFB181
 16989 0158 00000000 		.4byte	.LFB182
 16990 015c 3E010000 		.4byte	.LFE182-.LFB182
 16991 0160 00000000 		.4byte	.LFB183
 16992 0164 E4020000 		.4byte	.LFE183-.LFB183
 16993 0168 00000000 		.4byte	.LFB184
 16994 016c 08000000 		.4byte	.LFE184-.LFB184
 16995 0170 00000000 		.4byte	.LFB185
 16996 0174 F2000000 		.4byte	.LFE185-.LFB185
 16997 0178 00000000 		.4byte	.LFB186
 16998 017c 24000000 		.4byte	.LFE186-.LFB186
 16999 0180 00000000 		.4byte	.LFB187
 17000 0184 86000000 		.4byte	.LFE187-.LFB187
 17001 0188 00000000 		.4byte	.LFB188
 17002 018c 18000000 		.4byte	.LFE188-.LFB188
 17003 0190 00000000 		.4byte	.LFB189
 17004 0194 12000000 		.4byte	.LFE189-.LFB189
 17005 0198 00000000 		.4byte	0
 17006 019c 00000000 		.4byte	0
 17007              		.section	.debug_rnglists,"",%progbits
 17008              	.Ldebug_ranges0:
 17009 0000 70010000 		.4byte	.Ldebug_ranges3-.Ldebug_ranges2
 17010              	.Ldebug_ranges2:
 17011 0004 0500     		.2byte	0x5
 17012 0006 04       		.byte	0x4
 17013 0007 00       		.byte	0
 17014 0008 00000000 		.4byte	0
 17015              	.LLRL58:
 17016 000c 05       		.byte	0x5
 17017 000d F0010000 		.4byte	.LBB34
 17018 0011 04       		.byte	0x4
 17019 0012 00       		.uleb128 .LBB34-.LBB34
 17020 0013 00       		.uleb128 .LBE34-.LBB34
 17021 0014 04       		.byte	0x4
 17022 0015 06       		.uleb128 .LBB38-.LBB34
 17023 0016 16       		.uleb128 .LBE38-.LBB34
 17024 0017 04       		.byte	0x4
 17025 0018 18       		.uleb128 .LBB39-.LBB34
 17026 0019 30       		.uleb128 .LBE39-.LBB34
 17027 001a 00       		.byte	0
 17028              	.LLRL158:
 17029 001b 05       		.byte	0x5
 17030 001c B6000000 		.4byte	.LBB40
 17031 0020 04       		.byte	0x4
 17032 0021 00       		.uleb128 .LBB40-.LBB40
 17033 0022 0C       		.uleb128 .LBE40-.LBB40
 17034 0023 04       		.byte	0x4
 17035 0024 0C       		.uleb128 .LBB43-.LBB40
 17036 0025 10       		.uleb128 .LBE43-.LBB40
 17037 0026 00       		.byte	0
 17038              	.LLRL169:
 17039 0027 05       		.byte	0x5
 17040 0028 E4010000 		.4byte	.LBB44
 17041 002c 04       		.byte	0x4
 17042 002d 00       		.uleb128 .LBB44-.LBB44
 17043 002e 06       		.uleb128 .LBE44-.LBB44
ARM GAS  C:\Users\DEVELO~1\AppData\Local\Temp\cc15HDCU.s 			page 300


 17044 002f 04       		.byte	0x4
 17045 0030 08       		.uleb128 .LBB47-.LBB44
 17046 0031 1C       		.uleb128 .LBE47-.LBB44
 17047 0032 00       		.byte	0
 17048              	.LLRL176:
 17049 0033 05       		.byte	0x5
 17050 0034 1A020000 		.4byte	.LBB48
 17051 0038 04       		.byte	0x4
 17052 0039 00       		.uleb128 .LBB48-.LBB48
 17053 003a 02       		.uleb128 .LBE48-.LBB48
 17054 003b 04       		.byte	0x4
 17055 003c 04       		.uleb128 .LBB51-.LBB48
 17056 003d 26       		.uleb128 .LBE51-.LBB48
 17057 003e 00       		.byte	0
 17058              	.LLRL208:
 17059 003f 07       		.byte	0x7
 17060 0040 00000000 		.4byte	.LFB175
 17061 0044 4E       		.uleb128 .LFE175-.LFB175
 17062 0045 07       		.byte	0x7
 17063 0046 00000000 		.4byte	.LFB141
 17064 004a A401     		.uleb128 .LFE141-.LFB141
 17065 004c 07       		.byte	0x7
 17066 004d 00000000 		.4byte	.LFB142
 17067 0051 F401     		.uleb128 .LFE142-.LFB142
 17068 0053 07       		.byte	0x7
 17069 0054 00000000 		.4byte	.LFB143
 17070 0058 0E       		.uleb128 .LFE143-.LFB143
 17071 0059 07       		.byte	0x7
 17072 005a 00000000 		.4byte	.LFB144
 17073 005e 0E       		.uleb128 .LFE144-.LFB144
 17074 005f 07       		.byte	0x7
 17075 0060 00000000 		.4byte	.LFB145
 17076 0064 6A       		.uleb128 .LFE145-.LFB145
 17077 0065 07       		.byte	0x7
 17078 0066 00000000 		.4byte	.LFB147
 17079 006a 4E       		.uleb128 .LFE147-.LFB147
 17080 006b 07       		.byte	0x7
 17081 006c 00000000 		.4byte	.LFB148
 17082 0070 4A       		.uleb128 .LFE148-.LFB148
 17083 0071 07       		.byte	0x7
 17084 0072 00000000 		.4byte	.LFB146
 17085 0076 9403     		.uleb128 .LFE146-.LFB146
 17086 0078 07       		.byte	0x7
 17087 0079 00000000 		.4byte	.LFB149
 17088 007d 10       		.uleb128 .LFE149-.LFB149
 17089 007e 07       		.byte	0x7
 17090 007f 00000000 		.4byte	.LFB150
 17091 0083 16       		.uleb128 .LFE150-.LFB150
 17092 0084 07       		.byte	0x7
 17093 0085 00000000 		.4byte	.LFB151
 17094 0089 9001     		.uleb128 .LFE151-.LFB151
 17095 008b 07       		.byte	0x7
 17096 008c 00000000 		.4byte	.LFB152
 17097 0090 9401     		.uleb128 .LFE152-.LFB152
 17098 0092 07       		.byte	0x7
 17099 0093 00000000 		.4byte	.LFB153
 17100 0097 BC01     		.uleb128 .LFE153-.LFB153
ARM GAS  C:\Users\DEVELO~1\AppData\Local\Temp\cc15HDCU.s 			page 301


 17101 0099 07       		.byte	0x7
 17102 009a 00000000 		.4byte	.LFB154
 17103 009e 9E01     		.uleb128 .LFE154-.LFB154
 17104 00a0 07       		.byte	0x7
 17105 00a1 00000000 		.4byte	.LFB155
 17106 00a5 B404     		.uleb128 .LFE155-.LFB155
 17107 00a7 07       		.byte	0x7
 17108 00a8 00000000 		.4byte	.LFB156
 17109 00ac 8801     		.uleb128 .LFE156-.LFB156
 17110 00ae 07       		.byte	0x7
 17111 00af 00000000 		.4byte	.LFB157
 17112 00b3 28       		.uleb128 .LFE157-.LFB157
 17113 00b4 07       		.byte	0x7
 17114 00b5 00000000 		.4byte	.LFB158
 17115 00b9 46       		.uleb128 .LFE158-.LFB158
 17116 00ba 07       		.byte	0x7
 17117 00bb 00000000 		.4byte	.LFB159
 17118 00bf 68       		.uleb128 .LFE159-.LFB159
 17119 00c0 07       		.byte	0x7
 17120 00c1 00000000 		.4byte	.LFB160
 17121 00c5 58       		.uleb128 .LFE160-.LFB160
 17122 00c6 07       		.byte	0x7
 17123 00c7 00000000 		.4byte	.LFB161
 17124 00cb 42       		.uleb128 .LFE161-.LFB161
 17125 00cc 07       		.byte	0x7
 17126 00cd 00000000 		.4byte	.LFB162
 17127 00d1 22       		.uleb128 .LFE162-.LFB162
 17128 00d2 07       		.byte	0x7
 17129 00d3 00000000 		.4byte	.LFB163
 17130 00d7 20       		.uleb128 .LFE163-.LFB163
 17131 00d8 07       		.byte	0x7
 17132 00d9 00000000 		.4byte	.LFB164
 17133 00dd 20       		.uleb128 .LFE164-.LFB164
 17134 00de 07       		.byte	0x7
 17135 00df 00000000 		.4byte	.LFB165
 17136 00e3 08       		.uleb128 .LFE165-.LFB165
 17137 00e4 07       		.byte	0x7
 17138 00e5 00000000 		.4byte	.LFB166
 17139 00e9 10       		.uleb128 .LFE166-.LFB166
 17140 00ea 07       		.byte	0x7
 17141 00eb 00000000 		.4byte	.LFB167
 17142 00ef 0E       		.uleb128 .LFE167-.LFB167
 17143 00f0 07       		.byte	0x7
 17144 00f1 00000000 		.4byte	.LFB168
 17145 00f5 0E       		.uleb128 .LFE168-.LFB168
 17146 00f6 07       		.byte	0x7
 17147 00f7 00000000 		.4byte	.LFB169
 17148 00fb 12       		.uleb128 .LFE169-.LFB169
 17149 00fc 07       		.byte	0x7
 17150 00fd 00000000 		.4byte	.LFB170
 17151 0101 20       		.uleb128 .LFE170-.LFB170
 17152 0102 07       		.byte	0x7
 17153 0103 00000000 		.4byte	.LFB171
 17154 0107 08       		.uleb128 .LFE171-.LFB171
 17155 0108 07       		.byte	0x7
 17156 0109 00000000 		.4byte	.LFB172
 17157 010d 08       		.uleb128 .LFE172-.LFB172
ARM GAS  C:\Users\DEVELO~1\AppData\Local\Temp\cc15HDCU.s 			page 302


 17158 010e 07       		.byte	0x7
 17159 010f 00000000 		.4byte	.LFB173
 17160 0113 28       		.uleb128 .LFE173-.LFB173
 17161 0114 07       		.byte	0x7
 17162 0115 00000000 		.4byte	.LFB174
 17163 0119 54       		.uleb128 .LFE174-.LFB174
 17164 011a 07       		.byte	0x7
 17165 011b 00000000 		.4byte	.LFB176
 17166 011f C801     		.uleb128 .LFE176-.LFB176
 17167 0121 07       		.byte	0x7
 17168 0122 00000000 		.4byte	.LFB177
 17169 0126 44       		.uleb128 .LFE177-.LFB177
 17170 0127 07       		.byte	0x7
 17171 0128 00000000 		.4byte	.LFB178
 17172 012c 3E       		.uleb128 .LFE178-.LFB178
 17173 012d 07       		.byte	0x7
 17174 012e 00000000 		.4byte	.LFB179
 17175 0132 4E       		.uleb128 .LFE179-.LFB179
 17176 0133 07       		.byte	0x7
 17177 0134 00000000 		.4byte	.LFB180
 17178 0138 16       		.uleb128 .LFE180-.LFB180
 17179 0139 07       		.byte	0x7
 17180 013a 00000000 		.4byte	.LFB181
 17181 013e 08       		.uleb128 .LFE181-.LFB181
 17182 013f 07       		.byte	0x7
 17183 0140 00000000 		.4byte	.LFB182
 17184 0144 BE02     		.uleb128 .LFE182-.LFB182
 17185 0146 07       		.byte	0x7
 17186 0147 00000000 		.4byte	.LFB183
 17187 014b E405     		.uleb128 .LFE183-.LFB183
 17188 014d 07       		.byte	0x7
 17189 014e 00000000 		.4byte	.LFB184
 17190 0152 08       		.uleb128 .LFE184-.LFB184
 17191 0153 07       		.byte	0x7
 17192 0154 00000000 		.4byte	.LFB185
 17193 0158 F201     		.uleb128 .LFE185-.LFB185
 17194 015a 07       		.byte	0x7
 17195 015b 00000000 		.4byte	.LFB186
 17196 015f 24       		.uleb128 .LFE186-.LFB186
 17197 0160 07       		.byte	0x7
 17198 0161 00000000 		.4byte	.LFB187
 17199 0165 8601     		.uleb128 .LFE187-.LFB187
 17200 0167 07       		.byte	0x7
 17201 0168 00000000 		.4byte	.LFB188
 17202 016c 18       		.uleb128 .LFE188-.LFB188
 17203 016d 07       		.byte	0x7
 17204 016e 00000000 		.4byte	.LFB189
 17205 0172 12       		.uleb128 .LFE189-.LFB189
 17206 0173 00       		.byte	0
 17207              	.Ldebug_ranges3:
 17208              		.section	.debug_line,"",%progbits
 17209              	.Ldebug_line0:
 17210 0000 F8220000 		.section	.debug_str,"MS",%progbits,1
 17210      0300EC01 
 17210      00000201 
 17210      FB0E0D00 
 17210      01010101 
ARM GAS  C:\Users\DEVELO~1\AppData\Local\Temp\cc15HDCU.s 			page 303


 17211              	.LASF162:
 17212 0000 6875625F 		.ascii	"hub_port_nbr\000"
 17212      706F7274 
 17212      5F6E6272 
 17212      00
 17213              	.LASF68:
 17214 000d 44494550 		.ascii	"DIEPTSIZ\000"
 17214      5453495A 
 17214      00
 17215              	.LASF122:
 17216 0016 48435F42 		.ascii	"HC_BBLERR\000"
 17216      424C4552 
 17216      5200
 17217              	.LASF125:
 17218 0020 6465765F 		.ascii	"dev_endpoints\000"
 17218      656E6470 
 17218      6F696E74 
 17218      7300
 17219              	.LASF39:
 17220 002e 47414450 		.ascii	"GADPCTL\000"
 17220      43544C00 
 17221              	.LASF261:
 17222 0036 68636C6B 		.ascii	"hclk\000"
 17222      00
 17223              	.LASF60:
 17224 003b 52657365 		.ascii	"Reserved40\000"
 17224      72766564 
 17224      343000
 17225              	.LASF40:
 17226 0046 52657365 		.ascii	"Reserved43\000"
 17226      72766564 
 17226      343300
 17227              	.LASF62:
 17228 0051 52657365 		.ascii	"Reserved44\000"
 17228      72766564 
 17228      343400
 17229              	.LASF244:
 17230 005c 5553425F 		.ascii	"USB_EPStartXfer\000"
 17230      45505374 
 17230      61727458 
 17230      66657200 
 17231              	.LASF44:
 17232 006c 44434647 		.ascii	"DCFG\000"
 17232      00
 17233              	.LASF134:
 17234 0071 62617474 		.ascii	"battery_charging_enable\000"
 17234      6572795F 
 17234      63686172 
 17234      67696E67 
 17234      5F656E61 
 17235              	.LASF63:
 17236 0089 444F5554 		.ascii	"DOUTEP1MSK\000"
 17236      4550314D 
 17236      534B00
 17237              	.LASF221:
 17238 0094 5553425F 		.ascii	"USB_ReadDevInEPInterrupt\000"
 17238      52656164 
ARM GAS  C:\Users\DEVELO~1\AppData\Local\Temp\cc15HDCU.s 			page 304


 17238      44657649 
 17238      6E455049 
 17238      6E746572 
 17239              	.LASF104:
 17240 00ad 5553425F 		.ascii	"USB_HOST_MODE\000"
 17240      484F5354 
 17240      5F4D4F44 
 17240      4500
 17241              	.LASF223:
 17242 00bb 5553425F 		.ascii	"USB_ReadDevAllInEpInterrupt\000"
 17242      52656164 
 17242      44657641 
 17242      6C6C496E 
 17242      4570496E 
 17243              	.LASF90:
 17244 00d7 48435453 		.ascii	"HCTSIZ\000"
 17244      495A00
 17245              	.LASF217:
 17246 00de 67534E50 		.ascii	"gSNPSiD\000"
 17246      53694400 
 17247              	.LASF254:
 17248 00e6 5553425F 		.ascii	"USB_FlushTxFifo\000"
 17248      466C7573 
 17248      68547846 
 17248      69666F00 
 17249              	.LASF269:
 17250 00f6 5553425F 		.ascii	"USB_ClearInterrupts\000"
 17250      436C6561 
 17250      72496E74 
 17250      65727275 
 17250      70747300 
 17251              	.LASF136:
 17252 010a 7573655F 		.ascii	"use_dedicated_ep1\000"
 17252      64656469 
 17252      63617465 
 17252      645F6570 
 17252      3100
 17253              	.LASF267:
 17254 011c 48414C5F 		.ascii	"HAL_Delay\000"
 17254      44656C61 
 17254      7900
 17255              	.LASF247:
 17256 0126 5553425F 		.ascii	"USB_DeactivateEndpoint\000"
 17256      44656163 
 17256      74697661 
 17256      7465456E 
 17256      64706F69 
 17257              	.LASF188:
 17258 013d 5553425F 		.ascii	"USB_HC_Halt\000"
 17258      48435F48 
 17258      616C7400 
 17259              	.LASF251:
 17260 0149 44657645 		.ascii	"DevEnumSpeed\000"
 17260      6E756D53 
 17260      70656564 
 17260      00
 17261              	.LASF100:
ARM GAS  C:\Users\DEVELO~1\AppData\Local\Temp\cc15HDCU.s 			page 305


 17262 0156 48414C5F 		.ascii	"HAL_BUSY\000"
 17262      42555359 
 17262      00
 17263              	.LASF107:
 17264 015f 5552425F 		.ascii	"URB_IDLE\000"
 17264      49444C45 
 17264      00
 17265              	.LASF22:
 17266 0168 47494E54 		.ascii	"GINTSTS\000"
 17266      53545300 
 17267              	.LASF154:
 17268 0170 63685F6E 		.ascii	"ch_num\000"
 17268      756D00
 17269              	.LASF43:
 17270 0177 5553425F 		.ascii	"USB_OTG_GlobalTypeDef\000"
 17270      4F54475F 
 17270      476C6F62 
 17270      616C5479 
 17270      70654465 
 17271              	.LASF203:
 17272 018d 48436368 		.ascii	"HCcharEpDir\000"
 17272      61724570 
 17272      44697200 
 17273              	.LASF30:
 17274 0199 47434346 		.ascii	"GCCFG\000"
 17274      4700
 17275              	.LASF202:
 17276 019f 6465765F 		.ascii	"dev_address\000"
 17276      61646472 
 17276      65737300 
 17277              	.LASF115:
 17278 01ab 48435F58 		.ascii	"HC_XFRC\000"
 17278      46524300 
 17279              	.LASF31:
 17280 01b3 47534E50 		.ascii	"GSNPSID\000"
 17280      53494400 
 17281              	.LASF225:
 17282 01bb 5553425F 		.ascii	"USB_ReadChInterrupts\000"
 17282      52656164 
 17282      4368496E 
 17282      74657272 
 17282      75707473 
 17283              	.LASF119:
 17284 01d0 48435F4E 		.ascii	"HC_NYET\000"
 17284      59455400 
 17285              	.LASF82:
 17286 01d8 48505458 		.ascii	"HPTXSTS\000"
 17286      53545300 
 17287              	.LASF189:
 17288 01e0 68635F6E 		.ascii	"hc_num\000"
 17288      756D00
 17289              	.LASF257:
 17290 01e7 6D6F6465 		.ascii	"mode\000"
 17290      00
 17291              	.LASF176:
 17292 01ec 5553425F 		.ascii	"USB_OTG_CfgTypeDef\000"
 17292      4F54475F 
ARM GAS  C:\Users\DEVELO~1\AppData\Local\Temp\cc15HDCU.s 			page 306


 17292      43666754 
 17292      79706544 
 17292      656600
 17293              	.LASF27:
 17294 01ff 44494550 		.ascii	"DIEPTXF0_HNPTXFSIZ\000"
 17294      54584630 
 17294      5F484E50 
 17294      54584653 
 17294      495A00
 17295              	.LASF54:
 17296 0212 44564255 		.ascii	"DVBUSDIS\000"
 17296      53444953 
 17296      00
 17297              	.LASF265:
 17298 021b 2E2F6472 		.ascii	"./drivers/stm32h7xx-hal-driver/Src/stm32h7xx_ll_usb"
 17298      69766572 
 17298      732F7374 
 17298      6D333268 
 17298      3778782D 
 17299 024e 2E6300   		.ascii	".c\000"
 17300              	.LASF224:
 17301 0251 5553425F 		.ascii	"USB_ReadDevAllOutEpInterrupt\000"
 17301      52656164 
 17301      44657641 
 17301      6C6C4F75 
 17301      74457049 
 17302              	.LASF177:
 17303 026e 5553425F 		.ascii	"USB_OTG_EPTypeDef\000"
 17303      4F54475F 
 17303      45505479 
 17303      70654465 
 17303      6600
 17304              	.LASF150:
 17305 0280 646D615F 		.ascii	"dma_addr\000"
 17305      61646472 
 17305      00
 17306              	.LASF128:
 17307 0289 73706565 		.ascii	"speed\000"
 17307      6400
 17308              	.LASF101:
 17309 028f 48414C5F 		.ascii	"HAL_TIMEOUT\000"
 17309      54494D45 
 17309      4F555400 
 17310              	.LASF170:
 17311 029b 45727243 		.ascii	"ErrCnt\000"
 17311      6E7400
 17312              	.LASF138:
 17313 02a2 5553425F 		.ascii	"USB_CfgTypeDef\000"
 17313      43666754 
 17313      79706544 
 17313      656600
 17314              	.LASF172:
 17315 02b1 7572625F 		.ascii	"urb_state\000"
 17315      73746174 
 17315      6500
 17316              	.LASF205:
 17317 02bb 486F7374 		.ascii	"HostCoreSpeed\000"
ARM GAS  C:\Users\DEVELO~1\AppData\Local\Temp\cc15HDCU.s 			page 307


 17317      436F7265 
 17317      53706565 
 17317      6400
 17318              	.LASF14:
 17319 02c9 75696E74 		.ascii	"uint32_t\000"
 17319      33325F74 
 17319      00
 17320              	.LASF209:
 17321 02d2 68707274 		.ascii	"hprt0\000"
 17321      3000
 17322              	.LASF57:
 17323 02d8 44494550 		.ascii	"DIEPEMPMSK\000"
 17323      454D504D 
 17323      534B00
 17324              	.LASF133:
 17325 02e3 6C706D5F 		.ascii	"lpm_enable\000"
 17325      656E6162 
 17325      6C6500
 17326              	.LASF96:
 17327 02ee 666C6F61 		.ascii	"float\000"
 17327      7400
 17328              	.LASF169:
 17329 02f4 746F6767 		.ascii	"toggle_out\000"
 17329      6C655F6F 
 17329      757400
 17330              	.LASF106:
 17331 02ff 5553425F 		.ascii	"USB_ModeTypeDef\000"
 17331      4D6F6465 
 17331      54797065 
 17331      44656600 
 17332              	.LASF191:
 17333 030f 636F756E 		.ascii	"count\000"
 17333      7400
 17334              	.LASF190:
 17335 0315 68636E75 		.ascii	"hcnum\000"
 17335      6D00
 17336              	.LASF127:
 17337 031b 646D615F 		.ascii	"dma_enable\000"
 17337      656E6162 
 17337      6C6500
 17338              	.LASF215:
 17339 0326 5553425F 		.ascii	"USB_EP0_OutStart\000"
 17339      4550305F 
 17339      4F757453 
 17339      74617274 
 17339      00
 17340              	.LASF99:
 17341 0337 48414C5F 		.ascii	"HAL_ERROR\000"
 17341      4552524F 
 17341      5200
 17342              	.LASF11:
 17343 0341 6C6F6E67 		.ascii	"long long unsigned int\000"
 17343      206C6F6E 
 17343      6720756E 
 17343      7369676E 
 17343      65642069 
 17344              	.LASF92:
ARM GAS  C:\Users\DEVELO~1\AppData\Local\Temp\cc15HDCU.s 			page 308


 17345 0358 52657365 		.ascii	"Reserved\000"
 17345      72766564 
 17345      00
 17346              	.LASF26:
 17347 0361 47525846 		.ascii	"GRXFSIZ\000"
 17347      53495A00 
 17348              	.LASF149:
 17349 0369 74785F66 		.ascii	"tx_fifo_num\000"
 17349      69666F5F 
 17349      6E756D00 
 17350              	.LASF240:
 17351 0375 5553425F 		.ascii	"USB_WritePacket\000"
 17351      57726974 
 17351      65506163 
 17351      6B657400 
 17352              	.LASF233:
 17353 0385 5553425F 		.ascii	"USB_EPSetStall\000"
 17353      45505365 
 17353      74537461 
 17353      6C6C00
 17354              	.LASF252:
 17355 0394 5553425F 		.ascii	"USB_SetDevSpeed\000"
 17355      53657444 
 17355      65765370 
 17355      65656400 
 17356              	.LASF5:
 17357 03a4 5F5F7569 		.ascii	"__uint16_t\000"
 17357      6E743136 
 17357      5F7400
 17358              	.LASF262:
 17359 03af 55736254 		.ascii	"UsbTrd\000"
 17359      726400
 17360              	.LASF234:
 17361 03b6 5553425F 		.ascii	"USB_ReadPacket\000"
 17361      52656164 
 17361      5061636B 
 17361      657400
 17362              	.LASF77:
 17363 03c5 5553425F 		.ascii	"USB_OTG_OUTEndpointTypeDef\000"
 17363      4F54475F 
 17363      4F555445 
 17363      6E64706F 
 17363      696E7454 
 17364              	.LASF114:
 17365 03e0 48435F49 		.ascii	"HC_IDLE\000"
 17365      444C4500 
 17366              	.LASF159:
 17367 03e8 646F5F63 		.ascii	"do_csplit\000"
 17367      73706C69 
 17367      7400
 17368              	.LASF98:
 17369 03f2 48414C5F 		.ascii	"HAL_OK\000"
 17369      4F4B00
 17370              	.LASF59:
 17371 03f9 44454143 		.ascii	"DEACHMSK\000"
 17371      484D534B 
 17371      00
ARM GAS  C:\Users\DEVELO~1\AppData\Local\Temp\cc15HDCU.s 			page 309


 17372              	.LASF184:
 17373 0402 76616C75 		.ascii	"value\000"
 17373      6500
 17374              	.LASF216:
 17375 0408 70736574 		.ascii	"psetup\000"
 17375      757000
 17376              	.LASF175:
 17377 040f 5553425F 		.ascii	"USB_OTG_ModeTypeDef\000"
 17377      4F54475F 
 17377      4D6F6465 
 17377      54797065 
 17377      44656600 
 17378              	.LASF182:
 17379 0423 55534278 		.ascii	"USBx_BASE\000"
 17379      5F424153 
 17379      4500
 17380              	.LASF179:
 17381 042d 5553425F 		.ascii	"USB_DeActivateRemoteWakeup\000"
 17381      44654163 
 17381      74697661 
 17381      74655265 
 17381      6D6F7465 
 17382              	.LASF46:
 17383 0448 44535453 		.ascii	"DSTS\000"
 17383      00
 17384              	.LASF238:
 17385 044d 636F756E 		.ascii	"count32b\000"
 17385      74333262 
 17385      00
 17386              	.LASF226:
 17387 0456 5553425F 		.ascii	"USB_ReadInterrupts\000"
 17387      52656164 
 17387      496E7465 
 17387      72727570 
 17387      747300
 17388              	.LASF237:
 17389 0469 70446174 		.ascii	"pData\000"
 17389      6100
 17390              	.LASF187:
 17391 046f 746D7072 		.ascii	"tmpreg\000"
 17391      656700
 17392              	.LASF135:
 17393 0476 76627573 		.ascii	"vbus_sensing_enable\000"
 17393      5F73656E 
 17393      73696E67 
 17393      5F656E61 
 17393      626C6500 
 17394              	.LASF78:
 17395 048a 48434647 		.ascii	"HCFG\000"
 17395      00
 17396              	.LASF167:
 17397 048f 58666572 		.ascii	"XferSize\000"
 17397      53697A65 
 17397      00
 17398              	.LASF263:
 17399 0498 5553425F 		.ascii	"USB_CoreInit\000"
 17399      436F7265 
ARM GAS  C:\Users\DEVELO~1\AppData\Local\Temp\cc15HDCU.s 			page 310


 17399      496E6974 
 17399      00
 17400              	.LASF93:
 17401 04a5 5553425F 		.ascii	"USB_OTG_HostChannelTypeDef\000"
 17401      4F54475F 
 17401      486F7374 
 17401      4368616E 
 17401      6E656C54 
 17402              	.LASF86:
 17403 04c0 48434348 		.ascii	"HCCHAR\000"
 17403      415200
 17404              	.LASF248:
 17405 04c7 5553425F 		.ascii	"USB_ActivateDedicatedEndpoint\000"
 17405      41637469 
 17405      76617465 
 17405      44656469 
 17405      63617465 
 17406              	.LASF213:
 17407 04e5 66726571 		.ascii	"freq\000"
 17407      00
 17408              	.LASF250:
 17409 04ea 5553425F 		.ascii	"USB_GetDevSpeed\000"
 17409      47657444 
 17409      65765370 
 17409      65656400 
 17410              	.LASF58:
 17411 04fa 44454143 		.ascii	"DEACHINT\000"
 17411      48494E54 
 17411      00
 17412              	.LASF139:
 17413 0503 69735F69 		.ascii	"is_in\000"
 17413      6E00
 17414              	.LASF143:
 17415 0509 64617461 		.ascii	"data_pid_start\000"
 17415      5F706964 
 17415      5F737461 
 17415      727400
 17416              	.LASF266:
 17417 0518 433A5C43 		.ascii	"C:\\ChibiStudio\\chibios2111\\demos\\STM32\\RT-STM3"
 17417      68696269 
 17417      53747564 
 17417      696F5C63 
 17417      68696269 
 17418 0546 32483734 		.ascii	"2H743ZI_REV_XY-NUCLEO144 - Copie\000"
 17418      335A495F 
 17418      5245565F 
 17418      58592D4E 
 17418      55434C45 
 17419              	.LASF75:
 17420 0567 444F4550 		.ascii	"DOEPTSIZ\000"
 17420      5453495A 
 17420      00
 17421              	.LASF49:
 17422 0570 444F4550 		.ascii	"DOEPMSK\000"
 17422      4D534B00 
 17423              	.LASF52:
 17424 0578 52657365 		.ascii	"Reserved20\000"
ARM GAS  C:\Users\DEVELO~1\AppData\Local\Temp\cc15HDCU.s 			page 311


 17424      72766564 
 17424      323000
 17425              	.LASF84:
 17426 0583 4841494E 		.ascii	"HAINTMSK\000"
 17426      544D534B 
 17426      00
 17427              	.LASF95:
 17428 058c 63686172 		.ascii	"char\000"
 17428      00
 17429              	.LASF137:
 17430 0591 7573655F 		.ascii	"use_external_vbus\000"
 17430      65787465 
 17430      726E616C 
 17430      5F766275 
 17430      7300
 17431              	.LASF123:
 17432 05a3 48435F44 		.ascii	"HC_DATATGLERR\000"
 17432      41544154 
 17432      474C4552 
 17432      5200
 17433              	.LASF16:
 17434 05b1 545F5549 		.ascii	"T_UINT32_READ\000"
 17434      4E543332 
 17434      5F524541 
 17434      4400
 17435              	.LASF211:
 17436 05bf 5553425F 		.ascii	"USB_ResetPort\000"
 17436      52657365 
 17436      74506F72 
 17436      7400
 17437              	.LASF105:
 17438 05cd 5553425F 		.ascii	"USB_DRD_MODE\000"
 17438      4452445F 
 17438      4D4F4445 
 17438      00
 17439              	.LASF222:
 17440 05da 5553425F 		.ascii	"USB_ReadDevOutEPInterrupt\000"
 17440      52656164 
 17440      4465764F 
 17440      75744550 
 17440      496E7465 
 17441              	.LASF183:
 17442 05f4 5553425F 		.ascii	"USB_StopHost\000"
 17442      53746F70 
 17442      486F7374 
 17442      00
 17443              	.LASF76:
 17444 0601 444F4550 		.ascii	"DOEPDMA\000"
 17444      444D4100 
 17445              	.LASF21:
 17446 0609 47525354 		.ascii	"GRSTCTL\000"
 17446      43544C00 
 17447              	.LASF129:
 17448 0611 6570305F 		.ascii	"ep0_mps\000"
 17448      6D707300 
 17449              	.LASF145:
 17450 0619 78666572 		.ascii	"xfer_buff\000"
ARM GAS  C:\Users\DEVELO~1\AppData\Local\Temp\cc15HDCU.s 			page 312


 17450      5F627566 
 17450      6600
 17451              	.LASF12:
 17452 0623 75696E74 		.ascii	"uint8_t\000"
 17452      385F7400 
 17453              	.LASF192:
 17454 062b 48634570 		.ascii	"HcEpType\000"
 17454      54797065 
 17454      00
 17455              	.LASF241:
 17456 0634 63685F65 		.ascii	"ch_ep_num\000"
 17456      705F6E75 
 17456      6D00
 17457              	.LASF121:
 17458 063e 48435F58 		.ascii	"HC_XACTERR\000"
 17458      41435445 
 17458      525200
 17459              	.LASF87:
 17460 0649 48435350 		.ascii	"HCSPLT\000"
 17460      4C5400
 17461              	.LASF186:
 17462 0650 6E756D5F 		.ascii	"num_packets\000"
 17462      7061636B 
 17462      65747300 
 17463              	.LASF32:
 17464 065c 47485743 		.ascii	"GHWCFG1\000"
 17464      46473100 
 17465              	.LASF33:
 17466 0664 47485743 		.ascii	"GHWCFG2\000"
 17466      46473200 
 17467              	.LASF34:
 17468 066c 47485743 		.ascii	"GHWCFG3\000"
 17468      46473300 
 17469              	.LASF194:
 17470 0674 53706C69 		.ascii	"SplitEna\000"
 17470      74456E61 
 17470      00
 17471              	.LASF199:
 17472 067d 6D61785F 		.ascii	"max_hc_pkt_count\000"
 17472      68635F70 
 17472      6B745F63 
 17472      6F756E74 
 17472      00
 17473              	.LASF166:
 17474 068e 64617461 		.ascii	"data_pid\000"
 17474      5F706964 
 17474      00
 17475              	.LASF249:
 17476 0697 5553425F 		.ascii	"USB_ActivateEndpoint\000"
 17476      41637469 
 17476      76617465 
 17476      456E6470 
 17476      6F696E74 
 17477              	.LASF10:
 17478 06ac 6C6F6E67 		.ascii	"long long int\000"
 17478      206C6F6E 
 17478      6720696E 
ARM GAS  C:\Users\DEVELO~1\AppData\Local\Temp\cc15HDCU.s 			page 313


 17478      7400
 17479              	.LASF74:
 17480 06ba 444F4550 		.ascii	"DOEPINT\000"
 17480      494E5400 
 17481              	.LASF73:
 17482 06c2 444F4550 		.ascii	"DOEPCTL\000"
 17482      43544C00 
 17483              	.LASF212:
 17484 06ca 5553425F 		.ascii	"USB_InitFSLSPClkSel\000"
 17484      496E6974 
 17484      46534C53 
 17484      50436C6B 
 17484      53656C00 
 17485              	.LASF83:
 17486 06de 4841494E 		.ascii	"HAINT\000"
 17486      5400
 17487              	.LASF214:
 17488 06e4 5553425F 		.ascii	"USB_HostInit\000"
 17488      486F7374 
 17488      496E6974 
 17488      00
 17489              	.LASF51:
 17490 06f1 4441494E 		.ascii	"DAINTMSK\000"
 17490      544D534B 
 17490      00
 17491              	.LASF89:
 17492 06fa 4843494E 		.ascii	"HCINTMSK\000"
 17492      544D534B 
 17492      00
 17493              	.LASF245:
 17494 0703 706B7463 		.ascii	"pktcnt\000"
 17494      6E7400
 17495              	.LASF70:
 17496 070a 44545846 		.ascii	"DTXFSTS\000"
 17496      53545300 
 17497              	.LASF231:
 17498 0712 5553425F 		.ascii	"USB_StopDevice\000"
 17498      53746F70 
 17498      44657669 
 17498      636500
 17499              	.LASF37:
 17500 0721 47505752 		.ascii	"GPWRDN\000"
 17500      444E00
 17501              	.LASF148:
 17502 0728 6576656E 		.ascii	"even_odd_frame\000"
 17502      5F6F6464 
 17502      5F667261 
 17502      6D6500
 17503              	.LASF156:
 17504 0737 65705F69 		.ascii	"ep_is_in\000"
 17504      735F696E 
 17504      00
 17505              	.LASF180:
 17506 0740 5553425F 		.ascii	"USB_ActivateRemoteWakeup\000"
 17506      41637469 
 17506      76617465 
 17506      52656D6F 
ARM GAS  C:\Users\DEVELO~1\AppData\Local\Temp\cc15HDCU.s 			page 314


 17506      74655761 
 17507              	.LASF132:
 17508 0759 6C6F775F 		.ascii	"low_power_enable\000"
 17508      706F7765 
 17508      725F656E 
 17508      61626C65 
 17508      00
 17509              	.LASF35:
 17510 076a 52657365 		.ascii	"Reserved6\000"
 17510      72766564 
 17510      3600
 17511              	.LASF53:
 17512 0774 52657365 		.ascii	"Reserved9\000"
 17512      72766564 
 17512      3900
 17513              	.LASF152:
 17514 077e 5553425F 		.ascii	"USB_EPTypeDef\000"
 17514      45505479 
 17514      70654465 
 17514      6600
 17515              	.LASF1:
 17516 078c 73686F72 		.ascii	"short int\000"
 17516      7420696E 
 17516      7400
 17517              	.LASF130:
 17518 0796 7068795F 		.ascii	"phy_itface\000"
 17518      69746661 
 17518      636500
 17519              	.LASF109:
 17520 07a1 5552425F 		.ascii	"URB_NOTREADY\000"
 17520      4E4F5452 
 17520      45414459 
 17520      00
 17521              	.LASF210:
 17522 07ae 5553425F 		.ascii	"USB_DriveVbus\000"
 17522      44726976 
 17522      65566275 
 17522      7300
 17523              	.LASF55:
 17524 07bc 44564255 		.ascii	"DVBUSPULSE\000"
 17524      5350554C 
 17524      534500
 17525              	.LASF206:
 17526 07c7 5553425F 		.ascii	"USB_GetCurrentFrame\000"
 17526      47657443 
 17526      75727265 
 17526      6E744672 
 17526      616D6500 
 17527              	.LASF141:
 17528 07db 69735F69 		.ascii	"is_iso_incomplete\000"
 17528      736F5F69 
 17528      6E636F6D 
 17528      706C6574 
 17528      6500
 17529              	.LASF102:
 17530 07ed 48414C5F 		.ascii	"HAL_StatusTypeDef\000"
 17530      53746174 
ARM GAS  C:\Users\DEVELO~1\AppData\Local\Temp\cc15HDCU.s 			page 315


 17530      75735479 
 17530      70654465 
 17530      6600
 17531              	.LASF171:
 17532 07ff 4E796574 		.ascii	"NyetErrCnt\000"
 17532      45727243 
 17532      6E7400
 17533              	.LASF111:
 17534 080a 5552425F 		.ascii	"URB_ERROR\000"
 17534      4552524F 
 17534      5200
 17535              	.LASF81:
 17536 0814 52657365 		.ascii	"Reserved40C\000"
 17536      72766564 
 17536      34304300 
 17537              	.LASF91:
 17538 0820 4843444D 		.ascii	"HCDMA\000"
 17538      4100
 17539              	.LASF103:
 17540 0826 5553425F 		.ascii	"USB_DEVICE_MODE\000"
 17540      44455649 
 17540      43455F4D 
 17540      4F444500 
 17541              	.LASF131:
 17542 0836 536F665F 		.ascii	"Sof_enable\000"
 17542      656E6162 
 17542      6C6500
 17543              	.LASF94:
 17544 0841 6C6F6E67 		.ascii	"long double\000"
 17544      20646F75 
 17544      626C6500 
 17545              	.LASF200:
 17546 084d 5553425F 		.ascii	"USB_HC_Init\000"
 17546      48435F49 
 17546      6E697400 
 17547              	.LASF13:
 17548 0859 75696E74 		.ascii	"uint16_t\000"
 17548      31365F74 
 17548      00
 17549              	.LASF19:
 17550 0862 47414842 		.ascii	"GAHBCFG\000"
 17550      43464700 
 17551              	.LASF23:
 17552 086a 47494E54 		.ascii	"GINTMSK\000"
 17552      4D534B00 
 17553              	.LASF41:
 17554 0872 48505458 		.ascii	"HPTXFSIZ\000"
 17554      4653495A 
 17554      00
 17555              	.LASF219:
 17556 087b 5553425F 		.ascii	"USB_GetMode\000"
 17556      4765744D 
 17556      6F646500 
 17557              	.LASF208:
 17558 0887 5553425F 		.ascii	"USB_GetHostSpeed\000"
 17558      47657448 
 17558      6F737453 
ARM GAS  C:\Users\DEVELO~1\AppData\Local\Temp\cc15HDCU.s 			page 316


 17558      70656564 
 17558      00
 17559              	.LASF64:
 17560 0898 5553425F 		.ascii	"USB_OTG_DeviceTypeDef\000"
 17560      4F54475F 
 17560      44657669 
 17560      63655479 
 17560      70654465 
 17561              	.LASF174:
 17562 08ae 5553425F 		.ascii	"USB_HCTypeDef\000"
 17562      48435479 
 17562      70654465 
 17562      6600
 17563              	.LASF72:
 17564 08bc 5553425F 		.ascii	"USB_OTG_INEndpointTypeDef\000"
 17564      4F54475F 
 17564      494E456E 
 17564      64706F69 
 17564      6E745479 
 17565              	.LASF264:
 17566 08d6 474E5520 		.ascii	"GNU C17 11.3.1 20220712 -mcpu=cortex-m7 -mthumb -mf"
 17566      43313720 
 17566      31312E33 
 17566      2E312032 
 17566      30323230 
 17567 0909 6C6F6174 		.ascii	"loat-abi=soft -march=armv7e-m -ggdb -O2 -fomit-fram"
 17567      2D616269 
 17567      3D736F66 
 17567      74202D6D 
 17567      61726368 
 17568 093c 652D706F 		.ascii	"e-pointer -falign-functions=16 -ffunction-sections "
 17568      696E7465 
 17568      72202D66 
 17568      616C6967 
 17568      6E2D6675 
 17569 096f 2D666461 		.ascii	"-fdata-sections -fno-common\000"
 17569      74612D73 
 17569      65637469 
 17569      6F6E7320 
 17569      2D666E6F 
 17570              	.LASF197:
 17571 098b 69735F6F 		.ascii	"is_oddframe\000"
 17571      64646672 
 17571      616D6500 
 17572              	.LASF204:
 17573 0997 48436368 		.ascii	"HCcharLowSpeed\000"
 17573      61724C6F 
 17573      77537065 
 17573      656400
 17574              	.LASF88:
 17575 09a6 4843494E 		.ascii	"HCINT\000"
 17575      5400
 17576              	.LASF146:
 17577 09ac 78666572 		.ascii	"xfer_len\000"
 17577      5F6C656E 
 17577      00
 17578              	.LASF246:
ARM GAS  C:\Users\DEVELO~1\AppData\Local\Temp\cc15HDCU.s 			page 317


 17579 09b5 5553425F 		.ascii	"USB_DeactivateDedicatedEndpoint\000"
 17579      44656163 
 17579      74697661 
 17579      74654465 
 17579      64696361 
 17580              	.LASF242:
 17581 09d5 70537263 		.ascii	"pSrc\000"
 17581      00
 17582              	.LASF7:
 17583 09da 6C6F6E67 		.ascii	"long int\000"
 17583      20696E74 
 17583      00
 17584              	.LASF232:
 17585 09e3 5553425F 		.ascii	"USB_EPClearStall\000"
 17585      4550436C 
 17585      65617253 
 17585      74616C6C 
 17585      00
 17586              	.LASF153:
 17587 09f4 6465765F 		.ascii	"dev_addr\000"
 17587      61646472 
 17587      00
 17588              	.LASF65:
 17589 09fd 44494550 		.ascii	"DIEPCTL\000"
 17589      43544C00 
 17590              	.LASF56:
 17591 0a05 44544852 		.ascii	"DTHRCTL\000"
 17591      43544C00 
 17592              	.LASF108:
 17593 0a0d 5552425F 		.ascii	"URB_DONE\000"
 17593      444F4E45 
 17593      00
 17594              	.LASF144:
 17595 0a16 6D617870 		.ascii	"maxpacket\000"
 17595      61636B65 
 17595      7400
 17596              	.LASF116:
 17597 0a20 48435F48 		.ascii	"HC_HALTED\000"
 17597      414C5445 
 17597      4400
 17598              	.LASF239:
 17599 0a2a 72656D61 		.ascii	"remaining_bytes\000"
 17599      696E696E 
 17599      675F6279 
 17599      74657300 
 17600              	.LASF196:
 17601 0a3a 5553425F 		.ascii	"USB_HC_StartXfer\000"
 17601      48435F53 
 17601      74617274 
 17601      58666572 
 17601      00
 17602              	.LASF140:
 17603 0a4b 69735F73 		.ascii	"is_stall\000"
 17603      74616C6C 
 17603      00
 17604              	.LASF218:
 17605 0a54 5553425F 		.ascii	"USB_ActivateSetup\000"
ARM GAS  C:\Users\DEVELO~1\AppData\Local\Temp\cc15HDCU.s 			page 318


 17605      41637469 
 17605      76617465 
 17605      53657475 
 17605      7000
 17606              	.LASF79:
 17607 0a66 48464952 		.ascii	"HFIR\000"
 17607      00
 17608              	.LASF4:
 17609 0a6b 5F5F7569 		.ascii	"__uint8_t\000"
 17609      6E74385F 
 17609      7400
 17610              	.LASF15:
 17611 0a75 545F5549 		.ascii	"T_UINT32_WRITE\000"
 17611      4E543332 
 17611      5F575249 
 17611      544500
 17612              	.LASF229:
 17613 0a84 5553425F 		.ascii	"USB_SetDevAddress\000"
 17613      53657444 
 17613      65764164 
 17613      64726573 
 17613      7300
 17614              	.LASF38:
 17615 0a96 47444649 		.ascii	"GDFIFOCFG\000"
 17615      464F4346 
 17615      4700
 17616              	.LASF259:
 17617 0aa0 5553425F 		.ascii	"USB_EnableGlobalInt\000"
 17617      456E6162 
 17617      6C65476C 
 17617      6F62616C 
 17617      496E7400 
 17618              	.LASF61:
 17619 0ab4 44494E45 		.ascii	"DINEP1MSK\000"
 17619      50314D53 
 17619      4B00
 17620              	.LASF0:
 17621 0abe 756E7369 		.ascii	"unsigned int\000"
 17621      676E6564 
 17621      20696E74 
 17621      00
 17622              	.LASF168:
 17623 0acb 746F6767 		.ascii	"toggle_in\000"
 17623      6C655F69 
 17623      6E00
 17624              	.LASF17:
 17625 0ad5 474F5447 		.ascii	"GOTGCTL\000"
 17625      43544C00 
 17626              	.LASF66:
 17627 0add 52657365 		.ascii	"Reserved04\000"
 17627      72766564 
 17627      303400
 17628              	.LASF161:
 17629 0ae8 69736F5F 		.ascii	"iso_splt_xactPos\000"
 17629      73706C74 
 17629      5F786163 
 17629      74506F73 
ARM GAS  C:\Users\DEVELO~1\AppData\Local\Temp\cc15HDCU.s 			page 319


 17629      00
 17630              	.LASF165:
 17631 0af9 6D61785F 		.ascii	"max_packet\000"
 17631      7061636B 
 17631      657400
 17632              	.LASF48:
 17633 0b04 44494550 		.ascii	"DIEPMSK\000"
 17633      4D534B00 
 17634              	.LASF201:
 17635 0b0c 65706E75 		.ascii	"epnum\000"
 17635      6D00
 17636              	.LASF220:
 17637 0b12 696E7465 		.ascii	"interrupt\000"
 17637      72727570 
 17637      7400
 17638              	.LASF124:
 17639 0b1c 5553425F 		.ascii	"USB_HCStateTypeDef\000"
 17639      48435374 
 17639      61746554 
 17639      79706544 
 17639      656600
 17640              	.LASF47:
 17641 0b2f 52657365 		.ascii	"Reserved0C\000"
 17641      72766564 
 17641      304300
 17642              	.LASF9:
 17643 0b3a 6C6F6E67 		.ascii	"long unsigned int\000"
 17643      20756E73 
 17643      69676E65 
 17643      6420696E 
 17643      7400
 17644              	.LASF230:
 17645 0b4c 61646472 		.ascii	"address\000"
 17645      65737300 
 17646              	.LASF25:
 17647 0b54 47525853 		.ascii	"GRXSTSP\000"
 17647      54535000 
 17648              	.LASF24:
 17649 0b5c 47525853 		.ascii	"GRXSTSR\000"
 17649      54535200 
 17650              	.LASF155:
 17651 0b64 65705F6E 		.ascii	"ep_num\000"
 17651      756D00
 17652              	.LASF207:
 17653 0b6b 5553425F 		.ascii	"USB_DoPing\000"
 17653      446F5069 
 17653      6E6700
 17654              	.LASF151:
 17655 0b76 78666572 		.ascii	"xfer_size\000"
 17655      5F73697A 
 17655      6500
 17656              	.LASF69:
 17657 0b80 44494550 		.ascii	"DIEPDMA\000"
 17657      444D4100 
 17658              	.LASF260:
 17659 0b88 5553425F 		.ascii	"USB_SetTurnaroundTime\000"
 17659      53657454 
ARM GAS  C:\Users\DEVELO~1\AppData\Local\Temp\cc15HDCU.s 			page 320


 17659      75726E61 
 17659      726F756E 
 17659      6454696D 
 17660              	.LASF160:
 17661 0b9e 65705F73 		.ascii	"ep_ss_schedule\000"
 17661      735F7363 
 17661      68656475 
 17661      6C6500
 17662              	.LASF142:
 17663 0bad 74797065 		.ascii	"type\000"
 17663      00
 17664              	.LASF28:
 17665 0bb2 484E5054 		.ascii	"HNPTXSTS\000"
 17665      58535453 
 17665      00
 17666              	.LASF3:
 17667 0bbb 756E7369 		.ascii	"unsigned char\000"
 17667      676E6564 
 17667      20636861 
 17667      7200
 17668              	.LASF8:
 17669 0bc9 5F5F7569 		.ascii	"__uint32_t\000"
 17669      6E743332 
 17669      5F7400
 17670              	.LASF80:
 17671 0bd4 48464E55 		.ascii	"HFNUM\000"
 17671      4D00
 17672              	.LASF71:
 17673 0bda 52657365 		.ascii	"Reserved18\000"
 17673      72766564 
 17673      313800
 17674              	.LASF117:
 17675 0be5 48435F41 		.ascii	"HC_ACK\000"
 17675      434B00
 17676              	.LASF126:
 17677 0bec 486F7374 		.ascii	"Host_channels\000"
 17677      5F636861 
 17677      6E6E656C 
 17677      7300
 17678              	.LASF185:
 17679 0bfa 63686E75 		.ascii	"chnum\000"
 17679      6D00
 17680              	.LASF110:
 17681 0c00 5552425F 		.ascii	"URB_NYET\000"
 17681      4E594554 
 17681      00
 17682              	.LASF178:
 17683 0c09 5553425F 		.ascii	"USB_OTG_HCTypeDef\000"
 17683      4F54475F 
 17683      48435479 
 17683      70654465 
 17683      6600
 17684              	.LASF236:
 17685 0c1b 70446573 		.ascii	"pDest\000"
 17685      7400
 17686              	.LASF173:
 17687 0c21 73746174 		.ascii	"state\000"
ARM GAS  C:\Users\DEVELO~1\AppData\Local\Temp\cc15HDCU.s 			page 321


 17687      6500
 17688              	.LASF67:
 17689 0c27 44494550 		.ascii	"DIEPINT\000"
 17689      494E5400 
 17690              	.LASF42:
 17691 0c2f 44494550 		.ascii	"DIEPTXF\000"
 17691      54584600 
 17692              	.LASF120:
 17693 0c37 48435F53 		.ascii	"HC_STALL\000"
 17693      54414C4C 
 17693      00
 17694              	.LASF18:
 17695 0c40 474F5447 		.ascii	"GOTGINT\000"
 17695      494E5400 
 17696              	.LASF118:
 17697 0c48 48435F4E 		.ascii	"HC_NAK\000"
 17697      414B00
 17698              	.LASF36:
 17699 0c4f 474C504D 		.ascii	"GLPMCFG\000"
 17699      43464700 
 17700              	.LASF268:
 17701 0c57 5553425F 		.ascii	"USB_CoreReset\000"
 17701      436F7265 
 17701      52657365 
 17701      7400
 17702              	.LASF253:
 17703 0c65 5553425F 		.ascii	"USB_FlushRxFifo\000"
 17703      466C7573 
 17703      68527846 
 17703      69666F00 
 17704              	.LASF255:
 17705 0c75 5553425F 		.ascii	"USB_DevInit\000"
 17705      44657649 
 17705      6E697400 
 17706              	.LASF243:
 17707 0c81 5553425F 		.ascii	"USB_EPStopXfer\000"
 17707      45505374 
 17707      6F705866 
 17707      657200
 17708              	.LASF195:
 17709 0c90 5553425F 		.ascii	"USB_HC_ReadInterrupt\000"
 17709      48435F52 
 17709      65616449 
 17709      6E746572 
 17709      72757074 
 17710              	.LASF164:
 17711 0ca5 65705F74 		.ascii	"ep_type\000"
 17711      79706500 
 17712              	.LASF227:
 17713 0cad 5553425F 		.ascii	"USB_DevDisconnect\000"
 17713      44657644 
 17713      6973636F 
 17713      6E6E6563 
 17713      7400
 17714              	.LASF2:
 17715 0cbf 7369676E 		.ascii	"signed char\000"
 17715      65642063 
ARM GAS  C:\Users\DEVELO~1\AppData\Local\Temp\cc15HDCU.s 			page 322


 17715      68617200 
 17716              	.LASF256:
 17717 0ccb 5553425F 		.ascii	"USB_SetCurrentMode\000"
 17717      53657443 
 17717      75727265 
 17717      6E744D6F 
 17717      646500
 17718              	.LASF50:
 17719 0cde 4441494E 		.ascii	"DAINT\000"
 17719      5400
 17720              	.LASF6:
 17721 0ce4 73686F72 		.ascii	"short unsigned int\000"
 17721      7420756E 
 17721      7369676E 
 17721      65642069 
 17721      6E7400
 17722              	.LASF113:
 17723 0cf7 5553425F 		.ascii	"USB_URBStateTypeDef\000"
 17723      55524253 
 17723      74617465 
 17723      54797065 
 17723      44656600 
 17724              	.LASF157:
 17725 0d0b 646F5F70 		.ascii	"do_ping\000"
 17725      696E6700 
 17726              	.LASF112:
 17727 0d13 5552425F 		.ascii	"URB_STALL\000"
 17727      5354414C 
 17727      4C00
 17728              	.LASF20:
 17729 0d1d 47555342 		.ascii	"GUSBCFG\000"
 17729      43464700 
 17730              	.LASF85:
 17731 0d25 5553425F 		.ascii	"USB_OTG_HostTypeDef\000"
 17731      4F54475F 
 17731      486F7374 
 17731      54797065 
 17731      44656600 
 17732              	.LASF228:
 17733 0d39 5553425F 		.ascii	"USB_DevConnect\000"
 17733      44657643 
 17733      6F6E6E65 
 17733      637400
 17734              	.LASF97:
 17735 0d48 646F7562 		.ascii	"double\000"
 17735      6C6500
 17736              	.LASF198:
 17737 0d4f 6C656E5F 		.ascii	"len_words\000"
 17737      776F7264 
 17737      7300
 17738              	.LASF45:
 17739 0d59 4443544C 		.ascii	"DCTL\000"
 17739      00
 17740              	.LASF29:
 17741 0d5e 52657365 		.ascii	"Reserved30\000"
 17741      72766564 
 17741      333000
ARM GAS  C:\Users\DEVELO~1\AppData\Local\Temp\cc15HDCU.s 			page 323


 17742              	.LASF158:
 17743 0d69 646F5F73 		.ascii	"do_ssplit\000"
 17743      73706C69 
 17743      7400
 17744              	.LASF147:
 17745 0d73 78666572 		.ascii	"xfer_count\000"
 17745      5F636F75 
 17745      6E7400
 17746              	.LASF163:
 17747 0d7e 6875625F 		.ascii	"hub_addr\000"
 17747      61646472 
 17747      00
 17748              	.LASF181:
 17749 0d87 55534278 		.ascii	"USBx\000"
 17749      00
 17750              	.LASF235:
 17751 0d8c 64657374 		.ascii	"dest\000"
 17751      00
 17752              	.LASF193:
 17753 0d91 4368616E 		.ascii	"ChannelEna\000"
 17753      6E656C45 
 17753      6E6100
 17754              	.LASF258:
 17755 0d9c 5553425F 		.ascii	"USB_DisableGlobalInt\000"
 17755      44697361 
 17755      626C6547 
 17755      6C6F6261 
 17755      6C496E74 
 17756              		.ident	"GCC: (Arm GNU Toolchain 11.3.Rel1) 11.3.1 20220712"
ARM GAS  C:\Users\DEVELO~1\AppData\Local\Temp\cc15HDCU.s 			page 324


DEFINED SYMBOLS
                            *ABS*:00000000 stm32h7xx_ll_usb.c
C:\Users\DEVELO~1\AppData\Local\Temp\cc15HDCU.s:18     .text.USB_CoreReset:00000000 $t
C:\Users\DEVELO~1\AppData\Local\Temp\cc15HDCU.s:24     .text.USB_CoreReset:00000000 USB_CoreReset
C:\Users\DEVELO~1\AppData\Local\Temp\cc15HDCU.s:118    .text.USB_CoreInit:00000000 $t
C:\Users\DEVELO~1\AppData\Local\Temp\cc15HDCU.s:125    .text.USB_CoreInit:00000000 USB_CoreInit
C:\Users\DEVELO~1\AppData\Local\Temp\cc15HDCU.s:267    .text.USB_CoreInit:000000a0 $d
C:\Users\DEVELO~1\AppData\Local\Temp\cc15HDCU.s:272    .text.USB_SetTurnaroundTime:00000000 $t
C:\Users\DEVELO~1\AppData\Local\Temp\cc15HDCU.s:279    .text.USB_SetTurnaroundTime:00000000 USB_SetTurnaroundTime
C:\Users\DEVELO~1\AppData\Local\Temp\cc15HDCU.s:468    .text.USB_SetTurnaroundTime:000000ac $d
C:\Users\DEVELO~1\AppData\Local\Temp\cc15HDCU.s:490    .text.USB_EnableGlobalInt:00000000 $t
C:\Users\DEVELO~1\AppData\Local\Temp\cc15HDCU.s:497    .text.USB_EnableGlobalInt:00000000 USB_EnableGlobalInt
C:\Users\DEVELO~1\AppData\Local\Temp\cc15HDCU.s:522    .text.USB_DisableGlobalInt:00000000 $t
C:\Users\DEVELO~1\AppData\Local\Temp\cc15HDCU.s:529    .text.USB_DisableGlobalInt:00000000 USB_DisableGlobalInt
C:\Users\DEVELO~1\AppData\Local\Temp\cc15HDCU.s:554    .text.USB_SetCurrentMode:00000000 $t
C:\Users\DEVELO~1\AppData\Local\Temp\cc15HDCU.s:561    .text.USB_SetCurrentMode:00000000 USB_SetCurrentMode
C:\Users\DEVELO~1\AppData\Local\Temp\cc15HDCU.s:701    .text.USB_FlushTxFifo:00000000 $t
C:\Users\DEVELO~1\AppData\Local\Temp\cc15HDCU.s:708    .text.USB_FlushTxFifo:00000000 USB_FlushTxFifo
C:\Users\DEVELO~1\AppData\Local\Temp\cc15HDCU.s:806    .text.USB_FlushRxFifo:00000000 $t
C:\Users\DEVELO~1\AppData\Local\Temp\cc15HDCU.s:813    .text.USB_FlushRxFifo:00000000 USB_FlushRxFifo
C:\Users\DEVELO~1\AppData\Local\Temp\cc15HDCU.s:907    .text.USB_DevInit:00000000 $t
C:\Users\DEVELO~1\AppData\Local\Temp\cc15HDCU.s:914    .text.USB_DevInit:00000000 USB_DevInit
C:\Users\DEVELO~1\AppData\Local\Temp\cc15HDCU.s:1310   .text.USB_DevInit:0000018c $d
C:\Users\DEVELO~1\AppData\Local\Temp\cc15HDCU.s:1318   .text.USB_SetDevSpeed:00000000 $t
C:\Users\DEVELO~1\AppData\Local\Temp\cc15HDCU.s:1325   .text.USB_SetDevSpeed:00000000 USB_SetDevSpeed
C:\Users\DEVELO~1\AppData\Local\Temp\cc15HDCU.s:1353   .text.USB_GetDevSpeed:00000000 $t
C:\Users\DEVELO~1\AppData\Local\Temp\cc15HDCU.s:1360   .text.USB_GetDevSpeed:00000000 USB_GetDevSpeed
C:\Users\DEVELO~1\AppData\Local\Temp\cc15HDCU.s:1397   .text.USB_ActivateEndpoint:00000000 $t
C:\Users\DEVELO~1\AppData\Local\Temp\cc15HDCU.s:1404   .text.USB_ActivateEndpoint:00000000 USB_ActivateEndpoint
C:\Users\DEVELO~1\AppData\Local\Temp\cc15HDCU.s:1534   .text.USB_ActivateEndpoint:0000008c $d
C:\Users\DEVELO~1\AppData\Local\Temp\cc15HDCU.s:1539   .text.USB_ActivateDedicatedEndpoint:00000000 $t
C:\Users\DEVELO~1\AppData\Local\Temp\cc15HDCU.s:1546   .text.USB_ActivateDedicatedEndpoint:00000000 USB_ActivateDedicatedEndpoint
C:\Users\DEVELO~1\AppData\Local\Temp\cc15HDCU.s:1676   .text.USB_ActivateDedicatedEndpoint:00000090 $d
C:\Users\DEVELO~1\AppData\Local\Temp\cc15HDCU.s:1681   .text.USB_DeactivateEndpoint:00000000 $t
C:\Users\DEVELO~1\AppData\Local\Temp\cc15HDCU.s:1688   .text.USB_DeactivateEndpoint:00000000 USB_DeactivateEndpoint
C:\Users\DEVELO~1\AppData\Local\Temp\cc15HDCU.s:1815   .text.USB_DeactivateEndpoint:000000b4 $d
C:\Users\DEVELO~1\AppData\Local\Temp\cc15HDCU.s:1821   .text.USB_DeactivateDedicatedEndpoint:00000000 $t
C:\Users\DEVELO~1\AppData\Local\Temp\cc15HDCU.s:1828   .text.USB_DeactivateDedicatedEndpoint:00000000 USB_DeactivateDedicatedEndpoint
C:\Users\DEVELO~1\AppData\Local\Temp\cc15HDCU.s:1961   .text.USB_EPStartXfer:00000000 $t
C:\Users\DEVELO~1\AppData\Local\Temp\cc15HDCU.s:1968   .text.USB_EPStartXfer:00000000 USB_EPStartXfer
C:\Users\DEVELO~1\AppData\Local\Temp\cc15HDCU.s:2459   .text.USB_EPStartXfer:00000228 $d
C:\Users\DEVELO~1\AppData\Local\Temp\cc15HDCU.s:2466   .text.USB_EPStopXfer:00000000 $t
C:\Users\DEVELO~1\AppData\Local\Temp\cc15HDCU.s:2473   .text.USB_EPStopXfer:00000000 USB_EPStopXfer
C:\Users\DEVELO~1\AppData\Local\Temp\cc15HDCU.s:2627   .text.USB_WritePacket:00000000 $t
C:\Users\DEVELO~1\AppData\Local\Temp\cc15HDCU.s:2634   .text.USB_WritePacket:00000000 USB_WritePacket
C:\Users\DEVELO~1\AppData\Local\Temp\cc15HDCU.s:2706   .text.USB_ReadPacket:00000000 $t
C:\Users\DEVELO~1\AppData\Local\Temp\cc15HDCU.s:2713   .text.USB_ReadPacket:00000000 USB_ReadPacket
C:\Users\DEVELO~1\AppData\Local\Temp\cc15HDCU.s:2821   .text.USB_EPSetStall:00000000 $t
C:\Users\DEVELO~1\AppData\Local\Temp\cc15HDCU.s:2828   .text.USB_EPSetStall:00000000 USB_EPSetStall
C:\Users\DEVELO~1\AppData\Local\Temp\cc15HDCU.s:2924   .text.USB_EPClearStall:00000000 $t
C:\Users\DEVELO~1\AppData\Local\Temp\cc15HDCU.s:2931   .text.USB_EPClearStall:00000000 USB_EPClearStall
C:\Users\DEVELO~1\AppData\Local\Temp\cc15HDCU.s:3014   .text.USB_StopDevice:00000000 $t
C:\Users\DEVELO~1\AppData\Local\Temp\cc15HDCU.s:3021   .text.USB_StopDevice:00000000 USB_StopDevice
C:\Users\DEVELO~1\AppData\Local\Temp\cc15HDCU.s:3105   .text.USB_SetDevAddress:00000000 $t
C:\Users\DEVELO~1\AppData\Local\Temp\cc15HDCU.s:3112   .text.USB_SetDevAddress:00000000 USB_SetDevAddress
C:\Users\DEVELO~1\AppData\Local\Temp\cc15HDCU.s:3149   .text.USB_DevConnect:00000000 $t
C:\Users\DEVELO~1\AppData\Local\Temp\cc15HDCU.s:3156   .text.USB_DevConnect:00000000 USB_DevConnect
ARM GAS  C:\Users\DEVELO~1\AppData\Local\Temp\cc15HDCU.s 			page 325


C:\Users\DEVELO~1\AppData\Local\Temp\cc15HDCU.s:3192   .text.USB_DevDisconnect:00000000 $t
C:\Users\DEVELO~1\AppData\Local\Temp\cc15HDCU.s:3199   .text.USB_DevDisconnect:00000000 USB_DevDisconnect
C:\Users\DEVELO~1\AppData\Local\Temp\cc15HDCU.s:3235   .text.USB_ReadInterrupts:00000000 $t
C:\Users\DEVELO~1\AppData\Local\Temp\cc15HDCU.s:3242   .text.USB_ReadInterrupts:00000000 USB_ReadInterrupts
C:\Users\DEVELO~1\AppData\Local\Temp\cc15HDCU.s:3269   .text.USB_ReadChInterrupts:00000000 $t
C:\Users\DEVELO~1\AppData\Local\Temp\cc15HDCU.s:3276   .text.USB_ReadChInterrupts:00000000 USB_ReadChInterrupts
C:\Users\DEVELO~1\AppData\Local\Temp\cc15HDCU.s:3307   .text.USB_ReadDevAllOutEpInterrupt:00000000 $t
C:\Users\DEVELO~1\AppData\Local\Temp\cc15HDCU.s:3314   .text.USB_ReadDevAllOutEpInterrupt:00000000 USB_ReadDevAllOutEpInterrupt
C:\Users\DEVELO~1\AppData\Local\Temp\cc15HDCU.s:3345   .text.USB_ReadDevAllInEpInterrupt:00000000 $t
C:\Users\DEVELO~1\AppData\Local\Temp\cc15HDCU.s:3352   .text.USB_ReadDevAllInEpInterrupt:00000000 USB_ReadDevAllInEpInterrupt
C:\Users\DEVELO~1\AppData\Local\Temp\cc15HDCU.s:3383   .text.USB_ReadDevOutEPInterrupt:00000000 $t
C:\Users\DEVELO~1\AppData\Local\Temp\cc15HDCU.s:3390   .text.USB_ReadDevOutEPInterrupt:00000000 USB_ReadDevOutEPInterrupt
C:\Users\DEVELO~1\AppData\Local\Temp\cc15HDCU.s:3424   .text.USB_ReadDevInEPInterrupt:00000000 $t
C:\Users\DEVELO~1\AppData\Local\Temp\cc15HDCU.s:3431   .text.USB_ReadDevInEPInterrupt:00000000 USB_ReadDevInEPInterrupt
C:\Users\DEVELO~1\AppData\Local\Temp\cc15HDCU.s:3478   .text.USB_ClearInterrupts:00000000 $t
C:\Users\DEVELO~1\AppData\Local\Temp\cc15HDCU.s:3485   .text.USB_ClearInterrupts:00000000 USB_ClearInterrupts
C:\Users\DEVELO~1\AppData\Local\Temp\cc15HDCU.s:3504   .text.USB_GetMode:00000000 $t
C:\Users\DEVELO~1\AppData\Local\Temp\cc15HDCU.s:3511   .text.USB_GetMode:00000000 USB_GetMode
C:\Users\DEVELO~1\AppData\Local\Temp\cc15HDCU.s:3530   .text.USB_ActivateSetup:00000000 $t
C:\Users\DEVELO~1\AppData\Local\Temp\cc15HDCU.s:3537   .text.USB_ActivateSetup:00000000 USB_ActivateSetup
C:\Users\DEVELO~1\AppData\Local\Temp\cc15HDCU.s:3582   .text.USB_ActivateSetup:00000024 $d
C:\Users\DEVELO~1\AppData\Local\Temp\cc15HDCU.s:3587   .text.USB_EP0_OutStart:00000000 $t
C:\Users\DEVELO~1\AppData\Local\Temp\cc15HDCU.s:3594   .text.USB_EP0_OutStart:00000000 USB_EP0_OutStart
C:\Users\DEVELO~1\AppData\Local\Temp\cc15HDCU.s:3690   .text.USB_EP0_OutStart:00000050 $d
C:\Users\DEVELO~1\AppData\Local\Temp\cc15HDCU.s:3695   .text.USB_HostInit:00000000 $t
C:\Users\DEVELO~1\AppData\Local\Temp\cc15HDCU.s:3702   .text.USB_HostInit:00000000 USB_HostInit
C:\Users\DEVELO~1\AppData\Local\Temp\cc15HDCU.s:3886   .text.USB_HostInit:000000bc $d
C:\Users\DEVELO~1\AppData\Local\Temp\cc15HDCU.s:3893   .text.USB_InitFSLSPClkSel:00000000 $t
C:\Users\DEVELO~1\AppData\Local\Temp\cc15HDCU.s:3900   .text.USB_InitFSLSPClkSel:00000000 USB_InitFSLSPClkSel
C:\Users\DEVELO~1\AppData\Local\Temp\cc15HDCU.s:3963   .text.USB_ResetPort:00000000 $t
C:\Users\DEVELO~1\AppData\Local\Temp\cc15HDCU.s:3970   .text.USB_ResetPort:00000000 USB_ResetPort
C:\Users\DEVELO~1\AppData\Local\Temp\cc15HDCU.s:4038   .text.USB_DriveVbus:00000000 $t
C:\Users\DEVELO~1\AppData\Local\Temp\cc15HDCU.s:4045   .text.USB_DriveVbus:00000000 USB_DriveVbus
C:\Users\DEVELO~1\AppData\Local\Temp\cc15HDCU.s:4144   .text.USB_GetHostSpeed:00000000 $t
C:\Users\DEVELO~1\AppData\Local\Temp\cc15HDCU.s:4151   .text.USB_GetHostSpeed:00000000 USB_GetHostSpeed
C:\Users\DEVELO~1\AppData\Local\Temp\cc15HDCU.s:4188   .text.USB_GetCurrentFrame:00000000 $t
C:\Users\DEVELO~1\AppData\Local\Temp\cc15HDCU.s:4195   .text.USB_GetCurrentFrame:00000000 USB_GetCurrentFrame
C:\Users\DEVELO~1\AppData\Local\Temp\cc15HDCU.s:4215   .text.USB_HC_Init:00000000 $t
C:\Users\DEVELO~1\AppData\Local\Temp\cc15HDCU.s:4222   .text.USB_HC_Init:00000000 USB_HC_Init
C:\Users\DEVELO~1\AppData\Local\Temp\cc15HDCU.s:4272   .text.USB_HC_Init:00000030 $d
C:\Users\DEVELO~1\AppData\Local\Temp\cc15HDCU.s:4276   .text.USB_HC_Init:00000034 $t
C:\Users\DEVELO~1\AppData\Local\Temp\cc15HDCU.s:4484   .text.USB_HC_StartXfer:00000000 $t
C:\Users\DEVELO~1\AppData\Local\Temp\cc15HDCU.s:4491   .text.USB_HC_StartXfer:00000000 USB_HC_StartXfer
C:\Users\DEVELO~1\AppData\Local\Temp\cc15HDCU.s:4797   .text.USB_HC_StartXfer:00000154 $d
C:\Users\DEVELO~1\AppData\Local\Temp\cc15HDCU.s:4802   .text.USB_HC_StartXfer:00000158 $t
C:\Users\DEVELO~1\AppData\Local\Temp\cc15HDCU.s:4871   .text.USB_HC_StartXfer:000001ae $d
C:\Users\DEVELO~1\AppData\Local\Temp\cc15HDCU.s:4876   .text.USB_HC_StartXfer:000001b2 $t
C:\Users\DEVELO~1\AppData\Local\Temp\cc15HDCU.s:5196   .text.USB_HC_StartXfer:000002e0 $d
C:\Users\DEVELO~1\AppData\Local\Temp\cc15HDCU.s:5201   .text.USB_HC_ReadInterrupt:00000000 $t
C:\Users\DEVELO~1\AppData\Local\Temp\cc15HDCU.s:5208   .text.USB_HC_ReadInterrupt:00000000 USB_HC_ReadInterrupt
C:\Users\DEVELO~1\AppData\Local\Temp\cc15HDCU.s:5228   .text.USB_HC_Halt:00000000 $t
C:\Users\DEVELO~1\AppData\Local\Temp\cc15HDCU.s:5235   .text.USB_HC_Halt:00000000 USB_HC_Halt
C:\Users\DEVELO~1\AppData\Local\Temp\cc15HDCU.s:5465   .text.USB_DoPing:00000000 $t
C:\Users\DEVELO~1\AppData\Local\Temp\cc15HDCU.s:5472   .text.USB_DoPing:00000000 USB_DoPing
C:\Users\DEVELO~1\AppData\Local\Temp\cc15HDCU.s:5519   .text.USB_DoPing:00000020 $d
C:\Users\DEVELO~1\AppData\Local\Temp\cc15HDCU.s:5524   .text.USB_StopHost:00000000 $t
C:\Users\DEVELO~1\AppData\Local\Temp\cc15HDCU.s:5531   .text.USB_StopHost:00000000 USB_StopHost
ARM GAS  C:\Users\DEVELO~1\AppData\Local\Temp\cc15HDCU.s 			page 326


C:\Users\DEVELO~1\AppData\Local\Temp\cc15HDCU.s:5702   .text.USB_ActivateRemoteWakeup:00000000 $t
C:\Users\DEVELO~1\AppData\Local\Temp\cc15HDCU.s:5709   .text.USB_ActivateRemoteWakeup:00000000 USB_ActivateRemoteWakeup
C:\Users\DEVELO~1\AppData\Local\Temp\cc15HDCU.s:5743   .text.USB_DeActivateRemoteWakeup:00000000 $t
C:\Users\DEVELO~1\AppData\Local\Temp\cc15HDCU.s:5750   .text.USB_DeActivateRemoteWakeup:00000000 USB_DeActivateRemoteWakeup

UNDEFINED SYMBOLS
HAL_Delay
