ARM GAS  C:\Users\DEVELO~1\AppData\Local\Temp\cccWiZr8.s 			page 1


   1              		.cpu cortex-m7
   2              		.arch armv7e-m
   3              		.fpu softvfp
   4              		.eabi_attribute 20, 1
   5              		.eabi_attribute 21, 1
   6              		.eabi_attribute 23, 3
   7              		.eabi_attribute 24, 1
   8              		.eabi_attribute 25, 1
   9              		.eabi_attribute 26, 1
  10              		.eabi_attribute 30, 2
  11              		.eabi_attribute 34, 1
  12              		.eabi_attribute 18, 4
  13              		.file	"stm32_isr.c"
  14              		.text
  15              	.Ltext0:
  16              		.cfi_sections	.debug_frame
  17              		.section	.text.Vector104,"ax",%progbits
  18              		.align	1
  19              		.p2align 4,,15
  20              		.global	Vector104
  21              		.syntax unified
  22              		.thumb
  23              		.thumb_func
  24              		.type	Vector104, %function
  25              	Vector104:
  26              	.LFB463:
  27              		.file 1 "../../../os/hal/ports/STM32/LLD/SDMMCv2/stm32_sdmmc1.inc"
  28              		.loc 1 92 40 view -0
  29              		.cfi_startproc
  30              		@ args = 0, pretend = 0, frame = 0
  31              		@ frame_needed = 0, uses_anonymous_args = 0
  32              		.loc 1 94 3 view .LVU1
  33              		.loc 1 94 3 view .LVU2
  34              		.loc 1 94 3 view .LVU3
  35              		.loc 1 94 3 view .LVU4
  36              		.loc 1 94 3 view .LVU5
  37              		.loc 1 92 40 is_stmt 0 view .LVU6
  38 0000 10B5     		push	{r4, lr}
  39              		.cfi_def_cfa_offset 8
  40              		.cfi_offset 4, -8
  41              		.cfi_offset 14, -4
  42              		.loc 1 94 3 view .LVU7
  43 0002 074C     		ldr	r4, .L4
  44 0004 2046     		mov	r0, r4
  45 0006 FFF7FEFF 		bl	__trace_isr_enter
  46              	.LVL0:
  47              		.loc 1 94 22 is_stmt 1 view .LVU8
  48              		.loc 1 98 3 view .LVU9
  49 000a 0648     		ldr	r0, .L4+4
  50 000c FFF7FEFF 		bl	sdc_lld_serve_interrupt
  51              	.LVL1:
  52              		.loc 1 102 3 view .LVU10
  53              		.loc 1 102 3 view .LVU11
  54 0010 2046     		mov	r0, r4
  55 0012 FFF7FEFF 		bl	__trace_isr_leave
  56              	.LVL2:
  57              		.loc 1 102 3 view .LVU12
ARM GAS  C:\Users\DEVELO~1\AppData\Local\Temp\cccWiZr8.s 			page 2


  58              		.loc 1 102 3 view .LVU13
  59              		.loc 1 102 3 view .LVU14
  60              		.loc 1 103 1 is_stmt 0 view .LVU15
  61 0016 BDE81040 		pop	{r4, lr}
  62              		.cfi_restore 14
  63              		.cfi_restore 4
  64              		.cfi_def_cfa_offset 0
  65              		.loc 1 102 3 view .LVU16
  66 001a FFF7FEBF 		b	__port_irq_epilogue
  67              	.LVL3:
  68              	.L5:
  69 001e 00BF     		.align	2
  70              	.L4:
  71 0020 00000000 		.word	.LANCHOR0
  72 0024 00000000 		.word	SDCD1
  73              		.cfi_endproc
  74              	.LFE463:
  75              		.size	Vector104, .-Vector104
  76              		.section	.text.VectorDC,"ax",%progbits
  77              		.align	1
  78              		.p2align 4,,15
  79              		.global	VectorDC
  80              		.syntax unified
  81              		.thumb
  82              		.thumb_func
  83              		.type	VectorDC, %function
  84              	VectorDC:
  85              	.LFB472:
  86              		.file 2 "../../../os/hal/ports/STM32/LLD/USART/stm32_usart3.inc"
  87              		.loc 2 85 40 is_stmt 1 view -0
  88              		.cfi_startproc
  89              		@ args = 0, pretend = 0, frame = 0
  90              		@ frame_needed = 0, uses_anonymous_args = 0
  91              		.loc 2 87 3 view .LVU18
  92              		.loc 2 87 3 view .LVU19
  93              		.loc 2 87 3 view .LVU20
  94              		.loc 2 87 3 view .LVU21
  95              		.loc 2 87 3 view .LVU22
  96              		.loc 2 85 40 is_stmt 0 view .LVU23
  97 0000 10B5     		push	{r4, lr}
  98              		.cfi_def_cfa_offset 8
  99              		.cfi_offset 4, -8
 100              		.cfi_offset 14, -4
 101              		.loc 2 87 3 view .LVU24
 102 0002 074C     		ldr	r4, .L8
 103 0004 2046     		mov	r0, r4
 104 0006 FFF7FEFF 		bl	__trace_isr_enter
 105              	.LVL4:
 106              		.loc 2 87 22 is_stmt 1 view .LVU25
 107              		.loc 2 91 3 view .LVU26
 108 000a 0648     		ldr	r0, .L8+4
 109 000c FFF7FEFF 		bl	sd_lld_serve_interrupt
 110              	.LVL5:
 111              		.loc 2 107 3 view .LVU27
 112              		.loc 2 107 3 view .LVU28
 113 0010 2046     		mov	r0, r4
 114 0012 FFF7FEFF 		bl	__trace_isr_leave
ARM GAS  C:\Users\DEVELO~1\AppData\Local\Temp\cccWiZr8.s 			page 3


 115              	.LVL6:
 116              		.loc 2 107 3 view .LVU29
 117              		.loc 2 107 3 view .LVU30
 118              		.loc 2 107 3 view .LVU31
 119              		.loc 2 108 1 is_stmt 0 view .LVU32
 120 0016 BDE81040 		pop	{r4, lr}
 121              		.cfi_restore 14
 122              		.cfi_restore 4
 123              		.cfi_def_cfa_offset 0
 124              		.loc 2 107 3 view .LVU33
 125 001a FFF7FEBF 		b	__port_irq_epilogue
 126              	.LVL7:
 127              	.L9:
 128 001e 00BF     		.align	2
 129              	.L8:
 130 0020 00000000 		.word	.LANCHOR1
 131 0024 00000000 		.word	SD3
 132              		.cfi_endproc
 133              	.LFE472:
 134              		.size	VectorDC, .-VectorDC
 135              		.section	.text.VectorB0,"ax",%progbits
 136              		.align	1
 137              		.p2align 4,,15
 138              		.global	VectorB0
 139              		.syntax unified
 140              		.thumb
 141              		.thumb_func
 142              		.type	VectorB0, %function
 143              	VectorB0:
 144              	.LFB493:
 145              		.file 3 "../../../os/hal/ports/STM32/LLD/TIMv1/stm32_tim2.inc"
 146              		.loc 3 100 38 is_stmt 1 view -0
 147              		.cfi_startproc
 148              		@ args = 0, pretend = 0, frame = 0
 149              		@ frame_needed = 0, uses_anonymous_args = 0
 150              		.loc 3 102 3 view .LVU35
 151              		.loc 3 102 3 view .LVU36
 152              		.loc 3 102 3 view .LVU37
 153              		.loc 3 102 3 view .LVU38
 154              		.loc 3 102 3 view .LVU39
 155              		.loc 3 100 38 is_stmt 0 view .LVU40
 156 0000 10B5     		push	{r4, lr}
 157              		.cfi_def_cfa_offset 8
 158              		.cfi_offset 4, -8
 159              		.cfi_offset 14, -4
 160              		.loc 3 102 3 view .LVU41
 161 0002 064C     		ldr	r4, .L12
 162 0004 2046     		mov	r0, r4
 163 0006 FFF7FEFF 		bl	__trace_isr_enter
 164              	.LVL8:
 165              		.loc 3 102 22 is_stmt 1 view .LVU42
 166              		.loc 3 121 3 view .LVU43
 167 000a FFF7FEFF 		bl	st_lld_serve_interrupt
 168              	.LVL9:
 169              		.loc 3 125 3 view .LVU44
 170              		.loc 3 125 3 view .LVU45
 171 000e 2046     		mov	r0, r4
ARM GAS  C:\Users\DEVELO~1\AppData\Local\Temp\cccWiZr8.s 			page 4


 172 0010 FFF7FEFF 		bl	__trace_isr_leave
 173              	.LVL10:
 174              		.loc 3 125 3 view .LVU46
 175              		.loc 3 125 3 view .LVU47
 176              		.loc 3 125 3 view .LVU48
 177              		.loc 3 126 1 is_stmt 0 view .LVU49
 178 0014 BDE81040 		pop	{r4, lr}
 179              		.cfi_restore 14
 180              		.cfi_restore 4
 181              		.cfi_def_cfa_offset 0
 182              		.loc 3 125 3 view .LVU50
 183 0018 FFF7FEBF 		b	__port_irq_epilogue
 184              	.LVL11:
 185              	.L13:
 186              		.align	2
 187              	.L12:
 188 001c 00000000 		.word	.LANCHOR2
 189              		.cfi_endproc
 190              	.LFE493:
 191              		.size	VectorB0, .-VectorB0
 192              		.section	.text.irqInit,"ax",%progbits
 193              		.align	1
 194              		.p2align 4,,15
 195              		.global	irqInit
 196              		.syntax unified
 197              		.thumb
 198              		.thumb_func
 199              		.type	irqInit, %function
 200              	irqInit:
 201              	.LFB506:
 202              		.file 4 "../../../os/hal/ports/STM32/STM32H7xx/stm32_isr.c"
 203              		.loc 4 110 20 is_stmt 1 view -0
 204              		.cfi_startproc
 205              		@ args = 0, pretend = 0, frame = 0
 206              		@ frame_needed = 0, uses_anonymous_args = 0
 207              		.loc 4 112 3 view .LVU52
 208              		.loc 4 113 3 view .LVU53
 209              		.loc 4 114 3 view .LVU54
 210              		.loc 4 115 3 view .LVU55
 211              		.loc 4 116 3 view .LVU56
 212              		.loc 4 117 3 view .LVU57
 213              		.loc 4 118 3 view .LVU58
 214              		.loc 4 119 3 view .LVU59
 215              		.loc 4 120 3 view .LVU60
 216              		.loc 4 121 3 view .LVU61
 217              		.loc 4 122 3 view .LVU62
 218              		.loc 4 123 3 view .LVU63
 219              		.loc 4 125 3 view .LVU64
 220              		.loc 4 126 3 view .LVU65
 221              		.loc 4 128 3 view .LVU66
 222              		.loc 4 110 20 is_stmt 0 view .LVU67
 223 0000 08B5     		push	{r3, lr}
 224              		.cfi_def_cfa_offset 8
 225              		.cfi_offset 3, -8
 226              		.cfi_offset 14, -4
 227              		.loc 4 128 3 view .LVU68
 228 0002 0921     		movs	r1, #9
ARM GAS  C:\Users\DEVELO~1\AppData\Local\Temp\cccWiZr8.s 			page 5


 229 0004 7A20     		movs	r0, #122
 230 0006 FFF7FEFF 		bl	nvicEnableVector
 231              	.LVL12:
 232              		.loc 4 131 3 is_stmt 1 view .LVU69
 233              		.loc 4 137 3 view .LVU70
 234              	.LBB146:
 235              	.LBI146:
 236              		.loc 1 70 20 view .LVU71
 237              	.LBB147:
 238              		.loc 1 72 3 view .LVU72
 239 000a 0921     		movs	r1, #9
 240 000c 3120     		movs	r0, #49
 241 000e FFF7FEFF 		bl	nvicEnableVector
 242              	.LVL13:
 243              	.LBE147:
 244              	.LBE146:
 245              		.loc 4 138 3 view .LVU73
 246              		.loc 4 140 3 view .LVU74
 247              		.loc 4 141 3 view .LVU75
 248              	.LBB148:
 249              	.LBI148:
 250              		.loc 3 78 20 view .LVU76
 251              	.LBB149:
 252              		.loc 3 80 3 view .LVU77
 253 0012 0721     		movs	r1, #7
 254 0014 1C20     		movs	r0, #28
 255 0016 FFF7FEFF 		bl	nvicEnableVector
 256              	.LVL14:
 257              	.LBE149:
 258              	.LBE148:
 259              		.loc 4 142 3 view .LVU78
 260              		.loc 4 143 3 view .LVU79
 261              		.loc 4 144 3 view .LVU80
 262              		.loc 4 145 3 view .LVU81
 263              		.loc 4 146 3 view .LVU82
 264              		.loc 4 147 3 view .LVU83
 265              		.loc 4 149 3 view .LVU84
 266              		.loc 4 150 3 view .LVU85
 267              		.loc 4 151 3 view .LVU86
 268              	.LBB150:
 269              	.LBI150:
 270              		.loc 2 63 20 view .LVU87
 271              	.LBB151:
 272              		.loc 2 65 3 view .LVU88
 273 001a 0C21     		movs	r1, #12
 274 001c 2720     		movs	r0, #39
 275              	.LBE151:
 276              	.LBE150:
 277              		.loc 4 160 1 is_stmt 0 view .LVU89
 278 001e BDE80840 		pop	{r3, lr}
 279              		.cfi_restore 14
 280              		.cfi_restore 3
 281              		.cfi_def_cfa_offset 0
 282              	.LBB153:
 283              	.LBB152:
 284              		.loc 2 65 3 view .LVU90
 285 0022 FFF7FEBF 		b	nvicEnableVector
ARM GAS  C:\Users\DEVELO~1\AppData\Local\Temp\cccWiZr8.s 			page 6


 286              	.LVL15:
 287              	.LBE152:
 288              	.LBE153:
 289              		.cfi_endproc
 290              	.LFE506:
 291              		.size	irqInit, .-irqInit
 292 0026 00BF     		.section	.text.irqDeinit,"ax",%progbits
 293              		.align	1
 294              		.p2align 4,,15
 295              		.global	irqDeinit
 296              		.syntax unified
 297              		.thumb
 298              		.thumb_func
 299              		.type	irqDeinit, %function
 300              	irqDeinit:
 301              	.LFB507:
 302              		.loc 4 167 22 is_stmt 1 view -0
 303              		.cfi_startproc
 304              		@ args = 0, pretend = 0, frame = 0
 305              		@ frame_needed = 0, uses_anonymous_args = 0
 306              		.loc 4 169 3 view .LVU92
 307              		.loc 4 170 3 view .LVU93
 308              		.loc 4 171 3 view .LVU94
 309              		.loc 4 172 3 view .LVU95
 310              		.loc 4 173 3 view .LVU96
 311              		.loc 4 174 3 view .LVU97
 312              		.loc 4 175 3 view .LVU98
 313              		.loc 4 176 3 view .LVU99
 314              		.loc 4 177 3 view .LVU100
 315              		.loc 4 178 3 view .LVU101
 316              		.loc 4 179 3 view .LVU102
 317              		.loc 4 180 3 view .LVU103
 318              		.loc 4 182 3 view .LVU104
 319              		.loc 4 183 3 view .LVU105
 320              		.loc 4 185 3 view .LVU106
 321              		.loc 4 167 22 is_stmt 0 view .LVU107
 322 0000 08B5     		push	{r3, lr}
 323              		.cfi_def_cfa_offset 8
 324              		.cfi_offset 3, -8
 325              		.cfi_offset 14, -4
 326              		.loc 4 185 3 view .LVU108
 327 0002 7A20     		movs	r0, #122
 328 0004 FFF7FEFF 		bl	nvicDisableVector
 329              	.LVL16:
 330              		.loc 4 188 3 is_stmt 1 view .LVU109
 331              		.loc 4 194 3 view .LVU110
 332              	.LBB154:
 333              	.LBI154:
 334              		.loc 1 76 20 view .LVU111
 335              	.LBB155:
 336              		.loc 1 78 3 view .LVU112
 337 0008 3120     		movs	r0, #49
 338 000a FFF7FEFF 		bl	nvicDisableVector
 339              	.LVL17:
 340              	.LBE155:
 341              	.LBE154:
 342              		.loc 4 195 3 view .LVU113
ARM GAS  C:\Users\DEVELO~1\AppData\Local\Temp\cccWiZr8.s 			page 7


 343              		.loc 4 197 3 view .LVU114
 344              		.loc 4 198 3 view .LVU115
 345              	.LBB156:
 346              	.LBI156:
 347              		.loc 3 84 20 view .LVU116
 348              	.LBB157:
 349              		.loc 3 86 3 view .LVU117
 350 000e 1C20     		movs	r0, #28
 351 0010 FFF7FEFF 		bl	nvicDisableVector
 352              	.LVL18:
 353              	.LBE157:
 354              	.LBE156:
 355              		.loc 4 199 3 view .LVU118
 356              		.loc 4 200 3 view .LVU119
 357              		.loc 4 201 3 view .LVU120
 358              		.loc 4 202 3 view .LVU121
 359              		.loc 4 203 3 view .LVU122
 360              		.loc 4 204 3 view .LVU123
 361              		.loc 4 206 3 view .LVU124
 362              		.loc 4 207 3 view .LVU125
 363              		.loc 4 208 3 view .LVU126
 364              	.LBB158:
 365              	.LBI158:
 366              		.loc 2 69 20 view .LVU127
 367              	.LBB159:
 368              		.loc 2 71 3 view .LVU128
 369 0014 2720     		movs	r0, #39
 370              	.LBE159:
 371              	.LBE158:
 372              		.loc 4 217 1 is_stmt 0 view .LVU129
 373 0016 BDE80840 		pop	{r3, lr}
 374              		.cfi_restore 14
 375              		.cfi_restore 3
 376              		.cfi_def_cfa_offset 0
 377              	.LBB161:
 378              	.LBB160:
 379              		.loc 2 71 3 view .LVU130
 380 001a FFF7FEBF 		b	nvicDisableVector
 381              	.LVL19:
 382              	.LBE160:
 383              	.LBE161:
 384              		.cfi_endproc
 385              	.LFE507:
 386              		.size	irqDeinit, .-irqDeinit
 387 001e 00BF     		.section	.rodata.__func__.0,"a"
 388              		.align	2
 389              		.set	.LANCHOR2,. + 0
 390              		.type	__func__.0, %object
 391              		.size	__func__.0, 9
 392              	__func__.0:
 393 0000 56656374 		.ascii	"VectorB0\000"
 393      6F724230 
 393      00
 394              		.section	.rodata.__func__.1,"a"
 395              		.align	2
 396              		.set	.LANCHOR1,. + 0
 397              		.type	__func__.1, %object
ARM GAS  C:\Users\DEVELO~1\AppData\Local\Temp\cccWiZr8.s 			page 8


 398              		.size	__func__.1, 9
 399              	__func__.1:
 400 0000 56656374 		.ascii	"VectorDC\000"
 400      6F724443 
 400      00
 401              		.section	.rodata.__func__.2,"a"
 402              		.align	2
 403              		.set	.LANCHOR0,. + 0
 404              		.type	__func__.2, %object
 405              		.size	__func__.2, 10
 406              	__func__.2:
 407 0000 56656374 		.ascii	"Vector104\000"
 407      6F723130 
 407      3400
 408              		.text
 409              	.Letext0:
 410              		.file 5 "c:\\chibistudio\\tools\\gnu tools arm embedded\\11.3 2022.08\\lib\\gcc\\arm-none-eabi\\11
 411              		.file 6 "c:\\chibistudio\\tools\\gnu tools arm embedded\\11.3 2022.08\\arm-none-eabi\\include\\mac
 412              		.file 7 "c:\\chibistudio\\tools\\gnu tools arm embedded\\11.3 2022.08\\arm-none-eabi\\include\\sys
 413              		.file 8 "../../../os/common/ports/ARM-common/chtypes.h"
 414              		.file 9 "../../../os/rt/include/chearly.h"
 415              		.file 10 "../../../os/rt/include/chobjects.h"
 416              		.file 11 "../../../os/rt/include/chrfcu.h"
 417              		.file 12 "../../../os/rt/include/chdebug.h"
 418              		.file 13 "../../../os/rt/include/chtime.h"
 419              		.file 14 "../../../os/rt/include/chlists.h"
 420              		.file 15 "../../../os/rt/include/chtrace.h"
 421              		.file 16 "../../../os/common/ext/ST/STM32H7xx/stm32h743xx.h"
 422              		.file 17 "../../../os/common/ports/ARMv7-M/chcore.h"
 423              		.file 18 "../../../os/rt/include/chsem.h"
 424              		.file 19 "../../../os/rt/include/chmtx.h"
 425              		.file 20 "../../../os/rt/include/chevents.h"
 426              		.file 21 "../../../os/hal/include/hal_ioblock.h"
 427              		.file 22 "../../../os/hal/include/hal_queues.h"
 428              		.file 23 "../../../os/hal/include/hal_serial.h"
 429              		.file 24 "../../../os/hal/include/hal_sdc.h"
 430              		.file 25 "../../../os/hal/ports/STM32/LLD/SDMMCv2/hal_sdc_lld.h"
 431              		.file 26 "../../../os/hal/ports/common/ARMCMx/nvic.h"
 432              		.file 27 "../../../os/hal/ports/STM32/LLD/USARTv3/hal_serial_lld.h"
 433              		.file 28 "../../../os/hal/ports/STM32/LLD/SYSTICKv1/hal_st_lld.h"
 434              		.file 29 "../../../os/hal/ports/STM32/LLD/TIMv1/stm32_tim8_12_13_14.inc"
 435              		.file 30 "../../../os/hal/ports/STM32/LLD/TIMv1/stm32_tim7.inc"
 436              		.file 31 "../../../os/hal/ports/STM32/LLD/TIMv1/stm32_tim6.inc"
 437              		.file 32 "../../../os/hal/ports/STM32/LLD/TIMv1/stm32_tim5.inc"
 438              		.file 33 "../../../os/hal/ports/STM32/LLD/TIMv1/stm32_tim4.inc"
 439              		.file 34 "../../../os/hal/ports/STM32/LLD/TIMv1/stm32_tim3.inc"
 440              		.file 35 "../../../os/hal/ports/STM32/LLD/TIMv1/stm32_tim1.inc"
 441              		.file 36 "../../../os/hal/ports/STM32/LLD/USART/stm32_lpuart1.inc"
 442              		.file 37 "../../../os/hal/ports/STM32/LLD/USART/stm32_usart10.inc"
 443              		.file 38 "../../../os/hal/ports/STM32/LLD/USART/stm32_uart9.inc"
 444              		.file 39 "../../../os/hal/ports/STM32/LLD/USART/stm32_uart8.inc"
 445              		.file 40 "../../../os/hal/ports/STM32/LLD/USART/stm32_uart7.inc"
 446              		.file 41 "../../../os/hal/ports/STM32/LLD/USART/stm32_usart6.inc"
 447              		.file 42 "../../../os/hal/ports/STM32/LLD/USART/stm32_uart5.inc"
 448              		.file 43 "../../../os/hal/ports/STM32/LLD/USART/stm32_uart4.inc"
 449              		.file 44 "../../../os/hal/ports/STM32/LLD/USART/stm32_usart2.inc"
 450              		.file 45 "../../../os/hal/ports/STM32/LLD/USART/stm32_usart1.inc"
ARM GAS  C:\Users\DEVELO~1\AppData\Local\Temp\cccWiZr8.s 			page 9


 451              		.file 46 "../../../os/hal/ports/STM32/LLD/SDMMCv2/stm32_sdmmc2.inc"
 452              		.file 47 "../../../os/hal/ports/STM32/LLD/QUADSPIv2/stm32_quadspi1.inc"
 453              		.file 48 "../../../os/hal/ports/STM32/LLD/FDCANv1/stm32_fdcan2.inc"
 454              		.file 49 "../../../os/hal/ports/STM32/LLD/FDCANv1/stm32_fdcan1.inc"
 455              		.file 50 "../../../os/hal/ports/STM32/LLD/EXTIv1/stm32_exti20_21.inc"
 456              		.file 51 "../../../os/hal/ports/STM32/LLD/EXTIv1/stm32_exti19.inc"
 457              		.file 52 "../../../os/hal/ports/STM32/LLD/EXTIv1/stm32_exti18.inc"
 458              		.file 53 "../../../os/hal/ports/STM32/LLD/EXTIv1/stm32_exti17.inc"
 459              		.file 54 "../../../os/hal/ports/STM32/LLD/EXTIv1/stm32_exti16.inc"
 460              		.file 55 "../../../os/hal/ports/STM32/LLD/EXTIv1/stm32_exti10_15.inc"
 461              		.file 56 "../../../os/hal/ports/STM32/LLD/EXTIv1/stm32_exti5_9.inc"
 462              		.file 57 "../../../os/hal/ports/STM32/LLD/EXTIv1/stm32_exti4.inc"
 463              		.file 58 "../../../os/hal/ports/STM32/LLD/EXTIv1/stm32_exti3.inc"
 464              		.file 59 "../../../os/hal/ports/STM32/LLD/EXTIv1/stm32_exti2.inc"
 465              		.file 60 "../../../os/hal/ports/STM32/LLD/EXTIv1/stm32_exti1.inc"
 466              		.file 61 "../../../os/hal/ports/STM32/LLD/EXTIv1/stm32_exti0.inc"
 467              		.section	.debug_info,"",%progbits
 468              	.Ldebug_info0:
 469 0000 4F170000 		.4byte	0x174f
 470 0004 0500     		.2byte	0x5
 471 0006 01       		.byte	0x1
 472 0007 04       		.byte	0x4
 473 0008 00000000 		.4byte	.Ldebug_abbrev0
 474 000c 27       		.uleb128 0x27
 475 000d AD0A0000 		.4byte	.LASF318
 476 0011 1D       		.byte	0x1d
 477 0012 25040000 		.4byte	.LASF319
 478 0016 45060000 		.4byte	.LASF320
 479 001a 24000000 		.4byte	.LLRL2
 480 001e 00000000 		.4byte	0
 481 0022 00000000 		.4byte	.Ldebug_line0
 482 0026 28       		.uleb128 0x28
 483 0027 04       		.byte	0x4
 484 0028 05       		.byte	0x5
 485 0029 696E7400 		.ascii	"int\000"
 486 002d 03       		.uleb128 0x3
 487 002e 4C050000 		.4byte	.LASF4
 488 0032 05       		.byte	0x5
 489 0033 D1       		.byte	0xd1
 490 0034 17       		.byte	0x17
 491 0035 3E000000 		.4byte	0x3e
 492 0039 17       		.uleb128 0x17
 493 003a 2D000000 		.4byte	0x2d
 494 003e 0C       		.uleb128 0xc
 495 003f 04       		.byte	0x4
 496 0040 07       		.byte	0x7
 497 0041 59010000 		.4byte	.LASF0
 498 0045 0C       		.uleb128 0xc
 499 0046 08       		.byte	0x8
 500 0047 05       		.byte	0x5
 501 0048 9E050000 		.4byte	.LASF1
 502 004c 0C       		.uleb128 0xc
 503 004d 08       		.byte	0x8
 504 004e 04       		.byte	0x4
 505 004f 2A0A0000 		.4byte	.LASF2
 506 0053 0C       		.uleb128 0xc
 507 0054 01       		.byte	0x1
ARM GAS  C:\Users\DEVELO~1\AppData\Local\Temp\cccWiZr8.s 			page 10


 508 0055 06       		.byte	0x6
 509 0056 920E0000 		.4byte	.LASF3
 510 005a 03       		.uleb128 0x3
 511 005b 530C0000 		.4byte	.LASF5
 512 005f 06       		.byte	0x6
 513 0060 2B       		.byte	0x2b
 514 0061 18       		.byte	0x18
 515 0062 66000000 		.4byte	0x66
 516 0066 0C       		.uleb128 0xc
 517 0067 01       		.byte	0x1
 518 0068 08       		.byte	0x8
 519 0069 C10D0000 		.4byte	.LASF6
 520 006d 0C       		.uleb128 0xc
 521 006e 02       		.byte	0x2
 522 006f 05       		.byte	0x5
 523 0070 940B0000 		.4byte	.LASF7
 524 0074 03       		.uleb128 0x3
 525 0075 B0040000 		.4byte	.LASF8
 526 0079 06       		.byte	0x6
 527 007a 39       		.byte	0x39
 528 007b 19       		.byte	0x19
 529 007c 80000000 		.4byte	0x80
 530 0080 0C       		.uleb128 0xc
 531 0081 02       		.byte	0x2
 532 0082 07       		.byte	0x7
 533 0083 170A0000 		.4byte	.LASF9
 534 0087 03       		.uleb128 0x3
 535 0088 AB010000 		.4byte	.LASF10
 536 008c 06       		.byte	0x6
 537 008d 4D       		.byte	0x4d
 538 008e 18       		.byte	0x18
 539 008f 93000000 		.4byte	0x93
 540 0093 0C       		.uleb128 0xc
 541 0094 04       		.byte	0x4
 542 0095 05       		.byte	0x5
 543 0096 12000000 		.4byte	.LASF11
 544 009a 03       		.uleb128 0x3
 545 009b CF0D0000 		.4byte	.LASF12
 546 009f 06       		.byte	0x6
 547 00a0 4F       		.byte	0x4f
 548 00a1 19       		.byte	0x19
 549 00a2 A6000000 		.4byte	0xa6
 550 00a6 0C       		.uleb128 0xc
 551 00a7 04       		.byte	0x4
 552 00a8 07       		.byte	0x7
 553 00a9 7F090000 		.4byte	.LASF13
 554 00ad 03       		.uleb128 0x3
 555 00ae B7080000 		.4byte	.LASF14
 556 00b2 06       		.byte	0x6
 557 00b3 69       		.byte	0x69
 558 00b4 19       		.byte	0x19
 559 00b5 B9000000 		.4byte	0xb9
 560 00b9 0C       		.uleb128 0xc
 561 00ba 08       		.byte	0x8
 562 00bb 07       		.byte	0x7
 563 00bc 05040000 		.4byte	.LASF15
 564 00c0 03       		.uleb128 0x3
ARM GAS  C:\Users\DEVELO~1\AppData\Local\Temp\cccWiZr8.s 			page 11


 565 00c1 CD070000 		.4byte	.LASF16
 566 00c5 07       		.byte	0x7
 567 00c6 18       		.byte	0x18
 568 00c7 13       		.byte	0x13
 569 00c8 5A000000 		.4byte	0x5a
 570 00cc 0E       		.uleb128 0xe
 571 00cd C0000000 		.4byte	0xc0
 572 00d1 03       		.uleb128 0x3
 573 00d2 460A0000 		.4byte	.LASF17
 574 00d6 07       		.byte	0x7
 575 00d7 24       		.byte	0x24
 576 00d8 14       		.byte	0x14
 577 00d9 74000000 		.4byte	0x74
 578 00dd 03       		.uleb128 0x3
 579 00de 230D0000 		.4byte	.LASF18
 580 00e2 07       		.byte	0x7
 581 00e3 2C       		.byte	0x2c
 582 00e4 13       		.byte	0x13
 583 00e5 87000000 		.4byte	0x87
 584 00e9 03       		.uleb128 0x3
 585 00ea 7D010000 		.4byte	.LASF19
 586 00ee 07       		.byte	0x7
 587 00ef 30       		.byte	0x30
 588 00f0 14       		.byte	0x14
 589 00f1 9A000000 		.4byte	0x9a
 590 00f5 17       		.uleb128 0x17
 591 00f6 E9000000 		.4byte	0xe9
 592 00fa 0E       		.uleb128 0xe
 593 00fb F5000000 		.4byte	0xf5
 594 00ff 03       		.uleb128 0x3
 595 0100 2D0C0000 		.4byte	.LASF20
 596 0104 07       		.byte	0x7
 597 0105 3C       		.byte	0x3c
 598 0106 14       		.byte	0x14
 599 0107 AD000000 		.4byte	0xad
 600 010b 17       		.uleb128 0x17
 601 010c FF000000 		.4byte	0xff
 602 0110 03       		.uleb128 0x3
 603 0111 D80B0000 		.4byte	.LASF21
 604 0115 08       		.byte	0x8
 605 0116 48       		.byte	0x48
 606 0117 1D       		.byte	0x1d
 607 0118 FF000000 		.4byte	0xff
 608 011c 03       		.uleb128 0x3
 609 011d CE0E0000 		.4byte	.LASF22
 610 0121 09       		.byte	0x9
 611 0122 50       		.byte	0x50
 612 0123 19       		.byte	0x19
 613 0124 10010000 		.4byte	0x110
 614 0128 03       		.uleb128 0x3
 615 0129 F1090000 		.4byte	.LASF23
 616 012d 09       		.byte	0x9
 617 012e 53       		.byte	0x53
 618 012f 19       		.byte	0x19
 619 0130 C0000000 		.4byte	0xc0
 620 0134 03       		.uleb128 0x3
 621 0135 3A070000 		.4byte	.LASF24
ARM GAS  C:\Users\DEVELO~1\AppData\Local\Temp\cccWiZr8.s 			page 12


 622 0139 09       		.byte	0x9
 623 013a 54       		.byte	0x54
 624 013b 19       		.byte	0x19
 625 013c C0000000 		.4byte	0xc0
 626 0140 03       		.uleb128 0x3
 627 0141 B80C0000 		.4byte	.LASF25
 628 0145 09       		.byte	0x9
 629 0146 55       		.byte	0x55
 630 0147 19       		.byte	0x19
 631 0148 C0000000 		.4byte	0xc0
 632 014c 03       		.uleb128 0x3
 633 014d B7030000 		.4byte	.LASF26
 634 0151 09       		.byte	0x9
 635 0152 57       		.byte	0x57
 636 0153 19       		.byte	0x19
 637 0154 E9000000 		.4byte	0xe9
 638 0158 03       		.uleb128 0x3
 639 0159 9F080000 		.4byte	.LASF27
 640 015d 09       		.byte	0x9
 641 015e 58       		.byte	0x58
 642 015f 19       		.byte	0x19
 643 0160 DD000000 		.4byte	0xdd
 644 0164 03       		.uleb128 0x3
 645 0165 6B030000 		.4byte	.LASF28
 646 0169 09       		.byte	0x9
 647 016a 5A       		.byte	0x5a
 648 016b 19       		.byte	0x19
 649 016c E9000000 		.4byte	0xe9
 650 0170 03       		.uleb128 0x3
 651 0171 BA090000 		.4byte	.LASF29
 652 0175 09       		.byte	0x9
 653 0176 5B       		.byte	0x5b
 654 0177 19       		.byte	0x19
 655 0178 E9000000 		.4byte	0xe9
 656 017c 03       		.uleb128 0x3
 657 017d BB040000 		.4byte	.LASF30
 658 0181 09       		.byte	0x9
 659 0182 5C       		.byte	0x5c
 660 0183 19       		.byte	0x19
 661 0184 DD000000 		.4byte	0xdd
 662 0188 03       		.uleb128 0x3
 663 0189 BF0F0000 		.4byte	.LASF31
 664 018d 09       		.byte	0x9
 665 018e 80       		.byte	0x80
 666 018f 12       		.byte	0x12
 667 0190 3E000000 		.4byte	0x3e
 668 0194 03       		.uleb128 0x3
 669 0195 26050000 		.4byte	.LASF32
 670 0199 09       		.byte	0x9
 671 019a 85       		.byte	0x85
 672 019b 1A       		.byte	0x1a
 673 019c A0010000 		.4byte	0x1a0
 674 01a0 08       		.uleb128 0x8
 675 01a1 F9070000 		.4byte	.LASF47
 676 01a5 48       		.byte	0x48
 677 01a6 0A       		.byte	0xa
 678 01a7 9C       		.byte	0x9c
ARM GAS  C:\Users\DEVELO~1\AppData\Local\Temp\cccWiZr8.s 			page 13


 679 01a8 08       		.byte	0x8
 680 01a9 83020000 		.4byte	0x283
 681 01ad 09       		.uleb128 0x9
 682 01ae 68647200 		.ascii	"hdr\000"
 683 01b2 0A       		.byte	0xa
 684 01b3 AD       		.byte	0xad
 685 01b4 05       		.byte	0x5
 686 01b5 FF090000 		.4byte	0x9ff
 687 01b9 00       		.byte	0
 688 01ba 09       		.uleb128 0x9
 689 01bb 63747800 		.ascii	"ctx\000"
 690 01bf 0A       		.byte	0xa
 691 01c0 B1       		.byte	0xb1
 692 01c1 21       		.byte	0x21
 693 01c2 43090000 		.4byte	0x943
 694 01c6 0C       		.byte	0xc
 695 01c7 01       		.uleb128 0x1
 696 01c8 63070000 		.4byte	.LASF33
 697 01cc 0A       		.byte	0xa
 698 01cd B6       		.byte	0xb6
 699 01ce 21       		.byte	0x21
 700 01cf D1030000 		.4byte	0x3d1
 701 01d3 10       		.byte	0x10
 702 01d4 01       		.uleb128 0x1
 703 01d5 E8040000 		.4byte	.LASF34
 704 01d9 0A       		.byte	0xa
 705 01da BB       		.byte	0xbb
 706 01db 22       		.byte	0x22
 707 01dc 010B0000 		.4byte	0xb01
 708 01e0 18       		.byte	0x18
 709 01e1 01       		.uleb128 0x1
 710 01e2 46000000 		.4byte	.LASF35
 711 01e6 0A       		.byte	0xa
 712 01e7 C0       		.byte	0xc0
 713 01e8 22       		.byte	0x22
 714 01e9 6B030000 		.4byte	0x36b
 715 01ed 1C       		.byte	0x1c
 716 01ee 01       		.uleb128 0x1
 717 01ef 2B070000 		.4byte	.LASF36
 718 01f3 0A       		.byte	0xa
 719 01f4 C9       		.byte	0xc9
 720 01f5 22       		.byte	0x22
 721 01f6 060B0000 		.4byte	0xb06
 722 01fa 20       		.byte	0x20
 723 01fb 01       		.uleb128 0x1
 724 01fc 110E0000 		.4byte	.LASF37
 725 0200 0A       		.byte	0xa
 726 0201 CE       		.byte	0xce
 727 0202 21       		.byte	0x21
 728 0203 34010000 		.4byte	0x134
 729 0207 24       		.byte	0x24
 730 0208 01       		.uleb128 0x1
 731 0209 AA000000 		.4byte	.LASF38
 732 020d 0A       		.byte	0xa
 733 020e D2       		.byte	0xd2
 734 020f 21       		.byte	0x21
 735 0210 28010000 		.4byte	0x128
ARM GAS  C:\Users\DEVELO~1\AppData\Local\Temp\cccWiZr8.s 			page 14


 736 0214 25       		.byte	0x25
 737 0215 01       		.uleb128 0x1
 738 0216 B5010000 		.4byte	.LASF39
 739 021a 0A       		.byte	0xa
 740 021b D7       		.byte	0xd7
 741 021c 21       		.byte	0x21
 742 021d 40010000 		.4byte	0x140
 743 0221 26       		.byte	0x26
 744 0222 07       		.uleb128 0x7
 745 0223 7500     		.ascii	"u\000"
 746 0225 0A       		.byte	0xa
 747 0226 2801     		.2byte	0x128
 748 0228 21       		.byte	0x21
 749 0229 2C0A0000 		.4byte	0xa2c
 750 022d 28       		.byte	0x28
 751 022e 04       		.uleb128 0x4
 752 022f DA0D0000 		.4byte	.LASF40
 753 0233 0A       		.byte	0xa
 754 0234 2D01     		.2byte	0x12d
 755 0236 21       		.byte	0x21
 756 0237 A5030000 		.4byte	0x3a5
 757 023b 2C       		.byte	0x2c
 758 023c 04       		.uleb128 0x4
 759 023d BF030000 		.4byte	.LASF41
 760 0241 0A       		.byte	0xa
 761 0242 3301     		.2byte	0x133
 762 0244 21       		.byte	0x21
 763 0245 D1030000 		.4byte	0x3d1
 764 0249 30       		.byte	0x30
 765 024a 04       		.uleb128 0x4
 766 024b 50010000 		.4byte	.LASF42
 767 024f 0A       		.byte	0xa
 768 0250 3901     		.2byte	0x139
 769 0252 21       		.byte	0x21
 770 0253 64010000 		.4byte	0x164
 771 0257 38       		.byte	0x38
 772 0258 04       		.uleb128 0x4
 773 0259 02050000 		.4byte	.LASF43
 774 025d 0A       		.byte	0xa
 775 025e 4001     		.2byte	0x140
 776 0260 22       		.byte	0x22
 777 0261 FC0A0000 		.4byte	0xafc
 778 0265 3C       		.byte	0x3c
 779 0266 04       		.uleb128 0x4
 780 0267 D1000000 		.4byte	.LASF44
 781 026b 0A       		.byte	0xa
 782 026c 4401     		.2byte	0x144
 783 026e 21       		.byte	0x21
 784 026f 4C010000 		.4byte	0x14c
 785 0273 40       		.byte	0x40
 786 0274 04       		.uleb128 0x4
 787 0275 C90F0000 		.4byte	.LASF45
 788 0279 0A       		.byte	0xa
 789 027a 4B01     		.2byte	0x14b
 790 027c 22       		.byte	0x22
 791 027d BF040000 		.4byte	0x4bf
 792 0281 44       		.byte	0x44
ARM GAS  C:\Users\DEVELO~1\AppData\Local\Temp\cccWiZr8.s 			page 15


 793 0282 00       		.byte	0
 794 0283 03       		.uleb128 0x3
 795 0284 1F0E0000 		.4byte	.LASF46
 796 0288 09       		.byte	0x9
 797 0289 8A       		.byte	0x8a
 798 028a 1F       		.byte	0x1f
 799 028b 8F020000 		.4byte	0x28f
 800 028f 29       		.uleb128 0x29
 801 0290 04060000 		.4byte	.LASF48
 802 0294 9008     		.2byte	0x890
 803 0296 0A       		.byte	0xa
 804 0297 8A01     		.2byte	0x18a
 805 0299 08       		.byte	0x8
 806 029a 1D030000 		.4byte	0x31d
 807 029e 04       		.uleb128 0x4
 808 029f 470C0000 		.4byte	.LASF49
 809 02a3 0A       		.byte	0xa
 810 02a4 8E01     		.2byte	0x18e
 811 02a6 21       		.byte	0x21
 812 02a7 360B0000 		.4byte	0xb36
 813 02ab 00       		.byte	0
 814 02ac 04       		.uleb128 0x4
 815 02ad 10020000 		.4byte	.LASF50
 816 02b1 0A       		.byte	0xa
 817 02b2 9201     		.2byte	0x192
 818 02b4 21       		.byte	0x21
 819 02b5 99090000 		.4byte	0x999
 820 02b9 10       		.byte	0x10
 821 02ba 04       		.uleb128 0x4
 822 02bb 590E0000 		.4byte	.LASF51
 823 02bf 0A       		.byte	0xa
 824 02c0 9901     		.2byte	0x199
 825 02c2 21       		.byte	0x21
 826 02c3 C0090000 		.4byte	0x9c0
 827 02c7 28       		.byte	0x28
 828 02c8 04       		.uleb128 0x4
 829 02c9 920F0000 		.4byte	.LASF52
 830 02cd 0A       		.byte	0xa
 831 02ce 9E01     		.2byte	0x19e
 832 02d0 21       		.byte	0x21
 833 02d1 88010000 		.4byte	0x188
 834 02d5 30       		.byte	0x30
 835 02d6 04       		.uleb128 0x4
 836 02d7 21050000 		.4byte	.LASF53
 837 02db 0A       		.byte	0xa
 838 02dc A401     		.2byte	0x1a4
 839 02de 21       		.byte	0x21
 840 02df 44030000 		.4byte	0x344
 841 02e3 34       		.byte	0x34
 842 02e4 04       		.uleb128 0x4
 843 02e5 970A0000 		.4byte	.LASF54
 844 02e9 0A       		.byte	0xa
 845 02ea A901     		.2byte	0x1a9
 846 02ec 22       		.byte	0x22
 847 02ed A80B0000 		.4byte	0xba8
 848 02f1 38       		.byte	0x38
 849 02f2 04       		.uleb128 0x4
ARM GAS  C:\Users\DEVELO~1\AppData\Local\Temp\cccWiZr8.s 			page 16


 850 02f3 060E0000 		.4byte	.LASF55
 851 02f7 0A       		.byte	0xa
 852 02f8 AD01     		.2byte	0x1ad
 853 02fa 21       		.byte	0x21
 854 02fb 94010000 		.4byte	0x194
 855 02ff 3C       		.byte	0x3c
 856 0300 07       		.uleb128 0x7
 857 0301 64626700 		.ascii	"dbg\000"
 858 0305 0A       		.byte	0xa
 859 0306 B101     		.2byte	0x1b1
 860 0308 21       		.byte	0x21
 861 0309 81030000 		.4byte	0x381
 862 030d 84       		.byte	0x84
 863 030e 04       		.uleb128 0x4
 864 030f 6C040000 		.4byte	.LASF56
 865 0313 0A       		.byte	0xa
 866 0314 B601     		.2byte	0x1b6
 867 0316 21       		.byte	0x21
 868 0317 1A060000 		.4byte	0x61a
 869 031b 88       		.byte	0x88
 870 031c 00       		.byte	0
 871 031d 03       		.uleb128 0x3
 872 031e 0F070000 		.4byte	.LASF57
 873 0322 0B       		.byte	0xb
 874 0323 3F       		.byte	0x3f
 875 0324 12       		.byte	0x12
 876 0325 E9000000 		.4byte	0xe9
 877 0329 08       		.uleb128 0x8
 878 032a 8C000000 		.4byte	.LASF58
 879 032e 04       		.byte	0x4
 880 032f 0B       		.byte	0xb
 881 0330 44       		.byte	0x44
 882 0331 10       		.byte	0x10
 883 0332 44030000 		.4byte	0x344
 884 0336 01       		.uleb128 0x1
 885 0337 5D090000 		.4byte	.LASF59
 886 033b 0B       		.byte	0xb
 887 033c 48       		.byte	0x48
 888 033d 21       		.byte	0x21
 889 033e 1D030000 		.4byte	0x31d
 890 0342 00       		.byte	0
 891 0343 00       		.byte	0
 892 0344 03       		.uleb128 0x3
 893 0345 2B0D0000 		.4byte	.LASF60
 894 0349 0B       		.byte	0xb
 895 034a 49       		.byte	0x49
 896 034b 03       		.byte	0x3
 897 034c 29030000 		.4byte	0x329
 898 0350 08       		.uleb128 0x8
 899 0351 07030000 		.4byte	.LASF61
 900 0355 04       		.byte	0x4
 901 0356 0C       		.byte	0xc
 902 0357 3E       		.byte	0x3e
 903 0358 10       		.byte	0x10
 904 0359 6B030000 		.4byte	0x36b
 905 035d 01       		.uleb128 0x1
 906 035e C7090000 		.4byte	.LASF62
ARM GAS  C:\Users\DEVELO~1\AppData\Local\Temp\cccWiZr8.s 			page 17


 907 0362 0C       		.byte	0xc
 908 0363 46       		.byte	0x46
 909 0364 24       		.byte	0x24
 910 0365 70030000 		.4byte	0x370
 911 0369 00       		.byte	0
 912 036a 00       		.byte	0
 913 036b 06       		.uleb128 0x6
 914 036c 7C030000 		.4byte	0x37c
 915 0370 17       		.uleb128 0x17
 916 0371 6B030000 		.4byte	0x36b
 917 0375 0C       		.uleb128 0xc
 918 0376 01       		.byte	0x1
 919 0377 08       		.byte	0x8
 920 0378 FA060000 		.4byte	.LASF63
 921 037c 0E       		.uleb128 0xe
 922 037d 75030000 		.4byte	0x375
 923 0381 03       		.uleb128 0x3
 924 0382 28080000 		.4byte	.LASF64
 925 0386 0C       		.byte	0xc
 926 0387 51       		.byte	0x51
 927 0388 03       		.byte	0x3
 928 0389 50030000 		.4byte	0x350
 929 038d 03       		.uleb128 0x3
 930 038e B0000000 		.4byte	.LASF65
 931 0392 0D       		.byte	0xd
 932 0393 6D       		.byte	0x6d
 933 0394 12       		.byte	0x12
 934 0395 E9000000 		.4byte	0xe9
 935 0399 03       		.uleb128 0x3
 936 039a A1090000 		.4byte	.LASF66
 937 039e 0D       		.byte	0xd
 938 039f 79       		.byte	0x79
 939 03a0 12       		.byte	0x12
 940 03a1 E9000000 		.4byte	0xe9
 941 03a5 03       		.uleb128 0x3
 942 03a6 660A0000 		.4byte	.LASF67
 943 03aa 0E       		.byte	0xe
 944 03ab 32       		.byte	0x32
 945 03ac 18       		.byte	0x18
 946 03ad B1030000 		.4byte	0x3b1
 947 03b1 08       		.uleb128 0x8
 948 03b2 34030000 		.4byte	.LASF68
 949 03b6 04       		.byte	0x4
 950 03b7 0E       		.byte	0xe
 951 03b8 38       		.byte	0x38
 952 03b9 08       		.byte	0x8
 953 03ba CC030000 		.4byte	0x3cc
 954 03be 01       		.uleb128 0x1
 955 03bf 66010000 		.4byte	.LASF69
 956 03c3 0E       		.byte	0xe
 957 03c4 39       		.byte	0x39
 958 03c5 1A       		.byte	0x1a
 959 03c6 CC030000 		.4byte	0x3cc
 960 03ca 00       		.byte	0
 961 03cb 00       		.byte	0
 962 03cc 06       		.uleb128 0x6
 963 03cd A5030000 		.4byte	0x3a5
ARM GAS  C:\Users\DEVELO~1\AppData\Local\Temp\cccWiZr8.s 			page 18


 964 03d1 03       		.uleb128 0x3
 965 03d2 AF090000 		.4byte	.LASF70
 966 03d6 0E       		.byte	0xe
 967 03d7 3F       		.byte	0x3f
 968 03d8 19       		.byte	0x19
 969 03d9 DD030000 		.4byte	0x3dd
 970 03dd 08       		.uleb128 0x8
 971 03de 840D0000 		.4byte	.LASF71
 972 03e2 08       		.byte	0x8
 973 03e3 0E       		.byte	0xe
 974 03e4 45       		.byte	0x45
 975 03e5 08       		.byte	0x8
 976 03e6 05040000 		.4byte	0x405
 977 03ea 01       		.uleb128 0x1
 978 03eb 66010000 		.4byte	.LASF69
 979 03ef 0E       		.byte	0xe
 980 03f0 46       		.byte	0x46
 981 03f1 1A       		.byte	0x1a
 982 03f2 05040000 		.4byte	0x405
 983 03f6 00       		.byte	0
 984 03f7 01       		.uleb128 0x1
 985 03f8 8D020000 		.4byte	.LASF72
 986 03fc 0E       		.byte	0xe
 987 03fd 47       		.byte	0x47
 988 03fe 1A       		.byte	0x1a
 989 03ff 05040000 		.4byte	0x405
 990 0403 04       		.byte	0x4
 991 0404 00       		.byte	0
 992 0405 06       		.uleb128 0x6
 993 0406 D1030000 		.4byte	0x3d1
 994 040a 03       		.uleb128 0x3
 995 040b 5A050000 		.4byte	.LASF73
 996 040f 0E       		.byte	0xe
 997 0410 4E       		.byte	0x4e
 998 0411 22       		.byte	0x22
 999 0412 16040000 		.4byte	0x416
 1000 0416 08       		.uleb128 0x8
 1001 0417 520D0000 		.4byte	.LASF74
 1002 041b 0C       		.byte	0xc
 1003 041c 0E       		.byte	0xe
 1004 041d 55       		.byte	0x55
 1005 041e 08       		.byte	0x8
 1006 041f 4B040000 		.4byte	0x44b
 1007 0423 01       		.uleb128 0x1
 1008 0424 66010000 		.4byte	.LASF69
 1009 0428 0E       		.byte	0xe
 1010 0429 56       		.byte	0x56
 1011 042a 1A       		.byte	0x1a
 1012 042b 4B040000 		.4byte	0x44b
 1013 042f 00       		.byte	0
 1014 0430 01       		.uleb128 0x1
 1015 0431 8D020000 		.4byte	.LASF72
 1016 0435 0E       		.byte	0xe
 1017 0436 57       		.byte	0x57
 1018 0437 1A       		.byte	0x1a
 1019 0438 4B040000 		.4byte	0x44b
 1020 043c 04       		.byte	0x4
ARM GAS  C:\Users\DEVELO~1\AppData\Local\Temp\cccWiZr8.s 			page 19


 1021 043d 01       		.uleb128 0x1
 1022 043e CB060000 		.4byte	.LASF75
 1023 0442 0E       		.byte	0xe
 1024 0443 58       		.byte	0x58
 1025 0444 19       		.byte	0x19
 1026 0445 4C010000 		.4byte	0x14c
 1027 0449 08       		.byte	0x8
 1028 044a 00       		.byte	0
 1029 044b 06       		.uleb128 0x6
 1030 044c 0A040000 		.4byte	0x40a
 1031 0450 03       		.uleb128 0x3
 1032 0451 FF060000 		.4byte	.LASF76
 1033 0455 0E       		.byte	0xe
 1034 0456 5F       		.byte	0x5f
 1035 0457 1E       		.byte	0x1e
 1036 0458 5C040000 		.4byte	0x45c
 1037 045c 08       		.uleb128 0x8
 1038 045d 3C030000 		.4byte	.LASF77
 1039 0461 0C       		.byte	0xc
 1040 0462 0E       		.byte	0xe
 1041 0463 64       		.byte	0x64
 1042 0464 08       		.byte	0x8
 1043 0465 91040000 		.4byte	0x491
 1044 0469 01       		.uleb128 0x1
 1045 046a 66010000 		.4byte	.LASF69
 1046 046e 0E       		.byte	0xe
 1047 046f 65       		.byte	0x65
 1048 0470 1A       		.byte	0x1a
 1049 0471 91040000 		.4byte	0x491
 1050 0475 00       		.byte	0
 1051 0476 01       		.uleb128 0x1
 1052 0477 8D020000 		.4byte	.LASF72
 1053 047b 0E       		.byte	0xe
 1054 047c 66       		.byte	0x66
 1055 047d 1A       		.byte	0x1a
 1056 047e 91040000 		.4byte	0x491
 1057 0482 04       		.byte	0x4
 1058 0483 01       		.uleb128 0x1
 1059 0484 AF0E0000 		.4byte	.LASF78
 1060 0488 0E       		.byte	0xe
 1061 0489 67       		.byte	0x67
 1062 048a 19       		.byte	0x19
 1063 048b 99030000 		.4byte	0x399
 1064 048f 08       		.byte	0x8
 1065 0490 00       		.byte	0
 1066 0491 06       		.uleb128 0x6
 1067 0492 50040000 		.4byte	0x450
 1068 0496 0F       		.uleb128 0xf
 1069 0497 08       		.byte	0x8
 1070 0498 0F       		.byte	0xf
 1071 0499 83       		.byte	0x83
 1072 049a 05       		.byte	0x5
 1073 049b BA040000 		.4byte	0x4ba
 1074 049f 09       		.uleb128 0x9
 1075 04a0 6E747000 		.ascii	"ntp\000"
 1076 04a4 0F       		.byte	0xf
 1077 04a5 87       		.byte	0x87
ARM GAS  C:\Users\DEVELO~1\AppData\Local\Temp\cccWiZr8.s 			page 20


 1078 04a6 1E       		.byte	0x1e
 1079 04a7 BA040000 		.4byte	0x4ba
 1080 04ab 00       		.byte	0
 1081 04ac 01       		.uleb128 0x1
 1082 04ad F9010000 		.4byte	.LASF79
 1083 04b1 0F       		.byte	0xf
 1084 04b2 8B       		.byte	0x8b
 1085 04b3 1E       		.byte	0x1e
 1086 04b4 BF040000 		.4byte	0x4bf
 1087 04b8 04       		.byte	0x4
 1088 04b9 00       		.byte	0
 1089 04ba 06       		.uleb128 0x6
 1090 04bb 94010000 		.4byte	0x194
 1091 04bf 2A       		.uleb128 0x2a
 1092 04c0 04       		.byte	0x4
 1093 04c1 0F       		.uleb128 0xf
 1094 04c2 08       		.byte	0x8
 1095 04c3 0F       		.byte	0xf
 1096 04c4 90       		.byte	0x90
 1097 04c5 05       		.byte	0x5
 1098 04c6 E4040000 		.4byte	0x4e4
 1099 04ca 09       		.uleb128 0x9
 1100 04cb 747000   		.ascii	"tp\000"
 1101 04ce 0F       		.byte	0xf
 1102 04cf 94       		.byte	0x94
 1103 04d0 1E       		.byte	0x1e
 1104 04d1 BA040000 		.4byte	0x4ba
 1105 04d5 00       		.byte	0
 1106 04d6 09       		.uleb128 0x9
 1107 04d7 6D736700 		.ascii	"msg\000"
 1108 04db 0F       		.byte	0xf
 1109 04dc 98       		.byte	0x98
 1110 04dd 1D       		.byte	0x1d
 1111 04de 58010000 		.4byte	0x158
 1112 04e2 04       		.byte	0x4
 1113 04e3 00       		.byte	0
 1114 04e4 0F       		.uleb128 0xf
 1115 04e5 04       		.byte	0x4
 1116 04e6 0F       		.byte	0xf
 1117 04e7 9D       		.byte	0x9d
 1118 04e8 05       		.byte	0x5
 1119 04e9 FB040000 		.4byte	0x4fb
 1120 04ed 01       		.uleb128 0x1
 1121 04ee 46000000 		.4byte	.LASF35
 1122 04f2 0F       		.byte	0xf
 1123 04f3 A1       		.byte	0xa1
 1124 04f4 1E       		.byte	0x1e
 1125 04f5 6B030000 		.4byte	0x36b
 1126 04f9 00       		.byte	0
 1127 04fa 00       		.byte	0
 1128 04fb 0F       		.uleb128 0xf
 1129 04fc 04       		.byte	0x4
 1130 04fd 0F       		.byte	0xf
 1131 04fe A6       		.byte	0xa6
 1132 04ff 05       		.byte	0x5
 1133 0500 12050000 		.4byte	0x512
 1134 0504 01       		.uleb128 0x1
ARM GAS  C:\Users\DEVELO~1\AppData\Local\Temp\cccWiZr8.s 			page 21


 1135 0505 65040000 		.4byte	.LASF80
 1136 0509 0F       		.byte	0xf
 1137 050a AA       		.byte	0xaa
 1138 050b 1E       		.byte	0x1e
 1139 050c 6B030000 		.4byte	0x36b
 1140 0510 00       		.byte	0
 1141 0511 00       		.byte	0
 1142 0512 0F       		.uleb128 0xf
 1143 0513 08       		.byte	0x8
 1144 0514 0F       		.byte	0xf
 1145 0515 AF       		.byte	0xaf
 1146 0516 05       		.byte	0x5
 1147 0517 36050000 		.4byte	0x536
 1148 051b 09       		.uleb128 0x9
 1149 051c 75703100 		.ascii	"up1\000"
 1150 0520 0F       		.byte	0xf
 1151 0521 B3       		.byte	0xb3
 1152 0522 1E       		.byte	0x1e
 1153 0523 BF040000 		.4byte	0x4bf
 1154 0527 00       		.byte	0
 1155 0528 09       		.uleb128 0x9
 1156 0529 75703200 		.ascii	"up2\000"
 1157 052d 0F       		.byte	0xf
 1158 052e B7       		.byte	0xb7
 1159 052f 1E       		.byte	0x1e
 1160 0530 BF040000 		.4byte	0x4bf
 1161 0534 04       		.byte	0x4
 1162 0535 00       		.byte	0
 1163 0536 1C       		.uleb128 0x1c
 1164 0537 08       		.byte	0x8
 1165 0538 0F       		.byte	0xf
 1166 0539 7F       		.byte	0x7f
 1167 053a 74050000 		.4byte	0x574
 1168 053e 1D       		.uleb128 0x1d
 1169 053f 737700   		.ascii	"sw\000"
 1170 0542 8C       		.byte	0x8c
 1171 0543 96040000 		.4byte	0x496
 1172 0547 1D       		.uleb128 0x1d
 1173 0548 72647900 		.ascii	"rdy\000"
 1174 054c 99       		.byte	0x99
 1175 054d C1040000 		.4byte	0x4c1
 1176 0551 1D       		.uleb128 0x1d
 1177 0552 69737200 		.ascii	"isr\000"
 1178 0556 A2       		.byte	0xa2
 1179 0557 E4040000 		.4byte	0x4e4
 1180 055b 10       		.uleb128 0x10
 1181 055c F0030000 		.4byte	.LASF81
 1182 0560 0F       		.byte	0xf
 1183 0561 AB       		.byte	0xab
 1184 0562 07       		.byte	0x7
 1185 0563 FB040000 		.4byte	0x4fb
 1186 0567 10       		.uleb128 0x10
 1187 0568 42050000 		.4byte	.LASF82
 1188 056c 0F       		.byte	0xf
 1189 056d B8       		.byte	0xb8
 1190 056e 07       		.byte	0x7
 1191 056f 12050000 		.4byte	0x512
ARM GAS  C:\Users\DEVELO~1\AppData\Local\Temp\cccWiZr8.s 			page 22


 1192 0573 00       		.byte	0
 1193 0574 0F       		.uleb128 0xf
 1194 0575 10       		.byte	0x10
 1195 0576 0F       		.byte	0xf
 1196 0577 6C       		.byte	0x6c
 1197 0578 09       		.byte	0x9
 1198 0579 BA050000 		.4byte	0x5ba
 1199 057d 1E       		.uleb128 0x1e
 1200 057e AC0D0000 		.4byte	.LASF83
 1201 0582 70       		.byte	0x70
 1202 0583 E9000000 		.4byte	0xe9
 1203 0587 03       		.byte	0x3
 1204 0588 00       		.byte	0
 1205 0589 1E       		.uleb128 0x1e
 1206 058a 110E0000 		.4byte	.LASF37
 1207 058e 74       		.byte	0x74
 1208 058f E9000000 		.4byte	0xe9
 1209 0593 05       		.byte	0x5
 1210 0594 03       		.byte	0x3
 1211 0595 1E       		.uleb128 0x1e
 1212 0596 100D0000 		.4byte	.LASF84
 1213 059a 7A       		.byte	0x7a
 1214 059b E9000000 		.4byte	0xe9
 1215 059f 18       		.byte	0x18
 1216 05a0 08       		.byte	0x8
 1217 05a1 01       		.uleb128 0x1
 1218 05a2 E3040000 		.4byte	.LASF85
 1219 05a6 0F       		.byte	0xf
 1220 05a7 7E       		.byte	0x7e
 1221 05a8 19       		.byte	0x19
 1222 05a9 8D030000 		.4byte	0x38d
 1223 05ad 04       		.byte	0x4
 1224 05ae 09       		.uleb128 0x9
 1225 05af 7500     		.ascii	"u\000"
 1226 05b1 0F       		.byte	0xf
 1227 05b2 B9       		.byte	0xb9
 1228 05b3 05       		.byte	0x5
 1229 05b4 36050000 		.4byte	0x536
 1230 05b8 08       		.byte	0x8
 1231 05b9 00       		.byte	0
 1232 05ba 03       		.uleb128 0x3
 1233 05bb 86030000 		.4byte	.LASF86
 1234 05bf 0F       		.byte	0xf
 1235 05c0 BA       		.byte	0xba
 1236 05c1 03       		.byte	0x3
 1237 05c2 74050000 		.4byte	0x574
 1238 05c6 2B       		.uleb128 0x2b
 1239 05c7 0808     		.2byte	0x808
 1240 05c9 0F       		.byte	0xf
 1241 05ca C0       		.byte	0xc0
 1242 05cb 09       		.byte	0x9
 1243 05cc 05060000 		.4byte	0x605
 1244 05d0 01       		.uleb128 0x1
 1245 05d1 E1000000 		.4byte	.LASF87
 1246 05d5 0F       		.byte	0xf
 1247 05d6 C4       		.byte	0xc4
 1248 05d7 19       		.byte	0x19
ARM GAS  C:\Users\DEVELO~1\AppData\Local\Temp\cccWiZr8.s 			page 23


 1249 05d8 D1000000 		.4byte	0xd1
 1250 05dc 00       		.byte	0
 1251 05dd 01       		.uleb128 0x1
 1252 05de 27090000 		.4byte	.LASF88
 1253 05e2 0F       		.byte	0xf
 1254 05e3 C8       		.byte	0xc8
 1255 05e4 19       		.byte	0x19
 1256 05e5 D1000000 		.4byte	0xd1
 1257 05e9 02       		.byte	0x2
 1258 05ea 09       		.uleb128 0x9
 1259 05eb 70747200 		.ascii	"ptr\000"
 1260 05ef 0F       		.byte	0xf
 1261 05f0 CC       		.byte	0xcc
 1262 05f1 1A       		.byte	0x1a
 1263 05f2 05060000 		.4byte	0x605
 1264 05f6 04       		.byte	0x4
 1265 05f7 01       		.uleb128 0x1
 1266 05f8 DA000000 		.4byte	.LASF89
 1267 05fc 0F       		.byte	0xf
 1268 05fd D0       		.byte	0xd0
 1269 05fe 19       		.byte	0x19
 1270 05ff 0A060000 		.4byte	0x60a
 1271 0603 08       		.byte	0x8
 1272 0604 00       		.byte	0
 1273 0605 06       		.uleb128 0x6
 1274 0606 BA050000 		.4byte	0x5ba
 1275 060a 11       		.uleb128 0x11
 1276 060b BA050000 		.4byte	0x5ba
 1277 060f 1A060000 		.4byte	0x61a
 1278 0613 12       		.uleb128 0x12
 1279 0614 3E000000 		.4byte	0x3e
 1280 0618 7F       		.byte	0x7f
 1281 0619 00       		.byte	0
 1282 061a 03       		.uleb128 0x3
 1283 061b D1090000 		.4byte	.LASF90
 1284 061f 0F       		.byte	0xf
 1285 0620 D1       		.byte	0xd1
 1286 0621 03       		.byte	0x3
 1287 0622 C6050000 		.4byte	0x5c6
 1288 0626 11       		.uleb128 0x11
 1289 0627 E9000000 		.4byte	0xe9
 1290 062b 36060000 		.4byte	0x636
 1291 062f 12       		.uleb128 0x12
 1292 0630 3E000000 		.4byte	0x3e
 1293 0634 07       		.byte	0x7
 1294 0635 00       		.byte	0
 1295 0636 11       		.uleb128 0x11
 1296 0637 E9000000 		.4byte	0xe9
 1297 063b 46060000 		.4byte	0x646
 1298 063f 12       		.uleb128 0x12
 1299 0640 3E000000 		.4byte	0x3e
 1300 0644 03       		.byte	0x3
 1301 0645 00       		.byte	0
 1302 0646 11       		.uleb128 0x11
 1303 0647 E9000000 		.4byte	0xe9
 1304 064b 56060000 		.4byte	0x656
 1305 064f 12       		.uleb128 0x12
ARM GAS  C:\Users\DEVELO~1\AppData\Local\Temp\cccWiZr8.s 			page 24


 1306 0650 3E000000 		.4byte	0x3e
 1307 0654 02       		.byte	0x2
 1308 0655 00       		.byte	0
 1309 0656 2C       		.uleb128 0x2c
 1310 0657 0004     		.2byte	0x400
 1311 0659 10       		.byte	0x10
 1312 065a 7D05     		.2byte	0x57d
 1313 065c 09       		.byte	0x9
 1314 065d CF070000 		.4byte	0x7cf
 1315 0661 04       		.uleb128 0x4
 1316 0662 850C0000 		.4byte	.LASF91
 1317 0666 10       		.byte	0x10
 1318 0667 7F05     		.2byte	0x57f
 1319 0669 11       		.byte	0x11
 1320 066a F5000000 		.4byte	0xf5
 1321 066e 00       		.byte	0
 1322 066f 04       		.uleb128 0x4
 1323 0670 A60B0000 		.4byte	.LASF92
 1324 0674 10       		.byte	0x10
 1325 0675 8005     		.2byte	0x580
 1326 0677 11       		.byte	0x11
 1327 0678 F5000000 		.4byte	0xf5
 1328 067c 04       		.byte	0x4
 1329 067d 07       		.uleb128 0x7
 1330 067e 41524700 		.ascii	"ARG\000"
 1331 0682 10       		.byte	0x10
 1332 0683 8105     		.2byte	0x581
 1333 0685 11       		.byte	0x11
 1334 0686 F5000000 		.4byte	0xf5
 1335 068a 08       		.byte	0x8
 1336 068b 07       		.uleb128 0x7
 1337 068c 434D4400 		.ascii	"CMD\000"
 1338 0690 10       		.byte	0x10
 1339 0691 8205     		.2byte	0x582
 1340 0693 11       		.byte	0x11
 1341 0694 F5000000 		.4byte	0xf5
 1342 0698 0C       		.byte	0xc
 1343 0699 04       		.uleb128 0x4
 1344 069a 170E0000 		.4byte	.LASF93
 1345 069e 10       		.byte	0x10
 1346 069f 8305     		.2byte	0x583
 1347 06a1 11       		.byte	0x11
 1348 06a2 FA000000 		.4byte	0xfa
 1349 06a6 10       		.byte	0x10
 1350 06a7 04       		.uleb128 0x4
 1351 06a8 E2060000 		.4byte	.LASF94
 1352 06ac 10       		.byte	0x10
 1353 06ad 8405     		.2byte	0x584
 1354 06af 11       		.byte	0x11
 1355 06b0 FA000000 		.4byte	0xfa
 1356 06b4 14       		.byte	0x14
 1357 06b5 04       		.uleb128 0x4
 1358 06b6 E8060000 		.4byte	.LASF95
 1359 06ba 10       		.byte	0x10
 1360 06bb 8505     		.2byte	0x585
 1361 06bd 11       		.byte	0x11
 1362 06be FA000000 		.4byte	0xfa
ARM GAS  C:\Users\DEVELO~1\AppData\Local\Temp\cccWiZr8.s 			page 25


 1363 06c2 18       		.byte	0x18
 1364 06c3 04       		.uleb128 0x4
 1365 06c4 EE060000 		.4byte	.LASF96
 1366 06c8 10       		.byte	0x10
 1367 06c9 8605     		.2byte	0x586
 1368 06cb 11       		.byte	0x11
 1369 06cc FA000000 		.4byte	0xfa
 1370 06d0 1C       		.byte	0x1c
 1371 06d1 04       		.uleb128 0x4
 1372 06d2 F4060000 		.4byte	.LASF97
 1373 06d6 10       		.byte	0x10
 1374 06d7 8705     		.2byte	0x587
 1375 06d9 11       		.byte	0x11
 1376 06da FA000000 		.4byte	0xfa
 1377 06de 20       		.byte	0x20
 1378 06df 04       		.uleb128 0x4
 1379 06e0 C90B0000 		.4byte	.LASF98
 1380 06e4 10       		.byte	0x10
 1381 06e5 8805     		.2byte	0x588
 1382 06e7 11       		.byte	0x11
 1383 06e8 F5000000 		.4byte	0xf5
 1384 06ec 24       		.byte	0x24
 1385 06ed 04       		.uleb128 0x4
 1386 06ee 420C0000 		.4byte	.LASF99
 1387 06f2 10       		.byte	0x10
 1388 06f3 8905     		.2byte	0x589
 1389 06f5 11       		.byte	0x11
 1390 06f6 F5000000 		.4byte	0xf5
 1391 06fa 28       		.byte	0x28
 1392 06fb 04       		.uleb128 0x4
 1393 06fc 4D0C0000 		.4byte	.LASF100
 1394 0700 10       		.byte	0x10
 1395 0701 8A05     		.2byte	0x58a
 1396 0703 11       		.byte	0x11
 1397 0704 F5000000 		.4byte	0xf5
 1398 0708 2C       		.byte	0x2c
 1399 0709 04       		.uleb128 0x4
 1400 070a F30D0000 		.4byte	.LASF101
 1401 070e 10       		.byte	0x10
 1402 070f 8B05     		.2byte	0x58b
 1403 0711 11       		.byte	0x11
 1404 0712 FA000000 		.4byte	0xfa
 1405 0716 30       		.byte	0x30
 1406 0717 07       		.uleb128 0x7
 1407 0718 53544100 		.ascii	"STA\000"
 1408 071c 10       		.byte	0x10
 1409 071d 8C05     		.2byte	0x58c
 1410 071f 11       		.byte	0x11
 1411 0720 FA000000 		.4byte	0xfa
 1412 0724 34       		.byte	0x34
 1413 0725 07       		.uleb128 0x7
 1414 0726 49435200 		.ascii	"ICR\000"
 1415 072a 10       		.byte	0x10
 1416 072b 8D05     		.2byte	0x58d
 1417 072d 11       		.byte	0x11
 1418 072e F5000000 		.4byte	0xf5
 1419 0732 38       		.byte	0x38
ARM GAS  C:\Users\DEVELO~1\AppData\Local\Temp\cccWiZr8.s 			page 26


 1420 0733 04       		.uleb128 0x4
 1421 0734 FD040000 		.4byte	.LASF102
 1422 0738 10       		.byte	0x10
 1423 0739 8E05     		.2byte	0x58e
 1424 073b 11       		.byte	0x11
 1425 073c F5000000 		.4byte	0xf5
 1426 0740 3C       		.byte	0x3c
 1427 0741 04       		.uleb128 0x4
 1428 0742 D00B0000 		.4byte	.LASF103
 1429 0746 10       		.byte	0x10
 1430 0747 8F05     		.2byte	0x58f
 1431 0749 11       		.byte	0x11
 1432 074a F5000000 		.4byte	0xf5
 1433 074e 40       		.byte	0x40
 1434 074f 04       		.uleb128 0x4
 1435 0750 6A0B0000 		.4byte	.LASF104
 1436 0754 10       		.byte	0x10
 1437 0755 9005     		.2byte	0x590
 1438 0757 11       		.byte	0x11
 1439 0758 46060000 		.4byte	0x646
 1440 075c 44       		.byte	0x44
 1441 075d 04       		.uleb128 0x4
 1442 075e E6050000 		.4byte	.LASF105
 1443 0762 10       		.byte	0x10
 1444 0763 9105     		.2byte	0x591
 1445 0765 11       		.byte	0x11
 1446 0766 F5000000 		.4byte	0xf5
 1447 076a 50       		.byte	0x50
 1448 076b 04       		.uleb128 0x4
 1449 076c A30C0000 		.4byte	.LASF106
 1450 0770 10       		.byte	0x10
 1451 0771 9205     		.2byte	0x592
 1452 0773 11       		.byte	0x11
 1453 0774 F5000000 		.4byte	0xf5
 1454 0778 54       		.byte	0x54
 1455 0779 04       		.uleb128 0x4
 1456 077a 6C0F0000 		.4byte	.LASF107
 1457 077e 10       		.byte	0x10
 1458 077f 9305     		.2byte	0x593
 1459 0781 11       		.byte	0x11
 1460 0782 F5000000 		.4byte	0xf5
 1461 0786 58       		.byte	0x58
 1462 0787 04       		.uleb128 0x4
 1463 0788 760F0000 		.4byte	.LASF108
 1464 078c 10       		.byte	0x10
 1465 078d 9405     		.2byte	0x594
 1466 078f 11       		.byte	0x11
 1467 0790 F5000000 		.4byte	0xf5
 1468 0794 5C       		.byte	0x5c
 1469 0795 04       		.uleb128 0x4
 1470 0796 740B0000 		.4byte	.LASF109
 1471 079a 10       		.byte	0x10
 1472 079b 9505     		.2byte	0x595
 1473 079d 11       		.byte	0x11
 1474 079e 26060000 		.4byte	0x626
 1475 07a2 60       		.byte	0x60
 1476 07a3 04       		.uleb128 0x4
ARM GAS  C:\Users\DEVELO~1\AppData\Local\Temp\cccWiZr8.s 			page 27


 1477 07a4 62090000 		.4byte	.LASF110
 1478 07a8 10       		.byte	0x10
 1479 07a9 9605     		.2byte	0x596
 1480 07ab 11       		.byte	0x11
 1481 07ac F5000000 		.4byte	0xf5
 1482 07b0 80       		.byte	0x80
 1483 07b1 04       		.uleb128 0x4
 1484 07b2 620F0000 		.4byte	.LASF111
 1485 07b6 10       		.byte	0x10
 1486 07b7 9705     		.2byte	0x597
 1487 07b9 11       		.byte	0x11
 1488 07ba CF070000 		.4byte	0x7cf
 1489 07be 84       		.byte	0x84
 1490 07bf 2D       		.uleb128 0x2d
 1491 07c0 62020000 		.4byte	.LASF112
 1492 07c4 10       		.byte	0x10
 1493 07c5 9805     		.2byte	0x598
 1494 07c7 11       		.byte	0x11
 1495 07c8 F5000000 		.4byte	0xf5
 1496 07cc FC03     		.2byte	0x3fc
 1497 07ce 00       		.byte	0
 1498 07cf 11       		.uleb128 0x11
 1499 07d0 E9000000 		.4byte	0xe9
 1500 07d4 DF070000 		.4byte	0x7df
 1501 07d8 12       		.uleb128 0x12
 1502 07d9 3E000000 		.4byte	0x3e
 1503 07dd DD       		.byte	0xdd
 1504 07de 00       		.byte	0
 1505 07df 18       		.uleb128 0x18
 1506 07e0 F10E0000 		.4byte	.LASF113
 1507 07e4 10       		.byte	0x10
 1508 07e5 9905     		.2byte	0x599
 1509 07e7 56060000 		.4byte	0x656
 1510 07eb 2E       		.uleb128 0x2e
 1511 07ec 30       		.byte	0x30
 1512 07ed 10       		.byte	0x10
 1513 07ee 3906     		.2byte	0x639
 1514 07f0 09       		.byte	0x9
 1515 07f1 9E080000 		.4byte	0x89e
 1516 07f5 07       		.uleb128 0x7
 1517 07f6 43523100 		.ascii	"CR1\000"
 1518 07fa 10       		.byte	0x10
 1519 07fb 3B06     		.2byte	0x63b
 1520 07fd 11       		.byte	0x11
 1521 07fe F5000000 		.4byte	0xf5
 1522 0802 00       		.byte	0
 1523 0803 07       		.uleb128 0x7
 1524 0804 43523200 		.ascii	"CR2\000"
 1525 0808 10       		.byte	0x10
 1526 0809 3C06     		.2byte	0x63c
 1527 080b 11       		.byte	0x11
 1528 080c F5000000 		.4byte	0xf5
 1529 0810 04       		.byte	0x4
 1530 0811 07       		.uleb128 0x7
 1531 0812 43523300 		.ascii	"CR3\000"
 1532 0816 10       		.byte	0x10
 1533 0817 3D06     		.2byte	0x63d
ARM GAS  C:\Users\DEVELO~1\AppData\Local\Temp\cccWiZr8.s 			page 28


 1534 0819 11       		.byte	0x11
 1535 081a F5000000 		.4byte	0xf5
 1536 081e 08       		.byte	0x8
 1537 081f 07       		.uleb128 0x7
 1538 0820 42525200 		.ascii	"BRR\000"
 1539 0824 10       		.byte	0x10
 1540 0825 3E06     		.2byte	0x63e
 1541 0827 11       		.byte	0x11
 1542 0828 F5000000 		.4byte	0xf5
 1543 082c 0C       		.byte	0xc
 1544 082d 04       		.uleb128 0x4
 1545 082e 17030000 		.4byte	.LASF114
 1546 0832 10       		.byte	0x10
 1547 0833 3F06     		.2byte	0x63f
 1548 0835 11       		.byte	0x11
 1549 0836 F5000000 		.4byte	0xf5
 1550 083a 10       		.byte	0x10
 1551 083b 04       		.uleb128 0x4
 1552 083c D5070000 		.4byte	.LASF115
 1553 0840 10       		.byte	0x10
 1554 0841 4006     		.2byte	0x640
 1555 0843 11       		.byte	0x11
 1556 0844 F5000000 		.4byte	0xf5
 1557 0848 14       		.byte	0x14
 1558 0849 07       		.uleb128 0x7
 1559 084a 52515200 		.ascii	"RQR\000"
 1560 084e 10       		.byte	0x10
 1561 084f 4106     		.2byte	0x641
 1562 0851 11       		.byte	0x11
 1563 0852 F5000000 		.4byte	0xf5
 1564 0856 18       		.byte	0x18
 1565 0857 07       		.uleb128 0x7
 1566 0858 49535200 		.ascii	"ISR\000"
 1567 085c 10       		.byte	0x10
 1568 085d 4206     		.2byte	0x642
 1569 085f 11       		.byte	0x11
 1570 0860 F5000000 		.4byte	0xf5
 1571 0864 1C       		.byte	0x1c
 1572 0865 07       		.uleb128 0x7
 1573 0866 49435200 		.ascii	"ICR\000"
 1574 086a 10       		.byte	0x10
 1575 086b 4306     		.2byte	0x643
 1576 086d 11       		.byte	0x11
 1577 086e F5000000 		.4byte	0xf5
 1578 0872 20       		.byte	0x20
 1579 0873 07       		.uleb128 0x7
 1580 0874 52445200 		.ascii	"RDR\000"
 1581 0878 10       		.byte	0x10
 1582 0879 4406     		.2byte	0x644
 1583 087b 11       		.byte	0x11
 1584 087c F5000000 		.4byte	0xf5
 1585 0880 24       		.byte	0x24
 1586 0881 07       		.uleb128 0x7
 1587 0882 54445200 		.ascii	"TDR\000"
 1588 0886 10       		.byte	0x10
 1589 0887 4506     		.2byte	0x645
 1590 0889 11       		.byte	0x11
ARM GAS  C:\Users\DEVELO~1\AppData\Local\Temp\cccWiZr8.s 			page 29


 1591 088a F5000000 		.4byte	0xf5
 1592 088e 28       		.byte	0x28
 1593 088f 04       		.uleb128 0x4
 1594 0890 79040000 		.4byte	.LASF116
 1595 0894 10       		.byte	0x10
 1596 0895 4606     		.2byte	0x646
 1597 0897 11       		.byte	0x11
 1598 0898 F5000000 		.4byte	0xf5
 1599 089c 2C       		.byte	0x2c
 1600 089d 00       		.byte	0
 1601 089e 18       		.uleb128 0x18
 1602 089f F6050000 		.4byte	.LASF117
 1603 08a3 10       		.byte	0x10
 1604 08a4 4706     		.2byte	0x647
 1605 08a6 EB070000 		.4byte	0x7eb
 1606 08aa 0C       		.uleb128 0xc
 1607 08ab 04       		.byte	0x4
 1608 08ac 04       		.byte	0x4
 1609 08ad 94030000 		.4byte	.LASF118
 1610 08b1 0C       		.uleb128 0xc
 1611 08b2 08       		.byte	0x8
 1612 08b3 04       		.byte	0x4
 1613 08b4 370F0000 		.4byte	.LASF119
 1614 08b8 06       		.uleb128 0x6
 1615 08b9 C0000000 		.4byte	0xc0
 1616 08bd 19       		.uleb128 0x19
 1617 08be AC0B0000 		.4byte	.LASF120
 1618 08c2 24       		.byte	0x24
 1619 08c3 11       		.byte	0x11
 1620 08c4 E001     		.2byte	0x1e0
 1621 08c6 08       		.byte	0x8
 1622 08c7 43090000 		.4byte	0x943
 1623 08cb 07       		.uleb128 0x7
 1624 08cc 723400   		.ascii	"r4\000"
 1625 08cf 11       		.byte	0x11
 1626 08d0 F901     		.2byte	0x1f9
 1627 08d2 11       		.byte	0x11
 1628 08d3 E9000000 		.4byte	0xe9
 1629 08d7 00       		.byte	0
 1630 08d8 07       		.uleb128 0x7
 1631 08d9 723500   		.ascii	"r5\000"
 1632 08dc 11       		.byte	0x11
 1633 08dd FA01     		.2byte	0x1fa
 1634 08df 11       		.byte	0x11
 1635 08e0 E9000000 		.4byte	0xe9
 1636 08e4 04       		.byte	0x4
 1637 08e5 07       		.uleb128 0x7
 1638 08e6 723600   		.ascii	"r6\000"
 1639 08e9 11       		.byte	0x11
 1640 08ea FB01     		.2byte	0x1fb
 1641 08ec 11       		.byte	0x11
 1642 08ed E9000000 		.4byte	0xe9
 1643 08f1 08       		.byte	0x8
 1644 08f2 07       		.uleb128 0x7
 1645 08f3 723700   		.ascii	"r7\000"
 1646 08f6 11       		.byte	0x11
 1647 08f7 FC01     		.2byte	0x1fc
ARM GAS  C:\Users\DEVELO~1\AppData\Local\Temp\cccWiZr8.s 			page 30


 1648 08f9 11       		.byte	0x11
 1649 08fa E9000000 		.4byte	0xe9
 1650 08fe 0C       		.byte	0xc
 1651 08ff 07       		.uleb128 0x7
 1652 0900 723800   		.ascii	"r8\000"
 1653 0903 11       		.byte	0x11
 1654 0904 FD01     		.2byte	0x1fd
 1655 0906 11       		.byte	0x11
 1656 0907 E9000000 		.4byte	0xe9
 1657 090b 10       		.byte	0x10
 1658 090c 07       		.uleb128 0x7
 1659 090d 723900   		.ascii	"r9\000"
 1660 0910 11       		.byte	0x11
 1661 0911 FE01     		.2byte	0x1fe
 1662 0913 11       		.byte	0x11
 1663 0914 E9000000 		.4byte	0xe9
 1664 0918 14       		.byte	0x14
 1665 0919 07       		.uleb128 0x7
 1666 091a 72313000 		.ascii	"r10\000"
 1667 091e 11       		.byte	0x11
 1668 091f FF01     		.2byte	0x1ff
 1669 0921 11       		.byte	0x11
 1670 0922 E9000000 		.4byte	0xe9
 1671 0926 18       		.byte	0x18
 1672 0927 07       		.uleb128 0x7
 1673 0928 72313100 		.ascii	"r11\000"
 1674 092c 11       		.byte	0x11
 1675 092d 0002     		.2byte	0x200
 1676 092f 11       		.byte	0x11
 1677 0930 E9000000 		.4byte	0xe9
 1678 0934 1C       		.byte	0x1c
 1679 0935 07       		.uleb128 0x7
 1680 0936 6C7200   		.ascii	"lr\000"
 1681 0939 11       		.byte	0x11
 1682 093a 0102     		.2byte	0x201
 1683 093c 11       		.byte	0x11
 1684 093d E9000000 		.4byte	0xe9
 1685 0941 20       		.byte	0x20
 1686 0942 00       		.byte	0
 1687 0943 19       		.uleb128 0x19
 1688 0944 17020000 		.4byte	.LASF121
 1689 0948 04       		.byte	0x4
 1690 0949 11       		.byte	0x11
 1691 094a 0A02     		.2byte	0x20a
 1692 094c 08       		.byte	0x8
 1693 094d 5F090000 		.4byte	0x95f
 1694 0951 07       		.uleb128 0x7
 1695 0952 737000   		.ascii	"sp\000"
 1696 0955 11       		.byte	0x11
 1697 0956 0B02     		.2byte	0x20b
 1698 0958 1A       		.byte	0x1a
 1699 0959 5F090000 		.4byte	0x95f
 1700 095d 00       		.byte	0
 1701 095e 00       		.byte	0
 1702 095f 06       		.uleb128 0x6
 1703 0960 BD080000 		.4byte	0x8bd
 1704 0964 08       		.uleb128 0x8
ARM GAS  C:\Users\DEVELO~1\AppData\Local\Temp\cccWiZr8.s 			page 31


 1705 0965 0A050000 		.4byte	.LASF122
 1706 0969 18       		.byte	0x18
 1707 096a 0A       		.byte	0xa
 1708 096b 64       		.byte	0x64
 1709 096c 10       		.byte	0x10
 1710 096d 99090000 		.4byte	0x999
 1711 0971 01       		.uleb128 0x1
 1712 0972 1E0C0000 		.4byte	.LASF123
 1713 0976 0A       		.byte	0xa
 1714 0977 68       		.byte	0x68
 1715 0978 21       		.byte	0x21
 1716 0979 50040000 		.4byte	0x450
 1717 097d 00       		.byte	0
 1718 097e 01       		.uleb128 0x1
 1719 097f 240C0000 		.4byte	.LASF124
 1720 0983 0A       		.byte	0xa
 1721 0984 73       		.byte	0x73
 1722 0985 21       		.byte	0x21
 1723 0986 8D030000 		.4byte	0x38d
 1724 098a 0C       		.byte	0xc
 1725 098b 01       		.uleb128 0x1
 1726 098c 58020000 		.4byte	.LASF125
 1727 0990 0A       		.byte	0xa
 1728 0991 79       		.byte	0x79
 1729 0992 21       		.byte	0x21
 1730 0993 0B010000 		.4byte	0x10b
 1731 0997 10       		.byte	0x10
 1732 0998 00       		.byte	0
 1733 0999 03       		.uleb128 0x3
 1734 099a 700A0000 		.4byte	.LASF126
 1735 099e 0A       		.byte	0xa
 1736 099f 7B       		.byte	0x7b
 1737 09a0 03       		.byte	0x3
 1738 09a1 64090000 		.4byte	0x964
 1739 09a5 08       		.uleb128 0x8
 1740 09a6 77000000 		.4byte	.LASF127
 1741 09aa 08       		.byte	0x8
 1742 09ab 0A       		.byte	0xa
 1743 09ac 80       		.byte	0x80
 1744 09ad 10       		.byte	0x10
 1745 09ae C0090000 		.4byte	0x9c0
 1746 09b2 01       		.uleb128 0x1
 1747 09b3 180D0000 		.4byte	.LASF128
 1748 09b7 0A       		.byte	0xa
 1749 09b8 84       		.byte	0x84
 1750 09b9 21       		.byte	0x21
 1751 09ba D1030000 		.4byte	0x3d1
 1752 09be 00       		.byte	0
 1753 09bf 00       		.byte	0
 1754 09c0 03       		.uleb128 0x3
 1755 09c1 D9080000 		.4byte	.LASF129
 1756 09c5 0A       		.byte	0xa
 1757 09c6 85       		.byte	0x85
 1758 09c7 03       		.byte	0x3
 1759 09c8 A5090000 		.4byte	0x9a5
 1760 09cc 03       		.uleb128 0x3
 1761 09cd 59000000 		.4byte	.LASF130
ARM GAS  C:\Users\DEVELO~1\AppData\Local\Temp\cccWiZr8.s 			page 32


 1762 09d1 0A       		.byte	0xa
 1763 09d2 8A       		.byte	0x8a
 1764 09d3 14       		.byte	0x14
 1765 09d4 BA040000 		.4byte	0x4ba
 1766 09d8 08       		.uleb128 0x8
 1767 09d9 63080000 		.4byte	.LASF131
 1768 09dd 08       		.byte	0x8
 1769 09de 0A       		.byte	0xa
 1770 09df 8F       		.byte	0x8f
 1771 09e0 10       		.byte	0x10
 1772 09e1 F3090000 		.4byte	0x9f3
 1773 09e5 01       		.uleb128 0x1
 1774 09e6 180D0000 		.4byte	.LASF128
 1775 09ea 0A       		.byte	0xa
 1776 09eb 93       		.byte	0x93
 1777 09ec 21       		.byte	0x21
 1778 09ed D1030000 		.4byte	0x3d1
 1779 09f1 00       		.byte	0
 1780 09f2 00       		.byte	0
 1781 09f3 03       		.uleb128 0x3
 1782 09f4 67090000 		.4byte	.LASF132
 1783 09f8 0A       		.byte	0xa
 1784 09f9 94       		.byte	0x94
 1785 09fa 03       		.byte	0x3
 1786 09fb D8090000 		.4byte	0x9d8
 1787 09ff 1C       		.uleb128 0x1c
 1788 0a00 0C       		.byte	0xc
 1789 0a01 0A       		.byte	0xa
 1790 0a02 A0       		.byte	0xa0
 1791 0a03 2C0A0000 		.4byte	0xa2c
 1792 0a07 10       		.uleb128 0x10
 1793 0a08 1C030000 		.4byte	.LASF133
 1794 0a0c 0A       		.byte	0xa
 1795 0a0d A4       		.byte	0xa4
 1796 0a0e 21       		.byte	0x21
 1797 0a0f A5030000 		.4byte	0x3a5
 1798 0a13 10       		.uleb128 0x10
 1799 0a14 180D0000 		.4byte	.LASF128
 1800 0a18 0A       		.byte	0xa
 1801 0a19 A8       		.byte	0xa8
 1802 0a1a 21       		.byte	0x21
 1803 0a1b D1030000 		.4byte	0x3d1
 1804 0a1f 10       		.uleb128 0x10
 1805 0a20 95040000 		.4byte	.LASF134
 1806 0a24 0A       		.byte	0xa
 1807 0a25 AC       		.byte	0xac
 1808 0a26 21       		.byte	0x21
 1809 0a27 0A040000 		.4byte	0x40a
 1810 0a2b 00       		.byte	0
 1811 0a2c 1C       		.uleb128 0x1c
 1812 0a2d 04       		.byte	0x4
 1813 0a2e 0A       		.byte	0xa
 1814 0a2f EB       		.byte	0xeb
 1815 0a30 950A0000 		.4byte	0xa95
 1816 0a34 10       		.uleb128 0x10
 1817 0a35 53050000 		.4byte	.LASF135
 1818 0a39 0A       		.byte	0xa
ARM GAS  C:\Users\DEVELO~1\AppData\Local\Temp\cccWiZr8.s 			page 33


 1819 0a3a F2       		.byte	0xf2
 1820 0a3b 21       		.byte	0x21
 1821 0a3c 58010000 		.4byte	0x158
 1822 0a40 10       		.uleb128 0x10
 1823 0a41 B60F0000 		.4byte	.LASF136
 1824 0a45 0A       		.byte	0xa
 1825 0a46 F9       		.byte	0xf9
 1826 0a47 21       		.byte	0x21
 1827 0a48 58010000 		.4byte	0x158
 1828 0a4c 13       		.uleb128 0x13
 1829 0a4d F9010000 		.4byte	.LASF79
 1830 0a51 0001     		.2byte	0x100
 1831 0a53 22       		.byte	0x22
 1832 0a54 BF040000 		.4byte	0x4bf
 1833 0a58 13       		.uleb128 0x13
 1834 0a59 9A0F0000 		.4byte	.LASF137
 1835 0a5d 0701     		.2byte	0x107
 1836 0a5f 22       		.byte	0x22
 1837 0a60 950A0000 		.4byte	0xa95
 1838 0a64 13       		.uleb128 0x13
 1839 0a65 54030000 		.4byte	.LASF138
 1840 0a69 0C01     		.2byte	0x10c
 1841 0a6b 21       		.byte	0x21
 1842 0a6c 58010000 		.4byte	0x158
 1843 0a70 13       		.uleb128 0x13
 1844 0a71 4B0D0000 		.4byte	.LASF139
 1845 0a75 1501     		.2byte	0x115
 1846 0a77 22       		.byte	0x22
 1847 0a78 C20A0000 		.4byte	0xac2
 1848 0a7c 13       		.uleb128 0x13
 1849 0a7d A00F0000 		.4byte	.LASF140
 1850 0a81 1E01     		.2byte	0x11e
 1851 0a83 22       		.byte	0x22
 1852 0a84 FC0A0000 		.4byte	0xafc
 1853 0a88 13       		.uleb128 0x13
 1854 0a89 67020000 		.4byte	.LASF141
 1855 0a8d 2601     		.2byte	0x126
 1856 0a8f 21       		.byte	0x21
 1857 0a90 64010000 		.4byte	0x164
 1858 0a94 00       		.byte	0
 1859 0a95 06       		.uleb128 0x6
 1860 0a96 CC090000 		.4byte	0x9cc
 1861 0a9a 08       		.uleb128 0x8
 1862 0a9b AA030000 		.4byte	.LASF142
 1863 0a9f 0C       		.byte	0xc
 1864 0aa0 12       		.byte	0x12
 1865 0aa1 34       		.byte	0x34
 1866 0aa2 10       		.byte	0x10
 1867 0aa3 C20A0000 		.4byte	0xac2
 1868 0aa7 01       		.uleb128 0x1
 1869 0aa8 180D0000 		.4byte	.LASF128
 1870 0aac 12       		.byte	0x12
 1871 0aad 35       		.byte	0x35
 1872 0aae 19       		.byte	0x19
 1873 0aaf D1030000 		.4byte	0x3d1
 1874 0ab3 00       		.byte	0
 1875 0ab4 09       		.uleb128 0x9
ARM GAS  C:\Users\DEVELO~1\AppData\Local\Temp\cccWiZr8.s 			page 34


 1876 0ab5 636E7400 		.ascii	"cnt\000"
 1877 0ab9 12       		.byte	0x12
 1878 0aba 37       		.byte	0x37
 1879 0abb 19       		.byte	0x19
 1880 0abc 7C010000 		.4byte	0x17c
 1881 0ac0 08       		.byte	0x8
 1882 0ac1 00       		.byte	0
 1883 0ac2 06       		.uleb128 0x6
 1884 0ac3 9A0A0000 		.4byte	0xa9a
 1885 0ac7 08       		.uleb128 0x8
 1886 0ac8 DD050000 		.4byte	.LASF143
 1887 0acc 10       		.byte	0x10
 1888 0acd 13       		.byte	0x13
 1889 0ace 39       		.byte	0x39
 1890 0acf 08       		.byte	0x8
 1891 0ad0 FC0A0000 		.4byte	0xafc
 1892 0ad4 01       		.uleb128 0x1
 1893 0ad5 180D0000 		.4byte	.LASF128
 1894 0ad9 13       		.byte	0x13
 1895 0ada 3A       		.byte	0x3a
 1896 0adb 19       		.byte	0x19
 1897 0adc D1030000 		.4byte	0x3d1
 1898 0ae0 00       		.byte	0
 1899 0ae1 01       		.uleb128 0x1
 1900 0ae2 E8040000 		.4byte	.LASF34
 1901 0ae6 13       		.byte	0x13
 1902 0ae7 3C       		.byte	0x3c
 1903 0ae8 1A       		.byte	0x1a
 1904 0ae9 BA040000 		.4byte	0x4ba
 1905 0aed 08       		.byte	0x8
 1906 0aee 01       		.uleb128 0x1
 1907 0aef 66010000 		.4byte	.LASF69
 1908 0af3 13       		.byte	0x13
 1909 0af4 3E       		.byte	0x3e
 1910 0af5 1A       		.byte	0x1a
 1911 0af6 B90B0000 		.4byte	0xbb9
 1912 0afa 0C       		.byte	0xc
 1913 0afb 00       		.byte	0
 1914 0afc 06       		.uleb128 0x6
 1915 0afd C70A0000 		.4byte	0xac7
 1916 0b01 06       		.uleb128 0x6
 1917 0b02 83020000 		.4byte	0x283
 1918 0b06 06       		.uleb128 0x6
 1919 0b07 1C010000 		.4byte	0x11c
 1920 0b0b 19       		.uleb128 0x19
 1921 0b0c 33020000 		.4byte	.LASF144
 1922 0b10 10       		.byte	0x10
 1923 0b11 0A       		.byte	0xa
 1924 0b12 5C01     		.2byte	0x15c
 1925 0b14 10       		.byte	0x10
 1926 0b15 360B0000 		.4byte	0xb36
 1927 0b19 04       		.uleb128 0x4
 1928 0b1a 95040000 		.4byte	.LASF134
 1929 0b1e 0A       		.byte	0xa
 1930 0b1f 6101     		.2byte	0x161
 1931 0b21 21       		.byte	0x21
 1932 0b22 0A040000 		.4byte	0x40a
ARM GAS  C:\Users\DEVELO~1\AppData\Local\Temp\cccWiZr8.s 			page 35


 1933 0b26 00       		.byte	0
 1934 0b27 04       		.uleb128 0x4
 1935 0b28 FF0E0000 		.4byte	.LASF145
 1936 0b2c 0A       		.byte	0xa
 1937 0b2d 6501     		.2byte	0x165
 1938 0b2f 22       		.byte	0x22
 1939 0b30 BA040000 		.4byte	0x4ba
 1940 0b34 0C       		.byte	0xc
 1941 0b35 00       		.byte	0
 1942 0b36 18       		.uleb128 0x18
 1943 0b37 E50C0000 		.4byte	.LASF146
 1944 0b3b 0A       		.byte	0xa
 1945 0b3c 6601     		.2byte	0x166
 1946 0b3e 0B0B0000 		.4byte	0xb0b
 1947 0b42 19       		.uleb128 0x19
 1948 0b43 080C0000 		.4byte	.LASF147
 1949 0b47 14       		.byte	0x14
 1950 0b48 0A       		.byte	0xa
 1951 0b49 6B01     		.2byte	0x16b
 1952 0b4b 10       		.byte	0x10
 1953 0b4c 970B0000 		.4byte	0xb97
 1954 0b50 04       		.uleb128 0x4
 1955 0b51 46000000 		.4byte	.LASF35
 1956 0b55 0A       		.byte	0xa
 1957 0b56 6F01     		.2byte	0x16f
 1958 0b58 22       		.byte	0x22
 1959 0b59 6B030000 		.4byte	0x36b
 1960 0b5d 00       		.byte	0
 1961 0b5e 04       		.uleb128 0x4
 1962 0b5f 00020000 		.4byte	.LASF148
 1963 0b63 0A       		.byte	0xa
 1964 0b64 7501     		.2byte	0x175
 1965 0b66 22       		.byte	0x22
 1966 0b67 060B0000 		.4byte	0xb06
 1967 0b6b 04       		.byte	0x4
 1968 0b6c 04       		.uleb128 0x4
 1969 0b6d EE040000 		.4byte	.LASF149
 1970 0b71 0A       		.byte	0xa
 1971 0b72 7901     		.2byte	0x179
 1972 0b74 22       		.byte	0x22
 1973 0b75 060B0000 		.4byte	0xb06
 1974 0b79 08       		.byte	0x8
 1975 0b7a 04       		.uleb128 0x4
 1976 0b7b 820E0000 		.4byte	.LASF150
 1977 0b7f 0A       		.byte	0xa
 1978 0b80 7F01     		.2byte	0x17f
 1979 0b82 22       		.byte	0x22
 1980 0b83 060B0000 		.4byte	0xb06
 1981 0b87 0C       		.byte	0xc
 1982 0b88 04       		.uleb128 0x4
 1983 0b89 94060000 		.4byte	.LASF151
 1984 0b8d 0A       		.byte	0xa
 1985 0b8e 8301     		.2byte	0x183
 1986 0b90 22       		.byte	0x22
 1987 0b91 060B0000 		.4byte	0xb06
 1988 0b95 10       		.byte	0x10
 1989 0b96 00       		.byte	0
ARM GAS  C:\Users\DEVELO~1\AppData\Local\Temp\cccWiZr8.s 			page 36


 1990 0b97 18       		.uleb128 0x18
 1991 0b98 C8030000 		.4byte	.LASF152
 1992 0b9c 0A       		.byte	0xa
 1993 0b9d 8501     		.2byte	0x185
 1994 0b9f 420B0000 		.4byte	0xb42
 1995 0ba3 0E       		.uleb128 0xe
 1996 0ba4 970B0000 		.4byte	0xb97
 1997 0ba8 06       		.uleb128 0x6
 1998 0ba9 A30B0000 		.4byte	0xba3
 1999 0bad 03       		.uleb128 0x3
 2000 0bae 620B0000 		.4byte	.LASF153
 2001 0bb2 13       		.byte	0x13
 2002 0bb3 34       		.byte	0x34
 2003 0bb4 19       		.byte	0x19
 2004 0bb5 C70A0000 		.4byte	0xac7
 2005 0bb9 06       		.uleb128 0x6
 2006 0bba AD0B0000 		.4byte	0xbad
 2007 0bbe 03       		.uleb128 0x3
 2008 0bbf CA0C0000 		.4byte	.LASF154
 2009 0bc3 14       		.byte	0x14
 2010 0bc4 34       		.byte	0x34
 2011 0bc5 1F       		.byte	0x1f
 2012 0bc6 CA0B0000 		.4byte	0xbca
 2013 0bca 08       		.uleb128 0x8
 2014 0bcb 2D0E0000 		.4byte	.LASF155
 2015 0bcf 14       		.byte	0x14
 2016 0bd0 14       		.byte	0x14
 2017 0bd1 39       		.byte	0x39
 2018 0bd2 08       		.byte	0x8
 2019 0bd3 190C0000 		.4byte	0xc19
 2020 0bd7 01       		.uleb128 0x1
 2021 0bd8 66010000 		.4byte	.LASF69
 2022 0bdc 14       		.byte	0x14
 2023 0bdd 3A       		.byte	0x3a
 2024 0bde 1A       		.byte	0x1a
 2025 0bdf 190C0000 		.4byte	0xc19
 2026 0be3 00       		.byte	0
 2027 0be4 01       		.uleb128 0x1
 2028 0be5 94000000 		.4byte	.LASF156
 2029 0be9 14       		.byte	0x14
 2030 0bea 3D       		.byte	0x3d
 2031 0beb 1A       		.byte	0x1a
 2032 0bec BA040000 		.4byte	0x4ba
 2033 0bf0 04       		.byte	0x4
 2034 0bf1 01       		.uleb128 0x1
 2035 0bf2 C4010000 		.4byte	.LASF157
 2036 0bf6 14       		.byte	0x14
 2037 0bf7 3F       		.byte	0x3f
 2038 0bf8 19       		.byte	0x19
 2039 0bf9 64010000 		.4byte	0x164
 2040 0bfd 08       		.byte	0x8
 2041 0bfe 01       		.uleb128 0x1
 2042 0bff AA000000 		.4byte	.LASF38
 2043 0c03 14       		.byte	0x14
 2044 0c04 41       		.byte	0x41
 2045 0c05 19       		.byte	0x19
 2046 0c06 70010000 		.4byte	0x170
ARM GAS  C:\Users\DEVELO~1\AppData\Local\Temp\cccWiZr8.s 			page 37


 2047 0c0a 0C       		.byte	0xc
 2048 0c0b 01       		.uleb128 0x1
 2049 0c0c 7E0C0000 		.4byte	.LASF158
 2050 0c10 14       		.byte	0x14
 2051 0c11 43       		.byte	0x43
 2052 0c12 19       		.byte	0x19
 2053 0c13 70010000 		.4byte	0x170
 2054 0c17 10       		.byte	0x10
 2055 0c18 00       		.byte	0
 2056 0c19 06       		.uleb128 0x6
 2057 0c1a BE0B0000 		.4byte	0xbbe
 2058 0c1e 08       		.uleb128 0x8
 2059 0c1f 9D000000 		.4byte	.LASF159
 2060 0c23 04       		.byte	0x4
 2061 0c24 14       		.byte	0x14
 2062 0c25 4A       		.byte	0x4a
 2063 0c26 10       		.byte	0x10
 2064 0c27 390C0000 		.4byte	0xc39
 2065 0c2b 01       		.uleb128 0x1
 2066 0c2c 66010000 		.4byte	.LASF69
 2067 0c30 14       		.byte	0x14
 2068 0c31 4B       		.byte	0x4b
 2069 0c32 1A       		.byte	0x1a
 2070 0c33 190C0000 		.4byte	0xc19
 2071 0c37 00       		.byte	0
 2072 0c38 00       		.byte	0
 2073 0c39 03       		.uleb128 0x3
 2074 0c3a 86040000 		.4byte	.LASF160
 2075 0c3e 14       		.byte	0x14
 2076 0c3f 4E       		.byte	0x4e
 2077 0c40 03       		.byte	0x3
 2078 0c41 1E0C0000 		.4byte	0xc1e
 2079 0c45 0C       		.uleb128 0xc
 2080 0c46 01       		.byte	0x1
 2081 0c47 02       		.byte	0x2
 2082 0c48 90050000 		.4byte	.LASF161
 2083 0c4c 0D       		.uleb128 0xd
 2084 0c4d 2D000000 		.4byte	0x2d
 2085 0c51 650C0000 		.4byte	0xc65
 2086 0c55 05       		.uleb128 0x5
 2087 0c56 BF040000 		.4byte	0x4bf
 2088 0c5a 05       		.uleb128 0x5
 2089 0c5b 650C0000 		.4byte	0xc65
 2090 0c5f 05       		.uleb128 0x5
 2091 0c60 2D000000 		.4byte	0x2d
 2092 0c64 00       		.byte	0
 2093 0c65 06       		.uleb128 0x6
 2094 0c66 CC000000 		.4byte	0xcc
 2095 0c6a 06       		.uleb128 0x6
 2096 0c6b 4C0C0000 		.4byte	0xc4c
 2097 0c6f 0D       		.uleb128 0xd
 2098 0c70 2D000000 		.4byte	0x2d
 2099 0c74 880C0000 		.4byte	0xc88
 2100 0c78 05       		.uleb128 0x5
 2101 0c79 BF040000 		.4byte	0x4bf
 2102 0c7d 05       		.uleb128 0x5
 2103 0c7e B8080000 		.4byte	0x8b8
ARM GAS  C:\Users\DEVELO~1\AppData\Local\Temp\cccWiZr8.s 			page 38


 2104 0c82 05       		.uleb128 0x5
 2105 0c83 2D000000 		.4byte	0x2d
 2106 0c87 00       		.byte	0
 2107 0c88 06       		.uleb128 0x6
 2108 0c89 6F0C0000 		.4byte	0xc6f
 2109 0c8d 0D       		.uleb128 0xd
 2110 0c8e 58010000 		.4byte	0x158
 2111 0c92 A10C0000 		.4byte	0xca1
 2112 0c96 05       		.uleb128 0x5
 2113 0c97 BF040000 		.4byte	0x4bf
 2114 0c9b 05       		.uleb128 0x5
 2115 0c9c C0000000 		.4byte	0xc0
 2116 0ca0 00       		.byte	0
 2117 0ca1 06       		.uleb128 0x6
 2118 0ca2 8D0C0000 		.4byte	0xc8d
 2119 0ca6 0D       		.uleb128 0xd
 2120 0ca7 58010000 		.4byte	0x158
 2121 0cab B50C0000 		.4byte	0xcb5
 2122 0caf 05       		.uleb128 0x5
 2123 0cb0 BF040000 		.4byte	0x4bf
 2124 0cb4 00       		.byte	0
 2125 0cb5 06       		.uleb128 0x6
 2126 0cb6 A60C0000 		.4byte	0xca6
 2127 0cba 0D       		.uleb128 0xd
 2128 0cbb 58010000 		.4byte	0x158
 2129 0cbf D30C0000 		.4byte	0xcd3
 2130 0cc3 05       		.uleb128 0x5
 2131 0cc4 BF040000 		.4byte	0x4bf
 2132 0cc8 05       		.uleb128 0x5
 2133 0cc9 C0000000 		.4byte	0xc0
 2134 0ccd 05       		.uleb128 0x5
 2135 0cce 99030000 		.4byte	0x399
 2136 0cd2 00       		.byte	0
 2137 0cd3 06       		.uleb128 0x6
 2138 0cd4 BA0C0000 		.4byte	0xcba
 2139 0cd8 0D       		.uleb128 0xd
 2140 0cd9 58010000 		.4byte	0x158
 2141 0cdd EC0C0000 		.4byte	0xcec
 2142 0ce1 05       		.uleb128 0x5
 2143 0ce2 BF040000 		.4byte	0x4bf
 2144 0ce6 05       		.uleb128 0x5
 2145 0ce7 99030000 		.4byte	0x399
 2146 0ceb 00       		.byte	0
 2147 0cec 06       		.uleb128 0x6
 2148 0ced D80C0000 		.4byte	0xcd8
 2149 0cf1 0D       		.uleb128 0xd
 2150 0cf2 2D000000 		.4byte	0x2d
 2151 0cf6 0F0D0000 		.4byte	0xd0f
 2152 0cfa 05       		.uleb128 0x5
 2153 0cfb BF040000 		.4byte	0x4bf
 2154 0cff 05       		.uleb128 0x5
 2155 0d00 650C0000 		.4byte	0xc65
 2156 0d04 05       		.uleb128 0x5
 2157 0d05 2D000000 		.4byte	0x2d
 2158 0d09 05       		.uleb128 0x5
 2159 0d0a 99030000 		.4byte	0x399
 2160 0d0e 00       		.byte	0
ARM GAS  C:\Users\DEVELO~1\AppData\Local\Temp\cccWiZr8.s 			page 39


 2161 0d0f 06       		.uleb128 0x6
 2162 0d10 F10C0000 		.4byte	0xcf1
 2163 0d14 0D       		.uleb128 0xd
 2164 0d15 2D000000 		.4byte	0x2d
 2165 0d19 320D0000 		.4byte	0xd32
 2166 0d1d 05       		.uleb128 0x5
 2167 0d1e BF040000 		.4byte	0x4bf
 2168 0d22 05       		.uleb128 0x5
 2169 0d23 B8080000 		.4byte	0x8b8
 2170 0d27 05       		.uleb128 0x5
 2171 0d28 2D000000 		.4byte	0x2d
 2172 0d2c 05       		.uleb128 0x5
 2173 0d2d 99030000 		.4byte	0x399
 2174 0d31 00       		.byte	0
 2175 0d32 06       		.uleb128 0x6
 2176 0d33 140D0000 		.4byte	0xd14
 2177 0d37 0D       		.uleb128 0xd
 2178 0d38 58010000 		.4byte	0x158
 2179 0d3c 500D0000 		.4byte	0xd50
 2180 0d40 05       		.uleb128 0x5
 2181 0d41 BF040000 		.4byte	0x4bf
 2182 0d45 05       		.uleb128 0x5
 2183 0d46 3E000000 		.4byte	0x3e
 2184 0d4a 05       		.uleb128 0x5
 2185 0d4b BF040000 		.4byte	0x4bf
 2186 0d4f 00       		.byte	0
 2187 0d50 06       		.uleb128 0x6
 2188 0d51 370D0000 		.4byte	0xd37
 2189 0d55 1F       		.uleb128 0x1f
 2190 0d56 66000000 		.4byte	0x66
 2191 0d5a 15       		.byte	0x15
 2192 0d5b 28       		.byte	0x28
 2193 0d5c 970D0000 		.4byte	0xd97
 2194 0d60 0B       		.uleb128 0xb
 2195 0d61 EB020000 		.4byte	.LASF162
 2196 0d65 00       		.byte	0
 2197 0d66 0B       		.uleb128 0xb
 2198 0d67 FE080000 		.4byte	.LASF163
 2199 0d6b 01       		.byte	0x1
 2200 0d6c 0B       		.uleb128 0xb
 2201 0d6d 1D010000 		.4byte	.LASF164
 2202 0d71 02       		.byte	0x2
 2203 0d72 0B       		.uleb128 0xb
 2204 0d73 EA010000 		.4byte	.LASF165
 2205 0d77 03       		.byte	0x3
 2206 0d78 0B       		.uleb128 0xb
 2207 0d79 D0060000 		.4byte	.LASF166
 2208 0d7d 04       		.byte	0x4
 2209 0d7e 0B       		.uleb128 0xb
 2210 0d7f 1E080000 		.4byte	.LASF167
 2211 0d83 05       		.byte	0x5
 2212 0d84 0B       		.uleb128 0xb
 2213 0d85 360C0000 		.4byte	.LASF168
 2214 0d89 06       		.byte	0x6
 2215 0d8a 0B       		.uleb128 0xb
 2216 0d8b FA0D0000 		.4byte	.LASF169
 2217 0d8f 07       		.byte	0x7
ARM GAS  C:\Users\DEVELO~1\AppData\Local\Temp\cccWiZr8.s 			page 40


 2218 0d90 0B       		.uleb128 0xb
 2219 0d91 3A000000 		.4byte	.LASF170
 2220 0d95 08       		.byte	0x8
 2221 0d96 00       		.byte	0
 2222 0d97 03       		.uleb128 0x3
 2223 0d98 74080000 		.4byte	.LASF171
 2224 0d9c 15       		.byte	0x15
 2225 0d9d 32       		.byte	0x32
 2226 0d9e 03       		.byte	0x3
 2227 0d9f 550D0000 		.4byte	0xd55
 2228 0da3 0F       		.uleb128 0xf
 2229 0da4 08       		.byte	0x8
 2230 0da5 15       		.byte	0x15
 2231 0da6 37       		.byte	0x37
 2232 0da7 09       		.byte	0x9
 2233 0da8 C70D0000 		.4byte	0xdc7
 2234 0dac 01       		.uleb128 0x1
 2235 0dad 86010000 		.4byte	.LASF172
 2236 0db1 15       		.byte	0x15
 2237 0db2 38       		.byte	0x38
 2238 0db3 11       		.byte	0x11
 2239 0db4 E9000000 		.4byte	0xe9
 2240 0db8 00       		.byte	0
 2241 0db9 01       		.uleb128 0x1
 2242 0dba 6A070000 		.4byte	.LASF173
 2243 0dbe 15       		.byte	0x15
 2244 0dbf 39       		.byte	0x39
 2245 0dc0 11       		.byte	0x11
 2246 0dc1 E9000000 		.4byte	0xe9
 2247 0dc5 04       		.byte	0x4
 2248 0dc6 00       		.byte	0
 2249 0dc7 03       		.uleb128 0x3
 2250 0dc8 C4050000 		.4byte	.LASF174
 2251 0dcc 15       		.byte	0x15
 2252 0dcd 3A       		.byte	0x3a
 2253 0dce 03       		.byte	0x3
 2254 0dcf A30D0000 		.4byte	0xda3
 2255 0dd3 0D       		.uleb128 0xd
 2256 0dd4 450C0000 		.4byte	0xc45
 2257 0dd8 E20D0000 		.4byte	0xde2
 2258 0ddc 05       		.uleb128 0x5
 2259 0ddd BF040000 		.4byte	0x4bf
 2260 0de1 00       		.byte	0
 2261 0de2 06       		.uleb128 0x6
 2262 0de3 D30D0000 		.4byte	0xdd3
 2263 0de7 0D       		.uleb128 0xd
 2264 0de8 450C0000 		.4byte	0xc45
 2265 0dec 050E0000 		.4byte	0xe05
 2266 0df0 05       		.uleb128 0x5
 2267 0df1 BF040000 		.4byte	0x4bf
 2268 0df5 05       		.uleb128 0x5
 2269 0df6 E9000000 		.4byte	0xe9
 2270 0dfa 05       		.uleb128 0x5
 2271 0dfb B8080000 		.4byte	0x8b8
 2272 0dff 05       		.uleb128 0x5
 2273 0e00 E9000000 		.4byte	0xe9
 2274 0e04 00       		.byte	0
ARM GAS  C:\Users\DEVELO~1\AppData\Local\Temp\cccWiZr8.s 			page 41


 2275 0e05 06       		.uleb128 0x6
 2276 0e06 E70D0000 		.4byte	0xde7
 2277 0e0a 0D       		.uleb128 0xd
 2278 0e0b 450C0000 		.4byte	0xc45
 2279 0e0f 280E0000 		.4byte	0xe28
 2280 0e13 05       		.uleb128 0x5
 2281 0e14 BF040000 		.4byte	0x4bf
 2282 0e18 05       		.uleb128 0x5
 2283 0e19 E9000000 		.4byte	0xe9
 2284 0e1d 05       		.uleb128 0x5
 2285 0e1e 650C0000 		.4byte	0xc65
 2286 0e22 05       		.uleb128 0x5
 2287 0e23 E9000000 		.4byte	0xe9
 2288 0e27 00       		.byte	0
 2289 0e28 06       		.uleb128 0x6
 2290 0e29 0A0E0000 		.4byte	0xe0a
 2291 0e2d 0D       		.uleb128 0xd
 2292 0e2e 450C0000 		.4byte	0xc45
 2293 0e32 410E0000 		.4byte	0xe41
 2294 0e36 05       		.uleb128 0x5
 2295 0e37 BF040000 		.4byte	0x4bf
 2296 0e3b 05       		.uleb128 0x5
 2297 0e3c 410E0000 		.4byte	0xe41
 2298 0e40 00       		.byte	0
 2299 0e41 06       		.uleb128 0x6
 2300 0e42 C70D0000 		.4byte	0xdc7
 2301 0e46 06       		.uleb128 0x6
 2302 0e47 2D0E0000 		.4byte	0xe2d
 2303 0e4b 06       		.uleb128 0x6
 2304 0e4c E9000000 		.4byte	0xe9
 2305 0e50 03       		.uleb128 0x3
 2306 0e51 3A010000 		.4byte	.LASF175
 2307 0e55 16       		.byte	0x16
 2308 0e56 3A       		.byte	0x3a
 2309 0e57 19       		.byte	0x19
 2310 0e58 5C0E0000 		.4byte	0xe5c
 2311 0e5c 08       		.uleb128 0x8
 2312 0e5d B50E0000 		.4byte	.LASF176
 2313 0e61 24       		.byte	0x24
 2314 0e62 16       		.byte	0x16
 2315 0e63 4B       		.byte	0x4b
 2316 0e64 08       		.byte	0x8
 2317 0e65 D20E0000 		.4byte	0xed2
 2318 0e69 01       		.uleb128 0x1
 2319 0e6a 4A030000 		.4byte	.LASF177
 2320 0e6e 16       		.byte	0x16
 2321 0e6f 4C       		.byte	0x4c
 2322 0e70 19       		.byte	0x19
 2323 0e71 F3090000 		.4byte	0x9f3
 2324 0e75 00       		.byte	0
 2325 0e76 01       		.uleb128 0x1
 2326 0e77 C3070000 		.4byte	.LASF178
 2327 0e7b 16       		.byte	0x16
 2328 0e7c 4D       		.byte	0x4d
 2329 0e7d 19       		.byte	0x19
 2330 0e7e 39000000 		.4byte	0x39
 2331 0e82 08       		.byte	0x8
ARM GAS  C:\Users\DEVELO~1\AppData\Local\Temp\cccWiZr8.s 			page 42


 2332 0e83 01       		.uleb128 0x1
 2333 0e84 96080000 		.4byte	.LASF179
 2334 0e88 16       		.byte	0x16
 2335 0e89 4E       		.byte	0x4e
 2336 0e8a 1A       		.byte	0x1a
 2337 0e8b B8080000 		.4byte	0x8b8
 2338 0e8f 0C       		.byte	0xc
 2339 0e90 01       		.uleb128 0x1
 2340 0e91 B20C0000 		.4byte	.LASF180
 2341 0e95 16       		.byte	0x16
 2342 0e96 4F       		.byte	0x4f
 2343 0e97 1A       		.byte	0x1a
 2344 0e98 B8080000 		.4byte	0x8b8
 2345 0e9c 10       		.byte	0x10
 2346 0e9d 01       		.uleb128 0x1
 2347 0e9e 32070000 		.4byte	.LASF181
 2348 0ea2 16       		.byte	0x16
 2349 0ea3 51       		.byte	0x51
 2350 0ea4 1A       		.byte	0x1a
 2351 0ea5 B8080000 		.4byte	0x8b8
 2352 0ea9 14       		.byte	0x14
 2353 0eaa 01       		.uleb128 0x1
 2354 0eab A3010000 		.4byte	.LASF182
 2355 0eaf 16       		.byte	0x16
 2356 0eb0 52       		.byte	0x52
 2357 0eb1 1A       		.byte	0x1a
 2358 0eb2 B8080000 		.4byte	0x8b8
 2359 0eb6 18       		.byte	0x18
 2360 0eb7 01       		.uleb128 0x1
 2361 0eb8 13060000 		.4byte	.LASF183
 2362 0ebc 16       		.byte	0x16
 2363 0ebd 53       		.byte	0x53
 2364 0ebe 19       		.byte	0x19
 2365 0ebf D20E0000 		.4byte	0xed2
 2366 0ec3 1C       		.byte	0x1c
 2367 0ec4 01       		.uleb128 0x1
 2368 0ec5 C4060000 		.4byte	.LASF184
 2369 0ec9 16       		.byte	0x16
 2370 0eca 54       		.byte	0x54
 2371 0ecb 1A       		.byte	0x1a
 2372 0ecc BF040000 		.4byte	0x4bf
 2373 0ed0 20       		.byte	0x20
 2374 0ed1 00       		.byte	0
 2375 0ed2 03       		.uleb128 0x3
 2376 0ed3 BA010000 		.4byte	.LASF185
 2377 0ed7 16       		.byte	0x16
 2378 0ed8 41       		.byte	0x41
 2379 0ed9 10       		.byte	0x10
 2380 0eda DE0E0000 		.4byte	0xede
 2381 0ede 06       		.uleb128 0x6
 2382 0edf E30E0000 		.4byte	0xee3
 2383 0ee3 2F       		.uleb128 0x2f
 2384 0ee4 EE0E0000 		.4byte	0xeee
 2385 0ee8 05       		.uleb128 0x5
 2386 0ee9 EE0E0000 		.4byte	0xeee
 2387 0eed 00       		.byte	0
 2388 0eee 06       		.uleb128 0x6
ARM GAS  C:\Users\DEVELO~1\AppData\Local\Temp\cccWiZr8.s 			page 43


 2389 0eef 500E0000 		.4byte	0xe50
 2390 0ef3 03       		.uleb128 0x3
 2391 0ef4 DA070000 		.4byte	.LASF186
 2392 0ef8 16       		.byte	0x16
 2393 0ef9 61       		.byte	0x61
 2394 0efa 14       		.byte	0x14
 2395 0efb 500E0000 		.4byte	0xe50
 2396 0eff 03       		.uleb128 0x3
 2397 0f00 07090000 		.4byte	.LASF187
 2398 0f04 16       		.byte	0x16
 2399 0f05 6D       		.byte	0x6d
 2400 0f06 14       		.byte	0x14
 2401 0f07 500E0000 		.4byte	0xe50
 2402 0f0b 1F       		.uleb128 0x1f
 2403 0f0c 66000000 		.4byte	0x66
 2404 0f10 17       		.byte	0x17
 2405 0f11 58       		.byte	0x58
 2406 0f12 290F0000 		.4byte	0xf29
 2407 0f16 0B       		.uleb128 0xb
 2408 0f17 740C0000 		.4byte	.LASF188
 2409 0f1b 00       		.byte	0
 2410 0f1c 0B       		.uleb128 0xb
 2411 0f1d 96050000 		.4byte	.LASF189
 2412 0f21 01       		.byte	0x1
 2413 0f22 0B       		.uleb128 0xb
 2414 0f23 3D0A0000 		.4byte	.LASF190
 2415 0f27 02       		.byte	0x2
 2416 0f28 00       		.byte	0
 2417 0f29 03       		.uleb128 0x3
 2418 0f2a 9A030000 		.4byte	.LASF191
 2419 0f2e 17       		.byte	0x17
 2420 0f2f 5C       		.byte	0x5c
 2421 0f30 03       		.byte	0x3
 2422 0f31 0B0F0000 		.4byte	0xf0b
 2423 0f35 03       		.uleb128 0x3
 2424 0f36 1B000000 		.4byte	.LASF192
 2425 0f3a 17       		.byte	0x17
 2426 0f3b 61       		.byte	0x61
 2427 0f3c 22       		.byte	0x22
 2428 0f3d 410F0000 		.4byte	0xf41
 2429 0f41 08       		.uleb128 0x8
 2430 0f42 28010000 		.4byte	.LASF193
 2431 0f46 60       		.byte	0x60
 2432 0f47 17       		.byte	0x17
 2433 0f48 7B       		.byte	0x7b
 2434 0f49 08       		.byte	0x8
 2435 0f4a B70F0000 		.4byte	0xfb7
 2436 0f4e 09       		.uleb128 0x9
 2437 0f4f 766D7400 		.ascii	"vmt\000"
 2438 0f53 17       		.byte	0x17
 2439 0f54 7D       		.byte	0x7d
 2440 0f55 21       		.byte	0x21
 2441 0f56 59100000 		.4byte	0x1059
 2442 0f5a 00       		.byte	0
 2443 0f5b 01       		.uleb128 0x1
 2444 0f5c A4030000 		.4byte	.LASF194
 2445 0f60 17       		.byte	0x17
ARM GAS  C:\Users\DEVELO~1\AppData\Local\Temp\cccWiZr8.s 			page 44


 2446 0f61 7E       		.byte	0x7e
 2447 0f62 03       		.byte	0x3
 2448 0f63 390C0000 		.4byte	0xc39
 2449 0f67 04       		.byte	0x4
 2450 0f68 01       		.uleb128 0x1
 2451 0f69 110E0000 		.4byte	.LASF37
 2452 0f6d 17       		.byte	0x17
 2453 0f6e 7E       		.byte	0x7e
 2454 0f6f 03       		.byte	0x3
 2455 0f70 290F0000 		.4byte	0xf29
 2456 0f74 08       		.byte	0x8
 2457 0f75 01       		.uleb128 0x1
 2458 0f76 EF050000 		.4byte	.LASF195
 2459 0f7a 17       		.byte	0x17
 2460 0f7b 7E       		.byte	0x7e
 2461 0f7c 03       		.byte	0x3
 2462 0f7d F30E0000 		.4byte	0xef3
 2463 0f81 0C       		.byte	0xc
 2464 0f82 01       		.uleb128 0x1
 2465 0f83 360A0000 		.4byte	.LASF196
 2466 0f87 17       		.byte	0x17
 2467 0f88 7E       		.byte	0x7e
 2468 0f89 03       		.byte	0x3
 2469 0f8a FF0E0000 		.4byte	0xeff
 2470 0f8e 30       		.byte	0x30
 2471 0f8f 01       		.uleb128 0x1
 2472 0f90 18080000 		.4byte	.LASF197
 2473 0f94 17       		.byte	0x17
 2474 0f95 7E       		.byte	0x7e
 2475 0f96 03       		.byte	0x3
 2476 0f97 5E100000 		.4byte	0x105e
 2477 0f9b 54       		.byte	0x54
 2478 0f9c 01       		.uleb128 0x1
 2479 0f9d 1C060000 		.4byte	.LASF198
 2480 0fa1 17       		.byte	0x17
 2481 0fa2 7E       		.byte	0x7e
 2482 0fa3 03       		.byte	0x3
 2483 0fa4 E9000000 		.4byte	0xe9
 2484 0fa8 58       		.byte	0x58
 2485 0fa9 01       		.uleb128 0x1
 2486 0faa 8D0B0000 		.4byte	.LASF199
 2487 0fae 17       		.byte	0x17
 2488 0faf 7E       		.byte	0x7e
 2489 0fb0 03       		.byte	0x3
 2490 0fb1 C0000000 		.4byte	0xc0
 2491 0fb5 5C       		.byte	0x5c
 2492 0fb6 00       		.byte	0
 2493 0fb7 30       		.uleb128 0x30
 2494 0fb8 53443300 		.ascii	"SD3\000"
 2495 0fbc 1B       		.byte	0x1b
 2496 0fbd 9602     		.2byte	0x296
 2497 0fbf 15       		.byte	0x15
 2498 0fc0 350F0000 		.4byte	0xf35
 2499 0fc4 08       		.uleb128 0x8
 2500 0fc5 BE0E0000 		.4byte	.LASF200
 2501 0fc9 28       		.byte	0x28
 2502 0fca 17       		.byte	0x17
ARM GAS  C:\Users\DEVELO~1\AppData\Local\Temp\cccWiZr8.s 			page 45


 2503 0fcb 70       		.byte	0x70
 2504 0fcc 08       		.byte	0x8
 2505 0fcd 54100000 		.4byte	0x1054
 2506 0fd1 01       		.uleb128 0x1
 2507 0fd2 EE080000 		.4byte	.LASF201
 2508 0fd6 17       		.byte	0x17
 2509 0fd7 71       		.byte	0x71
 2510 0fd8 03       		.byte	0x3
 2511 0fd9 2D000000 		.4byte	0x2d
 2512 0fdd 00       		.byte	0
 2513 0fde 01       		.uleb128 0x1
 2514 0fdf 7F080000 		.4byte	.LASF202
 2515 0fe3 17       		.byte	0x17
 2516 0fe4 71       		.byte	0x71
 2517 0fe5 03       		.byte	0x3
 2518 0fe6 6A0C0000 		.4byte	0xc6a
 2519 0fea 04       		.byte	0x4
 2520 0feb 01       		.uleb128 0x1
 2521 0fec 6F0C0000 		.4byte	.LASF203
 2522 0ff0 17       		.byte	0x17
 2523 0ff1 71       		.byte	0x71
 2524 0ff2 03       		.byte	0x3
 2525 0ff3 880C0000 		.4byte	0xc88
 2526 0ff7 08       		.byte	0x8
 2527 0ff8 09       		.uleb128 0x9
 2528 0ff9 70757400 		.ascii	"put\000"
 2529 0ffd 17       		.byte	0x17
 2530 0ffe 71       		.byte	0x71
 2531 0fff 03       		.byte	0x3
 2532 1000 A10C0000 		.4byte	0xca1
 2533 1004 0C       		.byte	0xc
 2534 1005 09       		.uleb128 0x9
 2535 1006 67657400 		.ascii	"get\000"
 2536 100a 17       		.byte	0x17
 2537 100b 71       		.byte	0x71
 2538 100c 03       		.byte	0x3
 2539 100d B50C0000 		.4byte	0xcb5
 2540 1011 10       		.byte	0x10
 2541 1012 01       		.uleb128 0x1
 2542 1013 47050000 		.4byte	.LASF204
 2543 1017 17       		.byte	0x17
 2544 1018 71       		.byte	0x71
 2545 1019 03       		.byte	0x3
 2546 101a D30C0000 		.4byte	0xcd3
 2547 101e 14       		.byte	0x14
 2548 101f 01       		.uleb128 0x1
 2549 1020 AD0C0000 		.4byte	.LASF205
 2550 1024 17       		.byte	0x17
 2551 1025 71       		.byte	0x71
 2552 1026 03       		.byte	0x3
 2553 1027 EC0C0000 		.4byte	0xcec
 2554 102b 18       		.byte	0x18
 2555 102c 01       		.uleb128 0x1
 2556 102d 11080000 		.4byte	.LASF206
 2557 1031 17       		.byte	0x17
 2558 1032 71       		.byte	0x71
 2559 1033 03       		.byte	0x3
ARM GAS  C:\Users\DEVELO~1\AppData\Local\Temp\cccWiZr8.s 			page 46


 2560 1034 0F0D0000 		.4byte	0xd0f
 2561 1038 1C       		.byte	0x1c
 2562 1039 01       		.uleb128 0x1
 2563 103a D3080000 		.4byte	.LASF207
 2564 103e 17       		.byte	0x17
 2565 103f 71       		.byte	0x71
 2566 1040 03       		.byte	0x3
 2567 1041 320D0000 		.4byte	0xd32
 2568 1045 20       		.byte	0x20
 2569 1046 09       		.uleb128 0x9
 2570 1047 63746C00 		.ascii	"ctl\000"
 2571 104b 17       		.byte	0x17
 2572 104c 71       		.byte	0x71
 2573 104d 03       		.byte	0x3
 2574 104e 500D0000 		.4byte	0xd50
 2575 1052 24       		.byte	0x24
 2576 1053 00       		.byte	0
 2577 1054 0E       		.uleb128 0xe
 2578 1055 C40F0000 		.4byte	0xfc4
 2579 1059 06       		.uleb128 0x6
 2580 105a 54100000 		.4byte	0x1054
 2581 105e 06       		.uleb128 0x6
 2582 105f 9E080000 		.4byte	0x89e
 2583 1063 1F       		.uleb128 0x1f
 2584 1064 66000000 		.4byte	0x66
 2585 1068 18       		.byte	0x18
 2586 1069 7A       		.byte	0x7a
 2587 106a 81100000 		.4byte	0x1081
 2588 106e 0B       		.uleb128 0xb
 2589 106f 3C0E0000 		.4byte	.LASF208
 2590 1073 00       		.byte	0
 2591 1074 0B       		.uleb128 0xb
 2592 1075 090A0000 		.4byte	.LASF209
 2593 1079 01       		.byte	0x1
 2594 107a 0B       		.uleb128 0xb
 2595 107b D90E0000 		.4byte	.LASF210
 2596 107f 02       		.byte	0x2
 2597 1080 00       		.byte	0
 2598 1081 03       		.uleb128 0x3
 2599 1082 8D0D0000 		.4byte	.LASF211
 2600 1086 18       		.byte	0x18
 2601 1087 7E       		.byte	0x7e
 2602 1088 03       		.byte	0x3
 2603 1089 63100000 		.4byte	0x1063
 2604 108d 03       		.uleb128 0x3
 2605 108e E70E0000 		.4byte	.LASF212
 2606 1092 19       		.byte	0x19
 2607 1093 A6       		.byte	0xa6
 2608 1094 12       		.byte	0x12
 2609 1095 E9000000 		.4byte	0xe9
 2610 1099 03       		.uleb128 0x3
 2611 109a 6C000000 		.4byte	.LASF213
 2612 109e 19       		.byte	0x19
 2613 109f AB       		.byte	0xab
 2614 10a0 12       		.byte	0x12
 2615 10a1 E9000000 		.4byte	0xe9
 2616 10a5 03       		.uleb128 0x3
ARM GAS  C:\Users\DEVELO~1\AppData\Local\Temp\cccWiZr8.s 			page 47


 2617 10a6 37080000 		.4byte	.LASF214
 2618 10aa 19       		.byte	0x19
 2619 10ab B0       		.byte	0xb0
 2620 10ac 1A       		.byte	0x1a
 2621 10ad B1100000 		.4byte	0x10b1
 2622 10b1 08       		.uleb128 0x8
 2623 10b2 37080000 		.4byte	.LASF214
 2624 10b6 50       		.byte	0x50
 2625 10b7 19       		.byte	0x19
 2626 10b8 D0       		.byte	0xd0
 2627 10b9 08       		.byte	0x8
 2628 10ba 75110000 		.4byte	0x1175
 2629 10be 09       		.uleb128 0x9
 2630 10bf 766D7400 		.ascii	"vmt\000"
 2631 10c3 19       		.byte	0x19
 2632 10c4 D4       		.byte	0xd4
 2633 10c5 1E       		.byte	0x1e
 2634 10c6 25120000 		.4byte	0x1225
 2635 10ca 00       		.byte	0
 2636 10cb 01       		.uleb128 0x1
 2637 10cc 110E0000 		.4byte	.LASF37
 2638 10d0 19       		.byte	0x19
 2639 10d1 D5       		.byte	0xd5
 2640 10d2 03       		.byte	0x3
 2641 10d3 970D0000 		.4byte	0xd97
 2642 10d7 04       		.byte	0x4
 2643 10d8 09       		.uleb128 0x9
 2644 10d9 63696400 		.ascii	"cid\000"
 2645 10dd 19       		.byte	0x19
 2646 10de D5       		.byte	0xd5
 2647 10df 03       		.byte	0x3
 2648 10e0 36060000 		.4byte	0x636
 2649 10e4 08       		.byte	0x8
 2650 10e5 09       		.uleb128 0x9
 2651 10e6 63736400 		.ascii	"csd\000"
 2652 10ea 19       		.byte	0x19
 2653 10eb D5       		.byte	0xd5
 2654 10ec 03       		.byte	0x3
 2655 10ed 36060000 		.4byte	0x636
 2656 10f1 18       		.byte	0x18
 2657 10f2 01       		.uleb128 0x1
 2658 10f3 83000000 		.4byte	.LASF215
 2659 10f7 19       		.byte	0x19
 2660 10f8 D5       		.byte	0xd5
 2661 10f9 03       		.byte	0x3
 2662 10fa E9000000 		.4byte	0xe9
 2663 10fe 28       		.byte	0x28
 2664 10ff 01       		.uleb128 0x1
 2665 1100 970A0000 		.4byte	.LASF54
 2666 1104 19       		.byte	0x19
 2667 1105 D9       		.byte	0xd9
 2668 1106 1E       		.byte	0x1e
 2669 1107 2A120000 		.4byte	0x122a
 2670 110b 2C       		.byte	0x2c
 2671 110c 01       		.uleb128 0x1
 2672 110d 1C040000 		.4byte	.LASF216
 2673 1111 19       		.byte	0x19
ARM GAS  C:\Users\DEVELO~1\AppData\Local\Temp\cccWiZr8.s 			page 48


 2674 1112 DD       		.byte	0xdd
 2675 1113 1D       		.byte	0x1d
 2676 1114 8D100000 		.4byte	0x108d
 2677 1118 30       		.byte	0x30
 2678 1119 01       		.uleb128 0x1
 2679 111a 7F040000 		.4byte	.LASF217
 2680 111e 19       		.byte	0x19
 2681 111f E1       		.byte	0xe1
 2682 1120 1D       		.byte	0x1d
 2683 1121 99100000 		.4byte	0x1099
 2684 1125 34       		.byte	0x34
 2685 1126 09       		.uleb128 0x9
 2686 1127 72636100 		.ascii	"rca\000"
 2687 112b 19       		.byte	0x19
 2688 112c E5       		.byte	0xe5
 2689 112d 1D       		.byte	0x1d
 2690 112e E9000000 		.4byte	0xe9
 2691 1132 38       		.byte	0x38
 2692 1133 09       		.uleb128 0x9
 2693 1134 62756600 		.ascii	"buf\000"
 2694 1138 19       		.byte	0x19
 2695 1139 E9       		.byte	0xe9
 2696 113a 1E       		.byte	0x1e
 2697 113b B8080000 		.4byte	0x8b8
 2698 113f 3C       		.byte	0x3c
 2699 1140 01       		.uleb128 0x1
 2700 1141 440D0000 		.4byte	.LASF218
 2701 1145 19       		.byte	0x19
 2702 1146 EE       		.byte	0xee
 2703 1147 1D       		.byte	0x1d
 2704 1148 CC090000 		.4byte	0x9cc
 2705 114c 40       		.byte	0x40
 2706 114d 01       		.uleb128 0x1
 2707 114e 310F0000 		.4byte	.LASF219
 2708 1152 19       		.byte	0x19
 2709 1153 F3       		.byte	0xf3
 2710 1154 1E       		.byte	0x1e
 2711 1155 2F120000 		.4byte	0x122f
 2712 1159 44       		.byte	0x44
 2713 115a 01       		.uleb128 0x1
 2714 115b 77090000 		.4byte	.LASF220
 2715 115f 19       		.byte	0x19
 2716 1160 F7       		.byte	0xf7
 2717 1161 1D       		.byte	0x1d
 2718 1162 E9000000 		.4byte	0xe9
 2719 1166 48       		.byte	0x48
 2720 1167 01       		.uleb128 0x1
 2721 1168 4B0F0000 		.4byte	.LASF221
 2722 116c 19       		.byte	0x19
 2723 116d FB       		.byte	0xfb
 2724 116e 1E       		.byte	0x1e
 2725 116f 4B0E0000 		.4byte	0xe4b
 2726 1173 4C       		.byte	0x4c
 2727 1174 00       		.byte	0
 2728 1175 0F       		.uleb128 0xf
 2729 1176 01       		.byte	0x1
 2730 1177 19       		.byte	0x19
ARM GAS  C:\Users\DEVELO~1\AppData\Local\Temp\cccWiZr8.s 			page 49


 2731 1178 B6       		.byte	0xb6
 2732 1179 09       		.byte	0x9
 2733 117a 8C110000 		.4byte	0x118c
 2734 117e 01       		.uleb128 0x1
 2735 117f DB0C0000 		.4byte	.LASF222
 2736 1183 19       		.byte	0x19
 2737 1184 BA       		.byte	0xba
 2738 1185 11       		.byte	0x11
 2739 1186 81100000 		.4byte	0x1081
 2740 118a 00       		.byte	0
 2741 118b 00       		.byte	0
 2742 118c 03       		.uleb128 0x3
 2743 118d 2F050000 		.4byte	.LASF223
 2744 1191 19       		.byte	0x19
 2745 1192 BC       		.byte	0xbc
 2746 1193 03       		.byte	0x3
 2747 1194 75110000 		.4byte	0x1175
 2748 1198 0E       		.uleb128 0xe
 2749 1199 8C110000 		.4byte	0x118c
 2750 119d 08       		.uleb128 0x8
 2751 119e 6E020000 		.4byte	.LASF224
 2752 11a2 24       		.byte	0x24
 2753 11a3 19       		.byte	0x19
 2754 11a4 C9       		.byte	0xc9
 2755 11a5 08       		.byte	0x8
 2756 11a6 20120000 		.4byte	0x1220
 2757 11aa 01       		.uleb128 0x1
 2758 11ab EE080000 		.4byte	.LASF201
 2759 11af 19       		.byte	0x19
 2760 11b0 CA       		.byte	0xca
 2761 11b1 03       		.byte	0x3
 2762 11b2 2D000000 		.4byte	0x2d
 2763 11b6 00       		.byte	0
 2764 11b7 01       		.uleb128 0x1
 2765 11b8 3C090000 		.4byte	.LASF225
 2766 11bc 19       		.byte	0x19
 2767 11bd CA       		.byte	0xca
 2768 11be 03       		.byte	0x3
 2769 11bf E20D0000 		.4byte	0xde2
 2770 11c3 04       		.byte	0x4
 2771 11c4 01       		.uleb128 0x1
 2772 11c5 3E0F0000 		.4byte	.LASF226
 2773 11c9 19       		.byte	0x19
 2774 11ca CA       		.byte	0xca
 2775 11cb 03       		.byte	0x3
 2776 11cc E20D0000 		.4byte	0xde2
 2777 11d0 08       		.byte	0x8
 2778 11d1 01       		.uleb128 0x1
 2779 11d2 9E0B0000 		.4byte	.LASF227
 2780 11d6 19       		.byte	0x19
 2781 11d7 CA       		.byte	0xca
 2782 11d8 03       		.byte	0x3
 2783 11d9 E20D0000 		.4byte	0xde2
 2784 11dd 0C       		.byte	0xc
 2785 11de 01       		.uleb128 0x1
 2786 11df 45010000 		.4byte	.LASF228
 2787 11e3 19       		.byte	0x19
ARM GAS  C:\Users\DEVELO~1\AppData\Local\Temp\cccWiZr8.s 			page 50


 2788 11e4 CA       		.byte	0xca
 2789 11e5 03       		.byte	0x3
 2790 11e6 E20D0000 		.4byte	0xde2
 2791 11ea 10       		.byte	0x10
 2792 11eb 01       		.uleb128 0x1
 2793 11ec 6F0C0000 		.4byte	.LASF203
 2794 11f0 19       		.byte	0x19
 2795 11f1 CA       		.byte	0xca
 2796 11f2 03       		.byte	0x3
 2797 11f3 050E0000 		.4byte	0xe05
 2798 11f7 14       		.byte	0x14
 2799 11f8 01       		.uleb128 0x1
 2800 11f9 7F080000 		.4byte	.LASF202
 2801 11fd 19       		.byte	0x19
 2802 11fe CA       		.byte	0xca
 2803 11ff 03       		.byte	0x3
 2804 1200 280E0000 		.4byte	0xe28
 2805 1204 18       		.byte	0x18
 2806 1205 01       		.uleb128 0x1
 2807 1206 1E0D0000 		.4byte	.LASF229
 2808 120a 19       		.byte	0x19
 2809 120b CA       		.byte	0xca
 2810 120c 03       		.byte	0x3
 2811 120d E20D0000 		.4byte	0xde2
 2812 1211 1C       		.byte	0x1c
 2813 1212 01       		.uleb128 0x1
 2814 1213 D4050000 		.4byte	.LASF230
 2815 1217 19       		.byte	0x19
 2816 1218 CA       		.byte	0xca
 2817 1219 03       		.byte	0x3
 2818 121a 460E0000 		.4byte	0xe46
 2819 121e 20       		.byte	0x20
 2820 121f 00       		.byte	0
 2821 1220 0E       		.uleb128 0xe
 2822 1221 9D110000 		.4byte	0x119d
 2823 1225 06       		.uleb128 0x6
 2824 1226 20120000 		.4byte	0x1220
 2825 122a 06       		.uleb128 0x6
 2826 122b 98110000 		.4byte	0x1198
 2827 122f 06       		.uleb128 0x6
 2828 1230 DF070000 		.4byte	0x7df
 2829 1234 31       		.uleb128 0x31
 2830 1235 BE050000 		.4byte	.LASF231
 2831 1239 19       		.byte	0x19
 2832 123a 0701     		.2byte	0x107
 2833 123c 12       		.byte	0x12
 2834 123d A5100000 		.4byte	0x10a5
 2835 1241 1A       		.uleb128 0x1a
 2836 1242 7B020000 		.4byte	.LASF232
 2837 1246 1A       		.byte	0x1a
 2838 1247 50       		.byte	0x50
 2839 1248 52120000 		.4byte	0x1252
 2840 124c 05       		.uleb128 0x5
 2841 124d E9000000 		.4byte	0xe9
 2842 1251 00       		.byte	0
 2843 1252 1A       		.uleb128 0x1a
 2844 1253 860A0000 		.4byte	.LASF233
ARM GAS  C:\Users\DEVELO~1\AppData\Local\Temp\cccWiZr8.s 			page 51


 2845 1257 1A       		.byte	0x1a
 2846 1258 4F       		.byte	0x4f
 2847 1259 68120000 		.4byte	0x1268
 2848 125d 05       		.uleb128 0x5
 2849 125e E9000000 		.4byte	0xe9
 2850 1262 05       		.uleb128 0x5
 2851 1263 E9000000 		.4byte	0xe9
 2852 1267 00       		.byte	0
 2853 1268 23       		.uleb128 0x23
 2854 1269 4F0A0000 		.4byte	.LASF235
 2855 126d 1C       		.byte	0x1c
 2856 126e A602     		.2byte	0x2a6
 2857 1270 24       		.uleb128 0x24
 2858 1271 BA000000 		.4byte	.LASF234
 2859 1275 1B       		.byte	0x1b
 2860 1276 B702     		.2byte	0x2b7
 2861 1278 82120000 		.4byte	0x1282
 2862 127c 05       		.uleb128 0x5
 2863 127d 82120000 		.4byte	0x1282
 2864 1281 00       		.byte	0
 2865 1282 06       		.uleb128 0x6
 2866 1283 350F0000 		.4byte	0xf35
 2867 1287 23       		.uleb128 0x23
 2868 1288 9C040000 		.4byte	.LASF236
 2869 128c 11       		.byte	0x11
 2870 128d E302     		.2byte	0x2e3
 2871 128f 1A       		.uleb128 0x1a
 2872 1290 610E0000 		.4byte	.LASF237
 2873 1294 0F       		.byte	0xf
 2874 1295 FF       		.byte	0xff
 2875 1296 A0120000 		.4byte	0x12a0
 2876 129a 05       		.uleb128 0x5
 2877 129b 6B030000 		.4byte	0x36b
 2878 129f 00       		.byte	0
 2879 12a0 24       		.uleb128 0x24
 2880 12a1 8B0C0000 		.4byte	.LASF238
 2881 12a5 19       		.byte	0x19
 2882 12a6 2801     		.2byte	0x128
 2883 12a8 B2120000 		.4byte	0x12b2
 2884 12ac 05       		.uleb128 0x5
 2885 12ad B2120000 		.4byte	0x12b2
 2886 12b1 00       		.byte	0
 2887 12b2 06       		.uleb128 0x6
 2888 12b3 A5100000 		.4byte	0x10a5
 2889 12b7 1A       		.uleb128 0x1a
 2890 12b8 800F0000 		.4byte	.LASF239
 2891 12bc 0F       		.byte	0xf
 2892 12bd FE       		.byte	0xfe
 2893 12be C8120000 		.4byte	0x12c8
 2894 12c2 05       		.uleb128 0x5
 2895 12c3 6B030000 		.4byte	0x36b
 2896 12c7 00       		.byte	0
 2897 12c8 16       		.uleb128 0x16
 2898 12c9 C00C0000 		.4byte	.LASF240
 2899 12cd 04       		.byte	0x4
 2900 12ce A7       		.byte	0xa7
 2901 12cf 06       		.byte	0x6
ARM GAS  C:\Users\DEVELO~1\AppData\Local\Temp\cccWiZr8.s 			page 52


 2902 12d0 00000000 		.4byte	.LFB507
 2903 12d4 1E000000 		.4byte	.LFE507-.LFB507
 2904 12d8 01       		.uleb128 0x1
 2905 12d9 9C       		.byte	0x9c
 2906 12da 62130000 		.4byte	0x1362
 2907 12de 1B       		.uleb128 0x1b
 2908 12df 72160000 		.4byte	0x1672
 2909 12e3 08000000 		.4byte	.LBI154
 2910 12e7 02       		.byte	.LVU111
 2911 12e8 08000000 		.4byte	.LBB154
 2912 12ec 06000000 		.4byte	.LBE154-.LBB154
 2913 12f0 C2       		.byte	0xc2
 2914 12f1 06130000 		.4byte	0x1306
 2915 12f5 14       		.uleb128 0x14
 2916 12f6 0E000000 		.4byte	.LVL17
 2917 12fa 41120000 		.4byte	0x1241
 2918 12fe 0A       		.uleb128 0xa
 2919 12ff 01       		.uleb128 0x1
 2920 1300 50       		.byte	0x50
 2921 1301 02       		.uleb128 0x2
 2922 1302 08       		.byte	0x8
 2923 1303 31       		.byte	0x31
 2924 1304 00       		.byte	0
 2925 1305 00       		.byte	0
 2926 1306 1B       		.uleb128 0x1b
 2927 1307 D9140000 		.4byte	0x14d9
 2928 130b 0E000000 		.4byte	.LBI156
 2929 130f 03       		.byte	.LVU116
 2930 1310 0E000000 		.4byte	.LBB156
 2931 1314 06000000 		.4byte	.LBE156-.LBB156
 2932 1318 C6       		.byte	0xc6
 2933 1319 2D130000 		.4byte	0x132d
 2934 131d 14       		.uleb128 0x14
 2935 131e 14000000 		.4byte	.LVL18
 2936 1322 41120000 		.4byte	0x1241
 2937 1326 0A       		.uleb128 0xa
 2938 1327 01       		.uleb128 0x1
 2939 1328 50       		.byte	0x50
 2940 1329 01       		.uleb128 0x1
 2941 132a 4C       		.byte	0x4c
 2942 132b 00       		.byte	0
 2943 132c 00       		.byte	0
 2944 132d 25       		.uleb128 0x25
 2945 132e C5150000 		.4byte	0x15c5
 2946 1332 14000000 		.4byte	.LBI158
 2947 1336 09       		.byte	.LVU127
 2948 1337 18000000 		.4byte	.LLRL1
 2949 133b D0       		.byte	0xd0
 2950 133c 51130000 		.4byte	0x1351
 2951 1340 26       		.uleb128 0x26
 2952 1341 1E000000 		.4byte	.LVL19
 2953 1345 41120000 		.4byte	0x1241
 2954 1349 0A       		.uleb128 0xa
 2955 134a 01       		.uleb128 0x1
 2956 134b 50       		.byte	0x50
 2957 134c 02       		.uleb128 0x2
 2958 134d 08       		.byte	0x8
ARM GAS  C:\Users\DEVELO~1\AppData\Local\Temp\cccWiZr8.s 			page 53


 2959 134e 27       		.byte	0x27
 2960 134f 00       		.byte	0
 2961 1350 00       		.byte	0
 2962 1351 14       		.uleb128 0x14
 2963 1352 08000000 		.4byte	.LVL16
 2964 1356 41120000 		.4byte	0x1241
 2965 135a 0A       		.uleb128 0xa
 2966 135b 01       		.uleb128 0x1
 2967 135c 50       		.byte	0x50
 2968 135d 02       		.uleb128 0x2
 2969 135e 08       		.byte	0x8
 2970 135f 7A       		.byte	0x7a
 2971 1360 00       		.byte	0
 2972 1361 00       		.byte	0
 2973 1362 16       		.uleb128 0x16
 2974 1363 AB070000 		.4byte	.LASF241
 2975 1367 04       		.byte	0x4
 2976 1368 6E       		.byte	0x6e
 2977 1369 06       		.byte	0x6
 2978 136a 00000000 		.4byte	.LFB506
 2979 136e 26000000 		.4byte	.LFE506-.LFB506
 2980 1372 01       		.uleb128 0x1
 2981 1373 9C       		.byte	0x9c
 2982 1374 10140000 		.4byte	0x1410
 2983 1378 1B       		.uleb128 0x1b
 2984 1379 79160000 		.4byte	0x1679
 2985 137d 0A000000 		.4byte	.LBI146
 2986 1381 02       		.byte	.LVU71
 2987 1382 0A000000 		.4byte	.LBB146
 2988 1386 08000000 		.4byte	.LBE146-.LBB146
 2989 138a 89       		.byte	0x89
 2990 138b A5130000 		.4byte	0x13a5
 2991 138f 14       		.uleb128 0x14
 2992 1390 12000000 		.4byte	.LVL13
 2993 1394 52120000 		.4byte	0x1252
 2994 1398 0A       		.uleb128 0xa
 2995 1399 01       		.uleb128 0x1
 2996 139a 50       		.byte	0x50
 2997 139b 02       		.uleb128 0x2
 2998 139c 08       		.byte	0x8
 2999 139d 31       		.byte	0x31
 3000 139e 0A       		.uleb128 0xa
 3001 139f 01       		.uleb128 0x1
 3002 13a0 51       		.byte	0x51
 3003 13a1 01       		.uleb128 0x1
 3004 13a2 39       		.byte	0x39
 3005 13a3 00       		.byte	0
 3006 13a4 00       		.byte	0
 3007 13a5 1B       		.uleb128 0x1b
 3008 13a6 E0140000 		.4byte	0x14e0
 3009 13aa 12000000 		.4byte	.LBI148
 3010 13ae 03       		.byte	.LVU76
 3011 13af 12000000 		.4byte	.LBB148
 3012 13b3 08000000 		.4byte	.LBE148-.LBB148
 3013 13b7 8D       		.byte	0x8d
 3014 13b8 D1130000 		.4byte	0x13d1
 3015 13bc 14       		.uleb128 0x14
ARM GAS  C:\Users\DEVELO~1\AppData\Local\Temp\cccWiZr8.s 			page 54


 3016 13bd 1A000000 		.4byte	.LVL14
 3017 13c1 52120000 		.4byte	0x1252
 3018 13c5 0A       		.uleb128 0xa
 3019 13c6 01       		.uleb128 0x1
 3020 13c7 50       		.byte	0x50
 3021 13c8 01       		.uleb128 0x1
 3022 13c9 4C       		.byte	0x4c
 3023 13ca 0A       		.uleb128 0xa
 3024 13cb 01       		.uleb128 0x1
 3025 13cc 51       		.byte	0x51
 3026 13cd 01       		.uleb128 0x1
 3027 13ce 37       		.byte	0x37
 3028 13cf 00       		.byte	0
 3029 13d0 00       		.byte	0
 3030 13d1 25       		.uleb128 0x25
 3031 13d2 CC150000 		.4byte	0x15cc
 3032 13d6 1A000000 		.4byte	.LBI150
 3033 13da 09       		.byte	.LVU87
 3034 13db 0C000000 		.4byte	.LLRL0
 3035 13df 97       		.byte	0x97
 3036 13e0 FA130000 		.4byte	0x13fa
 3037 13e4 26       		.uleb128 0x26
 3038 13e5 26000000 		.4byte	.LVL15
 3039 13e9 52120000 		.4byte	0x1252
 3040 13ed 0A       		.uleb128 0xa
 3041 13ee 01       		.uleb128 0x1
 3042 13ef 50       		.byte	0x50
 3043 13f0 02       		.uleb128 0x2
 3044 13f1 08       		.byte	0x8
 3045 13f2 27       		.byte	0x27
 3046 13f3 0A       		.uleb128 0xa
 3047 13f4 01       		.uleb128 0x1
 3048 13f5 51       		.byte	0x51
 3049 13f6 01       		.uleb128 0x1
 3050 13f7 3C       		.byte	0x3c
 3051 13f8 00       		.byte	0
 3052 13f9 00       		.byte	0
 3053 13fa 14       		.uleb128 0x14
 3054 13fb 0A000000 		.4byte	.LVL12
 3055 13ff 52120000 		.4byte	0x1252
 3056 1403 0A       		.uleb128 0xa
 3057 1404 01       		.uleb128 0x1
 3058 1405 50       		.byte	0x50
 3059 1406 02       		.uleb128 0x2
 3060 1407 08       		.byte	0x8
 3061 1408 7A       		.byte	0x7a
 3062 1409 0A       		.uleb128 0xa
 3063 140a 01       		.uleb128 0x1
 3064 140b 51       		.byte	0x51
 3065 140c 01       		.uleb128 0x1
 3066 140d 39       		.byte	0x39
 3067 140e 00       		.byte	0
 3068 140f 00       		.byte	0
 3069 1410 02       		.uleb128 0x2
 3070 1411 41080000 		.4byte	.LASF242
 3071 1415 1D       		.byte	0x1d
 3072 1416 AC       		.byte	0xac
ARM GAS  C:\Users\DEVELO~1\AppData\Local\Temp\cccWiZr8.s 			page 55


 3073 1417 02       		.uleb128 0x2
 3074 1418 43070000 		.4byte	.LASF243
 3075 141c 1D       		.byte	0x1d
 3076 141d 99       		.byte	0x99
 3077 141e 02       		.uleb128 0x2
 3078 141f 92020000 		.4byte	.LASF244
 3079 1423 1E       		.byte	0x1e
 3080 1424 54       		.byte	0x54
 3081 1425 02       		.uleb128 0x2
 3082 1426 D4020000 		.4byte	.LASF245
 3083 142a 1E       		.byte	0x1e
 3084 142b 4E       		.byte	0x4e
 3085 142c 02       		.uleb128 0x2
 3086 142d 640D0000 		.4byte	.LASF246
 3087 1431 1F       		.byte	0x1f
 3088 1432 54       		.byte	0x54
 3089 1433 02       		.uleb128 0x2
 3090 1434 100F0000 		.4byte	.LASF247
 3091 1438 1F       		.byte	0x1f
 3092 1439 4E       		.byte	0x4e
 3093 143a 02       		.uleb128 0x2
 3094 143b F5030000 		.4byte	.LASF248
 3095 143f 20       		.byte	0x20
 3096 1440 54       		.byte	0x54
 3097 1441 02       		.uleb128 0x2
 3098 1442 FA0B0000 		.4byte	.LASF249
 3099 1446 20       		.byte	0x20
 3100 1447 4E       		.byte	0x4e
 3101 1448 02       		.uleb128 0x2
 3102 1449 B4020000 		.4byte	.LASF250
 3103 144d 21       		.byte	0x21
 3104 144e 54       		.byte	0x54
 3105 144f 02       		.uleb128 0x2
 3106 1450 03080000 		.4byte	.LASF251
 3107 1454 21       		.byte	0x21
 3108 1455 4E       		.byte	0x4e
 3109 1456 02       		.uleb128 0x2
 3110 1457 B10D0000 		.4byte	.LASF252
 3111 145b 22       		.byte	0x22
 3112 145c 54       		.byte	0x54
 3113 145d 02       		.uleb128 0x2
 3114 145e 57040000 		.4byte	.LASF253
 3115 1462 22       		.byte	0x22
 3116 1463 4E       		.byte	0x4e
 3117 1464 16       		.uleb128 0x16
 3118 1465 E2020000 		.4byte	.LASF254
 3119 1469 03       		.byte	0x3
 3120 146a 64       		.byte	0x64
 3121 146b 01       		.byte	0x1
 3122 146c 00000000 		.4byte	.LFB493
 3123 1470 20000000 		.4byte	.LFE493-.LFB493
 3124 1474 01       		.uleb128 0x1
 3125 1475 9C       		.byte	0x9c
 3126 1476 C4140000 		.4byte	0x14c4
 3127 147a 20       		.uleb128 0x20
 3128 147b 070F0000 		.4byte	.LASF276
 3129 147f D4140000 		.4byte	0x14d4
ARM GAS  C:\Users\DEVELO~1\AppData\Local\Temp\cccWiZr8.s 			page 56


 3130 1483 05       		.uleb128 0x5
 3131 1484 03       		.byte	0x3
 3132 1485 00000000 		.4byte	__func__.0
 3133 1489 15       		.uleb128 0x15
 3134 148a 0A000000 		.4byte	.LVL8
 3135 148e B7120000 		.4byte	0x12b7
 3136 1492 9D140000 		.4byte	0x149d
 3137 1496 0A       		.uleb128 0xa
 3138 1497 01       		.uleb128 0x1
 3139 1498 50       		.byte	0x50
 3140 1499 02       		.uleb128 0x2
 3141 149a 74       		.byte	0x74
 3142 149b 00       		.sleb128 0
 3143 149c 00       		.byte	0
 3144 149d 21       		.uleb128 0x21
 3145 149e 0E000000 		.4byte	.LVL9
 3146 14a2 68120000 		.4byte	0x1268
 3147 14a6 15       		.uleb128 0x15
 3148 14a7 14000000 		.4byte	.LVL10
 3149 14ab 8F120000 		.4byte	0x128f
 3150 14af BA140000 		.4byte	0x14ba
 3151 14b3 0A       		.uleb128 0xa
 3152 14b4 01       		.uleb128 0x1
 3153 14b5 50       		.byte	0x50
 3154 14b6 02       		.uleb128 0x2
 3155 14b7 74       		.byte	0x74
 3156 14b8 00       		.sleb128 0
 3157 14b9 00       		.byte	0
 3158 14ba 22       		.uleb128 0x22
 3159 14bb 1C000000 		.4byte	.LVL11
 3160 14bf 87120000 		.4byte	0x1287
 3161 14c3 00       		.byte	0
 3162 14c4 11       		.uleb128 0x11
 3163 14c5 7C030000 		.4byte	0x37c
 3164 14c9 D4140000 		.4byte	0x14d4
 3165 14cd 12       		.uleb128 0x12
 3166 14ce 3E000000 		.4byte	0x3e
 3167 14d2 08       		.byte	0x8
 3168 14d3 00       		.byte	0
 3169 14d4 0E       		.uleb128 0xe
 3170 14d5 C4140000 		.4byte	0x14c4
 3171 14d9 02       		.uleb128 0x2
 3172 14da A3060000 		.4byte	.LASF255
 3173 14de 03       		.byte	0x3
 3174 14df 54       		.byte	0x54
 3175 14e0 02       		.uleb128 0x2
 3176 14e1 4B000000 		.4byte	.LASF256
 3177 14e5 03       		.byte	0x3
 3178 14e6 4E       		.byte	0x4e
 3179 14e7 02       		.uleb128 0x2
 3180 14e8 FC000000 		.4byte	.LASF257
 3181 14ec 23       		.byte	0x23
 3182 14ed 5D       		.byte	0x5d
 3183 14ee 02       		.uleb128 0x2
 3184 14ef 020D0000 		.4byte	.LASF258
 3185 14f3 23       		.byte	0x23
 3186 14f4 56       		.byte	0x56
ARM GAS  C:\Users\DEVELO~1\AppData\Local\Temp\cccWiZr8.s 			page 57


 3187 14f5 02       		.uleb128 0x2
 3188 14f6 21030000 		.4byte	.LASF259
 3189 14fa 24       		.byte	0x24
 3190 14fb 45       		.byte	0x45
 3191 14fc 02       		.uleb128 0x2
 3192 14fd 0C010000 		.4byte	.LASF260
 3193 1501 24       		.byte	0x24
 3194 1502 3F       		.byte	0x3f
 3195 1503 02       		.uleb128 0x2
 3196 1504 1E0F0000 		.4byte	.LASF261
 3197 1508 25       		.byte	0x25
 3198 1509 45       		.byte	0x45
 3199 150a 02       		.uleb128 0x2
 3200 150b 9E0E0000 		.4byte	.LASF262
 3201 150f 25       		.byte	0x25
 3202 1510 3F       		.byte	0x3f
 3203 1511 02       		.uleb128 0x2
 3204 1512 E0090000 		.4byte	.LASF263
 3205 1516 26       		.byte	0x26
 3206 1517 45       		.byte	0x45
 3207 1518 02       		.uleb128 0x2
 3208 1519 DB010000 		.4byte	.LASF264
 3209 151d 26       		.byte	0x26
 3210 151e 3F       		.byte	0x3f
 3211 151f 02       		.uleb128 0x2
 3212 1520 B3060000 		.4byte	.LASF265
 3213 1524 27       		.byte	0x27
 3214 1525 45       		.byte	0x45
 3215 1526 02       		.uleb128 0x2
 3216 1527 4A0E0000 		.4byte	.LASF266
 3217 152b 27       		.byte	0x27
 3218 152c 3F       		.byte	0x3f
 3219 152d 02       		.uleb128 0x2
 3220 152e 16090000 		.4byte	.LASF267
 3221 1532 28       		.byte	0x28
 3222 1533 45       		.byte	0x45
 3223 1534 02       		.uleb128 0x2
 3224 1535 9E0A0000 		.4byte	.LASF268
 3225 1539 28       		.byte	0x28
 3226 153a 3F       		.byte	0x3f
 3227 153b 02       		.uleb128 0x2
 3228 153c E80B0000 		.4byte	.LASF269
 3229 1540 29       		.byte	0x29
 3230 1541 45       		.byte	0x45
 3231 1542 02       		.uleb128 0x2
 3232 1543 F20C0000 		.4byte	.LASF270
 3233 1547 29       		.byte	0x29
 3234 1548 3F       		.byte	0x3f
 3235 1549 02       		.uleb128 0x2
 3236 154a C2080000 		.4byte	.LASF271
 3237 154e 2A       		.byte	0x2a
 3238 154f 45       		.byte	0x45
 3239 1550 02       		.uleb128 0x2
 3240 1551 5C030000 		.4byte	.LASF272
 3241 1555 2A       		.byte	0x2a
 3242 1556 3F       		.byte	0x3f
 3243 1557 02       		.uleb128 0x2
ARM GAS  C:\Users\DEVELO~1\AppData\Local\Temp\cccWiZr8.s 			page 58


 3244 1558 E8070000 		.4byte	.LASF273
 3245 155c 2B       		.byte	0x2b
 3246 155d 45       		.byte	0x45
 3247 155e 02       		.uleb128 0x2
 3248 155f A70F0000 		.4byte	.LASF274
 3249 1563 2B       		.byte	0x2b
 3250 1564 3F       		.byte	0x3f
 3251 1565 16       		.uleb128 0x16
 3252 1566 39050000 		.4byte	.LASF275
 3253 156a 02       		.byte	0x2
 3254 156b 55       		.byte	0x55
 3255 156c 01       		.byte	0x1
 3256 156d 00000000 		.4byte	.LFB472
 3257 1571 28000000 		.4byte	.LFE472-.LFB472
 3258 1575 01       		.uleb128 0x1
 3259 1576 9C       		.byte	0x9c
 3260 1577 C5150000 		.4byte	0x15c5
 3261 157b 20       		.uleb128 0x20
 3262 157c 070F0000 		.4byte	.LASF276
 3263 1580 D4140000 		.4byte	0x14d4
 3264 1584 05       		.uleb128 0x5
 3265 1585 03       		.byte	0x3
 3266 1586 00000000 		.4byte	__func__.1
 3267 158a 15       		.uleb128 0x15
 3268 158b 0A000000 		.4byte	.LVL4
 3269 158f B7120000 		.4byte	0x12b7
 3270 1593 9E150000 		.4byte	0x159e
 3271 1597 0A       		.uleb128 0xa
 3272 1598 01       		.uleb128 0x1
 3273 1599 50       		.byte	0x50
 3274 159a 02       		.uleb128 0x2
 3275 159b 74       		.byte	0x74
 3276 159c 00       		.sleb128 0
 3277 159d 00       		.byte	0
 3278 159e 21       		.uleb128 0x21
 3279 159f 10000000 		.4byte	.LVL5
 3280 15a3 70120000 		.4byte	0x1270
 3281 15a7 15       		.uleb128 0x15
 3282 15a8 16000000 		.4byte	.LVL6
 3283 15ac 8F120000 		.4byte	0x128f
 3284 15b0 BB150000 		.4byte	0x15bb
 3285 15b4 0A       		.uleb128 0xa
 3286 15b5 01       		.uleb128 0x1
 3287 15b6 50       		.byte	0x50
 3288 15b7 02       		.uleb128 0x2
 3289 15b8 74       		.byte	0x74
 3290 15b9 00       		.sleb128 0
 3291 15ba 00       		.byte	0
 3292 15bb 22       		.uleb128 0x22
 3293 15bc 1E000000 		.4byte	.LVL7
 3294 15c0 87120000 		.4byte	0x1287
 3295 15c4 00       		.byte	0
 3296 15c5 02       		.uleb128 0x2
 3297 15c6 320D0000 		.4byte	.LASF277
 3298 15ca 02       		.byte	0x2
 3299 15cb 45       		.byte	0x45
 3300 15cc 02       		.uleb128 0x2
ARM GAS  C:\Users\DEVELO~1\AppData\Local\Temp\cccWiZr8.s 			page 59


 3301 15cd 2C090000 		.4byte	.LASF278
 3302 15d1 02       		.byte	0x2
 3303 15d2 3F       		.byte	0x3f
 3304 15d3 02       		.uleb128 0x2
 3305 15d4 D1040000 		.4byte	.LASF279
 3306 15d8 2C       		.byte	0x2c
 3307 15d9 45       		.byte	0x45
 3308 15da 02       		.uleb128 0x2
 3309 15db 6E050000 		.4byte	.LASF280
 3310 15df 2C       		.byte	0x2c
 3311 15e0 3F       		.byte	0x3f
 3312 15e1 02       		.uleb128 0x2
 3313 15e2 500F0000 		.4byte	.LASF281
 3314 15e6 2D       		.byte	0x2d
 3315 15e7 45       		.byte	0x45
 3316 15e8 02       		.uleb128 0x2
 3317 15e9 CB010000 		.4byte	.LASF282
 3318 15ed 2D       		.byte	0x2d
 3319 15ee 3F       		.byte	0x3f
 3320 15ef 02       		.uleb128 0x2
 3321 15f0 A2020000 		.4byte	.LASF283
 3322 15f4 2E       		.byte	0x2e
 3323 15f5 4C       		.byte	0x4c
 3324 15f6 02       		.uleb128 0x2
 3325 15f7 740D0000 		.4byte	.LASF284
 3326 15fb 2E       		.byte	0x2e
 3327 15fc 46       		.byte	0x46
 3328 15fd 16       		.uleb128 0x16
 3329 15fe E4080000 		.4byte	.LASF285
 3330 1602 01       		.byte	0x1
 3331 1603 5C       		.byte	0x5c
 3332 1604 01       		.byte	0x1
 3333 1605 00000000 		.4byte	.LFB463
 3334 1609 28000000 		.4byte	.LFE463-.LFB463
 3335 160d 01       		.uleb128 0x1
 3336 160e 9C       		.byte	0x9c
 3337 160f 5D160000 		.4byte	0x165d
 3338 1613 20       		.uleb128 0x20
 3339 1614 070F0000 		.4byte	.LASF276
 3340 1618 6D160000 		.4byte	0x166d
 3341 161c 05       		.uleb128 0x5
 3342 161d 03       		.byte	0x3
 3343 161e 00000000 		.4byte	__func__.2
 3344 1622 15       		.uleb128 0x15
 3345 1623 0A000000 		.4byte	.LVL0
 3346 1627 B7120000 		.4byte	0x12b7
 3347 162b 36160000 		.4byte	0x1636
 3348 162f 0A       		.uleb128 0xa
 3349 1630 01       		.uleb128 0x1
 3350 1631 50       		.byte	0x50
 3351 1632 02       		.uleb128 0x2
 3352 1633 74       		.byte	0x74
 3353 1634 00       		.sleb128 0
 3354 1635 00       		.byte	0
 3355 1636 21       		.uleb128 0x21
 3356 1637 10000000 		.4byte	.LVL1
 3357 163b A0120000 		.4byte	0x12a0
ARM GAS  C:\Users\DEVELO~1\AppData\Local\Temp\cccWiZr8.s 			page 60


 3358 163f 15       		.uleb128 0x15
 3359 1640 16000000 		.4byte	.LVL2
 3360 1644 8F120000 		.4byte	0x128f
 3361 1648 53160000 		.4byte	0x1653
 3362 164c 0A       		.uleb128 0xa
 3363 164d 01       		.uleb128 0x1
 3364 164e 50       		.byte	0x50
 3365 164f 02       		.uleb128 0x2
 3366 1650 74       		.byte	0x74
 3367 1651 00       		.sleb128 0
 3368 1652 00       		.byte	0
 3369 1653 22       		.uleb128 0x22
 3370 1654 1E000000 		.4byte	.LVL3
 3371 1658 87120000 		.4byte	0x1287
 3372 165c 00       		.byte	0
 3373 165d 11       		.uleb128 0x11
 3374 165e 7C030000 		.4byte	0x37c
 3375 1662 6D160000 		.4byte	0x166d
 3376 1666 12       		.uleb128 0x12
 3377 1667 3E000000 		.4byte	0x3e
 3378 166b 09       		.byte	0x9
 3379 166c 00       		.byte	0
 3380 166d 0E       		.uleb128 0xe
 3381 166e 5D160000 		.4byte	0x165d
 3382 1672 02       		.uleb128 0x2
 3383 1673 9A0D0000 		.4byte	.LASF286
 3384 1677 01       		.byte	0x1
 3385 1678 4C       		.byte	0x4c
 3386 1679 02       		.uleb128 0x2
 3387 167a 91090000 		.4byte	.LASF287
 3388 167e 01       		.byte	0x1
 3389 167f 46       		.byte	0x46
 3390 1680 02       		.uleb128 0x2
 3391 1681 8F010000 		.4byte	.LASF288
 3392 1685 2F       		.byte	0x2f
 3393 1686 4C       		.byte	0x4c
 3394 1687 02       		.uleb128 0x2
 3395 1688 A5080000 		.4byte	.LASF289
 3396 168c 2F       		.byte	0x2f
 3397 168d 46       		.byte	0x46
 3398 168e 02       		.uleb128 0x2
 3399 168f 6B010000 		.4byte	.LASF290
 3400 1693 30       		.byte	0x30
 3401 1694 4C       		.byte	0x4c
 3402 1695 02       		.uleb128 0x2
 3403 1696 1B070000 		.4byte	.LASF291
 3404 169a 30       		.byte	0x30
 3405 169b 46       		.byte	0x46
 3406 169c 02       		.uleb128 0x2
 3407 169d 5D0C0000 		.4byte	.LASF292
 3408 16a1 31       		.byte	0x31
 3409 16a2 4C       		.byte	0x4c
 3410 16a3 02       		.uleb128 0x2
 3411 16a4 C1040000 		.4byte	.LASF293
 3412 16a8 31       		.byte	0x31
 3413 16a9 46       		.byte	0x46
 3414 16aa 02       		.uleb128 0x2
ARM GAS  C:\Users\DEVELO~1\AppData\Local\Temp\cccWiZr8.s 			page 61


 3415 16ab 92070000 		.4byte	.LASF294
 3416 16af 32       		.byte	0x32
 3417 16b0 3D       		.byte	0x3d
 3418 16b1 02       		.uleb128 0x2
 3419 16b2 41020000 		.4byte	.LASF295
 3420 16b6 32       		.byte	0x32
 3421 16b7 37       		.byte	0x37
 3422 16b8 02       		.uleb128 0x2
 3423 16b9 00000000 		.4byte	.LASF296
 3424 16bd 33       		.byte	0x33
 3425 16be 3D       		.byte	0x3d
 3426 16bf 02       		.uleb128 0x2
 3427 16c0 F9090000 		.4byte	.LASF297
 3428 16c4 33       		.byte	0x33
 3429 16c5 37       		.byte	0x37
 3430 16c6 02       		.uleb128 0x2
 3431 16c7 7E050000 		.4byte	.LASF298
 3432 16cb 34       		.byte	0x34
 3433 16cc 3D       		.byte	0x3d
 3434 16cd 02       		.uleb128 0x2
 3435 16ce 22060000 		.4byte	.LASF299
 3436 16d2 34       		.byte	0x34
 3437 16d3 37       		.byte	0x37
 3438 16d4 02       		.uleb128 0x2
 3439 16d5 AC050000 		.4byte	.LASF300
 3440 16d9 35       		.byte	0x35
 3441 16da 3D       		.byte	0x3d
 3442 16db 02       		.uleb128 0x2
 3443 16dc C4020000 		.4byte	.LASF301
 3444 16e0 35       		.byte	0x35
 3445 16e1 37       		.byte	0x37
 3446 16e2 02       		.uleb128 0x2
 3447 16e3 28000000 		.4byte	.LASF302
 3448 16e7 36       		.byte	0x36
 3449 16e8 3D       		.byte	0x3d
 3450 16e9 02       		.uleb128 0x2
 3451 16ea B3070000 		.4byte	.LASF303
 3452 16ee 36       		.byte	0x36
 3453 16ef 37       		.byte	0x37
 3454 16f0 02       		.uleb128 0x2
 3455 16f1 48090000 		.4byte	.LASF304
 3456 16f5 37       		.byte	0x37
 3457 16f6 3D       		.byte	0x3d
 3458 16f7 02       		.uleb128 0x2
 3459 16f8 32060000 		.4byte	.LASF305
 3460 16fc 37       		.byte	0x37
 3461 16fd 37       		.byte	0x37
 3462 16fe 02       		.uleb128 0x2
 3463 16ff DD030000 		.4byte	.LASF306
 3464 1703 38       		.byte	0x38
 3465 1704 3D       		.byte	0x3d
 3466 1705 02       		.uleb128 0x2
 3467 1706 EB000000 		.4byte	.LASF307
 3468 170a 38       		.byte	0x38
 3469 170b 37       		.byte	0x37
 3470 170c 02       		.uleb128 0x2
 3471 170d 72070000 		.4byte	.LASF308
ARM GAS  C:\Users\DEVELO~1\AppData\Local\Temp\cccWiZr8.s 			page 62


 3472 1711 39       		.byte	0x39
 3473 1712 3D       		.byte	0x3d
 3474 1713 02       		.uleb128 0x2
 3475 1714 24020000 		.4byte	.LASF309
 3476 1718 39       		.byte	0x39
 3477 1719 37       		.byte	0x37
 3478 171a 02       		.uleb128 0x2
 3479 171b 85080000 		.4byte	.LASF310
 3480 171f 3A       		.byte	0x3a
 3481 1720 3D       		.byte	0x3d
 3482 1721 02       		.uleb128 0x2
 3483 1722 730E0000 		.4byte	.LASF311
 3484 1726 3A       		.byte	0x3a
 3485 1727 37       		.byte	0x37
 3486 1728 02       		.uleb128 0x2
 3487 1729 F6020000 		.4byte	.LASF312
 3488 172d 3B       		.byte	0x3b
 3489 172e 3D       		.byte	0x3d
 3490 172f 02       		.uleb128 0x2
 3491 1730 7E0B0000 		.4byte	.LASF313
 3492 1734 3B       		.byte	0x3b
 3493 1735 37       		.byte	0x37
 3494 1736 02       		.uleb128 0x2
 3495 1737 E20D0000 		.4byte	.LASF314
 3496 173b 3C       		.byte	0x3c
 3497 173c 3D       		.byte	0x3d
 3498 173d 02       		.uleb128 0x2
 3499 173e 83070000 		.4byte	.LASF315
 3500 1742 3C       		.byte	0x3c
 3501 1743 37       		.byte	0x37
 3502 1744 02       		.uleb128 0x2
 3503 1745 B80B0000 		.4byte	.LASF316
 3504 1749 3D       		.byte	0x3d
 3505 174a 3D       		.byte	0x3d
 3506 174b 02       		.uleb128 0x2
 3507 174c 77030000 		.4byte	.LASF317
 3508 1750 3D       		.byte	0x3d
 3509 1751 37       		.byte	0x37
 3510 1752 00       		.byte	0
 3511              		.section	.debug_abbrev,"",%progbits
 3512              	.Ldebug_abbrev0:
 3513 0000 01       		.uleb128 0x1
 3514 0001 0D       		.uleb128 0xd
 3515 0002 00       		.byte	0
 3516 0003 03       		.uleb128 0x3
 3517 0004 0E       		.uleb128 0xe
 3518 0005 3A       		.uleb128 0x3a
 3519 0006 0B       		.uleb128 0xb
 3520 0007 3B       		.uleb128 0x3b
 3521 0008 0B       		.uleb128 0xb
 3522 0009 39       		.uleb128 0x39
 3523 000a 0B       		.uleb128 0xb
 3524 000b 49       		.uleb128 0x49
 3525 000c 13       		.uleb128 0x13
 3526 000d 38       		.uleb128 0x38
 3527 000e 0B       		.uleb128 0xb
 3528 000f 00       		.byte	0
ARM GAS  C:\Users\DEVELO~1\AppData\Local\Temp\cccWiZr8.s 			page 63


 3529 0010 00       		.byte	0
 3530 0011 02       		.uleb128 0x2
 3531 0012 2E       		.uleb128 0x2e
 3532 0013 00       		.byte	0
 3533 0014 03       		.uleb128 0x3
 3534 0015 0E       		.uleb128 0xe
 3535 0016 3A       		.uleb128 0x3a
 3536 0017 0B       		.uleb128 0xb
 3537 0018 3B       		.uleb128 0x3b
 3538 0019 0B       		.uleb128 0xb
 3539 001a 39       		.uleb128 0x39
 3540 001b 21       		.uleb128 0x21
 3541 001c 14       		.sleb128 20
 3542 001d 27       		.uleb128 0x27
 3543 001e 19       		.uleb128 0x19
 3544 001f 20       		.uleb128 0x20
 3545 0020 21       		.uleb128 0x21
 3546 0021 03       		.sleb128 3
 3547 0022 00       		.byte	0
 3548 0023 00       		.byte	0
 3549 0024 03       		.uleb128 0x3
 3550 0025 16       		.uleb128 0x16
 3551 0026 00       		.byte	0
 3552 0027 03       		.uleb128 0x3
 3553 0028 0E       		.uleb128 0xe
 3554 0029 3A       		.uleb128 0x3a
 3555 002a 0B       		.uleb128 0xb
 3556 002b 3B       		.uleb128 0x3b
 3557 002c 0B       		.uleb128 0xb
 3558 002d 39       		.uleb128 0x39
 3559 002e 0B       		.uleb128 0xb
 3560 002f 49       		.uleb128 0x49
 3561 0030 13       		.uleb128 0x13
 3562 0031 00       		.byte	0
 3563 0032 00       		.byte	0
 3564 0033 04       		.uleb128 0x4
 3565 0034 0D       		.uleb128 0xd
 3566 0035 00       		.byte	0
 3567 0036 03       		.uleb128 0x3
 3568 0037 0E       		.uleb128 0xe
 3569 0038 3A       		.uleb128 0x3a
 3570 0039 0B       		.uleb128 0xb
 3571 003a 3B       		.uleb128 0x3b
 3572 003b 05       		.uleb128 0x5
 3573 003c 39       		.uleb128 0x39
 3574 003d 0B       		.uleb128 0xb
 3575 003e 49       		.uleb128 0x49
 3576 003f 13       		.uleb128 0x13
 3577 0040 38       		.uleb128 0x38
 3578 0041 0B       		.uleb128 0xb
 3579 0042 00       		.byte	0
 3580 0043 00       		.byte	0
 3581 0044 05       		.uleb128 0x5
 3582 0045 05       		.uleb128 0x5
 3583 0046 00       		.byte	0
 3584 0047 49       		.uleb128 0x49
 3585 0048 13       		.uleb128 0x13
ARM GAS  C:\Users\DEVELO~1\AppData\Local\Temp\cccWiZr8.s 			page 64


 3586 0049 00       		.byte	0
 3587 004a 00       		.byte	0
 3588 004b 06       		.uleb128 0x6
 3589 004c 0F       		.uleb128 0xf
 3590 004d 00       		.byte	0
 3591 004e 0B       		.uleb128 0xb
 3592 004f 21       		.uleb128 0x21
 3593 0050 04       		.sleb128 4
 3594 0051 49       		.uleb128 0x49
 3595 0052 13       		.uleb128 0x13
 3596 0053 00       		.byte	0
 3597 0054 00       		.byte	0
 3598 0055 07       		.uleb128 0x7
 3599 0056 0D       		.uleb128 0xd
 3600 0057 00       		.byte	0
 3601 0058 03       		.uleb128 0x3
 3602 0059 08       		.uleb128 0x8
 3603 005a 3A       		.uleb128 0x3a
 3604 005b 0B       		.uleb128 0xb
 3605 005c 3B       		.uleb128 0x3b
 3606 005d 05       		.uleb128 0x5
 3607 005e 39       		.uleb128 0x39
 3608 005f 0B       		.uleb128 0xb
 3609 0060 49       		.uleb128 0x49
 3610 0061 13       		.uleb128 0x13
 3611 0062 38       		.uleb128 0x38
 3612 0063 0B       		.uleb128 0xb
 3613 0064 00       		.byte	0
 3614 0065 00       		.byte	0
 3615 0066 08       		.uleb128 0x8
 3616 0067 13       		.uleb128 0x13
 3617 0068 01       		.byte	0x1
 3618 0069 03       		.uleb128 0x3
 3619 006a 0E       		.uleb128 0xe
 3620 006b 0B       		.uleb128 0xb
 3621 006c 0B       		.uleb128 0xb
 3622 006d 3A       		.uleb128 0x3a
 3623 006e 0B       		.uleb128 0xb
 3624 006f 3B       		.uleb128 0x3b
 3625 0070 0B       		.uleb128 0xb
 3626 0071 39       		.uleb128 0x39
 3627 0072 0B       		.uleb128 0xb
 3628 0073 01       		.uleb128 0x1
 3629 0074 13       		.uleb128 0x13
 3630 0075 00       		.byte	0
 3631 0076 00       		.byte	0
 3632 0077 09       		.uleb128 0x9
 3633 0078 0D       		.uleb128 0xd
 3634 0079 00       		.byte	0
 3635 007a 03       		.uleb128 0x3
 3636 007b 08       		.uleb128 0x8
 3637 007c 3A       		.uleb128 0x3a
 3638 007d 0B       		.uleb128 0xb
 3639 007e 3B       		.uleb128 0x3b
 3640 007f 0B       		.uleb128 0xb
 3641 0080 39       		.uleb128 0x39
 3642 0081 0B       		.uleb128 0xb
ARM GAS  C:\Users\DEVELO~1\AppData\Local\Temp\cccWiZr8.s 			page 65


 3643 0082 49       		.uleb128 0x49
 3644 0083 13       		.uleb128 0x13
 3645 0084 38       		.uleb128 0x38
 3646 0085 0B       		.uleb128 0xb
 3647 0086 00       		.byte	0
 3648 0087 00       		.byte	0
 3649 0088 0A       		.uleb128 0xa
 3650 0089 49       		.uleb128 0x49
 3651 008a 00       		.byte	0
 3652 008b 02       		.uleb128 0x2
 3653 008c 18       		.uleb128 0x18
 3654 008d 7E       		.uleb128 0x7e
 3655 008e 18       		.uleb128 0x18
 3656 008f 00       		.byte	0
 3657 0090 00       		.byte	0
 3658 0091 0B       		.uleb128 0xb
 3659 0092 28       		.uleb128 0x28
 3660 0093 00       		.byte	0
 3661 0094 03       		.uleb128 0x3
 3662 0095 0E       		.uleb128 0xe
 3663 0096 1C       		.uleb128 0x1c
 3664 0097 0B       		.uleb128 0xb
 3665 0098 00       		.byte	0
 3666 0099 00       		.byte	0
 3667 009a 0C       		.uleb128 0xc
 3668 009b 24       		.uleb128 0x24
 3669 009c 00       		.byte	0
 3670 009d 0B       		.uleb128 0xb
 3671 009e 0B       		.uleb128 0xb
 3672 009f 3E       		.uleb128 0x3e
 3673 00a0 0B       		.uleb128 0xb
 3674 00a1 03       		.uleb128 0x3
 3675 00a2 0E       		.uleb128 0xe
 3676 00a3 00       		.byte	0
 3677 00a4 00       		.byte	0
 3678 00a5 0D       		.uleb128 0xd
 3679 00a6 15       		.uleb128 0x15
 3680 00a7 01       		.byte	0x1
 3681 00a8 27       		.uleb128 0x27
 3682 00a9 19       		.uleb128 0x19
 3683 00aa 49       		.uleb128 0x49
 3684 00ab 13       		.uleb128 0x13
 3685 00ac 01       		.uleb128 0x1
 3686 00ad 13       		.uleb128 0x13
 3687 00ae 00       		.byte	0
 3688 00af 00       		.byte	0
 3689 00b0 0E       		.uleb128 0xe
 3690 00b1 26       		.uleb128 0x26
 3691 00b2 00       		.byte	0
 3692 00b3 49       		.uleb128 0x49
 3693 00b4 13       		.uleb128 0x13
 3694 00b5 00       		.byte	0
 3695 00b6 00       		.byte	0
 3696 00b7 0F       		.uleb128 0xf
 3697 00b8 13       		.uleb128 0x13
 3698 00b9 01       		.byte	0x1
 3699 00ba 0B       		.uleb128 0xb
ARM GAS  C:\Users\DEVELO~1\AppData\Local\Temp\cccWiZr8.s 			page 66


 3700 00bb 0B       		.uleb128 0xb
 3701 00bc 3A       		.uleb128 0x3a
 3702 00bd 0B       		.uleb128 0xb
 3703 00be 3B       		.uleb128 0x3b
 3704 00bf 0B       		.uleb128 0xb
 3705 00c0 39       		.uleb128 0x39
 3706 00c1 0B       		.uleb128 0xb
 3707 00c2 01       		.uleb128 0x1
 3708 00c3 13       		.uleb128 0x13
 3709 00c4 00       		.byte	0
 3710 00c5 00       		.byte	0
 3711 00c6 10       		.uleb128 0x10
 3712 00c7 0D       		.uleb128 0xd
 3713 00c8 00       		.byte	0
 3714 00c9 03       		.uleb128 0x3
 3715 00ca 0E       		.uleb128 0xe
 3716 00cb 3A       		.uleb128 0x3a
 3717 00cc 0B       		.uleb128 0xb
 3718 00cd 3B       		.uleb128 0x3b
 3719 00ce 0B       		.uleb128 0xb
 3720 00cf 39       		.uleb128 0x39
 3721 00d0 0B       		.uleb128 0xb
 3722 00d1 49       		.uleb128 0x49
 3723 00d2 13       		.uleb128 0x13
 3724 00d3 00       		.byte	0
 3725 00d4 00       		.byte	0
 3726 00d5 11       		.uleb128 0x11
 3727 00d6 01       		.uleb128 0x1
 3728 00d7 01       		.byte	0x1
 3729 00d8 49       		.uleb128 0x49
 3730 00d9 13       		.uleb128 0x13
 3731 00da 01       		.uleb128 0x1
 3732 00db 13       		.uleb128 0x13
 3733 00dc 00       		.byte	0
 3734 00dd 00       		.byte	0
 3735 00de 12       		.uleb128 0x12
 3736 00df 21       		.uleb128 0x21
 3737 00e0 00       		.byte	0
 3738 00e1 49       		.uleb128 0x49
 3739 00e2 13       		.uleb128 0x13
 3740 00e3 2F       		.uleb128 0x2f
 3741 00e4 0B       		.uleb128 0xb
 3742 00e5 00       		.byte	0
 3743 00e6 00       		.byte	0
 3744 00e7 13       		.uleb128 0x13
 3745 00e8 0D       		.uleb128 0xd
 3746 00e9 00       		.byte	0
 3747 00ea 03       		.uleb128 0x3
 3748 00eb 0E       		.uleb128 0xe
 3749 00ec 3A       		.uleb128 0x3a
 3750 00ed 21       		.uleb128 0x21
 3751 00ee 0A       		.sleb128 10
 3752 00ef 3B       		.uleb128 0x3b
 3753 00f0 05       		.uleb128 0x5
 3754 00f1 39       		.uleb128 0x39
 3755 00f2 0B       		.uleb128 0xb
 3756 00f3 49       		.uleb128 0x49
ARM GAS  C:\Users\DEVELO~1\AppData\Local\Temp\cccWiZr8.s 			page 67


 3757 00f4 13       		.uleb128 0x13
 3758 00f5 00       		.byte	0
 3759 00f6 00       		.byte	0
 3760 00f7 14       		.uleb128 0x14
 3761 00f8 48       		.uleb128 0x48
 3762 00f9 01       		.byte	0x1
 3763 00fa 7D       		.uleb128 0x7d
 3764 00fb 01       		.uleb128 0x1
 3765 00fc 7F       		.uleb128 0x7f
 3766 00fd 13       		.uleb128 0x13
 3767 00fe 00       		.byte	0
 3768 00ff 00       		.byte	0
 3769 0100 15       		.uleb128 0x15
 3770 0101 48       		.uleb128 0x48
 3771 0102 01       		.byte	0x1
 3772 0103 7D       		.uleb128 0x7d
 3773 0104 01       		.uleb128 0x1
 3774 0105 7F       		.uleb128 0x7f
 3775 0106 13       		.uleb128 0x13
 3776 0107 01       		.uleb128 0x1
 3777 0108 13       		.uleb128 0x13
 3778 0109 00       		.byte	0
 3779 010a 00       		.byte	0
 3780 010b 16       		.uleb128 0x16
 3781 010c 2E       		.uleb128 0x2e
 3782 010d 01       		.byte	0x1
 3783 010e 3F       		.uleb128 0x3f
 3784 010f 19       		.uleb128 0x19
 3785 0110 03       		.uleb128 0x3
 3786 0111 0E       		.uleb128 0xe
 3787 0112 3A       		.uleb128 0x3a
 3788 0113 0B       		.uleb128 0xb
 3789 0114 3B       		.uleb128 0x3b
 3790 0115 0B       		.uleb128 0xb
 3791 0116 39       		.uleb128 0x39
 3792 0117 0B       		.uleb128 0xb
 3793 0118 27       		.uleb128 0x27
 3794 0119 19       		.uleb128 0x19
 3795 011a 11       		.uleb128 0x11
 3796 011b 01       		.uleb128 0x1
 3797 011c 12       		.uleb128 0x12
 3798 011d 06       		.uleb128 0x6
 3799 011e 40       		.uleb128 0x40
 3800 011f 18       		.uleb128 0x18
 3801 0120 7A       		.uleb128 0x7a
 3802 0121 19       		.uleb128 0x19
 3803 0122 01       		.uleb128 0x1
 3804 0123 13       		.uleb128 0x13
 3805 0124 00       		.byte	0
 3806 0125 00       		.byte	0
 3807 0126 17       		.uleb128 0x17
 3808 0127 35       		.uleb128 0x35
 3809 0128 00       		.byte	0
 3810 0129 49       		.uleb128 0x49
 3811 012a 13       		.uleb128 0x13
 3812 012b 00       		.byte	0
 3813 012c 00       		.byte	0
ARM GAS  C:\Users\DEVELO~1\AppData\Local\Temp\cccWiZr8.s 			page 68


 3814 012d 18       		.uleb128 0x18
 3815 012e 16       		.uleb128 0x16
 3816 012f 00       		.byte	0
 3817 0130 03       		.uleb128 0x3
 3818 0131 0E       		.uleb128 0xe
 3819 0132 3A       		.uleb128 0x3a
 3820 0133 0B       		.uleb128 0xb
 3821 0134 3B       		.uleb128 0x3b
 3822 0135 05       		.uleb128 0x5
 3823 0136 39       		.uleb128 0x39
 3824 0137 21       		.uleb128 0x21
 3825 0138 03       		.sleb128 3
 3826 0139 49       		.uleb128 0x49
 3827 013a 13       		.uleb128 0x13
 3828 013b 00       		.byte	0
 3829 013c 00       		.byte	0
 3830 013d 19       		.uleb128 0x19
 3831 013e 13       		.uleb128 0x13
 3832 013f 01       		.byte	0x1
 3833 0140 03       		.uleb128 0x3
 3834 0141 0E       		.uleb128 0xe
 3835 0142 0B       		.uleb128 0xb
 3836 0143 0B       		.uleb128 0xb
 3837 0144 3A       		.uleb128 0x3a
 3838 0145 0B       		.uleb128 0xb
 3839 0146 3B       		.uleb128 0x3b
 3840 0147 05       		.uleb128 0x5
 3841 0148 39       		.uleb128 0x39
 3842 0149 0B       		.uleb128 0xb
 3843 014a 01       		.uleb128 0x1
 3844 014b 13       		.uleb128 0x13
 3845 014c 00       		.byte	0
 3846 014d 00       		.byte	0
 3847 014e 1A       		.uleb128 0x1a
 3848 014f 2E       		.uleb128 0x2e
 3849 0150 01       		.byte	0x1
 3850 0151 3F       		.uleb128 0x3f
 3851 0152 19       		.uleb128 0x19
 3852 0153 03       		.uleb128 0x3
 3853 0154 0E       		.uleb128 0xe
 3854 0155 3A       		.uleb128 0x3a
 3855 0156 0B       		.uleb128 0xb
 3856 0157 3B       		.uleb128 0x3b
 3857 0158 0B       		.uleb128 0xb
 3858 0159 39       		.uleb128 0x39
 3859 015a 21       		.uleb128 0x21
 3860 015b 08       		.sleb128 8
 3861 015c 27       		.uleb128 0x27
 3862 015d 19       		.uleb128 0x19
 3863 015e 3C       		.uleb128 0x3c
 3864 015f 19       		.uleb128 0x19
 3865 0160 01       		.uleb128 0x1
 3866 0161 13       		.uleb128 0x13
 3867 0162 00       		.byte	0
 3868 0163 00       		.byte	0
 3869 0164 1B       		.uleb128 0x1b
 3870 0165 1D       		.uleb128 0x1d
ARM GAS  C:\Users\DEVELO~1\AppData\Local\Temp\cccWiZr8.s 			page 69


 3871 0166 01       		.byte	0x1
 3872 0167 31       		.uleb128 0x31
 3873 0168 13       		.uleb128 0x13
 3874 0169 52       		.uleb128 0x52
 3875 016a 01       		.uleb128 0x1
 3876 016b B842     		.uleb128 0x2138
 3877 016d 0B       		.uleb128 0xb
 3878 016e 11       		.uleb128 0x11
 3879 016f 01       		.uleb128 0x1
 3880 0170 12       		.uleb128 0x12
 3881 0171 06       		.uleb128 0x6
 3882 0172 58       		.uleb128 0x58
 3883 0173 21       		.uleb128 0x21
 3884 0174 04       		.sleb128 4
 3885 0175 59       		.uleb128 0x59
 3886 0176 0B       		.uleb128 0xb
 3887 0177 57       		.uleb128 0x57
 3888 0178 21       		.uleb128 0x21
 3889 0179 03       		.sleb128 3
 3890 017a 01       		.uleb128 0x1
 3891 017b 13       		.uleb128 0x13
 3892 017c 00       		.byte	0
 3893 017d 00       		.byte	0
 3894 017e 1C       		.uleb128 0x1c
 3895 017f 17       		.uleb128 0x17
 3896 0180 01       		.byte	0x1
 3897 0181 0B       		.uleb128 0xb
 3898 0182 0B       		.uleb128 0xb
 3899 0183 3A       		.uleb128 0x3a
 3900 0184 0B       		.uleb128 0xb
 3901 0185 3B       		.uleb128 0x3b
 3902 0186 0B       		.uleb128 0xb
 3903 0187 39       		.uleb128 0x39
 3904 0188 21       		.uleb128 0x21
 3905 0189 03       		.sleb128 3
 3906 018a 01       		.uleb128 0x1
 3907 018b 13       		.uleb128 0x13
 3908 018c 00       		.byte	0
 3909 018d 00       		.byte	0
 3910 018e 1D       		.uleb128 0x1d
 3911 018f 0D       		.uleb128 0xd
 3912 0190 00       		.byte	0
 3913 0191 03       		.uleb128 0x3
 3914 0192 08       		.uleb128 0x8
 3915 0193 3A       		.uleb128 0x3a
 3916 0194 21       		.uleb128 0x21
 3917 0195 0F       		.sleb128 15
 3918 0196 3B       		.uleb128 0x3b
 3919 0197 0B       		.uleb128 0xb
 3920 0198 39       		.uleb128 0x39
 3921 0199 21       		.uleb128 0x21
 3922 019a 07       		.sleb128 7
 3923 019b 49       		.uleb128 0x49
 3924 019c 13       		.uleb128 0x13
 3925 019d 00       		.byte	0
 3926 019e 00       		.byte	0
 3927 019f 1E       		.uleb128 0x1e
ARM GAS  C:\Users\DEVELO~1\AppData\Local\Temp\cccWiZr8.s 			page 70


 3928 01a0 0D       		.uleb128 0xd
 3929 01a1 00       		.byte	0
 3930 01a2 03       		.uleb128 0x3
 3931 01a3 0E       		.uleb128 0xe
 3932 01a4 3A       		.uleb128 0x3a
 3933 01a5 21       		.uleb128 0x21
 3934 01a6 0F       		.sleb128 15
 3935 01a7 3B       		.uleb128 0x3b
 3936 01a8 0B       		.uleb128 0xb
 3937 01a9 39       		.uleb128 0x39
 3938 01aa 21       		.uleb128 0x21
 3939 01ab 19       		.sleb128 25
 3940 01ac 49       		.uleb128 0x49
 3941 01ad 13       		.uleb128 0x13
 3942 01ae 0D       		.uleb128 0xd
 3943 01af 0B       		.uleb128 0xb
 3944 01b0 6B       		.uleb128 0x6b
 3945 01b1 0B       		.uleb128 0xb
 3946 01b2 00       		.byte	0
 3947 01b3 00       		.byte	0
 3948 01b4 1F       		.uleb128 0x1f
 3949 01b5 04       		.uleb128 0x4
 3950 01b6 01       		.byte	0x1
 3951 01b7 3E       		.uleb128 0x3e
 3952 01b8 21       		.uleb128 0x21
 3953 01b9 07       		.sleb128 7
 3954 01ba 0B       		.uleb128 0xb
 3955 01bb 21       		.uleb128 0x21
 3956 01bc 01       		.sleb128 1
 3957 01bd 49       		.uleb128 0x49
 3958 01be 13       		.uleb128 0x13
 3959 01bf 3A       		.uleb128 0x3a
 3960 01c0 0B       		.uleb128 0xb
 3961 01c1 3B       		.uleb128 0x3b
 3962 01c2 0B       		.uleb128 0xb
 3963 01c3 39       		.uleb128 0x39
 3964 01c4 21       		.uleb128 0x21
 3965 01c5 0E       		.sleb128 14
 3966 01c6 01       		.uleb128 0x1
 3967 01c7 13       		.uleb128 0x13
 3968 01c8 00       		.byte	0
 3969 01c9 00       		.byte	0
 3970 01ca 20       		.uleb128 0x20
 3971 01cb 34       		.uleb128 0x34
 3972 01cc 00       		.byte	0
 3973 01cd 03       		.uleb128 0x3
 3974 01ce 0E       		.uleb128 0xe
 3975 01cf 49       		.uleb128 0x49
 3976 01d0 13       		.uleb128 0x13
 3977 01d1 34       		.uleb128 0x34
 3978 01d2 19       		.uleb128 0x19
 3979 01d3 02       		.uleb128 0x2
 3980 01d4 18       		.uleb128 0x18
 3981 01d5 00       		.byte	0
 3982 01d6 00       		.byte	0
 3983 01d7 21       		.uleb128 0x21
 3984 01d8 48       		.uleb128 0x48
ARM GAS  C:\Users\DEVELO~1\AppData\Local\Temp\cccWiZr8.s 			page 71


 3985 01d9 00       		.byte	0
 3986 01da 7D       		.uleb128 0x7d
 3987 01db 01       		.uleb128 0x1
 3988 01dc 7F       		.uleb128 0x7f
 3989 01dd 13       		.uleb128 0x13
 3990 01de 00       		.byte	0
 3991 01df 00       		.byte	0
 3992 01e0 22       		.uleb128 0x22
 3993 01e1 48       		.uleb128 0x48
 3994 01e2 00       		.byte	0
 3995 01e3 7D       		.uleb128 0x7d
 3996 01e4 01       		.uleb128 0x1
 3997 01e5 8201     		.uleb128 0x82
 3998 01e7 19       		.uleb128 0x19
 3999 01e8 7F       		.uleb128 0x7f
 4000 01e9 13       		.uleb128 0x13
 4001 01ea 00       		.byte	0
 4002 01eb 00       		.byte	0
 4003 01ec 23       		.uleb128 0x23
 4004 01ed 2E       		.uleb128 0x2e
 4005 01ee 00       		.byte	0
 4006 01ef 3F       		.uleb128 0x3f
 4007 01f0 19       		.uleb128 0x19
 4008 01f1 03       		.uleb128 0x3
 4009 01f2 0E       		.uleb128 0xe
 4010 01f3 3A       		.uleb128 0x3a
 4011 01f4 0B       		.uleb128 0xb
 4012 01f5 3B       		.uleb128 0x3b
 4013 01f6 05       		.uleb128 0x5
 4014 01f7 39       		.uleb128 0x39
 4015 01f8 21       		.uleb128 0x21
 4016 01f9 08       		.sleb128 8
 4017 01fa 27       		.uleb128 0x27
 4018 01fb 19       		.uleb128 0x19
 4019 01fc 3C       		.uleb128 0x3c
 4020 01fd 19       		.uleb128 0x19
 4021 01fe 00       		.byte	0
 4022 01ff 00       		.byte	0
 4023 0200 24       		.uleb128 0x24
 4024 0201 2E       		.uleb128 0x2e
 4025 0202 01       		.byte	0x1
 4026 0203 3F       		.uleb128 0x3f
 4027 0204 19       		.uleb128 0x19
 4028 0205 03       		.uleb128 0x3
 4029 0206 0E       		.uleb128 0xe
 4030 0207 3A       		.uleb128 0x3a
 4031 0208 0B       		.uleb128 0xb
 4032 0209 3B       		.uleb128 0x3b
 4033 020a 05       		.uleb128 0x5
 4034 020b 39       		.uleb128 0x39
 4035 020c 21       		.uleb128 0x21
 4036 020d 08       		.sleb128 8
 4037 020e 27       		.uleb128 0x27
 4038 020f 19       		.uleb128 0x19
 4039 0210 3C       		.uleb128 0x3c
 4040 0211 19       		.uleb128 0x19
 4041 0212 01       		.uleb128 0x1
ARM GAS  C:\Users\DEVELO~1\AppData\Local\Temp\cccWiZr8.s 			page 72


 4042 0213 13       		.uleb128 0x13
 4043 0214 00       		.byte	0
 4044 0215 00       		.byte	0
 4045 0216 25       		.uleb128 0x25
 4046 0217 1D       		.uleb128 0x1d
 4047 0218 01       		.byte	0x1
 4048 0219 31       		.uleb128 0x31
 4049 021a 13       		.uleb128 0x13
 4050 021b 52       		.uleb128 0x52
 4051 021c 01       		.uleb128 0x1
 4052 021d B842     		.uleb128 0x2138
 4053 021f 0B       		.uleb128 0xb
 4054 0220 55       		.uleb128 0x55
 4055 0221 17       		.uleb128 0x17
 4056 0222 58       		.uleb128 0x58
 4057 0223 21       		.uleb128 0x21
 4058 0224 04       		.sleb128 4
 4059 0225 59       		.uleb128 0x59
 4060 0226 0B       		.uleb128 0xb
 4061 0227 57       		.uleb128 0x57
 4062 0228 21       		.uleb128 0x21
 4063 0229 03       		.sleb128 3
 4064 022a 01       		.uleb128 0x1
 4065 022b 13       		.uleb128 0x13
 4066 022c 00       		.byte	0
 4067 022d 00       		.byte	0
 4068 022e 26       		.uleb128 0x26
 4069 022f 48       		.uleb128 0x48
 4070 0230 01       		.byte	0x1
 4071 0231 7D       		.uleb128 0x7d
 4072 0232 01       		.uleb128 0x1
 4073 0233 8201     		.uleb128 0x82
 4074 0235 19       		.uleb128 0x19
 4075 0236 7F       		.uleb128 0x7f
 4076 0237 13       		.uleb128 0x13
 4077 0238 00       		.byte	0
 4078 0239 00       		.byte	0
 4079 023a 27       		.uleb128 0x27
 4080 023b 11       		.uleb128 0x11
 4081 023c 01       		.byte	0x1
 4082 023d 25       		.uleb128 0x25
 4083 023e 0E       		.uleb128 0xe
 4084 023f 13       		.uleb128 0x13
 4085 0240 0B       		.uleb128 0xb
 4086 0241 03       		.uleb128 0x3
 4087 0242 0E       		.uleb128 0xe
 4088 0243 1B       		.uleb128 0x1b
 4089 0244 0E       		.uleb128 0xe
 4090 0245 55       		.uleb128 0x55
 4091 0246 17       		.uleb128 0x17
 4092 0247 11       		.uleb128 0x11
 4093 0248 01       		.uleb128 0x1
 4094 0249 10       		.uleb128 0x10
 4095 024a 17       		.uleb128 0x17
 4096 024b 00       		.byte	0
 4097 024c 00       		.byte	0
 4098 024d 28       		.uleb128 0x28
ARM GAS  C:\Users\DEVELO~1\AppData\Local\Temp\cccWiZr8.s 			page 73


 4099 024e 24       		.uleb128 0x24
 4100 024f 00       		.byte	0
 4101 0250 0B       		.uleb128 0xb
 4102 0251 0B       		.uleb128 0xb
 4103 0252 3E       		.uleb128 0x3e
 4104 0253 0B       		.uleb128 0xb
 4105 0254 03       		.uleb128 0x3
 4106 0255 08       		.uleb128 0x8
 4107 0256 00       		.byte	0
 4108 0257 00       		.byte	0
 4109 0258 29       		.uleb128 0x29
 4110 0259 13       		.uleb128 0x13
 4111 025a 01       		.byte	0x1
 4112 025b 03       		.uleb128 0x3
 4113 025c 0E       		.uleb128 0xe
 4114 025d 0B       		.uleb128 0xb
 4115 025e 05       		.uleb128 0x5
 4116 025f 3A       		.uleb128 0x3a
 4117 0260 0B       		.uleb128 0xb
 4118 0261 3B       		.uleb128 0x3b
 4119 0262 05       		.uleb128 0x5
 4120 0263 39       		.uleb128 0x39
 4121 0264 0B       		.uleb128 0xb
 4122 0265 01       		.uleb128 0x1
 4123 0266 13       		.uleb128 0x13
 4124 0267 00       		.byte	0
 4125 0268 00       		.byte	0
 4126 0269 2A       		.uleb128 0x2a
 4127 026a 0F       		.uleb128 0xf
 4128 026b 00       		.byte	0
 4129 026c 0B       		.uleb128 0xb
 4130 026d 0B       		.uleb128 0xb
 4131 026e 00       		.byte	0
 4132 026f 00       		.byte	0
 4133 0270 2B       		.uleb128 0x2b
 4134 0271 13       		.uleb128 0x13
 4135 0272 01       		.byte	0x1
 4136 0273 0B       		.uleb128 0xb
 4137 0274 05       		.uleb128 0x5
 4138 0275 3A       		.uleb128 0x3a
 4139 0276 0B       		.uleb128 0xb
 4140 0277 3B       		.uleb128 0x3b
 4141 0278 0B       		.uleb128 0xb
 4142 0279 39       		.uleb128 0x39
 4143 027a 0B       		.uleb128 0xb
 4144 027b 01       		.uleb128 0x1
 4145 027c 13       		.uleb128 0x13
 4146 027d 00       		.byte	0
 4147 027e 00       		.byte	0
 4148 027f 2C       		.uleb128 0x2c
 4149 0280 13       		.uleb128 0x13
 4150 0281 01       		.byte	0x1
 4151 0282 0B       		.uleb128 0xb
 4152 0283 05       		.uleb128 0x5
 4153 0284 3A       		.uleb128 0x3a
 4154 0285 0B       		.uleb128 0xb
 4155 0286 3B       		.uleb128 0x3b
ARM GAS  C:\Users\DEVELO~1\AppData\Local\Temp\cccWiZr8.s 			page 74


 4156 0287 05       		.uleb128 0x5
 4157 0288 39       		.uleb128 0x39
 4158 0289 0B       		.uleb128 0xb
 4159 028a 01       		.uleb128 0x1
 4160 028b 13       		.uleb128 0x13
 4161 028c 00       		.byte	0
 4162 028d 00       		.byte	0
 4163 028e 2D       		.uleb128 0x2d
 4164 028f 0D       		.uleb128 0xd
 4165 0290 00       		.byte	0
 4166 0291 03       		.uleb128 0x3
 4167 0292 0E       		.uleb128 0xe
 4168 0293 3A       		.uleb128 0x3a
 4169 0294 0B       		.uleb128 0xb
 4170 0295 3B       		.uleb128 0x3b
 4171 0296 05       		.uleb128 0x5
 4172 0297 39       		.uleb128 0x39
 4173 0298 0B       		.uleb128 0xb
 4174 0299 49       		.uleb128 0x49
 4175 029a 13       		.uleb128 0x13
 4176 029b 38       		.uleb128 0x38
 4177 029c 05       		.uleb128 0x5
 4178 029d 00       		.byte	0
 4179 029e 00       		.byte	0
 4180 029f 2E       		.uleb128 0x2e
 4181 02a0 13       		.uleb128 0x13
 4182 02a1 01       		.byte	0x1
 4183 02a2 0B       		.uleb128 0xb
 4184 02a3 0B       		.uleb128 0xb
 4185 02a4 3A       		.uleb128 0x3a
 4186 02a5 0B       		.uleb128 0xb
 4187 02a6 3B       		.uleb128 0x3b
 4188 02a7 05       		.uleb128 0x5
 4189 02a8 39       		.uleb128 0x39
 4190 02a9 0B       		.uleb128 0xb
 4191 02aa 01       		.uleb128 0x1
 4192 02ab 13       		.uleb128 0x13
 4193 02ac 00       		.byte	0
 4194 02ad 00       		.byte	0
 4195 02ae 2F       		.uleb128 0x2f
 4196 02af 15       		.uleb128 0x15
 4197 02b0 01       		.byte	0x1
 4198 02b1 27       		.uleb128 0x27
 4199 02b2 19       		.uleb128 0x19
 4200 02b3 01       		.uleb128 0x1
 4201 02b4 13       		.uleb128 0x13
 4202 02b5 00       		.byte	0
 4203 02b6 00       		.byte	0
 4204 02b7 30       		.uleb128 0x30
 4205 02b8 34       		.uleb128 0x34
 4206 02b9 00       		.byte	0
 4207 02ba 03       		.uleb128 0x3
 4208 02bb 08       		.uleb128 0x8
 4209 02bc 3A       		.uleb128 0x3a
 4210 02bd 0B       		.uleb128 0xb
 4211 02be 3B       		.uleb128 0x3b
 4212 02bf 05       		.uleb128 0x5
ARM GAS  C:\Users\DEVELO~1\AppData\Local\Temp\cccWiZr8.s 			page 75


 4213 02c0 39       		.uleb128 0x39
 4214 02c1 0B       		.uleb128 0xb
 4215 02c2 49       		.uleb128 0x49
 4216 02c3 13       		.uleb128 0x13
 4217 02c4 3F       		.uleb128 0x3f
 4218 02c5 19       		.uleb128 0x19
 4219 02c6 3C       		.uleb128 0x3c
 4220 02c7 19       		.uleb128 0x19
 4221 02c8 00       		.byte	0
 4222 02c9 00       		.byte	0
 4223 02ca 31       		.uleb128 0x31
 4224 02cb 34       		.uleb128 0x34
 4225 02cc 00       		.byte	0
 4226 02cd 03       		.uleb128 0x3
 4227 02ce 0E       		.uleb128 0xe
 4228 02cf 3A       		.uleb128 0x3a
 4229 02d0 0B       		.uleb128 0xb
 4230 02d1 3B       		.uleb128 0x3b
 4231 02d2 05       		.uleb128 0x5
 4232 02d3 39       		.uleb128 0x39
 4233 02d4 0B       		.uleb128 0xb
 4234 02d5 49       		.uleb128 0x49
 4235 02d6 13       		.uleb128 0x13
 4236 02d7 3F       		.uleb128 0x3f
 4237 02d8 19       		.uleb128 0x19
 4238 02d9 3C       		.uleb128 0x3c
 4239 02da 19       		.uleb128 0x19
 4240 02db 00       		.byte	0
 4241 02dc 00       		.byte	0
 4242 02dd 00       		.byte	0
 4243              		.section	.debug_aranges,"",%progbits
 4244 0000 3C000000 		.4byte	0x3c
 4245 0004 0200     		.2byte	0x2
 4246 0006 00000000 		.4byte	.Ldebug_info0
 4247 000a 04       		.byte	0x4
 4248 000b 00       		.byte	0
 4249 000c 0000     		.2byte	0
 4250 000e 0000     		.2byte	0
 4251 0010 00000000 		.4byte	.LFB463
 4252 0014 28000000 		.4byte	.LFE463-.LFB463
 4253 0018 00000000 		.4byte	.LFB472
 4254 001c 28000000 		.4byte	.LFE472-.LFB472
 4255 0020 00000000 		.4byte	.LFB493
 4256 0024 20000000 		.4byte	.LFE493-.LFB493
 4257 0028 00000000 		.4byte	.LFB506
 4258 002c 26000000 		.4byte	.LFE506-.LFB506
 4259 0030 00000000 		.4byte	.LFB507
 4260 0034 1E000000 		.4byte	.LFE507-.LFB507
 4261 0038 00000000 		.4byte	0
 4262 003c 00000000 		.4byte	0
 4263              		.section	.debug_rnglists,"",%progbits
 4264              	.Ldebug_ranges0:
 4265 0000 3F000000 		.4byte	.Ldebug_ranges3-.Ldebug_ranges2
 4266              	.Ldebug_ranges2:
 4267 0004 0500     		.2byte	0x5
 4268 0006 04       		.byte	0x4
 4269 0007 00       		.byte	0
ARM GAS  C:\Users\DEVELO~1\AppData\Local\Temp\cccWiZr8.s 			page 76


 4270 0008 00000000 		.4byte	0
 4271              	.LLRL0:
 4272 000c 05       		.byte	0x5
 4273 000d 1A000000 		.4byte	.LBB150
 4274 0011 04       		.byte	0x4
 4275 0012 00       		.uleb128 .LBB150-.LBB150
 4276 0013 04       		.uleb128 .LBE150-.LBB150
 4277 0014 04       		.byte	0x4
 4278 0015 08       		.uleb128 .LBB153-.LBB150
 4279 0016 0C       		.uleb128 .LBE153-.LBB150
 4280 0017 00       		.byte	0
 4281              	.LLRL1:
 4282 0018 05       		.byte	0x5
 4283 0019 14000000 		.4byte	.LBB158
 4284 001d 04       		.byte	0x4
 4285 001e 00       		.uleb128 .LBB158-.LBB158
 4286 001f 02       		.uleb128 .LBE158-.LBB158
 4287 0020 04       		.byte	0x4
 4288 0021 06       		.uleb128 .LBB161-.LBB158
 4289 0022 0A       		.uleb128 .LBE161-.LBB158
 4290 0023 00       		.byte	0
 4291              	.LLRL2:
 4292 0024 07       		.byte	0x7
 4293 0025 00000000 		.4byte	.LFB463
 4294 0029 28       		.uleb128 .LFE463-.LFB463
 4295 002a 07       		.byte	0x7
 4296 002b 00000000 		.4byte	.LFB472
 4297 002f 28       		.uleb128 .LFE472-.LFB472
 4298 0030 07       		.byte	0x7
 4299 0031 00000000 		.4byte	.LFB493
 4300 0035 20       		.uleb128 .LFE493-.LFB493
 4301 0036 07       		.byte	0x7
 4302 0037 00000000 		.4byte	.LFB506
 4303 003b 26       		.uleb128 .LFE506-.LFB506
 4304 003c 07       		.byte	0x7
 4305 003d 00000000 		.4byte	.LFB507
 4306 0041 1E       		.uleb128 .LFE507-.LFB507
 4307 0042 00       		.byte	0
 4308              	.Ldebug_ranges3:
 4309              		.section	.debug_line,"",%progbits
 4310              	.Ldebug_line0:
 4311 0000 03090000 		.section	.debug_str,"MS",%progbits,1
 4311      03006807 
 4311      00000201 
 4311      FB0E0D00 
 4311      01010101 
 4312              	.LASF296:
 4313 0000 65787469 		.ascii	"exti19_irq_deinit\000"
 4313      31395F69 
 4313      72715F64 
 4313      65696E69 
 4313      7400
 4314              	.LASF11:
 4315 0012 6C6F6E67 		.ascii	"long int\000"
 4315      20696E74 
 4315      00
 4316              	.LASF192:
ARM GAS  C:\Users\DEVELO~1\AppData\Local\Temp\cccWiZr8.s 			page 77


 4317 001b 53657269 		.ascii	"SerialDriver\000"
 4317      616C4472 
 4317      69766572 
 4317      00
 4318              	.LASF302:
 4319 0028 65787469 		.ascii	"exti16_irq_deinit\000"
 4319      31365F69 
 4319      72715F64 
 4319      65696E69 
 4319      7400
 4320              	.LASF170:
 4321 003a 424C4B5F 		.ascii	"BLK_SYNCING\000"
 4321      53594E43 
 4321      494E4700 
 4322              	.LASF35:
 4323 0046 6E616D65 		.ascii	"name\000"
 4323      00
 4324              	.LASF256:
 4325 004b 74696D32 		.ascii	"tim2_irq_init\000"
 4325      5F697271 
 4325      5F696E69 
 4325      7400
 4326              	.LASF130:
 4327 0059 74687265 		.ascii	"thread_reference_t\000"
 4327      61645F72 
 4327      65666572 
 4327      656E6365 
 4327      5F7400
 4328              	.LASF213:
 4329 006c 73646366 		.ascii	"sdcflags_t\000"
 4329      6C616773 
 4329      5F7400
 4330              	.LASF127:
 4331 0077 63685F72 		.ascii	"ch_registry\000"
 4331      65676973 
 4331      74727900 
 4332              	.LASF215:
 4333 0083 63617061 		.ascii	"capacity\000"
 4333      63697479 
 4333      00
 4334              	.LASF58:
 4335 008c 63685F72 		.ascii	"ch_rfcu\000"
 4335      66637500 
 4336              	.LASF156:
 4337 0094 6C697374 		.ascii	"listener\000"
 4337      656E6572 
 4337      00
 4338              	.LASF159:
 4339 009d 6576656E 		.ascii	"event_source\000"
 4339      745F736F 
 4339      75726365 
 4339      00
 4340              	.LASF38:
 4341 00aa 666C6167 		.ascii	"flags\000"
 4341      7300
 4342              	.LASF65:
 4343 00b0 73797374 		.ascii	"systime_t\000"
ARM GAS  C:\Users\DEVELO~1\AppData\Local\Temp\cccWiZr8.s 			page 78


 4343      696D655F 
 4343      7400
 4344              	.LASF234:
 4345 00ba 73645F6C 		.ascii	"sd_lld_serve_interrupt\000"
 4345      6C645F73 
 4345      65727665 
 4345      5F696E74 
 4345      65727275 
 4346              	.LASF44:
 4347 00d1 7265616C 		.ascii	"realprio\000"
 4347      7072696F 
 4347      00
 4348              	.LASF89:
 4349 00da 62756666 		.ascii	"buffer\000"
 4349      657200
 4350              	.LASF87:
 4351 00e1 73757370 		.ascii	"suspended\000"
 4351      656E6465 
 4351      6400
 4352              	.LASF307:
 4353 00eb 65787469 		.ascii	"exti5_9_irq_init\000"
 4353      355F395F 
 4353      6972715F 
 4353      696E6974 
 4353      00
 4354              	.LASF257:
 4355 00fc 74696D31 		.ascii	"tim1_irq_deinit\000"
 4355      5F697271 
 4355      5F646569 
 4355      6E697400 
 4356              	.LASF260:
 4357 010c 6C707561 		.ascii	"lpuart1_irq_init\000"
 4357      7274315F 
 4357      6972715F 
 4357      696E6974 
 4357      00
 4358              	.LASF164:
 4359 011d 424C4B5F 		.ascii	"BLK_ACTIVE\000"
 4359      41435449 
 4359      564500
 4360              	.LASF193:
 4361 0128 68616C5F 		.ascii	"hal_serial_driver\000"
 4361      73657269 
 4361      616C5F64 
 4361      72697665 
 4361      7200
 4362              	.LASF175:
 4363 013a 696F5F71 		.ascii	"io_queue_t\000"
 4363      75657565 
 4363      5F7400
 4364              	.LASF228:
 4365 0145 64697363 		.ascii	"disconnect\000"
 4365      6F6E6E65 
 4365      637400
 4366              	.LASF42:
 4367 0150 6570656E 		.ascii	"epending\000"
 4367      64696E67 
ARM GAS  C:\Users\DEVELO~1\AppData\Local\Temp\cccWiZr8.s 			page 79


 4367      00
 4368              	.LASF0:
 4369 0159 756E7369 		.ascii	"unsigned int\000"
 4369      676E6564 
 4369      20696E74 
 4369      00
 4370              	.LASF69:
 4371 0166 6E657874 		.ascii	"next\000"
 4371      00
 4372              	.LASF290:
 4373 016b 66646361 		.ascii	"fdcan2_irq_deinit\000"
 4373      6E325F69 
 4373      72715F64 
 4373      65696E69 
 4373      7400
 4374              	.LASF19:
 4375 017d 75696E74 		.ascii	"uint32_t\000"
 4375      33325F74 
 4375      00
 4376              	.LASF172:
 4377 0186 626C6B5F 		.ascii	"blk_size\000"
 4377      73697A65 
 4377      00
 4378              	.LASF288:
 4379 018f 71756164 		.ascii	"quadspi1_irq_deinit\000"
 4379      73706931 
 4379      5F697271 
 4379      5F646569 
 4379      6E697400 
 4380              	.LASF182:
 4381 01a3 715F7264 		.ascii	"q_rdptr\000"
 4381      70747200 
 4382              	.LASF10:
 4383 01ab 5F5F696E 		.ascii	"__int32_t\000"
 4383      7433325F 
 4383      7400
 4384              	.LASF39:
 4385 01b5 72656673 		.ascii	"refs\000"
 4385      00
 4386              	.LASF185:
 4387 01ba 716E6F74 		.ascii	"qnotify_t\000"
 4387      6966795F 
 4387      7400
 4388              	.LASF157:
 4389 01c4 6576656E 		.ascii	"events\000"
 4389      747300
 4390              	.LASF282:
 4391 01cb 75736172 		.ascii	"usart1_irq_init\000"
 4391      74315F69 
 4391      72715F69 
 4391      6E697400 
 4392              	.LASF264:
 4393 01db 75617274 		.ascii	"uart9_irq_init\000"
 4393      395F6972 
 4393      715F696E 
 4393      697400
 4394              	.LASF165:
ARM GAS  C:\Users\DEVELO~1\AppData\Local\Temp\cccWiZr8.s 			page 80


 4395 01ea 424C4B5F 		.ascii	"BLK_CONNECTING\000"
 4395      434F4E4E 
 4395      45435449 
 4395      4E4700
 4396              	.LASF79:
 4397 01f9 77746F62 		.ascii	"wtobjp\000"
 4397      6A7000
 4398              	.LASF148:
 4399 0200 6D61696E 		.ascii	"mainthread_base\000"
 4399      74687265 
 4399      61645F62 
 4399      61736500 
 4400              	.LASF50:
 4401 0210 76746C69 		.ascii	"vtlist\000"
 4401      737400
 4402              	.LASF121:
 4403 0217 706F7274 		.ascii	"port_context\000"
 4403      5F636F6E 
 4403      74657874 
 4403      00
 4404              	.LASF309:
 4405 0224 65787469 		.ascii	"exti4_irq_init\000"
 4405      345F6972 
 4405      715F696E 
 4405      697400
 4406              	.LASF144:
 4407 0233 63685F72 		.ascii	"ch_ready_list\000"
 4407      65616479 
 4407      5F6C6973 
 4407      7400
 4408              	.LASF295:
 4409 0241 65787469 		.ascii	"exti20_exti21_irq_init\000"
 4409      32305F65 
 4409      78746932 
 4409      315F6972 
 4409      715F696E 
 4410              	.LASF125:
 4411 0258 6C617374 		.ascii	"laststamp\000"
 4411      7374616D 
 4411      7000
 4412              	.LASF112:
 4413 0262 49505652 		.ascii	"IPVR\000"
 4413      00
 4414              	.LASF141:
 4415 0267 65776D61 		.ascii	"ewmask\000"
 4415      736B00
 4416              	.LASF224:
 4417 026e 53444344 		.ascii	"SDCDriverVMT\000"
 4417      72697665 
 4417      72564D54 
 4417      00
 4418              	.LASF232:
 4419 027b 6E766963 		.ascii	"nvicDisableVector\000"
 4419      44697361 
 4419      626C6556 
 4419      6563746F 
 4419      7200
ARM GAS  C:\Users\DEVELO~1\AppData\Local\Temp\cccWiZr8.s 			page 81


 4420              	.LASF72:
 4421 028d 70726576 		.ascii	"prev\000"
 4421      00
 4422              	.LASF244:
 4423 0292 74696D37 		.ascii	"tim7_irq_deinit\000"
 4423      5F697271 
 4423      5F646569 
 4423      6E697400 
 4424              	.LASF283:
 4425 02a2 73646D6D 		.ascii	"sdmmc2_irq_deinit\000"
 4425      63325F69 
 4425      72715F64 
 4425      65696E69 
 4425      7400
 4426              	.LASF250:
 4427 02b4 74696D34 		.ascii	"tim4_irq_deinit\000"
 4427      5F697271 
 4427      5F646569 
 4427      6E697400 
 4428              	.LASF301:
 4429 02c4 65787469 		.ascii	"exti17_irq_init\000"
 4429      31375F69 
 4429      72715F69 
 4429      6E697400 
 4430              	.LASF245:
 4431 02d4 74696D37 		.ascii	"tim7_irq_init\000"
 4431      5F697271 
 4431      5F696E69 
 4431      7400
 4432              	.LASF254:
 4433 02e2 56656374 		.ascii	"VectorB0\000"
 4433      6F724230 
 4433      00
 4434              	.LASF162:
 4435 02eb 424C4B5F 		.ascii	"BLK_UNINIT\000"
 4435      554E494E 
 4435      495400
 4436              	.LASF312:
 4437 02f6 65787469 		.ascii	"exti2_irq_deinit\000"
 4437      325F6972 
 4437      715F6465 
 4437      696E6974 
 4437      00
 4438              	.LASF61:
 4439 0307 63685F73 		.ascii	"ch_system_debug\000"
 4439      79737465 
 4439      6D5F6465 
 4439      62756700 
 4440              	.LASF114:
 4441 0317 47545052 		.ascii	"GTPR\000"
 4441      00
 4442              	.LASF133:
 4443 031c 6C697374 		.ascii	"list\000"
 4443      00
 4444              	.LASF259:
 4445 0321 6C707561 		.ascii	"lpuart1_irq_deinit\000"
 4445      7274315F 
ARM GAS  C:\Users\DEVELO~1\AppData\Local\Temp\cccWiZr8.s 			page 82


 4445      6972715F 
 4445      6465696E 
 4445      697400
 4446              	.LASF68:
 4447 0334 63685F6C 		.ascii	"ch_list\000"
 4447      69737400 
 4448              	.LASF77:
 4449 033c 63685F64 		.ascii	"ch_delta_list\000"
 4449      656C7461 
 4449      5F6C6973 
 4449      7400
 4450              	.LASF177:
 4451 034a 715F7761 		.ascii	"q_waiting\000"
 4451      6974696E 
 4451      6700
 4452              	.LASF138:
 4453 0354 73656E74 		.ascii	"sentmsg\000"
 4453      6D736700 
 4454              	.LASF272:
 4455 035c 75617274 		.ascii	"uart5_irq_init\000"
 4455      355F6972 
 4455      715F696E 
 4455      697400
 4456              	.LASF28:
 4457 036b 6576656E 		.ascii	"eventmask_t\000"
 4457      746D6173 
 4457      6B5F7400 
 4458              	.LASF317:
 4459 0377 65787469 		.ascii	"exti0_irq_init\000"
 4459      305F6972 
 4459      715F696E 
 4459      697400
 4460              	.LASF86:
 4461 0386 74726163 		.ascii	"trace_event_t\000"
 4461      655F6576 
 4461      656E745F 
 4461      7400
 4462              	.LASF118:
 4463 0394 666C6F61 		.ascii	"float\000"
 4463      7400
 4464              	.LASF191:
 4465 039a 73647374 		.ascii	"sdstate_t\000"
 4465      6174655F 
 4465      7400
 4466              	.LASF194:
 4467 03a4 6576656E 		.ascii	"event\000"
 4467      7400
 4468              	.LASF142:
 4469 03aa 63685F73 		.ascii	"ch_semaphore\000"
 4469      656D6170 
 4469      686F7265 
 4469      00
 4470              	.LASF26:
 4471 03b7 74707269 		.ascii	"tprio_t\000"
 4471      6F5F7400 
 4472              	.LASF41:
 4473 03bf 6D736771 		.ascii	"msgqueue\000"
ARM GAS  C:\Users\DEVELO~1\AppData\Local\Temp\cccWiZr8.s 			page 83


 4473      75657565 
 4473      00
 4474              	.LASF152:
 4475 03c8 6F735F69 		.ascii	"os_instance_config_t\000"
 4475      6E737461 
 4475      6E63655F 
 4475      636F6E66 
 4475      69675F74 
 4476              	.LASF306:
 4477 03dd 65787469 		.ascii	"exti5_9_irq_deinit\000"
 4477      355F395F 
 4477      6972715F 
 4477      6465696E 
 4477      697400
 4478              	.LASF81:
 4479 03f0 68616C74 		.ascii	"halt\000"
 4479      00
 4480              	.LASF248:
 4481 03f5 74696D35 		.ascii	"tim5_irq_deinit\000"
 4481      5F697271 
 4481      5F646569 
 4481      6E697400 
 4482              	.LASF15:
 4483 0405 6C6F6E67 		.ascii	"long long unsigned int\000"
 4483      206C6F6E 
 4483      6720756E 
 4483      7369676E 
 4483      65642069 
 4484              	.LASF216:
 4485 041c 63617264 		.ascii	"cardmode\000"
 4485      6D6F6465 
 4485      00
 4486              	.LASF319:
 4487 0425 2E2E2F2E 		.ascii	"../../../os/hal/ports/STM32/STM32H7xx/stm32_isr.c\000"
 4487      2E2F2E2E 
 4487      2F6F732F 
 4487      68616C2F 
 4487      706F7274 
 4488              	.LASF253:
 4489 0457 74696D33 		.ascii	"tim3_irq_init\000"
 4489      5F697271 
 4489      5F696E69 
 4489      7400
 4490              	.LASF80:
 4491 0465 72656173 		.ascii	"reason\000"
 4491      6F6E00
 4492              	.LASF56:
 4493 046c 74726163 		.ascii	"trace_buffer\000"
 4493      655F6275 
 4493      66666572 
 4493      00
 4494              	.LASF116:
 4495 0479 50524553 		.ascii	"PRESC\000"
 4495      4300
 4496              	.LASF217:
 4497 047f 6572726F 		.ascii	"errors\000"
 4497      727300
ARM GAS  C:\Users\DEVELO~1\AppData\Local\Temp\cccWiZr8.s 			page 84


 4498              	.LASF160:
 4499 0486 6576656E 		.ascii	"event_source_t\000"
 4499      745F736F 
 4499      75726365 
 4499      5F7400
 4500              	.LASF134:
 4501 0495 70717565 		.ascii	"pqueue\000"
 4501      756500
 4502              	.LASF236:
 4503 049c 5F5F706F 		.ascii	"__port_irq_epilogue\000"
 4503      72745F69 
 4503      72715F65 
 4503      70696C6F 
 4503      67756500 
 4504              	.LASF8:
 4505 04b0 5F5F7569 		.ascii	"__uint16_t\000"
 4505      6E743136 
 4505      5F7400
 4506              	.LASF30:
 4507 04bb 636E745F 		.ascii	"cnt_t\000"
 4507      7400
 4508              	.LASF293:
 4509 04c1 66646361 		.ascii	"fdcan1_irq_init\000"
 4509      6E315F69 
 4509      72715F69 
 4509      6E697400 
 4510              	.LASF279:
 4511 04d1 75736172 		.ascii	"usart2_irq_deinit\000"
 4511      74325F69 
 4511      72715F64 
 4511      65696E69 
 4511      7400
 4512              	.LASF85:
 4513 04e3 74696D65 		.ascii	"time\000"
 4513      00
 4514              	.LASF34:
 4515 04e8 6F776E65 		.ascii	"owner\000"
 4515      7200
 4516              	.LASF149:
 4517 04ee 6D61696E 		.ascii	"mainthread_end\000"
 4517      74687265 
 4517      61645F65 
 4517      6E6400
 4518              	.LASF102:
 4519 04fd 4D41534B 		.ascii	"MASK\000"
 4519      00
 4520              	.LASF43:
 4521 0502 6D74786C 		.ascii	"mtxlist\000"
 4521      69737400 
 4522              	.LASF122:
 4523 050a 63685F76 		.ascii	"ch_virtual_timers_list\000"
 4523      69727475 
 4523      616C5F74 
 4523      696D6572 
 4523      735F6C69 
 4524              	.LASF53:
 4525 0521 72666375 		.ascii	"rfcu\000"
ARM GAS  C:\Users\DEVELO~1\AppData\Local\Temp\cccWiZr8.s 			page 85


 4525      00
 4526              	.LASF32:
 4527 0526 74687265 		.ascii	"thread_t\000"
 4527      61645F74 
 4527      00
 4528              	.LASF223:
 4529 052f 53444343 		.ascii	"SDCConfig\000"
 4529      6F6E6669 
 4529      6700
 4530              	.LASF275:
 4531 0539 56656374 		.ascii	"VectorDC\000"
 4531      6F724443 
 4531      00
 4532              	.LASF82:
 4533 0542 75736572 		.ascii	"user\000"
 4533      00
 4534              	.LASF204:
 4535 0547 70757474 		.ascii	"putt\000"
 4535      00
 4536              	.LASF4:
 4537 054c 73697A65 		.ascii	"size_t\000"
 4537      5F7400
 4538              	.LASF135:
 4539 0553 7264796D 		.ascii	"rdymsg\000"
 4539      736700
 4540              	.LASF73:
 4541 055a 63685F70 		.ascii	"ch_priority_queue_t\000"
 4541      72696F72 
 4541      6974795F 
 4541      71756575 
 4541      655F7400 
 4542              	.LASF280:
 4543 056e 75736172 		.ascii	"usart2_irq_init\000"
 4543      74325F69 
 4543      72715F69 
 4543      6E697400 
 4544              	.LASF298:
 4545 057e 65787469 		.ascii	"exti18_irq_deinit\000"
 4545      31385F69 
 4545      72715F64 
 4545      65696E69 
 4545      7400
 4546              	.LASF161:
 4547 0590 5F426F6F 		.ascii	"_Bool\000"
 4547      6C00
 4548              	.LASF189:
 4549 0596 53445F53 		.ascii	"SD_STOP\000"
 4549      544F5000 
 4550              	.LASF1:
 4551 059e 6C6F6E67 		.ascii	"long long int\000"
 4551      206C6F6E 
 4551      6720696E 
 4551      7400
 4552              	.LASF300:
 4553 05ac 65787469 		.ascii	"exti17_irq_deinit\000"
 4553      31375F69 
 4553      72715F64 
ARM GAS  C:\Users\DEVELO~1\AppData\Local\Temp\cccWiZr8.s 			page 86


 4553      65696E69 
 4553      7400
 4554              	.LASF231:
 4555 05be 53444344 		.ascii	"SDCD1\000"
 4555      3100
 4556              	.LASF174:
 4557 05c4 426C6F63 		.ascii	"BlockDeviceInfo\000"
 4557      6B446576 
 4557      69636549 
 4557      6E666F00 
 4558              	.LASF230:
 4559 05d4 6765745F 		.ascii	"get_info\000"
 4559      696E666F 
 4559      00
 4560              	.LASF143:
 4561 05dd 63685F6D 		.ascii	"ch_mutex\000"
 4561      75746578 
 4561      00
 4562              	.LASF105:
 4563 05e6 49444D41 		.ascii	"IDMACTRL\000"
 4563      4354524C 
 4563      00
 4564              	.LASF195:
 4565 05ef 69717565 		.ascii	"iqueue\000"
 4565      756500
 4566              	.LASF117:
 4567 05f6 55534152 		.ascii	"USART_TypeDef\000"
 4567      545F5479 
 4567      70654465 
 4567      6600
 4568              	.LASF48:
 4569 0604 63685F6F 		.ascii	"ch_os_instance\000"
 4569      735F696E 
 4569      7374616E 
 4569      636500
 4570              	.LASF183:
 4571 0613 715F6E6F 		.ascii	"q_notify\000"
 4571      74696679 
 4571      00
 4572              	.LASF198:
 4573 061c 636C6F63 		.ascii	"clock\000"
 4573      6B00
 4574              	.LASF299:
 4575 0622 65787469 		.ascii	"exti18_irq_init\000"
 4575      31385F69 
 4575      72715F69 
 4575      6E697400 
 4576              	.LASF305:
 4577 0632 65787469 		.ascii	"exti10_15_irq_init\000"
 4577      31305F31 
 4577      355F6972 
 4577      715F696E 
 4577      697400
 4578              	.LASF320:
 4579 0645 433A5C43 		.ascii	"C:\\ChibiStudio\\chibios2111\\demos\\STM32\\RT-STM3"
 4579      68696269 
 4579      53747564 
ARM GAS  C:\Users\DEVELO~1\AppData\Local\Temp\cccWiZr8.s 			page 87


 4579      696F5C63 
 4579      68696269 
 4580 0673 32483734 		.ascii	"2H743ZI_REV_XY-NUCLEO144 - Copie\000"
 4580      335A495F 
 4580      5245565F 
 4580      58592D4E 
 4580      55434C45 
 4581              	.LASF151:
 4582 0694 69646C65 		.ascii	"idlethread_end\000"
 4582      74687265 
 4582      61645F65 
 4582      6E6400
 4583              	.LASF255:
 4584 06a3 74696D32 		.ascii	"tim2_irq_deinit\000"
 4584      5F697271 
 4584      5F646569 
 4584      6E697400 
 4585              	.LASF265:
 4586 06b3 75617274 		.ascii	"uart8_irq_deinit\000"
 4586      385F6972 
 4586      715F6465 
 4586      696E6974 
 4586      00
 4587              	.LASF184:
 4588 06c4 715F6C69 		.ascii	"q_link\000"
 4588      6E6B00
 4589              	.LASF75:
 4590 06cb 7072696F 		.ascii	"prio\000"
 4590      00
 4591              	.LASF166:
 4592 06d0 424C4B5F 		.ascii	"BLK_DISCONNECTING\000"
 4592      44495343 
 4592      4F4E4E45 
 4592      4354494E 
 4592      4700
 4593              	.LASF94:
 4594 06e2 52455350 		.ascii	"RESP1\000"
 4594      3100
 4595              	.LASF95:
 4596 06e8 52455350 		.ascii	"RESP2\000"
 4596      3200
 4597              	.LASF96:
 4598 06ee 52455350 		.ascii	"RESP3\000"
 4598      3300
 4599              	.LASF97:
 4600 06f4 52455350 		.ascii	"RESP4\000"
 4600      3400
 4601              	.LASF63:
 4602 06fa 63686172 		.ascii	"char\000"
 4602      00
 4603              	.LASF76:
 4604 06ff 63685F64 		.ascii	"ch_delta_list_t\000"
 4604      656C7461 
 4604      5F6C6973 
 4604      745F7400 
 4605              	.LASF57:
 4606 070f 72666375 		.ascii	"rfcu_mask_t\000"
ARM GAS  C:\Users\DEVELO~1\AppData\Local\Temp\cccWiZr8.s 			page 88


 4606      5F6D6173 
 4606      6B5F7400 
 4607              	.LASF291:
 4608 071b 66646361 		.ascii	"fdcan2_irq_init\000"
 4608      6E325F69 
 4608      72715F69 
 4608      6E697400 
 4609              	.LASF36:
 4610 072b 77616261 		.ascii	"wabase\000"
 4610      736500
 4611              	.LASF181:
 4612 0732 715F7772 		.ascii	"q_wrptr\000"
 4612      70747200 
 4613              	.LASF24:
 4614 073a 74737461 		.ascii	"tstate_t\000"
 4614      74655F74 
 4614      00
 4615              	.LASF243:
 4616 0743 74696D38 		.ascii	"tim8_tim12_tim13_tim14_irq_init\000"
 4616      5F74696D 
 4616      31325F74 
 4616      696D3133 
 4616      5F74696D 
 4617              	.LASF33:
 4618 0763 72717565 		.ascii	"rqueue\000"
 4618      756500
 4619              	.LASF173:
 4620 076a 626C6B5F 		.ascii	"blk_num\000"
 4620      6E756D00 
 4621              	.LASF308:
 4622 0772 65787469 		.ascii	"exti4_irq_deinit\000"
 4622      345F6972 
 4622      715F6465 
 4622      696E6974 
 4622      00
 4623              	.LASF315:
 4624 0783 65787469 		.ascii	"exti1_irq_init\000"
 4624      315F6972 
 4624      715F696E 
 4624      697400
 4625              	.LASF294:
 4626 0792 65787469 		.ascii	"exti20_exti21_irq_deinit\000"
 4626      32305F65 
 4626      78746932 
 4626      315F6972 
 4626      715F6465 
 4627              	.LASF241:
 4628 07ab 69727149 		.ascii	"irqInit\000"
 4628      6E697400 
 4629              	.LASF303:
 4630 07b3 65787469 		.ascii	"exti16_irq_init\000"
 4630      31365F69 
 4630      72715F69 
 4630      6E697400 
 4631              	.LASF178:
 4632 07c3 715F636F 		.ascii	"q_counter\000"
 4632      756E7465 
ARM GAS  C:\Users\DEVELO~1\AppData\Local\Temp\cccWiZr8.s 			page 89


 4632      7200
 4633              	.LASF16:
 4634 07cd 75696E74 		.ascii	"uint8_t\000"
 4634      385F7400 
 4635              	.LASF115:
 4636 07d5 52544F52 		.ascii	"RTOR\000"
 4636      00
 4637              	.LASF186:
 4638 07da 696E7075 		.ascii	"input_queue_t\000"
 4638      745F7175 
 4638      6575655F 
 4638      7400
 4639              	.LASF273:
 4640 07e8 75617274 		.ascii	"uart4_irq_deinit\000"
 4640      345F6972 
 4640      715F6465 
 4640      696E6974 
 4640      00
 4641              	.LASF47:
 4642 07f9 63685F74 		.ascii	"ch_thread\000"
 4642      68726561 
 4642      6400
 4643              	.LASF251:
 4644 0803 74696D34 		.ascii	"tim4_irq_init\000"
 4644      5F697271 
 4644      5F696E69 
 4644      7400
 4645              	.LASF206:
 4646 0811 77726974 		.ascii	"writet\000"
 4646      657400
 4647              	.LASF197:
 4648 0818 75736172 		.ascii	"usart\000"
 4648      7400
 4649              	.LASF167:
 4650 081e 424C4B5F 		.ascii	"BLK_READY\000"
 4650      52454144 
 4650      5900
 4651              	.LASF64:
 4652 0828 73797374 		.ascii	"system_debug_t\000"
 4652      656D5F64 
 4652      65627567 
 4652      5F7400
 4653              	.LASF214:
 4654 0837 53444344 		.ascii	"SDCDriver\000"
 4654      72697665 
 4654      7200
 4655              	.LASF242:
 4656 0841 74696D38 		.ascii	"tim8_tim12_tim13_tim14_irq_deinit\000"
 4656      5F74696D 
 4656      31325F74 
 4656      696D3133 
 4656      5F74696D 
 4657              	.LASF131:
 4658 0863 63685F74 		.ascii	"ch_threads_queue\000"
 4658      68726561 
 4658      64735F71 
 4658      75657565 
ARM GAS  C:\Users\DEVELO~1\AppData\Local\Temp\cccWiZr8.s 			page 90


 4658      00
 4659              	.LASF171:
 4660 0874 626C6B73 		.ascii	"blkstate_t\000"
 4660      74617465 
 4660      5F7400
 4661              	.LASF202:
 4662 087f 77726974 		.ascii	"write\000"
 4662      6500
 4663              	.LASF310:
 4664 0885 65787469 		.ascii	"exti3_irq_deinit\000"
 4664      335F6972 
 4664      715F6465 
 4664      696E6974 
 4664      00
 4665              	.LASF179:
 4666 0896 715F6275 		.ascii	"q_buffer\000"
 4666      66666572 
 4666      00
 4667              	.LASF27:
 4668 089f 6D73675F 		.ascii	"msg_t\000"
 4668      7400
 4669              	.LASF289:
 4670 08a5 71756164 		.ascii	"quadspi1_irq_init\000"
 4670      73706931 
 4670      5F697271 
 4670      5F696E69 
 4670      7400
 4671              	.LASF14:
 4672 08b7 5F5F7569 		.ascii	"__uint64_t\000"
 4672      6E743634 
 4672      5F7400
 4673              	.LASF271:
 4674 08c2 75617274 		.ascii	"uart5_irq_deinit\000"
 4674      355F6972 
 4674      715F6465 
 4674      696E6974 
 4674      00
 4675              	.LASF207:
 4676 08d3 72656164 		.ascii	"readt\000"
 4676      7400
 4677              	.LASF129:
 4678 08d9 72656769 		.ascii	"registry_t\000"
 4678      73747279 
 4678      5F7400
 4679              	.LASF285:
 4680 08e4 56656374 		.ascii	"Vector104\000"
 4680      6F723130 
 4680      3400
 4681              	.LASF201:
 4682 08ee 696E7374 		.ascii	"instance_offset\000"
 4682      616E6365 
 4682      5F6F6666 
 4682      73657400 
 4683              	.LASF163:
 4684 08fe 424C4B5F 		.ascii	"BLK_STOP\000"
 4684      53544F50 
 4684      00
ARM GAS  C:\Users\DEVELO~1\AppData\Local\Temp\cccWiZr8.s 			page 91


 4685              	.LASF187:
 4686 0907 6F757470 		.ascii	"output_queue_t\000"
 4686      75745F71 
 4686      75657565 
 4686      5F7400
 4687              	.LASF267:
 4688 0916 75617274 		.ascii	"uart7_irq_deinit\000"
 4688      375F6972 
 4688      715F6465 
 4688      696E6974 
 4688      00
 4689              	.LASF88:
 4690 0927 73697A65 		.ascii	"size\000"
 4690      00
 4691              	.LASF278:
 4692 092c 75736172 		.ascii	"usart3_irq_init\000"
 4692      74335F69 
 4692      72715F69 
 4692      6E697400 
 4693              	.LASF225:
 4694 093c 69735F69 		.ascii	"is_inserted\000"
 4694      6E736572 
 4694      74656400 
 4695              	.LASF304:
 4696 0948 65787469 		.ascii	"exti10_15_irq_deinit\000"
 4696      31305F31 
 4696      355F6972 
 4696      715F6465 
 4696      696E6974 
 4697              	.LASF59:
 4698 095d 6D61736B 		.ascii	"mask\000"
 4698      00
 4699              	.LASF110:
 4700 0962 4649464F 		.ascii	"FIFO\000"
 4700      00
 4701              	.LASF132:
 4702 0967 74687265 		.ascii	"threads_queue_t\000"
 4702      6164735F 
 4702      71756575 
 4702      655F7400 
 4703              	.LASF220:
 4704 0977 636C6B66 		.ascii	"clkfreq\000"
 4704      72657100 
 4705              	.LASF13:
 4706 097f 6C6F6E67 		.ascii	"long unsigned int\000"
 4706      20756E73 
 4706      69676E65 
 4706      6420696E 
 4706      7400
 4707              	.LASF287:
 4708 0991 73646D6D 		.ascii	"sdmmc1_irq_init\000"
 4708      63315F69 
 4708      72715F69 
 4708      6E697400 
 4709              	.LASF66:
 4710 09a1 73797369 		.ascii	"sysinterval_t\000"
 4710      6E746572 
ARM GAS  C:\Users\DEVELO~1\AppData\Local\Temp\cccWiZr8.s 			page 92


 4710      76616C5F 
 4710      7400
 4711              	.LASF70:
 4712 09af 63685F71 		.ascii	"ch_queue_t\000"
 4712      75657565 
 4712      5F7400
 4713              	.LASF29:
 4714 09ba 6576656E 		.ascii	"eventflags_t\000"
 4714      74666C61 
 4714      67735F74 
 4714      00
 4715              	.LASF62:
 4716 09c7 70616E69 		.ascii	"panic_msg\000"
 4716      635F6D73 
 4716      6700
 4717              	.LASF90:
 4718 09d1 74726163 		.ascii	"trace_buffer_t\000"
 4718      655F6275 
 4718      66666572 
 4718      5F7400
 4719              	.LASF263:
 4720 09e0 75617274 		.ascii	"uart9_irq_deinit\000"
 4720      395F6972 
 4720      715F6465 
 4720      696E6974 
 4720      00
 4721              	.LASF23:
 4722 09f1 746D6F64 		.ascii	"tmode_t\000"
 4722      655F7400 
 4723              	.LASF297:
 4724 09f9 65787469 		.ascii	"exti19_irq_init\000"
 4724      31395F69 
 4724      72715F69 
 4724      6E697400 
 4725              	.LASF209:
 4726 0a09 5344435F 		.ascii	"SDC_MODE_4BIT\000"
 4726      4D4F4445 
 4726      5F344249 
 4726      5400
 4727              	.LASF9:
 4728 0a17 73686F72 		.ascii	"short unsigned int\000"
 4728      7420756E 
 4728      7369676E 
 4728      65642069 
 4728      6E7400
 4729              	.LASF2:
 4730 0a2a 6C6F6E67 		.ascii	"long double\000"
 4730      20646F75 
 4730      626C6500 
 4731              	.LASF196:
 4732 0a36 6F717565 		.ascii	"oqueue\000"
 4732      756500
 4733              	.LASF190:
 4734 0a3d 53445F52 		.ascii	"SD_READY\000"
 4734      45414459 
 4734      00
 4735              	.LASF17:
ARM GAS  C:\Users\DEVELO~1\AppData\Local\Temp\cccWiZr8.s 			page 93


 4736 0a46 75696E74 		.ascii	"uint16_t\000"
 4736      31365F74 
 4736      00
 4737              	.LASF235:
 4738 0a4f 73745F6C 		.ascii	"st_lld_serve_interrupt\000"
 4738      6C645F73 
 4738      65727665 
 4738      5F696E74 
 4738      65727275 
 4739              	.LASF67:
 4740 0a66 63685F6C 		.ascii	"ch_list_t\000"
 4740      6973745F 
 4740      7400
 4741              	.LASF126:
 4742 0a70 76697274 		.ascii	"virtual_timers_list_t\000"
 4742      75616C5F 
 4742      74696D65 
 4742      72735F6C 
 4742      6973745F 
 4743              	.LASF233:
 4744 0a86 6E766963 		.ascii	"nvicEnableVector\000"
 4744      456E6162 
 4744      6C655665 
 4744      63746F72 
 4744      00
 4745              	.LASF54:
 4746 0a97 636F6E66 		.ascii	"config\000"
 4746      696700
 4747              	.LASF268:
 4748 0a9e 75617274 		.ascii	"uart7_irq_init\000"
 4748      375F6972 
 4748      715F696E 
 4748      697400
 4749              	.LASF318:
 4750 0aad 474E5520 		.ascii	"GNU C17 11.3.1 20220712 -mcpu=cortex-m7 -mthumb -mf"
 4750      43313720 
 4750      31312E33 
 4750      2E312032 
 4750      30323230 
 4751 0ae0 6C6F6174 		.ascii	"loat-abi=soft -march=armv7e-m -ggdb -O2 -fomit-fram"
 4751      2D616269 
 4751      3D736F66 
 4751      74202D6D 
 4751      61726368 
 4752 0b13 652D706F 		.ascii	"e-pointer -falign-functions=16 -ffunction-sections "
 4752      696E7465 
 4752      72202D66 
 4752      616C6967 
 4752      6E2D6675 
 4753 0b46 2D666461 		.ascii	"-fdata-sections -fno-common\000"
 4753      74612D73 
 4753      65637469 
 4753      6F6E7320 
 4753      2D666E6F 
 4754              	.LASF153:
 4755 0b62 6D757465 		.ascii	"mutex_t\000"
 4755      785F7400 
ARM GAS  C:\Users\DEVELO~1\AppData\Local\Temp\cccWiZr8.s 			page 94


 4756              	.LASF104:
 4757 0b6a 52455345 		.ascii	"RESERVED0\000"
 4757      52564544 
 4757      3000
 4758              	.LASF109:
 4759 0b74 52455345 		.ascii	"RESERVED1\000"
 4759      52564544 
 4759      3100
 4760              	.LASF313:
 4761 0b7e 65787469 		.ascii	"exti2_irq_init\000"
 4761      325F6972 
 4761      715F696E 
 4761      697400
 4762              	.LASF199:
 4763 0b8d 72786D61 		.ascii	"rxmask\000"
 4763      736B00
 4764              	.LASF7:
 4765 0b94 73686F72 		.ascii	"short int\000"
 4765      7420696E 
 4765      7400
 4766              	.LASF227:
 4767 0b9e 636F6E6E 		.ascii	"connect\000"
 4767      65637400 
 4768              	.LASF92:
 4769 0ba6 434C4B43 		.ascii	"CLKCR\000"
 4769      5200
 4770              	.LASF120:
 4771 0bac 706F7274 		.ascii	"port_intctx\000"
 4771      5F696E74 
 4771      63747800 
 4772              	.LASF316:
 4773 0bb8 65787469 		.ascii	"exti0_irq_deinit\000"
 4773      305F6972 
 4773      715F6465 
 4773      696E6974 
 4773      00
 4774              	.LASF98:
 4775 0bc9 4454494D 		.ascii	"DTIMER\000"
 4775      455200
 4776              	.LASF103:
 4777 0bd0 41434B54 		.ascii	"ACKTIME\000"
 4777      494D4500 
 4778              	.LASF21:
 4779 0bd8 706F7274 		.ascii	"port_stkalign_t\000"
 4779      5F73746B 
 4779      616C6967 
 4779      6E5F7400 
 4780              	.LASF269:
 4781 0be8 75736172 		.ascii	"usart6_irq_deinit\000"
 4781      74365F69 
 4781      72715F64 
 4781      65696E69 
 4781      7400
 4782              	.LASF249:
 4783 0bfa 74696D35 		.ascii	"tim5_irq_init\000"
 4783      5F697271 
 4783      5F696E69 
ARM GAS  C:\Users\DEVELO~1\AppData\Local\Temp\cccWiZr8.s 			page 95


 4783      7400
 4784              	.LASF147:
 4785 0c08 63685F6F 		.ascii	"ch_os_instance_config\000"
 4785      735F696E 
 4785      7374616E 
 4785      63655F63 
 4785      6F6E6669 
 4786              	.LASF123:
 4787 0c1e 646C6973 		.ascii	"dlist\000"
 4787      7400
 4788              	.LASF124:
 4789 0c24 6C617374 		.ascii	"lasttime\000"
 4789      74696D65 
 4789      00
 4790              	.LASF20:
 4791 0c2d 75696E74 		.ascii	"uint64_t\000"
 4791      36345F74 
 4791      00
 4792              	.LASF168:
 4793 0c36 424C4B5F 		.ascii	"BLK_READING\000"
 4793      52454144 
 4793      494E4700 
 4794              	.LASF99:
 4795 0c42 444C454E 		.ascii	"DLEN\000"
 4795      00
 4796              	.LASF49:
 4797 0c47 726C6973 		.ascii	"rlist\000"
 4797      7400
 4798              	.LASF100:
 4799 0c4d 44435452 		.ascii	"DCTRL\000"
 4799      4C00
 4800              	.LASF5:
 4801 0c53 5F5F7569 		.ascii	"__uint8_t\000"
 4801      6E74385F 
 4801      7400
 4802              	.LASF292:
 4803 0c5d 66646361 		.ascii	"fdcan1_irq_deinit\000"
 4803      6E315F69 
 4803      72715F64 
 4803      65696E69 
 4803      7400
 4804              	.LASF203:
 4805 0c6f 72656164 		.ascii	"read\000"
 4805      00
 4806              	.LASF188:
 4807 0c74 53445F55 		.ascii	"SD_UNINIT\000"
 4807      4E494E49 
 4807      5400
 4808              	.LASF158:
 4809 0c7e 77666C61 		.ascii	"wflags\000"
 4809      677300
 4810              	.LASF91:
 4811 0c85 504F5745 		.ascii	"POWER\000"
 4811      5200
 4812              	.LASF238:
 4813 0c8b 7364635F 		.ascii	"sdc_lld_serve_interrupt\000"
 4813      6C6C645F 
ARM GAS  C:\Users\DEVELO~1\AppData\Local\Temp\cccWiZr8.s 			page 96


 4813      73657276 
 4813      655F696E 
 4813      74657272 
 4814              	.LASF106:
 4815 0ca3 49444D41 		.ascii	"IDMABSIZE\000"
 4815      4253495A 
 4815      4500
 4816              	.LASF205:
 4817 0cad 67657474 		.ascii	"gett\000"
 4817      00
 4818              	.LASF180:
 4819 0cb2 715F746F 		.ascii	"q_top\000"
 4819      7000
 4820              	.LASF25:
 4821 0cb8 74726566 		.ascii	"trefs_t\000"
 4821      735F7400 
 4822              	.LASF240:
 4823 0cc0 69727144 		.ascii	"irqDeinit\000"
 4823      65696E69 
 4823      7400
 4824              	.LASF154:
 4825 0cca 6576656E 		.ascii	"event_listener_t\000"
 4825      745F6C69 
 4825      7374656E 
 4825      65725F74 
 4825      00
 4826              	.LASF222:
 4827 0cdb 6275735F 		.ascii	"bus_width\000"
 4827      77696474 
 4827      6800
 4828              	.LASF146:
 4829 0ce5 72656164 		.ascii	"ready_list_t\000"
 4829      795F6C69 
 4829      73745F74 
 4829      00
 4830              	.LASF270:
 4831 0cf2 75736172 		.ascii	"usart6_irq_init\000"
 4831      74365F69 
 4831      72715F69 
 4831      6E697400 
 4832              	.LASF258:
 4833 0d02 74696D31 		.ascii	"tim1_irq_init\000"
 4833      5F697271 
 4833      5F696E69 
 4833      7400
 4834              	.LASF84:
 4835 0d10 72747374 		.ascii	"rtstamp\000"
 4835      616D7000 
 4836              	.LASF128:
 4837 0d18 71756575 		.ascii	"queue\000"
 4837      6500
 4838              	.LASF229:
 4839 0d1e 73796E63 		.ascii	"sync\000"
 4839      00
 4840              	.LASF18:
 4841 0d23 696E7433 		.ascii	"int32_t\000"
 4841      325F7400 
ARM GAS  C:\Users\DEVELO~1\AppData\Local\Temp\cccWiZr8.s 			page 97


 4842              	.LASF60:
 4843 0d2b 72666375 		.ascii	"rfcu_t\000"
 4843      5F7400
 4844              	.LASF277:
 4845 0d32 75736172 		.ascii	"usart3_irq_deinit\000"
 4845      74335F69 
 4845      72715F64 
 4845      65696E69 
 4845      7400
 4846              	.LASF218:
 4847 0d44 74687265 		.ascii	"thread\000"
 4847      616400
 4848              	.LASF139:
 4849 0d4b 77747365 		.ascii	"wtsemp\000"
 4849      6D7000
 4850              	.LASF74:
 4851 0d52 63685F70 		.ascii	"ch_priority_queue\000"
 4851      72696F72 
 4851      6974795F 
 4851      71756575 
 4851      6500
 4852              	.LASF246:
 4853 0d64 74696D36 		.ascii	"tim6_irq_deinit\000"
 4853      5F697271 
 4853      5F646569 
 4853      6E697400 
 4854              	.LASF284:
 4855 0d74 73646D6D 		.ascii	"sdmmc2_irq_init\000"
 4855      63325F69 
 4855      72715F69 
 4855      6E697400 
 4856              	.LASF71:
 4857 0d84 63685F71 		.ascii	"ch_queue\000"
 4857      75657565 
 4857      00
 4858              	.LASF211:
 4859 0d8d 73646362 		.ascii	"sdcbusmode_t\000"
 4859      75736D6F 
 4859      64655F74 
 4859      00
 4860              	.LASF286:
 4861 0d9a 73646D6D 		.ascii	"sdmmc1_irq_deinit\000"
 4861      63315F69 
 4861      72715F64 
 4861      65696E69 
 4861      7400
 4862              	.LASF83:
 4863 0dac 74797065 		.ascii	"type\000"
 4863      00
 4864              	.LASF252:
 4865 0db1 74696D33 		.ascii	"tim3_irq_deinit\000"
 4865      5F697271 
 4865      5F646569 
 4865      6E697400 
 4866              	.LASF6:
 4867 0dc1 756E7369 		.ascii	"unsigned char\000"
 4867      676E6564 
ARM GAS  C:\Users\DEVELO~1\AppData\Local\Temp\cccWiZr8.s 			page 98


 4867      20636861 
 4867      7200
 4868              	.LASF12:
 4869 0dcf 5F5F7569 		.ascii	"__uint32_t\000"
 4869      6E743332 
 4869      5F7400
 4870              	.LASF40:
 4871 0dda 77616974 		.ascii	"waiting\000"
 4871      696E6700 
 4872              	.LASF314:
 4873 0de2 65787469 		.ascii	"exti1_irq_deinit\000"
 4873      315F6972 
 4873      715F6465 
 4873      696E6974 
 4873      00
 4874              	.LASF101:
 4875 0df3 44434F55 		.ascii	"DCOUNT\000"
 4875      4E5400
 4876              	.LASF169:
 4877 0dfa 424C4B5F 		.ascii	"BLK_WRITING\000"
 4877      57524954 
 4877      494E4700 
 4878              	.LASF55:
 4879 0e06 6D61696E 		.ascii	"mainthread\000"
 4879      74687265 
 4879      616400
 4880              	.LASF37:
 4881 0e11 73746174 		.ascii	"state\000"
 4881      6500
 4882              	.LASF93:
 4883 0e17 52455350 		.ascii	"RESPCMD\000"
 4883      434D4400 
 4884              	.LASF46:
 4885 0e1f 6F735F69 		.ascii	"os_instance_t\000"
 4885      6E737461 
 4885      6E63655F 
 4885      7400
 4886              	.LASF155:
 4887 0e2d 6576656E 		.ascii	"event_listener\000"
 4887      745F6C69 
 4887      7374656E 
 4887      657200
 4888              	.LASF208:
 4889 0e3c 5344435F 		.ascii	"SDC_MODE_1BIT\000"
 4889      4D4F4445 
 4889      5F314249 
 4889      5400
 4890              	.LASF266:
 4891 0e4a 75617274 		.ascii	"uart8_irq_init\000"
 4891      385F6972 
 4891      715F696E 
 4891      697400
 4892              	.LASF51:
 4893 0e59 7265676C 		.ascii	"reglist\000"
 4893      69737400 
 4894              	.LASF237:
 4895 0e61 5F5F7472 		.ascii	"__trace_isr_leave\000"
ARM GAS  C:\Users\DEVELO~1\AppData\Local\Temp\cccWiZr8.s 			page 99


 4895      6163655F 
 4895      6973725F 
 4895      6C656176 
 4895      6500
 4896              	.LASF311:
 4897 0e73 65787469 		.ascii	"exti3_irq_init\000"
 4897      335F6972 
 4897      715F696E 
 4897      697400
 4898              	.LASF150:
 4899 0e82 69646C65 		.ascii	"idlethread_base\000"
 4899      74687265 
 4899      61645F62 
 4899      61736500 
 4900              	.LASF3:
 4901 0e92 7369676E 		.ascii	"signed char\000"
 4901      65642063 
 4901      68617200 
 4902              	.LASF262:
 4903 0e9e 75736172 		.ascii	"usart10_irq_init\000"
 4903      7431305F 
 4903      6972715F 
 4903      696E6974 
 4903      00
 4904              	.LASF78:
 4905 0eaf 64656C74 		.ascii	"delta\000"
 4905      6100
 4906              	.LASF176:
 4907 0eb5 696F5F71 		.ascii	"io_queue\000"
 4907      75657565 
 4907      00
 4908              	.LASF200:
 4909 0ebe 53657269 		.ascii	"SerialDriverVMT\000"
 4909      616C4472 
 4909      69766572 
 4909      564D5400 
 4910              	.LASF22:
 4911 0ece 73746B61 		.ascii	"stkalign_t\000"
 4911      6C69676E 
 4911      5F7400
 4912              	.LASF210:
 4913 0ed9 5344435F 		.ascii	"SDC_MODE_8BIT\000"
 4913      4D4F4445 
 4913      5F384249 
 4913      5400
 4914              	.LASF212:
 4915 0ee7 7364636D 		.ascii	"sdcmode_t\000"
 4915      6F64655F 
 4915      7400
 4916              	.LASF113:
 4917 0ef1 53444D4D 		.ascii	"SDMMC_TypeDef\000"
 4917      435F5479 
 4917      70654465 
 4917      6600
 4918              	.LASF145:
 4919 0eff 63757272 		.ascii	"current\000"
 4919      656E7400 
ARM GAS  C:\Users\DEVELO~1\AppData\Local\Temp\cccWiZr8.s 			page 100


 4920              	.LASF276:
 4921 0f07 5F5F6675 		.ascii	"__func__\000"
 4921      6E635F5F 
 4921      00
 4922              	.LASF247:
 4923 0f10 74696D36 		.ascii	"tim6_irq_init\000"
 4923      5F697271 
 4923      5F696E69 
 4923      7400
 4924              	.LASF261:
 4925 0f1e 75736172 		.ascii	"usart10_irq_deinit\000"
 4925      7431305F 
 4925      6972715F 
 4925      6465696E 
 4925      697400
 4926              	.LASF219:
 4927 0f31 73646D6D 		.ascii	"sdmmc\000"
 4927      6300
 4928              	.LASF119:
 4929 0f37 646F7562 		.ascii	"double\000"
 4929      6C6500
 4930              	.LASF226:
 4931 0f3e 69735F70 		.ascii	"is_protected\000"
 4931      726F7465 
 4931      63746564 
 4931      00
 4932              	.LASF221:
 4933 0f4b 72657370 		.ascii	"resp\000"
 4933      00
 4934              	.LASF281:
 4935 0f50 75736172 		.ascii	"usart1_irq_deinit\000"
 4935      74315F69 
 4935      72715F64 
 4935      65696E69 
 4935      7400
 4936              	.LASF111:
 4937 0f62 52455345 		.ascii	"RESERVED2\000"
 4937      52564544 
 4937      3200
 4938              	.LASF107:
 4939 0f6c 49444D41 		.ascii	"IDMABASE0\000"
 4939      42415345 
 4939      3000
 4940              	.LASF108:
 4941 0f76 49444D41 		.ascii	"IDMABASE1\000"
 4941      42415345 
 4941      3100
 4942              	.LASF239:
 4943 0f80 5F5F7472 		.ascii	"__trace_isr_enter\000"
 4943      6163655F 
 4943      6973725F 
 4943      656E7465 
 4943      7200
 4944              	.LASF52:
 4945 0f92 636F7265 		.ascii	"core_id\000"
 4945      5F696400 
 4946              	.LASF137:
ARM GAS  C:\Users\DEVELO~1\AppData\Local\Temp\cccWiZr8.s 			page 101


 4947 0f9a 77747472 		.ascii	"wttrp\000"
 4947      7000
 4948              	.LASF140:
 4949 0fa0 77746D74 		.ascii	"wtmtxp\000"
 4949      787000
 4950              	.LASF274:
 4951 0fa7 75617274 		.ascii	"uart4_irq_init\000"
 4951      345F6972 
 4951      715F696E 
 4951      697400
 4952              	.LASF136:
 4953 0fb6 65786974 		.ascii	"exitcode\000"
 4953      636F6465 
 4953      00
 4954              	.LASF31:
 4955 0fbf 636F7265 		.ascii	"core_id_t\000"
 4955      5F69645F 
 4955      7400
 4956              	.LASF45:
 4957 0fc9 6D706F6F 		.ascii	"mpool\000"
 4957      6C00
 4958              		.ident	"GCC: (Arm GNU Toolchain 11.3.Rel1) 11.3.1 20220712"
ARM GAS  C:\Users\DEVELO~1\AppData\Local\Temp\cccWiZr8.s 			page 102


DEFINED SYMBOLS
                            *ABS*:00000000 stm32_isr.c
C:\Users\DEVELO~1\AppData\Local\Temp\cccWiZr8.s:18     .text.Vector104:00000000 $t
C:\Users\DEVELO~1\AppData\Local\Temp\cccWiZr8.s:25     .text.Vector104:00000000 Vector104
C:\Users\DEVELO~1\AppData\Local\Temp\cccWiZr8.s:71     .text.Vector104:00000020 $d
C:\Users\DEVELO~1\AppData\Local\Temp\cccWiZr8.s:77     .text.VectorDC:00000000 $t
C:\Users\DEVELO~1\AppData\Local\Temp\cccWiZr8.s:84     .text.VectorDC:00000000 VectorDC
C:\Users\DEVELO~1\AppData\Local\Temp\cccWiZr8.s:130    .text.VectorDC:00000020 $d
C:\Users\DEVELO~1\AppData\Local\Temp\cccWiZr8.s:136    .text.VectorB0:00000000 $t
C:\Users\DEVELO~1\AppData\Local\Temp\cccWiZr8.s:143    .text.VectorB0:00000000 VectorB0
C:\Users\DEVELO~1\AppData\Local\Temp\cccWiZr8.s:188    .text.VectorB0:0000001c $d
C:\Users\DEVELO~1\AppData\Local\Temp\cccWiZr8.s:193    .text.irqInit:00000000 $t
C:\Users\DEVELO~1\AppData\Local\Temp\cccWiZr8.s:200    .text.irqInit:00000000 irqInit
C:\Users\DEVELO~1\AppData\Local\Temp\cccWiZr8.s:293    .text.irqDeinit:00000000 $t
C:\Users\DEVELO~1\AppData\Local\Temp\cccWiZr8.s:300    .text.irqDeinit:00000000 irqDeinit
C:\Users\DEVELO~1\AppData\Local\Temp\cccWiZr8.s:388    .rodata.__func__.0:00000000 $d
C:\Users\DEVELO~1\AppData\Local\Temp\cccWiZr8.s:392    .rodata.__func__.0:00000000 __func__.0
C:\Users\DEVELO~1\AppData\Local\Temp\cccWiZr8.s:395    .rodata.__func__.1:00000000 $d
C:\Users\DEVELO~1\AppData\Local\Temp\cccWiZr8.s:399    .rodata.__func__.1:00000000 __func__.1
C:\Users\DEVELO~1\AppData\Local\Temp\cccWiZr8.s:402    .rodata.__func__.2:00000000 $d
C:\Users\DEVELO~1\AppData\Local\Temp\cccWiZr8.s:406    .rodata.__func__.2:00000000 __func__.2

UNDEFINED SYMBOLS
__trace_isr_enter
sdc_lld_serve_interrupt
__trace_isr_leave
__port_irq_epilogue
SDCD1
sd_lld_serve_interrupt
SD3
st_lld_serve_interrupt
nvicEnableVector
nvicDisableVector
