ARM GAS  C:\Users\DEVELO~1\AppData\Local\Temp\ccnRDbrW.s 			page 1


   1              		.cpu cortex-m7
   2              		.arch armv7e-m
   3              		.fpu softvfp
   4              		.eabi_attribute 20, 1
   5              		.eabi_attribute 21, 1
   6              		.eabi_attribute 23, 3
   7              		.eabi_attribute 24, 1
   8              		.eabi_attribute 25, 1
   9              		.eabi_attribute 26, 1
  10              		.eabi_attribute 30, 2
  11              		.eabi_attribute 34, 1
  12              		.eabi_attribute 18, 4
  13              		.file	"stm32h7xx_hal_flash.c"
  14              		.text
  15              	.Ltext0:
  16              		.cfi_sections	.debug_frame
  17              		.section	.text.HAL_FLASH_EndOfOperationCallback,"ax",%progbits
  18              		.align	1
  19              		.p2align 4,,15
  20              		.weak	HAL_FLASH_EndOfOperationCallback
  21              		.syntax unified
  22              		.thumb
  23              		.thumb_func
  24              		.type	HAL_FLASH_EndOfOperationCallback, %function
  25              	HAL_FLASH_EndOfOperationCallback:
  26              	.LVL0:
  27              	.LFB144:
  28              		.file 1 "./drivers/stm32h7xx-hal-driver/Src/stm32h7xx_hal_flash.c"
  29              		.loc 1 811 1 view -0
  30              		.cfi_startproc
  31              		@ args = 0, pretend = 0, frame = 0
  32              		@ frame_needed = 0, uses_anonymous_args = 0
  33              		@ link register save eliminated.
  34              		.loc 1 813 3 view .LVU1
  35              		.loc 1 818 1 is_stmt 0 view .LVU2
  36 0000 7047     		bx	lr
  37              		.cfi_endproc
  38              	.LFE144:
  39              		.size	HAL_FLASH_EndOfOperationCallback, .-HAL_FLASH_EndOfOperationCallback
  40 0002 00BF     		.section	.text.HAL_FLASH_OperationErrorCallback,"ax",%progbits
  41              		.align	1
  42              		.p2align 4,,15
  43              		.weak	HAL_FLASH_OperationErrorCallback
  44              		.syntax unified
  45              		.thumb
  46              		.thumb_func
  47              		.type	HAL_FLASH_OperationErrorCallback, %function
  48              	HAL_FLASH_OperationErrorCallback:
  49              	.LFB157:
  50              		.cfi_startproc
  51              		@ args = 0, pretend = 0, frame = 0
  52              		@ frame_needed = 0, uses_anonymous_args = 0
  53              		@ link register save eliminated.
  54 0000 7047     		bx	lr
  55              		.cfi_endproc
  56              	.LFE157:
  57              		.size	HAL_FLASH_OperationErrorCallback, .-HAL_FLASH_OperationErrorCallback
ARM GAS  C:\Users\DEVELO~1\AppData\Local\Temp\ccnRDbrW.s 			page 2


  58 0002 00BF     		.section	.text.HAL_FLASH_IRQHandler,"ax",%progbits
  59              		.align	1
  60              		.p2align 4,,15
  61              		.global	HAL_FLASH_IRQHandler
  62              		.syntax unified
  63              		.thumb
  64              		.thumb_func
  65              		.type	HAL_FLASH_IRQHandler, %function
  66              	HAL_FLASH_IRQHandler:
  67              	.LFB143:
  68              		.loc 1 476 1 is_stmt 1 view -0
  69              		.cfi_startproc
  70              		@ args = 0, pretend = 0, frame = 0
  71              		@ frame_needed = 0, uses_anonymous_args = 0
  72              		.loc 1 477 3 view .LVU4
  73              		.loc 1 478 3 view .LVU5
  74              		.loc 1 479 3 view .LVU6
  75              		.loc 1 482 3 view .LVU7
  76              		.loc 1 476 1 is_stmt 0 view .LVU8
  77 0000 70B5     		push	{r4, r5, r6, lr}
  78              		.cfi_def_cfa_offset 16
  79              		.cfi_offset 4, -16
  80              		.cfi_offset 5, -12
  81              		.cfi_offset 6, -8
  82              		.cfi_offset 14, -4
  83              		.loc 1 482 6 view .LVU9
  84 0002 744D     		ldr	r5, .L48
  85              		.loc 1 484 14 view .LVU10
  86 0004 744C     		ldr	r4, .L48+4
  87              		.loc 1 482 6 view .LVU11
  88 0006 2B69     		ldr	r3, [r5, #16]
  89              		.loc 1 482 5 view .LVU12
  90 0008 DA03     		lsls	r2, r3, #15
  91 000a 13D5     		bpl	.L6
  92              		.loc 1 484 5 is_stmt 1 view .LVU13
  93              		.loc 1 484 14 is_stmt 0 view .LVU14
  94 000c 2378     		ldrb	r3, [r4]	@ zero_extendqisi2
  95              		.loc 1 484 7 view .LVU15
  96 000e 012B     		cmp	r3, #1
  97              		.loc 1 484 14 view .LVU16
  98 0010 DEB2     		uxtb	r6, r3
  99              		.loc 1 484 7 view .LVU17
 100 0012 00F08E80 		beq	.L40
 101              		.loc 1 519 7 is_stmt 1 view .LVU18
 102              		.loc 1 519 17 is_stmt 0 view .LVU19
 103 0016 2378     		ldrb	r3, [r4]	@ zero_extendqisi2
 104              		.loc 1 521 9 view .LVU20
 105 0018 022B     		cmp	r3, #2
 106              		.loc 1 519 17 view .LVU21
 107 001a DDB2     		uxtb	r5, r3
 108              	.LVL1:
 109              		.loc 1 521 7 is_stmt 1 view .LVU22
 110              		.loc 1 521 9 is_stmt 0 view .LVU23
 111 001c 00F0B680 		beq	.L29
 112 0020 072D     		cmp	r5, #7
 113 0022 00F0B380 		beq	.L29
 114              		.loc 1 527 12 is_stmt 1 view .LVU24
ARM GAS  C:\Users\DEVELO~1\AppData\Local\Temp\ccnRDbrW.s 			page 3


 115              		.loc 1 527 14 is_stmt 0 view .LVU25
 116 0026 032D     		cmp	r5, #3
 117 0028 00F09980 		beq	.L41
 118              		.loc 1 536 7 is_stmt 1 view .LVU26
 119              		.loc 1 538 7 view .LVU27
 120              		.loc 1 538 9 is_stmt 0 view .LVU28
 121 002c 043D     		subs	r5, r5, #4
 122              	.LVL2:
 123              		.loc 1 538 9 view .LVU29
 124 002e 022D     		cmp	r5, #2
 125 0030 00F29880 		bhi	.L12
 126              	.LVL3:
 127              	.L6:
 128              		.loc 1 551 3 is_stmt 1 view .LVU30
 129              		.loc 1 551 6 is_stmt 0 view .LVU31
 130 0034 674D     		ldr	r5, .L48
 131 0036 D5F81031 		ldr	r3, [r5, #272]
 132              		.loc 1 551 5 view .LVU32
 133 003a DB03     		lsls	r3, r3, #15
 134 003c 10D5     		bpl	.L14
 135              		.loc 1 553 5 is_stmt 1 view .LVU33
 136              		.loc 1 553 14 is_stmt 0 view .LVU34
 137 003e 2378     		ldrb	r3, [r4]	@ zero_extendqisi2
 138              		.loc 1 553 7 view .LVU35
 139 0040 042B     		cmp	r3, #4
 140 0042 57D0     		beq	.L42
 141              		.loc 1 588 7 is_stmt 1 view .LVU36
 142              		.loc 1 588 17 is_stmt 0 view .LVU37
 143 0044 2378     		ldrb	r3, [r4]	@ zero_extendqisi2
 144              		.loc 1 590 9 view .LVU38
 145 0046 03F0FD02 		and	r2, r3, #253
 146              		.loc 1 588 17 view .LVU39
 147 004a DBB2     		uxtb	r3, r3
 148              	.LVL4:
 149              		.loc 1 590 7 is_stmt 1 view .LVU40
 150              		.loc 1 590 9 is_stmt 0 view .LVU41
 151 004c 052A     		cmp	r2, #5
 152 004e 00F09280 		beq	.L43
 153              		.loc 1 596 12 is_stmt 1 view .LVU42
 154              		.loc 1 596 14 is_stmt 0 view .LVU43
 155 0052 062B     		cmp	r3, #6
 156 0054 00F0B980 		beq	.L44
 157              		.loc 1 605 7 is_stmt 1 view .LVU44
 158              		.loc 1 607 7 view .LVU45
 159              		.loc 1 607 9 is_stmt 0 view .LVU46
 160 0058 013B     		subs	r3, r3, #1
 161              	.LVL5:
 162              		.loc 1 607 9 view .LVU47
 163 005a 022B     		cmp	r3, #2
 164 005c 00F28E80 		bhi	.L18
 165              	.LVL6:
 166              	.L14:
 167              		.loc 1 621 3 is_stmt 1 view .LVU48
 168              		.loc 1 621 20 is_stmt 0 view .LVU49
 169 0060 5C4A     		ldr	r2, .L48
 170 0062 1369     		ldr	r3, [r2, #16]
 171              	.LVL7:
ARM GAS  C:\Users\DEVELO~1\AppData\Local\Temp\ccnRDbrW.s 			page 4


 172              		.loc 1 628 3 is_stmt 1 view .LVU50
 173              		.loc 1 628 5 is_stmt 0 view .LVU51
 174 0064 13F4DC03 		ands	r3, r3, #7208960
 175              	.LVL8:
 176              		.loc 1 628 5 view .LVU52
 177 0068 10D0     		beq	.L20
 178              		.loc 1 631 5 is_stmt 1 view .LVU53
 179              		.loc 1 631 22 is_stmt 0 view .LVU54
 180 006a A169     		ldr	r1, [r4, #24]
 181 006c 1943     		orrs	r1, r1, r3
 182 006e A161     		str	r1, [r4, #24]
 183              		.loc 1 634 5 is_stmt 1 view .LVU55
 184 0070 5361     		str	r3, [r2, #20]
 185              		.loc 1 636 5 view .LVU56
 186              		.loc 1 636 15 is_stmt 0 view .LVU57
 187 0072 2378     		ldrb	r3, [r4]	@ zero_extendqisi2
 188              	.LVL9:
 189              		.loc 1 638 7 view .LVU58
 190 0074 012B     		cmp	r3, #1
 191              		.loc 1 636 15 view .LVU59
 192 0076 DAB2     		uxtb	r2, r3
 193              	.LVL10:
 194              		.loc 1 638 5 is_stmt 1 view .LVU60
 195              		.loc 1 638 7 is_stmt 0 view .LVU61
 196 0078 33D0     		beq	.L45
 197              		.loc 1 644 10 is_stmt 1 view .LVU62
 198              		.loc 1 644 12 is_stmt 0 view .LVU63
 199 007a 022A     		cmp	r2, #2
 200 007c 79D0     		beq	.L27
 201 007e 072A     		cmp	r2, #7
 202 0080 77D0     		beq	.L27
 203              		.loc 1 652 7 is_stmt 1 view .LVU64
 204              		.loc 1 656 29 is_stmt 0 view .LVU65
 205 0082 0023     		movs	r3, #0
 206              		.loc 1 652 12 view .LVU66
 207 0084 2069     		ldr	r0, [r4, #16]
 208              	.LVL11:
 209              		.loc 1 656 5 is_stmt 1 view .LVU67
 210              		.loc 1 656 29 is_stmt 0 view .LVU68
 211 0086 2370     		strb	r3, [r4]
 212              	.LVL12:
 213              		.loc 1 659 5 is_stmt 1 view .LVU69
 214 0088 FFF7FEFF 		bl	HAL_FLASH_OperationErrorCallback
 215              	.LVL13:
 216              	.L20:
 217              		.loc 1 697 3 view .LVU70
 218              		.loc 1 697 20 is_stmt 0 view .LVU71
 219 008c 5149     		ldr	r1, .L48
 220 008e D1F81031 		ldr	r3, [r1, #272]
 221              	.LVL14:
 222              		.loc 1 704 3 is_stmt 1 view .LVU72
 223              		.loc 1 704 5 is_stmt 0 view .LVU73
 224 0092 13F4DC03 		ands	r3, r3, #7208960
 225              	.LVL15:
 226              		.loc 1 704 5 view .LVU74
 227 0096 13D0     		beq	.L23
 228              		.loc 1 707 5 is_stmt 1 view .LVU75
ARM GAS  C:\Users\DEVELO~1\AppData\Local\Temp\ccnRDbrW.s 			page 5


 229              		.loc 1 707 22 is_stmt 0 view .LVU76
 230 0098 A269     		ldr	r2, [r4, #24]
 231 009a 1A43     		orrs	r2, r2, r3
 232 009c 42F00042 		orr	r2, r2, #-2147483648
 233 00a0 A261     		str	r2, [r4, #24]
 234              		.loc 1 710 5 is_stmt 1 view .LVU77
 235 00a2 C1F81431 		str	r3, [r1, #276]
 236              		.loc 1 712 5 view .LVU78
 237              		.loc 1 712 15 is_stmt 0 view .LVU79
 238 00a6 2378     		ldrb	r3, [r4]	@ zero_extendqisi2
 239              	.LVL16:
 240              		.loc 1 714 7 view .LVU80
 241 00a8 042B     		cmp	r3, #4
 242              		.loc 1 712 15 view .LVU81
 243 00aa DAB2     		uxtb	r2, r3
 244              	.LVL17:
 245              		.loc 1 714 5 is_stmt 1 view .LVU82
 246              		.loc 1 714 7 is_stmt 0 view .LVU83
 247 00ac 38D0     		beq	.L46
 248              		.loc 1 720 10 is_stmt 1 view .LVU84
 249              		.loc 1 720 12 is_stmt 0 view .LVU85
 250 00ae 02F0FD02 		and	r2, r2, #253
 251              	.LVL18:
 252              		.loc 1 720 12 view .LVU86
 253 00b2 052A     		cmp	r2, #5
 254 00b4 51D1     		bne	.L47
 255              		.loc 1 732 29 view .LVU87
 256 00b6 0023     		movs	r3, #0
 257              	.LVL19:
 258              		.loc 1 723 12 view .LVU88
 259 00b8 0220     		movs	r0, #2
 260              	.LVL20:
 261              		.loc 1 732 5 is_stmt 1 view .LVU89
 262              		.loc 1 732 29 is_stmt 0 view .LVU90
 263 00ba 2370     		strb	r3, [r4]
 264              	.LVL21:
 265              		.loc 1 735 5 is_stmt 1 view .LVU91
 266 00bc FFF7FEFF 		bl	HAL_FLASH_OperationErrorCallback
 267              	.LVL22:
 268              	.L23:
 269              		.loc 1 772 3 view .LVU92
 270              		.loc 1 772 12 is_stmt 0 view .LVU93
 271 00c0 2378     		ldrb	r3, [r4]	@ zero_extendqisi2
 272              		.loc 1 772 5 view .LVU94
 273 00c2 03F0FF01 		and	r1, r3, #255
 274 00c6 5BB9     		cbnz	r3, .L4
 275              		.loc 1 776 5 is_stmt 1 view .LVU95
 276 00c8 424B     		ldr	r3, .L48
 277 00ca DA68     		ldr	r2, [r3, #12]
 278 00cc 22F4DE02 		bic	r2, r2, #7274496
 279 00d0 DA60     		str	r2, [r3, #12]
 280              		.loc 1 781 5 view .LVU96
 281 00d2 D3F80C21 		ldr	r2, [r3, #268]
 282 00d6 22F4DE02 		bic	r2, r2, #7274496
 283 00da C3F80C21 		str	r2, [r3, #268]
 284              		.loc 1 797 5 view .LVU97
 285              		.loc 1 797 5 view .LVU98
ARM GAS  C:\Users\DEVELO~1\AppData\Local\Temp\ccnRDbrW.s 			page 6


 286 00de 2175     		strb	r1, [r4, #20]
 287              		.loc 1 797 5 view .LVU99
 288              	.L4:
 289              		.loc 1 799 1 is_stmt 0 view .LVU100
 290 00e0 70BD     		pop	{r4, r5, r6, pc}
 291              	.LVL23:
 292              	.L45:
 293              		.loc 1 641 7 is_stmt 1 view .LVU101
 294              		.loc 1 642 21 is_stmt 0 view .LVU102
 295 00e2 4FF0FF33 		mov	r3, #-1
 296              		.loc 1 641 12 view .LVU103
 297 00e6 E068     		ldr	r0, [r4, #12]
 298              	.LVL24:
 299              		.loc 1 642 7 is_stmt 1 view .LVU104
 300              		.loc 1 642 21 is_stmt 0 view .LVU105
 301 00e8 E360     		str	r3, [r4, #12]
 302              	.LVL25:
 303              	.L22:
 304              		.loc 1 656 5 is_stmt 1 view .LVU106
 305              		.loc 1 656 29 is_stmt 0 view .LVU107
 306 00ea 0023     		movs	r3, #0
 307 00ec 2370     		strb	r3, [r4]
 308              		.loc 1 659 5 is_stmt 1 view .LVU108
 309 00ee FFF7FEFF 		bl	HAL_FLASH_OperationErrorCallback
 310              	.LVL26:
 311              		.loc 1 659 5 is_stmt 0 view .LVU109
 312 00f2 CBE7     		b	.L20
 313              	.L42:
 314              		.loc 1 556 7 is_stmt 1 view .LVU110
 315              		.loc 1 556 13 is_stmt 0 view .LVU111
 316 00f4 6368     		ldr	r3, [r4, #4]
 317              		.loc 1 556 30 view .LVU112
 318 00f6 013B     		subs	r3, r3, #1
 319 00f8 6360     		str	r3, [r4, #4]
 320              		.loc 1 559 7 is_stmt 1 view .LVU113
 321              		.loc 1 559 16 is_stmt 0 view .LVU114
 322 00fa 6368     		ldr	r3, [r4, #4]
 323              		.loc 1 559 9 view .LVU115
 324 00fc 002B     		cmp	r3, #0
 325 00fe 58D0     		beq	.L16
 326              		.loc 1 562 9 is_stmt 1 view .LVU116
 327              		.loc 1 562 48 is_stmt 0 view .LVU117
 328 0100 E068     		ldr	r0, [r4, #12]
 329              		.loc 1 562 9 view .LVU118
 330 0102 FFF7FEFF 		bl	HAL_FLASH_EndOfOperationCallback
 331              	.LVL27:
 332              		.loc 1 565 9 is_stmt 1 view .LVU119
 333 0106 4FF48033 		mov	r3, #65536
 334              		.loc 1 570 9 is_stmt 0 view .LVU120
 335 010a 0221     		movs	r1, #2
 336              		.loc 1 565 9 view .LVU121
 337 010c C5F81431 		str	r3, [r5, #276]
 338              		.loc 1 568 9 is_stmt 1 view .LVU122
 339              		.loc 1 568 15 is_stmt 0 view .LVU123
 340 0110 E368     		ldr	r3, [r4, #12]
 341              		.loc 1 568 22 view .LVU124
 342 0112 0133     		adds	r3, r3, #1
ARM GAS  C:\Users\DEVELO~1\AppData\Local\Temp\ccnRDbrW.s 			page 7


 343 0114 E360     		str	r3, [r4, #12]
 344              		.loc 1 569 9 is_stmt 1 view .LVU125
 345              		.loc 1 569 14 is_stmt 0 view .LVU126
 346 0116 E068     		ldr	r0, [r4, #12]
 347              	.LVL28:
 348              		.loc 1 570 9 is_stmt 1 view .LVU127
 349              		.loc 1 570 54 is_stmt 0 view .LVU128
 350 0118 A268     		ldr	r2, [r4, #8]
 351              		.loc 1 570 9 view .LVU129
 352 011a FFF7FEFF 		bl	FLASH_Erase_Sector
 353              	.LVL29:
 354              		.loc 1 570 9 view .LVU130
 355 011e 9FE7     		b	.L14
 356              	.LVL30:
 357              	.L46:
 358              		.loc 1 717 7 is_stmt 1 view .LVU131
 359              		.loc 1 718 21 is_stmt 0 view .LVU132
 360 0120 4FF0FF33 		mov	r3, #-1
 361              		.loc 1 717 12 view .LVU133
 362 0124 E068     		ldr	r0, [r4, #12]
 363              	.LVL31:
 364              		.loc 1 718 7 is_stmt 1 view .LVU134
 365              		.loc 1 718 21 is_stmt 0 view .LVU135
 366 0126 E360     		str	r3, [r4, #12]
 367              	.LVL32:
 368              	.L25:
 369              		.loc 1 732 5 is_stmt 1 view .LVU136
 370              		.loc 1 732 29 is_stmt 0 view .LVU137
 371 0128 0023     		movs	r3, #0
 372 012a 2370     		strb	r3, [r4]
 373              	.LVL33:
 374              		.loc 1 735 5 is_stmt 1 view .LVU138
 375 012c FFF7FEFF 		bl	HAL_FLASH_OperationErrorCallback
 376              	.LVL34:
 377              		.loc 1 735 5 is_stmt 0 view .LVU139
 378 0130 C6E7     		b	.L23
 379              	.L40:
 380              		.loc 1 487 7 is_stmt 1 view .LVU140
 381              		.loc 1 487 13 is_stmt 0 view .LVU141
 382 0132 6368     		ldr	r3, [r4, #4]
 383              		.loc 1 487 30 view .LVU142
 384 0134 013B     		subs	r3, r3, #1
 385 0136 6360     		str	r3, [r4, #4]
 386              		.loc 1 490 7 is_stmt 1 view .LVU143
 387              		.loc 1 490 16 is_stmt 0 view .LVU144
 388 0138 6368     		ldr	r3, [r4, #4]
 389              		.loc 1 490 9 view .LVU145
 390 013a 7BB3     		cbz	r3, .L8
 391              		.loc 1 493 9 is_stmt 1 view .LVU146
 392              		.loc 1 493 48 is_stmt 0 view .LVU147
 393 013c E068     		ldr	r0, [r4, #12]
 394              		.loc 1 493 9 view .LVU148
 395 013e FFF7FEFF 		bl	HAL_FLASH_EndOfOperationCallback
 396              	.LVL35:
 397              		.loc 1 496 9 is_stmt 1 view .LVU149
 398 0142 4FF48033 		mov	r3, #65536
 399              		.loc 1 501 9 is_stmt 0 view .LVU150
ARM GAS  C:\Users\DEVELO~1\AppData\Local\Temp\ccnRDbrW.s 			page 8


 400 0146 3146     		mov	r1, r6
 401              		.loc 1 496 9 view .LVU151
 402 0148 6B61     		str	r3, [r5, #20]
 403              		.loc 1 499 9 is_stmt 1 view .LVU152
 404              		.loc 1 499 15 is_stmt 0 view .LVU153
 405 014a E368     		ldr	r3, [r4, #12]
 406              		.loc 1 499 22 view .LVU154
 407 014c 0133     		adds	r3, r3, #1
 408 014e E360     		str	r3, [r4, #12]
 409              		.loc 1 500 9 is_stmt 1 view .LVU155
 410              		.loc 1 500 14 is_stmt 0 view .LVU156
 411 0150 E068     		ldr	r0, [r4, #12]
 412              	.LVL36:
 413              		.loc 1 501 9 is_stmt 1 view .LVU157
 414              		.loc 1 501 54 is_stmt 0 view .LVU158
 415 0152 A268     		ldr	r2, [r4, #8]
 416              		.loc 1 501 9 view .LVU159
 417 0154 FFF7FEFF 		bl	FLASH_Erase_Sector
 418              	.LVL37:
 419              		.loc 1 501 9 view .LVU160
 420 0158 6CE7     		b	.L6
 421              	.LVL38:
 422              	.L47:
 423              		.loc 1 728 7 is_stmt 1 view .LVU161
 424              		.loc 1 728 12 is_stmt 0 view .LVU162
 425 015a 2069     		ldr	r0, [r4, #16]
 426              	.LVL39:
 427              		.loc 1 728 12 view .LVU163
 428 015c E4E7     		b	.L25
 429              	.LVL40:
 430              	.L41:
 431              		.loc 1 531 9 is_stmt 1 view .LVU164
 432              		.loc 1 531 48 is_stmt 0 view .LVU165
 433 015e 2069     		ldr	r0, [r4, #16]
 434              		.loc 1 531 9 view .LVU166
 435 0160 FFF7FEFF 		bl	HAL_FLASH_EndOfOperationCallback
 436              	.LVL41:
 437              		.loc 1 536 7 is_stmt 1 view .LVU167
 438              		.loc 1 538 7 view .LVU168
 439              	.L12:
 440              		.loc 1 542 9 view .LVU169
 441              		.loc 1 542 33 is_stmt 0 view .LVU170
 442 0164 0021     		movs	r1, #0
 443              		.loc 1 544 9 view .LVU171
 444 0166 1B4B     		ldr	r3, .L48
 445 0168 4FF48032 		mov	r2, #65536
 446              		.loc 1 542 33 view .LVU172
 447 016c 2170     		strb	r1, [r4]
 448              		.loc 1 544 9 is_stmt 1 view .LVU173
 449 016e 5A61     		str	r2, [r3, #20]
 450 0170 60E7     		b	.L6
 451              	.LVL42:
 452              	.L27:
 453              		.loc 1 647 12 is_stmt 0 view .LVU174
 454 0172 0120     		movs	r0, #1
 455 0174 B9E7     		b	.L22
 456              	.LVL43:
ARM GAS  C:\Users\DEVELO~1\AppData\Local\Temp\ccnRDbrW.s 			page 9


 457              	.L43:
 458              		.loc 1 594 9 is_stmt 1 view .LVU175
 459 0176 0220     		movs	r0, #2
 460 0178 FFF7FEFF 		bl	HAL_FLASH_EndOfOperationCallback
 461              	.LVL44:
 462              		.loc 1 605 7 view .LVU176
 463              		.loc 1 607 7 view .LVU177
 464              	.L18:
 465              		.loc 1 611 9 view .LVU178
 466              		.loc 1 611 33 is_stmt 0 view .LVU179
 467 017c 0021     		movs	r1, #0
 468              		.loc 1 613 9 view .LVU180
 469 017e 154B     		ldr	r3, .L48
 470 0180 4FF48032 		mov	r2, #65536
 471              		.loc 1 611 33 view .LVU181
 472 0184 2170     		strb	r1, [r4]
 473              		.loc 1 613 9 is_stmt 1 view .LVU182
 474 0186 C3F81421 		str	r2, [r3, #276]
 475 018a 69E7     		b	.L14
 476              	.LVL45:
 477              	.L29:
 478              		.loc 1 525 9 view .LVU183
 479              		.loc 1 538 9 is_stmt 0 view .LVU184
 480 018c 043D     		subs	r5, r5, #4
 481              	.LVL46:
 482              		.loc 1 525 9 view .LVU185
 483 018e 0120     		movs	r0, #1
 484 0190 FFF7FEFF 		bl	HAL_FLASH_EndOfOperationCallback
 485              	.LVL47:
 486              		.loc 1 536 7 is_stmt 1 view .LVU186
 487              		.loc 1 538 7 view .LVU187
 488              		.loc 1 538 9 is_stmt 0 view .LVU188
 489 0194 022D     		cmp	r5, #2
 490 0196 7FF64DAF 		bls	.L6
 491 019a E3E7     		b	.L12
 492              	.LVL48:
 493              	.L8:
 494              		.loc 1 507 9 is_stmt 1 view .LVU189
 495              		.loc 1 507 23 is_stmt 0 view .LVU190
 496 019c 4FF0FF32 		mov	r2, #-1
 497 01a0 E260     		str	r2, [r4, #12]
 498              		.loc 1 508 9 is_stmt 1 view .LVU191
 499              		.loc 1 508 33 is_stmt 0 view .LVU192
 500 01a2 2370     		strb	r3, [r4]
 501              		.loc 1 511 9 is_stmt 1 view .LVU193
 502              		.loc 1 511 48 is_stmt 0 view .LVU194
 503 01a4 E068     		ldr	r0, [r4, #12]
 504              		.loc 1 511 9 view .LVU195
 505 01a6 FFF7FEFF 		bl	HAL_FLASH_EndOfOperationCallback
 506              	.LVL49:
 507              		.loc 1 514 9 is_stmt 1 view .LVU196
 508 01aa 4FF48033 		mov	r3, #65536
 509 01ae 6B61     		str	r3, [r5, #20]
 510 01b0 40E7     		b	.L6
 511              	.L16:
 512              		.loc 1 576 9 view .LVU197
 513              		.loc 1 576 23 is_stmt 0 view .LVU198
ARM GAS  C:\Users\DEVELO~1\AppData\Local\Temp\ccnRDbrW.s 			page 10


 514 01b2 4FF0FF32 		mov	r2, #-1
 515 01b6 E260     		str	r2, [r4, #12]
 516              		.loc 1 577 9 is_stmt 1 view .LVU199
 517              		.loc 1 577 33 is_stmt 0 view .LVU200
 518 01b8 2370     		strb	r3, [r4]
 519              		.loc 1 580 9 is_stmt 1 view .LVU201
 520              		.loc 1 580 48 is_stmt 0 view .LVU202
 521 01ba E068     		ldr	r0, [r4, #12]
 522              		.loc 1 580 9 view .LVU203
 523 01bc FFF7FEFF 		bl	HAL_FLASH_EndOfOperationCallback
 524              	.LVL50:
 525              		.loc 1 583 9 is_stmt 1 view .LVU204
 526 01c0 4FF48033 		mov	r3, #65536
 527 01c4 C5F81431 		str	r3, [r5, #276]
 528 01c8 4AE7     		b	.L14
 529              	.LVL51:
 530              	.L44:
 531              		.loc 1 600 9 view .LVU205
 532              		.loc 1 600 48 is_stmt 0 view .LVU206
 533 01ca 2069     		ldr	r0, [r4, #16]
 534              		.loc 1 600 9 view .LVU207
 535 01cc FFF7FEFF 		bl	HAL_FLASH_EndOfOperationCallback
 536              	.LVL52:
 537              		.loc 1 605 7 is_stmt 1 view .LVU208
 538              		.loc 1 607 7 view .LVU209
 539 01d0 D4E7     		b	.L18
 540              	.L49:
 541 01d2 00BF     		.align	2
 542              	.L48:
 543 01d4 00200052 		.word	1375739904
 544 01d8 00000000 		.word	.LANCHOR0
 545              		.cfi_endproc
 546              	.LFE143:
 547              		.size	HAL_FLASH_IRQHandler, .-HAL_FLASH_IRQHandler
 548              		.section	.text.HAL_FLASH_Unlock,"ax",%progbits
 549              		.align	1
 550              		.p2align 4,,15
 551              		.global	HAL_FLASH_Unlock
 552              		.syntax unified
 553              		.thumb
 554              		.thumb_func
 555              		.type	HAL_FLASH_Unlock, %function
 556              	HAL_FLASH_Unlock:
 557              	.LFB146:
 558              		.loc 1 862 1 view -0
 559              		.cfi_startproc
 560              		@ args = 0, pretend = 0, frame = 0
 561              		@ frame_needed = 0, uses_anonymous_args = 0
 562              		@ link register save eliminated.
 563              		.loc 1 863 3 view .LVU211
 564              		.loc 1 863 6 is_stmt 0 view .LVU212
 565 0000 0F4B     		ldr	r3, .L58
 566 0002 DA68     		ldr	r2, [r3, #12]
 567              		.loc 1 863 5 view .LVU213
 568 0004 D207     		lsls	r2, r2, #31
 569 0006 06D5     		bpl	.L54
 570              		.loc 1 866 5 is_stmt 1 view .LVU214
ARM GAS  C:\Users\DEVELO~1\AppData\Local\Temp\ccnRDbrW.s 			page 11


 571 0008 0E49     		ldr	r1, .L58+4
 572              		.loc 1 867 5 is_stmt 0 view .LVU215
 573 000a 0F4A     		ldr	r2, .L58+8
 574              		.loc 1 866 5 view .LVU216
 575 000c 5960     		str	r1, [r3, #4]
 576              		.loc 1 867 5 is_stmt 1 view .LVU217
 577 000e 5A60     		str	r2, [r3, #4]
 578              		.loc 1 870 5 view .LVU218
 579              		.loc 1 870 9 is_stmt 0 view .LVU219
 580 0010 DB68     		ldr	r3, [r3, #12]
 581              		.loc 1 870 8 view .LVU220
 582 0012 DB07     		lsls	r3, r3, #31
 583 0014 11D4     		bmi	.L56
 584              	.L54:
 585              		.loc 1 877 3 is_stmt 1 view .LVU221
 586              		.loc 1 877 6 is_stmt 0 view .LVU222
 587 0016 0A4B     		ldr	r3, .L58
 588 0018 D3F80C01 		ldr	r0, [r3, #268]
 589              		.loc 1 877 5 view .LVU223
 590 001c 10F00100 		ands	r0, r0, #1
 591 0020 0AD0     		beq	.L57
 592              		.loc 1 880 5 is_stmt 1 view .LVU224
 593 0022 0849     		ldr	r1, .L58+4
 594              		.loc 1 881 5 is_stmt 0 view .LVU225
 595 0024 084A     		ldr	r2, .L58+8
 596              		.loc 1 880 5 view .LVU226
 597 0026 C3F80411 		str	r1, [r3, #260]
 598              		.loc 1 881 5 is_stmt 1 view .LVU227
 599 002a C3F80421 		str	r2, [r3, #260]
 600              		.loc 1 884 5 view .LVU228
 601              		.loc 1 884 9 is_stmt 0 view .LVU229
 602 002e D3F80C01 		ldr	r0, [r3, #268]
 603              		.loc 1 884 8 view .LVU230
 604 0032 00F00100 		and	r0, r0, #1
 605 0036 7047     		bx	lr
 606              	.L57:
 607 0038 7047     		bx	lr
 608              	.L56:
 609              		.loc 1 872 14 view .LVU231
 610 003a 0120     		movs	r0, #1
 611              		.loc 1 892 1 view .LVU232
 612 003c 7047     		bx	lr
 613              	.L59:
 614 003e 00BF     		.align	2
 615              	.L58:
 616 0040 00200052 		.word	1375739904
 617 0044 23016745 		.word	1164378403
 618 0048 AB89EFCD 		.word	-839939669
 619              		.cfi_endproc
 620              	.LFE146:
 621              		.size	HAL_FLASH_Unlock, .-HAL_FLASH_Unlock
 622              		.section	.text.HAL_FLASH_Lock,"ax",%progbits
 623              		.align	1
 624              		.p2align 4,,15
 625              		.global	HAL_FLASH_Lock
 626              		.syntax unified
 627              		.thumb
ARM GAS  C:\Users\DEVELO~1\AppData\Local\Temp\ccnRDbrW.s 			page 12


 628              		.thumb_func
 629              		.type	HAL_FLASH_Lock, %function
 630              	HAL_FLASH_Lock:
 631              	.LFB147:
 632              		.loc 1 899 1 is_stmt 1 view -0
 633              		.cfi_startproc
 634              		@ args = 0, pretend = 0, frame = 0
 635              		@ frame_needed = 0, uses_anonymous_args = 0
 636              		@ link register save eliminated.
 637              		.loc 1 901 3 view .LVU234
 638 0000 0A4B     		ldr	r3, .L63
 639 0002 DA68     		ldr	r2, [r3, #12]
 640 0004 42F00102 		orr	r2, r2, #1
 641 0008 DA60     		str	r2, [r3, #12]
 642              		.loc 1 904 3 view .LVU235
 643              		.loc 1 904 7 is_stmt 0 view .LVU236
 644 000a DA68     		ldr	r2, [r3, #12]
 645              		.loc 1 904 6 view .LVU237
 646 000c D207     		lsls	r2, r2, #31
 647 000e 0BD5     		bpl	.L62
 648              		.loc 1 911 3 is_stmt 1 view .LVU238
 649 0010 D3F80C21 		ldr	r2, [r3, #268]
 650 0014 42F00102 		orr	r2, r2, #1
 651 0018 C3F80C21 		str	r2, [r3, #268]
 652              		.loc 1 914 3 view .LVU239
 653              		.loc 1 914 7 is_stmt 0 view .LVU240
 654 001c D3F80C01 		ldr	r0, [r3, #268]
 655              		.loc 1 914 6 view .LVU241
 656 0020 C043     		mvns	r0, r0
 657 0022 00F00100 		and	r0, r0, #1
 658 0026 7047     		bx	lr
 659              	.L62:
 660              		.loc 1 906 12 view .LVU242
 661 0028 0120     		movs	r0, #1
 662              		.loc 1 921 1 view .LVU243
 663 002a 7047     		bx	lr
 664              	.L64:
 665              		.align	2
 666              	.L63:
 667 002c 00200052 		.word	1375739904
 668              		.cfi_endproc
 669              	.LFE147:
 670              		.size	HAL_FLASH_Lock, .-HAL_FLASH_Lock
 671              		.section	.text.HAL_FLASH_OB_Unlock,"ax",%progbits
 672              		.align	1
 673              		.p2align 4,,15
 674              		.global	HAL_FLASH_OB_Unlock
 675              		.syntax unified
 676              		.thumb
 677              		.thumb_func
 678              		.type	HAL_FLASH_OB_Unlock, %function
 679              	HAL_FLASH_OB_Unlock:
 680              	.LFB148:
 681              		.loc 1 928 1 is_stmt 1 view -0
 682              		.cfi_startproc
 683              		@ args = 0, pretend = 0, frame = 0
 684              		@ frame_needed = 0, uses_anonymous_args = 0
ARM GAS  C:\Users\DEVELO~1\AppData\Local\Temp\ccnRDbrW.s 			page 13


 685              		@ link register save eliminated.
 686              		.loc 1 929 3 view .LVU245
 687              		.loc 1 929 6 is_stmt 0 view .LVU246
 688 0000 064B     		ldr	r3, .L68
 689 0002 9869     		ldr	r0, [r3, #24]
 690              		.loc 1 929 5 view .LVU247
 691 0004 10F00100 		ands	r0, r0, #1
 692 0008 06D0     		beq	.L66
 693              		.loc 1 932 5 is_stmt 1 view .LVU248
 694 000a 0549     		ldr	r1, .L68+4
 695              		.loc 1 933 5 is_stmt 0 view .LVU249
 696 000c 054A     		ldr	r2, .L68+8
 697              		.loc 1 932 5 view .LVU250
 698 000e 9960     		str	r1, [r3, #8]
 699              		.loc 1 933 5 is_stmt 1 view .LVU251
 700 0010 9A60     		str	r2, [r3, #8]
 701              		.loc 1 936 5 view .LVU252
 702              		.loc 1 936 9 is_stmt 0 view .LVU253
 703 0012 9869     		ldr	r0, [r3, #24]
 704              		.loc 1 936 8 view .LVU254
 705 0014 00F00100 		and	r0, r0, #1
 706              	.L66:
 707              		.loc 1 943 1 view .LVU255
 708 0018 7047     		bx	lr
 709              	.L69:
 710 001a 00BF     		.align	2
 711              	.L68:
 712 001c 00200052 		.word	1375739904
 713 0020 3B2A1908 		.word	135866939
 714 0024 7F6E5D4C 		.word	1281191551
 715              		.cfi_endproc
 716              	.LFE148:
 717              		.size	HAL_FLASH_OB_Unlock, .-HAL_FLASH_OB_Unlock
 718              		.section	.text.HAL_FLASH_OB_Lock,"ax",%progbits
 719              		.align	1
 720              		.p2align 4,,15
 721              		.global	HAL_FLASH_OB_Lock
 722              		.syntax unified
 723              		.thumb
 724              		.thumb_func
 725              		.type	HAL_FLASH_OB_Lock, %function
 726              	HAL_FLASH_OB_Lock:
 727              	.LFB149:
 728              		.loc 1 950 1 is_stmt 1 view -0
 729              		.cfi_startproc
 730              		@ args = 0, pretend = 0, frame = 0
 731              		@ frame_needed = 0, uses_anonymous_args = 0
 732              		@ link register save eliminated.
 733              		.loc 1 952 3 view .LVU257
 734 0000 044B     		ldr	r3, .L71
 735 0002 9A69     		ldr	r2, [r3, #24]
 736 0004 42F00102 		orr	r2, r2, #1
 737 0008 9A61     		str	r2, [r3, #24]
 738              		.loc 1 955 3 view .LVU258
 739              		.loc 1 955 7 is_stmt 0 view .LVU259
 740 000a 9869     		ldr	r0, [r3, #24]
 741              		.loc 1 955 6 view .LVU260
ARM GAS  C:\Users\DEVELO~1\AppData\Local\Temp\ccnRDbrW.s 			page 14


 742 000c C043     		mvns	r0, r0
 743              		.loc 1 961 1 view .LVU261
 744 000e 00F00100 		and	r0, r0, #1
 745 0012 7047     		bx	lr
 746              	.L72:
 747              		.align	2
 748              	.L71:
 749 0014 00200052 		.word	1375739904
 750              		.cfi_endproc
 751              	.LFE149:
 752              		.size	HAL_FLASH_OB_Lock, .-HAL_FLASH_OB_Lock
 753              		.section	.text.HAL_FLASH_GetError,"ax",%progbits
 754              		.align	1
 755              		.p2align 4,,15
 756              		.global	HAL_FLASH_GetError
 757              		.syntax unified
 758              		.thumb
 759              		.thumb_func
 760              		.type	HAL_FLASH_GetError, %function
 761              	HAL_FLASH_GetError:
 762              	.LFB151:
 763              		.loc 1 1046 1 is_stmt 1 view -0
 764              		.cfi_startproc
 765              		@ args = 0, pretend = 0, frame = 0
 766              		@ frame_needed = 0, uses_anonymous_args = 0
 767              		@ link register save eliminated.
 768              		.loc 1 1047 4 view .LVU263
 769              		.loc 1 1047 17 is_stmt 0 view .LVU264
 770 0000 014B     		ldr	r3, .L74
 771 0002 9869     		ldr	r0, [r3, #24]
 772              		.loc 1 1048 1 view .LVU265
 773 0004 7047     		bx	lr
 774              	.L75:
 775 0006 00BF     		.align	2
 776              	.L74:
 777 0008 00000000 		.word	.LANCHOR0
 778              		.cfi_endproc
 779              	.LFE151:
 780              		.size	HAL_FLASH_GetError, .-HAL_FLASH_GetError
 781              		.section	.text.FLASH_WaitForLastOperation,"ax",%progbits
 782              		.align	1
 783              		.p2align 4,,15
 784              		.global	FLASH_WaitForLastOperation
 785              		.syntax unified
 786              		.thumb
 787              		.thumb_func
 788              		.type	FLASH_WaitForLastOperation, %function
 789              	FLASH_WaitForLastOperation:
 790              	.LVL53:
 791              	.LFB152:
 792              		.loc 1 1071 1 is_stmt 1 view -0
 793              		.cfi_startproc
 794              		@ args = 0, pretend = 0, frame = 0
 795              		@ frame_needed = 0, uses_anonymous_args = 0
 796              		.loc 1 1076 3 view .LVU267
 797              		.loc 1 1077 3 view .LVU268
 798              		.loc 1 1078 3 view .LVU269
ARM GAS  C:\Users\DEVELO~1\AppData\Local\Temp\ccnRDbrW.s 			page 15


 799              		.loc 1 1071 1 is_stmt 0 view .LVU270
 800 0000 2DE9F041 		push	{r4, r5, r6, r7, r8, lr}
 801              		.cfi_def_cfa_offset 24
 802              		.cfi_offset 4, -24
 803              		.cfi_offset 5, -20
 804              		.cfi_offset 6, -16
 805              		.cfi_offset 7, -12
 806              		.cfi_offset 8, -8
 807              		.cfi_offset 14, -4
 808              		.loc 1 1071 1 view .LVU271
 809 0004 0F46     		mov	r7, r1
 810 0006 0446     		mov	r4, r0
 811              		.loc 1 1078 24 view .LVU272
 812 0008 FFF7FEFF 		bl	HAL_GetTick
 813              	.LVL54:
 814              		.loc 1 1087 13 view .LVU273
 815 000c 284D     		ldr	r5, .L106
 816 000e 022F     		cmp	r7, #2
 817              		.loc 1 1091 9 view .LVU274
 818 0010 284E     		ldr	r6, .L106+4
 819              		.loc 1 1078 24 view .LVU275
 820 0012 8046     		mov	r8, r0
 821              	.LVL55:
 822              		.loc 1 1080 3 is_stmt 1 view .LVU276
 823              		.loc 1 1084 3 view .LVU277
 824              		.loc 1 1087 13 is_stmt 0 view .LVU278
 825 0014 18BF     		it	ne
 826 0016 0425     		movne	r5, #4
 827              	.LVL56:
 828              		.loc 1 1087 13 view .LVU279
 829 0018 05E0     		b	.L78
 830              	.LVL57:
 831              	.L81:
 832              		.loc 1 1091 9 discriminator 2 view .LVU280
 833 001a D6F81031 		ldr	r3, [r6, #272]
 834 001e 5B07     		lsls	r3, r3, #29
 835 0020 06D5     		bpl	.L83
 836              	.L82:
 837              		.loc 1 1093 7 view .LVU281
 838 0022 611C     		adds	r1, r4, #1
 839 0024 18D1     		bne	.L102
 840              	.LVL58:
 841              	.L78:
 842              		.loc 1 1093 5 is_stmt 1 view .LVU282
 843              		.loc 1 1091 9 view .LVU283
 844 0026 042D     		cmp	r5, #4
 845 0028 F7D1     		bne	.L81
 846              		.loc 1 1091 9 is_stmt 0 discriminator 1 view .LVU284
 847 002a 3369     		ldr	r3, [r6, #16]
 848 002c 5A07     		lsls	r2, r3, #29
 849 002e F8D4     		bmi	.L82
 850              	.L83:
 851              		.loc 1 1103 3 is_stmt 1 view .LVU285
 852              		.loc 1 1103 6 is_stmt 0 view .LVU286
 853 0030 012F     		cmp	r7, #1
 854 0032 26D0     		beq	.L103
 855              		.loc 1 1110 5 is_stmt 1 view .LVU287
ARM GAS  C:\Users\DEVELO~1\AppData\Local\Temp\ccnRDbrW.s 			page 16


 856              		.loc 1 1110 23 is_stmt 0 view .LVU288
 857 0034 1F4A     		ldr	r2, .L106+4
 858              		.loc 1 1110 60 view .LVU289
 859 0036 2049     		ldr	r1, .L106+8
 860              		.loc 1 1110 23 view .LVU290
 861 0038 D2F81031 		ldr	r3, [r2, #272]
 862              	.LVL59:
 863              		.loc 1 1115 3 is_stmt 1 view .LVU291
 864              		.loc 1 1115 5 is_stmt 0 view .LVU292
 865 003c 0B40     		ands	r3, r3, r1
 866              	.LVL60:
 867              		.loc 1 1115 5 view .LVU293
 868 003e 15D1     		bne	.L104
 869              		.loc 1 1138 5 is_stmt 1 view .LVU294
 870              		.loc 1 1138 9 is_stmt 0 view .LVU295
 871 0040 D2F81001 		ldr	r0, [r2, #272]
 872              		.loc 1 1138 8 view .LVU296
 873 0044 10F48030 		ands	r0, r0, #65536
 874 0048 04D0     		beq	.L100
 875              		.loc 1 1141 7 is_stmt 1 view .LVU297
 876 004a 4FF48031 		mov	r1, #65536
 877              		.loc 1 1146 10 is_stmt 0 view .LVU298
 878 004e 1846     		mov	r0, r3
 879              		.loc 1 1141 7 view .LVU299
 880 0050 C2F81411 		str	r1, [r2, #276]
 881              	.LVL61:
 882              	.L100:
 883              		.loc 1 1147 1 view .LVU300
 884 0054 BDE8F081 		pop	{r4, r5, r6, r7, r8, pc}
 885              	.LVL62:
 886              	.L102:
 887              		.loc 1 1095 7 is_stmt 1 view .LVU301
 888              		.loc 1 1095 12 is_stmt 0 view .LVU302
 889 0058 FFF7FEFF 		bl	HAL_GetTick
 890              	.LVL63:
 891              		.loc 1 1095 26 view .LVU303
 892 005c A0EB0800 		sub	r0, r0, r8
 893              		.loc 1 1095 50 view .LVU304
 894 0060 A042     		cmp	r0, r4
 895 0062 01D8     		bhi	.L90
 896 0064 002C     		cmp	r4, #0
 897 0066 DED1     		bne	.L78
 898              	.L90:
 899              		.loc 1 1097 16 view .LVU305
 900 0068 0320     		movs	r0, #3
 901 006a F3E7     		b	.L100
 902              	.LVL64:
 903              	.L104:
 904              		.loc 1 1118 5 is_stmt 1 view .LVU306
 905              		.loc 1 1118 22 is_stmt 0 view .LVU307
 906 006c 134C     		ldr	r4, .L106+12
 907              	.LVL65:
 908              		.loc 1 1123 12 view .LVU308
 909 006e 0120     		movs	r0, #1
 910              		.loc 1 1118 22 view .LVU309
 911 0070 A169     		ldr	r1, [r4, #24]
 912 0072 1943     		orrs	r1, r1, r3
ARM GAS  C:\Users\DEVELO~1\AppData\Local\Temp\ccnRDbrW.s 			page 17


 913 0074 41F00041 		orr	r1, r1, #-2147483648
 914 0078 A161     		str	r1, [r4, #24]
 915              		.loc 1 1121 5 is_stmt 1 view .LVU310
 916 007a C2F81431 		str	r3, [r2, #276]
 917              		.loc 1 1147 1 is_stmt 0 view .LVU311
 918 007e BDE8F081 		pop	{r4, r5, r6, r7, r8, pc}
 919              	.LVL66:
 920              	.L103:
 921              		.loc 1 1105 5 is_stmt 1 view .LVU312
 922              		.loc 1 1105 22 is_stmt 0 view .LVU313
 923 0082 0C49     		ldr	r1, .L106+4
 924              		.loc 1 1105 15 view .LVU314
 925 0084 0C4A     		ldr	r2, .L106+8
 926              		.loc 1 1105 22 view .LVU315
 927 0086 0B69     		ldr	r3, [r1, #16]
 928              	.LVL67:
 929              		.loc 1 1115 3 is_stmt 1 view .LVU316
 930              		.loc 1 1115 5 is_stmt 0 view .LVU317
 931 0088 1A40     		ands	r2, r3, r2
 932              	.LVL68:
 933              		.loc 1 1115 5 view .LVU318
 934 008a 09D1     		bne	.L105
 935              		.loc 1 1129 5 is_stmt 1 view .LVU319
 936              		.loc 1 1129 9 is_stmt 0 view .LVU320
 937 008c 0869     		ldr	r0, [r1, #16]
 938              		.loc 1 1129 8 view .LVU321
 939 008e 10F48030 		ands	r0, r0, #65536
 940 0092 DFD0     		beq	.L100
 941              		.loc 1 1132 7 is_stmt 1 view .LVU322
 942 0094 4FF48033 		mov	r3, #65536
 943              		.loc 1 1146 10 is_stmt 0 view .LVU323
 944 0098 1046     		mov	r0, r2
 945              		.loc 1 1132 7 view .LVU324
 946 009a 4B61     		str	r3, [r1, #20]
 947              		.loc 1 1147 1 view .LVU325
 948 009c BDE8F081 		pop	{r4, r5, r6, r7, r8, pc}
 949              	.LVL69:
 950              	.L105:
 951              		.loc 1 1118 5 is_stmt 1 view .LVU326
 952              		.loc 1 1118 22 is_stmt 0 view .LVU327
 953 00a0 064C     		ldr	r4, .L106+12
 954              	.LVL70:
 955              		.loc 1 1123 12 view .LVU328
 956 00a2 3846     		mov	r0, r7
 957              		.loc 1 1118 22 view .LVU329
 958 00a4 A369     		ldr	r3, [r4, #24]
 959 00a6 1343     		orrs	r3, r3, r2
 960 00a8 A361     		str	r3, [r4, #24]
 961              		.loc 1 1121 5 is_stmt 1 view .LVU330
 962 00aa 4A61     		str	r2, [r1, #20]
 963              		.loc 1 1147 1 is_stmt 0 view .LVU331
 964 00ac BDE8F081 		pop	{r4, r5, r6, r7, r8, pc}
 965              	.LVL71:
 966              	.L107:
 967              		.loc 1 1147 1 view .LVU332
 968              		.align	2
 969              	.L106:
ARM GAS  C:\Users\DEVELO~1\AppData\Local\Temp\ccnRDbrW.s 			page 18


 970 00b0 04000080 		.word	-2147483644
 971 00b4 00200052 		.word	1375739904
 972 00b8 0000EE17 		.word	401473536
 973 00bc 00000000 		.word	.LANCHOR0
 974              		.cfi_endproc
 975              	.LFE152:
 976              		.size	FLASH_WaitForLastOperation, .-FLASH_WaitForLastOperation
 977              		.section	.text.HAL_FLASH_Program,"ax",%progbits
 978              		.align	1
 979              		.p2align 4,,15
 980              		.global	HAL_FLASH_Program
 981              		.syntax unified
 982              		.thumb
 983              		.thumb_func
 984              		.type	HAL_FLASH_Program, %function
 985              	HAL_FLASH_Program:
 986              	.LVL72:
 987              	.LFB141:
 988              		.loc 1 155 1 is_stmt 1 view -0
 989              		.cfi_startproc
 990              		@ args = 0, pretend = 0, frame = 0
 991              		@ frame_needed = 0, uses_anonymous_args = 0
 992              		.loc 1 155 1 is_stmt 0 view .LVU334
 993 0000 F8B5     		push	{r3, r4, r5, r6, r7, lr}
 994              		.cfi_def_cfa_offset 24
 995              		.cfi_offset 3, -24
 996              		.cfi_offset 4, -20
 997              		.cfi_offset 5, -16
 998              		.cfi_offset 6, -12
 999              		.cfi_offset 7, -8
 1000              		.cfi_offset 14, -4
 1001              		.loc 1 167 3 view .LVU335
 1002 0002 2F4E     		ldr	r6, .L123
 1003 0004 307D     		ldrb	r0, [r6, #20]	@ zero_extendqisi2
 1004              	.LVL73:
 1005              		.loc 1 156 3 is_stmt 1 view .LVU336
 1006              		.loc 1 157 3 view .LVU337
 1007              		.loc 1 158 3 view .LVU338
 1008              		.loc 1 159 3 view .LVU339
 1009              		.loc 1 160 3 view .LVU340
 1010              		.loc 1 163 3 view .LVU341
 1011              		.loc 1 164 3 view .LVU342
 1012              		.loc 1 167 3 view .LVU343
 1013              		.loc 1 167 3 view .LVU344
 1014 0006 0128     		cmp	r0, #1
 1015 0008 50D0     		beq	.L117
 1016              		.loc 1 172 6 is_stmt 0 discriminator 2 view .LVU345
 1017 000a 01F17843 		add	r3, r1, #-134217728
 1018              		.loc 1 167 3 discriminator 2 view .LVU346
 1019 000e 0127     		movs	r7, #1
 1020 0010 0D46     		mov	r5, r1
 1021 0012 1446     		mov	r4, r2
 1022              		.loc 1 167 3 is_stmt 1 discriminator 2 view .LVU347
 1023              		.loc 1 172 5 is_stmt 0 discriminator 2 view .LVU348
 1024 0014 B3F5801F 		cmp	r3, #1048576
 1025              		.loc 1 167 3 discriminator 2 view .LVU349
 1026 0018 3775     		strb	r7, [r6, #20]
ARM GAS  C:\Users\DEVELO~1\AppData\Local\Temp\ccnRDbrW.s 			page 19


 1027              		.loc 1 167 3 is_stmt 1 discriminator 2 view .LVU350
 1028              		.loc 1 172 3 discriminator 2 view .LVU351
 1029              		.loc 1 172 5 is_stmt 0 discriminator 2 view .LVU352
 1030 001a 36D3     		bcc	.L121
 1031              		.loc 1 180 8 is_stmt 1 view .LVU353
 1032              		.loc 1 180 11 is_stmt 0 view .LVU354
 1033 001c A1F10163 		sub	r3, r1, #135266304
 1034              		.loc 1 180 10 view .LVU355
 1035 0020 B3F5801F 		cmp	r3, #1048576
 1036 0024 40D2     		bcs	.L118
 1037              	.LVL74:
 1038              		.loc 1 191 3 is_stmt 1 view .LVU356
 1039              		.loc 1 191 20 is_stmt 0 view .LVU357
 1040 0026 0023     		movs	r3, #0
 1041              		.loc 1 194 12 view .LVU358
 1042 0028 0221     		movs	r1, #2
 1043              	.LVL75:
 1044              		.loc 1 194 12 view .LVU359
 1045 002a 4CF25030 		movw	r0, #50000
 1046              		.loc 1 191 20 view .LVU360
 1047 002e B361     		str	r3, [r6, #24]
 1048              		.loc 1 194 3 is_stmt 1 view .LVU361
 1049              		.loc 1 194 12 is_stmt 0 view .LVU362
 1050 0030 FFF7FEFF 		bl	FLASH_WaitForLastOperation
 1051              	.LVL76:
 1052              		.loc 1 196 3 is_stmt 1 view .LVU363
 1053              		.loc 1 196 5 is_stmt 0 view .LVU364
 1054 0034 30BB     		cbnz	r0, .L112
 1055              		.loc 1 199 5 is_stmt 1 view .LVU365
 1056              		.loc 1 217 7 view .LVU366
 1057 0036 234A     		ldr	r2, .L123+4
 1058              		.loc 1 182 10 is_stmt 0 view .LVU367
 1059 0038 0227     		movs	r7, #2
 1060              		.loc 1 217 7 view .LVU368
 1061 003a D2F80C31 		ldr	r3, [r2, #268]
 1062 003e 43F00203 		orr	r3, r3, #2
 1063 0042 C2F80C31 		str	r3, [r2, #268]
 1064              	.LVL77:
 1065              	.L114:
 1066              		.loc 1 158 18 view .LVU369
 1067 0046 2246     		mov	r2, r4
 1068              		.loc 1 234 5 is_stmt 1 view .LVU370
 1069              	.LBB18:
 1070              	.LBI18:
 1071              		.file 2 "../../../os/common/ext/ARM/CMSIS/Core/Include/cmsis_gcc.h"
 1072              		.loc 2 866 27 view .LVU371
 1073              	.LBB19:
 1074              		.loc 2 868 3 view .LVU372
 1075              		.syntax unified
 1076              	@ 868 "../../../os/common/ext/ARM/CMSIS/Core/Include/cmsis_gcc.h" 1
 1077 0048 BFF36F8F 		isb 0xF
 1078              	@ 0 "" 2
 1079              		.thumb
 1080              		.syntax unified
 1081              	.LBE19:
 1082              	.LBE18:
 1083              		.loc 1 235 5 view .LVU373
ARM GAS  C:\Users\DEVELO~1\AppData\Local\Temp\ccnRDbrW.s 			page 20


 1084              	.LBB20:
 1085              	.LBI20:
 1086              		.loc 2 877 27 view .LVU374
 1087              	.LBB21:
 1088              		.loc 2 879 3 view .LVU375
 1089              		.syntax unified
 1090              	@ 879 "../../../os/common/ext/ARM/CMSIS/Core/Include/cmsis_gcc.h" 1
 1091 004c BFF34F8F 		dsb 0xF
 1092              	@ 0 "" 2
 1093              		.thumb
 1094              		.syntax unified
 1095 0050 04F12001 		add	r1, r4, #32
 1096 0054 2B1B     		subs	r3, r5, r4
 1097              	.LVL78:
 1098              	.L115:
 1099              		.loc 2 879 3 is_stmt 0 view .LVU376
 1100              	.LBE21:
 1101              	.LBE20:
 1102              		.loc 1 247 7 is_stmt 1 discriminator 1 view .LVU377
 1103              		.loc 1 249 9 discriminator 1 view .LVU378
 1104              		.loc 1 249 22 is_stmt 0 discriminator 1 view .LVU379
 1105 0056 1068     		ldr	r0, [r2]
 1106              		.loc 1 249 20 discriminator 1 view .LVU380
 1107 0058 D050     		str	r0, [r2, r3]
 1108              		.loc 1 250 9 is_stmt 1 discriminator 1 view .LVU381
 1109              	.LVL79:
 1110              		.loc 1 251 9 discriminator 1 view .LVU382
 1111              		.loc 1 251 17 is_stmt 0 discriminator 1 view .LVU383
 1112 005a 0432     		adds	r2, r2, #4
 1113              	.LVL80:
 1114              		.loc 1 252 9 is_stmt 1 discriminator 1 view .LVU384
 1115              		.loc 1 253 25 discriminator 1 view .LVU385
 1116 005c 8A42     		cmp	r2, r1
 1117 005e FAD1     		bne	.L115
 1118              		.loc 1 256 5 view .LVU386
 1119              	.LBB22:
 1120              	.LBI22:
 1121              		.loc 2 866 27 view .LVU387
 1122              	.LBB23:
 1123              		.loc 2 868 3 view .LVU388
 1124              		.syntax unified
 1125              	@ 868 "../../../os/common/ext/ARM/CMSIS/Core/Include/cmsis_gcc.h" 1
 1126 0060 BFF36F8F 		isb 0xF
 1127              	@ 0 "" 2
 1128              		.thumb
 1129              		.syntax unified
 1130              	.LBE23:
 1131              	.LBE22:
 1132              		.loc 1 257 5 view .LVU389
 1133              	.LBB24:
 1134              	.LBI24:
 1135              		.loc 2 877 27 view .LVU390
 1136              	.LBB25:
 1137              		.loc 2 879 3 view .LVU391
 1138              		.syntax unified
 1139              	@ 879 "../../../os/common/ext/ARM/CMSIS/Core/Include/cmsis_gcc.h" 1
 1140 0064 BFF34F8F 		dsb 0xF
ARM GAS  C:\Users\DEVELO~1\AppData\Local\Temp\ccnRDbrW.s 			page 21


 1141              	@ 0 "" 2
 1142              		.thumb
 1143              		.syntax unified
 1144              	.LBE25:
 1145              	.LBE24:
 1146              		.loc 1 260 5 view .LVU392
 1147              		.loc 1 260 14 is_stmt 0 view .LVU393
 1148 0068 4CF25030 		movw	r0, #50000
 1149 006c 3946     		mov	r1, r7
 1150 006e FFF7FEFF 		bl	FLASH_WaitForLastOperation
 1151              	.LVL81:
 1152              		.loc 1 272 7 is_stmt 1 view .LVU394
 1153              		.loc 1 272 9 is_stmt 0 view .LVU395
 1154 0072 012F     		cmp	r7, #1
 1155              		.loc 1 275 9 view .LVU396
 1156 0074 134A     		ldr	r2, .L123+4
 1157              		.loc 1 272 9 view .LVU397
 1158 0076 1BD0     		beq	.L122
 1159              		.loc 1 280 9 is_stmt 1 view .LVU398
 1160 0078 D2F80C31 		ldr	r3, [r2, #268]
 1161 007c 23F00203 		bic	r3, r3, #2
 1162 0080 C2F80C31 		str	r3, [r2, #268]
 1163              	.L112:
 1164              		.loc 1 300 3 view .LVU399
 1165              		.loc 1 300 3 view .LVU400
 1166 0084 0023     		movs	r3, #0
 1167 0086 3375     		strb	r3, [r6, #20]
 1168              		.loc 1 300 3 view .LVU401
 1169              		.loc 1 302 3 view .LVU402
 1170              	.L109:
 1171              		.loc 1 303 1 is_stmt 0 view .LVU403
 1172 0088 F8BD     		pop	{r3, r4, r5, r6, r7, pc}
 1173              	.LVL82:
 1174              	.L121:
 1175              		.loc 1 191 3 is_stmt 1 view .LVU404
 1176              		.loc 1 191 20 is_stmt 0 view .LVU405
 1177 008a 0023     		movs	r3, #0
 1178              		.loc 1 194 12 view .LVU406
 1179 008c 3946     		mov	r1, r7
 1180              	.LVL83:
 1181              		.loc 1 194 12 view .LVU407
 1182 008e 4CF25030 		movw	r0, #50000
 1183              		.loc 1 191 20 view .LVU408
 1184 0092 B361     		str	r3, [r6, #24]
 1185              		.loc 1 194 3 is_stmt 1 view .LVU409
 1186              		.loc 1 194 12 is_stmt 0 view .LVU410
 1187 0094 FFF7FEFF 		bl	FLASH_WaitForLastOperation
 1188              	.LVL84:
 1189              		.loc 1 196 3 is_stmt 1 view .LVU411
 1190              		.loc 1 196 5 is_stmt 0 view .LVU412
 1191 0098 0028     		cmp	r0, #0
 1192 009a F3D1     		bne	.L112
 1193              		.loc 1 199 5 is_stmt 1 view .LVU413
 1194              		.loc 1 211 9 view .LVU414
 1195 009c 094A     		ldr	r2, .L123+4
 1196 009e D368     		ldr	r3, [r2, #12]
 1197 00a0 43F00203 		orr	r3, r3, #2
ARM GAS  C:\Users\DEVELO~1\AppData\Local\Temp\ccnRDbrW.s 			page 22


 1198 00a4 D360     		str	r3, [r2, #12]
 1199 00a6 CEE7     		b	.L114
 1200              	.LVL85:
 1201              	.L118:
 1202              		.loc 1 187 12 is_stmt 0 view .LVU415
 1203 00a8 3846     		mov	r0, r7
 1204              		.loc 1 303 1 view .LVU416
 1205 00aa F8BD     		pop	{r3, r4, r5, r6, r7, pc}
 1206              	.L117:
 1207              		.loc 1 167 3 view .LVU417
 1208 00ac 0220     		movs	r0, #2
 1209              		.loc 1 303 1 view .LVU418
 1210 00ae F8BD     		pop	{r3, r4, r5, r6, r7, pc}
 1211              	.LVL86:
 1212              	.L122:
 1213              		.loc 1 275 9 is_stmt 1 view .LVU419
 1214 00b0 D368     		ldr	r3, [r2, #12]
 1215 00b2 23F00203 		bic	r3, r3, #2
 1216 00b6 D360     		str	r3, [r2, #12]
 1217              		.loc 1 300 3 view .LVU420
 1218              		.loc 1 300 3 view .LVU421
 1219 00b8 0023     		movs	r3, #0
 1220 00ba 3375     		strb	r3, [r6, #20]
 1221              		.loc 1 300 3 view .LVU422
 1222              		.loc 1 302 3 view .LVU423
 1223 00bc E4E7     		b	.L109
 1224              	.L124:
 1225 00be 00BF     		.align	2
 1226              	.L123:
 1227 00c0 00000000 		.word	.LANCHOR0
 1228 00c4 00200052 		.word	1375739904
 1229              		.cfi_endproc
 1230              	.LFE141:
 1231              		.size	HAL_FLASH_Program, .-HAL_FLASH_Program
 1232              		.section	.text.HAL_FLASH_Program_IT,"ax",%progbits
 1233              		.align	1
 1234              		.p2align 4,,15
 1235              		.global	HAL_FLASH_Program_IT
 1236              		.syntax unified
 1237              		.thumb
 1238              		.thumb_func
 1239              		.type	HAL_FLASH_Program_IT, %function
 1240              	HAL_FLASH_Program_IT:
 1241              	.LVL87:
 1242              	.LFB142:
 1243              		.loc 1 320 1 view -0
 1244              		.cfi_startproc
 1245              		@ args = 0, pretend = 0, frame = 0
 1246              		@ frame_needed = 0, uses_anonymous_args = 0
 1247              		.loc 1 320 1 is_stmt 0 view .LVU425
 1248 0000 70B5     		push	{r4, r5, r6, lr}
 1249              		.cfi_def_cfa_offset 16
 1250              		.cfi_offset 4, -16
 1251              		.cfi_offset 5, -12
 1252              		.cfi_offset 6, -8
 1253              		.cfi_offset 14, -4
 1254              		.loc 1 332 3 view .LVU426
ARM GAS  C:\Users\DEVELO~1\AppData\Local\Temp\ccnRDbrW.s 			page 23


 1255 0002 2B4E     		ldr	r6, .L137
 1256 0004 337D     		ldrb	r3, [r6, #20]	@ zero_extendqisi2
 1257              		.loc 1 321 3 is_stmt 1 view .LVU427
 1258              		.loc 1 322 3 view .LVU428
 1259              	.LVL88:
 1260              		.loc 1 323 3 view .LVU429
 1261              		.loc 1 324 3 view .LVU430
 1262              		.loc 1 325 3 view .LVU431
 1263              		.loc 1 328 3 view .LVU432
 1264              		.loc 1 329 3 view .LVU433
 1265              		.loc 1 332 3 view .LVU434
 1266              		.loc 1 332 3 view .LVU435
 1267 0006 012B     		cmp	r3, #1
 1268 0008 4FD0     		beq	.L131
 1269 000a 0D46     		mov	r5, r1
 1270              		.loc 1 335 20 is_stmt 0 discriminator 2 view .LVU436
 1271 000c 0023     		movs	r3, #0
 1272              		.loc 1 332 3 discriminator 2 view .LVU437
 1273 000e 0121     		movs	r1, #1
 1274              	.LVL89:
 1275              		.loc 1 332 3 discriminator 2 view .LVU438
 1276 0010 1446     		mov	r4, r2
 1277              		.loc 1 332 3 is_stmt 1 discriminator 2 view .LVU439
 1278              		.loc 1 335 20 is_stmt 0 discriminator 2 view .LVU440
 1279 0012 B361     		str	r3, [r6, #24]
 1280              		.loc 1 340 6 discriminator 2 view .LVU441
 1281 0014 05F17843 		add	r3, r5, #-134217728
 1282              		.loc 1 332 3 discriminator 2 view .LVU442
 1283 0018 3175     		strb	r1, [r6, #20]
 1284              		.loc 1 332 3 is_stmt 1 discriminator 2 view .LVU443
 1285              		.loc 1 335 3 discriminator 2 view .LVU444
 1286              		.loc 1 340 3 discriminator 2 view .LVU445
 1287              		.loc 1 340 5 is_stmt 0 discriminator 2 view .LVU446
 1288 001a B3F5801F 		cmp	r3, #1048576
 1289 001e 2DD3     		bcc	.L135
 1290              		.loc 1 348 8 is_stmt 1 view .LVU447
 1291              		.loc 1 348 11 is_stmt 0 view .LVU448
 1292 0020 A5F10163 		sub	r3, r5, #135266304
 1293              		.loc 1 348 10 view .LVU449
 1294 0024 B3F5801F 		cmp	r3, #1048576
 1295 0028 30D2     		bcs	.L132
 1296              	.LVL90:
 1297              		.loc 1 359 3 is_stmt 1 view .LVU450
 1298              		.loc 1 359 12 is_stmt 0 view .LVU451
 1299 002a 0221     		movs	r1, #2
 1300 002c 4CF25030 		movw	r0, #50000
 1301              	.LVL91:
 1302              		.loc 1 359 12 view .LVU452
 1303 0030 FFF7FEFF 		bl	FLASH_WaitForLastOperation
 1304              	.LVL92:
 1305              		.loc 1 361 3 is_stmt 1 view .LVU453
 1306              		.loc 1 361 6 is_stmt 0 view .LVU454
 1307 0034 38BB     		cbnz	r0, .L128
 1308              		.loc 1 368 5 is_stmt 1 view .LVU455
 1309              		.loc 1 404 7 is_stmt 0 view .LVU456
 1310 0036 1F4B     		ldr	r3, .L137+4
 1311              		.loc 1 401 31 view .LVU457
ARM GAS  C:\Users\DEVELO~1\AppData\Local\Temp\ccnRDbrW.s 			page 24


 1312 0038 0622     		movs	r2, #6
 1313              		.loc 1 368 20 view .LVU458
 1314 003a 3561     		str	r5, [r6, #16]
 1315              		.loc 1 371 5 is_stmt 1 view .LVU459
 1316              		.loc 1 401 7 view .LVU460
 1317              		.loc 1 401 31 is_stmt 0 view .LVU461
 1318 003c 3270     		strb	r2, [r6]
 1319              		.loc 1 404 7 is_stmt 1 view .LVU462
 1320 003e D3F80C21 		ldr	r2, [r3, #268]
 1321 0042 42F00202 		orr	r2, r2, #2
 1322 0046 C3F80C21 		str	r2, [r3, #268]
 1323              		.loc 1 408 7 view .LVU463
 1324 004a D3F80C21 		ldr	r2, [r3, #268]
 1325 004e 42F4DE02 		orr	r2, r2, #7274496
 1326 0052 C3F80C21 		str	r2, [r3, #268]
 1327              	.LVL93:
 1328              	.L129:
 1329              		.loc 1 323 18 is_stmt 0 view .LVU464
 1330 0056 2246     		mov	r2, r4
 1331              		.loc 1 442 5 is_stmt 1 view .LVU465
 1332              	.LBB26:
 1333              	.LBI26:
 1334              		.loc 2 866 27 view .LVU466
 1335              	.LBB27:
 1336              		.loc 2 868 3 view .LVU467
 1337              		.syntax unified
 1338              	@ 868 "../../../os/common/ext/ARM/CMSIS/Core/Include/cmsis_gcc.h" 1
 1339 0058 BFF36F8F 		isb 0xF
 1340              	@ 0 "" 2
 1341              		.thumb
 1342              		.syntax unified
 1343              	.LBE27:
 1344              	.LBE26:
 1345              		.loc 1 443 5 view .LVU468
 1346              	.LBB28:
 1347              	.LBI28:
 1348              		.loc 2 877 27 view .LVU469
 1349              	.LBB29:
 1350              		.loc 2 879 3 view .LVU470
 1351              		.syntax unified
 1352              	@ 879 "../../../os/common/ext/ARM/CMSIS/Core/Include/cmsis_gcc.h" 1
 1353 005c BFF34F8F 		dsb 0xF
 1354              	@ 0 "" 2
 1355              		.thumb
 1356              		.syntax unified
 1357 0060 04F12000 		add	r0, r4, #32
 1358              	.LVL94:
 1359              		.loc 2 879 3 is_stmt 0 view .LVU471
 1360 0064 291B     		subs	r1, r5, r4
 1361              	.LVL95:
 1362              	.L130:
 1363              		.loc 2 879 3 view .LVU472
 1364              	.LBE29:
 1365              	.LBE28:
 1366              		.loc 1 455 7 is_stmt 1 discriminator 1 view .LVU473
 1367              		.loc 1 457 9 discriminator 1 view .LVU474
 1368              		.loc 1 457 22 is_stmt 0 discriminator 1 view .LVU475
ARM GAS  C:\Users\DEVELO~1\AppData\Local\Temp\ccnRDbrW.s 			page 25


 1369 0066 1368     		ldr	r3, [r2]
 1370              		.loc 1 457 20 discriminator 1 view .LVU476
 1371 0068 5350     		str	r3, [r2, r1]
 1372              		.loc 1 458 9 is_stmt 1 discriminator 1 view .LVU477
 1373              	.LVL96:
 1374              		.loc 1 459 9 discriminator 1 view .LVU478
 1375              		.loc 1 459 17 is_stmt 0 discriminator 1 view .LVU479
 1376 006a 0432     		adds	r2, r2, #4
 1377              	.LVL97:
 1378              		.loc 1 460 9 is_stmt 1 discriminator 1 view .LVU480
 1379              		.loc 1 461 26 discriminator 1 view .LVU481
 1380 006c 9042     		cmp	r0, r2
 1381 006e FAD1     		bne	.L130
 1382              		.loc 1 464 5 view .LVU482
 1383              	.LBB30:
 1384              	.LBI30:
 1385              		.loc 2 866 27 view .LVU483
 1386              	.LBB31:
 1387              		.loc 2 868 3 view .LVU484
 1388              		.syntax unified
 1389              	@ 868 "../../../os/common/ext/ARM/CMSIS/Core/Include/cmsis_gcc.h" 1
 1390 0070 BFF36F8F 		isb 0xF
 1391              	@ 0 "" 2
 1392              		.thumb
 1393              		.syntax unified
 1394              	.LBE31:
 1395              	.LBE30:
 1396              		.loc 1 465 5 view .LVU485
 1397              	.LBB32:
 1398              	.LBI32:
 1399              		.loc 2 877 27 view .LVU486
 1400              	.LBB33:
 1401              		.loc 2 879 3 view .LVU487
 1402              		.syntax unified
 1403              	@ 879 "../../../os/common/ext/ARM/CMSIS/Core/Include/cmsis_gcc.h" 1
 1404 0074 BFF34F8F 		dsb 0xF
 1405              	@ 0 "" 2
 1406              		.loc 2 880 1 is_stmt 0 view .LVU488
 1407              		.thumb
 1408              		.syntax unified
 1409 0078 0020     		movs	r0, #0
 1410              	.LBE33:
 1411              	.LBE32:
 1412              		.loc 1 469 1 view .LVU489
 1413 007a 70BD     		pop	{r4, r5, r6, pc}
 1414              	.LVL98:
 1415              	.L135:
 1416              		.loc 1 359 3 is_stmt 1 view .LVU490
 1417              		.loc 1 359 12 is_stmt 0 view .LVU491
 1418 007c 4CF25030 		movw	r0, #50000
 1419              	.LVL99:
 1420              		.loc 1 359 12 view .LVU492
 1421 0080 FFF7FEFF 		bl	FLASH_WaitForLastOperation
 1422              	.LVL100:
 1423              		.loc 1 361 3 is_stmt 1 view .LVU493
 1424              		.loc 1 361 6 is_stmt 0 view .LVU494
 1425 0084 20B1     		cbz	r0, .L136
ARM GAS  C:\Users\DEVELO~1\AppData\Local\Temp\ccnRDbrW.s 			page 26


 1426              	.LVL101:
 1427              	.L128:
 1428              		.loc 1 364 5 is_stmt 1 view .LVU495
 1429              		.loc 1 364 5 view .LVU496
 1430 0086 0023     		movs	r3, #0
 1431 0088 3375     		strb	r3, [r6, #20]
 1432              		.loc 1 364 5 view .LVU497
 1433              		.loc 1 469 1 is_stmt 0 view .LVU498
 1434 008a 70BD     		pop	{r4, r5, r6, pc}
 1435              	.LVL102:
 1436              	.L132:
 1437              		.loc 1 355 12 view .LVU499
 1438 008c 0846     		mov	r0, r1
 1439              	.LVL103:
 1440              		.loc 1 469 1 view .LVU500
 1441 008e 70BD     		pop	{r4, r5, r6, pc}
 1442              	.LVL104:
 1443              	.L136:
 1444              		.loc 1 368 5 is_stmt 1 view .LVU501
 1445              		.loc 1 386 9 is_stmt 0 view .LVU502
 1446 0090 084B     		ldr	r3, .L137+4
 1447              		.loc 1 374 31 view .LVU503
 1448 0092 0322     		movs	r2, #3
 1449              		.loc 1 368 20 view .LVU504
 1450 0094 3561     		str	r5, [r6, #16]
 1451              		.loc 1 371 5 is_stmt 1 view .LVU505
 1452              		.loc 1 374 7 view .LVU506
 1453              		.loc 1 374 31 is_stmt 0 view .LVU507
 1454 0096 3270     		strb	r2, [r6]
 1455              		.loc 1 386 9 is_stmt 1 view .LVU508
 1456 0098 DA68     		ldr	r2, [r3, #12]
 1457 009a 42F00202 		orr	r2, r2, #2
 1458 009e DA60     		str	r2, [r3, #12]
 1459              		.loc 1 391 7 view .LVU509
 1460 00a0 DA68     		ldr	r2, [r3, #12]
 1461 00a2 42F4DE02 		orr	r2, r2, #7274496
 1462 00a6 DA60     		str	r2, [r3, #12]
 1463 00a8 D5E7     		b	.L129
 1464              	.LVL105:
 1465              	.L131:
 1466              		.loc 1 332 3 is_stmt 0 view .LVU510
 1467 00aa 0220     		movs	r0, #2
 1468              	.LVL106:
 1469              		.loc 1 469 1 view .LVU511
 1470 00ac 70BD     		pop	{r4, r5, r6, pc}
 1471              	.L138:
 1472 00ae 00BF     		.align	2
 1473              	.L137:
 1474 00b0 00000000 		.word	.LANCHOR0
 1475 00b4 00200052 		.word	1375739904
 1476              		.cfi_endproc
 1477              	.LFE142:
 1478              		.size	HAL_FLASH_Program_IT, .-HAL_FLASH_Program_IT
 1479              		.section	.text.FLASH_OB_WaitForLastOperation,"ax",%progbits
 1480              		.align	1
 1481              		.p2align 4,,15
 1482              		.global	FLASH_OB_WaitForLastOperation
ARM GAS  C:\Users\DEVELO~1\AppData\Local\Temp\ccnRDbrW.s 			page 27


 1483              		.syntax unified
 1484              		.thumb
 1485              		.thumb_func
 1486              		.type	FLASH_OB_WaitForLastOperation, %function
 1487              	FLASH_OB_WaitForLastOperation:
 1488              	.LVL107:
 1489              	.LFB153:
 1490              		.loc 1 1155 1 is_stmt 1 view -0
 1491              		.cfi_startproc
 1492              		@ args = 0, pretend = 0, frame = 0
 1493              		@ frame_needed = 0, uses_anonymous_args = 0
 1494              		.loc 1 1157 3 view .LVU513
 1495              		.loc 1 1155 1 is_stmt 0 view .LVU514
 1496 0000 70B5     		push	{r4, r5, r6, lr}
 1497              		.cfi_def_cfa_offset 16
 1498              		.cfi_offset 4, -16
 1499              		.cfi_offset 5, -12
 1500              		.cfi_offset 6, -8
 1501              		.cfi_offset 14, -4
 1502              		.loc 1 1155 1 view .LVU515
 1503 0002 0446     		mov	r4, r0
 1504              		.loc 1 1160 9 view .LVU516
 1505 0004 114D     		ldr	r5, .L151
 1506              		.loc 1 1157 24 view .LVU517
 1507 0006 FFF7FEFF 		bl	HAL_GetTick
 1508              	.LVL108:
 1509              		.loc 1 1157 24 view .LVU518
 1510 000a 0646     		mov	r6, r0
 1511              	.LVL109:
 1512              		.loc 1 1160 3 is_stmt 1 view .LVU519
 1513              		.loc 1 1160 8 is_stmt 0 view .LVU520
 1514 000c 01E0     		b	.L141
 1515              	.LVL110:
 1516              	.L143:
 1517              		.loc 1 1162 7 view .LVU521
 1518 000e 621C     		adds	r2, r4, #1
 1519 0010 07D1     		bne	.L149
 1520              	.L141:
 1521              		.loc 1 1162 5 is_stmt 1 view .LVU522
 1522              		.loc 1 1160 58 view .LVU523
 1523              		.loc 1 1160 9 is_stmt 0 view .LVU524
 1524 0012 EB69     		ldr	r3, [r5, #28]
 1525              		.loc 1 1160 58 view .LVU525
 1526 0014 DB07     		lsls	r3, r3, #31
 1527 0016 FAD4     		bmi	.L143
 1528              		.loc 1 1172 3 is_stmt 1 view .LVU526
 1529              		.loc 1 1172 6 is_stmt 0 view .LVU527
 1530 0018 E869     		ldr	r0, [r5, #28]
 1531              		.loc 1 1172 5 view .LVU528
 1532 001a 10F08040 		ands	r0, r0, #1073741824
 1533 001e 09D1     		bne	.L150
 1534              		.loc 1 1185 1 view .LVU529
 1535 0020 70BD     		pop	{r4, r5, r6, pc}
 1536              	.LVL111:
 1537              	.L149:
 1538              		.loc 1 1164 7 is_stmt 1 view .LVU530
 1539              		.loc 1 1164 12 is_stmt 0 view .LVU531
ARM GAS  C:\Users\DEVELO~1\AppData\Local\Temp\ccnRDbrW.s 			page 28


 1540 0022 FFF7FEFF 		bl	HAL_GetTick
 1541              	.LVL112:
 1542              		.loc 1 1164 26 view .LVU532
 1543 0026 801B     		subs	r0, r0, r6
 1544              		.loc 1 1164 50 view .LVU533
 1545 0028 A042     		cmp	r0, r4
 1546 002a 01D8     		bhi	.L144
 1547 002c 002C     		cmp	r4, #0
 1548 002e F0D1     		bne	.L141
 1549              	.L144:
 1550              		.loc 1 1166 16 view .LVU534
 1551 0030 0320     		movs	r0, #3
 1552              		.loc 1 1185 1 view .LVU535
 1553 0032 70BD     		pop	{r4, r5, r6, pc}
 1554              	.LVL113:
 1555              	.L150:
 1556              	.LBB36:
 1557              	.LBI36:
 1558              		.loc 1 1154 19 is_stmt 1 view .LVU536
 1559              	.LBB37:
 1560              		.loc 1 1175 5 view .LVU537
 1561              		.loc 1 1175 22 is_stmt 0 view .LVU538
 1562 0034 064A     		ldr	r2, .L151+4
 1563              		.loc 1 1178 19 view .LVU539
 1564 0036 0120     		movs	r0, #1
 1565              		.loc 1 1175 22 view .LVU540
 1566 0038 9369     		ldr	r3, [r2, #24]
 1567 003a 43F08043 		orr	r3, r3, #1073741824
 1568 003e 9361     		str	r3, [r2, #24]
 1569              		.loc 1 1178 5 is_stmt 1 view .LVU541
 1570              		.loc 1 1178 19 is_stmt 0 view .LVU542
 1571 0040 6B6A     		ldr	r3, [r5, #36]
 1572 0042 43F08043 		orr	r3, r3, #1073741824
 1573 0046 6B62     		str	r3, [r5, #36]
 1574              		.loc 1 1180 5 is_stmt 1 view .LVU543
 1575              	.LVL114:
 1576              		.loc 1 1180 5 is_stmt 0 view .LVU544
 1577              	.LBE37:
 1578              	.LBE36:
 1579              		.loc 1 1185 1 view .LVU545
 1580 0048 70BD     		pop	{r4, r5, r6, pc}
 1581              	.LVL115:
 1582              	.L152:
 1583              		.loc 1 1185 1 view .LVU546
 1584 004a 00BF     		.align	2
 1585              	.L151:
 1586 004c 00200052 		.word	1375739904
 1587 0050 00000000 		.word	.LANCHOR0
 1588              		.cfi_endproc
 1589              	.LFE153:
 1590              		.size	FLASH_OB_WaitForLastOperation, .-FLASH_OB_WaitForLastOperation
 1591              		.section	.text.FLASH_CRC_WaitForLastOperation,"ax",%progbits
 1592              		.align	1
 1593              		.p2align 4,,15
 1594              		.global	FLASH_CRC_WaitForLastOperation
 1595              		.syntax unified
 1596              		.thumb
ARM GAS  C:\Users\DEVELO~1\AppData\Local\Temp\ccnRDbrW.s 			page 29


 1597              		.thumb_func
 1598              		.type	FLASH_CRC_WaitForLastOperation, %function
 1599              	FLASH_CRC_WaitForLastOperation:
 1600              	.LVL116:
 1601              	.LFB154:
 1602              		.loc 1 1194 1 is_stmt 1 view -0
 1603              		.cfi_startproc
 1604              		@ args = 0, pretend = 0, frame = 0
 1605              		@ frame_needed = 0, uses_anonymous_args = 0
 1606              		.loc 1 1195 3 view .LVU548
 1607              		.loc 1 1196 3 view .LVU549
 1608              		.loc 1 1194 1 is_stmt 0 view .LVU550
 1609 0000 2DE9F041 		push	{r4, r5, r6, r7, r8, lr}
 1610              		.cfi_def_cfa_offset 24
 1611              		.cfi_offset 4, -24
 1612              		.cfi_offset 5, -20
 1613              		.cfi_offset 6, -16
 1614              		.cfi_offset 7, -12
 1615              		.cfi_offset 8, -8
 1616              		.cfi_offset 14, -4
 1617              		.loc 1 1194 1 view .LVU551
 1618 0004 0F46     		mov	r7, r1
 1619 0006 0446     		mov	r4, r0
 1620              		.loc 1 1196 24 view .LVU552
 1621 0008 FFF7FEFF 		bl	HAL_GetTick
 1622              	.LVL117:
 1623              		.loc 1 1207 13 view .LVU553
 1624 000c 1F4D     		ldr	r5, .L175
 1625 000e 012F     		cmp	r7, #1
 1626              		.loc 1 1211 9 view .LVU554
 1627 0010 1F4E     		ldr	r6, .L175+4
 1628              		.loc 1 1196 24 view .LVU555
 1629 0012 8046     		mov	r8, r0
 1630              	.LVL118:
 1631              		.loc 1 1198 3 is_stmt 1 view .LVU556
 1632              		.loc 1 1201 3 view .LVU557
 1633              		.loc 1 1207 13 is_stmt 0 view .LVU558
 1634 0014 08BF     		it	eq
 1635 0016 0825     		moveq	r5, #8
 1636 0018 05E0     		b	.L155
 1637              	.LVL119:
 1638              	.L158:
 1639              		.loc 1 1211 9 discriminator 2 view .LVU559
 1640 001a D6F81031 		ldr	r3, [r6, #272]
 1641 001e 1B07     		lsls	r3, r3, #28
 1642 0020 06D5     		bpl	.L160
 1643              	.L159:
 1644              		.loc 1 1213 7 view .LVU560
 1645 0022 611C     		adds	r1, r4, #1
 1646 0024 0ED1     		bne	.L172
 1647              	.LVL120:
 1648              	.L155:
 1649              		.loc 1 1213 5 is_stmt 1 view .LVU561
 1650              		.loc 1 1211 9 view .LVU562
 1651 0026 082D     		cmp	r5, #8
 1652 0028 F7D1     		bne	.L158
 1653              		.loc 1 1211 9 is_stmt 0 discriminator 1 view .LVU563
ARM GAS  C:\Users\DEVELO~1\AppData\Local\Temp\ccnRDbrW.s 			page 30


 1654 002a 3369     		ldr	r3, [r6, #16]
 1655 002c 1A07     		lsls	r2, r3, #28
 1656 002e F8D4     		bmi	.L159
 1657              	.L160:
 1658              		.loc 1 1223 3 is_stmt 1 view .LVU564
 1659              		.loc 1 1223 5 is_stmt 0 view .LVU565
 1660 0030 012F     		cmp	r7, #1
 1661              		.loc 1 1225 9 view .LVU566
 1662 0032 174B     		ldr	r3, .L175+4
 1663              		.loc 1 1223 5 view .LVU567
 1664 0034 1CD0     		beq	.L173
 1665              		.loc 1 1239 5 is_stmt 1 view .LVU568
 1666              		.loc 1 1239 9 is_stmt 0 view .LVU569
 1667 0036 D3F81001 		ldr	r0, [r3, #272]
 1668              		.loc 1 1239 8 view .LVU570
 1669 003a 10F08050 		ands	r0, r0, #268435456
 1670 003e 0BD1     		bne	.L174
 1671              	.L156:
 1672              		.loc 1 1254 1 view .LVU571
 1673 0040 BDE8F081 		pop	{r4, r5, r6, r7, r8, pc}
 1674              	.LVL121:
 1675              	.L172:
 1676              		.loc 1 1215 7 is_stmt 1 view .LVU572
 1677              		.loc 1 1215 12 is_stmt 0 view .LVU573
 1678 0044 FFF7FEFF 		bl	HAL_GetTick
 1679              	.LVL122:
 1680              		.loc 1 1215 26 view .LVU574
 1681 0048 A0EB0800 		sub	r0, r0, r8
 1682              		.loc 1 1215 50 view .LVU575
 1683 004c A042     		cmp	r0, r4
 1684 004e 01D8     		bhi	.L163
 1685 0050 002C     		cmp	r4, #0
 1686 0052 E8D1     		bne	.L155
 1687              	.L163:
 1688              		.loc 1 1217 16 view .LVU576
 1689 0054 0320     		movs	r0, #3
 1690 0056 F3E7     		b	.L156
 1691              	.L174:
 1692              		.loc 1 1242 7 is_stmt 1 view .LVU577
 1693              		.loc 1 1242 24 is_stmt 0 view .LVU578
 1694 0058 0E49     		ldr	r1, .L175+8
 1695              		.loc 1 1245 7 view .LVU579
 1696 005a 4FF08054 		mov	r4, #268435456
 1697              	.LVL123:
 1698              		.loc 1 1247 14 view .LVU580
 1699 005e 0120     		movs	r0, #1
 1700              		.loc 1 1242 24 view .LVU581
 1701 0060 8A69     		ldr	r2, [r1, #24]
 1702 0062 42F01042 		orr	r2, r2, #-1879048192
 1703 0066 8A61     		str	r2, [r1, #24]
 1704              		.loc 1 1245 7 is_stmt 1 view .LVU582
 1705 0068 C3F81441 		str	r4, [r3, #276]
 1706              		.loc 1 1247 7 view .LVU583
 1707              		.loc 1 1254 1 is_stmt 0 view .LVU584
 1708 006c BDE8F081 		pop	{r4, r5, r6, r7, r8, pc}
 1709              	.LVL124:
 1710              	.L173:
ARM GAS  C:\Users\DEVELO~1\AppData\Local\Temp\ccnRDbrW.s 			page 31


 1711              		.loc 1 1225 5 is_stmt 1 view .LVU585
 1712              		.loc 1 1225 9 is_stmt 0 view .LVU586
 1713 0070 1869     		ldr	r0, [r3, #16]
 1714              		.loc 1 1225 8 view .LVU587
 1715 0072 10F08050 		ands	r0, r0, #268435456
 1716 0076 E3D0     		beq	.L156
 1717              		.loc 1 1228 7 is_stmt 1 view .LVU588
 1718              		.loc 1 1228 24 is_stmt 0 view .LVU589
 1719 0078 0649     		ldr	r1, .L175+8
 1720              		.loc 1 1231 7 view .LVU590
 1721 007a 4FF08054 		mov	r4, #268435456
 1722              	.LVL125:
 1723              		.loc 1 1233 14 view .LVU591
 1724 007e 3846     		mov	r0, r7
 1725              		.loc 1 1228 24 view .LVU592
 1726 0080 8A69     		ldr	r2, [r1, #24]
 1727 0082 2243     		orrs	r2, r2, r4
 1728 0084 8A61     		str	r2, [r1, #24]
 1729              		.loc 1 1231 7 is_stmt 1 view .LVU593
 1730 0086 5C61     		str	r4, [r3, #20]
 1731              		.loc 1 1233 7 view .LVU594
 1732              		.loc 1 1254 1 is_stmt 0 view .LVU595
 1733 0088 BDE8F081 		pop	{r4, r5, r6, r7, r8, pc}
 1734              	.LVL126:
 1735              	.L176:
 1736              		.loc 1 1254 1 view .LVU596
 1737              		.align	2
 1738              	.L175:
 1739 008c 08000080 		.word	-2147483640
 1740 0090 00200052 		.word	1375739904
 1741 0094 00000000 		.word	.LANCHOR0
 1742              		.cfi_endproc
 1743              	.LFE154:
 1744              		.size	FLASH_CRC_WaitForLastOperation, .-FLASH_CRC_WaitForLastOperation
 1745              		.section	.text.HAL_FLASH_OB_Launch,"ax",%progbits
 1746              		.align	1
 1747              		.p2align 4,,15
 1748              		.global	HAL_FLASH_OB_Launch
 1749              		.syntax unified
 1750              		.thumb
 1751              		.thumb_func
 1752              		.type	HAL_FLASH_OB_Launch, %function
 1753              	HAL_FLASH_OB_Launch:
 1754              	.LFB150:
 1755              		.loc 1 968 1 is_stmt 1 view -0
 1756              		.cfi_startproc
 1757              		@ args = 0, pretend = 0, frame = 0
 1758              		@ frame_needed = 0, uses_anonymous_args = 0
 1759              		.loc 1 969 3 view .LVU598
 1760              		.loc 1 972 3 view .LVU599
 1761              	.LVL127:
 1762              	.LBB40:
 1763              	.LBI40:
 1764              		.loc 1 1193 19 view .LVU600
 1765              	.LBB41:
 1766              		.loc 1 1195 3 view .LVU601
 1767              		.loc 1 1196 3 view .LVU602
ARM GAS  C:\Users\DEVELO~1\AppData\Local\Temp\ccnRDbrW.s 			page 32


 1768              	.LBE41:
 1769              	.LBE40:
 1770              		.loc 1 968 1 is_stmt 0 view .LVU603
 1771 0000 70B5     		push	{r4, r5, r6, lr}
 1772              		.cfi_def_cfa_offset 16
 1773              		.cfi_offset 4, -16
 1774              		.cfi_offset 5, -12
 1775              		.cfi_offset 6, -8
 1776              		.cfi_offset 14, -4
 1777              	.LBB45:
 1778              	.LBB42:
 1779              		.loc 1 1196 24 view .LVU604
 1780 0002 FFF7FEFF 		bl	HAL_GetTick
 1781              	.LVL128:
 1782              		.loc 1 1211 9 view .LVU605
 1783 0006 154D     		ldr	r5, .L187
 1784              		.loc 1 1215 9 view .LVU606
 1785 0008 4CF25036 		movw	r6, #50000
 1786              		.loc 1 1196 24 view .LVU607
 1787 000c 0446     		mov	r4, r0
 1788              	.LVL129:
 1789              		.loc 1 1198 3 is_stmt 1 view .LVU608
 1790              		.loc 1 1201 3 view .LVU609
 1791 000e 04E0     		b	.L178
 1792              	.LVL130:
 1793              	.L180:
 1794              		.loc 1 1215 12 is_stmt 0 view .LVU610
 1795 0010 FFF7FEFF 		bl	HAL_GetTick
 1796              	.LVL131:
 1797              		.loc 1 1215 26 view .LVU611
 1798 0014 001B     		subs	r0, r0, r4
 1799              		.loc 1 1215 9 view .LVU612
 1800 0016 B042     		cmp	r0, r6
 1801 0018 0BD8     		bhi	.L179
 1802              	.LVL132:
 1803              	.L178:
 1804              		.loc 1 1213 5 is_stmt 1 view .LVU613
 1805              		.loc 1 1215 7 view .LVU614
 1806              		.loc 1 1211 9 view .LVU615
 1807 001a 2B69     		ldr	r3, [r5, #16]
 1808 001c 1A07     		lsls	r2, r3, #28
 1809 001e F7D4     		bmi	.L180
 1810              		.loc 1 1223 3 view .LVU616
 1811              		.loc 1 1225 5 view .LVU617
 1812              		.loc 1 1225 9 is_stmt 0 view .LVU618
 1813 0020 2B69     		ldr	r3, [r5, #16]
 1814              		.loc 1 1225 8 view .LVU619
 1815 0022 DB00     		lsls	r3, r3, #3
 1816 0024 07D4     		bmi	.L185
 1817              	.LVL133:
 1818              		.loc 1 1225 8 view .LVU620
 1819              	.LBE42:
 1820              	.LBE45:
 1821              		.loc 1 977 8 is_stmt 1 view .LVU621
 1822              		.loc 1 977 12 is_stmt 0 view .LVU622
 1823 0026 0221     		movs	r1, #2
 1824 0028 4CF25030 		movw	r0, #50000
ARM GAS  C:\Users\DEVELO~1\AppData\Local\Temp\ccnRDbrW.s 			page 33


 1825 002c FFF7FEFF 		bl	FLASH_CRC_WaitForLastOperation
 1826              	.LVL134:
 1827              		.loc 1 977 11 view .LVU623
 1828 0030 50B1     		cbz	r0, .L186
 1829              	.L179:
 1830              		.loc 1 996 3 is_stmt 1 view .LVU624
 1831              		.loc 1 997 1 is_stmt 0 view .LVU625
 1832 0032 0120     		movs	r0, #1
 1833 0034 70BD     		pop	{r4, r5, r6, pc}
 1834              	.LVL135:
 1835              	.L185:
 1836              	.LBB46:
 1837              	.LBB43:
 1838              		.loc 1 1228 7 is_stmt 1 view .LVU626
 1839              		.loc 1 1228 24 is_stmt 0 view .LVU627
 1840 0036 0A4A     		ldr	r2, .L187+4
 1841              		.loc 1 1231 7 view .LVU628
 1842 0038 4FF08051 		mov	r1, #268435456
 1843              	.LBE43:
 1844              	.LBE46:
 1845              		.loc 1 997 1 view .LVU629
 1846 003c 0120     		movs	r0, #1
 1847              	.LBB47:
 1848              	.LBB44:
 1849              		.loc 1 1228 24 view .LVU630
 1850 003e 9369     		ldr	r3, [r2, #24]
 1851 0040 0B43     		orrs	r3, r3, r1
 1852 0042 9361     		str	r3, [r2, #24]
 1853              		.loc 1 1231 7 is_stmt 1 view .LVU631
 1854 0044 6961     		str	r1, [r5, #20]
 1855              		.loc 1 1233 7 view .LVU632
 1856              	.LVL136:
 1857              		.loc 1 1233 7 is_stmt 0 view .LVU633
 1858              	.LBE44:
 1859              	.LBE47:
 1860              		.loc 1 996 3 is_stmt 1 view .LVU634
 1861              		.loc 1 997 1 is_stmt 0 view .LVU635
 1862 0046 70BD     		pop	{r4, r5, r6, pc}
 1863              	.L186:
 1864              		.loc 1 984 5 is_stmt 1 view .LVU636
 1865              	.LVL137:
 1866              		.loc 1 987 3 view .LVU637
 1867              		.loc 1 990 5 view .LVU638
 1868 0048 AB69     		ldr	r3, [r5, #24]
 1869              		.loc 1 993 14 is_stmt 0 view .LVU639
 1870 004a 4CF25030 		movw	r0, #50000
 1871              		.loc 1 990 5 view .LVU640
 1872 004e 43F00203 		orr	r3, r3, #2
 1873 0052 AB61     		str	r3, [r5, #24]
 1874              		.loc 1 993 5 is_stmt 1 view .LVU641
 1875              		.loc 1 997 1 is_stmt 0 view .LVU642
 1876 0054 BDE87040 		pop	{r4, r5, r6, lr}
 1877              		.cfi_restore 14
 1878              		.cfi_restore 6
 1879              		.cfi_restore 5
 1880              		.cfi_restore 4
 1881              		.cfi_def_cfa_offset 0
ARM GAS  C:\Users\DEVELO~1\AppData\Local\Temp\ccnRDbrW.s 			page 34


 1882              		.loc 1 993 14 view .LVU643
 1883 0058 FFF7FEBF 		b	FLASH_OB_WaitForLastOperation
 1884              	.LVL138:
 1885              	.L188:
 1886              		.align	2
 1887              	.L187:
 1888 005c 00200052 		.word	1375739904
 1889 0060 00000000 		.word	.LANCHOR0
 1890              		.cfi_endproc
 1891              	.LFE150:
 1892              		.size	HAL_FLASH_OB_Launch, .-HAL_FLASH_OB_Launch
 1893              		.global	pFlash
 1894              		.section	.bss.pFlash,"aw",%nobits
 1895              		.align	2
 1896              		.set	.LANCHOR0,. + 0
 1897              		.type	pFlash, %object
 1898              		.size	pFlash, 28
 1899              	pFlash:
 1900 0000 00000000 		.space	28
 1900      00000000 
 1900      00000000 
 1900      00000000 
 1900      00000000 
 1901              		.text
 1902              	.Letext0:
 1903              		.file 3 "c:\\chibistudio\\tools\\gnu tools arm embedded\\11.3 2022.08\\arm-none-eabi\\include\\mac
 1904              		.file 4 "c:\\chibistudio\\tools\\gnu tools arm embedded\\11.3 2022.08\\arm-none-eabi\\include\\sys
 1905              		.file 5 "../../../os/common/ext/ST/STM32H7xx/stm32h743xx.h"
 1906              		.file 6 "../../../os/common/ext/ST/STM32H7xx/stm32h7xx.h"
 1907              		.file 7 "./drivers/stm32h7xx-hal-driver/Inc/stm32h7xx_hal_def.h"
 1908              		.file 8 "./drivers/stm32h7xx-hal-driver/Inc/stm32h7xx_hal_flash.h"
 1909              		.file 9 "./drivers/stm32h7xx-hal-driver/Inc/stm32h7xx_hal_flash_ex.h"
 1910              		.file 10 "./drivers/stm32h7xx-hal-driver/Inc/stm32h7xx_hal.h"